ARM GAS  C:\Users\rdn\AppData\Local\Temp\ccZR1Dqi.s 			page 1


   1              		.syntax unified
   2              		.cpu cortex-m4
   3              		.eabi_attribute 27, 1
   4              		.fpu fpv4-sp-d16
   5              		.eabi_attribute 20, 1
   6              		.eabi_attribute 21, 1
   7              		.eabi_attribute 23, 3
   8              		.eabi_attribute 24, 1
   9              		.eabi_attribute 25, 1
  10              		.eabi_attribute 26, 1
  11              		.eabi_attribute 30, 1
  12              		.eabi_attribute 34, 1
  13              		.eabi_attribute 18, 4
  14              		.thumb
  15              		.syntax unified
  16              		.file	"bits.c"
  17              		.text
  18              	.Ltext0:
  19              		.cfi_sections	.debug_frame
  20              		.section	.text.ac_get_range_bits,"ax",%progbits
  21              		.align	2
  22              		.thumb
  23              		.thumb_func
  24              		.type	ac_get_range_bits, %function
  25              	ac_get_range_bits:
  26              	.LFB13:
  27              		.file 1 "..\\..\\..\\liblc3\\src\\bits.c"
   1:..\..\..\liblc3\src/bits.c **** /******************************************************************************
   2:..\..\..\liblc3\src/bits.c ****  *
   3:..\..\..\liblc3\src/bits.c ****  *  Copyright 2022 Google LLC
   4:..\..\..\liblc3\src/bits.c ****  *
   5:..\..\..\liblc3\src/bits.c ****  *  Licensed under the Apache License, Version 2.0 (the "License");
   6:..\..\..\liblc3\src/bits.c ****  *  you may not use this file except in compliance with the License.
   7:..\..\..\liblc3\src/bits.c ****  *  You may obtain a copy of the License at:
   8:..\..\..\liblc3\src/bits.c ****  *
   9:..\..\..\liblc3\src/bits.c ****  *  http://www.apache.org/licenses/LICENSE-2.0
  10:..\..\..\liblc3\src/bits.c ****  *
  11:..\..\..\liblc3\src/bits.c ****  *  Unless required by applicable law or agreed to in writing, software
  12:..\..\..\liblc3\src/bits.c ****  *  distributed under the License is distributed on an "AS IS" BASIS,
  13:..\..\..\liblc3\src/bits.c ****  *  WITHOUT WARRANTIES OR CONDITIONS OF ANY KIND, either express or implied.
  14:..\..\..\liblc3\src/bits.c ****  *  See the License for the specific language governing permissions and
  15:..\..\..\liblc3\src/bits.c ****  *  limitations under the License.
  16:..\..\..\liblc3\src/bits.c ****  *
  17:..\..\..\liblc3\src/bits.c ****  ******************************************************************************/
  18:..\..\..\liblc3\src/bits.c **** 
  19:..\..\..\liblc3\src/bits.c **** #include "bits.h"
  20:..\..\..\liblc3\src/bits.c **** #include "common.h"
  21:..\..\..\liblc3\src/bits.c **** 
  22:..\..\..\liblc3\src/bits.c **** 
  23:..\..\..\liblc3\src/bits.c **** /* ----------------------------------------------------------------------------
  24:..\..\..\liblc3\src/bits.c ****  *  Common
  25:..\..\..\liblc3\src/bits.c ****  * -------------------------------------------------------------------------- */
  26:..\..\..\liblc3\src/bits.c **** 
  27:..\..\..\liblc3\src/bits.c **** static inline int ac_get(struct lc3_bits_buffer *);
  28:..\..\..\liblc3\src/bits.c **** static inline void accu_load(struct lc3_bits_accu *, struct lc3_bits_buffer *);
  29:..\..\..\liblc3\src/bits.c **** 
  30:..\..\..\liblc3\src/bits.c **** /**
ARM GAS  C:\Users\rdn\AppData\Local\Temp\ccZR1Dqi.s 			page 2


  31:..\..\..\liblc3\src/bits.c ****  * Arithmetic coder return range bits
  32:..\..\..\liblc3\src/bits.c ****  * ac              Arithmetic coder
  33:..\..\..\liblc3\src/bits.c ****  * return          1 + log2(ac->range)
  34:..\..\..\liblc3\src/bits.c ****  */
  35:..\..\..\liblc3\src/bits.c **** static int ac_get_range_bits(const struct lc3_bits_ac *ac)
  36:..\..\..\liblc3\src/bits.c **** {
  28              		.loc 1 36 0
  29              		.cfi_startproc
  30              		@ args = 0, pretend = 0, frame = 0
  31              		@ frame_needed = 0, uses_anonymous_args = 0
  32              		@ link register save eliminated.
  33              	.LVL0:
  34              	.LBB22:
  37:..\..\..\liblc3\src/bits.c ****     int nbits = 0;
  38:..\..\..\liblc3\src/bits.c **** 
  39:..\..\..\liblc3\src/bits.c ****     for (unsigned r = ac->range; r; r >>= 1, nbits++);
  35              		.loc 1 39 0
  36 0000 4368     		ldr	r3, [r0, #4]
  37              	.LVL1:
  38              	.LBE22:
  37:..\..\..\liblc3\src/bits.c ****     int nbits = 0;
  39              		.loc 1 37 0
  40 0002 0020     		movs	r0, #0
  41              	.LVL2:
  42              	.LBB23:
  43              		.loc 1 39 0
  44 0004 01E0     		b	.L2
  45              	.LVL3:
  46              	.L3:
  47              		.loc 1 39 0 is_stmt 0 discriminator 3
  48 0006 5B08     		lsrs	r3, r3, #1
  49              	.LVL4:
  50 0008 0130     		adds	r0, r0, #1
  51              	.LVL5:
  52              	.L2:
  53              		.loc 1 39 0 discriminator 1
  54 000a 002B     		cmp	r3, #0
  55 000c FBD1     		bne	.L3
  56              	.LBE23:
  40:..\..\..\liblc3\src/bits.c **** 
  41:..\..\..\liblc3\src/bits.c ****     return nbits;
  42:..\..\..\liblc3\src/bits.c **** }
  57              		.loc 1 42 0 is_stmt 1
  58 000e 7047     		bx	lr
  59              		.cfi_endproc
  60              	.LFE13:
  61              		.size	ac_get_range_bits, .-ac_get_range_bits
  62              		.section	.text.ac_get_pending_bits,"ax",%progbits
  63              		.align	2
  64              		.thumb
  65              		.thumb_func
  66              		.type	ac_get_pending_bits, %function
  67              	ac_get_pending_bits:
  68              	.LFB14:
  43:..\..\..\liblc3\src/bits.c **** 
  44:..\..\..\liblc3\src/bits.c **** /**
  45:..\..\..\liblc3\src/bits.c ****  * Arithmetic coder return pending bits
ARM GAS  C:\Users\rdn\AppData\Local\Temp\ccZR1Dqi.s 			page 3


  46:..\..\..\liblc3\src/bits.c ****  * ac              Arithmetic coder
  47:..\..\..\liblc3\src/bits.c ****  * return          Pending bits
  48:..\..\..\liblc3\src/bits.c ****  */
  49:..\..\..\liblc3\src/bits.c **** static int ac_get_pending_bits(const struct lc3_bits_ac *ac)
  50:..\..\..\liblc3\src/bits.c **** {
  69              		.loc 1 50 0
  70              		.cfi_startproc
  71              		@ args = 0, pretend = 0, frame = 0
  72              		@ frame_needed = 0, uses_anonymous_args = 0
  73              	.LVL6:
  74 0000 10B5     		push	{r4, lr}
  75              		.cfi_def_cfa_offset 8
  76              		.cfi_offset 4, -8
  77              		.cfi_offset 14, -4
  78 0002 0446     		mov	r4, r0
  51:..\..\..\liblc3\src/bits.c ****     return 26 - ac_get_range_bits(ac) +
  79              		.loc 1 51 0
  80 0004 FFF7FEFF 		bl	ac_get_range_bits
  81              	.LVL7:
  82 0008 C0F11A00 		rsb	r0, r0, #26
  52:..\..\..\liblc3\src/bits.c ****         ((ac->cache >= 0) + ac->carry_count) * 8;
  83              		.loc 1 52 0
  84 000c A268     		ldr	r2, [r4, #8]
  85 000e 2369     		ldr	r3, [r4, #16]
  86 0010 002A     		cmp	r2, #0
  87 0012 A8BF     		it	ge
  88 0014 0133     		addge	r3, r3, #1
  53:..\..\..\liblc3\src/bits.c **** }
  89              		.loc 1 53 0
  90 0016 00EBC300 		add	r0, r0, r3, lsl #3
  91 001a 10BD     		pop	{r4, pc}
  92              		.cfi_endproc
  93              	.LFE14:
  94              		.size	ac_get_pending_bits, .-ac_get_pending_bits
  95              		.section	.text.get_bits_left,"ax",%progbits
  96              		.align	2
  97              		.thumb
  98              		.thumb_func
  99              		.type	get_bits_left, %function
 100              	get_bits_left:
 101              	.LFB15:
  54:..\..\..\liblc3\src/bits.c **** 
  55:..\..\..\liblc3\src/bits.c **** /**
  56:..\..\..\liblc3\src/bits.c ****  * Return number of bits left in the bitstream
  57:..\..\..\liblc3\src/bits.c ****  * bits            Bitstream context
  58:..\..\..\liblc3\src/bits.c ****  * return          >= 0: Number of bits left  < 0: Overflow
  59:..\..\..\liblc3\src/bits.c ****  */
  60:..\..\..\liblc3\src/bits.c **** static int get_bits_left(const struct lc3_bits *bits)
  61:..\..\..\liblc3\src/bits.c **** {
 102              		.loc 1 61 0
 103              		.cfi_startproc
 104              		@ args = 0, pretend = 0, frame = 0
 105              		@ frame_needed = 0, uses_anonymous_args = 0
 106              	.LVL8:
 107 0000 38B5     		push	{r3, r4, r5, lr}
 108              		.cfi_def_cfa_offset 16
 109              		.cfi_offset 3, -16
ARM GAS  C:\Users\rdn\AppData\Local\Temp\ccZR1Dqi.s 			page 4


 110              		.cfi_offset 4, -12
 111              		.cfi_offset 5, -8
 112              		.cfi_offset 14, -4
 113 0002 0246     		mov	r2, r0
 114              	.LVL9:
  62:..\..\..\liblc3\src/bits.c ****     const struct lc3_bits_buffer *buffer = &bits->buffer;
  63:..\..\..\liblc3\src/bits.c ****     const struct lc3_bits_accu *accu = &bits->accu;
  64:..\..\..\liblc3\src/bits.c ****     const struct lc3_bits_ac *ac = &bits->ac;
 115              		.loc 1 64 0
 116 0004 0430     		adds	r0, r0, #4
 117              	.LVL10:
  65:..\..\..\liblc3\src/bits.c **** 
  66:..\..\..\liblc3\src/bits.c ****     uintptr_t end = (uintptr_t)buffer->p_bw +
 118              		.loc 1 66 0
 119 0006 536B     		ldr	r3, [r2, #52]
  67:..\..\..\liblc3\src/bits.c ****         (bits->mode == LC3_BITS_MODE_READ ? LC3_ACCU_BITS/8 : 0);
 120              		.loc 1 67 0
 121 0008 1478     		ldrb	r4, [r2]	@ zero_extendqisi2
  66:..\..\..\liblc3\src/bits.c ****         (bits->mode == LC3_BITS_MODE_READ ? LC3_ACCU_BITS/8 : 0);
 122              		.loc 1 66 0
 123 000a 0CB9     		cbnz	r4, .L11
 124 000c 0421     		movs	r1, #4
 125 000e 00E0     		b	.L7
 126              	.L11:
 127 0010 0021     		movs	r1, #0
 128              	.L7:
  66:..\..\..\liblc3\src/bits.c ****         (bits->mode == LC3_BITS_MODE_READ ? LC3_ACCU_BITS/8 : 0);
 129              		.loc 1 66 0 is_stmt 0 discriminator 4
 130 0012 0B44     		add	r3, r3, r1
 131              	.LVL11:
  68:..\..\..\liblc3\src/bits.c **** 
  69:..\..\..\liblc3\src/bits.c ****     uintptr_t start = (uintptr_t)buffer->p_fw -
 132              		.loc 1 69 0 is_stmt 1 discriminator 4
 133 0014 116B     		ldr	r1, [r2, #48]
 134 0016 0CB9     		cbnz	r4, .L12
 135              		.loc 1 69 0 is_stmt 0
 136 0018 0324     		movs	r4, #3
 137 001a 00E0     		b	.L8
 138              	.L12:
 139 001c 0024     		movs	r4, #0
 140              	.L8:
 141              		.loc 1 69 0 discriminator 4
 142 001e 0C1B     		subs	r4, r1, r4
 143              	.LVL12:
  70:..\..\..\liblc3\src/bits.c ****         (bits->mode == LC3_BITS_MODE_READ ? LC3_AC_BITS/8 : 0);
  71:..\..\..\liblc3\src/bits.c **** 
  72:..\..\..\liblc3\src/bits.c ****     int n = end > start ? (int)(end - start) : -(int)(start - end);
 144              		.loc 1 72 0 is_stmt 1 discriminator 4
 145 0020 A342     		cmp	r3, r4
 146 0022 01D9     		bls	.L9
 147              		.loc 1 72 0 is_stmt 0 discriminator 1
 148 0024 1B1B     		subs	r3, r3, r4
 149              	.LVL13:
 150 0026 00E0     		b	.L10
 151              	.LVL14:
 152              	.L9:
 153              		.loc 1 72 0 discriminator 2
ARM GAS  C:\Users\rdn\AppData\Local\Temp\ccZR1Dqi.s 			page 5


 154 0028 1B1B     		subs	r3, r3, r4
 155              	.LVL15:
 156              	.L10:
  73:..\..\..\liblc3\src/bits.c **** 
  74:..\..\..\liblc3\src/bits.c ****     return 8 * n - (accu->n + accu->nover + ac_get_pending_bits(ac));
 157              		.loc 1 74 0 is_stmt 1 discriminator 4
 158 002a DC00     		lsls	r4, r3, #3
 159              	.LVL16:
 160 002c 156A     		ldr	r5, [r2, #32]
 161 002e 536A     		ldr	r3, [r2, #36]
 162              	.LVL17:
 163 0030 1D44     		add	r5, r5, r3
 164 0032 FFF7FEFF 		bl	ac_get_pending_bits
 165              	.LVL18:
 166 0036 2844     		add	r0, r0, r5
  75:..\..\..\liblc3\src/bits.c **** }
 167              		.loc 1 75 0 discriminator 4
 168 0038 201A     		subs	r0, r4, r0
 169 003a 38BD     		pop	{r3, r4, r5, pc}
 170              		.cfi_endproc
 171              	.LFE15:
 172              		.size	get_bits_left, .-get_bits_left
 173              		.section	.text.ac_terminate,"ax",%progbits
 174              		.align	2
 175              		.thumb
 176              		.thumb_func
 177              		.type	ac_terminate, %function
 178              	ac_terminate:
 179              	.LFB22:
  76:..\..\..\liblc3\src/bits.c **** 
  77:..\..\..\liblc3\src/bits.c **** /**
  78:..\..\..\liblc3\src/bits.c ****  * Setup bitstream writing
  79:..\..\..\liblc3\src/bits.c ****  */
  80:..\..\..\liblc3\src/bits.c **** void lc3_setup_bits(struct lc3_bits *bits,
  81:..\..\..\liblc3\src/bits.c ****     enum lc3_bits_mode mode, void *buffer, int len)
  82:..\..\..\liblc3\src/bits.c **** {
  83:..\..\..\liblc3\src/bits.c ****     *bits = (struct lc3_bits){
  84:..\..\..\liblc3\src/bits.c ****         .mode = mode,
  85:..\..\..\liblc3\src/bits.c ****         .accu = {
  86:..\..\..\liblc3\src/bits.c ****             .n = mode == LC3_BITS_MODE_READ ? LC3_ACCU_BITS : 0,
  87:..\..\..\liblc3\src/bits.c ****         },
  88:..\..\..\liblc3\src/bits.c ****         .ac = {
  89:..\..\..\liblc3\src/bits.c ****             .range = 0xffffff,
  90:..\..\..\liblc3\src/bits.c ****             .cache = -1
  91:..\..\..\liblc3\src/bits.c ****         },
  92:..\..\..\liblc3\src/bits.c ****         .buffer = {
  93:..\..\..\liblc3\src/bits.c ****             .start = (uint8_t *)buffer, .end  = (uint8_t *)buffer + len,
  94:..\..\..\liblc3\src/bits.c ****             .p_fw  = (uint8_t *)buffer, .p_bw = (uint8_t *)buffer + len,
  95:..\..\..\liblc3\src/bits.c ****         }
  96:..\..\..\liblc3\src/bits.c ****     };
  97:..\..\..\liblc3\src/bits.c **** 
  98:..\..\..\liblc3\src/bits.c ****     if (mode == LC3_BITS_MODE_READ) {
  99:..\..\..\liblc3\src/bits.c ****         struct lc3_bits_ac *ac = &bits->ac;
 100:..\..\..\liblc3\src/bits.c ****         struct lc3_bits_accu *accu = &bits->accu;
 101:..\..\..\liblc3\src/bits.c ****         struct lc3_bits_buffer *buffer = &bits->buffer;
 102:..\..\..\liblc3\src/bits.c **** 
 103:..\..\..\liblc3\src/bits.c ****         ac->low  = ac_get(buffer) << 16;
ARM GAS  C:\Users\rdn\AppData\Local\Temp\ccZR1Dqi.s 			page 6


 104:..\..\..\liblc3\src/bits.c ****         ac->low |= ac_get(buffer) <<  8;
 105:..\..\..\liblc3\src/bits.c ****         ac->low |= ac_get(buffer);
 106:..\..\..\liblc3\src/bits.c **** 
 107:..\..\..\liblc3\src/bits.c ****         accu_load(accu, buffer);
 108:..\..\..\liblc3\src/bits.c ****     }
 109:..\..\..\liblc3\src/bits.c **** }
 110:..\..\..\liblc3\src/bits.c **** 
 111:..\..\..\liblc3\src/bits.c **** /**
 112:..\..\..\liblc3\src/bits.c ****  * Return number of bits left in the bitstream
 113:..\..\..\liblc3\src/bits.c ****  */
 114:..\..\..\liblc3\src/bits.c **** int lc3_get_bits_left(const struct lc3_bits *bits)
 115:..\..\..\liblc3\src/bits.c **** {
 116:..\..\..\liblc3\src/bits.c ****     return LC3_MAX(get_bits_left(bits), 0);
 117:..\..\..\liblc3\src/bits.c **** }
 118:..\..\..\liblc3\src/bits.c **** 
 119:..\..\..\liblc3\src/bits.c **** /**
 120:..\..\..\liblc3\src/bits.c ****  * Return number of bits left in the bitstream
 121:..\..\..\liblc3\src/bits.c ****  */
 122:..\..\..\liblc3\src/bits.c **** int lc3_check_bits(const struct lc3_bits *bits)
 123:..\..\..\liblc3\src/bits.c **** {
 124:..\..\..\liblc3\src/bits.c ****     const struct lc3_bits_ac *ac = &bits->ac;
 125:..\..\..\liblc3\src/bits.c **** 
 126:..\..\..\liblc3\src/bits.c ****     return -(get_bits_left(bits) < 0 || ac->error);
 127:..\..\..\liblc3\src/bits.c **** }
 128:..\..\..\liblc3\src/bits.c **** 
 129:..\..\..\liblc3\src/bits.c **** 
 130:..\..\..\liblc3\src/bits.c **** /* ----------------------------------------------------------------------------
 131:..\..\..\liblc3\src/bits.c ****  *  Writing
 132:..\..\..\liblc3\src/bits.c ****  * -------------------------------------------------------------------------- */
 133:..\..\..\liblc3\src/bits.c **** 
 134:..\..\..\liblc3\src/bits.c **** /**
 135:..\..\..\liblc3\src/bits.c ****  * Flush the bits accumulator
 136:..\..\..\liblc3\src/bits.c ****  * accu            Bitstream accumulator
 137:..\..\..\liblc3\src/bits.c ****  * buffer          Bitstream buffer
 138:..\..\..\liblc3\src/bits.c ****  */
 139:..\..\..\liblc3\src/bits.c **** static inline void accu_flush(
 140:..\..\..\liblc3\src/bits.c ****     struct lc3_bits_accu *accu, struct lc3_bits_buffer *buffer)
 141:..\..\..\liblc3\src/bits.c **** {
 142:..\..\..\liblc3\src/bits.c ****     int nbytes = LC3_MIN(accu->n >> 3,
 143:..\..\..\liblc3\src/bits.c ****         LC3_MAX(buffer->p_bw - buffer->p_fw, 0));
 144:..\..\..\liblc3\src/bits.c **** 
 145:..\..\..\liblc3\src/bits.c ****     accu->n -= 8 * nbytes;
 146:..\..\..\liblc3\src/bits.c **** 
 147:..\..\..\liblc3\src/bits.c ****     for ( ; nbytes; accu->v >>= 8, nbytes--)
 148:..\..\..\liblc3\src/bits.c ****         *(--buffer->p_bw) = accu->v & 0xff;
 149:..\..\..\liblc3\src/bits.c **** 
 150:..\..\..\liblc3\src/bits.c ****     if (accu->n >= 8)
 151:..\..\..\liblc3\src/bits.c ****         accu->n = 0;
 152:..\..\..\liblc3\src/bits.c **** }
 153:..\..\..\liblc3\src/bits.c **** 
 154:..\..\..\liblc3\src/bits.c **** /**
 155:..\..\..\liblc3\src/bits.c ****  * Arithmetic coder put byte
 156:..\..\..\liblc3\src/bits.c ****  * buffer          Bitstream buffer
 157:..\..\..\liblc3\src/bits.c ****  * byte            Byte to output
 158:..\..\..\liblc3\src/bits.c ****  */
 159:..\..\..\liblc3\src/bits.c **** static inline void ac_put(struct lc3_bits_buffer *buffer, int byte)
 160:..\..\..\liblc3\src/bits.c **** {
ARM GAS  C:\Users\rdn\AppData\Local\Temp\ccZR1Dqi.s 			page 7


 161:..\..\..\liblc3\src/bits.c ****     if (buffer->p_fw < buffer->end)
 162:..\..\..\liblc3\src/bits.c ****         *(buffer->p_fw++) = byte;
 163:..\..\..\liblc3\src/bits.c **** }
 164:..\..\..\liblc3\src/bits.c **** 
 165:..\..\..\liblc3\src/bits.c **** /**
 166:..\..\..\liblc3\src/bits.c ****  * Arithmetic coder range shift
 167:..\..\..\liblc3\src/bits.c ****  * ac              Arithmetic coder
 168:..\..\..\liblc3\src/bits.c ****  * buffer          Bitstream buffer
 169:..\..\..\liblc3\src/bits.c ****  */
 170:..\..\..\liblc3\src/bits.c **** LC3_HOT static inline void ac_shift(
 171:..\..\..\liblc3\src/bits.c ****     struct lc3_bits_ac *ac, struct lc3_bits_buffer *buffer)
 172:..\..\..\liblc3\src/bits.c **** {
 173:..\..\..\liblc3\src/bits.c ****     if (ac->low < 0xff0000 || ac->carry)
 174:..\..\..\liblc3\src/bits.c ****     {
 175:..\..\..\liblc3\src/bits.c ****         if (ac->cache >= 0)
 176:..\..\..\liblc3\src/bits.c ****             ac_put(buffer, ac->cache + ac->carry);
 177:..\..\..\liblc3\src/bits.c **** 
 178:..\..\..\liblc3\src/bits.c ****         for ( ; ac->carry_count > 0; ac->carry_count--)
 179:..\..\..\liblc3\src/bits.c ****             ac_put(buffer, ac->carry ? 0x00 : 0xff);
 180:..\..\..\liblc3\src/bits.c **** 
 181:..\..\..\liblc3\src/bits.c ****          ac->cache = ac->low >> 16;
 182:..\..\..\liblc3\src/bits.c ****          ac->carry = 0;
 183:..\..\..\liblc3\src/bits.c ****     }
 184:..\..\..\liblc3\src/bits.c ****     else
 185:..\..\..\liblc3\src/bits.c ****          ac->carry_count++;
 186:..\..\..\liblc3\src/bits.c **** 
 187:..\..\..\liblc3\src/bits.c ****     ac->low = (ac->low << 8) & 0xffffff;
 188:..\..\..\liblc3\src/bits.c **** }
 189:..\..\..\liblc3\src/bits.c **** 
 190:..\..\..\liblc3\src/bits.c **** /**
 191:..\..\..\liblc3\src/bits.c ****  * Arithmetic coder termination
 192:..\..\..\liblc3\src/bits.c ****  * ac              Arithmetic coder
 193:..\..\..\liblc3\src/bits.c ****  * buffer          Bitstream buffer
 194:..\..\..\liblc3\src/bits.c ****  * end_val/nbits   End value and count of bits to terminate (1 to 8)
 195:..\..\..\liblc3\src/bits.c ****  */
 196:..\..\..\liblc3\src/bits.c **** static void ac_terminate(struct lc3_bits_ac *ac,
 197:..\..\..\liblc3\src/bits.c ****     struct lc3_bits_buffer *buffer)
 198:..\..\..\liblc3\src/bits.c **** {
 180              		.loc 1 198 0
 181              		.cfi_startproc
 182              		@ args = 0, pretend = 0, frame = 0
 183              		@ frame_needed = 0, uses_anonymous_args = 0
 184              	.LVL19:
 185 0000 F8B5     		push	{r3, r4, r5, r6, r7, lr}
 186              		.cfi_def_cfa_offset 24
 187              		.cfi_offset 3, -24
 188              		.cfi_offset 4, -20
 189              		.cfi_offset 5, -16
 190              		.cfi_offset 6, -12
 191              		.cfi_offset 7, -8
 192              		.cfi_offset 14, -4
 193 0002 0446     		mov	r4, r0
 194 0004 0D46     		mov	r5, r1
 199:..\..\..\liblc3\src/bits.c ****     int nbits = 25 - ac_get_range_bits(ac);
 195              		.loc 1 199 0
 196 0006 FFF7FEFF 		bl	ac_get_range_bits
 197              	.LVL20:
ARM GAS  C:\Users\rdn\AppData\Local\Temp\ccZR1Dqi.s 			page 8


 198 000a C0F11906 		rsb	r6, r0, #25
 199              	.LVL21:
 200:..\..\..\liblc3\src/bits.c ****     unsigned mask = 0xffffff >> nbits;
 200              		.loc 1 200 0
 201 000e 6FF07F41 		mvn	r1, #-16777216
 202 0012 3141     		asrs	r1, r1, r6
 203              	.LVL22:
 201:..\..\..\liblc3\src/bits.c ****     unsigned val  = ac->low + mask;
 204              		.loc 1 201 0
 205 0014 2768     		ldr	r7, [r4]
 206 0016 CB19     		adds	r3, r1, r7
 207              	.LVL23:
 202:..\..\..\liblc3\src/bits.c ****     unsigned high = ac->low + ac->range;
 208              		.loc 1 202 0
 209 0018 6268     		ldr	r2, [r4, #4]
 210 001a 3A44     		add	r2, r2, r7
 211              	.LVL24:
 203:..\..\..\liblc3\src/bits.c **** 
 204:..\..\..\liblc3\src/bits.c ****     bool over_val  = val  >> 24;
 212              		.loc 1 204 0
 213 001c 5FEA136E 		lsrs	lr, r3, #24
 214 0020 14BF     		ite	ne
 215 0022 4FF0010C 		movne	ip, #1
 216 0026 4FF0000C 		moveq	ip, #0
 217              	.LVL25:
 205:..\..\..\liblc3\src/bits.c ****     bool over_high = high >> 24;
 218              		.loc 1 205 0
 219 002a 5FEA126E 		lsrs	lr, r2, #24
 220 002e 14BF     		ite	ne
 221 0030 4FF0010E 		movne	lr, #1
 222 0034 4FF0000E 		moveq	lr, #0
 223              	.LVL26:
 206:..\..\..\liblc3\src/bits.c **** 
 207:..\..\..\liblc3\src/bits.c ****     val  = (val  & 0xffffff) & ~mask;
 224              		.loc 1 207 0
 225 0038 23EA0103 		bic	r3, r3, r1
 226              	.LVL27:
 227 003c 23F07F43 		bic	r3, r3, #-16777216
 228              	.LVL28:
 208:..\..\..\liblc3\src/bits.c ****     high = (high & 0xffffff);
 209:..\..\..\liblc3\src/bits.c **** 
 210:..\..\..\liblc3\src/bits.c ****     if (over_val == over_high) {
 229              		.loc 1 210 0
 230 0040 F445     		cmp	ip, lr
 231 0042 13D1     		bne	.L15
 232 0044 22F07F42 		bic	r2, r2, #-16777216
 233              	.LVL29:
 211:..\..\..\liblc3\src/bits.c **** 
 212:..\..\..\liblc3\src/bits.c ****         if (val + mask >= high) {
 234              		.loc 1 212 0
 235 0048 01EB030E 		add	lr, r1, r3
 236              	.LVL30:
 237 004c 7245     		cmp	r2, lr
 238 004e 07D8     		bhi	.L16
 213:..\..\..\liblc3\src/bits.c ****             nbits++;
 239              		.loc 1 213 0
 240 0050 C0F11A06 		rsb	r6, r0, #26
ARM GAS  C:\Users\rdn\AppData\Local\Temp\ccZR1Dqi.s 			page 9


 241              	.LVL31:
 214:..\..\..\liblc3\src/bits.c ****             mask >>= 1;
 242              		.loc 1 214 0
 243 0054 4908     		lsrs	r1, r1, #1
 244              	.LVL32:
 215:..\..\..\liblc3\src/bits.c ****             val = ((ac->low + mask) & 0xffffff) & ~mask;
 245              		.loc 1 215 0
 246 0056 7B18     		adds	r3, r7, r1
 247              	.LVL33:
 248 0058 23EA0103 		bic	r3, r3, r1
 249 005c 23F07F43 		bic	r3, r3, #-16777216
 250              	.LVL34:
 251              	.L16:
 216:..\..\..\liblc3\src/bits.c ****         }
 217:..\..\..\liblc3\src/bits.c **** 
 218:..\..\..\liblc3\src/bits.c ****         ac->carry |= val < ac->low;
 252              		.loc 1 218 0
 253 0060 E268     		ldr	r2, [r4, #12]
 254              	.LVL35:
 255 0062 BB42     		cmp	r3, r7
 256 0064 38BF     		it	cc
 257 0066 42F00102 		orrcc	r2, r2, #1
 258 006a E260     		str	r2, [r4, #12]
 259              	.L15:
 219:..\..\..\liblc3\src/bits.c ****     }
 220:..\..\..\liblc3\src/bits.c **** 
 221:..\..\..\liblc3\src/bits.c ****     ac->low = val;
 260              		.loc 1 221 0
 261 006c 2360     		str	r3, [r4]
 222:..\..\..\liblc3\src/bits.c **** 
 223:..\..\..\liblc3\src/bits.c ****     for (; nbits > 8; nbits -= 8)
 262              		.loc 1 223 0
 263 006e 32E0     		b	.L17
 264              	.LVL36:
 265              	.L25:
 266              	.LBB40:
 267              	.LBB41:
 173:..\..\..\liblc3\src/bits.c ****     {
 268              		.loc 1 173 0
 269 0070 2368     		ldr	r3, [r4]
 270 0072 B3F57F0F 		cmp	r3, #16711680
 271 0076 01D3     		bcc	.L18
 272 0078 E368     		ldr	r3, [r4, #12]
 273 007a 1BB3     		cbz	r3, .L19
 274              	.L18:
 175:..\..\..\liblc3\src/bits.c ****             ac_put(buffer, ac->cache + ac->carry);
 275              		.loc 1 175 0
 276 007c A368     		ldr	r3, [r4, #8]
 277 007e 002B     		cmp	r3, #0
 278 0080 18DB     		blt	.L20
 176:..\..\..\liblc3\src/bits.c **** 
 279              		.loc 1 176 0
 280 0082 E268     		ldr	r2, [r4, #12]
 281 0084 1344     		add	r3, r3, r2
 282              	.LVL37:
 283              	.LBB42:
 284              	.LBB43:
ARM GAS  C:\Users\rdn\AppData\Local\Temp\ccZR1Dqi.s 			page 10


 161:..\..\..\liblc3\src/bits.c ****         *(buffer->p_fw++) = byte;
 285              		.loc 1 161 0
 286 0086 AA68     		ldr	r2, [r5, #8]
 287 0088 6968     		ldr	r1, [r5, #4]
 288 008a 8A42     		cmp	r2, r1
 289 008c 12D2     		bcs	.L20
 162:..\..\..\liblc3\src/bits.c **** }
 290              		.loc 1 162 0
 291 008e 511C     		adds	r1, r2, #1
 292 0090 A960     		str	r1, [r5, #8]
 293 0092 1370     		strb	r3, [r2]
 294 0094 0EE0     		b	.L20
 295              	.LVL38:
 296              	.L23:
 297              	.LBE43:
 298              	.LBE42:
 179:..\..\..\liblc3\src/bits.c **** 
 299              		.loc 1 179 0
 300 0096 E368     		ldr	r3, [r4, #12]
 301 0098 0BB1     		cbz	r3, .L39
 302 009a 0021     		movs	r1, #0
 303 009c 00E0     		b	.L21
 304              	.L39:
 305 009e FF21     		movs	r1, #255
 306              	.L21:
 307              	.LVL39:
 308              	.LBB44:
 309              	.LBB45:
 161:..\..\..\liblc3\src/bits.c ****         *(buffer->p_fw++) = byte;
 310              		.loc 1 161 0
 311 00a0 AB68     		ldr	r3, [r5, #8]
 312 00a2 6A68     		ldr	r2, [r5, #4]
 313 00a4 9342     		cmp	r3, r2
 314 00a6 02D2     		bcs	.L22
 162:..\..\..\liblc3\src/bits.c **** }
 315              		.loc 1 162 0
 316 00a8 5A1C     		adds	r2, r3, #1
 317 00aa AA60     		str	r2, [r5, #8]
 318 00ac 1970     		strb	r1, [r3]
 319              	.L22:
 320              	.LVL40:
 321              	.LBE45:
 322              	.LBE44:
 178:..\..\..\liblc3\src/bits.c ****             ac_put(buffer, ac->carry ? 0x00 : 0xff);
 323              		.loc 1 178 0
 324 00ae 2369     		ldr	r3, [r4, #16]
 325 00b0 013B     		subs	r3, r3, #1
 326 00b2 2361     		str	r3, [r4, #16]
 327              	.L20:
 328 00b4 2369     		ldr	r3, [r4, #16]
 329 00b6 002B     		cmp	r3, #0
 330 00b8 EDDC     		bgt	.L23
 181:..\..\..\liblc3\src/bits.c ****          ac->carry = 0;
 331              		.loc 1 181 0
 332 00ba 6388     		ldrh	r3, [r4, #2]
 333 00bc A360     		str	r3, [r4, #8]
 182:..\..\..\liblc3\src/bits.c ****     }
ARM GAS  C:\Users\rdn\AppData\Local\Temp\ccZR1Dqi.s 			page 11


 334              		.loc 1 182 0
 335 00be 0023     		movs	r3, #0
 336 00c0 E360     		str	r3, [r4, #12]
 337 00c2 02E0     		b	.L24
 338              	.L19:
 185:..\..\..\liblc3\src/bits.c **** 
 339              		.loc 1 185 0
 340 00c4 2369     		ldr	r3, [r4, #16]
 341 00c6 0133     		adds	r3, r3, #1
 342 00c8 2361     		str	r3, [r4, #16]
 343              	.L24:
 187:..\..\..\liblc3\src/bits.c **** }
 344              		.loc 1 187 0
 345 00ca 2368     		ldr	r3, [r4]
 346 00cc 1B02     		lsls	r3, r3, #8
 347 00ce 23F07F43 		bic	r3, r3, #-16777216
 348 00d2 2360     		str	r3, [r4]
 349              	.LVL41:
 350              	.LBE41:
 351              	.LBE40:
 352              		.loc 1 223 0
 353 00d4 083E     		subs	r6, r6, #8
 354              	.LVL42:
 355              	.L17:
 356              		.loc 1 223 0 is_stmt 0 discriminator 1
 357 00d6 082E     		cmp	r6, #8
 358 00d8 CADC     		bgt	.L25
 359              	.LVL43:
 360              	.LBB46:
 361              	.LBB47:
 173:..\..\..\liblc3\src/bits.c ****     {
 362              		.loc 1 173 0 is_stmt 1
 363 00da 2368     		ldr	r3, [r4]
 364 00dc B3F57F0F 		cmp	r3, #16711680
 365 00e0 01D3     		bcc	.L26
 366 00e2 E368     		ldr	r3, [r4, #12]
 367 00e4 1BB3     		cbz	r3, .L27
 368              	.L26:
 175:..\..\..\liblc3\src/bits.c ****             ac_put(buffer, ac->cache + ac->carry);
 369              		.loc 1 175 0
 370 00e6 A368     		ldr	r3, [r4, #8]
 371 00e8 002B     		cmp	r3, #0
 372 00ea 18DB     		blt	.L28
 176:..\..\..\liblc3\src/bits.c **** 
 373              		.loc 1 176 0
 374 00ec E268     		ldr	r2, [r4, #12]
 375 00ee 1344     		add	r3, r3, r2
 376              	.LVL44:
 377              	.LBB48:
 378              	.LBB49:
 161:..\..\..\liblc3\src/bits.c ****         *(buffer->p_fw++) = byte;
 379              		.loc 1 161 0
 380 00f0 AA68     		ldr	r2, [r5, #8]
 381 00f2 6968     		ldr	r1, [r5, #4]
 382 00f4 8A42     		cmp	r2, r1
 383 00f6 12D2     		bcs	.L28
 162:..\..\..\liblc3\src/bits.c **** }
ARM GAS  C:\Users\rdn\AppData\Local\Temp\ccZR1Dqi.s 			page 12


 384              		.loc 1 162 0
 385 00f8 511C     		adds	r1, r2, #1
 386 00fa A960     		str	r1, [r5, #8]
 387 00fc 1370     		strb	r3, [r2]
 388 00fe 0EE0     		b	.L28
 389              	.LVL45:
 390              	.L31:
 391              	.LBE49:
 392              	.LBE48:
 179:..\..\..\liblc3\src/bits.c **** 
 393              		.loc 1 179 0
 394 0100 E368     		ldr	r3, [r4, #12]
 395 0102 0BB1     		cbz	r3, .L40
 396 0104 0021     		movs	r1, #0
 397 0106 00E0     		b	.L29
 398              	.L40:
 399 0108 FF21     		movs	r1, #255
 400              	.L29:
 401              	.LVL46:
 402              	.LBB50:
 403              	.LBB51:
 161:..\..\..\liblc3\src/bits.c ****         *(buffer->p_fw++) = byte;
 404              		.loc 1 161 0
 405 010a AB68     		ldr	r3, [r5, #8]
 406 010c 6A68     		ldr	r2, [r5, #4]
 407 010e 9342     		cmp	r3, r2
 408 0110 02D2     		bcs	.L30
 162:..\..\..\liblc3\src/bits.c **** }
 409              		.loc 1 162 0
 410 0112 5A1C     		adds	r2, r3, #1
 411 0114 AA60     		str	r2, [r5, #8]
 412 0116 1970     		strb	r1, [r3]
 413              	.L30:
 414              	.LVL47:
 415              	.LBE51:
 416              	.LBE50:
 178:..\..\..\liblc3\src/bits.c ****             ac_put(buffer, ac->carry ? 0x00 : 0xff);
 417              		.loc 1 178 0
 418 0118 2369     		ldr	r3, [r4, #16]
 419 011a 013B     		subs	r3, r3, #1
 420 011c 2361     		str	r3, [r4, #16]
 421              	.L28:
 422 011e 2369     		ldr	r3, [r4, #16]
 423 0120 002B     		cmp	r3, #0
 424 0122 EDDC     		bgt	.L31
 181:..\..\..\liblc3\src/bits.c ****          ac->carry = 0;
 425              		.loc 1 181 0
 426 0124 6388     		ldrh	r3, [r4, #2]
 427 0126 A360     		str	r3, [r4, #8]
 182:..\..\..\liblc3\src/bits.c ****     }
 428              		.loc 1 182 0
 429 0128 0023     		movs	r3, #0
 430 012a E360     		str	r3, [r4, #12]
 431 012c 02E0     		b	.L32
 432              	.L27:
 185:..\..\..\liblc3\src/bits.c **** 
 433              		.loc 1 185 0
ARM GAS  C:\Users\rdn\AppData\Local\Temp\ccZR1Dqi.s 			page 13


 434 012e 2369     		ldr	r3, [r4, #16]
 435 0130 0133     		adds	r3, r3, #1
 436 0132 2361     		str	r3, [r4, #16]
 437              	.L32:
 187:..\..\..\liblc3\src/bits.c **** }
 438              		.loc 1 187 0
 439 0134 2368     		ldr	r3, [r4]
 440 0136 1B02     		lsls	r3, r3, #8
 441 0138 23F07F43 		bic	r3, r3, #-16777216
 442 013c 2360     		str	r3, [r4]
 443              	.LVL48:
 444              	.LBE47:
 445              	.LBE46:
 224:..\..\..\liblc3\src/bits.c ****         ac_shift(ac, buffer);
 225:..\..\..\liblc3\src/bits.c ****     ac_shift(ac, buffer);
 226:..\..\..\liblc3\src/bits.c **** 
 227:..\..\..\liblc3\src/bits.c ****     int end_val = ac->cache >> (8 - nbits);
 446              		.loc 1 227 0
 447 013e A268     		ldr	r2, [r4, #8]
 448 0140 C6F10801 		rsb	r1, r6, #8
 449 0144 42FA01F3 		asr	r3, r2, r1
 450              	.LVL49:
 228:..\..\..\liblc3\src/bits.c **** 
 229:..\..\..\liblc3\src/bits.c ****     if (ac->carry_count) {
 451              		.loc 1 229 0
 452 0148 2069     		ldr	r0, [r4, #16]
 453 014a D0B1     		cbz	r0, .L33
 454              	.LVL50:
 455              	.LBB52:
 456              	.LBB53:
 161:..\..\..\liblc3\src/bits.c ****         *(buffer->p_fw++) = byte;
 457              		.loc 1 161 0
 458 014c AB68     		ldr	r3, [r5, #8]
 459              	.LVL51:
 460 014e 6868     		ldr	r0, [r5, #4]
 461 0150 8342     		cmp	r3, r0
 462 0152 0ED2     		bcs	.L35
 162:..\..\..\liblc3\src/bits.c **** }
 463              		.loc 1 162 0
 464 0154 581C     		adds	r0, r3, #1
 465 0156 A860     		str	r0, [r5, #8]
 466 0158 1A70     		strb	r2, [r3]
 467 015a 0AE0     		b	.L35
 468              	.LVL52:
 469              	.L37:
 470              	.LBE53:
 471              	.LBE52:
 472              	.LBB54:
 473              	.LBB55:
 161:..\..\..\liblc3\src/bits.c ****         *(buffer->p_fw++) = byte;
 474              		.loc 1 161 0
 475 015c AB68     		ldr	r3, [r5, #8]
 476 015e 6A68     		ldr	r2, [r5, #4]
 477 0160 9342     		cmp	r3, r2
 478 0162 03D2     		bcs	.L36
 162:..\..\..\liblc3\src/bits.c **** }
 479              		.loc 1 162 0
ARM GAS  C:\Users\rdn\AppData\Local\Temp\ccZR1Dqi.s 			page 14


 480 0164 5A1C     		adds	r2, r3, #1
 481 0166 AA60     		str	r2, [r5, #8]
 482 0168 FF22     		movs	r2, #255
 483 016a 1A70     		strb	r2, [r3]
 484              	.L36:
 485              	.LVL53:
 486              	.LBE55:
 487              	.LBE54:
 230:..\..\..\liblc3\src/bits.c ****         ac_put(buffer, ac->cache);
 231:..\..\..\liblc3\src/bits.c ****         for ( ; ac->carry_count > 1; ac->carry_count--)
 488              		.loc 1 231 0 discriminator 2
 489 016c 2369     		ldr	r3, [r4, #16]
 490 016e 013B     		subs	r3, r3, #1
 491 0170 2361     		str	r3, [r4, #16]
 492              	.L35:
 493              		.loc 1 231 0 is_stmt 0 discriminator 1
 494 0172 2369     		ldr	r3, [r4, #16]
 495 0174 012B     		cmp	r3, #1
 496 0176 F1DC     		bgt	.L37
 232:..\..\..\liblc3\src/bits.c ****             ac_put(buffer, 0xff);
 233:..\..\..\liblc3\src/bits.c **** 
 234:..\..\..\liblc3\src/bits.c ****         end_val = nbits < 8 ? 0 : 0xff;
 497              		.loc 1 234 0 is_stmt 1
 498 0178 072E     		cmp	r6, #7
 499 017a 01DC     		bgt	.L41
 500 017c 0023     		movs	r3, #0
 501 017e 00E0     		b	.L33
 502              	.L41:
 503 0180 FF23     		movs	r3, #255
 504              	.LVL54:
 505              	.L33:
 235:..\..\..\liblc3\src/bits.c ****     }
 236:..\..\..\liblc3\src/bits.c **** 
 237:..\..\..\liblc3\src/bits.c ****     if (buffer->p_fw < buffer->end) {
 506              		.loc 1 237 0
 507 0182 A868     		ldr	r0, [r5, #8]
 508 0184 6A68     		ldr	r2, [r5, #4]
 509 0186 9042     		cmp	r0, r2
 510 0188 0AD2     		bcs	.L14
 238:..\..\..\liblc3\src/bits.c ****         *buffer->p_fw &= 0xff >> nbits;
 511              		.loc 1 238 0
 512 018a FF22     		movs	r2, #255
 513 018c 42FA06F6 		asr	r6, r2, r6
 514              	.LVL55:
 515 0190 0278     		ldrb	r2, [r0]	@ zero_extendqisi2
 516 0192 3240     		ands	r2, r2, r6
 517 0194 0270     		strb	r2, [r0]
 239:..\..\..\liblc3\src/bits.c ****         *buffer->p_fw |= end_val << (8 - nbits);
 518              		.loc 1 239 0
 519 0196 AA68     		ldr	r2, [r5, #8]
 520 0198 8B40     		lsls	r3, r3, r1
 521              	.LVL56:
 522 019a 1178     		ldrb	r1, [r2]	@ zero_extendqisi2
 523 019c 0B43     		orrs	r3, r3, r1
 524 019e 1370     		strb	r3, [r2]
 525              	.L14:
 526 01a0 F8BD     		pop	{r3, r4, r5, r6, r7, pc}
ARM GAS  C:\Users\rdn\AppData\Local\Temp\ccZR1Dqi.s 			page 15


 527              		.cfi_endproc
 528              	.LFE22:
 529              		.size	ac_terminate, .-ac_terminate
 530 01a2 00BF     		.section	.text.lc3_setup_bits,"ax",%progbits
 531              		.align	2
 532              		.global	lc3_setup_bits
 533              		.thumb
 534              		.thumb_func
 535              		.type	lc3_setup_bits, %function
 536              	lc3_setup_bits:
 537              	.LFB16:
  82:..\..\..\liblc3\src/bits.c ****     *bits = (struct lc3_bits){
 538              		.loc 1 82 0
 539              		.cfi_startproc
 540              		@ args = 0, pretend = 0, frame = 0
 541              		@ frame_needed = 0, uses_anonymous_args = 0
 542              	.LVL57:
 543 0000 2DE9F041 		push	{r4, r5, r6, r7, r8, lr}
 544              		.cfi_def_cfa_offset 24
 545              		.cfi_offset 4, -24
 546              		.cfi_offset 5, -20
 547              		.cfi_offset 6, -16
 548              		.cfi_offset 7, -12
 549              		.cfi_offset 8, -8
 550              		.cfi_offset 14, -4
 551 0004 0446     		mov	r4, r0
 552 0006 1646     		mov	r6, r2
  86:..\..\..\liblc3\src/bits.c ****         },
 553              		.loc 1 86 0
 554 0008 0F46     		mov	r7, r1
 555 000a 11B9     		cbnz	r1, .L51
 556 000c 4FF02008 		mov	r8, #32
 557 0010 01E0     		b	.L44
 558              	.L51:
 559 0012 4FF00008 		mov	r8, #0
 560              	.L44:
  93:..\..\..\liblc3\src/bits.c ****             .p_fw  = (uint8_t *)buffer, .p_bw = (uint8_t *)buffer + len,
 561              		.loc 1 93 0
 562 0016 F518     		adds	r5, r6, r3
  83:..\..\..\liblc3\src/bits.c ****         .mode = mode,
 563              		.loc 1 83 0
 564 0018 3822     		movs	r2, #56
 565              	.LVL58:
 566 001a 0021     		movs	r1, #0
 567              	.LVL59:
 568 001c 2046     		mov	r0, r4
 569              	.LVL60:
 570 001e FFF7FEFF 		bl	memset
 571              	.LVL61:
 572 0022 2770     		strb	r7, [r4]
 573 0024 6FF07F43 		mvn	r3, #-16777216
 574 0028 A360     		str	r3, [r4, #8]
 575 002a 4FF0FF33 		mov	r3, #-1
 576 002e E360     		str	r3, [r4, #12]
 577 0030 C4F82080 		str	r8, [r4, #32]
 578 0034 A662     		str	r6, [r4, #40]
 579 0036 E562     		str	r5, [r4, #44]
ARM GAS  C:\Users\rdn\AppData\Local\Temp\ccZR1Dqi.s 			page 16


 580 0038 2663     		str	r6, [r4, #48]
 581 003a 6563     		str	r5, [r4, #52]
  98:..\..\..\liblc3\src/bits.c ****         struct lc3_bits_ac *ac = &bits->ac;
 582              		.loc 1 98 0
 583 003c 002F     		cmp	r7, #0
 584 003e 4BD1     		bne	.L43
 585              	.LVL62:
 586              	.LBB65:
 100:..\..\..\liblc3\src/bits.c ****         struct lc3_bits_buffer *buffer = &bits->buffer;
 587              		.loc 1 100 0
 588 0040 04F11C02 		add	r2, r4, #28
 589              	.LVL63:
 101:..\..\..\liblc3\src/bits.c **** 
 590              		.loc 1 101 0
 591 0044 04F12800 		add	r0, r4, #40
 592              	.LVL64:
 593              	.LBB66:
 594              	.LBB67:
 240:..\..\..\liblc3\src/bits.c ****     }
 241:..\..\..\liblc3\src/bits.c **** }
 242:..\..\..\liblc3\src/bits.c **** 
 243:..\..\..\liblc3\src/bits.c **** /**
 244:..\..\..\liblc3\src/bits.c ****  * Flush and terminate bitstream
 245:..\..\..\liblc3\src/bits.c ****  */
 246:..\..\..\liblc3\src/bits.c **** void lc3_flush_bits(struct lc3_bits *bits)
 247:..\..\..\liblc3\src/bits.c **** {
 248:..\..\..\liblc3\src/bits.c ****     struct lc3_bits_ac *ac = &bits->ac;
 249:..\..\..\liblc3\src/bits.c ****     struct lc3_bits_accu *accu = &bits->accu;
 250:..\..\..\liblc3\src/bits.c ****     struct lc3_bits_buffer *buffer = &bits->buffer;
 251:..\..\..\liblc3\src/bits.c **** 
 252:..\..\..\liblc3\src/bits.c ****     int nleft = buffer->p_bw - buffer->p_fw;
 253:..\..\..\liblc3\src/bits.c ****     for (int n = 8 * nleft - accu->n; n > 0; n -= 32)
 254:..\..\..\liblc3\src/bits.c ****         lc3_put_bits(bits, 0, LC3_MIN(n, 32));
 255:..\..\..\liblc3\src/bits.c **** 
 256:..\..\..\liblc3\src/bits.c ****     accu_flush(accu, buffer);
 257:..\..\..\liblc3\src/bits.c **** 
 258:..\..\..\liblc3\src/bits.c ****     ac_terminate(ac, buffer);
 259:..\..\..\liblc3\src/bits.c **** }
 260:..\..\..\liblc3\src/bits.c **** 
 261:..\..\..\liblc3\src/bits.c **** /**
 262:..\..\..\liblc3\src/bits.c ****  * Write from 1 to 32 bits,
 263:..\..\..\liblc3\src/bits.c ****  * exceeding the capacity of the accumulator
 264:..\..\..\liblc3\src/bits.c ****  */
 265:..\..\..\liblc3\src/bits.c **** LC3_HOT void lc3_put_bits_generic(struct lc3_bits *bits, unsigned v, int n)
 266:..\..\..\liblc3\src/bits.c **** {
 267:..\..\..\liblc3\src/bits.c ****     struct lc3_bits_accu *accu = &bits->accu;
 268:..\..\..\liblc3\src/bits.c **** 
 269:..\..\..\liblc3\src/bits.c ****     /* --- Fulfill accumulator and flush -- */
 270:..\..\..\liblc3\src/bits.c **** 
 271:..\..\..\liblc3\src/bits.c ****     int n1 = LC3_MIN(LC3_ACCU_BITS - accu->n, n);
 272:..\..\..\liblc3\src/bits.c ****     if (n1) {
 273:..\..\..\liblc3\src/bits.c ****         accu->v |= v << accu->n;
 274:..\..\..\liblc3\src/bits.c ****         accu->n = LC3_ACCU_BITS;
 275:..\..\..\liblc3\src/bits.c ****     }
 276:..\..\..\liblc3\src/bits.c **** 
 277:..\..\..\liblc3\src/bits.c ****     accu_flush(accu, &bits->buffer);
 278:..\..\..\liblc3\src/bits.c **** 
ARM GAS  C:\Users\rdn\AppData\Local\Temp\ccZR1Dqi.s 			page 17


 279:..\..\..\liblc3\src/bits.c ****     /* --- Accumulate remaining bits -- */
 280:..\..\..\liblc3\src/bits.c **** 
 281:..\..\..\liblc3\src/bits.c ****     accu->v = v >> n1;
 282:..\..\..\liblc3\src/bits.c ****     accu->n = n - n1;
 283:..\..\..\liblc3\src/bits.c **** }
 284:..\..\..\liblc3\src/bits.c **** 
 285:..\..\..\liblc3\src/bits.c **** /**
 286:..\..\..\liblc3\src/bits.c ****  * Arithmetic coder renormalization
 287:..\..\..\liblc3\src/bits.c ****  */
 288:..\..\..\liblc3\src/bits.c **** LC3_HOT void lc3_ac_write_renorm(struct lc3_bits *bits)
 289:..\..\..\liblc3\src/bits.c **** {
 290:..\..\..\liblc3\src/bits.c ****     struct lc3_bits_ac *ac = &bits->ac;
 291:..\..\..\liblc3\src/bits.c **** 
 292:..\..\..\liblc3\src/bits.c ****     for ( ; ac->range < 0x10000; ac->range <<= 8)
 293:..\..\..\liblc3\src/bits.c ****         ac_shift(ac, &bits->buffer);
 294:..\..\..\liblc3\src/bits.c **** }
 295:..\..\..\liblc3\src/bits.c **** 
 296:..\..\..\liblc3\src/bits.c **** 
 297:..\..\..\liblc3\src/bits.c **** /* ----------------------------------------------------------------------------
 298:..\..\..\liblc3\src/bits.c ****  *  Reading
 299:..\..\..\liblc3\src/bits.c ****  * -------------------------------------------------------------------------- */
 300:..\..\..\liblc3\src/bits.c **** 
 301:..\..\..\liblc3\src/bits.c **** /**
 302:..\..\..\liblc3\src/bits.c ****  * Arithmetic coder get byte
 303:..\..\..\liblc3\src/bits.c ****  * buffer          Bitstream buffer
 304:..\..\..\liblc3\src/bits.c ****  * return          Byte read, 0 on overflow
 305:..\..\..\liblc3\src/bits.c ****  */
 306:..\..\..\liblc3\src/bits.c **** static inline int ac_get(struct lc3_bits_buffer *buffer)
 307:..\..\..\liblc3\src/bits.c **** {
 308:..\..\..\liblc3\src/bits.c ****     return buffer->p_fw < buffer->end ? *(buffer->p_fw++) : 0;
 595              		.loc 1 308 0
 596 0048 AE42     		cmp	r6, r5
 597 004a 03D2     		bcs	.L52
 598 004c 731C     		adds	r3, r6, #1
 599 004e 2363     		str	r3, [r4, #48]
 600 0050 3378     		ldrb	r3, [r6]	@ zero_extendqisi2
 601 0052 00E0     		b	.L46
 602              	.L52:
 603 0054 0023     		movs	r3, #0
 604              	.L46:
 605              	.LVL65:
 606              	.LBE67:
 607              	.LBE66:
 103:..\..\..\liblc3\src/bits.c ****         ac->low |= ac_get(buffer) <<  8;
 608              		.loc 1 103 0
 609 0056 1B04     		lsls	r3, r3, #16
 610 0058 6360     		str	r3, [r4, #4]
 611              	.LVL66:
 612              	.LBB68:
 613              	.LBB69:
 614              		.loc 1 308 0
 615 005a 216B     		ldr	r1, [r4, #48]
 616 005c 8D42     		cmp	r5, r1
 617 005e 03D9     		bls	.L53
 618 0060 4E1C     		adds	r6, r1, #1
 619              	.LVL67:
 620 0062 2663     		str	r6, [r4, #48]
ARM GAS  C:\Users\rdn\AppData\Local\Temp\ccZR1Dqi.s 			page 18


 621 0064 0978     		ldrb	r1, [r1]	@ zero_extendqisi2
 622 0066 00E0     		b	.L47
 623              	.LVL68:
 624              	.L53:
 625 0068 0021     		movs	r1, #0
 626              	.LVL69:
 627              	.L47:
 628              	.LBE69:
 629              	.LBE68:
 104:..\..\..\liblc3\src/bits.c ****         ac->low |= ac_get(buffer);
 630              		.loc 1 104 0
 631 006a 43EA0123 		orr	r3, r3, r1, lsl #8
 632 006e 6360     		str	r3, [r4, #4]
 633              	.LVL70:
 634              	.LBB70:
 635              	.LBB71:
 636              		.loc 1 308 0
 637 0070 216B     		ldr	r1, [r4, #48]
 638 0072 8D42     		cmp	r5, r1
 639 0074 03D9     		bls	.L54
 640 0076 4D1C     		adds	r5, r1, #1
 641 0078 2563     		str	r5, [r4, #48]
 642 007a 0978     		ldrb	r1, [r1]	@ zero_extendqisi2
 643 007c 00E0     		b	.L48
 644              	.L54:
 645 007e 0021     		movs	r1, #0
 646              	.L48:
 647              	.LVL71:
 648              	.LBE71:
 649              	.LBE70:
 105:..\..\..\liblc3\src/bits.c **** 
 650              		.loc 1 105 0
 651 0080 0B43     		orrs	r3, r3, r1
 652 0082 6360     		str	r3, [r4, #4]
 653              	.LVL72:
 654              	.LBB72:
 655              	.LBB73:
 309:..\..\..\liblc3\src/bits.c **** }
 310:..\..\..\liblc3\src/bits.c **** 
 311:..\..\..\liblc3\src/bits.c **** /**
 312:..\..\..\liblc3\src/bits.c ****  * Load the accumulator
 313:..\..\..\liblc3\src/bits.c ****  * accu            Bitstream accumulator
 314:..\..\..\liblc3\src/bits.c ****  * buffer          Bitstream buffer
 315:..\..\..\liblc3\src/bits.c ****  */
 316:..\..\..\liblc3\src/bits.c **** static inline void accu_load(struct lc3_bits_accu *accu,
 317:..\..\..\liblc3\src/bits.c ****     struct lc3_bits_buffer *buffer)
 318:..\..\..\liblc3\src/bits.c **** {
 319:..\..\..\liblc3\src/bits.c ****     int nbytes = LC3_MIN(accu->n >> 3, buffer->p_bw - buffer->start);
 656              		.loc 1 319 0
 657 0084 C368     		ldr	r3, [r0, #12]
 658 0086 A16A     		ldr	r1, [r4, #40]
 659 0088 591A     		subs	r1, r3, r1
 660 008a 5568     		ldr	r5, [r2, #4]
 661 008c EB10     		asrs	r3, r5, #3
 662 008e 9942     		cmp	r1, r3
 663 0090 A8BF     		it	ge
 664 0092 1946     		movge	r1, r3
ARM GAS  C:\Users\rdn\AppData\Local\Temp\ccZR1Dqi.s 			page 19


 665              	.LVL73:
 320:..\..\..\liblc3\src/bits.c **** 
 321:..\..\..\liblc3\src/bits.c ****     accu->n -= 8 * nbytes;
 666              		.loc 1 321 0
 667 0094 A5EBC105 		sub	r5, r5, r1, lsl #3
 668 0098 5560     		str	r5, [r2, #4]
 669 009a 0CE0     		b	.L49
 670              	.L50:
 322:..\..\..\liblc3\src/bits.c **** 
 323:..\..\..\liblc3\src/bits.c ****     for ( ; nbytes; nbytes--) {
 324:..\..\..\liblc3\src/bits.c ****         accu->v >>= 8;
 671              		.loc 1 324 0
 672 009c 1368     		ldr	r3, [r2]
 673 009e 1B0A     		lsrs	r3, r3, #8
 674 00a0 1360     		str	r3, [r2]
 325:..\..\..\liblc3\src/bits.c ****         accu->v |= (unsigned)*(--buffer->p_bw) << (LC3_ACCU_BITS - 8);
 675              		.loc 1 325 0
 676 00a2 C368     		ldr	r3, [r0, #12]
 677 00a4 5D1E     		subs	r5, r3, #1
 678 00a6 C560     		str	r5, [r0, #12]
 679 00a8 13F8015C 		ldrb	r5, [r3, #-1]	@ zero_extendqisi2
 680 00ac 1368     		ldr	r3, [r2]
 681 00ae 43EA0563 		orr	r3, r3, r5, lsl #24
 682 00b2 1360     		str	r3, [r2]
 323:..\..\..\liblc3\src/bits.c ****         accu->v >>= 8;
 683              		.loc 1 323 0
 684 00b4 0139     		subs	r1, r1, #1
 685              	.LVL74:
 686              	.L49:
 687 00b6 0029     		cmp	r1, #0
 688 00b8 F0D1     		bne	.L50
 326:..\..\..\liblc3\src/bits.c ****     }
 327:..\..\..\liblc3\src/bits.c **** 
 328:..\..\..\liblc3\src/bits.c ****     if (accu->n >= 8) {
 689              		.loc 1 328 0
 690 00ba 5168     		ldr	r1, [r2, #4]
 691              	.LVL75:
 692 00bc 0729     		cmp	r1, #7
 693 00be 0BDD     		ble	.L43
 329:..\..\..\liblc3\src/bits.c ****         accu->nover = LC3_MIN(accu->nover + accu->n, LC3_ACCU_BITS);
 694              		.loc 1 329 0
 695 00c0 9368     		ldr	r3, [r2, #8]
 696 00c2 0B44     		add	r3, r3, r1
 697 00c4 202B     		cmp	r3, #32
 698 00c6 A8BF     		it	ge
 699 00c8 2023     		movge	r3, #32
 700 00ca 9360     		str	r3, [r2, #8]
 330:..\..\..\liblc3\src/bits.c ****         accu->v >>= accu->n;
 701              		.loc 1 330 0
 702 00cc E369     		ldr	r3, [r4, #28]
 703 00ce 23FA01F1 		lsr	r1, r3, r1
 704 00d2 E161     		str	r1, [r4, #28]
 331:..\..\..\liblc3\src/bits.c ****         accu->n = 0;
 705              		.loc 1 331 0
 706 00d4 0023     		movs	r3, #0
 707 00d6 5360     		str	r3, [r2, #4]
 708              	.LVL76:
ARM GAS  C:\Users\rdn\AppData\Local\Temp\ccZR1Dqi.s 			page 20


 709              	.L43:
 710 00d8 BDE8F081 		pop	{r4, r5, r6, r7, r8, pc}
 711              	.LBE73:
 712              	.LBE72:
 713              	.LBE65:
 714              		.cfi_endproc
 715              	.LFE16:
 716              		.size	lc3_setup_bits, .-lc3_setup_bits
 717              		.section	.text.lc3_get_bits_left,"ax",%progbits
 718              		.align	2
 719              		.global	lc3_get_bits_left
 720              		.thumb
 721              		.thumb_func
 722              		.type	lc3_get_bits_left, %function
 723              	lc3_get_bits_left:
 724              	.LFB17:
 115:..\..\..\liblc3\src/bits.c ****     return LC3_MAX(get_bits_left(bits), 0);
 725              		.loc 1 115 0
 726              		.cfi_startproc
 727              		@ args = 0, pretend = 0, frame = 0
 728              		@ frame_needed = 0, uses_anonymous_args = 0
 729              	.LVL77:
 730 0000 08B5     		push	{r3, lr}
 731              		.cfi_def_cfa_offset 8
 732              		.cfi_offset 3, -8
 733              		.cfi_offset 14, -4
 116:..\..\..\liblc3\src/bits.c **** }
 734              		.loc 1 116 0
 735 0002 FFF7FEFF 		bl	get_bits_left
 736              	.LVL78:
 737 0006 0028     		cmp	r0, #0
 738 0008 00DC     		bgt	.L57
 739 000a 0020     		movs	r0, #0
 740              	.L57:
 117:..\..\..\liblc3\src/bits.c **** 
 741              		.loc 1 117 0 discriminator 4
 742 000c 08BD     		pop	{r3, pc}
 743              		.cfi_endproc
 744              	.LFE17:
 745              		.size	lc3_get_bits_left, .-lc3_get_bits_left
 746 000e 00BF     		.section	.text.lc3_check_bits,"ax",%progbits
 747              		.align	2
 748              		.global	lc3_check_bits
 749              		.thumb
 750              		.thumb_func
 751              		.type	lc3_check_bits, %function
 752              	lc3_check_bits:
 753              	.LFB18:
 123:..\..\..\liblc3\src/bits.c ****     const struct lc3_bits_ac *ac = &bits->ac;
 754              		.loc 1 123 0
 755              		.cfi_startproc
 756              		@ args = 0, pretend = 0, frame = 0
 757              		@ frame_needed = 0, uses_anonymous_args = 0
 758              	.LVL79:
 759 0000 10B5     		push	{r4, lr}
 760              		.cfi_def_cfa_offset 8
 761              		.cfi_offset 4, -8
ARM GAS  C:\Users\rdn\AppData\Local\Temp\ccZR1Dqi.s 			page 21


 762              		.cfi_offset 14, -4
 763 0002 0446     		mov	r4, r0
 764              	.LVL80:
 126:..\..\..\liblc3\src/bits.c **** }
 765              		.loc 1 126 0
 766 0004 FFF7FEFF 		bl	get_bits_left
 767              	.LVL81:
 768 0008 0028     		cmp	r0, #0
 769 000a 03DB     		blt	.L61
 126:..\..\..\liblc3\src/bits.c **** }
 770              		.loc 1 126 0 is_stmt 0 discriminator 2
 771 000c 237E     		ldrb	r3, [r4, #24]	@ zero_extendqisi2
 772 000e 1BB1     		cbz	r3, .L62
 126:..\..\..\liblc3\src/bits.c **** }
 773              		.loc 1 126 0
 774 0010 0120     		movs	r0, #1
 775 0012 02E0     		b	.L60
 776              	.L61:
 777 0014 0120     		movs	r0, #1
 778 0016 00E0     		b	.L60
 779              	.L62:
 780 0018 0020     		movs	r0, #0
 781              	.L60:
 127:..\..\..\liblc3\src/bits.c **** 
 782              		.loc 1 127 0 is_stmt 1 discriminator 6
 783 001a 4042     		negs	r0, r0
 784 001c 10BD     		pop	{r4, pc}
 785              		.cfi_endproc
 786              	.LFE18:
 787              		.size	lc3_check_bits, .-lc3_check_bits
 788 001e 00BF     		.section	.text.lc3_put_bits_generic,"ax",%progbits
 789              		.align	2
 790              		.global	lc3_put_bits_generic
 791              		.thumb
 792              		.thumb_func
 793              		.type	lc3_put_bits_generic, %function
 794              	lc3_put_bits_generic:
 795              	.LFB24:
 266:..\..\..\liblc3\src/bits.c ****     struct lc3_bits_accu *accu = &bits->accu;
 796              		.loc 1 266 0
 797              		.cfi_startproc
 798              		@ args = 0, pretend = 0, frame = 0
 799              		@ frame_needed = 0, uses_anonymous_args = 0
 800              	.LVL82:
 801 0000 F0B5     		push	{r4, r5, r6, r7, lr}
 802              		.cfi_def_cfa_offset 20
 803              		.cfi_offset 4, -20
 804              		.cfi_offset 5, -16
 805              		.cfi_offset 6, -12
 806              		.cfi_offset 7, -8
 807              		.cfi_offset 14, -4
 267:..\..\..\liblc3\src/bits.c **** 
 808              		.loc 1 267 0
 809 0002 00F11C05 		add	r5, r0, #28
 810              	.LVL83:
 271:..\..\..\liblc3\src/bits.c ****     if (n1) {
 811              		.loc 1 271 0
ARM GAS  C:\Users\rdn\AppData\Local\Temp\ccZR1Dqi.s 			page 22


 812 0006 036A     		ldr	r3, [r0, #32]
 813 0008 C3F1200E 		rsb	lr, r3, #32
 814 000c 9645     		cmp	lr, r2
 815 000e A8BF     		it	ge
 816 0010 9646     		movge	lr, r2
 817              	.LVL84:
 272:..\..\..\liblc3\src/bits.c ****         accu->v |= v << accu->n;
 818              		.loc 1 272 0
 819 0012 BEF1000F 		cmp	lr, #0
 820 0016 06D0     		beq	.L65
 273:..\..\..\liblc3\src/bits.c ****         accu->n = LC3_ACCU_BITS;
 821              		.loc 1 273 0
 822 0018 01FA03F3 		lsl	r3, r1, r3
 823 001c C469     		ldr	r4, [r0, #28]
 824 001e 2343     		orrs	r3, r3, r4
 825 0020 C361     		str	r3, [r0, #28]
 274:..\..\..\liblc3\src/bits.c ****     }
 826              		.loc 1 274 0
 827 0022 2023     		movs	r3, #32
 828 0024 0362     		str	r3, [r0, #32]
 829              	.L65:
 277:..\..\..\liblc3\src/bits.c **** 
 830              		.loc 1 277 0
 831 0026 00F12806 		add	r6, r0, #40
 832              	.LVL85:
 833              	.LBB76:
 834              	.LBB77:
 142:..\..\..\liblc3\src/bits.c ****         LC3_MAX(buffer->p_bw - buffer->p_fw, 0));
 835              		.loc 1 142 0
 836 002a F368     		ldr	r3, [r6, #12]
 837 002c B468     		ldr	r4, [r6, #8]
 838 002e 1C1B     		subs	r4, r3, r4
 839 0030 24EAE474 		bic	r4, r4, r4, asr #31
 840 0034 6F68     		ldr	r7, [r5, #4]
 841 0036 FB10     		asrs	r3, r7, #3
 842 0038 9C42     		cmp	r4, r3
 843 003a A8BF     		it	ge
 844 003c 1C46     		movge	r4, r3
 845              	.LVL86:
 145:..\..\..\liblc3\src/bits.c **** 
 846              		.loc 1 145 0
 847 003e A7EBC407 		sub	r7, r7, r4, lsl #3
 848 0042 6F60     		str	r7, [r5, #4]
 849 0044 09E0     		b	.L66
 850              	.L67:
 148:..\..\..\liblc3\src/bits.c **** 
 851              		.loc 1 148 0
 852 0046 F368     		ldr	r3, [r6, #12]
 853 0048 5F1E     		subs	r7, r3, #1
 854 004a F760     		str	r7, [r6, #12]
 855 004c 2F68     		ldr	r7, [r5]
 856 004e 03F8017C 		strb	r7, [r3, #-1]
 147:..\..\..\liblc3\src/bits.c ****         *(--buffer->p_bw) = accu->v & 0xff;
 857              		.loc 1 147 0
 858 0052 2B68     		ldr	r3, [r5]
 859 0054 1B0A     		lsrs	r3, r3, #8
 860 0056 2B60     		str	r3, [r5]
ARM GAS  C:\Users\rdn\AppData\Local\Temp\ccZR1Dqi.s 			page 23


 861 0058 013C     		subs	r4, r4, #1
 862              	.LVL87:
 863              	.L66:
 864 005a 002C     		cmp	r4, #0
 865 005c F3D1     		bne	.L67
 150:..\..\..\liblc3\src/bits.c ****         accu->n = 0;
 866              		.loc 1 150 0
 867 005e 6B68     		ldr	r3, [r5, #4]
 868 0060 072B     		cmp	r3, #7
 869 0062 01DD     		ble	.L68
 151:..\..\..\liblc3\src/bits.c **** }
 870              		.loc 1 151 0
 871 0064 0023     		movs	r3, #0
 872 0066 6B60     		str	r3, [r5, #4]
 873              	.L68:
 874              	.LVL88:
 875              	.LBE77:
 876              	.LBE76:
 281:..\..\..\liblc3\src/bits.c ****     accu->n = n - n1;
 877              		.loc 1 281 0
 878 0068 21FA0EF1 		lsr	r1, r1, lr
 879              	.LVL89:
 880 006c C161     		str	r1, [r0, #28]
 282:..\..\..\liblc3\src/bits.c **** }
 881              		.loc 1 282 0
 882 006e CEEB0202 		rsb	r2, lr, r2
 883              	.LVL90:
 884 0072 0262     		str	r2, [r0, #32]
 885 0074 F0BD     		pop	{r4, r5, r6, r7, pc}
 886              		.cfi_endproc
 887              	.LFE24:
 888              		.size	lc3_put_bits_generic, .-lc3_put_bits_generic
 889 0076 00BF     		.section	.text.lc3_flush_bits,"ax",%progbits
 890              		.align	2
 891              		.global	lc3_flush_bits
 892              		.thumb
 893              		.thumb_func
 894              		.type	lc3_flush_bits, %function
 895              	lc3_flush_bits:
 896              	.LFB23:
 247:..\..\..\liblc3\src/bits.c ****     struct lc3_bits_ac *ac = &bits->ac;
 897              		.loc 1 247 0
 898              		.cfi_startproc
 899              		@ args = 0, pretend = 0, frame = 0
 900              		@ frame_needed = 0, uses_anonymous_args = 0
 901              	.LVL91:
 902 0000 2DE9F041 		push	{r4, r5, r6, r7, r8, lr}
 903              		.cfi_def_cfa_offset 24
 904              		.cfi_offset 4, -24
 905              		.cfi_offset 5, -20
 906              		.cfi_offset 6, -16
 907              		.cfi_offset 7, -12
 908              		.cfi_offset 8, -8
 909              		.cfi_offset 14, -4
 910 0004 8046     		mov	r8, r0
 248:..\..\..\liblc3\src/bits.c ****     struct lc3_bits_accu *accu = &bits->accu;
 911              		.loc 1 248 0
ARM GAS  C:\Users\rdn\AppData\Local\Temp\ccZR1Dqi.s 			page 24


 912 0006 071D     		adds	r7, r0, #4
 913              	.LVL92:
 249:..\..\..\liblc3\src/bits.c ****     struct lc3_bits_buffer *buffer = &bits->buffer;
 914              		.loc 1 249 0
 915 0008 00F11C05 		add	r5, r0, #28
 916              	.LVL93:
 250:..\..\..\liblc3\src/bits.c **** 
 917              		.loc 1 250 0
 918 000c 00F12806 		add	r6, r0, #40
 919              	.LVL94:
 252:..\..\..\liblc3\src/bits.c ****     for (int n = 8 * nleft - accu->n; n > 0; n -= 32)
 920              		.loc 1 252 0
 921 0010 436B     		ldr	r3, [r0, #52]
 922 0012 046B     		ldr	r4, [r0, #48]
 923 0014 1C1B     		subs	r4, r3, r4
 924              	.LVL95:
 925              	.LBB83:
 253:..\..\..\liblc3\src/bits.c ****         lc3_put_bits(bits, 0, LC3_MIN(n, 32));
 926              		.loc 1 253 0
 927 0016 036A     		ldr	r3, [r0, #32]
 928 0018 C3EBC404 		rsb	r4, r3, r4, lsl #3
 929              	.LVL96:
 930 001c 10E0     		b	.L71
 931              	.LVL97:
 932              	.L74:
 254:..\..\..\liblc3\src/bits.c **** 
 933              		.loc 1 254 0 discriminator 3
 934 001e 2246     		mov	r2, r4
 935 0020 202C     		cmp	r4, #32
 936 0022 A8BF     		it	ge
 937 0024 2022     		movge	r2, #32
 938              	.LVL98:
 939              	.LBB84:
 940              	.LBB85:
 941              		.file 2 "..\\..\\..\\liblc3\\src\\bits.h"
   1:..\..\..\liblc3\src/bits.h **** /******************************************************************************
   2:..\..\..\liblc3\src/bits.h ****  *
   3:..\..\..\liblc3\src/bits.h ****  *  Copyright 2022 Google LLC
   4:..\..\..\liblc3\src/bits.h ****  *
   5:..\..\..\liblc3\src/bits.h ****  *  Licensed under the Apache License, Version 2.0 (the "License");
   6:..\..\..\liblc3\src/bits.h ****  *  you may not use this file except in compliance with the License.
   7:..\..\..\liblc3\src/bits.h ****  *  You may obtain a copy of the License at:
   8:..\..\..\liblc3\src/bits.h ****  *
   9:..\..\..\liblc3\src/bits.h ****  *  http://www.apache.org/licenses/LICENSE-2.0
  10:..\..\..\liblc3\src/bits.h ****  *
  11:..\..\..\liblc3\src/bits.h ****  *  Unless required by applicable law or agreed to in writing, software
  12:..\..\..\liblc3\src/bits.h ****  *  distributed under the License is distributed on an "AS IS" BASIS,
  13:..\..\..\liblc3\src/bits.h ****  *  WITHOUT WARRANTIES OR CONDITIONS OF ANY KIND, either express or implied.
  14:..\..\..\liblc3\src/bits.h ****  *  See the License for the specific language governing permissions and
  15:..\..\..\liblc3\src/bits.h ****  *  limitations under the License.
  16:..\..\..\liblc3\src/bits.h ****  *
  17:..\..\..\liblc3\src/bits.h ****  ******************************************************************************/
  18:..\..\..\liblc3\src/bits.h **** 
  19:..\..\..\liblc3\src/bits.h **** /**
  20:..\..\..\liblc3\src/bits.h ****  * The bitstream is written by the 2 ends of the buffer :
  21:..\..\..\liblc3\src/bits.h ****  *
  22:..\..\..\liblc3\src/bits.h ****  * - Arthmetic coder put bits while increasing memory addresses
ARM GAS  C:\Users\rdn\AppData\Local\Temp\ccZR1Dqi.s 			page 25


  23:..\..\..\liblc3\src/bits.h ****  *   in the buffer (forward)
  24:..\..\..\liblc3\src/bits.h ****  *
  25:..\..\..\liblc3\src/bits.h ****  * - Plain bits are puts starting the end of the buffer, with memeory
  26:..\..\..\liblc3\src/bits.h ****  *   addresses decreasing (backward)
  27:..\..\..\liblc3\src/bits.h ****  *
  28:..\..\..\liblc3\src/bits.h ****  *       .---------------------------------------------------.
  29:..\..\..\liblc3\src/bits.h ****  *       | > > > > > > > > > > :         : < < < < < < < < < |
  30:..\..\..\liblc3\src/bits.h ****  *       '---------------------------------------------------'
  31:..\..\..\liblc3\src/bits.h ****  *       |---------------------> - - - - - - - - - - - - - ->|
  32:..\..\..\liblc3\src/bits.h ****  *                              |< - - - <-------------------|
  33:..\..\..\liblc3\src/bits.h ****  *          Arithmetic coding                  Plain bits
  34:..\..\..\liblc3\src/bits.h ****  *          `lc3_put_symbol()`               `lc3_put_bits()`
  35:..\..\..\liblc3\src/bits.h ****  *
  36:..\..\..\liblc3\src/bits.h ****  * - The forward writing is protected against buffer overflow, it cannot
  37:..\..\..\liblc3\src/bits.h ****  *   write after the buffer, but can overwrite plain bits previously
  38:..\..\..\liblc3\src/bits.h ****  *   written in the buffer.
  39:..\..\..\liblc3\src/bits.h ****  *
  40:..\..\..\liblc3\src/bits.h ****  * - The backward writing is protected against overwrite of the arithmetic
  41:..\..\..\liblc3\src/bits.h ****  *   coder bitstream. In such way, the backward bitstream is always limited
  42:..\..\..\liblc3\src/bits.h ****  *   by the aritmetic coder bitstream, and can be overwritten by him.
  43:..\..\..\liblc3\src/bits.h ****  *
  44:..\..\..\liblc3\src/bits.h ****  *       .---------------------------------------------------.
  45:..\..\..\liblc3\src/bits.h ****  *       | > > > > > > > > > > :         : < < < < < < < < < |
  46:..\..\..\liblc3\src/bits.h ****  *       '---------------------------------------------------'
  47:..\..\..\liblc3\src/bits.h ****  *       |---------------------> - - - - - - - - - - - - - ->|
  48:..\..\..\liblc3\src/bits.h ****  *       |< - - - - - - - - - - -  - - - <-------------------|
  49:..\..\..\liblc3\src/bits.h ****  *          Arithmetic coding                  Plain bits
  50:..\..\..\liblc3\src/bits.h ****  *          `lc3_get_symbol()`               `lc3_get_bits()`
  51:..\..\..\liblc3\src/bits.h ****  *
  52:..\..\..\liblc3\src/bits.h ****  * - Reading is limited to read of the complementary end of the buffer.
  53:..\..\..\liblc3\src/bits.h ****  *
  54:..\..\..\liblc3\src/bits.h ****  * - The procedure `lc3_check_bits()` returns indication that read has been
  55:..\..\..\liblc3\src/bits.h ****  *   made crossing the other bit plane.
  56:..\..\..\liblc3\src/bits.h ****  *
  57:..\..\..\liblc3\src/bits.h ****  */
  58:..\..\..\liblc3\src/bits.h **** 
  59:..\..\..\liblc3\src/bits.h **** #ifndef __LC3_BITS_H
  60:..\..\..\liblc3\src/bits.h **** #define __LC3_BITS_H
  61:..\..\..\liblc3\src/bits.h **** 
  62:..\..\..\liblc3\src/bits.h **** #include "common.h"
  63:..\..\..\liblc3\src/bits.h **** 
  64:..\..\..\liblc3\src/bits.h **** 
  65:..\..\..\liblc3\src/bits.h **** /**
  66:..\..\..\liblc3\src/bits.h ****  * Bitstream mode
  67:..\..\..\liblc3\src/bits.h ****  */
  68:..\..\..\liblc3\src/bits.h **** 
  69:..\..\..\liblc3\src/bits.h **** enum lc3_bits_mode {
  70:..\..\..\liblc3\src/bits.h ****     LC3_BITS_MODE_READ,
  71:..\..\..\liblc3\src/bits.h ****     LC3_BITS_MODE_WRITE,
  72:..\..\..\liblc3\src/bits.h **** };
  73:..\..\..\liblc3\src/bits.h **** 
  74:..\..\..\liblc3\src/bits.h **** /**
  75:..\..\..\liblc3\src/bits.h ****  * Arithmetic coder symbol interval
  76:..\..\..\liblc3\src/bits.h ****  * The model split the interval in 17 symbols
  77:..\..\..\liblc3\src/bits.h ****  */
  78:..\..\..\liblc3\src/bits.h **** 
  79:..\..\..\liblc3\src/bits.h **** struct lc3_ac_symbol {
ARM GAS  C:\Users\rdn\AppData\Local\Temp\ccZR1Dqi.s 			page 26


  80:..\..\..\liblc3\src/bits.h ****     uint16_t low   : 16;
  81:..\..\..\liblc3\src/bits.h ****     uint16_t range : 16;
  82:..\..\..\liblc3\src/bits.h **** };
  83:..\..\..\liblc3\src/bits.h **** 
  84:..\..\..\liblc3\src/bits.h **** struct lc3_ac_model {
  85:..\..\..\liblc3\src/bits.h ****     struct lc3_ac_symbol s[17];
  86:..\..\..\liblc3\src/bits.h **** };
  87:..\..\..\liblc3\src/bits.h **** 
  88:..\..\..\liblc3\src/bits.h **** /**
  89:..\..\..\liblc3\src/bits.h ****  * Bitstream context
  90:..\..\..\liblc3\src/bits.h ****  */
  91:..\..\..\liblc3\src/bits.h **** 
  92:..\..\..\liblc3\src/bits.h **** #define LC3_ACCU_BITS (int)(8 * sizeof(unsigned))
  93:..\..\..\liblc3\src/bits.h **** 
  94:..\..\..\liblc3\src/bits.h **** struct lc3_bits_accu {
  95:..\..\..\liblc3\src/bits.h ****     unsigned v;
  96:..\..\..\liblc3\src/bits.h ****     int n, nover;
  97:..\..\..\liblc3\src/bits.h **** };
  98:..\..\..\liblc3\src/bits.h **** 
  99:..\..\..\liblc3\src/bits.h **** #define LC3_AC_BITS (int)(24)
 100:..\..\..\liblc3\src/bits.h **** 
 101:..\..\..\liblc3\src/bits.h **** struct lc3_bits_ac {
 102:..\..\..\liblc3\src/bits.h ****     unsigned low, range;
 103:..\..\..\liblc3\src/bits.h ****     int cache, carry, carry_count;
 104:..\..\..\liblc3\src/bits.h ****     bool error;
 105:..\..\..\liblc3\src/bits.h **** };
 106:..\..\..\liblc3\src/bits.h **** 
 107:..\..\..\liblc3\src/bits.h **** struct lc3_bits_buffer {
 108:..\..\..\liblc3\src/bits.h ****     const uint8_t *start, *end;
 109:..\..\..\liblc3\src/bits.h ****     uint8_t *p_fw, *p_bw;
 110:..\..\..\liblc3\src/bits.h **** };
 111:..\..\..\liblc3\src/bits.h **** 
 112:..\..\..\liblc3\src/bits.h **** typedef struct lc3_bits {
 113:..\..\..\liblc3\src/bits.h ****     enum lc3_bits_mode mode;
 114:..\..\..\liblc3\src/bits.h ****     struct lc3_bits_ac ac;
 115:..\..\..\liblc3\src/bits.h ****     struct lc3_bits_accu accu;
 116:..\..\..\liblc3\src/bits.h ****     struct lc3_bits_buffer buffer;
 117:..\..\..\liblc3\src/bits.h **** } lc3_bits_t;
 118:..\..\..\liblc3\src/bits.h **** 
 119:..\..\..\liblc3\src/bits.h **** 
 120:..\..\..\liblc3\src/bits.h **** /**
 121:..\..\..\liblc3\src/bits.h ****  * Setup bitstream reading/writing
 122:..\..\..\liblc3\src/bits.h ****  * bits            Bitstream context
 123:..\..\..\liblc3\src/bits.h ****  * mode            Either READ or WRITE mode
 124:..\..\..\liblc3\src/bits.h ****  * buffer, len     Output buffer and length (in bytes)
 125:..\..\..\liblc3\src/bits.h ****  */
 126:..\..\..\liblc3\src/bits.h **** void lc3_setup_bits(lc3_bits_t *bits,
 127:..\..\..\liblc3\src/bits.h ****     enum lc3_bits_mode mode, void *buffer, int len);
 128:..\..\..\liblc3\src/bits.h **** 
 129:..\..\..\liblc3\src/bits.h **** /**
 130:..\..\..\liblc3\src/bits.h ****  * Return number of bits left in the bitstream
 131:..\..\..\liblc3\src/bits.h ****  * bits            Bitstream context
 132:..\..\..\liblc3\src/bits.h ****  * return          Number of bits left
 133:..\..\..\liblc3\src/bits.h ****  */
 134:..\..\..\liblc3\src/bits.h **** int lc3_get_bits_left(const lc3_bits_t *bits);
 135:..\..\..\liblc3\src/bits.h **** 
 136:..\..\..\liblc3\src/bits.h **** /**
ARM GAS  C:\Users\rdn\AppData\Local\Temp\ccZR1Dqi.s 			page 27


 137:..\..\..\liblc3\src/bits.h ****  * Check if error occured on bitstream reading/writing
 138:..\..\..\liblc3\src/bits.h ****  * bits            Bitstream context
 139:..\..\..\liblc3\src/bits.h ****  * return          0: Ok  -1: Bitstream overflow or AC reading error
 140:..\..\..\liblc3\src/bits.h ****  */
 141:..\..\..\liblc3\src/bits.h **** int lc3_check_bits(const lc3_bits_t *bits);
 142:..\..\..\liblc3\src/bits.h **** 
 143:..\..\..\liblc3\src/bits.h **** /**
 144:..\..\..\liblc3\src/bits.h ****  * Put a bit
 145:..\..\..\liblc3\src/bits.h ****  * bits            Bitstream context
 146:..\..\..\liblc3\src/bits.h ****  * v               Bit value, 0 or 1
 147:..\..\..\liblc3\src/bits.h ****  */
 148:..\..\..\liblc3\src/bits.h **** static inline void lc3_put_bit(lc3_bits_t *bits, int v);
 149:..\..\..\liblc3\src/bits.h **** 
 150:..\..\..\liblc3\src/bits.h **** /**
 151:..\..\..\liblc3\src/bits.h ****  * Put from 1 to 32 bits
 152:..\..\..\liblc3\src/bits.h ****  * bits            Bitstream context
 153:..\..\..\liblc3\src/bits.h ****  * v, n            Value, in range 0 to 2^n - 1, and bits count (1 to 32)
 154:..\..\..\liblc3\src/bits.h ****  */
 155:..\..\..\liblc3\src/bits.h **** static inline void lc3_put_bits(lc3_bits_t *bits, unsigned v, int n);
 156:..\..\..\liblc3\src/bits.h **** 
 157:..\..\..\liblc3\src/bits.h **** /**
 158:..\..\..\liblc3\src/bits.h ****  * Put arithmetic coder symbol
 159:..\..\..\liblc3\src/bits.h ****  * bits            Bitstream context
 160:..\..\..\liblc3\src/bits.h ****  * model, s        Model distribution and symbol value
 161:..\..\..\liblc3\src/bits.h ****  */
 162:..\..\..\liblc3\src/bits.h **** static inline void lc3_put_symbol(lc3_bits_t *bits,
 163:..\..\..\liblc3\src/bits.h ****     const struct lc3_ac_model *model, unsigned s);
 164:..\..\..\liblc3\src/bits.h **** 
 165:..\..\..\liblc3\src/bits.h **** /**
 166:..\..\..\liblc3\src/bits.h ****  * Flush and terminate bitstream writing
 167:..\..\..\liblc3\src/bits.h ****  * bits            Bitstream context
 168:..\..\..\liblc3\src/bits.h ****  */
 169:..\..\..\liblc3\src/bits.h **** void lc3_flush_bits(lc3_bits_t *bits);
 170:..\..\..\liblc3\src/bits.h **** 
 171:..\..\..\liblc3\src/bits.h **** /**
 172:..\..\..\liblc3\src/bits.h ****  * Get a bit
 173:..\..\..\liblc3\src/bits.h ****  * bits            Bitstream context
 174:..\..\..\liblc3\src/bits.h ****  */
 175:..\..\..\liblc3\src/bits.h **** static inline int lc3_get_bit(lc3_bits_t *bits);
 176:..\..\..\liblc3\src/bits.h **** 
 177:..\..\..\liblc3\src/bits.h **** /**
 178:..\..\..\liblc3\src/bits.h ****  * Get from 1 to 32 bits
 179:..\..\..\liblc3\src/bits.h ****  * bits            Bitstream context
 180:..\..\..\liblc3\src/bits.h ****  * n               Number of bits to read (1 to 32)
 181:..\..\..\liblc3\src/bits.h ****  * return          The value read
 182:..\..\..\liblc3\src/bits.h ****  */
 183:..\..\..\liblc3\src/bits.h **** static inline unsigned lc3_get_bits(lc3_bits_t *bits,  int n);
 184:..\..\..\liblc3\src/bits.h **** 
 185:..\..\..\liblc3\src/bits.h **** /**
 186:..\..\..\liblc3\src/bits.h ****  * Get arithmetic coder symbol
 187:..\..\..\liblc3\src/bits.h ****  * bits            Bitstream context
 188:..\..\..\liblc3\src/bits.h ****  * model           Model distribution
 189:..\..\..\liblc3\src/bits.h ****  * return          The value read
 190:..\..\..\liblc3\src/bits.h ****  */
 191:..\..\..\liblc3\src/bits.h **** static inline unsigned lc3_get_symbol(lc3_bits_t *bits,
 192:..\..\..\liblc3\src/bits.h ****     const struct lc3_ac_model *model);
 193:..\..\..\liblc3\src/bits.h **** 
ARM GAS  C:\Users\rdn\AppData\Local\Temp\ccZR1Dqi.s 			page 28


 194:..\..\..\liblc3\src/bits.h **** 
 195:..\..\..\liblc3\src/bits.h **** 
 196:..\..\..\liblc3\src/bits.h **** /* ----------------------------------------------------------------------------
 197:..\..\..\liblc3\src/bits.h ****  *  Inline implementations
 198:..\..\..\liblc3\src/bits.h ****  * -------------------------------------------------------------------------- */
 199:..\..\..\liblc3\src/bits.h **** 
 200:..\..\..\liblc3\src/bits.h **** void lc3_put_bits_generic(lc3_bits_t *bits, unsigned v, int n);
 201:..\..\..\liblc3\src/bits.h **** unsigned lc3_get_bits_generic(struct lc3_bits *bits, int n);
 202:..\..\..\liblc3\src/bits.h **** 
 203:..\..\..\liblc3\src/bits.h **** void lc3_ac_read_renorm(lc3_bits_t *bits);
 204:..\..\..\liblc3\src/bits.h **** void lc3_ac_write_renorm(lc3_bits_t *bits);
 205:..\..\..\liblc3\src/bits.h **** 
 206:..\..\..\liblc3\src/bits.h **** 
 207:..\..\..\liblc3\src/bits.h **** /**
 208:..\..\..\liblc3\src/bits.h ****  * Put a bit
 209:..\..\..\liblc3\src/bits.h ****  */
 210:..\..\..\liblc3\src/bits.h **** LC3_HOT static inline void lc3_put_bit(lc3_bits_t *bits, int v)
 211:..\..\..\liblc3\src/bits.h **** {
 212:..\..\..\liblc3\src/bits.h ****     lc3_put_bits(bits, v, 1);
 213:..\..\..\liblc3\src/bits.h **** }
 214:..\..\..\liblc3\src/bits.h **** 
 215:..\..\..\liblc3\src/bits.h **** /**
 216:..\..\..\liblc3\src/bits.h ****  * Put from 1 to 32 bits
 217:..\..\..\liblc3\src/bits.h ****  */
 218:..\..\..\liblc3\src/bits.h **** LC3_HOT static inline void lc3_put_bits(
 219:..\..\..\liblc3\src/bits.h ****     struct lc3_bits *bits, unsigned v, int n)
 220:..\..\..\liblc3\src/bits.h **** {
 221:..\..\..\liblc3\src/bits.h ****     struct lc3_bits_accu *accu = &bits->accu;
 222:..\..\..\liblc3\src/bits.h **** 
 223:..\..\..\liblc3\src/bits.h ****     if (accu->n + n <= LC3_ACCU_BITS) {
 942              		.loc 2 223 0 discriminator 3
 943 0026 D8F82030 		ldr	r3, [r8, #32]
 944 002a 1344     		add	r3, r3, r2
 945 002c 202B     		cmp	r3, #32
 946 002e 02DC     		bgt	.L72
 224:..\..\..\liblc3\src/bits.h ****         accu->v |= v << accu->n;
 225:..\..\..\liblc3\src/bits.h ****         accu->n += n;
 947              		.loc 2 225 0
 948 0030 C8F82030 		str	r3, [r8, #32]
 949 0034 03E0     		b	.L73
 950              	.L72:
 226:..\..\..\liblc3\src/bits.h ****     } else {
 227:..\..\..\liblc3\src/bits.h ****         lc3_put_bits_generic(bits, v, n);
 951              		.loc 2 227 0
 952 0036 0021     		movs	r1, #0
 953 0038 4046     		mov	r0, r8
 954 003a FFF7FEFF 		bl	lc3_put_bits_generic
 955              	.LVL99:
 956              	.L73:
 957              	.LBE85:
 958              	.LBE84:
 253:..\..\..\liblc3\src/bits.c ****         lc3_put_bits(bits, 0, LC3_MIN(n, 32));
 959              		.loc 1 253 0 discriminator 3
 960 003e 203C     		subs	r4, r4, #32
 961              	.LVL100:
 962              	.L71:
 253:..\..\..\liblc3\src/bits.c ****         lc3_put_bits(bits, 0, LC3_MIN(n, 32));
ARM GAS  C:\Users\rdn\AppData\Local\Temp\ccZR1Dqi.s 			page 29


 963              		.loc 1 253 0 is_stmt 0 discriminator 1
 964 0040 002C     		cmp	r4, #0
 965 0042 ECDC     		bgt	.L74
 966              	.LVL101:
 967              	.LBE83:
 968              	.LBB86:
 969              	.LBB87:
 142:..\..\..\liblc3\src/bits.c ****         LC3_MAX(buffer->p_bw - buffer->p_fw, 0));
 970              		.loc 1 142 0 is_stmt 1
 971 0044 F368     		ldr	r3, [r6, #12]
 972 0046 B268     		ldr	r2, [r6, #8]
 973 0048 9A1A     		subs	r2, r3, r2
 974 004a 22EAE272 		bic	r2, r2, r2, asr #31
 975 004e 6968     		ldr	r1, [r5, #4]
 976 0050 CB10     		asrs	r3, r1, #3
 977 0052 9A42     		cmp	r2, r3
 978 0054 A8BF     		it	ge
 979 0056 1A46     		movge	r2, r3
 980              	.LVL102:
 145:..\..\..\liblc3\src/bits.c **** 
 981              		.loc 1 145 0
 982 0058 A1EBC201 		sub	r1, r1, r2, lsl #3
 983 005c 6960     		str	r1, [r5, #4]
 984 005e 09E0     		b	.L75
 985              	.L76:
 148:..\..\..\liblc3\src/bits.c **** 
 986              		.loc 1 148 0
 987 0060 F368     		ldr	r3, [r6, #12]
 988 0062 591E     		subs	r1, r3, #1
 989 0064 F160     		str	r1, [r6, #12]
 990 0066 2968     		ldr	r1, [r5]
 991 0068 03F8011C 		strb	r1, [r3, #-1]
 147:..\..\..\liblc3\src/bits.c ****         *(--buffer->p_bw) = accu->v & 0xff;
 992              		.loc 1 147 0
 993 006c 2B68     		ldr	r3, [r5]
 994 006e 1B0A     		lsrs	r3, r3, #8
 995 0070 2B60     		str	r3, [r5]
 996 0072 013A     		subs	r2, r2, #1
 997              	.LVL103:
 998              	.L75:
 999 0074 002A     		cmp	r2, #0
 1000 0076 F3D1     		bne	.L76
 150:..\..\..\liblc3\src/bits.c ****         accu->n = 0;
 1001              		.loc 1 150 0
 1002 0078 6B68     		ldr	r3, [r5, #4]
 1003 007a 072B     		cmp	r3, #7
 1004 007c 01DD     		ble	.L77
 151:..\..\..\liblc3\src/bits.c **** }
 1005              		.loc 1 151 0
 1006 007e 0023     		movs	r3, #0
 1007 0080 6B60     		str	r3, [r5, #4]
 1008              	.L77:
 1009              	.LVL104:
 1010              	.LBE87:
 1011              	.LBE86:
 258:..\..\..\liblc3\src/bits.c **** }
 1012              		.loc 1 258 0
ARM GAS  C:\Users\rdn\AppData\Local\Temp\ccZR1Dqi.s 			page 30


 1013 0082 3146     		mov	r1, r6
 1014 0084 3846     		mov	r0, r7
 1015 0086 FFF7FEFF 		bl	ac_terminate
 1016              	.LVL105:
 1017 008a BDE8F081 		pop	{r4, r5, r6, r7, r8, pc}
 1018              		.cfi_endproc
 1019              	.LFE23:
 1020              		.size	lc3_flush_bits, .-lc3_flush_bits
 1021 008e 00BF     		.section	.text.lc3_ac_write_renorm,"ax",%progbits
 1022              		.align	2
 1023              		.global	lc3_ac_write_renorm
 1024              		.thumb
 1025              		.thumb_func
 1026              		.type	lc3_ac_write_renorm, %function
 1027              	lc3_ac_write_renorm:
 1028              	.LFB25:
 289:..\..\..\liblc3\src/bits.c ****     struct lc3_bits_ac *ac = &bits->ac;
 1029              		.loc 1 289 0
 1030              		.cfi_startproc
 1031              		@ args = 0, pretend = 0, frame = 0
 1032              		@ frame_needed = 0, uses_anonymous_args = 0
 1033              		@ link register save eliminated.
 1034              	.LVL106:
 1035 0000 30B4     		push	{r4, r5}
 1036              		.cfi_def_cfa_offset 8
 1037              		.cfi_offset 4, -8
 1038              		.cfi_offset 5, -4
 290:..\..\..\liblc3\src/bits.c **** 
 1039              		.loc 1 290 0
 1040 0002 031D     		adds	r3, r0, #4
 1041              	.LVL107:
 292:..\..\..\liblc3\src/bits.c ****         ac_shift(ac, &bits->buffer);
 1042              		.loc 1 292 0
 1043 0004 36E0     		b	.L80
 1044              	.L88:
 293:..\..\..\liblc3\src/bits.c **** }
 1045              		.loc 1 293 0 discriminator 2
 1046 0006 00F12801 		add	r1, r0, #40
 1047              	.LVL108:
 1048              	.LBB94:
 1049              	.LBB95:
 173:..\..\..\liblc3\src/bits.c ****     {
 1050              		.loc 1 173 0 discriminator 2
 1051 000a 1A68     		ldr	r2, [r3]
 1052 000c B2F57F0F 		cmp	r2, #16711680
 1053 0010 01D3     		bcc	.L81
 173:..\..\..\liblc3\src/bits.c ****     {
 1054              		.loc 1 173 0 is_stmt 0
 1055 0012 DA68     		ldr	r2, [r3, #12]
 1056 0014 1AB3     		cbz	r2, .L82
 1057              	.L81:
 175:..\..\..\liblc3\src/bits.c ****             ac_put(buffer, ac->cache + ac->carry);
 1058              		.loc 1 175 0 is_stmt 1
 1059 0016 9A68     		ldr	r2, [r3, #8]
 1060 0018 002A     		cmp	r2, #0
 1061 001a 18DB     		blt	.L83
 176:..\..\..\liblc3\src/bits.c **** 
ARM GAS  C:\Users\rdn\AppData\Local\Temp\ccZR1Dqi.s 			page 31


 1062              		.loc 1 176 0
 1063 001c DC68     		ldr	r4, [r3, #12]
 1064 001e 2244     		add	r2, r2, r4
 1065              	.LVL109:
 1066              	.LBB96:
 1067              	.LBB97:
 161:..\..\..\liblc3\src/bits.c ****         *(buffer->p_fw++) = byte;
 1068              		.loc 1 161 0
 1069 0020 8C68     		ldr	r4, [r1, #8]
 1070 0022 4D68     		ldr	r5, [r1, #4]
 1071 0024 AC42     		cmp	r4, r5
 1072 0026 12D2     		bcs	.L83
 162:..\..\..\liblc3\src/bits.c **** }
 1073              		.loc 1 162 0
 1074 0028 651C     		adds	r5, r4, #1
 1075 002a 8D60     		str	r5, [r1, #8]
 1076 002c 2270     		strb	r2, [r4]
 1077 002e 0EE0     		b	.L83
 1078              	.LVL110:
 1079              	.L86:
 1080              	.LBE97:
 1081              	.LBE96:
 179:..\..\..\liblc3\src/bits.c **** 
 1082              		.loc 1 179 0
 1083 0030 DA68     		ldr	r2, [r3, #12]
 1084 0032 0AB1     		cbz	r2, .L89
 1085 0034 0025     		movs	r5, #0
 1086 0036 00E0     		b	.L84
 1087              	.L89:
 1088 0038 FF25     		movs	r5, #255
 1089              	.L84:
 1090              	.LVL111:
 1091              	.LBB98:
 1092              	.LBB99:
 161:..\..\..\liblc3\src/bits.c ****         *(buffer->p_fw++) = byte;
 1093              		.loc 1 161 0
 1094 003a 8A68     		ldr	r2, [r1, #8]
 1095 003c 4C68     		ldr	r4, [r1, #4]
 1096 003e A242     		cmp	r2, r4
 1097 0040 02D2     		bcs	.L85
 162:..\..\..\liblc3\src/bits.c **** }
 1098              		.loc 1 162 0
 1099 0042 541C     		adds	r4, r2, #1
 1100 0044 8C60     		str	r4, [r1, #8]
 1101 0046 1570     		strb	r5, [r2]
 1102              	.L85:
 1103              	.LVL112:
 1104              	.LBE99:
 1105              	.LBE98:
 178:..\..\..\liblc3\src/bits.c ****             ac_put(buffer, ac->carry ? 0x00 : 0xff);
 1106              		.loc 1 178 0
 1107 0048 1A69     		ldr	r2, [r3, #16]
 1108 004a 013A     		subs	r2, r2, #1
 1109 004c 1A61     		str	r2, [r3, #16]
 1110              	.L83:
 1111 004e 1A69     		ldr	r2, [r3, #16]
 1112 0050 002A     		cmp	r2, #0
ARM GAS  C:\Users\rdn\AppData\Local\Temp\ccZR1Dqi.s 			page 32


 1113 0052 EDDC     		bgt	.L86
 181:..\..\..\liblc3\src/bits.c ****          ac->carry = 0;
 1114              		.loc 1 181 0
 1115 0054 5A88     		ldrh	r2, [r3, #2]
 1116 0056 9A60     		str	r2, [r3, #8]
 182:..\..\..\liblc3\src/bits.c ****     }
 1117              		.loc 1 182 0
 1118 0058 0022     		movs	r2, #0
 1119 005a DA60     		str	r2, [r3, #12]
 1120 005c 02E0     		b	.L87
 1121              	.L82:
 185:..\..\..\liblc3\src/bits.c **** 
 1122              		.loc 1 185 0
 1123 005e 1A69     		ldr	r2, [r3, #16]
 1124 0060 0132     		adds	r2, r2, #1
 1125 0062 1A61     		str	r2, [r3, #16]
 1126              	.L87:
 187:..\..\..\liblc3\src/bits.c **** }
 1127              		.loc 1 187 0
 1128 0064 1A68     		ldr	r2, [r3]
 1129 0066 1202     		lsls	r2, r2, #8
 1130 0068 22F07F42 		bic	r2, r2, #-16777216
 1131 006c 1A60     		str	r2, [r3]
 1132              	.LVL113:
 1133              	.LBE95:
 1134              	.LBE94:
 292:..\..\..\liblc3\src/bits.c ****         ac_shift(ac, &bits->buffer);
 1135              		.loc 1 292 0
 1136 006e 8268     		ldr	r2, [r0, #8]
 1137 0070 1202     		lsls	r2, r2, #8
 1138 0072 8260     		str	r2, [r0, #8]
 1139              	.L80:
 292:..\..\..\liblc3\src/bits.c ****         ac_shift(ac, &bits->buffer);
 1140              		.loc 1 292 0 is_stmt 0 discriminator 1
 1141 0074 8268     		ldr	r2, [r0, #8]
 1142 0076 B2F5803F 		cmp	r2, #65536
 1143 007a C4D3     		bcc	.L88
 294:..\..\..\liblc3\src/bits.c **** 
 1144              		.loc 1 294 0 is_stmt 1
 1145 007c 30BC     		pop	{r4, r5}
 1146              		.cfi_restore 5
 1147              		.cfi_restore 4
 1148              		.cfi_def_cfa_offset 0
 1149 007e 7047     		bx	lr
 1150              		.cfi_endproc
 1151              	.LFE25:
 1152              		.size	lc3_ac_write_renorm, .-lc3_ac_write_renorm
 1153              		.section	.text.lc3_get_bits_generic,"ax",%progbits
 1154              		.align	2
 1155              		.global	lc3_get_bits_generic
 1156              		.thumb
 1157              		.thumb_func
 1158              		.type	lc3_get_bits_generic, %function
 1159              	lc3_get_bits_generic:
 1160              	.LFB28:
 332:..\..\..\liblc3\src/bits.c ****     }
 333:..\..\..\liblc3\src/bits.c **** }
ARM GAS  C:\Users\rdn\AppData\Local\Temp\ccZR1Dqi.s 			page 33


 334:..\..\..\liblc3\src/bits.c **** 
 335:..\..\..\liblc3\src/bits.c **** /**
 336:..\..\..\liblc3\src/bits.c ****  * Read from 1 to 32 bits,
 337:..\..\..\liblc3\src/bits.c ****  * exceeding the capacity of the accumulator
 338:..\..\..\liblc3\src/bits.c ****  */
 339:..\..\..\liblc3\src/bits.c **** LC3_HOT unsigned lc3_get_bits_generic(struct lc3_bits *bits, int n)
 340:..\..\..\liblc3\src/bits.c **** {
 1161              		.loc 1 340 0
 1162              		.cfi_startproc
 1163              		@ args = 0, pretend = 0, frame = 0
 1164              		@ frame_needed = 0, uses_anonymous_args = 0
 1165              	.LVL114:
 1166 0000 F0B5     		push	{r4, r5, r6, r7, lr}
 1167              		.cfi_def_cfa_offset 20
 1168              		.cfi_offset 4, -20
 1169              		.cfi_offset 5, -16
 1170              		.cfi_offset 6, -12
 1171              		.cfi_offset 7, -8
 1172              		.cfi_offset 14, -4
 1173 0002 0746     		mov	r7, r0
 341:..\..\..\liblc3\src/bits.c ****     struct lc3_bits_accu *accu = &bits->accu;
 1174              		.loc 1 341 0
 1175 0004 00F11C03 		add	r3, r0, #28
 1176              	.LVL115:
 342:..\..\..\liblc3\src/bits.c ****     struct lc3_bits_buffer *buffer = &bits->buffer;
 1177              		.loc 1 342 0
 1178 0008 00F12805 		add	r5, r0, #40
 1179              	.LVL116:
 1180              	.LBB104:
 1181              	.LBB105:
 319:..\..\..\liblc3\src/bits.c **** 
 1182              		.loc 1 319 0
 1183 000c EA68     		ldr	r2, [r5, #12]
 1184 000e 846A     		ldr	r4, [r0, #40]
 1185 0010 141B     		subs	r4, r2, r4
 1186 0012 5868     		ldr	r0, [r3, #4]
 1187              	.LVL117:
 1188 0014 C210     		asrs	r2, r0, #3
 1189 0016 9442     		cmp	r4, r2
 1190 0018 A8BF     		it	ge
 1191 001a 1446     		movge	r4, r2
 1192              	.LVL118:
 321:..\..\..\liblc3\src/bits.c **** 
 1193              		.loc 1 321 0
 1194 001c A0EBC400 		sub	r0, r0, r4, lsl #3
 1195 0020 5860     		str	r0, [r3, #4]
 1196 0022 0CE0     		b	.L92
 1197              	.L93:
 324:..\..\..\liblc3\src/bits.c ****         accu->v |= (unsigned)*(--buffer->p_bw) << (LC3_ACCU_BITS - 8);
 1198              		.loc 1 324 0
 1199 0024 1A68     		ldr	r2, [r3]
 1200 0026 120A     		lsrs	r2, r2, #8
 1201 0028 1A60     		str	r2, [r3]
 325:..\..\..\liblc3\src/bits.c ****     }
 1202              		.loc 1 325 0
 1203 002a EA68     		ldr	r2, [r5, #12]
 1204 002c 561E     		subs	r6, r2, #1
ARM GAS  C:\Users\rdn\AppData\Local\Temp\ccZR1Dqi.s 			page 34


 1205 002e EE60     		str	r6, [r5, #12]
 1206 0030 12F8016C 		ldrb	r6, [r2, #-1]	@ zero_extendqisi2
 1207 0034 1A68     		ldr	r2, [r3]
 1208 0036 42EA0662 		orr	r2, r2, r6, lsl #24
 1209 003a 1A60     		str	r2, [r3]
 323:..\..\..\liblc3\src/bits.c ****         accu->v >>= 8;
 1210              		.loc 1 323 0
 1211 003c 013C     		subs	r4, r4, #1
 1212              	.LVL119:
 1213              	.L92:
 1214 003e 002C     		cmp	r4, #0
 1215 0040 F0D1     		bne	.L93
 328:..\..\..\liblc3\src/bits.c ****         accu->nover = LC3_MIN(accu->nover + accu->n, LC3_ACCU_BITS);
 1216              		.loc 1 328 0
 1217 0042 5868     		ldr	r0, [r3, #4]
 1218 0044 0728     		cmp	r0, #7
 1219 0046 0BDD     		ble	.L94
 329:..\..\..\liblc3\src/bits.c ****         accu->v >>= accu->n;
 1220              		.loc 1 329 0
 1221 0048 9A68     		ldr	r2, [r3, #8]
 1222 004a 0244     		add	r2, r2, r0
 1223 004c 202A     		cmp	r2, #32
 1224 004e A8BF     		it	ge
 1225 0050 2022     		movge	r2, #32
 1226 0052 9A60     		str	r2, [r3, #8]
 330:..\..\..\liblc3\src/bits.c ****         accu->n = 0;
 1227              		.loc 1 330 0
 1228 0054 FA69     		ldr	r2, [r7, #28]
 1229 0056 22FA00F0 		lsr	r0, r2, r0
 1230 005a F861     		str	r0, [r7, #28]
 331:..\..\..\liblc3\src/bits.c ****     }
 1231              		.loc 1 331 0
 1232 005c 0022     		movs	r2, #0
 1233 005e 5A60     		str	r2, [r3, #4]
 1234              	.L94:
 1235              	.LVL120:
 1236              	.LBE105:
 1237              	.LBE104:
 343:..\..\..\liblc3\src/bits.c **** 
 344:..\..\..\liblc3\src/bits.c ****     /* --- Fulfill accumulator and read -- */
 345:..\..\..\liblc3\src/bits.c **** 
 346:..\..\..\liblc3\src/bits.c ****     accu_load(accu, buffer);
 347:..\..\..\liblc3\src/bits.c **** 
 348:..\..\..\liblc3\src/bits.c ****     int n1 = LC3_MIN(LC3_ACCU_BITS - accu->n, n);
 1238              		.loc 1 348 0
 1239 0060 3A6A     		ldr	r2, [r7, #32]
 1240 0062 C2F1200E 		rsb	lr, r2, #32
 1241 0066 8E45     		cmp	lr, r1
 1242 0068 A8BF     		it	ge
 1243 006a 8E46     		movge	lr, r1
 1244              	.LVL121:
 349:..\..\..\liblc3\src/bits.c ****     unsigned v = (accu->v >> accu->n) & ((1u << n1) - 1);
 1245              		.loc 1 349 0
 1246 006c F869     		ldr	r0, [r7, #28]
 1247 006e 20FA02F4 		lsr	r4, r0, r2
 1248 0072 0120     		movs	r0, #1
 1249 0074 00FA0EF0 		lsl	r0, r0, lr
ARM GAS  C:\Users\rdn\AppData\Local\Temp\ccZR1Dqi.s 			page 35


 1250 0078 0138     		subs	r0, r0, #1
 1251 007a 2040     		ands	r0, r0, r4
 1252              	.LVL122:
 350:..\..\..\liblc3\src/bits.c ****     accu->n += n1;
 1253              		.loc 1 350 0
 1254 007c 7244     		add	r2, r2, lr
 1255 007e 3A62     		str	r2, [r7, #32]
 1256              	.LVL123:
 351:..\..\..\liblc3\src/bits.c **** 
 352:..\..\..\liblc3\src/bits.c ****     /* --- Second round --- */
 353:..\..\..\liblc3\src/bits.c **** 
 354:..\..\..\liblc3\src/bits.c ****     int n2 = n - n1;
 355:..\..\..\liblc3\src/bits.c **** 
 356:..\..\..\liblc3\src/bits.c ****     if (n2) {
 1257              		.loc 1 356 0
 1258 0080 B1EB0E01 		subs	r1, r1, lr
 1259              	.LVL124:
 1260 0084 37D0     		beq	.L95
 1261              	.LVL125:
 1262              	.LBB106:
 1263              	.LBB107:
 319:..\..\..\liblc3\src/bits.c **** 
 1264              		.loc 1 319 0
 1265 0086 EA68     		ldr	r2, [r5, #12]
 1266 0088 BC6A     		ldr	r4, [r7, #40]
 1267 008a 141B     		subs	r4, r2, r4
 1268 008c 5A68     		ldr	r2, [r3, #4]
 1269 008e D610     		asrs	r6, r2, #3
 1270 0090 B442     		cmp	r4, r6
 1271 0092 A8BF     		it	ge
 1272 0094 3446     		movge	r4, r6
 1273              	.LVL126:
 321:..\..\..\liblc3\src/bits.c **** 
 1274              		.loc 1 321 0
 1275 0096 A2EBC402 		sub	r2, r2, r4, lsl #3
 1276 009a 5A60     		str	r2, [r3, #4]
 1277 009c 0CE0     		b	.L96
 1278              	.L97:
 324:..\..\..\liblc3\src/bits.c ****         accu->v |= (unsigned)*(--buffer->p_bw) << (LC3_ACCU_BITS - 8);
 1279              		.loc 1 324 0
 1280 009e 1A68     		ldr	r2, [r3]
 1281 00a0 120A     		lsrs	r2, r2, #8
 1282 00a2 1A60     		str	r2, [r3]
 325:..\..\..\liblc3\src/bits.c ****     }
 1283              		.loc 1 325 0
 1284 00a4 EA68     		ldr	r2, [r5, #12]
 1285 00a6 561E     		subs	r6, r2, #1
 1286 00a8 EE60     		str	r6, [r5, #12]
 1287 00aa 12F8016C 		ldrb	r6, [r2, #-1]	@ zero_extendqisi2
 1288 00ae 1A68     		ldr	r2, [r3]
 1289 00b0 42EA0662 		orr	r2, r2, r6, lsl #24
 1290 00b4 1A60     		str	r2, [r3]
 323:..\..\..\liblc3\src/bits.c ****         accu->v >>= 8;
 1291              		.loc 1 323 0
 1292 00b6 013C     		subs	r4, r4, #1
 1293              	.LVL127:
 1294              	.L96:
ARM GAS  C:\Users\rdn\AppData\Local\Temp\ccZR1Dqi.s 			page 36


 1295 00b8 002C     		cmp	r4, #0
 1296 00ba F0D1     		bne	.L97
 328:..\..\..\liblc3\src/bits.c ****         accu->nover = LC3_MIN(accu->nover + accu->n, LC3_ACCU_BITS);
 1297              		.loc 1 328 0
 1298 00bc 5C68     		ldr	r4, [r3, #4]
 1299              	.LVL128:
 1300 00be 072C     		cmp	r4, #7
 1301 00c0 0BDD     		ble	.L98
 329:..\..\..\liblc3\src/bits.c ****         accu->v >>= accu->n;
 1302              		.loc 1 329 0
 1303 00c2 9A68     		ldr	r2, [r3, #8]
 1304 00c4 2244     		add	r2, r2, r4
 1305 00c6 202A     		cmp	r2, #32
 1306 00c8 A8BF     		it	ge
 1307 00ca 2022     		movge	r2, #32
 1308 00cc 9A60     		str	r2, [r3, #8]
 330:..\..\..\liblc3\src/bits.c ****         accu->n = 0;
 1309              		.loc 1 330 0
 1310 00ce FA69     		ldr	r2, [r7, #28]
 1311 00d0 22FA04F4 		lsr	r4, r2, r4
 1312 00d4 FC61     		str	r4, [r7, #28]
 331:..\..\..\liblc3\src/bits.c ****     }
 1313              		.loc 1 331 0
 1314 00d6 0022     		movs	r2, #0
 1315 00d8 5A60     		str	r2, [r3, #4]
 1316              	.L98:
 1317              	.LVL129:
 1318              	.LBE107:
 1319              	.LBE106:
 357:..\..\..\liblc3\src/bits.c ****         accu_load(accu, buffer);
 358:..\..\..\liblc3\src/bits.c **** 
 359:..\..\..\liblc3\src/bits.c ****         v |= ((accu->v >> accu->n) & ((1u << n2) - 1)) << n1;
 1320              		.loc 1 359 0
 1321 00da FB69     		ldr	r3, [r7, #28]
 1322              	.LVL130:
 1323 00dc 3A6A     		ldr	r2, [r7, #32]
 1324 00de 23FA02F4 		lsr	r4, r3, r2
 1325 00e2 0123     		movs	r3, #1
 1326 00e4 8B40     		lsls	r3, r3, r1
 1327 00e6 013B     		subs	r3, r3, #1
 1328 00e8 2340     		ands	r3, r3, r4
 1329 00ea 03FA0EFE 		lsl	lr, r3, lr
 1330              	.LVL131:
 1331 00ee 40EA0E00 		orr	r0, r0, lr
 1332              	.LVL132:
 360:..\..\..\liblc3\src/bits.c ****         accu->n += n2;
 1333              		.loc 1 360 0
 1334 00f2 1144     		add	r1, r1, r2
 1335              	.LVL133:
 1336 00f4 3962     		str	r1, [r7, #32]
 1337              	.L95:
 361:..\..\..\liblc3\src/bits.c ****     }
 362:..\..\..\liblc3\src/bits.c **** 
 363:..\..\..\liblc3\src/bits.c ****     return v;
 364:..\..\..\liblc3\src/bits.c **** }
 1338              		.loc 1 364 0
 1339 00f6 F0BD     		pop	{r4, r5, r6, r7, pc}
ARM GAS  C:\Users\rdn\AppData\Local\Temp\ccZR1Dqi.s 			page 37


 1340              		.cfi_endproc
 1341              	.LFE28:
 1342              		.size	lc3_get_bits_generic, .-lc3_get_bits_generic
 1343              		.section	.text.lc3_ac_read_renorm,"ax",%progbits
 1344              		.align	2
 1345              		.global	lc3_ac_read_renorm
 1346              		.thumb
 1347              		.thumb_func
 1348              		.type	lc3_ac_read_renorm, %function
 1349              	lc3_ac_read_renorm:
 1350              	.LFB29:
 365:..\..\..\liblc3\src/bits.c **** 
 366:..\..\..\liblc3\src/bits.c **** /**
 367:..\..\..\liblc3\src/bits.c ****  * Arithmetic coder renormalization
 368:..\..\..\liblc3\src/bits.c ****  */
 369:..\..\..\liblc3\src/bits.c **** LC3_HOT void lc3_ac_read_renorm(struct lc3_bits *bits)
 370:..\..\..\liblc3\src/bits.c **** {
 1351              		.loc 1 370 0
 1352              		.cfi_startproc
 1353              		@ args = 0, pretend = 0, frame = 0
 1354              		@ frame_needed = 0, uses_anonymous_args = 0
 1355              		@ link register save eliminated.
 1356              	.LVL134:
 1357 0000 10B4     		push	{r4}
 1358              		.cfi_def_cfa_offset 4
 1359              		.cfi_offset 4, -4
 1360              	.LVL135:
 371:..\..\..\liblc3\src/bits.c ****     struct lc3_bits_ac *ac = &bits->ac;
 372:..\..\..\liblc3\src/bits.c **** 
 373:..\..\..\liblc3\src/bits.c ****     for ( ; ac->range < 0x10000; ac->range <<= 8)
 1361              		.loc 1 373 0
 1362 0002 10E0     		b	.L101
 1363              	.L103:
 374:..\..\..\liblc3\src/bits.c ****         ac->low = ((ac->low << 8) | ac_get(&bits->buffer)) & 0xffffff;
 1364              		.loc 1 374 0 discriminator 2
 1365 0004 4368     		ldr	r3, [r0, #4]
 1366 0006 1B02     		lsls	r3, r3, #8
 1367              	.LVL136:
 1368              	.LBB108:
 1369              	.LBB109:
 308:..\..\..\liblc3\src/bits.c **** }
 1370              		.loc 1 308 0 discriminator 2
 1371 0008 016B     		ldr	r1, [r0, #48]
 1372 000a C46A     		ldr	r4, [r0, #44]
 1373 000c A142     		cmp	r1, r4
 1374 000e 03D2     		bcs	.L104
 308:..\..\..\liblc3\src/bits.c **** }
 1375              		.loc 1 308 0 is_stmt 0
 1376 0010 4C1C     		adds	r4, r1, #1
 1377 0012 0463     		str	r4, [r0, #48]
 1378 0014 0978     		ldrb	r1, [r1]	@ zero_extendqisi2
 1379 0016 00E0     		b	.L102
 1380              	.L104:
 1381 0018 0021     		movs	r1, #0
 1382              	.L102:
 1383              	.LVL137:
 1384              	.LBE109:
ARM GAS  C:\Users\rdn\AppData\Local\Temp\ccZR1Dqi.s 			page 38


 1385              	.LBE108:
 1386              		.loc 1 374 0 is_stmt 1
 1387 001a 0B43     		orrs	r3, r3, r1
 1388 001c 23F07F43 		bic	r3, r3, #-16777216
 1389 0020 4360     		str	r3, [r0, #4]
 373:..\..\..\liblc3\src/bits.c ****         ac->low = ((ac->low << 8) | ac_get(&bits->buffer)) & 0xffffff;
 1390              		.loc 1 373 0
 1391 0022 1202     		lsls	r2, r2, #8
 1392 0024 8260     		str	r2, [r0, #8]
 1393              	.L101:
 373:..\..\..\liblc3\src/bits.c ****         ac->low = ((ac->low << 8) | ac_get(&bits->buffer)) & 0xffffff;
 1394              		.loc 1 373 0 is_stmt 0 discriminator 1
 1395 0026 8268     		ldr	r2, [r0, #8]
 1396 0028 B2F5803F 		cmp	r2, #65536
 1397 002c EAD3     		bcc	.L103
 375:..\..\..\liblc3\src/bits.c **** }
 1398              		.loc 1 375 0 is_stmt 1
 1399 002e 5DF8044B 		ldr	r4, [sp], #4
 1400              		.cfi_restore 4
 1401              		.cfi_def_cfa_offset 0
 1402 0032 7047     		bx	lr
 1403              		.cfi_endproc
 1404              	.LFE29:
 1405              		.size	lc3_ac_read_renorm, .-lc3_ac_read_renorm
 1406              		.text
 1407              	.Letext0:
 1408              		.file 3 "c:\\program files (x86)\\cypress\\psoc creator\\4.4\\psoc creator\\import\\gnu\\arm\\5.4.
 1409              		.file 4 "c:\\program files (x86)\\cypress\\psoc creator\\4.4\\psoc creator\\import\\gnu\\arm\\5.4.