ARM GAS  C:\Users\rdn\AppData\Local\Temp\ccZR1Dqi.s 			page 1


   1              		.syntax unified
   2              		.cpu cortex-m4
   3              		.eabi_attribute 27, 1
   4              		.fpu fpv4-sp-d16
   5              		.eabi_attribute 20, 1
   6              		.eabi_attribute 21, 1
   7              		.eabi_attribute 23, 3
   8              		.eabi_attribute 24, 1
   9              		.eabi_attribute 25, 1
  10              		.eabi_attribute 26, 1
  11              		.eabi_attribute 30, 1
  12              		.eabi_attribute 34, 1
  13              		.eabi_attribute 18, 4
  14              		.thumb
  15              		.syntax unified
  16              		.file	"bits.c"
  17              		.text
  18              	.Ltext0:
  19              		.cfi_sections	.debug_frame
  20              		.section	.text.ac_get_range_bits,"ax",%progbits
  21              		.align	2
  22              		.thumb
  23              		.thumb_func
  24              		.type	ac_get_range_bits, %function
  25              	ac_get_range_bits:
  26              	.LFB13:
  27              		.file 1 "..\\..\\..\\liblc3\\src\\bits.c"
   1:..\..\..\liblc3\src/bits.c **** /******************************************************************************
   2:..\..\..\liblc3\src/bits.c ****  *
   3:..\..\..\liblc3\src/bits.c ****  *  Copyright 2022 Google LLC
   4:..\..\..\liblc3\src/bits.c ****  *
   5:..\..\..\liblc3\src/bits.c ****  *  Licensed under the Apache License, Version 2.0 (the "License");
   6:..\..\..\liblc3\src/bits.c ****  *  you may not use this file except in compliance with the License.
   7:..\..\..\liblc3\src/bits.c ****  *  You may obtain a copy of the License at:
   8:..\..\..\liblc3\src/bits.c ****  *
   9:..\..\..\liblc3\src/bits.c ****  *  http://www.apache.org/licenses/LICENSE-2.0
  10:..\..\..\liblc3\src/bits.c ****  *
  11:..\..\..\liblc3\src/bits.c ****  *  Unless required by applicable law or agreed to in writing, software
  12:..\..\..\liblc3\src/bits.c ****  *  distributed under the License is distributed on an "AS IS" BASIS,
  13:..\..\..\liblc3\src/bits.c ****  *  WITHOUT WARRANTIES OR CONDITIONS OF ANY KIND, either express or implied.
  14:..\..\..\liblc3\src/bits.c ****  *  See the License for the specific language governing permissions and
  15:..\..\..\liblc3\src/bits.c ****  *  limitations under the License.
  16:..\..\..\liblc3\src/bits.c ****  *
  17:..\..\..\liblc3\src/bits.c ****  ******************************************************************************/
  18:..\..\..\liblc3\src/bits.c **** 
  19:..\..\..\liblc3\src/bits.c **** #include "bits.h"
  20:..\..\..\liblc3\src/bits.c **** #include "common.h"
  21:..\..\..\liblc3\src/bits.c **** 
  22:..\..\..\liblc3\src/bits.c **** 
  23:..\..\..\liblc3\src/bits.c **** /* ----------------------------------------------------------------------------
  24:..\..\..\liblc3\src/bits.c ****  *  Common
  25:..\..\..\liblc3\src/bits.c ****  * -------------------------------------------------------------------------- */
  26:..\..\..\liblc3\src/bits.c **** 
  27:..\..\..\liblc3\src/bits.c **** static inline int ac_get(struct lc3_bits_buffer *);
  28:..\..\..\liblc3\src/bits.c **** static inline void accu_load(struct lc3_bits_accu *, struct lc3_bits_buffer *);
  29:..\..\..\liblc3\src/bits.c **** 
  30:..\..\..\liblc3\src/bits.c **** /**
ARM GAS  C:\Users\rdn\AppData\Local\Temp\ccZR1Dqi.s 			page 2


  31:..\..\..\liblc3\src/bits.c ****  * Arithmetic coder return range bits
  32:..\..\..\liblc3\src/bits.c ****  * ac              Arithmetic coder
  33:..\..\..\liblc3\src/bits.c ****  * return          1 + log2(ac->range)
  34:..\..\..\liblc3\src/bits.c ****  */
  35:..\..\..\liblc3\src/bits.c **** static int ac_get_range_bits(const struct lc3_bits_ac *ac)
  36:..\..\..\liblc3\src/bits.c **** {
  28              		.loc 1 36 0
  29              		.cfi_startproc
  30              		@ args = 0, pretend = 0, frame = 0
  31              		@ frame_needed = 0, uses_anonymous_args = 0
  32              		@ link register save eliminated.
  33              	.LVL0:
  34              	.LBB22:
  37:..\..\..\liblc3\src/bits.c ****     int nbits = 0;
  38:..\..\..\liblc3\src/bits.c **** 
  39:..\..\..\liblc3\src/bits.c ****     for (unsigned r = ac->range; r; r >>= 1, nbits++);
  35              		.loc 1 39 0
  36 0000 4368     		ldr	r3, [r0, #4]
  37              	.LVL1:
  38              	.LBE22:
  37:..\..\..\liblc3\src/bits.c ****     int nbits = 0;
  39              		.loc 1 37 0
  40 0002 0020     		movs	r0, #0
  41              	.LVL2:
  42              	.LBB23:
  43              		.loc 1 39 0
  44 0004 01E0     		b	.L2
  45              	.LVL3:
  46              	.L3:
  47              		.loc 1 39 0 is_stmt 0 discriminator 3
  48 0006 5B08     		lsrs	r3, r3, #1
  49              	.LVL4:
  50 0008 0130     		adds	r0, r0, #1
  51              	.LVL5:
  52              	.L2:
  53              		.loc 1 39 0 discriminator 1
  54 000a 002B     		cmp	r3, #0
  55 000c FBD1     		bne	.L3
  56              	.LBE23:
  40:..\..\..\liblc3\src/bits.c **** 
  41:..\..\..\liblc3\src/bits.c ****     return nbits;
  42:..\..\..\liblc3\src/bits.c **** }
  57              		.loc 1 42 0 is_stmt 1
  58 000e 7047     		bx	lr
  59              		.cfi_endproc
  60              	.LFE13:
  61              		.size	ac_get_range_bits, .-ac_get_range_bits
  62              		.section	.text.ac_get_pending_bits,"ax",%progbits
  63              		.align	2
  64              		.thumb
  65              		.thumb_func
  66              		.type	ac_get_pending_bits, %function
  67              	ac_get_pending_bits:
  68              	.LFB14:
  43:..\..\..\liblc3\src/bits.c **** 
  44:..\..\..\liblc3\src/bits.c **** /**
  45:..\..\..\liblc3\src/bits.c ****  * Arithmetic coder return pending bits
ARM GAS  C:\Users\rdn\AppData\Local\Temp\ccZR1Dqi.s 			page 3


  46:..\..\..\liblc3\src/bits.c ****  * ac              Arithmetic coder
  47:..\..\..\liblc3\src/bits.c ****  * return          Pending bits
  48:..\..\..\liblc3\src/bits.c ****  */
  49:..\..\..\liblc3\src/bits.c **** static int ac_get_pending_bits(const struct lc3_bits_ac *ac)
  50:..\..\..\liblc3\src/bits.c **** {
  69              		.loc 1 50 0
  70              		.cfi_startproc
  71              		@ args = 0, pretend = 0, frame = 0
  72              		@ frame_needed = 0, uses_anonymous_args = 0
  73              	.LVL6:
  74 0000 10B5     		push	{r4, lr}
  75              		.cfi_def_cfa_offset 8
  76              		.cfi_offset 4, -8
  77              		.cfi_offset 14, -4
  78 0002 0446     		mov	r4, r0
  51:..\..\..\liblc3\src/bits.c ****     return 26 - ac_get_range_bits(ac) +
  79              		.loc 1 51 0
  80 0004 FFF7FEFF 		bl	ac_get_range_bits
  81              	.LVL7:
  82 0008 C0F11A00 		rsb	r0, r0, #26
  52:..\..\..\liblc3\src/bits.c ****         ((ac->cache >= 0) + ac->carry_count) * 8;
  83              		.loc 1 52 0
  84 000c A268     		ldr	r2, [r4, #8]
  85 000e 2369     		ldr	r3, [r4, #16]
  86 0010 002A     		cmp	r2, #0
  87 0012 A8BF     		it	ge
  88 0014 0133     		addge	r3, r3, #1
  53:..\..\..\liblc3\src/bits.c **** }
  89              		.loc 1 53 0
  90 0016 00EBC300 		add	r0, r0, r3, lsl #3
  91 001a 10BD     		pop	{r4, pc}
  92              		.cfi_endproc
  93              	.LFE14:
  94              		.size	ac_get_pending_bits, .-ac_get_pending_bits
  95              		.section	.text.get_bits_left,"ax",%progbits
  96              		.align	2
  97              		.thumb
  98              		.thumb_func
  99              		.type	get_bits_left, %function
 100              	get_bits_left:
 101              	.LFB15:
  54:..\..\..\liblc3\src/bits.c **** 
  55:..\..\..\liblc3\src/bits.c **** /**
  56:..\..\..\liblc3\src/bits.c ****  * Return number of bits left in the bitstream
  57:..\..\..\liblc3\src/bits.c ****  * bits            Bitstream context
  58:..\..\..\liblc3\src/bits.c ****  * return          >= 0: Number of bits left  < 0: Overflow
  59:..\..\..\liblc3\src/bits.c ****  */
  60:..\..\..\liblc3\src/bits.c **** static int get_bits_left(const struct lc3_bits *bits)
  61:..\..\..\liblc3\src/bits.c **** {
 102              		.loc 1 61 0
 103              		.cfi_startproc
 104              		@ args = 0, pretend = 0, frame = 0
 105              		@ frame_needed = 0, uses_anonymous_args = 0
 106              	.LVL8:
 107 0000 38B5     		push	{r3, r4, r5, lr}
 108              		.cfi_def_cfa_offset 16
 109              		.cfi_offset 3, -16
ARM GAS  C:\Users\rdn\AppData\Local\Temp\ccZR1Dqi.s 			page 4


 110              		.cfi_offset 4, -12
 111              		.cfi_offset 5, -8
 112              		.cfi_offset 14, -4
 113 0002 0246     		mov	r2, r0
 114              	.LVL9:
  62:..\..\..\liblc3\src/bits.c ****     const struct lc3_bits_buffer *buffer = &bits->buffer;
  63:..\..\..\liblc3\src/bits.c ****     const struct lc3_bits_accu *accu = &bits->accu;
  64:..\..\..\liblc3\src/bits.c ****     const struct lc3_bits_ac *ac = &bits->ac;
 115              		.loc 1 64 0
 116 0004 0430     		adds	r0, r0, #4
 117              	.LVL10:
  65:..\..\..\liblc3\src/bits.c **** 
  66:..\..\..\liblc3\src/bits.c ****     uintptr_t end = (uintptr_t)buffer->p_bw +
 118              		.loc 1 66 0
 119 0006 536B     		ldr	r3, [r2, #52]
  67:..\..\..\liblc3\src/bits.c ****         (bits->mode == LC3_BITS_MODE_READ ? LC3_ACCU_BITS/8 : 0);
 120              		.loc 1 67 0
 121 0008 1478     		ldrb	r4, [r2]	@ zero_extendqisi2
  66:..\..\..\liblc3\src/bits.c ****         (bits->mode == LC3_BITS_MODE_READ ? LC3_ACCU_BITS/8 : 0);
 122              		.loc 1 66 0
 123 000a 0CB9     		cbnz	r4, .L11
 124 000c 0421     		movs	r1, #4
 125 000e 00E0     		b	.L7
 126              	.L11:
 127 0010 0021     		movs	r1, #0
 128              	.L7:
  66:..\..\..\liblc3\src/bits.c ****         (bits->mode == LC3_BITS_MODE_READ ? LC3_ACCU_BITS/8 : 0);
 129              		.loc 1 66 0 is_stmt 0 discriminator 4
 130 0012 0B44     		add	r3, r3, r1
 131              	.LVL11:
  68:..\..\..\liblc3\src/bits.c **** 
  69:..\..\..\liblc3\src/bits.c ****     uintptr_t start = (uintptr_t)buffer->p_fw -
 132              		.loc 1 69 0 is_stmt 1 discriminator 4
 133 0014 116B     		ldr	r1, [r2, #48]
 134 0016 0CB9     		cbnz	r4, .L12
 135              		.loc 1 69 0 is_stmt 0
 136 0018 0324     		movs	r4, #3
 137 001a 00E0     		b	.L8
 138              	.L12:
 139 001c 0024     		movs	r4, #0
 140              	.L8:
 141              		.loc 1 69 0 discriminator 4
 142 001e 0C1B     		subs	r4, r1, r4
 143              	.LVL12:
  70:..\..\..\liblc3\src/bits.c ****         (bits->mode == LC3_BITS_MODE_READ ? LC3_AC_BITS/8 : 0);
  71:..\..\..\liblc3\src/bits.c **** 
  72:..\..\..\liblc3\src/bits.c ****     int n = end > start ? (int)(end - start) : -(int)(start - end);
 144              		.loc 1 72 0 is_stmt 1 discriminator 4
 145 0020 A342     		cmp	r3, r4
 146 0022 01D9     		bls	.L9
 147              		.loc 1 72 0 is_stmt 0 discriminator 1
 148 0024 1B1B     		subs	r3, r3, r4
 149              	.LVL13:
 150 0026 00E0     		b	.L10
 151              	.LVL14:
 152              	.L9:
 153              		.loc 1 72 0 discriminator 2
ARM GAS  C:\Users\rdn\AppData\Local\Temp\ccZR1Dqi.s 			page 5


 154 0028 1B1B     		subs	r3, r3, r4
 155              	.LVL15:
 156              	.L10:
  73:..\..\..\liblc3\src/bits.c **** 
  74:..\..\..\liblc3\src/bits.c ****     return 8 * n - (accu->n + accu->nover + ac_get_pending_bits(ac));
 157              		.loc 1 74 0 is_stmt 1 discriminator 4
 158 002a DC00     		lsls	r4, r3, #3
 159              	.LVL16:
 160 002c 156A     		ldr	r5, [r2, #32]
 161 002e 536A     		ldr	r3, [r2, #36]
 162              	.LVL17:
 163 0030 1D44     		add	r5, r5, r3
 164 0032 FFF7FEFF 		bl	ac_get_pending_bits
 165              	.LVL18:
 166 0036 2844     		add	r0, r0, r5
  75:..\..\..\liblc3\src/bits.c **** }
 167              		.loc 1 75 0 discriminator 4
 168 0038 201A     		subs	r0, r4, r0
 169 003a 38BD     		pop	{r3, r4, r5, pc}
 170              		.cfi_endproc
 171              	.LFE15:
 172              		.size	get_bits_left, .-get_bits_left
 173              		.section	.text.ac_terminate,"ax",%progbits
 174              		.align	2
 175              		.thumb
 176              		.thumb_func
 177              		.type	ac_terminate, %function
 178              	ac_terminate:
 179              	.LFB22:
  76:..\..\..\liblc3\src/bits.c **** 
  77:..\..\..\liblc3\src/bits.c **** /**
  78:..\..\..\liblc3\src/bits.c ****  * Setup bitstream writing
  79:..\..\..\liblc3\src/bits.c ****  */
  80:..\..\..\liblc3\src/bits.c **** void lc3_setup_bits(struct lc3_bits *bits,
  81:..\..\..\liblc3\src/bits.c ****     enum lc3_bits_mode mode, void *buffer, int len)
  82:..\..\..\liblc3\src/bits.c **** {
  83:..\..\..\liblc3\src/bits.c ****     *bits = (struct lc3_bits){
  84:..\..\..\liblc3\src/bits.c ****         .mode = mode,
  85:..\..\..\liblc3\src/bits.c ****         .accu = {
  86:..\..\..\liblc3\src/bits.c ****             .n = mode == LC3_BITS_MODE_READ ? LC3_ACCU_BITS : 0,
  87:..\..\..\liblc3\src/bits.c ****         },
  88:..\..\..\liblc3\src/bits.c ****         .ac = {
  89:..\..\..\liblc3\src/bits.c ****             .range = 0xffffff,
  90:..\..\..\liblc3\src/bits.c ****             .cache = -1
  91:..\..\..\liblc3\src/bits.c ****         },
  92:..\..\..\liblc3\src/bits.c ****         .buffer = {
  93:..\..\..\liblc3\src/bits.c ****             .start = (uint8_t *)buffer, .end  = (uint8_t *)buffer + len,
  94:..\..\..\liblc3\src/bits.c ****             .p_fw  = (uint8_t *)buffer, .p_bw = (uint8_t *)buffer + len,
  95:..\..\..\liblc3\src/bits.c ****         }
  96:..\..\..\liblc3\src/bits.c ****     };
  97:..\..\..\liblc3\src/bits.c **** 
  98:..\..\..\liblc3\src/bits.c ****     if (mode == LC3_BITS_MODE_READ) {
  99:..\..\..\liblc3\src/bits.c ****         struct lc3_bits_ac *ac = &bits->ac;
 100:..\..\..\liblc3\src/bits.c ****         struct lc3_bits_accu *accu = &bits->accu;
 101:..\..\..\liblc3\src/bits.c ****         struct lc3_bits_buffer *buffer = &bits->buffer;
 102:..\..\..\liblc3\src/bits.c **** 
 103:..\..\..\liblc3\src/bits.c ****         ac->low  = ac_get(buffer) << 16;
ARM GAS  C:\Users\rdn\AppData\Local\Temp\ccZR1Dqi.s 			page 6


 104:..\..\..\liblc3\src/bits.c ****         ac->low |= ac_get(buffer) <<  8;
 105:..\..\..\liblc3\src/bits.c ****         ac->low |= ac_get(buffer);
 106:..\..\..\liblc3\src/bits.c **** 
 107:..\..\..\liblc3\src/bits.c ****         accu_load(accu, buffer);
 108:..\..\..\liblc3\src/bits.c ****     }
 109:..\..\..\liblc3\src/bits.c **** }
 110:..\..\..\liblc3\src/bits.c **** 
 111:..\..\..\liblc3\src/bits.c **** /**
 112:..\..\..\liblc3\src/bits.c ****  * Return number of bits left in the bitstream
 113:..\..\..\liblc3\src/bits.c ****  */
 114:..\..\..\liblc3\src/bits.c **** int lc3_get_bits_left(const struct lc3_bits *bits)
 115:..\..\..\liblc3\src/bits.c **** {
 116:..\..\..\liblc3\src/bits.c ****     return LC3_MAX(get_bits_left(bits), 0);
 117:..\..\..\liblc3\src/bits.c **** }
 118:..\..\..\liblc3\src/bits.c **** 
 119:..\..\..\liblc3\src/bits.c **** /**
 120:..\..\..\liblc3\src/bits.c ****  * Return number of bits left in the bitstream
 121:..\..\..\liblc3\src/bits.c ****  */
 122:..\..\..\liblc3\src/bits.c **** int lc3_check_bits(const struct lc3_bits *bits)
 123:..\..\..\liblc3\src/bits.c **** {
 124:..\..\..\liblc3\src/bits.c ****     const struct lc3_bits_ac *ac = &bits->ac;
 125:..\..\..\liblc3\src/bits.c **** 
 126:..\..\..\liblc3\src/bits.c ****     return -(get_bits_left(bits) < 0 || ac->error);
 127:..\..\..\liblc3\src/bits.c **** }
 128:..\..\..\liblc3\src/bits.c **** 
 129:..\..\..\liblc3\src/bits.c **** 
 130:..\..\..\liblc3\src/bits.c **** /* ----------------------------------------------------------------------------
 131:..\..\..\liblc3\src/bits.c ****  *  Writing
 132:..\..\..\liblc3\src/bits.c ****  * -------------------------------------------------------------------------- */
 133:..\..\..\liblc3\src/bits.c **** 
 134:..\..\..\liblc3\src/bits.c **** /**
 135:..\..\..\liblc3\src/bits.c ****  * Flush the bits accumulator
 136:..\..\..\liblc3\src/bits.c ****  * accu            Bitstream accumulator
 137:..\..\..\liblc3\src/bits.c ****  * buffer          Bitstream buffer
 138:..\..\..\liblc3\src/bits.c ****  */
 139:..\..\..\liblc3\src/bits.c **** static inline void accu_flush(
 140:..\..\..\liblc3\src/bits.c ****     struct lc3_bits_accu *accu, struct lc3_bits_buffer *buffer)
 141:..\..\..\liblc3\src/bits.c **** {
 142:..\..\..\liblc3\src/bits.c ****     int nbytes = LC3_MIN(accu->n >> 3,
 143:..\..\..\liblc3\src/bits.c ****         LC3_MAX(buffer->p_bw - buffer->p_fw, 0));
 144:..\..\..\liblc3\src/bits.c **** 
 145:..\..\..\liblc3\src/bits.c ****     accu->n -= 8 * nbytes;
 146:..\..\..\liblc3\src/bits.c **** 
 147:..\..\..\liblc3\src/bits.c ****     for ( ; nbytes; accu->v >>= 8, nbytes--)
 148:..\..\..\liblc3\src/bits.c ****         *(--buffer->p_bw) = accu->v & 0xff;
 149:..\..\..\liblc3\src/bits.c **** 
 150:..\..\..\liblc3\src/bits.c ****     if (accu->n >= 8)
 151:..\..\..\liblc3\src/bits.c ****         accu->n = 0;
 152:..\..\..\liblc3\src/bits.c **** }
 153:..\..\..\liblc3\src/bits.c **** 
 154:..\..\..\liblc3\src/bits.c **** /**
 155:..\..\..\liblc3\src/bits.c ****  * Arithmetic coder put byte
 156:..\..\..\liblc3\src/bits.c ****  * buffer          Bitstream buffer
 157:..\..\..\liblc3\src/bits.c ****  * byte            Byte to output
 158:..\..\..\liblc3\src/bits.c ****  */
 159:..\..\..\liblc3\src/bits.c **** static inline void ac_put(struct lc3_bits_buffer *buffer, int byte)
 160:..\..\..\liblc3\src/bits.c **** {
ARM GAS  C:\Users\rdn\AppData\Local\Temp\ccZR1Dqi.s 			page 7


 161:..\..\..\liblc3\src/bits.c ****     if (buffer->p_fw < buffer->end)
 162:..\..\..\liblc3\src/bits.c ****         *(buffer->p_fw++) = byte;
 163:..\..\..\liblc3\src/bits.c **** }
 164:..\..\..\liblc3\src/bits.c **** 
 165:..\..\..\liblc3\src/bits.c **** /**
 166:..\..\..\liblc3\src/bits.c ****  * Arithmetic coder range shift
 167:..\..\..\liblc3\src/bits.c ****  * ac              Arithmetic coder
 168:..\..\..\liblc3\src/bits.c ****  * buffer          Bitstream buffer
 169:..\..\..\liblc3\src/bits.c ****  */
 170:..\..\..\liblc3\src/bits.c **** LC3_HOT static inline void ac_shift(
 171:..\..\..\liblc3\src/bits.c ****     struct lc3_bits_ac *ac, struct lc3_bits_buffer *buffer)
 172:..\..\..\liblc3\src/bits.c **** {
 173:..\..\..\liblc3\src/bits.c ****     if (ac->low < 0xff0000 || ac->carry)
 174:..\..\..\liblc3\src/bits.c ****     {
 175:..\..\..\liblc3\src/bits.c ****         if (ac->cache >= 0)
 176:..\..\..\liblc3\src/bits.c ****             ac_put(buffer, ac->cache + ac->carry);
 177:..\..\..\liblc3\src/bits.c **** 
 178:..\..\..\liblc3\src/bits.c ****         for ( ; ac->carry_count > 0; ac->carry_count--)
 179:..\..\..\liblc3\src/bits.c ****             ac_put(buffer, ac->carry ? 0x00 : 0xff);
 180:..\..\..\liblc3\src/bits.c **** 
 181:..\..\..\liblc3\src/bits.c ****          ac->cache = ac->low >> 16;
 182:..\..\..\liblc3\src/bits.c ****          ac->carry = 0;
 183:..\..\..\liblc3\src/bits.c ****     }
 184:..\..\..\liblc3\src/bits.c ****     else
 185:..\..\..\liblc3\src/bits.c ****          ac->carry_count++;
 186:..\..\..\liblc3\src/bits.c **** 
 187:..\..\..\liblc3\src/bits.c ****     ac->low = (ac->low << 8) & 0xffffff;
 188:..\..\..\liblc3\src/bits.c **** }
 189:..\..\..\liblc3\src/bits.c **** 
 190:..\..\..\liblc3\src/bits.c **** /**
 191:..\..\..\liblc3\src/bits.c ****  * Arithmetic coder termination
 192:..\..\..\liblc3\src/bits.c ****  * ac              Arithmetic coder
 193:..\..\..\liblc3\src/bits.c ****  * buffer          Bitstream buffer
 194:..\..\..\liblc3\src/bits.c ****  * end_val/nbits   End value and count of bits to terminate (1 to 8)
 195:..\..\..\liblc3\src/bits.c ****  */
 196:..\..\..\liblc3\src/bits.c **** static void ac_terminate(struct lc3_bits_ac *ac,
 197:..\..\..\liblc3\src/bits.c ****     struct lc3_bits_buffer *buffer)
 198:..\..\..\liblc3\src/bits.c **** {
 180              		.loc 1 198 0
 181              		.cfi_startproc
 182              		@ args = 0, pretend = 0, frame = 0
 183              		@ frame_needed = 0, uses_anonymous_args = 0
 184              	.LVL19:
 185 0000 F8B5     		push	{r3, r4, r5, r6, r7, lr}
 186              		.cfi_def_cfa_offset 24
 187              		.cfi_offset 3, -24
 188              		.cfi_offset 4, -20
 189              		.cfi_offset 5, -16
 190              		.cfi_offset 6, -12
 191              		.cfi_offset 7, -8
 192              		.cfi_offset 14, -4
 193 0002 0446     		mov	r4, r0
 194 0004 0D46     		mov	r5, r1
 199:..\..\..\liblc3\src/bits.c ****     int nbits = 25 - ac_get_range_bits(ac);
 195              		.loc 1 199 0
 196 0006 FFF7FEFF 		bl	ac_get_range_bits
 197              	.LVL20:
ARM GAS  C:\Users\rdn\AppData\Local\Temp\ccZR1Dqi.s 			page 8


 198 000a C0F11906 		rsb	r6, r0, #25
 199              	.LVL21:
 200:..\..\..\liblc3\src/bits.c ****     unsigned mask = 0xffffff >> nbits;
 200              		.loc 1 200 0
 201 000e 6FF07F41 		mvn	r1, #-16777216
 202 0012 3141     		asrs	r1, r1, r6
 203              	.LVL22:
 201:..\..\..\liblc3\src/bits.c ****     unsigned val  = ac->low + mask;
 204              		.loc 1 201 0
 205 0014 2768     		ldr	r7, [r4]
 206 0016 CB19     		adds	r3, r1, r7
 207              	.LVL23:
 202:..\..\..\liblc3\src/bits.c ****     unsigned high = ac->low + ac->range;
 208              		.loc 1 202 0
 209 0018 6268     		ldr	r2, [r4, #4]
 210 001a 3A44     		add	r2, r2, r7
 211              	.LVL24:
 203:..\..\..\liblc3\src/bits.c **** 
 204:..\..\..\liblc3\src/bits.c ****     bool over_val  = val  >> 24;
 212              		.loc 1 204 0
 213 001c 5FEA136E 		lsrs	lr, r3, #24
 214 0020 14BF     		ite	ne
 215 0022 4FF0010C 		movne	ip, #1
 216 0026 4FF0000C 		moveq	ip, #0
 217              	.LVL25:
 205:..\..\..\liblc3\src/bits.c ****     bool over_high = high >> 24;
 218              		.loc 1 205 0
 219 002a 5FEA126E 		lsrs	lr, r2, #24
 220 002e 14BF     		ite	ne
 221 0030 4FF0010E 		movne	lr, #1
 222 0034 4FF0000E 		moveq	lr, #0
 223              	.LVL26:
 206:..\..\..\liblc3\src/bits.c **** 
 207:..\..\..\liblc3\src/bits.c ****     val  = (val  & 0xffffff) & ~mask;
 224              		.loc 1 207 0
 225 0038 23EA0103 		bic	r3, r3, r1
 226              	.LVL27:
 227 003c 23F07F43 		bic	r3, r3, #-16777216
 228              	.LVL28:
 208:..\..\..\liblc3\src/bits.c ****     high = (high & 0xffffff);
 209:..\..\..\liblc3\src/bits.c **** 
 210:..\..\..\liblc3\src/bits.c ****     if (over_val == over_high) {
 229              		.loc 1 210 0
 230 0040 F445     		cmp	ip, lr
 231 0042 13D1     		bne	.L15
 232 0044 22F07F42 		bic	r2, r2, #-16777216
 233              	.LVL29:
 211:..\..\..\liblc3\src/bits.c **** 
 212:..\..\..\liblc3\src/bits.c ****         if (val + mask >= high) {
 234              		.loc 1 212 0
 235 0048 01EB030E 		add	lr, r1, r3
 236              	.LVL30:
 237 004c 7245     		cmp	r2, lr
 238 004e 07D8     		bhi	.L16
 213:..\..\..\liblc3\src/bits.c ****             nbits++;
 239              		.loc 1 213 0
 240 0050 C0F11A06 		rsb	r6, r0, #26
ARM GAS  C:\Users\rdn\AppData\Local\Temp\ccZR1Dqi.s 			page 9


 241              	.LVL31:
 214:..\..\..\liblc3\src/bits.c ****             mask >>= 1;
 242              		.loc 1 214 0
 243 0054 4908     		lsrs	r1, r1, #1
 244              	.LVL32:
 215:..\..\..\liblc3\src/bits.c ****             val = ((ac->low + mask) & 0xffffff) & ~mask;
 245              		.loc 1 215 0
 246 0056 7B18     		adds	r3, r7, r1
 247              	.LVL33:
 248 0058 23EA0103 		bic	r3, r3, r1
 249 005c 23F07F43 		bic	r3, r3, #-16777216
 250              	.LVL34:
 251              	.L16:
 216:..\..\..\liblc3\src/bits.c ****         }
 217:..\..\..\liblc3\src/bits.c **** 
 218:..\..\..\liblc3\src/bits.c ****         ac->carry |= val < ac->low;
 252              		.loc 1 218 0
 253 0060 E268     		ldr	r2, [r4, #12]
 254              	.LVL35:
 255 0062 BB42     		cmp	r3, r7
 256 0064 38BF     		it	cc
 257 0066 42F00102 		orrcc	r2, r2, #1
 258 006a E260     		str	r2, [r4, #12]
 259              	.L15:
 219:..\..\..\liblc3\src/bits.c ****     }
 220:..\..\..\liblc3\src/bits.c **** 
 221:..\..\..\liblc3\src/bits.c ****     ac->low = val;
 260              		.loc 1 221 0
 261 006c 2360     		str	r3, [r4]
 222:..\..\..\liblc3\src/bits.c **** 
 223:..\..\..\liblc3\src/bits.c ****     for (; nbits > 8; nbits -= 8)
 262              		.loc 1 223 0
 263 006e 32E0     		b	.L17
 264              	.LVL36:
 265              	.L25:
 266              	.LBB40:
 267              	.LBB41:
 173:..\..\..\liblc3\src/bits.c ****     {
 268              		.loc 1 173 0
 269 0070 2368     		ldr	r3, [r4]
 270 0072 B3F57F0F 		cmp	r3, #16711680
 271 0076 01D3     		bcc	.L18
 272 0078 E368     		ldr	r3, [r4, #12]
 273 007a 1BB3     		cbz	r3, .L19
 274              	.L18:
 175:..\..\..\liblc3\src/bits.c ****             ac_put(buffer, ac->cache + ac->carry);
 275              		.loc 1 175 0
 276 007c A368     		ldr	r3, [r4, #8]
 277 007e 002B     		cmp	r3, #0
 278 0080 18DB     		blt	.L20
 176:..\..\..\liblc3\src/bits.c **** 
 279              		.loc 1 176 0
 280 0082 E268     		ldr	r2, [r4, #12]
 281 0084 1344     		add	r3, r3, r2
 282              	.LVL37:
 283              	.LBB42:
 284              	.LBB43:
ARM GAS  C:\Users\rdn\AppData\Local\Temp\ccZR1Dqi.s 			page 10


 161:..\..\..\liblc3\src/bits.c ****         *(buffer->p_fw++) = byte;
 285              		.loc 1 161 0
 286 0086 AA68     		ldr	r2, [r5, #8]
 287 0088 6968     		ldr	r1, [r5, #4]
 288 008a 8A42     		cmp	r2, r1
 289 008c 12D2     		bcs	.L20
 162:..\..\..\liblc3\src/bits.c **** }
 290              		.loc 1 162 0
 291 008e 511C     		adds	r1, r2, #1
 292 0090 A960     		str	r1, [r5, #8]
 293 0092 1370     		strb	r3, [r2]
 294 0094 0EE0     		b	.L20
 295              	.LVL38:
 296              	.L23:
 297              	.LBE43:
 298              	.LBE42:
 179:..\..\..\liblc3\src/bits.c **** 
 299              		.loc 1 179 0
 300 0096 E368     		ldr	r3, [r4, #12]
 301 0098 0BB1     		cbz	r3, .L39
 302 009a 0021     		movs	r1, #0
 303 009c 00E0     		b	.L21
 304              	.L39:
 305 009e FF21     		movs	r1, #255
 306              	.L21:
 307              	.LVL39:
 308              	.LBB44:
 309              	.LBB45:
 161:..\..\..\liblc3\src/bits.c ****         *(buffer->p_fw++) = byte;
 310              		.loc 1 161 0
 311 00a0 AB68     		ldr	r3, [r5, #8]
 312 00a2 6A68     		ldr	r2, [r5, #4]
 313 00a4 9342     		cmp	r3, r2
 314 00a6 02D2     		bcs	.L22
 162:..\..\..\liblc3\src/bits.c **** }
 315              		.loc 1 162 0
 316 00a8 5A1C     		adds	r2, r3, #1
 317 00aa AA60     		str	r2, [r5, #8]
 318 00ac 1970     		strb	r1, [r3]
 319              	.L22:
 320              	.LVL40:
 321              	.LBE45:
 322              	.LBE44:
 178:..\..\..\liblc3\src/bits.c ****             ac_put(buffer, ac->carry ? 0x00 : 0xff);
 323              		.loc 1 178 0
 324 00ae 2369     		ldr	r3, [r4, #16]
 325 00b0 013B     		subs	r3, r3, #1
 326 00b2 2361     		str	r3, [r4, #16]
 327              	.L20:
 328 00b4 2369     		ldr	r3, [r4, #16]
 329 00b6 002B     		cmp	r3, #0
 330 00b8 EDDC     		bgt	.L23
 181:..\..\..\liblc3\src/bits.c ****          ac->carry = 0;
 331              		.loc 1 181 0
 332 00ba 6388     		ldrh	r3, [r4, #2]
 333 00bc A360     		str	r3, [r4, #8]
 182:..\..\..\liblc3\src/bits.c ****     }
ARM GAS  C:\Users\rdn\AppData\Local\Temp\ccZR1Dqi.s 			page 11


 334              		.loc 1 182 0
 335 00be 0023     		movs	r3, #0
 336 00c0 E360     		str	r3, [r4, #12]
 337 00c2 02E0     		b	.L24
 338              	.L19:
 185:..\..\..\liblc3\src/bits.c **** 
 339              		.loc 1 185 0
 340 00c4 2369     		ldr	r3, [r4, #16]
 341 00c6 0133     		adds	r3, r3, #1
 342 00c8 2361     		str	r3, [r4, #16]
 343              	.L24:
 187:..\..\..\liblc3\src/bits.c **** }
 344              		.loc 1 187 0
 345 00ca 2368     		ldr	r3, [r4]
 346 00cc 1B02     		lsls	r3, r3, #8
 347 00ce 23F07F43 		bic	r3, r3, #-16777216
 348 00d2 2360     		str	r3, [r4]
 349              	.LVL41:
 350              	.LBE41:
 351              	.LBE40:
 352              		.loc 1 223 0
 353 00d4 083E     		subs	r6, r6, #8
 354              	.LVL42:
 355              	.L17:
 356              		.loc 1 223 0 is_stmt 0 discriminator 1
 357 00d6 082E     		cmp	r6, #8
 358 00d8 CADC     		bgt	.L25
 359              	.LVL43:
 360              	.LBB46:
 361              	.LBB47:
 173:..\..\..\liblc3\src/bits.c ****     {
 362              		.loc 1 173 0 is_stmt 1
 363 00da 2368     		ldr	r3, [r4]
 364 00dc B3F57F0F 		cmp	r3, #16711680
 365 00e0 01D3     		bcc	.L26
 366 00e2 E368     		ldr	r3, [r4, #12]
 367 00e4 1BB3     		cbz	r3, .L27
 368              	.L26:
 175:..\..\..\liblc3\src/bits.c ****             ac_put(buffer, ac->cache + ac->carry);
 369              		.loc 1 175 0
 370 00e6 A368     		ldr	r3, [r4, #8]
 371 00e8 002B     		cmp	r3, #0
 372 00ea 18DB     		blt	.L28
 176:..\..\..\liblc3\src/bits.c **** 
 373              		.loc 1 176 0
 374 00ec E268     		ldr	r2, [r4, #12]
 375 00ee 1344     		add	r3, r3, r2
 376              	.LVL44:
 377              	.LBB48:
 378              	.LBB49:
 161:..\..\..\liblc3\src/bits.c ****         *(buffer->p_fw++) = byte;
 379              		.loc 1 161 0
 380 00f0 AA68     		ldr	r2, [r5, #8]
 381 00f2 6968     		ldr	r1, [r5, #4]
 382 00f4 8A42     		cmp	r2, r1
 383 00f6 12D2     		bcs	.L28
 162:..\..\..\liblc3\src/bits.c **** }
ARM GAS  C:\Users\rdn\AppData\Local\Temp\ccZR1Dqi.s 			page 12


 384              		.loc 1 162 0
 385 00f8 511C     		adds	r1, r2, #1
 386 00fa A960     		str	r1, [r5, #8]
 387 00fc 1370     		strb	r3, [r2]
 388 00fe 0EE0     		b	.L28
 389              	.LVL45:
 390              	.L31:
 391              	.LBE49:
 392              	.LBE48:
 179:..\..\..\liblc3\src/bits.c **** 
 393              		.loc 1 179 0
 394 0100 E368     		ldr	r3, [r4, #12]
 395 0102 0BB1     		cbz	r3, .L40
 396 0104 0021     		movs	r1, #0
 397 0106 00E0     		b	.L29
 398              	.L40:
 399 0108 FF21     		movs	r1, #255
 400              	.L29:
 401              	.LVL46:
 402              	.LBB50:
 403              	.LBB51:
 161:..\..\..\liblc3\src/bits.c ****         *(buffer->p_fw++) = byte;
 404              		.loc 1 161 0
 405 010a AB68     		ldr	r3, [r5, #8]
 406 010c 6A68     		ldr	r2, [r5, #4]
 407 010e 9342     		cmp	r3, r2
 408 0110 02D2     		bcs	.L30
 162:..\..\..\liblc3\src/bits.c **** }
 409              		.loc 1 162 0
 410 0112 5A1C     		adds	r2, r3, #1
 411 0114 AA60     		str	r2, [r5, #8]
 412 0116 1970     		strb	r1, [r3]
 413              	.L30:
 414              	.LVL47:
 415              	.LBE51:
 416              	.LBE50:
 178:..\..\..\liblc3\src/bits.c ****             ac_put(buffer, ac->carry ? 0x00 : 0xff);
 417              		.loc 1 178 0
 418 0118 2369     		ldr	r3, [r4, #16]
 419 011a 013B     		subs	r3, r3, #1
 420 011c 2361     		str	r3, [r4, #16]
 421              	.L28:
 422 011e 2369     		ldr	r3, [r4, #16]
 423 0120 002B     		cmp	r3, #0
 424 0122 EDDC     		bgt	.L31
 181:..\..\..\liblc3\src/bits.c ****          ac->carry = 0;
 425              		.loc 1 181 0
 426 0124 6388     		ldrh	r3, [r4, #2]
 427 0126 A360     		str	r3, [r4, #8]
 182:..\..\..\liblc3\src/bits.c ****     }
 428              		.loc 1 182 0
 429 0128 0023     		movs	r3, #0
 430 012a E360     		str	r3, [r4, #12]
 431 012c 02E0     		b	.L32
 432              	.L27:
 185:..\..\..\liblc3\src/bits.c **** 
 433              		.loc 1 185 0
ARM GAS  C:\Users\rdn\AppData\Local\Temp\ccZR1Dqi.s 			page 13


 434 012e 2369     		ldr	r3, [r4, #16]
 435 0130 0133     		adds	r3, r3, #1
 436 0132 2361     		str	r3, [r4, #16]
 437              	.L32:
 187:..\..\..\liblc3\src/bits.c **** }
 438              		.loc 1 187 0
 439 0134 2368     		ldr	r3, [r4]
 440 0136 1B02     		lsls	r3, r3, #8
 441 0138 23F07F43 		bic	r3, r3, #-16777216
 442 013c 2360     		str	r3, [r4]
 443              	.LVL48:
 444              	.LBE47:
 445              	.LBE46:
 224:..\..\..\liblc3\src/bits.c ****         ac_shift(ac, buffer);
 225:..\..\..\liblc3\src/bits.c ****     ac_shift(ac, buffer);
 226:..\..\..\liblc3\src/bits.c **** 
 227:..\..\..\liblc3\src/bits.c ****     int end_val = ac->cache >> (8 - nbits);
 446              		.loc 1 227 0
 447 013e A268     		ldr	r2, [r4, #8]
 448 0140 C6F10801 		rsb	r1, r6, #8
 449 0144 42FA01F3 		asr	r3, r2, r1
 450              	.LVL49:
 228:..\..\..\liblc3\src/bits.c **** 
 229:..\..\..\liblc3\src/bits.c ****     if (ac->carry_count) {
 451              		.loc 1 229 0
 452 0148 2069     		ldr	r0, [r4, #16]
 453 014a D0B1     		cbz	r0, .L33
 454              	.LVL50:
 455              	.LBB52:
 456              	.LBB53:
 161:..\..\..\liblc3\src/bits.c ****         *(buffer->p_fw++) = byte;
 457              		.loc 1 161 0
 458 014c AB68     		ldr	r3, [r5, #8]
 459              	.LVL51:
 460 014e 6868     		ldr	r0, [r5, #4]
 461 0150 8342     		cmp	r3, r0
 462 0152 0ED2     		bcs	.L35
 162:..\..\..\liblc3\src/bits.c **** }
 463              		.loc 1 162 0
 464 0154 581C     		adds	r0, r3, #1
 465 0156 A860     		str	r0, [r5, #8]
 466 0158 1A70     		strb	r2, [r3]
 467 015a 0AE0     		b	.L35
 468              	.LVL52:
 469              	.L37:
 470              	.LBE53:
 471              	.LBE52:
 472              	.LBB54:
 473              	.LBB55:
 161:..\..\..\liblc3\src/bits.c ****         *(buffer->p_fw++) = byte;
 474              		.loc 1 161 0
 475 015c AB68     		ldr	r3, [r5, #8]
 476 015e 6A68     		ldr	r2, [r5, #4]
 477 0160 9342     		cmp	r3, r2
 478 0162 03D2     		bcs	.L36
 162:..\..\..\liblc3\src/bits.c **** }
 479              		.loc 1 162 0
ARM GAS  C:\Users\rdn\AppData\Local\Temp\ccZR1Dqi.s 			page 14


 480 0164 5A1C     		adds	r2, r3, #1
 481 0166 AA60     		str	r2, [r5, #8]
 482 0168 FF22     		movs	r2, #255
 483 016a 1A70     		strb	r2, [r3]
 484              	.L36:
 485              	.LVL53:
 486              	.LBE55:
 487              	.LBE54:
 230:..\..\..\liblc3\src/bits.c ****         ac_put(buffer, ac->cache);
 231:..\..\..\liblc3\src/bits.c ****         for ( ; ac->carry_count > 1; ac->carry_count--)
 488              		.loc 1 231 0 discriminator 2
 489 016c 2369     		ldr	r3, [r4, #16]
 490 016e 013B     		subs	r3, r3, #1
 491 0170 2361     		str	r3, [r4, #16]
 492              	.L35:
 493              		.loc 1 231 0 is_stmt 0 discriminator 1
 494 0172 2369     		ldr	r3, [r4, #16]
 495 0174 012B     		cmp	r3, #1
 496 0176 F1DC     		bgt	.L37
 232:..\..\..\liblc3\src/bits.c ****             ac_put(buffer, 0xff);
 233:..\..\..\liblc3\src/bits.c **** 
 234:..\..\..\liblc3\src/bits.c ****         end_val = nbits < 8 ? 0 : 0xff;
 497              		.loc 1 234 0 is_stmt 1
 498 0178 072E     		cmp	r6, #7
 499 017a 01DC     		bgt	.L41
 500 017c 0023     		movs	r3, #0
 501 017e 00E0     		b	.L33
 502              	.L41:
 503 0180 FF23     		movs	r3, #255
 504              	.LVL54:
 505              	.L33:
 235:..\..\..\liblc3\src/bits.c ****     }
 236:..\..\..\liblc3\src/bits.c **** 
 237:..\..\..\liblc3\src/bits.c ****     if (buffer->p_fw < buffer->end) {
 506              		.loc 1 237 0
 507 0182 A868     		ldr	r0, [r5, #8]
 508 0184 6A68     		ldr	r2, [r5, #4]
 509 0186 9042     		cmp	r0, r2
 510 0188 0AD2     		bcs	.L14
 238:..\..\..\liblc3\src/bits.c ****         *buffer->p_fw &= 0xff >> nbits;
 511              		.loc 1 238 0
 512 018a FF22     		movs	r2, #255
 513 018c 42FA06F6 		asr	r6, r2, r6
 514              	.LVL55:
 515 0190 0278     		ldrb	r2, [r0]	@ zero_extendqisi2
 516 0192 3240     		ands	r2, r2, r6
 517 0194 0270     		strb	r2, [r0]
 239:..\..\..\liblc3\src/bits.c ****         *buffer->p_fw |= end_val << (8 - nbits);
 518              		.loc 1 239 0
 519 0196 AA68     		ldr	r2, [r5, #8]
 520 0198 8B40     		lsls	r3, r3, r1
 521              	.LVL56:
 522 019a 1178     		ldrb	r1, [r2]	@ zero_extendqisi2
 523 019c 0B43     		orrs	r3, r3, r1
 524 019e 1370     		strb	r3, [r2]
 525              	.L14:
 526 01a0 F8BD     		pop	{r3, r4, r5, r6, r7, pc}
ARM GAS  C:\Users\rdn\AppData\Local\Temp\ccZR1Dqi.s 			page 15


 527              		.cfi_endproc
 528              	.LFE22:
 529              		.size	ac_terminate, .-ac_terminate
 530 01a2 00BF     		.section	.text.lc3_setup_bits,"ax",%progbits
 531              		.align	2
 532              		.global	lc3_setup_bits
 533              		.thumb
 534              		.thumb_func
 535              		.type	lc3_setup_bits, %function
 536              	lc3_setup_bits:
 537              	.LFB16:
  82:..\..\..\liblc3\src/bits.c ****     *bits = (struct lc3_bits){
 538              		.loc 1 82 0
 539              		.cfi_startproc
 540              		@ args = 0, pretend = 0, frame = 0
 541              		@ frame_needed = 0, uses_anonymous_args = 0
 542              	.LVL57:
 543 0000 2DE9F041 		push	{r4, r5, r6, r7, r8, lr}
 544              		.cfi_def_cfa_offset 24
 545              		.cfi_offset 4, -24
 546              		.cfi_offset 5, -20
 547              		.cfi_offset 6, -16
 548              		.cfi_offset 7, -12
 549              		.cfi_offset 8, -8
 550              		.cfi_offset 14, -4
 551 0004 0446     		mov	r4, r0
 552 0006 1646     		mov	r6, r2
  86:..\..\..\liblc3\src/bits.c ****         },
 553              		.loc 1 86 0
 554 0008 0F46     		mov	r7, r1
 555 000a 11B9     		cbnz	r1, .L51
 556 000c 4FF02008 		mov	r8, #32
 557 0010 01E0     		b	.L44
 558              	.L51:
 559 0012 4FF00008 		mov	r8, #0
 560              	.L44:
  93:..\..\..\liblc3\src/bits.c ****             .p_fw  = (uint8_t *)buffer, .p_bw = (uint8_t *)buffer + len,
 561              		.loc 1 93 0
 562 0016 F518     		adds	r5, r6, r3
  83:..\..\..\liblc3\src/bits.c ****         .mode = mode,
 563              		.loc 1 83 0
 564 0018 3822     		movs	r2, #56
 565              	.LVL58:
 566 001a 0021     		movs	r1, #0
 567              	.LVL59:
 568 001c 2046     		mov	r0, r4
 569              	.LVL60:
 570 001e FFF7FEFF 		bl	memset
 571              	.LVL61:
 572 0022 2770     		strb	r7, [r4]
 573 0024 6FF07F43 		mvn	r3, #-16777216
 574 0028 A360     		str	r3, [r4, #8]
 575 002a 4FF0FF33 		mov	r3, #-1
 576 002e E360     		str	r3, [r4, #12]
 577 0030 C4F82080 		str	r8, [r4, #32]
 578 0034 A662     		str	r6, [r4, #40]
 579 0036 E562     		str	r5, [r4, #44]
ARM GAS  C:\Users\rdn\AppData\Local\Temp\ccZR1Dqi.s 			page 16


 580 0038 2663     		str	r6, [r4, #48]
 581 003a 6563     		str	r5, [r4, #52]
  98:..\..\..\liblc3\src/bits.c ****         struct lc3_bits_ac *ac = &bits->ac;
 582              		.loc 1 98 0
 583 003c 002F     		cmp	r7, #0
 584 003e 4BD1     		bne	.L43
 585              	.LVL62:
 586              	.LBB65:
 100:..\..\..\liblc3\src/bits.c ****         struct lc3_bits_buffer *buffer = &bits->buffer;
 587              		.loc 1 100 0
 588 0040 04F11C02 		add	r2, r4, #28
 589              	.LVL63:
 101:..\..\..\liblc3\src/bits.c **** 
 590              		.loc 1 101 0
 591 0044 04F12800 		add	r0, r4, #40
 592              	.LVL64:
 593              	.LBB66:
 594              	.LBB67:
 240:..\..\..\liblc3\src/bits.c ****     }
 241:..\..\..\liblc3\src/bits.c **** }
 242:..\..\..\liblc3\src/bits.c **** 
 243:..\..\..\liblc3\src/bits.c **** /**
 244:..\..\..\liblc3\src/bits.c ****  * Flush and terminate bitstream
 245:..\..\..\liblc3\src/bits.c ****  */
 246:..\..\..\liblc3\src/bits.c **** void lc3_flush_bits(struct lc3_bits *bits)
 247:..\..\..\liblc3\src/bits.c **** {
 248:..\..\..\liblc3\src/bits.c ****     struct lc3_bits_ac *ac = &bits->ac;
 249:..\..\..\liblc3\src/bits.c ****     struct lc3_bits_accu *accu = &bits->accu;
 250:..\..\..\liblc3\src/bits.c ****     struct lc3_bits_buffer *buffer = &bits->buffer;
 251:..\..\..\liblc3\src/bits.c **** 
 252:..\..\..\liblc3\src/bits.c ****     int nleft = buffer->p_bw - buffer->p_fw;
 253:..\..\..\liblc3\src/bits.c ****     for (int n = 8 * nleft - accu->n; n > 0; n -= 32)
 254:..\..\..\liblc3\src/bits.c ****         lc3_put_bits(bits, 0, LC3_MIN(n, 32));
 255:..\..\..\liblc3\src/bits.c **** 
 256:..\..\..\liblc3\src/bits.c ****     accu_flush(accu, buffer);
 257:..\..\..\liblc3\src/bits.c **** 
 258:..\..\..\liblc3\src/bits.c ****     ac_terminate(ac, buffer);
 259:..\..\..\liblc3\src/bits.c **** }
 260:..\..\..\liblc3\src/bits.c **** 
 261:..\..\..\liblc3\src/bits.c **** /**
 262:..\..\..\liblc3\src/bits.c ****  * Write from 1 to 32 bits,
 263:..\..\..\liblc3\src/bits.c ****  * exceeding the capacity of the accumulator
 264:..\..\..\liblc3\src/bits.c ****  */
 265:..\..\..\liblc3\src/bits.c **** LC3_HOT void lc3_put_bits_generic(struct lc3_bits *bits, unsigned v, int n)
 266:..\..\..\liblc3\src/bits.c **** {
 267:..\..\..\liblc3\src/bits.c ****     struct lc3_bits_accu *accu = &bits->accu;
 268:..\..\..\liblc3\src/bits.c **** 
 269:..\..\..\liblc3\src/bits.c ****     /* --- Fulfill accumulator and flush -- */
 270:..\..\..\liblc3\src/bits.c **** 
 271:..\..\..\liblc3\src/bits.c ****     int n1 = LC3_MIN(LC3_ACCU_BITS - accu->n, n);
 272:..\..\..\liblc3\src/bits.c ****     if (n1) {
 273:..\..\..\liblc3\src/bits.c ****         accu->v |= v << accu->n;
 274:..\..\..\liblc3\src/bits.c ****         accu->n = LC3_ACCU_BITS;
 275:..\..\..\liblc3\src/bits.c ****     }
 276:..\..\..\liblc3\src/bits.c **** 
 277:..\..\..\liblc3\src/bits.c ****     accu_flush(accu, &bits->buffer);
 278:..\..\..\liblc3\src/bits.c **** 
ARM GAS  C:\Users\rdn\AppData\Local\Temp\ccZR1Dqi.s 			page 17


 279:..\..\..\liblc3\src/bits.c ****     /* --- Accumulate remaining bits -- */
 280:..\..\..\liblc3\src/bits.c **** 
 281:..\..\..\liblc3\src/bits.c ****     accu->v = v >> n1;
 282:..\..\..\liblc3\src/bits.c ****     accu->n = n - n1;
 283:..\..\..\liblc3\src/bits.c **** }
 284:..\..\..\liblc3\src/bits.c **** 
 285:..\..\..\liblc3\src/bits.c **** /**
 286:..\..\..\liblc3\src/bits.c ****  * Arithmetic coder renormalization
 287:..\..\..\liblc3\src/bits.c ****  */
 288:..\..\..\liblc3\src/bits.c **** LC3_HOT void lc3_ac_write_renorm(struct lc3_bits *bits)
 289:..\..\..\liblc3\src/bits.c **** {
 290:..\..\..\liblc3\src/bits.c ****     struct lc3_bits_ac *ac = &bits->ac;
 291:..\..\..\liblc3\src/bits.c **** 
 292:..\..\..\liblc3\src/bits.c ****     for ( ; ac->range < 0x10000; ac->range <<= 8)
 293:..\..\..\liblc3\src/bits.c ****         ac_shift(ac, &bits->buffer);
 294:..\..\..\liblc3\src/bits.c **** }
 295:..\..\..\liblc3\src/bits.c **** 
 296:..\..\..\liblc3\src/bits.c **** 
 297:..\..\..\liblc3\src/bits.c **** /* ----------------------------------------------------------------------------
 298:..\..\..\liblc3\src/bits.c ****  *  Reading
 299:..\..\..\liblc3\src/bits.c ****  * -------------------------------------------------------------------------- */
 300:..\..\..\liblc3\src/bits.c **** 
 301:..\..\..\liblc3\src/bits.c **** /**
 302:..\..\..\liblc3\src/bits.c ****  * Arithmetic coder get byte
 303:..\..\..\liblc3\src/bits.c ****  * buffer          Bitstream buffer
 304:..\..\..\liblc3\src/bits.c ****  * return          Byte read, 0 on overflow
 305:..\..\..\liblc3\src/bits.c ****  */
 306:..\..\..\liblc3\src/bits.c **** static inline int ac_get(struct lc3_bits_buffer *buffer)
 307:..\..\..\liblc3\src/bits.c **** {
 308:..\..\..\liblc3\src/bits.c ****     return buffer->p_fw < buffer->end ? *(buffer->p_fw++) : 0;
 595              		.loc 1 308 0
 596 0048 AE42     		cmp	r6, r5
 597 004a 03D2     		bcs	.L52
 598 004c 731C     		adds	r3, r6, #1
 599 004e 2363     		str	r3, [r4, #48]
 600 0050 3378     		ldrb	r3, [r6]	@ zero_extendqisi2
 601 0052 00E0     		b	.L46
 602              	.L52:
 603 0054 0023     		movs	r3, #0
 604              	.L46:
 605              	.LVL65:
 606              	.LBE67:
 607              	.LBE66:
 103:..\..\..\liblc3\src/bits.c ****         ac->low |= ac_get(buffer) <<  8;
 608              		.loc 1 103 0
 609 0056 1B04     		lsls	r3, r3, #16
 610 0058 6360     		str	r3, [r4, #4]
 611              	.LVL66:
 612              	.LBB68:
 613              	.LBB69:
 614              		.loc 1 308 0
 615 005a 216B     		ldr	r1, [r4, #48]
 616 005c 8D42     		cmp	r5, r1
 617 005e 03D9     		bls	.L53
 618 0060 4E1C     		adds	r6, r1, #1
 619              	.LVL67:
 620 0062 2663     		str	r6, [r4, #48]
ARM GAS  C:\Users\rdn\AppData\Local\Temp\ccZR1Dqi.s 			page 18


 621 0064 0978     		ldrb	r1, [r1]	@ zero_extendqisi2
 622 0066 00E0     		b	.L47
 623              	.LVL68:
 624              	.L53:
 625 0068 0021     		movs	r1, #0
 626              	.LVL69:
 627              	.L47:
 628              	.LBE69:
 629              	.LBE68:
 104:..\..\..\liblc3\src/bits.c ****         ac->low |= ac_get(buffer);
 630              		.loc 1 104 0
 631 006a 43EA0123 		orr	r3, r3, r1, lsl #8
 632 006e 6360     		str	r3, [r4, #4]
 633              	.LVL70:
 634              	.LBB70:
 635              	.LBB71:
 636              		.loc 1 308 0
 637 0070 216B     		ldr	r1, [r4, #48]
 638 0072 8D42     		cmp	r5, r1
 639 0074 03D9     		bls	.L54
 640 0076 4D1C     		adds	r5, r1, #1
 641 0078 2563     		str	r5, [r4, #48]
 642 007a 0978     		ldrb	r1, [r1]	@ zero_extendqisi2
 643 007c 00E0     		b	.L48
 644              	.L54:
 645 007e 0021     		movs	r1, #0
 646              	.L48:
 647              	.LVL71:
 648              	.LBE71:
 649              	.LBE70:
 105:..\..\..\liblc3\src/bits.c **** 
 650              		.loc 1 105 0
 651 0080 0B43     		orrs	r3, r3, r1
 652 0082 6360     		str	r3, [r4, #4]
 653              	.LVL72:
 654              	.LBB72:
 655              	.LBB73:
 309:..\..\..\liblc3\src/bits.c **** }
 310:..\..\..\liblc3\src/bits.c **** 
 311:..\..\..\liblc3\src/bits.c **** /**
 312:..\..\..\liblc3\src/bits.c ****  * Load the accumulator
 313:..\..\..\liblc3\src/bits.c ****  * accu            Bitstream accumulator
 314:..\..\..\liblc3\src/bits.c ****  * buffer          Bitstream buffer
 315:..\..\..\liblc3\src/bits.c ****  */
 316:..\..\..\liblc3\src/bits.c **** static inline void accu_load(struct lc3_bits_accu *accu,
 317:..\..\..\liblc3\src/bits.c ****     struct lc3_bits_buffer *buffer)
 318:..\..\..\liblc3\src/bits.c **** {
 319:..\..\..\liblc3\src/bits.c ****     int nbytes = LC3_MIN(accu->n >> 3, buffer->p_bw - buffer->start);
 656              		.loc 1 319 0
 657 0084 C368     		ldr	r3, [r0, #12]
 658 0086 A16A     		ldr	r1, [r4, #40]
 659 0088 591A     		subs	r1, r3, r1
 660 008a 5568     		ldr	r5, [r2, #4]
 661 008c EB10     		asrs	r3, r5, #3
 662 008e 9942     		cmp	r1, r3
 663 0090 A8BF     		it	ge
 664 0092 1946     		movge	r1, r3
ARM GAS  C:\Users\rdn\AppData\Local\Temp\ccZR1Dqi.s 			page 19


 665              	.LVL73:
 320:..\..\..\liblc3\src/bits.c **** 
 321:..\..\..\liblc3\src/bits.c ****     accu->n -= 8 * nbytes;
 666              		.loc 1 321 0
 667 0094 A5EBC105 		sub	r5, r5, r1, lsl #3
 668 0098 5560     		str	r5, [r2, #4]
 669 009a 0CE0     		b	.L49
 670              	.L50:
 322:..\..\..\liblc3\src/bits.c **** 
 323:..\..\..\liblc3\src/bits.c ****     for ( ; nbytes; nbytes--) {
 324:..\..\..\liblc3\src/bits.c ****         accu->v >>= 8;
 671              		.loc 1 324 0
 672 009c 1368     		ldr	r3, [r2]
 673 009e 1B0A     		lsrs	r3, r3, #8
 674 00a0 1360     		str	r3, [r2]
 325:..\..\..\liblc3\src/bits.c ****         accu->v |= (unsigned)*(--buffer->p_bw) << (LC3_ACCU_BITS - 8);
 675              		.loc 1 325 0
 676 00a2 C368     		ldr	r3, [r0, #12]
 677 00a4 5D1E     		subs	r5, r3, #1
 678 00a6 C560     		str	r5, [r0, #12]
 679 00a8 13F8015C 		ldrb	r5, [r3, #-1]	@ zero_extendqisi2
 680 00ac 1368     		ldr	r3, [r2]
 681 00ae 43EA0563 		orr	r3, r3, r5, lsl #24
 682 00b2 1360     		str	r3, [r2]
 323:..\..\..\liblc3\src/bits.c ****         accu->v >>= 8;
 683              		.loc 1 323 0
 684 00b4 0139     		subs	r1, r1, #1
 685              	.LVL74:
 686              	.L49:
 687 00b6 0029     		cmp	r1, #0
 688 00b8 F0D1     		bne	.L50
 326:..\..\..\liblc3\src/bits.c ****     }
 327:..\..\..\liblc3\src/bits.c **** 
 328:..\..\..\liblc3\src/bits.c ****     if (accu->n >= 8) {
 689              		.loc 1 328 0
 690 00ba 5168     		ldr	r1, [r2, #4]
 691              	.LVL75:
 692 00bc 0729     		cmp	r1, #7
 693 00be 0BDD     		ble	.L43
 329:..\..\..\liblc3\src/bits.c ****         accu->nover = LC3_MIN(accu->nover + accu->n, LC3_ACCU_BITS);
 694              		.loc 1 329 0
 695 00c0 9368     		ldr	r3, [r2, #8]
 696 00c2 0B44     		add	r3, r3, r1
 697 00c4 202B     		cmp	r3, #32
 698 00c6 A8BF     		it	ge
 699 00c8 2023     		movge	r3, #32
 700 00ca 9360     		str	r3, [r2, #8]
 330:..\..\..\liblc3\src/bits.c ****         accu->v >>= accu->n;
 701              		.loc 1 330 0
 702 00cc E369     		ldr	r3, [r4, #28]
 703 00ce 23FA01F1 		lsr	r1, r3, r1
 704 00d2 E161     		str	r1, [r4, #28]
 331:..\..\..\liblc3\src/bits.c ****         accu->n = 0;
 705              		.loc 1 331 0
 706 00d4 0023     		movs	r3, #0
 707 00d6 5360     		str	r3, [r2, #4]
 708              	.LVL76:
ARM GAS  C:\Users\rdn\AppData\Local\Temp\ccZR1Dqi.s 			page 20


 709              	.L43:
 710 00d8 BDE8F081 		pop	{r4, r5, r6, r7, r8, pc}
 711              	.LBE73:
 712              	.LBE72:
 713              	.LBE65:
 714              		.cfi_endproc
 715              	.LFE16:
 716              		.size	lc3_setup_bits, .-lc3_setup_bits
 717              		.section	.text.lc3_get_bits_left,"ax",%progbits
 718              		.align	2
 719              		.global	lc3_get_bits_left
 720              		.thumb
 721              		.thumb_func
 722              		.type	lc3_get_bits_left, %function
 723              	lc3_get_bits_left:
 724              	.LFB17:
 115:..\..\..\liblc3\src/bits.c ****     return LC3_MAX(get_bits_left(bits), 0);
 725              		.loc 1 115 0
 726              		.cfi_startproc
 727              		@ args = 0, pretend = 0, frame = 0
 728              		@ frame_needed = 0, uses_anonymous_args = 0
 729              	.LVL77:
 730 0000 08B5     		push	{r3, lr}
 731              		.cfi_def_cfa_offset 8
 732              		.cfi_offset 3, -8
 733              		.cfi_offset 14, -4
 116:..\..\..\liblc3\src/bits.c **** }
 734              		.loc 1 116 0
 735 0002 FFF7FEFF 		bl	get_bits_left
 736              	.LVL78:
 737 0006 0028     		cmp	r0, #0
 738 0008 00DC     		bgt	.L57
 739 000a 0020     		movs	r0, #0
 740              	.L57:
 117:..\..\..\liblc3\src/bits.c **** 
 741              		.loc 1 117 0 discriminator 4
 742 000c 08BD     		pop	{r3, pc}
 743              		.cfi_endproc
 744              	.LFE17:
 745              		.size	lc3_get_bits_left, .-lc3_get_bits_left
 746 000e 00BF     		.section	.text.lc3_check_bits,"ax",%progbits
 747              		.align	2
 748              		.global	lc3_check_bits
 749              		.thumb
 750              		.thumb_func
 751              		.type	lc3_check_bits, %function
 752              	lc3_check_bits:
 753              	.LFB18:
 123:..\..\..\liblc3\src/bits.c ****     const struct lc3_bits_ac *ac = &bits->ac;
 754              		.loc 1 123 0
 755              		.cfi_startproc
 756              		@ args = 0, pretend = 0, frame = 0
 757              		@ frame_needed = 0, uses_anonymous_args = 0
 758              	.LVL79:
 759 0000 10B5     		push	{r4, lr}
 760              		.cfi_def_cfa_offset 8
 761              		.cfi_offset 4, -8
ARM GAS  C:\Users\rdn\AppData\Local\Temp\ccZR1Dqi.s 			page 21


 762              		.cfi_offset 14, -4
 763 0002 0446     		mov	r4, r0
 764              	.LVL80:
 126:..\..\..\liblc3\src/bits.c **** }
 765              		.loc 1 126 0
 766 0004 FFF7FEFF 		bl	get_bits_left
 767              	.LVL81:
 768 0008 0028     		cmp	r0, #0
 769 000a 03DB     		blt	.L61
 126:..\..\..\liblc3\src/bits.c **** }
 770              		.loc 1 126 0 is_stmt 0 discriminator 2
 771 000c 237E     		ldrb	r3, [r4, #24]	@ zero_extendqisi2
 772 000e 1BB1     		cbz	r3, .L62
 126:..\..\..\liblc3\src/bits.c **** }
 773              		.loc 1 126 0
 774 0010 0120     		movs	r0, #1
 775 0012 02E0     		b	.L60
 776              	.L61:
 777 0014 0120     		movs	r0, #1
 778 0016 00E0     		b	.L60
 779              	.L62:
 780 0018 0020     		movs	r0, #0
 781              	.L60:
 127:..\..\..\liblc3\src/bits.c **** 
 782              		.loc 1 127 0 is_stmt 1 discriminator 6
 783 001a 4042     		negs	r0, r0
 784 001c 10BD     		pop	{r4, pc}
 785              		.cfi_endproc
 786              	.LFE18:
 787              		.size	lc3_check_bits, .-lc3_check_bits
 788 001e 00BF     		.section	.text.lc3_put_bits_generic,"ax",%progbits
 789              		.align	2
 790              		.global	lc3_put_bits_generic
 791              		.thumb
 792              		.thumb_func
 793              		.type	lc3_put_bits_generic, %function
 794              	lc3_put_bits_generic:
 795              	.LFB24:
 266:..\..\..\liblc3\src/bits.c ****     struct lc3_bits_accu *accu = &bits->accu;
 796              		.loc 1 266 0
 797              		.cfi_startproc
 798              		@ args = 0, pretend = 0, frame = 0
 799              		@ frame_needed = 0, uses_anonymous_args = 0
 800              	.LVL82:
 801 0000 F0B5     		push	{r4, r5, r6, r7, lr}
 802              		.cfi_def_cfa_offset 20
 803              		.cfi_offset 4, -20
 804              		.cfi_offset 5, -16
 805              		.cfi_offset 6, -12
 806              		.cfi_offset 7, -8
 807              		.cfi_offset 14, -4
 267:..\..\..\liblc3\src/bits.c **** 
 808              		.loc 1 267 0
 809 0002 00F11C05 		add	r5, r0, #28
 810              	.LVL83:
 271:..\..\..\liblc3\src/bits.c ****     if (n1) {
 811              		.loc 1 271 0
ARM GAS  C:\Users\rdn\AppData\Local\Temp\ccZR1Dqi.s 			page 22


 812 0006 036A     		ldr	r3, [r0, #32]
 813 0008 C3F1200E 		rsb	lr, r3, #32
 814 000c 9645     		cmp	lr, r2
 815 000e A8BF     		it	ge
 816 0010 9646     		movge	lr, r2
 817              	.LVL84:
 272:..\..\..\liblc3\src/bits.c ****         accu->v |= v << accu->n;
 818              		.loc 1 272 0
 819 0012 BEF1000F 		cmp	lr, #0
 820 0016 06D0     		beq	.L65
 273:..\..\..\liblc3\src/bits.c ****         accu->n = LC3_ACCU_BITS;
 821              		.loc 1 273 0
 822 0018 01FA03F3 		lsl	r3, r1, r3
 823 001c C469     		ldr	r4, [r0, #28]
 824 001e 2343     		orrs	r3, r3, r4
 825 0020 C361     		str	r3, [r0, #28]
 274:..\..\..\liblc3\src/bits.c ****     }
 826              		.loc 1 274 0
 827 0022 2023     		movs	r3, #32
 828 0024 0362     		str	r3, [r0, #32]
 829              	.L65:
 277:..\..\..\liblc3\src/bits.c **** 
 830              		.loc 1 277 0
 831 0026 00F12806 		add	r6, r0, #40
 832              	.LVL85:
 833              	.LBB76:
 834              	.LBB77:
 142:..\..\..\liblc3\src/bits.c ****         LC3_MAX(buffer->p_bw - buffer->p_fw, 0));
 835              		.loc 1 142 0
 836 002a F368     		ldr	r3, [r6, #12]
 837 002c B468     		ldr	r4, [r6, #8]
 838 002e 1C1B     		subs	r4, r3, r4
 839 0030 24EAE474 		bic	r4, r4, r4, asr #31
 840 0034 6F68     		ldr	r7, [r5, #4]
 841 0036 FB10     		asrs	r3, r7, #3
 842 0038 9C42     		cmp	r4, r3
 843 003a A8BF     		it	ge
 844 003c 1C46     		movge	r4, r3
 845              	.LVL86:
 145:..\..\..\liblc3\src/bits.c **** 
 846              		.loc 1 145 0
 847 003e A7EBC407 		sub	r7, r7, r4, lsl #3
 848 0042 6F60     		str	r7, [r5, #4]
 849 0044 09E0     		b	.L66
 850              	.L67:
 148:..\..\..\liblc3\src/bits.c **** 
 851              		.loc 1 148 0
 852 0046 F368     		ldr	r3, [r6, #12]
 853 0048 5F1E     		subs	r7, r3, #1
 854 004a F760     		str	r7, [r6, #12]
 855 004c 2F68     		ldr	r7, [r5]
 856 004e 03F8017C 		strb	r7, [r3, #-1]
 147:..\..\..\liblc3\src/bits.c ****         *(--buffer->p_bw) = accu->v & 0xff;
 857              		.loc 1 147 0
 858 0052 2B68     		ldr	r3, [r5]
 859 0054 1B0A     		lsrs	r3, r3, #8
 860 0056 2B60     		str	r3, [r5]
ARM GAS  C:\Users\rdn\AppData\Local\Temp\ccZR1Dqi.s 			page 23


 861 0058 013C     		subs	r4, r4, #1
 862              	.LVL87:
 863              	.L66:
 864 005a 002C     		cmp	r4, #0
 865 005c F3D1     		bne	.L67
 150:..\..\..\liblc3\src/bits.c ****         accu->n = 0;
 866              		.loc 1 150 0
 867 005e 6B68     		ldr	r3, [r5, #4]
 868 0060 072B     		cmp	r3, #7
 869 0062 01DD     		ble	.L68
 151:..\..\..\liblc3\src/bits.c **** }
 870              		.loc 1 151 0
 871 0064 0023     		movs	r3, #0
 872 0066 6B60     		str	r3, [r5, #4]
 873              	.L68:
 874              	.LVL88:
 875              	.LBE77:
 876              	.LBE76:
 281:..\..\..\liblc3\src/bits.c ****     accu->n = n - n1;
 877              		.loc 1 281 0
 878 0068 21FA0EF1 		lsr	r1, r1, lr
 879              	.LVL89:
 880 006c C161     		str	r1, [r0, #28]
 282:..\..\..\liblc3\src/bits.c **** }
 881              		.loc 1 282 0
 882 006e CEEB0202 		rsb	r2, lr, r2
 883              	.LVL90:
 884 0072 0262     		str	r2, [r0, #32]
 885 0074 F0BD     		pop	{r4, r5, r6, r7, pc}
 886              		.cfi_endproc
 887              	.LFE24:
 888              		.size	lc3_put_bits_generic, .-lc3_put_bits_generic
 889 0076 00BF     		.section	.text.lc3_flush_bits,"ax",%progbits
 890              		.align	2
 891              		.global	lc3_flush_bits
 892              		.thumb
 893              		.thumb_func
 894              		.type	lc3_flush_bits, %function
 895              	lc3_flush_bits:
 896              	.LFB23:
 247:..\..\..\liblc3\src/bits.c ****     struct lc3_bits_ac *ac = &bits->ac;
 897              		.loc 1 247 0
 898              		.cfi_startproc
 899              		@ args = 0, pretend = 0, frame = 0
 900              		@ frame_needed = 0, uses_anonymous_args = 0
 901              	.LVL91:
 902 0000 2DE9F041 		push	{r4, r5, r6, r7, r8, lr}
 903              		.cfi_def_cfa_offset 24
 904              		.cfi_offset 4, -24
 905              		.cfi_offset 5, -20
 906              		.cfi_offset 6, -16
 907              		.cfi_offset 7, -12
 908              		.cfi_offset 8, -8
 909              		.cfi_offset 14, -4
 910 0004 8046     		mov	r8, r0
 248:..\..\..\liblc3\src/bits.c ****     struct lc3_bits_accu *accu = &bits->accu;
 911              		.loc 1 248 0
ARM GAS  C:\Users\rdn\AppData\Local\Temp\ccZR1Dqi.s 			page 24


 912 0006 071D     		adds	r7, r0, #4
 913              	.LVL92:
 249:..\..\..\liblc3\src/bits.c ****     struct lc3_bits_buffer *buffer = &bits->buffer;
 914              		.loc 1 249 0
 915 0008 00F11C05 		add	r5, r0, #28
 916              	.LVL93:
 250:..\..\..\liblc3\src/bits.c **** 
 917              		.loc 1 250 0
 918 000c 00F12806 		add	r6, r0, #40
 919              	.LVL94:
 252:..\..\..\liblc3\src/bits.c ****     for (int n = 8 * nleft - accu->n; n > 0; n -= 32)
 920              		.loc 1 252 0
 921 0010 436B     		ldr	r3, [r0, #52]
 922 0012 046B     		ldr	r4, [r0, #48]
 923 0014 1C1B     		subs	r4, r3, r4
 924              	.LVL95:
 925              	.LBB83:
 253:..\..\..\liblc3\src/bits.c ****         lc3_put_bits(bits, 0, LC3_MIN(n, 32));
 926              		.loc 1 253 0
 927 0016 036A     		ldr	r3, [r0, #32]
 928 0018 C3EBC404 		rsb	r4, r3, r4, lsl #3
 929              	.LVL96:
 930 001c 10E0     		b	.L71
 931              	.LVL97:
 932              	.L74:
 254:..\..\..\liblc3\src/bits.c **** 
 933              		.loc 1 254 0 discriminator 3
 934 001e 2246     		mov	r2, r4
 935 0020 202C     		cmp	r4, #32
 936 0022 A8BF     		it	ge
 937 0024 2022     		movge	r2, #32
 938              	.LVL98:
 939              	.LBB84:
 940              	.LBB85:
 941              		.file 2 "..\\..\\..\\liblc3\\src\\bits.h"
   1:..\..\..\liblc3\src/bits.h **** /******************************************************************************
   2:..\..\..\liblc3\src/bits.h ****  *
   3:..\..\..\liblc3\src/bits.h ****  *  Copyright 2022 Google LLC
   4:..\..\..\liblc3\src/bits.h ****  *
   5:..\..\..\liblc3\src/bits.h ****  *  Licensed under the Apache License, Version 2.0 (the "License");
   6:..\..\..\liblc3\src/bits.h ****  *  you may not use this file except in compliance with the License.
   7:..\..\..\liblc3\src/bits.h ****  *  You may obtain a copy of the License at:
   8:..\..\..\liblc3\src/bits.h ****  *
   9:..\..\..\liblc3\src/bits.h ****  *  http://www.apache.org/licenses/LICENSE-2.0
  10:..\..\..\liblc3\src/bits.h ****  *
  11:..\..\..\liblc3\src/bits.h ****  *  Unless required by applicable law or agreed to in writing, software
  12:..\..\..\liblc3\src/bits.h ****  *  distributed under the License is distributed on an "AS IS" BASIS,
  13:..\..\..\liblc3\src/bits.h ****  *  WITHOUT WARRANTIES OR CONDITIONS OF ANY KIND, either express or implied.
  14:..\..\..\liblc3\src/bits.h ****  *  See the License for the specific language governing permissions and
  15:..\..\..\liblc3\src/bits.h ****  *  limitations under the License.
  16:..\..\..\liblc3\src/bits.h ****  *
  17:..\..\..\liblc3\src/bits.h ****  ******************************************************************************/
  18:..\..\..\liblc3\src/bits.h **** 
  19:..\..\..\liblc3\src/bits.h **** /**
  20:..\..\..\liblc3\src/bits.h ****  * The bitstream is written by the 2 ends of the buffer :
  21:..\..\..\liblc3\src/bits.h ****  *
  22:..\..\..\liblc3\src/bits.h ****  * - Arthmetic coder put bits while increasing memory addresses
ARM GAS  C:\Users\rdn\AppData\Local\Temp\ccZR1Dqi.s 			page 25


  23:..\..\..\liblc3\src/bits.h ****  *   in the buffer (forward)
  24:..\..\..\liblc3\src/bits.h ****  *
  25:..\..\..\liblc3\src/bits.h ****  * - Plain bits are puts starting the end of the buffer, with memeory
  26:..\..\..\liblc3\src/bits.h ****  *   addresses decreasing (backward)
  27:..\..\..\liblc3\src/bits.h ****  *
  28:..\..\..\liblc3\src/bits.h ****  *       .---------------------------------------------------.
  29:..\..\..\liblc3\src/bits.h ****  *       | > > > > > > > > > > :         : < < < < < < < < < |
  30:..\..\..\liblc3\src/bits.h ****  *       '---------------------------------------------------'
  31:..\..\..\liblc3\src/bits.h ****  *       |---------------------> - - - - - - - - - - - - - ->|
  32:..\..\..\liblc3\src/bits.h ****  *                              |< - - - <-------------------|
  33:..\..\..\liblc3\src/bits.h ****  *          Arithmetic coding                  Plain bits
  34:..\..\..\liblc3\src/bits.h ****  *          `lc3_put_symbol()`               `lc3_put_bits()`
  35:..\..\..\liblc3\src/bits.h ****  *
  36:..\..\..\liblc3\src/bits.h ****  * - The forward writing is protected against buffer overflow, it cannot
  37:..\..\..\liblc3\src/bits.h ****  *   write after the buffer, but can overwrite plain bits previously
  38:..\..\..\liblc3\src/bits.h ****  *   written in the buffer.
  39:..\..\..\liblc3\src/bits.h ****  *
  40:..\..\..\liblc3\src/bits.h ****  * - The backward writing is protected against overwrite of the arithmetic
  41:..\..\..\liblc3\src/bits.h ****  *   coder bitstream. In such way, the backward bitstream is always limited
  42:..\..\..\liblc3\src/bits.h ****  *   by the aritmetic coder bitstream, and can be overwritten by him.
  43:..\..\..\liblc3\src/bits.h ****  *
  44:..\..\..\liblc3\src/bits.h ****  *       .---------------------------------------------------.
  45:..\..\..\liblc3\src/bits.h ****  *       | > > > > > > > > > > :         : < < < < < < < < < |
  46:..\..\..\liblc3\src/bits.h ****  *       '---------------------------------------------------'
  47:..\..\..\liblc3\src/bits.h ****  *       |---------------------> - - - - - - - - - - - - - ->|
  48:..\..\..\liblc3\src/bits.h ****  *       |< - - - - - - - - - - -  - - - <-------------------|
  49:..\..\..\liblc3\src/bits.h ****  *          Arithmetic coding                  Plain bits
  50:..\..\..\liblc3\src/bits.h ****  *          `lc3_get_symbol()`               `lc3_get_bits()`
  51:..\..\..\liblc3\src/bits.h ****  *
  52:..\..\..\liblc3\src/bits.h ****  * - Reading is limited to read of the complementary end of the buffer.
  53:..\..\..\liblc3\src/bits.h ****  *
  54:..\..\..\liblc3\src/bits.h ****  * - The procedure `lc3_check_bits()` returns indication that read has been
  55:..\..\..\liblc3\src/bits.h ****  *   made crossing the other bit plane.
  56:..\..\..\liblc3\src/bits.h ****  *
  57:..\..\..\liblc3\src/bits.h ****  */
  58:..\..\..\liblc3\src/bits.h **** 
  59:..\..\..\liblc3\src/bits.h **** #ifndef __LC3_BITS_H
  60:..\..\..\liblc3\src/bits.h **** #define __LC3_BITS_H
  61:..\..\..\liblc3\src/bits.h **** 
  62:..\..\..\liblc3\src/bits.h **** #include "common.h"
  63:..\..\..\liblc3\src/bits.h **** 
  64:..\..\..\liblc3\src/bits.h **** 
  65:..\..\..\liblc3\src/bits.h **** /**
  66:..\..\..\liblc3\src/bits.h ****  * Bitstream mode
  67:..\..\..\liblc3\src/bits.h ****  */
  68:..\..\..\liblc3\src/bits.h **** 
  69:..\..\..\liblc3\src/bits.h **** enum lc3_bits_mode {
  70:..\..\..\liblc3\src/bits.h ****     LC3_BITS_MODE_READ,
  71:..\..\..\liblc3\src/bits.h ****     LC3_BITS_MODE_WRITE,
  72:..\..\..\liblc3\src/bits.h **** };
  73:..\..\..\liblc3\src/bits.h **** 
  74:..\..\..\liblc3\src/bits.h **** /**
  75:..\..\..\liblc3\src/bits.h ****  * Arithmetic coder symbol interval
  76:..\..\..\liblc3\src/bits.h ****  * The model split the interval in 17 symbols
  77:..\..\..\liblc3\src/bits.h ****  */
  78:..\..\..\liblc3\src/bits.h **** 
  79:..\..\..\liblc3\src/bits.h **** struct lc3_ac_symbol {
ARM GAS  C:\Users\rdn\AppData\Local\Temp\ccZR1Dqi.s 			page 26


  80:..\..\..\liblc3\src/bits.h ****     uint16_t low   : 16;
  81:..\..\..\liblc3\src/bits.h ****     uint16_t range : 16;
  82:..\..\..\liblc3\src/bits.h **** };
  83:..\..\..\liblc3\src/bits.h **** 
  84:..\..\..\liblc3\src/bits.h **** struct lc3_ac_model {
  85:..\..\..\liblc3\src/bits.h ****     struct lc3_ac_symbol s[17];
  86:..\..\..\liblc3\src/bits.h **** };
  87:..\..\..\liblc3\src/bits.h **** 
  88:..\..\..\liblc3\src/bits.h **** /**
  89:..\..\..\liblc3\src/bits.h ****  * Bitstream context
  90:..\..\..\liblc3\src/bits.h ****  */
  91:..\..\..\liblc3\src/bits.h **** 
  92:..\..\..\liblc3\src/bits.h **** #define LC3_ACCU_BITS (int)(8 * sizeof(unsigned))
  93:..\..\..\liblc3\src/bits.h **** 
  94:..\..\..\liblc3\src/bits.h **** struct lc3_bits_accu {
  95:..\..\..\liblc3\src/bits.h ****     unsigned v;
  96:..\..\..\liblc3\src/bits.h ****     int n, nover;
  97:..\..\..\liblc3\src/bits.h **** };
  98:..\..\..\liblc3\src/bits.h **** 
  99:..\..\..\liblc3\src/bits.h **** #define LC3_AC_BITS (int)(24)
 100:..\..\..\liblc3\src/bits.h **** 
 101:..\..\..\liblc3\src/bits.h **** struct lc3_bits_ac {
 102:..\..\..\liblc3\src/bits.h ****     unsigned low, range;
 103:..\..\..\liblc3\src/bits.h ****     int cache, carry, carry_count;
 104:..\..\..\liblc3\src/bits.h ****     bool error;
 105:..\..\..\liblc3\src/bits.h **** };
 106:..\..\..\liblc3\src/bits.h **** 
 107:..\..\..\liblc3\src/bits.h **** struct lc3_bits_buffer {
 108:..\..\..\liblc3\src/bits.h ****     const uint8_t *start, *end;
 109:..\..\..\liblc3\src/bits.h ****     uint8_t *p_fw, *p_bw;
 110:..\..\..\liblc3\src/bits.h **** };
 111:..\..\..\liblc3\src/bits.h **** 
 112:..\..\..\liblc3\src/bits.h **** typedef struct lc3_bits {
 113:..\..\..\liblc3\src/bits.h ****     enum lc3_bits_mode mode;
 114:..\..\..\liblc3\src/bits.h ****     struct lc3_bits_ac ac;
 115:..\..\..\liblc3\src/bits.h ****     struct lc3_bits_accu accu;
 116:..\..\..\liblc3\src/bits.h ****     struct lc3_bits_buffer buffer;
 117:..\..\..\liblc3\src/bits.h **** } lc3_bits_t;
 118:..\..\..\liblc3\src/bits.h **** 
 119:..\..\..\liblc3\src/bits.h **** 
 120:..\..\..\liblc3\src/bits.h **** /**
 121:..\..\..\liblc3\src/bits.h ****  * Setup bitstream reading/writing
 122:..\..\..\liblc3\src/bits.h ****  * bits            Bitstream context
 123:..\..\..\liblc3\src/bits.h ****  * mode            Either READ or WRITE mode
 124:..\..\..\liblc3\src/bits.h ****  * buffer, len     Output buffer and length (in bytes)
 125:..\..\..\liblc3\src/bits.h ****  */
 126:..\..\..\liblc3\src/bits.h **** void lc3_setup_bits(lc3_bits_t *bits,
 127:..\..\..\liblc3\src/bits.h ****     enum lc3_bits_mode mode, void *buffer, int len);
 128:..\..\..\liblc3\src/bits.h **** 
 129:..\..\..\liblc3\src/bits.h **** /**
 130:..\..\..\liblc3\src/bits.h ****  * Return number of bits left in the bitstream
 131:..\..\..\liblc3\src/bits.h ****  * bits            Bitstream context
 132:..\..\..\liblc3\src/bits.h ****  * return          Number of bits left
 133:..\..\..\liblc3\src/bits.h ****  */
 134:..\..\..\liblc3\src/bits.h **** int lc3_get_bits_left(const lc3_bits_t *bits);
 135:..\..\..\liblc3\src/bits.h **** 
 136:..\..\..\liblc3\src/bits.h **** /**
ARM GAS  C:\Users\rdn\AppData\Local\Temp\ccZR1Dqi.s 			page 27


 137:..\..\..\liblc3\src/bits.h ****  * Check if error occured on bitstream reading/writing
 138:..\..\..\liblc3\src/bits.h ****  * bits            Bitstream context
 139:..\..\..\liblc3\src/bits.h ****  * return          0: Ok  -1: Bitstream overflow or AC reading error
 140:..\..\..\liblc3\src/bits.h ****  */
 141:..\..\..\liblc3\src/bits.h **** int lc3_check_bits(const lc3_bits_t *bits);
 142:..\..\..\liblc3\src/bits.h **** 
 143:..\..\..\liblc3\src/bits.h **** /**
 144:..\..\..\liblc3\src/bits.h ****  * Put a bit
 145:..\..\..\liblc3\src/bits.h ****  * bits            Bitstream context
 146:..\..\..\liblc3\src/bits.h ****  * v               Bit value, 0 or 1
 147:..\..\..\liblc3\src/bits.h ****  */
 148:..\..\..\liblc3\src/bits.h **** static inline void lc3_put_bit(lc3_bits_t *bits, int v);
 149:..\..\..\liblc3\src/bits.h **** 
 150:..\..\..\liblc3\src/bits.h **** /**
 151:..\..\..\liblc3\src/bits.h ****  * Put from 1 to 32 bits
 152:..\..\..\liblc3\src/bits.h ****  * bits            Bitstream context
 153:..\..\..\liblc3\src/bits.h ****  * v, n            Value, in range 0 to 2^n - 1, and bits count (1 to 32)
 154:..\..\..\liblc3\src/bits.h ****  */
 155:..\..\..\liblc3\src/bits.h **** static inline void lc3_put_bits(lc3_bits_t *bits, unsigned v, int n);
 156:..\..\..\liblc3\src/bits.h **** 
 157:..\..\..\liblc3\src/bits.h **** /**
 158:..\..\..\liblc3\src/bits.h ****  * Put arithmetic coder symbol
 159:..\..\..\liblc3\src/bits.h ****  * bits            Bitstream context
 160:..\..\..\liblc3\src/bits.h ****  * model, s        Model distribution and symbol value
 161:..\..\..\liblc3\src/bits.h ****  */
 162:..\..\..\liblc3\src/bits.h **** static inline void lc3_put_symbol(lc3_bits_t *bits,
 163:..\..\..\liblc3\src/bits.h ****     const struct lc3_ac_model *model, unsigned s);
 164:..\..\..\liblc3\src/bits.h **** 
 165:..\..\..\liblc3\src/bits.h **** /**
 166:..\..\..\liblc3\src/bits.h ****  * Flush and terminate bitstream writing
 167:..\..\..\liblc3\src/bits.h ****  * bits            Bitstream context
 168:..\..\..\liblc3\src/bits.h ****  */
 169:..\..\..\liblc3\src/bits.h **** void lc3_flush_bits(lc3_bits_t *bits);
 170:..\..\..\liblc3\src/bits.h **** 
 171:..\..\..\liblc3\src/bits.h **** /**
 172:..\..\..\liblc3\src/bits.h ****  * Get a bit
 173:..\..\..\liblc3\src/bits.h ****  * bits            Bitstream context
 174:..\..\..\liblc3\src/bits.h ****  */
 175:..\..\..\liblc3\src/bits.h **** static inline int lc3_get_bit(lc3_bits_t *bits);
 176:..\..\..\liblc3\src/bits.h **** 
 177:..\..\..\liblc3\src/bits.h **** /**
 178:..\..\..\liblc3\src/bits.h ****  * Get from 1 to 32 bits
 179:..\..\..\liblc3\src/bits.h ****  * bits            Bitstream context
 180:..\..\..\liblc3\src/bits.h ****  * n               Number of bits to read (1 to 32)
 181:..\..\..\liblc3\src/bits.h ****  * return          The value read
 182:..\..\..\liblc3\src/bits.h ****  */
 183:..\..\..\liblc3\src/bits.h **** static inline unsigned lc3_get_bits(lc3_bits_t *bits,  int n);
 184:..\..\..\liblc3\src/bits.h **** 
 185:..\..\..\liblc3\src/bits.h **** /**
 186:..\..\..\liblc3\src/bits.h ****  * Get arithmetic coder symbol
 187:..\..\..\liblc3\src/bits.h ****  * bits            Bitstream context
 188:..\..\..\liblc3\src/bits.h ****  * model           Model distribution
 189:..\..\..\liblc3\src/bits.h ****  * return          The value read
 190:..\..\..\liblc3\src/bits.h ****  */
 191:..\..\..\liblc3\src/bits.h **** static inline unsigned lc3_get_symbol(lc3_bits_t *bits,
 192:..\..\..\liblc3\src/bits.h ****     const struct lc3_ac_model *model);
 193:..\..\..\liblc3\src/bits.h **** 
ARM GAS  C:\Users\rdn\AppData\Local\Temp\ccZR1Dqi.s 			page 28


 194:..\..\..\liblc3\src/bits.h **** 
 195:..\..\..\liblc3\src/bits.h **** 
 196:..\..\..\liblc3\src/bits.h **** /* ----------------------------------------------------------------------------
 197:..\..\..\liblc3\src/bits.h ****  *  Inline implementations
 198:..\..\..\liblc3\src/bits.h ****  * -------------------------------------------------------------------------- */
 199:..\..\..\liblc3\src/bits.h **** 
 200:..\..\..\liblc3\src/bits.h **** void lc3_put_bits_generic(lc3_bits_t *bits, unsigned v, int n);
 201:..\..\..\liblc3\src/bits.h **** unsigned lc3_get_bits_generic(struct lc3_bits *bits, int n);
 202:..\..\..\liblc3\src/bits.h **** 
 203:..\..\..\liblc3\src/bits.h **** void lc3_ac_read_renorm(lc3_bits_t *bits);
 204:..\..\..\liblc3\src/bits.h **** void lc3_ac_write_renorm(lc3_bits_t *bits);
 205:..\..\..\liblc3\src/bits.h **** 
 206:..\..\..\liblc3\src/bits.h **** 
 207:..\..\..\liblc3\src/bits.h **** /**
 208:..\..\..\liblc3\src/bits.h ****  * Put a bit
 209:..\..\..\liblc3\src/bits.h ****  */
 210:..\..\..\liblc3\src/bits.h **** LC3_HOT static inline void lc3_put_bit(lc3_bits_t *bits, int v)
 211:..\..\..\liblc3\src/bits.h **** {
 212:..\..\..\liblc3\src/bits.h ****     lc3_put_bits(bits, v, 1);
 213:..\..\..\liblc3\src/bits.h **** }
 214:..\..\..\liblc3\src/bits.h **** 
 215:..\..\..\liblc3\src/bits.h **** /**
 216:..\..\..\liblc3\src/bits.h ****  * Put from 1 to 32 bits
 217:..\..\..\liblc3\src/bits.h ****  */
 218:..\..\..\liblc3\src/bits.h **** LC3_HOT static inline void lc3_put_bits(
 219:..\..\..\liblc3\src/bits.h ****     struct lc3_bits *bits, unsigned v, int n)
 220:..\..\..\liblc3\src/bits.h **** {
 221:..\..\..\liblc3\src/bits.h ****     struct lc3_bits_accu *accu = &bits->accu;
 222:..\..\..\liblc3\src/bits.h **** 
 223:..\..\..\liblc3\src/bits.h ****     if (accu->n + n <= LC3_ACCU_BITS) {
 942              		.loc 2 223 0 discriminator 3
 943 0026 D8F82030 		ldr	r3, [r8, #32]
 944 002a 1344     		add	r3, r3, r2
 945 002c 202B     		cmp	r3, #32
 946 002e 02DC     		bgt	.L72
 224:..\..\..\liblc3\src/bits.h ****         accu->v |= v << accu->n;
 225:..\..\..\liblc3\src/bits.h ****         accu->n += n;
 947              		.loc 2 225 0
 948 0030 C8F82030 		str	r3, [r8, #32]
 949 0034 03E0     		b	.L73
 950              	.L72:
 226:..\..\..\liblc3\src/bits.h ****     } else {
 227:..\..\..\liblc3\src/bits.h ****         lc3_put_bits_generic(bits, v, n);
 951              		.loc 2 227 0
 952 0036 0021     		movs	r1, #0
 953 0038 4046     		mov	r0, r8
 954 003a FFF7FEFF 		bl	lc3_put_bits_generic
 955              	.LVL99:
 956              	.L73:
 957              	.LBE85:
 958              	.LBE84:
 253:..\..\..\liblc3\src/bits.c ****         lc3_put_bits(bits, 0, LC3_MIN(n, 32));
 959              		.loc 1 253 0 discriminator 3
 960 003e 203C     		subs	r4, r4, #32
 961              	.LVL100:
 962              	.L71:
 253:..\..\..\liblc3\src/bits.c ****         lc3_put_bits(bits, 0, LC3_MIN(n, 32));
ARM GAS  C:\Users\rdn\AppData\Local\Temp\ccZR1Dqi.s 			page 29


 963              		.loc 1 253 0 is_stmt 0 discriminator 1
 964 0040 002C     		cmp	r4, #0
 965 0042 ECDC     		bgt	.L74
 966              	.LVL101:
 967              	.LBE83:
 968              	.LBB86:
 969              	.LBB87:
 142:..\..\..\liblc3\src/bits.c ****         LC3_MAX(buffer->p_bw - buffer->p_fw, 0));
 970              		.loc 1 142 0 is_stmt 1
 971 0044 F368     		ldr	r3, [r6, #12]
 972 0046 B268     		ldr	r2, [r6, #8]
 973 0048 9A1A     		subs	r2, r3, r2
 974 004a 22EAE272 		bic	r2, r2, r2, asr #31
 975 004e 6968     		ldr	r1, [r5, #4]
 976 0050 CB10     		asrs	r3, r1, #3
 977 0052 9A42     		cmp	r2, r3
 978 0054 A8BF     		it	ge
 979 0056 1A46     		movge	r2, r3
 980              	.LVL102:
 145:..\..\..\liblc3\src/bits.c **** 
 981              		.loc 1 145 0
 982 0058 A1EBC201 		sub	r1, r1, r2, lsl #3
 983 005c 6960     		str	r1, [r5, #4]
 984 005e 09E0     		b	.L75
 985              	.L76:
 148:..\..\..\liblc3\src/bits.c **** 
 986              		.loc 1 148 0
 987 0060 F368     		ldr	r3, [r6, #12]
 988 0062 591E     		subs	r1, r3, #1
 989 0064 F160     		str	r1, [r6, #12]
 990 0066 2968     		ldr	r1, [r5]
 991 0068 03F8011C 		strb	r1, [r3, #-1]
 147:..\..\..\liblc3\src/bits.c ****         *(--buffer->p_bw) = accu->v & 0xff;
 992              		.loc 1 147 0
 993 006c 2B68     		ldr	r3, [r5]
 994 006e 1B0A     		lsrs	r3, r3, #8
 995 0070 2B60     		str	r3, [r5]
 996 0072 013A     		subs	r2, r2, #1
 997              	.LVL103:
 998              	.L75:
 999 0074 002A     		cmp	r2, #0
 1000 0076 F3D1     		bne	.L76
 150:..\..\..\liblc3\src/bits.c ****         accu->n = 0;
 1001              		.loc 1 150 0
 1002 0078 6B68     		ldr	r3, [r5, #4]
 1003 007a 072B     		cmp	r3, #7
 1004 007c 01DD     		ble	.L77
 151:..\..\..\liblc3\src/bits.c **** }
 1005              		.loc 1 151 0
 1006 007e 0023     		movs	r3, #0
 1007 0080 6B60     		str	r3, [r5, #4]
 1008              	.L77:
 1009              	.LVL104:
 1010              	.LBE87:
 1011              	.LBE86:
 258:..\..\..\liblc3\src/bits.c **** }
 1012              		.loc 1 258 0
ARM GAS  C:\Users\rdn\AppData\Local\Temp\ccZR1Dqi.s 			page 30


 1013 0082 3146     		mov	r1, r6
 1014 0084 3846     		mov	r0, r7
 1015 0086 FFF7FEFF 		bl	ac_terminate
 1016              	.LVL105:
 1017 008a BDE8F081 		pop	{r4, r5, r6, r7, r8, pc}
 1018              		.cfi_endproc
 1019              	.LFE23:
 1020              		.size	lc3_flush_bits, .-lc3_flush_bits
 1021 008e 00BF     		.section	.text.lc3_ac_write_renorm,"ax",%progbits
 1022              		.align	2
 1023              		.global	lc3_ac_write_renorm
 1024              		.thumb
 1025              		.thumb_func
 1026              		.type	lc3_ac_write_renorm, %function
 1027              	lc3_ac_write_renorm:
 1028              	.LFB25:
 289:..\..\..\liblc3\src/bits.c ****     struct lc3_bits_ac *ac = &bits->ac;
 1029              		.loc 1 289 0
 1030              		.cfi_startproc
 1031              		@ args = 0, pretend = 0, frame = 0
 1032              		@ frame_needed = 0, uses_anonymous_args = 0
 1033              		@ link register save eliminated.
 1034              	.LVL106:
 1035 0000 30B4     		push	{r4, r5}
 1036              		.cfi_def_cfa_offset 8
 1037              		.cfi_offset 4, -8
 1038              		.cfi_offset 5, -4
 290:..\..\..\liblc3\src/bits.c **** 
 1039              		.loc 1 290 0
 1040 0002 031D     		adds	r3, r0, #4
 1041              	.LVL107:
 292:..\..\..\liblc3\src/bits.c ****         ac_shift(ac, &bits->buffer);
 1042              		.loc 1 292 0
 1043 0004 36E0     		b	.L80
 1044              	.L88:
 293:..\..\..\liblc3\src/bits.c **** }
 1045              		.loc 1 293 0 discriminator 2
 1046 0006 00F12801 		add	r1, r0, #40
 1047              	.LVL108:
 1048              	.LBB94:
 1049              	.LBB95:
 173:..\..\..\liblc3\src/bits.c ****     {
 1050              		.loc 1 173 0 discriminator 2
 1051 000a 1A68     		ldr	r2, [r3]
 1052 000c B2F57F0F 		cmp	r2, #16711680
 1053 0010 01D3     		bcc	.L81
 173:..\..\..\liblc3\src/bits.c ****     {
 1054              		.loc 1 173 0 is_stmt 0
 1055 0012 DA68     		ldr	r2, [r3, #12]
 1056 0014 1AB3     		cbz	r2, .L82
 1057              	.L81:
 175:..\..\..\liblc3\src/bits.c ****             ac_put(buffer, ac->cache + ac->carry);
 1058              		.loc 1 175 0 is_stmt 1
 1059 0016 9A68     		ldr	r2, [r3, #8]
 1060 0018 002A     		cmp	r2, #0
 1061 001a 18DB     		blt	.L83
 176:..\..\..\liblc3\src/bits.c **** 
ARM GAS  C:\Users\rdn\AppData\Local\Temp\ccZR1Dqi.s 			page 31


 1062              		.loc 1 176 0
 1063 001c DC68     		ldr	r4, [r3, #12]
 1064 001e 2244     		add	r2, r2, r4
 1065              	.LVL109:
 1066              	.LBB96:
 1067              	.LBB97:
 161:..\..\..\liblc3\src/bits.c ****         *(buffer->p_fw++) = byte;
 1068              		.loc 1 161 0
 1069 0020 8C68     		ldr	r4, [r1, #8]
 1070 0022 4D68     		ldr	r5, [r1, #4]
 1071 0024 AC42     		cmp	r4, r5
 1072 0026 12D2     		bcs	.L83
 162:..\..\..\liblc3\src/bits.c **** }
 1073              		.loc 1 162 0
 1074 0028 651C     		adds	r5, r4, #1
 1075 002a 8D60     		str	r5, [r1, #8]
 1076 002c 2270     		strb	r2, [r4]
 1077 002e 0EE0     		b	.L83
 1078              	.LVL110:
 1079              	.L86:
 1080              	.LBE97:
 1081              	.LBE96:
 179:..\..\..\liblc3\src/bits.c **** 
 1082              		.loc 1 179 0
 1083 0030 DA68     		ldr	r2, [r3, #12]
 1084 0032 0AB1     		cbz	r2, .L89
 1085 0034 0025     		movs	r5, #0
 1086 0036 00E0     		b	.L84
 1087              	.L89:
 1088 0038 FF25     		movs	r5, #255
 1089              	.L84:
 1090              	.LVL111:
 1091              	.LBB98:
 1092              	.LBB99:
 161:..\..\..\liblc3\src/bits.c ****         *(buffer->p_fw++) = byte;
 1093              		.loc 1 161 0
 1094 003a 8A68     		ldr	r2, [r1, #8]
 1095 003c 4C68     		ldr	r4, [r1, #4]
 1096 003e A242     		cmp	r2, r4
 1097 0040 02D2     		bcs	.L85
 162:..\..\..\liblc3\src/bits.c **** }
 1098              		.loc 1 162 0
 1099 0042 541C     		adds	r4, r2, #1
 1100 0044 8C60     		str	r4, [r1, #8]
 1101 0046 1570     		strb	r5, [r2]
 1102              	.L85:
 1103              	.LVL112:
 1104              	.LBE99:
 1105              	.LBE98:
 178:..\..\..\liblc3\src/bits.c ****             ac_put(buffer, ac->carry ? 0x00 : 0xff);
 1106              		.loc 1 178 0
 1107 0048 1A69     		ldr	r2, [r3, #16]
 1108 004a 013A     		subs	r2, r2, #1
 1109 004c 1A61     		str	r2, [r3, #16]
 1110              	.L83:
 1111 004e 1A69     		ldr	r2, [r3, #16]
 1112 0050 002A     		cmp	r2, #0
ARM GAS  C:\Users\rdn\AppData\Local\Temp\ccZR1Dqi.s 			page 32


 1113 0052 EDDC     		bgt	.L86
 181:..\..\..\liblc3\src/bits.c ****          ac->carry = 0;
 1114              		.loc 1 181 0
 1115 0054 5A88     		ldrh	r2, [r3, #2]
 1116 0056 9A60     		str	r2, [r3, #8]
 182:..\..\..\liblc3\src/bits.c ****     }
 1117              		.loc 1 182 0
 1118 0058 0022     		movs	r2, #0
 1119 005a DA60     		str	r2, [r3, #12]
 1120 005c 02E0     		b	.L87
 1121              	.L82:
 185:..\..\..\liblc3\src/bits.c **** 
 1122              		.loc 1 185 0
 1123 005e 1A69     		ldr	r2, [r3, #16]
 1124 0060 0132     		adds	r2, r2, #1
 1125 0062 1A61     		str	r2, [r3, #16]
 1126              	.L87:
 187:..\..\..\liblc3\src/bits.c **** }
 1127              		.loc 1 187 0
 1128 0064 1A68     		ldr	r2, [r3]
 1129 0066 1202     		lsls	r2, r2, #8
 1130 0068 22F07F42 		bic	r2, r2, #-16777216
 1131 006c 1A60     		str	r2, [r3]
 1132              	.LVL113:
 1133              	.LBE95:
 1134              	.LBE94:
 292:..\..\..\liblc3\src/bits.c ****         ac_shift(ac, &bits->buffer);
 1135              		.loc 1 292 0
 1136 006e 8268     		ldr	r2, [r0, #8]
 1137 0070 1202     		lsls	r2, r2, #8
 1138 0072 8260     		str	r2, [r0, #8]
 1139              	.L80:
 292:..\..\..\liblc3\src/bits.c ****         ac_shift(ac, &bits->buffer);
 1140              		.loc 1 292 0 is_stmt 0 discriminator 1
 1141 0074 8268     		ldr	r2, [r0, #8]
 1142 0076 B2F5803F 		cmp	r2, #65536
 1143 007a C4D3     		bcc	.L88
 294:..\..\..\liblc3\src/bits.c **** 
 1144              		.loc 1 294 0 is_stmt 1
 1145 007c 30BC     		pop	{r4, r5}
 1146              		.cfi_restore 5
 1147              		.cfi_restore 4
 1148              		.cfi_def_cfa_offset 0
 1149 007e 7047     		bx	lr
 1150              		.cfi_endproc
 1151              	.LFE25:
 1152              		.size	lc3_ac_write_renorm, .-lc3_ac_write_renorm
 1153              		.section	.text.lc3_get_bits_generic,"ax",%progbits
 1154              		.align	2
 1155              		.global	lc3_get_bits_generic
 1156              		.thumb
 1157              		.thumb_func
 1158              		.type	lc3_get_bits_generic, %function
 1159              	lc3_get_bits_generic:
 1160              	.LFB28:
 332:..\..\..\liblc3\src/bits.c ****     }
 333:..\..\..\liblc3\src/bits.c **** }
ARM GAS  C:\Users\rdn\AppData\Local\Temp\ccZR1Dqi.s 			page 33


 334:..\..\..\liblc3\src/bits.c **** 
 335:..\..\..\liblc3\src/bits.c **** /**
 336:..\..\..\liblc3\src/bits.c ****  * Read from 1 to 32 bits,
 337:..\..\..\liblc3\src/bits.c ****  * exceeding the capacity of the accumulator
 338:..\..\..\liblc3\src/bits.c ****  */
 339:..\..\..\liblc3\src/bits.c **** LC3_HOT unsigned lc3_get_bits_generic(struct lc3_bits *bits, int n)
 340:..\..\..\liblc3\src/bits.c **** {
 1161              		.loc 1 340 0
 1162              		.cfi_startproc
 1163              		@ args = 0, pretend = 0, frame = 0
 1164              		@ frame_needed = 0, uses_anonymous_args = 0
 1165              	.LVL114:
 1166 0000 F0B5     		push	{r4, r5, r6, r7, lr}
 1167              		.cfi_def_cfa_offset 20
 1168              		.cfi_offset 4, -20
 1169              		.cfi_offset 5, -16
 1170              		.cfi_offset 6, -12
 1171              		.cfi_offset 7, -8
 1172              		.cfi_offset 14, -4
 1173 0002 0746     		mov	r7, r0
 341:..\..\..\liblc3\src/bits.c ****     struct lc3_bits_accu *accu = &bits->accu;
 1174              		.loc 1 341 0
 1175 0004 00F11C03 		add	r3, r0, #28
 1176              	.LVL115:
 342:..\..\..\liblc3\src/bits.c ****     struct lc3_bits_buffer *buffer = &bits->buffer;
 1177              		.loc 1 342 0
 1178 0008 00F12805 		add	r5, r0, #40
 1179              	.LVL116:
 1180              	.LBB104:
 1181              	.LBB105:
 319:..\..\..\liblc3\src/bits.c **** 
 1182              		.loc 1 319 0
 1183 000c EA68     		ldr	r2, [r5, #12]
 1184 000e 846A     		ldr	r4, [r0, #40]
 1185 0010 141B     		subs	r4, r2, r4
 1186 0012 5868     		ldr	r0, [r3, #4]
 1187              	.LVL117:
 1188 0014 C210     		asrs	r2, r0, #3
 1189 0016 9442     		cmp	r4, r2
 1190 0018 A8BF     		it	ge
 1191 001a 1446     		movge	r4, r2
 1192              	.LVL118:
 321:..\..\..\liblc3\src/bits.c **** 
 1193              		.loc 1 321 0
 1194 001c A0EBC400 		sub	r0, r0, r4, lsl #3
 1195 0020 5860     		str	r0, [r3, #4]
 1196 0022 0CE0     		b	.L92
 1197              	.L93:
 324:..\..\..\liblc3\src/bits.c ****         accu->v |= (unsigned)*(--buffer->p_bw) << (LC3_ACCU_BITS - 8);
 1198              		.loc 1 324 0
 1199 0024 1A68     		ldr	r2, [r3]
 1200 0026 120A     		lsrs	r2, r2, #8
 1201 0028 1A60     		str	r2, [r3]
 325:..\..\..\liblc3\src/bits.c ****     }
 1202              		.loc 1 325 0
 1203 002a EA68     		ldr	r2, [r5, #12]
 1204 002c 561E     		subs	r6, r2, #1
ARM GAS  C:\Users\rdn\AppData\Local\Temp\ccZR1Dqi.s 			page 34


 1205 002e EE60     		str	r6, [r5, #12]
 1206 0030 12F8016C 		ldrb	r6, [r2, #-1]	@ zero_extendqisi2
 1207 0034 1A68     		ldr	r2, [r3]
 1208 0036 42EA0662 		orr	r2, r2, r6, lsl #24
 1209 003a 1A60     		str	r2, [r3]
 323:..\..\..\liblc3\src/bits.c ****         accu->v >>= 8;
 1210              		.loc 1 323 0
 1211 003c 013C     		subs	r4, r4, #1
 1212              	.LVL119:
 1213              	.L92:
 1214 003e 002C     		cmp	r4, #0
 1215 0040 F0D1     		bne	.L93
 328:..\..\..\liblc3\src/bits.c ****         accu->nover = LC3_MIN(accu->nover + accu->n, LC3_ACCU_BITS);
 1216              		.loc 1 328 0
 1217 0042 5868     		ldr	r0, [r3, #4]
 1218 0044 0728     		cmp	r0, #7
 1219 0046 0BDD     		ble	.L94
 329:..\..\..\liblc3\src/bits.c ****         accu->v >>= accu->n;
 1220              		.loc 1 329 0
 1221 0048 9A68     		ldr	r2, [r3, #8]
 1222 004a 0244     		add	r2, r2, r0
 1223 004c 202A     		cmp	r2, #32
 1224 004e A8BF     		it	ge
 1225 0050 2022     		movge	r2, #32
 1226 0052 9A60     		str	r2, [r3, #8]
 330:..\..\..\liblc3\src/bits.c ****         accu->n = 0;
 1227              		.loc 1 330 0
 1228 0054 FA69     		ldr	r2, [r7, #28]
 1229 0056 22FA00F0 		lsr	r0, r2, r0
 1230 005a F861     		str	r0, [r7, #28]
 331:..\..\..\liblc3\src/bits.c ****     }
 1231              		.loc 1 331 0
 1232 005c 0022     		movs	r2, #0
 1233 005e 5A60     		str	r2, [r3, #4]
 1234              	.L94:
 1235              	.LVL120:
 1236              	.LBE105:
 1237              	.LBE104:
 343:..\..\..\liblc3\src/bits.c **** 
 344:..\..\..\liblc3\src/bits.c ****     /* --- Fulfill accumulator and read -- */
 345:..\..\..\liblc3\src/bits.c **** 
 346:..\..\..\liblc3\src/bits.c ****     accu_load(accu, buffer);
 347:..\..\..\liblc3\src/bits.c **** 
 348:..\..\..\liblc3\src/bits.c ****     int n1 = LC3_MIN(LC3_ACCU_BITS - accu->n, n);
 1238              		.loc 1 348 0
 1239 0060 3A6A     		ldr	r2, [r7, #32]
 1240 0062 C2F1200E 		rsb	lr, r2, #32
 1241 0066 8E45     		cmp	lr, r1
 1242 0068 A8BF     		it	ge
 1243 006a 8E46     		movge	lr, r1
 1244              	.LVL121:
 349:..\..\..\liblc3\src/bits.c ****     unsigned v = (accu->v >> accu->n) & ((1u << n1) - 1);
 1245              		.loc 1 349 0
 1246 006c F869     		ldr	r0, [r7, #28]
 1247 006e 20FA02F4 		lsr	r4, r0, r2
 1248 0072 0120     		movs	r0, #1
 1249 0074 00FA0EF0 		lsl	r0, r0, lr
ARM GAS  C:\Users\rdn\AppData\Local\Temp\ccZR1Dqi.s 			page 35


 1250 0078 0138     		subs	r0, r0, #1
 1251 007a 2040     		ands	r0, r0, r4
 1252              	.LVL122:
 350:..\..\..\liblc3\src/bits.c ****     accu->n += n1;
 1253              		.loc 1 350 0
 1254 007c 7244     		add	r2, r2, lr
 1255 007e 3A62     		str	r2, [r7, #32]
 1256              	.LVL123:
 351:..\..\..\liblc3\src/bits.c **** 
 352:..\..\..\liblc3\src/bits.c ****     /* --- Second round --- */
 353:..\..\..\liblc3\src/bits.c **** 
 354:..\..\..\liblc3\src/bits.c ****     int n2 = n - n1;
 355:..\..\..\liblc3\src/bits.c **** 
 356:..\..\..\liblc3\src/bits.c ****     if (n2) {
 1257              		.loc 1 356 0
 1258 0080 B1EB0E01 		subs	r1, r1, lr
 1259              	.LVL124:
 1260 0084 37D0     		beq	.L95
 1261              	.LVL125:
 1262              	.LBB106:
 1263              	.LBB107:
 319:..\..\..\liblc3\src/bits.c **** 
 1264              		.loc 1 319 0
 1265 0086 EA68     		ldr	r2, [r5, #12]
 1266 0088 BC6A     		ldr	r4, [r7, #40]
 1267 008a 141B     		subs	r4, r2, r4
 1268 008c 5A68     		ldr	r2, [r3, #4]
 1269 008e D610     		asrs	r6, r2, #3
 1270 0090 B442     		cmp	r4, r6
 1271 0092 A8BF     		it	ge
 1272 0094 3446     		movge	r4, r6
 1273              	.LVL126:
 321:..\..\..\liblc3\src/bits.c **** 
 1274              		.loc 1 321 0
 1275 0096 A2EBC402 		sub	r2, r2, r4, lsl #3
 1276 009a 5A60     		str	r2, [r3, #4]
 1277 009c 0CE0     		b	.L96
 1278              	.L97:
 324:..\..\..\liblc3\src/bits.c ****         accu->v |= (unsigned)*(--buffer->p_bw) << (LC3_ACCU_BITS - 8);
 1279              		.loc 1 324 0
 1280 009e 1A68     		ldr	r2, [r3]
 1281 00a0 120A     		lsrs	r2, r2, #8
 1282 00a2 1A60     		str	r2, [r3]
 325:..\..\..\liblc3\src/bits.c ****     }
 1283              		.loc 1 325 0
 1284 00a4 EA68     		ldr	r2, [r5, #12]
 1285 00a6 561E     		subs	r6, r2, #1
 1286 00a8 EE60     		str	r6, [r5, #12]
 1287 00aa 12F8016C 		ldrb	r6, [r2, #-1]	@ zero_extendqisi2
 1288 00ae 1A68     		ldr	r2, [r3]
 1289 00b0 42EA0662 		orr	r2, r2, r6, lsl #24
 1290 00b4 1A60     		str	r2, [r3]
 323:..\..\..\liblc3\src/bits.c ****         accu->v >>= 8;
 1291              		.loc 1 323 0
 1292 00b6 013C     		subs	r4, r4, #1
 1293              	.LVL127:
 1294              	.L96:
ARM GAS  C:\Users\rdn\AppData\Local\Temp\ccZR1Dqi.s 			page 36


 1295 00b8 002C     		cmp	r4, #0
 1296 00ba F0D1     		bne	.L97
 328:..\..\..\liblc3\src/bits.c ****         accu->nover = LC3_MIN(accu->nover + accu->n, LC3_ACCU_BITS);
 1297              		.loc 1 328 0
 1298 00bc 5C68     		ldr	r4, [r3, #4]
 1299              	.LVL128:
 1300 00be 072C     		cmp	r4, #7
 1301 00c0 0BDD     		ble	.L98
 329:..\..\..\liblc3\src/bits.c ****         accu->v >>= accu->n;
 1302              		.loc 1 329 0
 1303 00c2 9A68     		ldr	r2, [r3, #8]
 1304 00c4 2244     		add	r2, r2, r4
 1305 00c6 202A     		cmp	r2, #32
 1306 00c8 A8BF     		it	ge
 1307 00ca 2022     		movge	r2, #32
 1308 00cc 9A60     		str	r2, [r3, #8]
 330:..\..\..\liblc3\src/bits.c ****         accu->n = 0;
 1309              		.loc 1 330 0
 1310 00ce FA69     		ldr	r2, [r7, #28]
 1311 00d0 22FA04F4 		lsr	r4, r2, r4
 1312 00d4 FC61     		str	r4, [r7, #28]
 331:..\..\..\liblc3\src/bits.c ****     }
 1313              		.loc 1 331 0
 1314 00d6 0022     		movs	r2, #0
 1315 00d8 5A60     		str	r2, [r3, #4]
 1316              	.L98:
 1317              	.LVL129:
 1318              	.LBE107:
 1319              	.LBE106:
 357:..\..\..\liblc3\src/bits.c ****         accu_load(accu, buffer);
 358:..\..\..\liblc3\src/bits.c **** 
 359:..\..\..\liblc3\src/bits.c ****         v |= ((accu->v >> accu->n) & ((1u << n2) - 1)) << n1;
 1320              		.loc 1 359 0
 1321 00da FB69     		ldr	r3, [r7, #28]
 1322              	.LVL130:
 1323 00dc 3A6A     		ldr	r2, [r7, #32]
 1324 00de 23FA02F4 		lsr	r4, r3, r2
 1325 00e2 0123     		movs	r3, #1
 1326 00e4 8B40     		lsls	r3, r3, r1
 1327 00e6 013B     		subs	r3, r3, #1
 1328 00e8 2340     		ands	r3, r3, r4
 1329 00ea 03FA0EFE 		lsl	lr, r3, lr
 1330              	.LVL131:
 1331 00ee 40EA0E00 		orr	r0, r0, lr
 1332              	.LVL132:
 360:..\..\..\liblc3\src/bits.c ****         accu->n += n2;
 1333              		.loc 1 360 0
 1334 00f2 1144     		add	r1, r1, r2
 1335              	.LVL133:
 1336 00f4 3962     		str	r1, [r7, #32]
 1337              	.L95:
 361:..\..\..\liblc3\src/bits.c ****     }
 362:..\..\..\liblc3\src/bits.c **** 
 363:..\..\..\liblc3\src/bits.c ****     return v;
 364:..\..\..\liblc3\src/bits.c **** }
 1338              		.loc 1 364 0
 1339 00f6 F0BD     		pop	{r4, r5, r6, r7, pc}
ARM GAS  C:\Users\rdn\AppData\Local\Temp\ccZR1Dqi.s 			page 37


 1340              		.cfi_endproc
 1341              	.LFE28:
 1342              		.size	lc3_get_bits_generic, .-lc3_get_bits_generic
 1343              		.section	.text.lc3_ac_read_renorm,"ax",%progbits
 1344              		.align	2
 1345              		.global	lc3_ac_read_renorm
 1346              		.thumb
 1347              		.thumb_func
 1348              		.type	lc3_ac_read_renorm, %function
 1349              	lc3_ac_read_renorm:
 1350              	.LFB29:
 365:..\..\..\liblc3\src/bits.c **** 
 366:..\..\..\liblc3\src/bits.c **** /**
 367:..\..\..\liblc3\src/bits.c ****  * Arithmetic coder renormalization
 368:..\..\..\liblc3\src/bits.c ****  */
 369:..\..\..\liblc3\src/bits.c **** LC3_HOT void lc3_ac_read_renorm(struct lc3_bits *bits)
 370:..\..\..\liblc3\src/bits.c **** {
 1351              		.loc 1 370 0
 1352              		.cfi_startproc
 1353              		@ args = 0, pretend = 0, frame = 0
 1354              		@ frame_needed = 0, uses_anonymous_args = 0
 1355              		@ link register save eliminated.
 1356              	.LVL134:
 1357 0000 10B4     		push	{r4}
 1358              		.cfi_def_cfa_offset 4
 1359              		.cfi_offset 4, -4
 1360              	.LVL135:
 371:..\..\..\liblc3\src/bits.c ****     struct lc3_bits_ac *ac = &bits->ac;
 372:..\..\..\liblc3\src/bits.c **** 
 373:..\..\..\liblc3\src/bits.c ****     for ( ; ac->range < 0x10000; ac->range <<= 8)
 1361              		.loc 1 373 0
 1362 0002 10E0     		b	.L101
 1363              	.L103:
 374:..\..\..\liblc3\src/bits.c ****         ac->low = ((ac->low << 8) | ac_get(&bits->buffer)) & 0xffffff;
 1364              		.loc 1 374 0 discriminator 2
 1365 0004 4368     		ldr	r3, [r0, #4]
 1366 0006 1B02     		lsls	r3, r3, #8
 1367              	.LVL136:
 1368              	.LBB108:
 1369              	.LBB109:
 308:..\..\..\liblc3\src/bits.c **** }
 1370              		.loc 1 308 0 discriminator 2
 1371 0008 016B     		ldr	r1, [r0, #48]
 1372 000a C46A     		ldr	r4, [r0, #44]
 1373 000c A142     		cmp	r1, r4
 1374 000e 03D2     		bcs	.L104
 308:..\..\..\liblc3\src/bits.c **** }
 1375              		.loc 1 308 0 is_stmt 0
 1376 0010 4C1C     		adds	r4, r1, #1
 1377 0012 0463     		str	r4, [r0, #48]
 1378 0014 0978     		ldrb	r1, [r1]	@ zero_extendqisi2
 1379 0016 00E0     		b	.L102
 1380              	.L104:
 1381 0018 0021     		movs	r1, #0
 1382              	.L102:
 1383              	.LVL137:
 1384              	.LBE109:
ARM GAS  C:\Users\rdn\AppData\Local\Temp\ccZR1Dqi.s 			page 38


 1385              	.LBE108:
 1386              		.loc 1 374 0 is_stmt 1
 1387 001a 0B43     		orrs	r3, r3, r1
 1388 001c 23F07F43 		bic	r3, r3, #-16777216
 1389 0020 4360     		str	r3, [r0, #4]
 373:..\..\..\liblc3\src/bits.c ****         ac->low = ((ac->low << 8) | ac_get(&bits->buffer)) & 0xffffff;
 1390              		.loc 1 373 0
 1391 0022 1202     		lsls	r2, r2, #8
 1392 0024 8260     		str	r2, [r0, #8]
 1393              	.L101:
 373:..\..\..\liblc3\src/bits.c ****         ac->low = ((ac->low << 8) | ac_get(&bits->buffer)) & 0xffffff;
 1394              		.loc 1 373 0 is_stmt 0 discriminator 1
 1395 0026 8268     		ldr	r2, [r0, #8]
 1396 0028 B2F5803F 		cmp	r2, #65536
 1397 002c EAD3     		bcc	.L103
 375:..\..\..\liblc3\src/bits.c **** }
 1398              		.loc 1 375 0 is_stmt 1
 1399 002e 5DF8044B 		ldr	r4, [sp], #4
 1400              		.cfi_restore 4
 1401              		.cfi_def_cfa_offset 0
 1402 0032 7047     		bx	lr
 1403              		.cfi_endproc
 1404              	.LFE29:
 1405              		.size	lc3_ac_read_renorm, .-lc3_ac_read_renorm
 1406              		.text
 1407              	.Letext0:
 1408              		.file 3 "c:\\program files (x86)\\cypress\\psoc creator\\4.4\\psoc creator\\import\\gnu\\arm\\5.4.
 1409              		.file 4 "c:\\program files (x86)\\cypress\\psoc creator\\4.4\\psoc creator\\import\\gnu\\arm\\5.4.
 1410              		.section	.debug_info,"",%progbits
 1411              	.Ldebug_info0:
 1412 0000 410B0000 		.4byte	0xb41
 1413 0004 0400     		.2byte	0x4
 1414 0006 00000000 		.4byte	.Ldebug_abbrev0
 1415 000a 04       		.byte	0x4
 1416 000b 01       		.uleb128 0x1
 1417 000c 77000000 		.4byte	.LASF63
 1418 0010 0C       		.byte	0xc
 1419 0011 2D030000 		.4byte	.LASF64
 1420 0015 66030000 		.4byte	.LASF65
 1421 0019 18000000 		.4byte	.Ldebug_ranges0+0x18
 1422 001d 00000000 		.4byte	0
 1423 0021 00000000 		.4byte	.Ldebug_line0
 1424 0025 02       		.uleb128 0x2
 1425 0026 01       		.byte	0x1
 1426 0027 06       		.byte	0x6
 1427 0028 5B020000 		.4byte	.LASF0
 1428 002c 03       		.uleb128 0x3
 1429 002d C9010000 		.4byte	.LASF8
 1430 0031 03       		.byte	0x3
 1431 0032 1D       		.byte	0x1d
 1432 0033 37000000 		.4byte	0x37
 1433 0037 02       		.uleb128 0x2
 1434 0038 01       		.byte	0x1
 1435 0039 08       		.byte	0x8
 1436 003a 1F020000 		.4byte	.LASF1
 1437 003e 02       		.uleb128 0x2
 1438 003f 02       		.byte	0x2
ARM GAS  C:\Users\rdn\AppData\Local\Temp\ccZR1Dqi.s 			page 39


 1439 0040 05       		.byte	0x5
 1440 0041 31000000 		.4byte	.LASF2
 1441 0045 02       		.uleb128 0x2
 1442 0046 02       		.byte	0x2
 1443 0047 07       		.byte	0x7
 1444 0048 D2020000 		.4byte	.LASF3
 1445 004c 02       		.uleb128 0x2
 1446 004d 04       		.byte	0x4
 1447 004e 05       		.byte	0x5
 1448 004f B6010000 		.4byte	.LASF4
 1449 0053 02       		.uleb128 0x2
 1450 0054 04       		.byte	0x4
 1451 0055 07       		.byte	0x7
 1452 0056 08030000 		.4byte	.LASF5
 1453 005a 02       		.uleb128 0x2
 1454 005b 08       		.byte	0x8
 1455 005c 05       		.byte	0x5
 1456 005d 2A010000 		.4byte	.LASF6
 1457 0061 02       		.uleb128 0x2
 1458 0062 08       		.byte	0x8
 1459 0063 07       		.byte	0x7
 1460 0064 67020000 		.4byte	.LASF7
 1461 0068 04       		.uleb128 0x4
 1462 0069 04       		.byte	0x4
 1463 006a 05       		.byte	0x5
 1464 006b 696E7400 		.ascii	"int\000"
 1465 006f 03       		.uleb128 0x3
 1466 0070 1A030000 		.4byte	.LASF9
 1467 0074 03       		.byte	0x3
 1468 0075 CA       		.byte	0xca
 1469 0076 7A000000 		.4byte	0x7a
 1470 007a 02       		.uleb128 0x2
 1471 007b 04       		.byte	0x4
 1472 007c 07       		.byte	0x7
 1473 007d 7E020000 		.4byte	.LASF10
 1474 0081 03       		.uleb128 0x3
 1475 0082 68010000 		.4byte	.LASF11
 1476 0086 04       		.byte	0x4
 1477 0087 18       		.byte	0x18
 1478 0088 2C000000 		.4byte	0x2c
 1479 008c 03       		.uleb128 0x3
 1480 008d 75010000 		.4byte	.LASF12
 1481 0091 04       		.byte	0x4
 1482 0092 48       		.byte	0x48
 1483 0093 6F000000 		.4byte	0x6f
 1484 0097 02       		.uleb128 0x2
 1485 0098 01       		.byte	0x1
 1486 0099 02       		.byte	0x2
 1487 009a E5020000 		.4byte	.LASF13
 1488 009e 02       		.uleb128 0x2
 1489 009f 04       		.byte	0x4
 1490 00a0 07       		.byte	0x7
 1491 00a1 3B000000 		.4byte	.LASF14
 1492 00a5 02       		.uleb128 0x2
 1493 00a6 04       		.byte	0x4
 1494 00a7 04       		.byte	0x4
 1495 00a8 85010000 		.4byte	.LASF15
ARM GAS  C:\Users\rdn\AppData\Local\Temp\ccZR1Dqi.s 			page 40


 1496 00ac 02       		.uleb128 0x2
 1497 00ad 08       		.byte	0x8
 1498 00ae 04       		.byte	0x4
 1499 00af 06020000 		.4byte	.LASF16
 1500 00b3 05       		.uleb128 0x5
 1501 00b4 04       		.byte	0x4
 1502 00b5 02       		.uleb128 0x2
 1503 00b6 01       		.byte	0x1
 1504 00b7 08       		.byte	0x8
 1505 00b8 C0020000 		.4byte	.LASF17
 1506 00bc 02       		.uleb128 0x2
 1507 00bd 08       		.byte	0x8
 1508 00be 04       		.byte	0x4
 1509 00bf 15000000 		.4byte	.LASF18
 1510 00c3 06       		.uleb128 0x6
 1511 00c4 63000000 		.4byte	.LASF66
 1512 00c8 01       		.byte	0x1
 1513 00c9 37000000 		.4byte	0x37
 1514 00cd 02       		.byte	0x2
 1515 00ce 45       		.byte	0x45
 1516 00cf E0000000 		.4byte	0xe0
 1517 00d3 07       		.uleb128 0x7
 1518 00d4 E8010000 		.4byte	.LASF19
 1519 00d8 00       		.byte	0
 1520 00d9 07       		.uleb128 0x7
 1521 00da A2010000 		.4byte	.LASF20
 1522 00de 01       		.byte	0x1
 1523 00df 00       		.byte	0
 1524 00e0 08       		.uleb128 0x8
 1525 00e1 5A010000 		.4byte	.LASF22
 1526 00e5 0C       		.byte	0xc
 1527 00e6 02       		.byte	0x2
 1528 00e7 5E       		.byte	0x5e
 1529 00e8 0D010000 		.4byte	0x10d
 1530 00ec 09       		.uleb128 0x9
 1531 00ed 7600     		.ascii	"v\000"
 1532 00ef 02       		.byte	0x2
 1533 00f0 5F       		.byte	0x5f
 1534 00f1 7A000000 		.4byte	0x7a
 1535 00f5 00       		.byte	0
 1536 00f6 09       		.uleb128 0x9
 1537 00f7 6E00     		.ascii	"n\000"
 1538 00f9 02       		.byte	0x2
 1539 00fa 60       		.byte	0x60
 1540 00fb 68000000 		.4byte	0x68
 1541 00ff 04       		.byte	0x4
 1542 0100 0A       		.uleb128 0xa
 1543 0101 71000000 		.4byte	.LASF21
 1544 0105 02       		.byte	0x2
 1545 0106 60       		.byte	0x60
 1546 0107 68000000 		.4byte	0x68
 1547 010b 08       		.byte	0x8
 1548 010c 00       		.byte	0
 1549 010d 08       		.uleb128 0x8
 1550 010e EB020000 		.4byte	.LASF23
 1551 0112 18       		.byte	0x18
 1552 0113 02       		.byte	0x2
ARM GAS  C:\Users\rdn\AppData\Local\Temp\ccZR1Dqi.s 			page 41


 1553 0114 65       		.byte	0x65
 1554 0115 62010000 		.4byte	0x162
 1555 0119 09       		.uleb128 0x9
 1556 011a 6C6F7700 		.ascii	"low\000"
 1557 011e 02       		.byte	0x2
 1558 011f 66       		.byte	0x66
 1559 0120 7A000000 		.4byte	0x7a
 1560 0124 00       		.byte	0
 1561 0125 0A       		.uleb128 0xa
 1562 0126 1C000000 		.4byte	.LASF24
 1563 012a 02       		.byte	0x2
 1564 012b 66       		.byte	0x66
 1565 012c 7A000000 		.4byte	0x7a
 1566 0130 04       		.byte	0x4
 1567 0131 0A       		.uleb128 0xa
 1568 0132 AB020000 		.4byte	.LASF25
 1569 0136 02       		.byte	0x2
 1570 0137 67       		.byte	0x67
 1571 0138 68000000 		.4byte	0x68
 1572 013c 08       		.byte	0x8
 1573 013d 0A       		.uleb128 0xa
 1574 013e BA020000 		.4byte	.LASF26
 1575 0142 02       		.byte	0x2
 1576 0143 67       		.byte	0x67
 1577 0144 68000000 		.4byte	0x68
 1578 0148 0C       		.byte	0xc
 1579 0149 0A       		.uleb128 0xa
 1580 014a 9F020000 		.4byte	.LASF27
 1581 014e 02       		.byte	0x2
 1582 014f 67       		.byte	0x67
 1583 0150 68000000 		.4byte	0x68
 1584 0154 10       		.byte	0x10
 1585 0155 0A       		.uleb128 0xa
 1586 0156 A7030000 		.4byte	.LASF28
 1587 015a 02       		.byte	0x2
 1588 015b 68       		.byte	0x68
 1589 015c 97000000 		.4byte	0x97
 1590 0160 14       		.byte	0x14
 1591 0161 00       		.byte	0
 1592 0162 08       		.uleb128 0x8
 1593 0163 44000000 		.4byte	.LASF29
 1594 0167 10       		.byte	0x10
 1595 0168 02       		.byte	0x2
 1596 0169 6B       		.byte	0x6b
 1597 016a 9F010000 		.4byte	0x19f
 1598 016e 0A       		.uleb128 0xa
 1599 016f 95010000 		.4byte	.LASF30
 1600 0173 02       		.byte	0x2
 1601 0174 6C       		.byte	0x6c
 1602 0175 9F010000 		.4byte	0x19f
 1603 0179 00       		.byte	0
 1604 017a 09       		.uleb128 0x9
 1605 017b 656E6400 		.ascii	"end\000"
 1606 017f 02       		.byte	0x2
 1607 0180 6C       		.byte	0x6c
 1608 0181 9F010000 		.4byte	0x19f
 1609 0185 04       		.byte	0x4
ARM GAS  C:\Users\rdn\AppData\Local\Temp\ccZR1Dqi.s 			page 42


 1610 0186 0A       		.uleb128 0xa
 1611 0187 C4010000 		.4byte	.LASF31
 1612 018b 02       		.byte	0x2
 1613 018c 6D       		.byte	0x6d
 1614 018d AA010000 		.4byte	0x1aa
 1615 0191 08       		.byte	0x8
 1616 0192 0A       		.uleb128 0xa
 1617 0193 8B010000 		.4byte	.LASF32
 1618 0197 02       		.byte	0x2
 1619 0198 6D       		.byte	0x6d
 1620 0199 AA010000 		.4byte	0x1aa
 1621 019d 0C       		.byte	0xc
 1622 019e 00       		.byte	0
 1623 019f 0B       		.uleb128 0xb
 1624 01a0 04       		.byte	0x4
 1625 01a1 A5010000 		.4byte	0x1a5
 1626 01a5 0C       		.uleb128 0xc
 1627 01a6 81000000 		.4byte	0x81
 1628 01aa 0B       		.uleb128 0xb
 1629 01ab 04       		.byte	0x4
 1630 01ac 81000000 		.4byte	0x81
 1631 01b0 08       		.uleb128 0x8
 1632 01b1 B1020000 		.4byte	.LASF33
 1633 01b5 38       		.byte	0x38
 1634 01b6 02       		.byte	0x2
 1635 01b7 70       		.byte	0x70
 1636 01b8 EC010000 		.4byte	0x1ec
 1637 01bc 0A       		.uleb128 0xa
 1638 01bd 38010000 		.4byte	.LASF34
 1639 01c1 02       		.byte	0x2
 1640 01c2 71       		.byte	0x71
 1641 01c3 C3000000 		.4byte	0xc3
 1642 01c7 00       		.byte	0
 1643 01c8 09       		.uleb128 0x9
 1644 01c9 616300   		.ascii	"ac\000"
 1645 01cc 02       		.byte	0x2
 1646 01cd 72       		.byte	0x72
 1647 01ce 0D010000 		.4byte	0x10d
 1648 01d2 04       		.byte	0x4
 1649 01d3 0A       		.uleb128 0xa
 1650 01d4 70010000 		.4byte	.LASF35
 1651 01d8 02       		.byte	0x2
 1652 01d9 73       		.byte	0x73
 1653 01da E0000000 		.4byte	0xe0
 1654 01de 1C       		.byte	0x1c
 1655 01df 0A       		.uleb128 0xa
 1656 01e0 F7020000 		.4byte	.LASF36
 1657 01e4 02       		.byte	0x2
 1658 01e5 74       		.byte	0x74
 1659 01e6 62010000 		.4byte	0x162
 1660 01ea 28       		.byte	0x28
 1661 01eb 00       		.byte	0
 1662 01ec 0D       		.uleb128 0xd
 1663 01ed 00000000 		.4byte	.LASF38
 1664 01f1 01       		.byte	0x1
 1665 01f2 9F       		.byte	0x9f
 1666 01f3 03       		.byte	0x3
ARM GAS  C:\Users\rdn\AppData\Local\Temp\ccZR1Dqi.s 			page 43


 1667 01f4 0F020000 		.4byte	0x20f
 1668 01f8 0E       		.uleb128 0xe
 1669 01f9 F7020000 		.4byte	.LASF36
 1670 01fd 01       		.byte	0x1
 1671 01fe 9F       		.byte	0x9f
 1672 01ff 0F020000 		.4byte	0x20f
 1673 0203 0E       		.uleb128 0xe
 1674 0204 48030000 		.4byte	.LASF37
 1675 0208 01       		.byte	0x1
 1676 0209 9F       		.byte	0x9f
 1677 020a 68000000 		.4byte	0x68
 1678 020e 00       		.byte	0
 1679 020f 0B       		.uleb128 0xb
 1680 0210 04       		.byte	0x4
 1681 0211 62010000 		.4byte	0x162
 1682 0215 0F       		.uleb128 0xf
 1683 0216 2D020000 		.4byte	.LASF67
 1684 021a 01       		.byte	0x1
 1685 021b 3201     		.2byte	0x132
 1686 021d 68000000 		.4byte	0x68
 1687 0221 03       		.byte	0x3
 1688 0222 33020000 		.4byte	0x233
 1689 0226 10       		.uleb128 0x10
 1690 0227 F7020000 		.4byte	.LASF36
 1691 022b 01       		.byte	0x1
 1692 022c 3201     		.2byte	0x132
 1693 022e 0F020000 		.4byte	0x20f
 1694 0232 00       		.byte	0
 1695 0233 0D       		.uleb128 0xd
 1696 0234 12020000 		.4byte	.LASF39
 1697 0238 02       		.byte	0x2
 1698 0239 DA       		.byte	0xda
 1699 023a 03       		.byte	0x3
 1700 023b 68020000 		.4byte	0x268
 1701 023f 0E       		.uleb128 0xe
 1702 0240 90010000 		.4byte	.LASF40
 1703 0244 02       		.byte	0x2
 1704 0245 DB       		.byte	0xdb
 1705 0246 68020000 		.4byte	0x268
 1706 024a 11       		.uleb128 0x11
 1707 024b 7600     		.ascii	"v\000"
 1708 024d 02       		.byte	0x2
 1709 024e DB       		.byte	0xdb
 1710 024f 7A000000 		.4byte	0x7a
 1711 0253 11       		.uleb128 0x11
 1712 0254 6E00     		.ascii	"n\000"
 1713 0256 02       		.byte	0x2
 1714 0257 DB       		.byte	0xdb
 1715 0258 68000000 		.4byte	0x68
 1716 025c 12       		.uleb128 0x12
 1717 025d 70010000 		.4byte	.LASF35
 1718 0261 02       		.byte	0x2
 1719 0262 DD       		.byte	0xdd
 1720 0263 6E020000 		.4byte	0x26e
 1721 0267 00       		.byte	0
 1722 0268 0B       		.uleb128 0xb
 1723 0269 04       		.byte	0x4
ARM GAS  C:\Users\rdn\AppData\Local\Temp\ccZR1Dqi.s 			page 44


 1724 026a B0010000 		.4byte	0x1b0
 1725 026e 0B       		.uleb128 0xb
 1726 026f 04       		.byte	0x4
 1727 0270 E0000000 		.4byte	0xe0
 1728 0274 13       		.uleb128 0x13
 1729 0275 49020000 		.4byte	.LASF42
 1730 0279 01       		.byte	0x1
 1731 027a 23       		.byte	0x23
 1732 027b 68000000 		.4byte	0x68
 1733 027f 00000000 		.4byte	.LFB13
 1734 0283 10000000 		.4byte	.LFE13-.LFB13
 1735 0287 01       		.uleb128 0x1
 1736 0288 9C       		.byte	0x9c
 1737 0289 BC020000 		.4byte	0x2bc
 1738 028d 14       		.uleb128 0x14
 1739 028e 616300   		.ascii	"ac\000"
 1740 0291 01       		.byte	0x1
 1741 0292 23       		.byte	0x23
 1742 0293 BC020000 		.4byte	0x2bc
 1743 0297 00000000 		.4byte	.LLST0
 1744 029b 15       		.uleb128 0x15
 1745 029c 7F010000 		.4byte	.LASF41
 1746 02a0 01       		.byte	0x1
 1747 02a1 25       		.byte	0x25
 1748 02a2 68000000 		.4byte	0x68
 1749 02a6 21000000 		.4byte	.LLST1
 1750 02aa 16       		.uleb128 0x16
 1751 02ab 00000000 		.4byte	.Ldebug_ranges0+0
 1752 02af 17       		.uleb128 0x17
 1753 02b0 7200     		.ascii	"r\000"
 1754 02b2 01       		.byte	0x1
 1755 02b3 27       		.byte	0x27
 1756 02b4 7A000000 		.4byte	0x7a
 1757 02b8 01       		.uleb128 0x1
 1758 02b9 53       		.byte	0x53
 1759 02ba 00       		.byte	0
 1760 02bb 00       		.byte	0
 1761 02bc 0B       		.uleb128 0xb
 1762 02bd 04       		.byte	0x4
 1763 02be C2020000 		.4byte	0x2c2
 1764 02c2 0C       		.uleb128 0xc
 1765 02c3 0D010000 		.4byte	0x10d
 1766 02c7 13       		.uleb128 0x13
 1767 02c8 52030000 		.4byte	.LASF43
 1768 02cc 01       		.byte	0x1
 1769 02cd 31       		.byte	0x31
 1770 02ce 68000000 		.4byte	0x68
 1771 02d2 00000000 		.4byte	.LFB14
 1772 02d6 1C000000 		.4byte	.LFE14-.LFB14
 1773 02da 01       		.uleb128 0x1
 1774 02db 9C       		.byte	0x9c
 1775 02dc FF020000 		.4byte	0x2ff
 1776 02e0 14       		.uleb128 0x14
 1777 02e1 616300   		.ascii	"ac\000"
 1778 02e4 01       		.byte	0x1
 1779 02e5 31       		.byte	0x31
 1780 02e6 BC020000 		.4byte	0x2bc
ARM GAS  C:\Users\rdn\AppData\Local\Temp\ccZR1Dqi.s 			page 45


 1781 02ea 40000000 		.4byte	.LLST2
 1782 02ee 18       		.uleb128 0x18
 1783 02ef 08000000 		.4byte	.LVL7
 1784 02f3 74020000 		.4byte	0x274
 1785 02f7 19       		.uleb128 0x19
 1786 02f8 01       		.uleb128 0x1
 1787 02f9 50       		.byte	0x50
 1788 02fa 02       		.uleb128 0x2
 1789 02fb 74       		.byte	0x74
 1790 02fc 00       		.sleb128 0
 1791 02fd 00       		.byte	0
 1792 02fe 00       		.byte	0
 1793 02ff 13       		.uleb128 0x13
 1794 0300 07000000 		.4byte	.LASF44
 1795 0304 01       		.byte	0x1
 1796 0305 3C       		.byte	0x3c
 1797 0306 68000000 		.4byte	0x68
 1798 030a 00000000 		.4byte	.LFB15
 1799 030e 3C000000 		.4byte	.LFE15-.LFB15
 1800 0312 01       		.uleb128 0x1
 1801 0313 9C       		.byte	0x9c
 1802 0314 88030000 		.4byte	0x388
 1803 0318 1A       		.uleb128 0x1a
 1804 0319 90010000 		.4byte	.LASF40
 1805 031d 01       		.byte	0x1
 1806 031e 3C       		.byte	0x3c
 1807 031f 88030000 		.4byte	0x388
 1808 0323 5E000000 		.4byte	.LLST3
 1809 0327 15       		.uleb128 0x15
 1810 0328 F7020000 		.4byte	.LASF36
 1811 032c 01       		.byte	0x1
 1812 032d 3E       		.byte	0x3e
 1813 032e 93030000 		.4byte	0x393
 1814 0332 8A000000 		.4byte	.LLST4
 1815 0336 15       		.uleb128 0x15
 1816 0337 70010000 		.4byte	.LASF35
 1817 033b 01       		.byte	0x1
 1818 033c 3F       		.byte	0x3f
 1819 033d 9E030000 		.4byte	0x39e
 1820 0341 BC000000 		.4byte	.LLST5
 1821 0345 1B       		.uleb128 0x1b
 1822 0346 616300   		.ascii	"ac\000"
 1823 0349 01       		.byte	0x1
 1824 034a 40       		.byte	0x40
 1825 034b BC020000 		.4byte	0x2bc
 1826 034f EE000000 		.4byte	.LLST6
 1827 0353 1B       		.uleb128 0x1b
 1828 0354 656E6400 		.ascii	"end\000"
 1829 0358 01       		.byte	0x1
 1830 0359 42       		.byte	0x42
 1831 035a 8C000000 		.4byte	0x8c
 1832 035e 11010000 		.4byte	.LLST7
 1833 0362 15       		.uleb128 0x15
 1834 0363 95010000 		.4byte	.LASF30
 1835 0367 01       		.byte	0x1
 1836 0368 45       		.byte	0x45
 1837 0369 8C000000 		.4byte	0x8c
ARM GAS  C:\Users\rdn\AppData\Local\Temp\ccZR1Dqi.s 			page 46


 1838 036d 2F010000 		.4byte	.LLST8
 1839 0371 1B       		.uleb128 0x1b
 1840 0372 6E00     		.ascii	"n\000"
 1841 0374 01       		.byte	0x1
 1842 0375 48       		.byte	0x48
 1843 0376 68000000 		.4byte	0x68
 1844 037a 42010000 		.4byte	.LLST9
 1845 037e 1C       		.uleb128 0x1c
 1846 037f 36000000 		.4byte	.LVL18
 1847 0383 C7020000 		.4byte	0x2c7
 1848 0387 00       		.byte	0
 1849 0388 0B       		.uleb128 0xb
 1850 0389 04       		.byte	0x4
 1851 038a 8E030000 		.4byte	0x38e
 1852 038e 0C       		.uleb128 0xc
 1853 038f B0010000 		.4byte	0x1b0
 1854 0393 0B       		.uleb128 0xb
 1855 0394 04       		.byte	0x4
 1856 0395 99030000 		.4byte	0x399
 1857 0399 0C       		.uleb128 0xc
 1858 039a 62010000 		.4byte	0x162
 1859 039e 0B       		.uleb128 0xb
 1860 039f 04       		.byte	0x4
 1861 03a0 A4030000 		.4byte	0x3a4
 1862 03a4 0C       		.uleb128 0xc
 1863 03a5 E0000000 		.4byte	0xe0
 1864 03a9 0D       		.uleb128 0xd
 1865 03aa 9E030000 		.4byte	.LASF45
 1866 03ae 01       		.byte	0x1
 1867 03af AA       		.byte	0xaa
 1868 03b0 03       		.byte	0x3
 1869 03b1 CB030000 		.4byte	0x3cb
 1870 03b5 11       		.uleb128 0x11
 1871 03b6 616300   		.ascii	"ac\000"
 1872 03b9 01       		.byte	0x1
 1873 03ba AB       		.byte	0xab
 1874 03bb CB030000 		.4byte	0x3cb
 1875 03bf 0E       		.uleb128 0xe
 1876 03c0 F7020000 		.4byte	.LASF36
 1877 03c4 01       		.byte	0x1
 1878 03c5 AB       		.byte	0xab
 1879 03c6 0F020000 		.4byte	0x20f
 1880 03ca 00       		.byte	0
 1881 03cb 0B       		.uleb128 0xb
 1882 03cc 04       		.byte	0x4
 1883 03cd 0D010000 		.4byte	0x10d
 1884 03d1 1D       		.uleb128 0x1d
 1885 03d2 C5020000 		.4byte	.LASF68
 1886 03d6 01       		.byte	0x1
 1887 03d7 C4       		.byte	0xc4
 1888 03d8 00000000 		.4byte	.LFB22
 1889 03dc A2010000 		.4byte	.LFE22-.LFB22
 1890 03e0 01       		.uleb128 0x1
 1891 03e1 9C       		.byte	0x9c
 1892 03e2 A3050000 		.4byte	0x5a3
 1893 03e6 14       		.uleb128 0x14
 1894 03e7 616300   		.ascii	"ac\000"
ARM GAS  C:\Users\rdn\AppData\Local\Temp\ccZR1Dqi.s 			page 47


 1895 03ea 01       		.byte	0x1
 1896 03eb C4       		.byte	0xc4
 1897 03ec CB030000 		.4byte	0x3cb
 1898 03f0 55010000 		.4byte	.LLST10
 1899 03f4 1A       		.uleb128 0x1a
 1900 03f5 F7020000 		.4byte	.LASF36
 1901 03f9 01       		.byte	0x1
 1902 03fa C5       		.byte	0xc5
 1903 03fb 0F020000 		.4byte	0x20f
 1904 03ff 73010000 		.4byte	.LLST11
 1905 0403 15       		.uleb128 0x15
 1906 0404 7F010000 		.4byte	.LASF41
 1907 0408 01       		.byte	0x1
 1908 0409 C7       		.byte	0xc7
 1909 040a 68000000 		.4byte	0x68
 1910 040e 91010000 		.4byte	.LLST12
 1911 0412 15       		.uleb128 0x15
 1912 0413 4D030000 		.4byte	.LASF46
 1913 0417 01       		.byte	0x1
 1914 0418 C8       		.byte	0xc8
 1915 0419 7A000000 		.4byte	0x7a
 1916 041d A4010000 		.4byte	.LLST13
 1917 0421 1B       		.uleb128 0x1b
 1918 0422 76616C00 		.ascii	"val\000"
 1919 0426 01       		.byte	0x1
 1920 0427 C9       		.byte	0xc9
 1921 0428 7A000000 		.4byte	0x7a
 1922 042c B7010000 		.4byte	.LLST14
 1923 0430 15       		.uleb128 0x15
 1924 0431 BF010000 		.4byte	.LASF47
 1925 0435 01       		.byte	0x1
 1926 0436 CA       		.byte	0xca
 1927 0437 7A000000 		.4byte	0x7a
 1928 043b 1A020000 		.4byte	.LLST15
 1929 043f 1E       		.uleb128 0x1e
 1930 0440 C7030000 		.4byte	.LASF48
 1931 0444 01       		.byte	0x1
 1932 0445 CC       		.byte	0xcc
 1933 0446 97000000 		.4byte	0x97
 1934 044a 01       		.uleb128 0x1
 1935 044b 5C       		.byte	0x5c
 1936 044c 15       		.uleb128 0x15
 1937 044d 50010000 		.4byte	.LASF49
 1938 0451 01       		.byte	0x1
 1939 0452 CD       		.byte	0xcd
 1940 0453 97000000 		.4byte	0x97
 1941 0457 62020000 		.4byte	.LLST16
 1942 045b 15       		.uleb128 0x15
 1943 045c BF030000 		.4byte	.LASF50
 1944 0460 01       		.byte	0x1
 1945 0461 E3       		.byte	0xe3
 1946 0462 68000000 		.4byte	0x68
 1947 0466 75020000 		.4byte	.LLST17
 1948 046a 1F       		.uleb128 0x1f
 1949 046b A9030000 		.4byte	0x3a9
 1950 046f 70000000 		.4byte	.LBB40
 1951 0473 64000000 		.4byte	.LBE40-.LBB40
ARM GAS  C:\Users\rdn\AppData\Local\Temp\ccZR1Dqi.s 			page 48


 1952 0477 01       		.byte	0x1
 1953 0478 E0       		.byte	0xe0
 1954 0479 D8040000 		.4byte	0x4d8
 1955 047d 20       		.uleb128 0x20
 1956 047e BF030000 		.4byte	0x3bf
 1957 0482 A3020000 		.4byte	.LLST18
 1958 0486 20       		.uleb128 0x20
 1959 0487 B5030000 		.4byte	0x3b5
 1960 048b B6020000 		.4byte	.LLST19
 1961 048f 1F       		.uleb128 0x1f
 1962 0490 EC010000 		.4byte	0x1ec
 1963 0494 86000000 		.4byte	.LBB42
 1964 0498 10000000 		.4byte	.LBE42-.LBB42
 1965 049c 01       		.byte	0x1
 1966 049d B0       		.byte	0xb0
 1967 049e B5040000 		.4byte	0x4b5
 1968 04a2 20       		.uleb128 0x20
 1969 04a3 03020000 		.4byte	0x203
 1970 04a7 C9020000 		.4byte	.LLST20
 1971 04ab 20       		.uleb128 0x20
 1972 04ac F8010000 		.4byte	0x1f8
 1973 04b0 DC020000 		.4byte	.LLST21
 1974 04b4 00       		.byte	0
 1975 04b5 21       		.uleb128 0x21
 1976 04b6 EC010000 		.4byte	0x1ec
 1977 04ba A0000000 		.4byte	.LBB44
 1978 04be 0E000000 		.4byte	.LBE44-.LBB44
 1979 04c2 01       		.byte	0x1
 1980 04c3 B3       		.byte	0xb3
 1981 04c4 20       		.uleb128 0x20
 1982 04c5 03020000 		.4byte	0x203
 1983 04c9 EF020000 		.4byte	.LLST22
 1984 04cd 20       		.uleb128 0x20
 1985 04ce F8010000 		.4byte	0x1f8
 1986 04d2 02030000 		.4byte	.LLST23
 1987 04d6 00       		.byte	0
 1988 04d7 00       		.byte	0
 1989 04d8 1F       		.uleb128 0x1f
 1990 04d9 A9030000 		.4byte	0x3a9
 1991 04dd DA000000 		.4byte	.LBB46
 1992 04e1 64000000 		.4byte	.LBE46-.LBB46
 1993 04e5 01       		.byte	0x1
 1994 04e6 E1       		.byte	0xe1
 1995 04e7 46050000 		.4byte	0x546
 1996 04eb 20       		.uleb128 0x20
 1997 04ec BF030000 		.4byte	0x3bf
 1998 04f0 15030000 		.4byte	.LLST24
 1999 04f4 20       		.uleb128 0x20
 2000 04f5 B5030000 		.4byte	0x3b5
 2001 04f9 28030000 		.4byte	.LLST25
 2002 04fd 1F       		.uleb128 0x1f
 2003 04fe EC010000 		.4byte	0x1ec
 2004 0502 F0000000 		.4byte	.LBB48
 2005 0506 10000000 		.4byte	.LBE48-.LBB48
 2006 050a 01       		.byte	0x1
 2007 050b B0       		.byte	0xb0
 2008 050c 23050000 		.4byte	0x523
ARM GAS  C:\Users\rdn\AppData\Local\Temp\ccZR1Dqi.s 			page 49


 2009 0510 20       		.uleb128 0x20
 2010 0511 03020000 		.4byte	0x203
 2011 0515 3B030000 		.4byte	.LLST26
 2012 0519 20       		.uleb128 0x20
 2013 051a F8010000 		.4byte	0x1f8
 2014 051e 4E030000 		.4byte	.LLST27
 2015 0522 00       		.byte	0
 2016 0523 21       		.uleb128 0x21
 2017 0524 EC010000 		.4byte	0x1ec
 2018 0528 0A010000 		.4byte	.LBB50
 2019 052c 0E000000 		.4byte	.LBE50-.LBB50
 2020 0530 01       		.byte	0x1
 2021 0531 B3       		.byte	0xb3
 2022 0532 20       		.uleb128 0x20
 2023 0533 03020000 		.4byte	0x203
 2024 0537 61030000 		.4byte	.LLST28
 2025 053b 20       		.uleb128 0x20
 2026 053c F8010000 		.4byte	0x1f8
 2027 0540 74030000 		.4byte	.LLST29
 2028 0544 00       		.byte	0
 2029 0545 00       		.byte	0
 2030 0546 1F       		.uleb128 0x1f
 2031 0547 EC010000 		.4byte	0x1ec
 2032 054b 4C010000 		.4byte	.LBB52
 2033 054f 10000000 		.4byte	.LBE52-.LBB52
 2034 0553 01       		.byte	0x1
 2035 0554 E6       		.byte	0xe6
 2036 0555 6C050000 		.4byte	0x56c
 2037 0559 20       		.uleb128 0x20
 2038 055a 03020000 		.4byte	0x203
 2039 055e 87030000 		.4byte	.LLST30
 2040 0562 20       		.uleb128 0x20
 2041 0563 F8010000 		.4byte	0x1f8
 2042 0567 9A030000 		.4byte	.LLST31
 2043 056b 00       		.byte	0
 2044 056c 1F       		.uleb128 0x1f
 2045 056d EC010000 		.4byte	0x1ec
 2046 0571 5C010000 		.4byte	.LBB54
 2047 0575 10000000 		.4byte	.LBE54-.LBB54
 2048 0579 01       		.byte	0x1
 2049 057a E8       		.byte	0xe8
 2050 057b 92050000 		.4byte	0x592
 2051 057f 20       		.uleb128 0x20
 2052 0580 03020000 		.4byte	0x203
 2053 0584 AD030000 		.4byte	.LLST32
 2054 0588 20       		.uleb128 0x20
 2055 0589 F8010000 		.4byte	0x1f8
 2056 058d C2030000 		.4byte	.LLST33
 2057 0591 00       		.byte	0
 2058 0592 18       		.uleb128 0x18
 2059 0593 0A000000 		.4byte	.LVL20
 2060 0597 74020000 		.4byte	0x274
 2061 059b 19       		.uleb128 0x19
 2062 059c 01       		.uleb128 0x1
 2063 059d 50       		.byte	0x50
 2064 059e 02       		.uleb128 0x2
 2065 059f 74       		.byte	0x74
ARM GAS  C:\Users\rdn\AppData\Local\Temp\ccZR1Dqi.s 			page 50


 2066 05a0 00       		.sleb128 0
 2067 05a1 00       		.byte	0
 2068 05a2 00       		.byte	0
 2069 05a3 22       		.uleb128 0x22
 2070 05a4 FE020000 		.4byte	.LASF51
 2071 05a8 01       		.byte	0x1
 2072 05a9 3C01     		.2byte	0x13c
 2073 05ab 03       		.byte	0x3
 2074 05ac D5050000 		.4byte	0x5d5
 2075 05b0 10       		.uleb128 0x10
 2076 05b1 70010000 		.4byte	.LASF35
 2077 05b5 01       		.byte	0x1
 2078 05b6 3C01     		.2byte	0x13c
 2079 05b8 6E020000 		.4byte	0x26e
 2080 05bc 10       		.uleb128 0x10
 2081 05bd F7020000 		.4byte	.LASF36
 2082 05c1 01       		.byte	0x1
 2083 05c2 3D01     		.2byte	0x13d
 2084 05c4 0F020000 		.4byte	0x20f
 2085 05c8 23       		.uleb128 0x23
 2086 05c9 26030000 		.4byte	.LASF52
 2087 05cd 01       		.byte	0x1
 2088 05ce 3F01     		.2byte	0x13f
 2089 05d0 68000000 		.4byte	0x68
 2090 05d4 00       		.byte	0
 2091 05d5 24       		.uleb128 0x24
 2092 05d6 54000000 		.4byte	.LASF56
 2093 05da 01       		.byte	0x1
 2094 05db 50       		.byte	0x50
 2095 05dc 00000000 		.4byte	.LFB16
 2096 05e0 DC000000 		.4byte	.LFE16-.LFB16
 2097 05e4 01       		.uleb128 0x1
 2098 05e5 9C       		.byte	0x9c
 2099 05e6 08070000 		.4byte	0x708
 2100 05ea 1A       		.uleb128 0x1a
 2101 05eb 90010000 		.4byte	.LASF40
 2102 05ef 01       		.byte	0x1
 2103 05f0 50       		.byte	0x50
 2104 05f1 68020000 		.4byte	0x268
 2105 05f5 D5030000 		.4byte	.LLST34
 2106 05f9 1A       		.uleb128 0x1a
 2107 05fa 38010000 		.4byte	.LASF34
 2108 05fe 01       		.byte	0x1
 2109 05ff 51       		.byte	0x51
 2110 0600 C3000000 		.4byte	0xc3
 2111 0604 F3030000 		.4byte	.LLST35
 2112 0608 1A       		.uleb128 0x1a
 2113 0609 F7020000 		.4byte	.LASF36
 2114 060d 01       		.byte	0x1
 2115 060e 51       		.byte	0x51
 2116 060f B3000000 		.4byte	0xb3
 2117 0613 14040000 		.4byte	.LLST36
 2118 0617 14       		.uleb128 0x14
 2119 0618 6C656E00 		.ascii	"len\000"
 2120 061c 01       		.byte	0x1
 2121 061d 51       		.byte	0x51
 2122 061e 68000000 		.4byte	0x68
ARM GAS  C:\Users\rdn\AppData\Local\Temp\ccZR1Dqi.s 			page 51


 2123 0622 61040000 		.4byte	.LLST37
 2124 0626 25       		.uleb128 0x25
 2125 0627 40000000 		.4byte	.LBB65
 2126 062b 9C000000 		.4byte	.LBE65-.LBB65
 2127 062f EC060000 		.4byte	0x6ec
 2128 0633 1B       		.uleb128 0x1b
 2129 0634 616300   		.ascii	"ac\000"
 2130 0637 01       		.byte	0x1
 2131 0638 63       		.byte	0x63
 2132 0639 CB030000 		.4byte	0x3cb
 2133 063d 82040000 		.4byte	.LLST38
 2134 0641 15       		.uleb128 0x15
 2135 0642 70010000 		.4byte	.LASF35
 2136 0646 01       		.byte	0x1
 2137 0647 64       		.byte	0x64
 2138 0648 6E020000 		.4byte	0x26e
 2139 064c 97040000 		.4byte	.LLST39
 2140 0650 15       		.uleb128 0x15
 2141 0651 F7020000 		.4byte	.LASF36
 2142 0655 01       		.byte	0x1
 2143 0656 65       		.byte	0x65
 2144 0657 0F020000 		.4byte	0x20f
 2145 065b AA040000 		.4byte	.LLST40
 2146 065f 1F       		.uleb128 0x1f
 2147 0660 15020000 		.4byte	0x215
 2148 0664 48000000 		.4byte	.LBB66
 2149 0668 0E000000 		.4byte	.LBE66-.LBB66
 2150 066c 01       		.byte	0x1
 2151 066d 67       		.byte	0x67
 2152 066e 7C060000 		.4byte	0x67c
 2153 0672 20       		.uleb128 0x20
 2154 0673 26020000 		.4byte	0x226
 2155 0677 BD040000 		.4byte	.LLST41
 2156 067b 00       		.byte	0
 2157 067c 1F       		.uleb128 0x1f
 2158 067d 15020000 		.4byte	0x215
 2159 0681 5A000000 		.4byte	.LBB68
 2160 0685 10000000 		.4byte	.LBE68-.LBB68
 2161 0689 01       		.byte	0x1
 2162 068a 68       		.byte	0x68
 2163 068b 99060000 		.4byte	0x699
 2164 068f 20       		.uleb128 0x20
 2165 0690 26020000 		.4byte	0x226
 2166 0694 D0040000 		.4byte	.LLST42
 2167 0698 00       		.byte	0
 2168 0699 1F       		.uleb128 0x1f
 2169 069a 15020000 		.4byte	0x215
 2170 069e 70000000 		.4byte	.LBB70
 2171 06a2 10000000 		.4byte	.LBE70-.LBB70
 2172 06a6 01       		.byte	0x1
 2173 06a7 69       		.byte	0x69
 2174 06a8 B6060000 		.4byte	0x6b6
 2175 06ac 20       		.uleb128 0x20
 2176 06ad 26020000 		.4byte	0x226
 2177 06b1 E3040000 		.4byte	.LLST43
 2178 06b5 00       		.byte	0
 2179 06b6 21       		.uleb128 0x21
ARM GAS  C:\Users\rdn\AppData\Local\Temp\ccZR1Dqi.s 			page 52


 2180 06b7 A3050000 		.4byte	0x5a3
 2181 06bb 84000000 		.4byte	.LBB72
 2182 06bf 58000000 		.4byte	.LBE72-.LBB72
 2183 06c3 01       		.byte	0x1
 2184 06c4 6B       		.byte	0x6b
 2185 06c5 20       		.uleb128 0x20
 2186 06c6 BC050000 		.4byte	0x5bc
 2187 06ca F6040000 		.4byte	.LLST44
 2188 06ce 20       		.uleb128 0x20
 2189 06cf B0050000 		.4byte	0x5b0
 2190 06d3 09050000 		.4byte	.LLST45
 2191 06d7 26       		.uleb128 0x26
 2192 06d8 84000000 		.4byte	.LBB73
 2193 06dc 58000000 		.4byte	.LBE73-.LBB73
 2194 06e0 27       		.uleb128 0x27
 2195 06e1 C8050000 		.4byte	0x5c8
 2196 06e5 1C050000 		.4byte	.LLST46
 2197 06e9 00       		.byte	0
 2198 06ea 00       		.byte	0
 2199 06eb 00       		.byte	0
 2200 06ec 18       		.uleb128 0x18
 2201 06ed 22000000 		.4byte	.LVL61
 2202 06f1 3B0B0000 		.4byte	0xb3b
 2203 06f5 19       		.uleb128 0x19
 2204 06f6 01       		.uleb128 0x1
 2205 06f7 50       		.byte	0x50
 2206 06f8 02       		.uleb128 0x2
 2207 06f9 74       		.byte	0x74
 2208 06fa 00       		.sleb128 0
 2209 06fb 19       		.uleb128 0x19
 2210 06fc 01       		.uleb128 0x1
 2211 06fd 51       		.byte	0x51
 2212 06fe 01       		.uleb128 0x1
 2213 06ff 30       		.byte	0x30
 2214 0700 19       		.uleb128 0x19
 2215 0701 01       		.uleb128 0x1
 2216 0702 52       		.byte	0x52
 2217 0703 02       		.uleb128 0x2
 2218 0704 08       		.byte	0x8
 2219 0705 38       		.byte	0x38
 2220 0706 00       		.byte	0
 2221 0707 00       		.byte	0
 2222 0708 28       		.uleb128 0x28
 2223 0709 AD030000 		.4byte	.LASF53
 2224 070d 01       		.byte	0x1
 2225 070e 72       		.byte	0x72
 2226 070f 68000000 		.4byte	0x68
 2227 0713 00000000 		.4byte	.LFB17
 2228 0717 0E000000 		.4byte	.LFE17-.LFB17
 2229 071b 01       		.uleb128 0x1
 2230 071c 9C       		.byte	0x9c
 2231 071d 42070000 		.4byte	0x742
 2232 0721 1A       		.uleb128 0x1a
 2233 0722 90010000 		.4byte	.LASF40
 2234 0726 01       		.byte	0x1
 2235 0727 72       		.byte	0x72
 2236 0728 88030000 		.4byte	0x388
ARM GAS  C:\Users\rdn\AppData\Local\Temp\ccZR1Dqi.s 			page 53


 2237 072c 2F050000 		.4byte	.LLST47
 2238 0730 18       		.uleb128 0x18
 2239 0731 06000000 		.4byte	.LVL78
 2240 0735 FF020000 		.4byte	0x2ff
 2241 0739 19       		.uleb128 0x19
 2242 073a 01       		.uleb128 0x1
 2243 073b 50       		.byte	0x50
 2244 073c 03       		.uleb128 0x3
 2245 073d F3       		.byte	0xf3
 2246 073e 01       		.uleb128 0x1
 2247 073f 50       		.byte	0x50
 2248 0740 00       		.byte	0
 2249 0741 00       		.byte	0
 2250 0742 28       		.uleb128 0x28
 2251 0743 D6030000 		.4byte	.LASF54
 2252 0747 01       		.byte	0x1
 2253 0748 7A       		.byte	0x7a
 2254 0749 68000000 		.4byte	0x68
 2255 074d 00000000 		.4byte	.LFB18
 2256 0751 1E000000 		.4byte	.LFE18-.LFB18
 2257 0755 01       		.uleb128 0x1
 2258 0756 9C       		.byte	0x9c
 2259 0757 89070000 		.4byte	0x789
 2260 075b 1A       		.uleb128 0x1a
 2261 075c 90010000 		.4byte	.LASF40
 2262 0760 01       		.byte	0x1
 2263 0761 7A       		.byte	0x7a
 2264 0762 88030000 		.4byte	0x388
 2265 0766 50050000 		.4byte	.LLST48
 2266 076a 1B       		.uleb128 0x1b
 2267 076b 616300   		.ascii	"ac\000"
 2268 076e 01       		.byte	0x1
 2269 076f 7C       		.byte	0x7c
 2270 0770 BC020000 		.4byte	0x2bc
 2271 0774 6E050000 		.4byte	.LLST49
 2272 0778 18       		.uleb128 0x18
 2273 0779 08000000 		.4byte	.LVL81
 2274 077d FF020000 		.4byte	0x2ff
 2275 0781 19       		.uleb128 0x19
 2276 0782 01       		.uleb128 0x1
 2277 0783 50       		.byte	0x50
 2278 0784 02       		.uleb128 0x2
 2279 0785 74       		.byte	0x74
 2280 0786 00       		.sleb128 0
 2281 0787 00       		.byte	0
 2282 0788 00       		.byte	0
 2283 0789 0D       		.uleb128 0xd
 2284 078a FB010000 		.4byte	.LASF55
 2285 078e 01       		.byte	0x1
 2286 078f 8B       		.byte	0x8b
 2287 0790 03       		.byte	0x3
 2288 0791 B7070000 		.4byte	0x7b7
 2289 0795 0E       		.uleb128 0xe
 2290 0796 70010000 		.4byte	.LASF35
 2291 079a 01       		.byte	0x1
 2292 079b 8C       		.byte	0x8c
 2293 079c 6E020000 		.4byte	0x26e
ARM GAS  C:\Users\rdn\AppData\Local\Temp\ccZR1Dqi.s 			page 54


 2294 07a0 0E       		.uleb128 0xe
 2295 07a1 F7020000 		.4byte	.LASF36
 2296 07a5 01       		.byte	0x1
 2297 07a6 8C       		.byte	0x8c
 2298 07a7 0F020000 		.4byte	0x20f
 2299 07ab 12       		.uleb128 0x12
 2300 07ac 26030000 		.4byte	.LASF52
 2301 07b0 01       		.byte	0x1
 2302 07b1 8E       		.byte	0x8e
 2303 07b2 68000000 		.4byte	0x68
 2304 07b6 00       		.byte	0
 2305 07b7 29       		.uleb128 0x29
 2306 07b8 D3010000 		.4byte	.LASF57
 2307 07bc 01       		.byte	0x1
 2308 07bd 0901     		.2byte	0x109
 2309 07bf 00000000 		.4byte	.LFB24
 2310 07c3 76000000 		.4byte	.LFE24-.LFB24
 2311 07c7 01       		.uleb128 0x1
 2312 07c8 9C       		.byte	0x9c
 2313 07c9 49080000 		.4byte	0x849
 2314 07cd 2A       		.uleb128 0x2a
 2315 07ce 90010000 		.4byte	.LASF40
 2316 07d2 01       		.byte	0x1
 2317 07d3 0901     		.2byte	0x109
 2318 07d5 68020000 		.4byte	0x268
 2319 07d9 01       		.uleb128 0x1
 2320 07da 50       		.byte	0x50
 2321 07db 2B       		.uleb128 0x2b
 2322 07dc 7600     		.ascii	"v\000"
 2323 07de 01       		.byte	0x1
 2324 07df 0901     		.2byte	0x109
 2325 07e1 7A000000 		.4byte	0x7a
 2326 07e5 90050000 		.4byte	.LLST50
 2327 07e9 2B       		.uleb128 0x2b
 2328 07ea 6E00     		.ascii	"n\000"
 2329 07ec 01       		.byte	0x1
 2330 07ed 0901     		.2byte	0x109
 2331 07ef 68000000 		.4byte	0x68
 2332 07f3 B1050000 		.4byte	.LLST51
 2333 07f7 2C       		.uleb128 0x2c
 2334 07f8 70010000 		.4byte	.LASF35
 2335 07fc 01       		.byte	0x1
 2336 07fd 0B01     		.2byte	0x10b
 2337 07ff 6E020000 		.4byte	0x26e
 2338 0803 01       		.uleb128 0x1
 2339 0804 55       		.byte	0x55
 2340 0805 2D       		.uleb128 0x2d
 2341 0806 6E3100   		.ascii	"n1\000"
 2342 0809 01       		.byte	0x1
 2343 080a 0F01     		.2byte	0x10f
 2344 080c 68000000 		.4byte	0x68
 2345 0810 01       		.uleb128 0x1
 2346 0811 5E       		.byte	0x5e
 2347 0812 2E       		.uleb128 0x2e
 2348 0813 89070000 		.4byte	0x789
 2349 0817 2A000000 		.4byte	.LBB76
 2350 081b 3E000000 		.4byte	.LBE76-.LBB76
ARM GAS  C:\Users\rdn\AppData\Local\Temp\ccZR1Dqi.s 			page 55


 2351 081f 01       		.byte	0x1
 2352 0820 1501     		.2byte	0x115
 2353 0822 20       		.uleb128 0x20
 2354 0823 A0070000 		.4byte	0x7a0
 2355 0827 D2050000 		.4byte	.LLST52
 2356 082b 20       		.uleb128 0x20
 2357 082c 95070000 		.4byte	0x795
 2358 0830 E5050000 		.4byte	.LLST53
 2359 0834 26       		.uleb128 0x26
 2360 0835 2A000000 		.4byte	.LBB77
 2361 0839 3E000000 		.4byte	.LBE77-.LBB77
 2362 083d 27       		.uleb128 0x27
 2363 083e AB070000 		.4byte	0x7ab
 2364 0842 F8050000 		.4byte	.LLST54
 2365 0846 00       		.byte	0
 2366 0847 00       		.byte	0
 2367 0848 00       		.byte	0
 2368 0849 24       		.uleb128 0x24
 2369 084a 22000000 		.4byte	.LASF58
 2370 084e 01       		.byte	0x1
 2371 084f F6       		.byte	0xf6
 2372 0850 00000000 		.4byte	.LFB23
 2373 0854 8E000000 		.4byte	.LFE23-.LFB23
 2374 0858 01       		.uleb128 0x1
 2375 0859 9C       		.byte	0x9c
 2376 085a 5F090000 		.4byte	0x95f
 2377 085e 1A       		.uleb128 0x1a
 2378 085f 90010000 		.4byte	.LASF40
 2379 0863 01       		.byte	0x1
 2380 0864 F6       		.byte	0xf6
 2381 0865 68020000 		.4byte	0x268
 2382 0869 0B060000 		.4byte	.LLST55
 2383 086d 17       		.uleb128 0x17
 2384 086e 616300   		.ascii	"ac\000"
 2385 0871 01       		.byte	0x1
 2386 0872 F8       		.byte	0xf8
 2387 0873 CB030000 		.4byte	0x3cb
 2388 0877 01       		.uleb128 0x1
 2389 0878 57       		.byte	0x57
 2390 0879 1E       		.uleb128 0x1e
 2391 087a 70010000 		.4byte	.LASF35
 2392 087e 01       		.byte	0x1
 2393 087f F9       		.byte	0xf9
 2394 0880 6E020000 		.4byte	0x26e
 2395 0884 01       		.uleb128 0x1
 2396 0885 55       		.byte	0x55
 2397 0886 1E       		.uleb128 0x1e
 2398 0887 F7020000 		.4byte	.LASF36
 2399 088b 01       		.byte	0x1
 2400 088c FA       		.byte	0xfa
 2401 088d 0F020000 		.4byte	0x20f
 2402 0891 01       		.uleb128 0x1
 2403 0892 56       		.byte	0x56
 2404 0893 15       		.uleb128 0x15
 2405 0894 D0030000 		.4byte	.LASF59
 2406 0898 01       		.byte	0x1
 2407 0899 FC       		.byte	0xfc
ARM GAS  C:\Users\rdn\AppData\Local\Temp\ccZR1Dqi.s 			page 56


 2408 089a 68000000 		.4byte	0x68
 2409 089e 29060000 		.4byte	.LLST56
 2410 08a2 25       		.uleb128 0x25
 2411 08a3 16000000 		.4byte	.LBB83
 2412 08a7 2E000000 		.4byte	.LBE83-.LBB83
 2413 08ab 0E090000 		.4byte	0x90e
 2414 08af 17       		.uleb128 0x17
 2415 08b0 6E00     		.ascii	"n\000"
 2416 08b2 01       		.byte	0x1
 2417 08b3 FD       		.byte	0xfd
 2418 08b4 68000000 		.4byte	0x68
 2419 08b8 01       		.uleb128 0x1
 2420 08b9 54       		.byte	0x54
 2421 08ba 21       		.uleb128 0x21
 2422 08bb 33020000 		.4byte	0x233
 2423 08bf 26000000 		.4byte	.LBB84
 2424 08c3 18000000 		.4byte	.LBE84-.LBB84
 2425 08c7 01       		.byte	0x1
 2426 08c8 FE       		.byte	0xfe
 2427 08c9 20       		.uleb128 0x20
 2428 08ca 53020000 		.4byte	0x253
 2429 08ce 4E060000 		.4byte	.LLST57
 2430 08d2 20       		.uleb128 0x20
 2431 08d3 4A020000 		.4byte	0x24a
 2432 08d7 7A060000 		.4byte	.LLST58
 2433 08db 20       		.uleb128 0x20
 2434 08dc 3F020000 		.4byte	0x23f
 2435 08e0 8E060000 		.4byte	.LLST59
 2436 08e4 26       		.uleb128 0x26
 2437 08e5 26000000 		.4byte	.LBB85
 2438 08e9 18000000 		.4byte	.LBE85-.LBB85
 2439 08ed 27       		.uleb128 0x27
 2440 08ee 5C020000 		.4byte	0x25c
 2441 08f2 A1060000 		.4byte	.LLST60
 2442 08f6 18       		.uleb128 0x18
 2443 08f7 3E000000 		.4byte	.LVL99
 2444 08fb B7070000 		.4byte	0x7b7
 2445 08ff 19       		.uleb128 0x19
 2446 0900 01       		.uleb128 0x1
 2447 0901 50       		.byte	0x50
 2448 0902 02       		.uleb128 0x2
 2449 0903 78       		.byte	0x78
 2450 0904 00       		.sleb128 0
 2451 0905 19       		.uleb128 0x19
 2452 0906 01       		.uleb128 0x1
 2453 0907 51       		.byte	0x51
 2454 0908 01       		.uleb128 0x1
 2455 0909 30       		.byte	0x30
 2456 090a 00       		.byte	0
 2457 090b 00       		.byte	0
 2458 090c 00       		.byte	0
 2459 090d 00       		.byte	0
 2460 090e 2F       		.uleb128 0x2f
 2461 090f 89070000 		.4byte	0x789
 2462 0913 44000000 		.4byte	.LBB86
 2463 0917 3E000000 		.4byte	.LBE86-.LBB86
 2464 091b 01       		.byte	0x1
ARM GAS  C:\Users\rdn\AppData\Local\Temp\ccZR1Dqi.s 			page 57


 2465 091c 0001     		.2byte	0x100
 2466 091e 48090000 		.4byte	0x948
 2467 0922 20       		.uleb128 0x20
 2468 0923 A0070000 		.4byte	0x7a0
 2469 0927 B6060000 		.4byte	.LLST61
 2470 092b 20       		.uleb128 0x20
 2471 092c 95070000 		.4byte	0x795
 2472 0930 C9060000 		.4byte	.LLST62
 2473 0934 26       		.uleb128 0x26
 2474 0935 44000000 		.4byte	.LBB87
 2475 0939 3E000000 		.4byte	.LBE87-.LBB87
 2476 093d 27       		.uleb128 0x27
 2477 093e AB070000 		.4byte	0x7ab
 2478 0942 DC060000 		.4byte	.LLST63
 2479 0946 00       		.byte	0
 2480 0947 00       		.byte	0
 2481 0948 18       		.uleb128 0x18
 2482 0949 8A000000 		.4byte	.LVL105
 2483 094d D1030000 		.4byte	0x3d1
 2484 0951 19       		.uleb128 0x19
 2485 0952 01       		.uleb128 0x1
 2486 0953 50       		.byte	0x50
 2487 0954 02       		.uleb128 0x2
 2488 0955 77       		.byte	0x77
 2489 0956 00       		.sleb128 0
 2490 0957 19       		.uleb128 0x19
 2491 0958 01       		.uleb128 0x1
 2492 0959 51       		.byte	0x51
 2493 095a 02       		.uleb128 0x2
 2494 095b 76       		.byte	0x76
 2495 095c 00       		.sleb128 0
 2496 095d 00       		.byte	0
 2497 095e 00       		.byte	0
 2498 095f 29       		.uleb128 0x29
 2499 0960 8B020000 		.4byte	.LASF60
 2500 0964 01       		.byte	0x1
 2501 0965 2001     		.2byte	0x120
 2502 0967 00000000 		.4byte	.LFB25
 2503 096b 80000000 		.4byte	.LFE25-.LFB25
 2504 096f 01       		.uleb128 0x1
 2505 0970 9C       		.byte	0x9c
 2506 0971 FC090000 		.4byte	0x9fc
 2507 0975 2A       		.uleb128 0x2a
 2508 0976 90010000 		.4byte	.LASF40
 2509 097a 01       		.byte	0x1
 2510 097b 2001     		.2byte	0x120
 2511 097d 68020000 		.4byte	0x268
 2512 0981 01       		.uleb128 0x1
 2513 0982 50       		.byte	0x50
 2514 0983 2D       		.uleb128 0x2d
 2515 0984 616300   		.ascii	"ac\000"
 2516 0987 01       		.byte	0x1
 2517 0988 2201     		.2byte	0x122
 2518 098a CB030000 		.4byte	0x3cb
 2519 098e 01       		.uleb128 0x1
 2520 098f 53       		.byte	0x53
 2521 0990 2E       		.uleb128 0x2e
ARM GAS  C:\Users\rdn\AppData\Local\Temp\ccZR1Dqi.s 			page 58


 2522 0991 A9030000 		.4byte	0x3a9
 2523 0995 0A000000 		.4byte	.LBB94
 2524 0999 64000000 		.4byte	.LBE94-.LBB94
 2525 099d 01       		.byte	0x1
 2526 099e 2501     		.2byte	0x125
 2527 09a0 20       		.uleb128 0x20
 2528 09a1 BF030000 		.4byte	0x3bf
 2529 09a5 EF060000 		.4byte	.LLST64
 2530 09a9 20       		.uleb128 0x20
 2531 09aa B5030000 		.4byte	0x3b5
 2532 09ae 02070000 		.4byte	.LLST65
 2533 09b2 1F       		.uleb128 0x1f
 2534 09b3 EC010000 		.4byte	0x1ec
 2535 09b7 20000000 		.4byte	.LBB96
 2536 09bb 10000000 		.4byte	.LBE96-.LBB96
 2537 09bf 01       		.byte	0x1
 2538 09c0 B0       		.byte	0xb0
 2539 09c1 D8090000 		.4byte	0x9d8
 2540 09c5 20       		.uleb128 0x20
 2541 09c6 03020000 		.4byte	0x203
 2542 09ca 15070000 		.4byte	.LLST66
 2543 09ce 20       		.uleb128 0x20
 2544 09cf F8010000 		.4byte	0x1f8
 2545 09d3 28070000 		.4byte	.LLST67
 2546 09d7 00       		.byte	0
 2547 09d8 21       		.uleb128 0x21
 2548 09d9 EC010000 		.4byte	0x1ec
 2549 09dd 3A000000 		.4byte	.LBB98
 2550 09e1 0E000000 		.4byte	.LBE98-.LBB98
 2551 09e5 01       		.byte	0x1
 2552 09e6 B3       		.byte	0xb3
 2553 09e7 20       		.uleb128 0x20
 2554 09e8 03020000 		.4byte	0x203
 2555 09ec 3B070000 		.4byte	.LLST68
 2556 09f0 20       		.uleb128 0x20
 2557 09f1 F8010000 		.4byte	0x1f8
 2558 09f5 4E070000 		.4byte	.LLST69
 2559 09f9 00       		.byte	0
 2560 09fa 00       		.byte	0
 2561 09fb 00       		.byte	0
 2562 09fc 30       		.uleb128 0x30
 2563 09fd 34020000 		.4byte	.LASF61
 2564 0a01 01       		.byte	0x1
 2565 0a02 5301     		.2byte	0x153
 2566 0a04 7A000000 		.4byte	0x7a
 2567 0a08 00000000 		.4byte	.LFB28
 2568 0a0c F8000000 		.4byte	.LFE28-.LFB28
 2569 0a10 01       		.uleb128 0x1
 2570 0a11 9C       		.byte	0x9c
 2571 0a12 ED0A0000 		.4byte	0xaed
 2572 0a16 31       		.uleb128 0x31
 2573 0a17 90010000 		.4byte	.LASF40
 2574 0a1b 01       		.byte	0x1
 2575 0a1c 5301     		.2byte	0x153
 2576 0a1e 68020000 		.4byte	0x268
 2577 0a22 61070000 		.4byte	.LLST70
 2578 0a26 2B       		.uleb128 0x2b
ARM GAS  C:\Users\rdn\AppData\Local\Temp\ccZR1Dqi.s 			page 59


 2579 0a27 6E00     		.ascii	"n\000"
 2580 0a29 01       		.byte	0x1
 2581 0a2a 5301     		.2byte	0x153
 2582 0a2c 68000000 		.4byte	0x68
 2583 0a30 7F070000 		.4byte	.LLST71
 2584 0a34 32       		.uleb128 0x32
 2585 0a35 70010000 		.4byte	.LASF35
 2586 0a39 01       		.byte	0x1
 2587 0a3a 5501     		.2byte	0x155
 2588 0a3c 6E020000 		.4byte	0x26e
 2589 0a40 A0070000 		.4byte	.LLST72
 2590 0a44 2C       		.uleb128 0x2c
 2591 0a45 F7020000 		.4byte	.LASF36
 2592 0a49 01       		.byte	0x1
 2593 0a4a 5601     		.2byte	0x156
 2594 0a4c 0F020000 		.4byte	0x20f
 2595 0a50 01       		.uleb128 0x1
 2596 0a51 55       		.byte	0x55
 2597 0a52 33       		.uleb128 0x33
 2598 0a53 6E3100   		.ascii	"n1\000"
 2599 0a56 01       		.byte	0x1
 2600 0a57 5C01     		.2byte	0x15c
 2601 0a59 68000000 		.4byte	0x68
 2602 0a5d C0070000 		.4byte	.LLST73
 2603 0a61 2D       		.uleb128 0x2d
 2604 0a62 7600     		.ascii	"v\000"
 2605 0a64 01       		.byte	0x1
 2606 0a65 5D01     		.2byte	0x15d
 2607 0a67 7A000000 		.4byte	0x7a
 2608 0a6b 01       		.uleb128 0x1
 2609 0a6c 50       		.byte	0x50
 2610 0a6d 33       		.uleb128 0x33
 2611 0a6e 6E3200   		.ascii	"n2\000"
 2612 0a71 01       		.byte	0x1
 2613 0a72 6201     		.2byte	0x162
 2614 0a74 68000000 		.4byte	0x68
 2615 0a78 D3070000 		.4byte	.LLST74
 2616 0a7c 2F       		.uleb128 0x2f
 2617 0a7d A3050000 		.4byte	0x5a3
 2618 0a81 0C000000 		.4byte	.LBB104
 2619 0a85 54000000 		.4byte	.LBE104-.LBB104
 2620 0a89 01       		.byte	0x1
 2621 0a8a 5A01     		.2byte	0x15a
 2622 0a8c B60A0000 		.4byte	0xab6
 2623 0a90 20       		.uleb128 0x20
 2624 0a91 BC050000 		.4byte	0x5bc
 2625 0a95 F6070000 		.4byte	.LLST75
 2626 0a99 20       		.uleb128 0x20
 2627 0a9a B0050000 		.4byte	0x5b0
 2628 0a9e 09080000 		.4byte	.LLST76
 2629 0aa2 26       		.uleb128 0x26
 2630 0aa3 0C000000 		.4byte	.LBB105
 2631 0aa7 54000000 		.4byte	.LBE105-.LBB105
 2632 0aab 27       		.uleb128 0x27
 2633 0aac C8050000 		.4byte	0x5c8
 2634 0ab0 1C080000 		.4byte	.LLST77
 2635 0ab4 00       		.byte	0
ARM GAS  C:\Users\rdn\AppData\Local\Temp\ccZR1Dqi.s 			page 60


 2636 0ab5 00       		.byte	0
 2637 0ab6 2E       		.uleb128 0x2e
 2638 0ab7 A3050000 		.4byte	0x5a3
 2639 0abb 86000000 		.4byte	.LBB106
 2640 0abf 54000000 		.4byte	.LBE106-.LBB106
 2641 0ac3 01       		.byte	0x1
 2642 0ac4 6501     		.2byte	0x165
 2643 0ac6 20       		.uleb128 0x20
 2644 0ac7 BC050000 		.4byte	0x5bc
 2645 0acb 2F080000 		.4byte	.LLST78
 2646 0acf 20       		.uleb128 0x20
 2647 0ad0 B0050000 		.4byte	0x5b0
 2648 0ad4 42080000 		.4byte	.LLST79
 2649 0ad8 26       		.uleb128 0x26
 2650 0ad9 86000000 		.4byte	.LBB107
 2651 0add 54000000 		.4byte	.LBE107-.LBB107
 2652 0ae1 27       		.uleb128 0x27
 2653 0ae2 C8050000 		.4byte	0x5c8
 2654 0ae6 55080000 		.4byte	.LLST80
 2655 0aea 00       		.byte	0
 2656 0aeb 00       		.byte	0
 2657 0aec 00       		.byte	0
 2658 0aed 29       		.uleb128 0x29
 2659 0aee 3D010000 		.4byte	.LASF62
 2660 0af2 01       		.byte	0x1
 2661 0af3 7101     		.2byte	0x171
 2662 0af5 00000000 		.4byte	.LFB29
 2663 0af9 34000000 		.4byte	.LFE29-.LFB29
 2664 0afd 01       		.uleb128 0x1
 2665 0afe 9C       		.byte	0x9c
 2666 0aff 3B0B0000 		.4byte	0xb3b
 2667 0b03 2A       		.uleb128 0x2a
 2668 0b04 90010000 		.4byte	.LASF40
 2669 0b08 01       		.byte	0x1
 2670 0b09 7101     		.2byte	0x171
 2671 0b0b 68020000 		.4byte	0x268
 2672 0b0f 01       		.uleb128 0x1
 2673 0b10 50       		.byte	0x50
 2674 0b11 2D       		.uleb128 0x2d
 2675 0b12 616300   		.ascii	"ac\000"
 2676 0b15 01       		.byte	0x1
 2677 0b16 7301     		.2byte	0x173
 2678 0b18 CB030000 		.4byte	0x3cb
 2679 0b1c 03       		.uleb128 0x3
 2680 0b1d 70       		.byte	0x70
 2681 0b1e 04       		.sleb128 4
 2682 0b1f 9F       		.byte	0x9f
 2683 0b20 2E       		.uleb128 0x2e
 2684 0b21 15020000 		.4byte	0x215
 2685 0b25 08000000 		.4byte	.LBB108
 2686 0b29 12000000 		.4byte	.LBE108-.LBB108
 2687 0b2d 01       		.byte	0x1
 2688 0b2e 7601     		.2byte	0x176
 2689 0b30 20       		.uleb128 0x20
 2690 0b31 26020000 		.4byte	0x226
 2691 0b35 68080000 		.4byte	.LLST81
 2692 0b39 00       		.byte	0
ARM GAS  C:\Users\rdn\AppData\Local\Temp\ccZR1Dqi.s 			page 61


 2693 0b3a 00       		.byte	0
 2694 0b3b 34       		.uleb128 0x34
 2695 0b3c 9B010000 		.4byte	.LASF69
 2696 0b40 9B010000 		.4byte	.LASF69
 2697 0b44 00       		.byte	0
 2698              		.section	.debug_abbrev,"",%progbits
 2699              	.Ldebug_abbrev0:
 2700 0000 01       		.uleb128 0x1
 2701 0001 11       		.uleb128 0x11
 2702 0002 01       		.byte	0x1
 2703 0003 25       		.uleb128 0x25
 2704 0004 0E       		.uleb128 0xe
 2705 0005 13       		.uleb128 0x13
 2706 0006 0B       		.uleb128 0xb
 2707 0007 03       		.uleb128 0x3
 2708 0008 0E       		.uleb128 0xe
 2709 0009 1B       		.uleb128 0x1b
 2710 000a 0E       		.uleb128 0xe
 2711 000b 55       		.uleb128 0x55
 2712 000c 17       		.uleb128 0x17
 2713 000d 11       		.uleb128 0x11
 2714 000e 01       		.uleb128 0x1
 2715 000f 10       		.uleb128 0x10
 2716 0010 17       		.uleb128 0x17
 2717 0011 00       		.byte	0
 2718 0012 00       		.byte	0
 2719 0013 02       		.uleb128 0x2
 2720 0014 24       		.uleb128 0x24
 2721 0015 00       		.byte	0
 2722 0016 0B       		.uleb128 0xb
 2723 0017 0B       		.uleb128 0xb
 2724 0018 3E       		.uleb128 0x3e
 2725 0019 0B       		.uleb128 0xb
 2726 001a 03       		.uleb128 0x3
 2727 001b 0E       		.uleb128 0xe
 2728 001c 00       		.byte	0
 2729 001d 00       		.byte	0
 2730 001e 03       		.uleb128 0x3
 2731 001f 16       		.uleb128 0x16
 2732 0020 00       		.byte	0
 2733 0021 03       		.uleb128 0x3
 2734 0022 0E       		.uleb128 0xe
 2735 0023 3A       		.uleb128 0x3a
 2736 0024 0B       		.uleb128 0xb
 2737 0025 3B       		.uleb128 0x3b
 2738 0026 0B       		.uleb128 0xb
 2739 0027 49       		.uleb128 0x49
 2740 0028 13       		.uleb128 0x13
 2741 0029 00       		.byte	0
 2742 002a 00       		.byte	0
 2743 002b 04       		.uleb128 0x4
 2744 002c 24       		.uleb128 0x24
 2745 002d 00       		.byte	0
 2746 002e 0B       		.uleb128 0xb
 2747 002f 0B       		.uleb128 0xb
 2748 0030 3E       		.uleb128 0x3e
 2749 0031 0B       		.uleb128 0xb
ARM GAS  C:\Users\rdn\AppData\Local\Temp\ccZR1Dqi.s 			page 62


 2750 0032 03       		.uleb128 0x3
 2751 0033 08       		.uleb128 0x8
 2752 0034 00       		.byte	0
 2753 0035 00       		.byte	0
 2754 0036 05       		.uleb128 0x5
 2755 0037 0F       		.uleb128 0xf
 2756 0038 00       		.byte	0
 2757 0039 0B       		.uleb128 0xb
 2758 003a 0B       		.uleb128 0xb
 2759 003b 00       		.byte	0
 2760 003c 00       		.byte	0
 2761 003d 06       		.uleb128 0x6
 2762 003e 04       		.uleb128 0x4
 2763 003f 01       		.byte	0x1
 2764 0040 03       		.uleb128 0x3
 2765 0041 0E       		.uleb128 0xe
 2766 0042 0B       		.uleb128 0xb
 2767 0043 0B       		.uleb128 0xb
 2768 0044 49       		.uleb128 0x49
 2769 0045 13       		.uleb128 0x13
 2770 0046 3A       		.uleb128 0x3a
 2771 0047 0B       		.uleb128 0xb
 2772 0048 3B       		.uleb128 0x3b
 2773 0049 0B       		.uleb128 0xb
 2774 004a 01       		.uleb128 0x1
 2775 004b 13       		.uleb128 0x13
 2776 004c 00       		.byte	0
 2777 004d 00       		.byte	0
 2778 004e 07       		.uleb128 0x7
 2779 004f 28       		.uleb128 0x28
 2780 0050 00       		.byte	0
 2781 0051 03       		.uleb128 0x3
 2782 0052 0E       		.uleb128 0xe
 2783 0053 1C       		.uleb128 0x1c
 2784 0054 0B       		.uleb128 0xb
 2785 0055 00       		.byte	0
 2786 0056 00       		.byte	0
 2787 0057 08       		.uleb128 0x8
 2788 0058 13       		.uleb128 0x13
 2789 0059 01       		.byte	0x1
 2790 005a 03       		.uleb128 0x3
 2791 005b 0E       		.uleb128 0xe
 2792 005c 0B       		.uleb128 0xb
 2793 005d 0B       		.uleb128 0xb
 2794 005e 3A       		.uleb128 0x3a
 2795 005f 0B       		.uleb128 0xb
 2796 0060 3B       		.uleb128 0x3b
 2797 0061 0B       		.uleb128 0xb
 2798 0062 01       		.uleb128 0x1
 2799 0063 13       		.uleb128 0x13
 2800 0064 00       		.byte	0
 2801 0065 00       		.byte	0
 2802 0066 09       		.uleb128 0x9
 2803 0067 0D       		.uleb128 0xd
 2804 0068 00       		.byte	0
 2805 0069 03       		.uleb128 0x3
 2806 006a 08       		.uleb128 0x8
ARM GAS  C:\Users\rdn\AppData\Local\Temp\ccZR1Dqi.s 			page 63


 2807 006b 3A       		.uleb128 0x3a
 2808 006c 0B       		.uleb128 0xb
 2809 006d 3B       		.uleb128 0x3b
 2810 006e 0B       		.uleb128 0xb
 2811 006f 49       		.uleb128 0x49
 2812 0070 13       		.uleb128 0x13
 2813 0071 38       		.uleb128 0x38
 2814 0072 0B       		.uleb128 0xb
 2815 0073 00       		.byte	0
 2816 0074 00       		.byte	0
 2817 0075 0A       		.uleb128 0xa
 2818 0076 0D       		.uleb128 0xd
 2819 0077 00       		.byte	0
 2820 0078 03       		.uleb128 0x3
 2821 0079 0E       		.uleb128 0xe
 2822 007a 3A       		.uleb128 0x3a
 2823 007b 0B       		.uleb128 0xb
 2824 007c 3B       		.uleb128 0x3b
 2825 007d 0B       		.uleb128 0xb
 2826 007e 49       		.uleb128 0x49
 2827 007f 13       		.uleb128 0x13
 2828 0080 38       		.uleb128 0x38
 2829 0081 0B       		.uleb128 0xb
 2830 0082 00       		.byte	0
 2831 0083 00       		.byte	0
 2832 0084 0B       		.uleb128 0xb
 2833 0085 0F       		.uleb128 0xf
 2834 0086 00       		.byte	0
 2835 0087 0B       		.uleb128 0xb
 2836 0088 0B       		.uleb128 0xb
 2837 0089 49       		.uleb128 0x49
 2838 008a 13       		.uleb128 0x13
 2839 008b 00       		.byte	0
 2840 008c 00       		.byte	0
 2841 008d 0C       		.uleb128 0xc
 2842 008e 26       		.uleb128 0x26
 2843 008f 00       		.byte	0
 2844 0090 49       		.uleb128 0x49
 2845 0091 13       		.uleb128 0x13
 2846 0092 00       		.byte	0
 2847 0093 00       		.byte	0
 2848 0094 0D       		.uleb128 0xd
 2849 0095 2E       		.uleb128 0x2e
 2850 0096 01       		.byte	0x1
 2851 0097 03       		.uleb128 0x3
 2852 0098 0E       		.uleb128 0xe
 2853 0099 3A       		.uleb128 0x3a
 2854 009a 0B       		.uleb128 0xb
 2855 009b 3B       		.uleb128 0x3b
 2856 009c 0B       		.uleb128 0xb
 2857 009d 27       		.uleb128 0x27
 2858 009e 19       		.uleb128 0x19
 2859 009f 20       		.uleb128 0x20
 2860 00a0 0B       		.uleb128 0xb
 2861 00a1 01       		.uleb128 0x1
 2862 00a2 13       		.uleb128 0x13
 2863 00a3 00       		.byte	0
ARM GAS  C:\Users\rdn\AppData\Local\Temp\ccZR1Dqi.s 			page 64


 2864 00a4 00       		.byte	0
 2865 00a5 0E       		.uleb128 0xe
 2866 00a6 05       		.uleb128 0x5
 2867 00a7 00       		.byte	0
 2868 00a8 03       		.uleb128 0x3
 2869 00a9 0E       		.uleb128 0xe
 2870 00aa 3A       		.uleb128 0x3a
 2871 00ab 0B       		.uleb128 0xb
 2872 00ac 3B       		.uleb128 0x3b
 2873 00ad 0B       		.uleb128 0xb
 2874 00ae 49       		.uleb128 0x49
 2875 00af 13       		.uleb128 0x13
 2876 00b0 00       		.byte	0
 2877 00b1 00       		.byte	0
 2878 00b2 0F       		.uleb128 0xf
 2879 00b3 2E       		.uleb128 0x2e
 2880 00b4 01       		.byte	0x1
 2881 00b5 03       		.uleb128 0x3
 2882 00b6 0E       		.uleb128 0xe
 2883 00b7 3A       		.uleb128 0x3a
 2884 00b8 0B       		.uleb128 0xb
 2885 00b9 3B       		.uleb128 0x3b
 2886 00ba 05       		.uleb128 0x5
 2887 00bb 27       		.uleb128 0x27
 2888 00bc 19       		.uleb128 0x19
 2889 00bd 49       		.uleb128 0x49
 2890 00be 13       		.uleb128 0x13
 2891 00bf 20       		.uleb128 0x20
 2892 00c0 0B       		.uleb128 0xb
 2893 00c1 01       		.uleb128 0x1
 2894 00c2 13       		.uleb128 0x13
 2895 00c3 00       		.byte	0
 2896 00c4 00       		.byte	0
 2897 00c5 10       		.uleb128 0x10
 2898 00c6 05       		.uleb128 0x5
 2899 00c7 00       		.byte	0
 2900 00c8 03       		.uleb128 0x3
 2901 00c9 0E       		.uleb128 0xe
 2902 00ca 3A       		.uleb128 0x3a
 2903 00cb 0B       		.uleb128 0xb
 2904 00cc 3B       		.uleb128 0x3b
 2905 00cd 05       		.uleb128 0x5
 2906 00ce 49       		.uleb128 0x49
 2907 00cf 13       		.uleb128 0x13
 2908 00d0 00       		.byte	0
 2909 00d1 00       		.byte	0
 2910 00d2 11       		.uleb128 0x11
 2911 00d3 05       		.uleb128 0x5
 2912 00d4 00       		.byte	0
 2913 00d5 03       		.uleb128 0x3
 2914 00d6 08       		.uleb128 0x8
 2915 00d7 3A       		.uleb128 0x3a
 2916 00d8 0B       		.uleb128 0xb
 2917 00d9 3B       		.uleb128 0x3b
 2918 00da 0B       		.uleb128 0xb
 2919 00db 49       		.uleb128 0x49
 2920 00dc 13       		.uleb128 0x13
ARM GAS  C:\Users\rdn\AppData\Local\Temp\ccZR1Dqi.s 			page 65


 2921 00dd 00       		.byte	0
 2922 00de 00       		.byte	0
 2923 00df 12       		.uleb128 0x12
 2924 00e0 34       		.uleb128 0x34
 2925 00e1 00       		.byte	0
 2926 00e2 03       		.uleb128 0x3
 2927 00e3 0E       		.uleb128 0xe
 2928 00e4 3A       		.uleb128 0x3a
 2929 00e5 0B       		.uleb128 0xb
 2930 00e6 3B       		.uleb128 0x3b
 2931 00e7 0B       		.uleb128 0xb
 2932 00e8 49       		.uleb128 0x49
 2933 00e9 13       		.uleb128 0x13
 2934 00ea 00       		.byte	0
 2935 00eb 00       		.byte	0
 2936 00ec 13       		.uleb128 0x13
 2937 00ed 2E       		.uleb128 0x2e
 2938 00ee 01       		.byte	0x1
 2939 00ef 03       		.uleb128 0x3
 2940 00f0 0E       		.uleb128 0xe
 2941 00f1 3A       		.uleb128 0x3a
 2942 00f2 0B       		.uleb128 0xb
 2943 00f3 3B       		.uleb128 0x3b
 2944 00f4 0B       		.uleb128 0xb
 2945 00f5 27       		.uleb128 0x27
 2946 00f6 19       		.uleb128 0x19
 2947 00f7 49       		.uleb128 0x49
 2948 00f8 13       		.uleb128 0x13
 2949 00f9 11       		.uleb128 0x11
 2950 00fa 01       		.uleb128 0x1
 2951 00fb 12       		.uleb128 0x12
 2952 00fc 06       		.uleb128 0x6
 2953 00fd 40       		.uleb128 0x40
 2954 00fe 18       		.uleb128 0x18
 2955 00ff 9742     		.uleb128 0x2117
 2956 0101 19       		.uleb128 0x19
 2957 0102 01       		.uleb128 0x1
 2958 0103 13       		.uleb128 0x13
 2959 0104 00       		.byte	0
 2960 0105 00       		.byte	0
 2961 0106 14       		.uleb128 0x14
 2962 0107 05       		.uleb128 0x5
 2963 0108 00       		.byte	0
 2964 0109 03       		.uleb128 0x3
 2965 010a 08       		.uleb128 0x8
 2966 010b 3A       		.uleb128 0x3a
 2967 010c 0B       		.uleb128 0xb
 2968 010d 3B       		.uleb128 0x3b
 2969 010e 0B       		.uleb128 0xb
 2970 010f 49       		.uleb128 0x49
 2971 0110 13       		.uleb128 0x13
 2972 0111 02       		.uleb128 0x2
 2973 0112 17       		.uleb128 0x17
 2974 0113 00       		.byte	0
 2975 0114 00       		.byte	0
 2976 0115 15       		.uleb128 0x15
 2977 0116 34       		.uleb128 0x34
ARM GAS  C:\Users\rdn\AppData\Local\Temp\ccZR1Dqi.s 			page 66


 2978 0117 00       		.byte	0
 2979 0118 03       		.uleb128 0x3
 2980 0119 0E       		.uleb128 0xe
 2981 011a 3A       		.uleb128 0x3a
 2982 011b 0B       		.uleb128 0xb
 2983 011c 3B       		.uleb128 0x3b
 2984 011d 0B       		.uleb128 0xb
 2985 011e 49       		.uleb128 0x49
 2986 011f 13       		.uleb128 0x13
 2987 0120 02       		.uleb128 0x2
 2988 0121 17       		.uleb128 0x17
 2989 0122 00       		.byte	0
 2990 0123 00       		.byte	0
 2991 0124 16       		.uleb128 0x16
 2992 0125 0B       		.uleb128 0xb
 2993 0126 01       		.byte	0x1
 2994 0127 55       		.uleb128 0x55
 2995 0128 17       		.uleb128 0x17
 2996 0129 00       		.byte	0
 2997 012a 00       		.byte	0
 2998 012b 17       		.uleb128 0x17
 2999 012c 34       		.uleb128 0x34
 3000 012d 00       		.byte	0
 3001 012e 03       		.uleb128 0x3
 3002 012f 08       		.uleb128 0x8
 3003 0130 3A       		.uleb128 0x3a
 3004 0131 0B       		.uleb128 0xb
 3005 0132 3B       		.uleb128 0x3b
 3006 0133 0B       		.uleb128 0xb
 3007 0134 49       		.uleb128 0x49
 3008 0135 13       		.uleb128 0x13
 3009 0136 02       		.uleb128 0x2
 3010 0137 18       		.uleb128 0x18
 3011 0138 00       		.byte	0
 3012 0139 00       		.byte	0
 3013 013a 18       		.uleb128 0x18
 3014 013b 898201   		.uleb128 0x4109
 3015 013e 01       		.byte	0x1
 3016 013f 11       		.uleb128 0x11
 3017 0140 01       		.uleb128 0x1
 3018 0141 31       		.uleb128 0x31
 3019 0142 13       		.uleb128 0x13
 3020 0143 00       		.byte	0
 3021 0144 00       		.byte	0
 3022 0145 19       		.uleb128 0x19
 3023 0146 8A8201   		.uleb128 0x410a
 3024 0149 00       		.byte	0
 3025 014a 02       		.uleb128 0x2
 3026 014b 18       		.uleb128 0x18
 3027 014c 9142     		.uleb128 0x2111
 3028 014e 18       		.uleb128 0x18
 3029 014f 00       		.byte	0
 3030 0150 00       		.byte	0
 3031 0151 1A       		.uleb128 0x1a
 3032 0152 05       		.uleb128 0x5
 3033 0153 00       		.byte	0
 3034 0154 03       		.uleb128 0x3
ARM GAS  C:\Users\rdn\AppData\Local\Temp\ccZR1Dqi.s 			page 67


 3035 0155 0E       		.uleb128 0xe
 3036 0156 3A       		.uleb128 0x3a
 3037 0157 0B       		.uleb128 0xb
 3038 0158 3B       		.uleb128 0x3b
 3039 0159 0B       		.uleb128 0xb
 3040 015a 49       		.uleb128 0x49
 3041 015b 13       		.uleb128 0x13
 3042 015c 02       		.uleb128 0x2
 3043 015d 17       		.uleb128 0x17
 3044 015e 00       		.byte	0
 3045 015f 00       		.byte	0
 3046 0160 1B       		.uleb128 0x1b
 3047 0161 34       		.uleb128 0x34
 3048 0162 00       		.byte	0
 3049 0163 03       		.uleb128 0x3
 3050 0164 08       		.uleb128 0x8
 3051 0165 3A       		.uleb128 0x3a
 3052 0166 0B       		.uleb128 0xb
 3053 0167 3B       		.uleb128 0x3b
 3054 0168 0B       		.uleb128 0xb
 3055 0169 49       		.uleb128 0x49
 3056 016a 13       		.uleb128 0x13
 3057 016b 02       		.uleb128 0x2
 3058 016c 17       		.uleb128 0x17
 3059 016d 00       		.byte	0
 3060 016e 00       		.byte	0
 3061 016f 1C       		.uleb128 0x1c
 3062 0170 898201   		.uleb128 0x4109
 3063 0173 00       		.byte	0
 3064 0174 11       		.uleb128 0x11
 3065 0175 01       		.uleb128 0x1
 3066 0176 31       		.uleb128 0x31
 3067 0177 13       		.uleb128 0x13
 3068 0178 00       		.byte	0
 3069 0179 00       		.byte	0
 3070 017a 1D       		.uleb128 0x1d
 3071 017b 2E       		.uleb128 0x2e
 3072 017c 01       		.byte	0x1
 3073 017d 03       		.uleb128 0x3
 3074 017e 0E       		.uleb128 0xe
 3075 017f 3A       		.uleb128 0x3a
 3076 0180 0B       		.uleb128 0xb
 3077 0181 3B       		.uleb128 0x3b
 3078 0182 0B       		.uleb128 0xb
 3079 0183 27       		.uleb128 0x27
 3080 0184 19       		.uleb128 0x19
 3081 0185 11       		.uleb128 0x11
 3082 0186 01       		.uleb128 0x1
 3083 0187 12       		.uleb128 0x12
 3084 0188 06       		.uleb128 0x6
 3085 0189 40       		.uleb128 0x40
 3086 018a 18       		.uleb128 0x18
 3087 018b 9742     		.uleb128 0x2117
 3088 018d 19       		.uleb128 0x19
 3089 018e 01       		.uleb128 0x1
 3090 018f 13       		.uleb128 0x13
 3091 0190 00       		.byte	0
ARM GAS  C:\Users\rdn\AppData\Local\Temp\ccZR1Dqi.s 			page 68


 3092 0191 00       		.byte	0
 3093 0192 1E       		.uleb128 0x1e
 3094 0193 34       		.uleb128 0x34
 3095 0194 00       		.byte	0
 3096 0195 03       		.uleb128 0x3
 3097 0196 0E       		.uleb128 0xe
 3098 0197 3A       		.uleb128 0x3a
 3099 0198 0B       		.uleb128 0xb
 3100 0199 3B       		.uleb128 0x3b
 3101 019a 0B       		.uleb128 0xb
 3102 019b 49       		.uleb128 0x49
 3103 019c 13       		.uleb128 0x13
 3104 019d 02       		.uleb128 0x2
 3105 019e 18       		.uleb128 0x18
 3106 019f 00       		.byte	0
 3107 01a0 00       		.byte	0
 3108 01a1 1F       		.uleb128 0x1f
 3109 01a2 1D       		.uleb128 0x1d
 3110 01a3 01       		.byte	0x1
 3111 01a4 31       		.uleb128 0x31
 3112 01a5 13       		.uleb128 0x13
 3113 01a6 11       		.uleb128 0x11
 3114 01a7 01       		.uleb128 0x1
 3115 01a8 12       		.uleb128 0x12
 3116 01a9 06       		.uleb128 0x6
 3117 01aa 58       		.uleb128 0x58
 3118 01ab 0B       		.uleb128 0xb
 3119 01ac 59       		.uleb128 0x59
 3120 01ad 0B       		.uleb128 0xb
 3121 01ae 01       		.uleb128 0x1
 3122 01af 13       		.uleb128 0x13
 3123 01b0 00       		.byte	0
 3124 01b1 00       		.byte	0
 3125 01b2 20       		.uleb128 0x20
 3126 01b3 05       		.uleb128 0x5
 3127 01b4 00       		.byte	0
 3128 01b5 31       		.uleb128 0x31
 3129 01b6 13       		.uleb128 0x13
 3130 01b7 02       		.uleb128 0x2
 3131 01b8 17       		.uleb128 0x17
 3132 01b9 00       		.byte	0
 3133 01ba 00       		.byte	0
 3134 01bb 21       		.uleb128 0x21
 3135 01bc 1D       		.uleb128 0x1d
 3136 01bd 01       		.byte	0x1
 3137 01be 31       		.uleb128 0x31
 3138 01bf 13       		.uleb128 0x13
 3139 01c0 11       		.uleb128 0x11
 3140 01c1 01       		.uleb128 0x1
 3141 01c2 12       		.uleb128 0x12
 3142 01c3 06       		.uleb128 0x6
 3143 01c4 58       		.uleb128 0x58
 3144 01c5 0B       		.uleb128 0xb
 3145 01c6 59       		.uleb128 0x59
 3146 01c7 0B       		.uleb128 0xb
 3147 01c8 00       		.byte	0
 3148 01c9 00       		.byte	0
ARM GAS  C:\Users\rdn\AppData\Local\Temp\ccZR1Dqi.s 			page 69


 3149 01ca 22       		.uleb128 0x22
 3150 01cb 2E       		.uleb128 0x2e
 3151 01cc 01       		.byte	0x1
 3152 01cd 03       		.uleb128 0x3
 3153 01ce 0E       		.uleb128 0xe
 3154 01cf 3A       		.uleb128 0x3a
 3155 01d0 0B       		.uleb128 0xb
 3156 01d1 3B       		.uleb128 0x3b
 3157 01d2 05       		.uleb128 0x5
 3158 01d3 27       		.uleb128 0x27
 3159 01d4 19       		.uleb128 0x19
 3160 01d5 20       		.uleb128 0x20
 3161 01d6 0B       		.uleb128 0xb
 3162 01d7 01       		.uleb128 0x1
 3163 01d8 13       		.uleb128 0x13
 3164 01d9 00       		.byte	0
 3165 01da 00       		.byte	0
 3166 01db 23       		.uleb128 0x23
 3167 01dc 34       		.uleb128 0x34
 3168 01dd 00       		.byte	0
 3169 01de 03       		.uleb128 0x3
 3170 01df 0E       		.uleb128 0xe
 3171 01e0 3A       		.uleb128 0x3a
 3172 01e1 0B       		.uleb128 0xb
 3173 01e2 3B       		.uleb128 0x3b
 3174 01e3 05       		.uleb128 0x5
 3175 01e4 49       		.uleb128 0x49
 3176 01e5 13       		.uleb128 0x13
 3177 01e6 00       		.byte	0
 3178 01e7 00       		.byte	0
 3179 01e8 24       		.uleb128 0x24
 3180 01e9 2E       		.uleb128 0x2e
 3181 01ea 01       		.byte	0x1
 3182 01eb 3F       		.uleb128 0x3f
 3183 01ec 19       		.uleb128 0x19
 3184 01ed 03       		.uleb128 0x3
 3185 01ee 0E       		.uleb128 0xe
 3186 01ef 3A       		.uleb128 0x3a
 3187 01f0 0B       		.uleb128 0xb
 3188 01f1 3B       		.uleb128 0x3b
 3189 01f2 0B       		.uleb128 0xb
 3190 01f3 27       		.uleb128 0x27
 3191 01f4 19       		.uleb128 0x19
 3192 01f5 11       		.uleb128 0x11
 3193 01f6 01       		.uleb128 0x1
 3194 01f7 12       		.uleb128 0x12
 3195 01f8 06       		.uleb128 0x6
 3196 01f9 40       		.uleb128 0x40
 3197 01fa 18       		.uleb128 0x18
 3198 01fb 9742     		.uleb128 0x2117
 3199 01fd 19       		.uleb128 0x19
 3200 01fe 01       		.uleb128 0x1
 3201 01ff 13       		.uleb128 0x13
 3202 0200 00       		.byte	0
 3203 0201 00       		.byte	0
 3204 0202 25       		.uleb128 0x25
 3205 0203 0B       		.uleb128 0xb
ARM GAS  C:\Users\rdn\AppData\Local\Temp\ccZR1Dqi.s 			page 70


 3206 0204 01       		.byte	0x1
 3207 0205 11       		.uleb128 0x11
 3208 0206 01       		.uleb128 0x1
 3209 0207 12       		.uleb128 0x12
 3210 0208 06       		.uleb128 0x6
 3211 0209 01       		.uleb128 0x1
 3212 020a 13       		.uleb128 0x13
 3213 020b 00       		.byte	0
 3214 020c 00       		.byte	0
 3215 020d 26       		.uleb128 0x26
 3216 020e 0B       		.uleb128 0xb
 3217 020f 01       		.byte	0x1
 3218 0210 11       		.uleb128 0x11
 3219 0211 01       		.uleb128 0x1
 3220 0212 12       		.uleb128 0x12
 3221 0213 06       		.uleb128 0x6
 3222 0214 00       		.byte	0
 3223 0215 00       		.byte	0
 3224 0216 27       		.uleb128 0x27
 3225 0217 34       		.uleb128 0x34
 3226 0218 00       		.byte	0
 3227 0219 31       		.uleb128 0x31
 3228 021a 13       		.uleb128 0x13
 3229 021b 02       		.uleb128 0x2
 3230 021c 17       		.uleb128 0x17
 3231 021d 00       		.byte	0
 3232 021e 00       		.byte	0
 3233 021f 28       		.uleb128 0x28
 3234 0220 2E       		.uleb128 0x2e
 3235 0221 01       		.byte	0x1
 3236 0222 3F       		.uleb128 0x3f
 3237 0223 19       		.uleb128 0x19
 3238 0224 03       		.uleb128 0x3
 3239 0225 0E       		.uleb128 0xe
 3240 0226 3A       		.uleb128 0x3a
 3241 0227 0B       		.uleb128 0xb
 3242 0228 3B       		.uleb128 0x3b
 3243 0229 0B       		.uleb128 0xb
 3244 022a 27       		.uleb128 0x27
 3245 022b 19       		.uleb128 0x19
 3246 022c 49       		.uleb128 0x49
 3247 022d 13       		.uleb128 0x13
 3248 022e 11       		.uleb128 0x11
 3249 022f 01       		.uleb128 0x1
 3250 0230 12       		.uleb128 0x12
 3251 0231 06       		.uleb128 0x6
 3252 0232 40       		.uleb128 0x40
 3253 0233 18       		.uleb128 0x18
 3254 0234 9742     		.uleb128 0x2117
 3255 0236 19       		.uleb128 0x19
 3256 0237 01       		.uleb128 0x1
 3257 0238 13       		.uleb128 0x13
 3258 0239 00       		.byte	0
 3259 023a 00       		.byte	0
 3260 023b 29       		.uleb128 0x29
 3261 023c 2E       		.uleb128 0x2e
 3262 023d 01       		.byte	0x1
ARM GAS  C:\Users\rdn\AppData\Local\Temp\ccZR1Dqi.s 			page 71


 3263 023e 3F       		.uleb128 0x3f
 3264 023f 19       		.uleb128 0x19
 3265 0240 03       		.uleb128 0x3
 3266 0241 0E       		.uleb128 0xe
 3267 0242 3A       		.uleb128 0x3a
 3268 0243 0B       		.uleb128 0xb
 3269 0244 3B       		.uleb128 0x3b
 3270 0245 05       		.uleb128 0x5
 3271 0246 27       		.uleb128 0x27
 3272 0247 19       		.uleb128 0x19
 3273 0248 11       		.uleb128 0x11
 3274 0249 01       		.uleb128 0x1
 3275 024a 12       		.uleb128 0x12
 3276 024b 06       		.uleb128 0x6
 3277 024c 40       		.uleb128 0x40
 3278 024d 18       		.uleb128 0x18
 3279 024e 9742     		.uleb128 0x2117
 3280 0250 19       		.uleb128 0x19
 3281 0251 01       		.uleb128 0x1
 3282 0252 13       		.uleb128 0x13
 3283 0253 00       		.byte	0
 3284 0254 00       		.byte	0
 3285 0255 2A       		.uleb128 0x2a
 3286 0256 05       		.uleb128 0x5
 3287 0257 00       		.byte	0
 3288 0258 03       		.uleb128 0x3
 3289 0259 0E       		.uleb128 0xe
 3290 025a 3A       		.uleb128 0x3a
 3291 025b 0B       		.uleb128 0xb
 3292 025c 3B       		.uleb128 0x3b
 3293 025d 05       		.uleb128 0x5
 3294 025e 49       		.uleb128 0x49
 3295 025f 13       		.uleb128 0x13
 3296 0260 02       		.uleb128 0x2
 3297 0261 18       		.uleb128 0x18
 3298 0262 00       		.byte	0
 3299 0263 00       		.byte	0
 3300 0264 2B       		.uleb128 0x2b
 3301 0265 05       		.uleb128 0x5
 3302 0266 00       		.byte	0
 3303 0267 03       		.uleb128 0x3
 3304 0268 08       		.uleb128 0x8
 3305 0269 3A       		.uleb128 0x3a
 3306 026a 0B       		.uleb128 0xb
 3307 026b 3B       		.uleb128 0x3b
 3308 026c 05       		.uleb128 0x5
 3309 026d 49       		.uleb128 0x49
 3310 026e 13       		.uleb128 0x13
 3311 026f 02       		.uleb128 0x2
 3312 0270 17       		.uleb128 0x17
 3313 0271 00       		.byte	0
 3314 0272 00       		.byte	0
 3315 0273 2C       		.uleb128 0x2c
 3316 0274 34       		.uleb128 0x34
 3317 0275 00       		.byte	0
 3318 0276 03       		.uleb128 0x3
 3319 0277 0E       		.uleb128 0xe
ARM GAS  C:\Users\rdn\AppData\Local\Temp\ccZR1Dqi.s 			page 72


 3320 0278 3A       		.uleb128 0x3a
 3321 0279 0B       		.uleb128 0xb
 3322 027a 3B       		.uleb128 0x3b
 3323 027b 05       		.uleb128 0x5
 3324 027c 49       		.uleb128 0x49
 3325 027d 13       		.uleb128 0x13
 3326 027e 02       		.uleb128 0x2
 3327 027f 18       		.uleb128 0x18
 3328 0280 00       		.byte	0
 3329 0281 00       		.byte	0
 3330 0282 2D       		.uleb128 0x2d
 3331 0283 34       		.uleb128 0x34
 3332 0284 00       		.byte	0
 3333 0285 03       		.uleb128 0x3
 3334 0286 08       		.uleb128 0x8
 3335 0287 3A       		.uleb128 0x3a
 3336 0288 0B       		.uleb128 0xb
 3337 0289 3B       		.uleb128 0x3b
 3338 028a 05       		.uleb128 0x5
 3339 028b 49       		.uleb128 0x49
 3340 028c 13       		.uleb128 0x13
 3341 028d 02       		.uleb128 0x2
 3342 028e 18       		.uleb128 0x18
 3343 028f 00       		.byte	0
 3344 0290 00       		.byte	0
 3345 0291 2E       		.uleb128 0x2e
 3346 0292 1D       		.uleb128 0x1d
 3347 0293 01       		.byte	0x1
 3348 0294 31       		.uleb128 0x31
 3349 0295 13       		.uleb128 0x13
 3350 0296 11       		.uleb128 0x11
 3351 0297 01       		.uleb128 0x1
 3352 0298 12       		.uleb128 0x12
 3353 0299 06       		.uleb128 0x6
 3354 029a 58       		.uleb128 0x58
 3355 029b 0B       		.uleb128 0xb
 3356 029c 59       		.uleb128 0x59
 3357 029d 05       		.uleb128 0x5
 3358 029e 00       		.byte	0
 3359 029f 00       		.byte	0
 3360 02a0 2F       		.uleb128 0x2f
 3361 02a1 1D       		.uleb128 0x1d
 3362 02a2 01       		.byte	0x1
 3363 02a3 31       		.uleb128 0x31
 3364 02a4 13       		.uleb128 0x13
 3365 02a5 11       		.uleb128 0x11
 3366 02a6 01       		.uleb128 0x1
 3367 02a7 12       		.uleb128 0x12
 3368 02a8 06       		.uleb128 0x6
 3369 02a9 58       		.uleb128 0x58
 3370 02aa 0B       		.uleb128 0xb
 3371 02ab 59       		.uleb128 0x59
 3372 02ac 05       		.uleb128 0x5
 3373 02ad 01       		.uleb128 0x1
 3374 02ae 13       		.uleb128 0x13
 3375 02af 00       		.byte	0
 3376 02b0 00       		.byte	0
ARM GAS  C:\Users\rdn\AppData\Local\Temp\ccZR1Dqi.s 			page 73


 3377 02b1 30       		.uleb128 0x30
 3378 02b2 2E       		.uleb128 0x2e
 3379 02b3 01       		.byte	0x1
 3380 02b4 3F       		.uleb128 0x3f
 3381 02b5 19       		.uleb128 0x19
 3382 02b6 03       		.uleb128 0x3
 3383 02b7 0E       		.uleb128 0xe
 3384 02b8 3A       		.uleb128 0x3a
 3385 02b9 0B       		.uleb128 0xb
 3386 02ba 3B       		.uleb128 0x3b
 3387 02bb 05       		.uleb128 0x5
 3388 02bc 27       		.uleb128 0x27
 3389 02bd 19       		.uleb128 0x19
 3390 02be 49       		.uleb128 0x49
 3391 02bf 13       		.uleb128 0x13
 3392 02c0 11       		.uleb128 0x11
 3393 02c1 01       		.uleb128 0x1
 3394 02c2 12       		.uleb128 0x12
 3395 02c3 06       		.uleb128 0x6
 3396 02c4 40       		.uleb128 0x40
 3397 02c5 18       		.uleb128 0x18
 3398 02c6 9742     		.uleb128 0x2117
 3399 02c8 19       		.uleb128 0x19
 3400 02c9 01       		.uleb128 0x1
 3401 02ca 13       		.uleb128 0x13
 3402 02cb 00       		.byte	0
 3403 02cc 00       		.byte	0
 3404 02cd 31       		.uleb128 0x31
 3405 02ce 05       		.uleb128 0x5
 3406 02cf 00       		.byte	0
 3407 02d0 03       		.uleb128 0x3
 3408 02d1 0E       		.uleb128 0xe
 3409 02d2 3A       		.uleb128 0x3a
 3410 02d3 0B       		.uleb128 0xb
 3411 02d4 3B       		.uleb128 0x3b
 3412 02d5 05       		.uleb128 0x5
 3413 02d6 49       		.uleb128 0x49
 3414 02d7 13       		.uleb128 0x13
 3415 02d8 02       		.uleb128 0x2
 3416 02d9 17       		.uleb128 0x17
 3417 02da 00       		.byte	0
 3418 02db 00       		.byte	0
 3419 02dc 32       		.uleb128 0x32
 3420 02dd 34       		.uleb128 0x34
 3421 02de 00       		.byte	0
 3422 02df 03       		.uleb128 0x3
 3423 02e0 0E       		.uleb128 0xe
 3424 02e1 3A       		.uleb128 0x3a
 3425 02e2 0B       		.uleb128 0xb
 3426 02e3 3B       		.uleb128 0x3b
 3427 02e4 05       		.uleb128 0x5
 3428 02e5 49       		.uleb128 0x49
 3429 02e6 13       		.uleb128 0x13
 3430 02e7 02       		.uleb128 0x2
 3431 02e8 17       		.uleb128 0x17
 3432 02e9 00       		.byte	0
 3433 02ea 00       		.byte	0
ARM GAS  C:\Users\rdn\AppData\Local\Temp\ccZR1Dqi.s 			page 74


 3434 02eb 33       		.uleb128 0x33
 3435 02ec 34       		.uleb128 0x34
 3436 02ed 00       		.byte	0
 3437 02ee 03       		.uleb128 0x3
 3438 02ef 08       		.uleb128 0x8
 3439 02f0 3A       		.uleb128 0x3a
 3440 02f1 0B       		.uleb128 0xb
 3441 02f2 3B       		.uleb128 0x3b
 3442 02f3 05       		.uleb128 0x5
 3443 02f4 49       		.uleb128 0x49
 3444 02f5 13       		.uleb128 0x13
 3445 02f6 02       		.uleb128 0x2
 3446 02f7 17       		.uleb128 0x17
 3447 02f8 00       		.byte	0
 3448 02f9 00       		.byte	0
 3449 02fa 34       		.uleb128 0x34
 3450 02fb 2E       		.uleb128 0x2e
 3451 02fc 00       		.byte	0
 3452 02fd 3F       		.uleb128 0x3f
 3453 02fe 19       		.uleb128 0x19
 3454 02ff 3C       		.uleb128 0x3c
 3455 0300 19       		.uleb128 0x19
 3456 0301 6E       		.uleb128 0x6e
 3457 0302 0E       		.uleb128 0xe
 3458 0303 03       		.uleb128 0x3
 3459 0304 0E       		.uleb128 0xe
 3460 0305 00       		.byte	0
 3461 0306 00       		.byte	0
 3462 0307 00       		.byte	0
 3463              		.section	.debug_loc,"",%progbits
 3464              	.Ldebug_loc0:
 3465              	.LLST0:
 3466 0000 00000000 		.4byte	.LVL0
 3467 0004 04000000 		.4byte	.LVL2
 3468 0008 0100     		.2byte	0x1
 3469 000a 50       		.byte	0x50
 3470 000b 04000000 		.4byte	.LVL2
 3471 000f 10000000 		.4byte	.LFE13
 3472 0013 0400     		.2byte	0x4
 3473 0015 F3       		.byte	0xf3
 3474 0016 01       		.uleb128 0x1
 3475 0017 50       		.byte	0x50
 3476 0018 9F       		.byte	0x9f
 3477 0019 00000000 		.4byte	0
 3478 001d 00000000 		.4byte	0
 3479              	.LLST1:
 3480 0021 00000000 		.4byte	.LVL0
 3481 0025 06000000 		.4byte	.LVL3
 3482 0029 0200     		.2byte	0x2
 3483 002b 30       		.byte	0x30
 3484 002c 9F       		.byte	0x9f
 3485 002d 06000000 		.4byte	.LVL3
 3486 0031 10000000 		.4byte	.LFE13
 3487 0035 0100     		.2byte	0x1
 3488 0037 50       		.byte	0x50
 3489 0038 00000000 		.4byte	0
 3490 003c 00000000 		.4byte	0
ARM GAS  C:\Users\rdn\AppData\Local\Temp\ccZR1Dqi.s 			page 75


 3491              	.LLST2:
 3492 0040 00000000 		.4byte	.LVL6
 3493 0044 07000000 		.4byte	.LVL7-1
 3494 0048 0100     		.2byte	0x1
 3495 004a 50       		.byte	0x50
 3496 004b 07000000 		.4byte	.LVL7-1
 3497 004f 1C000000 		.4byte	.LFE14
 3498 0053 0100     		.2byte	0x1
 3499 0055 54       		.byte	0x54
 3500 0056 00000000 		.4byte	0
 3501 005a 00000000 		.4byte	0
 3502              	.LLST3:
 3503 005e 00000000 		.4byte	.LVL8
 3504 0062 06000000 		.4byte	.LVL10
 3505 0066 0100     		.2byte	0x1
 3506 0068 50       		.byte	0x50
 3507 0069 06000000 		.4byte	.LVL10
 3508 006d 35000000 		.4byte	.LVL18-1
 3509 0071 0100     		.2byte	0x1
 3510 0073 52       		.byte	0x52
 3511 0074 35000000 		.4byte	.LVL18-1
 3512 0078 3C000000 		.4byte	.LFE15
 3513 007c 0400     		.2byte	0x4
 3514 007e F3       		.byte	0xf3
 3515 007f 01       		.uleb128 0x1
 3516 0080 50       		.byte	0x50
 3517 0081 9F       		.byte	0x9f
 3518 0082 00000000 		.4byte	0
 3519 0086 00000000 		.4byte	0
 3520              	.LLST4:
 3521 008a 04000000 		.4byte	.LVL9
 3522 008e 06000000 		.4byte	.LVL10
 3523 0092 0300     		.2byte	0x3
 3524 0094 70       		.byte	0x70
 3525 0095 28       		.sleb128 40
 3526 0096 9F       		.byte	0x9f
 3527 0097 06000000 		.4byte	.LVL10
 3528 009b 35000000 		.4byte	.LVL18-1
 3529 009f 0300     		.2byte	0x3
 3530 00a1 72       		.byte	0x72
 3531 00a2 28       		.sleb128 40
 3532 00a3 9F       		.byte	0x9f
 3533 00a4 35000000 		.4byte	.LVL18-1
 3534 00a8 3C000000 		.4byte	.LFE15
 3535 00ac 0600     		.2byte	0x6
 3536 00ae F3       		.byte	0xf3
 3537 00af 01       		.uleb128 0x1
 3538 00b0 50       		.byte	0x50
 3539 00b1 23       		.byte	0x23
 3540 00b2 28       		.uleb128 0x28
 3541 00b3 9F       		.byte	0x9f
 3542 00b4 00000000 		.4byte	0
 3543 00b8 00000000 		.4byte	0
 3544              	.LLST5:
 3545 00bc 04000000 		.4byte	.LVL9
 3546 00c0 06000000 		.4byte	.LVL10
 3547 00c4 0300     		.2byte	0x3
ARM GAS  C:\Users\rdn\AppData\Local\Temp\ccZR1Dqi.s 			page 76


 3548 00c6 70       		.byte	0x70
 3549 00c7 1C       		.sleb128 28
 3550 00c8 9F       		.byte	0x9f
 3551 00c9 06000000 		.4byte	.LVL10
 3552 00cd 35000000 		.4byte	.LVL18-1
 3553 00d1 0300     		.2byte	0x3
 3554 00d3 72       		.byte	0x72
 3555 00d4 1C       		.sleb128 28
 3556 00d5 9F       		.byte	0x9f
 3557 00d6 35000000 		.4byte	.LVL18-1
 3558 00da 3C000000 		.4byte	.LFE15
 3559 00de 0600     		.2byte	0x6
 3560 00e0 F3       		.byte	0xf3
 3561 00e1 01       		.uleb128 0x1
 3562 00e2 50       		.byte	0x50
 3563 00e3 23       		.byte	0x23
 3564 00e4 1C       		.uleb128 0x1c
 3565 00e5 9F       		.byte	0x9f
 3566 00e6 00000000 		.4byte	0
 3567 00ea 00000000 		.4byte	0
 3568              	.LLST6:
 3569 00ee 06000000 		.4byte	.LVL10
 3570 00f2 35000000 		.4byte	.LVL18-1
 3571 00f6 0100     		.2byte	0x1
 3572 00f8 50       		.byte	0x50
 3573 00f9 35000000 		.4byte	.LVL18-1
 3574 00fd 3C000000 		.4byte	.LFE15
 3575 0101 0600     		.2byte	0x6
 3576 0103 F3       		.byte	0xf3
 3577 0104 01       		.uleb128 0x1
 3578 0105 50       		.byte	0x50
 3579 0106 23       		.byte	0x23
 3580 0107 04       		.uleb128 0x4
 3581 0108 9F       		.byte	0x9f
 3582 0109 00000000 		.4byte	0
 3583 010d 00000000 		.4byte	0
 3584              	.LLST7:
 3585 0111 14000000 		.4byte	.LVL11
 3586 0115 26000000 		.4byte	.LVL13
 3587 0119 0100     		.2byte	0x1
 3588 011b 53       		.byte	0x53
 3589 011c 28000000 		.4byte	.LVL14
 3590 0120 2A000000 		.4byte	.LVL15
 3591 0124 0100     		.2byte	0x1
 3592 0126 53       		.byte	0x53
 3593 0127 00000000 		.4byte	0
 3594 012b 00000000 		.4byte	0
 3595              	.LLST8:
 3596 012f 20000000 		.4byte	.LVL12
 3597 0133 2C000000 		.4byte	.LVL16
 3598 0137 0100     		.2byte	0x1
 3599 0139 54       		.byte	0x54
 3600 013a 00000000 		.4byte	0
 3601 013e 00000000 		.4byte	0
 3602              	.LLST9:
 3603 0142 2A000000 		.4byte	.LVL15
 3604 0146 30000000 		.4byte	.LVL17
ARM GAS  C:\Users\rdn\AppData\Local\Temp\ccZR1Dqi.s 			page 77


 3605 014a 0100     		.2byte	0x1
 3606 014c 53       		.byte	0x53
 3607 014d 00000000 		.4byte	0
 3608 0151 00000000 		.4byte	0
 3609              	.LLST10:
 3610 0155 00000000 		.4byte	.LVL19
 3611 0159 09000000 		.4byte	.LVL20-1
 3612 015d 0100     		.2byte	0x1
 3613 015f 50       		.byte	0x50
 3614 0160 09000000 		.4byte	.LVL20-1
 3615 0164 A2010000 		.4byte	.LFE22
 3616 0168 0100     		.2byte	0x1
 3617 016a 54       		.byte	0x54
 3618 016b 00000000 		.4byte	0
 3619 016f 00000000 		.4byte	0
 3620              	.LLST11:
 3621 0173 00000000 		.4byte	.LVL19
 3622 0177 09000000 		.4byte	.LVL20-1
 3623 017b 0100     		.2byte	0x1
 3624 017d 51       		.byte	0x51
 3625 017e 09000000 		.4byte	.LVL20-1
 3626 0182 A2010000 		.4byte	.LFE22
 3627 0186 0100     		.2byte	0x1
 3628 0188 55       		.byte	0x55
 3629 0189 00000000 		.4byte	0
 3630 018d 00000000 		.4byte	0
 3631              	.LLST12:
 3632 0191 0E000000 		.4byte	.LVL21
 3633 0195 90010000 		.4byte	.LVL55
 3634 0199 0100     		.2byte	0x1
 3635 019b 56       		.byte	0x56
 3636 019c 00000000 		.4byte	0
 3637 01a0 00000000 		.4byte	0
 3638              	.LLST13:
 3639 01a4 14000000 		.4byte	.LVL22
 3640 01a8 70000000 		.4byte	.LVL36
 3641 01ac 0100     		.2byte	0x1
 3642 01ae 51       		.byte	0x51
 3643 01af 00000000 		.4byte	0
 3644 01b3 00000000 		.4byte	0
 3645              	.LLST14:
 3646 01b7 18000000 		.4byte	.LVL23
 3647 01bb 3C000000 		.4byte	.LVL27
 3648 01bf 0100     		.2byte	0x1
 3649 01c1 53       		.byte	0x53
 3650 01c2 3C000000 		.4byte	.LVL27
 3651 01c6 40000000 		.4byte	.LVL28
 3652 01ca 0600     		.2byte	0x6
 3653 01cc 71       		.byte	0x71
 3654 01cd 00       		.sleb128 0
 3655 01ce 77       		.byte	0x77
 3656 01cf 00       		.sleb128 0
 3657 01d0 22       		.byte	0x22
 3658 01d1 9F       		.byte	0x9f
 3659 01d2 40000000 		.4byte	.LVL28
 3660 01d6 58000000 		.4byte	.LVL33
 3661 01da 0100     		.2byte	0x1
ARM GAS  C:\Users\rdn\AppData\Local\Temp\ccZR1Dqi.s 			page 78


 3662 01dc 53       		.byte	0x53
 3663 01dd 58000000 		.4byte	.LVL33
 3664 01e1 60000000 		.4byte	.LVL34
 3665 01e5 2000     		.2byte	0x20
 3666 01e7 0C       		.byte	0xc
 3667 01e8 FFFFFF00 		.4byte	0xffffff
 3668 01ec 49       		.byte	0x49
 3669 01ed 70       		.byte	0x70
 3670 01ee 00       		.sleb128 0
 3671 01ef 1C       		.byte	0x1c
 3672 01f0 26       		.byte	0x26
 3673 01f1 77       		.byte	0x77
 3674 01f2 00       		.sleb128 0
 3675 01f3 22       		.byte	0x22
 3676 01f4 0C       		.byte	0xc
 3677 01f5 FFFFFF00 		.4byte	0xffffff
 3678 01f9 49       		.byte	0x49
 3679 01fa 70       		.byte	0x70
 3680 01fb 00       		.sleb128 0
 3681 01fc 1C       		.byte	0x1c
 3682 01fd 26       		.byte	0x26
 3683 01fe 20       		.byte	0x20
 3684 01ff 1A       		.byte	0x1a
 3685 0200 0C       		.byte	0xc
 3686 0201 FFFFFF00 		.4byte	0xffffff
 3687 0205 1A       		.byte	0x1a
 3688 0206 9F       		.byte	0x9f
 3689 0207 60000000 		.4byte	.LVL34
 3690 020b 70000000 		.4byte	.LVL36
 3691 020f 0100     		.2byte	0x1
 3692 0211 53       		.byte	0x53
 3693 0212 00000000 		.4byte	0
 3694 0216 00000000 		.4byte	0
 3695              	.LLST15:
 3696 021a 1C000000 		.4byte	.LVL24
 3697 021e 40000000 		.4byte	.LVL28
 3698 0222 0100     		.2byte	0x1
 3699 0224 52       		.byte	0x52
 3700 0225 40000000 		.4byte	.LVL28
 3701 0229 48000000 		.4byte	.LVL29
 3702 022d 0900     		.2byte	0x9
 3703 022f 72       		.byte	0x72
 3704 0230 00       		.sleb128 0
 3705 0231 0C       		.byte	0xc
 3706 0232 FFFFFF00 		.4byte	0xffffff
 3707 0236 1A       		.byte	0x1a
 3708 0237 9F       		.byte	0x9f
 3709 0238 48000000 		.4byte	.LVL29
 3710 023c 62000000 		.4byte	.LVL35
 3711 0240 0100     		.2byte	0x1
 3712 0242 52       		.byte	0x52
 3713 0243 62000000 		.4byte	.LVL35
 3714 0247 70000000 		.4byte	.LVL36
 3715 024b 0D00     		.2byte	0xd
 3716 024d 74       		.byte	0x74
 3717 024e 04       		.sleb128 4
 3718 024f 06       		.byte	0x6
ARM GAS  C:\Users\rdn\AppData\Local\Temp\ccZR1Dqi.s 			page 79


 3719 0250 77       		.byte	0x77
 3720 0251 00       		.sleb128 0
 3721 0252 22       		.byte	0x22
 3722 0253 0C       		.byte	0xc
 3723 0254 FFFFFF00 		.4byte	0xffffff
 3724 0258 1A       		.byte	0x1a
 3725 0259 9F       		.byte	0x9f
 3726 025a 00000000 		.4byte	0
 3727 025e 00000000 		.4byte	0
 3728              	.LLST16:
 3729 0262 38000000 		.4byte	.LVL26
 3730 0266 4C000000 		.4byte	.LVL30
 3731 026a 0100     		.2byte	0x1
 3732 026c 5E       		.byte	0x5e
 3733 026d 00000000 		.4byte	0
 3734 0271 00000000 		.4byte	0
 3735              	.LLST17:
 3736 0275 48010000 		.4byte	.LVL49
 3737 0279 4E010000 		.4byte	.LVL51
 3738 027d 0100     		.2byte	0x1
 3739 027f 53       		.byte	0x53
 3740 0280 4E010000 		.4byte	.LVL51
 3741 0284 5C010000 		.4byte	.LVL52
 3742 0288 0600     		.2byte	0x6
 3743 028a 72       		.byte	0x72
 3744 028b 00       		.sleb128 0
 3745 028c 71       		.byte	0x71
 3746 028d 00       		.sleb128 0
 3747 028e 26       		.byte	0x26
 3748 028f 9F       		.byte	0x9f
 3749 0290 82010000 		.4byte	.LVL54
 3750 0294 9A010000 		.4byte	.LVL56
 3751 0298 0100     		.2byte	0x1
 3752 029a 53       		.byte	0x53
 3753 029b 00000000 		.4byte	0
 3754 029f 00000000 		.4byte	0
 3755              	.LLST18:
 3756 02a3 70000000 		.4byte	.LVL36
 3757 02a7 D4000000 		.4byte	.LVL41
 3758 02ab 0100     		.2byte	0x1
 3759 02ad 55       		.byte	0x55
 3760 02ae 00000000 		.4byte	0
 3761 02b2 00000000 		.4byte	0
 3762              	.LLST19:
 3763 02b6 70000000 		.4byte	.LVL36
 3764 02ba D4000000 		.4byte	.LVL41
 3765 02be 0100     		.2byte	0x1
 3766 02c0 54       		.byte	0x54
 3767 02c1 00000000 		.4byte	0
 3768 02c5 00000000 		.4byte	0
 3769              	.LLST20:
 3770 02c9 86000000 		.4byte	.LVL37
 3771 02cd 96000000 		.4byte	.LVL38
 3772 02d1 0100     		.2byte	0x1
 3773 02d3 53       		.byte	0x53
 3774 02d4 00000000 		.4byte	0
 3775 02d8 00000000 		.4byte	0
ARM GAS  C:\Users\rdn\AppData\Local\Temp\ccZR1Dqi.s 			page 80


 3776              	.LLST21:
 3777 02dc 86000000 		.4byte	.LVL37
 3778 02e0 96000000 		.4byte	.LVL38
 3779 02e4 0100     		.2byte	0x1
 3780 02e6 55       		.byte	0x55
 3781 02e7 00000000 		.4byte	0
 3782 02eb 00000000 		.4byte	0
 3783              	.LLST22:
 3784 02ef A0000000 		.4byte	.LVL39
 3785 02f3 AE000000 		.4byte	.LVL40
 3786 02f7 0100     		.2byte	0x1
 3787 02f9 51       		.byte	0x51
 3788 02fa 00000000 		.4byte	0
 3789 02fe 00000000 		.4byte	0
 3790              	.LLST23:
 3791 0302 A0000000 		.4byte	.LVL39
 3792 0306 AE000000 		.4byte	.LVL40
 3793 030a 0100     		.2byte	0x1
 3794 030c 55       		.byte	0x55
 3795 030d 00000000 		.4byte	0
 3796 0311 00000000 		.4byte	0
 3797              	.LLST24:
 3798 0315 DA000000 		.4byte	.LVL43
 3799 0319 3E010000 		.4byte	.LVL48
 3800 031d 0100     		.2byte	0x1
 3801 031f 55       		.byte	0x55
 3802 0320 00000000 		.4byte	0
 3803 0324 00000000 		.4byte	0
 3804              	.LLST25:
 3805 0328 DA000000 		.4byte	.LVL43
 3806 032c 3E010000 		.4byte	.LVL48
 3807 0330 0100     		.2byte	0x1
 3808 0332 54       		.byte	0x54
 3809 0333 00000000 		.4byte	0
 3810 0337 00000000 		.4byte	0
 3811              	.LLST26:
 3812 033b F0000000 		.4byte	.LVL44
 3813 033f 00010000 		.4byte	.LVL45
 3814 0343 0100     		.2byte	0x1
 3815 0345 53       		.byte	0x53
 3816 0346 00000000 		.4byte	0
 3817 034a 00000000 		.4byte	0
 3818              	.LLST27:
 3819 034e F0000000 		.4byte	.LVL44
 3820 0352 00010000 		.4byte	.LVL45
 3821 0356 0100     		.2byte	0x1
 3822 0358 55       		.byte	0x55
 3823 0359 00000000 		.4byte	0
 3824 035d 00000000 		.4byte	0
 3825              	.LLST28:
 3826 0361 0A010000 		.4byte	.LVL46
 3827 0365 18010000 		.4byte	.LVL47
 3828 0369 0100     		.2byte	0x1
 3829 036b 51       		.byte	0x51
 3830 036c 00000000 		.4byte	0
 3831 0370 00000000 		.4byte	0
 3832              	.LLST29:
ARM GAS  C:\Users\rdn\AppData\Local\Temp\ccZR1Dqi.s 			page 81


 3833 0374 0A010000 		.4byte	.LVL46
 3834 0378 18010000 		.4byte	.LVL47
 3835 037c 0100     		.2byte	0x1
 3836 037e 55       		.byte	0x55
 3837 037f 00000000 		.4byte	0
 3838 0383 00000000 		.4byte	0
 3839              	.LLST30:
 3840 0387 4C010000 		.4byte	.LVL50
 3841 038b 5C010000 		.4byte	.LVL52
 3842 038f 0100     		.2byte	0x1
 3843 0391 52       		.byte	0x52
 3844 0392 00000000 		.4byte	0
 3845 0396 00000000 		.4byte	0
 3846              	.LLST31:
 3847 039a 4C010000 		.4byte	.LVL50
 3848 039e 82010000 		.4byte	.LVL54
 3849 03a2 0100     		.2byte	0x1
 3850 03a4 55       		.byte	0x55
 3851 03a5 00000000 		.4byte	0
 3852 03a9 00000000 		.4byte	0
 3853              	.LLST32:
 3854 03ad 5C010000 		.4byte	.LVL52
 3855 03b1 6C010000 		.4byte	.LVL53
 3856 03b5 0300     		.2byte	0x3
 3857 03b7 08       		.byte	0x8
 3858 03b8 FF       		.byte	0xff
 3859 03b9 9F       		.byte	0x9f
 3860 03ba 00000000 		.4byte	0
 3861 03be 00000000 		.4byte	0
 3862              	.LLST33:
 3863 03c2 5C010000 		.4byte	.LVL52
 3864 03c6 6C010000 		.4byte	.LVL53
 3865 03ca 0100     		.2byte	0x1
 3866 03cc 55       		.byte	0x55
 3867 03cd 00000000 		.4byte	0
 3868 03d1 00000000 		.4byte	0
 3869              	.LLST34:
 3870 03d5 00000000 		.4byte	.LVL57
 3871 03d9 1E000000 		.4byte	.LVL60
 3872 03dd 0100     		.2byte	0x1
 3873 03df 50       		.byte	0x50
 3874 03e0 1E000000 		.4byte	.LVL60
 3875 03e4 DC000000 		.4byte	.LFE16
 3876 03e8 0100     		.2byte	0x1
 3877 03ea 54       		.byte	0x54
 3878 03eb 00000000 		.4byte	0
 3879 03ef 00000000 		.4byte	0
 3880              	.LLST35:
 3881 03f3 00000000 		.4byte	.LVL57
 3882 03f7 1C000000 		.4byte	.LVL59
 3883 03fb 0100     		.2byte	0x1
 3884 03fd 51       		.byte	0x51
 3885 03fe 1C000000 		.4byte	.LVL59
 3886 0402 DC000000 		.4byte	.LFE16
 3887 0406 0400     		.2byte	0x4
 3888 0408 F3       		.byte	0xf3
 3889 0409 01       		.uleb128 0x1
ARM GAS  C:\Users\rdn\AppData\Local\Temp\ccZR1Dqi.s 			page 82


 3890 040a 51       		.byte	0x51
 3891 040b 9F       		.byte	0x9f
 3892 040c 00000000 		.4byte	0
 3893 0410 00000000 		.4byte	0
 3894              	.LLST36:
 3895 0414 00000000 		.4byte	.LVL57
 3896 0418 1A000000 		.4byte	.LVL58
 3897 041c 0100     		.2byte	0x1
 3898 041e 52       		.byte	0x52
 3899 041f 1A000000 		.4byte	.LVL58
 3900 0423 62000000 		.4byte	.LVL67
 3901 0427 0100     		.2byte	0x1
 3902 0429 56       		.byte	0x56
 3903 042a 62000000 		.4byte	.LVL67
 3904 042e 68000000 		.4byte	.LVL68
 3905 0432 0200     		.2byte	0x2
 3906 0434 70       		.byte	0x70
 3907 0435 00       		.sleb128 0
 3908 0436 68000000 		.4byte	.LVL68
 3909 043a 6A000000 		.4byte	.LVL69
 3910 043e 0100     		.2byte	0x1
 3911 0440 56       		.byte	0x56
 3912 0441 6A000000 		.4byte	.LVL69
 3913 0445 D8000000 		.4byte	.LVL76
 3914 0449 0200     		.2byte	0x2
 3915 044b 70       		.byte	0x70
 3916 044c 00       		.sleb128 0
 3917 044d D8000000 		.4byte	.LVL76
 3918 0451 DC000000 		.4byte	.LFE16
 3919 0455 0200     		.2byte	0x2
 3920 0457 74       		.byte	0x74
 3921 0458 28       		.sleb128 40
 3922 0459 00000000 		.4byte	0
 3923 045d 00000000 		.4byte	0
 3924              	.LLST37:
 3925 0461 00000000 		.4byte	.LVL57
 3926 0465 21000000 		.4byte	.LVL61-1
 3927 0469 0100     		.2byte	0x1
 3928 046b 53       		.byte	0x53
 3929 046c 21000000 		.4byte	.LVL61-1
 3930 0470 DC000000 		.4byte	.LFE16
 3931 0474 0400     		.2byte	0x4
 3932 0476 F3       		.byte	0xf3
 3933 0477 01       		.uleb128 0x1
 3934 0478 53       		.byte	0x53
 3935 0479 9F       		.byte	0x9f
 3936 047a 00000000 		.4byte	0
 3937 047e 00000000 		.4byte	0
 3938              	.LLST38:
 3939 0482 40000000 		.4byte	.LVL62
 3940 0486 D8000000 		.4byte	.LVL76
 3941 048a 0300     		.2byte	0x3
 3942 048c 74       		.byte	0x74
 3943 048d 04       		.sleb128 4
 3944 048e 9F       		.byte	0x9f
 3945 048f 00000000 		.4byte	0
 3946 0493 00000000 		.4byte	0
ARM GAS  C:\Users\rdn\AppData\Local\Temp\ccZR1Dqi.s 			page 83


 3947              	.LLST39:
 3948 0497 44000000 		.4byte	.LVL63
 3949 049b D8000000 		.4byte	.LVL76
 3950 049f 0100     		.2byte	0x1
 3951 04a1 52       		.byte	0x52
 3952 04a2 00000000 		.4byte	0
 3953 04a6 00000000 		.4byte	0
 3954              	.LLST40:
 3955 04aa 48000000 		.4byte	.LVL64
 3956 04ae D8000000 		.4byte	.LVL76
 3957 04b2 0100     		.2byte	0x1
 3958 04b4 50       		.byte	0x50
 3959 04b5 00000000 		.4byte	0
 3960 04b9 00000000 		.4byte	0
 3961              	.LLST41:
 3962 04bd 48000000 		.4byte	.LVL64
 3963 04c1 56000000 		.4byte	.LVL65
 3964 04c5 0100     		.2byte	0x1
 3965 04c7 50       		.byte	0x50
 3966 04c8 00000000 		.4byte	0
 3967 04cc 00000000 		.4byte	0
 3968              	.LLST42:
 3969 04d0 5A000000 		.4byte	.LVL66
 3970 04d4 6A000000 		.4byte	.LVL69
 3971 04d8 0100     		.2byte	0x1
 3972 04da 50       		.byte	0x50
 3973 04db 00000000 		.4byte	0
 3974 04df 00000000 		.4byte	0
 3975              	.LLST43:
 3976 04e3 70000000 		.4byte	.LVL70
 3977 04e7 80000000 		.4byte	.LVL71
 3978 04eb 0100     		.2byte	0x1
 3979 04ed 50       		.byte	0x50
 3980 04ee 00000000 		.4byte	0
 3981 04f2 00000000 		.4byte	0
 3982              	.LLST44:
 3983 04f6 84000000 		.4byte	.LVL72
 3984 04fa D8000000 		.4byte	.LVL76
 3985 04fe 0100     		.2byte	0x1
 3986 0500 50       		.byte	0x50
 3987 0501 00000000 		.4byte	0
 3988 0505 00000000 		.4byte	0
 3989              	.LLST45:
 3990 0509 84000000 		.4byte	.LVL72
 3991 050d D8000000 		.4byte	.LVL76
 3992 0511 0100     		.2byte	0x1
 3993 0513 52       		.byte	0x52
 3994 0514 00000000 		.4byte	0
 3995 0518 00000000 		.4byte	0
 3996              	.LLST46:
 3997 051c 94000000 		.4byte	.LVL73
 3998 0520 BC000000 		.4byte	.LVL75
 3999 0524 0100     		.2byte	0x1
 4000 0526 51       		.byte	0x51
 4001 0527 00000000 		.4byte	0
 4002 052b 00000000 		.4byte	0
 4003              	.LLST47:
ARM GAS  C:\Users\rdn\AppData\Local\Temp\ccZR1Dqi.s 			page 84


 4004 052f 00000000 		.4byte	.LVL77
 4005 0533 05000000 		.4byte	.LVL78-1
 4006 0537 0100     		.2byte	0x1
 4007 0539 50       		.byte	0x50
 4008 053a 05000000 		.4byte	.LVL78-1
 4009 053e 0E000000 		.4byte	.LFE17
 4010 0542 0400     		.2byte	0x4
 4011 0544 F3       		.byte	0xf3
 4012 0545 01       		.uleb128 0x1
 4013 0546 50       		.byte	0x50
 4014 0547 9F       		.byte	0x9f
 4015 0548 00000000 		.4byte	0
 4016 054c 00000000 		.4byte	0
 4017              	.LLST48:
 4018 0550 00000000 		.4byte	.LVL79
 4019 0554 07000000 		.4byte	.LVL81-1
 4020 0558 0100     		.2byte	0x1
 4021 055a 50       		.byte	0x50
 4022 055b 07000000 		.4byte	.LVL81-1
 4023 055f 1E000000 		.4byte	.LFE18
 4024 0563 0100     		.2byte	0x1
 4025 0565 54       		.byte	0x54
 4026 0566 00000000 		.4byte	0
 4027 056a 00000000 		.4byte	0
 4028              	.LLST49:
 4029 056e 04000000 		.4byte	.LVL80
 4030 0572 07000000 		.4byte	.LVL81-1
 4031 0576 0300     		.2byte	0x3
 4032 0578 70       		.byte	0x70
 4033 0579 04       		.sleb128 4
 4034 057a 9F       		.byte	0x9f
 4035 057b 07000000 		.4byte	.LVL81-1
 4036 057f 1E000000 		.4byte	.LFE18
 4037 0583 0300     		.2byte	0x3
 4038 0585 74       		.byte	0x74
 4039 0586 04       		.sleb128 4
 4040 0587 9F       		.byte	0x9f
 4041 0588 00000000 		.4byte	0
 4042 058c 00000000 		.4byte	0
 4043              	.LLST50:
 4044 0590 00000000 		.4byte	.LVL82
 4045 0594 6C000000 		.4byte	.LVL89
 4046 0598 0100     		.2byte	0x1
 4047 059a 51       		.byte	0x51
 4048 059b 6C000000 		.4byte	.LVL89
 4049 059f 76000000 		.4byte	.LFE24
 4050 05a3 0400     		.2byte	0x4
 4051 05a5 F3       		.byte	0xf3
 4052 05a6 01       		.uleb128 0x1
 4053 05a7 51       		.byte	0x51
 4054 05a8 9F       		.byte	0x9f
 4055 05a9 00000000 		.4byte	0
 4056 05ad 00000000 		.4byte	0
 4057              	.LLST51:
 4058 05b1 00000000 		.4byte	.LVL82
 4059 05b5 72000000 		.4byte	.LVL90
 4060 05b9 0100     		.2byte	0x1
ARM GAS  C:\Users\rdn\AppData\Local\Temp\ccZR1Dqi.s 			page 85


 4061 05bb 52       		.byte	0x52
 4062 05bc 72000000 		.4byte	.LVL90
 4063 05c0 76000000 		.4byte	.LFE24
 4064 05c4 0400     		.2byte	0x4
 4065 05c6 F3       		.byte	0xf3
 4066 05c7 01       		.uleb128 0x1
 4067 05c8 52       		.byte	0x52
 4068 05c9 9F       		.byte	0x9f
 4069 05ca 00000000 		.4byte	0
 4070 05ce 00000000 		.4byte	0
 4071              	.LLST52:
 4072 05d2 2A000000 		.4byte	.LVL85
 4073 05d6 68000000 		.4byte	.LVL88
 4074 05da 0100     		.2byte	0x1
 4075 05dc 56       		.byte	0x56
 4076 05dd 00000000 		.4byte	0
 4077 05e1 00000000 		.4byte	0
 4078              	.LLST53:
 4079 05e5 2A000000 		.4byte	.LVL85
 4080 05e9 68000000 		.4byte	.LVL88
 4081 05ed 0100     		.2byte	0x1
 4082 05ef 55       		.byte	0x55
 4083 05f0 00000000 		.4byte	0
 4084 05f4 00000000 		.4byte	0
 4085              	.LLST54:
 4086 05f8 3E000000 		.4byte	.LVL86
 4087 05fc 68000000 		.4byte	.LVL88
 4088 0600 0100     		.2byte	0x1
 4089 0602 54       		.byte	0x54
 4090 0603 00000000 		.4byte	0
 4091 0607 00000000 		.4byte	0
 4092              	.LLST55:
 4093 060b 00000000 		.4byte	.LVL91
 4094 060f 1E000000 		.4byte	.LVL97
 4095 0613 0100     		.2byte	0x1
 4096 0615 50       		.byte	0x50
 4097 0616 1E000000 		.4byte	.LVL97
 4098 061a 8E000000 		.4byte	.LFE23
 4099 061e 0100     		.2byte	0x1
 4100 0620 58       		.byte	0x58
 4101 0621 00000000 		.4byte	0
 4102 0625 00000000 		.4byte	0
 4103              	.LLST56:
 4104 0629 16000000 		.4byte	.LVL95
 4105 062d 1C000000 		.4byte	.LVL96
 4106 0631 0100     		.2byte	0x1
 4107 0633 54       		.byte	0x54
 4108 0634 1C000000 		.4byte	.LVL96
 4109 0638 1E000000 		.4byte	.LVL97
 4110 063c 0800     		.2byte	0x8
 4111 063e 70       		.byte	0x70
 4112 063f 34       		.sleb128 52
 4113 0640 06       		.byte	0x6
 4114 0641 70       		.byte	0x70
 4115 0642 30       		.sleb128 48
 4116 0643 06       		.byte	0x6
 4117 0644 1C       		.byte	0x1c
ARM GAS  C:\Users\rdn\AppData\Local\Temp\ccZR1Dqi.s 			page 86


 4118 0645 9F       		.byte	0x9f
 4119 0646 00000000 		.4byte	0
 4120 064a 00000000 		.4byte	0
 4121              	.LLST57:
 4122 064e 26000000 		.4byte	.LVL98
 4123 0652 3D000000 		.4byte	.LVL99-1
 4124 0656 0100     		.2byte	0x1
 4125 0658 52       		.byte	0x52
 4126 0659 3D000000 		.4byte	.LVL99-1
 4127 065d 3E000000 		.4byte	.LVL99
 4128 0661 0F00     		.2byte	0xf
 4129 0663 08       		.byte	0x8
 4130 0664 20       		.byte	0x20
 4131 0665 74       		.byte	0x74
 4132 0666 00       		.sleb128 0
 4133 0667 74       		.byte	0x74
 4134 0668 00       		.sleb128 0
 4135 0669 08       		.byte	0x8
 4136 066a 20       		.byte	0x20
 4137 066b 2A       		.byte	0x2a
 4138 066c 28       		.byte	0x28
 4139 066d 0100     		.2byte	0x1
 4140 066f 16       		.byte	0x16
 4141 0670 13       		.byte	0x13
 4142 0671 9F       		.byte	0x9f
 4143 0672 00000000 		.4byte	0
 4144 0676 00000000 		.4byte	0
 4145              	.LLST58:
 4146 067a 26000000 		.4byte	.LVL98
 4147 067e 3E000000 		.4byte	.LVL99
 4148 0682 0200     		.2byte	0x2
 4149 0684 30       		.byte	0x30
 4150 0685 9F       		.byte	0x9f
 4151 0686 00000000 		.4byte	0
 4152 068a 00000000 		.4byte	0
 4153              	.LLST59:
 4154 068e 26000000 		.4byte	.LVL98
 4155 0692 3E000000 		.4byte	.LVL99
 4156 0696 0100     		.2byte	0x1
 4157 0698 58       		.byte	0x58
 4158 0699 00000000 		.4byte	0
 4159 069d 00000000 		.4byte	0
 4160              	.LLST60:
 4161 06a1 26000000 		.4byte	.LVL98
 4162 06a5 40000000 		.4byte	.LVL100
 4163 06a9 0300     		.2byte	0x3
 4164 06ab 78       		.byte	0x78
 4165 06ac 1C       		.sleb128 28
 4166 06ad 9F       		.byte	0x9f
 4167 06ae 00000000 		.4byte	0
 4168 06b2 00000000 		.4byte	0
 4169              	.LLST61:
 4170 06b6 44000000 		.4byte	.LVL101
 4171 06ba 82000000 		.4byte	.LVL104
 4172 06be 0100     		.2byte	0x1
 4173 06c0 56       		.byte	0x56
 4174 06c1 00000000 		.4byte	0
ARM GAS  C:\Users\rdn\AppData\Local\Temp\ccZR1Dqi.s 			page 87


 4175 06c5 00000000 		.4byte	0
 4176              	.LLST62:
 4177 06c9 44000000 		.4byte	.LVL101
 4178 06cd 82000000 		.4byte	.LVL104
 4179 06d1 0100     		.2byte	0x1
 4180 06d3 55       		.byte	0x55
 4181 06d4 00000000 		.4byte	0
 4182 06d8 00000000 		.4byte	0
 4183              	.LLST63:
 4184 06dc 58000000 		.4byte	.LVL102
 4185 06e0 82000000 		.4byte	.LVL104
 4186 06e4 0100     		.2byte	0x1
 4187 06e6 52       		.byte	0x52
 4188 06e7 00000000 		.4byte	0
 4189 06eb 00000000 		.4byte	0
 4190              	.LLST64:
 4191 06ef 0A000000 		.4byte	.LVL108
 4192 06f3 6E000000 		.4byte	.LVL113
 4193 06f7 0100     		.2byte	0x1
 4194 06f9 51       		.byte	0x51
 4195 06fa 00000000 		.4byte	0
 4196 06fe 00000000 		.4byte	0
 4197              	.LLST65:
 4198 0702 0A000000 		.4byte	.LVL108
 4199 0706 6E000000 		.4byte	.LVL113
 4200 070a 0100     		.2byte	0x1
 4201 070c 53       		.byte	0x53
 4202 070d 00000000 		.4byte	0
 4203 0711 00000000 		.4byte	0
 4204              	.LLST66:
 4205 0715 20000000 		.4byte	.LVL109
 4206 0719 30000000 		.4byte	.LVL110
 4207 071d 0100     		.2byte	0x1
 4208 071f 52       		.byte	0x52
 4209 0720 00000000 		.4byte	0
 4210 0724 00000000 		.4byte	0
 4211              	.LLST67:
 4212 0728 20000000 		.4byte	.LVL109
 4213 072c 30000000 		.4byte	.LVL110
 4214 0730 0100     		.2byte	0x1
 4215 0732 51       		.byte	0x51
 4216 0733 00000000 		.4byte	0
 4217 0737 00000000 		.4byte	0
 4218              	.LLST68:
 4219 073b 3A000000 		.4byte	.LVL111
 4220 073f 48000000 		.4byte	.LVL112
 4221 0743 0100     		.2byte	0x1
 4222 0745 55       		.byte	0x55
 4223 0746 00000000 		.4byte	0
 4224 074a 00000000 		.4byte	0
 4225              	.LLST69:
 4226 074e 3A000000 		.4byte	.LVL111
 4227 0752 48000000 		.4byte	.LVL112
 4228 0756 0100     		.2byte	0x1
 4229 0758 51       		.byte	0x51
 4230 0759 00000000 		.4byte	0
 4231 075d 00000000 		.4byte	0
ARM GAS  C:\Users\rdn\AppData\Local\Temp\ccZR1Dqi.s 			page 88


 4232              	.LLST70:
 4233 0761 00000000 		.4byte	.LVL114
 4234 0765 14000000 		.4byte	.LVL117
 4235 0769 0100     		.2byte	0x1
 4236 076b 50       		.byte	0x50
 4237 076c 14000000 		.4byte	.LVL117
 4238 0770 F8000000 		.4byte	.LFE28
 4239 0774 0100     		.2byte	0x1
 4240 0776 57       		.byte	0x57
 4241 0777 00000000 		.4byte	0
 4242 077b 00000000 		.4byte	0
 4243              	.LLST71:
 4244 077f 00000000 		.4byte	.LVL114
 4245 0783 84000000 		.4byte	.LVL124
 4246 0787 0100     		.2byte	0x1
 4247 0789 51       		.byte	0x51
 4248 078a 84000000 		.4byte	.LVL124
 4249 078e F8000000 		.4byte	.LFE28
 4250 0792 0400     		.2byte	0x4
 4251 0794 F3       		.byte	0xf3
 4252 0795 01       		.uleb128 0x1
 4253 0796 51       		.byte	0x51
 4254 0797 9F       		.byte	0x9f
 4255 0798 00000000 		.4byte	0
 4256 079c 00000000 		.4byte	0
 4257              	.LLST72:
 4258 07a0 08000000 		.4byte	.LVL115
 4259 07a4 DC000000 		.4byte	.LVL130
 4260 07a8 0100     		.2byte	0x1
 4261 07aa 53       		.byte	0x53
 4262 07ab DC000000 		.4byte	.LVL130
 4263 07af F8000000 		.4byte	.LFE28
 4264 07b3 0300     		.2byte	0x3
 4265 07b5 77       		.byte	0x77
 4266 07b6 1C       		.sleb128 28
 4267 07b7 9F       		.byte	0x9f
 4268 07b8 00000000 		.4byte	0
 4269 07bc 00000000 		.4byte	0
 4270              	.LLST73:
 4271 07c0 6C000000 		.4byte	.LVL121
 4272 07c4 EE000000 		.4byte	.LVL131
 4273 07c8 0100     		.2byte	0x1
 4274 07ca 5E       		.byte	0x5e
 4275 07cb 00000000 		.4byte	0
 4276 07cf 00000000 		.4byte	0
 4277              	.LLST74:
 4278 07d3 80000000 		.4byte	.LVL123
 4279 07d7 84000000 		.4byte	.LVL124
 4280 07db 0600     		.2byte	0x6
 4281 07dd 71       		.byte	0x71
 4282 07de 00       		.sleb128 0
 4283 07df 7E       		.byte	0x7e
 4284 07e0 00       		.sleb128 0
 4285 07e1 1C       		.byte	0x1c
 4286 07e2 9F       		.byte	0x9f
 4287 07e3 84000000 		.4byte	.LVL124
 4288 07e7 F4000000 		.4byte	.LVL133
ARM GAS  C:\Users\rdn\AppData\Local\Temp\ccZR1Dqi.s 			page 89


 4289 07eb 0100     		.2byte	0x1
 4290 07ed 51       		.byte	0x51
 4291 07ee 00000000 		.4byte	0
 4292 07f2 00000000 		.4byte	0
 4293              	.LLST75:
 4294 07f6 0C000000 		.4byte	.LVL116
 4295 07fa 60000000 		.4byte	.LVL120
 4296 07fe 0100     		.2byte	0x1
 4297 0800 55       		.byte	0x55
 4298 0801 00000000 		.4byte	0
 4299 0805 00000000 		.4byte	0
 4300              	.LLST76:
 4301 0809 0C000000 		.4byte	.LVL116
 4302 080d 60000000 		.4byte	.LVL120
 4303 0811 0100     		.2byte	0x1
 4304 0813 53       		.byte	0x53
 4305 0814 00000000 		.4byte	0
 4306 0818 00000000 		.4byte	0
 4307              	.LLST77:
 4308 081c 1C000000 		.4byte	.LVL118
 4309 0820 60000000 		.4byte	.LVL120
 4310 0824 0100     		.2byte	0x1
 4311 0826 54       		.byte	0x54
 4312 0827 00000000 		.4byte	0
 4313 082b 00000000 		.4byte	0
 4314              	.LLST78:
 4315 082f 86000000 		.4byte	.LVL125
 4316 0833 DA000000 		.4byte	.LVL129
 4317 0837 0100     		.2byte	0x1
 4318 0839 55       		.byte	0x55
 4319 083a 00000000 		.4byte	0
 4320 083e 00000000 		.4byte	0
 4321              	.LLST79:
 4322 0842 86000000 		.4byte	.LVL125
 4323 0846 DA000000 		.4byte	.LVL129
 4324 084a 0100     		.2byte	0x1
 4325 084c 53       		.byte	0x53
 4326 084d 00000000 		.4byte	0
 4327 0851 00000000 		.4byte	0
 4328              	.LLST80:
 4329 0855 96000000 		.4byte	.LVL126
 4330 0859 BE000000 		.4byte	.LVL128
 4331 085d 0100     		.2byte	0x1
 4332 085f 54       		.byte	0x54
 4333 0860 00000000 		.4byte	0
 4334 0864 00000000 		.4byte	0
 4335              	.LLST81:
 4336 0868 08000000 		.4byte	.LVL136
 4337 086c 1A000000 		.4byte	.LVL137
 4338 0870 0300     		.2byte	0x3
 4339 0872 70       		.byte	0x70
 4340 0873 28       		.sleb128 40
 4341 0874 9F       		.byte	0x9f
 4342 0875 00000000 		.4byte	0
 4343 0879 00000000 		.4byte	0
 4344              		.section	.debug_aranges,"",%progbits
 4345 0000 74000000 		.4byte	0x74
ARM GAS  C:\Users\rdn\AppData\Local\Temp\ccZR1Dqi.s 			page 90


 4346 0004 0200     		.2byte	0x2
 4347 0006 00000000 		.4byte	.Ldebug_info0
 4348 000a 04       		.byte	0x4
 4349 000b 00       		.byte	0
 4350 000c 0000     		.2byte	0
 4351 000e 0000     		.2byte	0
 4352 0010 00000000 		.4byte	.LFB13
 4353 0014 10000000 		.4byte	.LFE13-.LFB13
 4354 0018 00000000 		.4byte	.LFB14
 4355 001c 1C000000 		.4byte	.LFE14-.LFB14
 4356 0020 00000000 		.4byte	.LFB15
 4357 0024 3C000000 		.4byte	.LFE15-.LFB15
 4358 0028 00000000 		.4byte	.LFB22
 4359 002c A2010000 		.4byte	.LFE22-.LFB22
 4360 0030 00000000 		.4byte	.LFB16
 4361 0034 DC000000 		.4byte	.LFE16-.LFB16
 4362 0038 00000000 		.4byte	.LFB17
 4363 003c 0E000000 		.4byte	.LFE17-.LFB17
 4364 0040 00000000 		.4byte	.LFB18
 4365 0044 1E000000 		.4byte	.LFE18-.LFB18
 4366 0048 00000000 		.4byte	.LFB24
 4367 004c 76000000 		.4byte	.LFE24-.LFB24
 4368 0050 00000000 		.4byte	.LFB23
 4369 0054 8E000000 		.4byte	.LFE23-.LFB23
 4370 0058 00000000 		.4byte	.LFB25
 4371 005c 80000000 		.4byte	.LFE25-.LFB25
 4372 0060 00000000 		.4byte	.LFB28
 4373 0064 F8000000 		.4byte	.LFE28-.LFB28
 4374 0068 00000000 		.4byte	.LFB29
 4375 006c 34000000 		.4byte	.LFE29-.LFB29
 4376 0070 00000000 		.4byte	0
 4377 0074 00000000 		.4byte	0
 4378              		.section	.debug_ranges,"",%progbits
 4379              	.Ldebug_ranges0:
 4380 0000 00000000 		.4byte	.LBB22
 4381 0004 02000000 		.4byte	.LBE22
 4382 0008 04000000 		.4byte	.LBB23
 4383 000c 0E000000 		.4byte	.LBE23
 4384 0010 00000000 		.4byte	0
 4385 0014 00000000 		.4byte	0
 4386 0018 00000000 		.4byte	.LFB13
 4387 001c 10000000 		.4byte	.LFE13
 4388 0020 00000000 		.4byte	.LFB14
 4389 0024 1C000000 		.4byte	.LFE14
 4390 0028 00000000 		.4byte	.LFB15
 4391 002c 3C000000 		.4byte	.LFE15
 4392 0030 00000000 		.4byte	.LFB22
 4393 0034 A2010000 		.4byte	.LFE22
 4394 0038 00000000 		.4byte	.LFB16
 4395 003c DC000000 		.4byte	.LFE16
 4396 0040 00000000 		.4byte	.LFB17
 4397 0044 0E000000 		.4byte	.LFE17
 4398 0048 00000000 		.4byte	.LFB18
 4399 004c 1E000000 		.4byte	.LFE18
 4400 0050 00000000 		.4byte	.LFB24
 4401 0054 76000000 		.4byte	.LFE24
 4402 0058 00000000 		.4byte	.LFB23
ARM GAS  C:\Users\rdn\AppData\Local\Temp\ccZR1Dqi.s 			page 91


 4403 005c 8E000000 		.4byte	.LFE23
 4404 0060 00000000 		.4byte	.LFB25
 4405 0064 80000000 		.4byte	.LFE25
 4406 0068 00000000 		.4byte	.LFB28
 4407 006c F8000000 		.4byte	.LFE28
 4408 0070 00000000 		.4byte	.LFB29
 4409 0074 34000000 		.4byte	.LFE29
 4410 0078 00000000 		.4byte	0
 4411 007c 00000000 		.4byte	0
 4412              		.section	.debug_line,"",%progbits
 4413              	.Ldebug_line0:
 4414 0000 A2030000 		.section	.debug_str,"MS",%progbits,1
 4414      02003801 
 4414      00000201 
 4414      FB0E0D00 
 4414      01010101 
 4415              	.LASF38:
 4416 0000 61635F70 		.ascii	"ac_put\000"
 4416      757400
 4417              	.LASF44:
 4418 0007 6765745F 		.ascii	"get_bits_left\000"
 4418      62697473 
 4418      5F6C6566 
 4418      7400
 4419              	.LASF18:
 4420 0015 646F7562 		.ascii	"double\000"
 4420      6C6500
 4421              	.LASF24:
 4422 001c 72616E67 		.ascii	"range\000"
 4422      6500
 4423              	.LASF58:
 4424 0022 6C63335F 		.ascii	"lc3_flush_bits\000"
 4424      666C7573 
 4424      685F6269 
 4424      747300
 4425              	.LASF2:
 4426 0031 73686F72 		.ascii	"short int\000"
 4426      7420696E 
 4426      7400
 4427              	.LASF14:
 4428 003b 73697A65 		.ascii	"sizetype\000"
 4428      74797065 
 4428      00
 4429              	.LASF29:
 4430 0044 6C63335F 		.ascii	"lc3_bits_buffer\000"
 4430      62697473 
 4430      5F627566 
 4430      66657200 
 4431              	.LASF56:
 4432 0054 6C63335F 		.ascii	"lc3_setup_bits\000"
 4432      73657475 
 4432      705F6269 
 4432      747300
 4433              	.LASF66:
 4434 0063 6C63335F 		.ascii	"lc3_bits_mode\000"
 4434      62697473 
 4434      5F6D6F64 
ARM GAS  C:\Users\rdn\AppData\Local\Temp\ccZR1Dqi.s 			page 92


 4434      6500
 4435              	.LASF21:
 4436 0071 6E6F7665 		.ascii	"nover\000"
 4436      7200
 4437              	.LASF63:
 4438 0077 474E5520 		.ascii	"GNU C11 5.4.1 20160609 (release) [ARM/embedded-5-br"
 4438      43313120 
 4438      352E342E 
 4438      31203230 
 4438      31363036 
 4439 00aa 616E6368 		.ascii	"anch revision 237715] -mcpu=cortex-m4 -mfloat-abi=s"
 4439      20726576 
 4439      6973696F 
 4439      6E203233 
 4439      37373135 
 4440 00dd 6F667466 		.ascii	"oftfp -mfpu=fpv4-sp-d16 -mthumb -g -Og -ffunction-s"
 4440      70202D6D 
 4440      6670753D 
 4440      66707634 
 4440      2D73702D 
 4441 0110 65637469 		.ascii	"ections -ffat-lto-objects\000"
 4441      6F6E7320 
 4441      2D666661 
 4441      742D6C74 
 4441      6F2D6F62 
 4442              	.LASF6:
 4443 012a 6C6F6E67 		.ascii	"long long int\000"
 4443      206C6F6E 
 4443      6720696E 
 4443      7400
 4444              	.LASF34:
 4445 0138 6D6F6465 		.ascii	"mode\000"
 4445      00
 4446              	.LASF62:
 4447 013d 6C63335F 		.ascii	"lc3_ac_read_renorm\000"
 4447      61635F72 
 4447      6561645F 
 4447      72656E6F 
 4447      726D00
 4448              	.LASF49:
 4449 0150 6F766572 		.ascii	"over_high\000"
 4449      5F686967 
 4449      6800
 4450              	.LASF22:
 4451 015a 6C63335F 		.ascii	"lc3_bits_accu\000"
 4451      62697473 
 4451      5F616363 
 4451      7500
 4452              	.LASF11:
 4453 0168 75696E74 		.ascii	"uint8_t\000"
 4453      385F7400 
 4454              	.LASF35:
 4455 0170 61636375 		.ascii	"accu\000"
 4455      00
 4456              	.LASF12:
 4457 0175 75696E74 		.ascii	"uintptr_t\000"
 4457      7074725F 
ARM GAS  C:\Users\rdn\AppData\Local\Temp\ccZR1Dqi.s 			page 93


 4457      7400
 4458              	.LASF41:
 4459 017f 6E626974 		.ascii	"nbits\000"
 4459      7300
 4460              	.LASF15:
 4461 0185 666C6F61 		.ascii	"float\000"
 4461      7400
 4462              	.LASF32:
 4463 018b 705F6277 		.ascii	"p_bw\000"
 4463      00
 4464              	.LASF40:
 4465 0190 62697473 		.ascii	"bits\000"
 4465      00
 4466              	.LASF30:
 4467 0195 73746172 		.ascii	"start\000"
 4467      7400
 4468              	.LASF69:
 4469 019b 6D656D73 		.ascii	"memset\000"
 4469      657400
 4470              	.LASF20:
 4471 01a2 4C43335F 		.ascii	"LC3_BITS_MODE_WRITE\000"
 4471      42495453 
 4471      5F4D4F44 
 4471      455F5752 
 4471      49544500 
 4472              	.LASF4:
 4473 01b6 6C6F6E67 		.ascii	"long int\000"
 4473      20696E74 
 4473      00
 4474              	.LASF47:
 4475 01bf 68696768 		.ascii	"high\000"
 4475      00
 4476              	.LASF31:
 4477 01c4 705F6677 		.ascii	"p_fw\000"
 4477      00
 4478              	.LASF8:
 4479 01c9 5F5F7569 		.ascii	"__uint8_t\000"
 4479      6E74385F 
 4479      7400
 4480              	.LASF57:
 4481 01d3 6C63335F 		.ascii	"lc3_put_bits_generic\000"
 4481      7075745F 
 4481      62697473 
 4481      5F67656E 
 4481      65726963 
 4482              	.LASF19:
 4483 01e8 4C43335F 		.ascii	"LC3_BITS_MODE_READ\000"
 4483      42495453 
 4483      5F4D4F44 
 4483      455F5245 
 4483      414400
 4484              	.LASF55:
 4485 01fb 61636375 		.ascii	"accu_flush\000"
 4485      5F666C75 
 4485      736800
 4486              	.LASF16:
 4487 0206 6C6F6E67 		.ascii	"long double\000"
ARM GAS  C:\Users\rdn\AppData\Local\Temp\ccZR1Dqi.s 			page 94


 4487      20646F75 
 4487      626C6500 
 4488              	.LASF39:
 4489 0212 6C63335F 		.ascii	"lc3_put_bits\000"
 4489      7075745F 
 4489      62697473 
 4489      00
 4490              	.LASF1:
 4491 021f 756E7369 		.ascii	"unsigned char\000"
 4491      676E6564 
 4491      20636861 
 4491      7200
 4492              	.LASF67:
 4493 022d 61635F67 		.ascii	"ac_get\000"
 4493      657400
 4494              	.LASF61:
 4495 0234 6C63335F 		.ascii	"lc3_get_bits_generic\000"
 4495      6765745F 
 4495      62697473 
 4495      5F67656E 
 4495      65726963 
 4496              	.LASF42:
 4497 0249 61635F67 		.ascii	"ac_get_range_bits\000"
 4497      65745F72 
 4497      616E6765 
 4497      5F626974 
 4497      7300
 4498              	.LASF0:
 4499 025b 7369676E 		.ascii	"signed char\000"
 4499      65642063 
 4499      68617200 
 4500              	.LASF7:
 4501 0267 6C6F6E67 		.ascii	"long long unsigned int\000"
 4501      206C6F6E 
 4501      6720756E 
 4501      7369676E 
 4501      65642069 
 4502              	.LASF10:
 4503 027e 756E7369 		.ascii	"unsigned int\000"
 4503      676E6564 
 4503      20696E74 
 4503      00
 4504              	.LASF60:
 4505 028b 6C63335F 		.ascii	"lc3_ac_write_renorm\000"
 4505      61635F77 
 4505      72697465 
 4505      5F72656E 
 4505      6F726D00 
 4506              	.LASF27:
 4507 029f 63617272 		.ascii	"carry_count\000"
 4507      795F636F 
 4507      756E7400 
 4508              	.LASF25:
 4509 02ab 63616368 		.ascii	"cache\000"
 4509      6500
 4510              	.LASF33:
 4511 02b1 6C63335F 		.ascii	"lc3_bits\000"
ARM GAS  C:\Users\rdn\AppData\Local\Temp\ccZR1Dqi.s 			page 95


 4511      62697473 
 4511      00
 4512              	.LASF26:
 4513 02ba 63617272 		.ascii	"carry\000"
 4513      7900
 4514              	.LASF17:
 4515 02c0 63686172 		.ascii	"char\000"
 4515      00
 4516              	.LASF68:
 4517 02c5 61635F74 		.ascii	"ac_terminate\000"
 4517      65726D69 
 4517      6E617465 
 4517      00
 4518              	.LASF3:
 4519 02d2 73686F72 		.ascii	"short unsigned int\000"
 4519      7420756E 
 4519      7369676E 
 4519      65642069 
 4519      6E7400
 4520              	.LASF13:
 4521 02e5 5F426F6F 		.ascii	"_Bool\000"
 4521      6C00
 4522              	.LASF23:
 4523 02eb 6C63335F 		.ascii	"lc3_bits_ac\000"
 4523      62697473 
 4523      5F616300 
 4524              	.LASF36:
 4525 02f7 62756666 		.ascii	"buffer\000"
 4525      657200
 4526              	.LASF51:
 4527 02fe 61636375 		.ascii	"accu_load\000"
 4527      5F6C6F61 
 4527      6400
 4528              	.LASF5:
 4529 0308 6C6F6E67 		.ascii	"long unsigned int\000"
 4529      20756E73 
 4529      69676E65 
 4529      6420696E 
 4529      7400
 4530              	.LASF9:
 4531 031a 5F5F7569 		.ascii	"__uintptr_t\000"
 4531      6E747074 
 4531      725F7400 
 4532              	.LASF52:
 4533 0326 6E627974 		.ascii	"nbytes\000"
 4533      657300
 4534              	.LASF64:
 4535 032d 2E2E5C2E 		.ascii	"..\\..\\..\\liblc3\\src\\bits.c\000"
 4535      2E5C2E2E 
 4535      5C6C6962 
 4535      6C63335C 
 4535      7372635C 
 4536              	.LASF37:
 4537 0348 62797465 		.ascii	"byte\000"
 4537      00
 4538              	.LASF46:
 4539 034d 6D61736B 		.ascii	"mask\000"
ARM GAS  C:\Users\rdn\AppData\Local\Temp\ccZR1Dqi.s 			page 96


 4539      00
 4540              	.LASF43:
 4541 0352 61635F67 		.ascii	"ac_get_pending_bits\000"
 4541      65745F70 
 4541      656E6469 
 4541      6E675F62 
 4541      69747300 
 4542              	.LASF65:
 4543 0366 433A5C55 		.ascii	"C:\\Users\\rdn\\Documents\\PSoC Creator\\SEES\\ble_"
 4543      73657273 
 4543      5C72646E 
 4543      5C446F63 
 4543      756D656E 
 4544 0393 74657374 		.ascii	"test.cydsn\000"
 4544      2E637964 
 4544      736E00
 4545              	.LASF45:
 4546 039e 61635F73 		.ascii	"ac_shift\000"
 4546      68696674 
 4546      00
 4547              	.LASF28:
 4548 03a7 6572726F 		.ascii	"error\000"
 4548      7200
 4549              	.LASF53:
 4550 03ad 6C63335F 		.ascii	"lc3_get_bits_left\000"
 4550      6765745F 
 4550      62697473 
 4550      5F6C6566 
 4550      7400
 4551              	.LASF50:
 4552 03bf 656E645F 		.ascii	"end_val\000"
 4552      76616C00 
 4553              	.LASF48:
 4554 03c7 6F766572 		.ascii	"over_val\000"
 4554      5F76616C 
 4554      00
 4555              	.LASF59:
 4556 03d0 6E6C6566 		.ascii	"nleft\000"
 4556      7400
 4557              	.LASF54:
 4558 03d6 6C63335F 		.ascii	"lc3_check_bits\000"
 4558      63686563 
 4558      6B5F6269 
 4558      747300
 4559              		.ident	"GCC: (GNU Tools for ARM Embedded Processors) 5.4.1 20160609 (release) [ARM/embedded-5-bran
