ARM GAS  C:\Users\rdn\AppData\Local\Temp\cc0xZJaE.s 			page 1


   1              		.syntax unified
   2              		.cpu cortex-m4
   3              		.eabi_attribute 27, 1
   4              		.fpu fpv4-sp-d16
   5              		.eabi_attribute 20, 1
   6              		.eabi_attribute 21, 1
   7              		.eabi_attribute 23, 3
   8              		.eabi_attribute 24, 1
   9              		.eabi_attribute 25, 1
  10              		.eabi_attribute 26, 1
  11              		.eabi_attribute 30, 1
  12              		.eabi_attribute 34, 1
  13              		.eabi_attribute 18, 4
  14              		.thumb
  15              		.syntax unified
  16              		.file	"bwdet.c"
  17              		.text
  18              	.Ltext0:
  19              		.cfi_sections	.debug_frame
  20              		.section	.text.lc3_bwdet_run,"ax",%progbits
  21              		.align	2
  22              		.global	lc3_bwdet_run
  23              		.thumb
  24              		.thumb_func
  25              		.type	lc3_bwdet_run, %function
  26              	lc3_bwdet_run:
  27              	.LFB13:
  28              		.file 1 "..\\..\\..\\liblc3\\src\\bwdet.c"
   1:..\..\..\liblc3\src/bwdet.c **** /******************************************************************************
   2:..\..\..\liblc3\src/bwdet.c ****  *
   3:..\..\..\liblc3\src/bwdet.c ****  *  Copyright 2022 Google LLC
   4:..\..\..\liblc3\src/bwdet.c ****  *
   5:..\..\..\liblc3\src/bwdet.c ****  *  Licensed under the Apache License, Version 2.0 (the "License");
   6:..\..\..\liblc3\src/bwdet.c ****  *  you may not use this file except in compliance with the License.
   7:..\..\..\liblc3\src/bwdet.c ****  *  You may obtain a copy of the License at:
   8:..\..\..\liblc3\src/bwdet.c ****  *
   9:..\..\..\liblc3\src/bwdet.c ****  *  http://www.apache.org/licenses/LICENSE-2.0
  10:..\..\..\liblc3\src/bwdet.c ****  *
  11:..\..\..\liblc3\src/bwdet.c ****  *  Unless required by applicable law or agreed to in writing, software
  12:..\..\..\liblc3\src/bwdet.c ****  *  distributed under the License is distributed on an "AS IS" BASIS,
  13:..\..\..\liblc3\src/bwdet.c ****  *  WITHOUT WARRANTIES OR CONDITIONS OF ANY KIND, either express or implied.
  14:..\..\..\liblc3\src/bwdet.c ****  *  See the License for the specific language governing permissions and
  15:..\..\..\liblc3\src/bwdet.c ****  *  limitations under the License.
  16:..\..\..\liblc3\src/bwdet.c ****  *
  17:..\..\..\liblc3\src/bwdet.c ****  ******************************************************************************/
  18:..\..\..\liblc3\src/bwdet.c **** 
  19:..\..\..\liblc3\src/bwdet.c **** #include "bwdet.h"
  20:..\..\..\liblc3\src/bwdet.c **** 
  21:..\..\..\liblc3\src/bwdet.c **** 
  22:..\..\..\liblc3\src/bwdet.c **** /**
  23:..\..\..\liblc3\src/bwdet.c ****  * Bandwidth detector
  24:..\..\..\liblc3\src/bwdet.c ****  */
  25:..\..\..\liblc3\src/bwdet.c **** enum lc3_bandwidth lc3_bwdet_run(
  26:..\..\..\liblc3\src/bwdet.c ****     enum lc3_dt dt, enum lc3_srate sr, const float *e)
  27:..\..\..\liblc3\src/bwdet.c **** {
  29              		.loc 1 27 0
  30              		.cfi_startproc
ARM GAS  C:\Users\rdn\AppData\Local\Temp\cc0xZJaE.s 			page 2


  31              		@ args = 0, pretend = 0, frame = 16
  32              		@ frame_needed = 0, uses_anonymous_args = 0
  33              	.LVL0:
  34 0000 2DE9F041 		push	{r4, r5, r6, r7, r8, lr}
  35              		.cfi_def_cfa_offset 24
  36              		.cfi_offset 4, -24
  37              		.cfi_offset 5, -20
  38              		.cfi_offset 6, -16
  39              		.cfi_offset 7, -12
  40              		.cfi_offset 8, -8
  41              		.cfi_offset 14, -4
  42 0004 84B0     		sub	sp, sp, #16
  43              		.cfi_def_cfa_offset 40
  44              	.LVL1:
  28:..\..\..\liblc3\src/bwdet.c ****     /* Bandwidth regions */
  29:..\..\..\liblc3\src/bwdet.c **** 
  30:..\..\..\liblc3\src/bwdet.c ****     struct region { int is : 8; int ie : 8; };
  31:..\..\..\liblc3\src/bwdet.c **** 
  32:..\..\..\liblc3\src/bwdet.c **** #if LC3_PLUS
  33:..\..\..\liblc3\src/bwdet.c **** 
  34:..\..\..\liblc3\src/bwdet.c ****     static const struct region bws_table_2m5[][LC3_BANDWIDTH_SWB+1] = {
  35:..\..\..\liblc3\src/bwdet.c ****         { { 24, 34+1 } },
  36:..\..\..\liblc3\src/bwdet.c ****         { { 24, 32+1 }, { 35, 39+1 } },
  37:..\..\..\liblc3\src/bwdet.c ****         { { 24, 31+1 }, { 33, 38+1 }, { 39, 42+1 } },
  38:..\..\..\liblc3\src/bwdet.c ****         { { 22, 29+1 }, { 31, 35+1 }, { 37, 40+1 }, { 41, 43+1 } },
  39:..\..\..\liblc3\src/bwdet.c ****     };
  40:..\..\..\liblc3\src/bwdet.c **** 
  41:..\..\..\liblc3\src/bwdet.c ****     static const struct region bws_table_5m[][LC3_BANDWIDTH_SWB+1] = {
  42:..\..\..\liblc3\src/bwdet.c ****         { { 39, 49+1 } },
  43:..\..\..\liblc3\src/bwdet.c ****         { { 35, 44+1 }, { 47, 51+1 } },
  44:..\..\..\liblc3\src/bwdet.c ****         { { 34, 42+1 }, { 44, 49+1 }, { 50, 53+1 } },
  45:..\..\..\liblc3\src/bwdet.c ****         { { 32, 40+1 }, { 42, 46+1 }, { 48, 51+1 }, { 52, 54+1 } },
  46:..\..\..\liblc3\src/bwdet.c ****     };
  47:..\..\..\liblc3\src/bwdet.c **** 
  48:..\..\..\liblc3\src/bwdet.c **** #endif /* LC3_PLUS */
  49:..\..\..\liblc3\src/bwdet.c **** 
  50:..\..\..\liblc3\src/bwdet.c ****     static const struct region bws_table_7m5[][LC3_BANDWIDTH_SWB+1] = {
  51:..\..\..\liblc3\src/bwdet.c ****         { { 51, 63+1 } },
  52:..\..\..\liblc3\src/bwdet.c ****         { { 45, 55+1 }, { 58, 63+1 } },
  53:..\..\..\liblc3\src/bwdet.c ****         { { 42, 51+1 }, { 53, 58+1 }, { 60, 63+1 } },
  54:..\..\..\liblc3\src/bwdet.c ****         { { 40, 48+1 }, { 51, 55+1 }, { 57, 60+1 }, { 61, 63+1 } },
  55:..\..\..\liblc3\src/bwdet.c ****     };
  56:..\..\..\liblc3\src/bwdet.c **** 
  57:..\..\..\liblc3\src/bwdet.c ****     static const struct region bws_table_10m[][LC3_BANDWIDTH_SWB+1] = {
  58:..\..\..\liblc3\src/bwdet.c ****         { { 53, 63+1 } },
  59:..\..\..\liblc3\src/bwdet.c ****         { { 47, 56+1 }, { 59, 63+1 } },
  60:..\..\..\liblc3\src/bwdet.c ****         { { 44, 52+1 }, { 54, 59+1 }, { 60, 63+1 } },
  61:..\..\..\liblc3\src/bwdet.c ****         { { 41, 49+1 }, { 51, 55+1 }, { 57, 60+1 }, { 61, 63+1 } },
  62:..\..\..\liblc3\src/bwdet.c ****     };
  63:..\..\..\liblc3\src/bwdet.c **** 
  64:..\..\..\liblc3\src/bwdet.c ****     static const struct region (*bws_table[])[LC3_BANDWIDTH_SWB+1] = {
  65:..\..\..\liblc3\src/bwdet.c ****         [LC3_DT_2M5] = LC3_IF_PLUS(bws_table_2m5,  NULL),
  66:..\..\..\liblc3\src/bwdet.c ****         [LC3_DT_5M ] = LC3_IF_PLUS(bws_table_5m ,  NULL),
  67:..\..\..\liblc3\src/bwdet.c ****         [LC3_DT_7M5] = bws_table_7m5,
  68:..\..\..\liblc3\src/bwdet.c ****         [LC3_DT_10M] = bws_table_10m,
  69:..\..\..\liblc3\src/bwdet.c ****     };
  70:..\..\..\liblc3\src/bwdet.c **** 
ARM GAS  C:\Users\rdn\AppData\Local\Temp\cc0xZJaE.s 			page 3


  71:..\..\..\liblc3\src/bwdet.c ****     static const int l_table[LC3_NUM_DT][LC3_BANDWIDTH_SWB+1] = {
  72:..\..\..\liblc3\src/bwdet.c ****         [LC3_DT_2M5] = { 4, 4, 3, 1 },
  73:..\..\..\liblc3\src/bwdet.c ****         [LC3_DT_5M ] = { 4, 4, 3, 1 },
  74:..\..\..\liblc3\src/bwdet.c ****         [LC3_DT_7M5] = { 4, 4, 3, 2 },
  75:..\..\..\liblc3\src/bwdet.c ****         [LC3_DT_10M] = { 4, 4, 3, 1 },
  76:..\..\..\liblc3\src/bwdet.c ****     };
  77:..\..\..\liblc3\src/bwdet.c **** 
  78:..\..\..\liblc3\src/bwdet.c ****     /* --- Stage 1 ---
  79:..\..\..\liblc3\src/bwdet.c ****      * Determine bw0 candidate */
  80:..\..\..\liblc3\src/bwdet.c **** 
  81:..\..\..\liblc3\src/bwdet.c ****     enum lc3_bandwidth bw0 = LC3_BANDWIDTH_NB;
  82:..\..\..\liblc3\src/bwdet.c ****     enum lc3_bandwidth bwn = (enum lc3_bandwidth)sr;
  83:..\..\..\liblc3\src/bwdet.c **** 
  84:..\..\..\liblc3\src/bwdet.c ****     if (bwn <= bw0 || lc3_hr(sr))
  45              		.loc 1 84 0
  46 0006 0F46     		mov	r7, r1
  47 0008 0029     		cmp	r1, #0
  48 000a 72D0     		beq	.L13
  49 000c 1446     		mov	r4, r2
  50 000e 0429     		cmp	r1, #4
  51 0010 71D8     		bhi	.L14
  85:..\..\..\liblc3\src/bwdet.c ****         return bwn;
  86:..\..\..\liblc3\src/bwdet.c **** 
  87:..\..\..\liblc3\src/bwdet.c ****     const struct region *bwr = bws_table[dt][bwn-1];
  52              		.loc 1 87 0
  53 0012 3C4B     		ldr	r3, .L19
  54 0014 53F82020 		ldr	r2, [r3, r0, lsl #2]
  55              	.LVL2:
  56 0018 01F18053 		add	r3, r1, #268435456
  57 001c 013B     		subs	r3, r3, #1
  58 001e 02EB031C 		add	ip, r2, r3, lsl #4
  59              	.LVL3:
  60              	.LBB12:
  88:..\..\..\liblc3\src/bwdet.c **** 
  89:..\..\..\liblc3\src/bwdet.c ****     for (enum lc3_bandwidth bw = bw0; bw < bwn; bw++) {
  61              		.loc 1 89 0
  62 0022 0025     		movs	r5, #0
  63              	.LBE12:
  81:..\..\..\liblc3\src/bwdet.c ****     enum lc3_bandwidth bwn = (enum lc3_bandwidth)sr;
  64              		.loc 1 81 0
  65 0024 AE46     		mov	lr, r5
  66              	.LBB14:
  67              		.loc 1 89 0
  68 0026 2AE0     		b	.L3
  69              	.LVL4:
  70              	.L9:
  71              	.LBB13:
  90:..\..\..\liblc3\src/bwdet.c ****         int i = bwr[bw].is, ie = bwr[bw].ie;
  72              		.loc 1 90 0
  73 0028 0CEB8502 		add	r2, ip, r5, lsl #2
  74 002c 1CF92530 		ldrsb	r3, [ip, r5, lsl #2]
  75              	.LVL5:
  76 0030 92F90110 		ldrsb	r1, [r2, #1]
  77              	.LVL6:
  91:..\..\..\liblc3\src/bwdet.c ****         int n = ie - i;
  78              		.loc 1 91 0
  79 0034 CE1A     		subs	r6, r1, r3
ARM GAS  C:\Users\rdn\AppData\Local\Temp\cc0xZJaE.s 			page 4


  80              	.LVL7:
  92:..\..\..\liblc3\src/bwdet.c **** 
  93:..\..\..\liblc3\src/bwdet.c ****         float se = e[i];
  81              		.loc 1 93 0
  82 0036 04EB8302 		add	r2, r4, r3, lsl #2
  83 003a D2ED007A 		vldr.32	s15, [r2]
  84              	.LVL8:
  94:..\..\..\liblc3\src/bwdet.c ****         for (i++; i < ie; i++)
  85              		.loc 1 94 0
  86 003e 0133     		adds	r3, r3, #1
  87              	.LVL9:
  88 0040 06E0     		b	.L4
  89              	.L5:
  95:..\..\..\liblc3\src/bwdet.c ****             se += e[i];
  90              		.loc 1 95 0 discriminator 3
  91 0042 04EB8302 		add	r2, r4, r3, lsl #2
  92 0046 92ED007A 		vldr.32	s14, [r2]
  93 004a 77EE877A 		vadd.f32	s15, s15, s14
  94              	.LVL10:
  94:..\..\..\liblc3\src/bwdet.c ****         for (i++; i < ie; i++)
  95              		.loc 1 94 0 discriminator 3
  96 004e 0133     		adds	r3, r3, #1
  97              	.LVL11:
  98              	.L4:
  94:..\..\..\liblc3\src/bwdet.c ****         for (i++; i < ie; i++)
  99              		.loc 1 94 0 is_stmt 0 discriminator 1
 100 0050 8B42     		cmp	r3, r1
 101 0052 F6DB     		blt	.L5
  96:..\..\..\liblc3\src/bwdet.c **** 
  97:..\..\..\liblc3\src/bwdet.c ****         if (se >= (10 << (bw == LC3_BANDWIDTH_NB)) * n)
 102              		.loc 1 97 0 is_stmt 1
 103 0054 0DB9     		cbnz	r5, .L15
 104 0056 1423     		movs	r3, #20
 105              	.LVL12:
 106 0058 00E0     		b	.L6
 107              	.LVL13:
 108              	.L15:
 109 005a 0A23     		movs	r3, #10
 110              	.LVL14:
 111              	.L6:
 112              		.loc 1 97 0 is_stmt 0 discriminator 4
 113 005c 06FB03F6 		mul	r6, r6, r3
 114              	.LVL15:
 115 0060 07EE106A 		vmov	s14, r6	@ int
 116 0064 B8EEC77A 		vcvt.f32.s32	s14, s14
 117 0068 F4EEC77A 		vcmpe.f32	s15, s14
 118 006c F1EE10FA 		vmrs	APSR_nzcv, FPSCR
 119 0070 03DB     		blt	.L7
  98:..\..\..\liblc3\src/bwdet.c ****             bw0 = bw + 1;
 120              		.loc 1 98 0 is_stmt 1
 121 0072 05F1010E 		add	lr, r5, #1
 122              	.LVL16:
 123 0076 5FFA8EFE 		uxtb	lr, lr
 124              	.LVL17:
 125              	.L7:
 126              	.LBE13:
  89:..\..\..\liblc3\src/bwdet.c ****         int i = bwr[bw].is, ie = bwr[bw].ie;
ARM GAS  C:\Users\rdn\AppData\Local\Temp\cc0xZJaE.s 			page 5


 127              		.loc 1 89 0 discriminator 2
 128 007a 0135     		adds	r5, r5, #1
 129              	.LVL18:
 130 007c EDB2     		uxtb	r5, r5
 131              	.LVL19:
 132              	.L3:
  89:..\..\..\liblc3\src/bwdet.c ****         int i = bwr[bw].is, ie = bwr[bw].ie;
 133              		.loc 1 89 0 is_stmt 0 discriminator 1
 134 007e BD42     		cmp	r5, r7
 135 0080 D2D3     		bcc	.L9
 136              	.LBE14:
  99:..\..\..\liblc3\src/bwdet.c ****     }
 100:..\..\..\liblc3\src/bwdet.c **** 
 101:..\..\..\liblc3\src/bwdet.c ****     /* --- Stage 2 ---
 102:..\..\..\liblc3\src/bwdet.c ****      * Detect drop above cut-off frequency.
 103:..\..\..\liblc3\src/bwdet.c ****      * The Tc condition (13) is precalculated, as
 104:..\..\..\liblc3\src/bwdet.c ****      * Tc[] = 10 ^ (n / 10) , n = { 15, 23, 20, 20 } */
 105:..\..\..\liblc3\src/bwdet.c **** 
 106:..\..\..\liblc3\src/bwdet.c ****     int hold = bw0 >= bwn;
 137              		.loc 1 106 0 is_stmt 1
 138 0082 BE45     		cmp	lr, r7
 139 0084 2CBF     		ite	cs
 140 0086 0125     		movcs	r5, #1
 141              	.LVL20:
 142 0088 0025     		movcc	r5, #0
 143              	.LVL21:
 107:..\..\..\liblc3\src/bwdet.c **** 
 108:..\..\..\liblc3\src/bwdet.c ****     if (!hold) {
 144              		.loc 1 108 0
 145 008a 2FD2     		bcs	.L10
 146              	.LBB15:
 109:..\..\..\liblc3\src/bwdet.c ****         int i0 = bwr[bw0].is, l = l_table[dt][bw0];
 147              		.loc 1 109 0
 148 008c 1CF92E60 		ldrsb	r6, [ip, lr, lsl #2]
 149              	.LVL22:
 150 0090 1C4A     		ldr	r2, .L19
 151 0092 0EEB8003 		add	r3, lr, r0, lsl #2
 152 0096 02EB8303 		add	r3, r2, r3, lsl #2
 153 009a D3F810C0 		ldr	ip, [r3, #16]
 154              	.LVL23:
 110:..\..\..\liblc3\src/bwdet.c ****         float tc = (const float []){
 155              		.loc 1 110 0
 156 009e 02F15003 		add	r3, r2, #80
 157 00a2 0FCB     		ldmia	r3, {r0, r1, r2, r3}
 158              	.LVL24:
 159 00a4 0DF11008 		add	r8, sp, #16
 160 00a8 08E90F00 		stmdb	r8, {r0, r1, r2, r3}
 161 00ac 08EB8E03 		add	r3, r8, lr, lsl #2
 162 00b0 53ED046A 		vldr.32	s13, [r3, #-16]
 163              	.LVL25:
 164              	.LBB16:
 111:..\..\..\liblc3\src/bwdet.c ****              31.62277660, 199.52623150, 100, 100 }[bw0];
 112:..\..\..\liblc3\src/bwdet.c **** 
 113:..\..\..\liblc3\src/bwdet.c ****         for (int i = i0 - l + 1; !hold && i <= i0 + 1; i++) {
 165              		.loc 1 113 0
 166 00b4 CCEB0603 		rsb	r3, ip, r6
 167 00b8 0133     		adds	r3, r3, #1
ARM GAS  C:\Users\rdn\AppData\Local\Temp\cc0xZJaE.s 			page 6


 168              	.LVL26:
 169 00ba 13E0     		b	.L11
 170              	.L12:
 114:..\..\..\liblc3\src/bwdet.c ****             hold = e[i-l] > tc * e[i];
 171              		.loc 1 114 0 discriminator 4
 172 00bc CCEB0302 		rsb	r2, ip, r3
 173 00c0 04EB8202 		add	r2, r4, r2, lsl #2
 174 00c4 92ED007A 		vldr.32	s14, [r2]
 175 00c8 04EB8302 		add	r2, r4, r3, lsl #2
 176 00cc D2ED007A 		vldr.32	s15, [r2]
 177 00d0 66EEA77A 		vmul.f32	s15, s13, s15
 178 00d4 B4EEE77A 		vcmpe.f32	s14, s15
 179 00d8 F1EE10FA 		vmrs	APSR_nzcv, FPSCR
 180 00dc CCBF     		ite	gt
 181 00de 0125     		movgt	r5, #1
 182              	.LVL27:
 183 00e0 0025     		movle	r5, #0
 184              	.LVL28:
 113:..\..\..\liblc3\src/bwdet.c ****             hold = e[i-l] > tc * e[i];
 185              		.loc 1 113 0 discriminator 4
 186 00e2 0133     		adds	r3, r3, #1
 187              	.LVL29:
 188              	.L11:
 113:..\..\..\liblc3\src/bwdet.c ****             hold = e[i-l] > tc * e[i];
 189              		.loc 1 113 0 is_stmt 0 discriminator 1
 190 00e4 15B9     		cbnz	r5, .L10
 113:..\..\..\liblc3\src/bwdet.c ****             hold = e[i-l] > tc * e[i];
 191              		.loc 1 113 0 discriminator 3
 192 00e6 721C     		adds	r2, r6, #1
 193 00e8 9342     		cmp	r3, r2
 194 00ea E7DD     		ble	.L12
 195              	.LVL30:
 196              	.L10:
 197              	.LBE16:
 198              	.LBE15:
 115:..\..\..\liblc3\src/bwdet.c ****         }
 116:..\..\..\liblc3\src/bwdet.c **** 
 117:..\..\..\liblc3\src/bwdet.c ****     }
 118:..\..\..\liblc3\src/bwdet.c **** 
 119:..\..\..\liblc3\src/bwdet.c ****     return hold ? bw0 : bwn;
 199              		.loc 1 119 0 is_stmt 1
 200 00ec 2DB1     		cbz	r5, .L16
 201 00ee 7046     		mov	r0, lr
 202 00f0 04E0     		b	.L2
 203              	.LVL31:
 204              	.L13:
  85:..\..\..\liblc3\src/bwdet.c **** 
 205              		.loc 1 85 0
 206 00f2 0846     		mov	r0, r1
 207              	.LVL32:
 208 00f4 02E0     		b	.L2
 209              	.LVL33:
 210              	.L14:
 211 00f6 0846     		mov	r0, r1
 212              	.LVL34:
 213 00f8 00E0     		b	.L2
 214              	.LVL35:
ARM GAS  C:\Users\rdn\AppData\Local\Temp\cc0xZJaE.s 			page 7


 215              	.L16:
 216              		.loc 1 119 0
 217 00fa 3846     		mov	r0, r7
 218              	.LVL36:
 219              	.L2:
 120:..\..\..\liblc3\src/bwdet.c **** }
 220              		.loc 1 120 0
 221 00fc 04B0     		add	sp, sp, #16
 222              		.cfi_def_cfa_offset 24
 223              		@ sp needed
 224 00fe BDE8F081 		pop	{r4, r5, r6, r7, r8, pc}
 225              	.L20:
 226 0102 00BF     		.align	2
 227              	.L19:
 228 0104 00000000 		.word	.LANCHOR0
 229              		.cfi_endproc
 230              	.LFE13:
 231              		.size	lc3_bwdet_run, .-lc3_bwdet_run
 232              		.section	.text.lc3_bwdet_get_nbits,"ax",%progbits
 233              		.align	2
 234              		.global	lc3_bwdet_get_nbits
 235              		.thumb
 236              		.thumb_func
 237              		.type	lc3_bwdet_get_nbits, %function
 238              	lc3_bwdet_get_nbits:
 239              	.LFB14:
 121:..\..\..\liblc3\src/bwdet.c **** 
 122:..\..\..\liblc3\src/bwdet.c **** /**
 123:..\..\..\liblc3\src/bwdet.c ****  * Return number of bits coding the bandwidth value
 124:..\..\..\liblc3\src/bwdet.c ****  */
 125:..\..\..\liblc3\src/bwdet.c **** int lc3_bwdet_get_nbits(enum lc3_srate sr)
 126:..\..\..\liblc3\src/bwdet.c **** {
 240              		.loc 1 126 0
 241              		.cfi_startproc
 242              		@ args = 0, pretend = 0, frame = 0
 243              		@ frame_needed = 0, uses_anonymous_args = 0
 244              		@ link register save eliminated.
 245              	.LVL37:
 127:..\..\..\liblc3\src/bwdet.c ****     return lc3_hr(sr) ? 0 : (sr > 0) + (sr > 1) + (sr > 3);
 246              		.loc 1 127 0
 247 0000 0428     		cmp	r0, #4
 248 0002 0BD8     		bhi	.L23
 249              		.loc 1 127 0 is_stmt 0 discriminator 2
 250 0004 0128     		cmp	r0, #1
 251 0006 94BF     		ite	ls
 252 0008 0023     		movls	r3, #0
 253 000a 0123     		movhi	r3, #1
 254 000c 0028     		cmp	r0, #0
 255 000e 18BF     		it	ne
 256 0010 0133     		addne	r3, r3, #1
 257 0012 0328     		cmp	r0, #3
 258 0014 94BF     		ite	ls
 259 0016 1846     		movls	r0, r3
 260 0018 581C     		addhi	r0, r3, #1
 261              	.LVL38:
 262 001a 7047     		bx	lr
 263              	.LVL39:
ARM GAS  C:\Users\rdn\AppData\Local\Temp\cc0xZJaE.s 			page 8


 264              	.L23:
 265              		.loc 1 127 0
 266 001c 0020     		movs	r0, #0
 267              	.LVL40:
 128:..\..\..\liblc3\src/bwdet.c **** }
 268              		.loc 1 128 0 is_stmt 1
 269 001e 7047     		bx	lr
 270              		.cfi_endproc
 271              	.LFE14:
 272              		.size	lc3_bwdet_get_nbits, .-lc3_bwdet_get_nbits
 273              		.section	.text.lc3_bwdet_put_bw,"ax",%progbits
 274              		.align	2
 275              		.global	lc3_bwdet_put_bw
 276              		.thumb
 277              		.thumb_func
 278              		.type	lc3_bwdet_put_bw, %function
 279              	lc3_bwdet_put_bw:
 280              	.LFB15:
 129:..\..\..\liblc3\src/bwdet.c **** 
 130:..\..\..\liblc3\src/bwdet.c **** /**
 131:..\..\..\liblc3\src/bwdet.c ****  * Put bandwidth indication
 132:..\..\..\liblc3\src/bwdet.c ****  */
 133:..\..\..\liblc3\src/bwdet.c **** void lc3_bwdet_put_bw(lc3_bits_t *bits,
 134:..\..\..\liblc3\src/bwdet.c ****     enum lc3_srate sr, enum lc3_bandwidth bw)
 135:..\..\..\liblc3\src/bwdet.c **** {
 281              		.loc 1 135 0
 282              		.cfi_startproc
 283              		@ args = 0, pretend = 0, frame = 0
 284              		@ frame_needed = 0, uses_anonymous_args = 0
 285              	.LVL41:
 286 0000 38B5     		push	{r3, r4, r5, lr}
 287              		.cfi_def_cfa_offset 16
 288              		.cfi_offset 3, -16
 289              		.cfi_offset 4, -12
 290              		.cfi_offset 5, -8
 291              		.cfi_offset 14, -4
 292 0002 0546     		mov	r5, r0
 293 0004 1446     		mov	r4, r2
 136:..\..\..\liblc3\src/bwdet.c ****     int nbits_bw = lc3_bwdet_get_nbits(sr);
 294              		.loc 1 136 0
 295 0006 0846     		mov	r0, r1
 296              	.LVL42:
 297 0008 FFF7FEFF 		bl	lc3_bwdet_get_nbits
 298              	.LVL43:
 137:..\..\..\liblc3\src/bwdet.c ****     if (nbits_bw > 0)
 299              		.loc 1 137 0
 300 000c 021E     		subs	r2, r0, #0
 301 000e 0DDD     		ble	.L24
 302              	.LVL44:
 303              	.LBB17:
 304              	.LBB18:
 305              		.file 2 "..\\..\\..\\liblc3\\src\\bits.h"
   1:..\..\..\liblc3\src/bits.h **** /******************************************************************************
   2:..\..\..\liblc3\src/bits.h ****  *
   3:..\..\..\liblc3\src/bits.h ****  *  Copyright 2022 Google LLC
   4:..\..\..\liblc3\src/bits.h ****  *
   5:..\..\..\liblc3\src/bits.h ****  *  Licensed under the Apache License, Version 2.0 (the "License");
ARM GAS  C:\Users\rdn\AppData\Local\Temp\cc0xZJaE.s 			page 9


   6:..\..\..\liblc3\src/bits.h ****  *  you may not use this file except in compliance with the License.
   7:..\..\..\liblc3\src/bits.h ****  *  You may obtain a copy of the License at:
   8:..\..\..\liblc3\src/bits.h ****  *
   9:..\..\..\liblc3\src/bits.h ****  *  http://www.apache.org/licenses/LICENSE-2.0
  10:..\..\..\liblc3\src/bits.h ****  *
  11:..\..\..\liblc3\src/bits.h ****  *  Unless required by applicable law or agreed to in writing, software
  12:..\..\..\liblc3\src/bits.h ****  *  distributed under the License is distributed on an "AS IS" BASIS,
  13:..\..\..\liblc3\src/bits.h ****  *  WITHOUT WARRANTIES OR CONDITIONS OF ANY KIND, either express or implied.
  14:..\..\..\liblc3\src/bits.h ****  *  See the License for the specific language governing permissions and
  15:..\..\..\liblc3\src/bits.h ****  *  limitations under the License.
  16:..\..\..\liblc3\src/bits.h ****  *
  17:..\..\..\liblc3\src/bits.h ****  ******************************************************************************/
  18:..\..\..\liblc3\src/bits.h **** 
  19:..\..\..\liblc3\src/bits.h **** /**
  20:..\..\..\liblc3\src/bits.h ****  * The bitstream is written by the 2 ends of the buffer :
  21:..\..\..\liblc3\src/bits.h ****  *
  22:..\..\..\liblc3\src/bits.h ****  * - Arthmetic coder put bits while increasing memory addresses
  23:..\..\..\liblc3\src/bits.h ****  *   in the buffer (forward)
  24:..\..\..\liblc3\src/bits.h ****  *
  25:..\..\..\liblc3\src/bits.h ****  * - Plain bits are puts starting the end of the buffer, with memeory
  26:..\..\..\liblc3\src/bits.h ****  *   addresses decreasing (backward)
  27:..\..\..\liblc3\src/bits.h ****  *
  28:..\..\..\liblc3\src/bits.h ****  *       .---------------------------------------------------.
  29:..\..\..\liblc3\src/bits.h ****  *       | > > > > > > > > > > :         : < < < < < < < < < |
  30:..\..\..\liblc3\src/bits.h ****  *       '---------------------------------------------------'
  31:..\..\..\liblc3\src/bits.h ****  *       |---------------------> - - - - - - - - - - - - - ->|
  32:..\..\..\liblc3\src/bits.h ****  *                              |< - - - <-------------------|
  33:..\..\..\liblc3\src/bits.h ****  *          Arithmetic coding                  Plain bits
  34:..\..\..\liblc3\src/bits.h ****  *          `lc3_put_symbol()`               `lc3_put_bits()`
  35:..\..\..\liblc3\src/bits.h ****  *
  36:..\..\..\liblc3\src/bits.h ****  * - The forward writing is protected against buffer overflow, it cannot
  37:..\..\..\liblc3\src/bits.h ****  *   write after the buffer, but can overwrite plain bits previously
  38:..\..\..\liblc3\src/bits.h ****  *   written in the buffer.
  39:..\..\..\liblc3\src/bits.h ****  *
  40:..\..\..\liblc3\src/bits.h ****  * - The backward writing is protected against overwrite of the arithmetic
  41:..\..\..\liblc3\src/bits.h ****  *   coder bitstream. In such way, the backward bitstream is always limited
  42:..\..\..\liblc3\src/bits.h ****  *   by the aritmetic coder bitstream, and can be overwritten by him.
  43:..\..\..\liblc3\src/bits.h ****  *
  44:..\..\..\liblc3\src/bits.h ****  *       .---------------------------------------------------.
  45:..\..\..\liblc3\src/bits.h ****  *       | > > > > > > > > > > :         : < < < < < < < < < |
  46:..\..\..\liblc3\src/bits.h ****  *       '---------------------------------------------------'
  47:..\..\..\liblc3\src/bits.h ****  *       |---------------------> - - - - - - - - - - - - - ->|
  48:..\..\..\liblc3\src/bits.h ****  *       |< - - - - - - - - - - -  - - - <-------------------|
  49:..\..\..\liblc3\src/bits.h ****  *          Arithmetic coding                  Plain bits
  50:..\..\..\liblc3\src/bits.h ****  *          `lc3_get_symbol()`               `lc3_get_bits()`
  51:..\..\..\liblc3\src/bits.h ****  *
  52:..\..\..\liblc3\src/bits.h ****  * - Reading is limited to read of the complementary end of the buffer.
  53:..\..\..\liblc3\src/bits.h ****  *
  54:..\..\..\liblc3\src/bits.h ****  * - The procedure `lc3_check_bits()` returns indication that read has been
  55:..\..\..\liblc3\src/bits.h ****  *   made crossing the other bit plane.
  56:..\..\..\liblc3\src/bits.h ****  *
  57:..\..\..\liblc3\src/bits.h ****  */
  58:..\..\..\liblc3\src/bits.h **** 
  59:..\..\..\liblc3\src/bits.h **** #ifndef __LC3_BITS_H
  60:..\..\..\liblc3\src/bits.h **** #define __LC3_BITS_H
  61:..\..\..\liblc3\src/bits.h **** 
  62:..\..\..\liblc3\src/bits.h **** #include "common.h"
ARM GAS  C:\Users\rdn\AppData\Local\Temp\cc0xZJaE.s 			page 10


  63:..\..\..\liblc3\src/bits.h **** 
  64:..\..\..\liblc3\src/bits.h **** 
  65:..\..\..\liblc3\src/bits.h **** /**
  66:..\..\..\liblc3\src/bits.h ****  * Bitstream mode
  67:..\..\..\liblc3\src/bits.h ****  */
  68:..\..\..\liblc3\src/bits.h **** 
  69:..\..\..\liblc3\src/bits.h **** enum lc3_bits_mode {
  70:..\..\..\liblc3\src/bits.h ****     LC3_BITS_MODE_READ,
  71:..\..\..\liblc3\src/bits.h ****     LC3_BITS_MODE_WRITE,
  72:..\..\..\liblc3\src/bits.h **** };
  73:..\..\..\liblc3\src/bits.h **** 
  74:..\..\..\liblc3\src/bits.h **** /**
  75:..\..\..\liblc3\src/bits.h ****  * Arithmetic coder symbol interval
  76:..\..\..\liblc3\src/bits.h ****  * The model split the interval in 17 symbols
  77:..\..\..\liblc3\src/bits.h ****  */
  78:..\..\..\liblc3\src/bits.h **** 
  79:..\..\..\liblc3\src/bits.h **** struct lc3_ac_symbol {
  80:..\..\..\liblc3\src/bits.h ****     uint16_t low   : 16;
  81:..\..\..\liblc3\src/bits.h ****     uint16_t range : 16;
  82:..\..\..\liblc3\src/bits.h **** };
  83:..\..\..\liblc3\src/bits.h **** 
  84:..\..\..\liblc3\src/bits.h **** struct lc3_ac_model {
  85:..\..\..\liblc3\src/bits.h ****     struct lc3_ac_symbol s[17];
  86:..\..\..\liblc3\src/bits.h **** };
  87:..\..\..\liblc3\src/bits.h **** 
  88:..\..\..\liblc3\src/bits.h **** /**
  89:..\..\..\liblc3\src/bits.h ****  * Bitstream context
  90:..\..\..\liblc3\src/bits.h ****  */
  91:..\..\..\liblc3\src/bits.h **** 
  92:..\..\..\liblc3\src/bits.h **** #define LC3_ACCU_BITS (int)(8 * sizeof(unsigned))
  93:..\..\..\liblc3\src/bits.h **** 
  94:..\..\..\liblc3\src/bits.h **** struct lc3_bits_accu {
  95:..\..\..\liblc3\src/bits.h ****     unsigned v;
  96:..\..\..\liblc3\src/bits.h ****     int n, nover;
  97:..\..\..\liblc3\src/bits.h **** };
  98:..\..\..\liblc3\src/bits.h **** 
  99:..\..\..\liblc3\src/bits.h **** #define LC3_AC_BITS (int)(24)
 100:..\..\..\liblc3\src/bits.h **** 
 101:..\..\..\liblc3\src/bits.h **** struct lc3_bits_ac {
 102:..\..\..\liblc3\src/bits.h ****     unsigned low, range;
 103:..\..\..\liblc3\src/bits.h ****     int cache, carry, carry_count;
 104:..\..\..\liblc3\src/bits.h ****     bool error;
 105:..\..\..\liblc3\src/bits.h **** };
 106:..\..\..\liblc3\src/bits.h **** 
 107:..\..\..\liblc3\src/bits.h **** struct lc3_bits_buffer {
 108:..\..\..\liblc3\src/bits.h ****     const uint8_t *start, *end;
 109:..\..\..\liblc3\src/bits.h ****     uint8_t *p_fw, *p_bw;
 110:..\..\..\liblc3\src/bits.h **** };
 111:..\..\..\liblc3\src/bits.h **** 
 112:..\..\..\liblc3\src/bits.h **** typedef struct lc3_bits {
 113:..\..\..\liblc3\src/bits.h ****     enum lc3_bits_mode mode;
 114:..\..\..\liblc3\src/bits.h ****     struct lc3_bits_ac ac;
 115:..\..\..\liblc3\src/bits.h ****     struct lc3_bits_accu accu;
 116:..\..\..\liblc3\src/bits.h ****     struct lc3_bits_buffer buffer;
 117:..\..\..\liblc3\src/bits.h **** } lc3_bits_t;
 118:..\..\..\liblc3\src/bits.h **** 
 119:..\..\..\liblc3\src/bits.h **** 
ARM GAS  C:\Users\rdn\AppData\Local\Temp\cc0xZJaE.s 			page 11


 120:..\..\..\liblc3\src/bits.h **** /**
 121:..\..\..\liblc3\src/bits.h ****  * Setup bitstream reading/writing
 122:..\..\..\liblc3\src/bits.h ****  * bits            Bitstream context
 123:..\..\..\liblc3\src/bits.h ****  * mode            Either READ or WRITE mode
 124:..\..\..\liblc3\src/bits.h ****  * buffer, len     Output buffer and length (in bytes)
 125:..\..\..\liblc3\src/bits.h ****  */
 126:..\..\..\liblc3\src/bits.h **** void lc3_setup_bits(lc3_bits_t *bits,
 127:..\..\..\liblc3\src/bits.h ****     enum lc3_bits_mode mode, void *buffer, int len);
 128:..\..\..\liblc3\src/bits.h **** 
 129:..\..\..\liblc3\src/bits.h **** /**
 130:..\..\..\liblc3\src/bits.h ****  * Return number of bits left in the bitstream
 131:..\..\..\liblc3\src/bits.h ****  * bits            Bitstream context
 132:..\..\..\liblc3\src/bits.h ****  * return          Number of bits left
 133:..\..\..\liblc3\src/bits.h ****  */
 134:..\..\..\liblc3\src/bits.h **** int lc3_get_bits_left(const lc3_bits_t *bits);
 135:..\..\..\liblc3\src/bits.h **** 
 136:..\..\..\liblc3\src/bits.h **** /**
 137:..\..\..\liblc3\src/bits.h ****  * Check if error occured on bitstream reading/writing
 138:..\..\..\liblc3\src/bits.h ****  * bits            Bitstream context
 139:..\..\..\liblc3\src/bits.h ****  * return          0: Ok  -1: Bitstream overflow or AC reading error
 140:..\..\..\liblc3\src/bits.h ****  */
 141:..\..\..\liblc3\src/bits.h **** int lc3_check_bits(const lc3_bits_t *bits);
 142:..\..\..\liblc3\src/bits.h **** 
 143:..\..\..\liblc3\src/bits.h **** /**
 144:..\..\..\liblc3\src/bits.h ****  * Put a bit
 145:..\..\..\liblc3\src/bits.h ****  * bits            Bitstream context
 146:..\..\..\liblc3\src/bits.h ****  * v               Bit value, 0 or 1
 147:..\..\..\liblc3\src/bits.h ****  */
 148:..\..\..\liblc3\src/bits.h **** static inline void lc3_put_bit(lc3_bits_t *bits, int v);
 149:..\..\..\liblc3\src/bits.h **** 
 150:..\..\..\liblc3\src/bits.h **** /**
 151:..\..\..\liblc3\src/bits.h ****  * Put from 1 to 32 bits
 152:..\..\..\liblc3\src/bits.h ****  * bits            Bitstream context
 153:..\..\..\liblc3\src/bits.h ****  * v, n            Value, in range 0 to 2^n - 1, and bits count (1 to 32)
 154:..\..\..\liblc3\src/bits.h ****  */
 155:..\..\..\liblc3\src/bits.h **** static inline void lc3_put_bits(lc3_bits_t *bits, unsigned v, int n);
 156:..\..\..\liblc3\src/bits.h **** 
 157:..\..\..\liblc3\src/bits.h **** /**
 158:..\..\..\liblc3\src/bits.h ****  * Put arithmetic coder symbol
 159:..\..\..\liblc3\src/bits.h ****  * bits            Bitstream context
 160:..\..\..\liblc3\src/bits.h ****  * model, s        Model distribution and symbol value
 161:..\..\..\liblc3\src/bits.h ****  */
 162:..\..\..\liblc3\src/bits.h **** static inline void lc3_put_symbol(lc3_bits_t *bits,
 163:..\..\..\liblc3\src/bits.h ****     const struct lc3_ac_model *model, unsigned s);
 164:..\..\..\liblc3\src/bits.h **** 
 165:..\..\..\liblc3\src/bits.h **** /**
 166:..\..\..\liblc3\src/bits.h ****  * Flush and terminate bitstream writing
 167:..\..\..\liblc3\src/bits.h ****  * bits            Bitstream context
 168:..\..\..\liblc3\src/bits.h ****  */
 169:..\..\..\liblc3\src/bits.h **** void lc3_flush_bits(lc3_bits_t *bits);
 170:..\..\..\liblc3\src/bits.h **** 
 171:..\..\..\liblc3\src/bits.h **** /**
 172:..\..\..\liblc3\src/bits.h ****  * Get a bit
 173:..\..\..\liblc3\src/bits.h ****  * bits            Bitstream context
 174:..\..\..\liblc3\src/bits.h ****  */
 175:..\..\..\liblc3\src/bits.h **** static inline int lc3_get_bit(lc3_bits_t *bits);
 176:..\..\..\liblc3\src/bits.h **** 
ARM GAS  C:\Users\rdn\AppData\Local\Temp\cc0xZJaE.s 			page 12


 177:..\..\..\liblc3\src/bits.h **** /**
 178:..\..\..\liblc3\src/bits.h ****  * Get from 1 to 32 bits
 179:..\..\..\liblc3\src/bits.h ****  * bits            Bitstream context
 180:..\..\..\liblc3\src/bits.h ****  * n               Number of bits to read (1 to 32)
 181:..\..\..\liblc3\src/bits.h ****  * return          The value read
 182:..\..\..\liblc3\src/bits.h ****  */
 183:..\..\..\liblc3\src/bits.h **** static inline unsigned lc3_get_bits(lc3_bits_t *bits,  int n);
 184:..\..\..\liblc3\src/bits.h **** 
 185:..\..\..\liblc3\src/bits.h **** /**
 186:..\..\..\liblc3\src/bits.h ****  * Get arithmetic coder symbol
 187:..\..\..\liblc3\src/bits.h ****  * bits            Bitstream context
 188:..\..\..\liblc3\src/bits.h ****  * model           Model distribution
 189:..\..\..\liblc3\src/bits.h ****  * return          The value read
 190:..\..\..\liblc3\src/bits.h ****  */
 191:..\..\..\liblc3\src/bits.h **** static inline unsigned lc3_get_symbol(lc3_bits_t *bits,
 192:..\..\..\liblc3\src/bits.h ****     const struct lc3_ac_model *model);
 193:..\..\..\liblc3\src/bits.h **** 
 194:..\..\..\liblc3\src/bits.h **** 
 195:..\..\..\liblc3\src/bits.h **** 
 196:..\..\..\liblc3\src/bits.h **** /* ----------------------------------------------------------------------------
 197:..\..\..\liblc3\src/bits.h ****  *  Inline implementations
 198:..\..\..\liblc3\src/bits.h ****  * -------------------------------------------------------------------------- */
 199:..\..\..\liblc3\src/bits.h **** 
 200:..\..\..\liblc3\src/bits.h **** void lc3_put_bits_generic(lc3_bits_t *bits, unsigned v, int n);
 201:..\..\..\liblc3\src/bits.h **** unsigned lc3_get_bits_generic(struct lc3_bits *bits, int n);
 202:..\..\..\liblc3\src/bits.h **** 
 203:..\..\..\liblc3\src/bits.h **** void lc3_ac_read_renorm(lc3_bits_t *bits);
 204:..\..\..\liblc3\src/bits.h **** void lc3_ac_write_renorm(lc3_bits_t *bits);
 205:..\..\..\liblc3\src/bits.h **** 
 206:..\..\..\liblc3\src/bits.h **** 
 207:..\..\..\liblc3\src/bits.h **** /**
 208:..\..\..\liblc3\src/bits.h ****  * Put a bit
 209:..\..\..\liblc3\src/bits.h ****  */
 210:..\..\..\liblc3\src/bits.h **** LC3_HOT static inline void lc3_put_bit(lc3_bits_t *bits, int v)
 211:..\..\..\liblc3\src/bits.h **** {
 212:..\..\..\liblc3\src/bits.h ****     lc3_put_bits(bits, v, 1);
 213:..\..\..\liblc3\src/bits.h **** }
 214:..\..\..\liblc3\src/bits.h **** 
 215:..\..\..\liblc3\src/bits.h **** /**
 216:..\..\..\liblc3\src/bits.h ****  * Put from 1 to 32 bits
 217:..\..\..\liblc3\src/bits.h ****  */
 218:..\..\..\liblc3\src/bits.h **** LC3_HOT static inline void lc3_put_bits(
 219:..\..\..\liblc3\src/bits.h ****     struct lc3_bits *bits, unsigned v, int n)
 220:..\..\..\liblc3\src/bits.h **** {
 221:..\..\..\liblc3\src/bits.h ****     struct lc3_bits_accu *accu = &bits->accu;
 222:..\..\..\liblc3\src/bits.h **** 
 223:..\..\..\liblc3\src/bits.h ****     if (accu->n + n <= LC3_ACCU_BITS) {
 306              		.loc 2 223 0
 307 0010 296A     		ldr	r1, [r5, #32]
 308 0012 8B18     		adds	r3, r1, r2
 309 0014 202B     		cmp	r3, #32
 310 0016 05DC     		bgt	.L26
 224:..\..\..\liblc3\src/bits.h ****         accu->v |= v << accu->n;
 311              		.loc 2 224 0
 312 0018 8C40     		lsls	r4, r4, r1
 313              	.LVL45:
 314 001a EA69     		ldr	r2, [r5, #28]
ARM GAS  C:\Users\rdn\AppData\Local\Temp\cc0xZJaE.s 			page 13


 315 001c 1443     		orrs	r4, r4, r2
 316 001e EC61     		str	r4, [r5, #28]
 225:..\..\..\liblc3\src/bits.h ****         accu->n += n;
 317              		.loc 2 225 0
 318 0020 2B62     		str	r3, [r5, #32]
 319 0022 38BD     		pop	{r3, r4, r5, pc}
 320              	.LVL46:
 321              	.L26:
 226:..\..\..\liblc3\src/bits.h ****     } else {
 227:..\..\..\liblc3\src/bits.h ****         lc3_put_bits_generic(bits, v, n);
 322              		.loc 2 227 0
 323 0024 2146     		mov	r1, r4
 324 0026 2846     		mov	r0, r5
 325              	.LVL47:
 326 0028 FFF7FEFF 		bl	lc3_put_bits_generic
 327              	.LVL48:
 328              	.L24:
 329 002c 38BD     		pop	{r3, r4, r5, pc}
 330              	.LBE18:
 331              	.LBE17:
 332              		.cfi_endproc
 333              	.LFE15:
 334              		.size	lc3_bwdet_put_bw, .-lc3_bwdet_put_bw
 335 002e 00BF     		.section	.text.lc3_bwdet_get_bw,"ax",%progbits
 336              		.align	2
 337              		.global	lc3_bwdet_get_bw
 338              		.thumb
 339              		.thumb_func
 340              		.type	lc3_bwdet_get_bw, %function
 341              	lc3_bwdet_get_bw:
 342              	.LFB16:
 138:..\..\..\liblc3\src/bwdet.c ****         lc3_put_bits(bits, bw, nbits_bw);
 139:..\..\..\liblc3\src/bwdet.c **** }
 140:..\..\..\liblc3\src/bwdet.c **** 
 141:..\..\..\liblc3\src/bwdet.c **** /**
 142:..\..\..\liblc3\src/bwdet.c ****  * Get bandwidth indication
 143:..\..\..\liblc3\src/bwdet.c ****  */
 144:..\..\..\liblc3\src/bwdet.c **** int lc3_bwdet_get_bw(lc3_bits_t *bits,
 145:..\..\..\liblc3\src/bwdet.c ****     enum lc3_srate sr, enum lc3_bandwidth *bw)
 146:..\..\..\liblc3\src/bwdet.c **** {
 343              		.loc 1 146 0
 344              		.cfi_startproc
 345              		@ args = 0, pretend = 0, frame = 0
 346              		@ frame_needed = 0, uses_anonymous_args = 0
 347              	.LVL49:
 348 0000 F8B5     		push	{r3, r4, r5, r6, r7, lr}
 349              		.cfi_def_cfa_offset 24
 350              		.cfi_offset 3, -24
 351              		.cfi_offset 4, -20
 352              		.cfi_offset 5, -16
 353              		.cfi_offset 6, -12
 354              		.cfi_offset 7, -8
 355              		.cfi_offset 14, -4
 356 0002 0546     		mov	r5, r0
 357 0004 0C46     		mov	r4, r1
 358 0006 1646     		mov	r6, r2
 359              	.LVL50:
ARM GAS  C:\Users\rdn\AppData\Local\Temp\cc0xZJaE.s 			page 14


 147:..\..\..\liblc3\src/bwdet.c ****     enum lc3_bandwidth max_bw = (enum lc3_bandwidth)sr;
 148:..\..\..\liblc3\src/bwdet.c ****     int nbits_bw = lc3_bwdet_get_nbits(sr);
 360              		.loc 1 148 0
 361 0008 0846     		mov	r0, r1
 362              	.LVL51:
 363 000a FFF7FEFF 		bl	lc3_bwdet_get_nbits
 364              	.LVL52:
 149:..\..\..\liblc3\src/bwdet.c **** 
 150:..\..\..\liblc3\src/bwdet.c ****     *bw = nbits_bw <= 0 ? max_bw :
 365              		.loc 1 150 0
 366 000e 011E     		subs	r1, r0, #0
 367 0010 12DD     		ble	.L33
 368              	.LVL53:
 369              	.LBB22:
 370              	.LBB23:
 228:..\..\..\liblc3\src/bits.h ****     }
 229:..\..\..\liblc3\src/bits.h **** }
 230:..\..\..\liblc3\src/bits.h **** 
 231:..\..\..\liblc3\src/bits.h **** /**
 232:..\..\..\liblc3\src/bits.h ****  * Get a bit
 233:..\..\..\liblc3\src/bits.h ****  */
 234:..\..\..\liblc3\src/bits.h **** LC3_HOT static inline int lc3_get_bit(lc3_bits_t *bits)
 235:..\..\..\liblc3\src/bits.h **** {
 236:..\..\..\liblc3\src/bits.h ****     return lc3_get_bits(bits, 1);
 237:..\..\..\liblc3\src/bits.h **** }
 238:..\..\..\liblc3\src/bits.h **** 
 239:..\..\..\liblc3\src/bits.h **** /**
 240:..\..\..\liblc3\src/bits.h ****  * Get from 1 to 32 bits
 241:..\..\..\liblc3\src/bits.h ****  */
 242:..\..\..\liblc3\src/bits.h **** LC3_HOT static inline unsigned lc3_get_bits(struct lc3_bits *bits, int n)
 243:..\..\..\liblc3\src/bits.h **** {
 244:..\..\..\liblc3\src/bits.h ****     struct lc3_bits_accu *accu = &bits->accu;
 245:..\..\..\liblc3\src/bits.h **** 
 246:..\..\..\liblc3\src/bits.h ****     if (accu->n + n <= LC3_ACCU_BITS) {
 371              		.loc 2 246 0
 372 0012 2B6A     		ldr	r3, [r5, #32]
 373 0014 CA18     		adds	r2, r1, r3
 374 0016 202A     		cmp	r2, #32
 375 0018 09DC     		bgt	.L30
 376              	.LBB24:
 247:..\..\..\liblc3\src/bits.h ****         int v = (accu->v >> accu->n) & ((1u << n) - 1);
 377              		.loc 2 247 0
 378 001a E869     		ldr	r0, [r5, #28]
 379              	.LVL54:
 380 001c 20FA03F7 		lsr	r7, r0, r3
 381 0020 0123     		movs	r3, #1
 382 0022 03FA01F0 		lsl	r0, r3, r1
 383 0026 0138     		subs	r0, r0, #1
 384 0028 3840     		ands	r0, r0, r7
 385              	.LVL55:
 248:..\..\..\liblc3\src/bits.h ****         return (accu->n += n), v;
 386              		.loc 2 248 0
 387 002a 2A62     		str	r2, [r5, #32]
 388 002c 02E0     		b	.L31
 389              	.LVL56:
 390              	.L30:
 391              	.LBE24:
ARM GAS  C:\Users\rdn\AppData\Local\Temp\cc0xZJaE.s 			page 15


 249:..\..\..\liblc3\src/bits.h ****     }
 250:..\..\..\liblc3\src/bits.h ****     else {
 251:..\..\..\liblc3\src/bits.h ****         return lc3_get_bits_generic(bits, n);
 392              		.loc 2 251 0
 393 002e 2846     		mov	r0, r5
 394              	.LVL57:
 395 0030 FFF7FEFF 		bl	lc3_get_bits_generic
 396              	.LVL58:
 397              	.L31:
 398              	.LBE23:
 399              	.LBE22:
 400              		.loc 1 150 0
 401 0034 C0B2     		uxtb	r0, r0
 402 0036 00E0     		b	.L29
 403              	.LVL59:
 404              	.L33:
 405 0038 2046     		mov	r0, r4
 406              	.LVL60:
 407              	.L29:
 408              		.loc 1 150 0 is_stmt 0 discriminator 4
 409 003a 3070     		strb	r0, [r6]
 151:..\..\..\liblc3\src/bwdet.c ****         (enum lc3_bandwidth)lc3_get_bits(bits, nbits_bw);
 152:..\..\..\liblc3\src/bwdet.c **** 
 153:..\..\..\liblc3\src/bwdet.c ****     return *bw > max_bw ? (*bw = max_bw), -1 : 0;
 410              		.loc 1 153 0 is_stmt 1 discriminator 4
 411 003c A042     		cmp	r0, r4
 412 003e 03D9     		bls	.L34
 413              		.loc 1 153 0 is_stmt 0 discriminator 1
 414 0040 3470     		strb	r4, [r6]
 415 0042 4FF0FF30 		mov	r0, #-1
 416 0046 F8BD     		pop	{r3, r4, r5, r6, r7, pc}
 417              	.LVL61:
 418              	.L34:
 419              		.loc 1 153 0
 420 0048 0020     		movs	r0, #0
 154:..\..\..\liblc3\src/bwdet.c **** }
 421              		.loc 1 154 0 is_stmt 1
 422 004a F8BD     		pop	{r3, r4, r5, r6, r7, pc}
 423              		.cfi_endproc
 424              	.LFE16:
 425              		.size	lc3_bwdet_get_bw, .-lc3_bwdet_get_bw
 426              		.section	.rodata
 427              		.align	2
 428              		.set	.LANCHOR0,. + 0
 429              		.type	bws_table.5458, %object
 430              		.size	bws_table.5458, 16
 431              	bws_table.5458:
 432 0000 60000000 		.word	bws_table_2m5.5454
 433 0004 A0000000 		.word	bws_table_5m.5455
 434 0008 E0000000 		.word	bws_table_7m5.5456
 435 000c 20010000 		.word	bws_table_10m.5457
 436              		.type	l_table.5459, %object
 437              		.size	l_table.5459, 64
 438              	l_table.5459:
 439 0010 04000000 		.word	4
 440 0014 04000000 		.word	4
 441 0018 03000000 		.word	3
ARM GAS  C:\Users\rdn\AppData\Local\Temp\cc0xZJaE.s 			page 16


 442 001c 01000000 		.word	1
 443 0020 04000000 		.word	4
 444 0024 04000000 		.word	4
 445 0028 03000000 		.word	3
 446 002c 01000000 		.word	1
 447 0030 04000000 		.word	4
 448 0034 04000000 		.word	4
 449 0038 03000000 		.word	3
 450 003c 02000000 		.word	2
 451 0040 04000000 		.word	4
 452 0044 04000000 		.word	4
 453 0048 03000000 		.word	3
 454 004c 01000000 		.word	1
 455              	.LC0:
 456 0050 72FBFC41 		.word	1107098482
 457 0054 B7864743 		.word	1128761015
 458 0058 0000C842 		.word	1120403456
 459 005c 0000C842 		.word	1120403456
 460              		.type	bws_table_2m5.5454, %object
 461              		.size	bws_table_2m5.5454, 64
 462              	bws_table_2m5.5454:
 463 0060 18       		.byte	24
 464 0061 23       		.byte	35
 465 0062 0000     		.space	2
 466 0064 00000000 		.space	12
 466      00000000 
 466      00000000 
 467 0070 18       		.byte	24
 468 0071 21       		.byte	33
 469 0072 0000     		.space	2
 470 0074 23       		.byte	35
 471 0075 28       		.byte	40
 472 0076 0000     		.space	2
 473 0078 00000000 		.space	8
 473      00000000 
 474 0080 18       		.byte	24
 475 0081 20       		.byte	32
 476 0082 0000     		.space	2
 477 0084 21       		.byte	33
 478 0085 27       		.byte	39
 479 0086 0000     		.space	2
 480 0088 27       		.byte	39
 481 0089 2B       		.byte	43
 482 008a 0000     		.space	2
 483 008c 00000000 		.space	4
 484 0090 16       		.byte	22
 485 0091 1E       		.byte	30
 486 0092 0000     		.space	2
 487 0094 1F       		.byte	31
 488 0095 24       		.byte	36
 489 0096 0000     		.space	2
 490 0098 25       		.byte	37
 491 0099 29       		.byte	41
 492 009a 0000     		.space	2
 493 009c 29       		.byte	41
 494 009d 2C       		.byte	44
 495 009e 0000     		.space	2
ARM GAS  C:\Users\rdn\AppData\Local\Temp\cc0xZJaE.s 			page 17


 496              		.type	bws_table_5m.5455, %object
 497              		.size	bws_table_5m.5455, 64
 498              	bws_table_5m.5455:
 499 00a0 27       		.byte	39
 500 00a1 32       		.byte	50
 501 00a2 0000     		.space	2
 502 00a4 00000000 		.space	12
 502      00000000 
 502      00000000 
 503 00b0 23       		.byte	35
 504 00b1 2D       		.byte	45
 505 00b2 0000     		.space	2
 506 00b4 2F       		.byte	47
 507 00b5 34       		.byte	52
 508 00b6 0000     		.space	2
 509 00b8 00000000 		.space	8
 509      00000000 
 510 00c0 22       		.byte	34
 511 00c1 2B       		.byte	43
 512 00c2 0000     		.space	2
 513 00c4 2C       		.byte	44
 514 00c5 32       		.byte	50
 515 00c6 0000     		.space	2
 516 00c8 32       		.byte	50
 517 00c9 36       		.byte	54
 518 00ca 0000     		.space	2
 519 00cc 00000000 		.space	4
 520 00d0 20       		.byte	32
 521 00d1 29       		.byte	41
 522 00d2 0000     		.space	2
 523 00d4 2A       		.byte	42
 524 00d5 2F       		.byte	47
 525 00d6 0000     		.space	2
 526 00d8 30       		.byte	48
 527 00d9 34       		.byte	52
 528 00da 0000     		.space	2
 529 00dc 34       		.byte	52
 530 00dd 37       		.byte	55
 531 00de 0000     		.space	2
 532              		.type	bws_table_7m5.5456, %object
 533              		.size	bws_table_7m5.5456, 64
 534              	bws_table_7m5.5456:
 535 00e0 33       		.byte	51
 536 00e1 40       		.byte	64
 537 00e2 0000     		.space	2
 538 00e4 00000000 		.space	12
 538      00000000 
 538      00000000 
 539 00f0 2D       		.byte	45
 540 00f1 38       		.byte	56
 541 00f2 0000     		.space	2
 542 00f4 3A       		.byte	58
 543 00f5 40       		.byte	64
 544 00f6 0000     		.space	2
 545 00f8 00000000 		.space	8
 545      00000000 
 546 0100 2A       		.byte	42
ARM GAS  C:\Users\rdn\AppData\Local\Temp\cc0xZJaE.s 			page 18


 547 0101 34       		.byte	52
 548 0102 0000     		.space	2
 549 0104 35       		.byte	53
 550 0105 3B       		.byte	59
 551 0106 0000     		.space	2
 552 0108 3C       		.byte	60
 553 0109 40       		.byte	64
 554 010a 0000     		.space	2
 555 010c 00000000 		.space	4
 556 0110 28       		.byte	40
 557 0111 31       		.byte	49
 558 0112 0000     		.space	2
 559 0114 33       		.byte	51
 560 0115 38       		.byte	56
 561 0116 0000     		.space	2
 562 0118 39       		.byte	57
 563 0119 3D       		.byte	61
 564 011a 0000     		.space	2
 565 011c 3D       		.byte	61
 566 011d 40       		.byte	64
 567 011e 0000     		.space	2
 568              		.type	bws_table_10m.5457, %object
 569              		.size	bws_table_10m.5457, 64
 570              	bws_table_10m.5457:
 571 0120 35       		.byte	53
 572 0121 40       		.byte	64
 573 0122 0000     		.space	2
 574 0124 00000000 		.space	12
 574      00000000 
 574      00000000 
 575 0130 2F       		.byte	47
 576 0131 39       		.byte	57
 577 0132 0000     		.space	2
 578 0134 3B       		.byte	59
 579 0135 40       		.byte	64
 580 0136 0000     		.space	2
 581 0138 00000000 		.space	8
 581      00000000 
 582 0140 2C       		.byte	44
 583 0141 35       		.byte	53
 584 0142 0000     		.space	2
 585 0144 36       		.byte	54
 586 0145 3C       		.byte	60
 587 0146 0000     		.space	2
 588 0148 3C       		.byte	60
 589 0149 40       		.byte	64
 590 014a 0000     		.space	2
 591 014c 00000000 		.space	4
 592 0150 29       		.byte	41
 593 0151 32       		.byte	50
 594 0152 0000     		.space	2
 595 0154 33       		.byte	51
 596 0155 38       		.byte	56
 597 0156 0000     		.space	2
 598 0158 39       		.byte	57
 599 0159 3D       		.byte	61
 600 015a 0000     		.space	2
ARM GAS  C:\Users\rdn\AppData\Local\Temp\cc0xZJaE.s 			page 19


 601 015c 3D       		.byte	61
 602 015d 40       		.byte	64
 603 015e 0000     		.space	2
 604              		.text
 605              	.Letext0:
 606              		.file 3 "c:\\program files (x86)\\cypress\\psoc creator\\4.4\\psoc creator\\import\\gnu\\arm\\5.4.
 607              		.file 4 "c:\\program files (x86)\\cypress\\psoc creator\\4.4\\psoc creator\\import\\gnu\\arm\\5.4.
 608              		.file 5 ".\\liblc3\\include/lc3_private.h"
 609              		.file 6 "..\\..\\..\\liblc3\\src\\common.h"