ARM GAS  C:\Users\rdn\AppData\Local\Temp\ccI4JQrX.s 			page 1


   1              		.syntax unified
   2              		.cpu cortex-m4
   3              		.eabi_attribute 27, 1
   4              		.fpu fpv4-sp-d16
   5              		.eabi_attribute 20, 1
   6              		.eabi_attribute 21, 1
   7              		.eabi_attribute 23, 3
   8              		.eabi_attribute 24, 1
   9              		.eabi_attribute 25, 1
  10              		.eabi_attribute 26, 1
  11              		.eabi_attribute 30, 1
  12              		.eabi_attribute 34, 1
  13              		.eabi_attribute 18, 4
  14              		.thumb
  15              		.syntax unified
  16              		.file	"energy.c"
  17              		.text
  18              	.Ltext0:
  19              		.cfi_sections	.debug_frame
  20              		.section	.text.lc3_energy_compute,"ax",%progbits
  21              		.align	2
  22              		.global	lc3_energy_compute
  23              		.thumb
  24              		.thumb_func
  25              		.type	lc3_energy_compute, %function
  26              	lc3_energy_compute:
  27              	.LFB20:
  28              		.file 1 "..\\..\\..\\liblc3\\src\\energy.c"
   1:..\..\..\liblc3\src/energy.c **** /******************************************************************************
   2:..\..\..\liblc3\src/energy.c ****  *
   3:..\..\..\liblc3\src/energy.c ****  *  Copyright 2022 Google LLC
   4:..\..\..\liblc3\src/energy.c ****  *
   5:..\..\..\liblc3\src/energy.c ****  *  Licensed under the Apache License, Version 2.0 (the "License");
   6:..\..\..\liblc3\src/energy.c ****  *  you may not use this file except in compliance with the License.
   7:..\..\..\liblc3\src/energy.c ****  *  You may obtain a copy of the License at:
   8:..\..\..\liblc3\src/energy.c ****  *
   9:..\..\..\liblc3\src/energy.c ****  *  http://www.apache.org/licenses/LICENSE-2.0
  10:..\..\..\liblc3\src/energy.c ****  *
  11:..\..\..\liblc3\src/energy.c ****  *  Unless required by applicable law or agreed to in writing, software
  12:..\..\..\liblc3\src/energy.c ****  *  distributed under the License is distributed on an "AS IS" BASIS,
  13:..\..\..\liblc3\src/energy.c ****  *  WITHOUT WARRANTIES OR CONDITIONS OF ANY KIND, either express or implied.
  14:..\..\..\liblc3\src/energy.c ****  *  See the License for the specific language governing permissions and
  15:..\..\..\liblc3\src/energy.c ****  *  limitations under the License.
  16:..\..\..\liblc3\src/energy.c ****  *
  17:..\..\..\liblc3\src/energy.c ****  ******************************************************************************/
  18:..\..\..\liblc3\src/energy.c **** 
  19:..\..\..\liblc3\src/energy.c **** #include "energy.h"
  20:..\..\..\liblc3\src/energy.c **** #include "tables.h"
  21:..\..\..\liblc3\src/energy.c **** 
  22:..\..\..\liblc3\src/energy.c **** 
  23:..\..\..\liblc3\src/energy.c **** /**
  24:..\..\..\liblc3\src/energy.c ****  * Energy estimation per band
  25:..\..\..\liblc3\src/energy.c ****  */
  26:..\..\..\liblc3\src/energy.c **** bool lc3_energy_compute(
  27:..\..\..\liblc3\src/energy.c ****     enum lc3_dt dt, enum lc3_srate sr, const float *x, float *e)
  28:..\..\..\liblc3\src/energy.c **** {
  29              		.loc 1 28 0
ARM GAS  C:\Users\rdn\AppData\Local\Temp\ccI4JQrX.s 			page 2


  30              		.cfi_startproc
  31              		@ args = 0, pretend = 0, frame = 24
  32              		@ frame_needed = 0, uses_anonymous_args = 0
  33              	.LVL0:
  34 0000 F0B5     		push	{r4, r5, r6, r7, lr}
  35              		.cfi_def_cfa_offset 20
  36              		.cfi_offset 4, -20
  37              		.cfi_offset 5, -16
  38              		.cfi_offset 6, -12
  39              		.cfi_offset 7, -8
  40              		.cfi_offset 14, -4
  41 0002 87B0     		sub	sp, sp, #28
  42              		.cfi_def_cfa_offset 48
  43 0004 8646     		mov	lr, r0
  44 0006 1446     		mov	r4, r2
  45 0008 1D46     		mov	r5, r3
  29:..\..\..\liblc3\src/energy.c ****     int nb = lc3_num_bands[dt][sr];
  46              		.loc 1 29 0
  47 000a C0EBC003 		rsb	r3, r0, r0, lsl #3
  48              	.LVL1:
  49 000e 1944     		add	r1, r1, r3
  50              	.LVL2:
  51 0010 2B4B     		ldr	r3, .L7
  52 0012 53F82160 		ldr	r6, [r3, r1, lsl #2]
  53              	.LVL3:
  30:..\..\..\liblc3\src/energy.c ****     const int *lim = lc3_band_lim[dt][sr];
  54              		.loc 1 30 0
  55 0016 2B4B     		ldr	r3, .L7+4
  56 0018 53F82170 		ldr	r7, [r3, r1, lsl #2]
  57              	.LVL4:
  31:..\..\..\liblc3\src/energy.c **** 
  32:..\..\..\liblc3\src/energy.c ****     /* Mean the square of coefficients within each band */
  33:..\..\..\liblc3\src/energy.c **** 
  34:..\..\..\liblc3\src/energy.c ****     float e_sum[2] = { 0, 0 };
  58              		.loc 1 34 0
  59 001c 0023     		movs	r3, #0
  60 001e 0093     		str	r3, [sp]	@ float
  61 0020 0193     		str	r3, [sp, #4]	@ float
  35:..\..\..\liblc3\src/energy.c ****     int iband_h = nb - (const int []){
  62              		.loc 1 35 0
  63 0022 294B     		ldr	r3, .L7+8
  64 0024 0FCB     		ldmia	r3, {r0, r1, r2, r3}
  65              	.LVL5:
  66 0026 0DF1180C 		add	ip, sp, #24
  67 002a 0CE90F00 		stmdb	ip, {r0, r1, r2, r3}
  36:..\..\..\liblc3\src/energy.c ****         [LC3_DT_2M5] = 2, [LC3_DT_5M ] = 3,
  37:..\..\..\liblc3\src/energy.c ****         [LC3_DT_7M5] = 4, [LC3_DT_10M] = 2 }[dt];
  68              		.loc 1 37 0
  69 002e 0CEB8E0E 		add	lr, ip, lr, lsl #2
  70 0032 5EF8103C 		ldr	r3, [lr, #-16]
  35:..\..\..\liblc3\src/energy.c ****     int iband_h = nb - (const int []){
  71              		.loc 1 35 0
  72 0036 C3EB060E 		rsb	lr, r3, r6
  73              	.LVL6:
  74              	.LBB2:
  38:..\..\..\liblc3\src/energy.c **** 
  39:..\..\..\liblc3\src/energy.c ****     for (int iband = 0, i = lim[iband]; iband < nb; iband++) {
ARM GAS  C:\Users\rdn\AppData\Local\Temp\ccI4JQrX.s 			page 3


  75              		.loc 1 39 0
  76 003a 3B68     		ldr	r3, [r7]
  77              	.LVL7:
  78 003c 0020     		movs	r0, #0
  79 003e 2CE0     		b	.L2
  80              	.LVL8:
  81              	.L5:
  82              	.LBB3:
  40:..\..\..\liblc3\src/energy.c ****         int ie = lim[iband+1];
  83              		.loc 1 40 0
  84 0040 421C     		adds	r2, r0, #1
  85 0042 57F82210 		ldr	r1, [r7, r2, lsl #2]
  86              	.LVL9:
  41:..\..\..\liblc3\src/energy.c ****         int n = ie - i;
  87              		.loc 1 41 0
  88 0046 CA1A     		subs	r2, r1, r3
  89 0048 06EE902A 		vmov	s13, r2	@ int
  90              	.LVL10:
  42:..\..\..\liblc3\src/energy.c **** 
  43:..\..\..\liblc3\src/energy.c ****         float sx2 = x[i] * x[i];
  91              		.loc 1 43 0
  92 004c 04EB8302 		add	r2, r4, r3, lsl #2
  93              	.LVL11:
  94 0050 92ED007A 		vldr.32	s14, [r2]
  95 0054 27EE077A 		vmul.f32	s14, s14, s14
  96              	.LVL12:
  44:..\..\..\liblc3\src/energy.c ****         for (i++; i < ie; i++)
  97              		.loc 1 44 0
  98 0058 0133     		adds	r3, r3, #1
  99              	.LVL13:
 100 005a 08E0     		b	.L3
 101              	.L4:
  45:..\..\..\liblc3\src/energy.c ****             sx2 += x[i] * x[i];
 102              		.loc 1 45 0 discriminator 3
 103 005c 04EB8302 		add	r2, r4, r3, lsl #2
 104 0060 D2ED007A 		vldr.32	s15, [r2]
 105 0064 67EEA77A 		vmul.f32	s15, s15, s15
 106 0068 37EE277A 		vadd.f32	s14, s14, s15
 107              	.LVL14:
  44:..\..\..\liblc3\src/energy.c ****         for (i++; i < ie; i++)
 108              		.loc 1 44 0 discriminator 3
 109 006c 0133     		adds	r3, r3, #1
 110              	.LVL15:
 111              	.L3:
  44:..\..\..\liblc3\src/energy.c ****         for (i++; i < ie; i++)
 112              		.loc 1 44 0 is_stmt 0 discriminator 1
 113 006e 8B42     		cmp	r3, r1
 114 0070 F4DB     		blt	.L4
  46:..\..\..\liblc3\src/energy.c **** 
  47:..\..\..\liblc3\src/energy.c ****         *e = sx2 / n;
 115              		.loc 1 47 0 is_stmt 1 discriminator 2
 116 0072 F8EEE66A 		vcvt.f32.s32	s13, s13
 117              	.LVL16:
 118 0076 87EE266A 		vdiv.f32	s12, s14, s13
 119 007a A5EC016A 		vstmia.32	r5!, {s12}
 120              	.LVL17:
  48:..\..\..\liblc3\src/energy.c ****         e_sum[iband >= iband_h] += *(e++);
ARM GAS  C:\Users\rdn\AppData\Local\Temp\ccI4JQrX.s 			page 4


 121              		.loc 1 48 0 discriminator 2
 122 007e 7045     		cmp	r0, lr
 123 0080 B4BF     		ite	lt
 124 0082 0022     		movlt	r2, #0
 125 0084 0122     		movge	r2, #1
 126 0086 06A9     		add	r1, sp, #24
 127              	.LVL18:
 128 0088 01EB8202 		add	r2, r1, r2, lsl #2
 129 008c 52ED067A 		vldr.32	s15, [r2, #-24]
 130 0090 77EE867A 		vadd.f32	s15, s15, s12
 131 0094 42ED067A 		vstr.32	s15, [r2, #-24]
 132              	.LBE3:
  39:..\..\..\liblc3\src/energy.c ****         int ie = lim[iband+1];
 133              		.loc 1 39 0 discriminator 2
 134 0098 0130     		adds	r0, r0, #1
 135              	.LVL19:
 136              	.L2:
  39:..\..\..\liblc3\src/energy.c ****         int ie = lim[iband+1];
 137              		.loc 1 39 0 is_stmt 0 discriminator 1
 138 009a B042     		cmp	r0, r6
 139 009c D0DB     		blt	.L5
 140              	.LBE2:
  49:..\..\..\liblc3\src/energy.c ****     }
  50:..\..\..\liblc3\src/energy.c **** 
  51:..\..\..\liblc3\src/energy.c ****     /* Return the near nyquist flag */
  52:..\..\..\liblc3\src/energy.c **** 
  53:..\..\..\liblc3\src/energy.c ****     return e_sum[1] > 30 * e_sum[0];
 141              		.loc 1 53 0 is_stmt 1
 142 009e B3EE0E7A 		vmov.f32	s14, #3.0e+1
 143 00a2 DDED007A 		vldr.32	s15, [sp]
 144 00a6 67EE877A 		vmul.f32	s15, s15, s14
 145 00aa 9DED017A 		vldr.32	s14, [sp, #4]
 146 00ae B4EEE77A 		vcmpe.f32	s14, s15
 147 00b2 F1EE10FA 		vmrs	APSR_nzcv, FPSCR
  54:..\..\..\liblc3\src/energy.c **** }
 148              		.loc 1 54 0
 149 00b6 CCBF     		ite	gt
 150 00b8 0120     		movgt	r0, #1
 151              	.LVL20:
 152 00ba 0020     		movle	r0, #0
 153 00bc 07B0     		add	sp, sp, #28
 154              		.cfi_def_cfa_offset 20
 155              		@ sp needed
 156 00be F0BD     		pop	{r4, r5, r6, r7, pc}
 157              	.LVL21:
 158              	.L8:
 159              		.align	2
 160              	.L7:
 161 00c0 00000000 		.word	lc3_num_bands
 162 00c4 00000000 		.word	lc3_band_lim
 163 00c8 00000000 		.word	.LANCHOR0
 164              		.cfi_endproc
 165              	.LFE20:
 166              		.size	lc3_energy_compute, .-lc3_energy_compute
 167              		.section	.rodata
 168              		.align	2
 169              		.set	.LANCHOR0,. + 0
ARM GAS  C:\Users\rdn\AppData\Local\Temp\ccI4JQrX.s 			page 5


 170              	.LC0:
 171 0000 02000000 		.word	2
 172 0004 03000000 		.word	3
 173 0008 04000000 		.word	4
 174 000c 02000000 		.word	2
 175              		.text
 176              	.Letext0:
 177              		.file 2 ".\\liblc3\\include/lc3_private.h"
 178              		.file 3 "..\\..\\..\\liblc3\\src\\tables.h"