ARM GAS  C:\Users\rdn\AppData\Local\Temp\ccCxUcqe.s 			page 1


   1              		.syntax unified
   2              		.cpu cortex-m4
   3              		.eabi_attribute 27, 1
   4              		.fpu fpv4-sp-d16
   5              		.eabi_attribute 20, 1
   6              		.eabi_attribute 21, 1
   7              		.eabi_attribute 23, 3
   8              		.eabi_attribute 24, 1
   9              		.eabi_attribute 25, 1
  10              		.eabi_attribute 26, 1
  11              		.eabi_attribute 30, 1
  12              		.eabi_attribute 34, 1
  13              		.eabi_attribute 18, 4
  14              		.thumb
  15              		.syntax unified
  16              		.file	"lc3.c"
  17              		.text
  18              	.Ltext0:
  19              		.cfi_sections	.debug_frame
  20              		.section	.text.resolve_dt,"ax",%progbits
  21              		.align	2
  22              		.thumb
  23              		.thumb_func
  24              		.type	resolve_dt, %function
  25              	resolve_dt:
  26              	.LFB20:
  27              		.file 1 "..\\..\\..\\liblc3\\src\\lc3.c"
   1:..\..\..\liblc3\src/lc3.c **** /******************************************************************************
   2:..\..\..\liblc3\src/lc3.c ****  *
   3:..\..\..\liblc3\src/lc3.c ****  *  Copyright 2022 Google LLC
   4:..\..\..\liblc3\src/lc3.c ****  *
   5:..\..\..\liblc3\src/lc3.c ****  *  Licensed under the Apache License, Version 2.0 (the "License");
   6:..\..\..\liblc3\src/lc3.c ****  *  you may not use this file except in compliance with the License.
   7:..\..\..\liblc3\src/lc3.c ****  *  You may obtain a copy of the License at:
   8:..\..\..\liblc3\src/lc3.c ****  *
   9:..\..\..\liblc3\src/lc3.c ****  *  http://www.apache.org/licenses/LICENSE-2.0
  10:..\..\..\liblc3\src/lc3.c ****  *
  11:..\..\..\liblc3\src/lc3.c ****  *  Unless required by applicable law or agreed to in writing, software
  12:..\..\..\liblc3\src/lc3.c ****  *  distributed under the License is distributed on an "AS IS" BASIS,
  13:..\..\..\liblc3\src/lc3.c ****  *  WITHOUT WARRANTIES OR CONDITIONS OF ANY KIND, either express or implied.
  14:..\..\..\liblc3\src/lc3.c ****  *  See the License for the specific language governing permissions and
  15:..\..\..\liblc3\src/lc3.c ****  *  limitations under the License.
  16:..\..\..\liblc3\src/lc3.c ****  *
  17:..\..\..\liblc3\src/lc3.c ****  ******************************************************************************/
  18:..\..\..\liblc3\src/lc3.c **** 
  19:..\..\..\liblc3\src/lc3.c **** #include <lc3.h>
  20:..\..\..\liblc3\src/lc3.c **** 
  21:..\..\..\liblc3\src/lc3.c **** #include "common.h"
  22:..\..\..\liblc3\src/lc3.c **** #include "bits.h"
  23:..\..\..\liblc3\src/lc3.c **** 
  24:..\..\..\liblc3\src/lc3.c **** #include "attdet.h"
  25:..\..\..\liblc3\src/lc3.c **** #include "bwdet.h"
  26:..\..\..\liblc3\src/lc3.c **** #include "ltpf.h"
  27:..\..\..\liblc3\src/lc3.c **** #include "mdct.h"
  28:..\..\..\liblc3\src/lc3.c **** #include "energy.h"
  29:..\..\..\liblc3\src/lc3.c **** #include "sns.h"
  30:..\..\..\liblc3\src/lc3.c **** #include "tns.h"
ARM GAS  C:\Users\rdn\AppData\Local\Temp\ccCxUcqe.s 			page 2


  31:..\..\..\liblc3\src/lc3.c **** #include "spec.h"
  32:..\..\..\liblc3\src/lc3.c **** #include "plc.h"
  33:..\..\..\liblc3\src/lc3.c **** 
  34:..\..\..\liblc3\src/lc3.c **** 
  35:..\..\..\liblc3\src/lc3.c **** /**
  36:..\..\..\liblc3\src/lc3.c ****  * Frame side data
  37:..\..\..\liblc3\src/lc3.c ****  */
  38:..\..\..\liblc3\src/lc3.c **** 
  39:..\..\..\liblc3\src/lc3.c **** struct side_data {
  40:..\..\..\liblc3\src/lc3.c ****     enum lc3_bandwidth bw;
  41:..\..\..\liblc3\src/lc3.c ****     bool pitch_present;
  42:..\..\..\liblc3\src/lc3.c ****     lc3_ltpf_data_t ltpf;
  43:..\..\..\liblc3\src/lc3.c ****     lc3_sns_data_t sns;
  44:..\..\..\liblc3\src/lc3.c ****     lc3_tns_data_t tns;
  45:..\..\..\liblc3\src/lc3.c ****     lc3_spec_side_t spec;
  46:..\..\..\liblc3\src/lc3.c **** };
  47:..\..\..\liblc3\src/lc3.c **** 
  48:..\..\..\liblc3\src/lc3.c **** 
  49:..\..\..\liblc3\src/lc3.c **** /* ----------------------------------------------------------------------------
  50:..\..\..\liblc3\src/lc3.c ****  *  General
  51:..\..\..\liblc3\src/lc3.c ****  * -------------------------------------------------------------------------- */
  52:..\..\..\liblc3\src/lc3.c **** 
  53:..\..\..\liblc3\src/lc3.c **** /**
  54:..\..\..\liblc3\src/lc3.c ****  * Resolve frame duration in us
  55:..\..\..\liblc3\src/lc3.c ****  * us              Frame duration in us
  56:..\..\..\liblc3\src/lc3.c ****  * hrmode          High-resolution mode indication
  57:..\..\..\liblc3\src/lc3.c ****  * return          Frame duration identifier, or LC3_NUM_DT
  58:..\..\..\liblc3\src/lc3.c ****  */
  59:..\..\..\liblc3\src/lc3.c **** static enum lc3_dt resolve_dt(int us, bool hrmode)
  60:..\..\..\liblc3\src/lc3.c **** {
  28              		.loc 1 60 0
  29              		.cfi_startproc
  30              		@ args = 0, pretend = 0, frame = 0
  31              		@ frame_needed = 0, uses_anonymous_args = 0
  32              		@ link register save eliminated.
  33              	.LVL0:
  61:..\..\..\liblc3\src/lc3.c ****     return LC3_PLUS && us ==  2500 ? LC3_DT_2M5 :
  34              		.loc 1 61 0
  35 0000 40F6C413 		movw	r3, #2500
  36 0004 9842     		cmp	r0, r3
  37 0006 0ED0     		beq	.L4
  38              		.loc 1 61 0 is_stmt 0 discriminator 1
  39 0008 41F28833 		movw	r3, #5000
  40 000c 9842     		cmp	r0, r3
  41 000e 0CD0     		beq	.L5
  42              		.loc 1 61 0 discriminator 3
  43 0010 19B9     		cbnz	r1, .L3
  62:..\..\..\liblc3\src/lc3.c ****            LC3_PLUS && us ==  5000 ? LC3_DT_5M  :
  63:..\..\..\liblc3\src/lc3.c ****            !hrmode  && us ==  7500 ? LC3_DT_7M5 :
  44              		.loc 1 63 0 is_stmt 1
  45 0012 41F64C53 		movw	r3, #7500
  46 0016 9842     		cmp	r0, r3
  47 0018 09D0     		beq	.L6
  48              	.L3:
  61:..\..\..\liblc3\src/lc3.c ****     return LC3_PLUS && us ==  2500 ? LC3_DT_2M5 :
  49              		.loc 1 61 0 discriminator 5
  50 001a 42F21073 		movw	r3, #10000
ARM GAS  C:\Users\rdn\AppData\Local\Temp\ccCxUcqe.s 			page 3


  51 001e 9842     		cmp	r0, r3
  52 0020 07D1     		bne	.L7
  61:..\..\..\liblc3\src/lc3.c ****     return LC3_PLUS && us ==  2500 ? LC3_DT_2M5 :
  53              		.loc 1 61 0 is_stmt 0
  54 0022 0320     		movs	r0, #3
  55              	.LVL1:
  56 0024 7047     		bx	lr
  57              	.LVL2:
  58              	.L4:
  59 0026 0020     		movs	r0, #0
  60              	.LVL3:
  61 0028 7047     		bx	lr
  62              	.LVL4:
  63              	.L5:
  64 002a 0120     		movs	r0, #1
  65              	.LVL5:
  66 002c 7047     		bx	lr
  67              	.LVL6:
  68              	.L6:
  69 002e 0220     		movs	r0, #2
  70              	.LVL7:
  71 0030 7047     		bx	lr
  72              	.LVL8:
  73              	.L7:
  74 0032 0420     		movs	r0, #4
  75              	.LVL9:
  64:..\..\..\liblc3\src/lc3.c ****                        us == 10000 ? LC3_DT_10M : LC3_NUM_DT;
  65:..\..\..\liblc3\src/lc3.c **** }
  76              		.loc 1 65 0 is_stmt 1
  77 0034 7047     		bx	lr
  78              		.cfi_endproc
  79              	.LFE20:
  80              		.size	resolve_dt, .-resolve_dt
  81 0036 00BF     		.section	.text.resolve_srate,"ax",%progbits
  82              		.align	2
  83              		.thumb
  84              		.thumb_func
  85              		.type	resolve_srate, %function
  86              	resolve_srate:
  87              	.LFB21:
  66:..\..\..\liblc3\src/lc3.c **** 
  67:..\..\..\liblc3\src/lc3.c **** /**
  68:..\..\..\liblc3\src/lc3.c ****  * Resolve samplerate in Hz
  69:..\..\..\liblc3\src/lc3.c ****  * hz              Samplerate in Hz
  70:..\..\..\liblc3\src/lc3.c ****  * hrmode          High-resolution mode indication
  71:..\..\..\liblc3\src/lc3.c ****  * return          Sample rate identifier, or LC3_NUM_SRATE
  72:..\..\..\liblc3\src/lc3.c ****  */
  73:..\..\..\liblc3\src/lc3.c **** static enum lc3_srate resolve_srate(int hz, bool hrmode)
  74:..\..\..\liblc3\src/lc3.c **** {
  88              		.loc 1 74 0
  89              		.cfi_startproc
  90              		@ args = 0, pretend = 0, frame = 0
  91              		@ frame_needed = 0, uses_anonymous_args = 0
  92              		@ link register save eliminated.
  93              	.LVL10:
  75:..\..\..\liblc3\src/lc3.c ****     hrmode = LC3_PLUS_HR && hrmode;
  76:..\..\..\liblc3\src/lc3.c **** 
ARM GAS  C:\Users\rdn\AppData\Local\Temp\ccCxUcqe.s 			page 4


  77:..\..\..\liblc3\src/lc3.c ****     return !hrmode && hz ==  8000 ? LC3_SRATE_8K     :
  94              		.loc 1 77 0
  95 0000 0B46     		mov	r3, r1
  96 0002 11B9     		cbnz	r1, .L9
  97              		.loc 1 77 0 is_stmt 0 discriminator 2
  98 0004 B0F5FA5F 		cmp	r0, #8000
  99 0008 1CD0     		beq	.L16
 100              	.L9:
 101              		.loc 1 77 0 discriminator 3
 102 000a 13B9     		cbnz	r3, .L11
  78:..\..\..\liblc3\src/lc3.c ****            !hrmode && hz == 16000 ? LC3_SRATE_16K    :
 103              		.loc 1 78 0 is_stmt 1
 104 000c B0F57A5F 		cmp	r0, #16000
 105 0010 1AD0     		beq	.L17
 106              	.L11:
  77:..\..\..\liblc3\src/lc3.c ****            !hrmode && hz == 16000 ? LC3_SRATE_16K    :
 107              		.loc 1 77 0 discriminator 5
 108 0012 1BB9     		cbnz	r3, .L12
  79:..\..\..\liblc3\src/lc3.c ****            !hrmode && hz == 24000 ? LC3_SRATE_24K    :
 109              		.loc 1 79 0
 110 0014 45F6C052 		movw	r2, #24000
 111 0018 9042     		cmp	r0, r2
 112 001a 17D0     		beq	.L18
 113              	.L12:
  77:..\..\..\liblc3\src/lc3.c ****            !hrmode && hz == 16000 ? LC3_SRATE_16K    :
 114              		.loc 1 77 0 discriminator 6
 115 001c 13B9     		cbnz	r3, .L13
  80:..\..\..\liblc3\src/lc3.c ****            !hrmode && hz == 32000 ? LC3_SRATE_32K    :
 116              		.loc 1 80 0
 117 001e B0F5FA4F 		cmp	r0, #32000
 118 0022 15D0     		beq	.L19
 119              	.L13:
  77:..\..\..\liblc3\src/lc3.c ****            !hrmode && hz == 16000 ? LC3_SRATE_16K    :
 120              		.loc 1 77 0 discriminator 7
 121 0024 1BB9     		cbnz	r3, .L14
  81:..\..\..\liblc3\src/lc3.c ****            !hrmode && hz == 48000 ? LC3_SRATE_48K    :
 122              		.loc 1 81 0
 123 0026 4BF68032 		movw	r2, #48000
 124 002a 9042     		cmp	r0, r2
 125 002c 12D0     		beq	.L20
 126              	.L14:
  77:..\..\..\liblc3\src/lc3.c ****            !hrmode && hz == 16000 ? LC3_SRATE_16K    :
 127              		.loc 1 77 0 discriminator 8
 128 002e 1BB1     		cbz	r3, .L15
  82:..\..\..\liblc3\src/lc3.c ****             hrmode && hz == 48000 ? LC3_SRATE_48K_HR :
 129              		.loc 1 82 0
 130 0030 4BF68032 		movw	r2, #48000
 131 0034 9042     		cmp	r0, r2
 132 0036 0FD0     		beq	.L21
 133              	.L15:
  77:..\..\..\liblc3\src/lc3.c ****            !hrmode && hz == 16000 ? LC3_SRATE_16K    :
 134              		.loc 1 77 0 discriminator 9
 135 0038 83B1     		cbz	r3, .L22
  83:..\..\..\liblc3\src/lc3.c ****             hrmode && hz == 96000 ? LC3_SRATE_96K_HR : LC3_NUM_SRATE;
 136              		.loc 1 83 0
 137 003a 0A4B     		ldr	r3, .L24
 138 003c 9842     		cmp	r0, r3
ARM GAS  C:\Users\rdn\AppData\Local\Temp\ccCxUcqe.s 			page 5


 139 003e 0FD0     		beq	.L23
  77:..\..\..\liblc3\src/lc3.c ****            !hrmode && hz == 16000 ? LC3_SRATE_16K    :
 140              		.loc 1 77 0
 141 0040 0720     		movs	r0, #7
 142              	.LVL11:
 143 0042 7047     		bx	lr
 144              	.LVL12:
 145              	.L16:
 146 0044 0020     		movs	r0, #0
 147              	.LVL13:
 148 0046 7047     		bx	lr
 149              	.LVL14:
 150              	.L17:
 151 0048 0120     		movs	r0, #1
 152              	.LVL15:
 153 004a 7047     		bx	lr
 154              	.LVL16:
 155              	.L18:
 156 004c 0220     		movs	r0, #2
 157              	.LVL17:
 158 004e 7047     		bx	lr
 159              	.LVL18:
 160              	.L19:
 161 0050 0320     		movs	r0, #3
 162              	.LVL19:
 163 0052 7047     		bx	lr
 164              	.LVL20:
 165              	.L20:
 166 0054 0420     		movs	r0, #4
 167              	.LVL21:
 168 0056 7047     		bx	lr
 169              	.LVL22:
 170              	.L21:
 171 0058 0520     		movs	r0, #5
 172              	.LVL23:
 173 005a 7047     		bx	lr
 174              	.LVL24:
 175              	.L22:
 176 005c 0720     		movs	r0, #7
 177              	.LVL25:
 178 005e 7047     		bx	lr
 179              	.LVL26:
 180              	.L23:
 181 0060 0620     		movs	r0, #6
 182              	.LVL27:
  84:..\..\..\liblc3\src/lc3.c **** }
 183              		.loc 1 84 0
 184 0062 7047     		bx	lr
 185              	.L25:
 186              		.align	2
 187              	.L24:
 188 0064 00770100 		.word	96000
 189              		.cfi_endproc
 190              	.LFE21:
 191              		.size	resolve_srate, .-resolve_srate
 192              		.section	.text.load_s16,"ax",%progbits
 193              		.align	2
ARM GAS  C:\Users\rdn\AppData\Local\Temp\ccCxUcqe.s 			page 6


 194              		.thumb
 195              		.thumb_func
 196              		.type	load_s16, %function
 197              	load_s16:
 198              	.LFB32:
  85:..\..\..\liblc3\src/lc3.c **** 
  86:..\..\..\liblc3\src/lc3.c **** /**
  87:..\..\..\liblc3\src/lc3.c ****  * Return the number of PCM samples in a frame
  88:..\..\..\liblc3\src/lc3.c ****  */
  89:..\..\..\liblc3\src/lc3.c **** LC3_EXPORT int lc3_hr_frame_samples(bool hrmode, int dt_us, int sr_hz)
  90:..\..\..\liblc3\src/lc3.c **** {
  91:..\..\..\liblc3\src/lc3.c ****     enum lc3_dt dt = resolve_dt(dt_us, hrmode);
  92:..\..\..\liblc3\src/lc3.c ****     enum lc3_srate sr = resolve_srate(sr_hz, hrmode);
  93:..\..\..\liblc3\src/lc3.c **** 
  94:..\..\..\liblc3\src/lc3.c ****     if (dt >= LC3_NUM_DT || sr >= LC3_NUM_SRATE)
  95:..\..\..\liblc3\src/lc3.c ****         return -1;
  96:..\..\..\liblc3\src/lc3.c **** 
  97:..\..\..\liblc3\src/lc3.c ****     return lc3_ns(dt, sr);
  98:..\..\..\liblc3\src/lc3.c **** }
  99:..\..\..\liblc3\src/lc3.c **** 
 100:..\..\..\liblc3\src/lc3.c **** LC3_EXPORT int lc3_frame_samples(int dt_us, int sr_hz)
 101:..\..\..\liblc3\src/lc3.c **** {
 102:..\..\..\liblc3\src/lc3.c ****     return lc3_hr_frame_samples(false, dt_us, sr_hz);
 103:..\..\..\liblc3\src/lc3.c **** }
 104:..\..\..\liblc3\src/lc3.c **** 
 105:..\..\..\liblc3\src/lc3.c **** /**
 106:..\..\..\liblc3\src/lc3.c ****  * Return the size of frames or frame blocks, from bitrate
 107:..\..\..\liblc3\src/lc3.c ****  */
 108:..\..\..\liblc3\src/lc3.c **** LC3_EXPORT int lc3_hr_frame_block_bytes(
 109:..\..\..\liblc3\src/lc3.c ****     bool hrmode, int dt_us, int sr_hz, int nchannels, int bitrate)
 110:..\..\..\liblc3\src/lc3.c **** {
 111:..\..\..\liblc3\src/lc3.c ****     enum lc3_dt dt = resolve_dt(dt_us, hrmode);
 112:..\..\..\liblc3\src/lc3.c ****     enum lc3_srate sr = resolve_srate(sr_hz, hrmode);
 113:..\..\..\liblc3\src/lc3.c **** 
 114:..\..\..\liblc3\src/lc3.c ****     if (dt >= LC3_NUM_DT || sr >= LC3_NUM_SRATE
 115:..\..\..\liblc3\src/lc3.c ****             || nchannels < 1 || nchannels > 8 || bitrate < 0)
 116:..\..\..\liblc3\src/lc3.c ****         return -1;
 117:..\..\..\liblc3\src/lc3.c **** 
 118:..\..\..\liblc3\src/lc3.c ****     bitrate = LC3_CLIP(bitrate, 0, 8*LC3_HR_MAX_BITRATE);
 119:..\..\..\liblc3\src/lc3.c **** 
 120:..\..\..\liblc3\src/lc3.c ****     return LC3_CLIP((bitrate * (int)(1 + dt)) / 3200,
 121:..\..\..\liblc3\src/lc3.c ****         nchannels * lc3_min_frame_bytes(dt, sr),
 122:..\..\..\liblc3\src/lc3.c ****         nchannels * lc3_max_frame_bytes(dt, sr) );
 123:..\..\..\liblc3\src/lc3.c **** }
 124:..\..\..\liblc3\src/lc3.c **** 
 125:..\..\..\liblc3\src/lc3.c **** LC3_EXPORT int lc3_frame_bock_bytes(int dt_us, int nchannels, int bitrate)
 126:..\..\..\liblc3\src/lc3.c **** {
 127:..\..\..\liblc3\src/lc3.c ****     return lc3_hr_frame_block_bytes(false, dt_us, 8000, nchannels, bitrate);
 128:..\..\..\liblc3\src/lc3.c **** }
 129:..\..\..\liblc3\src/lc3.c **** 
 130:..\..\..\liblc3\src/lc3.c **** LC3_EXPORT int lc3_hr_frame_bytes(
 131:..\..\..\liblc3\src/lc3.c ****     bool hrmode, int dt_us, int sr_hz, int bitrate)
 132:..\..\..\liblc3\src/lc3.c **** {
 133:..\..\..\liblc3\src/lc3.c ****     return lc3_hr_frame_block_bytes(hrmode, dt_us, sr_hz, 1, bitrate);
 134:..\..\..\liblc3\src/lc3.c **** }
 135:..\..\..\liblc3\src/lc3.c **** 
 136:..\..\..\liblc3\src/lc3.c **** LC3_EXPORT int lc3_frame_bytes(int dt_us, int bitrate)
ARM GAS  C:\Users\rdn\AppData\Local\Temp\ccCxUcqe.s 			page 7


 137:..\..\..\liblc3\src/lc3.c **** {
 138:..\..\..\liblc3\src/lc3.c ****     return lc3_hr_frame_bytes(false, dt_us, 8000, bitrate);
 139:..\..\..\liblc3\src/lc3.c **** }
 140:..\..\..\liblc3\src/lc3.c **** 
 141:..\..\..\liblc3\src/lc3.c **** /**
 142:..\..\..\liblc3\src/lc3.c ****  * Resolve the bitrate, from the size of frames or frame blocks
 143:..\..\..\liblc3\src/lc3.c ****  */
 144:..\..\..\liblc3\src/lc3.c **** LC3_EXPORT int lc3_hr_resolve_bitrate(
 145:..\..\..\liblc3\src/lc3.c ****     bool hrmode, int dt_us, int sr_hz, int nbytes)
 146:..\..\..\liblc3\src/lc3.c **** {
 147:..\..\..\liblc3\src/lc3.c ****     enum lc3_dt dt = resolve_dt(dt_us, hrmode);
 148:..\..\..\liblc3\src/lc3.c ****     enum lc3_srate sr = resolve_srate(sr_hz, hrmode);
 149:..\..\..\liblc3\src/lc3.c **** 
 150:..\..\..\liblc3\src/lc3.c ****     if (dt >= LC3_NUM_DT || sr >= LC3_NUM_SRATE || nbytes < 0)
 151:..\..\..\liblc3\src/lc3.c ****         return -1;
 152:..\..\..\liblc3\src/lc3.c **** 
 153:..\..\..\liblc3\src/lc3.c ****     return LC3_MIN(((int64_t)nbytes * 3200 + dt) / (1 + dt), INT_MAX);
 154:..\..\..\liblc3\src/lc3.c **** }
 155:..\..\..\liblc3\src/lc3.c **** 
 156:..\..\..\liblc3\src/lc3.c **** LC3_EXPORT int lc3_resolve_bitrate(int dt_us, int nbytes)
 157:..\..\..\liblc3\src/lc3.c **** {
 158:..\..\..\liblc3\src/lc3.c ****     return lc3_hr_resolve_bitrate(false, dt_us, 8000, nbytes);
 159:..\..\..\liblc3\src/lc3.c **** }
 160:..\..\..\liblc3\src/lc3.c **** 
 161:..\..\..\liblc3\src/lc3.c **** /**
 162:..\..\..\liblc3\src/lc3.c ****  * Return algorithmic delay, as a number of samples
 163:..\..\..\liblc3\src/lc3.c ****  */
 164:..\..\..\liblc3\src/lc3.c **** LC3_EXPORT int lc3_hr_delay_samples(bool hrmode, int dt_us, int sr_hz)
 165:..\..\..\liblc3\src/lc3.c **** {
 166:..\..\..\liblc3\src/lc3.c ****     enum lc3_dt dt = resolve_dt(dt_us, hrmode);
 167:..\..\..\liblc3\src/lc3.c ****     enum lc3_srate sr = resolve_srate(sr_hz, hrmode);
 168:..\..\..\liblc3\src/lc3.c **** 
 169:..\..\..\liblc3\src/lc3.c ****     if (dt >= LC3_NUM_DT || sr >= LC3_NUM_SRATE)
 170:..\..\..\liblc3\src/lc3.c ****         return -1;
 171:..\..\..\liblc3\src/lc3.c **** 
 172:..\..\..\liblc3\src/lc3.c ****     return 2 * lc3_nd(dt, sr) - lc3_ns(dt, sr);
 173:..\..\..\liblc3\src/lc3.c **** }
 174:..\..\..\liblc3\src/lc3.c **** 
 175:..\..\..\liblc3\src/lc3.c **** LC3_EXPORT int lc3_delay_samples(int dt_us, int sr_hz)
 176:..\..\..\liblc3\src/lc3.c **** {
 177:..\..\..\liblc3\src/lc3.c ****     return lc3_hr_delay_samples(false, dt_us, sr_hz);
 178:..\..\..\liblc3\src/lc3.c **** }
 179:..\..\..\liblc3\src/lc3.c **** 
 180:..\..\..\liblc3\src/lc3.c **** 
 181:..\..\..\liblc3\src/lc3.c **** /* ----------------------------------------------------------------------------
 182:..\..\..\liblc3\src/lc3.c ****  *  Encoder
 183:..\..\..\liblc3\src/lc3.c ****  * -------------------------------------------------------------------------- */
 184:..\..\..\liblc3\src/lc3.c **** 
 185:..\..\..\liblc3\src/lc3.c **** /**
 186:..\..\..\liblc3\src/lc3.c ****  * Input PCM Samples from signed 16 bits
 187:..\..\..\liblc3\src/lc3.c ****  * encoder         Encoder state
 188:..\..\..\liblc3\src/lc3.c ****  * pcm, stride     Input PCM samples, and count between two consecutives
 189:..\..\..\liblc3\src/lc3.c ****  */
 190:..\..\..\liblc3\src/lc3.c **** static void load_s16(
 191:..\..\..\liblc3\src/lc3.c ****     struct lc3_encoder *encoder, const void *_pcm, int stride)
 192:..\..\..\liblc3\src/lc3.c **** {
 199              		.loc 1 192 0
ARM GAS  C:\Users\rdn\AppData\Local\Temp\ccCxUcqe.s 			page 8


 200              		.cfi_startproc
 201              		@ args = 0, pretend = 0, frame = 0
 202              		@ frame_needed = 0, uses_anonymous_args = 0
 203              	.LVL28:
 204 0000 F0B5     		push	{r4, r5, r6, r7, lr}
 205              		.cfi_def_cfa_offset 20
 206              		.cfi_offset 4, -20
 207              		.cfi_offset 5, -16
 208              		.cfi_offset 6, -12
 209              		.cfi_offset 7, -8
 210              		.cfi_offset 14, -4
 211              	.LVL29:
 193:..\..\..\liblc3\src/lc3.c ****     const int16_t *pcm = _pcm;
 194:..\..\..\liblc3\src/lc3.c **** 
 195:..\..\..\liblc3\src/lc3.c ****     enum lc3_dt dt = encoder->dt;
 212              		.loc 1 195 0
 213 0002 0378     		ldrb	r3, [r0]	@ zero_extendqisi2
 214              	.LVL30:
 196:..\..\..\liblc3\src/lc3.c ****     enum lc3_srate sr = encoder->sr_pcm;
 215              		.loc 1 196 0
 216 0004 8578     		ldrb	r5, [r0, #2]	@ zero_extendqisi2
 217              	.LVL31:
 197:..\..\..\liblc3\src/lc3.c **** 
 198:..\..\..\liblc3\src/lc3.c ****     int16_t *xt = (int16_t *)encoder->x + encoder->xt_off;
 218              		.loc 1 198 0
 219 0006 00F2AC44 		addw	r4, r0, #1196
 220 000a D0F8A064 		ldr	r6, [r0, #1184]
 221 000e 4FEA460E 		lsl	lr, r6, #1
 222              	.LVL32:
 199:..\..\..\liblc3\src/lc3.c ****     float *xs = encoder->x + encoder->xs_off;
 223              		.loc 1 199 0
 224 0012 D0F8A474 		ldr	r7, [r0, #1188]
 225 0016 BF00     		lsls	r7, r7, #2
 226              	.LVL33:
 227              	.LBB111:
 228              	.LBB112:
 229              		.file 2 "..\\..\\..\\liblc3\\src\\tables.h"
   1:..\..\..\liblc3\src/tables.h **** /******************************************************************************
   2:..\..\..\liblc3\src/tables.h ****  *
   3:..\..\..\liblc3\src/tables.h ****  *  Copyright 2022 Google LLC
   4:..\..\..\liblc3\src/tables.h ****  *
   5:..\..\..\liblc3\src/tables.h ****  *  Licensed under the Apache License, Version 2.0 (the "License");
   6:..\..\..\liblc3\src/tables.h ****  *  you may not use this file except in compliance with the License.
   7:..\..\..\liblc3\src/tables.h ****  *  You may obtain a copy of the License at:
   8:..\..\..\liblc3\src/tables.h ****  *
   9:..\..\..\liblc3\src/tables.h ****  *  http://www.apache.org/licenses/LICENSE-2.0
  10:..\..\..\liblc3\src/tables.h ****  *
  11:..\..\..\liblc3\src/tables.h ****  *  Unless required by applicable law or agreed to in writing, software
  12:..\..\..\liblc3\src/tables.h ****  *  distributed under the License is distributed on an "AS IS" BASIS,
  13:..\..\..\liblc3\src/tables.h ****  *  WITHOUT WARRANTIES OR CONDITIONS OF ANY KIND, either express or implied.
  14:..\..\..\liblc3\src/tables.h ****  *  See the License for the specific language governing permissions and
  15:..\..\..\liblc3\src/tables.h ****  *  limitations under the License.
  16:..\..\..\liblc3\src/tables.h ****  *
  17:..\..\..\liblc3\src/tables.h ****  ******************************************************************************/
  18:..\..\..\liblc3\src/tables.h **** 
  19:..\..\..\liblc3\src/tables.h **** #ifndef __LC3_TABLES_H
  20:..\..\..\liblc3\src/tables.h **** #define __LC3_TABLES_H
ARM GAS  C:\Users\rdn\AppData\Local\Temp\ccCxUcqe.s 			page 9


  21:..\..\..\liblc3\src/tables.h **** 
  22:..\..\..\liblc3\src/tables.h **** #include "common.h"
  23:..\..\..\liblc3\src/tables.h **** #include "bits.h"
  24:..\..\..\liblc3\src/tables.h **** 
  25:..\..\..\liblc3\src/tables.h **** 
  26:..\..\..\liblc3\src/tables.h **** /**
  27:..\..\..\liblc3\src/tables.h ****  * Characteristics
  28:..\..\..\liblc3\src/tables.h ****  *
  29:..\..\..\liblc3\src/tables.h ****  *   ns   Number of temporal samples / frequency coefficients within a frame
  30:..\..\..\liblc3\src/tables.h ****  *
  31:..\..\..\liblc3\src/tables.h ****  *   ne   Number of encoded frequency coefficients
  32:..\..\..\liblc3\src/tables.h ****  *
  33:..\..\..\liblc3\src/tables.h ****  *   nd   Number of MDCT delayed samples, sum of half a frame and an ovelap
  34:..\..\..\liblc3\src/tables.h ****  *        of future by 1.25 ms (2.5ms, 5ms and 10ms frame durations),
  35:..\..\..\liblc3\src/tables.h ****  *        or 2 ms (7.5ms frame duration).
  36:..\..\..\liblc3\src/tables.h ****  *
  37:..\..\..\liblc3\src/tables.h ****  *   nh   Number of 18 ms samples of the history buffer, aligned on a frame
  38:..\..\..\liblc3\src/tables.h ****  *
  39:..\..\..\liblc3\src/tables.h ****  *   nt   Number of 1.25 ms previous samples
  40:..\..\..\liblc3\src/tables.h ****  */
  41:..\..\..\liblc3\src/tables.h **** 
  42:..\..\..\liblc3\src/tables.h **** extern const int lc3_ns_2m5[LC3_NUM_SRATE];
  43:..\..\..\liblc3\src/tables.h **** extern const int lc3_ne_2m5[LC3_NUM_SRATE];
  44:..\..\..\liblc3\src/tables.h **** extern const int lc3_ns_4m [LC3_NUM_SRATE];
  45:..\..\..\liblc3\src/tables.h **** 
  46:..\..\..\liblc3\src/tables.h **** static inline int lc3_ns(enum lc3_dt dt, enum lc3_srate sr) {
  47:..\..\..\liblc3\src/tables.h ****     return lc3_ns_2m5[sr] * (1 + dt);
 230              		.loc 2 47 0
 231 0018 0E48     		ldr	r0, .L30
 232              	.LVL34:
 233 001a 50F82560 		ldr	r6, [r0, r5, lsl #2]
 234 001e 03FB0666 		mla	r6, r3, r6, r6
 235              	.LVL35:
 236              	.LBE112:
 237              	.LBE111:
 238              	.LBB113:
 200:..\..\..\liblc3\src/lc3.c ****     int ns = lc3_ns(dt, sr);
 201:..\..\..\liblc3\src/lc3.c **** 
 202:..\..\..\liblc3\src/lc3.c ****     for (int i = 0; i < ns; i++, pcm += stride)
 239              		.loc 1 202 0
 240 0022 0023     		movs	r3, #0
 241              	.LVL36:
 242 0024 12E0     		b	.L27
 243              	.LVL37:
 244              	.L28:
 203:..\..\..\liblc3\src/lc3.c ****         xt[i] = *pcm, xs[i] = *pcm;
 245              		.loc 1 203 0 discriminator 3
 246 0026 0EEB4300 		add	r0, lr, r3, lsl #1
 247 002a B1F90050 		ldrsh	r5, [r1]
 248 002e 2552     		strh	r5, [r4, r0]	@ movhi
 249 0030 07EB8300 		add	r0, r7, r3, lsl #2
 250 0034 2044     		add	r0, r0, r4
 251 0036 B1F90050 		ldrsh	r5, [r1]
 252 003a 07EE905A 		vmov	s15, r5	@ int
 253 003e F8EEE77A 		vcvt.f32.s32	s15, s15
 254 0042 C0ED007A 		vstr.32	s15, [r0]
 202:..\..\..\liblc3\src/lc3.c ****         xt[i] = *pcm, xs[i] = *pcm;
ARM GAS  C:\Users\rdn\AppData\Local\Temp\ccCxUcqe.s 			page 10


 255              		.loc 1 202 0 discriminator 3
 256 0046 0133     		adds	r3, r3, #1
 257              	.LVL38:
 258 0048 01EB4201 		add	r1, r1, r2, lsl #1
 259              	.LVL39:
 260              	.L27:
 202:..\..\..\liblc3\src/lc3.c ****         xt[i] = *pcm, xs[i] = *pcm;
 261              		.loc 1 202 0 is_stmt 0 discriminator 1
 262 004c B342     		cmp	r3, r6
 263 004e EADB     		blt	.L28
 264              	.LBE113:
 204:..\..\..\liblc3\src/lc3.c **** }
 265              		.loc 1 204 0 is_stmt 1
 266 0050 F0BD     		pop	{r4, r5, r6, r7, pc}
 267              	.LVL40:
 268              	.L31:
 269 0052 00BF     		.align	2
 270              	.L30:
 271 0054 00000000 		.word	lc3_ns_2m5
 272              		.cfi_endproc
 273              	.LFE32:
 274              		.size	load_s16, .-load_s16
 275              		.section	.text.load_s24,"ax",%progbits
 276              		.align	2
 277              		.thumb
 278              		.thumb_func
 279              		.type	load_s24, %function
 280              	load_s24:
 281              	.LFB33:
 205:..\..\..\liblc3\src/lc3.c **** 
 206:..\..\..\liblc3\src/lc3.c **** /**
 207:..\..\..\liblc3\src/lc3.c ****  * Input PCM Samples from signed 24 bits
 208:..\..\..\liblc3\src/lc3.c ****  * encoder         Encoder state
 209:..\..\..\liblc3\src/lc3.c ****  * pcm, stride     Input PCM samples, and count between two consecutives
 210:..\..\..\liblc3\src/lc3.c ****  */
 211:..\..\..\liblc3\src/lc3.c **** static void load_s24(
 212:..\..\..\liblc3\src/lc3.c ****     struct lc3_encoder *encoder, const void *_pcm, int stride)
 213:..\..\..\liblc3\src/lc3.c **** {
 282              		.loc 1 213 0
 283              		.cfi_startproc
 284              		@ args = 0, pretend = 0, frame = 0
 285              		@ frame_needed = 0, uses_anonymous_args = 0
 286              	.LVL41:
 287 0000 F0B5     		push	{r4, r5, r6, r7, lr}
 288              		.cfi_def_cfa_offset 20
 289              		.cfi_offset 4, -20
 290              		.cfi_offset 5, -16
 291              		.cfi_offset 6, -12
 292              		.cfi_offset 7, -8
 293              		.cfi_offset 14, -4
 294              	.LVL42:
 214:..\..\..\liblc3\src/lc3.c ****     const int32_t *pcm = _pcm;
 215:..\..\..\liblc3\src/lc3.c **** 
 216:..\..\..\liblc3\src/lc3.c ****     enum lc3_dt dt = encoder->dt;
 295              		.loc 1 216 0
 296 0002 0378     		ldrb	r3, [r0]	@ zero_extendqisi2
 297              	.LVL43:
ARM GAS  C:\Users\rdn\AppData\Local\Temp\ccCxUcqe.s 			page 11


 217:..\..\..\liblc3\src/lc3.c ****     enum lc3_srate sr = encoder->sr_pcm;
 298              		.loc 1 217 0
 299 0004 8478     		ldrb	r4, [r0, #2]	@ zero_extendqisi2
 300              	.LVL44:
 218:..\..\..\liblc3\src/lc3.c **** 
 219:..\..\..\liblc3\src/lc3.c ****     int16_t *xt = (int16_t *)encoder->x + encoder->xt_off;
 301              		.loc 1 219 0
 302 0006 00F2AC45 		addw	r5, r0, #1196
 303 000a D0F8A064 		ldr	r6, [r0, #1184]
 304 000e 4FEA460E 		lsl	lr, r6, #1
 305              	.LVL45:
 220:..\..\..\liblc3\src/lc3.c ****     float *xs = encoder->x + encoder->xs_off;
 306              		.loc 1 220 0
 307 0012 D0F8A474 		ldr	r7, [r0, #1188]
 308 0016 BF00     		lsls	r7, r7, #2
 309              	.LVL46:
 310              	.LBB114:
 311              	.LBB115:
 312              		.loc 2 47 0
 313 0018 1048     		ldr	r0, .L37
 314              	.LVL47:
 315 001a 50F82460 		ldr	r6, [r0, r4, lsl #2]
 316 001e 03FB0666 		mla	r6, r3, r6, r6
 317              	.LVL48:
 318              	.LBE115:
 319              	.LBE114:
 320              	.LBB116:
 221:..\..\..\liblc3\src/lc3.c ****     int ns = lc3_ns(dt, sr);
 222:..\..\..\liblc3\src/lc3.c **** 
 223:..\..\..\liblc3\src/lc3.c ****     for (int i = 0; i < ns; i++, pcm += stride) {
 321              		.loc 1 223 0
 322 0022 0020     		movs	r0, #0
 323 0024 16E0     		b	.L33
 324              	.LVL49:
 325              	.L35:
 224:..\..\..\liblc3\src/lc3.c ****         xt[i] = *pcm >> 8;
 326              		.loc 1 224 0 discriminator 3
 327 0026 0EEB4003 		add	r3, lr, r0, lsl #1
 328              	.LVL50:
 329 002a 0C68     		ldr	r4, [r1]
 330 002c 2412     		asrs	r4, r4, #8
 331 002e EC52     		strh	r4, [r5, r3]	@ movhi
 225:..\..\..\liblc3\src/lc3.c ****         xs[i] = lc3_ldexpf(*pcm, -8);
 332              		.loc 1 225 0 discriminator 3
 333 0030 07EB8004 		add	r4, r7, r0, lsl #2
 334 0034 2C44     		add	r4, r4, r5
 335              	.LVL51:
 336              	.LBB117:
 337              	.LBB118:
 338              		.file 3 "..\\..\\..\\liblc3\\src\\fastmath.h"
   1:..\..\..\liblc3\src/fastmath.h **** /******************************************************************************
   2:..\..\..\liblc3\src/fastmath.h ****  *
   3:..\..\..\liblc3\src/fastmath.h ****  *  Copyright 2022 Google LLC
   4:..\..\..\liblc3\src/fastmath.h ****  *
   5:..\..\..\liblc3\src/fastmath.h ****  *  Licensed under the Apache License, Version 2.0 (the "License");
   6:..\..\..\liblc3\src/fastmath.h ****  *  you may not use this file except in compliance with the License.
   7:..\..\..\liblc3\src/fastmath.h ****  *  You may obtain a copy of the License at:
ARM GAS  C:\Users\rdn\AppData\Local\Temp\ccCxUcqe.s 			page 12


   8:..\..\..\liblc3\src/fastmath.h ****  *
   9:..\..\..\liblc3\src/fastmath.h ****  *  http://www.apache.org/licenses/LICENSE-2.0
  10:..\..\..\liblc3\src/fastmath.h ****  *
  11:..\..\..\liblc3\src/fastmath.h ****  *  Unless required by applicable law or agreed to in writing, software
  12:..\..\..\liblc3\src/fastmath.h ****  *  distributed under the License is distributed on an "AS IS" BASIS,
  13:..\..\..\liblc3\src/fastmath.h ****  *  WITHOUT WARRANTIES OR CONDITIONS OF ANY KIND, either express or implied.
  14:..\..\..\liblc3\src/fastmath.h ****  *  See the License for the specific language governing permissions and
  15:..\..\..\liblc3\src/fastmath.h ****  *  limitations under the License.
  16:..\..\..\liblc3\src/fastmath.h ****  *
  17:..\..\..\liblc3\src/fastmath.h ****  ******************************************************************************/
  18:..\..\..\liblc3\src/fastmath.h **** 
  19:..\..\..\liblc3\src/fastmath.h **** #ifndef __LC3_FASTMATH_H
  20:..\..\..\liblc3\src/fastmath.h **** #define __LC3_FASTMATH_H
  21:..\..\..\liblc3\src/fastmath.h **** 
  22:..\..\..\liblc3\src/fastmath.h **** #include <stdint.h>
  23:..\..\..\liblc3\src/fastmath.h **** #include <math.h>
  24:..\..\..\liblc3\src/fastmath.h **** 
  25:..\..\..\liblc3\src/fastmath.h **** 
  26:..\..\..\liblc3\src/fastmath.h **** /**
  27:..\..\..\liblc3\src/fastmath.h ****  * IEEE 754 Floating point representation
  28:..\..\..\liblc3\src/fastmath.h ****  */
  29:..\..\..\liblc3\src/fastmath.h **** 
  30:..\..\..\liblc3\src/fastmath.h **** #define LC3_IEEE754_SIGN_SHL   (31)
  31:..\..\..\liblc3\src/fastmath.h **** #define LC3_IEEE754_SIGN_MASK  (1 << LC3_IEEE754_SIGN_SHL)
  32:..\..\..\liblc3\src/fastmath.h **** 
  33:..\..\..\liblc3\src/fastmath.h **** #define LC3_IEEE754_EXP_SHL    (23)
  34:..\..\..\liblc3\src/fastmath.h **** #define LC3_IEEE754_EXP_MASK   (0xff << LC3_IEEE754_EXP_SHL)
  35:..\..\..\liblc3\src/fastmath.h **** #define LC3_IEEE754_EXP_BIAS   (127)
  36:..\..\..\liblc3\src/fastmath.h **** 
  37:..\..\..\liblc3\src/fastmath.h **** 
  38:..\..\..\liblc3\src/fastmath.h **** /**
  39:..\..\..\liblc3\src/fastmath.h ****  * Fast multiply floating-point number by integral power of 2
  40:..\..\..\liblc3\src/fastmath.h ****  * x               Operand, finite number
  41:..\..\..\liblc3\src/fastmath.h ****  * exp             Exponent such that 2^x is finite
  42:..\..\..\liblc3\src/fastmath.h ****  * return          2^exp
  43:..\..\..\liblc3\src/fastmath.h ****  */
  44:..\..\..\liblc3\src/fastmath.h **** static inline float lc3_ldexpf(float _x, int exp) {
  45:..\..\..\liblc3\src/fastmath.h ****     union { float f; int32_t s; } x = { .f = _x };
 339              		.loc 3 45 0 discriminator 3
 340 0036 D1ED007A 		vldr.32	s15, [r1]	@ int
 341 003a F8EEE77A 		vcvt.f32.s32	s15, s15
 342              	.LVL52:
 343 003e 17EE903A 		vmov	r3, s15
 344              	.LVL53:
  46:..\..\..\liblc3\src/fastmath.h **** 
  47:..\..\..\liblc3\src/fastmath.h ****     if (x.s & LC3_IEEE754_EXP_MASK)
 345              		.loc 3 47 0 discriminator 3
 346 0042 13F0FF4F 		tst	r3, #2139095040
 347 0046 01D0     		beq	.L34
  48:..\..\..\liblc3\src/fastmath.h ****         x.s += exp << LC3_IEEE754_EXP_SHL;
 348              		.loc 3 48 0
 349 0048 03F17C43 		add	r3, r3, #-67108864
 350              	.LVL54:
 351              	.L34:
 352              	.LBE118:
 353              	.LBE117:
 354              		.loc 1 225 0
ARM GAS  C:\Users\rdn\AppData\Local\Temp\ccCxUcqe.s 			page 13


 355 004c 2360     		str	r3, [r4]	@ float
 223:..\..\..\liblc3\src/lc3.c ****         xt[i] = *pcm >> 8;
 356              		.loc 1 223 0
 357 004e 0130     		adds	r0, r0, #1
 358              	.LVL55:
 359 0050 01EB8201 		add	r1, r1, r2, lsl #2
 360              	.LVL56:
 361              	.L33:
 223:..\..\..\liblc3\src/lc3.c ****         xt[i] = *pcm >> 8;
 362              		.loc 1 223 0 is_stmt 0 discriminator 1
 363 0054 B042     		cmp	r0, r6
 364 0056 E6DB     		blt	.L35
 365              	.LBE116:
 226:..\..\..\liblc3\src/lc3.c ****     }
 227:..\..\..\liblc3\src/lc3.c **** }
 366              		.loc 1 227 0 is_stmt 1
 367 0058 F0BD     		pop	{r4, r5, r6, r7, pc}
 368              	.LVL57:
 369              	.L38:
 370 005a 00BF     		.align	2
 371              	.L37:
 372 005c 00000000 		.word	lc3_ns_2m5
 373              		.cfi_endproc
 374              	.LFE33:
 375              		.size	load_s24, .-load_s24
 376              		.section	.text.load_s24_3le,"ax",%progbits
 377              		.align	2
 378              		.thumb
 379              		.thumb_func
 380              		.type	load_s24_3le, %function
 381              	load_s24_3le:
 382              	.LFB34:
 228:..\..\..\liblc3\src/lc3.c **** 
 229:..\..\..\liblc3\src/lc3.c **** /**
 230:..\..\..\liblc3\src/lc3.c ****  * Input PCM Samples from signed 24 bits packed
 231:..\..\..\liblc3\src/lc3.c ****  * encoder         Encoder state
 232:..\..\..\liblc3\src/lc3.c ****  * pcm, stride     Input PCM samples, and count between two consecutives
 233:..\..\..\liblc3\src/lc3.c ****  */
 234:..\..\..\liblc3\src/lc3.c **** static void load_s24_3le(
 235:..\..\..\liblc3\src/lc3.c ****     struct lc3_encoder *encoder, const void *_pcm, int stride)
 236:..\..\..\liblc3\src/lc3.c **** {
 383              		.loc 1 236 0
 384              		.cfi_startproc
 385              		@ args = 0, pretend = 0, frame = 0
 386              		@ frame_needed = 0, uses_anonymous_args = 0
 387              	.LVL58:
 388 0000 F0B5     		push	{r4, r5, r6, r7, lr}
 389              		.cfi_def_cfa_offset 20
 390              		.cfi_offset 4, -20
 391              		.cfi_offset 5, -16
 392              		.cfi_offset 6, -12
 393              		.cfi_offset 7, -8
 394              		.cfi_offset 14, -4
 395              	.LVL59:
 237:..\..\..\liblc3\src/lc3.c ****     const uint8_t *pcm = _pcm;
 238:..\..\..\liblc3\src/lc3.c **** 
 239:..\..\..\liblc3\src/lc3.c ****     enum lc3_dt dt = encoder->dt;
ARM GAS  C:\Users\rdn\AppData\Local\Temp\ccCxUcqe.s 			page 14


 396              		.loc 1 239 0
 397 0002 0378     		ldrb	r3, [r0]	@ zero_extendqisi2
 398              	.LVL60:
 240:..\..\..\liblc3\src/lc3.c ****     enum lc3_srate sr = encoder->sr_pcm;
 399              		.loc 1 240 0
 400 0004 8478     		ldrb	r4, [r0, #2]	@ zero_extendqisi2
 401              	.LVL61:
 241:..\..\..\liblc3\src/lc3.c **** 
 242:..\..\..\liblc3\src/lc3.c ****     int16_t *xt = (int16_t *)encoder->x + encoder->xt_off;
 402              		.loc 1 242 0
 403 0006 00F2AC45 		addw	r5, r0, #1196
 404 000a D0F8A064 		ldr	r6, [r0, #1184]
 405 000e 4FEA460E 		lsl	lr, r6, #1
 406              	.LVL62:
 243:..\..\..\liblc3\src/lc3.c ****     float *xs = encoder->x + encoder->xs_off;
 407              		.loc 1 243 0
 408 0012 D0F8A474 		ldr	r7, [r0, #1188]
 409 0016 BF00     		lsls	r7, r7, #2
 410              	.LVL63:
 411              	.LBB119:
 412              	.LBB120:
 413              		.loc 2 47 0
 414 0018 1548     		ldr	r0, .L44
 415              	.LVL64:
 416 001a 50F82460 		ldr	r6, [r0, r4, lsl #2]
 417 001e 03FB0666 		mla	r6, r3, r6, r6
 418              	.LVL65:
 419              	.LBE120:
 420              	.LBE119:
 421              	.LBB121:
 244:..\..\..\liblc3\src/lc3.c ****     int ns = lc3_ns(dt, sr);
 245:..\..\..\liblc3\src/lc3.c **** 
 246:..\..\..\liblc3\src/lc3.c ****     for (int i = 0; i < ns; i++, pcm += 3*stride) {
 422              		.loc 1 246 0
 423 0022 0020     		movs	r0, #0
 424 0024 20E0     		b	.L40
 425              	.LVL66:
 426              	.L42:
 427              	.LBB122:
 247:..\..\..\liblc3\src/lc3.c ****         int32_t in = ((uint32_t)pcm[0] <<  8) |
 428              		.loc 1 247 0 discriminator 3
 429 0026 0C78     		ldrb	r4, [r1]	@ zero_extendqisi2
 248:..\..\..\liblc3\src/lc3.c ****                      ((uint32_t)pcm[1] << 16) |
 430              		.loc 1 248 0 discriminator 3
 431 0028 4B78     		ldrb	r3, [r1, #1]	@ zero_extendqisi2
 432 002a 1B04     		lsls	r3, r3, #16
 247:..\..\..\liblc3\src/lc3.c ****         int32_t in = ((uint32_t)pcm[0] <<  8) |
 433              		.loc 1 247 0 discriminator 3
 434 002c 43EA0423 		orr	r3, r3, r4, lsl #8
 249:..\..\..\liblc3\src/lc3.c ****                      ((uint32_t)pcm[2] << 24)  ;
 435              		.loc 1 249 0 discriminator 3
 436 0030 8C78     		ldrb	r4, [r1, #2]	@ zero_extendqisi2
 248:..\..\..\liblc3\src/lc3.c ****                      ((uint32_t)pcm[1] << 16) |
 437              		.loc 1 248 0 discriminator 3
 438 0032 43EA0463 		orr	r3, r3, r4, lsl #24
 439              	.LVL67:
 250:..\..\..\liblc3\src/lc3.c **** 
ARM GAS  C:\Users\rdn\AppData\Local\Temp\ccCxUcqe.s 			page 15


 251:..\..\..\liblc3\src/lc3.c ****         xt[i] = in >> 16;
 440              		.loc 1 251 0 discriminator 3
 441 0036 0EEB4004 		add	r4, lr, r0, lsl #1
 442 003a 4FEA234C 		asr	ip, r3, #16
 443 003e 25F804C0 		strh	ip, [r5, r4]	@ movhi
 252:..\..\..\liblc3\src/lc3.c ****         xs[i] = lc3_ldexpf(in, -16);
 444              		.loc 1 252 0 discriminator 3
 445 0042 07EB8004 		add	r4, r7, r0, lsl #2
 446 0046 2C44     		add	r4, r4, r5
 447              	.LVL68:
 448              	.LBB123:
 449              	.LBB124:
  45:..\..\..\liblc3\src/fastmath.h **** 
 450              		.loc 3 45 0 discriminator 3
 451 0048 07EE903A 		vmov	s15, r3	@ int
 452 004c F8EEE77A 		vcvt.f32.s32	s15, s15
 453              	.LVL69:
 454 0050 17EE903A 		vmov	r3, s15
 455              	.LVL70:
  47:..\..\..\liblc3\src/fastmath.h ****         x.s += exp << LC3_IEEE754_EXP_SHL;
 456              		.loc 3 47 0 discriminator 3
 457 0054 13F0FF4F 		tst	r3, #2139095040
 458 0058 01D0     		beq	.L41
 459              		.loc 3 48 0
 460 005a 03F17843 		add	r3, r3, #-134217728
 461              	.LVL71:
 462              	.L41:
 463              	.LBE124:
 464              	.LBE123:
 465              		.loc 1 252 0
 466 005e 2360     		str	r3, [r4]	@ float
 467              	.LBE122:
 246:..\..\..\liblc3\src/lc3.c ****         int32_t in = ((uint32_t)pcm[0] <<  8) |
 468              		.loc 1 246 0
 469 0060 0130     		adds	r0, r0, #1
 470              	.LVL72:
 471 0062 02EB4203 		add	r3, r2, r2, lsl #1
 472              	.LVL73:
 473 0066 1944     		add	r1, r1, r3
 474              	.LVL74:
 475              	.L40:
 246:..\..\..\liblc3\src/lc3.c ****         int32_t in = ((uint32_t)pcm[0] <<  8) |
 476              		.loc 1 246 0 is_stmt 0 discriminator 1
 477 0068 B042     		cmp	r0, r6
 478 006a DCDB     		blt	.L42
 479              	.LBE121:
 253:..\..\..\liblc3\src/lc3.c ****     }
 254:..\..\..\liblc3\src/lc3.c **** }
 480              		.loc 1 254 0 is_stmt 1
 481 006c F0BD     		pop	{r4, r5, r6, r7, pc}
 482              	.LVL75:
 483              	.L45:
 484 006e 00BF     		.align	2
 485              	.L44:
 486 0070 00000000 		.word	lc3_ns_2m5
 487              		.cfi_endproc
 488              	.LFE34:
ARM GAS  C:\Users\rdn\AppData\Local\Temp\ccCxUcqe.s 			page 16


 489              		.size	load_s24_3le, .-load_s24_3le
 490              		.section	.text.load_float,"ax",%progbits
 491              		.align	2
 492              		.thumb
 493              		.thumb_func
 494              		.type	load_float, %function
 495              	load_float:
 496              	.LFB35:
 255:..\..\..\liblc3\src/lc3.c **** 
 256:..\..\..\liblc3\src/lc3.c **** /**
 257:..\..\..\liblc3\src/lc3.c ****  * Input PCM Samples from float 32 bits
 258:..\..\..\liblc3\src/lc3.c ****  * encoder         Encoder state
 259:..\..\..\liblc3\src/lc3.c ****  * pcm, stride     Input PCM samples, and count between two consecutives
 260:..\..\..\liblc3\src/lc3.c ****  */
 261:..\..\..\liblc3\src/lc3.c **** static void load_float(
 262:..\..\..\liblc3\src/lc3.c ****     struct lc3_encoder *encoder, const void *_pcm, int stride)
 263:..\..\..\liblc3\src/lc3.c **** {
 497              		.loc 1 263 0
 498              		.cfi_startproc
 499              		@ args = 0, pretend = 0, frame = 0
 500              		@ frame_needed = 0, uses_anonymous_args = 0
 501              	.LVL76:
 502 0000 F0B5     		push	{r4, r5, r6, r7, lr}
 503              		.cfi_def_cfa_offset 20
 504              		.cfi_offset 4, -20
 505              		.cfi_offset 5, -16
 506              		.cfi_offset 6, -12
 507              		.cfi_offset 7, -8
 508              		.cfi_offset 14, -4
 509              	.LVL77:
 264:..\..\..\liblc3\src/lc3.c ****     const float *pcm = _pcm;
 265:..\..\..\liblc3\src/lc3.c **** 
 266:..\..\..\liblc3\src/lc3.c ****     enum lc3_dt dt = encoder->dt;
 510              		.loc 1 266 0
 511 0002 0378     		ldrb	r3, [r0]	@ zero_extendqisi2
 512              	.LVL78:
 267:..\..\..\liblc3\src/lc3.c ****     enum lc3_srate sr = encoder->sr_pcm;
 513              		.loc 1 267 0
 514 0004 8478     		ldrb	r4, [r0, #2]	@ zero_extendqisi2
 515              	.LVL79:
 268:..\..\..\liblc3\src/lc3.c **** 
 269:..\..\..\liblc3\src/lc3.c ****     int16_t *xt = (int16_t *)encoder->x + encoder->xt_off;
 516              		.loc 1 269 0
 517 0006 00F2AC4C 		addw	ip, r0, #1196
 518 000a D0F8A054 		ldr	r5, [r0, #1184]
 519 000e 4FEA450E 		lsl	lr, r5, #1
 520              	.LVL80:
 270:..\..\..\liblc3\src/lc3.c ****     float *xs = encoder->x + encoder->xs_off;
 521              		.loc 1 270 0
 522 0012 D0F8A474 		ldr	r7, [r0, #1188]
 523 0016 0CEB8707 		add	r7, ip, r7, lsl #2
 524              	.LVL81:
 525              	.LBB125:
 526              	.LBB126:
 527              		.loc 2 47 0
 528 001a 1648     		ldr	r0, .L53
 529              	.LVL82:
ARM GAS  C:\Users\rdn\AppData\Local\Temp\ccCxUcqe.s 			page 17


 530 001c 50F82460 		ldr	r6, [r0, r4, lsl #2]
 531 0020 03FB0666 		mla	r6, r3, r6, r6
 532              	.LVL83:
 533              	.LBE126:
 534              	.LBE125:
 535              	.LBB127:
 271:..\..\..\liblc3\src/lc3.c ****     int ns = lc3_ns(dt, sr);
 272:..\..\..\liblc3\src/lc3.c **** 
 273:..\..\..\liblc3\src/lc3.c ****     for (int i = 0; i < ns; i++, pcm += stride) {
 536              		.loc 1 273 0
 537 0024 0020     		movs	r0, #0
 538 0026 22E0     		b	.L47
 539              	.LVL84:
 540              	.L50:
 274:..\..\..\liblc3\src/lc3.c ****         xs[i] = lc3_ldexpf(*pcm, 15);
 541              		.loc 1 274 0
 542 0028 0446     		mov	r4, r0
 543 002a 07EB8005 		add	r5, r7, r0, lsl #2
 544              	.LVL85:
 545              	.LBB128:
 546              	.LBB129:
  45:..\..\..\liblc3\src/fastmath.h **** 
 547              		.loc 3 45 0
 548 002e 0B68     		ldr	r3, [r1]
 549              	.LVL86:
  47:..\..\..\liblc3\src/fastmath.h ****         x.s += exp << LC3_IEEE754_EXP_SHL;
 550              		.loc 3 47 0
 551 0030 13F0FF4F 		tst	r3, #2139095040
 552 0034 01D0     		beq	.L48
 553              		.loc 3 48 0
 554 0036 03F1F063 		add	r3, r3, #125829120
 555              	.LVL87:
 556              	.L48:
  49:..\..\..\liblc3\src/fastmath.h **** 
  50:..\..\..\liblc3\src/fastmath.h ****     return x.f;
 557              		.loc 3 50 0
 558 003a 07EE903A 		vmov	s15, r3
 559              	.LVL88:
 560              	.LBE129:
 561              	.LBE128:
 562              		.loc 1 274 0
 563 003e 2B60     		str	r3, [r5]	@ float
 564              	.LVL89:
 275:..\..\..\liblc3\src/lc3.c ****         xt[i] = LC3_SAT16((int32_t)xs[i]);
 565              		.loc 1 275 0
 566 0040 0EEB4404 		add	r4, lr, r4, lsl #1
 567 0044 FDEEE77A 		vcvt.s32.f32	s15, s15
 568 0048 17EE903A 		vmov	r3, s15	@ int
 569 004c 47F6FE75 		movw	r5, #32766
 570 0050 AB42     		cmp	r3, r5
 571 0052 05DC     		bgt	.L51
 572              		.loc 1 275 0 is_stmt 0 discriminator 1
 573 0054 084D     		ldr	r5, .L53+4
 574 0056 AB42     		cmp	r3, r5
 575 0058 B8BF     		it	lt
 576 005a 2B46     		movlt	r3, r5
 577 005c 1BB2     		sxth	r3, r3
ARM GAS  C:\Users\rdn\AppData\Local\Temp\ccCxUcqe.s 			page 18


 578 005e 01E0     		b	.L49
 579              	.L51:
 580              		.loc 1 275 0
 581 0060 47F6FF73 		movw	r3, #32767
 582              	.L49:
 583              		.loc 1 275 0 discriminator 4
 584 0064 2CF80430 		strh	r3, [ip, r4]	@ movhi
 273:..\..\..\liblc3\src/lc3.c ****         xs[i] = lc3_ldexpf(*pcm, 15);
 585              		.loc 1 273 0 is_stmt 1 discriminator 4
 586 0068 0130     		adds	r0, r0, #1
 587              	.LVL90:
 588 006a 01EB8201 		add	r1, r1, r2, lsl #2
 589              	.LVL91:
 590              	.L47:
 273:..\..\..\liblc3\src/lc3.c ****         xs[i] = lc3_ldexpf(*pcm, 15);
 591              		.loc 1 273 0 is_stmt 0 discriminator 2
 592 006e B042     		cmp	r0, r6
 593 0070 DADB     		blt	.L50
 594              	.LBE127:
 276:..\..\..\liblc3\src/lc3.c ****     }
 277:..\..\..\liblc3\src/lc3.c **** }
 595              		.loc 1 277 0 is_stmt 1
 596 0072 F0BD     		pop	{r4, r5, r6, r7, pc}
 597              	.LVL92:
 598              	.L54:
 599              		.align	2
 600              	.L53:
 601 0074 00000000 		.word	lc3_ns_2m5
 602 0078 0080FFFF 		.word	-32768
 603              		.cfi_endproc
 604              	.LFE35:
 605              		.size	load_float, .-load_float
 606              		.section	.text.store_s16,"ax",%progbits
 607              		.align	2
 608              		.thumb
 609              		.thumb_func
 610              		.type	store_s16, %function
 611              	store_s16:
 612              	.LFB43:
 278:..\..\..\liblc3\src/lc3.c **** 
 279:..\..\..\liblc3\src/lc3.c **** /**
 280:..\..\..\liblc3\src/lc3.c ****  * Frame Analysis
 281:..\..\..\liblc3\src/lc3.c ****  * encoder         Encoder state
 282:..\..\..\liblc3\src/lc3.c ****  * nbytes          Size in bytes of the frame
 283:..\..\..\liblc3\src/lc3.c ****  * side            Return frame data
 284:..\..\..\liblc3\src/lc3.c ****  */
 285:..\..\..\liblc3\src/lc3.c **** static void analyze(struct lc3_encoder *encoder,
 286:..\..\..\liblc3\src/lc3.c ****     int nbytes, struct side_data *side)
 287:..\..\..\liblc3\src/lc3.c **** {
 288:..\..\..\liblc3\src/lc3.c ****     enum lc3_dt dt = encoder->dt;
 289:..\..\..\liblc3\src/lc3.c ****     enum lc3_srate sr = encoder->sr;
 290:..\..\..\liblc3\src/lc3.c ****     enum lc3_srate sr_pcm = encoder->sr_pcm;
 291:..\..\..\liblc3\src/lc3.c **** 
 292:..\..\..\liblc3\src/lc3.c ****     int16_t *xt = (int16_t *)encoder->x + encoder->xt_off;
 293:..\..\..\liblc3\src/lc3.c ****     float *xs = encoder->x + encoder->xs_off;
 294:..\..\..\liblc3\src/lc3.c ****     int ns = lc3_ns(dt, sr_pcm);
 295:..\..\..\liblc3\src/lc3.c ****     int nt = lc3_nt(sr_pcm);
ARM GAS  C:\Users\rdn\AppData\Local\Temp\ccCxUcqe.s 			page 19


 296:..\..\..\liblc3\src/lc3.c **** 
 297:..\..\..\liblc3\src/lc3.c ****     float *xd = encoder->x + encoder->xd_off;
 298:..\..\..\liblc3\src/lc3.c ****     float *xf = xs;
 299:..\..\..\liblc3\src/lc3.c **** 
 300:..\..\..\liblc3\src/lc3.c ****     /* --- Temporal --- */
 301:..\..\..\liblc3\src/lc3.c **** 
 302:..\..\..\liblc3\src/lc3.c ****     bool att = lc3_attdet_run(dt, sr_pcm, nbytes, &encoder->attdet, xt);
 303:..\..\..\liblc3\src/lc3.c **** 
 304:..\..\..\liblc3\src/lc3.c ****     side->pitch_present =
 305:..\..\..\liblc3\src/lc3.c ****         lc3_ltpf_analyse(dt, sr_pcm, &encoder->ltpf, xt, &side->ltpf);
 306:..\..\..\liblc3\src/lc3.c **** 
 307:..\..\..\liblc3\src/lc3.c ****     memmove(xt - nt, xt + (ns-nt), nt * sizeof(*xt));
 308:..\..\..\liblc3\src/lc3.c **** 
 309:..\..\..\liblc3\src/lc3.c ****     /* --- Spectral --- */
 310:..\..\..\liblc3\src/lc3.c **** 
 311:..\..\..\liblc3\src/lc3.c ****     float e[LC3_MAX_BANDS];
 312:..\..\..\liblc3\src/lc3.c **** 
 313:..\..\..\liblc3\src/lc3.c ****     lc3_mdct_forward(dt, sr_pcm, sr, xs, xd, xf);
 314:..\..\..\liblc3\src/lc3.c **** 
 315:..\..\..\liblc3\src/lc3.c ****     bool nn_flag = lc3_energy_compute(dt, sr, xf, e);
 316:..\..\..\liblc3\src/lc3.c ****     if (nn_flag)
 317:..\..\..\liblc3\src/lc3.c ****         lc3_ltpf_disable(&side->ltpf);
 318:..\..\..\liblc3\src/lc3.c **** 
 319:..\..\..\liblc3\src/lc3.c ****     side->bw = lc3_bwdet_run(dt, sr, e);
 320:..\..\..\liblc3\src/lc3.c **** 
 321:..\..\..\liblc3\src/lc3.c ****     lc3_sns_analyze(dt, sr, nbytes, e, att, &side->sns, xf, xf);
 322:..\..\..\liblc3\src/lc3.c **** 
 323:..\..\..\liblc3\src/lc3.c ****     lc3_tns_analyze(dt, side->bw, nn_flag, nbytes, &side->tns, xf);
 324:..\..\..\liblc3\src/lc3.c **** 
 325:..\..\..\liblc3\src/lc3.c ****     lc3_spec_analyze(dt, sr,
 326:..\..\..\liblc3\src/lc3.c ****         nbytes, side->pitch_present, &side->tns,
 327:..\..\..\liblc3\src/lc3.c ****         &encoder->spec, xf, &side->spec);
 328:..\..\..\liblc3\src/lc3.c **** }
 329:..\..\..\liblc3\src/lc3.c **** 
 330:..\..\..\liblc3\src/lc3.c **** /**
 331:..\..\..\liblc3\src/lc3.c ****  * Encode bitstream
 332:..\..\..\liblc3\src/lc3.c ****  * encoder         Encoder state
 333:..\..\..\liblc3\src/lc3.c ****  * side            The frame data
 334:..\..\..\liblc3\src/lc3.c ****  * nbytes          Target size of the frame (20 to 400)
 335:..\..\..\liblc3\src/lc3.c ****  * buffer          Output bitstream buffer of `nbytes` size
 336:..\..\..\liblc3\src/lc3.c ****  */
 337:..\..\..\liblc3\src/lc3.c **** static void encode(struct lc3_encoder *encoder,
 338:..\..\..\liblc3\src/lc3.c ****     const struct side_data *side, int nbytes, void *buffer)
 339:..\..\..\liblc3\src/lc3.c **** {
 340:..\..\..\liblc3\src/lc3.c ****     enum lc3_dt dt = encoder->dt;
 341:..\..\..\liblc3\src/lc3.c ****     enum lc3_srate sr = encoder->sr;
 342:..\..\..\liblc3\src/lc3.c **** 
 343:..\..\..\liblc3\src/lc3.c ****     float *xf = encoder->x + encoder->xs_off;
 344:..\..\..\liblc3\src/lc3.c ****     enum lc3_bandwidth bw = side->bw;
 345:..\..\..\liblc3\src/lc3.c **** 
 346:..\..\..\liblc3\src/lc3.c ****     lc3_bits_t bits;
 347:..\..\..\liblc3\src/lc3.c **** 
 348:..\..\..\liblc3\src/lc3.c ****     lc3_setup_bits(&bits, LC3_BITS_MODE_WRITE, buffer, nbytes);
 349:..\..\..\liblc3\src/lc3.c **** 
 350:..\..\..\liblc3\src/lc3.c ****     lc3_bwdet_put_bw(&bits, sr, bw);
 351:..\..\..\liblc3\src/lc3.c **** 
 352:..\..\..\liblc3\src/lc3.c ****     lc3_spec_put_side(&bits, dt, sr, &side->spec);
ARM GAS  C:\Users\rdn\AppData\Local\Temp\ccCxUcqe.s 			page 20


 353:..\..\..\liblc3\src/lc3.c **** 
 354:..\..\..\liblc3\src/lc3.c ****     lc3_tns_put_data(&bits, &side->tns);
 355:..\..\..\liblc3\src/lc3.c **** 
 356:..\..\..\liblc3\src/lc3.c ****     lc3_put_bit(&bits, side->pitch_present);
 357:..\..\..\liblc3\src/lc3.c **** 
 358:..\..\..\liblc3\src/lc3.c ****     lc3_sns_put_data(&bits, &side->sns);
 359:..\..\..\liblc3\src/lc3.c **** 
 360:..\..\..\liblc3\src/lc3.c ****     if (side->pitch_present)
 361:..\..\..\liblc3\src/lc3.c ****         lc3_ltpf_put_data(&bits, &side->ltpf);
 362:..\..\..\liblc3\src/lc3.c **** 
 363:..\..\..\liblc3\src/lc3.c ****     lc3_spec_encode(&bits, dt, sr, bw, nbytes, &side->spec, xf);
 364:..\..\..\liblc3\src/lc3.c **** 
 365:..\..\..\liblc3\src/lc3.c ****     lc3_flush_bits(&bits);
 366:..\..\..\liblc3\src/lc3.c **** }
 367:..\..\..\liblc3\src/lc3.c **** 
 368:..\..\..\liblc3\src/lc3.c **** /**
 369:..\..\..\liblc3\src/lc3.c ****  * Return size needed for an encoder
 370:..\..\..\liblc3\src/lc3.c ****  */
 371:..\..\..\liblc3\src/lc3.c **** LC3_EXPORT unsigned lc3_hr_encoder_size(bool hrmode, int dt_us, int sr_hz)
 372:..\..\..\liblc3\src/lc3.c **** {
 373:..\..\..\liblc3\src/lc3.c ****     if (resolve_dt(dt_us, hrmode) >= LC3_NUM_DT ||
 374:..\..\..\liblc3\src/lc3.c ****         resolve_srate(sr_hz, hrmode) >= LC3_NUM_SRATE)
 375:..\..\..\liblc3\src/lc3.c ****         return 0;
 376:..\..\..\liblc3\src/lc3.c **** 
 377:..\..\..\liblc3\src/lc3.c ****     return sizeof(struct lc3_encoder) +
 378:..\..\..\liblc3\src/lc3.c ****         (LC3_ENCODER_BUFFER_COUNT(dt_us, sr_hz)-1) * sizeof(float);
 379:..\..\..\liblc3\src/lc3.c **** }
 380:..\..\..\liblc3\src/lc3.c **** 
 381:..\..\..\liblc3\src/lc3.c **** LC3_EXPORT unsigned lc3_encoder_size(int dt_us, int sr_hz)
 382:..\..\..\liblc3\src/lc3.c **** {
 383:..\..\..\liblc3\src/lc3.c ****     return lc3_hr_encoder_size(false, dt_us, sr_hz);
 384:..\..\..\liblc3\src/lc3.c **** }
 385:..\..\..\liblc3\src/lc3.c **** 
 386:..\..\..\liblc3\src/lc3.c **** /**
 387:..\..\..\liblc3\src/lc3.c ****  * Setup encoder
 388:..\..\..\liblc3\src/lc3.c ****  */
 389:..\..\..\liblc3\src/lc3.c **** LC3_EXPORT struct lc3_encoder *lc3_hr_setup_encoder(
 390:..\..\..\liblc3\src/lc3.c ****     bool hrmode, int dt_us, int sr_hz, int sr_pcm_hz, void *mem)
 391:..\..\..\liblc3\src/lc3.c **** {
 392:..\..\..\liblc3\src/lc3.c ****     if (sr_pcm_hz <= 0)
 393:..\..\..\liblc3\src/lc3.c ****         sr_pcm_hz = sr_hz;
 394:..\..\..\liblc3\src/lc3.c **** 
 395:..\..\..\liblc3\src/lc3.c ****     enum lc3_dt dt = resolve_dt(dt_us, hrmode);
 396:..\..\..\liblc3\src/lc3.c ****     enum lc3_srate sr = resolve_srate(sr_hz, hrmode);
 397:..\..\..\liblc3\src/lc3.c ****     enum lc3_srate sr_pcm = resolve_srate(sr_pcm_hz, hrmode);
 398:..\..\..\liblc3\src/lc3.c **** 
 399:..\..\..\liblc3\src/lc3.c ****     if (dt >= LC3_NUM_DT || sr_pcm >= LC3_NUM_SRATE || sr > sr_pcm || !mem)
 400:..\..\..\liblc3\src/lc3.c ****         return NULL;
 401:..\..\..\liblc3\src/lc3.c **** 
 402:..\..\..\liblc3\src/lc3.c ****     struct lc3_encoder *encoder = mem;
 403:..\..\..\liblc3\src/lc3.c ****     int ns = lc3_ns(dt, sr_pcm);
 404:..\..\..\liblc3\src/lc3.c ****     int nt = lc3_nt(sr_pcm);
 405:..\..\..\liblc3\src/lc3.c **** 
 406:..\..\..\liblc3\src/lc3.c ****     *encoder = (struct lc3_encoder){
 407:..\..\..\liblc3\src/lc3.c ****         .dt = dt, .sr = sr,
 408:..\..\..\liblc3\src/lc3.c ****         .sr_pcm = sr_pcm,
 409:..\..\..\liblc3\src/lc3.c **** 
ARM GAS  C:\Users\rdn\AppData\Local\Temp\ccCxUcqe.s 			page 21


 410:..\..\..\liblc3\src/lc3.c ****         .xt_off = nt,
 411:..\..\..\liblc3\src/lc3.c ****         .xs_off = (nt + ns) / 2,
 412:..\..\..\liblc3\src/lc3.c ****         .xd_off = (nt + ns) / 2 + ns,
 413:..\..\..\liblc3\src/lc3.c ****     };
 414:..\..\..\liblc3\src/lc3.c **** 
 415:..\..\..\liblc3\src/lc3.c ****     memset(encoder->x, 0,
 416:..\..\..\liblc3\src/lc3.c ****         LC3_ENCODER_BUFFER_COUNT(dt_us, sr_pcm_hz) * sizeof(float));
 417:..\..\..\liblc3\src/lc3.c **** 
 418:..\..\..\liblc3\src/lc3.c ****     return encoder;
 419:..\..\..\liblc3\src/lc3.c **** }
 420:..\..\..\liblc3\src/lc3.c **** 
 421:..\..\..\liblc3\src/lc3.c **** LC3_EXPORT struct lc3_encoder *lc3_setup_encoder(
 422:..\..\..\liblc3\src/lc3.c ****     int dt_us, int sr_hz, int sr_pcm_hz, void *mem)
 423:..\..\..\liblc3\src/lc3.c **** {
 424:..\..\..\liblc3\src/lc3.c ****     return lc3_hr_setup_encoder(false, dt_us, sr_hz, sr_pcm_hz, mem);
 425:..\..\..\liblc3\src/lc3.c **** }
 426:..\..\..\liblc3\src/lc3.c **** 
 427:..\..\..\liblc3\src/lc3.c **** /**
 428:..\..\..\liblc3\src/lc3.c ****  * Encode a frame
 429:..\..\..\liblc3\src/lc3.c ****  */
 430:..\..\..\liblc3\src/lc3.c **** LC3_EXPORT int lc3_encode(struct lc3_encoder *encoder,
 431:..\..\..\liblc3\src/lc3.c ****     enum lc3_pcm_format fmt, const void *pcm, int stride, int nbytes, void *out)
 432:..\..\..\liblc3\src/lc3.c **** {
 433:..\..\..\liblc3\src/lc3.c ****     static void (* const load[])(struct lc3_encoder *, const void *, int) = {
 434:..\..\..\liblc3\src/lc3.c ****         [LC3_PCM_FORMAT_S16    ] = load_s16,
 435:..\..\..\liblc3\src/lc3.c ****         [LC3_PCM_FORMAT_S24    ] = load_s24,
 436:..\..\..\liblc3\src/lc3.c ****         [LC3_PCM_FORMAT_S24_3LE] = load_s24_3le,
 437:..\..\..\liblc3\src/lc3.c ****         [LC3_PCM_FORMAT_FLOAT  ] = load_float,
 438:..\..\..\liblc3\src/lc3.c ****     };
 439:..\..\..\liblc3\src/lc3.c **** 
 440:..\..\..\liblc3\src/lc3.c ****     /* --- Check parameters --- */
 441:..\..\..\liblc3\src/lc3.c **** 
 442:..\..\..\liblc3\src/lc3.c ****     if (!encoder || nbytes < lc3_min_frame_bytes(encoder->dt, encoder->sr)
 443:..\..\..\liblc3\src/lc3.c ****                  || nbytes > lc3_max_frame_bytes(encoder->dt, encoder->sr))
 444:..\..\..\liblc3\src/lc3.c ****         return -1;
 445:..\..\..\liblc3\src/lc3.c **** 
 446:..\..\..\liblc3\src/lc3.c ****     /* --- Processing --- */
 447:..\..\..\liblc3\src/lc3.c **** 
 448:..\..\..\liblc3\src/lc3.c ****     struct side_data side;
 449:..\..\..\liblc3\src/lc3.c **** 
 450:..\..\..\liblc3\src/lc3.c ****     load[fmt](encoder, pcm, stride);
 451:..\..\..\liblc3\src/lc3.c **** 
 452:..\..\..\liblc3\src/lc3.c ****     analyze(encoder, nbytes, &side);
 453:..\..\..\liblc3\src/lc3.c **** 
 454:..\..\..\liblc3\src/lc3.c ****     encode(encoder, &side, nbytes, out);
 455:..\..\..\liblc3\src/lc3.c **** 
 456:..\..\..\liblc3\src/lc3.c ****     return 0;
 457:..\..\..\liblc3\src/lc3.c **** }
 458:..\..\..\liblc3\src/lc3.c **** 
 459:..\..\..\liblc3\src/lc3.c **** 
 460:..\..\..\liblc3\src/lc3.c **** /* ----------------------------------------------------------------------------
 461:..\..\..\liblc3\src/lc3.c ****  *  Decoder
 462:..\..\..\liblc3\src/lc3.c ****  * -------------------------------------------------------------------------- */
 463:..\..\..\liblc3\src/lc3.c **** 
 464:..\..\..\liblc3\src/lc3.c **** /**
 465:..\..\..\liblc3\src/lc3.c ****  * Output PCM Samples to signed 16 bits
 466:..\..\..\liblc3\src/lc3.c ****  * decoder         Decoder state
ARM GAS  C:\Users\rdn\AppData\Local\Temp\ccCxUcqe.s 			page 22


 467:..\..\..\liblc3\src/lc3.c ****  * pcm, stride     Output PCM samples, and count between two consecutives
 468:..\..\..\liblc3\src/lc3.c ****  */
 469:..\..\..\liblc3\src/lc3.c **** static void store_s16(
 470:..\..\..\liblc3\src/lc3.c ****     struct lc3_decoder *decoder, void *_pcm, int stride)
 471:..\..\..\liblc3\src/lc3.c **** {
 613              		.loc 1 471 0
 614              		.cfi_startproc
 615              		@ args = 0, pretend = 0, frame = 0
 616              		@ frame_needed = 0, uses_anonymous_args = 0
 617              		@ link register save eliminated.
 618              	.LVL93:
 619 0000 70B4     		push	{r4, r5, r6}
 620              		.cfi_def_cfa_offset 12
 621              		.cfi_offset 4, -12
 622              		.cfi_offset 5, -8
 623              		.cfi_offset 6, -4
 624              	.LVL94:
 472:..\..\..\liblc3\src/lc3.c ****     int16_t *pcm = _pcm;
 473:..\..\..\liblc3\src/lc3.c **** 
 474:..\..\..\liblc3\src/lc3.c ****     enum lc3_dt dt = decoder->dt;
 625              		.loc 1 474 0
 626 0002 0678     		ldrb	r6, [r0]	@ zero_extendqisi2
 627              	.LVL95:
 475:..\..\..\liblc3\src/lc3.c ****     enum lc3_srate sr = decoder->sr_pcm;
 628              		.loc 1 475 0
 629 0004 8478     		ldrb	r4, [r0, #2]	@ zero_extendqisi2
 630              	.LVL96:
 476:..\..\..\liblc3\src/lc3.c **** 
 477:..\..\..\liblc3\src/lc3.c ****     float *xs = decoder->x + decoder->xs_off;
 631              		.loc 1 477 0
 632 0006 00F1B803 		add	r3, r0, #184
 633 000a D0F8AC50 		ldr	r5, [r0, #172]
 634 000e 03EB8505 		add	r5, r3, r5, lsl #2
 635              	.LVL97:
 636              	.LBB130:
 637              	.LBB131:
 638              		.loc 2 47 0
 639 0012 194B     		ldr	r3, .L66
 640 0014 53F82440 		ldr	r4, [r3, r4, lsl #2]
 641              	.LVL98:
 642 0018 06FB0444 		mla	r4, r6, r4, r4
 643              	.LVL99:
 644              	.LBE131:
 645              	.LBE130:
 478:..\..\..\liblc3\src/lc3.c ****     int ns = lc3_ns(dt, sr);
 479:..\..\..\liblc3\src/lc3.c **** 
 480:..\..\..\liblc3\src/lc3.c ****     for ( ; ns > 0; ns--, xs++, pcm += stride) {
 646              		.loc 1 480 0
 647 001c 28E0     		b	.L56
 648              	.LVL100:
 649              	.L61:
 650              	.LBB132:
 481:..\..\..\liblc3\src/lc3.c ****         int32_t s = *xs >= 0 ? (int)(*xs + 0.5f) : (int)(*xs - 0.5f);
 651              		.loc 1 481 0
 652 001e D5ED007A 		vldr.32	s15, [r5]
 653 0022 F5EEC07A 		vcmpe.f32	s15, #0
 654 0026 F1EE10FA 		vmrs	APSR_nzcv, FPSCR
ARM GAS  C:\Users\rdn\AppData\Local\Temp\ccCxUcqe.s 			page 23


 655 002a 08DB     		blt	.L64
 656              		.loc 1 481 0 is_stmt 0 discriminator 1
 657 002c B6EE007A 		vmov.f32	s14, #5.0e-1
 658 0030 77EE877A 		vadd.f32	s15, s15, s14
 659 0034 FDEEE77A 		vcvt.s32.f32	s15, s15
 660 0038 17EE903A 		vmov	r3, s15	@ int
 661 003c 07E0     		b	.L59
 662              	.L64:
 663              		.loc 1 481 0 discriminator 2
 664 003e B6EE007A 		vmov.f32	s14, #5.0e-1
 665 0042 77EEC77A 		vsub.f32	s15, s15, s14
 666 0046 FDEEE77A 		vcvt.s32.f32	s15, s15
 667 004a 17EE903A 		vmov	r3, s15	@ int
 668              	.L59:
 669              	.LVL101:
 482:..\..\..\liblc3\src/lc3.c ****         *pcm = LC3_SAT16(s);
 670              		.loc 1 482 0 is_stmt 1 discriminator 4
 671 004e 47F6FE70 		movw	r0, #32766
 672 0052 8342     		cmp	r3, r0
 673 0054 05DC     		bgt	.L62
 674              		.loc 1 482 0 is_stmt 0 discriminator 1
 675 0056 0948     		ldr	r0, .L66+4
 676 0058 8342     		cmp	r3, r0
 677 005a B8BF     		it	lt
 678 005c 0346     		movlt	r3, r0
 679              	.LVL102:
 680 005e 1BB2     		sxth	r3, r3
 681 0060 01E0     		b	.L60
 682              	.LVL103:
 683              	.L62:
 684              		.loc 1 482 0
 685 0062 47F6FF73 		movw	r3, #32767
 686              	.LVL104:
 687              	.L60:
 688              		.loc 1 482 0 discriminator 4
 689 0066 0B80     		strh	r3, [r1]	@ movhi
 690              	.LBE132:
 480:..\..\..\liblc3\src/lc3.c ****         int32_t s = *xs >= 0 ? (int)(*xs + 0.5f) : (int)(*xs - 0.5f);
 691              		.loc 1 480 0 is_stmt 1 discriminator 4
 692 0068 013C     		subs	r4, r4, #1
 693              	.LVL105:
 694 006a 0435     		adds	r5, r5, #4
 695              	.LVL106:
 696 006c 01EB4201 		add	r1, r1, r2, lsl #1
 697              	.LVL107:
 698              	.L56:
 480:..\..\..\liblc3\src/lc3.c ****         int32_t s = *xs >= 0 ? (int)(*xs + 0.5f) : (int)(*xs - 0.5f);
 699              		.loc 1 480 0 is_stmt 0 discriminator 1
 700 0070 002C     		cmp	r4, #0
 701 0072 D4DC     		bgt	.L61
 483:..\..\..\liblc3\src/lc3.c ****     }
 484:..\..\..\liblc3\src/lc3.c **** }
 702              		.loc 1 484 0 is_stmt 1
 703 0074 70BC     		pop	{r4, r5, r6}
 704              		.cfi_restore 6
 705              		.cfi_restore 5
 706              		.cfi_restore 4
ARM GAS  C:\Users\rdn\AppData\Local\Temp\ccCxUcqe.s 			page 24


 707              		.cfi_def_cfa_offset 0
 708              	.LVL108:
 709 0076 7047     		bx	lr
 710              	.L67:
 711              		.align	2
 712              	.L66:
 713 0078 00000000 		.word	lc3_ns_2m5
 714 007c 0080FFFF 		.word	-32768
 715              		.cfi_endproc
 716              	.LFE43:
 717              		.size	store_s16, .-store_s16
 718              		.section	.text.store_s24,"ax",%progbits
 719              		.align	2
 720              		.thumb
 721              		.thumb_func
 722              		.type	store_s24, %function
 723              	store_s24:
 724              	.LFB44:
 485:..\..\..\liblc3\src/lc3.c **** 
 486:..\..\..\liblc3\src/lc3.c **** /**
 487:..\..\..\liblc3\src/lc3.c ****  * Output PCM Samples to signed 24 bits
 488:..\..\..\liblc3\src/lc3.c ****  * decoder         Decoder state
 489:..\..\..\liblc3\src/lc3.c ****  * pcm, stride     Output PCM samples, and count between two consecutives
 490:..\..\..\liblc3\src/lc3.c ****  */
 491:..\..\..\liblc3\src/lc3.c **** static void store_s24(
 492:..\..\..\liblc3\src/lc3.c ****     struct lc3_decoder *decoder, void *_pcm, int stride)
 493:..\..\..\liblc3\src/lc3.c **** {
 725              		.loc 1 493 0
 726              		.cfi_startproc
 727              		@ args = 0, pretend = 0, frame = 0
 728              		@ frame_needed = 0, uses_anonymous_args = 0
 729              		@ link register save eliminated.
 730              	.LVL109:
 731 0000 70B4     		push	{r4, r5, r6}
 732              		.cfi_def_cfa_offset 12
 733              		.cfi_offset 4, -12
 734              		.cfi_offset 5, -8
 735              		.cfi_offset 6, -4
 736              	.LVL110:
 494:..\..\..\liblc3\src/lc3.c ****     int32_t *pcm = _pcm;
 495:..\..\..\liblc3\src/lc3.c **** 
 496:..\..\..\liblc3\src/lc3.c ****     enum lc3_dt dt = decoder->dt;
 737              		.loc 1 496 0
 738 0002 0578     		ldrb	r5, [r0]	@ zero_extendqisi2
 739              	.LVL111:
 497:..\..\..\liblc3\src/lc3.c ****     enum lc3_srate sr = decoder->sr_pcm;
 740              		.loc 1 497 0
 741 0004 8678     		ldrb	r6, [r0, #2]	@ zero_extendqisi2
 742              	.LVL112:
 498:..\..\..\liblc3\src/lc3.c **** 
 499:..\..\..\liblc3\src/lc3.c ****     float *xs = decoder->x + decoder->xs_off;
 743              		.loc 1 499 0
 744 0006 00F1B803 		add	r3, r0, #184
 745 000a D0F8AC40 		ldr	r4, [r0, #172]
 746 000e 03EB8404 		add	r4, r3, r4, lsl #2
 747              	.LVL113:
 748              	.LBB133:
ARM GAS  C:\Users\rdn\AppData\Local\Temp\ccCxUcqe.s 			page 25


 749              	.LBB134:
 750              		.loc 2 47 0
 751 0012 214B     		ldr	r3, .L81
 752 0014 53F82600 		ldr	r0, [r3, r6, lsl #2]
 753              	.LVL114:
 754 0018 05FB0000 		mla	r0, r5, r0, r0
 755              	.LVL115:
 756              	.LBE134:
 757              	.LBE133:
 500:..\..\..\liblc3\src/lc3.c ****     int ns = lc3_ns(dt, sr);
 501:..\..\..\liblc3\src/lc3.c **** 
 502:..\..\..\liblc3\src/lc3.c ****     for ( ; ns > 0; ns--, xs++, pcm += stride) {
 758              		.loc 1 502 0
 759 001c 37E0     		b	.L69
 760              	.LVL116:
 761              	.L76:
 762              	.LBB135:
 503:..\..\..\liblc3\src/lc3.c ****         int32_t s = *xs >= 0 ? (int32_t)(lc3_ldexpf(*xs, 8) + 0.5f)
 763              		.loc 1 503 0
 764 001e D4ED007A 		vldr.32	s15, [r4]
 504:..\..\..\liblc3\src/lc3.c ****                              : (int32_t)(lc3_ldexpf(*xs, 8) - 0.5f);
 765              		.loc 1 504 0
 766 0022 F5EEC07A 		vcmpe.f32	s15, #0
 767 0026 F1EE10FA 		vmrs	APSR_nzcv, FPSCR
 768 002a 11DB     		blt	.L79
 769              	.LVL117:
 770              	.LBB136:
 771              	.LBB137:
  45:..\..\..\liblc3\src/fastmath.h **** 
 772              		.loc 3 45 0 discriminator 1
 773 002c 17EE903A 		vmov	r3, s15	@ int
 774              	.LVL118:
  47:..\..\..\liblc3\src/fastmath.h ****         x.s += exp << LC3_IEEE754_EXP_SHL;
 775              		.loc 3 47 0 discriminator 1
 776 0030 13F0FF4F 		tst	r3, #2139095040
 777 0034 01D0     		beq	.L72
  48:..\..\..\liblc3\src/fastmath.h **** 
 778              		.loc 3 48 0
 779 0036 03F18063 		add	r3, r3, #67108864
 780              	.LVL119:
 781              	.L72:
 782              		.loc 3 50 0
 783 003a 07EE903A 		vmov	s15, r3
 784              	.LVL120:
 785              	.LBE137:
 786              	.LBE136:
 503:..\..\..\liblc3\src/lc3.c ****                              : (int32_t)(lc3_ldexpf(*xs, 8) - 0.5f);
 787              		.loc 1 503 0
 788 003e B6EE007A 		vmov.f32	s14, #5.0e-1
 789 0042 77EE877A 		vadd.f32	s15, s15, s14
 790              		.loc 1 504 0
 791 0046 FDEEE77A 		vcvt.s32.f32	s15, s15
 792 004a 17EE903A 		vmov	r3, s15	@ int
 793              	.LVL121:
 794 004e 10E0     		b	.L73
 795              	.L79:
 796              	.LVL122:
ARM GAS  C:\Users\rdn\AppData\Local\Temp\ccCxUcqe.s 			page 26


 797              	.LBB138:
 798              	.LBB139:
  45:..\..\..\liblc3\src/fastmath.h **** 
 799              		.loc 3 45 0 discriminator 2
 800 0050 17EE903A 		vmov	r3, s15	@ int
 801              	.LVL123:
  47:..\..\..\liblc3\src/fastmath.h ****         x.s += exp << LC3_IEEE754_EXP_SHL;
 802              		.loc 3 47 0 discriminator 2
 803 0054 13F0FF4F 		tst	r3, #2139095040
 804 0058 01D0     		beq	.L74
  48:..\..\..\liblc3\src/fastmath.h **** 
 805              		.loc 3 48 0
 806 005a 03F18063 		add	r3, r3, #67108864
 807              	.LVL124:
 808              	.L74:
 809              		.loc 3 50 0
 810 005e 07EE903A 		vmov	s15, r3
 811              	.LVL125:
 812              	.LBE139:
 813              	.LBE138:
 814              		.loc 1 504 0
 815 0062 B6EE007A 		vmov.f32	s14, #5.0e-1
 816 0066 77EEC77A 		vsub.f32	s15, s15, s14
 817 006a FDEEE77A 		vcvt.s32.f32	s15, s15
 818 006e 17EE903A 		vmov	r3, s15	@ int
 819              	.LVL126:
 820              	.L73:
 505:..\..\..\liblc3\src/lc3.c ****         *pcm = LC3_SAT24(s);
 821              		.loc 1 505 0
 822 0072 0A4D     		ldr	r5, .L81+4
 823 0074 AB42     		cmp	r3, r5
 824 0076 04DC     		bgt	.L77
 825              		.loc 1 505 0 is_stmt 0 discriminator 1
 826 0078 094D     		ldr	r5, .L81+8
 827 007a AB42     		cmp	r3, r5
 828 007c B8BF     		it	lt
 829 007e 2B46     		movlt	r3, r5
 830              	.LVL127:
 831 0080 00E0     		b	.L75
 832              	.LVL128:
 833              	.L77:
 834              		.loc 1 505 0
 835 0082 084B     		ldr	r3, .L81+12
 836              	.LVL129:
 837              	.L75:
 838              		.loc 1 505 0 discriminator 4
 839 0084 0B60     		str	r3, [r1]
 840              	.LBE135:
 502:..\..\..\liblc3\src/lc3.c ****         int32_t s = *xs >= 0 ? (int32_t)(lc3_ldexpf(*xs, 8) + 0.5f)
 841              		.loc 1 502 0 is_stmt 1 discriminator 4
 842 0086 0138     		subs	r0, r0, #1
 843              	.LVL130:
 844 0088 0434     		adds	r4, r4, #4
 845              	.LVL131:
 846 008a 01EB8201 		add	r1, r1, r2, lsl #2
 847              	.LVL132:
 848              	.L69:
ARM GAS  C:\Users\rdn\AppData\Local\Temp\ccCxUcqe.s 			page 27


 502:..\..\..\liblc3\src/lc3.c ****         int32_t s = *xs >= 0 ? (int32_t)(lc3_ldexpf(*xs, 8) + 0.5f)
 849              		.loc 1 502 0 is_stmt 0 discriminator 1
 850 008e 0028     		cmp	r0, #0
 851 0090 C5DC     		bgt	.L76
 506:..\..\..\liblc3\src/lc3.c ****     }
 507:..\..\..\liblc3\src/lc3.c **** }
 852              		.loc 1 507 0 is_stmt 1
 853 0092 70BC     		pop	{r4, r5, r6}
 854              		.cfi_restore 6
 855              		.cfi_restore 5
 856              		.cfi_restore 4
 857              		.cfi_def_cfa_offset 0
 858              	.LVL133:
 859 0094 7047     		bx	lr
 860              	.L82:
 861 0096 00BF     		.align	2
 862              	.L81:
 863 0098 00000000 		.word	lc3_ns_2m5
 864 009c FEFF7F00 		.word	8388606
 865 00a0 000080FF 		.word	-8388608
 866 00a4 FFFF7F00 		.word	8388607
 867              		.cfi_endproc
 868              	.LFE44:
 869              		.size	store_s24, .-store_s24
 870              		.section	.text.store_s24_3le,"ax",%progbits
 871              		.align	2
 872              		.thumb
 873              		.thumb_func
 874              		.type	store_s24_3le, %function
 875              	store_s24_3le:
 876              	.LFB45:
 508:..\..\..\liblc3\src/lc3.c **** 
 509:..\..\..\liblc3\src/lc3.c **** /**
 510:..\..\..\liblc3\src/lc3.c ****  * Output PCM Samples to signed 24 bits packed
 511:..\..\..\liblc3\src/lc3.c ****  * decoder         Decoder state
 512:..\..\..\liblc3\src/lc3.c ****  * pcm, stride     Output PCM samples, and count between two consecutives
 513:..\..\..\liblc3\src/lc3.c ****  */
 514:..\..\..\liblc3\src/lc3.c **** static void store_s24_3le(
 515:..\..\..\liblc3\src/lc3.c ****     struct lc3_decoder *decoder, void *_pcm, int stride)
 516:..\..\..\liblc3\src/lc3.c **** {
 877              		.loc 1 516 0
 878              		.cfi_startproc
 879              		@ args = 0, pretend = 0, frame = 0
 880              		@ frame_needed = 0, uses_anonymous_args = 0
 881              		@ link register save eliminated.
 882              	.LVL134:
 883 0000 30B4     		push	{r4, r5}
 884              		.cfi_def_cfa_offset 8
 885              		.cfi_offset 4, -8
 886              		.cfi_offset 5, -4
 887              	.LVL135:
 517:..\..\..\liblc3\src/lc3.c ****     uint8_t *pcm = _pcm;
 518:..\..\..\liblc3\src/lc3.c **** 
 519:..\..\..\liblc3\src/lc3.c ****     enum lc3_dt dt = decoder->dt;
 888              		.loc 1 519 0
 889 0002 0378     		ldrb	r3, [r0]	@ zero_extendqisi2
 890              	.LVL136:
ARM GAS  C:\Users\rdn\AppData\Local\Temp\ccCxUcqe.s 			page 28


 520:..\..\..\liblc3\src/lc3.c ****     enum lc3_srate sr = decoder->sr_pcm;
 891              		.loc 1 520 0
 892 0004 8478     		ldrb	r4, [r0, #2]	@ zero_extendqisi2
 893              	.LVL137:
 521:..\..\..\liblc3\src/lc3.c **** 
 522:..\..\..\liblc3\src/lc3.c ****     float *xs = decoder->x + decoder->xs_off;
 894              		.loc 1 522 0
 895 0006 00F1B805 		add	r5, r0, #184
 896 000a D0F8AC00 		ldr	r0, [r0, #172]
 897              	.LVL138:
 898 000e 05EB8005 		add	r5, r5, r0, lsl #2
 899              	.LVL139:
 900              	.LBB140:
 901              	.LBB141:
 902              		.loc 2 47 0
 903 0012 2348     		ldr	r0, .L96
 904 0014 50F82440 		ldr	r4, [r0, r4, lsl #2]
 905              	.LVL140:
 906 0018 03FB0444 		mla	r4, r3, r4, r4
 907              	.LVL141:
 908              	.LBE141:
 909              	.LBE140:
 523:..\..\..\liblc3\src/lc3.c ****     int ns = lc3_ns(dt, sr);
 524:..\..\..\liblc3\src/lc3.c **** 
 525:..\..\..\liblc3\src/lc3.c ****     for ( ; ns > 0; ns--, xs++, pcm += 3*stride) {
 910              		.loc 1 525 0
 911 001c 3CE0     		b	.L84
 912              	.LVL142:
 913              	.L91:
 914              	.LBB142:
 526:..\..\..\liblc3\src/lc3.c ****         int32_t s = *xs >= 0 ? (int32_t)(lc3_ldexpf(*xs, 8) + 0.5f)
 915              		.loc 1 526 0
 916 001e D5ED007A 		vldr.32	s15, [r5]
 527:..\..\..\liblc3\src/lc3.c ****                              : (int32_t)(lc3_ldexpf(*xs, 8) - 0.5f);
 917              		.loc 1 527 0
 918 0022 F5EEC07A 		vcmpe.f32	s15, #0
 919 0026 F1EE10FA 		vmrs	APSR_nzcv, FPSCR
 920 002a 11DB     		blt	.L94
 921              	.LVL143:
 922              	.LBB143:
 923              	.LBB144:
  45:..\..\..\liblc3\src/fastmath.h **** 
 924              		.loc 3 45 0 discriminator 1
 925 002c 17EE903A 		vmov	r3, s15	@ int
 926              	.LVL144:
  47:..\..\..\liblc3\src/fastmath.h ****         x.s += exp << LC3_IEEE754_EXP_SHL;
 927              		.loc 3 47 0 discriminator 1
 928 0030 13F0FF4F 		tst	r3, #2139095040
 929 0034 01D0     		beq	.L87
  48:..\..\..\liblc3\src/fastmath.h **** 
 930              		.loc 3 48 0
 931 0036 03F18063 		add	r3, r3, #67108864
 932              	.LVL145:
 933              	.L87:
 934              		.loc 3 50 0
 935 003a 07EE903A 		vmov	s15, r3
 936              	.LVL146:
ARM GAS  C:\Users\rdn\AppData\Local\Temp\ccCxUcqe.s 			page 29


 937              	.LBE144:
 938              	.LBE143:
 526:..\..\..\liblc3\src/lc3.c ****                              : (int32_t)(lc3_ldexpf(*xs, 8) - 0.5f);
 939              		.loc 1 526 0
 940 003e B6EE007A 		vmov.f32	s14, #5.0e-1
 941 0042 77EE877A 		vadd.f32	s15, s15, s14
 942              		.loc 1 527 0
 943 0046 FDEEE77A 		vcvt.s32.f32	s15, s15
 944 004a 17EE903A 		vmov	r3, s15	@ int
 945              	.LVL147:
 946 004e 10E0     		b	.L88
 947              	.L94:
 948              	.LVL148:
 949              	.LBB145:
 950              	.LBB146:
  45:..\..\..\liblc3\src/fastmath.h **** 
 951              		.loc 3 45 0 discriminator 2
 952 0050 17EE903A 		vmov	r3, s15	@ int
 953              	.LVL149:
  47:..\..\..\liblc3\src/fastmath.h ****         x.s += exp << LC3_IEEE754_EXP_SHL;
 954              		.loc 3 47 0 discriminator 2
 955 0054 13F0FF4F 		tst	r3, #2139095040
 956 0058 01D0     		beq	.L89
  48:..\..\..\liblc3\src/fastmath.h **** 
 957              		.loc 3 48 0
 958 005a 03F18063 		add	r3, r3, #67108864
 959              	.LVL150:
 960              	.L89:
 961              		.loc 3 50 0
 962 005e 07EE903A 		vmov	s15, r3
 963              	.LVL151:
 964              	.LBE146:
 965              	.LBE145:
 966              		.loc 1 527 0
 967 0062 B6EE007A 		vmov.f32	s14, #5.0e-1
 968 0066 77EEC77A 		vsub.f32	s15, s15, s14
 969 006a FDEEE77A 		vcvt.s32.f32	s15, s15
 970 006e 17EE903A 		vmov	r3, s15	@ int
 971              	.LVL152:
 972              	.L88:
 528:..\..\..\liblc3\src/lc3.c **** 
 529:..\..\..\liblc3\src/lc3.c ****         s = LC3_SAT24(s);
 973              		.loc 1 529 0
 974 0072 0C48     		ldr	r0, .L96+4
 975 0074 8342     		cmp	r3, r0
 976 0076 04DC     		bgt	.L92
 977              		.loc 1 529 0 is_stmt 0 discriminator 1
 978 0078 0B48     		ldr	r0, .L96+8
 979 007a 8342     		cmp	r3, r0
 980 007c B8BF     		it	lt
 981 007e 0346     		movlt	r3, r0
 982              	.LVL153:
 983 0080 00E0     		b	.L90
 984              	.LVL154:
 985              	.L92:
 986              		.loc 1 529 0
 987 0082 0A4B     		ldr	r3, .L96+12
ARM GAS  C:\Users\rdn\AppData\Local\Temp\ccCxUcqe.s 			page 30


 988              	.LVL155:
 989              	.L90:
 530:..\..\..\liblc3\src/lc3.c ****         pcm[0] = (s >>  0) & 0xff;
 990              		.loc 1 530 0 is_stmt 1 discriminator 4
 991 0084 0B70     		strb	r3, [r1]
 531:..\..\..\liblc3\src/lc3.c ****         pcm[1] = (s >>  8) & 0xff;
 992              		.loc 1 531 0 discriminator 4
 993 0086 1812     		asrs	r0, r3, #8
 994 0088 4870     		strb	r0, [r1, #1]
 532:..\..\..\liblc3\src/lc3.c ****         pcm[2] = (s >> 16) & 0xff;
 995              		.loc 1 532 0 discriminator 4
 996 008a 1B14     		asrs	r3, r3, #16
 997              	.LVL156:
 998 008c 8B70     		strb	r3, [r1, #2]
 999              	.LBE142:
 525:..\..\..\liblc3\src/lc3.c ****         int32_t s = *xs >= 0 ? (int32_t)(lc3_ldexpf(*xs, 8) + 0.5f)
 1000              		.loc 1 525 0 discriminator 4
 1001 008e 013C     		subs	r4, r4, #1
 1002              	.LVL157:
 1003 0090 0435     		adds	r5, r5, #4
 1004              	.LVL158:
 1005 0092 02EB4203 		add	r3, r2, r2, lsl #1
 1006 0096 1944     		add	r1, r1, r3
 1007              	.LVL159:
 1008              	.L84:
 525:..\..\..\liblc3\src/lc3.c ****         int32_t s = *xs >= 0 ? (int32_t)(lc3_ldexpf(*xs, 8) + 0.5f)
 1009              		.loc 1 525 0 is_stmt 0 discriminator 1
 1010 0098 002C     		cmp	r4, #0
 1011 009a C0DC     		bgt	.L91
 533:..\..\..\liblc3\src/lc3.c ****     }
 534:..\..\..\liblc3\src/lc3.c **** }
 1012              		.loc 1 534 0 is_stmt 1
 1013 009c 30BC     		pop	{r4, r5}
 1014              		.cfi_restore 5
 1015              		.cfi_restore 4
 1016              		.cfi_def_cfa_offset 0
 1017              	.LVL160:
 1018 009e 7047     		bx	lr
 1019              	.L97:
 1020              		.align	2
 1021              	.L96:
 1022 00a0 00000000 		.word	lc3_ns_2m5
 1023 00a4 FEFF7F00 		.word	8388606
 1024 00a8 000080FF 		.word	-8388608
 1025 00ac FFFF7F00 		.word	8388607
 1026              		.cfi_endproc
 1027              	.LFE45:
 1028              		.size	store_s24_3le, .-store_s24_3le
 1029              		.section	.text.complete,"ax",%progbits
 1030              		.align	2
 1031              		.thumb
 1032              		.thumb_func
 1033              		.type	complete, %function
 1034              	complete:
 1035              	.LFB49:
 535:..\..\..\liblc3\src/lc3.c **** 
 536:..\..\..\liblc3\src/lc3.c **** /**
ARM GAS  C:\Users\rdn\AppData\Local\Temp\ccCxUcqe.s 			page 31


 537:..\..\..\liblc3\src/lc3.c ****  * Output PCM Samples to float 32 bits
 538:..\..\..\liblc3\src/lc3.c ****  * decoder         Decoder state
 539:..\..\..\liblc3\src/lc3.c ****  * pcm, stride     Output PCM samples, and count between two consecutives
 540:..\..\..\liblc3\src/lc3.c ****  */
 541:..\..\..\liblc3\src/lc3.c **** static void store_float(
 542:..\..\..\liblc3\src/lc3.c ****     struct lc3_decoder *decoder, void *_pcm, int stride)
 543:..\..\..\liblc3\src/lc3.c **** {
 544:..\..\..\liblc3\src/lc3.c ****     float *pcm = _pcm;
 545:..\..\..\liblc3\src/lc3.c **** 
 546:..\..\..\liblc3\src/lc3.c ****     enum lc3_dt dt = decoder->dt;
 547:..\..\..\liblc3\src/lc3.c ****     enum lc3_srate sr = decoder->sr_pcm;
 548:..\..\..\liblc3\src/lc3.c **** 
 549:..\..\..\liblc3\src/lc3.c ****     float *xs = decoder->x + decoder->xs_off;
 550:..\..\..\liblc3\src/lc3.c ****     int ns = lc3_ns(dt, sr);
 551:..\..\..\liblc3\src/lc3.c **** 
 552:..\..\..\liblc3\src/lc3.c ****     for ( ; ns > 0; ns--, xs++, pcm += stride) {
 553:..\..\..\liblc3\src/lc3.c ****         float s = lc3_ldexpf(*xs, -15);
 554:..\..\..\liblc3\src/lc3.c ****         *pcm = fminf(fmaxf(s, -1.f), 1.f);
 555:..\..\..\liblc3\src/lc3.c ****     }
 556:..\..\..\liblc3\src/lc3.c **** }
 557:..\..\..\liblc3\src/lc3.c **** 
 558:..\..\..\liblc3\src/lc3.c **** /**
 559:..\..\..\liblc3\src/lc3.c ****  * Decode bitstream
 560:..\..\..\liblc3\src/lc3.c ****  * decoder         Decoder state
 561:..\..\..\liblc3\src/lc3.c ****  * data, nbytes    Input bitstream buffer
 562:..\..\..\liblc3\src/lc3.c ****  * side            Return the side data
 563:..\..\..\liblc3\src/lc3.c ****  * return          0: Ok  < 0: Bitsream error detected
 564:..\..\..\liblc3\src/lc3.c ****  */
 565:..\..\..\liblc3\src/lc3.c **** static int decode(struct lc3_decoder *decoder,
 566:..\..\..\liblc3\src/lc3.c ****     const void *data, int nbytes, struct side_data *side)
 567:..\..\..\liblc3\src/lc3.c **** {
 568:..\..\..\liblc3\src/lc3.c ****     enum lc3_dt dt = decoder->dt;
 569:..\..\..\liblc3\src/lc3.c ****     enum lc3_srate sr = decoder->sr;
 570:..\..\..\liblc3\src/lc3.c **** 
 571:..\..\..\liblc3\src/lc3.c ****     float *xf = decoder->x + decoder->xs_off;
 572:..\..\..\liblc3\src/lc3.c ****     int ns = lc3_ns(dt, sr);
 573:..\..\..\liblc3\src/lc3.c ****     int ne = lc3_ne(dt, sr);
 574:..\..\..\liblc3\src/lc3.c **** 
 575:..\..\..\liblc3\src/lc3.c ****     lc3_bits_t bits;
 576:..\..\..\liblc3\src/lc3.c ****     int ret = 0;
 577:..\..\..\liblc3\src/lc3.c **** 
 578:..\..\..\liblc3\src/lc3.c ****     lc3_setup_bits(&bits, LC3_BITS_MODE_READ, (void *)data, nbytes);
 579:..\..\..\liblc3\src/lc3.c **** 
 580:..\..\..\liblc3\src/lc3.c ****     if ((ret = lc3_bwdet_get_bw(&bits, sr, &side->bw)) < 0)
 581:..\..\..\liblc3\src/lc3.c ****         return ret;
 582:..\..\..\liblc3\src/lc3.c **** 
 583:..\..\..\liblc3\src/lc3.c ****     if ((ret = lc3_spec_get_side(&bits, dt, sr, &side->spec)) < 0)
 584:..\..\..\liblc3\src/lc3.c ****         return ret;
 585:..\..\..\liblc3\src/lc3.c **** 
 586:..\..\..\liblc3\src/lc3.c ****     if ((ret = lc3_tns_get_data(&bits, dt, side->bw, nbytes, &side->tns)) < 0)
 587:..\..\..\liblc3\src/lc3.c ****         return ret;
 588:..\..\..\liblc3\src/lc3.c **** 
 589:..\..\..\liblc3\src/lc3.c ****     side->pitch_present = lc3_get_bit(&bits);
 590:..\..\..\liblc3\src/lc3.c **** 
 591:..\..\..\liblc3\src/lc3.c ****     if ((ret = lc3_sns_get_data(&bits, &side->sns)) < 0)
 592:..\..\..\liblc3\src/lc3.c ****         return ret;
 593:..\..\..\liblc3\src/lc3.c **** 
ARM GAS  C:\Users\rdn\AppData\Local\Temp\ccCxUcqe.s 			page 32


 594:..\..\..\liblc3\src/lc3.c ****     if (side->pitch_present)
 595:..\..\..\liblc3\src/lc3.c ****       lc3_ltpf_get_data(&bits, &side->ltpf);
 596:..\..\..\liblc3\src/lc3.c **** 
 597:..\..\..\liblc3\src/lc3.c ****     if ((ret = lc3_spec_decode(&bits, dt, sr,
 598:..\..\..\liblc3\src/lc3.c ****                     side->bw, nbytes, &side->spec, xf)) < 0)
 599:..\..\..\liblc3\src/lc3.c ****         return ret;
 600:..\..\..\liblc3\src/lc3.c **** 
 601:..\..\..\liblc3\src/lc3.c ****     memset(xf + ne, 0, (ns - ne) * sizeof(float));
 602:..\..\..\liblc3\src/lc3.c **** 
 603:..\..\..\liblc3\src/lc3.c ****     return lc3_check_bits(&bits);
 604:..\..\..\liblc3\src/lc3.c **** }
 605:..\..\..\liblc3\src/lc3.c **** 
 606:..\..\..\liblc3\src/lc3.c **** /**
 607:..\..\..\liblc3\src/lc3.c ****  * Frame synthesis
 608:..\..\..\liblc3\src/lc3.c ****  * decoder         Decoder state
 609:..\..\..\liblc3\src/lc3.c ****  * side            Frame data, NULL performs PLC
 610:..\..\..\liblc3\src/lc3.c ****  * nbytes          Size in bytes of the frame
 611:..\..\..\liblc3\src/lc3.c ****  */
 612:..\..\..\liblc3\src/lc3.c **** static void synthesize(struct lc3_decoder *decoder,
 613:..\..\..\liblc3\src/lc3.c ****     const struct side_data *side, int nbytes)
 614:..\..\..\liblc3\src/lc3.c **** {
 615:..\..\..\liblc3\src/lc3.c ****     enum lc3_dt dt = decoder->dt;
 616:..\..\..\liblc3\src/lc3.c ****     enum lc3_srate sr = decoder->sr;
 617:..\..\..\liblc3\src/lc3.c ****     enum lc3_srate sr_pcm = decoder->sr_pcm;
 618:..\..\..\liblc3\src/lc3.c **** 
 619:..\..\..\liblc3\src/lc3.c ****     float *xf = decoder->x + decoder->xs_off;
 620:..\..\..\liblc3\src/lc3.c ****     int ns = lc3_ns(dt, sr_pcm);
 621:..\..\..\liblc3\src/lc3.c ****     int ne = lc3_ne(dt, sr);
 622:..\..\..\liblc3\src/lc3.c **** 
 623:..\..\..\liblc3\src/lc3.c ****     float *xg = decoder->x + decoder->xg_off;
 624:..\..\..\liblc3\src/lc3.c ****     float *xs = xf;
 625:..\..\..\liblc3\src/lc3.c **** 
 626:..\..\..\liblc3\src/lc3.c ****     float *xd = decoder->x + decoder->xd_off;
 627:..\..\..\liblc3\src/lc3.c ****     float *xh = decoder->x + decoder->xh_off;
 628:..\..\..\liblc3\src/lc3.c **** 
 629:..\..\..\liblc3\src/lc3.c ****     if (side) {
 630:..\..\..\liblc3\src/lc3.c ****         enum lc3_bandwidth bw = side->bw;
 631:..\..\..\liblc3\src/lc3.c **** 
 632:..\..\..\liblc3\src/lc3.c ****         lc3_plc_suspend(&decoder->plc);
 633:..\..\..\liblc3\src/lc3.c **** 
 634:..\..\..\liblc3\src/lc3.c ****         lc3_tns_synthesize(dt, bw, &side->tns, xf);
 635:..\..\..\liblc3\src/lc3.c **** 
 636:..\..\..\liblc3\src/lc3.c ****         lc3_sns_synthesize(dt, sr, &side->sns, xf, xg);
 637:..\..\..\liblc3\src/lc3.c **** 
 638:..\..\..\liblc3\src/lc3.c ****         lc3_mdct_inverse(dt, sr_pcm, sr, xg, xd, xs);
 639:..\..\..\liblc3\src/lc3.c **** 
 640:..\..\..\liblc3\src/lc3.c ****     } else {
 641:..\..\..\liblc3\src/lc3.c ****         lc3_plc_synthesize(dt, sr, &decoder->plc, xg, xf);
 642:..\..\..\liblc3\src/lc3.c **** 
 643:..\..\..\liblc3\src/lc3.c ****         memset(xf + ne, 0, (ns - ne) * sizeof(float));
 644:..\..\..\liblc3\src/lc3.c **** 
 645:..\..\..\liblc3\src/lc3.c ****         lc3_mdct_inverse(dt, sr_pcm, sr, xf, xd, xs);
 646:..\..\..\liblc3\src/lc3.c ****     }
 647:..\..\..\liblc3\src/lc3.c **** 
 648:..\..\..\liblc3\src/lc3.c ****     if (!lc3_hr(sr))
 649:..\..\..\liblc3\src/lc3.c ****         lc3_ltpf_synthesize(dt, sr_pcm, nbytes, &decoder->ltpf,
 650:..\..\..\liblc3\src/lc3.c ****             side && side->pitch_present ? &side->ltpf : NULL, xh, xs);
ARM GAS  C:\Users\rdn\AppData\Local\Temp\ccCxUcqe.s 			page 33


 651:..\..\..\liblc3\src/lc3.c **** }
 652:..\..\..\liblc3\src/lc3.c **** 
 653:..\..\..\liblc3\src/lc3.c **** /**
 654:..\..\..\liblc3\src/lc3.c ****  * Update decoder state on decoding completion
 655:..\..\..\liblc3\src/lc3.c ****  * decoder         Decoder state
 656:..\..\..\liblc3\src/lc3.c ****  */
 657:..\..\..\liblc3\src/lc3.c **** static void complete(struct lc3_decoder *decoder)
 658:..\..\..\liblc3\src/lc3.c **** {
 1036              		.loc 1 658 0
 1037              		.cfi_startproc
 1038              		@ args = 0, pretend = 0, frame = 0
 1039              		@ frame_needed = 0, uses_anonymous_args = 0
 1040              		@ link register save eliminated.
 1041              	.LVL161:
 1042 0000 30B4     		push	{r4, r5}
 1043              		.cfi_def_cfa_offset 8
 1044              		.cfi_offset 4, -8
 1045              		.cfi_offset 5, -4
 659:..\..\..\liblc3\src/lc3.c ****     enum lc3_dt dt = decoder->dt;
 1046              		.loc 1 659 0
 1047 0002 0478     		ldrb	r4, [r0]	@ zero_extendqisi2
 1048              	.LVL162:
 660:..\..\..\liblc3\src/lc3.c ****     enum lc3_srate sr_pcm = decoder->sr_pcm;
 1049              		.loc 1 660 0
 1050 0004 8278     		ldrb	r2, [r0, #2]	@ zero_extendqisi2
 1051              	.LVL163:
 1052              	.LBB147:
 1053              	.LBB148:
  48:..\..\..\liblc3\src/tables.h **** }
  49:..\..\..\liblc3\src/tables.h **** 
  50:..\..\..\liblc3\src/tables.h **** static inline int lc3_ne(enum lc3_dt dt, enum lc3_srate sr) {
  51:..\..\..\liblc3\src/tables.h ****     return lc3_ne_2m5[sr] * (1 + dt);
  52:..\..\..\liblc3\src/tables.h **** }
  53:..\..\..\liblc3\src/tables.h **** 
  54:..\..\..\liblc3\src/tables.h **** static inline int lc3_nd(enum lc3_dt dt, enum lc3_srate sr) {
  55:..\..\..\liblc3\src/tables.h ****     return ( lc3_ns(dt, sr) +
  56:..\..\..\liblc3\src/tables.h ****         (dt == LC3_DT_7M5 ? lc3_ns_4m[sr] : lc3_ns_2m5[sr]) ) >> 1;
  57:..\..\..\liblc3\src/tables.h **** }
  58:..\..\..\liblc3\src/tables.h **** 
  59:..\..\..\liblc3\src/tables.h **** static inline int lc3_nh(enum lc3_dt dt, enum lc3_srate sr) {
  60:..\..\..\liblc3\src/tables.h ****     return sr > LC3_SRATE_48K_HR ? 0 :
 1054              		.loc 2 60 0
 1055 0006 052A     		cmp	r2, #5
 1056 0008 0AD8     		bhi	.L102
  61:..\..\..\liblc3\src/tables.h ****         (8 + (dt == LC3_DT_7M5)) * lc3_ns_2m5[sr];
 1057              		.loc 2 61 0
 1058 000a 022C     		cmp	r4, #2
 1059 000c 01D1     		bne	.L103
 1060 000e 0921     		movs	r1, #9
 1061 0010 00E0     		b	.L100
 1062              	.L103:
 1063 0012 0821     		movs	r1, #8
 1064              	.L100:
 1065 0014 0B4B     		ldr	r3, .L105
 1066 0016 53F82230 		ldr	r3, [r3, r2, lsl #2]
  60:..\..\..\liblc3\src/tables.h ****         (8 + (dt == LC3_DT_7M5)) * lc3_ns_2m5[sr];
 1067              		.loc 2 60 0
ARM GAS  C:\Users\rdn\AppData\Local\Temp\ccCxUcqe.s 			page 34


 1068 001a 01FB03F1 		mul	r1, r1, r3
 1069 001e 00E0     		b	.L99
 1070              	.L102:
 1071 0020 0021     		movs	r1, #0
 1072              	.L99:
 1073              	.LVL164:
 1074              	.LBE148:
 1075              	.LBE147:
 1076              	.LBB149:
 1077              	.LBB150:
  47:..\..\..\liblc3\src/tables.h **** }
 1078              		.loc 2 47 0
 1079 0022 084B     		ldr	r3, .L105
 1080 0024 53F82230 		ldr	r3, [r3, r2, lsl #2]
 1081 0028 04FB0333 		mla	r3, r4, r3, r3
 1082              	.LVL165:
 1083              	.LBE150:
 1084              	.LBE149:
 661:..\..\..\liblc3\src/lc3.c ****     int nh = lc3_nh(dt, sr_pcm);
 662:..\..\..\liblc3\src/lc3.c ****     int ns = lc3_ns(dt, sr_pcm);
 663:..\..\..\liblc3\src/lc3.c **** 
 664:..\..\..\liblc3\src/lc3.c ****     decoder->xs_off = decoder->xs_off - decoder->xh_off < nh ?
 1085              		.loc 1 664 0
 1086 002c D0F8AC40 		ldr	r4, [r0, #172]
 1087              	.LVL166:
 1088 0030 D0F8A820 		ldr	r2, [r0, #168]
 1089              	.LVL167:
 1090 0034 A51A     		subs	r5, r4, r2
 665:..\..\..\liblc3\src/lc3.c ****         decoder->xs_off + ns : decoder->xh_off;
 1091              		.loc 1 665 0
 1092 0036 8D42     		cmp	r5, r1
 1093 0038 00DA     		bge	.L101
 1094              		.loc 1 665 0 is_stmt 0 discriminator 1
 1095 003a E218     		adds	r2, r4, r3
 1096              	.L101:
 664:..\..\..\liblc3\src/lc3.c ****         decoder->xs_off + ns : decoder->xh_off;
 1097              		.loc 1 664 0 is_stmt 1
 1098 003c C0F8AC20 		str	r2, [r0, #172]
 666:..\..\..\liblc3\src/lc3.c **** }
 1099              		.loc 1 666 0
 1100 0040 30BC     		pop	{r4, r5}
 1101              		.cfi_restore 5
 1102              		.cfi_restore 4
 1103              		.cfi_def_cfa_offset 0
 1104 0042 7047     		bx	lr
 1105              	.L106:
 1106              		.align	2
 1107              	.L105:
 1108 0044 00000000 		.word	lc3_ns_2m5
 1109              		.cfi_endproc
 1110              	.LFE49:
 1111              		.size	complete, .-complete
 1112              		.section	.text.analyze,"ax",%progbits
 1113              		.align	2
 1114              		.thumb
 1115              		.thumb_func
 1116              		.type	analyze, %function
ARM GAS  C:\Users\rdn\AppData\Local\Temp\ccCxUcqe.s 			page 35


 1117              	analyze:
 1118              	.LFB36:
 287:..\..\..\liblc3\src/lc3.c ****     enum lc3_dt dt = encoder->dt;
 1119              		.loc 1 287 0
 1120              		.cfi_startproc
 1121              		@ args = 0, pretend = 0, frame = 280
 1122              		@ frame_needed = 0, uses_anonymous_args = 0
 1123              	.LVL168:
 1124 0000 2DE9F04F 		push	{r4, r5, r6, r7, r8, r9, r10, fp, lr}
 1125              		.cfi_def_cfa_offset 36
 1126              		.cfi_offset 4, -36
 1127              		.cfi_offset 5, -32
 1128              		.cfi_offset 6, -28
 1129              		.cfi_offset 7, -24
 1130              		.cfi_offset 8, -20
 1131              		.cfi_offset 9, -16
 1132              		.cfi_offset 10, -12
 1133              		.cfi_offset 11, -8
 1134              		.cfi_offset 14, -4
 1135 0004 CBB0     		sub	sp, sp, #300
 1136              		.cfi_def_cfa_offset 336
 1137 0006 0446     		mov	r4, r0
 1138 0008 8E46     		mov	lr, r1
 1139 000a 0891     		str	r1, [sp, #32]
 1140 000c 1746     		mov	r7, r2
 288:..\..\..\liblc3\src/lc3.c ****     enum lc3_srate sr = encoder->sr;
 1141              		.loc 1 288 0
 1142 000e 0578     		ldrb	r5, [r0]	@ zero_extendqisi2
 1143              	.LVL169:
 289:..\..\..\liblc3\src/lc3.c ****     enum lc3_srate sr_pcm = encoder->sr_pcm;
 1144              		.loc 1 289 0
 1145 0010 4378     		ldrb	r3, [r0, #1]	@ zero_extendqisi2
 1146 0012 0593     		str	r3, [sp, #20]
 1147              	.LVL170:
 290:..\..\..\liblc3\src/lc3.c **** 
 1148              		.loc 1 290 0
 1149 0014 90F802A0 		ldrb	r10, [r0, #2]	@ zero_extendqisi2
 1150              	.LVL171:
 292:..\..\..\liblc3\src/lc3.c ****     float *xs = encoder->x + encoder->xs_off;
 1151              		.loc 1 292 0
 1152 0018 00F2AC43 		addw	r3, r0, #1196
 1153 001c D0F8A024 		ldr	r2, [r0, #1184]
 1154              	.LVL172:
 1155 0020 03EB4208 		add	r8, r3, r2, lsl #1
 1156              	.LVL173:
 293:..\..\..\liblc3\src/lc3.c ****     int ns = lc3_ns(dt, sr_pcm);
 1157              		.loc 1 293 0
 1158 0024 D0F8A464 		ldr	r6, [r0, #1188]
 1159 0028 03EB8606 		add	r6, r3, r6, lsl #2
 1160              	.LVL174:
 1161              	.LBB151:
 1162              	.LBB152:
  47:..\..\..\liblc3\src/tables.h **** }
 1163              		.loc 2 47 0
 1164 002c 394A     		ldr	r2, .L110
 1165 002e 52F82A10 		ldr	r1, [r2, r10, lsl #2]
 1166              	.LVL175:
ARM GAS  C:\Users\rdn\AppData\Local\Temp\ccCxUcqe.s 			page 36


 1167 0032 05FB011B 		mla	fp, r5, r1, r1
 1168              	.LVL176:
 1169              	.LBE152:
 1170              	.LBE151:
 1171              	.LBB153:
 1172              	.LBB154:
  62:..\..\..\liblc3\src/tables.h **** }
  63:..\..\..\liblc3\src/tables.h **** 
  64:..\..\..\liblc3\src/tables.h **** static inline int lc3_nt(enum lc3_srate sr) {
  65:..\..\..\liblc3\src/tables.h ****     return lc3_ns_2m5[sr] >> 1;
 1173              		.loc 2 65 0
 1174 0036 4FEA6109 		asr	r9, r1, #1
 1175              	.LVL177:
 1176              	.LBE154:
 1177              	.LBE153:
 297:..\..\..\liblc3\src/lc3.c ****     float *xf = xs;
 1178              		.loc 1 297 0
 1179 003a D0F8A824 		ldr	r2, [r0, #1192]
 1180 003e 03EB8200 		add	r0, r3, r2, lsl #2
 1181              	.LVL178:
 1182 0042 0690     		str	r0, [sp, #24]
 1183              	.LVL179:
 302:..\..\..\liblc3\src/lc3.c **** 
 1184              		.loc 1 302 0
 1185 0044 CDF80080 		str	r8, [sp]
 1186 0048 231D     		adds	r3, r4, #4
 1187 004a 7246     		mov	r2, lr
 1188 004c 5146     		mov	r1, r10
 1189 004e 2846     		mov	r0, r5
 1190              	.LVL180:
 1191 0050 FFF7FEFF 		bl	lc3_attdet_run
 1192              	.LVL181:
 1193 0054 0790     		str	r0, [sp, #28]
 1194              	.LVL182:
 305:..\..\..\liblc3\src/lc3.c **** 
 1195              		.loc 1 305 0
 1196 0056 3A1D     		adds	r2, r7, #4
 1197 0058 0992     		str	r2, [sp, #36]
 1198 005a 0092     		str	r2, [sp]
 1199 005c 4346     		mov	r3, r8
 1200 005e 04F11002 		add	r2, r4, #16
 1201 0062 5146     		mov	r1, r10
 1202 0064 2846     		mov	r0, r5
 1203 0066 FFF7FEFF 		bl	lc3_ltpf_analyse
 1204              	.LVL183:
 304:..\..\..\liblc3\src/lc3.c ****         lc3_ltpf_analyse(dt, sr_pcm, &encoder->ltpf, xt, &side->ltpf);
 1205              		.loc 1 304 0
 1206 006a 7870     		strb	r0, [r7, #1]
 307:..\..\..\liblc3\src/lc3.c **** 
 1207              		.loc 1 307 0
 1208 006c 4FEA4900 		lsl	r0, r9, #1
 1209 0070 C9EB0B01 		rsb	r1, r9, fp
 1210 0074 0246     		mov	r2, r0
 1211 0076 08EB4101 		add	r1, r8, r1, lsl #1
 1212 007a C0EB0800 		rsb	r0, r0, r8
 1213 007e FFF7FEFF 		bl	memmove
 1214              	.LVL184:
ARM GAS  C:\Users\rdn\AppData\Local\Temp\ccCxUcqe.s 			page 37


 313:..\..\..\liblc3\src/lc3.c **** 
 1215              		.loc 1 313 0
 1216 0082 0196     		str	r6, [sp, #4]
 1217 0084 0698     		ldr	r0, [sp, #24]
 1218 0086 0090     		str	r0, [sp]
 1219 0088 3346     		mov	r3, r6
 1220 008a DDF81480 		ldr	r8, [sp, #20]
 1221              	.LVL185:
 1222 008e 4246     		mov	r2, r8
 1223 0090 5146     		mov	r1, r10
 1224 0092 2846     		mov	r0, r5
 1225 0094 FFF7FEFF 		bl	lc3_mdct_forward
 1226              	.LVL186:
 315:..\..\..\liblc3\src/lc3.c ****     if (nn_flag)
 1227              		.loc 1 315 0
 1228 0098 0AAB     		add	r3, sp, #40
 1229 009a 3246     		mov	r2, r6
 1230 009c 4146     		mov	r1, r8
 1231 009e 2846     		mov	r0, r5
 1232 00a0 FFF7FEFF 		bl	lc3_energy_compute
 1233              	.LVL187:
 316:..\..\..\liblc3\src/lc3.c ****         lc3_ltpf_disable(&side->ltpf);
 1234              		.loc 1 316 0
 1235 00a4 8046     		mov	r8, r0
 1236 00a6 10B1     		cbz	r0, .L108
 317:..\..\..\liblc3\src/lc3.c **** 
 1237              		.loc 1 317 0
 1238 00a8 0998     		ldr	r0, [sp, #36]
 1239              	.LVL188:
 1240 00aa FFF7FEFF 		bl	lc3_ltpf_disable
 1241              	.LVL189:
 1242              	.L108:
 319:..\..\..\liblc3\src/lc3.c **** 
 1243              		.loc 1 319 0
 1244 00ae 0AAA     		add	r2, sp, #40
 1245 00b0 DDF814B0 		ldr	fp, [sp, #20]
 1246 00b4 5946     		mov	r1, fp
 1247 00b6 2846     		mov	r0, r5
 1248 00b8 FFF7FEFF 		bl	lc3_bwdet_run
 1249              	.LVL190:
 1250 00bc 3B46     		mov	r3, r7
 1251 00be 03F80C0B 		strb	r0, [r3], #12
 321:..\..\..\liblc3\src/lc3.c **** 
 1252              		.loc 1 321 0
 1253 00c2 0396     		str	r6, [sp, #12]
 1254 00c4 0296     		str	r6, [sp, #8]
 1255 00c6 0193     		str	r3, [sp, #4]
 1256 00c8 079B     		ldr	r3, [sp, #28]
 1257 00ca 0093     		str	r3, [sp]
 1258 00cc 0AAB     		add	r3, sp, #40
 1259 00ce DDF820A0 		ldr	r10, [sp, #32]
 1260              	.LVL191:
 1261 00d2 5246     		mov	r2, r10
 1262 00d4 5946     		mov	r1, fp
 1263 00d6 2846     		mov	r0, r5
 1264 00d8 FFF7FEFF 		bl	lc3_sns_analyze
 1265              	.LVL192:
ARM GAS  C:\Users\rdn\AppData\Local\Temp\ccCxUcqe.s 			page 38


 323:..\..\..\liblc3\src/lc3.c **** 
 1266              		.loc 1 323 0
 1267 00dc 07F12809 		add	r9, r7, #40
 1268 00e0 3978     		ldrb	r1, [r7]	@ zero_extendqisi2
 1269 00e2 0196     		str	r6, [sp, #4]
 1270 00e4 CDF80090 		str	r9, [sp]
 1271 00e8 5346     		mov	r3, r10
 1272 00ea 4246     		mov	r2, r8
 1273 00ec 2846     		mov	r0, r5
 1274 00ee FFF7FEFF 		bl	lc3_tns_analyze
 1275              	.LVL193:
 325:..\..\..\liblc3\src/lc3.c ****         nbytes, side->pitch_present, &side->tns,
 1276              		.loc 1 325 0
 1277 00f2 7B78     		ldrb	r3, [r7, #1]	@ zero_extendqisi2
 1278 00f4 7837     		adds	r7, r7, #120
 1279              	.LVL194:
 1280 00f6 0397     		str	r7, [sp, #12]
 1281 00f8 0296     		str	r6, [sp, #8]
 1282 00fa 04F59364 		add	r4, r4, #1176
 1283              	.LVL195:
 1284 00fe 0194     		str	r4, [sp, #4]
 1285 0100 CDF80090 		str	r9, [sp]
 1286 0104 5246     		mov	r2, r10
 1287 0106 5946     		mov	r1, fp
 1288 0108 2846     		mov	r0, r5
 1289 010a FFF7FEFF 		bl	lc3_spec_analyze
 1290              	.LVL196:
 328:..\..\..\liblc3\src/lc3.c **** 
 1291              		.loc 1 328 0
 1292 010e 4BB0     		add	sp, sp, #300
 1293              		.cfi_def_cfa_offset 36
 1294              		@ sp needed
 1295 0110 BDE8F08F 		pop	{r4, r5, r6, r7, r8, r9, r10, fp, pc}
 1296              	.LVL197:
 1297              	.L111:
 1298              		.align	2
 1299              	.L110:
 1300 0114 00000000 		.word	lc3_ns_2m5
 1301              		.cfi_endproc
 1302              	.LFE36:
 1303              		.size	analyze, .-analyze
 1304              		.section	.text.encode,"ax",%progbits
 1305              		.align	2
 1306              		.thumb
 1307              		.thumb_func
 1308              		.type	encode, %function
 1309              	encode:
 1310              	.LFB37:
 339:..\..\..\liblc3\src/lc3.c ****     enum lc3_dt dt = encoder->dt;
 1311              		.loc 1 339 0
 1312              		.cfi_startproc
 1313              		@ args = 0, pretend = 0, frame = 56
 1314              		@ frame_needed = 0, uses_anonymous_args = 0
 1315              	.LVL198:
 1316 0000 2DE9F047 		push	{r4, r5, r6, r7, r8, r9, r10, lr}
 1317              		.cfi_def_cfa_offset 32
 1318              		.cfi_offset 4, -32
ARM GAS  C:\Users\rdn\AppData\Local\Temp\ccCxUcqe.s 			page 39


 1319              		.cfi_offset 5, -28
 1320              		.cfi_offset 6, -24
 1321              		.cfi_offset 7, -20
 1322              		.cfi_offset 8, -16
 1323              		.cfi_offset 9, -12
 1324              		.cfi_offset 10, -8
 1325              		.cfi_offset 14, -4
 1326 0004 92B0     		sub	sp, sp, #72
 1327              		.cfi_def_cfa_offset 104
 1328 0006 0C46     		mov	r4, r1
 1329 0008 9146     		mov	r9, r2
 1330 000a 1A46     		mov	r2, r3
 1331              	.LVL199:
 340:..\..\..\liblc3\src/lc3.c ****     enum lc3_srate sr = encoder->sr;
 1332              		.loc 1 340 0
 1333 000c 90F80080 		ldrb	r8, [r0]	@ zero_extendqisi2
 1334              	.LVL200:
 341:..\..\..\liblc3\src/lc3.c **** 
 1335              		.loc 1 341 0
 1336 0010 4678     		ldrb	r6, [r0, #1]	@ zero_extendqisi2
 1337              	.LVL201:
 343:..\..\..\liblc3\src/lc3.c ****     enum lc3_bandwidth bw = side->bw;
 1338              		.loc 1 343 0
 1339 0012 00F2AC43 		addw	r3, r0, #1196
 1340              	.LVL202:
 1341 0016 D0F8A474 		ldr	r7, [r0, #1188]
 1342 001a 03EB8707 		add	r7, r3, r7, lsl #2
 1343              	.LVL203:
 344:..\..\..\liblc3\src/lc3.c **** 
 1344              		.loc 1 344 0
 1345 001e 0D46     		mov	r5, r1
 1346 0020 15F878AB 		ldrb	r10, [r5], #120	@ zero_extendqisi2
 1347              	.LVL204:
 348:..\..\..\liblc3\src/lc3.c **** 
 1348              		.loc 1 348 0
 1349 0024 4B46     		mov	r3, r9
 1350 0026 0121     		movs	r1, #1
 1351              	.LVL205:
 1352 0028 04A8     		add	r0, sp, #16
 1353              	.LVL206:
 1354 002a FFF7FEFF 		bl	lc3_setup_bits
 1355              	.LVL207:
 350:..\..\..\liblc3\src/lc3.c **** 
 1356              		.loc 1 350 0
 1357 002e 5246     		mov	r2, r10
 1358 0030 3146     		mov	r1, r6
 1359 0032 04A8     		add	r0, sp, #16
 1360 0034 FFF7FEFF 		bl	lc3_bwdet_put_bw
 1361              	.LVL208:
 352:..\..\..\liblc3\src/lc3.c **** 
 1362              		.loc 1 352 0
 1363 0038 2B46     		mov	r3, r5
 1364 003a 3246     		mov	r2, r6
 1365 003c 4146     		mov	r1, r8
 1366 003e 04A8     		add	r0, sp, #16
 1367 0040 FFF7FEFF 		bl	lc3_spec_put_side
 1368              	.LVL209:
ARM GAS  C:\Users\rdn\AppData\Local\Temp\ccCxUcqe.s 			page 40


 354:..\..\..\liblc3\src/lc3.c **** 
 1369              		.loc 1 354 0
 1370 0044 04F12801 		add	r1, r4, #40
 1371 0048 04A8     		add	r0, sp, #16
 1372 004a FFF7FEFF 		bl	lc3_tns_put_data
 1373              	.LVL210:
 356:..\..\..\liblc3\src/lc3.c **** 
 1374              		.loc 1 356 0
 1375 004e 6178     		ldrb	r1, [r4, #1]	@ zero_extendqisi2
 1376              	.LVL211:
 1377              	.LBB159:
 1378              	.LBB160:
 1379              	.LBB161:
 1380              	.LBB162:
 1381              		.file 4 "..\\..\\..\\liblc3\\src\\bits.h"
   1:..\..\..\liblc3\src/bits.h **** /******************************************************************************
   2:..\..\..\liblc3\src/bits.h ****  *
   3:..\..\..\liblc3\src/bits.h ****  *  Copyright 2022 Google LLC
   4:..\..\..\liblc3\src/bits.h ****  *
   5:..\..\..\liblc3\src/bits.h ****  *  Licensed under the Apache License, Version 2.0 (the "License");
   6:..\..\..\liblc3\src/bits.h ****  *  you may not use this file except in compliance with the License.
   7:..\..\..\liblc3\src/bits.h ****  *  You may obtain a copy of the License at:
   8:..\..\..\liblc3\src/bits.h ****  *
   9:..\..\..\liblc3\src/bits.h ****  *  http://www.apache.org/licenses/LICENSE-2.0
  10:..\..\..\liblc3\src/bits.h ****  *
  11:..\..\..\liblc3\src/bits.h ****  *  Unless required by applicable law or agreed to in writing, software
  12:..\..\..\liblc3\src/bits.h ****  *  distributed under the License is distributed on an "AS IS" BASIS,
  13:..\..\..\liblc3\src/bits.h ****  *  WITHOUT WARRANTIES OR CONDITIONS OF ANY KIND, either express or implied.
  14:..\..\..\liblc3\src/bits.h ****  *  See the License for the specific language governing permissions and
  15:..\..\..\liblc3\src/bits.h ****  *  limitations under the License.
  16:..\..\..\liblc3\src/bits.h ****  *
  17:..\..\..\liblc3\src/bits.h ****  ******************************************************************************/
  18:..\..\..\liblc3\src/bits.h **** 
  19:..\..\..\liblc3\src/bits.h **** /**
  20:..\..\..\liblc3\src/bits.h ****  * The bitstream is written by the 2 ends of the buffer :
  21:..\..\..\liblc3\src/bits.h ****  *
  22:..\..\..\liblc3\src/bits.h ****  * - Arthmetic coder put bits while increasing memory addresses
  23:..\..\..\liblc3\src/bits.h ****  *   in the buffer (forward)
  24:..\..\..\liblc3\src/bits.h ****  *
  25:..\..\..\liblc3\src/bits.h ****  * - Plain bits are puts starting the end of the buffer, with memeory
  26:..\..\..\liblc3\src/bits.h ****  *   addresses decreasing (backward)
  27:..\..\..\liblc3\src/bits.h ****  *
  28:..\..\..\liblc3\src/bits.h ****  *       .---------------------------------------------------.
  29:..\..\..\liblc3\src/bits.h ****  *       | > > > > > > > > > > :         : < < < < < < < < < |
  30:..\..\..\liblc3\src/bits.h ****  *       '---------------------------------------------------'
  31:..\..\..\liblc3\src/bits.h ****  *       |---------------------> - - - - - - - - - - - - - ->|
  32:..\..\..\liblc3\src/bits.h ****  *                              |< - - - <-------------------|
  33:..\..\..\liblc3\src/bits.h ****  *          Arithmetic coding                  Plain bits
  34:..\..\..\liblc3\src/bits.h ****  *          `lc3_put_symbol()`               `lc3_put_bits()`
  35:..\..\..\liblc3\src/bits.h ****  *
  36:..\..\..\liblc3\src/bits.h ****  * - The forward writing is protected against buffer overflow, it cannot
  37:..\..\..\liblc3\src/bits.h ****  *   write after the buffer, but can overwrite plain bits previously
  38:..\..\..\liblc3\src/bits.h ****  *   written in the buffer.
  39:..\..\..\liblc3\src/bits.h ****  *
  40:..\..\..\liblc3\src/bits.h ****  * - The backward writing is protected against overwrite of the arithmetic
  41:..\..\..\liblc3\src/bits.h ****  *   coder bitstream. In such way, the backward bitstream is always limited
  42:..\..\..\liblc3\src/bits.h ****  *   by the aritmetic coder bitstream, and can be overwritten by him.
ARM GAS  C:\Users\rdn\AppData\Local\Temp\ccCxUcqe.s 			page 41


  43:..\..\..\liblc3\src/bits.h ****  *
  44:..\..\..\liblc3\src/bits.h ****  *       .---------------------------------------------------.
  45:..\..\..\liblc3\src/bits.h ****  *       | > > > > > > > > > > :         : < < < < < < < < < |
  46:..\..\..\liblc3\src/bits.h ****  *       '---------------------------------------------------'
  47:..\..\..\liblc3\src/bits.h ****  *       |---------------------> - - - - - - - - - - - - - ->|
  48:..\..\..\liblc3\src/bits.h ****  *       |< - - - - - - - - - - -  - - - <-------------------|
  49:..\..\..\liblc3\src/bits.h ****  *          Arithmetic coding                  Plain bits
  50:..\..\..\liblc3\src/bits.h ****  *          `lc3_get_symbol()`               `lc3_get_bits()`
  51:..\..\..\liblc3\src/bits.h ****  *
  52:..\..\..\liblc3\src/bits.h ****  * - Reading is limited to read of the complementary end of the buffer.
  53:..\..\..\liblc3\src/bits.h ****  *
  54:..\..\..\liblc3\src/bits.h ****  * - The procedure `lc3_check_bits()` returns indication that read has been
  55:..\..\..\liblc3\src/bits.h ****  *   made crossing the other bit plane.
  56:..\..\..\liblc3\src/bits.h ****  *
  57:..\..\..\liblc3\src/bits.h ****  */
  58:..\..\..\liblc3\src/bits.h **** 
  59:..\..\..\liblc3\src/bits.h **** #ifndef __LC3_BITS_H
  60:..\..\..\liblc3\src/bits.h **** #define __LC3_BITS_H
  61:..\..\..\liblc3\src/bits.h **** 
  62:..\..\..\liblc3\src/bits.h **** #include "common.h"
  63:..\..\..\liblc3\src/bits.h **** 
  64:..\..\..\liblc3\src/bits.h **** 
  65:..\..\..\liblc3\src/bits.h **** /**
  66:..\..\..\liblc3\src/bits.h ****  * Bitstream mode
  67:..\..\..\liblc3\src/bits.h ****  */
  68:..\..\..\liblc3\src/bits.h **** 
  69:..\..\..\liblc3\src/bits.h **** enum lc3_bits_mode {
  70:..\..\..\liblc3\src/bits.h ****     LC3_BITS_MODE_READ,
  71:..\..\..\liblc3\src/bits.h ****     LC3_BITS_MODE_WRITE,
  72:..\..\..\liblc3\src/bits.h **** };
  73:..\..\..\liblc3\src/bits.h **** 
  74:..\..\..\liblc3\src/bits.h **** /**
  75:..\..\..\liblc3\src/bits.h ****  * Arithmetic coder symbol interval
  76:..\..\..\liblc3\src/bits.h ****  * The model split the interval in 17 symbols
  77:..\..\..\liblc3\src/bits.h ****  */
  78:..\..\..\liblc3\src/bits.h **** 
  79:..\..\..\liblc3\src/bits.h **** struct lc3_ac_symbol {
  80:..\..\..\liblc3\src/bits.h ****     uint16_t low   : 16;
  81:..\..\..\liblc3\src/bits.h ****     uint16_t range : 16;
  82:..\..\..\liblc3\src/bits.h **** };
  83:..\..\..\liblc3\src/bits.h **** 
  84:..\..\..\liblc3\src/bits.h **** struct lc3_ac_model {
  85:..\..\..\liblc3\src/bits.h ****     struct lc3_ac_symbol s[17];
  86:..\..\..\liblc3\src/bits.h **** };
  87:..\..\..\liblc3\src/bits.h **** 
  88:..\..\..\liblc3\src/bits.h **** /**
  89:..\..\..\liblc3\src/bits.h ****  * Bitstream context
  90:..\..\..\liblc3\src/bits.h ****  */
  91:..\..\..\liblc3\src/bits.h **** 
  92:..\..\..\liblc3\src/bits.h **** #define LC3_ACCU_BITS (int)(8 * sizeof(unsigned))
  93:..\..\..\liblc3\src/bits.h **** 
  94:..\..\..\liblc3\src/bits.h **** struct lc3_bits_accu {
  95:..\..\..\liblc3\src/bits.h ****     unsigned v;
  96:..\..\..\liblc3\src/bits.h ****     int n, nover;
  97:..\..\..\liblc3\src/bits.h **** };
  98:..\..\..\liblc3\src/bits.h **** 
  99:..\..\..\liblc3\src/bits.h **** #define LC3_AC_BITS (int)(24)
ARM GAS  C:\Users\rdn\AppData\Local\Temp\ccCxUcqe.s 			page 42


 100:..\..\..\liblc3\src/bits.h **** 
 101:..\..\..\liblc3\src/bits.h **** struct lc3_bits_ac {
 102:..\..\..\liblc3\src/bits.h ****     unsigned low, range;
 103:..\..\..\liblc3\src/bits.h ****     int cache, carry, carry_count;
 104:..\..\..\liblc3\src/bits.h ****     bool error;
 105:..\..\..\liblc3\src/bits.h **** };
 106:..\..\..\liblc3\src/bits.h **** 
 107:..\..\..\liblc3\src/bits.h **** struct lc3_bits_buffer {
 108:..\..\..\liblc3\src/bits.h ****     const uint8_t *start, *end;
 109:..\..\..\liblc3\src/bits.h ****     uint8_t *p_fw, *p_bw;
 110:..\..\..\liblc3\src/bits.h **** };
 111:..\..\..\liblc3\src/bits.h **** 
 112:..\..\..\liblc3\src/bits.h **** typedef struct lc3_bits {
 113:..\..\..\liblc3\src/bits.h ****     enum lc3_bits_mode mode;
 114:..\..\..\liblc3\src/bits.h ****     struct lc3_bits_ac ac;
 115:..\..\..\liblc3\src/bits.h ****     struct lc3_bits_accu accu;
 116:..\..\..\liblc3\src/bits.h ****     struct lc3_bits_buffer buffer;
 117:..\..\..\liblc3\src/bits.h **** } lc3_bits_t;
 118:..\..\..\liblc3\src/bits.h **** 
 119:..\..\..\liblc3\src/bits.h **** 
 120:..\..\..\liblc3\src/bits.h **** /**
 121:..\..\..\liblc3\src/bits.h ****  * Setup bitstream reading/writing
 122:..\..\..\liblc3\src/bits.h ****  * bits            Bitstream context
 123:..\..\..\liblc3\src/bits.h ****  * mode            Either READ or WRITE mode
 124:..\..\..\liblc3\src/bits.h ****  * buffer, len     Output buffer and length (in bytes)
 125:..\..\..\liblc3\src/bits.h ****  */
 126:..\..\..\liblc3\src/bits.h **** void lc3_setup_bits(lc3_bits_t *bits,
 127:..\..\..\liblc3\src/bits.h ****     enum lc3_bits_mode mode, void *buffer, int len);
 128:..\..\..\liblc3\src/bits.h **** 
 129:..\..\..\liblc3\src/bits.h **** /**
 130:..\..\..\liblc3\src/bits.h ****  * Return number of bits left in the bitstream
 131:..\..\..\liblc3\src/bits.h ****  * bits            Bitstream context
 132:..\..\..\liblc3\src/bits.h ****  * return          Number of bits left
 133:..\..\..\liblc3\src/bits.h ****  */
 134:..\..\..\liblc3\src/bits.h **** int lc3_get_bits_left(const lc3_bits_t *bits);
 135:..\..\..\liblc3\src/bits.h **** 
 136:..\..\..\liblc3\src/bits.h **** /**
 137:..\..\..\liblc3\src/bits.h ****  * Check if error occured on bitstream reading/writing
 138:..\..\..\liblc3\src/bits.h ****  * bits            Bitstream context
 139:..\..\..\liblc3\src/bits.h ****  * return          0: Ok  -1: Bitstream overflow or AC reading error
 140:..\..\..\liblc3\src/bits.h ****  */
 141:..\..\..\liblc3\src/bits.h **** int lc3_check_bits(const lc3_bits_t *bits);
 142:..\..\..\liblc3\src/bits.h **** 
 143:..\..\..\liblc3\src/bits.h **** /**
 144:..\..\..\liblc3\src/bits.h ****  * Put a bit
 145:..\..\..\liblc3\src/bits.h ****  * bits            Bitstream context
 146:..\..\..\liblc3\src/bits.h ****  * v               Bit value, 0 or 1
 147:..\..\..\liblc3\src/bits.h ****  */
 148:..\..\..\liblc3\src/bits.h **** static inline void lc3_put_bit(lc3_bits_t *bits, int v);
 149:..\..\..\liblc3\src/bits.h **** 
 150:..\..\..\liblc3\src/bits.h **** /**
 151:..\..\..\liblc3\src/bits.h ****  * Put from 1 to 32 bits
 152:..\..\..\liblc3\src/bits.h ****  * bits            Bitstream context
 153:..\..\..\liblc3\src/bits.h ****  * v, n            Value, in range 0 to 2^n - 1, and bits count (1 to 32)
 154:..\..\..\liblc3\src/bits.h ****  */
 155:..\..\..\liblc3\src/bits.h **** static inline void lc3_put_bits(lc3_bits_t *bits, unsigned v, int n);
 156:..\..\..\liblc3\src/bits.h **** 
ARM GAS  C:\Users\rdn\AppData\Local\Temp\ccCxUcqe.s 			page 43


 157:..\..\..\liblc3\src/bits.h **** /**
 158:..\..\..\liblc3\src/bits.h ****  * Put arithmetic coder symbol
 159:..\..\..\liblc3\src/bits.h ****  * bits            Bitstream context
 160:..\..\..\liblc3\src/bits.h ****  * model, s        Model distribution and symbol value
 161:..\..\..\liblc3\src/bits.h ****  */
 162:..\..\..\liblc3\src/bits.h **** static inline void lc3_put_symbol(lc3_bits_t *bits,
 163:..\..\..\liblc3\src/bits.h ****     const struct lc3_ac_model *model, unsigned s);
 164:..\..\..\liblc3\src/bits.h **** 
 165:..\..\..\liblc3\src/bits.h **** /**
 166:..\..\..\liblc3\src/bits.h ****  * Flush and terminate bitstream writing
 167:..\..\..\liblc3\src/bits.h ****  * bits            Bitstream context
 168:..\..\..\liblc3\src/bits.h ****  */
 169:..\..\..\liblc3\src/bits.h **** void lc3_flush_bits(lc3_bits_t *bits);
 170:..\..\..\liblc3\src/bits.h **** 
 171:..\..\..\liblc3\src/bits.h **** /**
 172:..\..\..\liblc3\src/bits.h ****  * Get a bit
 173:..\..\..\liblc3\src/bits.h ****  * bits            Bitstream context
 174:..\..\..\liblc3\src/bits.h ****  */
 175:..\..\..\liblc3\src/bits.h **** static inline int lc3_get_bit(lc3_bits_t *bits);
 176:..\..\..\liblc3\src/bits.h **** 
 177:..\..\..\liblc3\src/bits.h **** /**
 178:..\..\..\liblc3\src/bits.h ****  * Get from 1 to 32 bits
 179:..\..\..\liblc3\src/bits.h ****  * bits            Bitstream context
 180:..\..\..\liblc3\src/bits.h ****  * n               Number of bits to read (1 to 32)
 181:..\..\..\liblc3\src/bits.h ****  * return          The value read
 182:..\..\..\liblc3\src/bits.h ****  */
 183:..\..\..\liblc3\src/bits.h **** static inline unsigned lc3_get_bits(lc3_bits_t *bits,  int n);
 184:..\..\..\liblc3\src/bits.h **** 
 185:..\..\..\liblc3\src/bits.h **** /**
 186:..\..\..\liblc3\src/bits.h ****  * Get arithmetic coder symbol
 187:..\..\..\liblc3\src/bits.h ****  * bits            Bitstream context
 188:..\..\..\liblc3\src/bits.h ****  * model           Model distribution
 189:..\..\..\liblc3\src/bits.h ****  * return          The value read
 190:..\..\..\liblc3\src/bits.h ****  */
 191:..\..\..\liblc3\src/bits.h **** static inline unsigned lc3_get_symbol(lc3_bits_t *bits,
 192:..\..\..\liblc3\src/bits.h ****     const struct lc3_ac_model *model);
 193:..\..\..\liblc3\src/bits.h **** 
 194:..\..\..\liblc3\src/bits.h **** 
 195:..\..\..\liblc3\src/bits.h **** 
 196:..\..\..\liblc3\src/bits.h **** /* ----------------------------------------------------------------------------
 197:..\..\..\liblc3\src/bits.h ****  *  Inline implementations
 198:..\..\..\liblc3\src/bits.h ****  * -------------------------------------------------------------------------- */
 199:..\..\..\liblc3\src/bits.h **** 
 200:..\..\..\liblc3\src/bits.h **** void lc3_put_bits_generic(lc3_bits_t *bits, unsigned v, int n);
 201:..\..\..\liblc3\src/bits.h **** unsigned lc3_get_bits_generic(struct lc3_bits *bits, int n);
 202:..\..\..\liblc3\src/bits.h **** 
 203:..\..\..\liblc3\src/bits.h **** void lc3_ac_read_renorm(lc3_bits_t *bits);
 204:..\..\..\liblc3\src/bits.h **** void lc3_ac_write_renorm(lc3_bits_t *bits);
 205:..\..\..\liblc3\src/bits.h **** 
 206:..\..\..\liblc3\src/bits.h **** 
 207:..\..\..\liblc3\src/bits.h **** /**
 208:..\..\..\liblc3\src/bits.h ****  * Put a bit
 209:..\..\..\liblc3\src/bits.h ****  */
 210:..\..\..\liblc3\src/bits.h **** LC3_HOT static inline void lc3_put_bit(lc3_bits_t *bits, int v)
 211:..\..\..\liblc3\src/bits.h **** {
 212:..\..\..\liblc3\src/bits.h ****     lc3_put_bits(bits, v, 1);
 213:..\..\..\liblc3\src/bits.h **** }
ARM GAS  C:\Users\rdn\AppData\Local\Temp\ccCxUcqe.s 			page 44


 214:..\..\..\liblc3\src/bits.h **** 
 215:..\..\..\liblc3\src/bits.h **** /**
 216:..\..\..\liblc3\src/bits.h ****  * Put from 1 to 32 bits
 217:..\..\..\liblc3\src/bits.h ****  */
 218:..\..\..\liblc3\src/bits.h **** LC3_HOT static inline void lc3_put_bits(
 219:..\..\..\liblc3\src/bits.h ****     struct lc3_bits *bits, unsigned v, int n)
 220:..\..\..\liblc3\src/bits.h **** {
 221:..\..\..\liblc3\src/bits.h ****     struct lc3_bits_accu *accu = &bits->accu;
 222:..\..\..\liblc3\src/bits.h **** 
 223:..\..\..\liblc3\src/bits.h ****     if (accu->n + n <= LC3_ACCU_BITS) {
 1382              		.loc 4 223 0
 1383 0050 0C9A     		ldr	r2, [sp, #48]
 1384 0052 531C     		adds	r3, r2, #1
 1385 0054 202B     		cmp	r3, #32
 1386 0056 05DC     		bgt	.L113
 224:..\..\..\liblc3\src/bits.h ****         accu->v |= v << accu->n;
 1387              		.loc 4 224 0
 1388 0058 9140     		lsls	r1, r1, r2
 1389              	.LVL212:
 1390 005a 0B9A     		ldr	r2, [sp, #44]
 1391 005c 1143     		orrs	r1, r1, r2
 1392 005e 0B91     		str	r1, [sp, #44]
 1393              	.LVL213:
 225:..\..\..\liblc3\src/bits.h ****         accu->n += n;
 1394              		.loc 4 225 0
 1395 0060 0C93     		str	r3, [sp, #48]
 1396 0062 03E0     		b	.L114
 1397              	.LVL214:
 1398              	.L113:
 226:..\..\..\liblc3\src/bits.h ****     } else {
 227:..\..\..\liblc3\src/bits.h ****         lc3_put_bits_generic(bits, v, n);
 1399              		.loc 4 227 0
 1400 0064 0122     		movs	r2, #1
 1401 0066 04A8     		add	r0, sp, #16
 1402              	.LVL215:
 1403 0068 FFF7FEFF 		bl	lc3_put_bits_generic
 1404              	.LVL216:
 1405              	.L114:
 1406              	.LBE162:
 1407              	.LBE161:
 1408              	.LBE160:
 1409              	.LBE159:
 358:..\..\..\liblc3\src/lc3.c **** 
 1410              		.loc 1 358 0
 1411 006c 04F10C01 		add	r1, r4, #12
 1412 0070 04A8     		add	r0, sp, #16
 1413 0072 FFF7FEFF 		bl	lc3_sns_put_data
 1414              	.LVL217:
 360:..\..\..\liblc3\src/lc3.c ****         lc3_ltpf_put_data(&bits, &side->ltpf);
 1415              		.loc 1 360 0
 1416 0076 6378     		ldrb	r3, [r4, #1]	@ zero_extendqisi2
 1417 0078 1BB1     		cbz	r3, .L115
 361:..\..\..\liblc3\src/lc3.c **** 
 1418              		.loc 1 361 0
 1419 007a 211D     		adds	r1, r4, #4
 1420 007c 04A8     		add	r0, sp, #16
 1421 007e FFF7FEFF 		bl	lc3_ltpf_put_data
ARM GAS  C:\Users\rdn\AppData\Local\Temp\ccCxUcqe.s 			page 45


 1422              	.LVL218:
 1423              	.L115:
 363:..\..\..\liblc3\src/lc3.c **** 
 1424              		.loc 1 363 0
 1425 0082 0297     		str	r7, [sp, #8]
 1426 0084 0195     		str	r5, [sp, #4]
 1427 0086 CDF80090 		str	r9, [sp]
 1428 008a 5346     		mov	r3, r10
 1429 008c 3246     		mov	r2, r6
 1430 008e 4146     		mov	r1, r8
 1431 0090 04A8     		add	r0, sp, #16
 1432 0092 FFF7FEFF 		bl	lc3_spec_encode
 1433              	.LVL219:
 365:..\..\..\liblc3\src/lc3.c **** }
 1434              		.loc 1 365 0
 1435 0096 04A8     		add	r0, sp, #16
 1436 0098 FFF7FEFF 		bl	lc3_flush_bits
 1437              	.LVL220:
 366:..\..\..\liblc3\src/lc3.c **** 
 1438              		.loc 1 366 0
 1439 009c 12B0     		add	sp, sp, #72
 1440              		.cfi_def_cfa_offset 32
 1441              		@ sp needed
 1442 009e BDE8F087 		pop	{r4, r5, r6, r7, r8, r9, r10, pc}
 1443              		.cfi_endproc
 1444              	.LFE37:
 1445              		.size	encode, .-encode
 1446 00a2 00BF     		.section	.text.decode,"ax",%progbits
 1447              		.align	2
 1448              		.thumb
 1449              		.thumb_func
 1450              		.type	decode, %function
 1451              	decode:
 1452              	.LFB47:
 567:..\..\..\liblc3\src/lc3.c ****     enum lc3_dt dt = decoder->dt;
 1453              		.loc 1 567 0
 1454              		.cfi_startproc
 1455              		@ args = 0, pretend = 0, frame = 56
 1456              		@ frame_needed = 0, uses_anonymous_args = 0
 1457              	.LVL221:
 1458 0000 2DE9F04F 		push	{r4, r5, r6, r7, r8, r9, r10, fp, lr}
 1459              		.cfi_def_cfa_offset 36
 1460              		.cfi_offset 4, -36
 1461              		.cfi_offset 5, -32
 1462              		.cfi_offset 6, -28
 1463              		.cfi_offset 7, -24
 1464              		.cfi_offset 8, -20
 1465              		.cfi_offset 9, -16
 1466              		.cfi_offset 10, -12
 1467              		.cfi_offset 11, -8
 1468              		.cfi_offset 14, -4
 1469 0004 93B0     		sub	sp, sp, #76
 1470              		.cfi_def_cfa_offset 112
 1471 0006 9246     		mov	r10, r2
 1472 0008 1E46     		mov	r6, r3
 568:..\..\..\liblc3\src/lc3.c ****     enum lc3_srate sr = decoder->sr;
 1473              		.loc 1 568 0
ARM GAS  C:\Users\rdn\AppData\Local\Temp\ccCxUcqe.s 			page 46


 1474 000a 90F80090 		ldrb	r9, [r0]	@ zero_extendqisi2
 1475              	.LVL222:
 569:..\..\..\liblc3\src/lc3.c **** 
 1476              		.loc 1 569 0
 1477 000e 4478     		ldrb	r4, [r0, #1]	@ zero_extendqisi2
 1478              	.LVL223:
 571:..\..\..\liblc3\src/lc3.c ****     int ns = lc3_ns(dt, sr);
 1479              		.loc 1 571 0
 1480 0010 00F1B803 		add	r3, r0, #184
 1481              	.LVL224:
 1482 0014 D0F8AC20 		ldr	r2, [r0, #172]
 1483              	.LVL225:
 1484 0018 03EB8208 		add	r8, r3, r2, lsl #2
 1485              	.LVL226:
 1486              	.LBB172:
 1487              	.LBB173:
  47:..\..\..\liblc3\src/tables.h **** }
 1488              		.loc 2 47 0
 1489 001c 344B     		ldr	r3, .L128
 1490 001e 53F82470 		ldr	r7, [r3, r4, lsl #2]
 1491 0022 09F10103 		add	r3, r9, #1
 1492 0026 03FB07F7 		mul	r7, r3, r7
 1493              	.LVL227:
 1494              	.LBE173:
 1495              	.LBE172:
 1496              	.LBB174:
 1497              	.LBB175:
  51:..\..\..\liblc3\src/tables.h **** }
 1498              		.loc 2 51 0
 1499 002a 324A     		ldr	r2, .L128+4
 1500 002c 52F82450 		ldr	r5, [r2, r4, lsl #2]
 1501 0030 03FB05F5 		mul	r5, r3, r5
 1502              	.LVL228:
 1503              	.LBE175:
 1504              	.LBE174:
 578:..\..\..\liblc3\src/lc3.c **** 
 1505              		.loc 1 578 0
 1506 0034 5346     		mov	r3, r10
 1507 0036 0A46     		mov	r2, r1
 1508 0038 0021     		movs	r1, #0
 1509              	.LVL229:
 1510 003a 04A8     		add	r0, sp, #16
 1511              	.LVL230:
 1512 003c FFF7FEFF 		bl	lc3_setup_bits
 1513              	.LVL231:
 580:..\..\..\liblc3\src/lc3.c ****         return ret;
 1514              		.loc 1 580 0
 1515 0040 3246     		mov	r2, r6
 1516 0042 2146     		mov	r1, r4
 1517 0044 04A8     		add	r0, sp, #16
 1518 0046 FFF7FEFF 		bl	lc3_bwdet_get_bw
 1519              	.LVL232:
 1520 004a 0028     		cmp	r0, #0
 1521 004c 4CDB     		blt	.L118
 583:..\..\..\liblc3\src/lc3.c ****         return ret;
 1522              		.loc 1 583 0
 1523 004e 06F1780B 		add	fp, r6, #120
ARM GAS  C:\Users\rdn\AppData\Local\Temp\ccCxUcqe.s 			page 47


 1524 0052 5B46     		mov	r3, fp
 1525 0054 2246     		mov	r2, r4
 1526 0056 4946     		mov	r1, r9
 1527 0058 04A8     		add	r0, sp, #16
 1528              	.LVL233:
 1529 005a FFF7FEFF 		bl	lc3_spec_get_side
 1530              	.LVL234:
 1531 005e 0028     		cmp	r0, #0
 1532 0060 42DB     		blt	.L118
 586:..\..\..\liblc3\src/lc3.c ****         return ret;
 1533              		.loc 1 586 0
 1534 0062 3346     		mov	r3, r6
 1535 0064 13F8282B 		ldrb	r2, [r3], #40	@ zero_extendqisi2
 1536 0068 0093     		str	r3, [sp]
 1537 006a 5346     		mov	r3, r10
 1538 006c 4946     		mov	r1, r9
 1539 006e 04A8     		add	r0, sp, #16
 1540              	.LVL235:
 1541 0070 FFF7FEFF 		bl	lc3_tns_get_data
 1542              	.LVL236:
 1543 0074 0028     		cmp	r0, #0
 1544 0076 37DB     		blt	.L118
 1545              	.LVL237:
 1546              	.LBB176:
 1547              	.LBB177:
 1548              	.LBB178:
 1549              	.LBB179:
 228:..\..\..\liblc3\src/bits.h ****     }
 229:..\..\..\liblc3\src/bits.h **** }
 230:..\..\..\liblc3\src/bits.h **** 
 231:..\..\..\liblc3\src/bits.h **** /**
 232:..\..\..\liblc3\src/bits.h ****  * Get a bit
 233:..\..\..\liblc3\src/bits.h ****  */
 234:..\..\..\liblc3\src/bits.h **** LC3_HOT static inline int lc3_get_bit(lc3_bits_t *bits)
 235:..\..\..\liblc3\src/bits.h **** {
 236:..\..\..\liblc3\src/bits.h ****     return lc3_get_bits(bits, 1);
 237:..\..\..\liblc3\src/bits.h **** }
 238:..\..\..\liblc3\src/bits.h **** 
 239:..\..\..\liblc3\src/bits.h **** /**
 240:..\..\..\liblc3\src/bits.h ****  * Get from 1 to 32 bits
 241:..\..\..\liblc3\src/bits.h ****  */
 242:..\..\..\liblc3\src/bits.h **** LC3_HOT static inline unsigned lc3_get_bits(struct lc3_bits *bits, int n)
 243:..\..\..\liblc3\src/bits.h **** {
 244:..\..\..\liblc3\src/bits.h ****     struct lc3_bits_accu *accu = &bits->accu;
 245:..\..\..\liblc3\src/bits.h **** 
 246:..\..\..\liblc3\src/bits.h ****     if (accu->n + n <= LC3_ACCU_BITS) {
 1550              		.loc 4 246 0
 1551 0078 0C98     		ldr	r0, [sp, #48]
 1552              	.LVL238:
 1553 007a 421C     		adds	r2, r0, #1
 1554 007c 202A     		cmp	r2, #32
 1555 007e 06DC     		bgt	.L119
 1556              	.LBB180:
 247:..\..\..\liblc3\src/bits.h ****         int v = (accu->v >> accu->n) & ((1u << n) - 1);
 1557              		.loc 4 247 0
 1558 0080 0B9B     		ldr	r3, [sp, #44]
 1559 0082 23FA00F0 		lsr	r0, r3, r0
ARM GAS  C:\Users\rdn\AppData\Local\Temp\ccCxUcqe.s 			page 48


 1560 0086 00F00100 		and	r0, r0, #1
 1561              	.LVL239:
 248:..\..\..\liblc3\src/bits.h ****         return (accu->n += n), v;
 1562              		.loc 4 248 0
 1563 008a 0C92     		str	r2, [sp, #48]
 1564 008c 03E0     		b	.L120
 1565              	.LVL240:
 1566              	.L119:
 1567              	.LBE180:
 249:..\..\..\liblc3\src/bits.h ****     }
 250:..\..\..\liblc3\src/bits.h ****     else {
 251:..\..\..\liblc3\src/bits.h ****         return lc3_get_bits_generic(bits, n);
 1568              		.loc 4 251 0
 1569 008e 0121     		movs	r1, #1
 1570 0090 04A8     		add	r0, sp, #16
 1571              	.LVL241:
 1572 0092 FFF7FEFF 		bl	lc3_get_bits_generic
 1573              	.LVL242:
 1574              	.L120:
 1575              	.LBE179:
 1576              	.LBE178:
 1577              	.LBE177:
 1578              	.LBE176:
 589:..\..\..\liblc3\src/lc3.c **** 
 1579              		.loc 1 589 0
 1580 0096 0030     		adds	r0, r0, #0
 1581 0098 18BF     		it	ne
 1582 009a 0120     		movne	r0, #1
 1583 009c 7070     		strb	r0, [r6, #1]
 591:..\..\..\liblc3\src/lc3.c ****         return ret;
 1584              		.loc 1 591 0
 1585 009e 06F10C01 		add	r1, r6, #12
 1586 00a2 04A8     		add	r0, sp, #16
 1587 00a4 FFF7FEFF 		bl	lc3_sns_get_data
 1588              	.LVL243:
 1589 00a8 0028     		cmp	r0, #0
 1590 00aa 1DDB     		blt	.L118
 594:..\..\..\liblc3\src/lc3.c ****       lc3_ltpf_get_data(&bits, &side->ltpf);
 1591              		.loc 1 594 0
 1592 00ac 7378     		ldrb	r3, [r6, #1]	@ zero_extendqisi2
 1593 00ae 1BB1     		cbz	r3, .L121
 595:..\..\..\liblc3\src/lc3.c **** 
 1594              		.loc 1 595 0
 1595 00b0 311D     		adds	r1, r6, #4
 1596 00b2 04A8     		add	r0, sp, #16
 1597              	.LVL244:
 1598 00b4 FFF7FEFF 		bl	lc3_ltpf_get_data
 1599              	.LVL245:
 1600              	.L121:
 597:..\..\..\liblc3\src/lc3.c ****                     side->bw, nbytes, &side->spec, xf)) < 0)
 1601              		.loc 1 597 0
 1602 00b8 3378     		ldrb	r3, [r6]	@ zero_extendqisi2
 1603 00ba CDF80880 		str	r8, [sp, #8]
 1604 00be CDF804B0 		str	fp, [sp, #4]
 1605 00c2 CDF800A0 		str	r10, [sp]
 1606 00c6 2246     		mov	r2, r4
 1607 00c8 4946     		mov	r1, r9
ARM GAS  C:\Users\rdn\AppData\Local\Temp\ccCxUcqe.s 			page 49


 1608 00ca 04A8     		add	r0, sp, #16
 1609 00cc FFF7FEFF 		bl	lc3_spec_decode
 1610              	.LVL246:
 1611 00d0 0028     		cmp	r0, #0
 1612 00d2 09DB     		blt	.L118
 601:..\..\..\liblc3\src/lc3.c **** 
 1613              		.loc 1 601 0
 1614 00d4 7A1B     		subs	r2, r7, r5
 1615 00d6 9200     		lsls	r2, r2, #2
 1616 00d8 0021     		movs	r1, #0
 1617 00da 08EB8500 		add	r0, r8, r5, lsl #2
 1618              	.LVL247:
 1619 00de FFF7FEFF 		bl	memset
 1620              	.LVL248:
 603:..\..\..\liblc3\src/lc3.c **** }
 1621              		.loc 1 603 0
 1622 00e2 04A8     		add	r0, sp, #16
 1623 00e4 FFF7FEFF 		bl	lc3_check_bits
 1624              	.LVL249:
 1625              	.L118:
 604:..\..\..\liblc3\src/lc3.c **** 
 1626              		.loc 1 604 0
 1627 00e8 13B0     		add	sp, sp, #76
 1628              		.cfi_def_cfa_offset 36
 1629              		@ sp needed
 1630 00ea BDE8F08F 		pop	{r4, r5, r6, r7, r8, r9, r10, fp, pc}
 1631              	.LVL250:
 1632              	.L129:
 1633 00ee 00BF     		.align	2
 1634              	.L128:
 1635 00f0 00000000 		.word	lc3_ns_2m5
 1636 00f4 00000000 		.word	lc3_ne_2m5
 1637              		.cfi_endproc
 1638              	.LFE47:
 1639              		.size	decode, .-decode
 1640              		.section	.text.synthesize,"ax",%progbits
 1641              		.align	2
 1642              		.thumb
 1643              		.thumb_func
 1644              		.type	synthesize, %function
 1645              	synthesize:
 1646              	.LFB48:
 614:..\..\..\liblc3\src/lc3.c ****     enum lc3_dt dt = decoder->dt;
 1647              		.loc 1 614 0
 1648              		.cfi_startproc
 1649              		@ args = 0, pretend = 0, frame = 16
 1650              		@ frame_needed = 0, uses_anonymous_args = 0
 1651              	.LVL251:
 1652 0000 2DE9F04F 		push	{r4, r5, r6, r7, r8, r9, r10, fp, lr}
 1653              		.cfi_def_cfa_offset 36
 1654              		.cfi_offset 4, -36
 1655              		.cfi_offset 5, -32
 1656              		.cfi_offset 6, -28
 1657              		.cfi_offset 7, -24
 1658              		.cfi_offset 8, -20
 1659              		.cfi_offset 9, -16
 1660              		.cfi_offset 10, -12
ARM GAS  C:\Users\rdn\AppData\Local\Temp\ccCxUcqe.s 			page 50


 1661              		.cfi_offset 11, -8
 1662              		.cfi_offset 14, -4
 1663 0004 89B0     		sub	sp, sp, #36
 1664              		.cfi_def_cfa_offset 72
 1665 0006 0446     		mov	r4, r0
 1666 0008 0792     		str	r2, [sp, #28]
 615:..\..\..\liblc3\src/lc3.c ****     enum lc3_srate sr = decoder->sr;
 1667              		.loc 1 615 0
 1668 000a 0678     		ldrb	r6, [r0]	@ zero_extendqisi2
 1669              	.LVL252:
 616:..\..\..\liblc3\src/lc3.c ****     enum lc3_srate sr_pcm = decoder->sr_pcm;
 1670              		.loc 1 616 0
 1671 000c 4778     		ldrb	r7, [r0, #1]	@ zero_extendqisi2
 1672              	.LVL253:
 617:..\..\..\liblc3\src/lc3.c **** 
 1673              		.loc 1 617 0
 1674 000e 90F80290 		ldrb	r9, [r0, #2]	@ zero_extendqisi2
 1675              	.LVL254:
 619:..\..\..\liblc3\src/lc3.c ****     int ns = lc3_ns(dt, sr_pcm);
 1676              		.loc 1 619 0
 1677 0012 00F1B803 		add	r3, r0, #184
 1678 0016 D0F8AC50 		ldr	r5, [r0, #172]
 1679 001a 03EB8505 		add	r5, r3, r5, lsl #2
 1680              	.LVL255:
 1681              	.LBB181:
 1682              	.LBB182:
  47:..\..\..\liblc3\src/tables.h **** }
 1683              		.loc 2 47 0
 1684 001e 384A     		ldr	r2, .L138
 1685              	.LVL256:
 1686 0020 52F82920 		ldr	r2, [r2, r9, lsl #2]
 1687 0024 701C     		adds	r0, r6, #1
 1688              	.LVL257:
 1689 0026 00FB02FB 		mul	fp, r0, r2
 1690              	.LVL258:
 1691              	.LBE182:
 1692              	.LBE181:
 1693              	.LBB183:
 1694              	.LBB184:
  51:..\..\..\liblc3\src/tables.h **** }
 1695              		.loc 2 51 0
 1696 002a 364A     		ldr	r2, .L138+4
 1697 002c 52F82720 		ldr	r2, [r2, r7, lsl #2]
 1698 0030 00FB02FA 		mul	r10, r0, r2
 1699              	.LVL259:
 1700              	.LBE184:
 1701              	.LBE183:
 623:..\..\..\liblc3\src/lc3.c ****     float *xs = xf;
 1702              		.loc 1 623 0
 1703 0034 D4F8B420 		ldr	r2, [r4, #180]
 1704 0038 03EB8202 		add	r2, r3, r2, lsl #2
 1705 003c 0492     		str	r2, [sp, #16]
 1706              	.LVL260:
 626:..\..\..\liblc3\src/lc3.c ****     float *xh = decoder->x + decoder->xh_off;
 1707              		.loc 1 626 0
 1708 003e D4F8B020 		ldr	r2, [r4, #176]
 1709              	.LVL261:
ARM GAS  C:\Users\rdn\AppData\Local\Temp\ccCxUcqe.s 			page 51


 1710 0042 03EB8200 		add	r0, r3, r2, lsl #2
 1711 0046 0590     		str	r0, [sp, #20]
 1712              	.LVL262:
 627:..\..\..\liblc3\src/lc3.c **** 
 1713              		.loc 1 627 0
 1714 0048 D4F8A820 		ldr	r2, [r4, #168]
 1715 004c 03EB8203 		add	r3, r3, r2, lsl #2
 1716 0050 0693     		str	r3, [sp, #24]
 1717              	.LVL263:
 629:..\..\..\liblc3\src/lc3.c ****         enum lc3_bandwidth bw = side->bw;
 1718              		.loc 1 629 0
 1719 0052 8846     		mov	r8, r1
 1720 0054 F9B1     		cbz	r1, .L131
 1721              	.LBB185:
 630:..\..\..\liblc3\src/lc3.c **** 
 1722              		.loc 1 630 0
 1723 0056 8A46     		mov	r10, r1
 1724 0058 1AF828BB 		ldrb	fp, [r10], #40	@ zero_extendqisi2
 1725              	.LVL264:
 632:..\..\..\liblc3\src/lc3.c **** 
 1726              		.loc 1 632 0
 1727 005c 04F19C00 		add	r0, r4, #156
 1728              	.LVL265:
 1729 0060 FFF7FEFF 		bl	lc3_plc_suspend
 1730              	.LVL266:
 634:..\..\..\liblc3\src/lc3.c **** 
 1731              		.loc 1 634 0
 1732 0064 2B46     		mov	r3, r5
 1733 0066 5246     		mov	r2, r10
 1734 0068 5946     		mov	r1, fp
 1735 006a 3046     		mov	r0, r6
 1736 006c FFF7FEFF 		bl	lc3_tns_synthesize
 1737              	.LVL267:
 636:..\..\..\liblc3\src/lc3.c **** 
 1738              		.loc 1 636 0
 1739 0070 049A     		ldr	r2, [sp, #16]
 1740 0072 0092     		str	r2, [sp]
 1741 0074 2B46     		mov	r3, r5
 1742 0076 08F10C02 		add	r2, r8, #12
 1743 007a 3946     		mov	r1, r7
 1744 007c 3046     		mov	r0, r6
 1745 007e FFF7FEFF 		bl	lc3_sns_synthesize
 1746              	.LVL268:
 638:..\..\..\liblc3\src/lc3.c **** 
 1747              		.loc 1 638 0
 1748 0082 0195     		str	r5, [sp, #4]
 1749 0084 0598     		ldr	r0, [sp, #20]
 1750 0086 0090     		str	r0, [sp]
 1751 0088 049B     		ldr	r3, [sp, #16]
 1752 008a 3A46     		mov	r2, r7
 1753 008c 4946     		mov	r1, r9
 1754 008e 3046     		mov	r0, r6
 1755 0090 FFF7FEFF 		bl	lc3_mdct_inverse
 1756              	.LVL269:
 1757              	.LBE185:
 1758 0094 18E0     		b	.L132
 1759              	.LVL270:
ARM GAS  C:\Users\rdn\AppData\Local\Temp\ccCxUcqe.s 			page 52


 1760              	.L131:
 641:..\..\..\liblc3\src/lc3.c **** 
 1761              		.loc 1 641 0
 1762 0096 0095     		str	r5, [sp]
 1763 0098 049B     		ldr	r3, [sp, #16]
 1764              	.LVL271:
 1765 009a 04F19C02 		add	r2, r4, #156
 1766 009e 3946     		mov	r1, r7
 1767              	.LVL272:
 1768 00a0 3046     		mov	r0, r6
 1769              	.LVL273:
 1770 00a2 FFF7FEFF 		bl	lc3_plc_synthesize
 1771              	.LVL274:
 643:..\..\..\liblc3\src/lc3.c **** 
 1772              		.loc 1 643 0
 1773 00a6 CAEB0B02 		rsb	r2, r10, fp
 1774 00aa 9200     		lsls	r2, r2, #2
 1775 00ac 0021     		movs	r1, #0
 1776 00ae 05EB8A00 		add	r0, r5, r10, lsl #2
 1777 00b2 FFF7FEFF 		bl	memset
 1778              	.LVL275:
 645:..\..\..\liblc3\src/lc3.c ****     }
 1779              		.loc 1 645 0
 1780 00b6 0195     		str	r5, [sp, #4]
 1781 00b8 059B     		ldr	r3, [sp, #20]
 1782 00ba 0093     		str	r3, [sp]
 1783 00bc 2B46     		mov	r3, r5
 1784 00be 3A46     		mov	r2, r7
 1785 00c0 4946     		mov	r1, r9
 1786 00c2 3046     		mov	r0, r6
 1787 00c4 FFF7FEFF 		bl	lc3_mdct_inverse
 1788              	.LVL276:
 1789              	.L132:
 648:..\..\..\liblc3\src/lc3.c ****         lc3_ltpf_synthesize(dt, sr_pcm, nbytes, &decoder->ltpf,
 1790              		.loc 1 648 0
 1791 00c8 042F     		cmp	r7, #4
 1792 00ca 15D8     		bhi	.L130
 649:..\..\..\liblc3\src/lc3.c ****             side && side->pitch_present ? &side->ltpf : NULL, xh, xs);
 1793              		.loc 1 649 0
 1794 00cc 231D     		adds	r3, r4, #4
 1795 00ce B8F1000F 		cmp	r8, #0
 1796 00d2 05D0     		beq	.L135
 650:..\..\..\liblc3\src/lc3.c **** }
 1797              		.loc 1 650 0
 1798 00d4 98F80120 		ldrb	r2, [r8, #1]	@ zero_extendqisi2
 1799 00d8 22B1     		cbz	r2, .L136
 649:..\..\..\liblc3\src/lc3.c ****             side && side->pitch_present ? &side->ltpf : NULL, xh, xs);
 1800              		.loc 1 649 0
 1801 00da 08F10402 		add	r2, r8, #4
 1802 00de 02E0     		b	.L134
 1803              	.L135:
 1804 00e0 0022     		movs	r2, #0
 1805 00e2 00E0     		b	.L134
 1806              	.L136:
 1807 00e4 0022     		movs	r2, #0
 1808              	.L134:
 649:..\..\..\liblc3\src/lc3.c ****             side && side->pitch_present ? &side->ltpf : NULL, xh, xs);
ARM GAS  C:\Users\rdn\AppData\Local\Temp\ccCxUcqe.s 			page 53


 1809              		.loc 1 649 0 is_stmt 0 discriminator 3
 1810 00e6 0295     		str	r5, [sp, #8]
 1811 00e8 0699     		ldr	r1, [sp, #24]
 1812 00ea 0191     		str	r1, [sp, #4]
 1813 00ec 0092     		str	r2, [sp]
 1814 00ee 079A     		ldr	r2, [sp, #28]
 1815 00f0 4946     		mov	r1, r9
 1816 00f2 3046     		mov	r0, r6
 1817 00f4 FFF7FEFF 		bl	lc3_ltpf_synthesize
 1818              	.LVL277:
 1819              	.L130:
 651:..\..\..\liblc3\src/lc3.c **** 
 1820              		.loc 1 651 0 is_stmt 1
 1821 00f8 09B0     		add	sp, sp, #36
 1822              		.cfi_def_cfa_offset 36
 1823              		@ sp needed
 1824 00fa BDE8F08F 		pop	{r4, r5, r6, r7, r8, r9, r10, fp, pc}
 1825              	.LVL278:
 1826              	.L139:
 1827 00fe 00BF     		.align	2
 1828              	.L138:
 1829 0100 00000000 		.word	lc3_ns_2m5
 1830 0104 00000000 		.word	lc3_ne_2m5
 1831              		.cfi_endproc
 1832              	.LFE48:
 1833              		.size	synthesize, .-synthesize
 1834              		.section	.text.store_float,"ax",%progbits
 1835              		.align	2
 1836              		.thumb
 1837              		.thumb_func
 1838              		.type	store_float, %function
 1839              	store_float:
 1840              	.LFB46:
 543:..\..\..\liblc3\src/lc3.c ****     float *pcm = _pcm;
 1841              		.loc 1 543 0
 1842              		.cfi_startproc
 1843              		@ args = 0, pretend = 0, frame = 0
 1844              		@ frame_needed = 0, uses_anonymous_args = 0
 1845              	.LVL279:
 1846 0000 F8B5     		push	{r3, r4, r5, r6, r7, lr}
 1847              		.cfi_def_cfa_offset 24
 1848              		.cfi_offset 3, -24
 1849              		.cfi_offset 4, -20
 1850              		.cfi_offset 5, -16
 1851              		.cfi_offset 6, -12
 1852              		.cfi_offset 7, -8
 1853              		.cfi_offset 14, -4
 1854 0002 0E46     		mov	r6, r1
 1855 0004 1746     		mov	r7, r2
 1856              	.LVL280:
 546:..\..\..\liblc3\src/lc3.c ****     enum lc3_srate sr = decoder->sr_pcm;
 1857              		.loc 1 546 0
 1858 0006 0378     		ldrb	r3, [r0]	@ zero_extendqisi2
 1859              	.LVL281:
 547:..\..\..\liblc3\src/lc3.c **** 
 1860              		.loc 1 547 0
 1861 0008 8178     		ldrb	r1, [r0, #2]	@ zero_extendqisi2
ARM GAS  C:\Users\rdn\AppData\Local\Temp\ccCxUcqe.s 			page 54


 1862              	.LVL282:
 549:..\..\..\liblc3\src/lc3.c ****     int ns = lc3_ns(dt, sr);
 1863              		.loc 1 549 0
 1864 000a 00F1B802 		add	r2, r0, #184
 1865              	.LVL283:
 1866 000e D0F8AC50 		ldr	r5, [r0, #172]
 1867 0012 02EB8505 		add	r5, r2, r5, lsl #2
 1868              	.LVL284:
 1869              	.LBB186:
 1870              	.LBB187:
  47:..\..\..\liblc3\src/tables.h **** }
 1871              		.loc 2 47 0
 1872 0016 0D4A     		ldr	r2, .L145
 1873 0018 52F82140 		ldr	r4, [r2, r1, lsl #2]
 1874 001c 03FB0444 		mla	r4, r3, r4, r4
 1875              	.LVL285:
 1876              	.LBE187:
 1877              	.LBE186:
 552:..\..\..\liblc3\src/lc3.c ****         float s = lc3_ldexpf(*xs, -15);
 1878              		.loc 1 552 0
 1879 0020 11E0     		b	.L141
 1880              	.LVL286:
 1881              	.L143:
 1882              	.LBB188:
 1883              	.LBB189:
 1884              	.LBB190:
  45:..\..\..\liblc3\src/fastmath.h **** 
 1885              		.loc 3 45 0 discriminator 2
 1886 0022 2868     		ldr	r0, [r5]
 1887              	.LVL287:
  47:..\..\..\liblc3\src/fastmath.h ****         x.s += exp << LC3_IEEE754_EXP_SHL;
 1888              		.loc 3 47 0 discriminator 2
 1889 0024 10F0FF4F 		tst	r0, #2139095040
 1890 0028 01D0     		beq	.L142
  48:..\..\..\liblc3\src/fastmath.h **** 
 1891              		.loc 3 48 0
 1892 002a A0F1F060 		sub	r0, r0, #125829120
 1893              	.LVL288:
 1894              	.L142:
 1895              	.LBE190:
 1896              	.LBE189:
 554:..\..\..\liblc3\src/lc3.c ****     }
 1897              		.loc 1 554 0
 1898 002e 0849     		ldr	r1, .L145+4
 1899 0030 FFF7FEFF 		bl	fmaxf
 1900              	.LVL289:
 1901 0034 4FF07E51 		mov	r1, #1065353216
 1902 0038 FFF7FEFF 		bl	fminf
 1903              	.LVL290:
 1904 003c 3060     		str	r0, [r6]	@ float
 1905              	.LBE188:
 552:..\..\..\liblc3\src/lc3.c ****         float s = lc3_ldexpf(*xs, -15);
 1906              		.loc 1 552 0
 1907 003e 013C     		subs	r4, r4, #1
 1908              	.LVL291:
 1909 0040 0435     		adds	r5, r5, #4
 1910              	.LVL292:
ARM GAS  C:\Users\rdn\AppData\Local\Temp\ccCxUcqe.s 			page 55


 1911 0042 06EB8706 		add	r6, r6, r7, lsl #2
 1912              	.LVL293:
 1913              	.L141:
 552:..\..\..\liblc3\src/lc3.c ****         float s = lc3_ldexpf(*xs, -15);
 1914              		.loc 1 552 0 is_stmt 0 discriminator 1
 1915 0046 002C     		cmp	r4, #0
 1916 0048 EBDC     		bgt	.L143
 556:..\..\..\liblc3\src/lc3.c **** 
 1917              		.loc 1 556 0 is_stmt 1
 1918 004a F8BD     		pop	{r3, r4, r5, r6, r7, pc}
 1919              	.LVL294:
 1920              	.L146:
 1921              		.align	2
 1922              	.L145:
 1923 004c 00000000 		.word	lc3_ns_2m5
 1924 0050 000080BF 		.word	-1082130432
 1925              		.cfi_endproc
 1926              	.LFE46:
 1927              		.size	store_float, .-store_float
 1928              		.section	.text.lc3_hr_frame_samples,"ax",%progbits
 1929              		.align	2
 1930              		.global	lc3_hr_frame_samples
 1931              		.thumb
 1932              		.thumb_func
 1933              		.type	lc3_hr_frame_samples, %function
 1934              	lc3_hr_frame_samples:
 1935              	.LFB22:
  90:..\..\..\liblc3\src/lc3.c ****     enum lc3_dt dt = resolve_dt(dt_us, hrmode);
 1936              		.loc 1 90 0
 1937              		.cfi_startproc
 1938              		@ args = 0, pretend = 0, frame = 0
 1939              		@ frame_needed = 0, uses_anonymous_args = 0
 1940              	.LVL295:
 1941 0000 70B5     		push	{r4, r5, r6, lr}
 1942              		.cfi_def_cfa_offset 16
 1943              		.cfi_offset 4, -16
 1944              		.cfi_offset 5, -12
 1945              		.cfi_offset 6, -8
 1946              		.cfi_offset 14, -4
 1947 0002 0446     		mov	r4, r0
 1948 0004 0846     		mov	r0, r1
 1949              	.LVL296:
 1950 0006 1646     		mov	r6, r2
  91:..\..\..\liblc3\src/lc3.c ****     enum lc3_srate sr = resolve_srate(sr_hz, hrmode);
 1951              		.loc 1 91 0
 1952 0008 2146     		mov	r1, r4
 1953              	.LVL297:
 1954 000a FFF7FEFF 		bl	resolve_dt
 1955              	.LVL298:
 1956 000e 0546     		mov	r5, r0
 1957              	.LVL299:
  92:..\..\..\liblc3\src/lc3.c **** 
 1958              		.loc 1 92 0
 1959 0010 2146     		mov	r1, r4
 1960 0012 3046     		mov	r0, r6
 1961 0014 FFF7FEFF 		bl	resolve_srate
 1962              	.LVL300:
ARM GAS  C:\Users\rdn\AppData\Local\Temp\ccCxUcqe.s 			page 56


  94:..\..\..\liblc3\src/lc3.c ****         return -1;
 1963              		.loc 1 94 0
 1964 0018 032D     		cmp	r5, #3
 1965 001a 07D8     		bhi	.L149
  94:..\..\..\liblc3\src/lc3.c ****         return -1;
 1966              		.loc 1 94 0 is_stmt 0 discriminator 1
 1967 001c 0628     		cmp	r0, #6
 1968 001e 08D8     		bhi	.L150
 1969              	.LVL301:
 1970              	.LBB191:
 1971              	.LBB192:
  47:..\..\..\liblc3\src/tables.h **** }
 1972              		.loc 2 47 0 is_stmt 1
 1973 0020 054B     		ldr	r3, .L152
 1974 0022 53F82000 		ldr	r0, [r3, r0, lsl #2]
 1975              	.LVL302:
 1976 0026 05FB0000 		mla	r0, r5, r0, r0
 1977              	.LVL303:
 1978              	.LBE192:
 1979              	.LBE191:
  97:..\..\..\liblc3\src/lc3.c **** }
 1980              		.loc 1 97 0
 1981 002a 70BD     		pop	{r4, r5, r6, pc}
 1982              	.LVL304:
 1983              	.L149:
  95:..\..\..\liblc3\src/lc3.c **** 
 1984              		.loc 1 95 0
 1985 002c 4FF0FF30 		mov	r0, #-1
 1986              	.LVL305:
 1987 0030 70BD     		pop	{r4, r5, r6, pc}
 1988              	.LVL306:
 1989              	.L150:
 1990 0032 4FF0FF30 		mov	r0, #-1
 1991              	.LVL307:
  98:..\..\..\liblc3\src/lc3.c **** 
 1992              		.loc 1 98 0
 1993 0036 70BD     		pop	{r4, r5, r6, pc}
 1994              	.LVL308:
 1995              	.L153:
 1996              		.align	2
 1997              	.L152:
 1998 0038 00000000 		.word	lc3_ns_2m5
 1999              		.cfi_endproc
 2000              	.LFE22:
 2001              		.size	lc3_hr_frame_samples, .-lc3_hr_frame_samples
 2002              		.section	.text.lc3_frame_samples,"ax",%progbits
 2003              		.align	2
 2004              		.global	lc3_frame_samples
 2005              		.thumb
 2006              		.thumb_func
 2007              		.type	lc3_frame_samples, %function
 2008              	lc3_frame_samples:
 2009              	.LFB23:
 101:..\..\..\liblc3\src/lc3.c ****     return lc3_hr_frame_samples(false, dt_us, sr_hz);
 2010              		.loc 1 101 0
 2011              		.cfi_startproc
 2012              		@ args = 0, pretend = 0, frame = 0
ARM GAS  C:\Users\rdn\AppData\Local\Temp\ccCxUcqe.s 			page 57


 2013              		@ frame_needed = 0, uses_anonymous_args = 0
 2014              	.LVL309:
 2015 0000 08B5     		push	{r3, lr}
 2016              		.cfi_def_cfa_offset 8
 2017              		.cfi_offset 3, -8
 2018              		.cfi_offset 14, -4
 102:..\..\..\liblc3\src/lc3.c **** }
 2019              		.loc 1 102 0
 2020 0002 0A46     		mov	r2, r1
 2021 0004 0146     		mov	r1, r0
 2022              	.LVL310:
 2023 0006 0020     		movs	r0, #0
 2024              	.LVL311:
 2025 0008 FFF7FEFF 		bl	lc3_hr_frame_samples
 2026              	.LVL312:
 103:..\..\..\liblc3\src/lc3.c **** 
 2027              		.loc 1 103 0
 2028 000c 08BD     		pop	{r3, pc}
 2029              		.cfi_endproc
 2030              	.LFE23:
 2031              		.size	lc3_frame_samples, .-lc3_frame_samples
 2032 000e 00BF     		.section	.text.lc3_hr_frame_block_bytes,"ax",%progbits
 2033              		.align	2
 2034              		.global	lc3_hr_frame_block_bytes
 2035              		.thumb
 2036              		.thumb_func
 2037              		.type	lc3_hr_frame_block_bytes, %function
 2038              	lc3_hr_frame_block_bytes:
 2039              	.LFB24:
 110:..\..\..\liblc3\src/lc3.c ****     enum lc3_dt dt = resolve_dt(dt_us, hrmode);
 2040              		.loc 1 110 0
 2041              		.cfi_startproc
 2042              		@ args = 4, pretend = 0, frame = 0
 2043              		@ frame_needed = 0, uses_anonymous_args = 0
 2044              	.LVL313:
 2045 0000 2DE9F041 		push	{r4, r5, r6, r7, r8, lr}
 2046              		.cfi_def_cfa_offset 24
 2047              		.cfi_offset 4, -24
 2048              		.cfi_offset 5, -20
 2049              		.cfi_offset 6, -16
 2050              		.cfi_offset 7, -12
 2051              		.cfi_offset 8, -8
 2052              		.cfi_offset 14, -4
 2053 0004 0746     		mov	r7, r0
 2054 0006 0846     		mov	r0, r1
 2055              	.LVL314:
 2056 0008 9046     		mov	r8, r2
 2057 000a 1D46     		mov	r5, r3
 2058 000c 069C     		ldr	r4, [sp, #24]
 111:..\..\..\liblc3\src/lc3.c ****     enum lc3_srate sr = resolve_srate(sr_hz, hrmode);
 2059              		.loc 1 111 0
 2060 000e 3946     		mov	r1, r7
 2061              	.LVL315:
 2062 0010 FFF7FEFF 		bl	resolve_dt
 2063              	.LVL316:
 2064 0014 0646     		mov	r6, r0
 2065              	.LVL317:
ARM GAS  C:\Users\rdn\AppData\Local\Temp\ccCxUcqe.s 			page 58


 112:..\..\..\liblc3\src/lc3.c **** 
 2066              		.loc 1 112 0
 2067 0016 3946     		mov	r1, r7
 2068 0018 4046     		mov	r0, r8
 2069 001a FFF7FEFF 		bl	resolve_srate
 2070              	.LVL318:
 114:..\..\..\liblc3\src/lc3.c ****             || nchannels < 1 || nchannels > 8 || bitrate < 0)
 2071              		.loc 1 114 0
 2072 001e 032E     		cmp	r6, #3
 2073 0020 6CD8     		bhi	.L167
 114:..\..\..\liblc3\src/lc3.c ****             || nchannels < 1 || nchannels > 8 || bitrate < 0)
 2074              		.loc 1 114 0 is_stmt 0 discriminator 1
 2075 0022 0628     		cmp	r0, #6
 2076 0024 6DD8     		bhi	.L168
 115:..\..\..\liblc3\src/lc3.c ****         return -1;
 2077              		.loc 1 115 0 is_stmt 1
 2078 0026 002D     		cmp	r5, #0
 2079 0028 6EDD     		ble	.L169
 115:..\..\..\liblc3\src/lc3.c ****         return -1;
 2080              		.loc 1 115 0 is_stmt 0 discriminator 1
 2081 002a 082D     		cmp	r5, #8
 2082 002c 6FDC     		bgt	.L170
 115:..\..\..\liblc3\src/lc3.c ****         return -1;
 2083              		.loc 1 115 0 discriminator 2
 2084 002e 002C     		cmp	r4, #0
 2085 0030 70DB     		blt	.L171
 118:..\..\..\liblc3\src/lc3.c **** 
 2086              		.loc 1 118 0 is_stmt 1
 2087 0032 3B4B     		ldr	r3, .L181
 2088 0034 9C42     		cmp	r4, r3
 2089 0036 02DC     		bgt	.L172
 118:..\..\..\liblc3\src/lc3.c **** 
 2090              		.loc 1 118 0 is_stmt 0 discriminator 1
 2091 0038 24EAE474 		bic	r4, r4, r4, asr #31
 2092 003c 00E0     		b	.L158
 2093              	.L172:
 118:..\..\..\liblc3\src/lc3.c **** 
 2094              		.loc 1 118 0
 2095 003e 394C     		ldr	r4, .L181+4
 2096              	.L158:
 2097              	.LVL319:
 120:..\..\..\liblc3\src/lc3.c ****         nchannels * lc3_min_frame_bytes(dt, sr),
 2098              		.loc 1 120 0 is_stmt 1 discriminator 4
 2099 0040 06FB0444 		mla	r4, r6, r4, r4
 2100              	.LVL320:
 2101 0044 384B     		ldr	r3, .L181+8
 2102 0046 83FB0423 		smull	r2, r3, r3, r4
 2103 004a E417     		asrs	r4, r4, #31
 2104 004c C4EBA323 		rsb	r3, r4, r3, asr #10
 2105              	.LVL321:
 2106              	.LBB193:
 2107              	.LBB194:
  66:..\..\..\liblc3\src/tables.h **** }
  67:..\..\..\liblc3\src/tables.h **** 
  68:..\..\..\liblc3\src/tables.h **** #define LC3_MAX_SRATE_HZ  ( LC3_PLUS_HR ? 96000 : 48000 )
  69:..\..\..\liblc3\src/tables.h **** 
  70:..\..\..\liblc3\src/tables.h **** #define LC3_MAX_NS  ( LC3_NS(10000, LC3_MAX_SRATE_HZ) )
ARM GAS  C:\Users\rdn\AppData\Local\Temp\ccCxUcqe.s 			page 59


  71:..\..\..\liblc3\src/tables.h **** #define LC3_MAX_NE  ( LC3_PLUS_HR ? LC3_MAX_NS : LC3_NS(10000, 40000) )
  72:..\..\..\liblc3\src/tables.h **** 
  73:..\..\..\liblc3\src/tables.h **** 
  74:..\..\..\liblc3\src/tables.h **** /**
  75:..\..\..\liblc3\src/tables.h ****  * Limits on size of frame
  76:..\..\..\liblc3\src/tables.h ****  */
  77:..\..\..\liblc3\src/tables.h **** 
  78:..\..\..\liblc3\src/tables.h **** extern const int lc3_frame_bytes_hr_lim
  79:..\..\..\liblc3\src/tables.h ****         [LC3_NUM_DT][LC3_NUM_SRATE - LC3_SRATE_48K_HR][2];
  80:..\..\..\liblc3\src/tables.h **** 
  81:..\..\..\liblc3\src/tables.h **** static inline int lc3_min_frame_bytes(enum lc3_dt dt, enum lc3_srate sr) {
  82:..\..\..\liblc3\src/tables.h ****     return !lc3_hr(sr) ? LC3_MIN_FRAME_BYTES :
 2108              		.loc 2 82 0 discriminator 4
 2109 0050 0428     		cmp	r0, #4
 2110 0052 06D9     		bls	.L173
  83:..\..\..\liblc3\src/tables.h ****         lc3_frame_bytes_hr_lim[dt][sr - LC3_SRATE_48K_HR][0];
 2111              		.loc 2 83 0
 2112 0054 421F     		subs	r2, r0, #5
  82:..\..\..\liblc3\src/tables.h ****         lc3_frame_bytes_hr_lim[dt][sr - LC3_SRATE_48K_HR][0];
 2113              		.loc 2 82 0
 2114 0056 02EB4602 		add	r2, r2, r6, lsl #1
 2115 005a 3449     		ldr	r1, .L181+12
 2116 005c 51F83220 		ldr	r2, [r1, r2, lsl #3]
 2117 0060 00E0     		b	.L159
 2118              	.L173:
 2119 0062 1422     		movs	r2, #20
 2120              	.L159:
 2121              	.LVL322:
 2122              	.LBE194:
 2123              	.LBE193:
 120:..\..\..\liblc3\src/lc3.c ****         nchannels * lc3_min_frame_bytes(dt, sr),
 2124              		.loc 1 120 0
 2125 0064 02FB05F2 		mul	r2, r2, r5
 2126 0068 9342     		cmp	r3, r2
 2127 006a 0CDC     		bgt	.L174
 2128              	.LVL323:
 2129              	.LBB195:
 2130              	.LBB196:
  82:..\..\..\liblc3\src/tables.h ****         lc3_frame_bytes_hr_lim[dt][sr - LC3_SRATE_48K_HR][0];
 2131              		.loc 2 82 0
 2132 006c 0428     		cmp	r0, #4
 2133 006e 06D9     		bls	.L175
 2134              		.loc 2 83 0
 2135 0070 421F     		subs	r2, r0, #5
  82:..\..\..\liblc3\src/tables.h ****         lc3_frame_bytes_hr_lim[dt][sr - LC3_SRATE_48K_HR][0];
 2136              		.loc 2 82 0
 2137 0072 02EB4602 		add	r2, r2, r6, lsl #1
 2138 0076 2D49     		ldr	r1, .L181+12
 2139 0078 51F83210 		ldr	r1, [r1, r2, lsl #3]
 2140 007c 00E0     		b	.L161
 2141              	.L175:
 2142 007e 1421     		movs	r1, #20
 2143              	.L161:
 2144              	.LVL324:
 2145              	.LBE196:
 2146              	.LBE195:
 120:..\..\..\liblc3\src/lc3.c ****         nchannels * lc3_min_frame_bytes(dt, sr),
ARM GAS  C:\Users\rdn\AppData\Local\Temp\ccCxUcqe.s 			page 60


 2147              		.loc 1 120 0
 2148 0080 01FB05F1 		mul	r1, r1, r5
 2149 0084 00E0     		b	.L160
 2150              	.L174:
 2151 0086 1946     		mov	r1, r3
 2152              	.L160:
 2153              	.LVL325:
 2154              	.LBB197:
 2155              	.LBB198:
  84:..\..\..\liblc3\src/tables.h **** }
  85:..\..\..\liblc3\src/tables.h **** 
  86:..\..\..\liblc3\src/tables.h **** static inline int lc3_max_frame_bytes(enum lc3_dt dt, enum lc3_srate sr) {
  87:..\..\..\liblc3\src/tables.h ****     return !lc3_hr(sr) ? LC3_MAX_FRAME_BYTES :
 2156              		.loc 2 87 0 discriminator 4
 2157 0088 0428     		cmp	r0, #4
 2158 008a 07D9     		bls	.L176
  88:..\..\..\liblc3\src/tables.h ****         lc3_frame_bytes_hr_lim[dt][sr - LC3_SRATE_48K_HR][1];
 2159              		.loc 2 88 0
 2160 008c 421F     		subs	r2, r0, #5
  87:..\..\..\liblc3\src/tables.h ****         lc3_frame_bytes_hr_lim[dt][sr - LC3_SRATE_48K_HR][1];
 2161              		.loc 2 87 0
 2162 008e 02EB4604 		add	r4, r2, r6, lsl #1
 2163 0092 264A     		ldr	r2, .L181+12
 2164 0094 02EBC402 		add	r2, r2, r4, lsl #3
 2165 0098 5268     		ldr	r2, [r2, #4]
 2166 009a 01E0     		b	.L162
 2167              	.L176:
 2168 009c 4FF4C872 		mov	r2, #400
 2169              	.L162:
 2170              	.LVL326:
 2171              	.LBE198:
 2172              	.LBE197:
 120:..\..\..\liblc3\src/lc3.c ****         nchannels * lc3_min_frame_bytes(dt, sr),
 2173              		.loc 1 120 0
 2174 00a0 02FB05F2 		mul	r2, r2, r5
 2175 00a4 9142     		cmp	r1, r2
 2176 00a6 1ADA     		bge	.L163
 2177              	.LVL327:
 2178              	.LBB199:
 2179              	.LBB200:
  82:..\..\..\liblc3\src/tables.h ****         lc3_frame_bytes_hr_lim[dt][sr - LC3_SRATE_48K_HR][0];
 2180              		.loc 2 82 0 discriminator 5
 2181 00a8 0428     		cmp	r0, #4
 2182 00aa 06D9     		bls	.L177
  83:..\..\..\liblc3\src/tables.h **** }
 2183              		.loc 2 83 0
 2184 00ac 421F     		subs	r2, r0, #5
  82:..\..\..\liblc3\src/tables.h ****         lc3_frame_bytes_hr_lim[dt][sr - LC3_SRATE_48K_HR][0];
 2185              		.loc 2 82 0
 2186 00ae 02EB4602 		add	r2, r2, r6, lsl #1
 2187 00b2 1E49     		ldr	r1, .L181+12
 2188 00b4 51F83220 		ldr	r2, [r1, r2, lsl #3]
 2189 00b8 00E0     		b	.L164
 2190              	.L177:
 2191 00ba 1422     		movs	r2, #20
 2192              	.L164:
 2193              	.LVL328:
ARM GAS  C:\Users\rdn\AppData\Local\Temp\ccCxUcqe.s 			page 61


 2194              	.LBE200:
 2195              	.LBE199:
 120:..\..\..\liblc3\src/lc3.c ****         nchannels * lc3_min_frame_bytes(dt, sr),
 2196              		.loc 1 120 0
 2197 00bc 02FB05F2 		mul	r2, r2, r5
 2198 00c0 9342     		cmp	r3, r2
 2199 00c2 29DC     		bgt	.L157
 2200              	.LVL329:
 2201              	.LBB201:
 2202              	.LBB202:
  82:..\..\..\liblc3\src/tables.h ****         lc3_frame_bytes_hr_lim[dt][sr - LC3_SRATE_48K_HR][0];
 2203              		.loc 2 82 0
 2204 00c4 0428     		cmp	r0, #4
 2205 00c6 06D9     		bls	.L178
  83:..\..\..\liblc3\src/tables.h **** }
 2206              		.loc 2 83 0
 2207 00c8 0538     		subs	r0, r0, #5
 2208              	.LVL330:
  82:..\..\..\liblc3\src/tables.h ****         lc3_frame_bytes_hr_lim[dt][sr - LC3_SRATE_48K_HR][0];
 2209              		.loc 2 82 0
 2210 00ca 00EB4600 		add	r0, r0, r6, lsl #1
 2211 00ce 174B     		ldr	r3, .L181+12
 2212 00d0 53F83030 		ldr	r3, [r3, r0, lsl #3]
 2213 00d4 00E0     		b	.L165
 2214              	.LVL331:
 2215              	.L178:
 2216 00d6 1423     		movs	r3, #20
 2217              	.LVL332:
 2218              	.L165:
 2219              	.LBE202:
 2220              	.LBE201:
 120:..\..\..\liblc3\src/lc3.c ****         nchannels * lc3_min_frame_bytes(dt, sr),
 2221              		.loc 1 120 0
 2222 00d8 03FB05F3 		mul	r3, r3, r5
 2223 00dc 1CE0     		b	.L157
 2224              	.LVL333:
 2225              	.L163:
 2226              	.LBB203:
 2227              	.LBB204:
  87:..\..\..\liblc3\src/tables.h ****         lc3_frame_bytes_hr_lim[dt][sr - LC3_SRATE_48K_HR][1];
 2228              		.loc 2 87 0
 2229 00de 0428     		cmp	r0, #4
 2230 00e0 07D9     		bls	.L179
 2231              		.loc 2 88 0
 2232 00e2 0538     		subs	r0, r0, #5
 2233              	.LVL334:
  87:..\..\..\liblc3\src/tables.h ****         lc3_frame_bytes_hr_lim[dt][sr - LC3_SRATE_48K_HR][1];
 2234              		.loc 2 87 0
 2235 00e4 00EB4600 		add	r0, r0, r6, lsl #1
 2236 00e8 104B     		ldr	r3, .L181+12
 2237 00ea 03EBC000 		add	r0, r3, r0, lsl #3
 2238 00ee 4368     		ldr	r3, [r0, #4]
 2239 00f0 01E0     		b	.L166
 2240              	.LVL335:
 2241              	.L179:
 2242 00f2 4FF4C873 		mov	r3, #400
 2243              	.LVL336:
ARM GAS  C:\Users\rdn\AppData\Local\Temp\ccCxUcqe.s 			page 62


 2244              	.L166:
 2245              	.LBE204:
 2246              	.LBE203:
 120:..\..\..\liblc3\src/lc3.c ****         nchannels * lc3_min_frame_bytes(dt, sr),
 2247              		.loc 1 120 0
 2248 00f6 03FB05F3 		mul	r3, r3, r5
 2249 00fa 0DE0     		b	.L157
 2250              	.LVL337:
 2251              	.L167:
 116:..\..\..\liblc3\src/lc3.c **** 
 2252              		.loc 1 116 0
 2253 00fc 4FF0FF33 		mov	r3, #-1
 2254 0100 0AE0     		b	.L157
 2255              	.L168:
 2256 0102 4FF0FF33 		mov	r3, #-1
 2257 0106 07E0     		b	.L157
 2258              	.L169:
 2259 0108 4FF0FF33 		mov	r3, #-1
 2260 010c 04E0     		b	.L157
 2261              	.L170:
 2262 010e 4FF0FF33 		mov	r3, #-1
 2263 0112 01E0     		b	.L157
 2264              	.L171:
 2265 0114 4FF0FF33 		mov	r3, #-1
 2266              	.LVL338:
 2267              	.L157:
 123:..\..\..\liblc3\src/lc3.c **** 
 2268              		.loc 1 123 0
 2269 0118 1846     		mov	r0, r3
 2270 011a BDE8F081 		pop	{r4, r5, r6, r7, r8, pc}
 2271              	.LVL339:
 2272              	.L182:
 2273 011e 00BF     		.align	2
 2274              	.L181:
 2275 0120 FF075200 		.word	5375999
 2276 0124 00085200 		.word	5376000
 2277 0128 1F85EB51 		.word	1374389535
 2278 012c 00000000 		.word	lc3_frame_bytes_hr_lim
 2279              		.cfi_endproc
 2280              	.LFE24:
 2281              		.size	lc3_hr_frame_block_bytes, .-lc3_hr_frame_block_bytes
 2282              		.section	.text.lc3_frame_bock_bytes,"ax",%progbits
 2283              		.align	2
 2284              		.global	lc3_frame_bock_bytes
 2285              		.thumb
 2286              		.thumb_func
 2287              		.type	lc3_frame_bock_bytes, %function
 2288              	lc3_frame_bock_bytes:
 2289              	.LFB25:
 126:..\..\..\liblc3\src/lc3.c ****     return lc3_hr_frame_block_bytes(false, dt_us, 8000, nchannels, bitrate);
 2290              		.loc 1 126 0
 2291              		.cfi_startproc
 2292              		@ args = 0, pretend = 0, frame = 0
 2293              		@ frame_needed = 0, uses_anonymous_args = 0
 2294              	.LVL340:
 2295 0000 00B5     		push	{lr}
 2296              		.cfi_def_cfa_offset 4
ARM GAS  C:\Users\rdn\AppData\Local\Temp\ccCxUcqe.s 			page 63


 2297              		.cfi_offset 14, -4
 2298 0002 83B0     		sub	sp, sp, #12
 2299              		.cfi_def_cfa_offset 16
 127:..\..\..\liblc3\src/lc3.c **** }
 2300              		.loc 1 127 0
 2301 0004 0092     		str	r2, [sp]
 2302 0006 0B46     		mov	r3, r1
 2303 0008 4FF4FA52 		mov	r2, #8000
 2304              	.LVL341:
 2305 000c 0146     		mov	r1, r0
 2306              	.LVL342:
 2307 000e 0020     		movs	r0, #0
 2308              	.LVL343:
 2309 0010 FFF7FEFF 		bl	lc3_hr_frame_block_bytes
 2310              	.LVL344:
 128:..\..\..\liblc3\src/lc3.c **** 
 2311              		.loc 1 128 0
 2312 0014 03B0     		add	sp, sp, #12
 2313              		.cfi_def_cfa_offset 4
 2314              		@ sp needed
 2315 0016 5DF804FB 		ldr	pc, [sp], #4
 2316              		.cfi_endproc
 2317              	.LFE25:
 2318              		.size	lc3_frame_bock_bytes, .-lc3_frame_bock_bytes
 2319 001a 00BF     		.section	.text.lc3_hr_frame_bytes,"ax",%progbits
 2320              		.align	2
 2321              		.global	lc3_hr_frame_bytes
 2322              		.thumb
 2323              		.thumb_func
 2324              		.type	lc3_hr_frame_bytes, %function
 2325              	lc3_hr_frame_bytes:
 2326              	.LFB26:
 132:..\..\..\liblc3\src/lc3.c ****     return lc3_hr_frame_block_bytes(hrmode, dt_us, sr_hz, 1, bitrate);
 2327              		.loc 1 132 0
 2328              		.cfi_startproc
 2329              		@ args = 0, pretend = 0, frame = 0
 2330              		@ frame_needed = 0, uses_anonymous_args = 0
 2331              	.LVL345:
 2332 0000 00B5     		push	{lr}
 2333              		.cfi_def_cfa_offset 4
 2334              		.cfi_offset 14, -4
 2335 0002 83B0     		sub	sp, sp, #12
 2336              		.cfi_def_cfa_offset 16
 133:..\..\..\liblc3\src/lc3.c **** }
 2337              		.loc 1 133 0
 2338 0004 0093     		str	r3, [sp]
 2339 0006 0123     		movs	r3, #1
 2340              	.LVL346:
 2341 0008 FFF7FEFF 		bl	lc3_hr_frame_block_bytes
 2342              	.LVL347:
 134:..\..\..\liblc3\src/lc3.c **** 
 2343              		.loc 1 134 0
 2344 000c 03B0     		add	sp, sp, #12
 2345              		.cfi_def_cfa_offset 4
 2346              		@ sp needed
 2347 000e 5DF804FB 		ldr	pc, [sp], #4
 2348              		.cfi_endproc
ARM GAS  C:\Users\rdn\AppData\Local\Temp\ccCxUcqe.s 			page 64


 2349              	.LFE26:
 2350              		.size	lc3_hr_frame_bytes, .-lc3_hr_frame_bytes
 2351 0012 00BF     		.section	.text.lc3_frame_bytes,"ax",%progbits
 2352              		.align	2
 2353              		.global	lc3_frame_bytes
 2354              		.thumb
 2355              		.thumb_func
 2356              		.type	lc3_frame_bytes, %function
 2357              	lc3_frame_bytes:
 2358              	.LFB27:
 137:..\..\..\liblc3\src/lc3.c ****     return lc3_hr_frame_bytes(false, dt_us, 8000, bitrate);
 2359              		.loc 1 137 0
 2360              		.cfi_startproc
 2361              		@ args = 0, pretend = 0, frame = 0
 2362              		@ frame_needed = 0, uses_anonymous_args = 0
 2363              	.LVL348:
 2364 0000 08B5     		push	{r3, lr}
 2365              		.cfi_def_cfa_offset 8
 2366              		.cfi_offset 3, -8
 2367              		.cfi_offset 14, -4
 138:..\..\..\liblc3\src/lc3.c **** }
 2368              		.loc 1 138 0
 2369 0002 0B46     		mov	r3, r1
 2370 0004 4FF4FA52 		mov	r2, #8000
 2371 0008 0146     		mov	r1, r0
 2372              	.LVL349:
 2373 000a 0020     		movs	r0, #0
 2374              	.LVL350:
 2375 000c FFF7FEFF 		bl	lc3_hr_frame_bytes
 2376              	.LVL351:
 139:..\..\..\liblc3\src/lc3.c **** 
 2377              		.loc 1 139 0
 2378 0010 08BD     		pop	{r3, pc}
 2379              		.cfi_endproc
 2380              	.LFE27:
 2381              		.size	lc3_frame_bytes, .-lc3_frame_bytes
 2382              		.global	__aeabi_ldivmod
 2383 0012 00BF     		.section	.text.lc3_hr_resolve_bitrate,"ax",%progbits
 2384              		.align	2
 2385              		.global	lc3_hr_resolve_bitrate
 2386              		.thumb
 2387              		.thumb_func
 2388              		.type	lc3_hr_resolve_bitrate, %function
 2389              	lc3_hr_resolve_bitrate:
 2390              	.LFB28:
 146:..\..\..\liblc3\src/lc3.c ****     enum lc3_dt dt = resolve_dt(dt_us, hrmode);
 2391              		.loc 1 146 0
 2392              		.cfi_startproc
 2393              		@ args = 0, pretend = 0, frame = 0
 2394              		@ frame_needed = 0, uses_anonymous_args = 0
 2395              	.LVL352:
 2396 0000 F8B5     		push	{r3, r4, r5, r6, r7, lr}
 2397              		.cfi_def_cfa_offset 24
 2398              		.cfi_offset 3, -24
 2399              		.cfi_offset 4, -20
 2400              		.cfi_offset 5, -16
 2401              		.cfi_offset 6, -12
ARM GAS  C:\Users\rdn\AppData\Local\Temp\ccCxUcqe.s 			page 65


 2402              		.cfi_offset 7, -8
 2403              		.cfi_offset 14, -4
 2404 0002 0546     		mov	r5, r0
 2405 0004 0846     		mov	r0, r1
 2406              	.LVL353:
 2407 0006 1746     		mov	r7, r2
 2408 0008 1C46     		mov	r4, r3
 147:..\..\..\liblc3\src/lc3.c ****     enum lc3_srate sr = resolve_srate(sr_hz, hrmode);
 2409              		.loc 1 147 0
 2410 000a 2946     		mov	r1, r5
 2411              	.LVL354:
 2412 000c FFF7FEFF 		bl	resolve_dt
 2413              	.LVL355:
 2414 0010 0646     		mov	r6, r0
 2415              	.LVL356:
 148:..\..\..\liblc3\src/lc3.c **** 
 2416              		.loc 1 148 0
 2417 0012 2946     		mov	r1, r5
 2418 0014 3846     		mov	r0, r7
 2419 0016 FFF7FEFF 		bl	resolve_srate
 2420              	.LVL357:
 150:..\..\..\liblc3\src/lc3.c ****         return -1;
 2421              		.loc 1 150 0
 2422 001a 032E     		cmp	r6, #3
 2423 001c 27D8     		bhi	.L192
 150:..\..\..\liblc3\src/lc3.c ****         return -1;
 2424              		.loc 1 150 0 is_stmt 0 discriminator 1
 2425 001e 0628     		cmp	r0, #6
 2426 0020 28D8     		bhi	.L193
 150:..\..\..\liblc3\src/lc3.c ****         return -1;
 2427              		.loc 1 150 0 discriminator 2
 2428 0022 002C     		cmp	r4, #0
 2429 0024 29DB     		blt	.L194
 153:..\..\..\liblc3\src/lc3.c **** }
 2430              		.loc 1 153 0 is_stmt 1
 2431 0026 E517     		asrs	r5, r4, #31
 2432 0028 2019     		adds	r0, r4, r4
 2433              	.LVL358:
 2434 002a 45EB0501 		adc	r1, r5, r5
 2435 002e 0019     		adds	r0, r0, r4
 2436 0030 6941     		adcs	r1, r1, r5
 2437 0032 CB00     		lsls	r3, r1, #3
 2438 0034 43EA5073 		orr	r3, r3, r0, lsr #29
 2439 0038 C200     		lsls	r2, r0, #3
 2440 003a A418     		adds	r4, r4, r2
 2441              	.LVL359:
 2442 003c 5D41     		adcs	r5, r5, r3
 2443 003e EB01     		lsls	r3, r5, #7
 2444 0040 43EA5463 		orr	r3, r3, r4, lsr #25
 2445 0044 E201     		lsls	r2, r4, #7
 2446 0046 1446     		mov	r4, r2
 2447 0048 1D46     		mov	r5, r3
 2448 004a F0B2     		uxtb	r0, r6
 2449 004c 0021     		movs	r1, #0
 2450 004e 721C     		adds	r2, r6, #1
 2451 0050 D317     		asrs	r3, r2, #31
 2452 0052 0019     		adds	r0, r0, r4
ARM GAS  C:\Users\rdn\AppData\Local\Temp\ccCxUcqe.s 			page 66


 2453 0054 6941     		adcs	r1, r1, r5
 2454 0056 FFF7FEFF 		bl	__aeabi_ldivmod
 2455              	.LVL360:
 2456 005a 0346     		mov	r3, r0
 2457 005c B0F1004F 		cmp	r0, #-2147483648
 2458 0060 71F10002 		sbcs	r2, r1, #0
 2459 0064 01DB     		blt	.L191
 2460 0066 6FF00043 		mvn	r3, #-2147483648
 2461              	.L191:
 2462 006a 1846     		mov	r0, r3
 2463 006c F8BD     		pop	{r3, r4, r5, r6, r7, pc}
 2464              	.LVL361:
 2465              	.L192:
 151:..\..\..\liblc3\src/lc3.c **** 
 2466              		.loc 1 151 0
 2467 006e 4FF0FF30 		mov	r0, #-1
 2468              	.LVL362:
 2469 0072 F8BD     		pop	{r3, r4, r5, r6, r7, pc}
 2470              	.LVL363:
 2471              	.L193:
 2472 0074 4FF0FF30 		mov	r0, #-1
 2473              	.LVL364:
 2474 0078 F8BD     		pop	{r3, r4, r5, r6, r7, pc}
 2475              	.LVL365:
 2476              	.L194:
 2477 007a 4FF0FF30 		mov	r0, #-1
 2478              	.LVL366:
 154:..\..\..\liblc3\src/lc3.c **** 
 2479              		.loc 1 154 0
 2480 007e F8BD     		pop	{r3, r4, r5, r6, r7, pc}
 2481              		.cfi_endproc
 2482              	.LFE28:
 2483              		.size	lc3_hr_resolve_bitrate, .-lc3_hr_resolve_bitrate
 2484              		.section	.text.lc3_resolve_bitrate,"ax",%progbits
 2485              		.align	2
 2486              		.global	lc3_resolve_bitrate
 2487              		.thumb
 2488              		.thumb_func
 2489              		.type	lc3_resolve_bitrate, %function
 2490              	lc3_resolve_bitrate:
 2491              	.LFB29:
 157:..\..\..\liblc3\src/lc3.c ****     return lc3_hr_resolve_bitrate(false, dt_us, 8000, nbytes);
 2492              		.loc 1 157 0
 2493              		.cfi_startproc
 2494              		@ args = 0, pretend = 0, frame = 0
 2495              		@ frame_needed = 0, uses_anonymous_args = 0
 2496              	.LVL367:
 2497 0000 08B5     		push	{r3, lr}
 2498              		.cfi_def_cfa_offset 8
 2499              		.cfi_offset 3, -8
 2500              		.cfi_offset 14, -4
 158:..\..\..\liblc3\src/lc3.c **** }
 2501              		.loc 1 158 0
 2502 0002 0B46     		mov	r3, r1
 2503 0004 4FF4FA52 		mov	r2, #8000
 2504 0008 0146     		mov	r1, r0
 2505              	.LVL368:
ARM GAS  C:\Users\rdn\AppData\Local\Temp\ccCxUcqe.s 			page 67


 2506 000a 0020     		movs	r0, #0
 2507              	.LVL369:
 2508 000c FFF7FEFF 		bl	lc3_hr_resolve_bitrate
 2509              	.LVL370:
 159:..\..\..\liblc3\src/lc3.c **** 
 2510              		.loc 1 159 0
 2511 0010 08BD     		pop	{r3, pc}
 2512              		.cfi_endproc
 2513              	.LFE29:
 2514              		.size	lc3_resolve_bitrate, .-lc3_resolve_bitrate
 2515 0012 00BF     		.section	.text.lc3_hr_delay_samples,"ax",%progbits
 2516              		.align	2
 2517              		.global	lc3_hr_delay_samples
 2518              		.thumb
 2519              		.thumb_func
 2520              		.type	lc3_hr_delay_samples, %function
 2521              	lc3_hr_delay_samples:
 2522              	.LFB30:
 165:..\..\..\liblc3\src/lc3.c ****     enum lc3_dt dt = resolve_dt(dt_us, hrmode);
 2523              		.loc 1 165 0
 2524              		.cfi_startproc
 2525              		@ args = 0, pretend = 0, frame = 0
 2526              		@ frame_needed = 0, uses_anonymous_args = 0
 2527              	.LVL371:
 2528 0000 70B5     		push	{r4, r5, r6, lr}
 2529              		.cfi_def_cfa_offset 16
 2530              		.cfi_offset 4, -16
 2531              		.cfi_offset 5, -12
 2532              		.cfi_offset 6, -8
 2533              		.cfi_offset 14, -4
 2534 0002 0546     		mov	r5, r0
 2535 0004 0846     		mov	r0, r1
 2536              	.LVL372:
 2537 0006 1646     		mov	r6, r2
 166:..\..\..\liblc3\src/lc3.c ****     enum lc3_srate sr = resolve_srate(sr_hz, hrmode);
 2538              		.loc 1 166 0
 2539 0008 2946     		mov	r1, r5
 2540              	.LVL373:
 2541 000a FFF7FEFF 		bl	resolve_dt
 2542              	.LVL374:
 2543 000e 0446     		mov	r4, r0
 2544              	.LVL375:
 167:..\..\..\liblc3\src/lc3.c **** 
 2545              		.loc 1 167 0
 2546 0010 2946     		mov	r1, r5
 2547 0012 3046     		mov	r0, r6
 2548 0014 FFF7FEFF 		bl	resolve_srate
 2549              	.LVL376:
 169:..\..\..\liblc3\src/lc3.c ****         return -1;
 2550              		.loc 1 169 0
 2551 0018 032C     		cmp	r4, #3
 2552 001a 10D8     		bhi	.L201
 169:..\..\..\liblc3\src/lc3.c ****         return -1;
 2553              		.loc 1 169 0 is_stmt 0 discriminator 1
 2554 001c 0628     		cmp	r0, #6
 2555 001e 11D8     		bhi	.L202
 2556              	.LVL377:
ARM GAS  C:\Users\rdn\AppData\Local\Temp\ccCxUcqe.s 			page 68


 2557              	.LBB205:
 2558              	.LBB206:
 2559              	.LBB207:
 2560              	.LBB208:
  47:..\..\..\liblc3\src/tables.h **** }
 2561              		.loc 2 47 0 is_stmt 1
 2562 0020 0A4B     		ldr	r3, .L204
 2563 0022 53F82030 		ldr	r3, [r3, r0, lsl #2]
 2564 0026 04FB0332 		mla	r2, r4, r3, r3
 2565              	.LVL378:
 2566              	.LBE208:
 2567              	.LBE207:
  56:..\..\..\liblc3\src/tables.h **** }
 2568              		.loc 2 56 0
 2569 002a 022C     		cmp	r4, #2
 2570 002c 02D1     		bne	.L200
 2571 002e 084B     		ldr	r3, .L204+4
 2572 0030 53F82030 		ldr	r3, [r3, r0, lsl #2]
 2573              	.L200:
  55:..\..\..\liblc3\src/tables.h ****         (dt == LC3_DT_7M5 ? lc3_ns_4m[sr] : lc3_ns_2m5[sr]) ) >> 1;
 2574              		.loc 2 55 0
 2575 0034 1344     		add	r3, r3, r2
 2576              	.LVL379:
 2577              	.LBE206:
 2578              	.LBE205:
 172:..\..\..\liblc3\src/lc3.c **** }
 2579              		.loc 1 172 0
 2580 0036 23F00103 		bic	r3, r3, #1
 2581 003a 981A     		subs	r0, r3, r2
 2582              	.LVL380:
 2583 003c 70BD     		pop	{r4, r5, r6, pc}
 2584              	.LVL381:
 2585              	.L201:
 170:..\..\..\liblc3\src/lc3.c **** 
 2586              		.loc 1 170 0
 2587 003e 4FF0FF30 		mov	r0, #-1
 2588              	.LVL382:
 2589 0042 70BD     		pop	{r4, r5, r6, pc}
 2590              	.LVL383:
 2591              	.L202:
 2592 0044 4FF0FF30 		mov	r0, #-1
 2593              	.LVL384:
 173:..\..\..\liblc3\src/lc3.c **** 
 2594              		.loc 1 173 0
 2595 0048 70BD     		pop	{r4, r5, r6, pc}
 2596              	.LVL385:
 2597              	.L205:
 2598 004a 00BF     		.align	2
 2599              	.L204:
 2600 004c 00000000 		.word	lc3_ns_2m5
 2601 0050 00000000 		.word	lc3_ns_4m
 2602              		.cfi_endproc
 2603              	.LFE30:
 2604              		.size	lc3_hr_delay_samples, .-lc3_hr_delay_samples
 2605              		.section	.text.lc3_delay_samples,"ax",%progbits
 2606              		.align	2
 2607              		.global	lc3_delay_samples
ARM GAS  C:\Users\rdn\AppData\Local\Temp\ccCxUcqe.s 			page 69


 2608              		.thumb
 2609              		.thumb_func
 2610              		.type	lc3_delay_samples, %function
 2611              	lc3_delay_samples:
 2612              	.LFB31:
 176:..\..\..\liblc3\src/lc3.c ****     return lc3_hr_delay_samples(false, dt_us, sr_hz);
 2613              		.loc 1 176 0
 2614              		.cfi_startproc
 2615              		@ args = 0, pretend = 0, frame = 0
 2616              		@ frame_needed = 0, uses_anonymous_args = 0
 2617              	.LVL386:
 2618 0000 08B5     		push	{r3, lr}
 2619              		.cfi_def_cfa_offset 8
 2620              		.cfi_offset 3, -8
 2621              		.cfi_offset 14, -4
 177:..\..\..\liblc3\src/lc3.c **** }
 2622              		.loc 1 177 0
 2623 0002 0A46     		mov	r2, r1
 2624 0004 0146     		mov	r1, r0
 2625              	.LVL387:
 2626 0006 0020     		movs	r0, #0
 2627              	.LVL388:
 2628 0008 FFF7FEFF 		bl	lc3_hr_delay_samples
 2629              	.LVL389:
 178:..\..\..\liblc3\src/lc3.c **** 
 2630              		.loc 1 178 0
 2631 000c 08BD     		pop	{r3, pc}
 2632              		.cfi_endproc
 2633              	.LFE31:
 2634              		.size	lc3_delay_samples, .-lc3_delay_samples
 2635 000e 00BF     		.section	.text.lc3_hr_encoder_size,"ax",%progbits
 2636              		.align	2
 2637              		.global	lc3_hr_encoder_size
 2638              		.thumb
 2639              		.thumb_func
 2640              		.type	lc3_hr_encoder_size, %function
 2641              	lc3_hr_encoder_size:
 2642              	.LFB38:
 372:..\..\..\liblc3\src/lc3.c ****     if (resolve_dt(dt_us, hrmode) >= LC3_NUM_DT ||
 2643              		.loc 1 372 0
 2644              		.cfi_startproc
 2645              		@ args = 0, pretend = 0, frame = 0
 2646              		@ frame_needed = 0, uses_anonymous_args = 0
 2647              	.LVL390:
 2648 0000 70B5     		push	{r4, r5, r6, lr}
 2649              		.cfi_def_cfa_offset 16
 2650              		.cfi_offset 4, -16
 2651              		.cfi_offset 5, -12
 2652              		.cfi_offset 6, -8
 2653              		.cfi_offset 14, -4
 2654 0002 0646     		mov	r6, r0
 2655 0004 0D46     		mov	r5, r1
 2656 0006 1446     		mov	r4, r2
 373:..\..\..\liblc3\src/lc3.c ****         resolve_srate(sr_hz, hrmode) >= LC3_NUM_SRATE)
 2657              		.loc 1 373 0
 2658 0008 0146     		mov	r1, r0
 2659              	.LVL391:
ARM GAS  C:\Users\rdn\AppData\Local\Temp\ccCxUcqe.s 			page 70


 2660 000a 2846     		mov	r0, r5
 2661              	.LVL392:
 2662 000c FFF7FEFF 		bl	resolve_dt
 2663              	.LVL393:
 2664 0010 0328     		cmp	r0, #3
 2665 0012 34D8     		bhi	.L211
 374:..\..\..\liblc3\src/lc3.c ****         return 0;
 2666              		.loc 1 374 0 discriminator 1
 2667 0014 3146     		mov	r1, r6
 2668 0016 2046     		mov	r0, r4
 2669 0018 FFF7FEFF 		bl	resolve_srate
 2670              	.LVL394:
 373:..\..\..\liblc3\src/lc3.c ****         resolve_srate(sr_hz, hrmode) >= LC3_NUM_SRATE)
 2671              		.loc 1 373 0 discriminator 1
 2672 001c 0628     		cmp	r0, #6
 2673 001e 30D8     		bhi	.L212
 378:..\..\..\liblc3\src/lc3.c **** }
 2674              		.loc 1 378 0
 2675 0020 04FB05F1 		mul	r1, r4, r5
 2676 0024 184B     		ldr	r3, .L215
 2677 0026 83FB0120 		smull	r2, r0, r3, r1
 2678 002a C917     		asrs	r1, r1, #31
 2679 002c C1EBA046 		rsb	r6, r1, r0, asr #18
 2680 0030 40F2E242 		movw	r2, #1250
 2681 0034 02FB04F2 		mul	r2, r2, r4
 2682 0038 83FB02E3 		smull	lr, r3, r3, r2
 2683 003c D217     		asrs	r2, r2, #31
 2684 003e C2EBA343 		rsb	r3, r2, r3, asr #18
 2685 0042 3344     		add	r3, r3, r6
 2686 0044 03EBD373 		add	r3, r3, r3, lsr #31
 2687 0048 06EB6303 		add	r3, r6, r3, asr #1
 2688 004c C1EBE041 		rsb	r1, r1, r0, asr #19
 2689 0050 41F64C52 		movw	r2, #7500
 2690 0054 9542     		cmp	r5, r2
 2691 0056 02D1     		bne	.L213
 2692 0058 4FF4FA62 		mov	r2, #2000
 2693 005c 01E0     		b	.L210
 2694              	.L213:
 2695 005e 40F2E242 		movw	r2, #1250
 2696              	.L210:
 378:..\..\..\liblc3\src/lc3.c **** }
 2697              		.loc 1 378 0 is_stmt 0 discriminator 4
 2698 0062 04FB02F4 		mul	r4, r4, r2
 2699              	.LVL395:
 2700 0066 0848     		ldr	r0, .L215
 2701 0068 80FB0420 		smull	r2, r0, r0, r4
 2702 006c E417     		asrs	r4, r4, #31
 2703 006e C4EBA044 		rsb	r4, r4, r0, asr #18
 2704 0072 0C44     		add	r4, r4, r1
 2705 0074 1819     		adds	r0, r3, r4
 377:..\..\..\liblc3\src/lc3.c ****         (LC3_ENCODER_BUFFER_COUNT(dt_us, sr_hz)-1) * sizeof(float);
 2706              		.loc 1 377 0 is_stmt 1 discriminator 4
 2707 0076 00F22B10 		addw	r0, r0, #299
 2708 007a 8000     		lsls	r0, r0, #2
 2709 007c 70BD     		pop	{r4, r5, r6, pc}
 2710              	.LVL396:
 2711              	.L211:
ARM GAS  C:\Users\rdn\AppData\Local\Temp\ccCxUcqe.s 			page 71


 375:..\..\..\liblc3\src/lc3.c **** 
 2712              		.loc 1 375 0
 2713 007e 0020     		movs	r0, #0
 2714 0080 70BD     		pop	{r4, r5, r6, pc}
 2715              	.LVL397:
 2716              	.L212:
 2717 0082 0020     		movs	r0, #0
 379:..\..\..\liblc3\src/lc3.c **** 
 2718              		.loc 1 379 0
 2719 0084 70BD     		pop	{r4, r5, r6, pc}
 2720              	.LVL398:
 2721              	.L216:
 2722 0086 00BF     		.align	2
 2723              	.L215:
 2724 0088 83DE1B43 		.word	1125899907
 2725              		.cfi_endproc
 2726              	.LFE38:
 2727              		.size	lc3_hr_encoder_size, .-lc3_hr_encoder_size
 2728              		.section	.text.lc3_encoder_size,"ax",%progbits
 2729              		.align	2
 2730              		.global	lc3_encoder_size
 2731              		.thumb
 2732              		.thumb_func
 2733              		.type	lc3_encoder_size, %function
 2734              	lc3_encoder_size:
 2735              	.LFB39:
 382:..\..\..\liblc3\src/lc3.c ****     return lc3_hr_encoder_size(false, dt_us, sr_hz);
 2736              		.loc 1 382 0
 2737              		.cfi_startproc
 2738              		@ args = 0, pretend = 0, frame = 0
 2739              		@ frame_needed = 0, uses_anonymous_args = 0
 2740              	.LVL399:
 2741 0000 08B5     		push	{r3, lr}
 2742              		.cfi_def_cfa_offset 8
 2743              		.cfi_offset 3, -8
 2744              		.cfi_offset 14, -4
 383:..\..\..\liblc3\src/lc3.c **** }
 2745              		.loc 1 383 0
 2746 0002 0A46     		mov	r2, r1
 2747 0004 0146     		mov	r1, r0
 2748              	.LVL400:
 2749 0006 0020     		movs	r0, #0
 2750              	.LVL401:
 2751 0008 FFF7FEFF 		bl	lc3_hr_encoder_size
 2752              	.LVL402:
 384:..\..\..\liblc3\src/lc3.c **** 
 2753              		.loc 1 384 0
 2754 000c 08BD     		pop	{r3, pc}
 2755              		.cfi_endproc
 2756              	.LFE39:
 2757              		.size	lc3_encoder_size, .-lc3_encoder_size
 2758 000e 00BF     		.section	.text.lc3_hr_setup_encoder,"ax",%progbits
 2759              		.align	2
 2760              		.global	lc3_hr_setup_encoder
 2761              		.thumb
 2762              		.thumb_func
 2763              		.type	lc3_hr_setup_encoder, %function
ARM GAS  C:\Users\rdn\AppData\Local\Temp\ccCxUcqe.s 			page 72


 2764              	lc3_hr_setup_encoder:
 2765              	.LFB40:
 391:..\..\..\liblc3\src/lc3.c ****     if (sr_pcm_hz <= 0)
 2766              		.loc 1 391 0
 2767              		.cfi_startproc
 2768              		@ args = 4, pretend = 0, frame = 8
 2769              		@ frame_needed = 0, uses_anonymous_args = 0
 2770              	.LVL403:
 2771 0000 2DE9F04F 		push	{r4, r5, r6, r7, r8, r9, r10, fp, lr}
 2772              		.cfi_def_cfa_offset 36
 2773              		.cfi_offset 4, -36
 2774              		.cfi_offset 5, -32
 2775              		.cfi_offset 6, -28
 2776              		.cfi_offset 7, -24
 2777              		.cfi_offset 8, -20
 2778              		.cfi_offset 9, -16
 2779              		.cfi_offset 10, -12
 2780              		.cfi_offset 11, -8
 2781              		.cfi_offset 14, -4
 2782 0004 83B0     		sub	sp, sp, #12
 2783              		.cfi_def_cfa_offset 48
 2784 0006 0546     		mov	r5, r0
 2785 0008 8A46     		mov	r10, r1
 2786 000a 1646     		mov	r6, r2
 2787 000c 0C9C     		ldr	r4, [sp, #48]
 392:..\..\..\liblc3\src/lc3.c ****         sr_pcm_hz = sr_hz;
 2788              		.loc 1 392 0
 2789 000e 1F1E     		subs	r7, r3, #0
 2790 0010 00DC     		bgt	.L220
 393:..\..\..\liblc3\src/lc3.c **** 
 2791              		.loc 1 393 0
 2792 0012 1746     		mov	r7, r2
 2793              	.L220:
 2794              	.LVL404:
 395:..\..\..\liblc3\src/lc3.c ****     enum lc3_srate sr = resolve_srate(sr_hz, hrmode);
 2795              		.loc 1 395 0
 2796 0014 2946     		mov	r1, r5
 2797              	.LVL405:
 2798 0016 5046     		mov	r0, r10
 2799              	.LVL406:
 2800 0018 FFF7FEFF 		bl	resolve_dt
 2801              	.LVL407:
 2802 001c 8346     		mov	fp, r0
 2803              	.LVL408:
 396:..\..\..\liblc3\src/lc3.c ****     enum lc3_srate sr_pcm = resolve_srate(sr_pcm_hz, hrmode);
 2804              		.loc 1 396 0
 2805 001e 2946     		mov	r1, r5
 2806 0020 3046     		mov	r0, r6
 2807 0022 FFF7FEFF 		bl	resolve_srate
 2808              	.LVL409:
 2809 0026 0646     		mov	r6, r0
 2810              	.LVL410:
 397:..\..\..\liblc3\src/lc3.c **** 
 2811              		.loc 1 397 0
 2812 0028 2946     		mov	r1, r5
 2813 002a 3846     		mov	r0, r7
 2814 002c FFF7FEFF 		bl	resolve_srate
ARM GAS  C:\Users\rdn\AppData\Local\Temp\ccCxUcqe.s 			page 73


 2815              	.LVL411:
 2816 0030 8046     		mov	r8, r0
 2817              	.LVL412:
 399:..\..\..\liblc3\src/lc3.c ****         return NULL;
 2818              		.loc 1 399 0
 2819 0032 BBF1030F 		cmp	fp, #3
 2820 0036 59D8     		bhi	.L224
 399:..\..\..\liblc3\src/lc3.c ****         return NULL;
 2821              		.loc 1 399 0 is_stmt 0 discriminator 1
 2822 0038 0628     		cmp	r0, #6
 2823 003a 59D8     		bhi	.L225
 399:..\..\..\liblc3\src/lc3.c ****         return NULL;
 2824              		.loc 1 399 0 discriminator 2
 2825 003c 0196     		str	r6, [sp, #4]
 2826 003e 8642     		cmp	r6, r0
 2827 0040 58D8     		bhi	.L226
 399:..\..\..\liblc3\src/lc3.c ****         return NULL;
 2828              		.loc 1 399 0 discriminator 3
 2829 0042 002C     		cmp	r4, #0
 2830 0044 58D0     		beq	.L227
 2831              	.LVL413:
 2832              	.LBB209:
 2833              	.LBB210:
  47:..\..\..\liblc3\src/tables.h **** }
 2834              		.loc 2 47 0 is_stmt 1
 2835 0046 2E4B     		ldr	r3, .L230
 2836 0048 53F82060 		ldr	r6, [r3, r0, lsl #2]
 2837              	.LVL414:
 2838 004c 0BFB0669 		mla	r9, fp, r6, r6
 2839              	.LVL415:
 2840              	.LBE210:
 2841              	.LBE209:
 2842              	.LBB211:
 2843              	.LBB212:
  65:..\..\..\liblc3\src/tables.h **** }
 2844              		.loc 2 65 0
 2845 0050 7610     		asrs	r6, r6, #1
 2846              	.LVL416:
 2847              	.LBE212:
 2848              	.LBE211:
 411:..\..\..\liblc3\src/lc3.c ****         .xd_off = (nt + ns) / 2 + ns,
 2849              		.loc 1 411 0
 2850 0052 06EB0905 		add	r5, r6, r9
 412:..\..\..\liblc3\src/lc3.c ****     };
 2851              		.loc 1 412 0
 2852 0056 05EBD575 		add	r5, r5, r5, lsr #31
 2853 005a 6D10     		asrs	r5, r5, #1
 2854 005c A944     		add	r9, r9, r5
 406:..\..\..\liblc3\src/lc3.c ****         .dt = dt, .sr = sr,
 2855              		.loc 1 406 0
 2856 005e 4FF49662 		mov	r2, #1200
 2857 0062 0021     		movs	r1, #0
 2858 0064 2046     		mov	r0, r4
 2859              	.LVL417:
 2860 0066 FFF7FEFF 		bl	memset
 2861              	.LVL418:
 2862 006a 84F800B0 		strb	fp, [r4]
ARM GAS  C:\Users\rdn\AppData\Local\Temp\ccCxUcqe.s 			page 74


 2863 006e 9DF80430 		ldrb	r3, [sp, #4]	@ zero_extendqisi2
 2864 0072 6370     		strb	r3, [r4, #1]
 2865 0074 84F80280 		strb	r8, [r4, #2]
 2866 0078 C4F8A064 		str	r6, [r4, #1184]
 2867 007c C4F8A454 		str	r5, [r4, #1188]
 2868 0080 C4F8A894 		str	r9, [r4, #1192]
 415:..\..\..\liblc3\src/lc3.c ****         LC3_ENCODER_BUFFER_COUNT(dt_us, sr_pcm_hz) * sizeof(float));
 2869              		.loc 1 415 0
 2870 0084 04F2AC40 		addw	r0, r4, #1196
 416:..\..\..\liblc3\src/lc3.c **** 
 2871              		.loc 1 416 0
 2872 0088 0AFB07F5 		mul	r5, r10, r7
 2873 008c 1D4E     		ldr	r6, .L230+4
 2874 008e 86FB0532 		smull	r3, r2, r6, r5
 2875 0092 ED17     		asrs	r5, r5, #31
 2876 0094 C5EBA24E 		rsb	lr, r5, r2, asr #18
 2877 0098 40F2E241 		movw	r1, #1250
 2878 009c 01FB07F1 		mul	r1, r1, r7
 2879 00a0 86FB0163 		smull	r6, r3, r6, r1
 2880 00a4 C917     		asrs	r1, r1, #31
 2881 00a6 C1EBA341 		rsb	r1, r1, r3, asr #18
 2882 00aa 0EEB0103 		add	r3, lr, r1
 2883 00ae 03EBD373 		add	r3, r3, r3, lsr #31
 2884 00b2 0EEB6303 		add	r3, lr, r3, asr #1
 2885 00b6 C5EBE245 		rsb	r5, r5, r2, asr #19
 2886 00ba 41F64C52 		movw	r2, #7500
 2887 00be 9245     		cmp	r10, r2
 2888 00c0 02D1     		bne	.L228
 2889 00c2 4FF4FA61 		mov	r1, #2000
 2890 00c6 01E0     		b	.L222
 2891              	.L228:
 2892 00c8 40F2E241 		movw	r1, #1250
 2893              	.L222:
 416:..\..\..\liblc3\src/lc3.c **** 
 2894              		.loc 1 416 0 is_stmt 0 discriminator 4
 2895 00cc 01FB07F7 		mul	r7, r1, r7
 2896              	.LVL419:
 2897 00d0 0C4A     		ldr	r2, .L230+4
 2898 00d2 82FB0712 		smull	r1, r2, r2, r7
 2899 00d6 FF17     		asrs	r7, r7, #31
 2900 00d8 C7EBA247 		rsb	r7, r7, r2, asr #18
 2901 00dc EA19     		adds	r2, r5, r7
 2902 00de 1A44     		add	r2, r2, r3
 415:..\..\..\liblc3\src/lc3.c ****         LC3_ENCODER_BUFFER_COUNT(dt_us, sr_pcm_hz) * sizeof(float));
 2903              		.loc 1 415 0 is_stmt 1 discriminator 4
 2904 00e0 9200     		lsls	r2, r2, #2
 2905 00e2 0021     		movs	r1, #0
 2906 00e4 FFF7FEFF 		bl	memset
 2907              	.LVL420:
 418:..\..\..\liblc3\src/lc3.c **** }
 2908              		.loc 1 418 0 discriminator 4
 2909 00e8 2046     		mov	r0, r4
 2910 00ea 06E0     		b	.L221
 2911              	.LVL421:
 2912              	.L224:
 400:..\..\..\liblc3\src/lc3.c **** 
 2913              		.loc 1 400 0
ARM GAS  C:\Users\rdn\AppData\Local\Temp\ccCxUcqe.s 			page 75


 2914 00ec 0020     		movs	r0, #0
 2915              	.LVL422:
 2916 00ee 04E0     		b	.L221
 2917              	.LVL423:
 2918              	.L225:
 2919 00f0 0020     		movs	r0, #0
 2920              	.LVL424:
 2921 00f2 02E0     		b	.L221
 2922              	.LVL425:
 2923              	.L226:
 2924 00f4 0020     		movs	r0, #0
 2925              	.LVL426:
 2926 00f6 00E0     		b	.L221
 2927              	.LVL427:
 2928              	.L227:
 2929 00f8 0020     		movs	r0, #0
 2930              	.LVL428:
 2931              	.L221:
 419:..\..\..\liblc3\src/lc3.c **** 
 2932              		.loc 1 419 0
 2933 00fa 03B0     		add	sp, sp, #12
 2934              		.cfi_def_cfa_offset 36
 2935              		@ sp needed
 2936 00fc BDE8F08F 		pop	{r4, r5, r6, r7, r8, r9, r10, fp, pc}
 2937              	.LVL429:
 2938              	.L231:
 2939              		.align	2
 2940              	.L230:
 2941 0100 00000000 		.word	lc3_ns_2m5
 2942 0104 83DE1B43 		.word	1125899907
 2943              		.cfi_endproc
 2944              	.LFE40:
 2945              		.size	lc3_hr_setup_encoder, .-lc3_hr_setup_encoder
 2946              		.section	.text.lc3_setup_encoder,"ax",%progbits
 2947              		.align	2
 2948              		.global	lc3_setup_encoder
 2949              		.thumb
 2950              		.thumb_func
 2951              		.type	lc3_setup_encoder, %function
 2952              	lc3_setup_encoder:
 2953              	.LFB41:
 423:..\..\..\liblc3\src/lc3.c ****     return lc3_hr_setup_encoder(false, dt_us, sr_hz, sr_pcm_hz, mem);
 2954              		.loc 1 423 0
 2955              		.cfi_startproc
 2956              		@ args = 0, pretend = 0, frame = 0
 2957              		@ frame_needed = 0, uses_anonymous_args = 0
 2958              	.LVL430:
 2959 0000 00B5     		push	{lr}
 2960              		.cfi_def_cfa_offset 4
 2961              		.cfi_offset 14, -4
 2962 0002 83B0     		sub	sp, sp, #12
 2963              		.cfi_def_cfa_offset 16
 424:..\..\..\liblc3\src/lc3.c **** }
 2964              		.loc 1 424 0
 2965 0004 0093     		str	r3, [sp]
 2966 0006 1346     		mov	r3, r2
 2967              	.LVL431:
ARM GAS  C:\Users\rdn\AppData\Local\Temp\ccCxUcqe.s 			page 76


 2968 0008 0A46     		mov	r2, r1
 2969              	.LVL432:
 2970 000a 0146     		mov	r1, r0
 2971              	.LVL433:
 2972 000c 0020     		movs	r0, #0
 2973              	.LVL434:
 2974 000e FFF7FEFF 		bl	lc3_hr_setup_encoder
 2975              	.LVL435:
 425:..\..\..\liblc3\src/lc3.c **** 
 2976              		.loc 1 425 0
 2977 0012 03B0     		add	sp, sp, #12
 2978              		.cfi_def_cfa_offset 4
 2979              		@ sp needed
 2980 0014 5DF804FB 		ldr	pc, [sp], #4
 2981              		.cfi_endproc
 2982              	.LFE41:
 2983              		.size	lc3_setup_encoder, .-lc3_setup_encoder
 2984              		.section	.text.lc3_encode,"ax",%progbits
 2985              		.align	2
 2986              		.global	lc3_encode
 2987              		.thumb
 2988              		.thumb_func
 2989              		.type	lc3_encode, %function
 2990              	lc3_encode:
 2991              	.LFB42:
 432:..\..\..\liblc3\src/lc3.c ****     static void (* const load[])(struct lc3_encoder *, const void *, int) = {
 2992              		.loc 1 432 0
 2993              		.cfi_startproc
 2994              		@ args = 8, pretend = 0, frame = 136
 2995              		@ frame_needed = 0, uses_anonymous_args = 0
 2996              	.LVL436:
 2997 0000 F0B5     		push	{r4, r5, r6, r7, lr}
 2998              		.cfi_def_cfa_offset 20
 2999              		.cfi_offset 4, -20
 3000              		.cfi_offset 5, -16
 3001              		.cfi_offset 6, -12
 3002              		.cfi_offset 7, -8
 3003              		.cfi_offset 14, -4
 3004 0002 A3B0     		sub	sp, sp, #140
 3005              		.cfi_def_cfa_offset 160
 3006 0004 289D     		ldr	r5, [sp, #160]
 442:..\..\..\liblc3\src/lc3.c ****                  || nbytes > lc3_max_frame_bytes(encoder->dt, encoder->sr))
 3007              		.loc 1 442 0
 3008 0006 90B3     		cbz	r0, .L238
 3009 0008 0446     		mov	r4, r0
 442:..\..\..\liblc3\src/lc3.c ****                  || nbytes > lc3_max_frame_bytes(encoder->dt, encoder->sr))
 3010              		.loc 1 442 0 is_stmt 0 discriminator 1
 3011 000a 0778     		ldrb	r7, [r0]	@ zero_extendqisi2
 3012 000c 4078     		ldrb	r0, [r0, #1]	@ zero_extendqisi2
 3013              	.LVL437:
 3014              	.LBB213:
 3015              	.LBB214:
  82:..\..\..\liblc3\src/tables.h ****         lc3_frame_bytes_hr_lim[dt][sr - LC3_SRATE_48K_HR][0];
 3016              		.loc 2 82 0 is_stmt 1 discriminator 1
 3017 000e 0428     		cmp	r0, #4
 3018 0010 07D9     		bls	.L239
  83:..\..\..\liblc3\src/tables.h **** }
ARM GAS  C:\Users\rdn\AppData\Local\Temp\ccCxUcqe.s 			page 77


 3019              		.loc 2 83 0
 3020 0012 461F     		subs	r6, r0, #5
  82:..\..\..\liblc3\src/tables.h ****         lc3_frame_bytes_hr_lim[dt][sr - LC3_SRATE_48K_HR][0];
 3021              		.loc 2 82 0
 3022 0014 06EB4706 		add	r6, r6, r7, lsl #1
 3023 0018 DFF868E0 		ldr	lr, .L244
 3024 001c 5EF83660 		ldr	r6, [lr, r6, lsl #3]
 3025 0020 00E0     		b	.L236
 3026              	.L239:
 3027 0022 1426     		movs	r6, #20
 3028              	.L236:
 3029              	.LVL438:
 3030              	.LBE214:
 3031              	.LBE213:
 442:..\..\..\liblc3\src/lc3.c ****                  || nbytes > lc3_max_frame_bytes(encoder->dt, encoder->sr))
 3032              		.loc 1 442 0
 3033 0024 B542     		cmp	r5, r6
 3034 0026 25DB     		blt	.L240
 3035              	.LVL439:
 3036              	.LBB215:
 3037              	.LBB216:
  87:..\..\..\liblc3\src/tables.h ****         lc3_frame_bytes_hr_lim[dt][sr - LC3_SRATE_48K_HR][1];
 3038              		.loc 2 87 0
 3039 0028 0428     		cmp	r0, #4
 3040 002a 07D9     		bls	.L241
 3041              		.loc 2 88 0
 3042 002c 0538     		subs	r0, r0, #5
 3043              	.LVL440:
  87:..\..\..\liblc3\src/tables.h ****         lc3_frame_bytes_hr_lim[dt][sr - LC3_SRATE_48K_HR][1];
 3044              		.loc 2 87 0
 3045 002e 00EB4700 		add	r0, r0, r7, lsl #1
 3046              	.LVL441:
 3047 0032 144E     		ldr	r6, .L244
 3048 0034 06EBC000 		add	r0, r6, r0, lsl #3
 3049 0038 4068     		ldr	r0, [r0, #4]
 3050 003a 01E0     		b	.L237
 3051              	.LVL442:
 3052              	.L241:
 3053 003c 4FF4C870 		mov	r0, #400
 3054              	.LVL443:
 3055              	.L237:
 3056              	.LBE216:
 3057              	.LBE215:
 443:..\..\..\liblc3\src/lc3.c ****         return -1;
 3058              		.loc 1 443 0
 3059 0040 8542     		cmp	r5, r0
 3060 0042 1ADC     		bgt	.L242
 3061 0044 1046     		mov	r0, r2
 450:..\..\..\liblc3\src/lc3.c **** 
 3062              		.loc 1 450 0
 3063 0046 104A     		ldr	r2, .L244+4
 3064              	.LVL444:
 3065 0048 52F82160 		ldr	r6, [r2, r1, lsl #2]
 3066 004c 1A46     		mov	r2, r3
 3067 004e 0146     		mov	r1, r0
 3068              	.LVL445:
 3069 0050 2046     		mov	r0, r4
ARM GAS  C:\Users\rdn\AppData\Local\Temp\ccCxUcqe.s 			page 78


 3070              	.LVL446:
 3071 0052 B047     		blx	r6
 3072              	.LVL447:
 452:..\..\..\liblc3\src/lc3.c **** 
 3073              		.loc 1 452 0
 3074 0054 01AA     		add	r2, sp, #4
 3075 0056 2946     		mov	r1, r5
 3076 0058 2046     		mov	r0, r4
 3077 005a FFF7FEFF 		bl	analyze
 3078              	.LVL448:
 454:..\..\..\liblc3\src/lc3.c **** 
 3079              		.loc 1 454 0
 3080 005e 299B     		ldr	r3, [sp, #164]
 3081 0060 2A46     		mov	r2, r5
 3082 0062 01A9     		add	r1, sp, #4
 3083 0064 2046     		mov	r0, r4
 3084 0066 FFF7FEFF 		bl	encode
 3085              	.LVL449:
 456:..\..\..\liblc3\src/lc3.c **** }
 3086              		.loc 1 456 0
 3087 006a 0020     		movs	r0, #0
 3088 006c 07E0     		b	.L235
 3089              	.LVL450:
 3090              	.L238:
 444:..\..\..\liblc3\src/lc3.c **** 
 3091              		.loc 1 444 0
 3092 006e 4FF0FF30 		mov	r0, #-1
 3093              	.LVL451:
 3094 0072 04E0     		b	.L235
 3095              	.LVL452:
 3096              	.L240:
 3097 0074 4FF0FF30 		mov	r0, #-1
 3098 0078 01E0     		b	.L235
 3099              	.L242:
 3100 007a 4FF0FF30 		mov	r0, #-1
 3101              	.LVL453:
 3102              	.L235:
 457:..\..\..\liblc3\src/lc3.c **** 
 3103              		.loc 1 457 0
 3104 007e 23B0     		add	sp, sp, #140
 3105              		.cfi_def_cfa_offset 20
 3106              		@ sp needed
 3107 0080 F0BD     		pop	{r4, r5, r6, r7, pc}
 3108              	.LVL454:
 3109              	.L245:
 3110 0082 00BF     		.align	2
 3111              	.L244:
 3112 0084 00000000 		.word	lc3_frame_bytes_hr_lim
 3113 0088 00000000 		.word	.LANCHOR0
 3114              		.cfi_endproc
 3115              	.LFE42:
 3116              		.size	lc3_encode, .-lc3_encode
 3117              		.section	.text.lc3_hr_decoder_size,"ax",%progbits
 3118              		.align	2
 3119              		.global	lc3_hr_decoder_size
 3120              		.thumb
 3121              		.thumb_func
ARM GAS  C:\Users\rdn\AppData\Local\Temp\ccCxUcqe.s 			page 79


 3122              		.type	lc3_hr_decoder_size, %function
 3123              	lc3_hr_decoder_size:
 3124              	.LFB50:
 667:..\..\..\liblc3\src/lc3.c **** 
 668:..\..\..\liblc3\src/lc3.c **** /**
 669:..\..\..\liblc3\src/lc3.c ****  * Return size needed for a decoder
 670:..\..\..\liblc3\src/lc3.c ****  */
 671:..\..\..\liblc3\src/lc3.c **** LC3_EXPORT unsigned lc3_hr_decoder_size(bool hrmode, int dt_us, int sr_hz)
 672:..\..\..\liblc3\src/lc3.c **** {
 3125              		.loc 1 672 0
 3126              		.cfi_startproc
 3127              		@ args = 0, pretend = 0, frame = 0
 3128              		@ frame_needed = 0, uses_anonymous_args = 0
 3129              	.LVL455:
 3130 0000 70B5     		push	{r4, r5, r6, lr}
 3131              		.cfi_def_cfa_offset 16
 3132              		.cfi_offset 4, -16
 3133              		.cfi_offset 5, -12
 3134              		.cfi_offset 6, -8
 3135              		.cfi_offset 14, -4
 3136 0002 0646     		mov	r6, r0
 3137 0004 0D46     		mov	r5, r1
 3138 0006 1446     		mov	r4, r2
 673:..\..\..\liblc3\src/lc3.c ****     if (resolve_dt(dt_us, hrmode) >= LC3_NUM_DT ||
 3139              		.loc 1 673 0
 3140 0008 0146     		mov	r1, r0
 3141              	.LVL456:
 3142 000a 2846     		mov	r0, r5
 3143              	.LVL457:
 3144 000c FFF7FEFF 		bl	resolve_dt
 3145              	.LVL458:
 3146 0010 0328     		cmp	r0, #3
 3147 0012 44D8     		bhi	.L250
 674:..\..\..\liblc3\src/lc3.c ****         resolve_srate(sr_hz, hrmode) >= LC3_NUM_SRATE)
 3148              		.loc 1 674 0 discriminator 1
 3149 0014 3146     		mov	r1, r6
 3150 0016 2046     		mov	r0, r4
 3151 0018 FFF7FEFF 		bl	resolve_srate
 3152              	.LVL459:
 673:..\..\..\liblc3\src/lc3.c ****     if (resolve_dt(dt_us, hrmode) >= LC3_NUM_DT ||
 3153              		.loc 1 673 0 discriminator 1
 3154 001c 0628     		cmp	r0, #6
 3155 001e 40D8     		bhi	.L251
 675:..\..\..\liblc3\src/lc3.c ****         return 0;
 676:..\..\..\liblc3\src/lc3.c **** 
 677:..\..\..\liblc3\src/lc3.c ****     return sizeof(struct lc3_decoder) +
 678:..\..\..\liblc3\src/lc3.c ****         (LC3_DECODER_BUFFER_COUNT(dt_us, sr_hz)-1) * sizeof(float);
 3156              		.loc 1 678 0
 3157 0020 4BF68033 		movw	r3, #48000
 3158 0024 9C42     		cmp	r4, r3
 3159 0026 17DC     		bgt	.L252
 3160              		.loc 1 678 0 is_stmt 0 discriminator 1
 3161 0028 44F25062 		movw	r2, #18000
 3162 002c 02FB04F2 		mul	r2, r2, r4
 3163 0030 1D49     		ldr	r1, .L255
 3164 0032 81FB0203 		smull	r0, r3, r1, r2
 3165 0036 D217     		asrs	r2, r2, #31
ARM GAS  C:\Users\rdn\AppData\Local\Temp\ccCxUcqe.s 			page 80


 3166 0038 C2EBA343 		rsb	r3, r2, r3, asr #18
 3167 003c 04FB05F0 		mul	r0, r4, r5
 3168 0040 81FB0012 		smull	r1, r2, r1, r0
 3169 0044 C017     		asrs	r0, r0, #31
 3170 0046 C0EBA242 		rsb	r2, r0, r2, asr #18
 3171 004a 9818     		adds	r0, r3, r2
 3172 004c 93FBF2F1 		sdiv	r1, r3, r2
 3173 0050 02FB1131 		mls	r1, r2, r1, r3
 3174 0054 411A     		subs	r1, r0, r1
 3175 0056 00E0     		b	.L248
 3176              	.L252:
 3177              		.loc 1 678 0
 3178 0058 0021     		movs	r1, #0
 3179              	.L248:
 3180              		.loc 1 678 0 discriminator 4
 3181 005a 04FB05F3 		mul	r3, r4, r5
 3182 005e 124A     		ldr	r2, .L255
 3183 0060 82FB0302 		smull	r0, r2, r2, r3
 3184 0064 DB17     		asrs	r3, r3, #31
 3185 0066 C3EBA240 		rsb	r0, r3, r2, asr #18
 3186 006a 0144     		add	r1, r1, r0
 3187 006c C3EBE242 		rsb	r2, r3, r2, asr #19
 3188 0070 41F64C53 		movw	r3, #7500
 3189 0074 9D42     		cmp	r5, r3
 3190 0076 02D1     		bne	.L253
 3191              		.loc 1 678 0
 3192 0078 4FF4FA63 		mov	r3, #2000
 3193 007c 01E0     		b	.L249
 3194              	.L253:
 3195 007e 40F2E243 		movw	r3, #1250
 3196              	.L249:
 3197              		.loc 1 678 0 discriminator 8
 3198 0082 04FB03F4 		mul	r4, r4, r3
 3199              	.LVL460:
 3200 0086 084B     		ldr	r3, .L255
 3201 0088 83FB0435 		smull	r3, r5, r3, r4
 3202              	.LVL461:
 3203 008c E317     		asrs	r3, r4, #31
 3204 008e C3EBA543 		rsb	r3, r3, r5, asr #18
 3205 0092 D418     		adds	r4, r2, r3
 3206 0094 0C44     		add	r4, r4, r1
 3207 0096 2044     		add	r0, r0, r4
 677:..\..\..\liblc3\src/lc3.c ****         (LC3_DECODER_BUFFER_COUNT(dt_us, sr_hz)-1) * sizeof(float);
 3208              		.loc 1 677 0 is_stmt 1 discriminator 8
 3209 0098 2E30     		adds	r0, r0, #46
 3210 009a 8000     		lsls	r0, r0, #2
 3211 009c 70BD     		pop	{r4, r5, r6, pc}
 3212              	.LVL462:
 3213              	.L250:
 675:..\..\..\liblc3\src/lc3.c ****         return 0;
 3214              		.loc 1 675 0
 3215 009e 0020     		movs	r0, #0
 3216 00a0 70BD     		pop	{r4, r5, r6, pc}
 3217              	.LVL463:
 3218              	.L251:
 3219 00a2 0020     		movs	r0, #0
 679:..\..\..\liblc3\src/lc3.c **** }
ARM GAS  C:\Users\rdn\AppData\Local\Temp\ccCxUcqe.s 			page 81


 3220              		.loc 1 679 0
 3221 00a4 70BD     		pop	{r4, r5, r6, pc}
 3222              	.LVL464:
 3223              	.L256:
 3224 00a6 00BF     		.align	2
 3225              	.L255:
 3226 00a8 83DE1B43 		.word	1125899907
 3227              		.cfi_endproc
 3228              	.LFE50:
 3229              		.size	lc3_hr_decoder_size, .-lc3_hr_decoder_size
 3230              		.section	.text.lc3_decoder_size,"ax",%progbits
 3231              		.align	2
 3232              		.global	lc3_decoder_size
 3233              		.thumb
 3234              		.thumb_func
 3235              		.type	lc3_decoder_size, %function
 3236              	lc3_decoder_size:
 3237              	.LFB51:
 680:..\..\..\liblc3\src/lc3.c **** 
 681:..\..\..\liblc3\src/lc3.c **** LC3_EXPORT unsigned lc3_decoder_size(int dt_us, int sr_hz)
 682:..\..\..\liblc3\src/lc3.c **** {
 3238              		.loc 1 682 0
 3239              		.cfi_startproc
 3240              		@ args = 0, pretend = 0, frame = 0
 3241              		@ frame_needed = 0, uses_anonymous_args = 0
 3242              	.LVL465:
 3243 0000 08B5     		push	{r3, lr}
 3244              		.cfi_def_cfa_offset 8
 3245              		.cfi_offset 3, -8
 3246              		.cfi_offset 14, -4
 683:..\..\..\liblc3\src/lc3.c ****     return lc3_hr_decoder_size(false, dt_us, sr_hz);
 3247              		.loc 1 683 0
 3248 0002 0A46     		mov	r2, r1
 3249 0004 0146     		mov	r1, r0
 3250              	.LVL466:
 3251 0006 0020     		movs	r0, #0
 3252              	.LVL467:
 3253 0008 FFF7FEFF 		bl	lc3_hr_decoder_size
 3254              	.LVL468:
 684:..\..\..\liblc3\src/lc3.c **** }
 3255              		.loc 1 684 0
 3256 000c 08BD     		pop	{r3, pc}
 3257              		.cfi_endproc
 3258              	.LFE51:
 3259              		.size	lc3_decoder_size, .-lc3_decoder_size
 3260 000e 00BF     		.section	.text.lc3_hr_setup_decoder,"ax",%progbits
 3261              		.align	2
 3262              		.global	lc3_hr_setup_decoder
 3263              		.thumb
 3264              		.thumb_func
 3265              		.type	lc3_hr_setup_decoder, %function
 3266              	lc3_hr_setup_decoder:
 3267              	.LFB52:
 685:..\..\..\liblc3\src/lc3.c **** 
 686:..\..\..\liblc3\src/lc3.c **** /**
 687:..\..\..\liblc3\src/lc3.c ****  * Setup decoder
 688:..\..\..\liblc3\src/lc3.c ****  */
ARM GAS  C:\Users\rdn\AppData\Local\Temp\ccCxUcqe.s 			page 82


 689:..\..\..\liblc3\src/lc3.c **** LC3_EXPORT struct lc3_decoder *lc3_hr_setup_decoder(
 690:..\..\..\liblc3\src/lc3.c ****     bool hrmode, int dt_us, int sr_hz, int sr_pcm_hz, void *mem)
 691:..\..\..\liblc3\src/lc3.c **** {
 3268              		.loc 1 691 0
 3269              		.cfi_startproc
 3270              		@ args = 4, pretend = 0, frame = 8
 3271              		@ frame_needed = 0, uses_anonymous_args = 0
 3272              	.LVL469:
 3273 0000 2DE9F04F 		push	{r4, r5, r6, r7, r8, r9, r10, fp, lr}
 3274              		.cfi_def_cfa_offset 36
 3275              		.cfi_offset 4, -36
 3276              		.cfi_offset 5, -32
 3277              		.cfi_offset 6, -28
 3278              		.cfi_offset 7, -24
 3279              		.cfi_offset 8, -20
 3280              		.cfi_offset 9, -16
 3281              		.cfi_offset 10, -12
 3282              		.cfi_offset 11, -8
 3283              		.cfi_offset 14, -4
 3284 0004 83B0     		sub	sp, sp, #12
 3285              		.cfi_def_cfa_offset 48
 3286 0006 0546     		mov	r5, r0
 3287 0008 8A46     		mov	r10, r1
 3288 000a 1646     		mov	r6, r2
 3289 000c 0C9C     		ldr	r4, [sp, #48]
 692:..\..\..\liblc3\src/lc3.c ****     if (sr_pcm_hz <= 0)
 3290              		.loc 1 692 0
 3291 000e 1F1E     		subs	r7, r3, #0
 3292 0010 00DC     		bgt	.L260
 693:..\..\..\liblc3\src/lc3.c ****         sr_pcm_hz = sr_hz;
 3293              		.loc 1 693 0
 3294 0012 1746     		mov	r7, r2
 3295              	.L260:
 3296              	.LVL470:
 694:..\..\..\liblc3\src/lc3.c **** 
 695:..\..\..\liblc3\src/lc3.c ****     enum lc3_dt dt = resolve_dt(dt_us, hrmode);
 3297              		.loc 1 695 0
 3298 0014 2946     		mov	r1, r5
 3299              	.LVL471:
 3300 0016 5046     		mov	r0, r10
 3301              	.LVL472:
 3302 0018 FFF7FEFF 		bl	resolve_dt
 3303              	.LVL473:
 3304 001c 8046     		mov	r8, r0
 3305              	.LVL474:
 696:..\..\..\liblc3\src/lc3.c ****     enum lc3_srate sr = resolve_srate(sr_hz, hrmode);
 3306              		.loc 1 696 0
 3307 001e 2946     		mov	r1, r5
 3308 0020 3046     		mov	r0, r6
 3309 0022 FFF7FEFF 		bl	resolve_srate
 3310              	.LVL475:
 3311 0026 8146     		mov	r9, r0
 3312 0028 0190     		str	r0, [sp, #4]
 3313              	.LVL476:
 697:..\..\..\liblc3\src/lc3.c ****     enum lc3_srate sr_pcm = resolve_srate(sr_pcm_hz, hrmode);
 3314              		.loc 1 697 0
 3315 002a 2946     		mov	r1, r5
ARM GAS  C:\Users\rdn\AppData\Local\Temp\ccCxUcqe.s 			page 83


 3316 002c 3846     		mov	r0, r7
 3317 002e FFF7FEFF 		bl	resolve_srate
 3318              	.LVL477:
 3319 0032 0646     		mov	r6, r0
 3320              	.LVL478:
 698:..\..\..\liblc3\src/lc3.c **** 
 699:..\..\..\liblc3\src/lc3.c ****     if (dt >= LC3_NUM_DT || sr_pcm >= LC3_NUM_SRATE || sr > sr_pcm || !mem)
 3321              		.loc 1 699 0
 3322 0034 B8F1030F 		cmp	r8, #3
 3323 0038 7DD8     		bhi	.L268
 3324              		.loc 1 699 0 is_stmt 0 discriminator 1
 3325 003a 0628     		cmp	r0, #6
 3326 003c 7DD8     		bhi	.L269
 3327              		.loc 1 699 0 discriminator 2
 3328 003e 8145     		cmp	r9, r0
 3329 0040 7DD8     		bhi	.L270
 3330              		.loc 1 699 0 discriminator 3
 3331 0042 002C     		cmp	r4, #0
 3332 0044 7DD0     		beq	.L271
 3333              	.LVL479:
 3334              	.LBB217:
 3335              	.LBB218:
  60:..\..\..\liblc3\src/tables.h ****         (8 + (dt == LC3_DT_7M5)) * lc3_ns_2m5[sr];
 3336              		.loc 2 60 0 is_stmt 1
 3337 0046 0528     		cmp	r0, #5
 3338 0048 0BD8     		bhi	.L272
  61:..\..\..\liblc3\src/tables.h **** }
 3339              		.loc 2 61 0
 3340 004a B8F1020F 		cmp	r8, #2
 3341 004e 01D1     		bne	.L273
 3342 0050 0922     		movs	r2, #9
 3343 0052 00E0     		b	.L263
 3344              	.L273:
 3345 0054 0822     		movs	r2, #8
 3346              	.L263:
 3347 0056 3D4B     		ldr	r3, .L277
 3348 0058 53F82630 		ldr	r3, [r3, r6, lsl #2]
  60:..\..\..\liblc3\src/tables.h ****         (8 + (dt == LC3_DT_7M5)) * lc3_ns_2m5[sr];
 3349              		.loc 2 60 0
 3350 005c 02FB03FB 		mul	fp, r2, r3
 3351 0060 01E0     		b	.L262
 3352              	.L272:
 3353 0062 4FF0000B 		mov	fp, #0
 3354              	.L262:
 3355              	.LVL480:
 3356              	.LBE218:
 3357              	.LBE217:
 3358              	.LBB219:
 3359              	.LBB220:
  47:..\..\..\liblc3\src/tables.h **** }
 3360              		.loc 2 47 0
 3361 0066 394B     		ldr	r3, .L277
 3362 0068 53F82650 		ldr	r5, [r3, r6, lsl #2]
 3363 006c 08FB0559 		mla	r9, r8, r5, r5
 3364              	.LVL481:
 3365              	.LBE220:
 3366              	.LBE219:
ARM GAS  C:\Users\rdn\AppData\Local\Temp\ccCxUcqe.s 			page 84


 3367              	.LBB221:
 3368              	.LBB222:
  56:..\..\..\liblc3\src/tables.h **** }
 3369              		.loc 2 56 0
 3370 0070 B8F1020F 		cmp	r8, #2
 3371 0074 02D1     		bne	.L264
 3372 0076 364B     		ldr	r3, .L277+4
 3373 0078 53F82650 		ldr	r5, [r3, r6, lsl #2]
 3374              	.L264:
  55:..\..\..\liblc3\src/tables.h ****         (dt == LC3_DT_7M5 ? lc3_ns_4m[sr] : lc3_ns_2m5[sr]) ) >> 1;
 3375              		.loc 2 55 0
 3376 007c 4D44     		add	r5, r5, r9
 3377              	.LVL482:
 3378              	.LBE222:
 3379              	.LBE221:
 700:..\..\..\liblc3\src/lc3.c ****         return NULL;
 701:..\..\..\liblc3\src/lc3.c **** 
 702:..\..\..\liblc3\src/lc3.c ****     struct lc3_decoder *decoder = mem;
 703:..\..\..\liblc3\src/lc3.c ****     int nh = lc3_nh(dt, sr_pcm);
 704:..\..\..\liblc3\src/lc3.c ****     int ns = lc3_ns(dt, sr_pcm);
 705:..\..\..\liblc3\src/lc3.c ****     int nd = lc3_nd(dt, sr_pcm);
 706:..\..\..\liblc3\src/lc3.c **** 
 707:..\..\..\liblc3\src/lc3.c ****     *decoder = (struct lc3_decoder){
 708:..\..\..\liblc3\src/lc3.c ****         .dt = dt, .sr = sr,
 709:..\..\..\liblc3\src/lc3.c ****         .sr_pcm = sr_pcm,
 710:..\..\..\liblc3\src/lc3.c **** 
 711:..\..\..\liblc3\src/lc3.c ****         .xh_off = 0,
 712:..\..\..\liblc3\src/lc3.c ****         .xs_off = nh,
 713:..\..\..\liblc3\src/lc3.c ****         .xd_off = nh + ns,
 714:..\..\..\liblc3\src/lc3.c ****         .xg_off = nh + ns + nd,
 3380              		.loc 1 714 0
 3381 007e D944     		add	r9, r9, fp
 3382 0080 09EB6505 		add	r5, r9, r5, asr #1
 707:..\..\..\liblc3\src/lc3.c ****         .dt = dt, .sr = sr,
 3383              		.loc 1 707 0
 3384 0084 BC22     		movs	r2, #188
 3385 0086 0021     		movs	r1, #0
 3386 0088 2046     		mov	r0, r4
 3387              	.LVL483:
 3388 008a FFF7FEFF 		bl	memset
 3389              	.LVL484:
 3390 008e 84F80080 		strb	r8, [r4]
 3391 0092 9DF80430 		ldrb	r3, [sp, #4]	@ zero_extendqisi2
 3392 0096 6370     		strb	r3, [r4, #1]
 3393 0098 A670     		strb	r6, [r4, #2]
 3394 009a C4F8ACB0 		str	fp, [r4, #172]
 3395 009e C4F8B090 		str	r9, [r4, #176]
 3396 00a2 C4F8B450 		str	r5, [r4, #180]
 715:..\..\..\liblc3\src/lc3.c ****     };
 716:..\..\..\liblc3\src/lc3.c **** 
 717:..\..\..\liblc3\src/lc3.c ****     lc3_plc_reset(&decoder->plc);
 3397              		.loc 1 717 0
 3398 00a6 04F19C00 		add	r0, r4, #156
 3399 00aa FFF7FEFF 		bl	lc3_plc_reset
 3400              	.LVL485:
 718:..\..\..\liblc3\src/lc3.c **** 
 719:..\..\..\liblc3\src/lc3.c ****     memset(decoder->x, 0,
ARM GAS  C:\Users\rdn\AppData\Local\Temp\ccCxUcqe.s 			page 85


 3401              		.loc 1 719 0
 3402 00ae 04F1B800 		add	r0, r4, #184
 720:..\..\..\liblc3\src/lc3.c ****         LC3_DECODER_BUFFER_COUNT(dt_us, sr_pcm_hz) * sizeof(float));
 3403              		.loc 1 720 0
 3404 00b2 4BF68033 		movw	r3, #48000
 3405 00b6 9F42     		cmp	r7, r3
 3406 00b8 17DC     		bgt	.L274
 3407              		.loc 1 720 0 is_stmt 0 discriminator 1
 3408 00ba 44F25062 		movw	r2, #18000
 3409 00be 02FB07F2 		mul	r2, r2, r7
 3410 00c2 2449     		ldr	r1, .L277+8
 3411 00c4 81FB0253 		smull	r5, r3, r1, r2
 3412 00c8 D217     		asrs	r2, r2, #31
 3413 00ca C2EBA343 		rsb	r3, r2, r3, asr #18
 3414 00ce 0AFB07F5 		mul	r5, r10, r7
 3415 00d2 81FB0521 		smull	r2, r1, r1, r5
 3416 00d6 ED17     		asrs	r5, r5, #31
 3417 00d8 C5EBA141 		rsb	r1, r5, r1, asr #18
 3418 00dc 5D18     		adds	r5, r3, r1
 3419 00de 93FBF1F2 		sdiv	r2, r3, r1
 3420 00e2 01FB1232 		mls	r2, r1, r2, r3
 3421 00e6 AA1A     		subs	r2, r5, r2
 3422 00e8 00E0     		b	.L265
 3423              	.L274:
 3424              		.loc 1 720 0
 3425 00ea 0022     		movs	r2, #0
 3426              	.L265:
 3427              		.loc 1 720 0 discriminator 4
 3428 00ec 0AFB07F3 		mul	r3, r10, r7
 3429 00f0 1849     		ldr	r1, .L277+8
 3430 00f2 81FB0351 		smull	r5, r1, r1, r3
 3431 00f6 DB17     		asrs	r3, r3, #31
 3432 00f8 C3EBA145 		rsb	r5, r3, r1, asr #18
 3433 00fc 2A44     		add	r2, r2, r5
 3434 00fe C3EBE141 		rsb	r1, r3, r1, asr #19
 3435 0102 41F64C53 		movw	r3, #7500
 3436 0106 9A45     		cmp	r10, r3
 3437 0108 02D1     		bne	.L275
 3438              		.loc 1 720 0
 3439 010a 4FF4FA63 		mov	r3, #2000
 3440 010e 01E0     		b	.L266
 3441              	.L275:
 3442 0110 40F2E243 		movw	r3, #1250
 3443              	.L266:
 3444              		.loc 1 720 0 discriminator 8
 3445 0114 03FB07F7 		mul	r7, r3, r7
 3446              	.LVL486:
 3447 0118 0E4B     		ldr	r3, .L277+8
 3448 011a 83FB0736 		smull	r3, r6, r3, r7
 3449 011e FB17     		asrs	r3, r7, #31
 3450 0120 C3EBA643 		rsb	r3, r3, r6, asr #18
 3451 0124 CF18     		adds	r7, r1, r3
 3452 0126 1744     		add	r7, r7, r2
 3453 0128 EA19     		adds	r2, r5, r7
 719:..\..\..\liblc3\src/lc3.c ****         LC3_DECODER_BUFFER_COUNT(dt_us, sr_pcm_hz) * sizeof(float));
 3454              		.loc 1 719 0 is_stmt 1 discriminator 8
 3455 012a 9200     		lsls	r2, r2, #2
ARM GAS  C:\Users\rdn\AppData\Local\Temp\ccCxUcqe.s 			page 86


 3456 012c 0021     		movs	r1, #0
 3457 012e FFF7FEFF 		bl	memset
 3458              	.LVL487:
 721:..\..\..\liblc3\src/lc3.c **** 
 722:..\..\..\liblc3\src/lc3.c ****     return decoder;
 3459              		.loc 1 722 0 discriminator 8
 3460 0132 2046     		mov	r0, r4
 3461 0134 06E0     		b	.L261
 3462              	.LVL488:
 3463              	.L268:
 700:..\..\..\liblc3\src/lc3.c **** 
 3464              		.loc 1 700 0
 3465 0136 0020     		movs	r0, #0
 3466              	.LVL489:
 3467 0138 04E0     		b	.L261
 3468              	.LVL490:
 3469              	.L269:
 3470 013a 0020     		movs	r0, #0
 3471              	.LVL491:
 3472 013c 02E0     		b	.L261
 3473              	.LVL492:
 3474              	.L270:
 3475 013e 0020     		movs	r0, #0
 3476              	.LVL493:
 3477 0140 00E0     		b	.L261
 3478              	.LVL494:
 3479              	.L271:
 3480 0142 0020     		movs	r0, #0
 3481              	.LVL495:
 3482              	.L261:
 723:..\..\..\liblc3\src/lc3.c **** }
 3483              		.loc 1 723 0
 3484 0144 03B0     		add	sp, sp, #12
 3485              		.cfi_def_cfa_offset 36
 3486              		@ sp needed
 3487 0146 BDE8F08F 		pop	{r4, r5, r6, r7, r8, r9, r10, fp, pc}
 3488              	.LVL496:
 3489              	.L278:
 3490 014a 00BF     		.align	2
 3491              	.L277:
 3492 014c 00000000 		.word	lc3_ns_2m5
 3493 0150 00000000 		.word	lc3_ns_4m
 3494 0154 83DE1B43 		.word	1125899907
 3495              		.cfi_endproc
 3496              	.LFE52:
 3497              		.size	lc3_hr_setup_decoder, .-lc3_hr_setup_decoder
 3498              		.section	.text.lc3_setup_decoder,"ax",%progbits
 3499              		.align	2
 3500              		.global	lc3_setup_decoder
 3501              		.thumb
 3502              		.thumb_func
 3503              		.type	lc3_setup_decoder, %function
 3504              	lc3_setup_decoder:
 3505              	.LFB53:
 724:..\..\..\liblc3\src/lc3.c **** 
 725:..\..\..\liblc3\src/lc3.c **** LC3_EXPORT struct lc3_decoder *lc3_setup_decoder(
 726:..\..\..\liblc3\src/lc3.c ****     int dt_us, int sr_hz, int sr_pcm_hz, void *mem)
ARM GAS  C:\Users\rdn\AppData\Local\Temp\ccCxUcqe.s 			page 87


 727:..\..\..\liblc3\src/lc3.c **** {
 3506              		.loc 1 727 0
 3507              		.cfi_startproc
 3508              		@ args = 0, pretend = 0, frame = 0
 3509              		@ frame_needed = 0, uses_anonymous_args = 0
 3510              	.LVL497:
 3511 0000 00B5     		push	{lr}
 3512              		.cfi_def_cfa_offset 4
 3513              		.cfi_offset 14, -4
 3514 0002 83B0     		sub	sp, sp, #12
 3515              		.cfi_def_cfa_offset 16
 728:..\..\..\liblc3\src/lc3.c ****     return lc3_hr_setup_decoder(false, dt_us, sr_hz, sr_pcm_hz, mem);
 3516              		.loc 1 728 0
 3517 0004 0093     		str	r3, [sp]
 3518 0006 1346     		mov	r3, r2
 3519              	.LVL498:
 3520 0008 0A46     		mov	r2, r1
 3521              	.LVL499:
 3522 000a 0146     		mov	r1, r0
 3523              	.LVL500:
 3524 000c 0020     		movs	r0, #0
 3525              	.LVL501:
 3526 000e FFF7FEFF 		bl	lc3_hr_setup_decoder
 3527              	.LVL502:
 729:..\..\..\liblc3\src/lc3.c **** }
 3528              		.loc 1 729 0
 3529 0012 03B0     		add	sp, sp, #12
 3530              		.cfi_def_cfa_offset 4
 3531              		@ sp needed
 3532 0014 5DF804FB 		ldr	pc, [sp], #4
 3533              		.cfi_endproc
 3534              	.LFE53:
 3535              		.size	lc3_setup_decoder, .-lc3_setup_decoder
 3536              		.section	.text.lc3_decode,"ax",%progbits
 3537              		.align	2
 3538              		.global	lc3_decode
 3539              		.thumb
 3540              		.thumb_func
 3541              		.type	lc3_decode, %function
 3542              	lc3_decode:
 3543              	.LFB54:
 730:..\..\..\liblc3\src/lc3.c **** 
 731:..\..\..\liblc3\src/lc3.c **** /**
 732:..\..\..\liblc3\src/lc3.c ****  * Decode a frame
 733:..\..\..\liblc3\src/lc3.c ****  */
 734:..\..\..\liblc3\src/lc3.c **** LC3_EXPORT int lc3_decode(struct lc3_decoder *decoder,
 735:..\..\..\liblc3\src/lc3.c ****     const void *in, int nbytes, enum lc3_pcm_format fmt, void *pcm, int stride)
 736:..\..\..\liblc3\src/lc3.c **** {
 3544              		.loc 1 736 0
 3545              		.cfi_startproc
 3546              		@ args = 8, pretend = 0, frame = 136
 3547              		@ frame_needed = 0, uses_anonymous_args = 0
 3548              	.LVL503:
 737:..\..\..\liblc3\src/lc3.c ****     static void (* const store[])(struct lc3_decoder *, void *, int) = {
 738:..\..\..\liblc3\src/lc3.c ****         [LC3_PCM_FORMAT_S16    ] = store_s16,
 739:..\..\..\liblc3\src/lc3.c ****         [LC3_PCM_FORMAT_S24    ] = store_s24,
 740:..\..\..\liblc3\src/lc3.c ****         [LC3_PCM_FORMAT_S24_3LE] = store_s24_3le,
ARM GAS  C:\Users\rdn\AppData\Local\Temp\ccCxUcqe.s 			page 88


 741:..\..\..\liblc3\src/lc3.c ****         [LC3_PCM_FORMAT_FLOAT  ] = store_float,
 742:..\..\..\liblc3\src/lc3.c ****     };
 743:..\..\..\liblc3\src/lc3.c **** 
 744:..\..\..\liblc3\src/lc3.c ****     /* --- Check parameters --- */
 745:..\..\..\liblc3\src/lc3.c **** 
 746:..\..\..\liblc3\src/lc3.c ****     if (!decoder)
 3549              		.loc 1 746 0
 3550 0000 0028     		cmp	r0, #0
 3551 0002 38D0     		beq	.L287
 736:..\..\..\liblc3\src/lc3.c ****     static void (* const store[])(struct lc3_decoder *, void *, int) = {
 3552              		.loc 1 736 0
 3553 0004 F0B5     		push	{r4, r5, r6, r7, lr}
 3554              		.cfi_def_cfa_offset 20
 3555              		.cfi_offset 4, -20
 3556              		.cfi_offset 5, -16
 3557              		.cfi_offset 6, -12
 3558              		.cfi_offset 7, -8
 3559              		.cfi_offset 14, -4
 3560 0006 A3B0     		sub	sp, sp, #140
 3561              		.cfi_def_cfa_offset 160
 3562 0008 0446     		mov	r4, r0
 747:..\..\..\liblc3\src/lc3.c ****         return -1;
 748:..\..\..\liblc3\src/lc3.c **** 
 749:..\..\..\liblc3\src/lc3.c ****     if (in && (nbytes < LC3_MIN_FRAME_BYTES ||
 3563              		.loc 1 749 0
 3564 000a 89B1     		cbz	r1, .L283
 3565              		.loc 1 749 0 is_stmt 0 discriminator 1
 3566 000c 132A     		cmp	r2, #19
 3567 000e 35DD     		ble	.L288
 750:..\..\..\liblc3\src/lc3.c ****                nbytes > lc3_max_frame_bytes(decoder->dt, decoder->sr) ))
 3568              		.loc 1 750 0 is_stmt 1 discriminator 2
 3569 0010 0578     		ldrb	r5, [r0]	@ zero_extendqisi2
 3570 0012 4078     		ldrb	r0, [r0, #1]	@ zero_extendqisi2
 3571              	.LVL504:
 3572              	.LBB223:
 3573              	.LBB224:
  87:..\..\..\liblc3\src/tables.h ****         lc3_frame_bytes_hr_lim[dt][sr - LC3_SRATE_48K_HR][1];
 3574              		.loc 2 87 0 discriminator 2
 3575 0014 0428     		cmp	r0, #4
 3576 0016 07D9     		bls	.L289
 3577              		.loc 2 88 0
 3578 0018 0538     		subs	r0, r0, #5
 3579              	.LVL505:
  87:..\..\..\liblc3\src/tables.h ****         lc3_frame_bytes_hr_lim[dt][sr - LC3_SRATE_48K_HR][1];
 3580              		.loc 2 87 0
 3581 001a 00EB4500 		add	r0, r0, r5, lsl #1
 3582              	.LVL506:
 3583 001e 1B4D     		ldr	r5, .L295
 3584              	.LVL507:
 3585 0020 05EBC000 		add	r0, r5, r0, lsl #3
 3586 0024 4068     		ldr	r0, [r0, #4]
 3587 0026 01E0     		b	.L284
 3588              	.LVL508:
 3589              	.L289:
 3590 0028 4FF4C870 		mov	r0, #400
 3591              	.LVL509:
 3592              	.L284:
ARM GAS  C:\Users\rdn\AppData\Local\Temp\ccCxUcqe.s 			page 89


 3593              	.LBE224:
 3594              	.LBE223:
 749:..\..\..\liblc3\src/lc3.c ****                nbytes > lc3_max_frame_bytes(decoder->dt, decoder->sr) ))
 3595              		.loc 1 749 0
 3596 002c 8242     		cmp	r2, r0
 3597 002e 28DC     		bgt	.L290
 3598              	.L283:
 3599 0030 1F46     		mov	r7, r3
 3600 0032 1546     		mov	r5, r2
 751:..\..\..\liblc3\src/lc3.c ****         return -1;
 752:..\..\..\liblc3\src/lc3.c **** 
 753:..\..\..\liblc3\src/lc3.c ****     /* --- Processing --- */
 754:..\..\..\liblc3\src/lc3.c **** 
 755:..\..\..\liblc3\src/lc3.c ****     struct side_data side;
 756:..\..\..\liblc3\src/lc3.c **** 
 757:..\..\..\liblc3\src/lc3.c ****     int ret = !in || (decode(decoder, in, nbytes, &side) < 0);
 3601              		.loc 1 757 0
 3602 0034 39B1     		cbz	r1, .L291
 3603              		.loc 1 757 0 is_stmt 0 discriminator 2
 3604 0036 01AB     		add	r3, sp, #4
 3605              	.LVL510:
 3606 0038 2046     		mov	r0, r4
 3607 003a FFF7FEFF 		bl	decode
 3608              	.LVL511:
 3609 003e 0028     		cmp	r0, #0
 3610 0040 03DB     		blt	.L292
 3611              		.loc 1 757 0
 3612 0042 0026     		movs	r6, #0
 3613 0044 02E0     		b	.L285
 3614              	.LVL512:
 3615              	.L291:
 3616 0046 0126     		movs	r6, #1
 3617 0048 00E0     		b	.L285
 3618              	.LVL513:
 3619              	.L292:
 3620 004a 0126     		movs	r6, #1
 3621              	.L285:
 3622              	.LVL514:
 758:..\..\..\liblc3\src/lc3.c **** 
 759:..\..\..\liblc3\src/lc3.c ****     synthesize(decoder, ret ? NULL : &side, nbytes);
 3623              		.loc 1 759 0 is_stmt 1 discriminator 6
 3624 004c 0EB9     		cbnz	r6, .L293
 3625              		.loc 1 759 0 is_stmt 0
 3626 004e 01A9     		add	r1, sp, #4
 3627 0050 00E0     		b	.L286
 3628              	.L293:
 3629 0052 0021     		movs	r1, #0
 3630              	.L286:
 3631              		.loc 1 759 0 discriminator 4
 3632 0054 2A46     		mov	r2, r5
 3633 0056 2046     		mov	r0, r4
 3634 0058 FFF7FEFF 		bl	synthesize
 3635              	.LVL515:
 760:..\..\..\liblc3\src/lc3.c **** 
 761:..\..\..\liblc3\src/lc3.c ****     store[fmt](decoder, pcm, stride);
 3636              		.loc 1 761 0 is_stmt 1 discriminator 4
 3637 005c 0C4A     		ldr	r2, .L295+4
ARM GAS  C:\Users\rdn\AppData\Local\Temp\ccCxUcqe.s 			page 90


 3638 005e 02EB8703 		add	r3, r2, r7, lsl #2
 3639 0062 1B69     		ldr	r3, [r3, #16]
 3640 0064 299A     		ldr	r2, [sp, #164]
 3641 0066 2899     		ldr	r1, [sp, #160]
 3642 0068 2046     		mov	r0, r4
 3643 006a 9847     		blx	r3
 3644              	.LVL516:
 762:..\..\..\liblc3\src/lc3.c **** 
 763:..\..\..\liblc3\src/lc3.c ****     complete(decoder);
 3645              		.loc 1 763 0 discriminator 4
 3646 006c 2046     		mov	r0, r4
 3647 006e FFF7FEFF 		bl	complete
 3648              	.LVL517:
 764:..\..\..\liblc3\src/lc3.c **** 
 765:..\..\..\liblc3\src/lc3.c ****     return ret;
 3649              		.loc 1 765 0 discriminator 4
 3650 0072 3046     		mov	r0, r6
 3651 0074 07E0     		b	.L282
 3652              	.LVL518:
 3653              	.L287:
 3654              		.cfi_def_cfa_offset 0
 3655              		.cfi_restore 4
 3656              		.cfi_restore 5
 3657              		.cfi_restore 6
 3658              		.cfi_restore 7
 3659              		.cfi_restore 14
 747:..\..\..\liblc3\src/lc3.c **** 
 3660              		.loc 1 747 0
 3661 0076 4FF0FF30 		mov	r0, #-1
 3662              	.LVL519:
 766:..\..\..\liblc3\src/lc3.c **** }
 3663              		.loc 1 766 0
 3664 007a 7047     		bx	lr
 3665              	.LVL520:
 3666              	.L288:
 3667              		.cfi_def_cfa_offset 160
 3668              		.cfi_offset 4, -20
 3669              		.cfi_offset 5, -16
 3670              		.cfi_offset 6, -12
 3671              		.cfi_offset 7, -8
 3672              		.cfi_offset 14, -4
 751:..\..\..\liblc3\src/lc3.c **** 
 3673              		.loc 1 751 0
 3674 007c 4FF0FF30 		mov	r0, #-1
 3675              	.LVL521:
 3676 0080 01E0     		b	.L282
 3677              	.L290:
 3678 0082 4FF0FF30 		mov	r0, #-1
 3679              	.LVL522:
 3680              	.L282:
 3681              		.loc 1 766 0
 3682 0086 23B0     		add	sp, sp, #140
 3683              		.cfi_def_cfa_offset 20
 3684              		@ sp needed
 3685 0088 F0BD     		pop	{r4, r5, r6, r7, pc}
 3686              	.LVL523:
 3687              	.L296:
ARM GAS  C:\Users\rdn\AppData\Local\Temp\ccCxUcqe.s 			page 91


 3688 008a 00BF     		.align	2
 3689              	.L295:
 3690 008c 00000000 		.word	lc3_frame_bytes_hr_lim
 3691 0090 00000000 		.word	.LANCHOR0
 3692              		.cfi_endproc
 3693              	.LFE54:
 3694              		.size	lc3_decode, .-lc3_decode
 3695              		.section	.rodata
 3696              		.align	2
 3697              		.set	.LANCHOR0,. + 0
 3698              		.type	load.5874, %object
 3699              		.size	load.5874, 16
 3700              	load.5874:
 3701 0000 00000000 		.word	load_s16
 3702 0004 00000000 		.word	load_s24
 3703 0008 00000000 		.word	load_s24_3le
 3704 000c 00000000 		.word	load_float
 3705              		.type	store.6009, %object
 3706              		.size	store.6009, 16
 3707              	store.6009:
 3708 0010 00000000 		.word	store_s16
 3709 0014 00000000 		.word	store_s24
 3710 0018 00000000 		.word	store_s24_3le
 3711 001c 00000000 		.word	store_float
 3712              		.text
 3713              	.Letext0:
 3714              		.file 5 "c:\\program files (x86)\\cypress\\psoc creator\\4.4\\psoc creator\\import\\gnu\\arm\\5.4.
 3715              		.file 6 "c:\\program files (x86)\\cypress\\psoc creator\\4.4\\psoc creator\\import\\gnu\\arm\\5.4.
 3716              		.file 7 ".\\liblc3\\include/lc3_private.h"
 3717              		.file 8 ".\\liblc3\\include/lc3.h"
 3718              		.file 9 "..\\..\\..\\liblc3\\src\\common.h"
 3719              		.file 10 "..\\..\\..\\liblc3\\src\\ltpf.h"
 3720              		.file 11 "..\\..\\..\\liblc3\\src\\sns.h"
 3721              		.file 12 "..\\..\\..\\liblc3\\src\\tns.h"
 3722              		.file 13 "..\\..\\..\\liblc3\\src\\spec.h"
 3723              		.file 14 "..\\..\\..\\liblc3\\src\\attdet.h"
 3724              		.file 15 "c:\\program files (x86)\\cypress\\psoc creator\\4.4\\psoc creator\\import\\gnu\\arm\\5.4
 3725              		.file 16 "..\\..\\..\\liblc3\\src\\mdct.h"
 3726              		.file 17 "..\\..\\..\\liblc3\\src\\energy.h"
 3727              		.file 18 "..\\..\\..\\liblc3\\src\\bwdet.h"
 3728              		.file 19 "..\\..\\..\\liblc3\\src\\plc.h"
 3729              		.file 20 "c:\\program files (x86)\\cypress\\psoc creator\\4.4\\psoc creator\\import\\gnu\\arm\\5.4