ARM GAS  C:\Users\rdn\AppData\Local\Temp\ccCxUcqe.s 			page 1


   1              		.syntax unified
   2              		.cpu cortex-m4
   3              		.eabi_attribute 27, 1
   4              		.fpu fpv4-sp-d16
   5              		.eabi_attribute 20, 1
   6              		.eabi_attribute 21, 1
   7              		.eabi_attribute 23, 3
   8              		.eabi_attribute 24, 1
   9              		.eabi_attribute 25, 1
  10              		.eabi_attribute 26, 1
  11              		.eabi_attribute 30, 1
  12              		.eabi_attribute 34, 1
  13              		.eabi_attribute 18, 4
  14              		.thumb
  15              		.syntax unified
  16              		.file	"lc3.c"
  17              		.text
  18              	.Ltext0:
  19              		.cfi_sections	.debug_frame
  20              		.section	.text.resolve_dt,"ax",%progbits
  21              		.align	2
  22              		.thumb
  23              		.thumb_func
  24              		.type	resolve_dt, %function
  25              	resolve_dt:
  26              	.LFB20:
  27              		.file 1 "..\\..\\..\\liblc3\\src\\lc3.c"
   1:..\..\..\liblc3\src/lc3.c **** /******************************************************************************
   2:..\..\..\liblc3\src/lc3.c ****  *
   3:..\..\..\liblc3\src/lc3.c ****  *  Copyright 2022 Google LLC
   4:..\..\..\liblc3\src/lc3.c ****  *
   5:..\..\..\liblc3\src/lc3.c ****  *  Licensed under the Apache License, Version 2.0 (the "License");
   6:..\..\..\liblc3\src/lc3.c ****  *  you may not use this file except in compliance with the License.
   7:..\..\..\liblc3\src/lc3.c ****  *  You may obtain a copy of the License at:
   8:..\..\..\liblc3\src/lc3.c ****  *
   9:..\..\..\liblc3\src/lc3.c ****  *  http://www.apache.org/licenses/LICENSE-2.0
  10:..\..\..\liblc3\src/lc3.c ****  *
  11:..\..\..\liblc3\src/lc3.c ****  *  Unless required by applicable law or agreed to in writing, software
  12:..\..\..\liblc3\src/lc3.c ****  *  distributed under the License is distributed on an "AS IS" BASIS,
  13:..\..\..\liblc3\src/lc3.c ****  *  WITHOUT WARRANTIES OR CONDITIONS OF ANY KIND, either express or implied.
  14:..\..\..\liblc3\src/lc3.c ****  *  See the License for the specific language governing permissions and
  15:..\..\..\liblc3\src/lc3.c ****  *  limitations under the License.
  16:..\..\..\liblc3\src/lc3.c ****  *
  17:..\..\..\liblc3\src/lc3.c ****  ******************************************************************************/
  18:..\..\..\liblc3\src/lc3.c **** 
  19:..\..\..\liblc3\src/lc3.c **** #include <lc3.h>
  20:..\..\..\liblc3\src/lc3.c **** 
  21:..\..\..\liblc3\src/lc3.c **** #include "common.h"
  22:..\..\..\liblc3\src/lc3.c **** #include "bits.h"
  23:..\..\..\liblc3\src/lc3.c **** 
  24:..\..\..\liblc3\src/lc3.c **** #include "attdet.h"
  25:..\..\..\liblc3\src/lc3.c **** #include "bwdet.h"
  26:..\..\..\liblc3\src/lc3.c **** #include "ltpf.h"
  27:..\..\..\liblc3\src/lc3.c **** #include "mdct.h"
  28:..\..\..\liblc3\src/lc3.c **** #include "energy.h"
  29:..\..\..\liblc3\src/lc3.c **** #include "sns.h"
  30:..\..\..\liblc3\src/lc3.c **** #include "tns.h"
ARM GAS  C:\Users\rdn\AppData\Local\Temp\ccCxUcqe.s 			page 2


  31:..\..\..\liblc3\src/lc3.c **** #include "spec.h"
  32:..\..\..\liblc3\src/lc3.c **** #include "plc.h"
  33:..\..\..\liblc3\src/lc3.c **** 
  34:..\..\..\liblc3\src/lc3.c **** 
  35:..\..\..\liblc3\src/lc3.c **** /**
  36:..\..\..\liblc3\src/lc3.c ****  * Frame side data
  37:..\..\..\liblc3\src/lc3.c ****  */
  38:..\..\..\liblc3\src/lc3.c **** 
  39:..\..\..\liblc3\src/lc3.c **** struct side_data {
  40:..\..\..\liblc3\src/lc3.c ****     enum lc3_bandwidth bw;
  41:..\..\..\liblc3\src/lc3.c ****     bool pitch_present;
  42:..\..\..\liblc3\src/lc3.c ****     lc3_ltpf_data_t ltpf;
  43:..\..\..\liblc3\src/lc3.c ****     lc3_sns_data_t sns;
  44:..\..\..\liblc3\src/lc3.c ****     lc3_tns_data_t tns;
  45:..\..\..\liblc3\src/lc3.c ****     lc3_spec_side_t spec;
  46:..\..\..\liblc3\src/lc3.c **** };
  47:..\..\..\liblc3\src/lc3.c **** 
  48:..\..\..\liblc3\src/lc3.c **** 
  49:..\..\..\liblc3\src/lc3.c **** /* ----------------------------------------------------------------------------
  50:..\..\..\liblc3\src/lc3.c ****  *  General
  51:..\..\..\liblc3\src/lc3.c ****  * -------------------------------------------------------------------------- */
  52:..\..\..\liblc3\src/lc3.c **** 
  53:..\..\..\liblc3\src/lc3.c **** /**
  54:..\..\..\liblc3\src/lc3.c ****  * Resolve frame duration in us
  55:..\..\..\liblc3\src/lc3.c ****  * us              Frame duration in us
  56:..\..\..\liblc3\src/lc3.c ****  * hrmode          High-resolution mode indication
  57:..\..\..\liblc3\src/lc3.c ****  * return          Frame duration identifier, or LC3_NUM_DT
  58:..\..\..\liblc3\src/lc3.c ****  */
  59:..\..\..\liblc3\src/lc3.c **** static enum lc3_dt resolve_dt(int us, bool hrmode)
  60:..\..\..\liblc3\src/lc3.c **** {
  28              		.loc 1 60 0
  29              		.cfi_startproc
  30              		@ args = 0, pretend = 0, frame = 0
  31              		@ frame_needed = 0, uses_anonymous_args = 0
  32              		@ link register save eliminated.
  33              	.LVL0:
  61:..\..\..\liblc3\src/lc3.c ****     return LC3_PLUS && us ==  2500 ? LC3_DT_2M5 :
  34              		.loc 1 61 0
  35 0000 40F6C413 		movw	r3, #2500
  36 0004 9842     		cmp	r0, r3
  37 0006 0ED0     		beq	.L4
  38              		.loc 1 61 0 is_stmt 0 discriminator 1
  39 0008 41F28833 		movw	r3, #5000
  40 000c 9842     		cmp	r0, r3
  41 000e 0CD0     		beq	.L5
  42              		.loc 1 61 0 discriminator 3
  43 0010 19B9     		cbnz	r1, .L3
  62:..\..\..\liblc3\src/lc3.c ****            LC3_PLUS && us ==  5000 ? LC3_DT_5M  :
  63:..\..\..\liblc3\src/lc3.c ****            !hrmode  && us ==  7500 ? LC3_DT_7M5 :
  44              		.loc 1 63 0 is_stmt 1
  45 0012 41F64C53 		movw	r3, #7500
  46 0016 9842     		cmp	r0, r3
  47 0018 09D0     		beq	.L6
  48              	.L3:
  61:..\..\..\liblc3\src/lc3.c ****     return LC3_PLUS && us ==  2500 ? LC3_DT_2M5 :
  49              		.loc 1 61 0 discriminator 5
  50 001a 42F21073 		movw	r3, #10000
ARM GAS  C:\Users\rdn\AppData\Local\Temp\ccCxUcqe.s 			page 3


  51 001e 9842     		cmp	r0, r3
  52 0020 07D1     		bne	.L7
  61:..\..\..\liblc3\src/lc3.c ****     return LC3_PLUS && us ==  2500 ? LC3_DT_2M5 :
  53              		.loc 1 61 0 is_stmt 0
  54 0022 0320     		movs	r0, #3
  55              	.LVL1:
  56 0024 7047     		bx	lr
  57              	.LVL2:
  58              	.L4:
  59 0026 0020     		movs	r0, #0
  60              	.LVL3:
  61 0028 7047     		bx	lr
  62              	.LVL4:
  63              	.L5:
  64 002a 0120     		movs	r0, #1
  65              	.LVL5:
  66 002c 7047     		bx	lr
  67              	.LVL6:
  68              	.L6:
  69 002e 0220     		movs	r0, #2
  70              	.LVL7:
  71 0030 7047     		bx	lr
  72              	.LVL8:
  73              	.L7:
  74 0032 0420     		movs	r0, #4
  75              	.LVL9:
  64:..\..\..\liblc3\src/lc3.c ****                        us == 10000 ? LC3_DT_10M : LC3_NUM_DT;
  65:..\..\..\liblc3\src/lc3.c **** }
  76              		.loc 1 65 0 is_stmt 1
  77 0034 7047     		bx	lr
  78              		.cfi_endproc
  79              	.LFE20:
  80              		.size	resolve_dt, .-resolve_dt
  81 0036 00BF     		.section	.text.resolve_srate,"ax",%progbits
  82              		.align	2
  83              		.thumb
  84              		.thumb_func
  85              		.type	resolve_srate, %function
  86              	resolve_srate:
  87              	.LFB21:
  66:..\..\..\liblc3\src/lc3.c **** 
  67:..\..\..\liblc3\src/lc3.c **** /**
  68:..\..\..\liblc3\src/lc3.c ****  * Resolve samplerate in Hz
  69:..\..\..\liblc3\src/lc3.c ****  * hz              Samplerate in Hz
  70:..\..\..\liblc3\src/lc3.c ****  * hrmode          High-resolution mode indication
  71:..\..\..\liblc3\src/lc3.c ****  * return          Sample rate identifier, or LC3_NUM_SRATE
  72:..\..\..\liblc3\src/lc3.c ****  */
  73:..\..\..\liblc3\src/lc3.c **** static enum lc3_srate resolve_srate(int hz, bool hrmode)
  74:..\..\..\liblc3\src/lc3.c **** {
  88              		.loc 1 74 0
  89              		.cfi_startproc
  90              		@ args = 0, pretend = 0, frame = 0
  91              		@ frame_needed = 0, uses_anonymous_args = 0
  92              		@ link register save eliminated.
  93              	.LVL10:
  75:..\..\..\liblc3\src/lc3.c ****     hrmode = LC3_PLUS_HR && hrmode;
  76:..\..\..\liblc3\src/lc3.c **** 
ARM GAS  C:\Users\rdn\AppData\Local\Temp\ccCxUcqe.s 			page 4


  77:..\..\..\liblc3\src/lc3.c ****     return !hrmode && hz ==  8000 ? LC3_SRATE_8K     :
  94              		.loc 1 77 0
  95 0000 0B46     		mov	r3, r1
  96 0002 11B9     		cbnz	r1, .L9
  97              		.loc 1 77 0 is_stmt 0 discriminator 2
  98 0004 B0F5FA5F 		cmp	r0, #8000
  99 0008 1CD0     		beq	.L16
 100              	.L9:
 101              		.loc 1 77 0 discriminator 3
 102 000a 13B9     		cbnz	r3, .L11
  78:..\..\..\liblc3\src/lc3.c ****            !hrmode && hz == 16000 ? LC3_SRATE_16K    :
 103              		.loc 1 78 0 is_stmt 1
 104 000c B0F57A5F 		cmp	r0, #16000
 105 0010 1AD0     		beq	.L17
 106              	.L11:
  77:..\..\..\liblc3\src/lc3.c ****            !hrmode && hz == 16000 ? LC3_SRATE_16K    :
 107              		.loc 1 77 0 discriminator 5
 108 0012 1BB9     		cbnz	r3, .L12
  79:..\..\..\liblc3\src/lc3.c ****            !hrmode && hz == 24000 ? LC3_SRATE_24K    :
 109              		.loc 1 79 0
 110 0014 45F6C052 		movw	r2, #24000
 111 0018 9042     		cmp	r0, r2
 112 001a 17D0     		beq	.L18
 113              	.L12:
  77:..\..\..\liblc3\src/lc3.c ****            !hrmode && hz == 16000 ? LC3_SRATE_16K    :
 114              		.loc 1 77 0 discriminator 6
 115 001c 13B9     		cbnz	r3, .L13
  80:..\..\..\liblc3\src/lc3.c ****            !hrmode && hz == 32000 ? LC3_SRATE_32K    :
 116              		.loc 1 80 0
 117 001e B0F5FA4F 		cmp	r0, #32000
 118 0022 15D0     		beq	.L19
 119              	.L13:
  77:..\..\..\liblc3\src/lc3.c ****            !hrmode && hz == 16000 ? LC3_SRATE_16K    :
 120              		.loc 1 77 0 discriminator 7
 121 0024 1BB9     		cbnz	r3, .L14
  81:..\..\..\liblc3\src/lc3.c ****            !hrmode && hz == 48000 ? LC3_SRATE_48K    :
 122              		.loc 1 81 0
 123 0026 4BF68032 		movw	r2, #48000
 124 002a 9042     		cmp	r0, r2
 125 002c 12D0     		beq	.L20
 126              	.L14:
  77:..\..\..\liblc3\src/lc3.c ****            !hrmode && hz == 16000 ? LC3_SRATE_16K    :
 127              		.loc 1 77 0 discriminator 8
 128 002e 1BB1     		cbz	r3, .L15
  82:..\..\..\liblc3\src/lc3.c ****             hrmode && hz == 48000 ? LC3_SRATE_48K_HR :
 129              		.loc 1 82 0
 130 0030 4BF68032 		movw	r2, #48000
 131 0034 9042     		cmp	r0, r2
 132 0036 0FD0     		beq	.L21
 133              	.L15:
  77:..\..\..\liblc3\src/lc3.c ****            !hrmode && hz == 16000 ? LC3_SRATE_16K    :
 134              		.loc 1 77 0 discriminator 9
 135 0038 83B1     		cbz	r3, .L22
  83:..\..\..\liblc3\src/lc3.c ****             hrmode && hz == 96000 ? LC3_SRATE_96K_HR : LC3_NUM_SRATE;
 136              		.loc 1 83 0
 137 003a 0A4B     		ldr	r3, .L24
 138 003c 9842     		cmp	r0, r3
ARM GAS  C:\Users\rdn\AppData\Local\Temp\ccCxUcqe.s 			page 5


 139 003e 0FD0     		beq	.L23
  77:..\..\..\liblc3\src/lc3.c ****            !hrmode && hz == 16000 ? LC3_SRATE_16K    :
 140              		.loc 1 77 0
 141 0040 0720     		movs	r0, #7
 142              	.LVL11:
 143 0042 7047     		bx	lr
 144              	.LVL12:
 145              	.L16:
 146 0044 0020     		movs	r0, #0
 147              	.LVL13:
 148 0046 7047     		bx	lr
 149              	.LVL14:
 150              	.L17:
 151 0048 0120     		movs	r0, #1
 152              	.LVL15:
 153 004a 7047     		bx	lr
 154              	.LVL16:
 155              	.L18:
 156 004c 0220     		movs	r0, #2
 157              	.LVL17:
 158 004e 7047     		bx	lr
 159              	.LVL18:
 160              	.L19:
 161 0050 0320     		movs	r0, #3
 162              	.LVL19:
 163 0052 7047     		bx	lr
 164              	.LVL20:
 165              	.L20:
 166 0054 0420     		movs	r0, #4
 167              	.LVL21:
 168 0056 7047     		bx	lr
 169              	.LVL22:
 170              	.L21:
 171 0058 0520     		movs	r0, #5
 172              	.LVL23:
 173 005a 7047     		bx	lr
 174              	.LVL24:
 175              	.L22:
 176 005c 0720     		movs	r0, #7
 177              	.LVL25:
 178 005e 7047     		bx	lr
 179              	.LVL26:
 180              	.L23:
 181 0060 0620     		movs	r0, #6
 182              	.LVL27:
  84:..\..\..\liblc3\src/lc3.c **** }
 183              		.loc 1 84 0
 184 0062 7047     		bx	lr
 185              	.L25:
 186              		.align	2
 187              	.L24:
 188 0064 00770100 		.word	96000
 189              		.cfi_endproc
 190              	.LFE21:
 191              		.size	resolve_srate, .-resolve_srate
 192              		.section	.text.load_s16,"ax",%progbits
 193              		.align	2
ARM GAS  C:\Users\rdn\AppData\Local\Temp\ccCxUcqe.s 			page 6


 194              		.thumb
 195              		.thumb_func
 196              		.type	load_s16, %function
 197              	load_s16:
 198              	.LFB32:
  85:..\..\..\liblc3\src/lc3.c **** 
  86:..\..\..\liblc3\src/lc3.c **** /**
  87:..\..\..\liblc3\src/lc3.c ****  * Return the number of PCM samples in a frame
  88:..\..\..\liblc3\src/lc3.c ****  */
  89:..\..\..\liblc3\src/lc3.c **** LC3_EXPORT int lc3_hr_frame_samples(bool hrmode, int dt_us, int sr_hz)
  90:..\..\..\liblc3\src/lc3.c **** {
  91:..\..\..\liblc3\src/lc3.c ****     enum lc3_dt dt = resolve_dt(dt_us, hrmode);
  92:..\..\..\liblc3\src/lc3.c ****     enum lc3_srate sr = resolve_srate(sr_hz, hrmode);
  93:..\..\..\liblc3\src/lc3.c **** 
  94:..\..\..\liblc3\src/lc3.c ****     if (dt >= LC3_NUM_DT || sr >= LC3_NUM_SRATE)
  95:..\..\..\liblc3\src/lc3.c ****         return -1;
  96:..\..\..\liblc3\src/lc3.c **** 
  97:..\..\..\liblc3\src/lc3.c ****     return lc3_ns(dt, sr);
  98:..\..\..\liblc3\src/lc3.c **** }
  99:..\..\..\liblc3\src/lc3.c **** 
 100:..\..\..\liblc3\src/lc3.c **** LC3_EXPORT int lc3_frame_samples(int dt_us, int sr_hz)
 101:..\..\..\liblc3\src/lc3.c **** {
 102:..\..\..\liblc3\src/lc3.c ****     return lc3_hr_frame_samples(false, dt_us, sr_hz);
 103:..\..\..\liblc3\src/lc3.c **** }
 104:..\..\..\liblc3\src/lc3.c **** 
 105:..\..\..\liblc3\src/lc3.c **** /**
 106:..\..\..\liblc3\src/lc3.c ****  * Return the size of frames or frame blocks, from bitrate
 107:..\..\..\liblc3\src/lc3.c ****  */
 108:..\..\..\liblc3\src/lc3.c **** LC3_EXPORT int lc3_hr_frame_block_bytes(
 109:..\..\..\liblc3\src/lc3.c ****     bool hrmode, int dt_us, int sr_hz, int nchannels, int bitrate)
 110:..\..\..\liblc3\src/lc3.c **** {
 111:..\..\..\liblc3\src/lc3.c ****     enum lc3_dt dt = resolve_dt(dt_us, hrmode);
 112:..\..\..\liblc3\src/lc3.c ****     enum lc3_srate sr = resolve_srate(sr_hz, hrmode);
 113:..\..\..\liblc3\src/lc3.c **** 
 114:..\..\..\liblc3\src/lc3.c ****     if (dt >= LC3_NUM_DT || sr >= LC3_NUM_SRATE
 115:..\..\..\liblc3\src/lc3.c ****             || nchannels < 1 || nchannels > 8 || bitrate < 0)
 116:..\..\..\liblc3\src/lc3.c ****         return -1;
 117:..\..\..\liblc3\src/lc3.c **** 
 118:..\..\..\liblc3\src/lc3.c ****     bitrate = LC3_CLIP(bitrate, 0, 8*LC3_HR_MAX_BITRATE);
 119:..\..\..\liblc3\src/lc3.c **** 
 120:..\..\..\liblc3\src/lc3.c ****     return LC3_CLIP((bitrate * (int)(1 + dt)) / 3200,
 121:..\..\..\liblc3\src/lc3.c ****         nchannels * lc3_min_frame_bytes(dt, sr),
 122:..\..\..\liblc3\src/lc3.c ****         nchannels * lc3_max_frame_bytes(dt, sr) );
 123:..\..\..\liblc3\src/lc3.c **** }
 124:..\..\..\liblc3\src/lc3.c **** 
 125:..\..\..\liblc3\src/lc3.c **** LC3_EXPORT int lc3_frame_bock_bytes(int dt_us, int nchannels, int bitrate)
 126:..\..\..\liblc3\src/lc3.c **** {
 127:..\..\..\liblc3\src/lc3.c ****     return lc3_hr_frame_block_bytes(false, dt_us, 8000, nchannels, bitrate);
 128:..\..\..\liblc3\src/lc3.c **** }
 129:..\..\..\liblc3\src/lc3.c **** 
 130:..\..\..\liblc3\src/lc3.c **** LC3_EXPORT int lc3_hr_frame_bytes(
 131:..\..\..\liblc3\src/lc3.c ****     bool hrmode, int dt_us, int sr_hz, int bitrate)
 132:..\..\..\liblc3\src/lc3.c **** {
 133:..\..\..\liblc3\src/lc3.c ****     return lc3_hr_frame_block_bytes(hrmode, dt_us, sr_hz, 1, bitrate);
 134:..\..\..\liblc3\src/lc3.c **** }
 135:..\..\..\liblc3\src/lc3.c **** 
 136:..\..\..\liblc3\src/lc3.c **** LC3_EXPORT int lc3_frame_bytes(int dt_us, int bitrate)
ARM GAS  C:\Users\rdn\AppData\Local\Temp\ccCxUcqe.s 			page 7


 137:..\..\..\liblc3\src/lc3.c **** {
 138:..\..\..\liblc3\src/lc3.c ****     return lc3_hr_frame_bytes(false, dt_us, 8000, bitrate);
 139:..\..\..\liblc3\src/lc3.c **** }
 140:..\..\..\liblc3\src/lc3.c **** 
 141:..\..\..\liblc3\src/lc3.c **** /**
 142:..\..\..\liblc3\src/lc3.c ****  * Resolve the bitrate, from the size of frames or frame blocks
 143:..\..\..\liblc3\src/lc3.c ****  */
 144:..\..\..\liblc3\src/lc3.c **** LC3_EXPORT int lc3_hr_resolve_bitrate(
 145:..\..\..\liblc3\src/lc3.c ****     bool hrmode, int dt_us, int sr_hz, int nbytes)
 146:..\..\..\liblc3\src/lc3.c **** {
 147:..\..\..\liblc3\src/lc3.c ****     enum lc3_dt dt = resolve_dt(dt_us, hrmode);
 148:..\..\..\liblc3\src/lc3.c ****     enum lc3_srate sr = resolve_srate(sr_hz, hrmode);
 149:..\..\..\liblc3\src/lc3.c **** 
 150:..\..\..\liblc3\src/lc3.c ****     if (dt >= LC3_NUM_DT || sr >= LC3_NUM_SRATE || nbytes < 0)
 151:..\..\..\liblc3\src/lc3.c ****         return -1;
 152:..\..\..\liblc3\src/lc3.c **** 
 153:..\..\..\liblc3\src/lc3.c ****     return LC3_MIN(((int64_t)nbytes * 3200 + dt) / (1 + dt), INT_MAX);
 154:..\..\..\liblc3\src/lc3.c **** }
 155:..\..\..\liblc3\src/lc3.c **** 
 156:..\..\..\liblc3\src/lc3.c **** LC3_EXPORT int lc3_resolve_bitrate(int dt_us, int nbytes)
 157:..\..\..\liblc3\src/lc3.c **** {
 158:..\..\..\liblc3\src/lc3.c ****     return lc3_hr_resolve_bitrate(false, dt_us, 8000, nbytes);
 159:..\..\..\liblc3\src/lc3.c **** }
 160:..\..\..\liblc3\src/lc3.c **** 
 161:..\..\..\liblc3\src/lc3.c **** /**
 162:..\..\..\liblc3\src/lc3.c ****  * Return algorithmic delay, as a number of samples
 163:..\..\..\liblc3\src/lc3.c ****  */
 164:..\..\..\liblc3\src/lc3.c **** LC3_EXPORT int lc3_hr_delay_samples(bool hrmode, int dt_us, int sr_hz)
 165:..\..\..\liblc3\src/lc3.c **** {
 166:..\..\..\liblc3\src/lc3.c ****     enum lc3_dt dt = resolve_dt(dt_us, hrmode);
 167:..\..\..\liblc3\src/lc3.c ****     enum lc3_srate sr = resolve_srate(sr_hz, hrmode);
 168:..\..\..\liblc3\src/lc3.c **** 
 169:..\..\..\liblc3\src/lc3.c ****     if (dt >= LC3_NUM_DT || sr >= LC3_NUM_SRATE)
 170:..\..\..\liblc3\src/lc3.c ****         return -1;
 171:..\..\..\liblc3\src/lc3.c **** 
 172:..\..\..\liblc3\src/lc3.c ****     return 2 * lc3_nd(dt, sr) - lc3_ns(dt, sr);
 173:..\..\..\liblc3\src/lc3.c **** }
 174:..\..\..\liblc3\src/lc3.c **** 
 175:..\..\..\liblc3\src/lc3.c **** LC3_EXPORT int lc3_delay_samples(int dt_us, int sr_hz)
 176:..\..\..\liblc3\src/lc3.c **** {
 177:..\..\..\liblc3\src/lc3.c ****     return lc3_hr_delay_samples(false, dt_us, sr_hz);
 178:..\..\..\liblc3\src/lc3.c **** }
 179:..\..\..\liblc3\src/lc3.c **** 
 180:..\..\..\liblc3\src/lc3.c **** 
 181:..\..\..\liblc3\src/lc3.c **** /* ----------------------------------------------------------------------------
 182:..\..\..\liblc3\src/lc3.c ****  *  Encoder
 183:..\..\..\liblc3\src/lc3.c ****  * -------------------------------------------------------------------------- */
 184:..\..\..\liblc3\src/lc3.c **** 
 185:..\..\..\liblc3\src/lc3.c **** /**
 186:..\..\..\liblc3\src/lc3.c ****  * Input PCM Samples from signed 16 bits
 187:..\..\..\liblc3\src/lc3.c ****  * encoder         Encoder state
 188:..\..\..\liblc3\src/lc3.c ****  * pcm, stride     Input PCM samples, and count between two consecutives
 189:..\..\..\liblc3\src/lc3.c ****  */
 190:..\..\..\liblc3\src/lc3.c **** static void load_s16(
 191:..\..\..\liblc3\src/lc3.c ****     struct lc3_encoder *encoder, const void *_pcm, int stride)
 192:..\..\..\liblc3\src/lc3.c **** {
 199              		.loc 1 192 0
ARM GAS  C:\Users\rdn\AppData\Local\Temp\ccCxUcqe.s 			page 8


 200              		.cfi_startproc
 201              		@ args = 0, pretend = 0, frame = 0
 202              		@ frame_needed = 0, uses_anonymous_args = 0
 203              	.LVL28:
 204 0000 F0B5     		push	{r4, r5, r6, r7, lr}
 205              		.cfi_def_cfa_offset 20
 206              		.cfi_offset 4, -20
 207              		.cfi_offset 5, -16
 208              		.cfi_offset 6, -12
 209              		.cfi_offset 7, -8
 210              		.cfi_offset 14, -4
 211              	.LVL29:
 193:..\..\..\liblc3\src/lc3.c ****     const int16_t *pcm = _pcm;
 194:..\..\..\liblc3\src/lc3.c **** 
 195:..\..\..\liblc3\src/lc3.c ****     enum lc3_dt dt = encoder->dt;
 212              		.loc 1 195 0
 213 0002 0378     		ldrb	r3, [r0]	@ zero_extendqisi2
 214              	.LVL30:
 196:..\..\..\liblc3\src/lc3.c ****     enum lc3_srate sr = encoder->sr_pcm;
 215              		.loc 1 196 0
 216 0004 8578     		ldrb	r5, [r0, #2]	@ zero_extendqisi2
 217              	.LVL31:
 197:..\..\..\liblc3\src/lc3.c **** 
 198:..\..\..\liblc3\src/lc3.c ****     int16_t *xt = (int16_t *)encoder->x + encoder->xt_off;
 218              		.loc 1 198 0
 219 0006 00F2AC44 		addw	r4, r0, #1196
 220 000a D0F8A064 		ldr	r6, [r0, #1184]
 221 000e 4FEA460E 		lsl	lr, r6, #1
 222              	.LVL32:
 199:..\..\..\liblc3\src/lc3.c ****     float *xs = encoder->x + encoder->xs_off;
 223              		.loc 1 199 0
 224 0012 D0F8A474 		ldr	r7, [r0, #1188]
 225 0016 BF00     		lsls	r7, r7, #2
 226              	.LVL33:
 227              	.LBB111:
 228              	.LBB112:
 229              		.file 2 "..\\..\\..\\liblc3\\src\\tables.h"
   1:..\..\..\liblc3\src/tables.h **** /******************************************************************************
   2:..\..\..\liblc3\src/tables.h ****  *
   3:..\..\..\liblc3\src/tables.h ****  *  Copyright 2022 Google LLC
   4:..\..\..\liblc3\src/tables.h ****  *
   5:..\..\..\liblc3\src/tables.h ****  *  Licensed under the Apache License, Version 2.0 (the "License");
   6:..\..\..\liblc3\src/tables.h ****  *  you may not use this file except in compliance with the License.
   7:..\..\..\liblc3\src/tables.h ****  *  You may obtain a copy of the License at:
   8:..\..\..\liblc3\src/tables.h ****  *
   9:..\..\..\liblc3\src/tables.h ****  *  http://www.apache.org/licenses/LICENSE-2.0
  10:..\..\..\liblc3\src/tables.h ****  *
  11:..\..\..\liblc3\src/tables.h ****  *  Unless required by applicable law or agreed to in writing, software
  12:..\..\..\liblc3\src/tables.h ****  *  distributed under the License is distributed on an "AS IS" BASIS,
  13:..\..\..\liblc3\src/tables.h ****  *  WITHOUT WARRANTIES OR CONDITIONS OF ANY KIND, either express or implied.
  14:..\..\..\liblc3\src/tables.h ****  *  See the License for the specific language governing permissions and
  15:..\..\..\liblc3\src/tables.h ****  *  limitations under the License.
  16:..\..\..\liblc3\src/tables.h ****  *
  17:..\..\..\liblc3\src/tables.h ****  ******************************************************************************/
  18:..\..\..\liblc3\src/tables.h **** 
  19:..\..\..\liblc3\src/tables.h **** #ifndef __LC3_TABLES_H
  20:..\..\..\liblc3\src/tables.h **** #define __LC3_TABLES_H
ARM GAS  C:\Users\rdn\AppData\Local\Temp\ccCxUcqe.s 			page 9


  21:..\..\..\liblc3\src/tables.h **** 
  22:..\..\..\liblc3\src/tables.h **** #include "common.h"
  23:..\..\..\liblc3\src/tables.h **** #include "bits.h"
  24:..\..\..\liblc3\src/tables.h **** 
  25:..\..\..\liblc3\src/tables.h **** 
  26:..\..\..\liblc3\src/tables.h **** /**
  27:..\..\..\liblc3\src/tables.h ****  * Characteristics
  28:..\..\..\liblc3\src/tables.h ****  *
  29:..\..\..\liblc3\src/tables.h ****  *   ns   Number of temporal samples / frequency coefficients within a frame
  30:..\..\..\liblc3\src/tables.h ****  *
  31:..\..\..\liblc3\src/tables.h ****  *   ne   Number of encoded frequency coefficients
  32:..\..\..\liblc3\src/tables.h ****  *
  33:..\..\..\liblc3\src/tables.h ****  *   nd   Number of MDCT delayed samples, sum of half a frame and an ovelap
  34:..\..\..\liblc3\src/tables.h ****  *        of future by 1.25 ms (2.5ms, 5ms and 10ms frame durations),
  35:..\..\..\liblc3\src/tables.h ****  *        or 2 ms (7.5ms frame duration).
  36:..\..\..\liblc3\src/tables.h ****  *
  37:..\..\..\liblc3\src/tables.h ****  *   nh   Number of 18 ms samples of the history buffer, aligned on a frame
  38:..\..\..\liblc3\src/tables.h ****  *
  39:..\..\..\liblc3\src/tables.h ****  *   nt   Number of 1.25 ms previous samples
  40:..\..\..\liblc3\src/tables.h ****  */
  41:..\..\..\liblc3\src/tables.h **** 
  42:..\..\..\liblc3\src/tables.h **** extern const int lc3_ns_2m5[LC3_NUM_SRATE];
  43:..\..\..\liblc3\src/tables.h **** extern const int lc3_ne_2m5[LC3_NUM_SRATE];
  44:..\..\..\liblc3\src/tables.h **** extern const int lc3_ns_4m [LC3_NUM_SRATE];
  45:..\..\..\liblc3\src/tables.h **** 
  46:..\..\..\liblc3\src/tables.h **** static inline int lc3_ns(enum lc3_dt dt, enum lc3_srate sr) {
  47:..\..\..\liblc3\src/tables.h ****     return lc3_ns_2m5[sr] * (1 + dt);
 230              		.loc 2 47 0
 231 0018 0E48     		ldr	r0, .L30
 232              	.LVL34:
 233 001a 50F82560 		ldr	r6, [r0, r5, lsl #2]
 234 001e 03FB0666 		mla	r6, r3, r6, r6
 235              	.LVL35:
 236              	.LBE112:
 237              	.LBE111:
 238              	.LBB113:
 200:..\..\..\liblc3\src/lc3.c ****     int ns = lc3_ns(dt, sr);
 201:..\..\..\liblc3\src/lc3.c **** 
 202:..\..\..\liblc3\src/lc3.c ****     for (int i = 0; i < ns; i++, pcm += stride)
 239              		.loc 1 202 0
 240 0022 0023     		movs	r3, #0
 241              	.LVL36:
 242 0024 12E0     		b	.L27
 243              	.LVL37:
 244              	.L28:
 203:..\..\..\liblc3\src/lc3.c ****         xt[i] = *pcm, xs[i] = *pcm;
 245              		.loc 1 203 0 discriminator 3
 246 0026 0EEB4300 		add	r0, lr, r3, lsl #1
 247 002a B1F90050 		ldrsh	r5, [r1]
 248 002e 2552     		strh	r5, [r4, r0]	@ movhi
 249 0030 07EB8300 		add	r0, r7, r3, lsl #2
 250 0034 2044     		add	r0, r0, r4
 251 0036 B1F90050 		ldrsh	r5, [r1]
 252 003a 07EE905A 		vmov	s15, r5	@ int
 253 003e F8EEE77A 		vcvt.f32.s32	s15, s15
 254 0042 C0ED007A 		vstr.32	s15, [r0]
 202:..\..\..\liblc3\src/lc3.c ****         xt[i] = *pcm, xs[i] = *pcm;
ARM GAS  C:\Users\rdn\AppData\Local\Temp\ccCxUcqe.s 			page 10


 255              		.loc 1 202 0 discriminator 3
 256 0046 0133     		adds	r3, r3, #1
 257              	.LVL38:
 258 0048 01EB4201 		add	r1, r1, r2, lsl #1
 259              	.LVL39:
 260              	.L27:
 202:..\..\..\liblc3\src/lc3.c ****         xt[i] = *pcm, xs[i] = *pcm;
 261              		.loc 1 202 0 is_stmt 0 discriminator 1
 262 004c B342     		cmp	r3, r6
 263 004e EADB     		blt	.L28
 264              	.LBE113:
 204:..\..\..\liblc3\src/lc3.c **** }
 265              		.loc 1 204 0 is_stmt 1
 266 0050 F0BD     		pop	{r4, r5, r6, r7, pc}
 267              	.LVL40:
 268              	.L31:
 269 0052 00BF     		.align	2
 270              	.L30:
 271 0054 00000000 		.word	lc3_ns_2m5
 272              		.cfi_endproc
 273              	.LFE32:
 274              		.size	load_s16, .-load_s16
 275              		.section	.text.load_s24,"ax",%progbits
 276              		.align	2
 277              		.thumb
 278              		.thumb_func
 279              		.type	load_s24, %function
 280              	load_s24:
 281              	.LFB33:
 205:..\..\..\liblc3\src/lc3.c **** 
 206:..\..\..\liblc3\src/lc3.c **** /**
 207:..\..\..\liblc3\src/lc3.c ****  * Input PCM Samples from signed 24 bits
 208:..\..\..\liblc3\src/lc3.c ****  * encoder         Encoder state
 209:..\..\..\liblc3\src/lc3.c ****  * pcm, stride     Input PCM samples, and count between two consecutives
 210:..\..\..\liblc3\src/lc3.c ****  */
 211:..\..\..\liblc3\src/lc3.c **** static void load_s24(
 212:..\..\..\liblc3\src/lc3.c ****     struct lc3_encoder *encoder, const void *_pcm, int stride)
 213:..\..\..\liblc3\src/lc3.c **** {
 282              		.loc 1 213 0
 283              		.cfi_startproc
 284              		@ args = 0, pretend = 0, frame = 0
 285              		@ frame_needed = 0, uses_anonymous_args = 0
 286              	.LVL41:
 287 0000 F0B5     		push	{r4, r5, r6, r7, lr}
 288              		.cfi_def_cfa_offset 20
 289              		.cfi_offset 4, -20
 290              		.cfi_offset 5, -16
 291              		.cfi_offset 6, -12
 292              		.cfi_offset 7, -8
 293              		.cfi_offset 14, -4
 294              	.LVL42:
 214:..\..\..\liblc3\src/lc3.c ****     const int32_t *pcm = _pcm;
 215:..\..\..\liblc3\src/lc3.c **** 
 216:..\..\..\liblc3\src/lc3.c ****     enum lc3_dt dt = encoder->dt;
 295              		.loc 1 216 0
 296 0002 0378     		ldrb	r3, [r0]	@ zero_extendqisi2
 297              	.LVL43:
ARM GAS  C:\Users\rdn\AppData\Local\Temp\ccCxUcqe.s 			page 11


 217:..\..\..\liblc3\src/lc3.c ****     enum lc3_srate sr = encoder->sr_pcm;
 298              		.loc 1 217 0
 299 0004 8478     		ldrb	r4, [r0, #2]	@ zero_extendqisi2
 300              	.LVL44:
 218:..\..\..\liblc3\src/lc3.c **** 
 219:..\..\..\liblc3\src/lc3.c ****     int16_t *xt = (int16_t *)encoder->x + encoder->xt_off;
 301              		.loc 1 219 0
 302 0006 00F2AC45 		addw	r5, r0, #1196
 303 000a D0F8A064 		ldr	r6, [r0, #1184]
 304 000e 4FEA460E 		lsl	lr, r6, #1
 305              	.LVL45:
 220:..\..\..\liblc3\src/lc3.c ****     float *xs = encoder->x + encoder->xs_off;
 306              		.loc 1 220 0
 307 0012 D0F8A474 		ldr	r7, [r0, #1188]
 308 0016 BF00     		lsls	r7, r7, #2
 309              	.LVL46:
 310              	.LBB114:
 311              	.LBB115:
 312              		.loc 2 47 0
 313 0018 1048     		ldr	r0, .L37
 314              	.LVL47:
 315 001a 50F82460 		ldr	r6, [r0, r4, lsl #2]
 316 001e 03FB0666 		mla	r6, r3, r6, r6
 317              	.LVL48:
 318              	.LBE115:
 319              	.LBE114:
 320              	.LBB116:
 221:..\..\..\liblc3\src/lc3.c ****     int ns = lc3_ns(dt, sr);
 222:..\..\..\liblc3\src/lc3.c **** 
 223:..\..\..\liblc3\src/lc3.c ****     for (int i = 0; i < ns; i++, pcm += stride) {
 321              		.loc 1 223 0
 322 0022 0020     		movs	r0, #0
 323 0024 16E0     		b	.L33
 324              	.LVL49:
 325              	.L35:
 224:..\..\..\liblc3\src/lc3.c ****         xt[i] = *pcm >> 8;
 326              		.loc 1 224 0 discriminator 3
 327 0026 0EEB4003 		add	r3, lr, r0, lsl #1
 328              	.LVL50:
 329 002a 0C68     		ldr	r4, [r1]
 330 002c 2412     		asrs	r4, r4, #8
 331 002e EC52     		strh	r4, [r5, r3]	@ movhi
 225:..\..\..\liblc3\src/lc3.c ****         xs[i] = lc3_ldexpf(*pcm, -8);
 332              		.loc 1 225 0 discriminator 3
 333 0030 07EB8004 		add	r4, r7, r0, lsl #2
 334 0034 2C44     		add	r4, r4, r5
 335              	.LVL51:
 336              	.LBB117:
 337              	.LBB118:
 338              		.file 3 "..\\..\\..\\liblc3\\src\\fastmath.h"
   1:..\..\..\liblc3\src/fastmath.h **** /******************************************************************************
   2:..\..\..\liblc3\src/fastmath.h ****  *
   3:..\..\..\liblc3\src/fastmath.h ****  *  Copyright 2022 Google LLC
   4:..\..\..\liblc3\src/fastmath.h ****  *
   5:..\..\..\liblc3\src/fastmath.h ****  *  Licensed under the Apache License, Version 2.0 (the "License");
   6:..\..\..\liblc3\src/fastmath.h ****  *  you may not use this file except in compliance with the License.
   7:..\..\..\liblc3\src/fastmath.h ****  *  You may obtain a copy of the License at:
ARM GAS  C:\Users\rdn\AppData\Local\Temp\ccCxUcqe.s 			page 12


   8:..\..\..\liblc3\src/fastmath.h ****  *
   9:..\..\..\liblc3\src/fastmath.h ****  *  http://www.apache.org/licenses/LICENSE-2.0
  10:..\..\..\liblc3\src/fastmath.h ****  *
  11:..\..\..\liblc3\src/fastmath.h ****  *  Unless required by applicable law or agreed to in writing, software
  12:..\..\..\liblc3\src/fastmath.h ****  *  distributed under the License is distributed on an "AS IS" BASIS,
  13:..\..\..\liblc3\src/fastmath.h ****  *  WITHOUT WARRANTIES OR CONDITIONS OF ANY KIND, either express or implied.
  14:..\..\..\liblc3\src/fastmath.h ****  *  See the License for the specific language governing permissions and
  15:..\..\..\liblc3\src/fastmath.h ****  *  limitations under the License.
  16:..\..\..\liblc3\src/fastmath.h ****  *
  17:..\..\..\liblc3\src/fastmath.h ****  ******************************************************************************/
  18:..\..\..\liblc3\src/fastmath.h **** 
  19:..\..\..\liblc3\src/fastmath.h **** #ifndef __LC3_FASTMATH_H
  20:..\..\..\liblc3\src/fastmath.h **** #define __LC3_FASTMATH_H
  21:..\..\..\liblc3\src/fastmath.h **** 
  22:..\..\..\liblc3\src/fastmath.h **** #include <stdint.h>
  23:..\..\..\liblc3\src/fastmath.h **** #include <math.h>
  24:..\..\..\liblc3\src/fastmath.h **** 
  25:..\..\..\liblc3\src/fastmath.h **** 
  26:..\..\..\liblc3\src/fastmath.h **** /**
  27:..\..\..\liblc3\src/fastmath.h ****  * IEEE 754 Floating point representation
  28:..\..\..\liblc3\src/fastmath.h ****  */
  29:..\..\..\liblc3\src/fastmath.h **** 
  30:..\..\..\liblc3\src/fastmath.h **** #define LC3_IEEE754_SIGN_SHL   (31)
  31:..\..\..\liblc3\src/fastmath.h **** #define LC3_IEEE754_SIGN_MASK  (1 << LC3_IEEE754_SIGN_SHL)
  32:..\..\..\liblc3\src/fastmath.h **** 
  33:..\..\..\liblc3\src/fastmath.h **** #define LC3_IEEE754_EXP_SHL    (23)
  34:..\..\..\liblc3\src/fastmath.h **** #define LC3_IEEE754_EXP_MASK   (0xff << LC3_IEEE754_EXP_SHL)
  35:..\..\..\liblc3\src/fastmath.h **** #define LC3_IEEE754_EXP_BIAS   (127)
  36:..\..\..\liblc3\src/fastmath.h **** 
  37:..\..\..\liblc3\src/fastmath.h **** 
  38:..\..\..\liblc3\src/fastmath.h **** /**
  39:..\..\..\liblc3\src/fastmath.h ****  * Fast multiply floating-point number by integral power of 2
  40:..\..\..\liblc3\src/fastmath.h ****  * x               Operand, finite number
  41:..\..\..\liblc3\src/fastmath.h ****  * exp             Exponent such that 2^x is finite
  42:..\..\..\liblc3\src/fastmath.h ****  * return          2^exp
  43:..\..\..\liblc3\src/fastmath.h ****  */
  44:..\..\..\liblc3\src/fastmath.h **** static inline float lc3_ldexpf(float _x, int exp) {
  45:..\..\..\liblc3\src/fastmath.h ****     union { float f; int32_t s; } x = { .f = _x };
 339              		.loc 3 45 0 discriminator 3
 340 0036 D1ED007A 		vldr.32	s15, [r1]	@ int
 341 003a F8EEE77A 		vcvt.f32.s32	s15, s15
 342              	.LVL52:
 343 003e 17EE903A 		vmov	r3, s15
 344              	.LVL53:
  46:..\..\..\liblc3\src/fastmath.h **** 
  47:..\..\..\liblc3\src/fastmath.h ****     if (x.s & LC3_IEEE754_EXP_MASK)
 345              		.loc 3 47 0 discriminator 3
 346 0042 13F0FF4F 		tst	r3, #2139095040
 347 0046 01D0     		beq	.L34
  48:..\..\..\liblc3\src/fastmath.h ****         x.s += exp << LC3_IEEE754_EXP_SHL;
 348              		.loc 3 48 0
 349 0048 03F17C43 		add	r3, r3, #-67108864
 350              	.LVL54:
 351              	.L34:
 352              	.LBE118:
 353              	.LBE117:
 354              		.loc 1 225 0
ARM GAS  C:\Users\rdn\AppData\Local\Temp\ccCxUcqe.s 			page 13


 355 004c 2360     		str	r3, [r4]	@ float
 223:..\..\..\liblc3\src/lc3.c ****         xt[i] = *pcm >> 8;
 356              		.loc 1 223 0
 357 004e 0130     		adds	r0, r0, #1
 358              	.LVL55:
 359 0050 01EB8201 		add	r1, r1, r2, lsl #2
 360              	.LVL56:
 361              	.L33:
 223:..\..\..\liblc3\src/lc3.c ****         xt[i] = *pcm >> 8;
 362              		.loc 1 223 0 is_stmt 0 discriminator 1
 363 0054 B042     		cmp	r0, r6
 364 0056 E6DB     		blt	.L35
 365              	.LBE116:
 226:..\..\..\liblc3\src/lc3.c ****     }
 227:..\..\..\liblc3\src/lc3.c **** }
 366              		.loc 1 227 0 is_stmt 1
 367 0058 F0BD     		pop	{r4, r5, r6, r7, pc}
 368              	.LVL57:
 369              	.L38:
 370 005a 00BF     		.align	2
 371              	.L37:
 372 005c 00000000 		.word	lc3_ns_2m5
 373              		.cfi_endproc
 374              	.LFE33:
 375              		.size	load_s24, .-load_s24
 376              		.section	.text.load_s24_3le,"ax",%progbits
 377              		.align	2
 378              		.thumb
 379              		.thumb_func
 380              		.type	load_s24_3le, %function
 381              	load_s24_3le:
 382              	.LFB34:
 228:..\..\..\liblc3\src/lc3.c **** 
 229:..\..\..\liblc3\src/lc3.c **** /**
 230:..\..\..\liblc3\src/lc3.c ****  * Input PCM Samples from signed 24 bits packed
 231:..\..\..\liblc3\src/lc3.c ****  * encoder         Encoder state
 232:..\..\..\liblc3\src/lc3.c ****  * pcm, stride     Input PCM samples, and count between two consecutives
 233:..\..\..\liblc3\src/lc3.c ****  */
 234:..\..\..\liblc3\src/lc3.c **** static void load_s24_3le(
 235:..\..\..\liblc3\src/lc3.c ****     struct lc3_encoder *encoder, const void *_pcm, int stride)
 236:..\..\..\liblc3\src/lc3.c **** {
 383              		.loc 1 236 0
 384              		.cfi_startproc
 385              		@ args = 0, pretend = 0, frame = 0
 386              		@ frame_needed = 0, uses_anonymous_args = 0
 387              	.LVL58:
 388 0000 F0B5     		push	{r4, r5, r6, r7, lr}
 389              		.cfi_def_cfa_offset 20
 390              		.cfi_offset 4, -20
 391              		.cfi_offset 5, -16
 392              		.cfi_offset 6, -12
 393              		.cfi_offset 7, -8
 394              		.cfi_offset 14, -4
 395              	.LVL59:
 237:..\..\..\liblc3\src/lc3.c ****     const uint8_t *pcm = _pcm;
 238:..\..\..\liblc3\src/lc3.c **** 
 239:..\..\..\liblc3\src/lc3.c ****     enum lc3_dt dt = encoder->dt;
ARM GAS  C:\Users\rdn\AppData\Local\Temp\ccCxUcqe.s 			page 14


 396              		.loc 1 239 0
 397 0002 0378     		ldrb	r3, [r0]	@ zero_extendqisi2
 398              	.LVL60:
 240:..\..\..\liblc3\src/lc3.c ****     enum lc3_srate sr = encoder->sr_pcm;
 399              		.loc 1 240 0
 400 0004 8478     		ldrb	r4, [r0, #2]	@ zero_extendqisi2
 401              	.LVL61:
 241:..\..\..\liblc3\src/lc3.c **** 
 242:..\..\..\liblc3\src/lc3.c ****     int16_t *xt = (int16_t *)encoder->x + encoder->xt_off;
 402              		.loc 1 242 0
 403 0006 00F2AC45 		addw	r5, r0, #1196
 404 000a D0F8A064 		ldr	r6, [r0, #1184]
 405 000e 4FEA460E 		lsl	lr, r6, #1
 406              	.LVL62:
 243:..\..\..\liblc3\src/lc3.c ****     float *xs = encoder->x + encoder->xs_off;
 407              		.loc 1 243 0
 408 0012 D0F8A474 		ldr	r7, [r0, #1188]
 409 0016 BF00     		lsls	r7, r7, #2
 410              	.LVL63:
 411              	.LBB119:
 412              	.LBB120:
 413              		.loc 2 47 0
 414 0018 1548     		ldr	r0, .L44
 415              	.LVL64:
 416 001a 50F82460 		ldr	r6, [r0, r4, lsl #2]
 417 001e 03FB0666 		mla	r6, r3, r6, r6
 418              	.LVL65:
 419              	.LBE120:
 420              	.LBE119:
 421              	.LBB121:
 244:..\..\..\liblc3\src/lc3.c ****     int ns = lc3_ns(dt, sr);
 245:..\..\..\liblc3\src/lc3.c **** 
 246:..\..\..\liblc3\src/lc3.c ****     for (int i = 0; i < ns; i++, pcm += 3*stride) {
 422              		.loc 1 246 0
 423 0022 0020     		movs	r0, #0
 424 0024 20E0     		b	.L40
 425              	.LVL66:
 426              	.L42:
 427              	.LBB122:
 247:..\..\..\liblc3\src/lc3.c ****         int32_t in = ((uint32_t)pcm[0] <<  8) |
 428              		.loc 1 247 0 discriminator 3
 429 0026 0C78     		ldrb	r4, [r1]	@ zero_extendqisi2
 248:..\..\..\liblc3\src/lc3.c ****                      ((uint32_t)pcm[1] << 16) |
 430              		.loc 1 248 0 discriminator 3
 431 0028 4B78     		ldrb	r3, [r1, #1]	@ zero_extendqisi2
 432 002a 1B04     		lsls	r3, r3, #16
 247:..\..\..\liblc3\src/lc3.c ****         int32_t in = ((uint32_t)pcm[0] <<  8) |
 433              		.loc 1 247 0 discriminator 3
 434 002c 43EA0423 		orr	r3, r3, r4, lsl #8
 249:..\..\..\liblc3\src/lc3.c ****                      ((uint32_t)pcm[2] << 24)  ;
 435              		.loc 1 249 0 discriminator 3
 436 0030 8C78     		ldrb	r4, [r1, #2]	@ zero_extendqisi2
 248:..\..\..\liblc3\src/lc3.c ****                      ((uint32_t)pcm[1] << 16) |
 437              		.loc 1 248 0 discriminator 3
 438 0032 43EA0463 		orr	r3, r3, r4, lsl #24
 439              	.LVL67:
 250:..\..\..\liblc3\src/lc3.c **** 
ARM GAS  C:\Users\rdn\AppData\Local\Temp\ccCxUcqe.s 			page 15


 251:..\..\..\liblc3\src/lc3.c ****         xt[i] = in >> 16;
 440              		.loc 1 251 0 discriminator 3
 441 0036 0EEB4004 		add	r4, lr, r0, lsl #1
 442 003a 4FEA234C 		asr	ip, r3, #16
 443 003e 25F804C0 		strh	ip, [r5, r4]	@ movhi
 252:..\..\..\liblc3\src/lc3.c ****         xs[i] = lc3_ldexpf(in, -16);
 444              		.loc 1 252 0 discriminator 3
 445 0042 07EB8004 		add	r4, r7, r0, lsl #2
 446 0046 2C44     		add	r4, r4, r5
 447              	.LVL68:
 448              	.LBB123:
 449              	.LBB124:
  45:..\..\..\liblc3\src/fastmath.h **** 
 450              		.loc 3 45 0 discriminator 3
 451 0048 07EE903A 		vmov	s15, r3	@ int
 452 004c F8EEE77A 		vcvt.f32.s32	s15, s15
 453              	.LVL69:
 454 0050 17EE903A 		vmov	r3, s15
 455              	.LVL70:
  47:..\..\..\liblc3\src/fastmath.h ****         x.s += exp << LC3_IEEE754_EXP_SHL;
 456              		.loc 3 47 0 discriminator 3
 457 0054 13F0FF4F 		tst	r3, #2139095040
 458 0058 01D0     		beq	.L41
 459              		.loc 3 48 0
 460 005a 03F17843 		add	r3, r3, #-134217728
 461              	.LVL71:
 462              	.L41:
 463              	.LBE124:
 464              	.LBE123:
 465              		.loc 1 252 0
 466 005e 2360     		str	r3, [r4]	@ float
 467              	.LBE122:
 246:..\..\..\liblc3\src/lc3.c ****         int32_t in = ((uint32_t)pcm[0] <<  8) |
 468              		.loc 1 246 0
 469 0060 0130     		adds	r0, r0, #1
 470              	.LVL72:
 471 0062 02EB4203 		add	r3, r2, r2, lsl #1
 472              	.LVL73:
 473 0066 1944     		add	r1, r1, r3
 474              	.LVL74:
 475              	.L40:
 246:..\..\..\liblc3\src/lc3.c ****         int32_t in = ((uint32_t)pcm[0] <<  8) |
 476              		.loc 1 246 0 is_stmt 0 discriminator 1
 477 0068 B042     		cmp	r0, r6
 478 006a DCDB     		blt	.L42
 479              	.LBE121:
 253:..\..\..\liblc3\src/lc3.c ****     }
 254:..\..\..\liblc3\src/lc3.c **** }
 480              		.loc 1 254 0 is_stmt 1
 481 006c F0BD     		pop	{r4, r5, r6, r7, pc}
 482              	.LVL75:
 483              	.L45:
 484 006e 00BF     		.align	2
 485              	.L44:
 486 0070 00000000 		.word	lc3_ns_2m5
 487              		.cfi_endproc
 488              	.LFE34:
ARM GAS  C:\Users\rdn\AppData\Local\Temp\ccCxUcqe.s 			page 16


 489              		.size	load_s24_3le, .-load_s24_3le
 490              		.section	.text.load_float,"ax",%progbits
 491              		.align	2
 492              		.thumb
 493              		.thumb_func
 494              		.type	load_float, %function
 495              	load_float:
 496              	.LFB35:
 255:..\..\..\liblc3\src/lc3.c **** 
 256:..\..\..\liblc3\src/lc3.c **** /**
 257:..\..\..\liblc3\src/lc3.c ****  * Input PCM Samples from float 32 bits
 258:..\..\..\liblc3\src/lc3.c ****  * encoder         Encoder state
 259:..\..\..\liblc3\src/lc3.c ****  * pcm, stride     Input PCM samples, and count between two consecutives
 260:..\..\..\liblc3\src/lc3.c ****  */
 261:..\..\..\liblc3\src/lc3.c **** static void load_float(
 262:..\..\..\liblc3\src/lc3.c ****     struct lc3_encoder *encoder, const void *_pcm, int stride)
 263:..\..\..\liblc3\src/lc3.c **** {
 497              		.loc 1 263 0
 498              		.cfi_startproc
 499              		@ args = 0, pretend = 0, frame = 0
 500              		@ frame_needed = 0, uses_anonymous_args = 0
 501              	.LVL76:
 502 0000 F0B5     		push	{r4, r5, r6, r7, lr}
 503              		.cfi_def_cfa_offset 20
 504              		.cfi_offset 4, -20
 505              		.cfi_offset 5, -16
 506              		.cfi_offset 6, -12
 507              		.cfi_offset 7, -8
 508              		.cfi_offset 14, -4
 509              	.LVL77:
 264:..\..\..\liblc3\src/lc3.c ****     const float *pcm = _pcm;
 265:..\..\..\liblc3\src/lc3.c **** 
 266:..\..\..\liblc3\src/lc3.c ****     enum lc3_dt dt = encoder->dt;
 510              		.loc 1 266 0
 511 0002 0378     		ldrb	r3, [r0]	@ zero_extendqisi2
 512              	.LVL78:
 267:..\..\..\liblc3\src/lc3.c ****     enum lc3_srate sr = encoder->sr_pcm;
 513              		.loc 1 267 0
 514 0004 8478     		ldrb	r4, [r0, #2]	@ zero_extendqisi2
 515              	.LVL79:
 268:..\..\..\liblc3\src/lc3.c **** 
 269:..\..\..\liblc3\src/lc3.c ****     int16_t *xt = (int16_t *)encoder->x + encoder->xt_off;
 516              		.loc 1 269 0
 517 0006 00F2AC4C 		addw	ip, r0, #1196
 518 000a D0F8A054 		ldr	r5, [r0, #1184]
 519 000e 4FEA450E 		lsl	lr, r5, #1
 520              	.LVL80:
 270:..\..\..\liblc3\src/lc3.c ****     float *xs = encoder->x + encoder->xs_off;
 521              		.loc 1 270 0
 522 0012 D0F8A474 		ldr	r7, [r0, #1188]
 523 0016 0CEB8707 		add	r7, ip, r7, lsl #2
 524              	.LVL81:
 525              	.LBB125:
 526              	.LBB126:
 527              		.loc 2 47 0
 528 001a 1648     		ldr	r0, .L53
 529              	.LVL82:
ARM GAS  C:\Users\rdn\AppData\Local\Temp\ccCxUcqe.s 			page 17


 530 001c 50F82460 		ldr	r6, [r0, r4, lsl #2]
 531 0020 03FB0666 		mla	r6, r3, r6, r6
 532              	.LVL83:
 533              	.LBE126:
 534              	.LBE125:
 535              	.LBB127:
 271:..\..\..\liblc3\src/lc3.c ****     int ns = lc3_ns(dt, sr);
 272:..\..\..\liblc3\src/lc3.c **** 
 273:..\..\..\liblc3\src/lc3.c ****     for (int i = 0; i < ns; i++, pcm += stride) {
 536              		.loc 1 273 0
 537 0024 0020     		movs	r0, #0
 538 0026 22E0     		b	.L47
 539              	.LVL84:
 540              	.L50:
 274:..\..\..\liblc3\src/lc3.c ****         xs[i] = lc3_ldexpf(*pcm, 15);
 541              		.loc 1 274 0
 542 0028 0446     		mov	r4, r0
 543 002a 07EB8005 		add	r5, r7, r0, lsl #2
 544              	.LVL85:
 545              	.LBB128:
 546              	.LBB129:
  45:..\..\..\liblc3\src/fastmath.h **** 
 547              		.loc 3 45 0
 548 002e 0B68     		ldr	r3, [r1]
 549              	.LVL86:
  47:..\..\..\liblc3\src/fastmath.h ****         x.s += exp << LC3_IEEE754_EXP_SHL;
 550              		.loc 3 47 0
 551 0030 13F0FF4F 		tst	r3, #2139095040
 552 0034 01D0     		beq	.L48
 553              		.loc 3 48 0
 554 0036 03F1F063 		add	r3, r3, #125829120
 555              	.LVL87:
 556              	.L48:
  49:..\..\..\liblc3\src/fastmath.h **** 
  50:..\..\..\liblc3\src/fastmath.h ****     return x.f;
 557              		.loc 3 50 0
 558 003a 07EE903A 		vmov	s15, r3
 559              	.LVL88:
 560              	.LBE129:
 561              	.LBE128:
 562              		.loc 1 274 0
 563 003e 2B60     		str	r3, [r5]	@ float
 564              	.LVL89:
 275:..\..\..\liblc3\src/lc3.c ****         xt[i] = LC3_SAT16((int32_t)xs[i]);
 565              		.loc 1 275 0
 566 0040 0EEB4404 		add	r4, lr, r4, lsl #1
 567 0044 FDEEE77A 		vcvt.s32.f32	s15, s15
 568 0048 17EE903A 		vmov	r3, s15	@ int
 569 004c 47F6FE75 		movw	r5, #32766
 570 0050 AB42     		cmp	r3, r5
 571 0052 05DC     		bgt	.L51
 572              		.loc 1 275 0 is_stmt 0 discriminator 1
 573 0054 084D     		ldr	r5, .L53+4
 574 0056 AB42     		cmp	r3, r5
 575 0058 B8BF     		it	lt
 576 005a 2B46     		movlt	r3, r5
 577 005c 1BB2     		sxth	r3, r3
ARM GAS  C:\Users\rdn\AppData\Local\Temp\ccCxUcqe.s 			page 18


 578 005e 01E0     		b	.L49
 579              	.L51:
 580              		.loc 1 275 0
 581 0060 47F6FF73 		movw	r3, #32767
 582              	.L49:
 583              		.loc 1 275 0 discriminator 4
 584 0064 2CF80430 		strh	r3, [ip, r4]	@ movhi
 273:..\..\..\liblc3\src/lc3.c ****         xs[i] = lc3_ldexpf(*pcm, 15);
 585              		.loc 1 273 0 is_stmt 1 discriminator 4
 586 0068 0130     		adds	r0, r0, #1
 587              	.LVL90:
 588 006a 01EB8201 		add	r1, r1, r2, lsl #2
 589              	.LVL91:
 590              	.L47:
 273:..\..\..\liblc3\src/lc3.c ****         xs[i] = lc3_ldexpf(*pcm, 15);
 591              		.loc 1 273 0 is_stmt 0 discriminator 2
 592 006e B042     		cmp	r0, r6
 593 0070 DADB     		blt	.L50
 594              	.LBE127:
 276:..\..\..\liblc3\src/lc3.c ****     }
 277:..\..\..\liblc3\src/lc3.c **** }
 595              		.loc 1 277 0 is_stmt 1
 596 0072 F0BD     		pop	{r4, r5, r6, r7, pc}
 597              	.LVL92:
 598              	.L54:
 599              		.align	2
 600              	.L53:
 601 0074 00000000 		.word	lc3_ns_2m5
 602 0078 0080FFFF 		.word	-32768
 603              		.cfi_endproc
 604              	.LFE35:
 605              		.size	load_float, .-load_float
 606              		.section	.text.store_s16,"ax",%progbits
 607              		.align	2
 608              		.thumb
 609              		.thumb_func
 610              		.type	store_s16, %function
 611              	store_s16:
 612              	.LFB43:
 278:..\..\..\liblc3\src/lc3.c **** 
 279:..\..\..\liblc3\src/lc3.c **** /**
 280:..\..\..\liblc3\src/lc3.c ****  * Frame Analysis
 281:..\..\..\liblc3\src/lc3.c ****  * encoder         Encoder state
 282:..\..\..\liblc3\src/lc3.c ****  * nbytes          Size in bytes of the frame
 283:..\..\..\liblc3\src/lc3.c ****  * side            Return frame data
 284:..\..\..\liblc3\src/lc3.c ****  */
 285:..\..\..\liblc3\src/lc3.c **** static void analyze(struct lc3_encoder *encoder,
 286:..\..\..\liblc3\src/lc3.c ****     int nbytes, struct side_data *side)
 287:..\..\..\liblc3\src/lc3.c **** {
 288:..\..\..\liblc3\src/lc3.c ****     enum lc3_dt dt = encoder->dt;
 289:..\..\..\liblc3\src/lc3.c ****     enum lc3_srate sr = encoder->sr;
 290:..\..\..\liblc3\src/lc3.c ****     enum lc3_srate sr_pcm = encoder->sr_pcm;
 291:..\..\..\liblc3\src/lc3.c **** 
 292:..\..\..\liblc3\src/lc3.c ****     int16_t *xt = (int16_t *)encoder->x + encoder->xt_off;
 293:..\..\..\liblc3\src/lc3.c ****     float *xs = encoder->x + encoder->xs_off;
 294:..\..\..\liblc3\src/lc3.c ****     int ns = lc3_ns(dt, sr_pcm);
 295:..\..\..\liblc3\src/lc3.c ****     int nt = lc3_nt(sr_pcm);
ARM GAS  C:\Users\rdn\AppData\Local\Temp\ccCxUcqe.s 			page 19


 296:..\..\..\liblc3\src/lc3.c **** 
 297:..\..\..\liblc3\src/lc3.c ****     float *xd = encoder->x + encoder->xd_off;
 298:..\..\..\liblc3\src/lc3.c ****     float *xf = xs;
 299:..\..\..\liblc3\src/lc3.c **** 
 300:..\..\..\liblc3\src/lc3.c ****     /* --- Temporal --- */
 301:..\..\..\liblc3\src/lc3.c **** 
 302:..\..\..\liblc3\src/lc3.c ****     bool att = lc3_attdet_run(dt, sr_pcm, nbytes, &encoder->attdet, xt);
 303:..\..\..\liblc3\src/lc3.c **** 
 304:..\..\..\liblc3\src/lc3.c ****     side->pitch_present =
 305:..\..\..\liblc3\src/lc3.c ****         lc3_ltpf_analyse(dt, sr_pcm, &encoder->ltpf, xt, &side->ltpf);
 306:..\..\..\liblc3\src/lc3.c **** 
 307:..\..\..\liblc3\src/lc3.c ****     memmove(xt - nt, xt + (ns-nt), nt * sizeof(*xt));
 308:..\..\..\liblc3\src/lc3.c **** 
 309:..\..\..\liblc3\src/lc3.c ****     /* --- Spectral --- */
 310:..\..\..\liblc3\src/lc3.c **** 
 311:..\..\..\liblc3\src/lc3.c ****     float e[LC3_MAX_BANDS];
 312:..\..\..\liblc3\src/lc3.c **** 
 313:..\..\..\liblc3\src/lc3.c ****     lc3_mdct_forward(dt, sr_pcm, sr, xs, xd, xf);
 314:..\..\..\liblc3\src/lc3.c **** 
 315:..\..\..\liblc3\src/lc3.c ****     bool nn_flag = lc3_energy_compute(dt, sr, xf, e);
 316:..\..\..\liblc3\src/lc3.c ****     if (nn_flag)
 317:..\..\..\liblc3\src/lc3.c ****         lc3_ltpf_disable(&side->ltpf);
 318:..\..\..\liblc3\src/lc3.c **** 
 319:..\..\..\liblc3\src/lc3.c ****     side->bw = lc3_bwdet_run(dt, sr, e);
 320:..\..\..\liblc3\src/lc3.c **** 
 321:..\..\..\liblc3\src/lc3.c ****     lc3_sns_analyze(dt, sr, nbytes, e, att, &side->sns, xf, xf);
 322:..\..\..\liblc3\src/lc3.c **** 
 323:..\..\..\liblc3\src/lc3.c ****     lc3_tns_analyze(dt, side->bw, nn_flag, nbytes, &side->tns, xf);
 324:..\..\..\liblc3\src/lc3.c **** 
 325:..\..\..\liblc3\src/lc3.c ****     lc3_spec_analyze(dt, sr,
 326:..\..\..\liblc3\src/lc3.c ****         nbytes, side->pitch_present, &side->tns,
 327:..\..\..\liblc3\src/lc3.c ****         &encoder->spec, xf, &side->spec);
 328:..\..\..\liblc3\src/lc3.c **** }
 329:..\..\..\liblc3\src/lc3.c **** 
 330:..\..\..\liblc3\src/lc3.c **** /**
 331:..\..\..\liblc3\src/lc3.c ****  * Encode bitstream
 332:..\..\..\liblc3\src/lc3.c ****  * encoder         Encoder state
 333:..\..\..\liblc3\src/lc3.c ****  * side            The frame data
 334:..\..\..\liblc3\src/lc3.c ****  * nbytes          Target size of the frame (20 to 400)
 335:..\..\..\liblc3\src/lc3.c ****  * buffer          Output bitstream buffer of `nbytes` size
 336:..\..\..\liblc3\src/lc3.c ****  */
 337:..\..\..\liblc3\src/lc3.c **** static void encode(struct lc3_encoder *encoder,
 338:..\..\..\liblc3\src/lc3.c ****     const struct side_data *side, int nbytes, void *buffer)
 339:..\..\..\liblc3\src/lc3.c **** {
 340:..\..\..\liblc3\src/lc3.c ****     enum lc3_dt dt = encoder->dt;
 341:..\..\..\liblc3\src/lc3.c ****     enum lc3_srate sr = encoder->sr;
 342:..\..\..\liblc3\src/lc3.c **** 
 343:..\..\..\liblc3\src/lc3.c ****     float *xf = encoder->x + encoder->xs_off;
 344:..\..\..\liblc3\src/lc3.c ****     enum lc3_bandwidth bw = side->bw;
 345:..\..\..\liblc3\src/lc3.c **** 
 346:..\..\..\liblc3\src/lc3.c ****     lc3_bits_t bits;
 347:..\..\..\liblc3\src/lc3.c **** 
 348:..\..\..\liblc3\src/lc3.c ****     lc3_setup_bits(&bits, LC3_BITS_MODE_WRITE, buffer, nbytes);
 349:..\..\..\liblc3\src/lc3.c **** 
 350:..\..\..\liblc3\src/lc3.c ****     lc3_bwdet_put_bw(&bits, sr, bw);
 351:..\..\..\liblc3\src/lc3.c **** 
 352:..\..\..\liblc3\src/lc3.c ****     lc3_spec_put_side(&bits, dt, sr, &side->spec);
ARM GAS  C:\Users\rdn\AppData\Local\Temp\ccCxUcqe.s 			page 20


 353:..\..\..\liblc3\src/lc3.c **** 
 354:..\..\..\liblc3\src/lc3.c ****     lc3_tns_put_data(&bits, &side->tns);
 355:..\..\..\liblc3\src/lc3.c **** 
 356:..\..\..\liblc3\src/lc3.c ****     lc3_put_bit(&bits, side->pitch_present);
 357:..\..\..\liblc3\src/lc3.c **** 
 358:..\..\..\liblc3\src/lc3.c ****     lc3_sns_put_data(&bits, &side->sns);
 359:..\..\..\liblc3\src/lc3.c **** 
 360:..\..\..\liblc3\src/lc3.c ****     if (side->pitch_present)
 361:..\..\..\liblc3\src/lc3.c ****         lc3_ltpf_put_data(&bits, &side->ltpf);
 362:..\..\..\liblc3\src/lc3.c **** 
 363:..\..\..\liblc3\src/lc3.c ****     lc3_spec_encode(&bits, dt, sr, bw, nbytes, &side->spec, xf);
 364:..\..\..\liblc3\src/lc3.c **** 
 365:..\..\..\liblc3\src/lc3.c ****     lc3_flush_bits(&bits);
 366:..\..\..\liblc3\src/lc3.c **** }
 367:..\..\..\liblc3\src/lc3.c **** 
 368:..\..\..\liblc3\src/lc3.c **** /**
 369:..\..\..\liblc3\src/lc3.c ****  * Return size needed for an encoder
 370:..\..\..\liblc3\src/lc3.c ****  */
 371:..\..\..\liblc3\src/lc3.c **** LC3_EXPORT unsigned lc3_hr_encoder_size(bool hrmode, int dt_us, int sr_hz)
 372:..\..\..\liblc3\src/lc3.c **** {
 373:..\..\..\liblc3\src/lc3.c ****     if (resolve_dt(dt_us, hrmode) >= LC3_NUM_DT ||
 374:..\..\..\liblc3\src/lc3.c ****         resolve_srate(sr_hz, hrmode) >= LC3_NUM_SRATE)
 375:..\..\..\liblc3\src/lc3.c ****         return 0;
 376:..\..\..\liblc3\src/lc3.c **** 
 377:..\..\..\liblc3\src/lc3.c ****     return sizeof(struct lc3_encoder) +
 378:..\..\..\liblc3\src/lc3.c ****         (LC3_ENCODER_BUFFER_COUNT(dt_us, sr_hz)-1) * sizeof(float);
 379:..\..\..\liblc3\src/lc3.c **** }
 380:..\..\..\liblc3\src/lc3.c **** 
 381:..\..\..\liblc3\src/lc3.c **** LC3_EXPORT unsigned lc3_encoder_size(int dt_us, int sr_hz)
 382:..\..\..\liblc3\src/lc3.c **** {
 383:..\..\..\liblc3\src/lc3.c ****     return lc3_hr_encoder_size(false, dt_us, sr_hz);
 384:..\..\..\liblc3\src/lc3.c **** }
 385:..\..\..\liblc3\src/lc3.c **** 
 386:..\..\..\liblc3\src/lc3.c **** /**
 387:..\..\..\liblc3\src/lc3.c ****  * Setup encoder
 388:..\..\..\liblc3\src/lc3.c ****  */
 389:..\..\..\liblc3\src/lc3.c **** LC3_EXPORT struct lc3_encoder *lc3_hr_setup_encoder(
 390:..\..\..\liblc3\src/lc3.c ****     bool hrmode, int dt_us, int sr_hz, int sr_pcm_hz, void *mem)
 391:..\..\..\liblc3\src/lc3.c **** {
 392:..\..\..\liblc3\src/lc3.c ****     if (sr_pcm_hz <= 0)
 393:..\..\..\liblc3\src/lc3.c ****         sr_pcm_hz = sr_hz;
 394:..\..\..\liblc3\src/lc3.c **** 
 395:..\..\..\liblc3\src/lc3.c ****     enum lc3_dt dt = resolve_dt(dt_us, hrmode);
 396:..\..\..\liblc3\src/lc3.c ****     enum lc3_srate sr = resolve_srate(sr_hz, hrmode);
 397:..\..\..\liblc3\src/lc3.c ****     enum lc3_srate sr_pcm = resolve_srate(sr_pcm_hz, hrmode);
 398:..\..\..\liblc3\src/lc3.c **** 
 399:..\..\..\liblc3\src/lc3.c ****     if (dt >= LC3_NUM_DT || sr_pcm >= LC3_NUM_SRATE || sr > sr_pcm || !mem)
 400:..\..\..\liblc3\src/lc3.c ****         return NULL;
 401:..\..\..\liblc3\src/lc3.c **** 
 402:..\..\..\liblc3\src/lc3.c ****     struct lc3_encoder *encoder = mem;
 403:..\..\..\liblc3\src/lc3.c ****     int ns = lc3_ns(dt, sr_pcm);
 404:..\..\..\liblc3\src/lc3.c ****     int nt = lc3_nt(sr_pcm);
 405:..\..\..\liblc3\src/lc3.c **** 
 406:..\..\..\liblc3\src/lc3.c ****     *encoder = (struct lc3_encoder){
 407:..\..\..\liblc3\src/lc3.c ****         .dt = dt, .sr = sr,
 408:..\..\..\liblc3\src/lc3.c ****         .sr_pcm = sr_pcm,
 409:..\..\..\liblc3\src/lc3.c **** 
ARM GAS  C:\Users\rdn\AppData\Local\Temp\ccCxUcqe.s 			page 21


 410:..\..\..\liblc3\src/lc3.c ****         .xt_off = nt,
 411:..\..\..\liblc3\src/lc3.c ****         .xs_off = (nt + ns) / 2,
 412:..\..\..\liblc3\src/lc3.c ****         .xd_off = (nt + ns) / 2 + ns,
 413:..\..\..\liblc3\src/lc3.c ****     };
 414:..\..\..\liblc3\src/lc3.c **** 
 415:..\..\..\liblc3\src/lc3.c ****     memset(encoder->x, 0,
 416:..\..\..\liblc3\src/lc3.c ****         LC3_ENCODER_BUFFER_COUNT(dt_us, sr_pcm_hz) * sizeof(float));
 417:..\..\..\liblc3\src/lc3.c **** 
 418:..\..\..\liblc3\src/lc3.c ****     return encoder;
 419:..\..\..\liblc3\src/lc3.c **** }
 420:..\..\..\liblc3\src/lc3.c **** 
 421:..\..\..\liblc3\src/lc3.c **** LC3_EXPORT struct lc3_encoder *lc3_setup_encoder(
 422:..\..\..\liblc3\src/lc3.c ****     int dt_us, int sr_hz, int sr_pcm_hz, void *mem)
 423:..\..\..\liblc3\src/lc3.c **** {
 424:..\..\..\liblc3\src/lc3.c ****     return lc3_hr_setup_encoder(false, dt_us, sr_hz, sr_pcm_hz, mem);
 425:..\..\..\liblc3\src/lc3.c **** }
 426:..\..\..\liblc3\src/lc3.c **** 
 427:..\..\..\liblc3\src/lc3.c **** /**
 428:..\..\..\liblc3\src/lc3.c ****  * Encode a frame
 429:..\..\..\liblc3\src/lc3.c ****  */
 430:..\..\..\liblc3\src/lc3.c **** LC3_EXPORT int lc3_encode(struct lc3_encoder *encoder,
 431:..\..\..\liblc3\src/lc3.c ****     enum lc3_pcm_format fmt, const void *pcm, int stride, int nbytes, void *out)
 432:..\..\..\liblc3\src/lc3.c **** {
 433:..\..\..\liblc3\src/lc3.c ****     static void (* const load[])(struct lc3_encoder *, const void *, int) = {
 434:..\..\..\liblc3\src/lc3.c ****         [LC3_PCM_FORMAT_S16    ] = load_s16,
 435:..\..\..\liblc3\src/lc3.c ****         [LC3_PCM_FORMAT_S24    ] = load_s24,
 436:..\..\..\liblc3\src/lc3.c ****         [LC3_PCM_FORMAT_S24_3LE] = load_s24_3le,
 437:..\..\..\liblc3\src/lc3.c ****         [LC3_PCM_FORMAT_FLOAT  ] = load_float,
 438:..\..\..\liblc3\src/lc3.c ****     };
 439:..\..\..\liblc3\src/lc3.c **** 
 440:..\..\..\liblc3\src/lc3.c ****     /* --- Check parameters --- */
 441:..\..\..\liblc3\src/lc3.c **** 
 442:..\..\..\liblc3\src/lc3.c ****     if (!encoder || nbytes < lc3_min_frame_bytes(encoder->dt, encoder->sr)
 443:..\..\..\liblc3\src/lc3.c ****                  || nbytes > lc3_max_frame_bytes(encoder->dt, encoder->sr))
 444:..\..\..\liblc3\src/lc3.c ****         return -1;
 445:..\..\..\liblc3\src/lc3.c **** 
 446:..\..\..\liblc3\src/lc3.c ****     /* --- Processing --- */
 447:..\..\..\liblc3\src/lc3.c **** 
 448:..\..\..\liblc3\src/lc3.c ****     struct side_data side;
 449:..\..\..\liblc3\src/lc3.c **** 
 450:..\..\..\liblc3\src/lc3.c ****     load[fmt](encoder, pcm, stride);
 451:..\..\..\liblc3\src/lc3.c **** 
 452:..\..\..\liblc3\src/lc3.c ****     analyze(encoder, nbytes, &side);
 453:..\..\..\liblc3\src/lc3.c **** 
 454:..\..\..\liblc3\src/lc3.c ****     encode(encoder, &side, nbytes, out);
 455:..\..\..\liblc3\src/lc3.c **** 
 456:..\..\..\liblc3\src/lc3.c ****     return 0;
 457:..\..\..\liblc3\src/lc3.c **** }
 458:..\..\..\liblc3\src/lc3.c **** 
 459:..\..\..\liblc3\src/lc3.c **** 
 460:..\..\..\liblc3\src/lc3.c **** /* ----------------------------------------------------------------------------
 461:..\..\..\liblc3\src/lc3.c ****  *  Decoder
 462:..\..\..\liblc3\src/lc3.c ****  * -------------------------------------------------------------------------- */
 463:..\..\..\liblc3\src/lc3.c **** 
 464:..\..\..\liblc3\src/lc3.c **** /**
 465:..\..\..\liblc3\src/lc3.c ****  * Output PCM Samples to signed 16 bits
 466:..\..\..\liblc3\src/lc3.c ****  * decoder         Decoder state
ARM GAS  C:\Users\rdn\AppData\Local\Temp\ccCxUcqe.s 			page 22


 467:..\..\..\liblc3\src/lc3.c ****  * pcm, stride     Output PCM samples, and count between two consecutives
 468:..\..\..\liblc3\src/lc3.c ****  */
 469:..\..\..\liblc3\src/lc3.c **** static void store_s16(
 470:..\..\..\liblc3\src/lc3.c ****     struct lc3_decoder *decoder, void *_pcm, int stride)
 471:..\..\..\liblc3\src/lc3.c **** {
 613              		.loc 1 471 0
 614              		.cfi_startproc
 615              		@ args = 0, pretend = 0, frame = 0
 616              		@ frame_needed = 0, uses_anonymous_args = 0
 617              		@ link register save eliminated.
 618              	.LVL93:
 619 0000 70B4     		push	{r4, r5, r6}
 620              		.cfi_def_cfa_offset 12
 621              		.cfi_offset 4, -12
 622              		.cfi_offset 5, -8
 623              		.cfi_offset 6, -4
 624              	.LVL94:
 472:..\..\..\liblc3\src/lc3.c ****     int16_t *pcm = _pcm;
 473:..\..\..\liblc3\src/lc3.c **** 
 474:..\..\..\liblc3\src/lc3.c ****     enum lc3_dt dt = decoder->dt;
 625              		.loc 1 474 0
 626 0002 0678     		ldrb	r6, [r0]	@ zero_extendqisi2
 627              	.LVL95:
 475:..\..\..\liblc3\src/lc3.c ****     enum lc3_srate sr = decoder->sr_pcm;
 628              		.loc 1 475 0
 629 0004 8478     		ldrb	r4, [r0, #2]	@ zero_extendqisi2
 630              	.LVL96:
 476:..\..\..\liblc3\src/lc3.c **** 
 477:..\..\..\liblc3\src/lc3.c ****     float *xs = decoder->x + decoder->xs_off;
 631              		.loc 1 477 0
 632 0006 00F1B803 		add	r3, r0, #184
 633 000a D0F8AC50 		ldr	r5, [r0, #172]
 634 000e 03EB8505 		add	r5, r3, r5, lsl #2
 635              	.LVL97:
 636              	.LBB130:
 637              	.LBB131:
 638              		.loc 2 47 0
 639 0012 194B     		ldr	r3, .L66
 640 0014 53F82440 		ldr	r4, [r3, r4, lsl #2]
 641              	.LVL98:
 642 0018 06FB0444 		mla	r4, r6, r4, r4
 643              	.LVL99:
 644              	.LBE131:
 645              	.LBE130:
 478:..\..\..\liblc3\src/lc3.c ****     int ns = lc3_ns(dt, sr);
 479:..\..\..\liblc3\src/lc3.c **** 
 480:..\..\..\liblc3\src/lc3.c ****     for ( ; ns > 0; ns--, xs++, pcm += stride) {
 646              		.loc 1 480 0
 647 001c 28E0     		b	.L56
 648              	.LVL100:
 649              	.L61:
 650              	.LBB132:
 481:..\..\..\liblc3\src/lc3.c ****         int32_t s = *xs >= 0 ? (int)(*xs + 0.5f) : (int)(*xs - 0.5f);
 651              		.loc 1 481 0
 652 001e D5ED007A 		vldr.32	s15, [r5]
 653 0022 F5EEC07A 		vcmpe.f32	s15, #0
 654 0026 F1EE10FA 		vmrs	APSR_nzcv, FPSCR
ARM GAS  C:\Users\rdn\AppData\Local\Temp\ccCxUcqe.s 			page 23


 655 002a 08DB     		blt	.L64
 656              		.loc 1 481 0 is_stmt 0 discriminator 1
 657 002c B6EE007A 		vmov.f32	s14, #5.0e-1
 658 0030 77EE877A 		vadd.f32	s15, s15, s14
 659 0034 FDEEE77A 		vcvt.s32.f32	s15, s15
 660 0038 17EE903A 		vmov	r3, s15	@ int
 661 003c 07E0     		b	.L59
 662              	.L64:
 663              		.loc 1 481 0 discriminator 2
 664 003e B6EE007A 		vmov.f32	s14, #5.0e-1
 665 0042 77EEC77A 		vsub.f32	s15, s15, s14
 666 0046 FDEEE77A 		vcvt.s32.f32	s15, s15
 667 004a 17EE903A 		vmov	r3, s15	@ int
 668              	.L59:
 669              	.LVL101:
 482:..\..\..\liblc3\src/lc3.c ****         *pcm = LC3_SAT16(s);
 670              		.loc 1 482 0 is_stmt 1 discriminator 4
 671 004e 47F6FE70 		movw	r0, #32766
 672 0052 8342     		cmp	r3, r0
 673 0054 05DC     		bgt	.L62
 674              		.loc 1 482 0 is_stmt 0 discriminator 1
 675 0056 0948     		ldr	r0, .L66+4
 676 0058 8342     		cmp	r3, r0
 677 005a B8BF     		it	lt
 678 005c 0346     		movlt	r3, r0
 679              	.LVL102:
 680 005e 1BB2     		sxth	r3, r3
 681 0060 01E0     		b	.L60
 682              	.LVL103:
 683              	.L62:
 684              		.loc 1 482 0
 685 0062 47F6FF73 		movw	r3, #32767
 686              	.LVL104:
 687              	.L60:
 688              		.loc 1 482 0 discriminator 4
 689 0066 0B80     		strh	r3, [r1]	@ movhi
 690              	.LBE132:
 480:..\..\..\liblc3\src/lc3.c ****         int32_t s = *xs >= 0 ? (int)(*xs + 0.5f) : (int)(*xs - 0.5f);
 691              		.loc 1 480 0 is_stmt 1 discriminator 4
 692 0068 013C     		subs	r4, r4, #1
 693              	.LVL105:
 694 006a 0435     		adds	r5, r5, #4
 695              	.LVL106:
 696 006c 01EB4201 		add	r1, r1, r2, lsl #1
 697              	.LVL107:
 698              	.L56:
 480:..\..\..\liblc3\src/lc3.c ****         int32_t s = *xs >= 0 ? (int)(*xs + 0.5f) : (int)(*xs - 0.5f);
 699              		.loc 1 480 0 is_stmt 0 discriminator 1
 700 0070 002C     		cmp	r4, #0
 701 0072 D4DC     		bgt	.L61
 483:..\..\..\liblc3\src/lc3.c ****     }
 484:..\..\..\liblc3\src/lc3.c **** }
 702              		.loc 1 484 0 is_stmt 1
 703 0074 70BC     		pop	{r4, r5, r6}
 704              		.cfi_restore 6
 705              		.cfi_restore 5
 706              		.cfi_restore 4
ARM GAS  C:\Users\rdn\AppData\Local\Temp\ccCxUcqe.s 			page 24


 707              		.cfi_def_cfa_offset 0
 708              	.LVL108:
 709 0076 7047     		bx	lr
 710              	.L67:
 711              		.align	2
 712              	.L66:
 713 0078 00000000 		.word	lc3_ns_2m5
 714 007c 0080FFFF 		.word	-32768
 715              		.cfi_endproc
 716              	.LFE43:
 717              		.size	store_s16, .-store_s16
 718              		.section	.text.store_s24,"ax",%progbits
 719              		.align	2
 720              		.thumb
 721              		.thumb_func
 722              		.type	store_s24, %function
 723              	store_s24:
 724              	.LFB44:
 485:..\..\..\liblc3\src/lc3.c **** 
 486:..\..\..\liblc3\src/lc3.c **** /**
 487:..\..\..\liblc3\src/lc3.c ****  * Output PCM Samples to signed 24 bits
 488:..\..\..\liblc3\src/lc3.c ****  * decoder         Decoder state
 489:..\..\..\liblc3\src/lc3.c ****  * pcm, stride     Output PCM samples, and count between two consecutives
 490:..\..\..\liblc3\src/lc3.c ****  */
 491:..\..\..\liblc3\src/lc3.c **** static void store_s24(
 492:..\..\..\liblc3\src/lc3.c ****     struct lc3_decoder *decoder, void *_pcm, int stride)
 493:..\..\..\liblc3\src/lc3.c **** {
 725              		.loc 1 493 0
 726              		.cfi_startproc
 727              		@ args = 0, pretend = 0, frame = 0
 728              		@ frame_needed = 0, uses_anonymous_args = 0
 729              		@ link register save eliminated.
 730              	.LVL109:
 731 0000 70B4     		push	{r4, r5, r6}
 732              		.cfi_def_cfa_offset 12
 733              		.cfi_offset 4, -12
 734              		.cfi_offset 5, -8
 735              		.cfi_offset 6, -4
 736              	.LVL110:
 494:..\..\..\liblc3\src/lc3.c ****     int32_t *pcm = _pcm;
 495:..\..\..\liblc3\src/lc3.c **** 
 496:..\..\..\liblc3\src/lc3.c ****     enum lc3_dt dt = decoder->dt;
 737              		.loc 1 496 0
 738 0002 0578     		ldrb	r5, [r0]	@ zero_extendqisi2
 739              	.LVL111:
 497:..\..\..\liblc3\src/lc3.c ****     enum lc3_srate sr = decoder->sr_pcm;
 740              		.loc 1 497 0
 741 0004 8678     		ldrb	r6, [r0, #2]	@ zero_extendqisi2
 742              	.LVL112:
 498:..\..\..\liblc3\src/lc3.c **** 
 499:..\..\..\liblc3\src/lc3.c ****     float *xs = decoder->x + decoder->xs_off;
 743              		.loc 1 499 0
 744 0006 00F1B803 		add	r3, r0, #184
 745 000a D0F8AC40 		ldr	r4, [r0, #172]
 746 000e 03EB8404 		add	r4, r3, r4, lsl #2
 747              	.LVL113:
 748              	.LBB133:
ARM GAS  C:\Users\rdn\AppData\Local\Temp\ccCxUcqe.s 			page 25


 749              	.LBB134:
 750              		.loc 2 47 0
 751 0012 214B     		ldr	r3, .L81
 752 0014 53F82600 		ldr	r0, [r3, r6, lsl #2]
 753              	.LVL114:
 754 0018 05FB0000 		mla	r0, r5, r0, r0
 755              	.LVL115:
 756              	.LBE134:
 757              	.LBE133:
 500:..\..\..\liblc3\src/lc3.c ****     int ns = lc3_ns(dt, sr);
 501:..\..\..\liblc3\src/lc3.c **** 
 502:..\..\..\liblc3\src/lc3.c ****     for ( ; ns > 0; ns--, xs++, pcm += stride) {
 758              		.loc 1 502 0
 759 001c 37E0     		b	.L69
 760              	.LVL116:
 761              	.L76:
 762              	.LBB135:
 503:..\..\..\liblc3\src/lc3.c ****         int32_t s = *xs >= 0 ? (int32_t)(lc3_ldexpf(*xs, 8) + 0.5f)
 763              		.loc 1 503 0
 764 001e D4ED007A 		vldr.32	s15, [r4]
 504:..\..\..\liblc3\src/lc3.c ****                              : (int32_t)(lc3_ldexpf(*xs, 8) - 0.5f);
 765              		.loc 1 504 0
 766 0022 F5EEC07A 		vcmpe.f32	s15, #0
 767 0026 F1EE10FA 		vmrs	APSR_nzcv, FPSCR
 768 002a 11DB     		blt	.L79
 769              	.LVL117:
 770              	.LBB136:
 771              	.LBB137:
  45:..\..\..\liblc3\src/fastmath.h **** 
 772              		.loc 3 45 0 discriminator 1
 773 002c 17EE903A 		vmov	r3, s15	@ int
 774              	.LVL118:
  47:..\..\..\liblc3\src/fastmath.h ****         x.s += exp << LC3_IEEE754_EXP_SHL;
 775              		.loc 3 47 0 discriminator 1
 776 0030 13F0FF4F 		tst	r3, #2139095040
 777 0034 01D0     		beq	.L72
  48:..\..\..\liblc3\src/fastmath.h **** 
 778              		.loc 3 48 0
 779 0036 03F18063 		add	r3, r3, #67108864
 780              	.LVL119:
 781              	.L72:
 782              		.loc 3 50 0
 783 003a 07EE903A 		vmov	s15, r3
 784              	.LVL120:
 785              	.LBE137:
 786              	.LBE136:
 503:..\..\..\liblc3\src/lc3.c ****                              : (int32_t)(lc3_ldexpf(*xs, 8) - 0.5f);
 787              		.loc 1 503 0
 788 003e B6EE007A 		vmov.f32	s14, #5.0e-1
 789 0042 77EE877A 		vadd.f32	s15, s15, s14
 790              		.loc 1 504 0
 791 0046 FDEEE77A 		vcvt.s32.f32	s15, s15
 792 004a 17EE903A 		vmov	r3, s15	@ int
 793              	.LVL121:
 794 004e 10E0     		b	.L73
 795              	.L79:
 796              	.LVL122:
ARM GAS  C:\Users\rdn\AppData\Local\Temp\ccCxUcqe.s 			page 26


 797              	.LBB138:
 798              	.LBB139:
  45:..\..\..\liblc3\src/fastmath.h **** 
 799              		.loc 3 45 0 discriminator 2
 800 0050 17EE903A 		vmov	r3, s15	@ int
 801              	.LVL123:
  47:..\..\..\liblc3\src/fastmath.h ****         x.s += exp << LC3_IEEE754_EXP_SHL;
 802              		.loc 3 47 0 discriminator 2
 803 0054 13F0FF4F 		tst	r3, #2139095040
 804 0058 01D0     		beq	.L74
  48:..\..\..\liblc3\src/fastmath.h **** 
 805              		.loc 3 48 0
 806 005a 03F18063 		add	r3, r3, #67108864
 807              	.LVL124:
 808              	.L74:
 809              		.loc 3 50 0
 810 005e 07EE903A 		vmov	s15, r3
 811              	.LVL125:
 812              	.LBE139:
 813              	.LBE138:
 814              		.loc 1 504 0
 815 0062 B6EE007A 		vmov.f32	s14, #5.0e-1
 816 0066 77EEC77A 		vsub.f32	s15, s15, s14
 817 006a FDEEE77A 		vcvt.s32.f32	s15, s15
 818 006e 17EE903A 		vmov	r3, s15	@ int
 819              	.LVL126:
 820              	.L73:
 505:..\..\..\liblc3\src/lc3.c ****         *pcm = LC3_SAT24(s);
 821              		.loc 1 505 0
 822 0072 0A4D     		ldr	r5, .L81+4
 823 0074 AB42     		cmp	r3, r5
 824 0076 04DC     		bgt	.L77
 825              		.loc 1 505 0 is_stmt 0 discriminator 1
 826 0078 094D     		ldr	r5, .L81+8
 827 007a AB42     		cmp	r3, r5
 828 007c B8BF     		it	lt
 829 007e 2B46     		movlt	r3, r5
 830              	.LVL127:
 831 0080 00E0     		b	.L75
 832              	.LVL128:
 833              	.L77:
 834              		.loc 1 505 0
 835 0082 084B     		ldr	r3, .L81+12
 836              	.LVL129:
 837              	.L75:
 838              		.loc 1 505 0 discriminator 4
 839 0084 0B60     		str	r3, [r1]
 840              	.LBE135:
 502:..\..\..\liblc3\src/lc3.c ****         int32_t s = *xs >= 0 ? (int32_t)(lc3_ldexpf(*xs, 8) + 0.5f)
 841              		.loc 1 502 0 is_stmt 1 discriminator 4
 842 0086 0138     		subs	r0, r0, #1
 843              	.LVL130:
 844 0088 0434     		adds	r4, r4, #4
 845              	.LVL131:
 846 008a 01EB8201 		add	r1, r1, r2, lsl #2
 847              	.LVL132:
 848              	.L69:
ARM GAS  C:\Users\rdn\AppData\Local\Temp\ccCxUcqe.s 			page 27


 502:..\..\..\liblc3\src/lc3.c ****         int32_t s = *xs >= 0 ? (int32_t)(lc3_ldexpf(*xs, 8) + 0.5f)
 849              		.loc 1 502 0 is_stmt 0 discriminator 1
 850 008e 0028     		cmp	r0, #0
 851 0090 C5DC     		bgt	.L76
 506:..\..\..\liblc3\src/lc3.c ****     }
 507:..\..\..\liblc3\src/lc3.c **** }
 852              		.loc 1 507 0 is_stmt 1
 853 0092 70BC     		pop	{r4, r5, r6}
 854              		.cfi_restore 6
 855              		.cfi_restore 5
 856              		.cfi_restore 4
 857              		.cfi_def_cfa_offset 0
 858              	.LVL133:
 859 0094 7047     		bx	lr
 860              	.L82:
 861 0096 00BF     		.align	2
 862              	.L81:
 863 0098 00000000 		.word	lc3_ns_2m5
 864 009c FEFF7F00 		.word	8388606
 865 00a0 000080FF 		.word	-8388608
 866 00a4 FFFF7F00 		.word	8388607
 867              		.cfi_endproc
 868              	.LFE44:
 869              		.size	store_s24, .-store_s24
 870              		.section	.text.store_s24_3le,"ax",%progbits
 871              		.align	2
 872              		.thumb
 873              		.thumb_func
 874              		.type	store_s24_3le, %function
 875              	store_s24_3le:
 876              	.LFB45:
 508:..\..\..\liblc3\src/lc3.c **** 
 509:..\..\..\liblc3\src/lc3.c **** /**
 510:..\..\..\liblc3\src/lc3.c ****  * Output PCM Samples to signed 24 bits packed
 511:..\..\..\liblc3\src/lc3.c ****  * decoder         Decoder state
 512:..\..\..\liblc3\src/lc3.c ****  * pcm, stride     Output PCM samples, and count between two consecutives
 513:..\..\..\liblc3\src/lc3.c ****  */
 514:..\..\..\liblc3\src/lc3.c **** static void store_s24_3le(
 515:..\..\..\liblc3\src/lc3.c ****     struct lc3_decoder *decoder, void *_pcm, int stride)
 516:..\..\..\liblc3\src/lc3.c **** {
 877              		.loc 1 516 0
 878              		.cfi_startproc
 879              		@ args = 0, pretend = 0, frame = 0
 880              		@ frame_needed = 0, uses_anonymous_args = 0
 881              		@ link register save eliminated.
 882              	.LVL134:
 883 0000 30B4     		push	{r4, r5}
 884              		.cfi_def_cfa_offset 8
 885              		.cfi_offset 4, -8
 886              		.cfi_offset 5, -4
 887              	.LVL135:
 517:..\..\..\liblc3\src/lc3.c ****     uint8_t *pcm = _pcm;
 518:..\..\..\liblc3\src/lc3.c **** 
 519:..\..\..\liblc3\src/lc3.c ****     enum lc3_dt dt = decoder->dt;
 888              		.loc 1 519 0
 889 0002 0378     		ldrb	r3, [r0]	@ zero_extendqisi2
 890              	.LVL136:
ARM GAS  C:\Users\rdn\AppData\Local\Temp\ccCxUcqe.s 			page 28


 520:..\..\..\liblc3\src/lc3.c ****     enum lc3_srate sr = decoder->sr_pcm;
 891              		.loc 1 520 0
 892 0004 8478     		ldrb	r4, [r0, #2]	@ zero_extendqisi2
 893              	.LVL137:
 521:..\..\..\liblc3\src/lc3.c **** 
 522:..\..\..\liblc3\src/lc3.c ****     float *xs = decoder->x + decoder->xs_off;
 894              		.loc 1 522 0
 895 0006 00F1B805 		add	r5, r0, #184
 896 000a D0F8AC00 		ldr	r0, [r0, #172]
 897              	.LVL138:
 898 000e 05EB8005 		add	r5, r5, r0, lsl #2
 899              	.LVL139:
 900              	.LBB140:
 901              	.LBB141:
 902              		.loc 2 47 0
 903 0012 2348     		ldr	r0, .L96
 904 0014 50F82440 		ldr	r4, [r0, r4, lsl #2]
 905              	.LVL140:
 906 0018 03FB0444 		mla	r4, r3, r4, r4
 907              	.LVL141:
 908              	.LBE141:
 909              	.LBE140:
 523:..\..\..\liblc3\src/lc3.c ****     int ns = lc3_ns(dt, sr);
 524:..\..\..\liblc3\src/lc3.c **** 
 525:..\..\..\liblc3\src/lc3.c ****     for ( ; ns > 0; ns--, xs++, pcm += 3*stride) {
 910              		.loc 1 525 0
 911 001c 3CE0     		b	.L84
 912              	.LVL142:
 913              	.L91:
 914              	.LBB142:
 526:..\..\..\liblc3\src/lc3.c ****         int32_t s = *xs >= 0 ? (int32_t)(lc3_ldexpf(*xs, 8) + 0.5f)
 915              		.loc 1 526 0
 916 001e D5ED007A 		vldr.32	s15, [r5]
 527:..\..\..\liblc3\src/lc3.c ****                              : (int32_t)(lc3_ldexpf(*xs, 8) - 0.5f);
 917              		.loc 1 527 0
 918 0022 F5EEC07A 		vcmpe.f32	s15, #0
 919 0026 F1EE10FA 		vmrs	APSR_nzcv, FPSCR
 920 002a 11DB     		blt	.L94
 921              	.LVL143:
 922              	.LBB143:
 923              	.LBB144:
  45:..\..\..\liblc3\src/fastmath.h **** 
 924              		.loc 3 45 0 discriminator 1
 925 002c 17EE903A 		vmov	r3, s15	@ int
 926              	.LVL144:
  47:..\..\..\liblc3\src/fastmath.h ****         x.s += exp << LC3_IEEE754_EXP_SHL;
 927              		.loc 3 47 0 discriminator 1
 928 0030 13F0FF4F 		tst	r3, #2139095040
 929 0034 01D0     		beq	.L87
  48:..\..\..\liblc3\src/fastmath.h **** 
 930              		.loc 3 48 0
 931 0036 03F18063 		add	r3, r3, #67108864
 932              	.LVL145:
 933              	.L87:
 934              		.loc 3 50 0
 935 003a 07EE903A 		vmov	s15, r3
 936              	.LVL146:
ARM GAS  C:\Users\rdn\AppData\Local\Temp\ccCxUcqe.s 			page 29


 937              	.LBE144:
 938              	.LBE143:
 526:..\..\..\liblc3\src/lc3.c ****                              : (int32_t)(lc3_ldexpf(*xs, 8) - 0.5f);
 939              		.loc 1 526 0
 940 003e B6EE007A 		vmov.f32	s14, #5.0e-1
 941 0042 77EE877A 		vadd.f32	s15, s15, s14
 942              		.loc 1 527 0
 943 0046 FDEEE77A 		vcvt.s32.f32	s15, s15
 944 004a 17EE903A 		vmov	r3, s15	@ int
 945              	.LVL147:
 946 004e 10E0     		b	.L88
 947              	.L94:
 948              	.LVL148:
 949              	.LBB145:
 950              	.LBB146:
  45:..\..\..\liblc3\src/fastmath.h **** 
 951              		.loc 3 45 0 discriminator 2
 952 0050 17EE903A 		vmov	r3, s15	@ int
 953              	.LVL149:
  47:..\..\..\liblc3\src/fastmath.h ****         x.s += exp << LC3_IEEE754_EXP_SHL;
 954              		.loc 3 47 0 discriminator 2
 955 0054 13F0FF4F 		tst	r3, #2139095040
 956 0058 01D0     		beq	.L89
  48:..\..\..\liblc3\src/fastmath.h **** 
 957              		.loc 3 48 0
 958 005a 03F18063 		add	r3, r3, #67108864
 959              	.LVL150:
 960              	.L89:
 961              		.loc 3 50 0
 962 005e 07EE903A 		vmov	s15, r3
 963              	.LVL151:
 964              	.LBE146:
 965              	.LBE145:
 966              		.loc 1 527 0
 967 0062 B6EE007A 		vmov.f32	s14, #5.0e-1
 968 0066 77EEC77A 		vsub.f32	s15, s15, s14
 969 006a FDEEE77A 		vcvt.s32.f32	s15, s15
 970 006e 17EE903A 		vmov	r3, s15	@ int
 971              	.LVL152:
 972              	.L88:
 528:..\..\..\liblc3\src/lc3.c **** 
 529:..\..\..\liblc3\src/lc3.c ****         s = LC3_SAT24(s);
 973              		.loc 1 529 0
 974 0072 0C48     		ldr	r0, .L96+4
 975 0074 8342     		cmp	r3, r0
 976 0076 04DC     		bgt	.L92
 977              		.loc 1 529 0 is_stmt 0 discriminator 1
 978 0078 0B48     		ldr	r0, .L96+8
 979 007a 8342     		cmp	r3, r0
 980 007c B8BF     		it	lt
 981 007e 0346     		movlt	r3, r0
 982              	.LVL153:
 983 0080 00E0     		b	.L90
 984              	.LVL154:
 985              	.L92:
 986              		.loc 1 529 0
 987 0082 0A4B     		ldr	r3, .L96+12
ARM GAS  C:\Users\rdn\AppData\Local\Temp\ccCxUcqe.s 			page 30


 988              	.LVL155:
 989              	.L90:
 530:..\..\..\liblc3\src/lc3.c ****         pcm[0] = (s >>  0) & 0xff;
 990              		.loc 1 530 0 is_stmt 1 discriminator 4
 991 0084 0B70     		strb	r3, [r1]
 531:..\..\..\liblc3\src/lc3.c ****         pcm[1] = (s >>  8) & 0xff;
 992              		.loc 1 531 0 discriminator 4
 993 0086 1812     		asrs	r0, r3, #8
 994 0088 4870     		strb	r0, [r1, #1]
 532:..\..\..\liblc3\src/lc3.c ****         pcm[2] = (s >> 16) & 0xff;
 995              		.loc 1 532 0 discriminator 4
 996 008a 1B14     		asrs	r3, r3, #16
 997              	.LVL156:
 998 008c 8B70     		strb	r3, [r1, #2]
 999              	.LBE142:
 525:..\..\..\liblc3\src/lc3.c ****         int32_t s = *xs >= 0 ? (int32_t)(lc3_ldexpf(*xs, 8) + 0.5f)
 1000              		.loc 1 525 0 discriminator 4
 1001 008e 013C     		subs	r4, r4, #1
 1002              	.LVL157:
 1003 0090 0435     		adds	r5, r5, #4
 1004              	.LVL158:
 1005 0092 02EB4203 		add	r3, r2, r2, lsl #1
 1006 0096 1944     		add	r1, r1, r3
 1007              	.LVL159:
 1008              	.L84:
 525:..\..\..\liblc3\src/lc3.c ****         int32_t s = *xs >= 0 ? (int32_t)(lc3_ldexpf(*xs, 8) + 0.5f)
 1009              		.loc 1 525 0 is_stmt 0 discriminator 1
 1010 0098 002C     		cmp	r4, #0
 1011 009a C0DC     		bgt	.L91
 533:..\..\..\liblc3\src/lc3.c ****     }
 534:..\..\..\liblc3\src/lc3.c **** }
 1012              		.loc 1 534 0 is_stmt 1
 1013 009c 30BC     		pop	{r4, r5}
 1014              		.cfi_restore 5
 1015              		.cfi_restore 4
 1016              		.cfi_def_cfa_offset 0
 1017              	.LVL160:
 1018 009e 7047     		bx	lr
 1019              	.L97:
 1020              		.align	2
 1021              	.L96:
 1022 00a0 00000000 		.word	lc3_ns_2m5
 1023 00a4 FEFF7F00 		.word	8388606
 1024 00a8 000080FF 		.word	-8388608
 1025 00ac FFFF7F00 		.word	8388607
 1026              		.cfi_endproc
 1027              	.LFE45:
 1028              		.size	store_s24_3le, .-store_s24_3le
 1029              		.section	.text.complete,"ax",%progbits
 1030              		.align	2
 1031              		.thumb
 1032              		.thumb_func
 1033              		.type	complete, %function
 1034              	complete:
 1035              	.LFB49:
 535:..\..\..\liblc3\src/lc3.c **** 
 536:..\..\..\liblc3\src/lc3.c **** /**
ARM GAS  C:\Users\rdn\AppData\Local\Temp\ccCxUcqe.s 			page 31


 537:..\..\..\liblc3\src/lc3.c ****  * Output PCM Samples to float 32 bits
 538:..\..\..\liblc3\src/lc3.c ****  * decoder         Decoder state
 539:..\..\..\liblc3\src/lc3.c ****  * pcm, stride     Output PCM samples, and count between two consecutives
 540:..\..\..\liblc3\src/lc3.c ****  */
 541:..\..\..\liblc3\src/lc3.c **** static void store_float(
 542:..\..\..\liblc3\src/lc3.c ****     struct lc3_decoder *decoder, void *_pcm, int stride)
 543:..\..\..\liblc3\src/lc3.c **** {
 544:..\..\..\liblc3\src/lc3.c ****     float *pcm = _pcm;
 545:..\..\..\liblc3\src/lc3.c **** 
 546:..\..\..\liblc3\src/lc3.c ****     enum lc3_dt dt = decoder->dt;
 547:..\..\..\liblc3\src/lc3.c ****     enum lc3_srate sr = decoder->sr_pcm;
 548:..\..\..\liblc3\src/lc3.c **** 
 549:..\..\..\liblc3\src/lc3.c ****     float *xs = decoder->x + decoder->xs_off;
 550:..\..\..\liblc3\src/lc3.c ****     int ns = lc3_ns(dt, sr);
 551:..\..\..\liblc3\src/lc3.c **** 
 552:..\..\..\liblc3\src/lc3.c ****     for ( ; ns > 0; ns--, xs++, pcm += stride) {
 553:..\..\..\liblc3\src/lc3.c ****         float s = lc3_ldexpf(*xs, -15);
 554:..\..\..\liblc3\src/lc3.c ****         *pcm = fminf(fmaxf(s, -1.f), 1.f);
 555:..\..\..\liblc3\src/lc3.c ****     }
 556:..\..\..\liblc3\src/lc3.c **** }
 557:..\..\..\liblc3\src/lc3.c **** 
 558:..\..\..\liblc3\src/lc3.c **** /**
 559:..\..\..\liblc3\src/lc3.c ****  * Decode bitstream
 560:..\..\..\liblc3\src/lc3.c ****  * decoder         Decoder state
 561:..\..\..\liblc3\src/lc3.c ****  * data, nbytes    Input bitstream buffer
 562:..\..\..\liblc3\src/lc3.c ****  * side            Return the side data
 563:..\..\..\liblc3\src/lc3.c ****  * return          0: Ok  < 0: Bitsream error detected
 564:..\..\..\liblc3\src/lc3.c ****  */
 565:..\..\..\liblc3\src/lc3.c **** static int decode(struct lc3_decoder *decoder,
 566:..\..\..\liblc3\src/lc3.c ****     const void *data, int nbytes, struct side_data *side)
 567:..\..\..\liblc3\src/lc3.c **** {
 568:..\..\..\liblc3\src/lc3.c ****     enum lc3_dt dt = decoder->dt;
 569:..\..\..\liblc3\src/lc3.c ****     enum lc3_srate sr = decoder->sr;
 570:..\..\..\liblc3\src/lc3.c **** 
 571:..\..\..\liblc3\src/lc3.c ****     float *xf = decoder->x + decoder->xs_off;
 572:..\..\..\liblc3\src/lc3.c ****     int ns = lc3_ns(dt, sr);
 573:..\..\..\liblc3\src/lc3.c ****     int ne = lc3_ne(dt, sr);
 574:..\..\..\liblc3\src/lc3.c **** 
 575:..\..\..\liblc3\src/lc3.c ****     lc3_bits_t bits;
 576:..\..\..\liblc3\src/lc3.c ****     int ret = 0;
 577:..\..\..\liblc3\src/lc3.c **** 
 578:..\..\..\liblc3\src/lc3.c ****     lc3_setup_bits(&bits, LC3_BITS_MODE_READ, (void *)data, nbytes);
 579:..\..\..\liblc3\src/lc3.c **** 
 580:..\..\..\liblc3\src/lc3.c ****     if ((ret = lc3_bwdet_get_bw(&bits, sr, &side->bw)) < 0)
 581:..\..\..\liblc3\src/lc3.c ****         return ret;
 582:..\..\..\liblc3\src/lc3.c **** 
 583:..\..\..\liblc3\src/lc3.c ****     if ((ret = lc3_spec_get_side(&bits, dt, sr, &side->spec)) < 0)
 584:..\..\..\liblc3\src/lc3.c ****         return ret;
 585:..\..\..\liblc3\src/lc3.c **** 
 586:..\..\..\liblc3\src/lc3.c ****     if ((ret = lc3_tns_get_data(&bits, dt, side->bw, nbytes, &side->tns)) < 0)
 587:..\..\..\liblc3\src/lc3.c ****         return ret;
 588:..\..\..\liblc3\src/lc3.c **** 
 589:..\..\..\liblc3\src/lc3.c ****     side->pitch_present = lc3_get_bit(&bits);
 590:..\..\..\liblc3\src/lc3.c **** 
 591:..\..\..\liblc3\src/lc3.c ****     if ((ret = lc3_sns_get_data(&bits, &side->sns)) < 0)
 592:..\..\..\liblc3\src/lc3.c ****         return ret;
 593:..\..\..\liblc3\src/lc3.c **** 
ARM GAS  C:\Users\rdn\AppData\Local\Temp\ccCxUcqe.s 			page 32


 594:..\..\..\liblc3\src/lc3.c ****     if (side->pitch_present)
 595:..\..\..\liblc3\src/lc3.c ****       lc3_ltpf_get_data(&bits, &side->ltpf);
 596:..\..\..\liblc3\src/lc3.c **** 
 597:..\..\..\liblc3\src/lc3.c ****     if ((ret = lc3_spec_decode(&bits, dt, sr,
 598:..\..\..\liblc3\src/lc3.c ****                     side->bw, nbytes, &side->spec, xf)) < 0)
 599:..\..\..\liblc3\src/lc3.c ****         return ret;
 600:..\..\..\liblc3\src/lc3.c **** 
 601:..\..\..\liblc3\src/lc3.c ****     memset(xf + ne, 0, (ns - ne) * sizeof(float));
 602:..\..\..\liblc3\src/lc3.c **** 
 603:..\..\..\liblc3\src/lc3.c ****     return lc3_check_bits(&bits);
 604:..\..\..\liblc3\src/lc3.c **** }
 605:..\..\..\liblc3\src/lc3.c **** 
 606:..\..\..\liblc3\src/lc3.c **** /**
 607:..\..\..\liblc3\src/lc3.c ****  * Frame synthesis
 608:..\..\..\liblc3\src/lc3.c ****  * decoder         Decoder state
 609:..\..\..\liblc3\src/lc3.c ****  * side            Frame data, NULL performs PLC
 610:..\..\..\liblc3\src/lc3.c ****  * nbytes          Size in bytes of the frame
 611:..\..\..\liblc3\src/lc3.c ****  */
 612:..\..\..\liblc3\src/lc3.c **** static void synthesize(struct lc3_decoder *decoder,
 613:..\..\..\liblc3\src/lc3.c ****     const struct side_data *side, int nbytes)
 614:..\..\..\liblc3\src/lc3.c **** {
 615:..\..\..\liblc3\src/lc3.c ****     enum lc3_dt dt = decoder->dt;
 616:..\..\..\liblc3\src/lc3.c ****     enum lc3_srate sr = decoder->sr;
 617:..\..\..\liblc3\src/lc3.c ****     enum lc3_srate sr_pcm = decoder->sr_pcm;
 618:..\..\..\liblc3\src/lc3.c **** 
 619:..\..\..\liblc3\src/lc3.c ****     float *xf = decoder->x + decoder->xs_off;
 620:..\..\..\liblc3\src/lc3.c ****     int ns = lc3_ns(dt, sr_pcm);
 621:..\..\..\liblc3\src/lc3.c ****     int ne = lc3_ne(dt, sr);
 622:..\..\..\liblc3\src/lc3.c **** 
 623:..\..\..\liblc3\src/lc3.c ****     float *xg = decoder->x + decoder->xg_off;
 624:..\..\..\liblc3\src/lc3.c ****     float *xs = xf;
 625:..\..\..\liblc3\src/lc3.c **** 
 626:..\..\..\liblc3\src/lc3.c ****     float *xd = decoder->x + decoder->xd_off;
 627:..\..\..\liblc3\src/lc3.c ****     float *xh = decoder->x + decoder->xh_off;
 628:..\..\..\liblc3\src/lc3.c **** 
 629:..\..\..\liblc3\src/lc3.c ****     if (side) {
 630:..\..\..\liblc3\src/lc3.c ****         enum lc3_bandwidth bw = side->bw;
 631:..\..\..\liblc3\src/lc3.c **** 
 632:..\..\..\liblc3\src/lc3.c ****         lc3_plc_suspend(&decoder->plc);
 633:..\..\..\liblc3\src/lc3.c **** 
 634:..\..\..\liblc3\src/lc3.c ****         lc3_tns_synthesize(dt, bw, &side->tns, xf);
 635:..\..\..\liblc3\src/lc3.c **** 
 636:..\..\..\liblc3\src/lc3.c ****         lc3_sns_synthesize(dt, sr, &side->sns, xf, xg);
 637:..\..\..\liblc3\src/lc3.c **** 
 638:..\..\..\liblc3\src/lc3.c ****         lc3_mdct_inverse(dt, sr_pcm, sr, xg, xd, xs);
 639:..\..\..\liblc3\src/lc3.c **** 
 640:..\..\..\liblc3\src/lc3.c ****     } else {
 641:..\..\..\liblc3\src/lc3.c ****         lc3_plc_synthesize(dt, sr, &decoder->plc, xg, xf);
 642:..\..\..\liblc3\src/lc3.c **** 
 643:..\..\..\liblc3\src/lc3.c ****         memset(xf + ne, 0, (ns - ne) * sizeof(float));
 644:..\..\..\liblc3\src/lc3.c **** 
 645:..\..\..\liblc3\src/lc3.c ****         lc3_mdct_inverse(dt, sr_pcm, sr, xf, xd, xs);
 646:..\..\..\liblc3\src/lc3.c ****     }
 647:..\..\..\liblc3\src/lc3.c **** 
 648:..\..\..\liblc3\src/lc3.c ****     if (!lc3_hr(sr))
 649:..\..\..\liblc3\src/lc3.c ****         lc3_ltpf_synthesize(dt, sr_pcm, nbytes, &decoder->ltpf,
 650:..\..\..\liblc3\src/lc3.c ****             side && side->pitch_present ? &side->ltpf : NULL, xh, xs);
ARM GAS  C:\Users\rdn\AppData\Local\Temp\ccCxUcqe.s 			page 33


 651:..\..\..\liblc3\src/lc3.c **** }
 652:..\..\..\liblc3\src/lc3.c **** 
 653:..\..\..\liblc3\src/lc3.c **** /**
 654:..\..\..\liblc3\src/lc3.c ****  * Update decoder state on decoding completion
 655:..\..\..\liblc3\src/lc3.c ****  * decoder         Decoder state
 656:..\..\..\liblc3\src/lc3.c ****  */
 657:..\..\..\liblc3\src/lc3.c **** static void complete(struct lc3_decoder *decoder)
 658:..\..\..\liblc3\src/lc3.c **** {
 1036              		.loc 1 658 0
 1037              		.cfi_startproc
 1038              		@ args = 0, pretend = 0, frame = 0
 1039              		@ frame_needed = 0, uses_anonymous_args = 0
 1040              		@ link register save eliminated.
 1041              	.LVL161:
 1042 0000 30B4     		push	{r4, r5}
 1043              		.cfi_def_cfa_offset 8
 1044              		.cfi_offset 4, -8
 1045              		.cfi_offset 5, -4
 659:..\..\..\liblc3\src/lc3.c ****     enum lc3_dt dt = decoder->dt;
 1046              		.loc 1 659 0
 1047 0002 0478     		ldrb	r4, [r0]	@ zero_extendqisi2
 1048              	.LVL162:
 660:..\..\..\liblc3\src/lc3.c ****     enum lc3_srate sr_pcm = decoder->sr_pcm;
 1049              		.loc 1 660 0
 1050 0004 8278     		ldrb	r2, [r0, #2]	@ zero_extendqisi2
 1051              	.LVL163:
 1052              	.LBB147:
 1053              	.LBB148:
  48:..\..\..\liblc3\src/tables.h **** }
  49:..\..\..\liblc3\src/tables.h **** 
  50:..\..\..\liblc3\src/tables.h **** static inline int lc3_ne(enum lc3_dt dt, enum lc3_srate sr) {
  51:..\..\..\liblc3\src/tables.h ****     return lc3_ne_2m5[sr] * (1 + dt);
  52:..\..\..\liblc3\src/tables.h **** }
  53:..\..\..\liblc3\src/tables.h **** 
  54:..\..\..\liblc3\src/tables.h **** static inline int lc3_nd(enum lc3_dt dt, enum lc3_srate sr) {
  55:..\..\..\liblc3\src/tables.h ****     return ( lc3_ns(dt, sr) +
  56:..\..\..\liblc3\src/tables.h ****         (dt == LC3_DT_7M5 ? lc3_ns_4m[sr] : lc3_ns_2m5[sr]) ) >> 1;
  57:..\..\..\liblc3\src/tables.h **** }
  58:..\..\..\liblc3\src/tables.h **** 
  59:..\..\..\liblc3\src/tables.h **** static inline int lc3_nh(enum lc3_dt dt, enum lc3_srate sr) {
  60:..\..\..\liblc3\src/tables.h ****     return sr > LC3_SRATE_48K_HR ? 0 :
 1054              		.loc 2 60 0
 1055 0006 052A     		cmp	r2, #5
 1056 0008 0AD8     		bhi	.L102
  61:..\..\..\liblc3\src/tables.h ****         (8 + (dt == LC3_DT_7M5)) * lc3_ns_2m5[sr];
 1057              		.loc 2 61 0
 1058 000a 022C     		cmp	r4, #2
 1059 000c 01D1     		bne	.L103
 1060 000e 0921     		movs	r1, #9
 1061 0010 00E0     		b	.L100
 1062              	.L103:
 1063 0012 0821     		movs	r1, #8
 1064              	.L100:
 1065 0014 0B4B     		ldr	r3, .L105
 1066 0016 53F82230 		ldr	r3, [r3, r2, lsl #2]
  60:..\..\..\liblc3\src/tables.h ****         (8 + (dt == LC3_DT_7M5)) * lc3_ns_2m5[sr];
 1067              		.loc 2 60 0
ARM GAS  C:\Users\rdn\AppData\Local\Temp\ccCxUcqe.s 			page 34


 1068 001a 01FB03F1 		mul	r1, r1, r3
 1069 001e 00E0     		b	.L99
 1070              	.L102:
 1071 0020 0021     		movs	r1, #0
 1072              	.L99:
 1073              	.LVL164:
 1074              	.LBE148:
 1075              	.LBE147:
 1076              	.LBB149:
 1077              	.LBB150:
  47:..\..\..\liblc3\src/tables.h **** }
 1078              		.loc 2 47 0
 1079 0022 084B     		ldr	r3, .L105
 1080 0024 53F82230 		ldr	r3, [r3, r2, lsl #2]
 1081 0028 04FB0333 		mla	r3, r4, r3, r3
 1082              	.LVL165:
 1083              	.LBE150:
 1084              	.LBE149:
 661:..\..\..\liblc3\src/lc3.c ****     int nh = lc3_nh(dt, sr_pcm);
 662:..\..\..\liblc3\src/lc3.c ****     int ns = lc3_ns(dt, sr_pcm);
 663:..\..\..\liblc3\src/lc3.c **** 
 664:..\..\..\liblc3\src/lc3.c ****     decoder->xs_off = decoder->xs_off - decoder->xh_off < nh ?
 1085              		.loc 1 664 0
 1086 002c D0F8AC40 		ldr	r4, [r0, #172]
 1087              	.LVL166:
 1088 0030 D0F8A820 		ldr	r2, [r0, #168]
 1089              	.LVL167:
 1090 0034 A51A     		subs	r5, r4, r2
 665:..\..\..\liblc3\src/lc3.c ****         decoder->xs_off + ns : decoder->xh_off;
 1091              		.loc 1 665 0
 1092 0036 8D42     		cmp	r5, r1
 1093 0038 00DA     		bge	.L101
 1094              		.loc 1 665 0 is_stmt 0 discriminator 1
 1095 003a E218     		adds	r2, r4, r3
 1096              	.L101:
 664:..\..\..\liblc3\src/lc3.c ****         decoder->xs_off + ns : decoder->xh_off;
 1097              		.loc 1 664 0 is_stmt 1
 1098 003c C0F8AC20 		str	r2, [r0, #172]
 666:..\..\..\liblc3\src/lc3.c **** }
 1099              		.loc 1 666 0
 1100 0040 30BC     		pop	{r4, r5}
 1101              		.cfi_restore 5
 1102              		.cfi_restore 4
 1103              		.cfi_def_cfa_offset 0
 1104 0042 7047     		bx	lr
 1105              	.L106:
 1106              		.align	2
 1107              	.L105:
 1108 0044 00000000 		.word	lc3_ns_2m5
 1109              		.cfi_endproc
 1110              	.LFE49:
 1111              		.size	complete, .-complete
 1112              		.section	.text.analyze,"ax",%progbits
 1113              		.align	2
 1114              		.thumb
 1115              		.thumb_func
 1116              		.type	analyze, %function
ARM GAS  C:\Users\rdn\AppData\Local\Temp\ccCxUcqe.s 			page 35


 1117              	analyze:
 1118              	.LFB36:
 287:..\..\..\liblc3\src/lc3.c ****     enum lc3_dt dt = encoder->dt;
 1119              		.loc 1 287 0
 1120              		.cfi_startproc
 1121              		@ args = 0, pretend = 0, frame = 280
 1122              		@ frame_needed = 0, uses_anonymous_args = 0
 1123              	.LVL168:
 1124 0000 2DE9F04F 		push	{r4, r5, r6, r7, r8, r9, r10, fp, lr}
 1125              		.cfi_def_cfa_offset 36
 1126              		.cfi_offset 4, -36
 1127              		.cfi_offset 5, -32
 1128              		.cfi_offset 6, -28
 1129              		.cfi_offset 7, -24
 1130              		.cfi_offset 8, -20
 1131              		.cfi_offset 9, -16
 1132              		.cfi_offset 10, -12
 1133              		.cfi_offset 11, -8
 1134              		.cfi_offset 14, -4
 1135 0004 CBB0     		sub	sp, sp, #300
 1136              		.cfi_def_cfa_offset 336
 1137 0006 0446     		mov	r4, r0
 1138 0008 8E46     		mov	lr, r1
 1139 000a 0891     		str	r1, [sp, #32]
 1140 000c 1746     		mov	r7, r2
 288:..\..\..\liblc3\src/lc3.c ****     enum lc3_srate sr = encoder->sr;
 1141              		.loc 1 288 0
 1142 000e 0578     		ldrb	r5, [r0]	@ zero_extendqisi2
 1143              	.LVL169:
 289:..\..\..\liblc3\src/lc3.c ****     enum lc3_srate sr_pcm = encoder->sr_pcm;
 1144              		.loc 1 289 0
 1145 0010 4378     		ldrb	r3, [r0, #1]	@ zero_extendqisi2
 1146 0012 0593     		str	r3, [sp, #20]
 1147              	.LVL170:
 290:..\..\..\liblc3\src/lc3.c **** 
 1148              		.loc 1 290 0
 1149 0014 90F802A0 		ldrb	r10, [r0, #2]	@ zero_extendqisi2
 1150              	.LVL171:
 292:..\..\..\liblc3\src/lc3.c ****     float *xs = encoder->x + encoder->xs_off;
 1151              		.loc 1 292 0
 1152 0018 00F2AC43 		addw	r3, r0, #1196
 1153 001c D0F8A024 		ldr	r2, [r0, #1184]
 1154              	.LVL172:
 1155 0020 03EB4208 		add	r8, r3, r2, lsl #1
 1156              	.LVL173:
 293:..\..\..\liblc3\src/lc3.c ****     int ns = lc3_ns(dt, sr_pcm);
 1157              		.loc 1 293 0
 1158 0024 D0F8A464 		ldr	r6, [r0, #1188]
 1159 0028 03EB8606 		add	r6, r3, r6, lsl #2
 1160              	.LVL174:
 1161              	.LBB151:
 1162              	.LBB152:
  47:..\..\..\liblc3\src/tables.h **** }
 1163              		.loc 2 47 0
 1164 002c 394A     		ldr	r2, .L110
 1165 002e 52F82A10 		ldr	r1, [r2, r10, lsl #2]
 1166              	.LVL175:
ARM GAS  C:\Users\rdn\AppData\Local\Temp\ccCxUcqe.s 			page 36


 1167 0032 05FB011B 		mla	fp, r5, r1, r1
 1168              	.LVL176:
 1169              	.LBE152:
 1170              	.LBE151:
 1171              	.LBB153:
 1172              	.LBB154:
  62:..\..\..\liblc3\src/tables.h **** }
  63:..\..\..\liblc3\src/tables.h **** 
  64:..\..\..\liblc3\src/tables.h **** static inline int lc3_nt(enum lc3_srate sr) {
  65:..\..\..\liblc3\src/tables.h ****     return lc3_ns_2m5[sr] >> 1;
 1173              		.loc 2 65 0
 1174 0036 4FEA6109 		asr	r9, r1, #1
 1175              	.LVL177:
 1176              	.LBE154:
 1177              	.LBE153:
 297:..\..\..\liblc3\src/lc3.c ****     float *xf = xs;
 1178              		.loc 1 297 0
 1179 003a D0F8A824 		ldr	r2, [r0, #1192]
 1180 003e 03EB8200 		add	r0, r3, r2, lsl #2
 1181              	.LVL178:
 1182 0042 0690     		str	r0, [sp, #24]
 1183              	.LVL179:
 302:..\..\..\liblc3\src/lc3.c **** 
 1184              		.loc 1 302 0
 1185 0044 CDF80080 		str	r8, [sp]
 1186 0048 231D     		adds	r3, r4, #4
 1187 004a 7246     		mov	r2, lr
 1188 004c 5146     		mov	r1, r10
 1189 004e 2846     		mov	r0, r5
 1190              	.LVL180:
 1191 0050 FFF7FEFF 		bl	lc3_attdet_run
 1192              	.LVL181:
 1193 0054 0790     		str	r0, [sp, #28]
 1194              	.LVL182:
 305:..\..\..\liblc3\src/lc3.c **** 
 1195              		.loc 1 305 0
 1196 0056 3A1D     		adds	r2, r7, #4
 1197 0058 0992     		str	r2, [sp, #36]
 1198 005a 0092     		str	r2, [sp]
 1199 005c 4346     		mov	r3, r8
 1200 005e 04F11002 		add	r2, r4, #16
 1201 0062 5146     		mov	r1, r10
 1202 0064 2846     		mov	r0, r5
 1203 0066 FFF7FEFF 		bl	lc3_ltpf_analyse
 1204              	.LVL183:
 304:..\..\..\liblc3\src/lc3.c ****         lc3_ltpf_analyse(dt, sr_pcm, &encoder->ltpf, xt, &side->ltpf);
 1205              		.loc 1 304 0
 1206 006a 7870     		strb	r0, [r7, #1]
 307:..\..\..\liblc3\src/lc3.c **** 
 1207              		.loc 1 307 0
 1208 006c 4FEA4900 		lsl	r0, r9, #1
 1209 0070 C9EB0B01 		rsb	r1, r9, fp
 1210 0074 0246     		mov	r2, r0
 1211 0076 08EB4101 		add	r1, r8, r1, lsl #1
 1212 007a C0EB0800 		rsb	r0, r0, r8
 1213 007e FFF7FEFF 		bl	memmove
 1214              	.LVL184:
ARM GAS  C:\Users\rdn\AppData\Local\Temp\ccCxUcqe.s 			page 37


 313:..\..\..\liblc3\src/lc3.c **** 
 1215              		.loc 1 313 0
 1216 0082 0196     		str	r6, [sp, #4]
 1217 0084 0698     		ldr	r0, [sp, #24]
 1218 0086 0090     		str	r0, [sp]
 1219 0088 3346     		mov	r3, r6
 1220 008a DDF81480 		ldr	r8, [sp, #20]
 1221              	.LVL185:
 1222 008e 4246     		mov	r2, r8
 1223 0090 5146     		mov	r1, r10
 1224 0092 2846     		mov	r0, r5
 1225 0094 FFF7FEFF 		bl	lc3_mdct_forward
 1226              	.LVL186:
 315:..\..\..\liblc3\src/lc3.c ****     if (nn_flag)
 1227              		.loc 1 315 0
 1228 0098 0AAB     		add	r3, sp, #40
 1229 009a 3246     		mov	r2, r6
 1230 009c 4146     		mov	r1, r8
 1231 009e 2846     		mov	r0, r5
 1232 00a0 FFF7FEFF 		bl	lc3_energy_compute
 1233              	.LVL187:
 316:..\..\..\liblc3\src/lc3.c ****         lc3_ltpf_disable(&side->ltpf);
 1234              		.loc 1 316 0
 1235 00a4 8046     		mov	r8, r0
 1236 00a6 10B1     		cbz	r0, .L108
 317:..\..\..\liblc3\src/lc3.c **** 
 1237              		.loc 1 317 0
 1238 00a8 0998     		ldr	r0, [sp, #36]
 1239              	.LVL188:
 1240 00aa FFF7FEFF 		bl	lc3_ltpf_disable
 1241              	.LVL189:
 1242              	.L108:
 319:..\..\..\liblc3\src/lc3.c **** 
 1243              		.loc 1 319 0
 1244 00ae 0AAA     		add	r2, sp, #40
 1245 00b0 DDF814B0 		ldr	fp, [sp, #20]
 1246 00b4 5946     		mov	r1, fp
 1247 00b6 2846     		mov	r0, r5
 1248 00b8 FFF7FEFF 		bl	lc3_bwdet_run
 1249              	.LVL190:
 1250 00bc 3B46     		mov	r3, r7
 1251 00be 03F80C0B 		strb	r0, [r3], #12
 321:..\..\..\liblc3\src/lc3.c **** 
 1252              		.loc 1 321 0
 1253 00c2 0396     		str	r6, [sp, #12]
 1254 00c4 0296     		str	r6, [sp, #8]
 1255 00c6 0193     		str	r3, [sp, #4]
 1256 00c8 079B     		ldr	r3, [sp, #28]
 1257 00ca 0093     		str	r3, [sp]
 1258 00cc 0AAB     		add	r3, sp, #40
 1259 00ce DDF820A0 		ldr	r10, [sp, #32]
 1260              	.LVL191:
 1261 00d2 5246     		mov	r2, r10
 1262 00d4 5946     		mov	r1, fp
 1263 00d6 2846     		mov	r0, r5
 1264 00d8 FFF7FEFF 		bl	lc3_sns_analyze
 1265              	.LVL192:
ARM GAS  C:\Users\rdn\AppData\Local\Temp\ccCxUcqe.s 			page 38


 323:..\..\..\liblc3\src/lc3.c **** 
 1266              		.loc 1 323 0
 1267 00dc 07F12809 		add	r9, r7, #40
 1268 00e0 3978     		ldrb	r1, [r7]	@ zero_extendqisi2
 1269 00e2 0196     		str	r6, [sp, #4]
 1270 00e4 CDF80090 		str	r9, [sp]
 1271 00e8 5346     		mov	r3, r10
 1272 00ea 4246     		mov	r2, r8
 1273 00ec 2846     		mov	r0, r5
 1274 00ee FFF7FEFF 		bl	lc3_tns_analyze
 1275              	.LVL193:
 325:..\..\..\liblc3\src/lc3.c ****         nbytes, side->pitch_present, &side->tns,
 1276              		.loc 1 325 0
 1277 00f2 7B78     		ldrb	r3, [r7, #1]	@ zero_extendqisi2
 1278 00f4 7837     		adds	r7, r7, #120
 1279              	.LVL194:
 1280 00f6 0397     		str	r7, [sp, #12]
 1281 00f8 0296     		str	r6, [sp, #8]
 1282 00fa 04F59364 		add	r4, r4, #1176
 1283              	.LVL195:
 1284 00fe 0194     		str	r4, [sp, #4]
 1285 0100 CDF80090 		str	r9, [sp]
 1286 0104 5246     		mov	r2, r10
 1287 0106 5946     		mov	r1, fp
 1288 0108 2846     		mov	r0, r5
 1289 010a FFF7FEFF 		bl	lc3_spec_analyze
 1290              	.LVL196:
 328:..\..\..\liblc3\src/lc3.c **** 
 1291              		.loc 1 328 0
 1292 010e 4BB0     		add	sp, sp, #300
 1293              		.cfi_def_cfa_offset 36
 1294              		@ sp needed
 1295 0110 BDE8F08F 		pop	{r4, r5, r6, r7, r8, r9, r10, fp, pc}
 1296              	.LVL197:
 1297              	.L111:
 1298              		.align	2
 1299              	.L110:
 1300 0114 00000000 		.word	lc3_ns_2m5
 1301              		.cfi_endproc
 1302              	.LFE36:
 1303              		.size	analyze, .-analyze
 1304              		.section	.text.encode,"ax",%progbits
 1305              		.align	2
 1306              		.thumb
 1307              		.thumb_func
 1308              		.type	encode, %function
 1309              	encode:
 1310              	.LFB37:
 339:..\..\..\liblc3\src/lc3.c ****     enum lc3_dt dt = encoder->dt;
 1311              		.loc 1 339 0
 1312              		.cfi_startproc
 1313              		@ args = 0, pretend = 0, frame = 56
 1314              		@ frame_needed = 0, uses_anonymous_args = 0
 1315              	.LVL198:
 1316 0000 2DE9F047 		push	{r4, r5, r6, r7, r8, r9, r10, lr}
 1317              		.cfi_def_cfa_offset 32
 1318              		.cfi_offset 4, -32
ARM GAS  C:\Users\rdn\AppData\Local\Temp\ccCxUcqe.s 			page 39


 1319              		.cfi_offset 5, -28
 1320              		.cfi_offset 6, -24
 1321              		.cfi_offset 7, -20
 1322              		.cfi_offset 8, -16
 1323              		.cfi_offset 9, -12
 1324              		.cfi_offset 10, -8
 1325              		.cfi_offset 14, -4
 1326 0004 92B0     		sub	sp, sp, #72
 1327              		.cfi_def_cfa_offset 104
 1328 0006 0C46     		mov	r4, r1
 1329 0008 9146     		mov	r9, r2
 1330 000a 1A46     		mov	r2, r3
 1331              	.LVL199:
 340:..\..\..\liblc3\src/lc3.c ****     enum lc3_srate sr = encoder->sr;
 1332              		.loc 1 340 0
 1333 000c 90F80080 		ldrb	r8, [r0]	@ zero_extendqisi2
 1334              	.LVL200:
 341:..\..\..\liblc3\src/lc3.c **** 
 1335              		.loc 1 341 0
 1336 0010 4678     		ldrb	r6, [r0, #1]	@ zero_extendqisi2
 1337              	.LVL201:
 343:..\..\..\liblc3\src/lc3.c ****     enum lc3_bandwidth bw = side->bw;
 1338              		.loc 1 343 0
 1339 0012 00F2AC43 		addw	r3, r0, #1196
 1340              	.LVL202:
 1341 0016 D0F8A474 		ldr	r7, [r0, #1188]
 1342 001a 03EB8707 		add	r7, r3, r7, lsl #2
 1343              	.LVL203:
 344:..\..\..\liblc3\src/lc3.c **** 
 1344              		.loc 1 344 0
 1345 001e 0D46     		mov	r5, r1
 1346 0020 15F878AB 		ldrb	r10, [r5], #120	@ zero_extendqisi2
 1347              	.LVL204:
 348:..\..\..\liblc3\src/lc3.c **** 
 1348              		.loc 1 348 0
 1349 0024 4B46     		mov	r3, r9
 1350 0026 0121     		movs	r1, #1
 1351              	.LVL205:
 1352 0028 04A8     		add	r0, sp, #16
 1353              	.LVL206:
 1354 002a FFF7FEFF 		bl	lc3_setup_bits
 1355              	.LVL207:
 350:..\..\..\liblc3\src/lc3.c **** 
 1356              		.loc 1 350 0
 1357 002e 5246     		mov	r2, r10
 1358 0030 3146     		mov	r1, r6
 1359 0032 04A8     		add	r0, sp, #16
 1360 0034 FFF7FEFF 		bl	lc3_bwdet_put_bw
 1361              	.LVL208:
 352:..\..\..\liblc3\src/lc3.c **** 
 1362              		.loc 1 352 0
 1363 0038 2B46     		mov	r3, r5
 1364 003a 3246     		mov	r2, r6
 1365 003c 4146     		mov	r1, r8
 1366 003e 04A8     		add	r0, sp, #16
 1367 0040 FFF7FEFF 		bl	lc3_spec_put_side
 1368              	.LVL209:
ARM GAS  C:\Users\rdn\AppData\Local\Temp\ccCxUcqe.s 			page 40


 354:..\..\..\liblc3\src/lc3.c **** 
 1369              		.loc 1 354 0
 1370 0044 04F12801 		add	r1, r4, #40
 1371 0048 04A8     		add	r0, sp, #16
 1372 004a FFF7FEFF 		bl	lc3_tns_put_data
 1373              	.LVL210:
 356:..\..\..\liblc3\src/lc3.c **** 
 1374              		.loc 1 356 0
 1375 004e 6178     		ldrb	r1, [r4, #1]	@ zero_extendqisi2
 1376              	.LVL211:
 1377              	.LBB159:
 1378              	.LBB160:
 1379              	.LBB161:
 1380              	.LBB162:
 1381              		.file 4 "..\\..\\..\\liblc3\\src\\bits.h"
   1:..\..\..\liblc3\src/bits.h **** /******************************************************************************
   2:..\..\..\liblc3\src/bits.h ****  *
   3:..\..\..\liblc3\src/bits.h ****  *  Copyright 2022 Google LLC
   4:..\..\..\liblc3\src/bits.h ****  *
   5:..\..\..\liblc3\src/bits.h ****  *  Licensed under the Apache License, Version 2.0 (the "License");
   6:..\..\..\liblc3\src/bits.h ****  *  you may not use this file except in compliance with the License.
   7:..\..\..\liblc3\src/bits.h ****  *  You may obtain a copy of the License at:
   8:..\..\..\liblc3\src/bits.h ****  *
   9:..\..\..\liblc3\src/bits.h ****  *  http://www.apache.org/licenses/LICENSE-2.0
  10:..\..\..\liblc3\src/bits.h ****  *
  11:..\..\..\liblc3\src/bits.h ****  *  Unless required by applicable law or agreed to in writing, software
  12:..\..\..\liblc3\src/bits.h ****  *  distributed under the License is distributed on an "AS IS" BASIS,
  13:..\..\..\liblc3\src/bits.h ****  *  WITHOUT WARRANTIES OR CONDITIONS OF ANY KIND, either express or implied.
  14:..\..\..\liblc3\src/bits.h ****  *  See the License for the specific language governing permissions and
  15:..\..\..\liblc3\src/bits.h ****  *  limitations under the License.
  16:..\..\..\liblc3\src/bits.h ****  *
  17:..\..\..\liblc3\src/bits.h ****  ******************************************************************************/
  18:..\..\..\liblc3\src/bits.h **** 
  19:..\..\..\liblc3\src/bits.h **** /**
  20:..\..\..\liblc3\src/bits.h ****  * The bitstream is written by the 2 ends of the buffer :
  21:..\..\..\liblc3\src/bits.h ****  *
  22:..\..\..\liblc3\src/bits.h ****  * - Arthmetic coder put bits while increasing memory addresses
  23:..\..\..\liblc3\src/bits.h ****  *   in the buffer (forward)
  24:..\..\..\liblc3\src/bits.h ****  *
  25:..\..\..\liblc3\src/bits.h ****  * - Plain bits are puts starting the end of the buffer, with memeory
  26:..\..\..\liblc3\src/bits.h ****  *   addresses decreasing (backward)
  27:..\..\..\liblc3\src/bits.h ****  *
  28:..\..\..\liblc3\src/bits.h ****  *       .---------------------------------------------------.
  29:..\..\..\liblc3\src/bits.h ****  *       | > > > > > > > > > > :         : < < < < < < < < < |
  30:..\..\..\liblc3\src/bits.h ****  *       '---------------------------------------------------'
  31:..\..\..\liblc3\src/bits.h ****  *       |---------------------> - - - - - - - - - - - - - ->|
  32:..\..\..\liblc3\src/bits.h ****  *                              |< - - - <-------------------|
  33:..\..\..\liblc3\src/bits.h ****  *          Arithmetic coding                  Plain bits
  34:..\..\..\liblc3\src/bits.h ****  *          `lc3_put_symbol()`               `lc3_put_bits()`
  35:..\..\..\liblc3\src/bits.h ****  *
  36:..\..\..\liblc3\src/bits.h ****  * - The forward writing is protected against buffer overflow, it cannot
  37:..\..\..\liblc3\src/bits.h ****  *   write after the buffer, but can overwrite plain bits previously
  38:..\..\..\liblc3\src/bits.h ****  *   written in the buffer.
  39:..\..\..\liblc3\src/bits.h ****  *
  40:..\..\..\liblc3\src/bits.h ****  * - The backward writing is protected against overwrite of the arithmetic
  41:..\..\..\liblc3\src/bits.h ****  *   coder bitstream. In such way, the backward bitstream is always limited
  42:..\..\..\liblc3\src/bits.h ****  *   by the aritmetic coder bitstream, and can be overwritten by him.
ARM GAS  C:\Users\rdn\AppData\Local\Temp\ccCxUcqe.s 			page 41


  43:..\..\..\liblc3\src/bits.h ****  *
  44:..\..\..\liblc3\src/bits.h ****  *       .---------------------------------------------------.
  45:..\..\..\liblc3\src/bits.h ****  *       | > > > > > > > > > > :         : < < < < < < < < < |
  46:..\..\..\liblc3\src/bits.h ****  *       '---------------------------------------------------'
  47:..\..\..\liblc3\src/bits.h ****  *       |---------------------> - - - - - - - - - - - - - ->|
  48:..\..\..\liblc3\src/bits.h ****  *       |< - - - - - - - - - - -  - - - <-------------------|
  49:..\..\..\liblc3\src/bits.h ****  *          Arithmetic coding                  Plain bits
  50:..\..\..\liblc3\src/bits.h ****  *          `lc3_get_symbol()`               `lc3_get_bits()`
  51:..\..\..\liblc3\src/bits.h ****  *
  52:..\..\..\liblc3\src/bits.h ****  * - Reading is limited to read of the complementary end of the buffer.
  53:..\..\..\liblc3\src/bits.h ****  *
  54:..\..\..\liblc3\src/bits.h ****  * - The procedure `lc3_check_bits()` returns indication that read has been
  55:..\..\..\liblc3\src/bits.h ****  *   made crossing the other bit plane.
  56:..\..\..\liblc3\src/bits.h ****  *
  57:..\..\..\liblc3\src/bits.h ****  */
  58:..\..\..\liblc3\src/bits.h **** 
  59:..\..\..\liblc3\src/bits.h **** #ifndef __LC3_BITS_H
  60:..\..\..\liblc3\src/bits.h **** #define __LC3_BITS_H
  61:..\..\..\liblc3\src/bits.h **** 
  62:..\..\..\liblc3\src/bits.h **** #include "common.h"
  63:..\..\..\liblc3\src/bits.h **** 
  64:..\..\..\liblc3\src/bits.h **** 
  65:..\..\..\liblc3\src/bits.h **** /**
  66:..\..\..\liblc3\src/bits.h ****  * Bitstream mode
  67:..\..\..\liblc3\src/bits.h ****  */
  68:..\..\..\liblc3\src/bits.h **** 
  69:..\..\..\liblc3\src/bits.h **** enum lc3_bits_mode {
  70:..\..\..\liblc3\src/bits.h ****     LC3_BITS_MODE_READ,
  71:..\..\..\liblc3\src/bits.h ****     LC3_BITS_MODE_WRITE,
  72:..\..\..\liblc3\src/bits.h **** };
  73:..\..\..\liblc3\src/bits.h **** 
  74:..\..\..\liblc3\src/bits.h **** /**
  75:..\..\..\liblc3\src/bits.h ****  * Arithmetic coder symbol interval
  76:..\..\..\liblc3\src/bits.h ****  * The model split the interval in 17 symbols
  77:..\..\..\liblc3\src/bits.h ****  */
  78:..\..\..\liblc3\src/bits.h **** 
  79:..\..\..\liblc3\src/bits.h **** struct lc3_ac_symbol {
  80:..\..\..\liblc3\src/bits.h ****     uint16_t low   : 16;
  81:..\..\..\liblc3\src/bits.h ****     uint16_t range : 16;
  82:..\..\..\liblc3\src/bits.h **** };
  83:..\..\..\liblc3\src/bits.h **** 
  84:..\..\..\liblc3\src/bits.h **** struct lc3_ac_model {
  85:..\..\..\liblc3\src/bits.h ****     struct lc3_ac_symbol s[17];
  86:..\..\..\liblc3\src/bits.h **** };
  87:..\..\..\liblc3\src/bits.h **** 
  88:..\..\..\liblc3\src/bits.h **** /**
  89:..\..\..\liblc3\src/bits.h ****  * Bitstream context
  90:..\..\..\liblc3\src/bits.h ****  */
  91:..\..\..\liblc3\src/bits.h **** 
  92:..\..\..\liblc3\src/bits.h **** #define LC3_ACCU_BITS (int)(8 * sizeof(unsigned))
  93:..\..\..\liblc3\src/bits.h **** 
  94:..\..\..\liblc3\src/bits.h **** struct lc3_bits_accu {
  95:..\..\..\liblc3\src/bits.h ****     unsigned v;
  96:..\..\..\liblc3\src/bits.h ****     int n, nover;
  97:..\..\..\liblc3\src/bits.h **** };
  98:..\..\..\liblc3\src/bits.h **** 
  99:..\..\..\liblc3\src/bits.h **** #define LC3_AC_BITS (int)(24)
ARM GAS  C:\Users\rdn\AppData\Local\Temp\ccCxUcqe.s 			page 42


 100:..\..\..\liblc3\src/bits.h **** 
 101:..\..\..\liblc3\src/bits.h **** struct lc3_bits_ac {
 102:..\..\..\liblc3\src/bits.h ****     unsigned low, range;
 103:..\..\..\liblc3\src/bits.h ****     int cache, carry, carry_count;
 104:..\..\..\liblc3\src/bits.h ****     bool error;
 105:..\..\..\liblc3\src/bits.h **** };
 106:..\..\..\liblc3\src/bits.h **** 
 107:..\..\..\liblc3\src/bits.h **** struct lc3_bits_buffer {
 108:..\..\..\liblc3\src/bits.h ****     const uint8_t *start, *end;
 109:..\..\..\liblc3\src/bits.h ****     uint8_t *p_fw, *p_bw;
 110:..\..\..\liblc3\src/bits.h **** };
 111:..\..\..\liblc3\src/bits.h **** 
 112:..\..\..\liblc3\src/bits.h **** typedef struct lc3_bits {
 113:..\..\..\liblc3\src/bits.h ****     enum lc3_bits_mode mode;
 114:..\..\..\liblc3\src/bits.h ****     struct lc3_bits_ac ac;
 115:..\..\..\liblc3\src/bits.h ****     struct lc3_bits_accu accu;
 116:..\..\..\liblc3\src/bits.h ****     struct lc3_bits_buffer buffer;
 117:..\..\..\liblc3\src/bits.h **** } lc3_bits_t;
 118:..\..\..\liblc3\src/bits.h **** 
 119:..\..\..\liblc3\src/bits.h **** 
 120:..\..\..\liblc3\src/bits.h **** /**
 121:..\..\..\liblc3\src/bits.h ****  * Setup bitstream reading/writing
 122:..\..\..\liblc3\src/bits.h ****  * bits            Bitstream context
 123:..\..\..\liblc3\src/bits.h ****  * mode            Either READ or WRITE mode
 124:..\..\..\liblc3\src/bits.h ****  * buffer, len     Output buffer and length (in bytes)
 125:..\..\..\liblc3\src/bits.h ****  */
 126:..\..\..\liblc3\src/bits.h **** void lc3_setup_bits(lc3_bits_t *bits,
 127:..\..\..\liblc3\src/bits.h ****     enum lc3_bits_mode mode, void *buffer, int len);
 128:..\..\..\liblc3\src/bits.h **** 
 129:..\..\..\liblc3\src/bits.h **** /**
 130:..\..\..\liblc3\src/bits.h ****  * Return number of bits left in the bitstream
 131:..\..\..\liblc3\src/bits.h ****  * bits            Bitstream context
 132:..\..\..\liblc3\src/bits.h ****  * return          Number of bits left
 133:..\..\..\liblc3\src/bits.h ****  */
 134:..\..\..\liblc3\src/bits.h **** int lc3_get_bits_left(const lc3_bits_t *bits);
 135:..\..\..\liblc3\src/bits.h **** 
 136:..\..\..\liblc3\src/bits.h **** /**
 137:..\..\..\liblc3\src/bits.h ****  * Check if error occured on bitstream reading/writing
 138:..\..\..\liblc3\src/bits.h ****  * bits            Bitstream context
 139:..\..\..\liblc3\src/bits.h ****  * return          0: Ok  -1: Bitstream overflow or AC reading error
 140:..\..\..\liblc3\src/bits.h ****  */
 141:..\..\..\liblc3\src/bits.h **** int lc3_check_bits(const lc3_bits_t *bits);
 142:..\..\..\liblc3\src/bits.h **** 
 143:..\..\..\liblc3\src/bits.h **** /**
 144:..\..\..\liblc3\src/bits.h ****  * Put a bit
 145:..\..\..\liblc3\src/bits.h ****  * bits            Bitstream context
 146:..\..\..\liblc3\src/bits.h ****  * v               Bit value, 0 or 1
 147:..\..\..\liblc3\src/bits.h ****  */
 148:..\..\..\liblc3\src/bits.h **** static inline void lc3_put_bit(lc3_bits_t *bits, int v);
 149:..\..\..\liblc3\src/bits.h **** 
 150:..\..\..\liblc3\src/bits.h **** /**
 151:..\..\..\liblc3\src/bits.h ****  * Put from 1 to 32 bits
 152:..\..\..\liblc3\src/bits.h ****  * bits            Bitstream context
 153:..\..\..\liblc3\src/bits.h ****  * v, n            Value, in range 0 to 2^n - 1, and bits count (1 to 32)
 154:..\..\..\liblc3\src/bits.h ****  */
 155:..\..\..\liblc3\src/bits.h **** static inline void lc3_put_bits(lc3_bits_t *bits, unsigned v, int n);
 156:..\..\..\liblc3\src/bits.h **** 
ARM GAS  C:\Users\rdn\AppData\Local\Temp\ccCxUcqe.s 			page 43


 157:..\..\..\liblc3\src/bits.h **** /**
 158:..\..\..\liblc3\src/bits.h ****  * Put arithmetic coder symbol
 159:..\..\..\liblc3\src/bits.h ****  * bits            Bitstream context
 160:..\..\..\liblc3\src/bits.h ****  * model, s        Model distribution and symbol value
 161:..\..\..\liblc3\src/bits.h ****  */
 162:..\..\..\liblc3\src/bits.h **** static inline void lc3_put_symbol(lc3_bits_t *bits,
 163:..\..\..\liblc3\src/bits.h ****     const struct lc3_ac_model *model, unsigned s);
 164:..\..\..\liblc3\src/bits.h **** 
 165:..\..\..\liblc3\src/bits.h **** /**
 166:..\..\..\liblc3\src/bits.h ****  * Flush and terminate bitstream writing
 167:..\..\..\liblc3\src/bits.h ****  * bits            Bitstream context
 168:..\..\..\liblc3\src/bits.h ****  */
 169:..\..\..\liblc3\src/bits.h **** void lc3_flush_bits(lc3_bits_t *bits);
 170:..\..\..\liblc3\src/bits.h **** 
 171:..\..\..\liblc3\src/bits.h **** /**
 172:..\..\..\liblc3\src/bits.h ****  * Get a bit
 173:..\..\..\liblc3\src/bits.h ****  * bits            Bitstream context
 174:..\..\..\liblc3\src/bits.h ****  */
 175:..\..\..\liblc3\src/bits.h **** static inline int lc3_get_bit(lc3_bits_t *bits);
 176:..\..\..\liblc3\src/bits.h **** 
 177:..\..\..\liblc3\src/bits.h **** /**
 178:..\..\..\liblc3\src/bits.h ****  * Get from 1 to 32 bits
 179:..\..\..\liblc3\src/bits.h ****  * bits            Bitstream context
 180:..\..\..\liblc3\src/bits.h ****  * n               Number of bits to read (1 to 32)
 181:..\..\..\liblc3\src/bits.h ****  * return          The value read
 182:..\..\..\liblc3\src/bits.h ****  */
 183:..\..\..\liblc3\src/bits.h **** static inline unsigned lc3_get_bits(lc3_bits_t *bits,  int n);
 184:..\..\..\liblc3\src/bits.h **** 
 185:..\..\..\liblc3\src/bits.h **** /**
 186:..\..\..\liblc3\src/bits.h ****  * Get arithmetic coder symbol
 187:..\..\..\liblc3\src/bits.h ****  * bits            Bitstream context
 188:..\..\..\liblc3\src/bits.h ****  * model           Model distribution
 189:..\..\..\liblc3\src/bits.h ****  * return          The value read
 190:..\..\..\liblc3\src/bits.h ****  */
 191:..\..\..\liblc3\src/bits.h **** static inline unsigned lc3_get_symbol(lc3_bits_t *bits,
 192:..\..\..\liblc3\src/bits.h ****     const struct lc3_ac_model *model);
 193:..\..\..\liblc3\src/bits.h **** 
 194:..\..\..\liblc3\src/bits.h **** 
 195:..\..\..\liblc3\src/bits.h **** 
 196:..\..\..\liblc3\src/bits.h **** /* ----------------------------------------------------------------------------
 197:..\..\..\liblc3\src/bits.h ****  *  Inline implementations
 198:..\..\..\liblc3\src/bits.h ****  * -------------------------------------------------------------------------- */
 199:..\..\..\liblc3\src/bits.h **** 
 200:..\..\..\liblc3\src/bits.h **** void lc3_put_bits_generic(lc3_bits_t *bits, unsigned v, int n);
 201:..\..\..\liblc3\src/bits.h **** unsigned lc3_get_bits_generic(struct lc3_bits *bits, int n);
 202:..\..\..\liblc3\src/bits.h **** 
 203:..\..\..\liblc3\src/bits.h **** void lc3_ac_read_renorm(lc3_bits_t *bits);
 204:..\..\..\liblc3\src/bits.h **** void lc3_ac_write_renorm(lc3_bits_t *bits);
 205:..\..\..\liblc3\src/bits.h **** 
 206:..\..\..\liblc3\src/bits.h **** 
 207:..\..\..\liblc3\src/bits.h **** /**
 208:..\..\..\liblc3\src/bits.h ****  * Put a bit
 209:..\..\..\liblc3\src/bits.h ****  */
 210:..\..\..\liblc3\src/bits.h **** LC3_HOT static inline void lc3_put_bit(lc3_bits_t *bits, int v)
 211:..\..\..\liblc3\src/bits.h **** {
 212:..\..\..\liblc3\src/bits.h ****     lc3_put_bits(bits, v, 1);
 213:..\..\..\liblc3\src/bits.h **** }
ARM GAS  C:\Users\rdn\AppData\Local\Temp\ccCxUcqe.s 			page 44


 214:..\..\..\liblc3\src/bits.h **** 
 215:..\..\..\liblc3\src/bits.h **** /**
 216:..\..\..\liblc3\src/bits.h ****  * Put from 1 to 32 bits
 217:..\..\..\liblc3\src/bits.h ****  */
 218:..\..\..\liblc3\src/bits.h **** LC3_HOT static inline void lc3_put_bits(
 219:..\..\..\liblc3\src/bits.h ****     struct lc3_bits *bits, unsigned v, int n)
 220:..\..\..\liblc3\src/bits.h **** {
 221:..\..\..\liblc3\src/bits.h ****     struct lc3_bits_accu *accu = &bits->accu;
 222:..\..\..\liblc3\src/bits.h **** 
 223:..\..\..\liblc3\src/bits.h ****     if (accu->n + n <= LC3_ACCU_BITS) {
 1382              		.loc 4 223 0
 1383 0050 0C9A     		ldr	r2, [sp, #48]
 1384 0052 531C     		adds	r3, r2, #1
 1385 0054 202B     		cmp	r3, #32
 1386 0056 05DC     		bgt	.L113
 224:..\..\..\liblc3\src/bits.h ****         accu->v |= v << accu->n;
 1387              		.loc 4 224 0
 1388 0058 9140     		lsls	r1, r1, r2
 1389              	.LVL212:
 1390 005a 0B9A     		ldr	r2, [sp, #44]
 1391 005c 1143     		orrs	r1, r1, r2
 1392 005e 0B91     		str	r1, [sp, #44]
 1393              	.LVL213:
 225:..\..\..\liblc3\src/bits.h ****         accu->n += n;
 1394              		.loc 4 225 0
 1395 0060 0C93     		str	r3, [sp, #48]
 1396 0062 03E0     		b	.L114
 1397              	.LVL214:
 1398              	.L113:
 226:..\..\..\liblc3\src/bits.h ****     } else {
 227:..\..\..\liblc3\src/bits.h ****         lc3_put_bits_generic(bits, v, n);
 1399              		.loc 4 227 0
 1400 0064 0122     		movs	r2, #1
 1401 0066 04A8     		add	r0, sp, #16
 1402              	.LVL215:
 1403 0068 FFF7FEFF 		bl	lc3_put_bits_generic
 1404              	.LVL216:
 1405              	.L114:
 1406              	.LBE162:
 1407              	.LBE161:
 1408              	.LBE160:
 1409              	.LBE159:
 358:..\..\..\liblc3\src/lc3.c **** 
 1410              		.loc 1 358 0
 1411 006c 04F10C01 		add	r1, r4, #12
 1412 0070 04A8     		add	r0, sp, #16
 1413 0072 FFF7FEFF 		bl	lc3_sns_put_data
 1414              	.LVL217:
 360:..\..\..\liblc3\src/lc3.c ****         lc3_ltpf_put_data(&bits, &side->ltpf);
 1415              		.loc 1 360 0
 1416 0076 6378     		ldrb	r3, [r4, #1]	@ zero_extendqisi2
 1417 0078 1BB1     		cbz	r3, .L115
 361:..\..\..\liblc3\src/lc3.c **** 
 1418              		.loc 1 361 0
 1419 007a 211D     		adds	r1, r4, #4
 1420 007c 04A8     		add	r0, sp, #16
 1421 007e FFF7FEFF 		bl	lc3_ltpf_put_data
ARM GAS  C:\Users\rdn\AppData\Local\Temp\ccCxUcqe.s 			page 45


 1422              	.LVL218:
 1423              	.L115:
 363:..\..\..\liblc3\src/lc3.c **** 
 1424              		.loc 1 363 0
 1425 0082 0297     		str	r7, [sp, #8]
 1426 0084 0195     		str	r5, [sp, #4]
 1427 0086 CDF80090 		str	r9, [sp]
 1428 008a 5346     		mov	r3, r10
 1429 008c 3246     		mov	r2, r6
 1430 008e 4146     		mov	r1, r8
 1431 0090 04A8     		add	r0, sp, #16
 1432 0092 FFF7FEFF 		bl	lc3_spec_encode
 1433              	.LVL219:
 365:..\..\..\liblc3\src/lc3.c **** }
 1434              		.loc 1 365 0
 1435 0096 04A8     		add	r0, sp, #16
 1436 0098 FFF7FEFF 		bl	lc3_flush_bits
 1437              	.LVL220:
 366:..\..\..\liblc3\src/lc3.c **** 
 1438              		.loc 1 366 0
 1439 009c 12B0     		add	sp, sp, #72
 1440              		.cfi_def_cfa_offset 32
 1441              		@ sp needed
 1442 009e BDE8F087 		pop	{r4, r5, r6, r7, r8, r9, r10, pc}
 1443              		.cfi_endproc
 1444              	.LFE37:
 1445              		.size	encode, .-encode
 1446 00a2 00BF     		.section	.text.decode,"ax",%progbits
 1447              		.align	2
 1448              		.thumb
 1449              		.thumb_func
 1450              		.type	decode, %function
 1451              	decode:
 1452              	.LFB47:
 567:..\..\..\liblc3\src/lc3.c ****     enum lc3_dt dt = decoder->dt;
 1453              		.loc 1 567 0
 1454              		.cfi_startproc
 1455              		@ args = 0, pretend = 0, frame = 56
 1456              		@ frame_needed = 0, uses_anonymous_args = 0
 1457              	.LVL221:
 1458 0000 2DE9F04F 		push	{r4, r5, r6, r7, r8, r9, r10, fp, lr}
 1459              		.cfi_def_cfa_offset 36
 1460              		.cfi_offset 4, -36
 1461              		.cfi_offset 5, -32
 1462              		.cfi_offset 6, -28
 1463              		.cfi_offset 7, -24
 1464              		.cfi_offset 8, -20
 1465              		.cfi_offset 9, -16
 1466              		.cfi_offset 10, -12
 1467              		.cfi_offset 11, -8
 1468              		.cfi_offset 14, -4
 1469 0004 93B0     		sub	sp, sp, #76
 1470              		.cfi_def_cfa_offset 112
 1471 0006 9246     		mov	r10, r2
 1472 0008 1E46     		mov	r6, r3
 568:..\..\..\liblc3\src/lc3.c ****     enum lc3_srate sr = decoder->sr;
 1473              		.loc 1 568 0
ARM GAS  C:\Users\rdn\AppData\Local\Temp\ccCxUcqe.s 			page 46


 1474 000a 90F80090 		ldrb	r9, [r0]	@ zero_extendqisi2
 1475              	.LVL222:
 569:..\..\..\liblc3\src/lc3.c **** 
 1476              		.loc 1 569 0
 1477 000e 4478     		ldrb	r4, [r0, #1]	@ zero_extendqisi2
 1478              	.LVL223:
 571:..\..\..\liblc3\src/lc3.c ****     int ns = lc3_ns(dt, sr);
 1479              		.loc 1 571 0
 1480 0010 00F1B803 		add	r3, r0, #184
 1481              	.LVL224:
 1482 0014 D0F8AC20 		ldr	r2, [r0, #172]
 1483              	.LVL225:
 1484 0018 03EB8208 		add	r8, r3, r2, lsl #2
 1485              	.LVL226:
 1486              	.LBB172:
 1487              	.LBB173:
  47:..\..\..\liblc3\src/tables.h **** }
 1488              		.loc 2 47 0
 1489 001c 344B     		ldr	r3, .L128
 1490 001e 53F82470 		ldr	r7, [r3, r4, lsl #2]
 1491 0022 09F10103 		add	r3, r9, #1
 1492 0026 03FB07F7 		mul	r7, r3, r7
 1493              	.LVL227:
 1494              	.LBE173:
 1495              	.LBE172:
 1496              	.LBB174:
 1497              	.LBB175:
  51:..\..\..\liblc3\src/tables.h **** }
 1498              		.loc 2 51 0
 1499 002a 324A     		ldr	r2, .L128+4
 1500 002c 52F82450 		ldr	r5, [r2, r4, lsl #2]
 1501 0030 03FB05F5 		mul	r5, r3, r5
 1502              	.LVL228:
 1503              	.LBE175:
 1504              	.LBE174:
 578:..\..\..\liblc3\src/lc3.c **** 
 1505              		.loc 1 578 0
 1506 0034 5346     		mov	r3, r10
 1507 0036 0A46     		mov	r2, r1
 1508 0038 0021     		movs	r1, #0
 1509              	.LVL229:
 1510 003a 04A8     		add	r0, sp, #16
 1511              	.LVL230:
 1512 003c FFF7FEFF 		bl	lc3_setup_bits
 1513              	.LVL231:
 580:..\..\..\liblc3\src/lc3.c ****         return ret;
 1514              		.loc 1 580 0
 1515 0040 3246     		mov	r2, r6
 1516 0042 2146     		mov	r1, r4
 1517 0044 04A8     		add	r0, sp, #16
 1518 0046 FFF7FEFF 		bl	lc3_bwdet_get_bw
 1519              	.LVL232:
 1520 004a 0028     		cmp	r0, #0
 1521 004c 4CDB     		blt	.L118
 583:..\..\..\liblc3\src/lc3.c ****         return ret;
 1522              		.loc 1 583 0
 1523 004e 06F1780B 		add	fp, r6, #120
ARM GAS  C:\Users\rdn\AppData\Local\Temp\ccCxUcqe.s 			page 47


 1524 0052 5B46     		mov	r3, fp
 1525 0054 2246     		mov	r2, r4
 1526 0056 4946     		mov	r1, r9
 1527 0058 04A8     		add	r0, sp, #16
 1528              	.LVL233:
 1529 005a FFF7FEFF 		bl	lc3_spec_get_side
 1530              	.LVL234:
 1531 005e 0028     		cmp	r0, #0
 1532 0060 42DB     		blt	.L118
 586:..\..\..\liblc3\src/lc3.c ****         return ret;
 1533              		.loc 1 586 0
 1534 0062 3346     		mov	r3, r6
 1535 0064 13F8282B 		ldrb	r2, [r3], #40	@ zero_extendqisi2
 1536 0068 0093     		str	r3, [sp]
 1537 006a 5346     		mov	r3, r10
 1538 006c 4946     		mov	r1, r9
 1539 006e 04A8     		add	r0, sp, #16
 1540              	.LVL235:
 1541 0070 FFF7FEFF 		bl	lc3_tns_get_data
 1542              	.LVL236:
 1543 0074 0028     		cmp	r0, #0
 1544 0076 37DB     		blt	.L118
 1545              	.LVL237:
 1546              	.LBB176:
 1547              	.LBB177:
 1548              	.LBB178:
 1549              	.LBB179:
 228:..\..\..\liblc3\src/bits.h ****     }
 229:..\..\..\liblc3\src/bits.h **** }
 230:..\..\..\liblc3\src/bits.h **** 
 231:..\..\..\liblc3\src/bits.h **** /**
 232:..\..\..\liblc3\src/bits.h ****  * Get a bit
 233:..\..\..\liblc3\src/bits.h ****  */
 234:..\..\..\liblc3\src/bits.h **** LC3_HOT static inline int lc3_get_bit(lc3_bits_t *bits)
 235:..\..\..\liblc3\src/bits.h **** {
 236:..\..\..\liblc3\src/bits.h ****     return lc3_get_bits(bits, 1);
 237:..\..\..\liblc3\src/bits.h **** }
 238:..\..\..\liblc3\src/bits.h **** 
 239:..\..\..\liblc3\src/bits.h **** /**
 240:..\..\..\liblc3\src/bits.h ****  * Get from 1 to 32 bits
 241:..\..\..\liblc3\src/bits.h ****  */
 242:..\..\..\liblc3\src/bits.h **** LC3_HOT static inline unsigned lc3_get_bits(struct lc3_bits *bits, int n)
 243:..\..\..\liblc3\src/bits.h **** {
 244:..\..\..\liblc3\src/bits.h ****     struct lc3_bits_accu *accu = &bits->accu;
 245:..\..\..\liblc3\src/bits.h **** 
 246:..\..\..\liblc3\src/bits.h ****     if (accu->n + n <= LC3_ACCU_BITS) {
 1550              		.loc 4 246 0
 1551 0078 0C98     		ldr	r0, [sp, #48]
 1552              	.LVL238:
 1553 007a 421C     		adds	r2, r0, #1
 1554 007c 202A     		cmp	r2, #32
 1555 007e 06DC     		bgt	.L119
 1556              	.LBB180:
 247:..\..\..\liblc3\src/bits.h ****         int v = (accu->v >> accu->n) & ((1u << n) - 1);
 1557              		.loc 4 247 0
 1558 0080 0B9B     		ldr	r3, [sp, #44]
 1559 0082 23FA00F0 		lsr	r0, r3, r0
ARM GAS  C:\Users\rdn\AppData\Local\Temp\ccCxUcqe.s 			page 48


 1560 0086 00F00100 		and	r0, r0, #1
 1561              	.LVL239:
 248:..\..\..\liblc3\src/bits.h ****         return (accu->n += n), v;
 1562              		.loc 4 248 0
 1563 008a 0C92     		str	r2, [sp, #48]
 1564 008c 03E0     		b	.L120
 1565              	.LVL240:
 1566              	.L119:
 1567              	.LBE180:
 249:..\..\..\liblc3\src/bits.h ****     }
 250:..\..\..\liblc3\src/bits.h ****     else {
 251:..\..\..\liblc3\src/bits.h ****         return lc3_get_bits_generic(bits, n);
 1568              		.loc 4 251 0
 1569 008e 0121     		movs	r1, #1
 1570 0090 04A8     		add	r0, sp, #16
 1571              	.LVL241:
 1572 0092 FFF7FEFF 		bl	lc3_get_bits_generic
 1573              	.LVL242:
 1574              	.L120:
 1575              	.LBE179:
 1576              	.LBE178:
 1577              	.LBE177:
 1578              	.LBE176:
 589:..\..\..\liblc3\src/lc3.c **** 
 1579              		.loc 1 589 0
 1580 0096 0030     		adds	r0, r0, #0
 1581 0098 18BF     		it	ne
 1582 009a 0120     		movne	r0, #1
 1583 009c 7070     		strb	r0, [r6, #1]
 591:..\..\..\liblc3\src/lc3.c ****         return ret;
 1584              		.loc 1 591 0
 1585 009e 06F10C01 		add	r1, r6, #12
 1586 00a2 04A8     		add	r0, sp, #16
 1587 00a4 FFF7FEFF 		bl	lc3_sns_get_data
 1588              	.LVL243:
 1589 00a8 0028     		cmp	r0, #0
 1590 00aa 1DDB     		blt	.L118
 594:..\..\..\liblc3\src/lc3.c ****       lc3_ltpf_get_data(&bits, &side->ltpf);
 1591              		.loc 1 594 0
 1592 00ac 7378     		ldrb	r3, [r6, #1]	@ zero_extendqisi2
 1593 00ae 1BB1     		cbz	r3, .L121
 595:..\..\..\liblc3\src/lc3.c **** 
 1594              		.loc 1 595 0
 1595 00b0 311D     		adds	r1, r6, #4
 1596 00b2 04A8     		add	r0, sp, #16
 1597              	.LVL244:
 1598 00b4 FFF7FEFF 		bl	lc3_ltpf_get_data
 1599              	.LVL245:
 1600              	.L121:
 597:..\..\..\liblc3\src/lc3.c ****                     side->bw, nbytes, &side->spec, xf)) < 0)
 1601              		.loc 1 597 0
 1602 00b8 3378     		ldrb	r3, [r6]	@ zero_extendqisi2
 1603 00ba CDF80880 		str	r8, [sp, #8]
 1604 00be CDF804B0 		str	fp, [sp, #4]
 1605 00c2 CDF800A0 		str	r10, [sp]
 1606 00c6 2246     		mov	r2, r4
 1607 00c8 4946     		mov	r1, r9
ARM GAS  C:\Users\rdn\AppData\Local\Temp\ccCxUcqe.s 			page 49


 1608 00ca 04A8     		add	r0, sp, #16
 1609 00cc FFF7FEFF 		bl	lc3_spec_decode
 1610              	.LVL246:
 1611 00d0 0028     		cmp	r0, #0
 1612 00d2 09DB     		blt	.L118
 601:..\..\..\liblc3\src/lc3.c **** 
 1613              		.loc 1 601 0
 1614 00d4 7A1B     		subs	r2, r7, r5
 1615 00d6 9200     		lsls	r2, r2, #2
 1616 00d8 0021     		movs	r1, #0
 1617 00da 08EB8500 		add	r0, r8, r5, lsl #2
 1618              	.LVL247:
 1619 00de FFF7FEFF 		bl	memset
 1620              	.LVL248:
 603:..\..\..\liblc3\src/lc3.c **** }
 1621              		.loc 1 603 0
 1622 00e2 04A8     		add	r0, sp, #16
 1623 00e4 FFF7FEFF 		bl	lc3_check_bits
 1624              	.LVL249:
 1625              	.L118:
 604:..\..\..\liblc3\src/lc3.c **** 
 1626              		.loc 1 604 0
 1627 00e8 13B0     		add	sp, sp, #76
 1628              		.cfi_def_cfa_offset 36
 1629              		@ sp needed
 1630 00ea BDE8F08F 		pop	{r4, r5, r6, r7, r8, r9, r10, fp, pc}
 1631              	.LVL250:
 1632              	.L129:
 1633 00ee 00BF     		.align	2
 1634              	.L128:
 1635 00f0 00000000 		.word	lc3_ns_2m5
 1636 00f4 00000000 		.word	lc3_ne_2m5
 1637              		.cfi_endproc
 1638              	.LFE47:
 1639              		.size	decode, .-decode
 1640              		.section	.text.synthesize,"ax",%progbits
 1641              		.align	2
 1642              		.thumb
 1643              		.thumb_func
 1644              		.type	synthesize, %function
 1645              	synthesize:
 1646              	.LFB48:
 614:..\..\..\liblc3\src/lc3.c ****     enum lc3_dt dt = decoder->dt;
 1647              		.loc 1 614 0
 1648              		.cfi_startproc
 1649              		@ args = 0, pretend = 0, frame = 16
 1650              		@ frame_needed = 0, uses_anonymous_args = 0
 1651              	.LVL251:
 1652 0000 2DE9F04F 		push	{r4, r5, r6, r7, r8, r9, r10, fp, lr}
 1653              		.cfi_def_cfa_offset 36
 1654              		.cfi_offset 4, -36
 1655              		.cfi_offset 5, -32
 1656              		.cfi_offset 6, -28
 1657              		.cfi_offset 7, -24
 1658              		.cfi_offset 8, -20
 1659              		.cfi_offset 9, -16
 1660              		.cfi_offset 10, -12
ARM GAS  C:\Users\rdn\AppData\Local\Temp\ccCxUcqe.s 			page 50


 1661              		.cfi_offset 11, -8
 1662              		.cfi_offset 14, -4
 1663 0004 89B0     		sub	sp, sp, #36
 1664              		.cfi_def_cfa_offset 72
 1665 0006 0446     		mov	r4, r0
 1666 0008 0792     		str	r2, [sp, #28]
 615:..\..\..\liblc3\src/lc3.c ****     enum lc3_srate sr = decoder->sr;
 1667              		.loc 1 615 0
 1668 000a 0678     		ldrb	r6, [r0]	@ zero_extendqisi2
 1669              	.LVL252:
 616:..\..\..\liblc3\src/lc3.c ****     enum lc3_srate sr_pcm = decoder->sr_pcm;
 1670              		.loc 1 616 0
 1671 000c 4778     		ldrb	r7, [r0, #1]	@ zero_extendqisi2
 1672              	.LVL253:
 617:..\..\..\liblc3\src/lc3.c **** 
 1673              		.loc 1 617 0
 1674 000e 90F80290 		ldrb	r9, [r0, #2]	@ zero_extendqisi2
 1675              	.LVL254:
 619:..\..\..\liblc3\src/lc3.c ****     int ns = lc3_ns(dt, sr_pcm);
 1676              		.loc 1 619 0
 1677 0012 00F1B803 		add	r3, r0, #184
 1678 0016 D0F8AC50 		ldr	r5, [r0, #172]
 1679 001a 03EB8505 		add	r5, r3, r5, lsl #2
 1680              	.LVL255:
 1681              	.LBB181:
 1682              	.LBB182:
  47:..\..\..\liblc3\src/tables.h **** }
 1683              		.loc 2 47 0
 1684 001e 384A     		ldr	r2, .L138
 1685              	.LVL256:
 1686 0020 52F82920 		ldr	r2, [r2, r9, lsl #2]
 1687 0024 701C     		adds	r0, r6, #1
 1688              	.LVL257:
 1689 0026 00FB02FB 		mul	fp, r0, r2
 1690              	.LVL258:
 1691              	.LBE182:
 1692              	.LBE181:
 1693              	.LBB183:
 1694              	.LBB184:
  51:..\..\..\liblc3\src/tables.h **** }
 1695              		.loc 2 51 0
 1696 002a 364A     		ldr	r2, .L138+4
 1697 002c 52F82720 		ldr	r2, [r2, r7, lsl #2]
 1698 0030 00FB02FA 		mul	r10, r0, r2
 1699              	.LVL259:
 1700              	.LBE184:
 1701              	.LBE183:
 623:..\..\..\liblc3\src/lc3.c ****     float *xs = xf;
 1702              		.loc 1 623 0
 1703 0034 D4F8B420 		ldr	r2, [r4, #180]
 1704 0038 03EB8202 		add	r2, r3, r2, lsl #2
 1705 003c 0492     		str	r2, [sp, #16]
 1706              	.LVL260:
 626:..\..\..\liblc3\src/lc3.c ****     float *xh = decoder->x + decoder->xh_off;
 1707              		.loc 1 626 0
 1708 003e D4F8B020 		ldr	r2, [r4, #176]
 1709              	.LVL261:
ARM GAS  C:\Users\rdn\AppData\Local\Temp\ccCxUcqe.s 			page 51


 1710 0042 03EB8200 		add	r0, r3, r2, lsl #2
 1711 0046 0590     		str	r0, [sp, #20]
 1712              	.LVL262:
 627:..\..\..\liblc3\src/lc3.c **** 
 1713              		.loc 1 627 0
 1714 0048 D4F8A820 		ldr	r2, [r4, #168]
 1715 004c 03EB8203 		add	r3, r3, r2, lsl #2
 1716 0050 0693     		str	r3, [sp, #24]
 1717              	.LVL263:
 629:..\..\..\liblc3\src/lc3.c ****         enum lc3_bandwidth bw = side->bw;
 1718              		.loc 1 629 0
 1719 0052 8846     		mov	r8, r1
 1720 0054 F9B1     		cbz	r1, .L131
 1721              	.LBB185:
 630:..\..\..\liblc3\src/lc3.c **** 
 1722              		.loc 1 630 0
 1723 0056 8A46     		mov	r10, r1
 1724 0058 1AF828BB 		ldrb	fp, [r10], #40	@ zero_extendqisi2
 1725              	.LVL264:
 632:..\..\..\liblc3\src/lc3.c **** 
 1726              		.loc 1 632 0
 1727 005c 04F19C00 		add	r0, r4, #156
 1728              	.LVL265:
 1729 0060 FFF7FEFF 		bl	lc3_plc_suspend
 1730              	.LVL266:
 634:..\..\..\liblc3\src/lc3.c **** 
 1731              		.loc 1 634 0
 1732 0064 2B46     		mov	r3, r5
 1733 0066 5246     		mov	r2, r10
 1734 0068 5946     		mov	r1, fp
 1735 006a 3046     		mov	r0, r6
 1736 006c FFF7FEFF 		bl	lc3_tns_synthesize
 1737              	.LVL267:
 636:..\..\..\liblc3\src/lc3.c **** 
 1738              		.loc 1 636 0
 1739 0070 049A     		ldr	r2, [sp, #16]
 1740 0072 0092     		str	r2, [sp]
 1741 0074 2B46     		mov	r3, r5
 1742 0076 08F10C02 		add	r2, r8, #12
 1743 007a 3946     		mov	r1, r7
 1744 007c 3046     		mov	r0, r6
 1745 007e FFF7FEFF 		bl	lc3_sns_synthesize
 1746              	.LVL268:
 638:..\..\..\liblc3\src/lc3.c **** 
 1747              		.loc 1 638 0
 1748 0082 0195     		str	r5, [sp, #4]
 1749 0084 0598     		ldr	r0, [sp, #20]
 1750 0086 0090     		str	r0, [sp]
 1751 0088 049B     		ldr	r3, [sp, #16]
 1752 008a 3A46     		mov	r2, r7
 1753 008c 4946     		mov	r1, r9
 1754 008e 3046     		mov	r0, r6
 1755 0090 FFF7FEFF 		bl	lc3_mdct_inverse
 1756              	.LVL269:
 1757              	.LBE185:
 1758 0094 18E0     		b	.L132
 1759              	.LVL270:
ARM GAS  C:\Users\rdn\AppData\Local\Temp\ccCxUcqe.s 			page 52


 1760              	.L131:
 641:..\..\..\liblc3\src/lc3.c **** 
 1761              		.loc 1 641 0
 1762 0096 0095     		str	r5, [sp]
 1763 0098 049B     		ldr	r3, [sp, #16]
 1764              	.LVL271:
 1765 009a 04F19C02 		add	r2, r4, #156
 1766 009e 3946     		mov	r1, r7
 1767              	.LVL272:
 1768 00a0 3046     		mov	r0, r6
 1769              	.LVL273:
 1770 00a2 FFF7FEFF 		bl	lc3_plc_synthesize
 1771              	.LVL274:
 643:..\..\..\liblc3\src/lc3.c **** 
 1772              		.loc 1 643 0
 1773 00a6 CAEB0B02 		rsb	r2, r10, fp
 1774 00aa 9200     		lsls	r2, r2, #2
 1775 00ac 0021     		movs	r1, #0
 1776 00ae 05EB8A00 		add	r0, r5, r10, lsl #2
 1777 00b2 FFF7FEFF 		bl	memset
 1778              	.LVL275:
 645:..\..\..\liblc3\src/lc3.c ****     }
 1779              		.loc 1 645 0
 1780 00b6 0195     		str	r5, [sp, #4]
 1781 00b8 059B     		ldr	r3, [sp, #20]
 1782 00ba 0093     		str	r3, [sp]
 1783 00bc 2B46     		mov	r3, r5
 1784 00be 3A46     		mov	r2, r7
 1785 00c0 4946     		mov	r1, r9
 1786 00c2 3046     		mov	r0, r6
 1787 00c4 FFF7FEFF 		bl	lc3_mdct_inverse
 1788              	.LVL276:
 1789              	.L132:
 648:..\..\..\liblc3\src/lc3.c ****         lc3_ltpf_synthesize(dt, sr_pcm, nbytes, &decoder->ltpf,
 1790              		.loc 1 648 0
 1791 00c8 042F     		cmp	r7, #4
 1792 00ca 15D8     		bhi	.L130
 649:..\..\..\liblc3\src/lc3.c ****             side && side->pitch_present ? &side->ltpf : NULL, xh, xs);
 1793              		.loc 1 649 0
 1794 00cc 231D     		adds	r3, r4, #4
 1795 00ce B8F1000F 		cmp	r8, #0
 1796 00d2 05D0     		beq	.L135
 650:..\..\..\liblc3\src/lc3.c **** }
 1797              		.loc 1 650 0
 1798 00d4 98F80120 		ldrb	r2, [r8, #1]	@ zero_extendqisi2
 1799 00d8 22B1     		cbz	r2, .L136
 649:..\..\..\liblc3\src/lc3.c ****             side && side->pitch_present ? &side->ltpf : NULL, xh, xs);
 1800              		.loc 1 649 0
 1801 00da 08F10402 		add	r2, r8, #4
 1802 00de 02E0     		b	.L134
 1803              	.L135:
 1804 00e0 0022     		movs	r2, #0
 1805 00e2 00E0     		b	.L134
 1806              	.L136:
 1807 00e4 0022     		movs	r2, #0
 1808              	.L134:
 649:..\..\..\liblc3\src/lc3.c ****             side && side->pitch_present ? &side->ltpf : NULL, xh, xs);
ARM GAS  C:\Users\rdn\AppData\Local\Temp\ccCxUcqe.s 			page 53


 1809              		.loc 1 649 0 is_stmt 0 discriminator 3
 1810 00e6 0295     		str	r5, [sp, #8]
 1811 00e8 0699     		ldr	r1, [sp, #24]
 1812 00ea 0191     		str	r1, [sp, #4]
 1813 00ec 0092     		str	r2, [sp]
 1814 00ee 079A     		ldr	r2, [sp, #28]
 1815 00f0 4946     		mov	r1, r9
 1816 00f2 3046     		mov	r0, r6
 1817 00f4 FFF7FEFF 		bl	lc3_ltpf_synthesize
 1818              	.LVL277:
 1819              	.L130:
 651:..\..\..\liblc3\src/lc3.c **** 
 1820              		.loc 1 651 0 is_stmt 1
 1821 00f8 09B0     		add	sp, sp, #36
 1822              		.cfi_def_cfa_offset 36
 1823              		@ sp needed
 1824 00fa BDE8F08F 		pop	{r4, r5, r6, r7, r8, r9, r10, fp, pc}
 1825              	.LVL278:
 1826              	.L139:
 1827 00fe 00BF     		.align	2
 1828              	.L138:
 1829 0100 00000000 		.word	lc3_ns_2m5
 1830 0104 00000000 		.word	lc3_ne_2m5
 1831              		.cfi_endproc
 1832              	.LFE48:
 1833              		.size	synthesize, .-synthesize
 1834              		.section	.text.store_float,"ax",%progbits
 1835              		.align	2
 1836              		.thumb
 1837              		.thumb_func
 1838              		.type	store_float, %function
 1839              	store_float:
 1840              	.LFB46:
 543:..\..\..\liblc3\src/lc3.c ****     float *pcm = _pcm;
 1841              		.loc 1 543 0
 1842              		.cfi_startproc
 1843              		@ args = 0, pretend = 0, frame = 0
 1844              		@ frame_needed = 0, uses_anonymous_args = 0
 1845              	.LVL279:
 1846 0000 F8B5     		push	{r3, r4, r5, r6, r7, lr}
 1847              		.cfi_def_cfa_offset 24
 1848              		.cfi_offset 3, -24
 1849              		.cfi_offset 4, -20
 1850              		.cfi_offset 5, -16
 1851              		.cfi_offset 6, -12
 1852              		.cfi_offset 7, -8
 1853              		.cfi_offset 14, -4
 1854 0002 0E46     		mov	r6, r1
 1855 0004 1746     		mov	r7, r2
 1856              	.LVL280:
 546:..\..\..\liblc3\src/lc3.c ****     enum lc3_srate sr = decoder->sr_pcm;
 1857              		.loc 1 546 0
 1858 0006 0378     		ldrb	r3, [r0]	@ zero_extendqisi2
 1859              	.LVL281:
 547:..\..\..\liblc3\src/lc3.c **** 
 1860              		.loc 1 547 0
 1861 0008 8178     		ldrb	r1, [r0, #2]	@ zero_extendqisi2
ARM GAS  C:\Users\rdn\AppData\Local\Temp\ccCxUcqe.s 			page 54


 1862              	.LVL282:
 549:..\..\..\liblc3\src/lc3.c ****     int ns = lc3_ns(dt, sr);
 1863              		.loc 1 549 0
 1864 000a 00F1B802 		add	r2, r0, #184
 1865              	.LVL283:
 1866 000e D0F8AC50 		ldr	r5, [r0, #172]
 1867 0012 02EB8505 		add	r5, r2, r5, lsl #2
 1868              	.LVL284:
 1869              	.LBB186:
 1870              	.LBB187:
  47:..\..\..\liblc3\src/tables.h **** }
 1871              		.loc 2 47 0
 1872 0016 0D4A     		ldr	r2, .L145
 1873 0018 52F82140 		ldr	r4, [r2, r1, lsl #2]
 1874 001c 03FB0444 		mla	r4, r3, r4, r4
 1875              	.LVL285:
 1876              	.LBE187:
 1877              	.LBE186:
 552:..\..\..\liblc3\src/lc3.c ****         float s = lc3_ldexpf(*xs, -15);
 1878              		.loc 1 552 0
 1879 0020 11E0     		b	.L141
 1880              	.LVL286:
 1881              	.L143:
 1882              	.LBB188:
 1883              	.LBB189:
 1884              	.LBB190:
  45:..\..\..\liblc3\src/fastmath.h **** 
 1885              		.loc 3 45 0 discriminator 2
 1886 0022 2868     		ldr	r0, [r5]
 1887              	.LVL287:
  47:..\..\..\liblc3\src/fastmath.h ****         x.s += exp << LC3_IEEE754_EXP_SHL;
 1888              		.loc 3 47 0 discriminator 2
 1889 0024 10F0FF4F 		tst	r0, #2139095040
 1890 0028 01D0     		beq	.L142
  48:..\..\..\liblc3\src/fastmath.h **** 
 1891              		.loc 3 48 0
 1892 002a A0F1F060 		sub	r0, r0, #125829120
 1893              	.LVL288:
 1894              	.L142:
 1895              	.LBE190:
 1896              	.LBE189:
 554:..\..\..\liblc3\src/lc3.c ****     }
 1897              		.loc 1 554 0
 1898 002e 0849     		ldr	r1, .L145+4
 1899 0030 FFF7FEFF 		bl	fmaxf
 1900              	.LVL289:
 1901 0034 4FF07E51 		mov	r1, #1065353216
 1902 0038 FFF7FEFF 		bl	fminf
 1903              	.LVL290:
 1904 003c 3060     		str	r0, [r6]	@ float
 1905              	.LBE188:
 552:..\..\..\liblc3\src/lc3.c ****         float s = lc3_ldexpf(*xs, -15);
 1906              		.loc 1 552 0
 1907 003e 013C     		subs	r4, r4, #1
 1908              	.LVL291:
 1909 0040 0435     		adds	r5, r5, #4
 1910              	.LVL292:
ARM GAS  C:\Users\rdn\AppData\Local\Temp\ccCxUcqe.s 			page 55


 1911 0042 06EB8706 		add	r6, r6, r7, lsl #2
 1912              	.LVL293:
 1913              	.L141:
 552:..\..\..\liblc3\src/lc3.c ****         float s = lc3_ldexpf(*xs, -15);
 1914              		.loc 1 552 0 is_stmt 0 discriminator 1
 1915 0046 002C     		cmp	r4, #0
 1916 0048 EBDC     		bgt	.L143
 556:..\..\..\liblc3\src/lc3.c **** 
 1917              		.loc 1 556 0 is_stmt 1
 1918 004a F8BD     		pop	{r3, r4, r5, r6, r7, pc}
 1919              	.LVL294:
 1920              	.L146:
 1921              		.align	2
 1922              	.L145:
 1923 004c 00000000 		.word	lc3_ns_2m5
 1924 0050 000080BF 		.word	-1082130432
 1925              		.cfi_endproc
 1926              	.LFE46:
 1927              		.size	store_float, .-store_float
 1928              		.section	.text.lc3_hr_frame_samples,"ax",%progbits
 1929              		.align	2
 1930              		.global	lc3_hr_frame_samples
 1931              		.thumb
 1932              		.thumb_func
 1933              		.type	lc3_hr_frame_samples, %function
 1934              	lc3_hr_frame_samples:
 1935              	.LFB22:
  90:..\..\..\liblc3\src/lc3.c ****     enum lc3_dt dt = resolve_dt(dt_us, hrmode);
 1936              		.loc 1 90 0
 1937              		.cfi_startproc
 1938              		@ args = 0, pretend = 0, frame = 0
 1939              		@ frame_needed = 0, uses_anonymous_args = 0
 1940              	.LVL295:
 1941 0000 70B5     		push	{r4, r5, r6, lr}
 1942              		.cfi_def_cfa_offset 16
 1943              		.cfi_offset 4, -16
 1944              		.cfi_offset 5, -12
 1945              		.cfi_offset 6, -8
 1946              		.cfi_offset 14, -4
 1947 0002 0446     		mov	r4, r0
 1948 0004 0846     		mov	r0, r1
 1949              	.LVL296:
 1950 0006 1646     		mov	r6, r2
  91:..\..\..\liblc3\src/lc3.c ****     enum lc3_srate sr = resolve_srate(sr_hz, hrmode);
 1951              		.loc 1 91 0
 1952 0008 2146     		mov	r1, r4
 1953              	.LVL297:
 1954 000a FFF7FEFF 		bl	resolve_dt
 1955              	.LVL298:
 1956 000e 0546     		mov	r5, r0
 1957              	.LVL299:
  92:..\..\..\liblc3\src/lc3.c **** 
 1958              		.loc 1 92 0
 1959 0010 2146     		mov	r1, r4
 1960 0012 3046     		mov	r0, r6
 1961 0014 FFF7FEFF 		bl	resolve_srate
 1962              	.LVL300:
ARM GAS  C:\Users\rdn\AppData\Local\Temp\ccCxUcqe.s 			page 56


  94:..\..\..\liblc3\src/lc3.c ****         return -1;
 1963              		.loc 1 94 0
 1964 0018 032D     		cmp	r5, #3
 1965 001a 07D8     		bhi	.L149
  94:..\..\..\liblc3\src/lc3.c ****         return -1;
 1966              		.loc 1 94 0 is_stmt 0 discriminator 1
 1967 001c 0628     		cmp	r0, #6
 1968 001e 08D8     		bhi	.L150
 1969              	.LVL301:
 1970              	.LBB191:
 1971              	.LBB192:
  47:..\..\..\liblc3\src/tables.h **** }
 1972              		.loc 2 47 0 is_stmt 1
 1973 0020 054B     		ldr	r3, .L152
 1974 0022 53F82000 		ldr	r0, [r3, r0, lsl #2]
 1975              	.LVL302:
 1976 0026 05FB0000 		mla	r0, r5, r0, r0
 1977              	.LVL303:
 1978              	.LBE192:
 1979              	.LBE191:
  97:..\..\..\liblc3\src/lc3.c **** }
 1980              		.loc 1 97 0
 1981 002a 70BD     		pop	{r4, r5, r6, pc}
 1982              	.LVL304:
 1983              	.L149:
  95:..\..\..\liblc3\src/lc3.c **** 
 1984              		.loc 1 95 0
 1985 002c 4FF0FF30 		mov	r0, #-1
 1986              	.LVL305:
 1987 0030 70BD     		pop	{r4, r5, r6, pc}
 1988              	.LVL306:
 1989              	.L150:
 1990 0032 4FF0FF30 		mov	r0, #-1
 1991              	.LVL307:
  98:..\..\..\liblc3\src/lc3.c **** 
 1992              		.loc 1 98 0
 1993 0036 70BD     		pop	{r4, r5, r6, pc}
 1994              	.LVL308:
 1995              	.L153:
 1996              		.align	2
 1997              	.L152:
 1998 0038 00000000 		.word	lc3_ns_2m5
 1999              		.cfi_endproc
 2000              	.LFE22:
 2001              		.size	lc3_hr_frame_samples, .-lc3_hr_frame_samples
 2002              		.section	.text.lc3_frame_samples,"ax",%progbits
 2003              		.align	2
 2004              		.global	lc3_frame_samples
 2005              		.thumb
 2006              		.thumb_func
 2007              		.type	lc3_frame_samples, %function
 2008              	lc3_frame_samples:
 2009              	.LFB23:
 101:..\..\..\liblc3\src/lc3.c ****     return lc3_hr_frame_samples(false, dt_us, sr_hz);
 2010              		.loc 1 101 0
 2011              		.cfi_startproc
 2012              		@ args = 0, pretend = 0, frame = 0
ARM GAS  C:\Users\rdn\AppData\Local\Temp\ccCxUcqe.s 			page 57


 2013              		@ frame_needed = 0, uses_anonymous_args = 0
 2014              	.LVL309:
 2015 0000 08B5     		push	{r3, lr}
 2016              		.cfi_def_cfa_offset 8
 2017              		.cfi_offset 3, -8
 2018              		.cfi_offset 14, -4
 102:..\..\..\liblc3\src/lc3.c **** }
 2019              		.loc 1 102 0
 2020 0002 0A46     		mov	r2, r1
 2021 0004 0146     		mov	r1, r0
 2022              	.LVL310:
 2023 0006 0020     		movs	r0, #0
 2024              	.LVL311:
 2025 0008 FFF7FEFF 		bl	lc3_hr_frame_samples
 2026              	.LVL312:
 103:..\..\..\liblc3\src/lc3.c **** 
 2027              		.loc 1 103 0
 2028 000c 08BD     		pop	{r3, pc}
 2029              		.cfi_endproc
 2030              	.LFE23:
 2031              		.size	lc3_frame_samples, .-lc3_frame_samples
 2032 000e 00BF     		.section	.text.lc3_hr_frame_block_bytes,"ax",%progbits
 2033              		.align	2
 2034              		.global	lc3_hr_frame_block_bytes
 2035              		.thumb
 2036              		.thumb_func
 2037              		.type	lc3_hr_frame_block_bytes, %function
 2038              	lc3_hr_frame_block_bytes:
 2039              	.LFB24:
 110:..\..\..\liblc3\src/lc3.c ****     enum lc3_dt dt = resolve_dt(dt_us, hrmode);
 2040              		.loc 1 110 0
 2041              		.cfi_startproc
 2042              		@ args = 4, pretend = 0, frame = 0
 2043              		@ frame_needed = 0, uses_anonymous_args = 0
 2044              	.LVL313:
 2045 0000 2DE9F041 		push	{r4, r5, r6, r7, r8, lr}
 2046              		.cfi_def_cfa_offset 24
 2047              		.cfi_offset 4, -24
 2048              		.cfi_offset 5, -20
 2049              		.cfi_offset 6, -16
 2050              		.cfi_offset 7, -12
 2051              		.cfi_offset 8, -8
 2052              		.cfi_offset 14, -4
 2053 0004 0746     		mov	r7, r0
 2054 0006 0846     		mov	r0, r1
 2055              	.LVL314:
 2056 0008 9046     		mov	r8, r2
 2057 000a 1D46     		mov	r5, r3
 2058 000c 069C     		ldr	r4, [sp, #24]
 111:..\..\..\liblc3\src/lc3.c ****     enum lc3_srate sr = resolve_srate(sr_hz, hrmode);
 2059              		.loc 1 111 0
 2060 000e 3946     		mov	r1, r7
 2061              	.LVL315:
 2062 0010 FFF7FEFF 		bl	resolve_dt
 2063              	.LVL316:
 2064 0014 0646     		mov	r6, r0
 2065              	.LVL317:
ARM GAS  C:\Users\rdn\AppData\Local\Temp\ccCxUcqe.s 			page 58


 112:..\..\..\liblc3\src/lc3.c **** 
 2066              		.loc 1 112 0
 2067 0016 3946     		mov	r1, r7
 2068 0018 4046     		mov	r0, r8
 2069 001a FFF7FEFF 		bl	resolve_srate
 2070              	.LVL318:
 114:..\..\..\liblc3\src/lc3.c ****             || nchannels < 1 || nchannels > 8 || bitrate < 0)
 2071              		.loc 1 114 0
 2072 001e 032E     		cmp	r6, #3
 2073 0020 6CD8     		bhi	.L167
 114:..\..\..\liblc3\src/lc3.c ****             || nchannels < 1 || nchannels > 8 || bitrate < 0)
 2074              		.loc 1 114 0 is_stmt 0 discriminator 1
 2075 0022 0628     		cmp	r0, #6
 2076 0024 6DD8     		bhi	.L168
 115:..\..\..\liblc3\src/lc3.c ****         return -1;
 2077              		.loc 1 115 0 is_stmt 1
 2078 0026 002D     		cmp	r5, #0
 2079 0028 6EDD     		ble	.L169
 115:..\..\..\liblc3\src/lc3.c ****         return -1;
 2080              		.loc 1 115 0 is_stmt 0 discriminator 1
 2081 002a 082D     		cmp	r5, #8
 2082 002c 6FDC     		bgt	.L170
 115:..\..\..\liblc3\src/lc3.c ****         return -1;
 2083              		.loc 1 115 0 discriminator 2
 2084 002e 002C     		cmp	r4, #0
 2085 0030 70DB     		blt	.L171
 118:..\..\..\liblc3\src/lc3.c **** 
 2086              		.loc 1 118 0 is_stmt 1
 2087 0032 3B4B     		ldr	r3, .L181
 2088 0034 9C42     		cmp	r4, r3
 2089 0036 02DC     		bgt	.L172
 118:..\..\..\liblc3\src/lc3.c **** 
 2090              		.loc 1 118 0 is_stmt 0 discriminator 1
 2091 0038 24EAE474 		bic	r4, r4, r4, asr #31
 2092 003c 00E0     		b	.L158
 2093              	.L172:
 118:..\..\..\liblc3\src/lc3.c **** 
 2094              		.loc 1 118 0
 2095 003e 394C     		ldr	r4, .L181+4
 2096              	.L158:
 2097              	.LVL319:
 120:..\..\..\liblc3\src/lc3.c ****         nchannels * lc3_min_frame_bytes(dt, sr),
 2098              		.loc 1 120 0 is_stmt 1 discriminator 4
 2099 0040 06FB0444 		mla	r4, r6, r4, r4
 2100              	.LVL320:
 2101 0044 384B     		ldr	r3, .L181+8
 2102 0046 83FB0423 		smull	r2, r3, r3, r4
 2103 004a E417     		asrs	r4, r4, #31
 2104 004c C4EBA323 		rsb	r3, r4, r3, asr #10
 2105              	.LVL321:
 2106              	.LBB193:
 2107              	.LBB194:
  66:..\..\..\liblc3\src/tables.h **** }
  67:..\..\..\liblc3\src/tables.h **** 
  68:..\..\..\liblc3\src/tables.h **** #define LC3_MAX_SRATE_HZ  ( LC3_PLUS_HR ? 96000 : 48000 )
  69:..\..\..\liblc3\src/tables.h **** 
  70:..\..\..\liblc3\src/tables.h **** #define LC3_MAX_NS  ( LC3_NS(10000, LC3_MAX_SRATE_HZ) )
ARM GAS  C:\Users\rdn\AppData\Local\Temp\ccCxUcqe.s 			page 59


  71:..\..\..\liblc3\src/tables.h **** #define LC3_MAX_NE  ( LC3_PLUS_HR ? LC3_MAX_NS : LC3_NS(10000, 40000) )
  72:..\..\..\liblc3\src/tables.h **** 
  73:..\..\..\liblc3\src/tables.h **** 
  74:..\..\..\liblc3\src/tables.h **** /**
  75:..\..\..\liblc3\src/tables.h ****  * Limits on size of frame
  76:..\..\..\liblc3\src/tables.h ****  */
  77:..\..\..\liblc3\src/tables.h **** 
  78:..\..\..\liblc3\src/tables.h **** extern const int lc3_frame_bytes_hr_lim
  79:..\..\..\liblc3\src/tables.h ****         [LC3_NUM_DT][LC3_NUM_SRATE - LC3_SRATE_48K_HR][2];
  80:..\..\..\liblc3\src/tables.h **** 
  81:..\..\..\liblc3\src/tables.h **** static inline int lc3_min_frame_bytes(enum lc3_dt dt, enum lc3_srate sr) {
  82:..\..\..\liblc3\src/tables.h ****     return !lc3_hr(sr) ? LC3_MIN_FRAME_BYTES :
 2108              		.loc 2 82 0 discriminator 4
 2109 0050 0428     		cmp	r0, #4
 2110 0052 06D9     		bls	.L173
  83:..\..\..\liblc3\src/tables.h ****         lc3_frame_bytes_hr_lim[dt][sr - LC3_SRATE_48K_HR][0];
 2111              		.loc 2 83 0
 2112 0054 421F     		subs	r2, r0, #5
  82:..\..\..\liblc3\src/tables.h ****         lc3_frame_bytes_hr_lim[dt][sr - LC3_SRATE_48K_HR][0];
 2113              		.loc 2 82 0
 2114 0056 02EB4602 		add	r2, r2, r6, lsl #1
 2115 005a 3449     		ldr	r1, .L181+12
 2116 005c 51F83220 		ldr	r2, [r1, r2, lsl #3]
 2117 0060 00E0     		b	.L159
 2118              	.L173:
 2119 0062 1422     		movs	r2, #20
 2120              	.L159:
 2121              	.LVL322:
 2122              	.LBE194:
 2123              	.LBE193:
 120:..\..\..\liblc3\src/lc3.c ****         nchannels * lc3_min_frame_bytes(dt, sr),
 2124              		.loc 1 120 0
 2125 0064 02FB05F2 		mul	r2, r2, r5
 2126 0068 9342     		cmp	r3, r2
 2127 006a 0CDC     		bgt	.L174
 2128              	.LVL323:
 2129              	.LBB195:
 2130              	.LBB196:
  82:..\..\..\liblc3\src/tables.h ****         lc3_frame_bytes_hr_lim[dt][sr - LC3_SRATE_48K_HR][0];
 2131              		.loc 2 82 0
 2132 006c 0428     		cmp	r0, #4
 2133 006e 06D9     		bls	.L175
 2134              		.loc 2 83 0
 2135 0070 421F     		subs	r2, r0, #5
  82:..\..\..\liblc3\src/tables.h ****         lc3_frame_bytes_hr_lim[dt][sr - LC3_SRATE_48K_HR][0];
 2136              		.loc 2 82 0
 2137 0072 02EB4602 		add	r2, r2, r6, lsl #1
 2138 0076 2D49     		ldr	r1, .L181+12
 2139 0078 51F83210 		ldr	r1, [r1, r2, lsl #3]
 2140 007c 00E0     		b	.L161
 2141              	.L175:
 2142 007e 1421     		movs	r1, #20
 2143              	.L161:
 2144              	.LVL324:
 2145              	.LBE196:
 2146              	.LBE195:
 120:..\..\..\liblc3\src/lc3.c ****         nchannels * lc3_min_frame_bytes(dt, sr),
ARM GAS  C:\Users\rdn\AppData\Local\Temp\ccCxUcqe.s 			page 60


 2147              		.loc 1 120 0
 2148 0080 01FB05F1 		mul	r1, r1, r5
 2149 0084 00E0     		b	.L160
 2150              	.L174:
 2151 0086 1946     		mov	r1, r3
 2152              	.L160:
 2153              	.LVL325:
 2154              	.LBB197:
 2155              	.LBB198:
  84:..\..\..\liblc3\src/tables.h **** }
  85:..\..\..\liblc3\src/tables.h **** 
  86:..\..\..\liblc3\src/tables.h **** static inline int lc3_max_frame_bytes(enum lc3_dt dt, enum lc3_srate sr) {
  87:..\..\..\liblc3\src/tables.h ****     return !lc3_hr(sr) ? LC3_MAX_FRAME_BYTES :
 2156              		.loc 2 87 0 discriminator 4
 2157 0088 0428     		cmp	r0, #4
 2158 008a 07D9     		bls	.L176
  88:..\..\..\liblc3\src/tables.h ****         lc3_frame_bytes_hr_lim[dt][sr - LC3_SRATE_48K_HR][1];
 2159              		.loc 2 88 0
 2160 008c 421F     		subs	r2, r0, #5
  87:..\..\..\liblc3\src/tables.h ****         lc3_frame_bytes_hr_lim[dt][sr - LC3_SRATE_48K_HR][1];
 2161              		.loc 2 87 0
 2162 008e 02EB4604 		add	r4, r2, r6, lsl #1
 2163 0092 264A     		ldr	r2, .L181+12
 2164 0094 02EBC402 		add	r2, r2, r4, lsl #3
 2165 0098 5268     		ldr	r2, [r2, #4]
 2166 009a 01E0     		b	.L162
 2167              	.L176:
 2168 009c 4FF4C872 		mov	r2, #400
 2169              	.L162:
 2170              	.LVL326:
 2171              	.LBE198:
 2172              	.LBE197:
 120:..\..\..\liblc3\src/lc3.c ****         nchannels * lc3_min_frame_bytes(dt, sr),
 2173              		.loc 1 120 0
 2174 00a0 02FB05F2 		mul	r2, r2, r5
 2175 00a4 9142     		cmp	r1, r2
 2176 00a6 1ADA     		bge	.L163
 2177              	.LVL327:
 2178              	.LBB199:
 2179              	.LBB200:
  82:..\..\..\liblc3\src/tables.h ****         lc3_frame_bytes_hr_lim[dt][sr - LC3_SRATE_48K_HR][0];
 2180              		.loc 2 82 0 discriminator 5
 2181 00a8 0428     		cmp	r0, #4
 2182 00aa 06D9     		bls	.L177
  83:..\..\..\liblc3\src/tables.h **** }
 2183              		.loc 2 83 0
 2184 00ac 421F     		subs	r2, r0, #5
  82:..\..\..\liblc3\src/tables.h ****         lc3_frame_bytes_hr_lim[dt][sr - LC3_SRATE_48K_HR][0];
 2185              		.loc 2 82 0
 2186 00ae 02EB4602 		add	r2, r2, r6, lsl #1
 2187 00b2 1E49     		ldr	r1, .L181+12
 2188 00b4 51F83220 		ldr	r2, [r1, r2, lsl #3]
 2189 00b8 00E0     		b	.L164
 2190              	.L177:
 2191 00ba 1422     		movs	r2, #20
 2192              	.L164:
 2193              	.LVL328:
ARM GAS  C:\Users\rdn\AppData\Local\Temp\ccCxUcqe.s 			page 61


 2194              	.LBE200:
 2195              	.LBE199:
 120:..\..\..\liblc3\src/lc3.c ****         nchannels * lc3_min_frame_bytes(dt, sr),
 2196              		.loc 1 120 0
 2197 00bc 02FB05F2 		mul	r2, r2, r5
 2198 00c0 9342     		cmp	r3, r2
 2199 00c2 29DC     		bgt	.L157
 2200              	.LVL329:
 2201              	.LBB201:
 2202              	.LBB202:
  82:..\..\..\liblc3\src/tables.h ****         lc3_frame_bytes_hr_lim[dt][sr - LC3_SRATE_48K_HR][0];
 2203              		.loc 2 82 0
 2204 00c4 0428     		cmp	r0, #4
 2205 00c6 06D9     		bls	.L178
  83:..\..\..\liblc3\src/tables.h **** }
 2206              		.loc 2 83 0
 2207 00c8 0538     		subs	r0, r0, #5
 2208              	.LVL330:
  82:..\..\..\liblc3\src/tables.h ****         lc3_frame_bytes_hr_lim[dt][sr - LC3_SRATE_48K_HR][0];
 2209              		.loc 2 82 0
 2210 00ca 00EB4600 		add	r0, r0, r6, lsl #1
 2211 00ce 174B     		ldr	r3, .L181+12
 2212 00d0 53F83030 		ldr	r3, [r3, r0, lsl #3]
 2213 00d4 00E0     		b	.L165
 2214              	.LVL331:
 2215              	.L178:
 2216 00d6 1423     		movs	r3, #20
 2217              	.LVL332:
 2218              	.L165:
 2219              	.LBE202:
 2220              	.LBE201:
 120:..\..\..\liblc3\src/lc3.c ****         nchannels * lc3_min_frame_bytes(dt, sr),
 2221              		.loc 1 120 0
 2222 00d8 03FB05F3 		mul	r3, r3, r5
 2223 00dc 1CE0     		b	.L157
 2224              	.LVL333:
 2225              	.L163:
 2226              	.LBB203:
 2227              	.LBB204:
  87:..\..\..\liblc3\src/tables.h ****         lc3_frame_bytes_hr_lim[dt][sr - LC3_SRATE_48K_HR][1];
 2228              		.loc 2 87 0
 2229 00de 0428     		cmp	r0, #4
 2230 00e0 07D9     		bls	.L179
 2231              		.loc 2 88 0
 2232 00e2 0538     		subs	r0, r0, #5
 2233              	.LVL334:
  87:..\..\..\liblc3\src/tables.h ****         lc3_frame_bytes_hr_lim[dt][sr - LC3_SRATE_48K_HR][1];
 2234              		.loc 2 87 0
 2235 00e4 00EB4600 		add	r0, r0, r6, lsl #1
 2236 00e8 104B     		ldr	r3, .L181+12
 2237 00ea 03EBC000 		add	r0, r3, r0, lsl #3
 2238 00ee 4368     		ldr	r3, [r0, #4]
 2239 00f0 01E0     		b	.L166
 2240              	.LVL335:
 2241              	.L179:
 2242 00f2 4FF4C873 		mov	r3, #400
 2243              	.LVL336:
ARM GAS  C:\Users\rdn\AppData\Local\Temp\ccCxUcqe.s 			page 62


 2244              	.L166:
 2245              	.LBE204:
 2246              	.LBE203:
 120:..\..\..\liblc3\src/lc3.c ****         nchannels * lc3_min_frame_bytes(dt, sr),
 2247              		.loc 1 120 0
 2248 00f6 03FB05F3 		mul	r3, r3, r5
 2249 00fa 0DE0     		b	.L157
 2250              	.LVL337:
 2251              	.L167:
 116:..\..\..\liblc3\src/lc3.c **** 
 2252              		.loc 1 116 0
 2253 00fc 4FF0FF33 		mov	r3, #-1
 2254 0100 0AE0     		b	.L157
 2255              	.L168:
 2256 0102 4FF0FF33 		mov	r3, #-1
 2257 0106 07E0     		b	.L157
 2258              	.L169:
 2259 0108 4FF0FF33 		mov	r3, #-1
 2260 010c 04E0     		b	.L157
 2261              	.L170:
 2262 010e 4FF0FF33 		mov	r3, #-1
 2263 0112 01E0     		b	.L157
 2264              	.L171:
 2265 0114 4FF0FF33 		mov	r3, #-1
 2266              	.LVL338:
 2267              	.L157:
 123:..\..\..\liblc3\src/lc3.c **** 
 2268              		.loc 1 123 0
 2269 0118 1846     		mov	r0, r3
 2270 011a BDE8F081 		pop	{r4, r5, r6, r7, r8, pc}
 2271              	.LVL339:
 2272              	.L182:
 2273 011e 00BF     		.align	2
 2274              	.L181:
 2275 0120 FF075200 		.word	5375999
 2276 0124 00085200 		.word	5376000
 2277 0128 1F85EB51 		.word	1374389535
 2278 012c 00000000 		.word	lc3_frame_bytes_hr_lim
 2279              		.cfi_endproc
 2280              	.LFE24:
 2281              		.size	lc3_hr_frame_block_bytes, .-lc3_hr_frame_block_bytes
 2282              		.section	.text.lc3_frame_bock_bytes,"ax",%progbits
 2283              		.align	2
 2284              		.global	lc3_frame_bock_bytes
 2285              		.thumb
 2286              		.thumb_func
 2287              		.type	lc3_frame_bock_bytes, %function
 2288              	lc3_frame_bock_bytes:
 2289              	.LFB25:
 126:..\..\..\liblc3\src/lc3.c ****     return lc3_hr_frame_block_bytes(false, dt_us, 8000, nchannels, bitrate);
 2290              		.loc 1 126 0
 2291              		.cfi_startproc
 2292              		@ args = 0, pretend = 0, frame = 0
 2293              		@ frame_needed = 0, uses_anonymous_args = 0
 2294              	.LVL340:
 2295 0000 00B5     		push	{lr}
 2296              		.cfi_def_cfa_offset 4
ARM GAS  C:\Users\rdn\AppData\Local\Temp\ccCxUcqe.s 			page 63


 2297              		.cfi_offset 14, -4
 2298 0002 83B0     		sub	sp, sp, #12
 2299              		.cfi_def_cfa_offset 16
 127:..\..\..\liblc3\src/lc3.c **** }
 2300              		.loc 1 127 0
 2301 0004 0092     		str	r2, [sp]
 2302 0006 0B46     		mov	r3, r1
 2303 0008 4FF4FA52 		mov	r2, #8000
 2304              	.LVL341:
 2305 000c 0146     		mov	r1, r0
 2306              	.LVL342:
 2307 000e 0020     		movs	r0, #0
 2308              	.LVL343:
 2309 0010 FFF7FEFF 		bl	lc3_hr_frame_block_bytes
 2310              	.LVL344:
 128:..\..\..\liblc3\src/lc3.c **** 
 2311              		.loc 1 128 0
 2312 0014 03B0     		add	sp, sp, #12
 2313              		.cfi_def_cfa_offset 4
 2314              		@ sp needed
 2315 0016 5DF804FB 		ldr	pc, [sp], #4
 2316              		.cfi_endproc
 2317              	.LFE25:
 2318              		.size	lc3_frame_bock_bytes, .-lc3_frame_bock_bytes
 2319 001a 00BF     		.section	.text.lc3_hr_frame_bytes,"ax",%progbits
 2320              		.align	2
 2321              		.global	lc3_hr_frame_bytes
 2322              		.thumb
 2323              		.thumb_func
 2324              		.type	lc3_hr_frame_bytes, %function
 2325              	lc3_hr_frame_bytes:
 2326              	.LFB26:
 132:..\..\..\liblc3\src/lc3.c ****     return lc3_hr_frame_block_bytes(hrmode, dt_us, sr_hz, 1, bitrate);
 2327              		.loc 1 132 0
 2328              		.cfi_startproc
 2329              		@ args = 0, pretend = 0, frame = 0
 2330              		@ frame_needed = 0, uses_anonymous_args = 0
 2331              	.LVL345:
 2332 0000 00B5     		push	{lr}
 2333              		.cfi_def_cfa_offset 4
 2334              		.cfi_offset 14, -4
 2335 0002 83B0     		sub	sp, sp, #12
 2336              		.cfi_def_cfa_offset 16
 133:..\..\..\liblc3\src/lc3.c **** }
 2337              		.loc 1 133 0
 2338 0004 0093     		str	r3, [sp]
 2339 0006 0123     		movs	r3, #1
 2340              	.LVL346:
 2341 0008 FFF7FEFF 		bl	lc3_hr_frame_block_bytes
 2342              	.LVL347:
 134:..\..\..\liblc3\src/lc3.c **** 
 2343              		.loc 1 134 0
 2344 000c 03B0     		add	sp, sp, #12
 2345              		.cfi_def_cfa_offset 4
 2346              		@ sp needed
 2347 000e 5DF804FB 		ldr	pc, [sp], #4
 2348              		.cfi_endproc
ARM GAS  C:\Users\rdn\AppData\Local\Temp\ccCxUcqe.s 			page 64


 2349              	.LFE26:
 2350              		.size	lc3_hr_frame_bytes, .-lc3_hr_frame_bytes
 2351 0012 00BF     		.section	.text.lc3_frame_bytes,"ax",%progbits
 2352              		.align	2
 2353              		.global	lc3_frame_bytes
 2354              		.thumb
 2355              		.thumb_func
 2356              		.type	lc3_frame_bytes, %function
 2357              	lc3_frame_bytes:
 2358              	.LFB27:
 137:..\..\..\liblc3\src/lc3.c ****     return lc3_hr_frame_bytes(false, dt_us, 8000, bitrate);
 2359              		.loc 1 137 0
 2360              		.cfi_startproc
 2361              		@ args = 0, pretend = 0, frame = 0
 2362              		@ frame_needed = 0, uses_anonymous_args = 0
 2363              	.LVL348:
 2364 0000 08B5     		push	{r3, lr}
 2365              		.cfi_def_cfa_offset 8
 2366              		.cfi_offset 3, -8
 2367              		.cfi_offset 14, -4
 138:..\..\..\liblc3\src/lc3.c **** }
 2368              		.loc 1 138 0
 2369 0002 0B46     		mov	r3, r1
 2370 0004 4FF4FA52 		mov	r2, #8000
 2371 0008 0146     		mov	r1, r0
 2372              	.LVL349:
 2373 000a 0020     		movs	r0, #0
 2374              	.LVL350:
 2375 000c FFF7FEFF 		bl	lc3_hr_frame_bytes
 2376              	.LVL351:
 139:..\..\..\liblc3\src/lc3.c **** 
 2377              		.loc 1 139 0
 2378 0010 08BD     		pop	{r3, pc}
 2379              		.cfi_endproc
 2380              	.LFE27:
 2381              		.size	lc3_frame_bytes, .-lc3_frame_bytes
 2382              		.global	__aeabi_ldivmod
 2383 0012 00BF     		.section	.text.lc3_hr_resolve_bitrate,"ax",%progbits
 2384              		.align	2
 2385              		.global	lc3_hr_resolve_bitrate
 2386              		.thumb
 2387              		.thumb_func
 2388              		.type	lc3_hr_resolve_bitrate, %function
 2389              	lc3_hr_resolve_bitrate:
 2390              	.LFB28:
 146:..\..\..\liblc3\src/lc3.c ****     enum lc3_dt dt = resolve_dt(dt_us, hrmode);
 2391              		.loc 1 146 0
 2392              		.cfi_startproc
 2393              		@ args = 0, pretend = 0, frame = 0
 2394              		@ frame_needed = 0, uses_anonymous_args = 0
 2395              	.LVL352:
 2396 0000 F8B5     		push	{r3, r4, r5, r6, r7, lr}
 2397              		.cfi_def_cfa_offset 24
 2398              		.cfi_offset 3, -24
 2399              		.cfi_offset 4, -20
 2400              		.cfi_offset 5, -16
 2401              		.cfi_offset 6, -12
ARM GAS  C:\Users\rdn\AppData\Local\Temp\ccCxUcqe.s 			page 65


 2402              		.cfi_offset 7, -8
 2403              		.cfi_offset 14, -4
 2404 0002 0546     		mov	r5, r0
 2405 0004 0846     		mov	r0, r1
 2406              	.LVL353:
 2407 0006 1746     		mov	r7, r2
 2408 0008 1C46     		mov	r4, r3
 147:..\..\..\liblc3\src/lc3.c ****     enum lc3_srate sr = resolve_srate(sr_hz, hrmode);
 2409              		.loc 1 147 0
 2410 000a 2946     		mov	r1, r5
 2411              	.LVL354:
 2412 000c FFF7FEFF 		bl	resolve_dt
 2413              	.LVL355:
 2414 0010 0646     		mov	r6, r0
 2415              	.LVL356:
 148:..\..\..\liblc3\src/lc3.c **** 
 2416              		.loc 1 148 0
 2417 0012 2946     		mov	r1, r5
 2418 0014 3846     		mov	r0, r7
 2419 0016 FFF7FEFF 		bl	resolve_srate
 2420              	.LVL357:
 150:..\..\..\liblc3\src/lc3.c ****         return -1;
 2421              		.loc 1 150 0
 2422 001a 032E     		cmp	r6, #3
 2423 001c 27D8     		bhi	.L192
 150:..\..\..\liblc3\src/lc3.c ****         return -1;
 2424              		.loc 1 150 0 is_stmt 0 discriminator 1
 2425 001e 0628     		cmp	r0, #6
 2426 0020 28D8     		bhi	.L193
 150:..\..\..\liblc3\src/lc3.c ****         return -1;
 2427              		.loc 1 150 0 discriminator 2
 2428 0022 002C     		cmp	r4, #0
 2429 0024 29DB     		blt	.L194
 153:..\..\..\liblc3\src/lc3.c **** }
 2430              		.loc 1 153 0 is_stmt 1
 2431 0026 E517     		asrs	r5, r4, #31
 2432 0028 2019     		adds	r0, r4, r4
 2433              	.LVL358:
 2434 002a 45EB0501 		adc	r1, r5, r5
 2435 002e 0019     		adds	r0, r0, r4
 2436 0030 6941     		adcs	r1, r1, r5
 2437 0032 CB00     		lsls	r3, r1, #3
 2438 0034 43EA5073 		orr	r3, r3, r0, lsr #29
 2439 0038 C200     		lsls	r2, r0, #3
 2440 003a A418     		adds	r4, r4, r2
 2441              	.LVL359:
 2442 003c 5D41     		adcs	r5, r5, r3
 2443 003e EB01     		lsls	r3, r5, #7
 2444 0040 43EA5463 		orr	r3, r3, r4, lsr #25
 2445 0044 E201     		lsls	r2, r4, #7
 2446 0046 1446     		mov	r4, r2
 2447 0048 1D46     		mov	r5, r3
 2448 004a F0B2     		uxtb	r0, r6
 2449 004c 0021     		movs	r1, #0
 2450 004e 721C     		adds	r2, r6, #1
 2451 0050 D317     		asrs	r3, r2, #31
 2452 0052 0019     		adds	r0, r0, r4
ARM GAS  C:\Users\rdn\AppData\Local\Temp\ccCxUcqe.s 			page 66


 2453 0054 6941     		adcs	r1, r1, r5
 2454 0056 FFF7FEFF 		bl	__aeabi_ldivmod
 2455              	.LVL360:
 2456 005a 0346     		mov	r3, r0
 2457 005c B0F1004F 		cmp	r0, #-2147483648
 2458 0060 71F10002 		sbcs	r2, r1, #0
 2459 0064 01DB     		blt	.L191
 2460 0066 6FF00043 		mvn	r3, #-2147483648
 2461              	.L191:
 2462 006a 1846     		mov	r0, r3
 2463 006c F8BD     		pop	{r3, r4, r5, r6, r7, pc}
 2464              	.LVL361:
 2465              	.L192:
 151:..\..\..\liblc3\src/lc3.c **** 
 2466              		.loc 1 151 0
 2467 006e 4FF0FF30 		mov	r0, #-1
 2468              	.LVL362:
 2469 0072 F8BD     		pop	{r3, r4, r5, r6, r7, pc}
 2470              	.LVL363:
 2471              	.L193:
 2472 0074 4FF0FF30 		mov	r0, #-1
 2473              	.LVL364:
 2474 0078 F8BD     		pop	{r3, r4, r5, r6, r7, pc}
 2475              	.LVL365:
 2476              	.L194:
 2477 007a 4FF0FF30 		mov	r0, #-1
 2478              	.LVL366:
 154:..\..\..\liblc3\src/lc3.c **** 
 2479              		.loc 1 154 0
 2480 007e F8BD     		pop	{r3, r4, r5, r6, r7, pc}
 2481              		.cfi_endproc
 2482              	.LFE28:
 2483              		.size	lc3_hr_resolve_bitrate, .-lc3_hr_resolve_bitrate
 2484              		.section	.text.lc3_resolve_bitrate,"ax",%progbits
 2485              		.align	2
 2486              		.global	lc3_resolve_bitrate
 2487              		.thumb
 2488              		.thumb_func
 2489              		.type	lc3_resolve_bitrate, %function
 2490              	lc3_resolve_bitrate:
 2491              	.LFB29:
 157:..\..\..\liblc3\src/lc3.c ****     return lc3_hr_resolve_bitrate(false, dt_us, 8000, nbytes);
 2492              		.loc 1 157 0
 2493              		.cfi_startproc
 2494              		@ args = 0, pretend = 0, frame = 0
 2495              		@ frame_needed = 0, uses_anonymous_args = 0
 2496              	.LVL367:
 2497 0000 08B5     		push	{r3, lr}
 2498              		.cfi_def_cfa_offset 8
 2499              		.cfi_offset 3, -8
 2500              		.cfi_offset 14, -4
 158:..\..\..\liblc3\src/lc3.c **** }
 2501              		.loc 1 158 0
 2502 0002 0B46     		mov	r3, r1
 2503 0004 4FF4FA52 		mov	r2, #8000
 2504 0008 0146     		mov	r1, r0
 2505              	.LVL368:
ARM GAS  C:\Users\rdn\AppData\Local\Temp\ccCxUcqe.s 			page 67


 2506 000a 0020     		movs	r0, #0
 2507              	.LVL369:
 2508 000c FFF7FEFF 		bl	lc3_hr_resolve_bitrate
 2509              	.LVL370:
 159:..\..\..\liblc3\src/lc3.c **** 
 2510              		.loc 1 159 0
 2511 0010 08BD     		pop	{r3, pc}
 2512              		.cfi_endproc
 2513              	.LFE29:
 2514              		.size	lc3_resolve_bitrate, .-lc3_resolve_bitrate
 2515 0012 00BF     		.section	.text.lc3_hr_delay_samples,"ax",%progbits
 2516              		.align	2
 2517              		.global	lc3_hr_delay_samples
 2518              		.thumb
 2519              		.thumb_func
 2520              		.type	lc3_hr_delay_samples, %function
 2521              	lc3_hr_delay_samples:
 2522              	.LFB30:
 165:..\..\..\liblc3\src/lc3.c ****     enum lc3_dt dt = resolve_dt(dt_us, hrmode);
 2523              		.loc 1 165 0
 2524              		.cfi_startproc
 2525              		@ args = 0, pretend = 0, frame = 0
 2526              		@ frame_needed = 0, uses_anonymous_args = 0
 2527              	.LVL371:
 2528 0000 70B5     		push	{r4, r5, r6, lr}
 2529              		.cfi_def_cfa_offset 16
 2530              		.cfi_offset 4, -16
 2531              		.cfi_offset 5, -12
 2532              		.cfi_offset 6, -8
 2533              		.cfi_offset 14, -4
 2534 0002 0546     		mov	r5, r0
 2535 0004 0846     		mov	r0, r1
 2536              	.LVL372:
 2537 0006 1646     		mov	r6, r2
 166:..\..\..\liblc3\src/lc3.c ****     enum lc3_srate sr = resolve_srate(sr_hz, hrmode);
 2538              		.loc 1 166 0
 2539 0008 2946     		mov	r1, r5
 2540              	.LVL373:
 2541 000a FFF7FEFF 		bl	resolve_dt
 2542              	.LVL374:
 2543 000e 0446     		mov	r4, r0
 2544              	.LVL375:
 167:..\..\..\liblc3\src/lc3.c **** 
 2545              		.loc 1 167 0
 2546 0010 2946     		mov	r1, r5
 2547 0012 3046     		mov	r0, r6
 2548 0014 FFF7FEFF 		bl	resolve_srate
 2549              	.LVL376:
 169:..\..\..\liblc3\src/lc3.c ****         return -1;
 2550              		.loc 1 169 0
 2551 0018 032C     		cmp	r4, #3
 2552 001a 10D8     		bhi	.L201
 169:..\..\..\liblc3\src/lc3.c ****         return -1;
 2553              		.loc 1 169 0 is_stmt 0 discriminator 1
 2554 001c 0628     		cmp	r0, #6
 2555 001e 11D8     		bhi	.L202
 2556              	.LVL377:
ARM GAS  C:\Users\rdn\AppData\Local\Temp\ccCxUcqe.s 			page 68


 2557              	.LBB205:
 2558              	.LBB206:
 2559              	.LBB207:
 2560              	.LBB208:
  47:..\..\..\liblc3\src/tables.h **** }
 2561              		.loc 2 47 0 is_stmt 1
 2562 0020 0A4B     		ldr	r3, .L204
 2563 0022 53F82030 		ldr	r3, [r3, r0, lsl #2]
 2564 0026 04FB0332 		mla	r2, r4, r3, r3
 2565              	.LVL378:
 2566              	.LBE208:
 2567              	.LBE207:
  56:..\..\..\liblc3\src/tables.h **** }
 2568              		.loc 2 56 0
 2569 002a 022C     		cmp	r4, #2
 2570 002c 02D1     		bne	.L200
 2571 002e 084B     		ldr	r3, .L204+4
 2572 0030 53F82030 		ldr	r3, [r3, r0, lsl #2]
 2573              	.L200:
  55:..\..\..\liblc3\src/tables.h ****         (dt == LC3_DT_7M5 ? lc3_ns_4m[sr] : lc3_ns_2m5[sr]) ) >> 1;
 2574              		.loc 2 55 0
 2575 0034 1344     		add	r3, r3, r2
 2576              	.LVL379:
 2577              	.LBE206:
 2578              	.LBE205:
 172:..\..\..\liblc3\src/lc3.c **** }
 2579              		.loc 1 172 0
 2580 0036 23F00103 		bic	r3, r3, #1
 2581 003a 981A     		subs	r0, r3, r2
 2582              	.LVL380:
 2583 003c 70BD     		pop	{r4, r5, r6, pc}
 2584              	.LVL381:
 2585              	.L201:
 170:..\..\..\liblc3\src/lc3.c **** 
 2586              		.loc 1 170 0
 2587 003e 4FF0FF30 		mov	r0, #-1
 2588              	.LVL382:
 2589 0042 70BD     		pop	{r4, r5, r6, pc}
 2590              	.LVL383:
 2591              	.L202:
 2592 0044 4FF0FF30 		mov	r0, #-1
 2593              	.LVL384:
 173:..\..\..\liblc3\src/lc3.c **** 
 2594              		.loc 1 173 0
 2595 0048 70BD     		pop	{r4, r5, r6, pc}
 2596              	.LVL385:
 2597              	.L205:
 2598 004a 00BF     		.align	2
 2599              	.L204:
 2600 004c 00000000 		.word	lc3_ns_2m5
 2601 0050 00000000 		.word	lc3_ns_4m
 2602              		.cfi_endproc
 2603              	.LFE30:
 2604              		.size	lc3_hr_delay_samples, .-lc3_hr_delay_samples
 2605              		.section	.text.lc3_delay_samples,"ax",%progbits
 2606              		.align	2
 2607              		.global	lc3_delay_samples
ARM GAS  C:\Users\rdn\AppData\Local\Temp\ccCxUcqe.s 			page 69


 2608              		.thumb
 2609              		.thumb_func
 2610              		.type	lc3_delay_samples, %function
 2611              	lc3_delay_samples:
 2612              	.LFB31:
 176:..\..\..\liblc3\src/lc3.c ****     return lc3_hr_delay_samples(false, dt_us, sr_hz);
 2613              		.loc 1 176 0
 2614              		.cfi_startproc
 2615              		@ args = 0, pretend = 0, frame = 0
 2616              		@ frame_needed = 0, uses_anonymous_args = 0
 2617              	.LVL386:
 2618 0000 08B5     		push	{r3, lr}
 2619              		.cfi_def_cfa_offset 8
 2620              		.cfi_offset 3, -8
 2621              		.cfi_offset 14, -4
 177:..\..\..\liblc3\src/lc3.c **** }
 2622              		.loc 1 177 0
 2623 0002 0A46     		mov	r2, r1
 2624 0004 0146     		mov	r1, r0
 2625              	.LVL387:
 2626 0006 0020     		movs	r0, #0
 2627              	.LVL388:
 2628 0008 FFF7FEFF 		bl	lc3_hr_delay_samples
 2629              	.LVL389:
 178:..\..\..\liblc3\src/lc3.c **** 
 2630              		.loc 1 178 0
 2631 000c 08BD     		pop	{r3, pc}
 2632              		.cfi_endproc
 2633              	.LFE31:
 2634              		.size	lc3_delay_samples, .-lc3_delay_samples
 2635 000e 00BF     		.section	.text.lc3_hr_encoder_size,"ax",%progbits
 2636              		.align	2
 2637              		.global	lc3_hr_encoder_size
 2638              		.thumb
 2639              		.thumb_func
 2640              		.type	lc3_hr_encoder_size, %function
 2641              	lc3_hr_encoder_size:
 2642              	.LFB38:
 372:..\..\..\liblc3\src/lc3.c ****     if (resolve_dt(dt_us, hrmode) >= LC3_NUM_DT ||
 2643              		.loc 1 372 0
 2644              		.cfi_startproc
 2645              		@ args = 0, pretend = 0, frame = 0
 2646              		@ frame_needed = 0, uses_anonymous_args = 0
 2647              	.LVL390:
 2648 0000 70B5     		push	{r4, r5, r6, lr}
 2649              		.cfi_def_cfa_offset 16
 2650              		.cfi_offset 4, -16
 2651              		.cfi_offset 5, -12
 2652              		.cfi_offset 6, -8
 2653              		.cfi_offset 14, -4
 2654 0002 0646     		mov	r6, r0
 2655 0004 0D46     		mov	r5, r1
 2656 0006 1446     		mov	r4, r2
 373:..\..\..\liblc3\src/lc3.c ****         resolve_srate(sr_hz, hrmode) >= LC3_NUM_SRATE)
 2657              		.loc 1 373 0
 2658 0008 0146     		mov	r1, r0
 2659              	.LVL391:
ARM GAS  C:\Users\rdn\AppData\Local\Temp\ccCxUcqe.s 			page 70


 2660 000a 2846     		mov	r0, r5
 2661              	.LVL392:
 2662 000c FFF7FEFF 		bl	resolve_dt
 2663              	.LVL393:
 2664 0010 0328     		cmp	r0, #3
 2665 0012 34D8     		bhi	.L211
 374:..\..\..\liblc3\src/lc3.c ****         return 0;
 2666              		.loc 1 374 0 discriminator 1
 2667 0014 3146     		mov	r1, r6
 2668 0016 2046     		mov	r0, r4
 2669 0018 FFF7FEFF 		bl	resolve_srate
 2670              	.LVL394:
 373:..\..\..\liblc3\src/lc3.c ****         resolve_srate(sr_hz, hrmode) >= LC3_NUM_SRATE)
 2671              		.loc 1 373 0 discriminator 1
 2672 001c 0628     		cmp	r0, #6
 2673 001e 30D8     		bhi	.L212
 378:..\..\..\liblc3\src/lc3.c **** }
 2674              		.loc 1 378 0
 2675 0020 04FB05F1 		mul	r1, r4, r5
 2676 0024 184B     		ldr	r3, .L215
 2677 0026 83FB0120 		smull	r2, r0, r3, r1
 2678 002a C917     		asrs	r1, r1, #31
 2679 002c C1EBA046 		rsb	r6, r1, r0, asr #18
 2680 0030 40F2E242 		movw	r2, #1250
 2681 0034 02FB04F2 		mul	r2, r2, r4
 2682 0038 83FB02E3 		smull	lr, r3, r3, r2
 2683 003c D217     		asrs	r2, r2, #31
 2684 003e C2EBA343 		rsb	r3, r2, r3, asr #18
 2685 0042 3344     		add	r3, r3, r6
 2686 0044 03EBD373 		add	r3, r3, r3, lsr #31
 2687 0048 06EB6303 		add	r3, r6, r3, asr #1
 2688 004c C1EBE041 		rsb	r1, r1, r0, asr #19
 2689 0050 41F64C52 		movw	r2, #7500
 2690 0054 9542     		cmp	r5, r2
 2691 0056 02D1     		bne	.L213
 2692 0058 4FF4FA62 		mov	r2, #2000
 2693 005c 01E0     		b	.L210
 2694              	.L213:
 2695 005e 40F2E242 		movw	r2, #1250
 2696              	.L210:
 378:..\..\..\liblc3\src/lc3.c **** }
 2697              		.loc 1 378 0 is_stmt 0 discriminator 4
 2698 0062 04FB02F4 		mul	r4, r4, r2
 2699              	.LVL395:
 2700 0066 0848     		ldr	r0, .L215
 2701 0068 80FB0420 		smull	r2, r0, r0, r4
 2702 006c E417     		asrs	r4, r4, #31
 2703 006e C4EBA044 		rsb	r4, r4, r0, asr #18
 2704 0072 0C44     		add	r4, r4, r1
 2705 0074 1819     		adds	r0, r3, r4
 377:..\..\..\liblc3\src/lc3.c ****         (LC3_ENCODER_BUFFER_COUNT(dt_us, sr_hz)-1) * sizeof(float);
 2706              		.loc 1 377 0 is_stmt 1 discriminator 4
 2707 0076 00F22B10 		addw	r0, r0, #299
 2708 007a 8000     		lsls	r0, r0, #2
 2709 007c 70BD     		pop	{r4, r5, r6, pc}
 2710              	.LVL396:
 2711              	.L211:
ARM GAS  C:\Users\rdn\AppData\Local\Temp\ccCxUcqe.s 			page 71


 375:..\..\..\liblc3\src/lc3.c **** 
 2712              		.loc 1 375 0
 2713 007e 0020     		movs	r0, #0
 2714 0080 70BD     		pop	{r4, r5, r6, pc}
 2715              	.LVL397:
 2716              	.L212:
 2717 0082 0020     		movs	r0, #0
 379:..\..\..\liblc3\src/lc3.c **** 
 2718              		.loc 1 379 0
 2719 0084 70BD     		pop	{r4, r5, r6, pc}
 2720              	.LVL398:
 2721              	.L216:
 2722 0086 00BF     		.align	2
 2723              	.L215:
 2724 0088 83DE1B43 		.word	1125899907
 2725              		.cfi_endproc
 2726              	.LFE38:
 2727              		.size	lc3_hr_encoder_size, .-lc3_hr_encoder_size
 2728              		.section	.text.lc3_encoder_size,"ax",%progbits
 2729              		.align	2
 2730              		.global	lc3_encoder_size
 2731              		.thumb
 2732              		.thumb_func
 2733              		.type	lc3_encoder_size, %function
 2734              	lc3_encoder_size:
 2735              	.LFB39:
 382:..\..\..\liblc3\src/lc3.c ****     return lc3_hr_encoder_size(false, dt_us, sr_hz);
 2736              		.loc 1 382 0
 2737              		.cfi_startproc
 2738              		@ args = 0, pretend = 0, frame = 0
 2739              		@ frame_needed = 0, uses_anonymous_args = 0
 2740              	.LVL399:
 2741 0000 08B5     		push	{r3, lr}
 2742              		.cfi_def_cfa_offset 8
 2743              		.cfi_offset 3, -8
 2744              		.cfi_offset 14, -4
 383:..\..\..\liblc3\src/lc3.c **** }
 2745              		.loc 1 383 0
 2746 0002 0A46     		mov	r2, r1
 2747 0004 0146     		mov	r1, r0
 2748              	.LVL400:
 2749 0006 0020     		movs	r0, #0
 2750              	.LVL401:
 2751 0008 FFF7FEFF 		bl	lc3_hr_encoder_size
 2752              	.LVL402:
 384:..\..\..\liblc3\src/lc3.c **** 
 2753              		.loc 1 384 0
 2754 000c 08BD     		pop	{r3, pc}
 2755              		.cfi_endproc
 2756              	.LFE39:
 2757              		.size	lc3_encoder_size, .-lc3_encoder_size
 2758 000e 00BF     		.section	.text.lc3_hr_setup_encoder,"ax",%progbits
 2759              		.align	2
 2760              		.global	lc3_hr_setup_encoder
 2761              		.thumb
 2762              		.thumb_func
 2763              		.type	lc3_hr_setup_encoder, %function
ARM GAS  C:\Users\rdn\AppData\Local\Temp\ccCxUcqe.s 			page 72


 2764              	lc3_hr_setup_encoder:
 2765              	.LFB40:
 391:..\..\..\liblc3\src/lc3.c ****     if (sr_pcm_hz <= 0)
 2766              		.loc 1 391 0
 2767              		.cfi_startproc
 2768              		@ args = 4, pretend = 0, frame = 8
 2769              		@ frame_needed = 0, uses_anonymous_args = 0
 2770              	.LVL403:
 2771 0000 2DE9F04F 		push	{r4, r5, r6, r7, r8, r9, r10, fp, lr}
 2772              		.cfi_def_cfa_offset 36
 2773              		.cfi_offset 4, -36
 2774              		.cfi_offset 5, -32
 2775              		.cfi_offset 6, -28
 2776              		.cfi_offset 7, -24
 2777              		.cfi_offset 8, -20
 2778              		.cfi_offset 9, -16
 2779              		.cfi_offset 10, -12
 2780              		.cfi_offset 11, -8
 2781              		.cfi_offset 14, -4
 2782 0004 83B0     		sub	sp, sp, #12
 2783              		.cfi_def_cfa_offset 48
 2784 0006 0546     		mov	r5, r0
 2785 0008 8A46     		mov	r10, r1
 2786 000a 1646     		mov	r6, r2
 2787 000c 0C9C     		ldr	r4, [sp, #48]
 392:..\..\..\liblc3\src/lc3.c ****         sr_pcm_hz = sr_hz;
 2788              		.loc 1 392 0
 2789 000e 1F1E     		subs	r7, r3, #0
 2790 0010 00DC     		bgt	.L220
 393:..\..\..\liblc3\src/lc3.c **** 
 2791              		.loc 1 393 0
 2792 0012 1746     		mov	r7, r2
 2793              	.L220:
 2794              	.LVL404:
 395:..\..\..\liblc3\src/lc3.c ****     enum lc3_srate sr = resolve_srate(sr_hz, hrmode);
 2795              		.loc 1 395 0
 2796 0014 2946     		mov	r1, r5
 2797              	.LVL405:
 2798 0016 5046     		mov	r0, r10
 2799              	.LVL406:
 2800 0018 FFF7FEFF 		bl	resolve_dt
 2801              	.LVL407:
 2802 001c 8346     		mov	fp, r0
 2803              	.LVL408:
 396:..\..\..\liblc3\src/lc3.c ****     enum lc3_srate sr_pcm = resolve_srate(sr_pcm_hz, hrmode);
 2804              		.loc 1 396 0
 2805 001e 2946     		mov	r1, r5
 2806 0020 3046     		mov	r0, r6
 2807 0022 FFF7FEFF 		bl	resolve_srate
 2808              	.LVL409:
 2809 0026 0646     		mov	r6, r0
 2810              	.LVL410:
 397:..\..\..\liblc3\src/lc3.c **** 
 2811              		.loc 1 397 0
 2812 0028 2946     		mov	r1, r5
 2813 002a 3846     		mov	r0, r7
 2814 002c FFF7FEFF 		bl	resolve_srate
ARM GAS  C:\Users\rdn\AppData\Local\Temp\ccCxUcqe.s 			page 73


 2815              	.LVL411:
 2816 0030 8046     		mov	r8, r0
 2817              	.LVL412:
 399:..\..\..\liblc3\src/lc3.c ****         return NULL;
 2818              		.loc 1 399 0
 2819 0032 BBF1030F 		cmp	fp, #3
 2820 0036 59D8     		bhi	.L224
 399:..\..\..\liblc3\src/lc3.c ****         return NULL;
 2821              		.loc 1 399 0 is_stmt 0 discriminator 1
 2822 0038 0628     		cmp	r0, #6
 2823 003a 59D8     		bhi	.L225
 399:..\..\..\liblc3\src/lc3.c ****         return NULL;
 2824              		.loc 1 399 0 discriminator 2
 2825 003c 0196     		str	r6, [sp, #4]
 2826 003e 8642     		cmp	r6, r0
 2827 0040 58D8     		bhi	.L226
 399:..\..\..\liblc3\src/lc3.c ****         return NULL;
 2828              		.loc 1 399 0 discriminator 3
 2829 0042 002C     		cmp	r4, #0
 2830 0044 58D0     		beq	.L227
 2831              	.LVL413:
 2832              	.LBB209:
 2833              	.LBB210:
  47:..\..\..\liblc3\src/tables.h **** }
 2834              		.loc 2 47 0 is_stmt 1
 2835 0046 2E4B     		ldr	r3, .L230
 2836 0048 53F82060 		ldr	r6, [r3, r0, lsl #2]
 2837              	.LVL414:
 2838 004c 0BFB0669 		mla	r9, fp, r6, r6
 2839              	.LVL415:
 2840              	.LBE210:
 2841              	.LBE209:
 2842              	.LBB211:
 2843              	.LBB212:
  65:..\..\..\liblc3\src/tables.h **** }
 2844              		.loc 2 65 0
 2845 0050 7610     		asrs	r6, r6, #1
 2846              	.LVL416:
 2847              	.LBE212:
 2848              	.LBE211:
 411:..\..\..\liblc3\src/lc3.c ****         .xd_off = (nt + ns) / 2 + ns,
 2849              		.loc 1 411 0
 2850 0052 06EB0905 		add	r5, r6, r9
 412:..\..\..\liblc3\src/lc3.c ****     };
 2851              		.loc 1 412 0
 2852 0056 05EBD575 		add	r5, r5, r5, lsr #31
 2853 005a 6D10     		asrs	r5, r5, #1
 2854 005c A944     		add	r9, r9, r5
 406:..\..\..\liblc3\src/lc3.c ****         .dt = dt, .sr = sr,
 2855              		.loc 1 406 0
 2856 005e 4FF49662 		mov	r2, #1200
 2857 0062 0021     		movs	r1, #0
 2858 0064 2046     		mov	r0, r4
 2859              	.LVL417:
 2860 0066 FFF7FEFF 		bl	memset
 2861              	.LVL418:
 2862 006a 84F800B0 		strb	fp, [r4]
ARM GAS  C:\Users\rdn\AppData\Local\Temp\ccCxUcqe.s 			page 74


 2863 006e 9DF80430 		ldrb	r3, [sp, #4]	@ zero_extendqisi2
 2864 0072 6370     		strb	r3, [r4, #1]
 2865 0074 84F80280 		strb	r8, [r4, #2]
 2866 0078 C4F8A064 		str	r6, [r4, #1184]
 2867 007c C4F8A454 		str	r5, [r4, #1188]
 2868 0080 C4F8A894 		str	r9, [r4, #1192]
 415:..\..\..\liblc3\src/lc3.c ****         LC3_ENCODER_BUFFER_COUNT(dt_us, sr_pcm_hz) * sizeof(float));
 2869              		.loc 1 415 0
 2870 0084 04F2AC40 		addw	r0, r4, #1196
 416:..\..\..\liblc3\src/lc3.c **** 
 2871              		.loc 1 416 0
 2872 0088 0AFB07F5 		mul	r5, r10, r7
 2873 008c 1D4E     		ldr	r6, .L230+4
 2874 008e 86FB0532 		smull	r3, r2, r6, r5
 2875 0092 ED17     		asrs	r5, r5, #31
 2876 0094 C5EBA24E 		rsb	lr, r5, r2, asr #18
 2877 0098 40F2E241 		movw	r1, #1250
 2878 009c 01FB07F1 		mul	r1, r1, r7
 2879 00a0 86FB0163 		smull	r6, r3, r6, r1
 2880 00a4 C917     		asrs	r1, r1, #31
 2881 00a6 C1EBA341 		rsb	r1, r1, r3, asr #18
 2882 00aa 0EEB0103 		add	r3, lr, r1
 2883 00ae 03EBD373 		add	r3, r3, r3, lsr #31
 2884 00b2 0EEB6303 		add	r3, lr, r3, asr #1
 2885 00b6 C5EBE245 		rsb	r5, r5, r2, asr #19
 2886 00ba 41F64C52 		movw	r2, #7500
 2887 00be 9245     		cmp	r10, r2
 2888 00c0 02D1     		bne	.L228
 2889 00c2 4FF4FA61 		mov	r1, #2000
 2890 00c6 01E0     		b	.L222
 2891              	.L228:
 2892 00c8 40F2E241 		movw	r1, #1250
 2893              	.L222:
 416:..\..\..\liblc3\src/lc3.c **** 
 2894              		.loc 1 416 0 is_stmt 0 discriminator 4
 2895 00cc 01FB07F7 		mul	r7, r1, r7
 2896              	.LVL419:
 2897 00d0 0C4A     		ldr	r2, .L230+4
 2898 00d2 82FB0712 		smull	r1, r2, r2, r7
 2899 00d6 FF17     		asrs	r7, r7, #31
 2900 00d8 C7EBA247 		rsb	r7, r7, r2, asr #18
 2901 00dc EA19     		adds	r2, r5, r7
 2902 00de 1A44     		add	r2, r2, r3
 415:..\..\..\liblc3\src/lc3.c ****         LC3_ENCODER_BUFFER_COUNT(dt_us, sr_pcm_hz) * sizeof(float));
 2903              		.loc 1 415 0 is_stmt 1 discriminator 4
 2904 00e0 9200     		lsls	r2, r2, #2
 2905 00e2 0021     		movs	r1, #0
 2906 00e4 FFF7FEFF 		bl	memset
 2907              	.LVL420:
 418:..\..\..\liblc3\src/lc3.c **** }
 2908              		.loc 1 418 0 discriminator 4
 2909 00e8 2046     		mov	r0, r4
 2910 00ea 06E0     		b	.L221
 2911              	.LVL421:
 2912              	.L224:
 400:..\..\..\liblc3\src/lc3.c **** 
 2913              		.loc 1 400 0
ARM GAS  C:\Users\rdn\AppData\Local\Temp\ccCxUcqe.s 			page 75


 2914 00ec 0020     		movs	r0, #0
 2915              	.LVL422:
 2916 00ee 04E0     		b	.L221
 2917              	.LVL423:
 2918              	.L225:
 2919 00f0 0020     		movs	r0, #0
 2920              	.LVL424:
 2921 00f2 02E0     		b	.L221
 2922              	.LVL425:
 2923              	.L226:
 2924 00f4 0020     		movs	r0, #0
 2925              	.LVL426:
 2926 00f6 00E0     		b	.L221
 2927              	.LVL427:
 2928              	.L227:
 2929 00f8 0020     		movs	r0, #0
 2930              	.LVL428:
 2931              	.L221:
 419:..\..\..\liblc3\src/lc3.c **** 
 2932              		.loc 1 419 0
 2933 00fa 03B0     		add	sp, sp, #12
 2934              		.cfi_def_cfa_offset 36
 2935              		@ sp needed
 2936 00fc BDE8F08F 		pop	{r4, r5, r6, r7, r8, r9, r10, fp, pc}
 2937              	.LVL429:
 2938              	.L231:
 2939              		.align	2
 2940              	.L230:
 2941 0100 00000000 		.word	lc3_ns_2m5
 2942 0104 83DE1B43 		.word	1125899907
 2943              		.cfi_endproc
 2944              	.LFE40:
 2945              		.size	lc3_hr_setup_encoder, .-lc3_hr_setup_encoder
 2946              		.section	.text.lc3_setup_encoder,"ax",%progbits
 2947              		.align	2
 2948              		.global	lc3_setup_encoder
 2949              		.thumb
 2950              		.thumb_func
 2951              		.type	lc3_setup_encoder, %function
 2952              	lc3_setup_encoder:
 2953              	.LFB41:
 423:..\..\..\liblc3\src/lc3.c ****     return lc3_hr_setup_encoder(false, dt_us, sr_hz, sr_pcm_hz, mem);
 2954              		.loc 1 423 0
 2955              		.cfi_startproc
 2956              		@ args = 0, pretend = 0, frame = 0
 2957              		@ frame_needed = 0, uses_anonymous_args = 0
 2958              	.LVL430:
 2959 0000 00B5     		push	{lr}
 2960              		.cfi_def_cfa_offset 4
 2961              		.cfi_offset 14, -4
 2962 0002 83B0     		sub	sp, sp, #12
 2963              		.cfi_def_cfa_offset 16
 424:..\..\..\liblc3\src/lc3.c **** }
 2964              		.loc 1 424 0
 2965 0004 0093     		str	r3, [sp]
 2966 0006 1346     		mov	r3, r2
 2967              	.LVL431:
ARM GAS  C:\Users\rdn\AppData\Local\Temp\ccCxUcqe.s 			page 76


 2968 0008 0A46     		mov	r2, r1
 2969              	.LVL432:
 2970 000a 0146     		mov	r1, r0
 2971              	.LVL433:
 2972 000c 0020     		movs	r0, #0
 2973              	.LVL434:
 2974 000e FFF7FEFF 		bl	lc3_hr_setup_encoder
 2975              	.LVL435:
 425:..\..\..\liblc3\src/lc3.c **** 
 2976              		.loc 1 425 0
 2977 0012 03B0     		add	sp, sp, #12
 2978              		.cfi_def_cfa_offset 4
 2979              		@ sp needed
 2980 0014 5DF804FB 		ldr	pc, [sp], #4
 2981              		.cfi_endproc
 2982              	.LFE41:
 2983              		.size	lc3_setup_encoder, .-lc3_setup_encoder
 2984              		.section	.text.lc3_encode,"ax",%progbits
 2985              		.align	2
 2986              		.global	lc3_encode
 2987              		.thumb
 2988              		.thumb_func
 2989              		.type	lc3_encode, %function
 2990              	lc3_encode:
 2991              	.LFB42:
 432:..\..\..\liblc3\src/lc3.c ****     static void (* const load[])(struct lc3_encoder *, const void *, int) = {
 2992              		.loc 1 432 0
 2993              		.cfi_startproc
 2994              		@ args = 8, pretend = 0, frame = 136
 2995              		@ frame_needed = 0, uses_anonymous_args = 0
 2996              	.LVL436:
 2997 0000 F0B5     		push	{r4, r5, r6, r7, lr}
 2998              		.cfi_def_cfa_offset 20
 2999              		.cfi_offset 4, -20
 3000              		.cfi_offset 5, -16
 3001              		.cfi_offset 6, -12
 3002              		.cfi_offset 7, -8
 3003              		.cfi_offset 14, -4
 3004 0002 A3B0     		sub	sp, sp, #140
 3005              		.cfi_def_cfa_offset 160
 3006 0004 289D     		ldr	r5, [sp, #160]
 442:..\..\..\liblc3\src/lc3.c ****                  || nbytes > lc3_max_frame_bytes(encoder->dt, encoder->sr))
 3007              		.loc 1 442 0
 3008 0006 90B3     		cbz	r0, .L238
 3009 0008 0446     		mov	r4, r0
 442:..\..\..\liblc3\src/lc3.c ****                  || nbytes > lc3_max_frame_bytes(encoder->dt, encoder->sr))
 3010              		.loc 1 442 0 is_stmt 0 discriminator 1
 3011 000a 0778     		ldrb	r7, [r0]	@ zero_extendqisi2
 3012 000c 4078     		ldrb	r0, [r0, #1]	@ zero_extendqisi2
 3013              	.LVL437:
 3014              	.LBB213:
 3015              	.LBB214:
  82:..\..\..\liblc3\src/tables.h ****         lc3_frame_bytes_hr_lim[dt][sr - LC3_SRATE_48K_HR][0];
 3016              		.loc 2 82 0 is_stmt 1 discriminator 1
 3017 000e 0428     		cmp	r0, #4
 3018 0010 07D9     		bls	.L239
  83:..\..\..\liblc3\src/tables.h **** }
ARM GAS  C:\Users\rdn\AppData\Local\Temp\ccCxUcqe.s 			page 77


 3019              		.loc 2 83 0
 3020 0012 461F     		subs	r6, r0, #5
  82:..\..\..\liblc3\src/tables.h ****         lc3_frame_bytes_hr_lim[dt][sr - LC3_SRATE_48K_HR][0];
 3021              		.loc 2 82 0
 3022 0014 06EB4706 		add	r6, r6, r7, lsl #1
 3023 0018 DFF868E0 		ldr	lr, .L244
 3024 001c 5EF83660 		ldr	r6, [lr, r6, lsl #3]
 3025 0020 00E0     		b	.L236
 3026              	.L239:
 3027 0022 1426     		movs	r6, #20
 3028              	.L236:
 3029              	.LVL438:
 3030              	.LBE214:
 3031              	.LBE213:
 442:..\..\..\liblc3\src/lc3.c ****                  || nbytes > lc3_max_frame_bytes(encoder->dt, encoder->sr))
 3032              		.loc 1 442 0
 3033 0024 B542     		cmp	r5, r6
 3034 0026 25DB     		blt	.L240
 3035              	.LVL439:
 3036              	.LBB215:
 3037              	.LBB216:
  87:..\..\..\liblc3\src/tables.h ****         lc3_frame_bytes_hr_lim[dt][sr - LC3_SRATE_48K_HR][1];
 3038              		.loc 2 87 0
 3039 0028 0428     		cmp	r0, #4
 3040 002a 07D9     		bls	.L241
 3041              		.loc 2 88 0
 3042 002c 0538     		subs	r0, r0, #5
 3043              	.LVL440:
  87:..\..\..\liblc3\src/tables.h ****         lc3_frame_bytes_hr_lim[dt][sr - LC3_SRATE_48K_HR][1];
 3044              		.loc 2 87 0
 3045 002e 00EB4700 		add	r0, r0, r7, lsl #1
 3046              	.LVL441:
 3047 0032 144E     		ldr	r6, .L244
 3048 0034 06EBC000 		add	r0, r6, r0, lsl #3
 3049 0038 4068     		ldr	r0, [r0, #4]
 3050 003a 01E0     		b	.L237
 3051              	.LVL442:
 3052              	.L241:
 3053 003c 4FF4C870 		mov	r0, #400
 3054              	.LVL443:
 3055              	.L237:
 3056              	.LBE216:
 3057              	.LBE215:
 443:..\..\..\liblc3\src/lc3.c ****         return -1;
 3058              		.loc 1 443 0
 3059 0040 8542     		cmp	r5, r0
 3060 0042 1ADC     		bgt	.L242
 3061 0044 1046     		mov	r0, r2
 450:..\..\..\liblc3\src/lc3.c **** 
 3062              		.loc 1 450 0
 3063 0046 104A     		ldr	r2, .L244+4
 3064              	.LVL444:
 3065 0048 52F82160 		ldr	r6, [r2, r1, lsl #2]
 3066 004c 1A46     		mov	r2, r3
 3067 004e 0146     		mov	r1, r0
 3068              	.LVL445:
 3069 0050 2046     		mov	r0, r4
ARM GAS  C:\Users\rdn\AppData\Local\Temp\ccCxUcqe.s 			page 78


 3070              	.LVL446:
 3071 0052 B047     		blx	r6
 3072              	.LVL447:
 452:..\..\..\liblc3\src/lc3.c **** 
 3073              		.loc 1 452 0
 3074 0054 01AA     		add	r2, sp, #4
 3075 0056 2946     		mov	r1, r5
 3076 0058 2046     		mov	r0, r4
 3077 005a FFF7FEFF 		bl	analyze
 3078              	.LVL448:
 454:..\..\..\liblc3\src/lc3.c **** 
 3079              		.loc 1 454 0
 3080 005e 299B     		ldr	r3, [sp, #164]
 3081 0060 2A46     		mov	r2, r5
 3082 0062 01A9     		add	r1, sp, #4
 3083 0064 2046     		mov	r0, r4
 3084 0066 FFF7FEFF 		bl	encode
 3085              	.LVL449:
 456:..\..\..\liblc3\src/lc3.c **** }
 3086              		.loc 1 456 0
 3087 006a 0020     		movs	r0, #0
 3088 006c 07E0     		b	.L235
 3089              	.LVL450:
 3090              	.L238:
 444:..\..\..\liblc3\src/lc3.c **** 
 3091              		.loc 1 444 0
 3092 006e 4FF0FF30 		mov	r0, #-1
 3093              	.LVL451:
 3094 0072 04E0     		b	.L235
 3095              	.LVL452:
 3096              	.L240:
 3097 0074 4FF0FF30 		mov	r0, #-1
 3098 0078 01E0     		b	.L235
 3099              	.L242:
 3100 007a 4FF0FF30 		mov	r0, #-1
 3101              	.LVL453:
 3102              	.L235:
 457:..\..\..\liblc3\src/lc3.c **** 
 3103              		.loc 1 457 0
 3104 007e 23B0     		add	sp, sp, #140
 3105              		.cfi_def_cfa_offset 20
 3106              		@ sp needed
 3107 0080 F0BD     		pop	{r4, r5, r6, r7, pc}
 3108              	.LVL454:
 3109              	.L245:
 3110 0082 00BF     		.align	2
 3111              	.L244:
 3112 0084 00000000 		.word	lc3_frame_bytes_hr_lim
 3113 0088 00000000 		.word	.LANCHOR0
 3114              		.cfi_endproc
 3115              	.LFE42:
 3116              		.size	lc3_encode, .-lc3_encode
 3117              		.section	.text.lc3_hr_decoder_size,"ax",%progbits
 3118              		.align	2
 3119              		.global	lc3_hr_decoder_size
 3120              		.thumb
 3121              		.thumb_func
ARM GAS  C:\Users\rdn\AppData\Local\Temp\ccCxUcqe.s 			page 79


 3122              		.type	lc3_hr_decoder_size, %function
 3123              	lc3_hr_decoder_size:
 3124              	.LFB50:
 667:..\..\..\liblc3\src/lc3.c **** 
 668:..\..\..\liblc3\src/lc3.c **** /**
 669:..\..\..\liblc3\src/lc3.c ****  * Return size needed for a decoder
 670:..\..\..\liblc3\src/lc3.c ****  */
 671:..\..\..\liblc3\src/lc3.c **** LC3_EXPORT unsigned lc3_hr_decoder_size(bool hrmode, int dt_us, int sr_hz)
 672:..\..\..\liblc3\src/lc3.c **** {
 3125              		.loc 1 672 0
 3126              		.cfi_startproc
 3127              		@ args = 0, pretend = 0, frame = 0
 3128              		@ frame_needed = 0, uses_anonymous_args = 0
 3129              	.LVL455:
 3130 0000 70B5     		push	{r4, r5, r6, lr}
 3131              		.cfi_def_cfa_offset 16
 3132              		.cfi_offset 4, -16
 3133              		.cfi_offset 5, -12
 3134              		.cfi_offset 6, -8
 3135              		.cfi_offset 14, -4
 3136 0002 0646     		mov	r6, r0
 3137 0004 0D46     		mov	r5, r1
 3138 0006 1446     		mov	r4, r2
 673:..\..\..\liblc3\src/lc3.c ****     if (resolve_dt(dt_us, hrmode) >= LC3_NUM_DT ||
 3139              		.loc 1 673 0
 3140 0008 0146     		mov	r1, r0
 3141              	.LVL456:
 3142 000a 2846     		mov	r0, r5
 3143              	.LVL457:
 3144 000c FFF7FEFF 		bl	resolve_dt
 3145              	.LVL458:
 3146 0010 0328     		cmp	r0, #3
 3147 0012 44D8     		bhi	.L250
 674:..\..\..\liblc3\src/lc3.c ****         resolve_srate(sr_hz, hrmode) >= LC3_NUM_SRATE)
 3148              		.loc 1 674 0 discriminator 1
 3149 0014 3146     		mov	r1, r6
 3150 0016 2046     		mov	r0, r4
 3151 0018 FFF7FEFF 		bl	resolve_srate
 3152              	.LVL459:
 673:..\..\..\liblc3\src/lc3.c ****     if (resolve_dt(dt_us, hrmode) >= LC3_NUM_DT ||
 3153              		.loc 1 673 0 discriminator 1
 3154 001c 0628     		cmp	r0, #6
 3155 001e 40D8     		bhi	.L251
 675:..\..\..\liblc3\src/lc3.c ****         return 0;
 676:..\..\..\liblc3\src/lc3.c **** 
 677:..\..\..\liblc3\src/lc3.c ****     return sizeof(struct lc3_decoder) +
 678:..\..\..\liblc3\src/lc3.c ****         (LC3_DECODER_BUFFER_COUNT(dt_us, sr_hz)-1) * sizeof(float);
 3156              		.loc 1 678 0
 3157 0020 4BF68033 		movw	r3, #48000
 3158 0024 9C42     		cmp	r4, r3
 3159 0026 17DC     		bgt	.L252
 3160              		.loc 1 678 0 is_stmt 0 discriminator 1
 3161 0028 44F25062 		movw	r2, #18000
 3162 002c 02FB04F2 		mul	r2, r2, r4
 3163 0030 1D49     		ldr	r1, .L255
 3164 0032 81FB0203 		smull	r0, r3, r1, r2
 3165 0036 D217     		asrs	r2, r2, #31
ARM GAS  C:\Users\rdn\AppData\Local\Temp\ccCxUcqe.s 			page 80


 3166 0038 C2EBA343 		rsb	r3, r2, r3, asr #18
 3167 003c 04FB05F0 		mul	r0, r4, r5
 3168 0040 81FB0012 		smull	r1, r2, r1, r0
 3169 0044 C017     		asrs	r0, r0, #31
 3170 0046 C0EBA242 		rsb	r2, r0, r2, asr #18
 3171 004a 9818     		adds	r0, r3, r2
 3172 004c 93FBF2F1 		sdiv	r1, r3, r2
 3173 0050 02FB1131 		mls	r1, r2, r1, r3
 3174 0054 411A     		subs	r1, r0, r1
 3175 0056 00E0     		b	.L248
 3176              	.L252:
 3177              		.loc 1 678 0
 3178 0058 0021     		movs	r1, #0
 3179              	.L248:
 3180              		.loc 1 678 0 discriminator 4
 3181 005a 04FB05F3 		mul	r3, r4, r5
 3182 005e 124A     		ldr	r2, .L255
 3183 0060 82FB0302 		smull	r0, r2, r2, r3
 3184 0064 DB17     		asrs	r3, r3, #31
 3185 0066 C3EBA240 		rsb	r0, r3, r2, asr #18
 3186 006a 0144     		add	r1, r1, r0
 3187 006c C3EBE242 		rsb	r2, r3, r2, asr #19
 3188 0070 41F64C53 		movw	r3, #7500
 3189 0074 9D42     		cmp	r5, r3
 3190 0076 02D1     		bne	.L253
 3191              		.loc 1 678 0
 3192 0078 4FF4FA63 		mov	r3, #2000
 3193 007c 01E0     		b	.L249
 3194              	.L253:
 3195 007e 40F2E243 		movw	r3, #1250
 3196              	.L249:
 3197              		.loc 1 678 0 discriminator 8
 3198 0082 04FB03F4 		mul	r4, r4, r3
 3199              	.LVL460:
 3200 0086 084B     		ldr	r3, .L255
 3201 0088 83FB0435 		smull	r3, r5, r3, r4
 3202              	.LVL461:
 3203 008c E317     		asrs	r3, r4, #31
 3204 008e C3EBA543 		rsb	r3, r3, r5, asr #18
 3205 0092 D418     		adds	r4, r2, r3
 3206 0094 0C44     		add	r4, r4, r1
 3207 0096 2044     		add	r0, r0, r4
 677:..\..\..\liblc3\src/lc3.c ****         (LC3_DECODER_BUFFER_COUNT(dt_us, sr_hz)-1) * sizeof(float);
 3208              		.loc 1 677 0 is_stmt 1 discriminator 8
 3209 0098 2E30     		adds	r0, r0, #46
 3210 009a 8000     		lsls	r0, r0, #2
 3211 009c 70BD     		pop	{r4, r5, r6, pc}
 3212              	.LVL462:
 3213              	.L250:
 675:..\..\..\liblc3\src/lc3.c ****         return 0;
 3214              		.loc 1 675 0
 3215 009e 0020     		movs	r0, #0
 3216 00a0 70BD     		pop	{r4, r5, r6, pc}
 3217              	.LVL463:
 3218              	.L251:
 3219 00a2 0020     		movs	r0, #0
 679:..\..\..\liblc3\src/lc3.c **** }
ARM GAS  C:\Users\rdn\AppData\Local\Temp\ccCxUcqe.s 			page 81


 3220              		.loc 1 679 0
 3221 00a4 70BD     		pop	{r4, r5, r6, pc}
 3222              	.LVL464:
 3223              	.L256:
 3224 00a6 00BF     		.align	2
 3225              	.L255:
 3226 00a8 83DE1B43 		.word	1125899907
 3227              		.cfi_endproc
 3228              	.LFE50:
 3229              		.size	lc3_hr_decoder_size, .-lc3_hr_decoder_size
 3230              		.section	.text.lc3_decoder_size,"ax",%progbits
 3231              		.align	2
 3232              		.global	lc3_decoder_size
 3233              		.thumb
 3234              		.thumb_func
 3235              		.type	lc3_decoder_size, %function
 3236              	lc3_decoder_size:
 3237              	.LFB51:
 680:..\..\..\liblc3\src/lc3.c **** 
 681:..\..\..\liblc3\src/lc3.c **** LC3_EXPORT unsigned lc3_decoder_size(int dt_us, int sr_hz)
 682:..\..\..\liblc3\src/lc3.c **** {
 3238              		.loc 1 682 0
 3239              		.cfi_startproc
 3240              		@ args = 0, pretend = 0, frame = 0
 3241              		@ frame_needed = 0, uses_anonymous_args = 0
 3242              	.LVL465:
 3243 0000 08B5     		push	{r3, lr}
 3244              		.cfi_def_cfa_offset 8
 3245              		.cfi_offset 3, -8
 3246              		.cfi_offset 14, -4
 683:..\..\..\liblc3\src/lc3.c ****     return lc3_hr_decoder_size(false, dt_us, sr_hz);
 3247              		.loc 1 683 0
 3248 0002 0A46     		mov	r2, r1
 3249 0004 0146     		mov	r1, r0
 3250              	.LVL466:
 3251 0006 0020     		movs	r0, #0
 3252              	.LVL467:
 3253 0008 FFF7FEFF 		bl	lc3_hr_decoder_size
 3254              	.LVL468:
 684:..\..\..\liblc3\src/lc3.c **** }
 3255              		.loc 1 684 0
 3256 000c 08BD     		pop	{r3, pc}
 3257              		.cfi_endproc
 3258              	.LFE51:
 3259              		.size	lc3_decoder_size, .-lc3_decoder_size
 3260 000e 00BF     		.section	.text.lc3_hr_setup_decoder,"ax",%progbits
 3261              		.align	2
 3262              		.global	lc3_hr_setup_decoder
 3263              		.thumb
 3264              		.thumb_func
 3265              		.type	lc3_hr_setup_decoder, %function
 3266              	lc3_hr_setup_decoder:
 3267              	.LFB52:
 685:..\..\..\liblc3\src/lc3.c **** 
 686:..\..\..\liblc3\src/lc3.c **** /**
 687:..\..\..\liblc3\src/lc3.c ****  * Setup decoder
 688:..\..\..\liblc3\src/lc3.c ****  */
ARM GAS  C:\Users\rdn\AppData\Local\Temp\ccCxUcqe.s 			page 82


 689:..\..\..\liblc3\src/lc3.c **** LC3_EXPORT struct lc3_decoder *lc3_hr_setup_decoder(
 690:..\..\..\liblc3\src/lc3.c ****     bool hrmode, int dt_us, int sr_hz, int sr_pcm_hz, void *mem)
 691:..\..\..\liblc3\src/lc3.c **** {
 3268              		.loc 1 691 0
 3269              		.cfi_startproc
 3270              		@ args = 4, pretend = 0, frame = 8
 3271              		@ frame_needed = 0, uses_anonymous_args = 0
 3272              	.LVL469:
 3273 0000 2DE9F04F 		push	{r4, r5, r6, r7, r8, r9, r10, fp, lr}
 3274              		.cfi_def_cfa_offset 36
 3275              		.cfi_offset 4, -36
 3276              		.cfi_offset 5, -32
 3277              		.cfi_offset 6, -28
 3278              		.cfi_offset 7, -24
 3279              		.cfi_offset 8, -20
 3280              		.cfi_offset 9, -16
 3281              		.cfi_offset 10, -12
 3282              		.cfi_offset 11, -8
 3283              		.cfi_offset 14, -4
 3284 0004 83B0     		sub	sp, sp, #12
 3285              		.cfi_def_cfa_offset 48
 3286 0006 0546     		mov	r5, r0
 3287 0008 8A46     		mov	r10, r1
 3288 000a 1646     		mov	r6, r2
 3289 000c 0C9C     		ldr	r4, [sp, #48]
 692:..\..\..\liblc3\src/lc3.c ****     if (sr_pcm_hz <= 0)
 3290              		.loc 1 692 0
 3291 000e 1F1E     		subs	r7, r3, #0
 3292 0010 00DC     		bgt	.L260
 693:..\..\..\liblc3\src/lc3.c ****         sr_pcm_hz = sr_hz;
 3293              		.loc 1 693 0
 3294 0012 1746     		mov	r7, r2
 3295              	.L260:
 3296              	.LVL470:
 694:..\..\..\liblc3\src/lc3.c **** 
 695:..\..\..\liblc3\src/lc3.c ****     enum lc3_dt dt = resolve_dt(dt_us, hrmode);
 3297              		.loc 1 695 0
 3298 0014 2946     		mov	r1, r5
 3299              	.LVL471:
 3300 0016 5046     		mov	r0, r10
 3301              	.LVL472:
 3302 0018 FFF7FEFF 		bl	resolve_dt
 3303              	.LVL473:
 3304 001c 8046     		mov	r8, r0
 3305              	.LVL474:
 696:..\..\..\liblc3\src/lc3.c ****     enum lc3_srate sr = resolve_srate(sr_hz, hrmode);
 3306              		.loc 1 696 0
 3307 001e 2946     		mov	r1, r5
 3308 0020 3046     		mov	r0, r6
 3309 0022 FFF7FEFF 		bl	resolve_srate
 3310              	.LVL475:
 3311 0026 8146     		mov	r9, r0
 3312 0028 0190     		str	r0, [sp, #4]
 3313              	.LVL476:
 697:..\..\..\liblc3\src/lc3.c ****     enum lc3_srate sr_pcm = resolve_srate(sr_pcm_hz, hrmode);
 3314              		.loc 1 697 0
 3315 002a 2946     		mov	r1, r5
ARM GAS  C:\Users\rdn\AppData\Local\Temp\ccCxUcqe.s 			page 83


 3316 002c 3846     		mov	r0, r7
 3317 002e FFF7FEFF 		bl	resolve_srate
 3318              	.LVL477:
 3319 0032 0646     		mov	r6, r0
 3320              	.LVL478:
 698:..\..\..\liblc3\src/lc3.c **** 
 699:..\..\..\liblc3\src/lc3.c ****     if (dt >= LC3_NUM_DT || sr_pcm >= LC3_NUM_SRATE || sr > sr_pcm || !mem)
 3321              		.loc 1 699 0
 3322 0034 B8F1030F 		cmp	r8, #3
 3323 0038 7DD8     		bhi	.L268
 3324              		.loc 1 699 0 is_stmt 0 discriminator 1
 3325 003a 0628     		cmp	r0, #6
 3326 003c 7DD8     		bhi	.L269
 3327              		.loc 1 699 0 discriminator 2
 3328 003e 8145     		cmp	r9, r0
 3329 0040 7DD8     		bhi	.L270
 3330              		.loc 1 699 0 discriminator 3
 3331 0042 002C     		cmp	r4, #0
 3332 0044 7DD0     		beq	.L271
 3333              	.LVL479:
 3334              	.LBB217:
 3335              	.LBB218:
  60:..\..\..\liblc3\src/tables.h ****         (8 + (dt == LC3_DT_7M5)) * lc3_ns_2m5[sr];
 3336              		.loc 2 60 0 is_stmt 1
 3337 0046 0528     		cmp	r0, #5
 3338 0048 0BD8     		bhi	.L272
  61:..\..\..\liblc3\src/tables.h **** }
 3339              		.loc 2 61 0
 3340 004a B8F1020F 		cmp	r8, #2
 3341 004e 01D1     		bne	.L273
 3342 0050 0922     		movs	r2, #9
 3343 0052 00E0     		b	.L263
 3344              	.L273:
 3345 0054 0822     		movs	r2, #8
 3346              	.L263:
 3347 0056 3D4B     		ldr	r3, .L277
 3348 0058 53F82630 		ldr	r3, [r3, r6, lsl #2]
  60:..\..\..\liblc3\src/tables.h ****         (8 + (dt == LC3_DT_7M5)) * lc3_ns_2m5[sr];
 3349              		.loc 2 60 0
 3350 005c 02FB03FB 		mul	fp, r2, r3
 3351 0060 01E0     		b	.L262
 3352              	.L272:
 3353 0062 4FF0000B 		mov	fp, #0
 3354              	.L262:
 3355              	.LVL480:
 3356              	.LBE218:
 3357              	.LBE217:
 3358              	.LBB219:
 3359              	.LBB220:
  47:..\..\..\liblc3\src/tables.h **** }
 3360              		.loc 2 47 0
 3361 0066 394B     		ldr	r3, .L277
 3362 0068 53F82650 		ldr	r5, [r3, r6, lsl #2]
 3363 006c 08FB0559 		mla	r9, r8, r5, r5
 3364              	.LVL481:
 3365              	.LBE220:
 3366              	.LBE219:
ARM GAS  C:\Users\rdn\AppData\Local\Temp\ccCxUcqe.s 			page 84


 3367              	.LBB221:
 3368              	.LBB222:
  56:..\..\..\liblc3\src/tables.h **** }
 3369              		.loc 2 56 0
 3370 0070 B8F1020F 		cmp	r8, #2
 3371 0074 02D1     		bne	.L264
 3372 0076 364B     		ldr	r3, .L277+4
 3373 0078 53F82650 		ldr	r5, [r3, r6, lsl #2]
 3374              	.L264:
  55:..\..\..\liblc3\src/tables.h ****         (dt == LC3_DT_7M5 ? lc3_ns_4m[sr] : lc3_ns_2m5[sr]) ) >> 1;
 3375              		.loc 2 55 0
 3376 007c 4D44     		add	r5, r5, r9
 3377              	.LVL482:
 3378              	.LBE222:
 3379              	.LBE221:
 700:..\..\..\liblc3\src/lc3.c ****         return NULL;
 701:..\..\..\liblc3\src/lc3.c **** 
 702:..\..\..\liblc3\src/lc3.c ****     struct lc3_decoder *decoder = mem;
 703:..\..\..\liblc3\src/lc3.c ****     int nh = lc3_nh(dt, sr_pcm);
 704:..\..\..\liblc3\src/lc3.c ****     int ns = lc3_ns(dt, sr_pcm);
 705:..\..\..\liblc3\src/lc3.c ****     int nd = lc3_nd(dt, sr_pcm);
 706:..\..\..\liblc3\src/lc3.c **** 
 707:..\..\..\liblc3\src/lc3.c ****     *decoder = (struct lc3_decoder){
 708:..\..\..\liblc3\src/lc3.c ****         .dt = dt, .sr = sr,
 709:..\..\..\liblc3\src/lc3.c ****         .sr_pcm = sr_pcm,
 710:..\..\..\liblc3\src/lc3.c **** 
 711:..\..\..\liblc3\src/lc3.c ****         .xh_off = 0,
 712:..\..\..\liblc3\src/lc3.c ****         .xs_off = nh,
 713:..\..\..\liblc3\src/lc3.c ****         .xd_off = nh + ns,
 714:..\..\..\liblc3\src/lc3.c ****         .xg_off = nh + ns + nd,
 3380              		.loc 1 714 0
 3381 007e D944     		add	r9, r9, fp
 3382 0080 09EB6505 		add	r5, r9, r5, asr #1
 707:..\..\..\liblc3\src/lc3.c ****         .dt = dt, .sr = sr,
 3383              		.loc 1 707 0
 3384 0084 BC22     		movs	r2, #188
 3385 0086 0021     		movs	r1, #0
 3386 0088 2046     		mov	r0, r4
 3387              	.LVL483:
 3388 008a FFF7FEFF 		bl	memset
 3389              	.LVL484:
 3390 008e 84F80080 		strb	r8, [r4]
 3391 0092 9DF80430 		ldrb	r3, [sp, #4]	@ zero_extendqisi2
 3392 0096 6370     		strb	r3, [r4, #1]
 3393 0098 A670     		strb	r6, [r4, #2]
 3394 009a C4F8ACB0 		str	fp, [r4, #172]
 3395 009e C4F8B090 		str	r9, [r4, #176]
 3396 00a2 C4F8B450 		str	r5, [r4, #180]
 715:..\..\..\liblc3\src/lc3.c ****     };
 716:..\..\..\liblc3\src/lc3.c **** 
 717:..\..\..\liblc3\src/lc3.c ****     lc3_plc_reset(&decoder->plc);
 3397              		.loc 1 717 0
 3398 00a6 04F19C00 		add	r0, r4, #156
 3399 00aa FFF7FEFF 		bl	lc3_plc_reset
 3400              	.LVL485:
 718:..\..\..\liblc3\src/lc3.c **** 
 719:..\..\..\liblc3\src/lc3.c ****     memset(decoder->x, 0,
ARM GAS  C:\Users\rdn\AppData\Local\Temp\ccCxUcqe.s 			page 85


 3401              		.loc 1 719 0
 3402 00ae 04F1B800 		add	r0, r4, #184
 720:..\..\..\liblc3\src/lc3.c ****         LC3_DECODER_BUFFER_COUNT(dt_us, sr_pcm_hz) * sizeof(float));
 3403              		.loc 1 720 0
 3404 00b2 4BF68033 		movw	r3, #48000
 3405 00b6 9F42     		cmp	r7, r3
 3406 00b8 17DC     		bgt	.L274
 3407              		.loc 1 720 0 is_stmt 0 discriminator 1
 3408 00ba 44F25062 		movw	r2, #18000
 3409 00be 02FB07F2 		mul	r2, r2, r7
 3410 00c2 2449     		ldr	r1, .L277+8
 3411 00c4 81FB0253 		smull	r5, r3, r1, r2
 3412 00c8 D217     		asrs	r2, r2, #31
 3413 00ca C2EBA343 		rsb	r3, r2, r3, asr #18
 3414 00ce 0AFB07F5 		mul	r5, r10, r7
 3415 00d2 81FB0521 		smull	r2, r1, r1, r5
 3416 00d6 ED17     		asrs	r5, r5, #31
 3417 00d8 C5EBA141 		rsb	r1, r5, r1, asr #18
 3418 00dc 5D18     		adds	r5, r3, r1
 3419 00de 93FBF1F2 		sdiv	r2, r3, r1
 3420 00e2 01FB1232 		mls	r2, r1, r2, r3
 3421 00e6 AA1A     		subs	r2, r5, r2
 3422 00e8 00E0     		b	.L265
 3423              	.L274:
 3424              		.loc 1 720 0
 3425 00ea 0022     		movs	r2, #0
 3426              	.L265:
 3427              		.loc 1 720 0 discriminator 4
 3428 00ec 0AFB07F3 		mul	r3, r10, r7
 3429 00f0 1849     		ldr	r1, .L277+8
 3430 00f2 81FB0351 		smull	r5, r1, r1, r3
 3431 00f6 DB17     		asrs	r3, r3, #31
 3432 00f8 C3EBA145 		rsb	r5, r3, r1, asr #18
 3433 00fc 2A44     		add	r2, r2, r5
 3434 00fe C3EBE141 		rsb	r1, r3, r1, asr #19
 3435 0102 41F64C53 		movw	r3, #7500
 3436 0106 9A45     		cmp	r10, r3
 3437 0108 02D1     		bne	.L275
 3438              		.loc 1 720 0
 3439 010a 4FF4FA63 		mov	r3, #2000
 3440 010e 01E0     		b	.L266
 3441              	.L275:
 3442 0110 40F2E243 		movw	r3, #1250
 3443              	.L266:
 3444              		.loc 1 720 0 discriminator 8
 3445 0114 03FB07F7 		mul	r7, r3, r7
 3446              	.LVL486:
 3447 0118 0E4B     		ldr	r3, .L277+8
 3448 011a 83FB0736 		smull	r3, r6, r3, r7
 3449 011e FB17     		asrs	r3, r7, #31
 3450 0120 C3EBA643 		rsb	r3, r3, r6, asr #18
 3451 0124 CF18     		adds	r7, r1, r3
 3452 0126 1744     		add	r7, r7, r2
 3453 0128 EA19     		adds	r2, r5, r7
 719:..\..\..\liblc3\src/lc3.c ****         LC3_DECODER_BUFFER_COUNT(dt_us, sr_pcm_hz) * sizeof(float));
 3454              		.loc 1 719 0 is_stmt 1 discriminator 8
 3455 012a 9200     		lsls	r2, r2, #2
ARM GAS  C:\Users\rdn\AppData\Local\Temp\ccCxUcqe.s 			page 86


 3456 012c 0021     		movs	r1, #0
 3457 012e FFF7FEFF 		bl	memset
 3458              	.LVL487:
 721:..\..\..\liblc3\src/lc3.c **** 
 722:..\..\..\liblc3\src/lc3.c ****     return decoder;
 3459              		.loc 1 722 0 discriminator 8
 3460 0132 2046     		mov	r0, r4
 3461 0134 06E0     		b	.L261
 3462              	.LVL488:
 3463              	.L268:
 700:..\..\..\liblc3\src/lc3.c **** 
 3464              		.loc 1 700 0
 3465 0136 0020     		movs	r0, #0
 3466              	.LVL489:
 3467 0138 04E0     		b	.L261
 3468              	.LVL490:
 3469              	.L269:
 3470 013a 0020     		movs	r0, #0
 3471              	.LVL491:
 3472 013c 02E0     		b	.L261
 3473              	.LVL492:
 3474              	.L270:
 3475 013e 0020     		movs	r0, #0
 3476              	.LVL493:
 3477 0140 00E0     		b	.L261
 3478              	.LVL494:
 3479              	.L271:
 3480 0142 0020     		movs	r0, #0
 3481              	.LVL495:
 3482              	.L261:
 723:..\..\..\liblc3\src/lc3.c **** }
 3483              		.loc 1 723 0
 3484 0144 03B0     		add	sp, sp, #12
 3485              		.cfi_def_cfa_offset 36
 3486              		@ sp needed
 3487 0146 BDE8F08F 		pop	{r4, r5, r6, r7, r8, r9, r10, fp, pc}
 3488              	.LVL496:
 3489              	.L278:
 3490 014a 00BF     		.align	2
 3491              	.L277:
 3492 014c 00000000 		.word	lc3_ns_2m5
 3493 0150 00000000 		.word	lc3_ns_4m
 3494 0154 83DE1B43 		.word	1125899907
 3495              		.cfi_endproc
 3496              	.LFE52:
 3497              		.size	lc3_hr_setup_decoder, .-lc3_hr_setup_decoder
 3498              		.section	.text.lc3_setup_decoder,"ax",%progbits
 3499              		.align	2
 3500              		.global	lc3_setup_decoder
 3501              		.thumb
 3502              		.thumb_func
 3503              		.type	lc3_setup_decoder, %function
 3504              	lc3_setup_decoder:
 3505              	.LFB53:
 724:..\..\..\liblc3\src/lc3.c **** 
 725:..\..\..\liblc3\src/lc3.c **** LC3_EXPORT struct lc3_decoder *lc3_setup_decoder(
 726:..\..\..\liblc3\src/lc3.c ****     int dt_us, int sr_hz, int sr_pcm_hz, void *mem)
ARM GAS  C:\Users\rdn\AppData\Local\Temp\ccCxUcqe.s 			page 87


 727:..\..\..\liblc3\src/lc3.c **** {
 3506              		.loc 1 727 0
 3507              		.cfi_startproc
 3508              		@ args = 0, pretend = 0, frame = 0
 3509              		@ frame_needed = 0, uses_anonymous_args = 0
 3510              	.LVL497:
 3511 0000 00B5     		push	{lr}
 3512              		.cfi_def_cfa_offset 4
 3513              		.cfi_offset 14, -4
 3514 0002 83B0     		sub	sp, sp, #12
 3515              		.cfi_def_cfa_offset 16
 728:..\..\..\liblc3\src/lc3.c ****     return lc3_hr_setup_decoder(false, dt_us, sr_hz, sr_pcm_hz, mem);
 3516              		.loc 1 728 0
 3517 0004 0093     		str	r3, [sp]
 3518 0006 1346     		mov	r3, r2
 3519              	.LVL498:
 3520 0008 0A46     		mov	r2, r1
 3521              	.LVL499:
 3522 000a 0146     		mov	r1, r0
 3523              	.LVL500:
 3524 000c 0020     		movs	r0, #0
 3525              	.LVL501:
 3526 000e FFF7FEFF 		bl	lc3_hr_setup_decoder
 3527              	.LVL502:
 729:..\..\..\liblc3\src/lc3.c **** }
 3528              		.loc 1 729 0
 3529 0012 03B0     		add	sp, sp, #12
 3530              		.cfi_def_cfa_offset 4
 3531              		@ sp needed
 3532 0014 5DF804FB 		ldr	pc, [sp], #4
 3533              		.cfi_endproc
 3534              	.LFE53:
 3535              		.size	lc3_setup_decoder, .-lc3_setup_decoder
 3536              		.section	.text.lc3_decode,"ax",%progbits
 3537              		.align	2
 3538              		.global	lc3_decode
 3539              		.thumb
 3540              		.thumb_func
 3541              		.type	lc3_decode, %function
 3542              	lc3_decode:
 3543              	.LFB54:
 730:..\..\..\liblc3\src/lc3.c **** 
 731:..\..\..\liblc3\src/lc3.c **** /**
 732:..\..\..\liblc3\src/lc3.c ****  * Decode a frame
 733:..\..\..\liblc3\src/lc3.c ****  */
 734:..\..\..\liblc3\src/lc3.c **** LC3_EXPORT int lc3_decode(struct lc3_decoder *decoder,
 735:..\..\..\liblc3\src/lc3.c ****     const void *in, int nbytes, enum lc3_pcm_format fmt, void *pcm, int stride)
 736:..\..\..\liblc3\src/lc3.c **** {
 3544              		.loc 1 736 0
 3545              		.cfi_startproc
 3546              		@ args = 8, pretend = 0, frame = 136
 3547              		@ frame_needed = 0, uses_anonymous_args = 0
 3548              	.LVL503:
 737:..\..\..\liblc3\src/lc3.c ****     static void (* const store[])(struct lc3_decoder *, void *, int) = {
 738:..\..\..\liblc3\src/lc3.c ****         [LC3_PCM_FORMAT_S16    ] = store_s16,
 739:..\..\..\liblc3\src/lc3.c ****         [LC3_PCM_FORMAT_S24    ] = store_s24,
 740:..\..\..\liblc3\src/lc3.c ****         [LC3_PCM_FORMAT_S24_3LE] = store_s24_3le,
ARM GAS  C:\Users\rdn\AppData\Local\Temp\ccCxUcqe.s 			page 88


 741:..\..\..\liblc3\src/lc3.c ****         [LC3_PCM_FORMAT_FLOAT  ] = store_float,
 742:..\..\..\liblc3\src/lc3.c ****     };
 743:..\..\..\liblc3\src/lc3.c **** 
 744:..\..\..\liblc3\src/lc3.c ****     /* --- Check parameters --- */
 745:..\..\..\liblc3\src/lc3.c **** 
 746:..\..\..\liblc3\src/lc3.c ****     if (!decoder)
 3549              		.loc 1 746 0
 3550 0000 0028     		cmp	r0, #0
 3551 0002 38D0     		beq	.L287
 736:..\..\..\liblc3\src/lc3.c ****     static void (* const store[])(struct lc3_decoder *, void *, int) = {
 3552              		.loc 1 736 0
 3553 0004 F0B5     		push	{r4, r5, r6, r7, lr}
 3554              		.cfi_def_cfa_offset 20
 3555              		.cfi_offset 4, -20
 3556              		.cfi_offset 5, -16
 3557              		.cfi_offset 6, -12
 3558              		.cfi_offset 7, -8
 3559              		.cfi_offset 14, -4
 3560 0006 A3B0     		sub	sp, sp, #140
 3561              		.cfi_def_cfa_offset 160
 3562 0008 0446     		mov	r4, r0
 747:..\..\..\liblc3\src/lc3.c ****         return -1;
 748:..\..\..\liblc3\src/lc3.c **** 
 749:..\..\..\liblc3\src/lc3.c ****     if (in && (nbytes < LC3_MIN_FRAME_BYTES ||
 3563              		.loc 1 749 0
 3564 000a 89B1     		cbz	r1, .L283
 3565              		.loc 1 749 0 is_stmt 0 discriminator 1
 3566 000c 132A     		cmp	r2, #19
 3567 000e 35DD     		ble	.L288
 750:..\..\..\liblc3\src/lc3.c ****                nbytes > lc3_max_frame_bytes(decoder->dt, decoder->sr) ))
 3568              		.loc 1 750 0 is_stmt 1 discriminator 2
 3569 0010 0578     		ldrb	r5, [r0]	@ zero_extendqisi2
 3570 0012 4078     		ldrb	r0, [r0, #1]	@ zero_extendqisi2
 3571              	.LVL504:
 3572              	.LBB223:
 3573              	.LBB224:
  87:..\..\..\liblc3\src/tables.h ****         lc3_frame_bytes_hr_lim[dt][sr - LC3_SRATE_48K_HR][1];
 3574              		.loc 2 87 0 discriminator 2
 3575 0014 0428     		cmp	r0, #4
 3576 0016 07D9     		bls	.L289
 3577              		.loc 2 88 0
 3578 0018 0538     		subs	r0, r0, #5
 3579              	.LVL505:
  87:..\..\..\liblc3\src/tables.h ****         lc3_frame_bytes_hr_lim[dt][sr - LC3_SRATE_48K_HR][1];
 3580              		.loc 2 87 0
 3581 001a 00EB4500 		add	r0, r0, r5, lsl #1
 3582              	.LVL506:
 3583 001e 1B4D     		ldr	r5, .L295
 3584              	.LVL507:
 3585 0020 05EBC000 		add	r0, r5, r0, lsl #3
 3586 0024 4068     		ldr	r0, [r0, #4]
 3587 0026 01E0     		b	.L284
 3588              	.LVL508:
 3589              	.L289:
 3590 0028 4FF4C870 		mov	r0, #400
 3591              	.LVL509:
 3592              	.L284:
ARM GAS  C:\Users\rdn\AppData\Local\Temp\ccCxUcqe.s 			page 89


 3593              	.LBE224:
 3594              	.LBE223:
 749:..\..\..\liblc3\src/lc3.c ****                nbytes > lc3_max_frame_bytes(decoder->dt, decoder->sr) ))
 3595              		.loc 1 749 0
 3596 002c 8242     		cmp	r2, r0
 3597 002e 28DC     		bgt	.L290
 3598              	.L283:
 3599 0030 1F46     		mov	r7, r3
 3600 0032 1546     		mov	r5, r2
 751:..\..\..\liblc3\src/lc3.c ****         return -1;
 752:..\..\..\liblc3\src/lc3.c **** 
 753:..\..\..\liblc3\src/lc3.c ****     /* --- Processing --- */
 754:..\..\..\liblc3\src/lc3.c **** 
 755:..\..\..\liblc3\src/lc3.c ****     struct side_data side;
 756:..\..\..\liblc3\src/lc3.c **** 
 757:..\..\..\liblc3\src/lc3.c ****     int ret = !in || (decode(decoder, in, nbytes, &side) < 0);
 3601              		.loc 1 757 0
 3602 0034 39B1     		cbz	r1, .L291
 3603              		.loc 1 757 0 is_stmt 0 discriminator 2
 3604 0036 01AB     		add	r3, sp, #4
 3605              	.LVL510:
 3606 0038 2046     		mov	r0, r4
 3607 003a FFF7FEFF 		bl	decode
 3608              	.LVL511:
 3609 003e 0028     		cmp	r0, #0
 3610 0040 03DB     		blt	.L292
 3611              		.loc 1 757 0
 3612 0042 0026     		movs	r6, #0
 3613 0044 02E0     		b	.L285
 3614              	.LVL512:
 3615              	.L291:
 3616 0046 0126     		movs	r6, #1
 3617 0048 00E0     		b	.L285
 3618              	.LVL513:
 3619              	.L292:
 3620 004a 0126     		movs	r6, #1
 3621              	.L285:
 3622              	.LVL514:
 758:..\..\..\liblc3\src/lc3.c **** 
 759:..\..\..\liblc3\src/lc3.c ****     synthesize(decoder, ret ? NULL : &side, nbytes);
 3623              		.loc 1 759 0 is_stmt 1 discriminator 6
 3624 004c 0EB9     		cbnz	r6, .L293
 3625              		.loc 1 759 0 is_stmt 0
 3626 004e 01A9     		add	r1, sp, #4
 3627 0050 00E0     		b	.L286
 3628              	.L293:
 3629 0052 0021     		movs	r1, #0
 3630              	.L286:
 3631              		.loc 1 759 0 discriminator 4
 3632 0054 2A46     		mov	r2, r5
 3633 0056 2046     		mov	r0, r4
 3634 0058 FFF7FEFF 		bl	synthesize
 3635              	.LVL515:
 760:..\..\..\liblc3\src/lc3.c **** 
 761:..\..\..\liblc3\src/lc3.c ****     store[fmt](decoder, pcm, stride);
 3636              		.loc 1 761 0 is_stmt 1 discriminator 4
 3637 005c 0C4A     		ldr	r2, .L295+4
ARM GAS  C:\Users\rdn\AppData\Local\Temp\ccCxUcqe.s 			page 90


 3638 005e 02EB8703 		add	r3, r2, r7, lsl #2
 3639 0062 1B69     		ldr	r3, [r3, #16]
 3640 0064 299A     		ldr	r2, [sp, #164]
 3641 0066 2899     		ldr	r1, [sp, #160]
 3642 0068 2046     		mov	r0, r4
 3643 006a 9847     		blx	r3
 3644              	.LVL516:
 762:..\..\..\liblc3\src/lc3.c **** 
 763:..\..\..\liblc3\src/lc3.c ****     complete(decoder);
 3645              		.loc 1 763 0 discriminator 4
 3646 006c 2046     		mov	r0, r4
 3647 006e FFF7FEFF 		bl	complete
 3648              	.LVL517:
 764:..\..\..\liblc3\src/lc3.c **** 
 765:..\..\..\liblc3\src/lc3.c ****     return ret;
 3649              		.loc 1 765 0 discriminator 4
 3650 0072 3046     		mov	r0, r6
 3651 0074 07E0     		b	.L282
 3652              	.LVL518:
 3653              	.L287:
 3654              		.cfi_def_cfa_offset 0
 3655              		.cfi_restore 4
 3656              		.cfi_restore 5
 3657              		.cfi_restore 6
 3658              		.cfi_restore 7
 3659              		.cfi_restore 14
 747:..\..\..\liblc3\src/lc3.c **** 
 3660              		.loc 1 747 0
 3661 0076 4FF0FF30 		mov	r0, #-1
 3662              	.LVL519:
 766:..\..\..\liblc3\src/lc3.c **** }
 3663              		.loc 1 766 0
 3664 007a 7047     		bx	lr
 3665              	.LVL520:
 3666              	.L288:
 3667              		.cfi_def_cfa_offset 160
 3668              		.cfi_offset 4, -20
 3669              		.cfi_offset 5, -16
 3670              		.cfi_offset 6, -12
 3671              		.cfi_offset 7, -8
 3672              		.cfi_offset 14, -4
 751:..\..\..\liblc3\src/lc3.c **** 
 3673              		.loc 1 751 0
 3674 007c 4FF0FF30 		mov	r0, #-1
 3675              	.LVL521:
 3676 0080 01E0     		b	.L282
 3677              	.L290:
 3678 0082 4FF0FF30 		mov	r0, #-1
 3679              	.LVL522:
 3680              	.L282:
 3681              		.loc 1 766 0
 3682 0086 23B0     		add	sp, sp, #140
 3683              		.cfi_def_cfa_offset 20
 3684              		@ sp needed
 3685 0088 F0BD     		pop	{r4, r5, r6, r7, pc}
 3686              	.LVL523:
 3687              	.L296:
ARM GAS  C:\Users\rdn\AppData\Local\Temp\ccCxUcqe.s 			page 91


 3688 008a 00BF     		.align	2
 3689              	.L295:
 3690 008c 00000000 		.word	lc3_frame_bytes_hr_lim
 3691 0090 00000000 		.word	.LANCHOR0
 3692              		.cfi_endproc
 3693              	.LFE54:
 3694              		.size	lc3_decode, .-lc3_decode
 3695              		.section	.rodata
 3696              		.align	2
 3697              		.set	.LANCHOR0,. + 0
 3698              		.type	load.5874, %object
 3699              		.size	load.5874, 16
 3700              	load.5874:
 3701 0000 00000000 		.word	load_s16
 3702 0004 00000000 		.word	load_s24
 3703 0008 00000000 		.word	load_s24_3le
 3704 000c 00000000 		.word	load_float
 3705              		.type	store.6009, %object
 3706              		.size	store.6009, 16
 3707              	store.6009:
 3708 0010 00000000 		.word	store_s16
 3709 0014 00000000 		.word	store_s24
 3710 0018 00000000 		.word	store_s24_3le
 3711 001c 00000000 		.word	store_float
 3712              		.text
 3713              	.Letext0:
 3714              		.file 5 "c:\\program files (x86)\\cypress\\psoc creator\\4.4\\psoc creator\\import\\gnu\\arm\\5.4.
 3715              		.file 6 "c:\\program files (x86)\\cypress\\psoc creator\\4.4\\psoc creator\\import\\gnu\\arm\\5.4.
 3716              		.file 7 ".\\liblc3\\include/lc3_private.h"
 3717              		.file 8 ".\\liblc3\\include/lc3.h"
 3718              		.file 9 "..\\..\\..\\liblc3\\src\\common.h"
 3719              		.file 10 "..\\..\\..\\liblc3\\src\\ltpf.h"
 3720              		.file 11 "..\\..\\..\\liblc3\\src\\sns.h"
 3721              		.file 12 "..\\..\\..\\liblc3\\src\\tns.h"
 3722              		.file 13 "..\\..\\..\\liblc3\\src\\spec.h"
 3723              		.file 14 "..\\..\\..\\liblc3\\src\\attdet.h"
 3724              		.file 15 "c:\\program files (x86)\\cypress\\psoc creator\\4.4\\psoc creator\\import\\gnu\\arm\\5.4
 3725              		.file 16 "..\\..\\..\\liblc3\\src\\mdct.h"
 3726              		.file 17 "..\\..\\..\\liblc3\\src\\energy.h"
 3727              		.file 18 "..\\..\\..\\liblc3\\src\\bwdet.h"
 3728              		.file 19 "..\\..\\..\\liblc3\\src\\plc.h"
 3729              		.file 20 "c:\\program files (x86)\\cypress\\psoc creator\\4.4\\psoc creator\\import\\gnu\\arm\\5.4
 3730              		.section	.debug_info,"",%progbits
 3731              	.Ldebug_info0:
 3732 0000 422F0000 		.4byte	0x2f42
 3733 0004 0400     		.2byte	0x4
 3734 0006 00000000 		.4byte	.Ldebug_abbrev0
 3735 000a 04       		.byte	0x4
 3736 000b 01       		.uleb128 0x1
 3737 000c 45010000 		.4byte	.LASF238
 3738 0010 0C       		.byte	0xc
 3739 0011 500B0000 		.4byte	.LASF239
 3740 0015 59050000 		.4byte	.LASF240
 3741 0019 00000000 		.4byte	.Ldebug_ranges0+0
 3742 001d 00000000 		.4byte	0
 3743 0021 00000000 		.4byte	.Ldebug_line0
 3744 0025 02       		.uleb128 0x2
ARM GAS  C:\Users\rdn\AppData\Local\Temp\ccCxUcqe.s 			page 92


 3745 0026 04       		.byte	0x4
 3746 0027 05       		.byte	0x5
 3747 0028 696E7400 		.ascii	"int\000"
 3748 002c 03       		.uleb128 0x3
 3749 002d 04       		.byte	0x4
 3750 002e 04       		.byte	0x4
 3751 002f AD020000 		.4byte	.LASF0
 3752 0033 03       		.uleb128 0x3
 3753 0034 01       		.byte	0x1
 3754 0035 06       		.byte	0x6
 3755 0036 7F0B0000 		.4byte	.LASF1
 3756 003a 04       		.uleb128 0x4
 3757 003b 5D090000 		.4byte	.LASF3
 3758 003f 05       		.byte	0x5
 3759 0040 1D       		.byte	0x1d
 3760 0041 45000000 		.4byte	0x45
 3761 0045 03       		.uleb128 0x3
 3762 0046 01       		.byte	0x1
 3763 0047 08       		.byte	0x8
 3764 0048 9F0A0000 		.4byte	.LASF2
 3765 004c 04       		.uleb128 0x4
 3766 004d EC060000 		.4byte	.LASF4
 3767 0051 05       		.byte	0x5
 3768 0052 29       		.byte	0x29
 3769 0053 57000000 		.4byte	0x57
 3770 0057 03       		.uleb128 0x3
 3771 0058 02       		.byte	0x2
 3772 0059 05       		.byte	0x5
 3773 005a C5080000 		.4byte	.LASF5
 3774 005e 04       		.uleb128 0x4
 3775 005f 4B030000 		.4byte	.LASF6
 3776 0063 05       		.byte	0x5
 3777 0064 2B       		.byte	0x2b
 3778 0065 69000000 		.4byte	0x69
 3779 0069 03       		.uleb128 0x3
 3780 006a 02       		.byte	0x2
 3781 006b 07       		.byte	0x7
 3782 006c 8B0B0000 		.4byte	.LASF7
 3783 0070 04       		.uleb128 0x4
 3784 0071 AD000000 		.4byte	.LASF8
 3785 0075 05       		.byte	0x5
 3786 0076 3F       		.byte	0x3f
 3787 0077 7B000000 		.4byte	0x7b
 3788 007b 03       		.uleb128 0x3
 3789 007c 04       		.byte	0x4
 3790 007d 05       		.byte	0x5
 3791 007e ED080000 		.4byte	.LASF9
 3792 0082 04       		.uleb128 0x4
 3793 0083 AD0A0000 		.4byte	.LASF10
 3794 0087 05       		.byte	0x5
 3795 0088 41       		.byte	0x41
 3796 0089 8D000000 		.4byte	0x8d
 3797 008d 03       		.uleb128 0x3
 3798 008e 04       		.byte	0x4
 3799 008f 07       		.byte	0x7
 3800 0090 0A0A0000 		.4byte	.LASF11
 3801 0094 04       		.uleb128 0x4
ARM GAS  C:\Users\rdn\AppData\Local\Temp\ccCxUcqe.s 			page 93


 3802 0095 1F080000 		.4byte	.LASF12
 3803 0099 05       		.byte	0x5
 3804 009a 59       		.byte	0x59
 3805 009b 9F000000 		.4byte	0x9f
 3806 009f 03       		.uleb128 0x3
 3807 00a0 08       		.byte	0x8
 3808 00a1 05       		.byte	0x5
 3809 00a2 4D060000 		.4byte	.LASF13
 3810 00a6 03       		.uleb128 0x3
 3811 00a7 08       		.byte	0x8
 3812 00a8 07       		.byte	0x7
 3813 00a9 EA020000 		.4byte	.LASF14
 3814 00ad 03       		.uleb128 0x3
 3815 00ae 04       		.byte	0x4
 3816 00af 07       		.byte	0x7
 3817 00b0 87000000 		.4byte	.LASF15
 3818 00b4 04       		.uleb128 0x4
 3819 00b5 DD050000 		.4byte	.LASF16
 3820 00b9 06       		.byte	0x6
 3821 00ba 18       		.byte	0x18
 3822 00bb 3A000000 		.4byte	0x3a
 3823 00bf 04       		.uleb128 0x4
 3824 00c0 E2020000 		.4byte	.LASF17
 3825 00c4 06       		.byte	0x6
 3826 00c5 20       		.byte	0x20
 3827 00c6 4C000000 		.4byte	0x4c
 3828 00ca 04       		.uleb128 0x4
 3829 00cb 4A080000 		.4byte	.LASF18
 3830 00cf 06       		.byte	0x6
 3831 00d0 24       		.byte	0x24
 3832 00d1 5E000000 		.4byte	0x5e
 3833 00d5 04       		.uleb128 0x4
 3834 00d6 510A0000 		.4byte	.LASF19
 3835 00da 06       		.byte	0x6
 3836 00db 2C       		.byte	0x2c
 3837 00dc 70000000 		.4byte	0x70
 3838 00e0 04       		.uleb128 0x4
 3839 00e1 83020000 		.4byte	.LASF20
 3840 00e5 06       		.byte	0x6
 3841 00e6 30       		.byte	0x30
 3842 00e7 82000000 		.4byte	0x82
 3843 00eb 04       		.uleb128 0x4
 3844 00ec 13040000 		.4byte	.LASF21
 3845 00f0 06       		.byte	0x6
 3846 00f1 38       		.byte	0x38
 3847 00f2 94000000 		.4byte	0x94
 3848 00f6 05       		.uleb128 0x5
 3849 00f7 2E010000 		.4byte	.LASF27
 3850 00fb 01       		.byte	0x1
 3851 00fc 45000000 		.4byte	0x45
 3852 0100 07       		.byte	0x7
 3853 0101 3B       		.byte	0x3b
 3854 0102 25010000 		.4byte	0x125
 3855 0106 06       		.uleb128 0x6
 3856 0107 CF080000 		.4byte	.LASF22
 3857 010b 00       		.byte	0
 3858 010c 06       		.uleb128 0x6
ARM GAS  C:\Users\rdn\AppData\Local\Temp\ccCxUcqe.s 			page 94


 3859 010d 79020000 		.4byte	.LASF23
 3860 0111 01       		.byte	0x1
 3861 0112 06       		.uleb128 0x6
 3862 0113 B0080000 		.4byte	.LASF24
 3863 0117 02       		.byte	0x2
 3864 0118 06       		.uleb128 0x6
 3865 0119 C9040000 		.4byte	.LASF25
 3866 011d 03       		.byte	0x3
 3867 011e 06       		.uleb128 0x6
 3868 011f CA030000 		.4byte	.LASF26
 3869 0123 04       		.byte	0x4
 3870 0124 00       		.byte	0
 3871 0125 05       		.uleb128 0x5
 3872 0126 830A0000 		.4byte	.LASF28
 3873 012a 01       		.byte	0x1
 3874 012b 45000000 		.4byte	0x45
 3875 012f 07       		.byte	0x7
 3876 0130 49       		.byte	0x49
 3877 0131 66010000 		.4byte	0x166
 3878 0135 06       		.uleb128 0x6
 3879 0136 720B0000 		.4byte	.LASF29
 3880 013a 00       		.byte	0
 3881 013b 06       		.uleb128 0x6
 3882 013c 6D090000 		.4byte	.LASF30
 3883 0140 01       		.byte	0x1
 3884 0141 06       		.uleb128 0x6
 3885 0142 1B000000 		.4byte	.LASF31
 3886 0146 02       		.byte	0x2
 3887 0147 06       		.uleb128 0x6
 3888 0148 77030000 		.4byte	.LASF32
 3889 014c 03       		.byte	0x3
 3890 014d 06       		.uleb128 0x6
 3891 014e 94000000 		.4byte	.LASF33
 3892 0152 04       		.byte	0x4
 3893 0153 06       		.uleb128 0x6
 3894 0154 FE010000 		.4byte	.LASF34
 3895 0158 05       		.byte	0x5
 3896 0159 06       		.uleb128 0x6
 3897 015a 030C0000 		.4byte	.LASF35
 3898 015e 06       		.byte	0x6
 3899 015f 06       		.uleb128 0x6
 3900 0160 8D080000 		.4byte	.LASF36
 3901 0164 07       		.byte	0x7
 3902 0165 00       		.byte	0
 3903 0166 07       		.uleb128 0x7
 3904 0167 6D060000 		.4byte	.LASF39
 3905 016b 0C       		.byte	0xc
 3906 016c 07       		.byte	0x7
 3907 016d 5A       		.byte	0x5a
 3908 016e 97010000 		.4byte	0x197
 3909 0172 08       		.uleb128 0x8
 3910 0173 656E3100 		.ascii	"en1\000"
 3911 0177 07       		.byte	0x7
 3912 0178 5B       		.byte	0x5b
 3913 0179 D5000000 		.4byte	0xd5
 3914 017d 00       		.byte	0
 3915 017e 08       		.uleb128 0x8
ARM GAS  C:\Users\rdn\AppData\Local\Temp\ccCxUcqe.s 			page 95


 3916 017f 616E3100 		.ascii	"an1\000"
 3917 0183 07       		.byte	0x7
 3918 0184 5B       		.byte	0x5b
 3919 0185 D5000000 		.4byte	0xd5
 3920 0189 04       		.byte	0x4
 3921 018a 09       		.uleb128 0x9
 3922 018b C20B0000 		.4byte	.LASF37
 3923 018f 07       		.byte	0x7
 3924 0190 5C       		.byte	0x5c
 3925 0191 25000000 		.4byte	0x25
 3926 0195 08       		.byte	0x8
 3927 0196 00       		.byte	0
 3928 0197 04       		.uleb128 0x4
 3929 0198 B4030000 		.4byte	.LASF38
 3930 019c 07       		.byte	0x7
 3931 019d 5D       		.byte	0x5d
 3932 019e 66010000 		.4byte	0x166
 3933 01a2 07       		.uleb128 0x7
 3934 01a3 0F010000 		.4byte	.LASF40
 3935 01a7 10       		.byte	0x10
 3936 01a8 07       		.byte	0x7
 3937 01a9 5F       		.byte	0x5f
 3938 01aa C5010000 		.4byte	0x1c5
 3939 01ae 08       		.uleb128 0x8
 3940 01af 733100   		.ascii	"s1\000"
 3941 01b2 07       		.byte	0x7
 3942 01b3 60       		.byte	0x60
 3943 01b4 EB000000 		.4byte	0xeb
 3944 01b8 00       		.byte	0
 3945 01b9 08       		.uleb128 0x8
 3946 01ba 733200   		.ascii	"s2\000"
 3947 01bd 07       		.byte	0x7
 3948 01be 60       		.byte	0x60
 3949 01bf EB000000 		.4byte	0xeb
 3950 01c3 08       		.byte	0x8
 3951 01c4 00       		.byte	0
 3952 01c5 0A       		.uleb128 0xa
 3953 01c6 880C0000 		.4byte	.LASF41
 3954 01ca 8804     		.2byte	0x488
 3955 01cc 07       		.byte	0x7
 3956 01cd 63       		.byte	0x63
 3957 01ce 27020000 		.4byte	0x227
 3958 01d2 09       		.uleb128 0x9
 3959 01d3 48020000 		.4byte	.LASF42
 3960 01d7 07       		.byte	0x7
 3961 01d8 64       		.byte	0x64
 3962 01d9 27020000 		.4byte	0x227
 3963 01dd 00       		.byte	0
 3964 01de 09       		.uleb128 0x9
 3965 01df C0000000 		.4byte	.LASF43
 3966 01e3 07       		.byte	0x7
 3967 01e4 65       		.byte	0x65
 3968 01e5 25000000 		.4byte	0x25
 3969 01e9 04       		.byte	0x4
 3970 01ea 08       		.uleb128 0x8
 3971 01eb 6E6300   		.ascii	"nc\000"
 3972 01ee 07       		.byte	0x7
ARM GAS  C:\Users\rdn\AppData\Local\Temp\ccCxUcqe.s 			page 96


 3973 01ef 66       		.byte	0x66
 3974 01f0 2E020000 		.4byte	0x22e
 3975 01f4 08       		.byte	0x8
 3976 01f5 09       		.uleb128 0x9
 3977 01f6 B4060000 		.4byte	.LASF44
 3978 01fa 07       		.byte	0x7
 3979 01fb 68       		.byte	0x68
 3980 01fc A2010000 		.4byte	0x1a2
 3981 0200 10       		.byte	0x10
 3982 0201 09       		.uleb128 0x9
 3983 0202 4F020000 		.4byte	.LASF45
 3984 0206 07       		.byte	0x7
 3985 0207 69       		.byte	0x69
 3986 0208 45020000 		.4byte	0x245
 3987 020c 20       		.byte	0x20
 3988 020d 0B       		.uleb128 0xb
 3989 020e 0D040000 		.4byte	.LASF46
 3990 0212 07       		.byte	0x7
 3991 0213 6A       		.byte	0x6a
 3992 0214 56020000 		.4byte	0x256
 3993 0218 2003     		.2byte	0x320
 3994 021a 0C       		.uleb128 0xc
 3995 021b 746300   		.ascii	"tc\000"
 3996 021e 07       		.byte	0x7
 3997 021f 6B       		.byte	0x6b
 3998 0220 25000000 		.4byte	0x25
 3999 0224 8404     		.2byte	0x484
 4000 0226 00       		.byte	0
 4001 0227 03       		.uleb128 0x3
 4002 0228 01       		.byte	0x1
 4003 0229 02       		.byte	0x2
 4004 022a 5F040000 		.4byte	.LASF47
 4005 022e 0D       		.uleb128 0xd
 4006 022f 2C000000 		.4byte	0x2c
 4007 0233 3E020000 		.4byte	0x23e
 4008 0237 0E       		.uleb128 0xe
 4009 0238 3E020000 		.4byte	0x23e
 4010 023c 01       		.byte	0x1
 4011 023d 00       		.byte	0
 4012 023e 03       		.uleb128 0x3
 4013 023f 04       		.byte	0x4
 4014 0240 07       		.byte	0x7
 4015 0241 FA090000 		.4byte	.LASF48
 4016 0245 0D       		.uleb128 0xd
 4017 0246 BF000000 		.4byte	0xbf
 4018 024a 56020000 		.4byte	0x256
 4019 024e 0F       		.uleb128 0xf
 4020 024f 3E020000 		.4byte	0x23e
 4021 0253 7F01     		.2byte	0x17f
 4022 0255 00       		.byte	0
 4023 0256 0D       		.uleb128 0xd
 4024 0257 BF000000 		.4byte	0xbf
 4025 025b 66020000 		.4byte	0x266
 4026 025f 0E       		.uleb128 0xe
 4027 0260 3E020000 		.4byte	0x23e
 4028 0264 B1       		.byte	0xb1
 4029 0265 00       		.byte	0
ARM GAS  C:\Users\rdn\AppData\Local\Temp\ccCxUcqe.s 			page 97


 4030 0266 04       		.uleb128 0x4
 4031 0267 4D070000 		.4byte	.LASF49
 4032 026b 07       		.byte	0x7
 4033 026c 6C       		.byte	0x6c
 4034 026d C5010000 		.4byte	0x1c5
 4035 0271 07       		.uleb128 0x7
 4036 0272 8D0A0000 		.4byte	.LASF50
 4037 0276 08       		.byte	0x8
 4038 0277 07       		.byte	0x7
 4039 0278 6E       		.byte	0x6e
 4040 0279 96020000 		.4byte	0x296
 4041 027d 09       		.uleb128 0x9
 4042 027e CB060000 		.4byte	.LASF51
 4043 0282 07       		.byte	0x7
 4044 0283 6F       		.byte	0x6f
 4045 0284 2C000000 		.4byte	0x2c
 4046 0288 00       		.byte	0
 4047 0289 09       		.uleb128 0x9
 4048 028a 38050000 		.4byte	.LASF52
 4049 028e 07       		.byte	0x7
 4050 028f 70       		.byte	0x70
 4051 0290 25000000 		.4byte	0x25
 4052 0294 04       		.byte	0x4
 4053 0295 00       		.byte	0
 4054 0296 04       		.uleb128 0x4
 4055 0297 0D090000 		.4byte	.LASF53
 4056 029b 07       		.byte	0x7
 4057 029c 71       		.byte	0x71
 4058 029d 71020000 		.4byte	0x271
 4059 02a1 0A       		.uleb128 0xa
 4060 02a2 EA070000 		.4byte	.LASF54
 4061 02a6 B004     		.2byte	0x4b0
 4062 02a8 07       		.byte	0x7
 4063 02a9 73       		.byte	0x73
 4064 02aa 28030000 		.4byte	0x328
 4065 02ae 08       		.uleb128 0x8
 4066 02af 647400   		.ascii	"dt\000"
 4067 02b2 07       		.byte	0x7
 4068 02b3 74       		.byte	0x74
 4069 02b4 F6000000 		.4byte	0xf6
 4070 02b8 00       		.byte	0
 4071 02b9 08       		.uleb128 0x8
 4072 02ba 737200   		.ascii	"sr\000"
 4073 02bd 07       		.byte	0x7
 4074 02be 75       		.byte	0x75
 4075 02bf 25010000 		.4byte	0x125
 4076 02c3 01       		.byte	0x1
 4077 02c4 09       		.uleb128 0x9
 4078 02c5 CF020000 		.4byte	.LASF55
 4079 02c9 07       		.byte	0x7
 4080 02ca 75       		.byte	0x75
 4081 02cb 25010000 		.4byte	0x125
 4082 02cf 02       		.byte	0x2
 4083 02d0 09       		.uleb128 0x9
 4084 02d1 20020000 		.4byte	.LASF56
 4085 02d5 07       		.byte	0x7
 4086 02d6 77       		.byte	0x77
ARM GAS  C:\Users\rdn\AppData\Local\Temp\ccCxUcqe.s 			page 98


 4087 02d7 97010000 		.4byte	0x197
 4088 02db 04       		.byte	0x4
 4089 02dc 09       		.uleb128 0x9
 4090 02dd 45040000 		.4byte	.LASF57
 4091 02e1 07       		.byte	0x7
 4092 02e2 78       		.byte	0x78
 4093 02e3 66020000 		.4byte	0x266
 4094 02e7 10       		.byte	0x10
 4095 02e8 0B       		.uleb128 0xb
 4096 02e9 4B0C0000 		.4byte	.LASF58
 4097 02ed 07       		.byte	0x7
 4098 02ee 79       		.byte	0x79
 4099 02ef 96020000 		.4byte	0x296
 4100 02f3 9804     		.2byte	0x498
 4101 02f5 0B       		.uleb128 0xb
 4102 02f6 D5030000 		.4byte	.LASF59
 4103 02fa 07       		.byte	0x7
 4104 02fb 7B       		.byte	0x7b
 4105 02fc 25000000 		.4byte	0x25
 4106 0300 A004     		.2byte	0x4a0
 4107 0302 0B       		.uleb128 0xb
 4108 0303 A9080000 		.4byte	.LASF60
 4109 0307 07       		.byte	0x7
 4110 0308 7B       		.byte	0x7b
 4111 0309 25000000 		.4byte	0x25
 4112 030d A404     		.2byte	0x4a4
 4113 030f 0B       		.uleb128 0xb
 4114 0310 260B0000 		.4byte	.LASF61
 4115 0314 07       		.byte	0x7
 4116 0315 7B       		.byte	0x7b
 4117 0316 25000000 		.4byte	0x25
 4118 031a A804     		.2byte	0x4a8
 4119 031c 0C       		.uleb128 0xc
 4120 031d 7800     		.ascii	"x\000"
 4121 031f 07       		.byte	0x7
 4122 0320 7C       		.byte	0x7c
 4123 0321 28030000 		.4byte	0x328
 4124 0325 AC04     		.2byte	0x4ac
 4125 0327 00       		.byte	0
 4126 0328 0D       		.uleb128 0xd
 4127 0329 2C000000 		.4byte	0x2c
 4128 032d 38030000 		.4byte	0x338
 4129 0331 0E       		.uleb128 0xe
 4130 0332 3E020000 		.4byte	0x23e
 4131 0336 00       		.byte	0
 4132 0337 00       		.byte	0
 4133 0338 07       		.uleb128 0x7
 4134 0339 08050000 		.4byte	.LASF62
 4135 033d 98       		.byte	0x98
 4136 033e 07       		.byte	0x7
 4137 033f 8E       		.byte	0x8e
 4138 0340 71030000 		.4byte	0x371
 4139 0344 09       		.uleb128 0x9
 4140 0345 48020000 		.4byte	.LASF42
 4141 0349 07       		.byte	0x7
 4142 034a 8F       		.byte	0x8f
 4143 034b 27020000 		.4byte	0x227
ARM GAS  C:\Users\rdn\AppData\Local\Temp\ccCxUcqe.s 			page 99


 4144 034f 00       		.byte	0
 4145 0350 09       		.uleb128 0x9
 4146 0351 C0000000 		.4byte	.LASF43
 4147 0355 07       		.byte	0x7
 4148 0356 90       		.byte	0x90
 4149 0357 25000000 		.4byte	0x25
 4150 035b 04       		.byte	0x4
 4151 035c 08       		.uleb128 0x8
 4152 035d 6300     		.ascii	"c\000"
 4153 035f 07       		.byte	0x7
 4154 0360 91       		.byte	0x91
 4155 0361 71030000 		.4byte	0x371
 4156 0365 08       		.byte	0x8
 4157 0366 08       		.uleb128 0x8
 4158 0367 7800     		.ascii	"x\000"
 4159 0369 07       		.byte	0x7
 4160 036a 91       		.byte	0x91
 4161 036b 81030000 		.4byte	0x381
 4162 036f 68       		.byte	0x68
 4163 0370 00       		.byte	0
 4164 0371 0D       		.uleb128 0xd
 4165 0372 2C000000 		.4byte	0x2c
 4166 0376 81030000 		.4byte	0x381
 4167 037a 0E       		.uleb128 0xe
 4168 037b 3E020000 		.4byte	0x23e
 4169 037f 17       		.byte	0x17
 4170 0380 00       		.byte	0
 4171 0381 0D       		.uleb128 0xd
 4172 0382 2C000000 		.4byte	0x2c
 4173 0386 91030000 		.4byte	0x391
 4174 038a 0E       		.uleb128 0xe
 4175 038b 3E020000 		.4byte	0x23e
 4176 038f 0B       		.byte	0xb
 4177 0390 00       		.byte	0
 4178 0391 04       		.uleb128 0x4
 4179 0392 29080000 		.4byte	.LASF63
 4180 0396 07       		.byte	0x7
 4181 0397 92       		.byte	0x92
 4182 0398 38030000 		.4byte	0x338
 4183 039c 07       		.uleb128 0x7
 4184 039d 25030000 		.4byte	.LASF64
 4185 03a1 0C       		.byte	0xc
 4186 03a2 07       		.byte	0x7
 4187 03a3 94       		.byte	0x94
 4188 03a4 CD030000 		.4byte	0x3cd
 4189 03a8 09       		.uleb128 0x9
 4190 03a9 BD070000 		.4byte	.LASF65
 4191 03ad 07       		.byte	0x7
 4192 03ae 95       		.byte	0x95
 4193 03af CA000000 		.4byte	0xca
 4194 03b3 00       		.byte	0
 4195 03b4 09       		.uleb128 0x9
 4196 03b5 D6020000 		.4byte	.LASF66
 4197 03b9 07       		.byte	0x7
 4198 03ba 96       		.byte	0x96
 4199 03bb 25000000 		.4byte	0x25
 4200 03bf 04       		.byte	0x4
ARM GAS  C:\Users\rdn\AppData\Local\Temp\ccCxUcqe.s 			page 100


 4201 03c0 09       		.uleb128 0x9
 4202 03c1 3D0A0000 		.4byte	.LASF67
 4203 03c5 07       		.byte	0x7
 4204 03c6 97       		.byte	0x97
 4205 03c7 2C000000 		.4byte	0x2c
 4206 03cb 08       		.byte	0x8
 4207 03cc 00       		.byte	0
 4208 03cd 04       		.uleb128 0x4
 4209 03ce 0D060000 		.4byte	.LASF68
 4210 03d2 07       		.byte	0x7
 4211 03d3 98       		.byte	0x98
 4212 03d4 9C030000 		.4byte	0x39c
 4213 03d8 07       		.uleb128 0x7
 4214 03d9 FF070000 		.4byte	.LASF69
 4215 03dd BC       		.byte	0xbc
 4216 03de 07       		.byte	0x7
 4217 03df 9A       		.byte	0x9a
 4218 03e0 59040000 		.4byte	0x459
 4219 03e4 08       		.uleb128 0x8
 4220 03e5 647400   		.ascii	"dt\000"
 4221 03e8 07       		.byte	0x7
 4222 03e9 9B       		.byte	0x9b
 4223 03ea F6000000 		.4byte	0xf6
 4224 03ee 00       		.byte	0
 4225 03ef 08       		.uleb128 0x8
 4226 03f0 737200   		.ascii	"sr\000"
 4227 03f3 07       		.byte	0x7
 4228 03f4 9C       		.byte	0x9c
 4229 03f5 25010000 		.4byte	0x125
 4230 03f9 01       		.byte	0x1
 4231 03fa 09       		.uleb128 0x9
 4232 03fb CF020000 		.4byte	.LASF55
 4233 03ff 07       		.byte	0x7
 4234 0400 9C       		.byte	0x9c
 4235 0401 25010000 		.4byte	0x125
 4236 0405 02       		.byte	0x2
 4237 0406 09       		.uleb128 0x9
 4238 0407 45040000 		.4byte	.LASF57
 4239 040b 07       		.byte	0x7
 4240 040c 9E       		.byte	0x9e
 4241 040d 91030000 		.4byte	0x391
 4242 0411 04       		.byte	0x4
 4243 0412 08       		.uleb128 0x8
 4244 0413 706C6300 		.ascii	"plc\000"
 4245 0417 07       		.byte	0x7
 4246 0418 9F       		.byte	0x9f
 4247 0419 CD030000 		.4byte	0x3cd
 4248 041d 9C       		.byte	0x9c
 4249 041e 09       		.uleb128 0x9
 4250 041f 2E060000 		.4byte	.LASF70
 4251 0423 07       		.byte	0x7
 4252 0424 A1       		.byte	0xa1
 4253 0425 25000000 		.4byte	0x25
 4254 0429 A8       		.byte	0xa8
 4255 042a 09       		.uleb128 0x9
 4256 042b A9080000 		.4byte	.LASF60
 4257 042f 07       		.byte	0x7
ARM GAS  C:\Users\rdn\AppData\Local\Temp\ccCxUcqe.s 			page 101


 4258 0430 A1       		.byte	0xa1
 4259 0431 25000000 		.4byte	0x25
 4260 0435 AC       		.byte	0xac
 4261 0436 09       		.uleb128 0x9
 4262 0437 260B0000 		.4byte	.LASF61
 4263 043b 07       		.byte	0x7
 4264 043c A1       		.byte	0xa1
 4265 043d 25000000 		.4byte	0x25
 4266 0441 B0       		.byte	0xb0
 4267 0442 09       		.uleb128 0x9
 4268 0443 B80A0000 		.4byte	.LASF71
 4269 0447 07       		.byte	0x7
 4270 0448 A1       		.byte	0xa1
 4271 0449 25000000 		.4byte	0x25
 4272 044d B4       		.byte	0xb4
 4273 044e 08       		.uleb128 0x8
 4274 044f 7800     		.ascii	"x\000"
 4275 0451 07       		.byte	0x7
 4276 0452 A2       		.byte	0xa2
 4277 0453 28030000 		.4byte	0x328
 4278 0457 B8       		.byte	0xb8
 4279 0458 00       		.byte	0
 4280 0459 05       		.uleb128 0x5
 4281 045a 0B080000 		.4byte	.LASF72
 4282 045e 01       		.byte	0x1
 4283 045f 45000000 		.4byte	0x45
 4284 0463 08       		.byte	0x8
 4285 0464 E2       		.byte	0xe2
 4286 0465 82040000 		.4byte	0x482
 4287 0469 06       		.uleb128 0x6
 4288 046a A6040000 		.4byte	.LASF73
 4289 046e 00       		.byte	0
 4290 046f 06       		.uleb128 0x6
 4291 0470 A8050000 		.4byte	.LASF74
 4292 0474 01       		.byte	0x1
 4293 0475 06       		.uleb128 0x6
 4294 0476 C6000000 		.4byte	.LASF75
 4295 047a 02       		.byte	0x2
 4296 047b 06       		.uleb128 0x6
 4297 047c 8B030000 		.4byte	.LASF76
 4298 0480 03       		.byte	0x3
 4299 0481 00       		.byte	0
 4300 0482 10       		.uleb128 0x10
 4301 0483 04       		.byte	0x4
 4302 0484 A1020000 		.4byte	0x2a1
 4303 0488 10       		.uleb128 0x10
 4304 0489 04       		.byte	0x4
 4305 048a D8030000 		.4byte	0x3d8
 4306 048e 03       		.uleb128 0x3
 4307 048f 08       		.byte	0x8
 4308 0490 04       		.byte	0x4
 4309 0491 3E080000 		.4byte	.LASF77
 4310 0495 11       		.uleb128 0x11
 4311 0496 04       		.byte	0x4
 4312 0497 03       		.uleb128 0x3
 4313 0498 01       		.byte	0x1
 4314 0499 08       		.byte	0x8
ARM GAS  C:\Users\rdn\AppData\Local\Temp\ccCxUcqe.s 			page 102


 4315 049a E5040000 		.4byte	.LASF78
 4316 049e 03       		.uleb128 0x3
 4317 049f 08       		.byte	0x8
 4318 04a0 04       		.byte	0x4
 4319 04a1 FC0B0000 		.4byte	.LASF79
 4320 04a5 05       		.uleb128 0x5
 4321 04a6 E30A0000 		.4byte	.LASF80
 4322 04aa 01       		.byte	0x1
 4323 04ab 45000000 		.4byte	0x45
 4324 04af 09       		.byte	0x9
 4325 04b0 76       		.byte	0x76
 4326 04b1 E6040000 		.4byte	0x4e6
 4327 04b5 06       		.uleb128 0x6
 4328 04b6 97050000 		.4byte	.LASF81
 4329 04ba 00       		.byte	0
 4330 04bb 06       		.uleb128 0x6
 4331 04bc 44000000 		.4byte	.LASF82
 4332 04c0 01       		.byte	0x1
 4333 04c1 06       		.uleb128 0x6
 4334 04c2 E7090000 		.4byte	.LASF83
 4335 04c6 02       		.byte	0x2
 4336 04c7 06       		.uleb128 0x6
 4337 04c8 F6060000 		.4byte	.LASF84
 4338 04cc 03       		.byte	0x3
 4339 04cd 06       		.uleb128 0x6
 4340 04ce C80B0000 		.4byte	.LASF85
 4341 04d2 04       		.byte	0x4
 4342 04d3 06       		.uleb128 0x6
 4343 04d4 30000000 		.4byte	.LASF86
 4344 04d8 05       		.byte	0x5
 4345 04d9 06       		.uleb128 0x6
 4346 04da C2070000 		.4byte	.LASF87
 4347 04de 06       		.byte	0x6
 4348 04df 06       		.uleb128 0x6
 4349 04e0 D90B0000 		.4byte	.LASF88
 4350 04e4 07       		.byte	0x7
 4351 04e5 00       		.byte	0
 4352 04e6 05       		.uleb128 0x5
 4353 04e7 3A020000 		.4byte	.LASF89
 4354 04eb 01       		.byte	0x1
 4355 04ec 45000000 		.4byte	0x45
 4356 04f0 04       		.byte	0x4
 4357 04f1 45       		.byte	0x45
 4358 04f2 03050000 		.4byte	0x503
 4359 04f6 06       		.uleb128 0x6
 4360 04f7 010B0000 		.4byte	.LASF90
 4361 04fb 00       		.byte	0
 4362 04fc 06       		.uleb128 0x6
 4363 04fd 27090000 		.4byte	.LASF91
 4364 0501 01       		.byte	0x1
 4365 0502 00       		.byte	0
 4366 0503 07       		.uleb128 0x7
 4367 0504 2A050000 		.4byte	.LASF92
 4368 0508 0C       		.byte	0xc
 4369 0509 04       		.byte	0x4
 4370 050a 5E       		.byte	0x5e
 4371 050b 30050000 		.4byte	0x530
ARM GAS  C:\Users\rdn\AppData\Local\Temp\ccCxUcqe.s 			page 103


 4372 050f 08       		.uleb128 0x8
 4373 0510 7600     		.ascii	"v\000"
 4374 0512 04       		.byte	0x4
 4375 0513 5F       		.byte	0x5f
 4376 0514 AD000000 		.4byte	0xad
 4377 0518 00       		.byte	0
 4378 0519 08       		.uleb128 0x8
 4379 051a 6E00     		.ascii	"n\000"
 4380 051c 04       		.byte	0x4
 4381 051d 60       		.byte	0x60
 4382 051e 25000000 		.4byte	0x25
 4383 0522 04       		.byte	0x4
 4384 0523 09       		.uleb128 0x9
 4385 0524 91050000 		.4byte	.LASF93
 4386 0528 04       		.byte	0x4
 4387 0529 60       		.byte	0x60
 4388 052a 25000000 		.4byte	0x25
 4389 052e 08       		.byte	0x8
 4390 052f 00       		.byte	0
 4391 0530 07       		.uleb128 0x7
 4392 0531 140C0000 		.4byte	.LASF94
 4393 0535 18       		.byte	0x18
 4394 0536 04       		.byte	0x4
 4395 0537 65       		.byte	0x65
 4396 0538 85050000 		.4byte	0x585
 4397 053c 08       		.uleb128 0x8
 4398 053d 6C6F7700 		.ascii	"low\000"
 4399 0541 04       		.byte	0x4
 4400 0542 66       		.byte	0x66
 4401 0543 AD000000 		.4byte	0xad
 4402 0547 00       		.byte	0
 4403 0548 09       		.uleb128 0x9
 4404 0549 61070000 		.4byte	.LASF95
 4405 054d 04       		.byte	0x4
 4406 054e 66       		.byte	0x66
 4407 054f AD000000 		.4byte	0xad
 4408 0553 04       		.byte	0x4
 4409 0554 09       		.uleb128 0x9
 4410 0555 D6070000 		.4byte	.LASF96
 4411 0559 04       		.byte	0x4
 4412 055a 67       		.byte	0x67
 4413 055b 25000000 		.4byte	0x25
 4414 055f 08       		.byte	0x8
 4415 0560 09       		.uleb128 0x9
 4416 0561 DC020000 		.4byte	.LASF97
 4417 0565 04       		.byte	0x4
 4418 0566 67       		.byte	0x67
 4419 0567 25000000 		.4byte	0x25
 4420 056b 0C       		.byte	0xc
 4421 056c 09       		.uleb128 0x9
 4422 056d 39040000 		.4byte	.LASF98
 4423 0571 04       		.byte	0x4
 4424 0572 67       		.byte	0x67
 4425 0573 25000000 		.4byte	0x25
 4426 0577 10       		.byte	0x10
 4427 0578 09       		.uleb128 0x9
 4428 0579 23010000 		.4byte	.LASF99
ARM GAS  C:\Users\rdn\AppData\Local\Temp\ccCxUcqe.s 			page 104


 4429 057d 04       		.byte	0x4
 4430 057e 68       		.byte	0x68
 4431 057f 27020000 		.4byte	0x227
 4432 0583 14       		.byte	0x14
 4433 0584 00       		.byte	0
 4434 0585 07       		.uleb128 0x7
 4435 0586 5E000000 		.4byte	.LASF100
 4436 058a 10       		.byte	0x10
 4437 058b 04       		.byte	0x4
 4438 058c 6B       		.byte	0x6b
 4439 058d C2050000 		.4byte	0x5c2
 4440 0591 09       		.uleb128 0x9
 4441 0592 67090000 		.4byte	.LASF101
 4442 0596 04       		.byte	0x4
 4443 0597 6C       		.byte	0x6c
 4444 0598 C2050000 		.4byte	0x5c2
 4445 059c 00       		.byte	0
 4446 059d 08       		.uleb128 0x8
 4447 059e 656E6400 		.ascii	"end\000"
 4448 05a2 04       		.byte	0x4
 4449 05a3 6C       		.byte	0x6c
 4450 05a4 C2050000 		.4byte	0x5c2
 4451 05a8 04       		.byte	0x4
 4452 05a9 09       		.uleb128 0x9
 4453 05aa 9A0C0000 		.4byte	.LASF102
 4454 05ae 04       		.byte	0x4
 4455 05af 6D       		.byte	0x6d
 4456 05b0 CD050000 		.4byte	0x5cd
 4457 05b4 08       		.byte	0x8
 4458 05b5 09       		.uleb128 0x9
 4459 05b6 1D060000 		.4byte	.LASF103
 4460 05ba 04       		.byte	0x4
 4461 05bb 6D       		.byte	0x6d
 4462 05bc CD050000 		.4byte	0x5cd
 4463 05c0 0C       		.byte	0xc
 4464 05c1 00       		.byte	0
 4465 05c2 10       		.uleb128 0x10
 4466 05c3 04       		.byte	0x4
 4467 05c4 C8050000 		.4byte	0x5c8
 4468 05c8 12       		.uleb128 0x12
 4469 05c9 B4000000 		.4byte	0xb4
 4470 05cd 10       		.uleb128 0x10
 4471 05ce 04       		.byte	0x4
 4472 05cf B4000000 		.4byte	0xb4
 4473 05d3 07       		.uleb128 0x7
 4474 05d4 F6070000 		.4byte	.LASF104
 4475 05d8 38       		.byte	0x38
 4476 05d9 04       		.byte	0x4
 4477 05da 70       		.byte	0x70
 4478 05db 0F060000 		.4byte	0x60f
 4479 05df 09       		.uleb128 0x9
 4480 05e0 29010000 		.4byte	.LASF105
 4481 05e4 04       		.byte	0x4
 4482 05e5 71       		.byte	0x71
 4483 05e6 E6040000 		.4byte	0x4e6
 4484 05ea 00       		.byte	0
 4485 05eb 08       		.uleb128 0x8
ARM GAS  C:\Users\rdn\AppData\Local\Temp\ccCxUcqe.s 			page 105


 4486 05ec 616300   		.ascii	"ac\000"
 4487 05ef 04       		.byte	0x4
 4488 05f0 72       		.byte	0x72
 4489 05f1 30050000 		.4byte	0x530
 4490 05f5 04       		.byte	0x4
 4491 05f6 09       		.uleb128 0x9
 4492 05f7 E0040000 		.4byte	.LASF106
 4493 05fb 04       		.byte	0x4
 4494 05fc 73       		.byte	0x73
 4495 05fd 03050000 		.4byte	0x503
 4496 0601 1C       		.byte	0x1c
 4497 0602 09       		.uleb128 0x9
 4498 0603 6E000000 		.4byte	.LASF107
 4499 0607 04       		.byte	0x4
 4500 0608 74       		.byte	0x74
 4501 0609 85050000 		.4byte	0x585
 4502 060d 28       		.byte	0x28
 4503 060e 00       		.byte	0
 4504 060f 04       		.uleb128 0x4
 4505 0610 7B040000 		.4byte	.LASF108
 4506 0614 04       		.byte	0x4
 4507 0615 75       		.byte	0x75
 4508 0616 D3050000 		.4byte	0x5d3
 4509 061a 07       		.uleb128 0x7
 4510 061b 08070000 		.4byte	.LASF109
 4511 061f 08       		.byte	0x8
 4512 0620 0A       		.byte	0xa
 4513 0621 1E       		.byte	0x1e
 4514 0622 3F060000 		.4byte	0x63f
 4515 0626 09       		.uleb128 0x9
 4516 0627 48020000 		.4byte	.LASF42
 4517 062b 0A       		.byte	0xa
 4518 062c 1F       		.byte	0x1f
 4519 062d 27020000 		.4byte	0x227
 4520 0631 00       		.byte	0
 4521 0632 09       		.uleb128 0x9
 4522 0633 2D040000 		.4byte	.LASF110
 4523 0637 0A       		.byte	0xa
 4524 0638 20       		.byte	0x20
 4525 0639 25000000 		.4byte	0x25
 4526 063d 04       		.byte	0x4
 4527 063e 00       		.byte	0
 4528 063f 04       		.uleb128 0x4
 4529 0640 F10A0000 		.4byte	.LASF111
 4530 0644 0A       		.byte	0xa
 4531 0645 21       		.byte	0x21
 4532 0646 1A060000 		.4byte	0x61a
 4533 064a 07       		.uleb128 0x7
 4534 064b 590A0000 		.4byte	.LASF112
 4535 064f 1C       		.byte	0x1c
 4536 0650 0B       		.byte	0xb
 4537 0651 1E       		.byte	0x1e
 4538 0652 B7060000 		.4byte	0x6b7
 4539 0656 09       		.uleb128 0x9
 4540 0657 01030000 		.4byte	.LASF113
 4541 065b 0B       		.byte	0xb
 4542 065c 1F       		.byte	0x1f
ARM GAS  C:\Users\rdn\AppData\Local\Temp\ccCxUcqe.s 			page 106


 4543 065d 25000000 		.4byte	0x25
 4544 0661 00       		.byte	0
 4545 0662 09       		.uleb128 0x9
 4546 0663 1A080000 		.4byte	.LASF114
 4547 0667 0B       		.byte	0xb
 4548 0668 1F       		.byte	0x1f
 4549 0669 25000000 		.4byte	0x25
 4550 066d 04       		.byte	0x4
 4551 066e 09       		.uleb128 0x9
 4552 066f F6080000 		.4byte	.LASF115
 4553 0673 0B       		.byte	0xb
 4554 0674 20       		.byte	0x20
 4555 0675 25000000 		.4byte	0x25
 4556 0679 08       		.byte	0x8
 4557 067a 09       		.uleb128 0x9
 4558 067b 08060000 		.4byte	.LASF116
 4559 067f 0B       		.byte	0xb
 4560 0680 20       		.byte	0x20
 4561 0681 25000000 		.4byte	0x25
 4562 0685 0C       		.byte	0xc
 4563 0686 09       		.uleb128 0x9
 4564 0687 6D0C0000 		.4byte	.LASF117
 4565 068b 0B       		.byte	0xb
 4566 068c 21       		.byte	0x21
 4567 068d 25000000 		.4byte	0x25
 4568 0691 10       		.byte	0x10
 4569 0692 09       		.uleb128 0x9
 4570 0693 730C0000 		.4byte	.LASF118
 4571 0697 0B       		.byte	0xb
 4572 0698 21       		.byte	0x21
 4573 0699 25000000 		.4byte	0x25
 4574 069d 14       		.byte	0x14
 4575 069e 09       		.uleb128 0x9
 4576 069f 660A0000 		.4byte	.LASF119
 4577 06a3 0B       		.byte	0xb
 4578 06a4 22       		.byte	0x22
 4579 06a5 27020000 		.4byte	0x227
 4580 06a9 18       		.byte	0x18
 4581 06aa 09       		.uleb128 0x9
 4582 06ab 6B0A0000 		.4byte	.LASF120
 4583 06af 0B       		.byte	0xb
 4584 06b0 22       		.byte	0x22
 4585 06b1 27020000 		.4byte	0x227
 4586 06b5 19       		.byte	0x19
 4587 06b6 00       		.byte	0
 4588 06b7 04       		.uleb128 0x4
 4589 06b8 410B0000 		.4byte	.LASF121
 4590 06bc 0B       		.byte	0xb
 4591 06bd 23       		.byte	0x23
 4592 06be 4A060000 		.4byte	0x64a
 4593 06c2 07       		.uleb128 0x7
 4594 06c3 56020000 		.4byte	.LASF122
 4595 06c7 50       		.byte	0x50
 4596 06c8 0C       		.byte	0xc
 4597 06c9 1E       		.byte	0x1e
 4598 06ca FE060000 		.4byte	0x6fe
 4599 06ce 09       		.uleb128 0x9
ARM GAS  C:\Users\rdn\AppData\Local\Temp\ccCxUcqe.s 			page 107


 4600 06cf A1090000 		.4byte	.LASF123
 4601 06d3 0C       		.byte	0xc
 4602 06d4 1F       		.byte	0x1f
 4603 06d5 25000000 		.4byte	0x25
 4604 06d9 00       		.byte	0
 4605 06da 09       		.uleb128 0x9
 4606 06db D1090000 		.4byte	.LASF124
 4607 06df 0C       		.byte	0xc
 4608 06e0 20       		.byte	0x20
 4609 06e1 27020000 		.4byte	0x227
 4610 06e5 04       		.byte	0x4
 4611 06e6 09       		.uleb128 0x9
 4612 06e7 55000000 		.4byte	.LASF125
 4613 06eb 0C       		.byte	0xc
 4614 06ec 21       		.byte	0x21
 4615 06ed FE060000 		.4byte	0x6fe
 4616 06f1 08       		.byte	0x8
 4617 06f2 08       		.uleb128 0x8
 4618 06f3 726300   		.ascii	"rc\000"
 4619 06f6 0C       		.byte	0xc
 4620 06f7 22       		.byte	0x22
 4621 06f8 0E070000 		.4byte	0x70e
 4622 06fc 10       		.byte	0x10
 4623 06fd 00       		.byte	0
 4624 06fe 0D       		.uleb128 0xd
 4625 06ff 25000000 		.4byte	0x25
 4626 0703 0E070000 		.4byte	0x70e
 4627 0707 0E       		.uleb128 0xe
 4628 0708 3E020000 		.4byte	0x23e
 4629 070c 01       		.byte	0x1
 4630 070d 00       		.byte	0
 4631 070e 0D       		.uleb128 0xd
 4632 070f 25000000 		.4byte	0x25
 4633 0713 24070000 		.4byte	0x724
 4634 0717 0E       		.uleb128 0xe
 4635 0718 3E020000 		.4byte	0x23e
 4636 071c 01       		.byte	0x1
 4637 071d 0E       		.uleb128 0xe
 4638 071e 3E020000 		.4byte	0x23e
 4639 0722 07       		.byte	0x7
 4640 0723 00       		.byte	0
 4641 0724 04       		.uleb128 0x4
 4642 0725 EF000000 		.4byte	.LASF126
 4643 0729 0C       		.byte	0xc
 4644 072a 23       		.byte	0x23
 4645 072b C2060000 		.4byte	0x6c2
 4646 072f 10       		.uleb128 0x10
 4647 0730 04       		.byte	0x4
 4648 0731 35070000 		.4byte	0x735
 4649 0735 12       		.uleb128 0x12
 4650 0736 2C000000 		.4byte	0x2c
 4651 073a 07       		.uleb128 0x7
 4652 073b DC070000 		.4byte	.LASF127
 4653 073f 0C       		.byte	0xc
 4654 0740 0D       		.byte	0xd
 4655 0741 21       		.byte	0x21
 4656 0742 6A070000 		.4byte	0x76a
ARM GAS  C:\Users\rdn\AppData\Local\Temp\ccCxUcqe.s 			page 108


 4657 0746 09       		.uleb128 0x9
 4658 0747 63020000 		.4byte	.LASF128
 4659 074b 0D       		.byte	0xd
 4660 074c 22       		.byte	0x22
 4661 074d 25000000 		.4byte	0x25
 4662 0751 00       		.byte	0
 4663 0752 08       		.uleb128 0x8
 4664 0753 6E7100   		.ascii	"nq\000"
 4665 0756 0D       		.byte	0xd
 4666 0757 22       		.byte	0x22
 4667 0758 25000000 		.4byte	0x25
 4668 075c 04       		.byte	0x4
 4669 075d 09       		.uleb128 0x9
 4670 075e 700A0000 		.4byte	.LASF129
 4671 0762 0D       		.byte	0xd
 4672 0763 23       		.byte	0x23
 4673 0764 27020000 		.4byte	0x227
 4674 0768 08       		.byte	0x8
 4675 0769 00       		.byte	0
 4676 076a 04       		.uleb128 0x4
 4677 076b 69020000 		.4byte	.LASF130
 4678 076f 0D       		.byte	0xd
 4679 0770 24       		.byte	0x24
 4680 0771 3A070000 		.4byte	0x73a
 4681 0775 07       		.uleb128 0x7
 4682 0776 790A0000 		.4byte	.LASF131
 4683 077a 84       		.byte	0x84
 4684 077b 01       		.byte	0x1
 4685 077c 27       		.byte	0x27
 4686 077d C9070000 		.4byte	0x7c9
 4687 0781 08       		.uleb128 0x8
 4688 0782 627700   		.ascii	"bw\000"
 4689 0785 01       		.byte	0x1
 4690 0786 28       		.byte	0x28
 4691 0787 A5040000 		.4byte	0x4a5
 4692 078b 00       		.byte	0
 4693 078c 09       		.uleb128 0x9
 4694 078d 06030000 		.4byte	.LASF132
 4695 0791 01       		.byte	0x1
 4696 0792 29       		.byte	0x29
 4697 0793 27020000 		.4byte	0x227
 4698 0797 01       		.byte	0x1
 4699 0798 09       		.uleb128 0x9
 4700 0799 45040000 		.4byte	.LASF57
 4701 079d 01       		.byte	0x1
 4702 079e 2A       		.byte	0x2a
 4703 079f 3F060000 		.4byte	0x63f
 4704 07a3 04       		.byte	0x4
 4705 07a4 08       		.uleb128 0x8
 4706 07a5 736E7300 		.ascii	"sns\000"
 4707 07a9 01       		.byte	0x1
 4708 07aa 2B       		.byte	0x2b
 4709 07ab B7060000 		.4byte	0x6b7
 4710 07af 0C       		.byte	0xc
 4711 07b0 08       		.uleb128 0x8
 4712 07b1 746E7300 		.ascii	"tns\000"
 4713 07b5 01       		.byte	0x1
ARM GAS  C:\Users\rdn\AppData\Local\Temp\ccCxUcqe.s 			page 109


 4714 07b6 2C       		.byte	0x2c
 4715 07b7 24070000 		.4byte	0x724
 4716 07bb 28       		.byte	0x28
 4717 07bc 09       		.uleb128 0x9
 4718 07bd 4B0C0000 		.4byte	.LASF58
 4719 07c1 01       		.byte	0x1
 4720 07c2 2D       		.byte	0x2d
 4721 07c3 6A070000 		.4byte	0x76a
 4722 07c7 78       		.byte	0x78
 4723 07c8 00       		.byte	0
 4724 07c9 13       		.uleb128 0x13
 4725 07ca 430A0000 		.4byte	.LASF133
 4726 07ce 02       		.byte	0x2
 4727 07cf 2E       		.byte	0x2e
 4728 07d0 25000000 		.4byte	0x25
 4729 07d4 03       		.byte	0x3
 4730 07d5 EE070000 		.4byte	0x7ee
 4731 07d9 14       		.uleb128 0x14
 4732 07da 647400   		.ascii	"dt\000"
 4733 07dd 02       		.byte	0x2
 4734 07de 2E       		.byte	0x2e
 4735 07df F6000000 		.4byte	0xf6
 4736 07e3 14       		.uleb128 0x14
 4737 07e4 737200   		.ascii	"sr\000"
 4738 07e7 02       		.byte	0x2
 4739 07e8 2E       		.byte	0x2e
 4740 07e9 25010000 		.4byte	0x125
 4741 07ed 00       		.byte	0
 4742 07ee 13       		.uleb128 0x13
 4743 07ef D9040000 		.4byte	.LASF134
 4744 07f3 09       		.byte	0x9
 4745 07f4 6D       		.byte	0x6d
 4746 07f5 27020000 		.4byte	0x227
 4747 07f9 03       		.byte	0x3
 4748 07fa 09080000 		.4byte	0x809
 4749 07fe 14       		.uleb128 0x14
 4750 07ff 737200   		.ascii	"sr\000"
 4751 0802 09       		.byte	0x9
 4752 0803 6D       		.byte	0x6d
 4753 0804 25010000 		.4byte	0x125
 4754 0808 00       		.byte	0
 4755 0809 13       		.uleb128 0x13
 4756 080a 8C020000 		.4byte	.LASF135
 4757 080e 03       		.byte	0x3
 4758 080f 2C       		.byte	0x2c
 4759 0810 2C000000 		.4byte	0x2c
 4760 0814 03       		.byte	0x3
 4761 0815 53080000 		.4byte	0x853
 4762 0819 14       		.uleb128 0x14
 4763 081a 5F7800   		.ascii	"_x\000"
 4764 081d 03       		.byte	0x3
 4765 081e 2C       		.byte	0x2c
 4766 081f 2C000000 		.4byte	0x2c
 4767 0823 14       		.uleb128 0x14
 4768 0824 65787000 		.ascii	"exp\000"
 4769 0828 03       		.byte	0x3
 4770 0829 2C       		.byte	0x2c
ARM GAS  C:\Users\rdn\AppData\Local\Temp\ccCxUcqe.s 			page 110


 4771 082a 25000000 		.4byte	0x25
 4772 082e 15       		.uleb128 0x15
 4773 082f 04       		.byte	0x4
 4774 0830 03       		.byte	0x3
 4775 0831 2D       		.byte	0x2d
 4776 0832 49080000 		.4byte	0x849
 4777 0836 16       		.uleb128 0x16
 4778 0837 6600     		.ascii	"f\000"
 4779 0839 03       		.byte	0x3
 4780 083a 2D       		.byte	0x2d
 4781 083b 2C000000 		.4byte	0x2c
 4782 083f 16       		.uleb128 0x16
 4783 0840 7300     		.ascii	"s\000"
 4784 0842 03       		.byte	0x3
 4785 0843 2D       		.byte	0x2d
 4786 0844 D5000000 		.4byte	0xd5
 4787 0848 00       		.byte	0
 4788 0849 17       		.uleb128 0x17
 4789 084a 7800     		.ascii	"x\000"
 4790 084c 03       		.byte	0x3
 4791 084d 2D       		.byte	0x2d
 4792 084e 2E080000 		.4byte	0x82e
 4793 0852 00       		.byte	0
 4794 0853 13       		.uleb128 0x13
 4795 0854 29000000 		.4byte	.LASF136
 4796 0858 02       		.byte	0x2
 4797 0859 3B       		.byte	0x3b
 4798 085a 25000000 		.4byte	0x25
 4799 085e 03       		.byte	0x3
 4800 085f 78080000 		.4byte	0x878
 4801 0863 14       		.uleb128 0x14
 4802 0864 647400   		.ascii	"dt\000"
 4803 0867 02       		.byte	0x2
 4804 0868 3B       		.byte	0x3b
 4805 0869 F6000000 		.4byte	0xf6
 4806 086d 14       		.uleb128 0x14
 4807 086e 737200   		.ascii	"sr\000"
 4808 0871 02       		.byte	0x2
 4809 0872 3B       		.byte	0x3b
 4810 0873 25010000 		.4byte	0x125
 4811 0877 00       		.byte	0
 4812 0878 13       		.uleb128 0x13
 4813 0879 4A0A0000 		.4byte	.LASF137
 4814 087d 02       		.byte	0x2
 4815 087e 40       		.byte	0x40
 4816 087f 25000000 		.4byte	0x25
 4817 0883 03       		.byte	0x3
 4818 0884 93080000 		.4byte	0x893
 4819 0888 14       		.uleb128 0x14
 4820 0889 737200   		.ascii	"sr\000"
 4821 088c 02       		.byte	0x2
 4822 088d 40       		.byte	0x40
 4823 088e 25010000 		.4byte	0x125
 4824 0892 00       		.byte	0
 4825 0893 18       		.uleb128 0x18
 4826 0894 F0030000 		.4byte	.LASF163
 4827 0898 04       		.byte	0x4
ARM GAS  C:\Users\rdn\AppData\Local\Temp\ccCxUcqe.s 			page 111


 4828 0899 DA       		.byte	0xda
 4829 089a 03       		.byte	0x3
 4830 089b C8080000 		.4byte	0x8c8
 4831 089f 19       		.uleb128 0x19
 4832 08a0 22060000 		.4byte	.LASF138
 4833 08a4 04       		.byte	0x4
 4834 08a5 DB       		.byte	0xdb
 4835 08a6 C8080000 		.4byte	0x8c8
 4836 08aa 14       		.uleb128 0x14
 4837 08ab 7600     		.ascii	"v\000"
 4838 08ad 04       		.byte	0x4
 4839 08ae DB       		.byte	0xdb
 4840 08af AD000000 		.4byte	0xad
 4841 08b3 14       		.uleb128 0x14
 4842 08b4 6E00     		.ascii	"n\000"
 4843 08b6 04       		.byte	0x4
 4844 08b7 DB       		.byte	0xdb
 4845 08b8 25000000 		.4byte	0x25
 4846 08bc 1A       		.uleb128 0x1a
 4847 08bd E0040000 		.4byte	.LASF106
 4848 08c1 04       		.byte	0x4
 4849 08c2 DD       		.byte	0xdd
 4850 08c3 CE080000 		.4byte	0x8ce
 4851 08c7 00       		.byte	0
 4852 08c8 10       		.uleb128 0x10
 4853 08c9 04       		.byte	0x4
 4854 08ca D3050000 		.4byte	0x5d3
 4855 08ce 10       		.uleb128 0x10
 4856 08cf 04       		.byte	0x4
 4857 08d0 03050000 		.4byte	0x503
 4858 08d4 13       		.uleb128 0x13
 4859 08d5 E2000000 		.4byte	.LASF139
 4860 08d9 04       		.byte	0x4
 4861 08da F2       		.byte	0xf2
 4862 08db AD000000 		.4byte	0xad
 4863 08df 03       		.byte	0x3
 4864 08e0 0F090000 		.4byte	0x90f
 4865 08e4 19       		.uleb128 0x19
 4866 08e5 22060000 		.4byte	.LASF138
 4867 08e9 04       		.byte	0x4
 4868 08ea F2       		.byte	0xf2
 4869 08eb C8080000 		.4byte	0x8c8
 4870 08ef 14       		.uleb128 0x14
 4871 08f0 6E00     		.ascii	"n\000"
 4872 08f2 04       		.byte	0x4
 4873 08f3 F2       		.byte	0xf2
 4874 08f4 25000000 		.4byte	0x25
 4875 08f8 1A       		.uleb128 0x1a
 4876 08f9 E0040000 		.4byte	.LASF106
 4877 08fd 04       		.byte	0x4
 4878 08fe F4       		.byte	0xf4
 4879 08ff CE080000 		.4byte	0x8ce
 4880 0903 1B       		.uleb128 0x1b
 4881 0904 17       		.uleb128 0x17
 4882 0905 7600     		.ascii	"v\000"
 4883 0907 04       		.byte	0x4
 4884 0908 F7       		.byte	0xf7
ARM GAS  C:\Users\rdn\AppData\Local\Temp\ccCxUcqe.s 			page 112


 4885 0909 25000000 		.4byte	0x25
 4886 090d 00       		.byte	0
 4887 090e 00       		.byte	0
 4888 090f 13       		.uleb128 0x13
 4889 0910 030A0000 		.4byte	.LASF140
 4890 0914 02       		.byte	0x2
 4891 0915 32       		.byte	0x32
 4892 0916 25000000 		.4byte	0x25
 4893 091a 03       		.byte	0x3
 4894 091b 34090000 		.4byte	0x934
 4895 091f 14       		.uleb128 0x14
 4896 0920 647400   		.ascii	"dt\000"
 4897 0923 02       		.byte	0x2
 4898 0924 32       		.byte	0x32
 4899 0925 F6000000 		.4byte	0xf6
 4900 0929 14       		.uleb128 0x14
 4901 092a 737200   		.ascii	"sr\000"
 4902 092d 02       		.byte	0x2
 4903 092e 32       		.byte	0x32
 4904 092f 25010000 		.4byte	0x125
 4905 0933 00       		.byte	0
 4906 0934 13       		.uleb128 0x13
 4907 0935 200C0000 		.4byte	.LASF141
 4908 0939 02       		.byte	0x2
 4909 093a 51       		.byte	0x51
 4910 093b 25000000 		.4byte	0x25
 4911 093f 03       		.byte	0x3
 4912 0940 59090000 		.4byte	0x959
 4913 0944 14       		.uleb128 0x14
 4914 0945 647400   		.ascii	"dt\000"
 4915 0948 02       		.byte	0x2
 4916 0949 51       		.byte	0x51
 4917 094a F6000000 		.4byte	0xf6
 4918 094e 14       		.uleb128 0x14
 4919 094f 737200   		.ascii	"sr\000"
 4920 0952 02       		.byte	0x2
 4921 0953 51       		.byte	0x51
 4922 0954 25010000 		.4byte	0x125
 4923 0958 00       		.byte	0
 4924 0959 13       		.uleb128 0x13
 4925 095a 00000000 		.4byte	.LASF142
 4926 095e 02       		.byte	0x2
 4927 095f 56       		.byte	0x56
 4928 0960 25000000 		.4byte	0x25
 4929 0964 03       		.byte	0x3
 4930 0965 7E090000 		.4byte	0x97e
 4931 0969 14       		.uleb128 0x14
 4932 096a 647400   		.ascii	"dt\000"
 4933 096d 02       		.byte	0x2
 4934 096e 56       		.byte	0x56
 4935 096f F6000000 		.4byte	0xf6
 4936 0973 14       		.uleb128 0x14
 4937 0974 737200   		.ascii	"sr\000"
 4938 0977 02       		.byte	0x2
 4939 0978 56       		.byte	0x56
 4940 0979 25010000 		.4byte	0x125
 4941 097d 00       		.byte	0
ARM GAS  C:\Users\rdn\AppData\Local\Temp\ccCxUcqe.s 			page 113


 4942 097e 13       		.uleb128 0x13
 4943 097f 14000000 		.4byte	.LASF143
 4944 0983 02       		.byte	0x2
 4945 0984 36       		.byte	0x36
 4946 0985 25000000 		.4byte	0x25
 4947 0989 03       		.byte	0x3
 4948 098a A3090000 		.4byte	0x9a3
 4949 098e 14       		.uleb128 0x14
 4950 098f 647400   		.ascii	"dt\000"
 4951 0992 02       		.byte	0x2
 4952 0993 36       		.byte	0x36
 4953 0994 F6000000 		.4byte	0xf6
 4954 0998 14       		.uleb128 0x14
 4955 0999 737200   		.ascii	"sr\000"
 4956 099c 02       		.byte	0x2
 4957 099d 36       		.byte	0x36
 4958 099e 25010000 		.4byte	0x125
 4959 09a2 00       		.byte	0
 4960 09a3 1C       		.uleb128 0x1c
 4961 09a4 AA090000 		.4byte	.LASF145
 4962 09a8 01       		.byte	0x1
 4963 09a9 3B       		.byte	0x3b
 4964 09aa F6000000 		.4byte	0xf6
 4965 09ae 00000000 		.4byte	.LFB20
 4966 09b2 36000000 		.4byte	.LFE20-.LFB20
 4967 09b6 01       		.uleb128 0x1
 4968 09b7 9C       		.byte	0x9c
 4969 09b8 D8090000 		.4byte	0x9d8
 4970 09bc 1D       		.uleb128 0x1d
 4971 09bd 757300   		.ascii	"us\000"
 4972 09c0 01       		.byte	0x1
 4973 09c1 3B       		.byte	0x3b
 4974 09c2 25000000 		.4byte	0x25
 4975 09c6 00000000 		.4byte	.LLST0
 4976 09ca 1E       		.uleb128 0x1e
 4977 09cb 27060000 		.4byte	.LASF144
 4978 09cf 01       		.byte	0x1
 4979 09d0 3B       		.byte	0x3b
 4980 09d1 27020000 		.4byte	0x227
 4981 09d5 01       		.uleb128 0x1
 4982 09d6 51       		.byte	0x51
 4983 09d7 00       		.byte	0
 4984 09d8 1C       		.uleb128 0x1c
 4985 09d9 4F090000 		.4byte	.LASF146
 4986 09dd 01       		.byte	0x1
 4987 09de 49       		.byte	0x49
 4988 09df 25010000 		.4byte	0x125
 4989 09e3 00000000 		.4byte	.LFB21
 4990 09e7 68000000 		.4byte	.LFE21-.LFB21
 4991 09eb 01       		.uleb128 0x1
 4992 09ec 9C       		.byte	0x9c
 4993 09ed 0D0A0000 		.4byte	0xa0d
 4994 09f1 1D       		.uleb128 0x1d
 4995 09f2 687A00   		.ascii	"hz\000"
 4996 09f5 01       		.byte	0x1
 4997 09f6 49       		.byte	0x49
 4998 09f7 25000000 		.4byte	0x25
ARM GAS  C:\Users\rdn\AppData\Local\Temp\ccCxUcqe.s 			page 114


 4999 09fb 85000000 		.4byte	.LLST1
 5000 09ff 1E       		.uleb128 0x1e
 5001 0a00 27060000 		.4byte	.LASF144
 5002 0a04 01       		.byte	0x1
 5003 0a05 49       		.byte	0x49
 5004 0a06 27020000 		.4byte	0x227
 5005 0a0a 01       		.uleb128 0x1
 5006 0a0b 51       		.byte	0x51
 5007 0a0c 00       		.byte	0
 5008 0a0d 1F       		.uleb128 0x1f
 5009 0a0e B7000000 		.4byte	.LASF150
 5010 0a12 01       		.byte	0x1
 5011 0a13 BE       		.byte	0xbe
 5012 0a14 00000000 		.4byte	.LFB32
 5013 0a18 58000000 		.4byte	.LFE32-.LFB32
 5014 0a1c 01       		.uleb128 0x1
 5015 0a1d 9C       		.byte	0x9c
 5016 0a1e DA0A0000 		.4byte	0xada
 5017 0a22 20       		.uleb128 0x20
 5018 0a23 FD030000 		.4byte	.LASF147
 5019 0a27 01       		.byte	0x1
 5020 0a28 BF       		.byte	0xbf
 5021 0a29 82040000 		.4byte	0x482
 5022 0a2d 6E010000 		.4byte	.LLST2
 5023 0a31 20       		.uleb128 0x20
 5024 0a32 D4040000 		.4byte	.LASF148
 5025 0a36 01       		.byte	0x1
 5026 0a37 BF       		.byte	0xbf
 5027 0a38 DA0A0000 		.4byte	0xada
 5028 0a3c 9D010000 		.4byte	.LLST3
 5029 0a40 1E       		.uleb128 0x1e
 5030 0a41 CA090000 		.4byte	.LASF149
 5031 0a45 01       		.byte	0x1
 5032 0a46 BF       		.byte	0xbf
 5033 0a47 25000000 		.4byte	0x25
 5034 0a4b 01       		.uleb128 0x1
 5035 0a4c 52       		.byte	0x52
 5036 0a4d 21       		.uleb128 0x21
 5037 0a4e 70636D00 		.ascii	"pcm\000"
 5038 0a52 01       		.byte	0x1
 5039 0a53 C1       		.byte	0xc1
 5040 0a54 E10A0000 		.4byte	0xae1
 5041 0a58 01       		.uleb128 0x1
 5042 0a59 51       		.byte	0x51
 5043 0a5a 22       		.uleb128 0x22
 5044 0a5b 647400   		.ascii	"dt\000"
 5045 0a5e 01       		.byte	0x1
 5046 0a5f C3       		.byte	0xc3
 5047 0a60 F6000000 		.4byte	0xf6
 5048 0a64 BE010000 		.4byte	.LLST4
 5049 0a68 22       		.uleb128 0x22
 5050 0a69 737200   		.ascii	"sr\000"
 5051 0a6c 01       		.byte	0x1
 5052 0a6d C4       		.byte	0xc4
 5053 0a6e 25010000 		.4byte	0x125
 5054 0a72 DE010000 		.4byte	.LLST5
 5055 0a76 22       		.uleb128 0x22
ARM GAS  C:\Users\rdn\AppData\Local\Temp\ccCxUcqe.s 			page 115


 5056 0a77 787400   		.ascii	"xt\000"
 5057 0a7a 01       		.byte	0x1
 5058 0a7b C6       		.byte	0xc6
 5059 0a7c EC0A0000 		.4byte	0xaec
 5060 0a80 F1010000 		.4byte	.LLST6
 5061 0a84 22       		.uleb128 0x22
 5062 0a85 787300   		.ascii	"xs\000"
 5063 0a88 01       		.byte	0x1
 5064 0a89 C7       		.byte	0xc7
 5065 0a8a F20A0000 		.4byte	0xaf2
 5066 0a8e 1D020000 		.4byte	.LLST7
 5067 0a92 17       		.uleb128 0x17
 5068 0a93 6E7300   		.ascii	"ns\000"
 5069 0a96 01       		.byte	0x1
 5070 0a97 C8       		.byte	0xc8
 5071 0a98 25000000 		.4byte	0x25
 5072 0a9c 23       		.uleb128 0x23
 5073 0a9d C9070000 		.4byte	0x7c9
 5074 0aa1 18000000 		.4byte	.LBB111
 5075 0aa5 0A000000 		.4byte	.LBE111-.LBB111
 5076 0aa9 01       		.byte	0x1
 5077 0aaa C8       		.byte	0xc8
 5078 0aab C20A0000 		.4byte	0xac2
 5079 0aaf 24       		.uleb128 0x24
 5080 0ab0 E3070000 		.4byte	0x7e3
 5081 0ab4 35020000 		.4byte	.LLST8
 5082 0ab8 24       		.uleb128 0x24
 5083 0ab9 D9070000 		.4byte	0x7d9
 5084 0abd 48020000 		.4byte	.LLST9
 5085 0ac1 00       		.byte	0
 5086 0ac2 25       		.uleb128 0x25
 5087 0ac3 22000000 		.4byte	.LBB113
 5088 0ac7 2E000000 		.4byte	.LBE113-.LBB113
 5089 0acb 22       		.uleb128 0x22
 5090 0acc 6900     		.ascii	"i\000"
 5091 0ace 01       		.byte	0x1
 5092 0acf CA       		.byte	0xca
 5093 0ad0 25000000 		.4byte	0x25
 5094 0ad4 5B020000 		.4byte	.LLST10
 5095 0ad8 00       		.byte	0
 5096 0ad9 00       		.byte	0
 5097 0ada 10       		.uleb128 0x10
 5098 0adb 04       		.byte	0x4
 5099 0adc E00A0000 		.4byte	0xae0
 5100 0ae0 26       		.uleb128 0x26
 5101 0ae1 10       		.uleb128 0x10
 5102 0ae2 04       		.byte	0x4
 5103 0ae3 E70A0000 		.4byte	0xae7
 5104 0ae7 12       		.uleb128 0x12
 5105 0ae8 BF000000 		.4byte	0xbf
 5106 0aec 10       		.uleb128 0x10
 5107 0aed 04       		.byte	0x4
 5108 0aee BF000000 		.4byte	0xbf
 5109 0af2 10       		.uleb128 0x10
 5110 0af3 04       		.byte	0x4
 5111 0af4 2C000000 		.4byte	0x2c
 5112 0af8 1F       		.uleb128 0x1f
ARM GAS  C:\Users\rdn\AppData\Local\Temp\ccCxUcqe.s 			page 116


 5113 0af9 27020000 		.4byte	.LASF151
 5114 0afd 01       		.byte	0x1
 5115 0afe D3       		.byte	0xd3
 5116 0aff 00000000 		.4byte	.LFB33
 5117 0b03 60000000 		.4byte	.LFE33-.LFB33
 5118 0b07 01       		.uleb128 0x1
 5119 0b08 9C       		.byte	0x9c
 5120 0b09 FA0B0000 		.4byte	0xbfa
 5121 0b0d 20       		.uleb128 0x20
 5122 0b0e FD030000 		.4byte	.LASF147
 5123 0b12 01       		.byte	0x1
 5124 0b13 D4       		.byte	0xd4
 5125 0b14 82040000 		.4byte	0x482
 5126 0b18 7A020000 		.4byte	.LLST11
 5127 0b1c 20       		.uleb128 0x20
 5128 0b1d D4040000 		.4byte	.LASF148
 5129 0b21 01       		.byte	0x1
 5130 0b22 D4       		.byte	0xd4
 5131 0b23 DA0A0000 		.4byte	0xada
 5132 0b27 A9020000 		.4byte	.LLST12
 5133 0b2b 1E       		.uleb128 0x1e
 5134 0b2c CA090000 		.4byte	.LASF149
 5135 0b30 01       		.byte	0x1
 5136 0b31 D4       		.byte	0xd4
 5137 0b32 25000000 		.4byte	0x25
 5138 0b36 01       		.uleb128 0x1
 5139 0b37 52       		.byte	0x52
 5140 0b38 21       		.uleb128 0x21
 5141 0b39 70636D00 		.ascii	"pcm\000"
 5142 0b3d 01       		.byte	0x1
 5143 0b3e D6       		.byte	0xd6
 5144 0b3f FA0B0000 		.4byte	0xbfa
 5145 0b43 01       		.uleb128 0x1
 5146 0b44 51       		.byte	0x51
 5147 0b45 22       		.uleb128 0x22
 5148 0b46 647400   		.ascii	"dt\000"
 5149 0b49 01       		.byte	0x1
 5150 0b4a D8       		.byte	0xd8
 5151 0b4b F6000000 		.4byte	0xf6
 5152 0b4f CA020000 		.4byte	.LLST13
 5153 0b53 22       		.uleb128 0x22
 5154 0b54 737200   		.ascii	"sr\000"
 5155 0b57 01       		.byte	0x1
 5156 0b58 D9       		.byte	0xd9
 5157 0b59 25010000 		.4byte	0x125
 5158 0b5d DD020000 		.4byte	.LLST14
 5159 0b61 22       		.uleb128 0x22
 5160 0b62 787400   		.ascii	"xt\000"
 5161 0b65 01       		.byte	0x1
 5162 0b66 DB       		.byte	0xdb
 5163 0b67 EC0A0000 		.4byte	0xaec
 5164 0b6b F0020000 		.4byte	.LLST15
 5165 0b6f 22       		.uleb128 0x22
 5166 0b70 787300   		.ascii	"xs\000"
 5167 0b73 01       		.byte	0x1
 5168 0b74 DC       		.byte	0xdc
 5169 0b75 F20A0000 		.4byte	0xaf2
ARM GAS  C:\Users\rdn\AppData\Local\Temp\ccCxUcqe.s 			page 117


 5170 0b79 1C030000 		.4byte	.LLST16
 5171 0b7d 17       		.uleb128 0x17
 5172 0b7e 6E7300   		.ascii	"ns\000"
 5173 0b81 01       		.byte	0x1
 5174 0b82 DD       		.byte	0xdd
 5175 0b83 25000000 		.4byte	0x25
 5176 0b87 23       		.uleb128 0x23
 5177 0b88 C9070000 		.4byte	0x7c9
 5178 0b8c 18000000 		.4byte	.LBB114
 5179 0b90 0A000000 		.4byte	.LBE114-.LBB114
 5180 0b94 01       		.byte	0x1
 5181 0b95 DD       		.byte	0xdd
 5182 0b96 AD0B0000 		.4byte	0xbad
 5183 0b9a 24       		.uleb128 0x24
 5184 0b9b E3070000 		.4byte	0x7e3
 5185 0b9f 34030000 		.4byte	.LLST17
 5186 0ba3 24       		.uleb128 0x24
 5187 0ba4 D9070000 		.4byte	0x7d9
 5188 0ba8 47030000 		.4byte	.LLST18
 5189 0bac 00       		.byte	0
 5190 0bad 25       		.uleb128 0x25
 5191 0bae 22000000 		.4byte	.LBB116
 5192 0bb2 36000000 		.4byte	.LBE116-.LBB116
 5193 0bb6 22       		.uleb128 0x22
 5194 0bb7 6900     		.ascii	"i\000"
 5195 0bb9 01       		.byte	0x1
 5196 0bba DF       		.byte	0xdf
 5197 0bbb 25000000 		.4byte	0x25
 5198 0bbf 5A030000 		.4byte	.LLST19
 5199 0bc3 27       		.uleb128 0x27
 5200 0bc4 09080000 		.4byte	0x809
 5201 0bc8 36000000 		.4byte	.LBB117
 5202 0bcc 16000000 		.4byte	.LBE117-.LBB117
 5203 0bd0 01       		.byte	0x1
 5204 0bd1 E1       		.byte	0xe1
 5205 0bd2 24       		.uleb128 0x24
 5206 0bd3 23080000 		.4byte	0x823
 5207 0bd7 79030000 		.4byte	.LLST20
 5208 0bdb 24       		.uleb128 0x24
 5209 0bdc 19080000 		.4byte	0x819
 5210 0be0 8E030000 		.4byte	.LLST21
 5211 0be4 25       		.uleb128 0x25
 5212 0be5 36000000 		.4byte	.LBB118
 5213 0be9 16000000 		.4byte	.LBE118-.LBB118
 5214 0bed 28       		.uleb128 0x28
 5215 0bee 49080000 		.4byte	0x849
 5216 0bf2 B4030000 		.4byte	.LLST22
 5217 0bf6 00       		.byte	0
 5218 0bf7 00       		.byte	0
 5219 0bf8 00       		.byte	0
 5220 0bf9 00       		.byte	0
 5221 0bfa 10       		.uleb128 0x10
 5222 0bfb 04       		.byte	0x4
 5223 0bfc 000C0000 		.4byte	0xc00
 5224 0c00 12       		.uleb128 0x12
 5225 0c01 D5000000 		.4byte	0xd5
 5226 0c05 1F       		.uleb128 0x1f
ARM GAS  C:\Users\rdn\AppData\Local\Temp\ccCxUcqe.s 			page 118


 5227 0c06 9F070000 		.4byte	.LASF152
 5228 0c0a 01       		.byte	0x1
 5229 0c0b EA       		.byte	0xea
 5230 0c0c 00000000 		.4byte	.LFB34
 5231 0c10 74000000 		.4byte	.LFE34-.LFB34
 5232 0c14 01       		.uleb128 0x1
 5233 0c15 9C       		.byte	0x9c
 5234 0c16 1F0D0000 		.4byte	0xd1f
 5235 0c1a 20       		.uleb128 0x20
 5236 0c1b FD030000 		.4byte	.LASF147
 5237 0c1f 01       		.byte	0x1
 5238 0c20 EB       		.byte	0xeb
 5239 0c21 82040000 		.4byte	0x482
 5240 0c25 D2030000 		.4byte	.LLST23
 5241 0c29 20       		.uleb128 0x20
 5242 0c2a D4040000 		.4byte	.LASF148
 5243 0c2e 01       		.byte	0x1
 5244 0c2f EB       		.byte	0xeb
 5245 0c30 DA0A0000 		.4byte	0xada
 5246 0c34 01040000 		.4byte	.LLST24
 5247 0c38 1E       		.uleb128 0x1e
 5248 0c39 CA090000 		.4byte	.LASF149
 5249 0c3d 01       		.byte	0x1
 5250 0c3e EB       		.byte	0xeb
 5251 0c3f 25000000 		.4byte	0x25
 5252 0c43 01       		.uleb128 0x1
 5253 0c44 52       		.byte	0x52
 5254 0c45 21       		.uleb128 0x21
 5255 0c46 70636D00 		.ascii	"pcm\000"
 5256 0c4a 01       		.byte	0x1
 5257 0c4b ED       		.byte	0xed
 5258 0c4c C2050000 		.4byte	0x5c2
 5259 0c50 01       		.uleb128 0x1
 5260 0c51 51       		.byte	0x51
 5261 0c52 22       		.uleb128 0x22
 5262 0c53 647400   		.ascii	"dt\000"
 5263 0c56 01       		.byte	0x1
 5264 0c57 EF       		.byte	0xef
 5265 0c58 F6000000 		.4byte	0xf6
 5266 0c5c 22040000 		.4byte	.LLST25
 5267 0c60 22       		.uleb128 0x22
 5268 0c61 737200   		.ascii	"sr\000"
 5269 0c64 01       		.byte	0x1
 5270 0c65 F0       		.byte	0xf0
 5271 0c66 25010000 		.4byte	0x125
 5272 0c6a 35040000 		.4byte	.LLST26
 5273 0c6e 22       		.uleb128 0x22
 5274 0c6f 787400   		.ascii	"xt\000"
 5275 0c72 01       		.byte	0x1
 5276 0c73 F2       		.byte	0xf2
 5277 0c74 EC0A0000 		.4byte	0xaec
 5278 0c78 48040000 		.4byte	.LLST27
 5279 0c7c 22       		.uleb128 0x22
 5280 0c7d 787300   		.ascii	"xs\000"
 5281 0c80 01       		.byte	0x1
 5282 0c81 F3       		.byte	0xf3
 5283 0c82 F20A0000 		.4byte	0xaf2
ARM GAS  C:\Users\rdn\AppData\Local\Temp\ccCxUcqe.s 			page 119


 5284 0c86 74040000 		.4byte	.LLST28
 5285 0c8a 17       		.uleb128 0x17
 5286 0c8b 6E7300   		.ascii	"ns\000"
 5287 0c8e 01       		.byte	0x1
 5288 0c8f F4       		.byte	0xf4
 5289 0c90 25000000 		.4byte	0x25
 5290 0c94 23       		.uleb128 0x23
 5291 0c95 C9070000 		.4byte	0x7c9
 5292 0c99 18000000 		.4byte	.LBB119
 5293 0c9d 0A000000 		.4byte	.LBE119-.LBB119
 5294 0ca1 01       		.byte	0x1
 5295 0ca2 F4       		.byte	0xf4
 5296 0ca3 BA0C0000 		.4byte	0xcba
 5297 0ca7 24       		.uleb128 0x24
 5298 0ca8 E3070000 		.4byte	0x7e3
 5299 0cac 8C040000 		.4byte	.LLST29
 5300 0cb0 24       		.uleb128 0x24
 5301 0cb1 D9070000 		.4byte	0x7d9
 5302 0cb5 9F040000 		.4byte	.LLST30
 5303 0cb9 00       		.byte	0
 5304 0cba 25       		.uleb128 0x25
 5305 0cbb 22000000 		.4byte	.LBB121
 5306 0cbf 4A000000 		.4byte	.LBE121-.LBB121
 5307 0cc3 22       		.uleb128 0x22
 5308 0cc4 6900     		.ascii	"i\000"
 5309 0cc6 01       		.byte	0x1
 5310 0cc7 F6       		.byte	0xf6
 5311 0cc8 25000000 		.4byte	0x25
 5312 0ccc B2040000 		.4byte	.LLST31
 5313 0cd0 25       		.uleb128 0x25
 5314 0cd1 26000000 		.4byte	.LBB122
 5315 0cd5 3A000000 		.4byte	.LBE122-.LBB122
 5316 0cd9 22       		.uleb128 0x22
 5317 0cda 696E00   		.ascii	"in\000"
 5318 0cdd 01       		.byte	0x1
 5319 0cde F7       		.byte	0xf7
 5320 0cdf D5000000 		.4byte	0xd5
 5321 0ce3 D1040000 		.4byte	.LLST32
 5322 0ce7 27       		.uleb128 0x27
 5323 0ce8 09080000 		.4byte	0x809
 5324 0cec 48000000 		.4byte	.LBB123
 5325 0cf0 16000000 		.4byte	.LBE123-.LBB123
 5326 0cf4 01       		.byte	0x1
 5327 0cf5 FC       		.byte	0xfc
 5328 0cf6 24       		.uleb128 0x24
 5329 0cf7 23080000 		.4byte	0x823
 5330 0cfb E4040000 		.4byte	.LLST33
 5331 0cff 24       		.uleb128 0x24
 5332 0d00 19080000 		.4byte	0x819
 5333 0d04 F9040000 		.4byte	.LLST34
 5334 0d08 25       		.uleb128 0x25
 5335 0d09 48000000 		.4byte	.LBB124
 5336 0d0d 16000000 		.4byte	.LBE124-.LBB124
 5337 0d11 28       		.uleb128 0x28
 5338 0d12 49080000 		.4byte	0x849
 5339 0d16 1E050000 		.4byte	.LLST35
 5340 0d1a 00       		.byte	0
ARM GAS  C:\Users\rdn\AppData\Local\Temp\ccCxUcqe.s 			page 120


 5341 0d1b 00       		.byte	0
 5342 0d1c 00       		.byte	0
 5343 0d1d 00       		.byte	0
 5344 0d1e 00       		.byte	0
 5345 0d1f 29       		.uleb128 0x29
 5346 0d20 FD040000 		.4byte	.LASF153
 5347 0d24 01       		.byte	0x1
 5348 0d25 0501     		.2byte	0x105
 5349 0d27 00000000 		.4byte	.LFB35
 5350 0d2b 7C000000 		.4byte	.LFE35-.LFB35
 5351 0d2f 01       		.uleb128 0x1
 5352 0d30 9C       		.byte	0x9c
 5353 0d31 310E0000 		.4byte	0xe31
 5354 0d35 2A       		.uleb128 0x2a
 5355 0d36 FD030000 		.4byte	.LASF147
 5356 0d3a 01       		.byte	0x1
 5357 0d3b 0601     		.2byte	0x106
 5358 0d3d 82040000 		.4byte	0x482
 5359 0d41 31050000 		.4byte	.LLST36
 5360 0d45 2A       		.uleb128 0x2a
 5361 0d46 D4040000 		.4byte	.LASF148
 5362 0d4a 01       		.byte	0x1
 5363 0d4b 0601     		.2byte	0x106
 5364 0d4d DA0A0000 		.4byte	0xada
 5365 0d51 52050000 		.4byte	.LLST37
 5366 0d55 2B       		.uleb128 0x2b
 5367 0d56 CA090000 		.4byte	.LASF149
 5368 0d5a 01       		.byte	0x1
 5369 0d5b 0601     		.2byte	0x106
 5370 0d5d 25000000 		.4byte	0x25
 5371 0d61 01       		.uleb128 0x1
 5372 0d62 52       		.byte	0x52
 5373 0d63 2C       		.uleb128 0x2c
 5374 0d64 70636D00 		.ascii	"pcm\000"
 5375 0d68 01       		.byte	0x1
 5376 0d69 0801     		.2byte	0x108
 5377 0d6b 2F070000 		.4byte	0x72f
 5378 0d6f 01       		.uleb128 0x1
 5379 0d70 51       		.byte	0x51
 5380 0d71 2D       		.uleb128 0x2d
 5381 0d72 647400   		.ascii	"dt\000"
 5382 0d75 01       		.byte	0x1
 5383 0d76 0A01     		.2byte	0x10a
 5384 0d78 F6000000 		.4byte	0xf6
 5385 0d7c 73050000 		.4byte	.LLST38
 5386 0d80 2D       		.uleb128 0x2d
 5387 0d81 737200   		.ascii	"sr\000"
 5388 0d84 01       		.byte	0x1
 5389 0d85 0B01     		.2byte	0x10b
 5390 0d87 25010000 		.4byte	0x125
 5391 0d8b 86050000 		.4byte	.LLST39
 5392 0d8f 2C       		.uleb128 0x2c
 5393 0d90 787400   		.ascii	"xt\000"
 5394 0d93 01       		.byte	0x1
 5395 0d94 0D01     		.2byte	0x10d
 5396 0d96 EC0A0000 		.4byte	0xaec
 5397 0d9a 06       		.uleb128 0x6
ARM GAS  C:\Users\rdn\AppData\Local\Temp\ccCxUcqe.s 			page 121


 5398 0d9b 7C       		.byte	0x7c
 5399 0d9c 00       		.sleb128 0
 5400 0d9d 7E       		.byte	0x7e
 5401 0d9e 00       		.sleb128 0
 5402 0d9f 22       		.byte	0x22
 5403 0da0 9F       		.byte	0x9f
 5404 0da1 2D       		.uleb128 0x2d
 5405 0da2 787300   		.ascii	"xs\000"
 5406 0da5 01       		.byte	0x1
 5407 0da6 0E01     		.2byte	0x10e
 5408 0da8 F20A0000 		.4byte	0xaf2
 5409 0dac 99050000 		.4byte	.LLST40
 5410 0db0 2E       		.uleb128 0x2e
 5411 0db1 6E7300   		.ascii	"ns\000"
 5412 0db4 01       		.byte	0x1
 5413 0db5 0F01     		.2byte	0x10f
 5414 0db7 25000000 		.4byte	0x25
 5415 0dbb 2F       		.uleb128 0x2f
 5416 0dbc C9070000 		.4byte	0x7c9
 5417 0dc0 1A000000 		.4byte	.LBB125
 5418 0dc4 0A000000 		.4byte	.LBE125-.LBB125
 5419 0dc8 01       		.byte	0x1
 5420 0dc9 0F01     		.2byte	0x10f
 5421 0dcb E20D0000 		.4byte	0xde2
 5422 0dcf 24       		.uleb128 0x24
 5423 0dd0 E3070000 		.4byte	0x7e3
 5424 0dd4 AC050000 		.4byte	.LLST41
 5425 0dd8 24       		.uleb128 0x24
 5426 0dd9 D9070000 		.4byte	0x7d9
 5427 0ddd BF050000 		.4byte	.LLST42
 5428 0de1 00       		.byte	0
 5429 0de2 25       		.uleb128 0x25
 5430 0de3 24000000 		.4byte	.LBB127
 5431 0de7 4E000000 		.4byte	.LBE127-.LBB127
 5432 0deb 2D       		.uleb128 0x2d
 5433 0dec 6900     		.ascii	"i\000"
 5434 0dee 01       		.byte	0x1
 5435 0def 1101     		.2byte	0x111
 5436 0df1 25000000 		.4byte	0x25
 5437 0df5 D2050000 		.4byte	.LLST43
 5438 0df9 30       		.uleb128 0x30
 5439 0dfa 09080000 		.4byte	0x809
 5440 0dfe 2E000000 		.4byte	.LBB128
 5441 0e02 10000000 		.4byte	.LBE128-.LBB128
 5442 0e06 01       		.byte	0x1
 5443 0e07 1201     		.2byte	0x112
 5444 0e09 24       		.uleb128 0x24
 5445 0e0a 23080000 		.4byte	0x823
 5446 0e0e F1050000 		.4byte	.LLST44
 5447 0e12 24       		.uleb128 0x24
 5448 0e13 19080000 		.4byte	0x819
 5449 0e17 05060000 		.4byte	.LLST45
 5450 0e1b 25       		.uleb128 0x25
 5451 0e1c 2E000000 		.4byte	.LBB129
 5452 0e20 10000000 		.4byte	.LBE129-.LBB129
 5453 0e24 28       		.uleb128 0x28
 5454 0e25 49080000 		.4byte	0x849
ARM GAS  C:\Users\rdn\AppData\Local\Temp\ccCxUcqe.s 			page 122


 5455 0e29 19060000 		.4byte	.LLST46
 5456 0e2d 00       		.byte	0
 5457 0e2e 00       		.byte	0
 5458 0e2f 00       		.byte	0
 5459 0e30 00       		.byte	0
 5460 0e31 29       		.uleb128 0x29
 5461 0e32 23070000 		.4byte	.LASF154
 5462 0e36 01       		.byte	0x1
 5463 0e37 D501     		.2byte	0x1d5
 5464 0e39 00000000 		.4byte	.LFB43
 5465 0e3d 80000000 		.4byte	.LFE43-.LFB43
 5466 0e41 01       		.uleb128 0x1
 5467 0e42 9C       		.byte	0x9c
 5468 0e43 FF0E0000 		.4byte	0xeff
 5469 0e47 2A       		.uleb128 0x2a
 5470 0e48 05040000 		.4byte	.LASF155
 5471 0e4c 01       		.byte	0x1
 5472 0e4d D601     		.2byte	0x1d6
 5473 0e4f 88040000 		.4byte	0x488
 5474 0e53 2C060000 		.4byte	.LLST47
 5475 0e57 2A       		.uleb128 0x2a
 5476 0e58 D4040000 		.4byte	.LASF148
 5477 0e5c 01       		.byte	0x1
 5478 0e5d D601     		.2byte	0x1d6
 5479 0e5f 95040000 		.4byte	0x495
 5480 0e63 4D060000 		.4byte	.LLST48
 5481 0e67 2B       		.uleb128 0x2b
 5482 0e68 CA090000 		.4byte	.LASF149
 5483 0e6c 01       		.byte	0x1
 5484 0e6d D601     		.2byte	0x1d6
 5485 0e6f 25000000 		.4byte	0x25
 5486 0e73 01       		.uleb128 0x1
 5487 0e74 52       		.byte	0x52
 5488 0e75 2C       		.uleb128 0x2c
 5489 0e76 70636D00 		.ascii	"pcm\000"
 5490 0e7a 01       		.byte	0x1
 5491 0e7b D801     		.2byte	0x1d8
 5492 0e7d EC0A0000 		.4byte	0xaec
 5493 0e81 01       		.uleb128 0x1
 5494 0e82 51       		.byte	0x51
 5495 0e83 2D       		.uleb128 0x2d
 5496 0e84 647400   		.ascii	"dt\000"
 5497 0e87 01       		.byte	0x1
 5498 0e88 DA01     		.2byte	0x1da
 5499 0e8a F6000000 		.4byte	0xf6
 5500 0e8e 6E060000 		.4byte	.LLST49
 5501 0e92 2D       		.uleb128 0x2d
 5502 0e93 737200   		.ascii	"sr\000"
 5503 0e96 01       		.byte	0x1
 5504 0e97 DB01     		.2byte	0x1db
 5505 0e99 25010000 		.4byte	0x125
 5506 0e9d 81060000 		.4byte	.LLST50
 5507 0ea1 2D       		.uleb128 0x2d
 5508 0ea2 787300   		.ascii	"xs\000"
 5509 0ea5 01       		.byte	0x1
 5510 0ea6 DD01     		.2byte	0x1dd
 5511 0ea8 F20A0000 		.4byte	0xaf2
ARM GAS  C:\Users\rdn\AppData\Local\Temp\ccCxUcqe.s 			page 123


 5512 0eac A0060000 		.4byte	.LLST51
 5513 0eb0 2D       		.uleb128 0x2d
 5514 0eb1 6E7300   		.ascii	"ns\000"
 5515 0eb4 01       		.byte	0x1
 5516 0eb5 DE01     		.2byte	0x1de
 5517 0eb7 25000000 		.4byte	0x25
 5518 0ebb B3060000 		.4byte	.LLST52
 5519 0ebf 2F       		.uleb128 0x2f
 5520 0ec0 C9070000 		.4byte	0x7c9
 5521 0ec4 12000000 		.4byte	.LBB130
 5522 0ec8 0A000000 		.4byte	.LBE130-.LBB130
 5523 0ecc 01       		.byte	0x1
 5524 0ecd DE01     		.2byte	0x1de
 5525 0ecf E60E0000 		.4byte	0xee6
 5526 0ed3 24       		.uleb128 0x24
 5527 0ed4 E3070000 		.4byte	0x7e3
 5528 0ed8 C6060000 		.4byte	.LLST53
 5529 0edc 24       		.uleb128 0x24
 5530 0edd D9070000 		.4byte	0x7d9
 5531 0ee1 E5060000 		.4byte	.LLST54
 5532 0ee5 00       		.byte	0
 5533 0ee6 25       		.uleb128 0x25
 5534 0ee7 1E000000 		.4byte	.LBB132
 5535 0eeb 4A000000 		.4byte	.LBE132-.LBB132
 5536 0eef 2D       		.uleb128 0x2d
 5537 0ef0 7300     		.ascii	"s\000"
 5538 0ef2 01       		.byte	0x1
 5539 0ef3 E101     		.2byte	0x1e1
 5540 0ef5 D5000000 		.4byte	0xd5
 5541 0ef9 F8060000 		.4byte	.LLST55
 5542 0efd 00       		.byte	0
 5543 0efe 00       		.byte	0
 5544 0eff 29       		.uleb128 0x29
 5545 0f00 C5020000 		.4byte	.LASF156
 5546 0f04 01       		.byte	0x1
 5547 0f05 EB01     		.2byte	0x1eb
 5548 0f07 00000000 		.4byte	.LFB44
 5549 0f0b A8000000 		.4byte	.LFE44-.LFB44
 5550 0f0f 01       		.uleb128 0x1
 5551 0f10 9C       		.byte	0x9c
 5552 0f11 3B100000 		.4byte	0x103b
 5553 0f15 2A       		.uleb128 0x2a
 5554 0f16 05040000 		.4byte	.LASF155
 5555 0f1a 01       		.byte	0x1
 5556 0f1b EC01     		.2byte	0x1ec
 5557 0f1d 88040000 		.4byte	0x488
 5558 0f21 16070000 		.4byte	.LLST56
 5559 0f25 2A       		.uleb128 0x2a
 5560 0f26 D4040000 		.4byte	.LASF148
 5561 0f2a 01       		.byte	0x1
 5562 0f2b EC01     		.2byte	0x1ec
 5563 0f2d 95040000 		.4byte	0x495
 5564 0f31 37070000 		.4byte	.LLST57
 5565 0f35 2B       		.uleb128 0x2b
 5566 0f36 CA090000 		.4byte	.LASF149
 5567 0f3a 01       		.byte	0x1
 5568 0f3b EC01     		.2byte	0x1ec
ARM GAS  C:\Users\rdn\AppData\Local\Temp\ccCxUcqe.s 			page 124


 5569 0f3d 25000000 		.4byte	0x25
 5570 0f41 01       		.uleb128 0x1
 5571 0f42 52       		.byte	0x52
 5572 0f43 2C       		.uleb128 0x2c
 5573 0f44 70636D00 		.ascii	"pcm\000"
 5574 0f48 01       		.byte	0x1
 5575 0f49 EE01     		.2byte	0x1ee
 5576 0f4b 3B100000 		.4byte	0x103b
 5577 0f4f 01       		.uleb128 0x1
 5578 0f50 51       		.byte	0x51
 5579 0f51 2D       		.uleb128 0x2d
 5580 0f52 647400   		.ascii	"dt\000"
 5581 0f55 01       		.byte	0x1
 5582 0f56 F001     		.2byte	0x1f0
 5583 0f58 F6000000 		.4byte	0xf6
 5584 0f5c 58070000 		.4byte	.LLST58
 5585 0f60 2D       		.uleb128 0x2d
 5586 0f61 737200   		.ascii	"sr\000"
 5587 0f64 01       		.byte	0x1
 5588 0f65 F101     		.2byte	0x1f1
 5589 0f67 25010000 		.4byte	0x125
 5590 0f6b 6B070000 		.4byte	.LLST59
 5591 0f6f 2D       		.uleb128 0x2d
 5592 0f70 787300   		.ascii	"xs\000"
 5593 0f73 01       		.byte	0x1
 5594 0f74 F301     		.2byte	0x1f3
 5595 0f76 F20A0000 		.4byte	0xaf2
 5596 0f7a 7E070000 		.4byte	.LLST60
 5597 0f7e 2C       		.uleb128 0x2c
 5598 0f7f 6E7300   		.ascii	"ns\000"
 5599 0f82 01       		.byte	0x1
 5600 0f83 F401     		.2byte	0x1f4
 5601 0f85 25000000 		.4byte	0x25
 5602 0f89 01       		.uleb128 0x1
 5603 0f8a 50       		.byte	0x50
 5604 0f8b 2F       		.uleb128 0x2f
 5605 0f8c C9070000 		.4byte	0x7c9
 5606 0f90 12000000 		.4byte	.LBB133
 5607 0f94 0A000000 		.4byte	.LBE133-.LBB133
 5608 0f98 01       		.byte	0x1
 5609 0f99 F401     		.2byte	0x1f4
 5610 0f9b B20F0000 		.4byte	0xfb2
 5611 0f9f 24       		.uleb128 0x24
 5612 0fa0 E3070000 		.4byte	0x7e3
 5613 0fa4 91070000 		.4byte	.LLST61
 5614 0fa8 24       		.uleb128 0x24
 5615 0fa9 D9070000 		.4byte	0x7d9
 5616 0fad A4070000 		.4byte	.LLST62
 5617 0fb1 00       		.byte	0
 5618 0fb2 25       		.uleb128 0x25
 5619 0fb3 1E000000 		.4byte	.LBB135
 5620 0fb7 68000000 		.4byte	.LBE135-.LBB135
 5621 0fbb 2D       		.uleb128 0x2d
 5622 0fbc 7300     		.ascii	"s\000"
 5623 0fbe 01       		.byte	0x1
 5624 0fbf F701     		.2byte	0x1f7
 5625 0fc1 D5000000 		.4byte	0xd5
ARM GAS  C:\Users\rdn\AppData\Local\Temp\ccCxUcqe.s 			page 125


 5626 0fc5 B7070000 		.4byte	.LLST63
 5627 0fc9 2F       		.uleb128 0x2f
 5628 0fca 09080000 		.4byte	0x809
 5629 0fce 2C000000 		.4byte	.LBB136
 5630 0fd2 12000000 		.4byte	.LBE136-.LBB136
 5631 0fd6 01       		.byte	0x1
 5632 0fd7 F701     		.2byte	0x1f7
 5633 0fd9 03100000 		.4byte	0x1003
 5634 0fdd 24       		.uleb128 0x24
 5635 0fde 23080000 		.4byte	0x823
 5636 0fe2 D5070000 		.4byte	.LLST64
 5637 0fe6 24       		.uleb128 0x24
 5638 0fe7 19080000 		.4byte	0x819
 5639 0feb E9070000 		.4byte	.LLST65
 5640 0fef 25       		.uleb128 0x25
 5641 0ff0 2C000000 		.4byte	.LBB137
 5642 0ff4 12000000 		.4byte	.LBE137-.LBB137
 5643 0ff8 28       		.uleb128 0x28
 5644 0ff9 49080000 		.4byte	0x849
 5645 0ffd FD070000 		.4byte	.LLST66
 5646 1001 00       		.byte	0
 5647 1002 00       		.byte	0
 5648 1003 30       		.uleb128 0x30
 5649 1004 09080000 		.4byte	0x809
 5650 1008 50000000 		.4byte	.LBB138
 5651 100c 12000000 		.4byte	.LBE138-.LBB138
 5652 1010 01       		.byte	0x1
 5653 1011 F801     		.2byte	0x1f8
 5654 1013 24       		.uleb128 0x24
 5655 1014 23080000 		.4byte	0x823
 5656 1018 10080000 		.4byte	.LLST67
 5657 101c 24       		.uleb128 0x24
 5658 101d 19080000 		.4byte	0x819
 5659 1021 24080000 		.4byte	.LLST68
 5660 1025 25       		.uleb128 0x25
 5661 1026 50000000 		.4byte	.LBB139
 5662 102a 12000000 		.4byte	.LBE139-.LBB139
 5663 102e 28       		.uleb128 0x28
 5664 102f 49080000 		.4byte	0x849
 5665 1033 38080000 		.4byte	.LLST69
 5666 1037 00       		.byte	0
 5667 1038 00       		.byte	0
 5668 1039 00       		.byte	0
 5669 103a 00       		.byte	0
 5670 103b 10       		.uleb128 0x10
 5671 103c 04       		.byte	0x4
 5672 103d D5000000 		.4byte	0xd5
 5673 1041 29       		.uleb128 0x29
 5674 1042 9B080000 		.4byte	.LASF157
 5675 1046 01       		.byte	0x1
 5676 1047 0202     		.2byte	0x202
 5677 1049 00000000 		.4byte	.LFB45
 5678 104d B0000000 		.4byte	.LFE45-.LFB45
 5679 1051 01       		.uleb128 0x1
 5680 1052 9C       		.byte	0x9c
 5681 1053 7F110000 		.4byte	0x117f
 5682 1057 2A       		.uleb128 0x2a
ARM GAS  C:\Users\rdn\AppData\Local\Temp\ccCxUcqe.s 			page 126


 5683 1058 05040000 		.4byte	.LASF155
 5684 105c 01       		.byte	0x1
 5685 105d 0302     		.2byte	0x203
 5686 105f 88040000 		.4byte	0x488
 5687 1063 4B080000 		.4byte	.LLST70
 5688 1067 2A       		.uleb128 0x2a
 5689 1068 D4040000 		.4byte	.LASF148
 5690 106c 01       		.byte	0x1
 5691 106d 0302     		.2byte	0x203
 5692 106f 95040000 		.4byte	0x495
 5693 1073 7A080000 		.4byte	.LLST71
 5694 1077 2B       		.uleb128 0x2b
 5695 1078 CA090000 		.4byte	.LASF149
 5696 107c 01       		.byte	0x1
 5697 107d 0302     		.2byte	0x203
 5698 107f 25000000 		.4byte	0x25
 5699 1083 01       		.uleb128 0x1
 5700 1084 52       		.byte	0x52
 5701 1085 2C       		.uleb128 0x2c
 5702 1086 70636D00 		.ascii	"pcm\000"
 5703 108a 01       		.byte	0x1
 5704 108b 0502     		.2byte	0x205
 5705 108d CD050000 		.4byte	0x5cd
 5706 1091 01       		.uleb128 0x1
 5707 1092 51       		.byte	0x51
 5708 1093 2D       		.uleb128 0x2d
 5709 1094 647400   		.ascii	"dt\000"
 5710 1097 01       		.byte	0x1
 5711 1098 0702     		.2byte	0x207
 5712 109a F6000000 		.4byte	0xf6
 5713 109e 9B080000 		.4byte	.LLST72
 5714 10a2 2D       		.uleb128 0x2d
 5715 10a3 737200   		.ascii	"sr\000"
 5716 10a6 01       		.byte	0x1
 5717 10a7 0802     		.2byte	0x208
 5718 10a9 25010000 		.4byte	0x125
 5719 10ad AE080000 		.4byte	.LLST73
 5720 10b1 2D       		.uleb128 0x2d
 5721 10b2 787300   		.ascii	"xs\000"
 5722 10b5 01       		.byte	0x1
 5723 10b6 0A02     		.2byte	0x20a
 5724 10b8 F20A0000 		.4byte	0xaf2
 5725 10bc D0080000 		.4byte	.LLST74
 5726 10c0 2D       		.uleb128 0x2d
 5727 10c1 6E7300   		.ascii	"ns\000"
 5728 10c4 01       		.byte	0x1
 5729 10c5 0B02     		.2byte	0x20b
 5730 10c7 25000000 		.4byte	0x25
 5731 10cb E3080000 		.4byte	.LLST75
 5732 10cf 2F       		.uleb128 0x2f
 5733 10d0 C9070000 		.4byte	0x7c9
 5734 10d4 12000000 		.4byte	.LBB140
 5735 10d8 0A000000 		.4byte	.LBE140-.LBB140
 5736 10dc 01       		.byte	0x1
 5737 10dd 0B02     		.2byte	0x20b
 5738 10df F6100000 		.4byte	0x10f6
 5739 10e3 24       		.uleb128 0x24
ARM GAS  C:\Users\rdn\AppData\Local\Temp\ccCxUcqe.s 			page 127


 5740 10e4 E3070000 		.4byte	0x7e3
 5741 10e8 F6080000 		.4byte	.LLST76
 5742 10ec 24       		.uleb128 0x24
 5743 10ed D9070000 		.4byte	0x7d9
 5744 10f1 18090000 		.4byte	.LLST77
 5745 10f5 00       		.byte	0
 5746 10f6 25       		.uleb128 0x25
 5747 10f7 1E000000 		.4byte	.LBB142
 5748 10fb 70000000 		.4byte	.LBE142-.LBB142
 5749 10ff 2D       		.uleb128 0x2d
 5750 1100 7300     		.ascii	"s\000"
 5751 1102 01       		.byte	0x1
 5752 1103 0E02     		.2byte	0x20e
 5753 1105 D5000000 		.4byte	0xd5
 5754 1109 2B090000 		.4byte	.LLST78
 5755 110d 2F       		.uleb128 0x2f
 5756 110e 09080000 		.4byte	0x809
 5757 1112 2C000000 		.4byte	.LBB143
 5758 1116 12000000 		.4byte	.LBE143-.LBB143
 5759 111a 01       		.byte	0x1
 5760 111b 0E02     		.2byte	0x20e
 5761 111d 47110000 		.4byte	0x1147
 5762 1121 24       		.uleb128 0x24
 5763 1122 23080000 		.4byte	0x823
 5764 1126 49090000 		.4byte	.LLST79
 5765 112a 24       		.uleb128 0x24
 5766 112b 19080000 		.4byte	0x819
 5767 112f 5D090000 		.4byte	.LLST80
 5768 1133 25       		.uleb128 0x25
 5769 1134 2C000000 		.4byte	.LBB144
 5770 1138 12000000 		.4byte	.LBE144-.LBB144
 5771 113c 28       		.uleb128 0x28
 5772 113d 49080000 		.4byte	0x849
 5773 1141 71090000 		.4byte	.LLST81
 5774 1145 00       		.byte	0
 5775 1146 00       		.byte	0
 5776 1147 30       		.uleb128 0x30
 5777 1148 09080000 		.4byte	0x809
 5778 114c 50000000 		.4byte	.LBB145
 5779 1150 12000000 		.4byte	.LBE145-.LBB145
 5780 1154 01       		.byte	0x1
 5781 1155 0F02     		.2byte	0x20f
 5782 1157 24       		.uleb128 0x24
 5783 1158 23080000 		.4byte	0x823
 5784 115c 84090000 		.4byte	.LLST82
 5785 1160 24       		.uleb128 0x24
 5786 1161 19080000 		.4byte	0x819
 5787 1165 98090000 		.4byte	.LLST83
 5788 1169 25       		.uleb128 0x25
 5789 116a 50000000 		.4byte	.LBB146
 5790 116e 12000000 		.4byte	.LBE146-.LBB146
 5791 1172 28       		.uleb128 0x28
 5792 1173 49080000 		.4byte	0x849
 5793 1177 AC090000 		.4byte	.LLST84
 5794 117b 00       		.byte	0
 5795 117c 00       		.byte	0
 5796 117d 00       		.byte	0
ARM GAS  C:\Users\rdn\AppData\Local\Temp\ccCxUcqe.s 			page 128


 5797 117e 00       		.byte	0
 5798 117f 29       		.uleb128 0x29
 5799 1180 9D040000 		.4byte	.LASF158
 5800 1184 01       		.byte	0x1
 5801 1185 9102     		.2byte	0x291
 5802 1187 00000000 		.4byte	.LFB49
 5803 118b 48000000 		.4byte	.LFE49-.LFB49
 5804 118f 01       		.uleb128 0x1
 5805 1190 9C       		.byte	0x9c
 5806 1191 23120000 		.4byte	0x1223
 5807 1195 2B       		.uleb128 0x2b
 5808 1196 05040000 		.4byte	.LASF155
 5809 119a 01       		.byte	0x1
 5810 119b 9102     		.2byte	0x291
 5811 119d 88040000 		.4byte	0x488
 5812 11a1 01       		.uleb128 0x1
 5813 11a2 50       		.byte	0x50
 5814 11a3 2D       		.uleb128 0x2d
 5815 11a4 647400   		.ascii	"dt\000"
 5816 11a7 01       		.byte	0x1
 5817 11a8 9302     		.2byte	0x293
 5818 11aa F6000000 		.4byte	0xf6
 5819 11ae BF090000 		.4byte	.LLST85
 5820 11b2 31       		.uleb128 0x31
 5821 11b3 CF020000 		.4byte	.LASF55
 5822 11b7 01       		.byte	0x1
 5823 11b8 9402     		.2byte	0x294
 5824 11ba 25010000 		.4byte	0x125
 5825 11be DE090000 		.4byte	.LLST86
 5826 11c2 2E       		.uleb128 0x2e
 5827 11c3 6E6800   		.ascii	"nh\000"
 5828 11c6 01       		.byte	0x1
 5829 11c7 9502     		.2byte	0x295
 5830 11c9 25000000 		.4byte	0x25
 5831 11cd 2E       		.uleb128 0x2e
 5832 11ce 6E7300   		.ascii	"ns\000"
 5833 11d1 01       		.byte	0x1
 5834 11d2 9602     		.2byte	0x296
 5835 11d4 25000000 		.4byte	0x25
 5836 11d8 2F       		.uleb128 0x2f
 5837 11d9 53080000 		.4byte	0x853
 5838 11dd 06000000 		.4byte	.LBB147
 5839 11e1 1C000000 		.4byte	.LBE147-.LBB147
 5840 11e5 01       		.byte	0x1
 5841 11e6 9502     		.2byte	0x295
 5842 11e8 FF110000 		.4byte	0x11ff
 5843 11ec 24       		.uleb128 0x24
 5844 11ed 6D080000 		.4byte	0x86d
 5845 11f1 FD090000 		.4byte	.LLST87
 5846 11f5 24       		.uleb128 0x24
 5847 11f6 63080000 		.4byte	0x863
 5848 11fa 100A0000 		.4byte	.LLST88
 5849 11fe 00       		.byte	0
 5850 11ff 30       		.uleb128 0x30
 5851 1200 C9070000 		.4byte	0x7c9
 5852 1204 22000000 		.4byte	.LBB149
 5853 1208 0A000000 		.4byte	.LBE149-.LBB149
ARM GAS  C:\Users\rdn\AppData\Local\Temp\ccCxUcqe.s 			page 129


 5854 120c 01       		.byte	0x1
 5855 120d 9602     		.2byte	0x296
 5856 120f 24       		.uleb128 0x24
 5857 1210 E3070000 		.4byte	0x7e3
 5858 1214 230A0000 		.4byte	.LLST89
 5859 1218 24       		.uleb128 0x24
 5860 1219 D9070000 		.4byte	0x7d9
 5861 121d 360A0000 		.4byte	.LLST90
 5862 1221 00       		.byte	0
 5863 1222 00       		.byte	0
 5864 1223 29       		.uleb128 0x29
 5865 1224 6A0B0000 		.4byte	.LASF159
 5866 1228 01       		.byte	0x1
 5867 1229 1D01     		.2byte	0x11d
 5868 122b 00000000 		.4byte	.LFB36
 5869 122f 18010000 		.4byte	.LFE36-.LFB36
 5870 1233 01       		.uleb128 0x1
 5871 1234 9C       		.byte	0x9c
 5872 1235 2A150000 		.4byte	0x152a
 5873 1239 2A       		.uleb128 0x2a
 5874 123a FD030000 		.4byte	.LASF147
 5875 123e 01       		.byte	0x1
 5876 123f 1D01     		.2byte	0x11d
 5877 1241 82040000 		.4byte	0x482
 5878 1245 490A0000 		.4byte	.LLST91
 5879 1249 2A       		.uleb128 0x2a
 5880 124a 33030000 		.4byte	.LASF160
 5881 124e 01       		.byte	0x1
 5882 124f 1E01     		.2byte	0x11e
 5883 1251 25000000 		.4byte	0x25
 5884 1255 830A0000 		.4byte	.LLST92
 5885 1259 2A       		.uleb128 0x2a
 5886 125a DD000000 		.4byte	.LASF161
 5887 125e 01       		.byte	0x1
 5888 125f 1E01     		.2byte	0x11e
 5889 1261 2A150000 		.4byte	0x152a
 5890 1265 BB0A0000 		.4byte	.LLST93
 5891 1269 2D       		.uleb128 0x2d
 5892 126a 647400   		.ascii	"dt\000"
 5893 126d 01       		.byte	0x1
 5894 126e 2001     		.2byte	0x120
 5895 1270 F6000000 		.4byte	0xf6
 5896 1274 F80A0000 		.4byte	.LLST94
 5897 1278 2D       		.uleb128 0x2d
 5898 1279 737200   		.ascii	"sr\000"
 5899 127c 01       		.byte	0x1
 5900 127d 2101     		.2byte	0x121
 5901 127f 25010000 		.4byte	0x125
 5902 1283 0B0B0000 		.4byte	.LLST95
 5903 1287 31       		.uleb128 0x31
 5904 1288 CF020000 		.4byte	.LASF55
 5905 128c 01       		.byte	0x1
 5906 128d 2201     		.2byte	0x122
 5907 128f 25010000 		.4byte	0x125
 5908 1293 2D0B0000 		.4byte	.LLST96
 5909 1297 2D       		.uleb128 0x2d
 5910 1298 787400   		.ascii	"xt\000"
ARM GAS  C:\Users\rdn\AppData\Local\Temp\ccCxUcqe.s 			page 130


 5911 129b 01       		.byte	0x1
 5912 129c 2401     		.2byte	0x124
 5913 129e EC0A0000 		.4byte	0xaec
 5914 12a2 400B0000 		.4byte	.LLST97
 5915 12a6 2D       		.uleb128 0x2d
 5916 12a7 787300   		.ascii	"xs\000"
 5917 12aa 01       		.byte	0x1
 5918 12ab 2501     		.2byte	0x125
 5919 12ad F20A0000 		.4byte	0xaf2
 5920 12b1 530B0000 		.4byte	.LLST98
 5921 12b5 2E       		.uleb128 0x2e
 5922 12b6 6E7300   		.ascii	"ns\000"
 5923 12b9 01       		.byte	0x1
 5924 12ba 2601     		.2byte	0x126
 5925 12bc 25000000 		.4byte	0x25
 5926 12c0 2E       		.uleb128 0x2e
 5927 12c1 6E7400   		.ascii	"nt\000"
 5928 12c4 01       		.byte	0x1
 5929 12c5 2701     		.2byte	0x127
 5930 12c7 25000000 		.4byte	0x25
 5931 12cb 2D       		.uleb128 0x2d
 5932 12cc 786400   		.ascii	"xd\000"
 5933 12cf 01       		.byte	0x1
 5934 12d0 2901     		.2byte	0x129
 5935 12d2 F20A0000 		.4byte	0xaf2
 5936 12d6 660B0000 		.4byte	.LLST99
 5937 12da 2D       		.uleb128 0x2d
 5938 12db 786600   		.ascii	"xf\000"
 5939 12de 01       		.byte	0x1
 5940 12df 2A01     		.2byte	0x12a
 5941 12e1 F20A0000 		.4byte	0xaf2
 5942 12e5 930B0000 		.4byte	.LLST100
 5943 12e9 2D       		.uleb128 0x2d
 5944 12ea 61747400 		.ascii	"att\000"
 5945 12ee 01       		.byte	0x1
 5946 12ef 2E01     		.2byte	0x12e
 5947 12f1 27020000 		.4byte	0x227
 5948 12f5 A60B0000 		.4byte	.LLST101
 5949 12f9 2C       		.uleb128 0x2c
 5950 12fa 6500     		.ascii	"e\000"
 5951 12fc 01       		.byte	0x1
 5952 12fd 3701     		.2byte	0x137
 5953 12ff 30150000 		.4byte	0x1530
 5954 1303 03       		.uleb128 0x3
 5955 1304 91       		.byte	0x91
 5956 1305 D87D     		.sleb128 -296
 5957 1307 31       		.uleb128 0x31
 5958 1308 35060000 		.4byte	.LASF162
 5959 130c 01       		.byte	0x1
 5960 130d 3B01     		.2byte	0x13b
 5961 130f 27020000 		.4byte	0x227
 5962 1313 C80B0000 		.4byte	.LLST102
 5963 1317 2F       		.uleb128 0x2f
 5964 1318 C9070000 		.4byte	0x7c9
 5965 131c 2C000000 		.4byte	.LBB151
 5966 1320 0A000000 		.4byte	.LBE151-.LBB151
 5967 1324 01       		.byte	0x1
ARM GAS  C:\Users\rdn\AppData\Local\Temp\ccCxUcqe.s 			page 131


 5968 1325 2601     		.2byte	0x126
 5969 1327 3E130000 		.4byte	0x133e
 5970 132b 24       		.uleb128 0x24
 5971 132c E3070000 		.4byte	0x7e3
 5972 1330 DB0B0000 		.4byte	.LLST103
 5973 1334 24       		.uleb128 0x24
 5974 1335 D9070000 		.4byte	0x7d9
 5975 1339 EE0B0000 		.4byte	.LLST104
 5976 133d 00       		.byte	0
 5977 133e 2F       		.uleb128 0x2f
 5978 133f 78080000 		.4byte	0x878
 5979 1343 36000000 		.4byte	.LBB153
 5980 1347 04000000 		.4byte	.LBE153-.LBB153
 5981 134b 01       		.byte	0x1
 5982 134c 2701     		.2byte	0x127
 5983 134e 5C130000 		.4byte	0x135c
 5984 1352 24       		.uleb128 0x24
 5985 1353 88080000 		.4byte	0x888
 5986 1357 010C0000 		.4byte	.LLST105
 5987 135b 00       		.byte	0
 5988 135c 32       		.uleb128 0x32
 5989 135d 54000000 		.4byte	.LVL181
 5990 1361 AE2D0000 		.4byte	0x2dae
 5991 1365 8B130000 		.4byte	0x138b
 5992 1369 33       		.uleb128 0x33
 5993 136a 01       		.uleb128 0x1
 5994 136b 50       		.byte	0x50
 5995 136c 02       		.uleb128 0x2
 5996 136d 75       		.byte	0x75
 5997 136e 00       		.sleb128 0
 5998 136f 33       		.uleb128 0x33
 5999 1370 01       		.uleb128 0x1
 6000 1371 51       		.byte	0x51
 6001 1372 02       		.uleb128 0x2
 6002 1373 7A       		.byte	0x7a
 6003 1374 00       		.sleb128 0
 6004 1375 33       		.uleb128 0x33
 6005 1376 01       		.uleb128 0x1
 6006 1377 52       		.byte	0x52
 6007 1378 04       		.uleb128 0x4
 6008 1379 91       		.byte	0x91
 6009 137a D07D     		.sleb128 -304
 6010 137c 06       		.byte	0x6
 6011 137d 33       		.uleb128 0x33
 6012 137e 01       		.uleb128 0x1
 6013 137f 53       		.byte	0x53
 6014 1380 02       		.uleb128 0x2
 6015 1381 74       		.byte	0x74
 6016 1382 04       		.sleb128 4
 6017 1383 33       		.uleb128 0x33
 6018 1384 02       		.uleb128 0x2
 6019 1385 7D       		.byte	0x7d
 6020 1386 00       		.sleb128 0
 6021 1387 02       		.uleb128 0x2
 6022 1388 78       		.byte	0x78
 6023 1389 00       		.sleb128 0
 6024 138a 00       		.byte	0
ARM GAS  C:\Users\rdn\AppData\Local\Temp\ccCxUcqe.s 			page 132


 6025 138b 32       		.uleb128 0x32
 6026 138c 6A000000 		.4byte	.LVL183
 6027 1390 B92D0000 		.4byte	0x2db9
 6028 1394 BA130000 		.4byte	0x13ba
 6029 1398 33       		.uleb128 0x33
 6030 1399 01       		.uleb128 0x1
 6031 139a 50       		.byte	0x50
 6032 139b 02       		.uleb128 0x2
 6033 139c 75       		.byte	0x75
 6034 139d 00       		.sleb128 0
 6035 139e 33       		.uleb128 0x33
 6036 139f 01       		.uleb128 0x1
 6037 13a0 51       		.byte	0x51
 6038 13a1 02       		.uleb128 0x2
 6039 13a2 7A       		.byte	0x7a
 6040 13a3 00       		.sleb128 0
 6041 13a4 33       		.uleb128 0x33
 6042 13a5 01       		.uleb128 0x1
 6043 13a6 52       		.byte	0x52
 6044 13a7 02       		.uleb128 0x2
 6045 13a8 74       		.byte	0x74
 6046 13a9 10       		.sleb128 16
 6047 13aa 33       		.uleb128 0x33
 6048 13ab 01       		.uleb128 0x1
 6049 13ac 53       		.byte	0x53
 6050 13ad 02       		.uleb128 0x2
 6051 13ae 78       		.byte	0x78
 6052 13af 00       		.sleb128 0
 6053 13b0 33       		.uleb128 0x33
 6054 13b1 02       		.uleb128 0x2
 6055 13b2 7D       		.byte	0x7d
 6056 13b3 00       		.sleb128 0
 6057 13b4 04       		.uleb128 0x4
 6058 13b5 91       		.byte	0x91
 6059 13b6 D47D     		.sleb128 -300
 6060 13b8 06       		.byte	0x6
 6061 13b9 00       		.byte	0
 6062 13ba 32       		.uleb128 0x32
 6063 13bb 82000000 		.4byte	.LVL184
 6064 13bf C42D0000 		.4byte	0x2dc4
 6065 13c3 E9130000 		.4byte	0x13e9
 6066 13c7 33       		.uleb128 0x33
 6067 13c8 01       		.uleb128 0x1
 6068 13c9 50       		.byte	0x50
 6069 13ca 07       		.uleb128 0x7
 6070 13cb 78       		.byte	0x78
 6071 13cc 00       		.sleb128 0
 6072 13cd 79       		.byte	0x79
 6073 13ce 00       		.sleb128 0
 6074 13cf 31       		.byte	0x31
 6075 13d0 24       		.byte	0x24
 6076 13d1 1C       		.byte	0x1c
 6077 13d2 33       		.uleb128 0x33
 6078 13d3 01       		.uleb128 0x1
 6079 13d4 51       		.byte	0x51
 6080 13d5 0A       		.uleb128 0xa
 6081 13d6 7B       		.byte	0x7b
ARM GAS  C:\Users\rdn\AppData\Local\Temp\ccCxUcqe.s 			page 133


 6082 13d7 00       		.sleb128 0
 6083 13d8 79       		.byte	0x79
 6084 13d9 00       		.sleb128 0
 6085 13da 1C       		.byte	0x1c
 6086 13db 31       		.byte	0x31
 6087 13dc 24       		.byte	0x24
 6088 13dd 78       		.byte	0x78
 6089 13de 00       		.sleb128 0
 6090 13df 22       		.byte	0x22
 6091 13e0 33       		.uleb128 0x33
 6092 13e1 01       		.uleb128 0x1
 6093 13e2 52       		.byte	0x52
 6094 13e3 04       		.uleb128 0x4
 6095 13e4 79       		.byte	0x79
 6096 13e5 00       		.sleb128 0
 6097 13e6 31       		.byte	0x31
 6098 13e7 24       		.byte	0x24
 6099 13e8 00       		.byte	0
 6100 13e9 32       		.uleb128 0x32
 6101 13ea 98000000 		.4byte	.LVL186
 6102 13ee CF2D0000 		.4byte	0x2dcf
 6103 13f2 1F140000 		.4byte	0x141f
 6104 13f6 33       		.uleb128 0x33
 6105 13f7 01       		.uleb128 0x1
 6106 13f8 50       		.byte	0x50
 6107 13f9 02       		.uleb128 0x2
 6108 13fa 75       		.byte	0x75
 6109 13fb 00       		.sleb128 0
 6110 13fc 33       		.uleb128 0x33
 6111 13fd 01       		.uleb128 0x1
 6112 13fe 51       		.byte	0x51
 6113 13ff 02       		.uleb128 0x2
 6114 1400 7A       		.byte	0x7a
 6115 1401 00       		.sleb128 0
 6116 1402 33       		.uleb128 0x33
 6117 1403 01       		.uleb128 0x1
 6118 1404 52       		.byte	0x52
 6119 1405 02       		.uleb128 0x2
 6120 1406 78       		.byte	0x78
 6121 1407 00       		.sleb128 0
 6122 1408 33       		.uleb128 0x33
 6123 1409 01       		.uleb128 0x1
 6124 140a 53       		.byte	0x53
 6125 140b 02       		.uleb128 0x2
 6126 140c 76       		.byte	0x76
 6127 140d 00       		.sleb128 0
 6128 140e 33       		.uleb128 0x33
 6129 140f 02       		.uleb128 0x2
 6130 1410 7D       		.byte	0x7d
 6131 1411 00       		.sleb128 0
 6132 1412 04       		.uleb128 0x4
 6133 1413 91       		.byte	0x91
 6134 1414 C87D     		.sleb128 -312
 6135 1416 06       		.byte	0x6
 6136 1417 33       		.uleb128 0x33
 6137 1418 02       		.uleb128 0x2
 6138 1419 7D       		.byte	0x7d
ARM GAS  C:\Users\rdn\AppData\Local\Temp\ccCxUcqe.s 			page 134


 6139 141a 04       		.sleb128 4
 6140 141b 02       		.uleb128 0x2
 6141 141c 76       		.byte	0x76
 6142 141d 00       		.sleb128 0
 6143 141e 00       		.byte	0
 6144 141f 32       		.uleb128 0x32
 6145 1420 A4000000 		.4byte	.LVL187
 6146 1424 DA2D0000 		.4byte	0x2dda
 6147 1428 46140000 		.4byte	0x1446
 6148 142c 33       		.uleb128 0x33
 6149 142d 01       		.uleb128 0x1
 6150 142e 50       		.byte	0x50
 6151 142f 02       		.uleb128 0x2
 6152 1430 75       		.byte	0x75
 6153 1431 00       		.sleb128 0
 6154 1432 33       		.uleb128 0x33
 6155 1433 01       		.uleb128 0x1
 6156 1434 51       		.byte	0x51
 6157 1435 02       		.uleb128 0x2
 6158 1436 78       		.byte	0x78
 6159 1437 00       		.sleb128 0
 6160 1438 33       		.uleb128 0x33
 6161 1439 01       		.uleb128 0x1
 6162 143a 52       		.byte	0x52
 6163 143b 02       		.uleb128 0x2
 6164 143c 76       		.byte	0x76
 6165 143d 00       		.sleb128 0
 6166 143e 33       		.uleb128 0x33
 6167 143f 01       		.uleb128 0x1
 6168 1440 53       		.byte	0x53
 6169 1441 03       		.uleb128 0x3
 6170 1442 91       		.byte	0x91
 6171 1443 D87D     		.sleb128 -296
 6172 1445 00       		.byte	0
 6173 1446 32       		.uleb128 0x32
 6174 1447 AE000000 		.4byte	.LVL189
 6175 144b E52D0000 		.4byte	0x2de5
 6176 144f 5C140000 		.4byte	0x145c
 6177 1453 33       		.uleb128 0x33
 6178 1454 01       		.uleb128 0x1
 6179 1455 50       		.byte	0x50
 6180 1456 04       		.uleb128 0x4
 6181 1457 91       		.byte	0x91
 6182 1458 D47D     		.sleb128 -300
 6183 145a 06       		.byte	0x6
 6184 145b 00       		.byte	0
 6185 145c 32       		.uleb128 0x32
 6186 145d BC000000 		.4byte	.LVL190
 6187 1461 F02D0000 		.4byte	0x2df0
 6188 1465 7D140000 		.4byte	0x147d
 6189 1469 33       		.uleb128 0x33
 6190 146a 01       		.uleb128 0x1
 6191 146b 50       		.byte	0x50
 6192 146c 02       		.uleb128 0x2
 6193 146d 75       		.byte	0x75
 6194 146e 00       		.sleb128 0
 6195 146f 33       		.uleb128 0x33
ARM GAS  C:\Users\rdn\AppData\Local\Temp\ccCxUcqe.s 			page 135


 6196 1470 01       		.uleb128 0x1
 6197 1471 51       		.byte	0x51
 6198 1472 02       		.uleb128 0x2
 6199 1473 7B       		.byte	0x7b
 6200 1474 00       		.sleb128 0
 6201 1475 33       		.uleb128 0x33
 6202 1476 01       		.uleb128 0x1
 6203 1477 52       		.byte	0x52
 6204 1478 03       		.uleb128 0x3
 6205 1479 91       		.byte	0x91
 6206 147a D87D     		.sleb128 -296
 6207 147c 00       		.byte	0
 6208 147d 32       		.uleb128 0x32
 6209 147e DC000000 		.4byte	.LVL192
 6210 1482 FB2D0000 		.4byte	0x2dfb
 6211 1486 C3140000 		.4byte	0x14c3
 6212 148a 33       		.uleb128 0x33
 6213 148b 01       		.uleb128 0x1
 6214 148c 50       		.byte	0x50
 6215 148d 02       		.uleb128 0x2
 6216 148e 75       		.byte	0x75
 6217 148f 00       		.sleb128 0
 6218 1490 33       		.uleb128 0x33
 6219 1491 01       		.uleb128 0x1
 6220 1492 51       		.byte	0x51
 6221 1493 02       		.uleb128 0x2
 6222 1494 7B       		.byte	0x7b
 6223 1495 00       		.sleb128 0
 6224 1496 33       		.uleb128 0x33
 6225 1497 01       		.uleb128 0x1
 6226 1498 52       		.byte	0x52
 6227 1499 02       		.uleb128 0x2
 6228 149a 7A       		.byte	0x7a
 6229 149b 00       		.sleb128 0
 6230 149c 33       		.uleb128 0x33
 6231 149d 01       		.uleb128 0x1
 6232 149e 53       		.byte	0x53
 6233 149f 03       		.uleb128 0x3
 6234 14a0 91       		.byte	0x91
 6235 14a1 D87D     		.sleb128 -296
 6236 14a3 33       		.uleb128 0x33
 6237 14a4 02       		.uleb128 0x2
 6238 14a5 7D       		.byte	0x7d
 6239 14a6 00       		.sleb128 0
 6240 14a7 05       		.uleb128 0x5
 6241 14a8 91       		.byte	0x91
 6242 14a9 CC7D     		.sleb128 -308
 6243 14ab 94       		.byte	0x94
 6244 14ac 01       		.byte	0x1
 6245 14ad 33       		.uleb128 0x33
 6246 14ae 02       		.uleb128 0x2
 6247 14af 7D       		.byte	0x7d
 6248 14b0 04       		.sleb128 4
 6249 14b1 02       		.uleb128 0x2
 6250 14b2 77       		.byte	0x77
 6251 14b3 0C       		.sleb128 12
 6252 14b4 33       		.uleb128 0x33
ARM GAS  C:\Users\rdn\AppData\Local\Temp\ccCxUcqe.s 			page 136


 6253 14b5 02       		.uleb128 0x2
 6254 14b6 7D       		.byte	0x7d
 6255 14b7 08       		.sleb128 8
 6256 14b8 02       		.uleb128 0x2
 6257 14b9 76       		.byte	0x76
 6258 14ba 00       		.sleb128 0
 6259 14bb 33       		.uleb128 0x33
 6260 14bc 02       		.uleb128 0x2
 6261 14bd 7D       		.byte	0x7d
 6262 14be 0C       		.sleb128 12
 6263 14bf 02       		.uleb128 0x2
 6264 14c0 76       		.byte	0x76
 6265 14c1 00       		.sleb128 0
 6266 14c2 00       		.byte	0
 6267 14c3 32       		.uleb128 0x32
 6268 14c4 F2000000 		.4byte	.LVL193
 6269 14c8 062E0000 		.4byte	0x2e06
 6270 14cc F1140000 		.4byte	0x14f1
 6271 14d0 33       		.uleb128 0x33
 6272 14d1 01       		.uleb128 0x1
 6273 14d2 50       		.byte	0x50
 6274 14d3 02       		.uleb128 0x2
 6275 14d4 75       		.byte	0x75
 6276 14d5 00       		.sleb128 0
 6277 14d6 33       		.uleb128 0x33
 6278 14d7 01       		.uleb128 0x1
 6279 14d8 52       		.byte	0x52
 6280 14d9 02       		.uleb128 0x2
 6281 14da 78       		.byte	0x78
 6282 14db 00       		.sleb128 0
 6283 14dc 33       		.uleb128 0x33
 6284 14dd 01       		.uleb128 0x1
 6285 14de 53       		.byte	0x53
 6286 14df 02       		.uleb128 0x2
 6287 14e0 7A       		.byte	0x7a
 6288 14e1 00       		.sleb128 0
 6289 14e2 33       		.uleb128 0x33
 6290 14e3 02       		.uleb128 0x2
 6291 14e4 7D       		.byte	0x7d
 6292 14e5 00       		.sleb128 0
 6293 14e6 02       		.uleb128 0x2
 6294 14e7 79       		.byte	0x79
 6295 14e8 00       		.sleb128 0
 6296 14e9 33       		.uleb128 0x33
 6297 14ea 02       		.uleb128 0x2
 6298 14eb 7D       		.byte	0x7d
 6299 14ec 04       		.sleb128 4
 6300 14ed 02       		.uleb128 0x2
 6301 14ee 76       		.byte	0x76
 6302 14ef 00       		.sleb128 0
 6303 14f0 00       		.byte	0
 6304 14f1 34       		.uleb128 0x34
 6305 14f2 0E010000 		.4byte	.LVL196
 6306 14f6 112E0000 		.4byte	0x2e11
 6307 14fa 33       		.uleb128 0x33
 6308 14fb 01       		.uleb128 0x1
 6309 14fc 50       		.byte	0x50
ARM GAS  C:\Users\rdn\AppData\Local\Temp\ccCxUcqe.s 			page 137


 6310 14fd 02       		.uleb128 0x2
 6311 14fe 75       		.byte	0x75
 6312 14ff 00       		.sleb128 0
 6313 1500 33       		.uleb128 0x33
 6314 1501 01       		.uleb128 0x1
 6315 1502 51       		.byte	0x51
 6316 1503 02       		.uleb128 0x2
 6317 1504 7B       		.byte	0x7b
 6318 1505 00       		.sleb128 0
 6319 1506 33       		.uleb128 0x33
 6320 1507 01       		.uleb128 0x1
 6321 1508 52       		.byte	0x52
 6322 1509 02       		.uleb128 0x2
 6323 150a 7A       		.byte	0x7a
 6324 150b 00       		.sleb128 0
 6325 150c 33       		.uleb128 0x33
 6326 150d 02       		.uleb128 0x2
 6327 150e 7D       		.byte	0x7d
 6328 150f 00       		.sleb128 0
 6329 1510 02       		.uleb128 0x2
 6330 1511 79       		.byte	0x79
 6331 1512 00       		.sleb128 0
 6332 1513 33       		.uleb128 0x33
 6333 1514 02       		.uleb128 0x2
 6334 1515 7D       		.byte	0x7d
 6335 1516 04       		.sleb128 4
 6336 1517 02       		.uleb128 0x2
 6337 1518 74       		.byte	0x74
 6338 1519 00       		.sleb128 0
 6339 151a 33       		.uleb128 0x33
 6340 151b 02       		.uleb128 0x2
 6341 151c 7D       		.byte	0x7d
 6342 151d 08       		.sleb128 8
 6343 151e 02       		.uleb128 0x2
 6344 151f 76       		.byte	0x76
 6345 1520 00       		.sleb128 0
 6346 1521 33       		.uleb128 0x33
 6347 1522 02       		.uleb128 0x2
 6348 1523 7D       		.byte	0x7d
 6349 1524 0C       		.sleb128 12
 6350 1525 02       		.uleb128 0x2
 6351 1526 77       		.byte	0x77
 6352 1527 00       		.sleb128 0
 6353 1528 00       		.byte	0
 6354 1529 00       		.byte	0
 6355 152a 10       		.uleb128 0x10
 6356 152b 04       		.byte	0x4
 6357 152c 75070000 		.4byte	0x775
 6358 1530 0D       		.uleb128 0xd
 6359 1531 2C000000 		.4byte	0x2c
 6360 1535 40150000 		.4byte	0x1540
 6361 1539 0E       		.uleb128 0xe
 6362 153a 3E020000 		.4byte	0x23e
 6363 153e 3F       		.byte	0x3f
 6364 153f 00       		.byte	0
 6365 1540 18       		.uleb128 0x18
 6366 1541 56030000 		.4byte	.LASF164
ARM GAS  C:\Users\rdn\AppData\Local\Temp\ccCxUcqe.s 			page 138


 6367 1545 04       		.byte	0x4
 6368 1546 D2       		.byte	0xd2
 6369 1547 03       		.byte	0x3
 6370 1548 61150000 		.4byte	0x1561
 6371 154c 19       		.uleb128 0x19
 6372 154d 22060000 		.4byte	.LASF138
 6373 1551 04       		.byte	0x4
 6374 1552 D2       		.byte	0xd2
 6375 1553 61150000 		.4byte	0x1561
 6376 1557 14       		.uleb128 0x14
 6377 1558 7600     		.ascii	"v\000"
 6378 155a 04       		.byte	0x4
 6379 155b D2       		.byte	0xd2
 6380 155c 25000000 		.4byte	0x25
 6381 1560 00       		.byte	0
 6382 1561 10       		.uleb128 0x10
 6383 1562 04       		.byte	0x4
 6384 1563 0F060000 		.4byte	0x60f
 6385 1567 29       		.uleb128 0x29
 6386 1568 80000000 		.4byte	.LASF165
 6387 156c 01       		.byte	0x1
 6388 156d 5101     		.2byte	0x151
 6389 156f 00000000 		.4byte	.LFB37
 6390 1573 A2000000 		.4byte	.LFE37-.LFB37
 6391 1577 01       		.uleb128 0x1
 6392 1578 9C       		.byte	0x9c
 6393 1579 8A170000 		.4byte	0x178a
 6394 157d 2A       		.uleb128 0x2a
 6395 157e FD030000 		.4byte	.LASF147
 6396 1582 01       		.byte	0x1
 6397 1583 5101     		.2byte	0x151
 6398 1585 82040000 		.4byte	0x482
 6399 1589 140C0000 		.4byte	.LLST106
 6400 158d 2A       		.uleb128 0x2a
 6401 158e DD000000 		.4byte	.LASF161
 6402 1592 01       		.byte	0x1
 6403 1593 5201     		.2byte	0x152
 6404 1595 8A170000 		.4byte	0x178a
 6405 1599 350C0000 		.4byte	.LLST107
 6406 159d 2A       		.uleb128 0x2a
 6407 159e 33030000 		.4byte	.LASF160
 6408 15a2 01       		.byte	0x1
 6409 15a3 5201     		.2byte	0x152
 6410 15a5 25000000 		.4byte	0x25
 6411 15a9 530C0000 		.4byte	.LLST108
 6412 15ad 2A       		.uleb128 0x2a
 6413 15ae 6E000000 		.4byte	.LASF107
 6414 15b2 01       		.byte	0x1
 6415 15b3 5201     		.2byte	0x152
 6416 15b5 95040000 		.4byte	0x495
 6417 15b9 710C0000 		.4byte	.LLST109
 6418 15bd 2C       		.uleb128 0x2c
 6419 15be 647400   		.ascii	"dt\000"
 6420 15c1 01       		.byte	0x1
 6421 15c2 5401     		.2byte	0x154
 6422 15c4 F6000000 		.4byte	0xf6
 6423 15c8 01       		.uleb128 0x1
ARM GAS  C:\Users\rdn\AppData\Local\Temp\ccCxUcqe.s 			page 139


 6424 15c9 58       		.byte	0x58
 6425 15ca 2C       		.uleb128 0x2c
 6426 15cb 737200   		.ascii	"sr\000"
 6427 15ce 01       		.byte	0x1
 6428 15cf 5501     		.2byte	0x155
 6429 15d1 25010000 		.4byte	0x125
 6430 15d5 01       		.uleb128 0x1
 6431 15d6 56       		.byte	0x56
 6432 15d7 2C       		.uleb128 0x2c
 6433 15d8 786600   		.ascii	"xf\000"
 6434 15db 01       		.byte	0x1
 6435 15dc 5701     		.2byte	0x157
 6436 15de F20A0000 		.4byte	0xaf2
 6437 15e2 01       		.uleb128 0x1
 6438 15e3 57       		.byte	0x57
 6439 15e4 2C       		.uleb128 0x2c
 6440 15e5 627700   		.ascii	"bw\000"
 6441 15e8 01       		.byte	0x1
 6442 15e9 5801     		.2byte	0x158
 6443 15eb A5040000 		.4byte	0x4a5
 6444 15ef 01       		.uleb128 0x1
 6445 15f0 5A       		.byte	0x5a
 6446 15f1 35       		.uleb128 0x35
 6447 15f2 22060000 		.4byte	.LASF138
 6448 15f6 01       		.byte	0x1
 6449 15f7 5A01     		.2byte	0x15a
 6450 15f9 0F060000 		.4byte	0x60f
 6451 15fd 03       		.uleb128 0x3
 6452 15fe 91       		.byte	0x91
 6453 15ff A87F     		.sleb128 -88
 6454 1601 2F       		.uleb128 0x2f
 6455 1602 40150000 		.4byte	0x1540
 6456 1606 50000000 		.4byte	.LBB159
 6457 160a 1C000000 		.4byte	.LBE159-.LBB159
 6458 160e 01       		.byte	0x1
 6459 160f 6401     		.2byte	0x164
 6460 1611 7C160000 		.4byte	0x167c
 6461 1615 24       		.uleb128 0x24
 6462 1616 57150000 		.4byte	0x1557
 6463 161a 9D0C0000 		.4byte	.LLST110
 6464 161e 24       		.uleb128 0x24
 6465 161f 4C150000 		.4byte	0x154c
 6466 1623 CD0C0000 		.4byte	.LLST111
 6467 1627 27       		.uleb128 0x27
 6468 1628 93080000 		.4byte	0x893
 6469 162c 50000000 		.4byte	.LBB161
 6470 1630 1C000000 		.4byte	.LBE161-.LBB161
 6471 1634 04       		.byte	0x4
 6472 1635 D4       		.byte	0xd4
 6473 1636 24       		.uleb128 0x24
 6474 1637 B3080000 		.4byte	0x8b3
 6475 163b FC0C0000 		.4byte	.LLST112
 6476 163f 24       		.uleb128 0x24
 6477 1640 AA080000 		.4byte	0x8aa
 6478 1644 9D0C0000 		.4byte	.LLST110
 6479 1648 24       		.uleb128 0x24
 6480 1649 9F080000 		.4byte	0x89f
ARM GAS  C:\Users\rdn\AppData\Local\Temp\ccCxUcqe.s 			page 140


 6481 164d CD0C0000 		.4byte	.LLST111
 6482 1651 25       		.uleb128 0x25
 6483 1652 50000000 		.4byte	.LBB162
 6484 1656 1C000000 		.4byte	.LBE162-.LBB162
 6485 165a 36       		.uleb128 0x36
 6486 165b BC080000 		.4byte	0x8bc
 6487 165f 03       		.uleb128 0x3
 6488 1660 91       		.byte	0x91
 6489 1661 44       		.sleb128 -60
 6490 1662 9F       		.byte	0x9f
 6491 1663 34       		.uleb128 0x34
 6492 1664 6C000000 		.4byte	.LVL216
 6493 1668 1C2E0000 		.4byte	0x2e1c
 6494 166c 33       		.uleb128 0x33
 6495 166d 01       		.uleb128 0x1
 6496 166e 50       		.byte	0x50
 6497 166f 03       		.uleb128 0x3
 6498 1670 91       		.byte	0x91
 6499 1671 A87F     		.sleb128 -88
 6500 1673 33       		.uleb128 0x33
 6501 1674 01       		.uleb128 0x1
 6502 1675 52       		.byte	0x52
 6503 1676 01       		.uleb128 0x1
 6504 1677 31       		.byte	0x31
 6505 1678 00       		.byte	0
 6506 1679 00       		.byte	0
 6507 167a 00       		.byte	0
 6508 167b 00       		.byte	0
 6509 167c 32       		.uleb128 0x32
 6510 167d 2E000000 		.4byte	.LVL207
 6511 1681 272E0000 		.4byte	0x2e27
 6512 1685 A3160000 		.4byte	0x16a3
 6513 1689 33       		.uleb128 0x33
 6514 168a 01       		.uleb128 0x1
 6515 168b 50       		.byte	0x50
 6516 168c 03       		.uleb128 0x3
 6517 168d 91       		.byte	0x91
 6518 168e A87F     		.sleb128 -88
 6519 1690 33       		.uleb128 0x33
 6520 1691 01       		.uleb128 0x1
 6521 1692 51       		.byte	0x51
 6522 1693 01       		.uleb128 0x1
 6523 1694 31       		.byte	0x31
 6524 1695 33       		.uleb128 0x33
 6525 1696 01       		.uleb128 0x1
 6526 1697 52       		.byte	0x52
 6527 1698 03       		.uleb128 0x3
 6528 1699 F3       		.byte	0xf3
 6529 169a 01       		.uleb128 0x1
 6530 169b 53       		.byte	0x53
 6531 169c 33       		.uleb128 0x33
 6532 169d 01       		.uleb128 0x1
 6533 169e 53       		.byte	0x53
 6534 169f 02       		.uleb128 0x2
 6535 16a0 79       		.byte	0x79
 6536 16a1 00       		.sleb128 0
 6537 16a2 00       		.byte	0
ARM GAS  C:\Users\rdn\AppData\Local\Temp\ccCxUcqe.s 			page 141


 6538 16a3 32       		.uleb128 0x32
 6539 16a4 38000000 		.4byte	.LVL208
 6540 16a8 322E0000 		.4byte	0x2e32
 6541 16ac C4160000 		.4byte	0x16c4
 6542 16b0 33       		.uleb128 0x33
 6543 16b1 01       		.uleb128 0x1
 6544 16b2 50       		.byte	0x50
 6545 16b3 03       		.uleb128 0x3
 6546 16b4 91       		.byte	0x91
 6547 16b5 A87F     		.sleb128 -88
 6548 16b7 33       		.uleb128 0x33
 6549 16b8 01       		.uleb128 0x1
 6550 16b9 51       		.byte	0x51
 6551 16ba 02       		.uleb128 0x2
 6552 16bb 76       		.byte	0x76
 6553 16bc 00       		.sleb128 0
 6554 16bd 33       		.uleb128 0x33
 6555 16be 01       		.uleb128 0x1
 6556 16bf 52       		.byte	0x52
 6557 16c0 02       		.uleb128 0x2
 6558 16c1 7A       		.byte	0x7a
 6559 16c2 00       		.sleb128 0
 6560 16c3 00       		.byte	0
 6561 16c4 32       		.uleb128 0x32
 6562 16c5 44000000 		.4byte	.LVL209
 6563 16c9 3D2E0000 		.4byte	0x2e3d
 6564 16cd EB160000 		.4byte	0x16eb
 6565 16d1 33       		.uleb128 0x33
 6566 16d2 01       		.uleb128 0x1
 6567 16d3 50       		.byte	0x50
 6568 16d4 03       		.uleb128 0x3
 6569 16d5 91       		.byte	0x91
 6570 16d6 A87F     		.sleb128 -88
 6571 16d8 33       		.uleb128 0x33
 6572 16d9 01       		.uleb128 0x1
 6573 16da 51       		.byte	0x51
 6574 16db 02       		.uleb128 0x2
 6575 16dc 78       		.byte	0x78
 6576 16dd 00       		.sleb128 0
 6577 16de 33       		.uleb128 0x33
 6578 16df 01       		.uleb128 0x1
 6579 16e0 52       		.byte	0x52
 6580 16e1 02       		.uleb128 0x2
 6581 16e2 76       		.byte	0x76
 6582 16e3 00       		.sleb128 0
 6583 16e4 33       		.uleb128 0x33
 6584 16e5 01       		.uleb128 0x1
 6585 16e6 53       		.byte	0x53
 6586 16e7 02       		.uleb128 0x2
 6587 16e8 75       		.byte	0x75
 6588 16e9 00       		.sleb128 0
 6589 16ea 00       		.byte	0
 6590 16eb 32       		.uleb128 0x32
 6591 16ec 4E000000 		.4byte	.LVL210
 6592 16f0 482E0000 		.4byte	0x2e48
 6593 16f4 06170000 		.4byte	0x1706
 6594 16f8 33       		.uleb128 0x33
ARM GAS  C:\Users\rdn\AppData\Local\Temp\ccCxUcqe.s 			page 142


 6595 16f9 01       		.uleb128 0x1
 6596 16fa 50       		.byte	0x50
 6597 16fb 03       		.uleb128 0x3
 6598 16fc 91       		.byte	0x91
 6599 16fd A87F     		.sleb128 -88
 6600 16ff 33       		.uleb128 0x33
 6601 1700 01       		.uleb128 0x1
 6602 1701 51       		.byte	0x51
 6603 1702 02       		.uleb128 0x2
 6604 1703 74       		.byte	0x74
 6605 1704 28       		.sleb128 40
 6606 1705 00       		.byte	0
 6607 1706 32       		.uleb128 0x32
 6608 1707 76000000 		.4byte	.LVL217
 6609 170b 532E0000 		.4byte	0x2e53
 6610 170f 21170000 		.4byte	0x1721
 6611 1713 33       		.uleb128 0x33
 6612 1714 01       		.uleb128 0x1
 6613 1715 50       		.byte	0x50
 6614 1716 03       		.uleb128 0x3
 6615 1717 91       		.byte	0x91
 6616 1718 A87F     		.sleb128 -88
 6617 171a 33       		.uleb128 0x33
 6618 171b 01       		.uleb128 0x1
 6619 171c 51       		.byte	0x51
 6620 171d 02       		.uleb128 0x2
 6621 171e 74       		.byte	0x74
 6622 171f 0C       		.sleb128 12
 6623 1720 00       		.byte	0
 6624 1721 32       		.uleb128 0x32
 6625 1722 82000000 		.4byte	.LVL218
 6626 1726 5E2E0000 		.4byte	0x2e5e
 6627 172a 3C170000 		.4byte	0x173c
 6628 172e 33       		.uleb128 0x33
 6629 172f 01       		.uleb128 0x1
 6630 1730 50       		.byte	0x50
 6631 1731 03       		.uleb128 0x3
 6632 1732 91       		.byte	0x91
 6633 1733 A87F     		.sleb128 -88
 6634 1735 33       		.uleb128 0x33
 6635 1736 01       		.uleb128 0x1
 6636 1737 51       		.byte	0x51
 6637 1738 02       		.uleb128 0x2
 6638 1739 74       		.byte	0x74
 6639 173a 04       		.sleb128 4
 6640 173b 00       		.byte	0
 6641 173c 32       		.uleb128 0x32
 6642 173d 96000000 		.4byte	.LVL219
 6643 1741 692E0000 		.4byte	0x2e69
 6644 1745 78170000 		.4byte	0x1778
 6645 1749 33       		.uleb128 0x33
 6646 174a 01       		.uleb128 0x1
 6647 174b 50       		.byte	0x50
 6648 174c 03       		.uleb128 0x3
 6649 174d 91       		.byte	0x91
 6650 174e A87F     		.sleb128 -88
 6651 1750 33       		.uleb128 0x33
ARM GAS  C:\Users\rdn\AppData\Local\Temp\ccCxUcqe.s 			page 143


 6652 1751 01       		.uleb128 0x1
 6653 1752 51       		.byte	0x51
 6654 1753 02       		.uleb128 0x2
 6655 1754 78       		.byte	0x78
 6656 1755 00       		.sleb128 0
 6657 1756 33       		.uleb128 0x33
 6658 1757 01       		.uleb128 0x1
 6659 1758 52       		.byte	0x52
 6660 1759 02       		.uleb128 0x2
 6661 175a 76       		.byte	0x76
 6662 175b 00       		.sleb128 0
 6663 175c 33       		.uleb128 0x33
 6664 175d 01       		.uleb128 0x1
 6665 175e 53       		.byte	0x53
 6666 175f 02       		.uleb128 0x2
 6667 1760 7A       		.byte	0x7a
 6668 1761 00       		.sleb128 0
 6669 1762 33       		.uleb128 0x33
 6670 1763 02       		.uleb128 0x2
 6671 1764 7D       		.byte	0x7d
 6672 1765 00       		.sleb128 0
 6673 1766 02       		.uleb128 0x2
 6674 1767 79       		.byte	0x79
 6675 1768 00       		.sleb128 0
 6676 1769 33       		.uleb128 0x33
 6677 176a 02       		.uleb128 0x2
 6678 176b 7D       		.byte	0x7d
 6679 176c 04       		.sleb128 4
 6680 176d 02       		.uleb128 0x2
 6681 176e 75       		.byte	0x75
 6682 176f 00       		.sleb128 0
 6683 1770 33       		.uleb128 0x33
 6684 1771 02       		.uleb128 0x2
 6685 1772 7D       		.byte	0x7d
 6686 1773 08       		.sleb128 8
 6687 1774 02       		.uleb128 0x2
 6688 1775 77       		.byte	0x77
 6689 1776 00       		.sleb128 0
 6690 1777 00       		.byte	0
 6691 1778 34       		.uleb128 0x34
 6692 1779 9C000000 		.4byte	.LVL220
 6693 177d 742E0000 		.4byte	0x2e74
 6694 1781 33       		.uleb128 0x33
 6695 1782 01       		.uleb128 0x1
 6696 1783 50       		.byte	0x50
 6697 1784 03       		.uleb128 0x3
 6698 1785 91       		.byte	0x91
 6699 1786 A87F     		.sleb128 -88
 6700 1788 00       		.byte	0
 6701 1789 00       		.byte	0
 6702 178a 10       		.uleb128 0x10
 6703 178b 04       		.byte	0x4
 6704 178c 90170000 		.4byte	0x1790
 6705 1790 12       		.uleb128 0x12
 6706 1791 75070000 		.4byte	0x775
 6707 1795 13       		.uleb128 0x13
 6708 1796 81060000 		.4byte	.LASF166
ARM GAS  C:\Users\rdn\AppData\Local\Temp\ccCxUcqe.s 			page 144


 6709 179a 04       		.byte	0x4
 6710 179b EA       		.byte	0xea
 6711 179c 25000000 		.4byte	0x25
 6712 17a0 03       		.byte	0x3
 6713 17a1 B1170000 		.4byte	0x17b1
 6714 17a5 19       		.uleb128 0x19
 6715 17a6 22060000 		.4byte	.LASF138
 6716 17aa 04       		.byte	0x4
 6717 17ab EA       		.byte	0xea
 6718 17ac 61150000 		.4byte	0x1561
 6719 17b0 00       		.byte	0
 6720 17b1 37       		.uleb128 0x37
 6721 17b2 DA080000 		.4byte	.LASF167
 6722 17b6 01       		.byte	0x1
 6723 17b7 3502     		.2byte	0x235
 6724 17b9 25000000 		.4byte	0x25
 6725 17bd 00000000 		.4byte	.LFB47
 6726 17c1 F8000000 		.4byte	.LFE47-.LFB47
 6727 17c5 01       		.uleb128 0x1
 6728 17c6 9C       		.byte	0x9c
 6729 17c7 7A1A0000 		.4byte	0x1a7a
 6730 17cb 2A       		.uleb128 0x2a
 6731 17cc 05040000 		.4byte	.LASF155
 6732 17d0 01       		.byte	0x1
 6733 17d1 3502     		.2byte	0x235
 6734 17d3 88040000 		.4byte	0x488
 6735 17d7 100D0000 		.4byte	.LLST115
 6736 17db 2A       		.uleb128 0x2a
 6737 17dc 44050000 		.4byte	.LASF168
 6738 17e0 01       		.byte	0x1
 6739 17e1 3602     		.2byte	0x236
 6740 17e3 DA0A0000 		.4byte	0xada
 6741 17e7 310D0000 		.4byte	.LLST116
 6742 17eb 2A       		.uleb128 0x2a
 6743 17ec 33030000 		.4byte	.LASF160
 6744 17f0 01       		.byte	0x1
 6745 17f1 3602     		.2byte	0x236
 6746 17f3 25000000 		.4byte	0x25
 6747 17f7 5D0D0000 		.4byte	.LLST117
 6748 17fb 2A       		.uleb128 0x2a
 6749 17fc DD000000 		.4byte	.LASF161
 6750 1800 01       		.byte	0x1
 6751 1801 3602     		.2byte	0x236
 6752 1803 2A150000 		.4byte	0x152a
 6753 1807 890D0000 		.4byte	.LLST118
 6754 180b 2D       		.uleb128 0x2d
 6755 180c 647400   		.ascii	"dt\000"
 6756 180f 01       		.byte	0x1
 6757 1810 3802     		.2byte	0x238
 6758 1812 F6000000 		.4byte	0xf6
 6759 1816 B50D0000 		.4byte	.LLST119
 6760 181a 2D       		.uleb128 0x2d
 6761 181b 737200   		.ascii	"sr\000"
 6762 181e 01       		.byte	0x1
 6763 181f 3902     		.2byte	0x239
 6764 1821 25010000 		.4byte	0x125
 6765 1825 C80D0000 		.4byte	.LLST120
ARM GAS  C:\Users\rdn\AppData\Local\Temp\ccCxUcqe.s 			page 145


 6766 1829 2D       		.uleb128 0x2d
 6767 182a 786600   		.ascii	"xf\000"
 6768 182d 01       		.byte	0x1
 6769 182e 3B02     		.2byte	0x23b
 6770 1830 F20A0000 		.4byte	0xaf2
 6771 1834 DB0D0000 		.4byte	.LLST121
 6772 1838 2E       		.uleb128 0x2e
 6773 1839 6E7300   		.ascii	"ns\000"
 6774 183c 01       		.byte	0x1
 6775 183d 3C02     		.2byte	0x23c
 6776 183f 25000000 		.4byte	0x25
 6777 1843 2E       		.uleb128 0x2e
 6778 1844 6E6500   		.ascii	"ne\000"
 6779 1847 01       		.byte	0x1
 6780 1848 3D02     		.2byte	0x23d
 6781 184a 25000000 		.4byte	0x25
 6782 184e 35       		.uleb128 0x35
 6783 184f 22060000 		.4byte	.LASF138
 6784 1853 01       		.byte	0x1
 6785 1854 3F02     		.2byte	0x23f
 6786 1856 0F060000 		.4byte	0x60f
 6787 185a 03       		.uleb128 0x3
 6788 185b 91       		.byte	0x91
 6789 185c A07F     		.sleb128 -96
 6790 185e 2D       		.uleb128 0x2d
 6791 185f 72657400 		.ascii	"ret\000"
 6792 1863 01       		.byte	0x1
 6793 1864 4002     		.2byte	0x240
 6794 1866 25000000 		.4byte	0x25
 6795 186a EE0D0000 		.4byte	.LLST122
 6796 186e 2F       		.uleb128 0x2f
 6797 186f C9070000 		.4byte	0x7c9
 6798 1873 1C000000 		.4byte	.LBB172
 6799 1877 0E000000 		.4byte	.LBE172-.LBB172
 6800 187b 01       		.byte	0x1
 6801 187c 3C02     		.2byte	0x23c
 6802 187e 95180000 		.4byte	0x1895
 6803 1882 24       		.uleb128 0x24
 6804 1883 E3070000 		.4byte	0x7e3
 6805 1887 390E0000 		.4byte	.LLST123
 6806 188b 24       		.uleb128 0x24
 6807 188c D9070000 		.4byte	0x7d9
 6808 1890 4C0E0000 		.4byte	.LLST124
 6809 1894 00       		.byte	0
 6810 1895 2F       		.uleb128 0x2f
 6811 1896 0F090000 		.4byte	0x90f
 6812 189a 2A000000 		.4byte	.LBB174
 6813 189e 0A000000 		.4byte	.LBE174-.LBB174
 6814 18a2 01       		.byte	0x1
 6815 18a3 3D02     		.2byte	0x23d
 6816 18a5 BC180000 		.4byte	0x18bc
 6817 18a9 24       		.uleb128 0x24
 6818 18aa 29090000 		.4byte	0x929
 6819 18ae 5F0E0000 		.4byte	.LLST125
 6820 18b2 24       		.uleb128 0x24
 6821 18b3 1F090000 		.4byte	0x91f
 6822 18b7 720E0000 		.4byte	.LLST126
ARM GAS  C:\Users\rdn\AppData\Local\Temp\ccCxUcqe.s 			page 146


 6823 18bb 00       		.byte	0
 6824 18bc 2F       		.uleb128 0x2f
 6825 18bd 95170000 		.4byte	0x1795
 6826 18c1 78000000 		.4byte	.LBB176
 6827 18c5 1E000000 		.4byte	.LBE176-.LBB176
 6828 18c9 01       		.byte	0x1
 6829 18ca 4D02     		.2byte	0x24d
 6830 18cc 3C190000 		.4byte	0x193c
 6831 18d0 24       		.uleb128 0x24
 6832 18d1 A5170000 		.4byte	0x17a5
 6833 18d5 850E0000 		.4byte	.LLST127
 6834 18d9 27       		.uleb128 0x27
 6835 18da D4080000 		.4byte	0x8d4
 6836 18de 78000000 		.4byte	.LBB178
 6837 18e2 1E000000 		.4byte	.LBE178-.LBB178
 6838 18e6 04       		.byte	0x4
 6839 18e7 EC       		.byte	0xec
 6840 18e8 24       		.uleb128 0x24
 6841 18e9 EF080000 		.4byte	0x8ef
 6842 18ed B40E0000 		.4byte	.LLST128
 6843 18f1 24       		.uleb128 0x24
 6844 18f2 E4080000 		.4byte	0x8e4
 6845 18f6 850E0000 		.4byte	.LLST127
 6846 18fa 25       		.uleb128 0x25
 6847 18fb 78000000 		.4byte	.LBB179
 6848 18ff 1E000000 		.4byte	.LBE179-.LBB179
 6849 1903 28       		.uleb128 0x28
 6850 1904 F8080000 		.4byte	0x8f8
 6851 1908 C80E0000 		.4byte	.LLST130
 6852 190c 38       		.uleb128 0x38
 6853 190d 80000000 		.4byte	.LBB180
 6854 1911 0E000000 		.4byte	.LBE180-.LBB180
 6855 1915 23190000 		.4byte	0x1923
 6856 1919 28       		.uleb128 0x28
 6857 191a 04090000 		.4byte	0x904
 6858 191e DE0E0000 		.4byte	.LLST131
 6859 1922 00       		.byte	0
 6860 1923 34       		.uleb128 0x34
 6861 1924 96000000 		.4byte	.LVL242
 6862 1928 7F2E0000 		.4byte	0x2e7f
 6863 192c 33       		.uleb128 0x33
 6864 192d 01       		.uleb128 0x1
 6865 192e 50       		.byte	0x50
 6866 192f 03       		.uleb128 0x3
 6867 1930 91       		.byte	0x91
 6868 1931 A07F     		.sleb128 -96
 6869 1933 33       		.uleb128 0x33
 6870 1934 01       		.uleb128 0x1
 6871 1935 51       		.byte	0x51
 6872 1936 01       		.uleb128 0x1
 6873 1937 31       		.byte	0x31
 6874 1938 00       		.byte	0
 6875 1939 00       		.byte	0
 6876 193a 00       		.byte	0
 6877 193b 00       		.byte	0
 6878 193c 32       		.uleb128 0x32
 6879 193d 40000000 		.4byte	.LVL231
ARM GAS  C:\Users\rdn\AppData\Local\Temp\ccCxUcqe.s 			page 147


 6880 1941 272E0000 		.4byte	0x2e27
 6881 1945 63190000 		.4byte	0x1963
 6882 1949 33       		.uleb128 0x33
 6883 194a 01       		.uleb128 0x1
 6884 194b 50       		.byte	0x50
 6885 194c 03       		.uleb128 0x3
 6886 194d 91       		.byte	0x91
 6887 194e A07F     		.sleb128 -96
 6888 1950 33       		.uleb128 0x33
 6889 1951 01       		.uleb128 0x1
 6890 1952 51       		.byte	0x51
 6891 1953 01       		.uleb128 0x1
 6892 1954 30       		.byte	0x30
 6893 1955 33       		.uleb128 0x33
 6894 1956 01       		.uleb128 0x1
 6895 1957 52       		.byte	0x52
 6896 1958 03       		.uleb128 0x3
 6897 1959 F3       		.byte	0xf3
 6898 195a 01       		.uleb128 0x1
 6899 195b 51       		.byte	0x51
 6900 195c 33       		.uleb128 0x33
 6901 195d 01       		.uleb128 0x1
 6902 195e 53       		.byte	0x53
 6903 195f 02       		.uleb128 0x2
 6904 1960 7A       		.byte	0x7a
 6905 1961 00       		.sleb128 0
 6906 1962 00       		.byte	0
 6907 1963 32       		.uleb128 0x32
 6908 1964 4A000000 		.4byte	.LVL232
 6909 1968 8A2E0000 		.4byte	0x2e8a
 6910 196c 84190000 		.4byte	0x1984
 6911 1970 33       		.uleb128 0x33
 6912 1971 01       		.uleb128 0x1
 6913 1972 50       		.byte	0x50
 6914 1973 03       		.uleb128 0x3
 6915 1974 91       		.byte	0x91
 6916 1975 A07F     		.sleb128 -96
 6917 1977 33       		.uleb128 0x33
 6918 1978 01       		.uleb128 0x1
 6919 1979 51       		.byte	0x51
 6920 197a 02       		.uleb128 0x2
 6921 197b 74       		.byte	0x74
 6922 197c 00       		.sleb128 0
 6923 197d 33       		.uleb128 0x33
 6924 197e 01       		.uleb128 0x1
 6925 197f 52       		.byte	0x52
 6926 1980 02       		.uleb128 0x2
 6927 1981 76       		.byte	0x76
 6928 1982 00       		.sleb128 0
 6929 1983 00       		.byte	0
 6930 1984 32       		.uleb128 0x32
 6931 1985 5E000000 		.4byte	.LVL234
 6932 1989 952E0000 		.4byte	0x2e95
 6933 198d AB190000 		.4byte	0x19ab
 6934 1991 33       		.uleb128 0x33
 6935 1992 01       		.uleb128 0x1
 6936 1993 50       		.byte	0x50
ARM GAS  C:\Users\rdn\AppData\Local\Temp\ccCxUcqe.s 			page 148


 6937 1994 03       		.uleb128 0x3
 6938 1995 91       		.byte	0x91
 6939 1996 A07F     		.sleb128 -96
 6940 1998 33       		.uleb128 0x33
 6941 1999 01       		.uleb128 0x1
 6942 199a 51       		.byte	0x51
 6943 199b 02       		.uleb128 0x2
 6944 199c 79       		.byte	0x79
 6945 199d 00       		.sleb128 0
 6946 199e 33       		.uleb128 0x33
 6947 199f 01       		.uleb128 0x1
 6948 19a0 52       		.byte	0x52
 6949 19a1 02       		.uleb128 0x2
 6950 19a2 74       		.byte	0x74
 6951 19a3 00       		.sleb128 0
 6952 19a4 33       		.uleb128 0x33
 6953 19a5 01       		.uleb128 0x1
 6954 19a6 53       		.byte	0x53
 6955 19a7 02       		.uleb128 0x2
 6956 19a8 7B       		.byte	0x7b
 6957 19a9 00       		.sleb128 0
 6958 19aa 00       		.byte	0
 6959 19ab 32       		.uleb128 0x32
 6960 19ac 74000000 		.4byte	.LVL236
 6961 19b0 A02E0000 		.4byte	0x2ea0
 6962 19b4 D3190000 		.4byte	0x19d3
 6963 19b8 33       		.uleb128 0x33
 6964 19b9 01       		.uleb128 0x1
 6965 19ba 50       		.byte	0x50
 6966 19bb 03       		.uleb128 0x3
 6967 19bc 91       		.byte	0x91
 6968 19bd A07F     		.sleb128 -96
 6969 19bf 33       		.uleb128 0x33
 6970 19c0 01       		.uleb128 0x1
 6971 19c1 51       		.byte	0x51
 6972 19c2 02       		.uleb128 0x2
 6973 19c3 79       		.byte	0x79
 6974 19c4 00       		.sleb128 0
 6975 19c5 33       		.uleb128 0x33
 6976 19c6 01       		.uleb128 0x1
 6977 19c7 53       		.byte	0x53
 6978 19c8 02       		.uleb128 0x2
 6979 19c9 7A       		.byte	0x7a
 6980 19ca 00       		.sleb128 0
 6981 19cb 33       		.uleb128 0x33
 6982 19cc 02       		.uleb128 0x2
 6983 19cd 7D       		.byte	0x7d
 6984 19ce 00       		.sleb128 0
 6985 19cf 02       		.uleb128 0x2
 6986 19d0 76       		.byte	0x76
 6987 19d1 28       		.sleb128 40
 6988 19d2 00       		.byte	0
 6989 19d3 32       		.uleb128 0x32
 6990 19d4 A8000000 		.4byte	.LVL243
 6991 19d8 AB2E0000 		.4byte	0x2eab
 6992 19dc EE190000 		.4byte	0x19ee
 6993 19e0 33       		.uleb128 0x33
ARM GAS  C:\Users\rdn\AppData\Local\Temp\ccCxUcqe.s 			page 149


 6994 19e1 01       		.uleb128 0x1
 6995 19e2 50       		.byte	0x50
 6996 19e3 03       		.uleb128 0x3
 6997 19e4 91       		.byte	0x91
 6998 19e5 A07F     		.sleb128 -96
 6999 19e7 33       		.uleb128 0x33
 7000 19e8 01       		.uleb128 0x1
 7001 19e9 51       		.byte	0x51
 7002 19ea 02       		.uleb128 0x2
 7003 19eb 76       		.byte	0x76
 7004 19ec 0C       		.sleb128 12
 7005 19ed 00       		.byte	0
 7006 19ee 32       		.uleb128 0x32
 7007 19ef B8000000 		.4byte	.LVL245
 7008 19f3 B62E0000 		.4byte	0x2eb6
 7009 19f7 091A0000 		.4byte	0x1a09
 7010 19fb 33       		.uleb128 0x33
 7011 19fc 01       		.uleb128 0x1
 7012 19fd 50       		.byte	0x50
 7013 19fe 03       		.uleb128 0x3
 7014 19ff 91       		.byte	0x91
 7015 1a00 A07F     		.sleb128 -96
 7016 1a02 33       		.uleb128 0x33
 7017 1a03 01       		.uleb128 0x1
 7018 1a04 51       		.byte	0x51
 7019 1a05 02       		.uleb128 0x2
 7020 1a06 76       		.byte	0x76
 7021 1a07 04       		.sleb128 4
 7022 1a08 00       		.byte	0
 7023 1a09 32       		.uleb128 0x32
 7024 1a0a D0000000 		.4byte	.LVL246
 7025 1a0e C12E0000 		.4byte	0x2ec1
 7026 1a12 3F1A0000 		.4byte	0x1a3f
 7027 1a16 33       		.uleb128 0x33
 7028 1a17 01       		.uleb128 0x1
 7029 1a18 50       		.byte	0x50
 7030 1a19 03       		.uleb128 0x3
 7031 1a1a 91       		.byte	0x91
 7032 1a1b A07F     		.sleb128 -96
 7033 1a1d 33       		.uleb128 0x33
 7034 1a1e 01       		.uleb128 0x1
 7035 1a1f 51       		.byte	0x51
 7036 1a20 02       		.uleb128 0x2
 7037 1a21 79       		.byte	0x79
 7038 1a22 00       		.sleb128 0
 7039 1a23 33       		.uleb128 0x33
 7040 1a24 01       		.uleb128 0x1
 7041 1a25 52       		.byte	0x52
 7042 1a26 02       		.uleb128 0x2
 7043 1a27 74       		.byte	0x74
 7044 1a28 00       		.sleb128 0
 7045 1a29 33       		.uleb128 0x33
 7046 1a2a 02       		.uleb128 0x2
 7047 1a2b 7D       		.byte	0x7d
 7048 1a2c 00       		.sleb128 0
 7049 1a2d 02       		.uleb128 0x2
 7050 1a2e 7A       		.byte	0x7a
ARM GAS  C:\Users\rdn\AppData\Local\Temp\ccCxUcqe.s 			page 150


 7051 1a2f 00       		.sleb128 0
 7052 1a30 33       		.uleb128 0x33
 7053 1a31 02       		.uleb128 0x2
 7054 1a32 7D       		.byte	0x7d
 7055 1a33 04       		.sleb128 4
 7056 1a34 02       		.uleb128 0x2
 7057 1a35 7B       		.byte	0x7b
 7058 1a36 00       		.sleb128 0
 7059 1a37 33       		.uleb128 0x33
 7060 1a38 02       		.uleb128 0x2
 7061 1a39 7D       		.byte	0x7d
 7062 1a3a 08       		.sleb128 8
 7063 1a3b 02       		.uleb128 0x2
 7064 1a3c 78       		.byte	0x78
 7065 1a3d 00       		.sleb128 0
 7066 1a3e 00       		.byte	0
 7067 1a3f 32       		.uleb128 0x32
 7068 1a40 E2000000 		.4byte	.LVL248
 7069 1a44 CC2E0000 		.4byte	0x2ecc
 7070 1a48 681A0000 		.4byte	0x1a68
 7071 1a4c 33       		.uleb128 0x33
 7072 1a4d 01       		.uleb128 0x1
 7073 1a4e 50       		.byte	0x50
 7074 1a4f 07       		.uleb128 0x7
 7075 1a50 75       		.byte	0x75
 7076 1a51 00       		.sleb128 0
 7077 1a52 32       		.byte	0x32
 7078 1a53 24       		.byte	0x24
 7079 1a54 78       		.byte	0x78
 7080 1a55 00       		.sleb128 0
 7081 1a56 22       		.byte	0x22
 7082 1a57 33       		.uleb128 0x33
 7083 1a58 01       		.uleb128 0x1
 7084 1a59 51       		.byte	0x51
 7085 1a5a 01       		.uleb128 0x1
 7086 1a5b 30       		.byte	0x30
 7087 1a5c 33       		.uleb128 0x33
 7088 1a5d 01       		.uleb128 0x1
 7089 1a5e 52       		.byte	0x52
 7090 1a5f 07       		.uleb128 0x7
 7091 1a60 77       		.byte	0x77
 7092 1a61 00       		.sleb128 0
 7093 1a62 75       		.byte	0x75
 7094 1a63 00       		.sleb128 0
 7095 1a64 1C       		.byte	0x1c
 7096 1a65 32       		.byte	0x32
 7097 1a66 24       		.byte	0x24
 7098 1a67 00       		.byte	0
 7099 1a68 34       		.uleb128 0x34
 7100 1a69 E8000000 		.4byte	.LVL249
 7101 1a6d D52E0000 		.4byte	0x2ed5
 7102 1a71 33       		.uleb128 0x33
 7103 1a72 01       		.uleb128 0x1
 7104 1a73 50       		.byte	0x50
 7105 1a74 03       		.uleb128 0x3
 7106 1a75 91       		.byte	0x91
 7107 1a76 A07F     		.sleb128 -96
ARM GAS  C:\Users\rdn\AppData\Local\Temp\ccCxUcqe.s 			page 151


 7108 1a78 00       		.byte	0
 7109 1a79 00       		.byte	0
 7110 1a7a 29       		.uleb128 0x29
 7111 1a7b 65040000 		.4byte	.LASF169
 7112 1a7f 01       		.byte	0x1
 7113 1a80 6402     		.2byte	0x264
 7114 1a82 00000000 		.4byte	.LFB48
 7115 1a86 08010000 		.4byte	.LFE48-.LFB48
 7116 1a8a 01       		.uleb128 0x1
 7117 1a8b 9C       		.byte	0x9c
 7118 1a8c 0F1D0000 		.4byte	0x1d0f
 7119 1a90 2A       		.uleb128 0x2a
 7120 1a91 05040000 		.4byte	.LASF155
 7121 1a95 01       		.byte	0x1
 7122 1a96 6402     		.2byte	0x264
 7123 1a98 88040000 		.4byte	0x488
 7124 1a9c F10E0000 		.4byte	.LLST132
 7125 1aa0 2A       		.uleb128 0x2a
 7126 1aa1 DD000000 		.4byte	.LASF161
 7127 1aa5 01       		.byte	0x1
 7128 1aa6 6502     		.2byte	0x265
 7129 1aa8 8A170000 		.4byte	0x178a
 7130 1aac 1D0F0000 		.4byte	.LLST133
 7131 1ab0 2A       		.uleb128 0x2a
 7132 1ab1 33030000 		.4byte	.LASF160
 7133 1ab5 01       		.byte	0x1
 7134 1ab6 6502     		.2byte	0x265
 7135 1ab8 25000000 		.4byte	0x25
 7136 1abc 5F0F0000 		.4byte	.LLST134
 7137 1ac0 2D       		.uleb128 0x2d
 7138 1ac1 647400   		.ascii	"dt\000"
 7139 1ac4 01       		.byte	0x1
 7140 1ac5 6702     		.2byte	0x267
 7141 1ac7 F6000000 		.4byte	0xf6
 7142 1acb 8A0F0000 		.4byte	.LLST135
 7143 1acf 2D       		.uleb128 0x2d
 7144 1ad0 737200   		.ascii	"sr\000"
 7145 1ad3 01       		.byte	0x1
 7146 1ad4 6802     		.2byte	0x268
 7147 1ad6 25010000 		.4byte	0x125
 7148 1ada 9D0F0000 		.4byte	.LLST136
 7149 1ade 31       		.uleb128 0x31
 7150 1adf CF020000 		.4byte	.LASF55
 7151 1ae3 01       		.byte	0x1
 7152 1ae4 6902     		.2byte	0x269
 7153 1ae6 25010000 		.4byte	0x125
 7154 1aea B00F0000 		.4byte	.LLST137
 7155 1aee 2D       		.uleb128 0x2d
 7156 1aef 786600   		.ascii	"xf\000"
 7157 1af2 01       		.byte	0x1
 7158 1af3 6B02     		.2byte	0x26b
 7159 1af5 F20A0000 		.4byte	0xaf2
 7160 1af9 C30F0000 		.4byte	.LLST138
 7161 1afd 2E       		.uleb128 0x2e
 7162 1afe 6E7300   		.ascii	"ns\000"
 7163 1b01 01       		.byte	0x1
 7164 1b02 6C02     		.2byte	0x26c
ARM GAS  C:\Users\rdn\AppData\Local\Temp\ccCxUcqe.s 			page 152


 7165 1b04 25000000 		.4byte	0x25
 7166 1b08 2E       		.uleb128 0x2e
 7167 1b09 6E6500   		.ascii	"ne\000"
 7168 1b0c 01       		.byte	0x1
 7169 1b0d 6D02     		.2byte	0x26d
 7170 1b0f 25000000 		.4byte	0x25
 7171 1b13 2D       		.uleb128 0x2d
 7172 1b14 786700   		.ascii	"xg\000"
 7173 1b17 01       		.byte	0x1
 7174 1b18 6F02     		.2byte	0x26f
 7175 1b1a F20A0000 		.4byte	0xaf2
 7176 1b1e D60F0000 		.4byte	.LLST139
 7177 1b22 2D       		.uleb128 0x2d
 7178 1b23 787300   		.ascii	"xs\000"
 7179 1b26 01       		.byte	0x1
 7180 1b27 7002     		.2byte	0x270
 7181 1b29 F20A0000 		.4byte	0xaf2
 7182 1b2d 01100000 		.4byte	.LLST140
 7183 1b31 2D       		.uleb128 0x2d
 7184 1b32 786400   		.ascii	"xd\000"
 7185 1b35 01       		.byte	0x1
 7186 1b36 7202     		.2byte	0x272
 7187 1b38 F20A0000 		.4byte	0xaf2
 7188 1b3c 14100000 		.4byte	.LLST141
 7189 1b40 2D       		.uleb128 0x2d
 7190 1b41 786800   		.ascii	"xh\000"
 7191 1b44 01       		.byte	0x1
 7192 1b45 7302     		.2byte	0x273
 7193 1b47 F20A0000 		.4byte	0xaf2
 7194 1b4b 56100000 		.4byte	.LLST142
 7195 1b4f 2F       		.uleb128 0x2f
 7196 1b50 C9070000 		.4byte	0x7c9
 7197 1b54 1E000000 		.4byte	.LBB181
 7198 1b58 0C000000 		.4byte	.LBE181-.LBB181
 7199 1b5c 01       		.byte	0x1
 7200 1b5d 6C02     		.2byte	0x26c
 7201 1b5f 761B0000 		.4byte	0x1b76
 7202 1b63 24       		.uleb128 0x24
 7203 1b64 E3070000 		.4byte	0x7e3
 7204 1b68 98100000 		.4byte	.LLST143
 7205 1b6c 24       		.uleb128 0x24
 7206 1b6d D9070000 		.4byte	0x7d9
 7207 1b71 AB100000 		.4byte	.LLST144
 7208 1b75 00       		.byte	0
 7209 1b76 2F       		.uleb128 0x2f
 7210 1b77 0F090000 		.4byte	0x90f
 7211 1b7b 2A000000 		.4byte	.LBB183
 7212 1b7f 0A000000 		.4byte	.LBE183-.LBB183
 7213 1b83 01       		.byte	0x1
 7214 1b84 6D02     		.2byte	0x26d
 7215 1b86 9D1B0000 		.4byte	0x1b9d
 7216 1b8a 24       		.uleb128 0x24
 7217 1b8b 29090000 		.4byte	0x929
 7218 1b8f BE100000 		.4byte	.LLST145
 7219 1b93 24       		.uleb128 0x24
 7220 1b94 1F090000 		.4byte	0x91f
 7221 1b98 D1100000 		.4byte	.LLST146
ARM GAS  C:\Users\rdn\AppData\Local\Temp\ccCxUcqe.s 			page 153


 7222 1b9c 00       		.byte	0
 7223 1b9d 38       		.uleb128 0x38
 7224 1b9e 56000000 		.4byte	.LBB185
 7225 1ba2 3E000000 		.4byte	.LBE185-.LBB185
 7226 1ba6 551C0000 		.4byte	0x1c55
 7227 1baa 2D       		.uleb128 0x2d
 7228 1bab 627700   		.ascii	"bw\000"
 7229 1bae 01       		.byte	0x1
 7230 1baf 7602     		.2byte	0x276
 7231 1bb1 A5040000 		.4byte	0x4a5
 7232 1bb5 E4100000 		.4byte	.LLST147
 7233 1bb9 32       		.uleb128 0x32
 7234 1bba 64000000 		.4byte	.LVL266
 7235 1bbe E02E0000 		.4byte	0x2ee0
 7236 1bc2 CE1B0000 		.4byte	0x1bce
 7237 1bc6 33       		.uleb128 0x33
 7238 1bc7 01       		.uleb128 0x1
 7239 1bc8 50       		.byte	0x50
 7240 1bc9 03       		.uleb128 0x3
 7241 1bca 74       		.byte	0x74
 7242 1bcb 9C01     		.sleb128 156
 7243 1bcd 00       		.byte	0
 7244 1bce 32       		.uleb128 0x32
 7245 1bcf 70000000 		.4byte	.LVL267
 7246 1bd3 EB2E0000 		.4byte	0x2eeb
 7247 1bd7 F41B0000 		.4byte	0x1bf4
 7248 1bdb 33       		.uleb128 0x33
 7249 1bdc 01       		.uleb128 0x1
 7250 1bdd 50       		.byte	0x50
 7251 1bde 02       		.uleb128 0x2
 7252 1bdf 76       		.byte	0x76
 7253 1be0 00       		.sleb128 0
 7254 1be1 33       		.uleb128 0x33
 7255 1be2 01       		.uleb128 0x1
 7256 1be3 51       		.byte	0x51
 7257 1be4 02       		.uleb128 0x2
 7258 1be5 7B       		.byte	0x7b
 7259 1be6 00       		.sleb128 0
 7260 1be7 33       		.uleb128 0x33
 7261 1be8 01       		.uleb128 0x1
 7262 1be9 52       		.byte	0x52
 7263 1bea 02       		.uleb128 0x2
 7264 1beb 7A       		.byte	0x7a
 7265 1bec 00       		.sleb128 0
 7266 1bed 33       		.uleb128 0x33
 7267 1bee 01       		.uleb128 0x1
 7268 1bef 53       		.byte	0x53
 7269 1bf0 02       		.uleb128 0x2
 7270 1bf1 75       		.byte	0x75
 7271 1bf2 00       		.sleb128 0
 7272 1bf3 00       		.byte	0
 7273 1bf4 32       		.uleb128 0x32
 7274 1bf5 82000000 		.4byte	.LVL268
 7275 1bf9 F62E0000 		.4byte	0x2ef6
 7276 1bfd 221C0000 		.4byte	0x1c22
 7277 1c01 33       		.uleb128 0x33
 7278 1c02 01       		.uleb128 0x1
ARM GAS  C:\Users\rdn\AppData\Local\Temp\ccCxUcqe.s 			page 154


 7279 1c03 50       		.byte	0x50
 7280 1c04 02       		.uleb128 0x2
 7281 1c05 76       		.byte	0x76
 7282 1c06 00       		.sleb128 0
 7283 1c07 33       		.uleb128 0x33
 7284 1c08 01       		.uleb128 0x1
 7285 1c09 51       		.byte	0x51
 7286 1c0a 02       		.uleb128 0x2
 7287 1c0b 77       		.byte	0x77
 7288 1c0c 00       		.sleb128 0
 7289 1c0d 33       		.uleb128 0x33
 7290 1c0e 01       		.uleb128 0x1
 7291 1c0f 52       		.byte	0x52
 7292 1c10 02       		.uleb128 0x2
 7293 1c11 78       		.byte	0x78
 7294 1c12 0C       		.sleb128 12
 7295 1c13 33       		.uleb128 0x33
 7296 1c14 01       		.uleb128 0x1
 7297 1c15 53       		.byte	0x53
 7298 1c16 02       		.uleb128 0x2
 7299 1c17 75       		.byte	0x75
 7300 1c18 00       		.sleb128 0
 7301 1c19 33       		.uleb128 0x33
 7302 1c1a 02       		.uleb128 0x2
 7303 1c1b 7D       		.byte	0x7d
 7304 1c1c 00       		.sleb128 0
 7305 1c1d 03       		.uleb128 0x3
 7306 1c1e 91       		.byte	0x91
 7307 1c1f 48       		.sleb128 -56
 7308 1c20 06       		.byte	0x6
 7309 1c21 00       		.byte	0
 7310 1c22 34       		.uleb128 0x34
 7311 1c23 94000000 		.4byte	.LVL269
 7312 1c27 012F0000 		.4byte	0x2f01
 7313 1c2b 33       		.uleb128 0x33
 7314 1c2c 01       		.uleb128 0x1
 7315 1c2d 50       		.byte	0x50
 7316 1c2e 02       		.uleb128 0x2
 7317 1c2f 76       		.byte	0x76
 7318 1c30 00       		.sleb128 0
 7319 1c31 33       		.uleb128 0x33
 7320 1c32 01       		.uleb128 0x1
 7321 1c33 51       		.byte	0x51
 7322 1c34 02       		.uleb128 0x2
 7323 1c35 79       		.byte	0x79
 7324 1c36 00       		.sleb128 0
 7325 1c37 33       		.uleb128 0x33
 7326 1c38 01       		.uleb128 0x1
 7327 1c39 52       		.byte	0x52
 7328 1c3a 02       		.uleb128 0x2
 7329 1c3b 77       		.byte	0x77
 7330 1c3c 00       		.sleb128 0
 7331 1c3d 33       		.uleb128 0x33
 7332 1c3e 01       		.uleb128 0x1
 7333 1c3f 53       		.byte	0x53
 7334 1c40 03       		.uleb128 0x3
 7335 1c41 91       		.byte	0x91
ARM GAS  C:\Users\rdn\AppData\Local\Temp\ccCxUcqe.s 			page 155


 7336 1c42 48       		.sleb128 -56
 7337 1c43 06       		.byte	0x6
 7338 1c44 33       		.uleb128 0x33
 7339 1c45 02       		.uleb128 0x2
 7340 1c46 7D       		.byte	0x7d
 7341 1c47 00       		.sleb128 0
 7342 1c48 03       		.uleb128 0x3
 7343 1c49 91       		.byte	0x91
 7344 1c4a 4C       		.sleb128 -52
 7345 1c4b 06       		.byte	0x6
 7346 1c4c 33       		.uleb128 0x33
 7347 1c4d 02       		.uleb128 0x2
 7348 1c4e 7D       		.byte	0x7d
 7349 1c4f 04       		.sleb128 4
 7350 1c50 02       		.uleb128 0x2
 7351 1c51 75       		.byte	0x75
 7352 1c52 00       		.sleb128 0
 7353 1c53 00       		.byte	0
 7354 1c54 00       		.byte	0
 7355 1c55 32       		.uleb128 0x32
 7356 1c56 A6000000 		.4byte	.LVL274
 7357 1c5a 0C2F0000 		.4byte	0x2f0c
 7358 1c5e 841C0000 		.4byte	0x1c84
 7359 1c62 33       		.uleb128 0x33
 7360 1c63 01       		.uleb128 0x1
 7361 1c64 50       		.byte	0x50
 7362 1c65 02       		.uleb128 0x2
 7363 1c66 76       		.byte	0x76
 7364 1c67 00       		.sleb128 0
 7365 1c68 33       		.uleb128 0x33
 7366 1c69 01       		.uleb128 0x1
 7367 1c6a 51       		.byte	0x51
 7368 1c6b 02       		.uleb128 0x2
 7369 1c6c 77       		.byte	0x77
 7370 1c6d 00       		.sleb128 0
 7371 1c6e 33       		.uleb128 0x33
 7372 1c6f 01       		.uleb128 0x1
 7373 1c70 52       		.byte	0x52
 7374 1c71 03       		.uleb128 0x3
 7375 1c72 74       		.byte	0x74
 7376 1c73 9C01     		.sleb128 156
 7377 1c75 33       		.uleb128 0x33
 7378 1c76 01       		.uleb128 0x1
 7379 1c77 53       		.byte	0x53
 7380 1c78 03       		.uleb128 0x3
 7381 1c79 91       		.byte	0x91
 7382 1c7a 48       		.sleb128 -56
 7383 1c7b 06       		.byte	0x6
 7384 1c7c 33       		.uleb128 0x33
 7385 1c7d 02       		.uleb128 0x2
 7386 1c7e 7D       		.byte	0x7d
 7387 1c7f 00       		.sleb128 0
 7388 1c80 02       		.uleb128 0x2
 7389 1c81 75       		.byte	0x75
 7390 1c82 00       		.sleb128 0
 7391 1c83 00       		.byte	0
 7392 1c84 32       		.uleb128 0x32
ARM GAS  C:\Users\rdn\AppData\Local\Temp\ccCxUcqe.s 			page 156


 7393 1c85 B6000000 		.4byte	.LVL275
 7394 1c89 CC2E0000 		.4byte	0x2ecc
 7395 1c8d AD1C0000 		.4byte	0x1cad
 7396 1c91 33       		.uleb128 0x33
 7397 1c92 01       		.uleb128 0x1
 7398 1c93 50       		.byte	0x50
 7399 1c94 07       		.uleb128 0x7
 7400 1c95 7A       		.byte	0x7a
 7401 1c96 00       		.sleb128 0
 7402 1c97 32       		.byte	0x32
 7403 1c98 24       		.byte	0x24
 7404 1c99 75       		.byte	0x75
 7405 1c9a 00       		.sleb128 0
 7406 1c9b 22       		.byte	0x22
 7407 1c9c 33       		.uleb128 0x33
 7408 1c9d 01       		.uleb128 0x1
 7409 1c9e 51       		.byte	0x51
 7410 1c9f 01       		.uleb128 0x1
 7411 1ca0 30       		.byte	0x30
 7412 1ca1 33       		.uleb128 0x33
 7413 1ca2 01       		.uleb128 0x1
 7414 1ca3 52       		.byte	0x52
 7415 1ca4 07       		.uleb128 0x7
 7416 1ca5 7B       		.byte	0x7b
 7417 1ca6 00       		.sleb128 0
 7418 1ca7 7A       		.byte	0x7a
 7419 1ca8 00       		.sleb128 0
 7420 1ca9 1C       		.byte	0x1c
 7421 1caa 32       		.byte	0x32
 7422 1cab 24       		.byte	0x24
 7423 1cac 00       		.byte	0
 7424 1cad 32       		.uleb128 0x32
 7425 1cae C8000000 		.4byte	.LVL276
 7426 1cb2 012F0000 		.4byte	0x2f01
 7427 1cb6 E21C0000 		.4byte	0x1ce2
 7428 1cba 33       		.uleb128 0x33
 7429 1cbb 01       		.uleb128 0x1
 7430 1cbc 50       		.byte	0x50
 7431 1cbd 02       		.uleb128 0x2
 7432 1cbe 76       		.byte	0x76
 7433 1cbf 00       		.sleb128 0
 7434 1cc0 33       		.uleb128 0x33
 7435 1cc1 01       		.uleb128 0x1
 7436 1cc2 51       		.byte	0x51
 7437 1cc3 02       		.uleb128 0x2
 7438 1cc4 79       		.byte	0x79
 7439 1cc5 00       		.sleb128 0
 7440 1cc6 33       		.uleb128 0x33
 7441 1cc7 01       		.uleb128 0x1
 7442 1cc8 52       		.byte	0x52
 7443 1cc9 02       		.uleb128 0x2
 7444 1cca 77       		.byte	0x77
 7445 1ccb 00       		.sleb128 0
 7446 1ccc 33       		.uleb128 0x33
 7447 1ccd 01       		.uleb128 0x1
 7448 1cce 53       		.byte	0x53
 7449 1ccf 02       		.uleb128 0x2
ARM GAS  C:\Users\rdn\AppData\Local\Temp\ccCxUcqe.s 			page 157


 7450 1cd0 75       		.byte	0x75
 7451 1cd1 00       		.sleb128 0
 7452 1cd2 33       		.uleb128 0x33
 7453 1cd3 02       		.uleb128 0x2
 7454 1cd4 7D       		.byte	0x7d
 7455 1cd5 00       		.sleb128 0
 7456 1cd6 03       		.uleb128 0x3
 7457 1cd7 91       		.byte	0x91
 7458 1cd8 4C       		.sleb128 -52
 7459 1cd9 06       		.byte	0x6
 7460 1cda 33       		.uleb128 0x33
 7461 1cdb 02       		.uleb128 0x2
 7462 1cdc 7D       		.byte	0x7d
 7463 1cdd 04       		.sleb128 4
 7464 1cde 02       		.uleb128 0x2
 7465 1cdf 75       		.byte	0x75
 7466 1ce0 00       		.sleb128 0
 7467 1ce1 00       		.byte	0
 7468 1ce2 34       		.uleb128 0x34
 7469 1ce3 F8000000 		.4byte	.LVL277
 7470 1ce7 172F0000 		.4byte	0x2f17
 7471 1ceb 33       		.uleb128 0x33
 7472 1cec 01       		.uleb128 0x1
 7473 1ced 50       		.byte	0x50
 7474 1cee 02       		.uleb128 0x2
 7475 1cef 76       		.byte	0x76
 7476 1cf0 00       		.sleb128 0
 7477 1cf1 33       		.uleb128 0x33
 7478 1cf2 01       		.uleb128 0x1
 7479 1cf3 51       		.byte	0x51
 7480 1cf4 02       		.uleb128 0x2
 7481 1cf5 79       		.byte	0x79
 7482 1cf6 00       		.sleb128 0
 7483 1cf7 33       		.uleb128 0x33
 7484 1cf8 01       		.uleb128 0x1
 7485 1cf9 52       		.byte	0x52
 7486 1cfa 03       		.uleb128 0x3
 7487 1cfb 91       		.byte	0x91
 7488 1cfc 54       		.sleb128 -44
 7489 1cfd 06       		.byte	0x6
 7490 1cfe 33       		.uleb128 0x33
 7491 1cff 02       		.uleb128 0x2
 7492 1d00 7D       		.byte	0x7d
 7493 1d01 04       		.sleb128 4
 7494 1d02 03       		.uleb128 0x3
 7495 1d03 91       		.byte	0x91
 7496 1d04 50       		.sleb128 -48
 7497 1d05 06       		.byte	0x6
 7498 1d06 33       		.uleb128 0x33
 7499 1d07 02       		.uleb128 0x2
 7500 1d08 7D       		.byte	0x7d
 7501 1d09 08       		.sleb128 8
 7502 1d0a 02       		.uleb128 0x2
 7503 1d0b 75       		.byte	0x75
 7504 1d0c 00       		.sleb128 0
 7505 1d0d 00       		.byte	0
 7506 1d0e 00       		.byte	0
ARM GAS  C:\Users\rdn\AppData\Local\Temp\ccCxUcqe.s 			page 158


 7507 1d0f 29       		.uleb128 0x29
 7508 1d10 E1080000 		.4byte	.LASF170
 7509 1d14 01       		.byte	0x1
 7510 1d15 1D02     		.2byte	0x21d
 7511 1d17 00000000 		.4byte	.LFB46
 7512 1d1b 54000000 		.4byte	.LFE46-.LFB46
 7513 1d1f 01       		.uleb128 0x1
 7514 1d20 9C       		.byte	0x9c
 7515 1d21 291E0000 		.4byte	0x1e29
 7516 1d25 2A       		.uleb128 0x2a
 7517 1d26 05040000 		.4byte	.LASF155
 7518 1d2a 01       		.byte	0x1
 7519 1d2b 1E02     		.2byte	0x21e
 7520 1d2d 88040000 		.4byte	0x488
 7521 1d31 F7100000 		.4byte	.LLST148
 7522 1d35 2A       		.uleb128 0x2a
 7523 1d36 D4040000 		.4byte	.LASF148
 7524 1d3a 01       		.byte	0x1
 7525 1d3b 1E02     		.2byte	0x21e
 7526 1d3d 95040000 		.4byte	0x495
 7527 1d41 18110000 		.4byte	.LLST149
 7528 1d45 2A       		.uleb128 0x2a
 7529 1d46 CA090000 		.4byte	.LASF149
 7530 1d4a 01       		.byte	0x1
 7531 1d4b 1E02     		.2byte	0x21e
 7532 1d4d 25000000 		.4byte	0x25
 7533 1d51 44110000 		.4byte	.LLST150
 7534 1d55 2D       		.uleb128 0x2d
 7535 1d56 70636D00 		.ascii	"pcm\000"
 7536 1d5a 01       		.byte	0x1
 7537 1d5b 2002     		.2byte	0x220
 7538 1d5d F20A0000 		.4byte	0xaf2
 7539 1d61 70110000 		.4byte	.LLST151
 7540 1d65 2D       		.uleb128 0x2d
 7541 1d66 647400   		.ascii	"dt\000"
 7542 1d69 01       		.byte	0x1
 7543 1d6a 2202     		.2byte	0x222
 7544 1d6c F6000000 		.4byte	0xf6
 7545 1d70 8E110000 		.4byte	.LLST152
 7546 1d74 2D       		.uleb128 0x2d
 7547 1d75 737200   		.ascii	"sr\000"
 7548 1d78 01       		.byte	0x1
 7549 1d79 2302     		.2byte	0x223
 7550 1d7b 25010000 		.4byte	0x125
 7551 1d7f A1110000 		.4byte	.LLST153
 7552 1d83 2D       		.uleb128 0x2d
 7553 1d84 787300   		.ascii	"xs\000"
 7554 1d87 01       		.byte	0x1
 7555 1d88 2502     		.2byte	0x225
 7556 1d8a F20A0000 		.4byte	0xaf2
 7557 1d8e B4110000 		.4byte	.LLST154
 7558 1d92 2D       		.uleb128 0x2d
 7559 1d93 6E7300   		.ascii	"ns\000"
 7560 1d96 01       		.byte	0x1
 7561 1d97 2602     		.2byte	0x226
 7562 1d99 25000000 		.4byte	0x25
 7563 1d9d C7110000 		.4byte	.LLST155
ARM GAS  C:\Users\rdn\AppData\Local\Temp\ccCxUcqe.s 			page 159


 7564 1da1 2F       		.uleb128 0x2f
 7565 1da2 C9070000 		.4byte	0x7c9
 7566 1da6 16000000 		.4byte	.LBB186
 7567 1daa 0A000000 		.4byte	.LBE186-.LBB186
 7568 1dae 01       		.byte	0x1
 7569 1daf 2602     		.2byte	0x226
 7570 1db1 C81D0000 		.4byte	0x1dc8
 7571 1db5 24       		.uleb128 0x24
 7572 1db6 E3070000 		.4byte	0x7e3
 7573 1dba DA110000 		.4byte	.LLST156
 7574 1dbe 24       		.uleb128 0x24
 7575 1dbf D9070000 		.4byte	0x7d9
 7576 1dc3 ED110000 		.4byte	.LLST157
 7577 1dc7 00       		.byte	0
 7578 1dc8 25       		.uleb128 0x25
 7579 1dc9 22000000 		.4byte	.LBB188
 7580 1dcd 1C000000 		.4byte	.LBE188-.LBB188
 7581 1dd1 2E       		.uleb128 0x2e
 7582 1dd2 7300     		.ascii	"s\000"
 7583 1dd4 01       		.byte	0x1
 7584 1dd5 2902     		.2byte	0x229
 7585 1dd7 2C000000 		.4byte	0x2c
 7586 1ddb 2F       		.uleb128 0x2f
 7587 1ddc 09080000 		.4byte	0x809
 7588 1de0 22000000 		.4byte	.LBB189
 7589 1de4 0C000000 		.4byte	.LBE189-.LBB189
 7590 1de8 01       		.byte	0x1
 7591 1de9 2902     		.2byte	0x229
 7592 1deb 151E0000 		.4byte	0x1e15
 7593 1def 24       		.uleb128 0x24
 7594 1df0 23080000 		.4byte	0x823
 7595 1df4 00120000 		.4byte	.LLST158
 7596 1df8 24       		.uleb128 0x24
 7597 1df9 19080000 		.4byte	0x819
 7598 1dfd 15120000 		.4byte	.LLST159
 7599 1e01 25       		.uleb128 0x25
 7600 1e02 22000000 		.4byte	.LBB190
 7601 1e06 0C000000 		.4byte	.LBE190-.LBB190
 7602 1e0a 28       		.uleb128 0x28
 7603 1e0b 49080000 		.4byte	0x849
 7604 1e0f 29120000 		.4byte	.LLST160
 7605 1e13 00       		.byte	0
 7606 1e14 00       		.byte	0
 7607 1e15 39       		.uleb128 0x39
 7608 1e16 34000000 		.4byte	.LVL289
 7609 1e1a 222F0000 		.4byte	0x2f22
 7610 1e1e 39       		.uleb128 0x39
 7611 1e1f 3C000000 		.4byte	.LVL290
 7612 1e23 2E2F0000 		.4byte	0x2f2e
 7613 1e27 00       		.byte	0
 7614 1e28 00       		.byte	0
 7615 1e29 3A       		.uleb128 0x3a
 7616 1e2a 62030000 		.4byte	.LASF173
 7617 1e2e 01       		.byte	0x1
 7618 1e2f 59       		.byte	0x59
 7619 1e30 25000000 		.4byte	0x25
 7620 1e34 00000000 		.4byte	.LFB22
ARM GAS  C:\Users\rdn\AppData\Local\Temp\ccCxUcqe.s 			page 160


 7621 1e38 3C000000 		.4byte	.LFE22-.LFB22
 7622 1e3c 01       		.uleb128 0x1
 7623 1e3d 9C       		.byte	0x9c
 7624 1e3e E31E0000 		.4byte	0x1ee3
 7625 1e42 20       		.uleb128 0x20
 7626 1e43 27060000 		.4byte	.LASF144
 7627 1e47 01       		.byte	0x1
 7628 1e48 59       		.byte	0x59
 7629 1e49 27020000 		.4byte	0x227
 7630 1e4d 3C120000 		.4byte	.LLST161
 7631 1e51 20       		.uleb128 0x20
 7632 1e52 86040000 		.4byte	.LASF171
 7633 1e56 01       		.byte	0x1
 7634 1e57 59       		.byte	0x59
 7635 1e58 25000000 		.4byte	0x25
 7636 1e5c 5D120000 		.4byte	.LLST162
 7637 1e60 20       		.uleb128 0x20
 7638 1e61 F8010000 		.4byte	.LASF172
 7639 1e65 01       		.byte	0x1
 7640 1e66 59       		.byte	0x59
 7641 1e67 25000000 		.4byte	0x25
 7642 1e6b 89120000 		.4byte	.LLST163
 7643 1e6f 22       		.uleb128 0x22
 7644 1e70 647400   		.ascii	"dt\000"
 7645 1e73 01       		.byte	0x1
 7646 1e74 5B       		.byte	0x5b
 7647 1e75 F6000000 		.4byte	0xf6
 7648 1e79 B5120000 		.4byte	.LLST164
 7649 1e7d 22       		.uleb128 0x22
 7650 1e7e 737200   		.ascii	"sr\000"
 7651 1e81 01       		.byte	0x1
 7652 1e82 5C       		.byte	0x5c
 7653 1e83 25010000 		.4byte	0x125
 7654 1e87 C8120000 		.4byte	.LLST165
 7655 1e8b 23       		.uleb128 0x23
 7656 1e8c C9070000 		.4byte	0x7c9
 7657 1e90 20000000 		.4byte	.LBB191
 7658 1e94 0A000000 		.4byte	.LBE191-.LBB191
 7659 1e98 01       		.byte	0x1
 7660 1e99 61       		.byte	0x61
 7661 1e9a B11E0000 		.4byte	0x1eb1
 7662 1e9e 24       		.uleb128 0x24
 7663 1e9f E3070000 		.4byte	0x7e3
 7664 1ea3 F1120000 		.4byte	.LLST166
 7665 1ea7 24       		.uleb128 0x24
 7666 1ea8 D9070000 		.4byte	0x7d9
 7667 1eac 04130000 		.4byte	.LLST167
 7668 1eb0 00       		.byte	0
 7669 1eb1 32       		.uleb128 0x32
 7670 1eb2 0E000000 		.4byte	.LVL298
 7671 1eb6 A3090000 		.4byte	0x9a3
 7672 1eba CC1E0000 		.4byte	0x1ecc
 7673 1ebe 33       		.uleb128 0x33
 7674 1ebf 01       		.uleb128 0x1
 7675 1ec0 50       		.byte	0x50
 7676 1ec1 03       		.uleb128 0x3
 7677 1ec2 F3       		.byte	0xf3
ARM GAS  C:\Users\rdn\AppData\Local\Temp\ccCxUcqe.s 			page 161


 7678 1ec3 01       		.uleb128 0x1
 7679 1ec4 51       		.byte	0x51
 7680 1ec5 33       		.uleb128 0x33
 7681 1ec6 01       		.uleb128 0x1
 7682 1ec7 51       		.byte	0x51
 7683 1ec8 02       		.uleb128 0x2
 7684 1ec9 74       		.byte	0x74
 7685 1eca 00       		.sleb128 0
 7686 1ecb 00       		.byte	0
 7687 1ecc 34       		.uleb128 0x34
 7688 1ecd 18000000 		.4byte	.LVL300
 7689 1ed1 D8090000 		.4byte	0x9d8
 7690 1ed5 33       		.uleb128 0x33
 7691 1ed6 01       		.uleb128 0x1
 7692 1ed7 50       		.byte	0x50
 7693 1ed8 02       		.uleb128 0x2
 7694 1ed9 76       		.byte	0x76
 7695 1eda 00       		.sleb128 0
 7696 1edb 33       		.uleb128 0x33
 7697 1edc 01       		.uleb128 0x1
 7698 1edd 51       		.byte	0x51
 7699 1ede 02       		.uleb128 0x2
 7700 1edf 74       		.byte	0x74
 7701 1ee0 00       		.sleb128 0
 7702 1ee1 00       		.byte	0
 7703 1ee2 00       		.byte	0
 7704 1ee3 3A       		.uleb128 0x3a
 7705 1ee4 5B060000 		.4byte	.LASF174
 7706 1ee8 01       		.byte	0x1
 7707 1ee9 64       		.byte	0x64
 7708 1eea 25000000 		.4byte	0x25
 7709 1eee 00000000 		.4byte	.LFB23
 7710 1ef2 0E000000 		.4byte	.LFE23-.LFB23
 7711 1ef6 01       		.uleb128 0x1
 7712 1ef7 9C       		.byte	0x9c
 7713 1ef8 381F0000 		.4byte	0x1f38
 7714 1efc 20       		.uleb128 0x20
 7715 1efd 86040000 		.4byte	.LASF171
 7716 1f01 01       		.byte	0x1
 7717 1f02 64       		.byte	0x64
 7718 1f03 25000000 		.4byte	0x25
 7719 1f07 17130000 		.4byte	.LLST168
 7720 1f0b 20       		.uleb128 0x20
 7721 1f0c F8010000 		.4byte	.LASF172
 7722 1f10 01       		.byte	0x1
 7723 1f11 64       		.byte	0x64
 7724 1f12 25000000 		.4byte	0x25
 7725 1f16 43130000 		.4byte	.LLST169
 7726 1f1a 34       		.uleb128 0x34
 7727 1f1b 0C000000 		.4byte	.LVL312
 7728 1f1f 291E0000 		.4byte	0x1e29
 7729 1f23 33       		.uleb128 0x33
 7730 1f24 01       		.uleb128 0x1
 7731 1f25 50       		.byte	0x50
 7732 1f26 01       		.uleb128 0x1
 7733 1f27 30       		.byte	0x30
 7734 1f28 33       		.uleb128 0x33
ARM GAS  C:\Users\rdn\AppData\Local\Temp\ccCxUcqe.s 			page 162


 7735 1f29 01       		.uleb128 0x1
 7736 1f2a 51       		.byte	0x51
 7737 1f2b 03       		.uleb128 0x3
 7738 1f2c F3       		.byte	0xf3
 7739 1f2d 01       		.uleb128 0x1
 7740 1f2e 50       		.byte	0x50
 7741 1f2f 33       		.uleb128 0x33
 7742 1f30 01       		.uleb128 0x1
 7743 1f31 52       		.byte	0x52
 7744 1f32 03       		.uleb128 0x3
 7745 1f33 F3       		.byte	0xf3
 7746 1f34 01       		.uleb128 0x1
 7747 1f35 51       		.byte	0x51
 7748 1f36 00       		.byte	0
 7749 1f37 00       		.byte	0
 7750 1f38 3A       		.uleb128 0x3a
 7751 1f39 9B060000 		.4byte	.LASF175
 7752 1f3d 01       		.byte	0x1
 7753 1f3e 6C       		.byte	0x6c
 7754 1f3f 25000000 		.4byte	0x25
 7755 1f43 00000000 		.4byte	.LFB24
 7756 1f47 30010000 		.4byte	.LFE24-.LFB24
 7757 1f4b 01       		.uleb128 0x1
 7758 1f4c 9C       		.byte	0x9c
 7759 1f4d B2200000 		.4byte	0x20b2
 7760 1f51 20       		.uleb128 0x20
 7761 1f52 27060000 		.4byte	.LASF144
 7762 1f56 01       		.byte	0x1
 7763 1f57 6D       		.byte	0x6d
 7764 1f58 27020000 		.4byte	0x227
 7765 1f5c 6F130000 		.4byte	.LLST170
 7766 1f60 20       		.uleb128 0x20
 7767 1f61 86040000 		.4byte	.LASF171
 7768 1f65 01       		.byte	0x1
 7769 1f66 6D       		.byte	0x6d
 7770 1f67 25000000 		.4byte	0x25
 7771 1f6b 90130000 		.4byte	.LLST171
 7772 1f6f 20       		.uleb128 0x20
 7773 1f70 F8010000 		.4byte	.LASF172
 7774 1f74 01       		.byte	0x1
 7775 1f75 6D       		.byte	0x6d
 7776 1f76 25000000 		.4byte	0x25
 7777 1f7a BC130000 		.4byte	.LLST172
 7778 1f7e 20       		.uleb128 0x20
 7779 1f7f BB080000 		.4byte	.LASF176
 7780 1f83 01       		.byte	0x1
 7781 1f84 6D       		.byte	0x6d
 7782 1f85 25000000 		.4byte	0x25
 7783 1f89 E8130000 		.4byte	.LLST173
 7784 1f8d 20       		.uleb128 0x20
 7785 1f8e BD020000 		.4byte	.LASF177
 7786 1f92 01       		.byte	0x1
 7787 1f93 6D       		.byte	0x6d
 7788 1f94 25000000 		.4byte	0x25
 7789 1f98 14140000 		.4byte	.LLST174
 7790 1f9c 17       		.uleb128 0x17
 7791 1f9d 647400   		.ascii	"dt\000"
ARM GAS  C:\Users\rdn\AppData\Local\Temp\ccCxUcqe.s 			page 163


 7792 1fa0 01       		.byte	0x1
 7793 1fa1 6F       		.byte	0x6f
 7794 1fa2 F6000000 		.4byte	0xf6
 7795 1fa6 22       		.uleb128 0x22
 7796 1fa7 737200   		.ascii	"sr\000"
 7797 1faa 01       		.byte	0x1
 7798 1fab 70       		.byte	0x70
 7799 1fac 25010000 		.4byte	0x125
 7800 1fb0 3F140000 		.4byte	.LLST175
 7801 1fb4 23       		.uleb128 0x23
 7802 1fb5 34090000 		.4byte	0x934
 7803 1fb9 50000000 		.4byte	.LBB193
 7804 1fbd 14000000 		.4byte	.LBE193-.LBB193
 7805 1fc1 01       		.byte	0x1
 7806 1fc2 78       		.byte	0x78
 7807 1fc3 D61F0000 		.4byte	0x1fd6
 7808 1fc7 24       		.uleb128 0x24
 7809 1fc8 4E090000 		.4byte	0x94e
 7810 1fcc 7E140000 		.4byte	.LLST176
 7811 1fd0 3B       		.uleb128 0x3b
 7812 1fd1 44090000 		.4byte	0x944
 7813 1fd5 00       		.byte	0
 7814 1fd6 23       		.uleb128 0x23
 7815 1fd7 34090000 		.4byte	0x934
 7816 1fdb 6C000000 		.4byte	.LBB195
 7817 1fdf 14000000 		.4byte	.LBE195-.LBB195
 7818 1fe3 01       		.byte	0x1
 7819 1fe4 78       		.byte	0x78
 7820 1fe5 F81F0000 		.4byte	0x1ff8
 7821 1fe9 24       		.uleb128 0x24
 7822 1fea 4E090000 		.4byte	0x94e
 7823 1fee 91140000 		.4byte	.LLST177
 7824 1ff2 3B       		.uleb128 0x3b
 7825 1ff3 44090000 		.4byte	0x944
 7826 1ff7 00       		.byte	0
 7827 1ff8 23       		.uleb128 0x23
 7828 1ff9 59090000 		.4byte	0x959
 7829 1ffd 88000000 		.4byte	.LBB197
 7830 2001 18000000 		.4byte	.LBE197-.LBB197
 7831 2005 01       		.byte	0x1
 7832 2006 78       		.byte	0x78
 7833 2007 1A200000 		.4byte	0x201a
 7834 200b 24       		.uleb128 0x24
 7835 200c 73090000 		.4byte	0x973
 7836 2010 A4140000 		.4byte	.LLST178
 7837 2014 3B       		.uleb128 0x3b
 7838 2015 69090000 		.4byte	0x969
 7839 2019 00       		.byte	0
 7840 201a 23       		.uleb128 0x23
 7841 201b 34090000 		.4byte	0x934
 7842 201f A8000000 		.4byte	.LBB199
 7843 2023 14000000 		.4byte	.LBE199-.LBB199
 7844 2027 01       		.byte	0x1
 7845 2028 78       		.byte	0x78
 7846 2029 3C200000 		.4byte	0x203c
 7847 202d 24       		.uleb128 0x24
 7848 202e 4E090000 		.4byte	0x94e
ARM GAS  C:\Users\rdn\AppData\Local\Temp\ccCxUcqe.s 			page 164


 7849 2032 B7140000 		.4byte	.LLST179
 7850 2036 3B       		.uleb128 0x3b
 7851 2037 44090000 		.4byte	0x944
 7852 203b 00       		.byte	0
 7853 203c 23       		.uleb128 0x23
 7854 203d 34090000 		.4byte	0x934
 7855 2041 C4000000 		.4byte	.LBB201
 7856 2045 14000000 		.4byte	.LBE201-.LBB201
 7857 2049 01       		.byte	0x1
 7858 204a 78       		.byte	0x78
 7859 204b 5E200000 		.4byte	0x205e
 7860 204f 24       		.uleb128 0x24
 7861 2050 4E090000 		.4byte	0x94e
 7862 2054 CA140000 		.4byte	.LLST180
 7863 2058 3B       		.uleb128 0x3b
 7864 2059 44090000 		.4byte	0x944
 7865 205d 00       		.byte	0
 7866 205e 23       		.uleb128 0x23
 7867 205f 59090000 		.4byte	0x959
 7868 2063 DE000000 		.4byte	.LBB203
 7869 2067 18000000 		.4byte	.LBE203-.LBB203
 7870 206b 01       		.byte	0x1
 7871 206c 78       		.byte	0x78
 7872 206d 80200000 		.4byte	0x2080
 7873 2071 24       		.uleb128 0x24
 7874 2072 73090000 		.4byte	0x973
 7875 2076 E8140000 		.4byte	.LLST181
 7876 207a 3B       		.uleb128 0x3b
 7877 207b 69090000 		.4byte	0x969
 7878 207f 00       		.byte	0
 7879 2080 32       		.uleb128 0x32
 7880 2081 14000000 		.4byte	.LVL316
 7881 2085 A3090000 		.4byte	0x9a3
 7882 2089 9B200000 		.4byte	0x209b
 7883 208d 33       		.uleb128 0x33
 7884 208e 01       		.uleb128 0x1
 7885 208f 50       		.byte	0x50
 7886 2090 03       		.uleb128 0x3
 7887 2091 F3       		.byte	0xf3
 7888 2092 01       		.uleb128 0x1
 7889 2093 51       		.byte	0x51
 7890 2094 33       		.uleb128 0x33
 7891 2095 01       		.uleb128 0x1
 7892 2096 51       		.byte	0x51
 7893 2097 02       		.uleb128 0x2
 7894 2098 77       		.byte	0x77
 7895 2099 00       		.sleb128 0
 7896 209a 00       		.byte	0
 7897 209b 34       		.uleb128 0x34
 7898 209c 1E000000 		.4byte	.LVL318
 7899 20a0 D8090000 		.4byte	0x9d8
 7900 20a4 33       		.uleb128 0x33
 7901 20a5 01       		.uleb128 0x1
 7902 20a6 50       		.byte	0x50
 7903 20a7 02       		.uleb128 0x2
 7904 20a8 78       		.byte	0x78
 7905 20a9 00       		.sleb128 0
ARM GAS  C:\Users\rdn\AppData\Local\Temp\ccCxUcqe.s 			page 165


 7906 20aa 33       		.uleb128 0x33
 7907 20ab 01       		.uleb128 0x1
 7908 20ac 51       		.byte	0x51
 7909 20ad 02       		.uleb128 0x2
 7910 20ae 77       		.byte	0x77
 7911 20af 00       		.sleb128 0
 7912 20b0 00       		.byte	0
 7913 20b1 00       		.byte	0
 7914 20b2 3A       		.uleb128 0x3a
 7915 20b3 8C090000 		.4byte	.LASF178
 7916 20b7 01       		.byte	0x1
 7917 20b8 7D       		.byte	0x7d
 7918 20b9 25000000 		.4byte	0x25
 7919 20bd 00000000 		.4byte	.LFB25
 7920 20c1 1A000000 		.4byte	.LFE25-.LFB25
 7921 20c5 01       		.uleb128 0x1
 7922 20c6 9C       		.byte	0x9c
 7923 20c7 25210000 		.4byte	0x2125
 7924 20cb 20       		.uleb128 0x20
 7925 20cc 86040000 		.4byte	.LASF171
 7926 20d0 01       		.byte	0x1
 7927 20d1 7D       		.byte	0x7d
 7928 20d2 25000000 		.4byte	0x25
 7929 20d6 06150000 		.4byte	.LLST182
 7930 20da 20       		.uleb128 0x20
 7931 20db BB080000 		.4byte	.LASF176
 7932 20df 01       		.byte	0x1
 7933 20e0 7D       		.byte	0x7d
 7934 20e1 25000000 		.4byte	0x25
 7935 20e5 32150000 		.4byte	.LLST183
 7936 20e9 20       		.uleb128 0x20
 7937 20ea BD020000 		.4byte	.LASF177
 7938 20ee 01       		.byte	0x1
 7939 20ef 7D       		.byte	0x7d
 7940 20f0 25000000 		.4byte	0x25
 7941 20f4 5E150000 		.4byte	.LLST184
 7942 20f8 34       		.uleb128 0x34
 7943 20f9 14000000 		.4byte	.LVL344
 7944 20fd 381F0000 		.4byte	0x1f38
 7945 2101 33       		.uleb128 0x33
 7946 2102 01       		.uleb128 0x1
 7947 2103 50       		.byte	0x50
 7948 2104 01       		.uleb128 0x1
 7949 2105 30       		.byte	0x30
 7950 2106 33       		.uleb128 0x33
 7951 2107 01       		.uleb128 0x1
 7952 2108 51       		.byte	0x51
 7953 2109 03       		.uleb128 0x3
 7954 210a F3       		.byte	0xf3
 7955 210b 01       		.uleb128 0x1
 7956 210c 50       		.byte	0x50
 7957 210d 33       		.uleb128 0x33
 7958 210e 01       		.uleb128 0x1
 7959 210f 52       		.byte	0x52
 7960 2110 03       		.uleb128 0x3
 7961 2111 0A       		.byte	0xa
 7962 2112 401F     		.2byte	0x1f40
ARM GAS  C:\Users\rdn\AppData\Local\Temp\ccCxUcqe.s 			page 166


 7963 2114 33       		.uleb128 0x33
 7964 2115 01       		.uleb128 0x1
 7965 2116 53       		.byte	0x53
 7966 2117 03       		.uleb128 0x3
 7967 2118 F3       		.byte	0xf3
 7968 2119 01       		.uleb128 0x1
 7969 211a 51       		.byte	0x51
 7970 211b 33       		.uleb128 0x33
 7971 211c 02       		.uleb128 0x2
 7972 211d 7D       		.byte	0x7d
 7973 211e 00       		.sleb128 0
 7974 211f 03       		.uleb128 0x3
 7975 2120 F3       		.byte	0xf3
 7976 2121 01       		.uleb128 0x1
 7977 2122 52       		.byte	0x52
 7978 2123 00       		.byte	0
 7979 2124 00       		.byte	0
 7980 2125 3A       		.uleb128 0x3a
 7981 2126 77070000 		.4byte	.LASF179
 7982 212a 01       		.byte	0x1
 7983 212b 82       		.byte	0x82
 7984 212c 25000000 		.4byte	0x25
 7985 2130 00000000 		.4byte	.LFB26
 7986 2134 12000000 		.4byte	.LFE26-.LFB26
 7987 2138 01       		.uleb128 0x1
 7988 2139 9C       		.byte	0x9c
 7989 213a A0210000 		.4byte	0x21a0
 7990 213e 20       		.uleb128 0x20
 7991 213f 27060000 		.4byte	.LASF144
 7992 2143 01       		.byte	0x1
 7993 2144 83       		.byte	0x83
 7994 2145 27020000 		.4byte	0x227
 7995 2149 8B150000 		.4byte	.LLST185
 7996 214d 20       		.uleb128 0x20
 7997 214e 86040000 		.4byte	.LASF171
 7998 2152 01       		.byte	0x1
 7999 2153 83       		.byte	0x83
 8000 2154 25000000 		.4byte	0x25
 8001 2158 AC150000 		.4byte	.LLST186
 8002 215c 20       		.uleb128 0x20
 8003 215d F8010000 		.4byte	.LASF172
 8004 2161 01       		.byte	0x1
 8005 2162 83       		.byte	0x83
 8006 2163 25000000 		.4byte	0x25
 8007 2167 CD150000 		.4byte	.LLST187
 8008 216b 20       		.uleb128 0x20
 8009 216c BD020000 		.4byte	.LASF177
 8010 2170 01       		.byte	0x1
 8011 2171 83       		.byte	0x83
 8012 2172 25000000 		.4byte	0x25
 8013 2176 EE150000 		.4byte	.LLST188
 8014 217a 34       		.uleb128 0x34
 8015 217b 0C000000 		.4byte	.LVL347
 8016 217f 381F0000 		.4byte	0x1f38
 8017 2183 33       		.uleb128 0x33
 8018 2184 01       		.uleb128 0x1
 8019 2185 51       		.byte	0x51
ARM GAS  C:\Users\rdn\AppData\Local\Temp\ccCxUcqe.s 			page 167


 8020 2186 03       		.uleb128 0x3
 8021 2187 F3       		.byte	0xf3
 8022 2188 01       		.uleb128 0x1
 8023 2189 51       		.byte	0x51
 8024 218a 33       		.uleb128 0x33
 8025 218b 01       		.uleb128 0x1
 8026 218c 52       		.byte	0x52
 8027 218d 03       		.uleb128 0x3
 8028 218e F3       		.byte	0xf3
 8029 218f 01       		.uleb128 0x1
 8030 2190 52       		.byte	0x52
 8031 2191 33       		.uleb128 0x33
 8032 2192 01       		.uleb128 0x1
 8033 2193 53       		.byte	0x53
 8034 2194 01       		.uleb128 0x1
 8035 2195 31       		.byte	0x31
 8036 2196 33       		.uleb128 0x33
 8037 2197 02       		.uleb128 0x2
 8038 2198 7D       		.byte	0x7d
 8039 2199 00       		.sleb128 0
 8040 219a 03       		.uleb128 0x3
 8041 219b F3       		.byte	0xf3
 8042 219c 01       		.uleb128 0x1
 8043 219d 53       		.byte	0x53
 8044 219e 00       		.byte	0
 8045 219f 00       		.byte	0
 8046 21a0 3A       		.uleb128 0x3a
 8047 21a1 49050000 		.4byte	.LASF180
 8048 21a5 01       		.byte	0x1
 8049 21a6 88       		.byte	0x88
 8050 21a7 25000000 		.4byte	0x25
 8051 21ab 00000000 		.4byte	.LFB27
 8052 21af 12000000 		.4byte	.LFE27-.LFB27
 8053 21b3 01       		.uleb128 0x1
 8054 21b4 9C       		.byte	0x9c
 8055 21b5 FC210000 		.4byte	0x21fc
 8056 21b9 20       		.uleb128 0x20
 8057 21ba 86040000 		.4byte	.LASF171
 8058 21be 01       		.byte	0x1
 8059 21bf 88       		.byte	0x88
 8060 21c0 25000000 		.4byte	0x25
 8061 21c4 1B160000 		.4byte	.LLST189
 8062 21c8 20       		.uleb128 0x20
 8063 21c9 BD020000 		.4byte	.LASF177
 8064 21cd 01       		.byte	0x1
 8065 21ce 88       		.byte	0x88
 8066 21cf 25000000 		.4byte	0x25
 8067 21d3 47160000 		.4byte	.LLST190
 8068 21d7 34       		.uleb128 0x34
 8069 21d8 10000000 		.4byte	.LVL351
 8070 21dc 25210000 		.4byte	0x2125
 8071 21e0 33       		.uleb128 0x33
 8072 21e1 01       		.uleb128 0x1
 8073 21e2 50       		.byte	0x50
 8074 21e3 01       		.uleb128 0x1
 8075 21e4 30       		.byte	0x30
 8076 21e5 33       		.uleb128 0x33
ARM GAS  C:\Users\rdn\AppData\Local\Temp\ccCxUcqe.s 			page 168


 8077 21e6 01       		.uleb128 0x1
 8078 21e7 51       		.byte	0x51
 8079 21e8 03       		.uleb128 0x3
 8080 21e9 F3       		.byte	0xf3
 8081 21ea 01       		.uleb128 0x1
 8082 21eb 50       		.byte	0x50
 8083 21ec 33       		.uleb128 0x33
 8084 21ed 01       		.uleb128 0x1
 8085 21ee 52       		.byte	0x52
 8086 21ef 03       		.uleb128 0x3
 8087 21f0 0A       		.byte	0xa
 8088 21f1 401F     		.2byte	0x1f40
 8089 21f3 33       		.uleb128 0x33
 8090 21f4 01       		.uleb128 0x1
 8091 21f5 53       		.byte	0x53
 8092 21f6 03       		.uleb128 0x3
 8093 21f7 F3       		.byte	0xf3
 8094 21f8 01       		.uleb128 0x1
 8095 21f9 51       		.byte	0x51
 8096 21fa 00       		.byte	0
 8097 21fb 00       		.byte	0
 8098 21fc 3C       		.uleb128 0x3c
 8099 21fd D5060000 		.4byte	.LASF181
 8100 2201 01       		.byte	0x1
 8101 2202 90       		.byte	0x90
 8102 2203 25000000 		.4byte	0x25
 8103 2207 00000000 		.4byte	.LFB28
 8104 220b 80000000 		.4byte	.LFE28-.LFB28
 8105 220f 01       		.uleb128 0x1
 8106 2210 9C       		.byte	0x9c
 8107 2211 9D220000 		.4byte	0x229d
 8108 2215 20       		.uleb128 0x20
 8109 2216 27060000 		.4byte	.LASF144
 8110 221a 01       		.byte	0x1
 8111 221b 91       		.byte	0x91
 8112 221c 27020000 		.4byte	0x227
 8113 2220 73160000 		.4byte	.LLST191
 8114 2224 20       		.uleb128 0x20
 8115 2225 86040000 		.4byte	.LASF171
 8116 2229 01       		.byte	0x1
 8117 222a 91       		.byte	0x91
 8118 222b 25000000 		.4byte	0x25
 8119 222f 94160000 		.4byte	.LLST192
 8120 2233 20       		.uleb128 0x20
 8121 2234 F8010000 		.4byte	.LASF172
 8122 2238 01       		.byte	0x1
 8123 2239 91       		.byte	0x91
 8124 223a 25000000 		.4byte	0x25
 8125 223e C0160000 		.4byte	.LLST193
 8126 2242 20       		.uleb128 0x20
 8127 2243 33030000 		.4byte	.LASF160
 8128 2247 01       		.byte	0x1
 8129 2248 91       		.byte	0x91
 8130 2249 25000000 		.4byte	0x25
 8131 224d DE160000 		.4byte	.LLST194
 8132 2251 21       		.uleb128 0x21
 8133 2252 647400   		.ascii	"dt\000"
ARM GAS  C:\Users\rdn\AppData\Local\Temp\ccCxUcqe.s 			page 169


 8134 2255 01       		.byte	0x1
 8135 2256 93       		.byte	0x93
 8136 2257 F6000000 		.4byte	0xf6
 8137 225b 01       		.uleb128 0x1
 8138 225c 56       		.byte	0x56
 8139 225d 22       		.uleb128 0x22
 8140 225e 737200   		.ascii	"sr\000"
 8141 2261 01       		.byte	0x1
 8142 2262 94       		.byte	0x94
 8143 2263 25010000 		.4byte	0x125
 8144 2267 15170000 		.4byte	.LLST195
 8145 226b 32       		.uleb128 0x32
 8146 226c 10000000 		.4byte	.LVL355
 8147 2270 A3090000 		.4byte	0x9a3
 8148 2274 86220000 		.4byte	0x2286
 8149 2278 33       		.uleb128 0x33
 8150 2279 01       		.uleb128 0x1
 8151 227a 50       		.byte	0x50
 8152 227b 03       		.uleb128 0x3
 8153 227c F3       		.byte	0xf3
 8154 227d 01       		.uleb128 0x1
 8155 227e 51       		.byte	0x51
 8156 227f 33       		.uleb128 0x33
 8157 2280 01       		.uleb128 0x1
 8158 2281 51       		.byte	0x51
 8159 2282 02       		.uleb128 0x2
 8160 2283 75       		.byte	0x75
 8161 2284 00       		.sleb128 0
 8162 2285 00       		.byte	0
 8163 2286 34       		.uleb128 0x34
 8164 2287 1A000000 		.4byte	.LVL357
 8165 228b D8090000 		.4byte	0x9d8
 8166 228f 33       		.uleb128 0x33
 8167 2290 01       		.uleb128 0x1
 8168 2291 50       		.byte	0x50
 8169 2292 02       		.uleb128 0x2
 8170 2293 77       		.byte	0x77
 8171 2294 00       		.sleb128 0
 8172 2295 33       		.uleb128 0x33
 8173 2296 01       		.uleb128 0x1
 8174 2297 51       		.byte	0x51
 8175 2298 02       		.uleb128 0x2
 8176 2299 75       		.byte	0x75
 8177 229a 00       		.sleb128 0
 8178 229b 00       		.byte	0
 8179 229c 00       		.byte	0
 8180 229d 3A       		.uleb128 0x3a
 8181 229e A0030000 		.4byte	.LASF182
 8182 22a2 01       		.byte	0x1
 8183 22a3 9C       		.byte	0x9c
 8184 22a4 25000000 		.4byte	0x25
 8185 22a8 00000000 		.4byte	.LFB29
 8186 22ac 12000000 		.4byte	.LFE29-.LFB29
 8187 22b0 01       		.uleb128 0x1
 8188 22b1 9C       		.byte	0x9c
 8189 22b2 F9220000 		.4byte	0x22f9
 8190 22b6 20       		.uleb128 0x20
ARM GAS  C:\Users\rdn\AppData\Local\Temp\ccCxUcqe.s 			page 170


 8191 22b7 86040000 		.4byte	.LASF171
 8192 22bb 01       		.byte	0x1
 8193 22bc 9C       		.byte	0x9c
 8194 22bd 25000000 		.4byte	0x25
 8195 22c1 49170000 		.4byte	.LLST196
 8196 22c5 20       		.uleb128 0x20
 8197 22c6 33030000 		.4byte	.LASF160
 8198 22ca 01       		.byte	0x1
 8199 22cb 9C       		.byte	0x9c
 8200 22cc 25000000 		.4byte	0x25
 8201 22d0 75170000 		.4byte	.LLST197
 8202 22d4 34       		.uleb128 0x34
 8203 22d5 10000000 		.4byte	.LVL370
 8204 22d9 FC210000 		.4byte	0x21fc
 8205 22dd 33       		.uleb128 0x33
 8206 22de 01       		.uleb128 0x1
 8207 22df 50       		.byte	0x50
 8208 22e0 01       		.uleb128 0x1
 8209 22e1 30       		.byte	0x30
 8210 22e2 33       		.uleb128 0x33
 8211 22e3 01       		.uleb128 0x1
 8212 22e4 51       		.byte	0x51
 8213 22e5 03       		.uleb128 0x3
 8214 22e6 F3       		.byte	0xf3
 8215 22e7 01       		.uleb128 0x1
 8216 22e8 50       		.byte	0x50
 8217 22e9 33       		.uleb128 0x33
 8218 22ea 01       		.uleb128 0x1
 8219 22eb 52       		.byte	0x52
 8220 22ec 03       		.uleb128 0x3
 8221 22ed 0A       		.byte	0xa
 8222 22ee 401F     		.2byte	0x1f40
 8223 22f0 33       		.uleb128 0x33
 8224 22f1 01       		.uleb128 0x1
 8225 22f2 53       		.byte	0x53
 8226 22f3 03       		.uleb128 0x3
 8227 22f4 F3       		.byte	0xf3
 8228 22f5 01       		.uleb128 0x1
 8229 22f6 51       		.byte	0x51
 8230 22f7 00       		.byte	0
 8231 22f8 00       		.byte	0
 8232 22f9 3A       		.uleb128 0x3a
 8233 22fa B5090000 		.4byte	.LASF183
 8234 22fe 01       		.byte	0x1
 8235 22ff A4       		.byte	0xa4
 8236 2300 25000000 		.4byte	0x25
 8237 2304 00000000 		.4byte	.LFB30
 8238 2308 54000000 		.4byte	.LFE30-.LFB30
 8239 230c 01       		.uleb128 0x1
 8240 230d 9C       		.byte	0x9c
 8241 230e D5230000 		.4byte	0x23d5
 8242 2312 20       		.uleb128 0x20
 8243 2313 27060000 		.4byte	.LASF144
 8244 2317 01       		.byte	0x1
 8245 2318 A4       		.byte	0xa4
 8246 2319 27020000 		.4byte	0x227
 8247 231d A1170000 		.4byte	.LLST198
ARM GAS  C:\Users\rdn\AppData\Local\Temp\ccCxUcqe.s 			page 171


 8248 2321 20       		.uleb128 0x20
 8249 2322 86040000 		.4byte	.LASF171
 8250 2326 01       		.byte	0x1
 8251 2327 A4       		.byte	0xa4
 8252 2328 25000000 		.4byte	0x25
 8253 232c C2170000 		.4byte	.LLST199
 8254 2330 20       		.uleb128 0x20
 8255 2331 F8010000 		.4byte	.LASF172
 8256 2335 01       		.byte	0x1
 8257 2336 A4       		.byte	0xa4
 8258 2337 25000000 		.4byte	0x25
 8259 233b EE170000 		.4byte	.LLST200
 8260 233f 22       		.uleb128 0x22
 8261 2340 647400   		.ascii	"dt\000"
 8262 2343 01       		.byte	0x1
 8263 2344 A6       		.byte	0xa6
 8264 2345 F6000000 		.4byte	0xf6
 8265 2349 1A180000 		.4byte	.LLST201
 8266 234d 22       		.uleb128 0x22
 8267 234e 737200   		.ascii	"sr\000"
 8268 2351 01       		.byte	0x1
 8269 2352 A7       		.byte	0xa7
 8270 2353 25010000 		.4byte	0x125
 8271 2357 2D180000 		.4byte	.LLST202
 8272 235b 23       		.uleb128 0x23
 8273 235c 7E090000 		.4byte	0x97e
 8274 2360 20000000 		.4byte	.LBB205
 8275 2364 16000000 		.4byte	.LBE205-.LBB205
 8276 2368 01       		.byte	0x1
 8277 2369 AC       		.byte	0xac
 8278 236a A3230000 		.4byte	0x23a3
 8279 236e 24       		.uleb128 0x24
 8280 236f 98090000 		.4byte	0x998
 8281 2373 56180000 		.4byte	.LLST203
 8282 2377 24       		.uleb128 0x24
 8283 2378 8E090000 		.4byte	0x98e
 8284 237c 69180000 		.4byte	.LLST204
 8285 2380 27       		.uleb128 0x27
 8286 2381 C9070000 		.4byte	0x7c9
 8287 2385 20000000 		.4byte	.LBB207
 8288 2389 0A000000 		.4byte	.LBE207-.LBB207
 8289 238d 02       		.byte	0x2
 8290 238e 37       		.byte	0x37
 8291 238f 24       		.uleb128 0x24
 8292 2390 E3070000 		.4byte	0x7e3
 8293 2394 7C180000 		.4byte	.LLST205
 8294 2398 24       		.uleb128 0x24
 8295 2399 D9070000 		.4byte	0x7d9
 8296 239d 8F180000 		.4byte	.LLST206
 8297 23a1 00       		.byte	0
 8298 23a2 00       		.byte	0
 8299 23a3 32       		.uleb128 0x32
 8300 23a4 0E000000 		.4byte	.LVL374
 8301 23a8 A3090000 		.4byte	0x9a3
 8302 23ac BE230000 		.4byte	0x23be
 8303 23b0 33       		.uleb128 0x33
 8304 23b1 01       		.uleb128 0x1
ARM GAS  C:\Users\rdn\AppData\Local\Temp\ccCxUcqe.s 			page 172


 8305 23b2 50       		.byte	0x50
 8306 23b3 03       		.uleb128 0x3
 8307 23b4 F3       		.byte	0xf3
 8308 23b5 01       		.uleb128 0x1
 8309 23b6 51       		.byte	0x51
 8310 23b7 33       		.uleb128 0x33
 8311 23b8 01       		.uleb128 0x1
 8312 23b9 51       		.byte	0x51
 8313 23ba 02       		.uleb128 0x2
 8314 23bb 75       		.byte	0x75
 8315 23bc 00       		.sleb128 0
 8316 23bd 00       		.byte	0
 8317 23be 34       		.uleb128 0x34
 8318 23bf 18000000 		.4byte	.LVL376
 8319 23c3 D8090000 		.4byte	0x9d8
 8320 23c7 33       		.uleb128 0x33
 8321 23c8 01       		.uleb128 0x1
 8322 23c9 50       		.byte	0x50
 8323 23ca 02       		.uleb128 0x2
 8324 23cb 76       		.byte	0x76
 8325 23cc 00       		.sleb128 0
 8326 23cd 33       		.uleb128 0x33
 8327 23ce 01       		.uleb128 0x1
 8328 23cf 51       		.byte	0x51
 8329 23d0 02       		.uleb128 0x2
 8330 23d1 75       		.byte	0x75
 8331 23d2 00       		.sleb128 0
 8332 23d3 00       		.byte	0
 8333 23d4 00       		.byte	0
 8334 23d5 3A       		.uleb128 0x3a
 8335 23d6 140B0000 		.4byte	.LASF184
 8336 23da 01       		.byte	0x1
 8337 23db AF       		.byte	0xaf
 8338 23dc 25000000 		.4byte	0x25
 8339 23e0 00000000 		.4byte	.LFB31
 8340 23e4 0E000000 		.4byte	.LFE31-.LFB31
 8341 23e8 01       		.uleb128 0x1
 8342 23e9 9C       		.byte	0x9c
 8343 23ea 2A240000 		.4byte	0x242a
 8344 23ee 20       		.uleb128 0x20
 8345 23ef 86040000 		.4byte	.LASF171
 8346 23f3 01       		.byte	0x1
 8347 23f4 AF       		.byte	0xaf
 8348 23f5 25000000 		.4byte	0x25
 8349 23f9 A2180000 		.4byte	.LLST207
 8350 23fd 20       		.uleb128 0x20
 8351 23fe F8010000 		.4byte	.LASF172
 8352 2402 01       		.byte	0x1
 8353 2403 AF       		.byte	0xaf
 8354 2404 25000000 		.4byte	0x25
 8355 2408 CE180000 		.4byte	.LLST208
 8356 240c 34       		.uleb128 0x34
 8357 240d 0C000000 		.4byte	.LVL389
 8358 2411 F9220000 		.4byte	0x22f9
 8359 2415 33       		.uleb128 0x33
 8360 2416 01       		.uleb128 0x1
 8361 2417 50       		.byte	0x50
ARM GAS  C:\Users\rdn\AppData\Local\Temp\ccCxUcqe.s 			page 173


 8362 2418 01       		.uleb128 0x1
 8363 2419 30       		.byte	0x30
 8364 241a 33       		.uleb128 0x33
 8365 241b 01       		.uleb128 0x1
 8366 241c 51       		.byte	0x51
 8367 241d 03       		.uleb128 0x3
 8368 241e F3       		.byte	0xf3
 8369 241f 01       		.uleb128 0x1
 8370 2420 50       		.byte	0x50
 8371 2421 33       		.uleb128 0x33
 8372 2422 01       		.uleb128 0x1
 8373 2423 52       		.byte	0x52
 8374 2424 03       		.uleb128 0x3
 8375 2425 F3       		.byte	0xf3
 8376 2426 01       		.uleb128 0x1
 8377 2427 51       		.byte	0x51
 8378 2428 00       		.byte	0
 8379 2429 00       		.byte	0
 8380 242a 3D       		.uleb128 0x3d
 8381 242b 3B090000 		.4byte	.LASF185
 8382 242f 01       		.byte	0x1
 8383 2430 7301     		.2byte	0x173
 8384 2432 AD000000 		.4byte	0xad
 8385 2436 00000000 		.4byte	.LFB38
 8386 243a 8C000000 		.4byte	.LFE38-.LFB38
 8387 243e 01       		.uleb128 0x1
 8388 243f 9C       		.byte	0x9c
 8389 2440 A5240000 		.4byte	0x24a5
 8390 2444 2A       		.uleb128 0x2a
 8391 2445 27060000 		.4byte	.LASF144
 8392 2449 01       		.byte	0x1
 8393 244a 7301     		.2byte	0x173
 8394 244c 27020000 		.4byte	0x227
 8395 2450 FA180000 		.4byte	.LLST209
 8396 2454 2A       		.uleb128 0x2a
 8397 2455 86040000 		.4byte	.LASF171
 8398 2459 01       		.byte	0x1
 8399 245a 7301     		.2byte	0x173
 8400 245c 25000000 		.4byte	0x25
 8401 2460 1B190000 		.4byte	.LLST210
 8402 2464 2A       		.uleb128 0x2a
 8403 2465 F8010000 		.4byte	.LASF172
 8404 2469 01       		.byte	0x1
 8405 246a 7301     		.2byte	0x173
 8406 246c 25000000 		.4byte	0x25
 8407 2470 47190000 		.4byte	.LLST211
 8408 2474 32       		.uleb128 0x32
 8409 2475 10000000 		.4byte	.LVL393
 8410 2479 A3090000 		.4byte	0x9a3
 8411 247d 8E240000 		.4byte	0x248e
 8412 2481 33       		.uleb128 0x33
 8413 2482 01       		.uleb128 0x1
 8414 2483 50       		.byte	0x50
 8415 2484 02       		.uleb128 0x2
 8416 2485 75       		.byte	0x75
 8417 2486 00       		.sleb128 0
 8418 2487 33       		.uleb128 0x33
ARM GAS  C:\Users\rdn\AppData\Local\Temp\ccCxUcqe.s 			page 174


 8419 2488 01       		.uleb128 0x1
 8420 2489 51       		.byte	0x51
 8421 248a 02       		.uleb128 0x2
 8422 248b 76       		.byte	0x76
 8423 248c 00       		.sleb128 0
 8424 248d 00       		.byte	0
 8425 248e 34       		.uleb128 0x34
 8426 248f 1C000000 		.4byte	.LVL394
 8427 2493 D8090000 		.4byte	0x9d8
 8428 2497 33       		.uleb128 0x33
 8429 2498 01       		.uleb128 0x1
 8430 2499 50       		.byte	0x50
 8431 249a 02       		.uleb128 0x2
 8432 249b 74       		.byte	0x74
 8433 249c 00       		.sleb128 0
 8434 249d 33       		.uleb128 0x33
 8435 249e 01       		.uleb128 0x1
 8436 249f 51       		.byte	0x51
 8437 24a0 02       		.uleb128 0x2
 8438 24a1 76       		.byte	0x76
 8439 24a2 00       		.sleb128 0
 8440 24a3 00       		.byte	0
 8441 24a4 00       		.byte	0
 8442 24a5 3D       		.uleb128 0x3d
 8443 24a6 14030000 		.4byte	.LASF186
 8444 24aa 01       		.byte	0x1
 8445 24ab 7D01     		.2byte	0x17d
 8446 24ad AD000000 		.4byte	0xad
 8447 24b1 00000000 		.4byte	.LFB39
 8448 24b5 0E000000 		.4byte	.LFE39-.LFB39
 8449 24b9 01       		.uleb128 0x1
 8450 24ba 9C       		.byte	0x9c
 8451 24bb FD240000 		.4byte	0x24fd
 8452 24bf 2A       		.uleb128 0x2a
 8453 24c0 86040000 		.4byte	.LASF171
 8454 24c4 01       		.byte	0x1
 8455 24c5 7D01     		.2byte	0x17d
 8456 24c7 25000000 		.4byte	0x25
 8457 24cb 8C190000 		.4byte	.LLST212
 8458 24cf 2A       		.uleb128 0x2a
 8459 24d0 F8010000 		.4byte	.LASF172
 8460 24d4 01       		.byte	0x1
 8461 24d5 7D01     		.2byte	0x17d
 8462 24d7 25000000 		.4byte	0x25
 8463 24db B8190000 		.4byte	.LLST213
 8464 24df 34       		.uleb128 0x34
 8465 24e0 0C000000 		.4byte	.LVL402
 8466 24e4 2A240000 		.4byte	0x242a
 8467 24e8 33       		.uleb128 0x33
 8468 24e9 01       		.uleb128 0x1
 8469 24ea 50       		.byte	0x50
 8470 24eb 01       		.uleb128 0x1
 8471 24ec 30       		.byte	0x30
 8472 24ed 33       		.uleb128 0x33
 8473 24ee 01       		.uleb128 0x1
 8474 24ef 51       		.byte	0x51
 8475 24f0 03       		.uleb128 0x3
ARM GAS  C:\Users\rdn\AppData\Local\Temp\ccCxUcqe.s 			page 175


 8476 24f1 F3       		.byte	0xf3
 8477 24f2 01       		.uleb128 0x1
 8478 24f3 50       		.byte	0x50
 8479 24f4 33       		.uleb128 0x33
 8480 24f5 01       		.uleb128 0x1
 8481 24f6 52       		.byte	0x52
 8482 24f7 03       		.uleb128 0x3
 8483 24f8 F3       		.byte	0xf3
 8484 24f9 01       		.uleb128 0x1
 8485 24fa 51       		.byte	0x51
 8486 24fb 00       		.byte	0
 8487 24fc 00       		.byte	0
 8488 24fd 3D       		.uleb128 0x3d
 8489 24fe 53080000 		.4byte	.LASF187
 8490 2502 01       		.byte	0x1
 8491 2503 8501     		.2byte	0x185
 8492 2505 82040000 		.4byte	0x482
 8493 2509 00000000 		.4byte	.LFB40
 8494 250d 08010000 		.4byte	.LFE40-.LFB40
 8495 2511 01       		.uleb128 0x1
 8496 2512 9C       		.byte	0x9c
 8497 2513 7E260000 		.4byte	0x267e
 8498 2517 2A       		.uleb128 0x2a
 8499 2518 27060000 		.4byte	.LASF144
 8500 251c 01       		.byte	0x1
 8501 251d 8601     		.2byte	0x186
 8502 251f 27020000 		.4byte	0x227
 8503 2523 E4190000 		.4byte	.LLST214
 8504 2527 2A       		.uleb128 0x2a
 8505 2528 86040000 		.4byte	.LASF171
 8506 252c 01       		.byte	0x1
 8507 252d 8601     		.2byte	0x186
 8508 252f 25000000 		.4byte	0x25
 8509 2533 051A0000 		.4byte	.LLST215
 8510 2537 2A       		.uleb128 0x2a
 8511 2538 F8010000 		.4byte	.LASF172
 8512 253c 01       		.byte	0x1
 8513 253d 8601     		.2byte	0x186
 8514 253f 25000000 		.4byte	0x25
 8515 2543 311A0000 		.4byte	.LLST216
 8516 2547 2A       		.uleb128 0x2a
 8517 2548 B3020000 		.4byte	.LASF188
 8518 254c 01       		.byte	0x1
 8519 254d 8601     		.2byte	0x186
 8520 254f 25000000 		.4byte	0x25
 8521 2553 5D1A0000 		.4byte	.LLST217
 8522 2557 3E       		.uleb128 0x3e
 8523 2558 6D656D00 		.ascii	"mem\000"
 8524 255c 01       		.byte	0x1
 8525 255d 8601     		.2byte	0x186
 8526 255f 95040000 		.4byte	0x495
 8527 2563 861A0000 		.4byte	.LLST218
 8528 2567 2D       		.uleb128 0x2d
 8529 2568 647400   		.ascii	"dt\000"
 8530 256b 01       		.byte	0x1
 8531 256c 8B01     		.2byte	0x18b
 8532 256e F6000000 		.4byte	0xf6
ARM GAS  C:\Users\rdn\AppData\Local\Temp\ccCxUcqe.s 			page 176


 8533 2572 A61A0000 		.4byte	.LLST219
 8534 2576 2D       		.uleb128 0x2d
 8535 2577 737200   		.ascii	"sr\000"
 8536 257a 01       		.byte	0x1
 8537 257b 8C01     		.2byte	0x18c
 8538 257d 25010000 		.4byte	0x125
 8539 2581 B91A0000 		.4byte	.LLST220
 8540 2585 31       		.uleb128 0x31
 8541 2586 CF020000 		.4byte	.LASF55
 8542 258a 01       		.byte	0x1
 8543 258b 8D01     		.2byte	0x18d
 8544 258d 25010000 		.4byte	0x125
 8545 2591 D71A0000 		.4byte	.LLST221
 8546 2595 31       		.uleb128 0x31
 8547 2596 FD030000 		.4byte	.LASF147
 8548 259a 01       		.byte	0x1
 8549 259b 9201     		.2byte	0x192
 8550 259d 82040000 		.4byte	0x482
 8551 25a1 161B0000 		.4byte	.LLST222
 8552 25a5 2E       		.uleb128 0x2e
 8553 25a6 6E7300   		.ascii	"ns\000"
 8554 25a9 01       		.byte	0x1
 8555 25aa 9301     		.2byte	0x193
 8556 25ac 25000000 		.4byte	0x25
 8557 25b0 2E       		.uleb128 0x2e
 8558 25b1 6E7400   		.ascii	"nt\000"
 8559 25b4 01       		.byte	0x1
 8560 25b5 9401     		.2byte	0x194
 8561 25b7 25000000 		.4byte	0x25
 8562 25bb 2F       		.uleb128 0x2f
 8563 25bc C9070000 		.4byte	0x7c9
 8564 25c0 46000000 		.4byte	.LBB209
 8565 25c4 0A000000 		.4byte	.LBE209-.LBB209
 8566 25c8 01       		.byte	0x1
 8567 25c9 9301     		.2byte	0x193
 8568 25cb E2250000 		.4byte	0x25e2
 8569 25cf 24       		.uleb128 0x24
 8570 25d0 E3070000 		.4byte	0x7e3
 8571 25d4 291B0000 		.4byte	.LLST223
 8572 25d8 24       		.uleb128 0x24
 8573 25d9 D9070000 		.4byte	0x7d9
 8574 25dd 3C1B0000 		.4byte	.LLST224
 8575 25e1 00       		.byte	0
 8576 25e2 2F       		.uleb128 0x2f
 8577 25e3 78080000 		.4byte	0x878
 8578 25e7 50000000 		.4byte	.LBB211
 8579 25eb 02000000 		.4byte	.LBE211-.LBB211
 8580 25ef 01       		.byte	0x1
 8581 25f0 9401     		.2byte	0x194
 8582 25f2 00260000 		.4byte	0x2600
 8583 25f6 24       		.uleb128 0x24
 8584 25f7 88080000 		.4byte	0x888
 8585 25fb 4F1B0000 		.4byte	.LLST225
 8586 25ff 00       		.byte	0
 8587 2600 32       		.uleb128 0x32
 8588 2601 1C000000 		.4byte	.LVL407
 8589 2605 A3090000 		.4byte	0x9a3
ARM GAS  C:\Users\rdn\AppData\Local\Temp\ccCxUcqe.s 			page 177


 8590 2609 1A260000 		.4byte	0x261a
 8591 260d 33       		.uleb128 0x33
 8592 260e 01       		.uleb128 0x1
 8593 260f 50       		.byte	0x50
 8594 2610 02       		.uleb128 0x2
 8595 2611 7A       		.byte	0x7a
 8596 2612 00       		.sleb128 0
 8597 2613 33       		.uleb128 0x33
 8598 2614 01       		.uleb128 0x1
 8599 2615 51       		.byte	0x51
 8600 2616 02       		.uleb128 0x2
 8601 2617 75       		.byte	0x75
 8602 2618 00       		.sleb128 0
 8603 2619 00       		.byte	0
 8604 261a 32       		.uleb128 0x32
 8605 261b 26000000 		.4byte	.LVL409
 8606 261f D8090000 		.4byte	0x9d8
 8607 2623 34260000 		.4byte	0x2634
 8608 2627 33       		.uleb128 0x33
 8609 2628 01       		.uleb128 0x1
 8610 2629 50       		.byte	0x50
 8611 262a 02       		.uleb128 0x2
 8612 262b 76       		.byte	0x76
 8613 262c 00       		.sleb128 0
 8614 262d 33       		.uleb128 0x33
 8615 262e 01       		.uleb128 0x1
 8616 262f 51       		.byte	0x51
 8617 2630 02       		.uleb128 0x2
 8618 2631 75       		.byte	0x75
 8619 2632 00       		.sleb128 0
 8620 2633 00       		.byte	0
 8621 2634 32       		.uleb128 0x32
 8622 2635 30000000 		.4byte	.LVL411
 8623 2639 D8090000 		.4byte	0x9d8
 8624 263d 4E260000 		.4byte	0x264e
 8625 2641 33       		.uleb128 0x33
 8626 2642 01       		.uleb128 0x1
 8627 2643 50       		.byte	0x50
 8628 2644 02       		.uleb128 0x2
 8629 2645 77       		.byte	0x77
 8630 2646 00       		.sleb128 0
 8631 2647 33       		.uleb128 0x33
 8632 2648 01       		.uleb128 0x1
 8633 2649 51       		.byte	0x51
 8634 264a 02       		.uleb128 0x2
 8635 264b 75       		.byte	0x75
 8636 264c 00       		.sleb128 0
 8637 264d 00       		.byte	0
 8638 264e 32       		.uleb128 0x32
 8639 264f 6A000000 		.4byte	.LVL418
 8640 2653 CC2E0000 		.4byte	0x2ecc
 8641 2657 6E260000 		.4byte	0x266e
 8642 265b 33       		.uleb128 0x33
 8643 265c 01       		.uleb128 0x1
 8644 265d 50       		.byte	0x50
 8645 265e 02       		.uleb128 0x2
 8646 265f 74       		.byte	0x74
ARM GAS  C:\Users\rdn\AppData\Local\Temp\ccCxUcqe.s 			page 178


 8647 2660 00       		.sleb128 0
 8648 2661 33       		.uleb128 0x33
 8649 2662 01       		.uleb128 0x1
 8650 2663 51       		.byte	0x51
 8651 2664 01       		.uleb128 0x1
 8652 2665 30       		.byte	0x30
 8653 2666 33       		.uleb128 0x33
 8654 2667 01       		.uleb128 0x1
 8655 2668 52       		.byte	0x52
 8656 2669 03       		.uleb128 0x3
 8657 266a 0A       		.byte	0xa
 8658 266b B004     		.2byte	0x4b0
 8659 266d 00       		.byte	0
 8660 266e 34       		.uleb128 0x34
 8661 266f E8000000 		.4byte	.LVL420
 8662 2673 CC2E0000 		.4byte	0x2ecc
 8663 2677 33       		.uleb128 0x33
 8664 2678 01       		.uleb128 0x1
 8665 2679 51       		.byte	0x51
 8666 267a 01       		.uleb128 0x1
 8667 267b 30       		.byte	0x30
 8668 267c 00       		.byte	0
 8669 267d 00       		.byte	0
 8670 267e 3D       		.uleb128 0x3d
 8671 267f BF0A0000 		.4byte	.LASF189
 8672 2683 01       		.byte	0x1
 8673 2684 A501     		.2byte	0x1a5
 8674 2686 82040000 		.4byte	0x482
 8675 268a 00000000 		.4byte	.LFB41
 8676 268e 18000000 		.4byte	.LFE41-.LFB41
 8677 2692 01       		.uleb128 0x1
 8678 2693 9C       		.byte	0x9c
 8679 2694 05270000 		.4byte	0x2705
 8680 2698 2A       		.uleb128 0x2a
 8681 2699 86040000 		.4byte	.LASF171
 8682 269d 01       		.byte	0x1
 8683 269e A601     		.2byte	0x1a6
 8684 26a0 25000000 		.4byte	0x25
 8685 26a4 621B0000 		.4byte	.LLST226
 8686 26a8 2A       		.uleb128 0x2a
 8687 26a9 F8010000 		.4byte	.LASF172
 8688 26ad 01       		.byte	0x1
 8689 26ae A601     		.2byte	0x1a6
 8690 26b0 25000000 		.4byte	0x25
 8691 26b4 8E1B0000 		.4byte	.LLST227
 8692 26b8 2A       		.uleb128 0x2a
 8693 26b9 B3020000 		.4byte	.LASF188
 8694 26bd 01       		.byte	0x1
 8695 26be A601     		.2byte	0x1a6
 8696 26c0 25000000 		.4byte	0x25
 8697 26c4 BA1B0000 		.4byte	.LLST228
 8698 26c8 3E       		.uleb128 0x3e
 8699 26c9 6D656D00 		.ascii	"mem\000"
 8700 26cd 01       		.byte	0x1
 8701 26ce A601     		.2byte	0x1a6
 8702 26d0 95040000 		.4byte	0x495
 8703 26d4 E61B0000 		.4byte	.LLST229
ARM GAS  C:\Users\rdn\AppData\Local\Temp\ccCxUcqe.s 			page 179


 8704 26d8 34       		.uleb128 0x34
 8705 26d9 12000000 		.4byte	.LVL435
 8706 26dd FD240000 		.4byte	0x24fd
 8707 26e1 33       		.uleb128 0x33
 8708 26e2 01       		.uleb128 0x1
 8709 26e3 50       		.byte	0x50
 8710 26e4 01       		.uleb128 0x1
 8711 26e5 30       		.byte	0x30
 8712 26e6 33       		.uleb128 0x33
 8713 26e7 01       		.uleb128 0x1
 8714 26e8 51       		.byte	0x51
 8715 26e9 03       		.uleb128 0x3
 8716 26ea F3       		.byte	0xf3
 8717 26eb 01       		.uleb128 0x1
 8718 26ec 50       		.byte	0x50
 8719 26ed 33       		.uleb128 0x33
 8720 26ee 01       		.uleb128 0x1
 8721 26ef 52       		.byte	0x52
 8722 26f0 03       		.uleb128 0x3
 8723 26f1 F3       		.byte	0xf3
 8724 26f2 01       		.uleb128 0x1
 8725 26f3 51       		.byte	0x51
 8726 26f4 33       		.uleb128 0x33
 8727 26f5 01       		.uleb128 0x1
 8728 26f6 53       		.byte	0x53
 8729 26f7 03       		.uleb128 0x3
 8730 26f8 F3       		.byte	0xf3
 8731 26f9 01       		.uleb128 0x1
 8732 26fa 52       		.byte	0x52
 8733 26fb 33       		.uleb128 0x33
 8734 26fc 02       		.uleb128 0x2
 8735 26fd 7D       		.byte	0x7d
 8736 26fe 00       		.sleb128 0
 8737 26ff 03       		.uleb128 0x3
 8738 2700 F3       		.byte	0xf3
 8739 2701 01       		.uleb128 0x1
 8740 2702 53       		.byte	0x53
 8741 2703 00       		.byte	0
 8742 2704 00       		.byte	0
 8743 2705 3D       		.uleb128 0x3d
 8744 2706 70040000 		.4byte	.LASF190
 8745 270a 01       		.byte	0x1
 8746 270b AE01     		.2byte	0x1ae
 8747 270d 25000000 		.4byte	0x25
 8748 2711 00000000 		.4byte	.LFB42
 8749 2715 8C000000 		.4byte	.LFE42-.LFB42
 8750 2719 01       		.uleb128 0x1
 8751 271a 9C       		.byte	0x9c
 8752 271b 56280000 		.4byte	0x2856
 8753 271f 2A       		.uleb128 0x2a
 8754 2720 FD030000 		.4byte	.LASF147
 8755 2724 01       		.byte	0x1
 8756 2725 AE01     		.2byte	0x1ae
 8757 2727 82040000 		.4byte	0x482
 8758 272b 131C0000 		.4byte	.LLST230
 8759 272f 3E       		.uleb128 0x3e
 8760 2730 666D7400 		.ascii	"fmt\000"
ARM GAS  C:\Users\rdn\AppData\Local\Temp\ccCxUcqe.s 			page 180


 8761 2734 01       		.byte	0x1
 8762 2735 AF01     		.2byte	0x1af
 8763 2737 59040000 		.4byte	0x459
 8764 273b 631C0000 		.4byte	.LLST231
 8765 273f 3E       		.uleb128 0x3e
 8766 2740 70636D00 		.ascii	"pcm\000"
 8767 2744 01       		.byte	0x1
 8768 2745 AF01     		.2byte	0x1af
 8769 2747 DA0A0000 		.4byte	0xada
 8770 274b 9D1C0000 		.4byte	.LLST232
 8771 274f 2A       		.uleb128 0x2a
 8772 2750 CA090000 		.4byte	.LASF149
 8773 2754 01       		.byte	0x1
 8774 2755 AF01     		.2byte	0x1af
 8775 2757 25000000 		.4byte	0x25
 8776 275b ED1C0000 		.4byte	.LLST233
 8777 275f 2A       		.uleb128 0x2a
 8778 2760 33030000 		.4byte	.LASF160
 8779 2764 01       		.byte	0x1
 8780 2765 AF01     		.2byte	0x1af
 8781 2767 25000000 		.4byte	0x25
 8782 276b 271D0000 		.4byte	.LLST234
 8783 276f 3E       		.uleb128 0x3e
 8784 2770 6F757400 		.ascii	"out\000"
 8785 2774 01       		.byte	0x1
 8786 2775 AF01     		.2byte	0x1af
 8787 2777 95040000 		.4byte	0x495
 8788 277b 471D0000 		.4byte	.LLST235
 8789 277f 35       		.uleb128 0x35
 8790 2780 97020000 		.4byte	.LASF191
 8791 2784 01       		.byte	0x1
 8792 2785 B101     		.2byte	0x1b1
 8793 2787 86280000 		.4byte	0x2886
 8794 278b 05       		.uleb128 0x5
 8795 278c 03       		.byte	0x3
 8796 278d 00000000 		.4byte	load.5874
 8797 2791 35       		.uleb128 0x35
 8798 2792 DD000000 		.4byte	.LASF161
 8799 2796 01       		.byte	0x1
 8800 2797 C001     		.2byte	0x1c0
 8801 2799 75070000 		.4byte	0x775
 8802 279d 03       		.uleb128 0x3
 8803 279e 91       		.byte	0x91
 8804 279f E47E     		.sleb128 -156
 8805 27a1 2F       		.uleb128 0x2f
 8806 27a2 34090000 		.4byte	0x934
 8807 27a6 0E000000 		.4byte	.LBB213
 8808 27aa 16000000 		.4byte	.LBE213-.LBB213
 8809 27ae 01       		.byte	0x1
 8810 27af BA01     		.2byte	0x1ba
 8811 27b1 C8270000 		.4byte	0x27c8
 8812 27b5 24       		.uleb128 0x24
 8813 27b6 4E090000 		.4byte	0x94e
 8814 27ba 671D0000 		.4byte	.LLST236
 8815 27be 24       		.uleb128 0x24
 8816 27bf 44090000 		.4byte	0x944
 8817 27c3 7A1D0000 		.4byte	.LLST237
ARM GAS  C:\Users\rdn\AppData\Local\Temp\ccCxUcqe.s 			page 181


 8818 27c7 00       		.byte	0
 8819 27c8 2F       		.uleb128 0x2f
 8820 27c9 59090000 		.4byte	0x959
 8821 27cd 28000000 		.4byte	.LBB215
 8822 27d1 18000000 		.4byte	.LBE215-.LBB215
 8823 27d5 01       		.byte	0x1
 8824 27d6 BB01     		.2byte	0x1bb
 8825 27d8 EF270000 		.4byte	0x27ef
 8826 27dc 24       		.uleb128 0x24
 8827 27dd 73090000 		.4byte	0x973
 8828 27e1 8D1D0000 		.4byte	.LLST238
 8829 27e5 24       		.uleb128 0x24
 8830 27e6 69090000 		.4byte	0x969
 8831 27ea C41D0000 		.4byte	.LLST239
 8832 27ee 00       		.byte	0
 8833 27ef 3F       		.uleb128 0x3f
 8834 27f0 54000000 		.4byte	.LVL447
 8835 27f4 02       		.uleb128 0x2
 8836 27f5 76       		.byte	0x76
 8837 27f6 00       		.sleb128 0
 8838 27f7 10280000 		.4byte	0x2810
 8839 27fb 33       		.uleb128 0x33
 8840 27fc 01       		.uleb128 0x1
 8841 27fd 50       		.byte	0x50
 8842 27fe 02       		.uleb128 0x2
 8843 27ff 74       		.byte	0x74
 8844 2800 00       		.sleb128 0
 8845 2801 33       		.uleb128 0x33
 8846 2802 01       		.uleb128 0x1
 8847 2803 51       		.byte	0x51
 8848 2804 03       		.uleb128 0x3
 8849 2805 F3       		.byte	0xf3
 8850 2806 01       		.uleb128 0x1
 8851 2807 52       		.byte	0x52
 8852 2808 33       		.uleb128 0x33
 8853 2809 01       		.uleb128 0x1
 8854 280a 52       		.byte	0x52
 8855 280b 03       		.uleb128 0x3
 8856 280c F3       		.byte	0xf3
 8857 280d 01       		.uleb128 0x1
 8858 280e 53       		.byte	0x53
 8859 280f 00       		.byte	0
 8860 2810 32       		.uleb128 0x32
 8861 2811 5E000000 		.4byte	.LVL448
 8862 2815 23120000 		.4byte	0x1223
 8863 2819 31280000 		.4byte	0x2831
 8864 281d 33       		.uleb128 0x33
 8865 281e 01       		.uleb128 0x1
 8866 281f 50       		.byte	0x50
 8867 2820 02       		.uleb128 0x2
 8868 2821 74       		.byte	0x74
 8869 2822 00       		.sleb128 0
 8870 2823 33       		.uleb128 0x33
 8871 2824 01       		.uleb128 0x1
 8872 2825 51       		.byte	0x51
 8873 2826 02       		.uleb128 0x2
 8874 2827 75       		.byte	0x75
ARM GAS  C:\Users\rdn\AppData\Local\Temp\ccCxUcqe.s 			page 182


 8875 2828 00       		.sleb128 0
 8876 2829 33       		.uleb128 0x33
 8877 282a 01       		.uleb128 0x1
 8878 282b 52       		.byte	0x52
 8879 282c 03       		.uleb128 0x3
 8880 282d 91       		.byte	0x91
 8881 282e E47E     		.sleb128 -156
 8882 2830 00       		.byte	0
 8883 2831 34       		.uleb128 0x34
 8884 2832 6A000000 		.4byte	.LVL449
 8885 2836 67150000 		.4byte	0x1567
 8886 283a 33       		.uleb128 0x33
 8887 283b 01       		.uleb128 0x1
 8888 283c 50       		.byte	0x50
 8889 283d 02       		.uleb128 0x2
 8890 283e 74       		.byte	0x74
 8891 283f 00       		.sleb128 0
 8892 2840 33       		.uleb128 0x33
 8893 2841 01       		.uleb128 0x1
 8894 2842 51       		.byte	0x51
 8895 2843 03       		.uleb128 0x3
 8896 2844 91       		.byte	0x91
 8897 2845 E47E     		.sleb128 -156
 8898 2847 33       		.uleb128 0x33
 8899 2848 01       		.uleb128 0x1
 8900 2849 52       		.byte	0x52
 8901 284a 02       		.uleb128 0x2
 8902 284b 75       		.byte	0x75
 8903 284c 00       		.sleb128 0
 8904 284d 33       		.uleb128 0x33
 8905 284e 01       		.uleb128 0x1
 8906 284f 53       		.byte	0x53
 8907 2850 03       		.uleb128 0x3
 8908 2851 91       		.byte	0x91
 8909 2852 04       		.sleb128 4
 8910 2853 06       		.byte	0x6
 8911 2854 00       		.byte	0
 8912 2855 00       		.byte	0
 8913 2856 0D       		.uleb128 0xd
 8914 2857 81280000 		.4byte	0x2881
 8915 285b 66280000 		.4byte	0x2866
 8916 285f 0E       		.uleb128 0xe
 8917 2860 3E020000 		.4byte	0x23e
 8918 2864 03       		.byte	0x3
 8919 2865 00       		.byte	0
 8920 2866 10       		.uleb128 0x10
 8921 2867 04       		.byte	0x4
 8922 2868 6C280000 		.4byte	0x286c
 8923 286c 40       		.uleb128 0x40
 8924 286d 81280000 		.4byte	0x2881
 8925 2871 41       		.uleb128 0x41
 8926 2872 82040000 		.4byte	0x482
 8927 2876 41       		.uleb128 0x41
 8928 2877 DA0A0000 		.4byte	0xada
 8929 287b 41       		.uleb128 0x41
 8930 287c 25000000 		.4byte	0x25
 8931 2880 00       		.byte	0
ARM GAS  C:\Users\rdn\AppData\Local\Temp\ccCxUcqe.s 			page 183


 8932 2881 12       		.uleb128 0x12
 8933 2882 66280000 		.4byte	0x2866
 8934 2886 12       		.uleb128 0x12
 8935 2887 56280000 		.4byte	0x2856
 8936 288b 3D       		.uleb128 0x3d
 8937 288c 2D0B0000 		.4byte	.LASF192
 8938 2890 01       		.byte	0x1
 8939 2891 9F02     		.2byte	0x29f
 8940 2893 AD000000 		.4byte	0xad
 8941 2897 00000000 		.4byte	.LFB50
 8942 289b AC000000 		.4byte	.LFE50-.LFB50
 8943 289f 01       		.uleb128 0x1
 8944 28a0 9C       		.byte	0x9c
 8945 28a1 06290000 		.4byte	0x2906
 8946 28a5 2A       		.uleb128 0x2a
 8947 28a6 27060000 		.4byte	.LASF144
 8948 28aa 01       		.byte	0x1
 8949 28ab 9F02     		.2byte	0x29f
 8950 28ad 27020000 		.4byte	0x227
 8951 28b1 D71D0000 		.4byte	.LLST240
 8952 28b5 2A       		.uleb128 0x2a
 8953 28b6 86040000 		.4byte	.LASF171
 8954 28ba 01       		.byte	0x1
 8955 28bb 9F02     		.2byte	0x29f
 8956 28bd 25000000 		.4byte	0x25
 8957 28c1 F81D0000 		.4byte	.LLST241
 8958 28c5 2A       		.uleb128 0x2a
 8959 28c6 F8010000 		.4byte	.LASF172
 8960 28ca 01       		.byte	0x1
 8961 28cb 9F02     		.2byte	0x29f
 8962 28cd 25000000 		.4byte	0x25
 8963 28d1 3D1E0000 		.4byte	.LLST242
 8964 28d5 32       		.uleb128 0x32
 8965 28d6 10000000 		.4byte	.LVL458
 8966 28da A3090000 		.4byte	0x9a3
 8967 28de EF280000 		.4byte	0x28ef
 8968 28e2 33       		.uleb128 0x33
 8969 28e3 01       		.uleb128 0x1
 8970 28e4 50       		.byte	0x50
 8971 28e5 02       		.uleb128 0x2
 8972 28e6 75       		.byte	0x75
 8973 28e7 00       		.sleb128 0
 8974 28e8 33       		.uleb128 0x33
 8975 28e9 01       		.uleb128 0x1
 8976 28ea 51       		.byte	0x51
 8977 28eb 02       		.uleb128 0x2
 8978 28ec 76       		.byte	0x76
 8979 28ed 00       		.sleb128 0
 8980 28ee 00       		.byte	0
 8981 28ef 34       		.uleb128 0x34
 8982 28f0 1C000000 		.4byte	.LVL459
 8983 28f4 D8090000 		.4byte	0x9d8
 8984 28f8 33       		.uleb128 0x33
 8985 28f9 01       		.uleb128 0x1
 8986 28fa 50       		.byte	0x50
 8987 28fb 02       		.uleb128 0x2
 8988 28fc 74       		.byte	0x74
ARM GAS  C:\Users\rdn\AppData\Local\Temp\ccCxUcqe.s 			page 184


 8989 28fd 00       		.sleb128 0
 8990 28fe 33       		.uleb128 0x33
 8991 28ff 01       		.uleb128 0x1
 8992 2900 51       		.byte	0x51
 8993 2901 02       		.uleb128 0x2
 8994 2902 76       		.byte	0x76
 8995 2903 00       		.sleb128 0
 8996 2904 00       		.byte	0
 8997 2905 00       		.byte	0
 8998 2906 3D       		.uleb128 0x3d
 8999 2907 F7050000 		.4byte	.LASF193
 9000 290b 01       		.byte	0x1
 9001 290c A902     		.2byte	0x2a9
 9002 290e AD000000 		.4byte	0xad
 9003 2912 00000000 		.4byte	.LFB51
 9004 2916 0E000000 		.4byte	.LFE51-.LFB51
 9005 291a 01       		.uleb128 0x1
 9006 291b 9C       		.byte	0x9c
 9007 291c 5E290000 		.4byte	0x295e
 9008 2920 2A       		.uleb128 0x2a
 9009 2921 86040000 		.4byte	.LASF171
 9010 2925 01       		.byte	0x1
 9011 2926 A902     		.2byte	0x2a9
 9012 2928 25000000 		.4byte	0x25
 9013 292c 821E0000 		.4byte	.LLST243
 9014 2930 2A       		.uleb128 0x2a
 9015 2931 F8010000 		.4byte	.LASF172
 9016 2935 01       		.byte	0x1
 9017 2936 A902     		.2byte	0x2a9
 9018 2938 25000000 		.4byte	0x25
 9019 293c AE1E0000 		.4byte	.LLST244
 9020 2940 34       		.uleb128 0x34
 9021 2941 0C000000 		.4byte	.LVL468
 9022 2945 8B280000 		.4byte	0x288b
 9023 2949 33       		.uleb128 0x33
 9024 294a 01       		.uleb128 0x1
 9025 294b 50       		.byte	0x50
 9026 294c 01       		.uleb128 0x1
 9027 294d 30       		.byte	0x30
 9028 294e 33       		.uleb128 0x33
 9029 294f 01       		.uleb128 0x1
 9030 2950 51       		.byte	0x51
 9031 2951 03       		.uleb128 0x3
 9032 2952 F3       		.byte	0xf3
 9033 2953 01       		.uleb128 0x1
 9034 2954 50       		.byte	0x50
 9035 2955 33       		.uleb128 0x33
 9036 2956 01       		.uleb128 0x1
 9037 2957 52       		.byte	0x52
 9038 2958 03       		.uleb128 0x3
 9039 2959 F3       		.byte	0xf3
 9040 295a 01       		.uleb128 0x1
 9041 295b 51       		.byte	0x51
 9042 295c 00       		.byte	0
 9043 295d 00       		.byte	0
 9044 295e 3D       		.uleb128 0x3d
 9045 295f 78080000 		.4byte	.LASF194
ARM GAS  C:\Users\rdn\AppData\Local\Temp\ccCxUcqe.s 			page 185


 9046 2963 01       		.byte	0x1
 9047 2964 B102     		.2byte	0x2b1
 9048 2966 88040000 		.4byte	0x488
 9049 296a 00000000 		.4byte	.LFB52
 9050 296e 58010000 		.4byte	.LFE52-.LFB52
 9051 2972 01       		.uleb128 0x1
 9052 2973 9C       		.byte	0x9c
 9053 2974 392B0000 		.4byte	0x2b39
 9054 2978 2A       		.uleb128 0x2a
 9055 2979 27060000 		.4byte	.LASF144
 9056 297d 01       		.byte	0x1
 9057 297e B202     		.2byte	0x2b2
 9058 2980 27020000 		.4byte	0x227
 9059 2984 DA1E0000 		.4byte	.LLST245
 9060 2988 2A       		.uleb128 0x2a
 9061 2989 86040000 		.4byte	.LASF171
 9062 298d 01       		.byte	0x1
 9063 298e B202     		.2byte	0x2b2
 9064 2990 25000000 		.4byte	0x25
 9065 2994 FB1E0000 		.4byte	.LLST246
 9066 2998 2A       		.uleb128 0x2a
 9067 2999 F8010000 		.4byte	.LASF172
 9068 299d 01       		.byte	0x1
 9069 299e B202     		.2byte	0x2b2
 9070 29a0 25000000 		.4byte	0x25
 9071 29a4 271F0000 		.4byte	.LLST247
 9072 29a8 2A       		.uleb128 0x2a
 9073 29a9 B3020000 		.4byte	.LASF188
 9074 29ad 01       		.byte	0x1
 9075 29ae B202     		.2byte	0x2b2
 9076 29b0 25000000 		.4byte	0x25
 9077 29b4 531F0000 		.4byte	.LLST248
 9078 29b8 3E       		.uleb128 0x3e
 9079 29b9 6D656D00 		.ascii	"mem\000"
 9080 29bd 01       		.byte	0x1
 9081 29be B202     		.2byte	0x2b2
 9082 29c0 95040000 		.4byte	0x495
 9083 29c4 7C1F0000 		.4byte	.LLST249
 9084 29c8 2D       		.uleb128 0x2d
 9085 29c9 647400   		.ascii	"dt\000"
 9086 29cc 01       		.byte	0x1
 9087 29cd B702     		.2byte	0x2b7
 9088 29cf F6000000 		.4byte	0xf6
 9089 29d3 9C1F0000 		.4byte	.LLST250
 9090 29d7 2D       		.uleb128 0x2d
 9091 29d8 737200   		.ascii	"sr\000"
 9092 29db 01       		.byte	0x1
 9093 29dc B802     		.2byte	0x2b8
 9094 29de 25010000 		.4byte	0x125
 9095 29e2 AF1F0000 		.4byte	.LLST251
 9096 29e6 31       		.uleb128 0x31
 9097 29e7 CF020000 		.4byte	.LASF55
 9098 29eb 01       		.byte	0x1
 9099 29ec B902     		.2byte	0x2b9
 9100 29ee 25010000 		.4byte	0x125
 9101 29f2 F11F0000 		.4byte	.LLST252
 9102 29f6 31       		.uleb128 0x31
ARM GAS  C:\Users\rdn\AppData\Local\Temp\ccCxUcqe.s 			page 186


 9103 29f7 05040000 		.4byte	.LASF155
 9104 29fb 01       		.byte	0x1
 9105 29fc BE02     		.2byte	0x2be
 9106 29fe 88040000 		.4byte	0x488
 9107 2a02 30200000 		.4byte	.LLST253
 9108 2a06 2E       		.uleb128 0x2e
 9109 2a07 6E6800   		.ascii	"nh\000"
 9110 2a0a 01       		.byte	0x1
 9111 2a0b BF02     		.2byte	0x2bf
 9112 2a0d 25000000 		.4byte	0x25
 9113 2a11 2E       		.uleb128 0x2e
 9114 2a12 6E7300   		.ascii	"ns\000"
 9115 2a15 01       		.byte	0x1
 9116 2a16 C002     		.2byte	0x2c0
 9117 2a18 25000000 		.4byte	0x25
 9118 2a1c 2E       		.uleb128 0x2e
 9119 2a1d 6E6400   		.ascii	"nd\000"
 9120 2a20 01       		.byte	0x1
 9121 2a21 C102     		.2byte	0x2c1
 9122 2a23 25000000 		.4byte	0x25
 9123 2a27 2F       		.uleb128 0x2f
 9124 2a28 53080000 		.4byte	0x853
 9125 2a2c 46000000 		.4byte	.LBB217
 9126 2a30 20000000 		.4byte	.LBE217-.LBB217
 9127 2a34 01       		.byte	0x1
 9128 2a35 BF02     		.2byte	0x2bf
 9129 2a37 4E2A0000 		.4byte	0x2a4e
 9130 2a3b 24       		.uleb128 0x24
 9131 2a3c 6D080000 		.4byte	0x86d
 9132 2a40 43200000 		.4byte	.LLST254
 9133 2a44 24       		.uleb128 0x24
 9134 2a45 63080000 		.4byte	0x863
 9135 2a49 56200000 		.4byte	.LLST255
 9136 2a4d 00       		.byte	0
 9137 2a4e 2F       		.uleb128 0x2f
 9138 2a4f C9070000 		.4byte	0x7c9
 9139 2a53 66000000 		.4byte	.LBB219
 9140 2a57 0A000000 		.4byte	.LBE219-.LBB219
 9141 2a5b 01       		.byte	0x1
 9142 2a5c C002     		.2byte	0x2c0
 9143 2a5e 752A0000 		.4byte	0x2a75
 9144 2a62 24       		.uleb128 0x24
 9145 2a63 E3070000 		.4byte	0x7e3
 9146 2a67 69200000 		.4byte	.LLST256
 9147 2a6b 24       		.uleb128 0x24
 9148 2a6c D9070000 		.4byte	0x7d9
 9149 2a70 7C200000 		.4byte	.LLST257
 9150 2a74 00       		.byte	0
 9151 2a75 2F       		.uleb128 0x2f
 9152 2a76 7E090000 		.4byte	0x97e
 9153 2a7a 70000000 		.4byte	.LBB221
 9154 2a7e 0E000000 		.4byte	.LBE221-.LBB221
 9155 2a82 01       		.byte	0x1
 9156 2a83 C102     		.2byte	0x2c1
 9157 2a85 9C2A0000 		.4byte	0x2a9c
 9158 2a89 24       		.uleb128 0x24
 9159 2a8a 98090000 		.4byte	0x998
ARM GAS  C:\Users\rdn\AppData\Local\Temp\ccCxUcqe.s 			page 187


 9160 2a8e 8F200000 		.4byte	.LLST258
 9161 2a92 24       		.uleb128 0x24
 9162 2a93 8E090000 		.4byte	0x98e
 9163 2a97 A2200000 		.4byte	.LLST259
 9164 2a9b 00       		.byte	0
 9165 2a9c 32       		.uleb128 0x32
 9166 2a9d 1C000000 		.4byte	.LVL473
 9167 2aa1 A3090000 		.4byte	0x9a3
 9168 2aa5 B62A0000 		.4byte	0x2ab6
 9169 2aa9 33       		.uleb128 0x33
 9170 2aaa 01       		.uleb128 0x1
 9171 2aab 50       		.byte	0x50
 9172 2aac 02       		.uleb128 0x2
 9173 2aad 7A       		.byte	0x7a
 9174 2aae 00       		.sleb128 0
 9175 2aaf 33       		.uleb128 0x33
 9176 2ab0 01       		.uleb128 0x1
 9177 2ab1 51       		.byte	0x51
 9178 2ab2 02       		.uleb128 0x2
 9179 2ab3 75       		.byte	0x75
 9180 2ab4 00       		.sleb128 0
 9181 2ab5 00       		.byte	0
 9182 2ab6 32       		.uleb128 0x32
 9183 2ab7 26000000 		.4byte	.LVL475
 9184 2abb D8090000 		.4byte	0x9d8
 9185 2abf D02A0000 		.4byte	0x2ad0
 9186 2ac3 33       		.uleb128 0x33
 9187 2ac4 01       		.uleb128 0x1
 9188 2ac5 50       		.byte	0x50
 9189 2ac6 02       		.uleb128 0x2
 9190 2ac7 76       		.byte	0x76
 9191 2ac8 00       		.sleb128 0
 9192 2ac9 33       		.uleb128 0x33
 9193 2aca 01       		.uleb128 0x1
 9194 2acb 51       		.byte	0x51
 9195 2acc 02       		.uleb128 0x2
 9196 2acd 75       		.byte	0x75
 9197 2ace 00       		.sleb128 0
 9198 2acf 00       		.byte	0
 9199 2ad0 32       		.uleb128 0x32
 9200 2ad1 32000000 		.4byte	.LVL477
 9201 2ad5 D8090000 		.4byte	0x9d8
 9202 2ad9 EA2A0000 		.4byte	0x2aea
 9203 2add 33       		.uleb128 0x33
 9204 2ade 01       		.uleb128 0x1
 9205 2adf 50       		.byte	0x50
 9206 2ae0 02       		.uleb128 0x2
 9207 2ae1 77       		.byte	0x77
 9208 2ae2 00       		.sleb128 0
 9209 2ae3 33       		.uleb128 0x33
 9210 2ae4 01       		.uleb128 0x1
 9211 2ae5 51       		.byte	0x51
 9212 2ae6 02       		.uleb128 0x2
 9213 2ae7 75       		.byte	0x75
 9214 2ae8 00       		.sleb128 0
 9215 2ae9 00       		.byte	0
 9216 2aea 32       		.uleb128 0x32
ARM GAS  C:\Users\rdn\AppData\Local\Temp\ccCxUcqe.s 			page 188


 9217 2aeb 8E000000 		.4byte	.LVL484
 9218 2aef CC2E0000 		.4byte	0x2ecc
 9219 2af3 092B0000 		.4byte	0x2b09
 9220 2af7 33       		.uleb128 0x33
 9221 2af8 01       		.uleb128 0x1
 9222 2af9 50       		.byte	0x50
 9223 2afa 02       		.uleb128 0x2
 9224 2afb 74       		.byte	0x74
 9225 2afc 00       		.sleb128 0
 9226 2afd 33       		.uleb128 0x33
 9227 2afe 01       		.uleb128 0x1
 9228 2aff 51       		.byte	0x51
 9229 2b00 01       		.uleb128 0x1
 9230 2b01 30       		.byte	0x30
 9231 2b02 33       		.uleb128 0x33
 9232 2b03 01       		.uleb128 0x1
 9233 2b04 52       		.byte	0x52
 9234 2b05 02       		.uleb128 0x2
 9235 2b06 08       		.byte	0x8
 9236 2b07 BC       		.byte	0xbc
 9237 2b08 00       		.byte	0
 9238 2b09 32       		.uleb128 0x32
 9239 2b0a AE000000 		.4byte	.LVL485
 9240 2b0e 3A2F0000 		.4byte	0x2f3a
 9241 2b12 1E2B0000 		.4byte	0x2b1e
 9242 2b16 33       		.uleb128 0x33
 9243 2b17 01       		.uleb128 0x1
 9244 2b18 50       		.byte	0x50
 9245 2b19 03       		.uleb128 0x3
 9246 2b1a 74       		.byte	0x74
 9247 2b1b 9C01     		.sleb128 156
 9248 2b1d 00       		.byte	0
 9249 2b1e 34       		.uleb128 0x34
 9250 2b1f 32010000 		.4byte	.LVL487
 9251 2b23 CC2E0000 		.4byte	0x2ecc
 9252 2b27 33       		.uleb128 0x33
 9253 2b28 01       		.uleb128 0x1
 9254 2b29 51       		.byte	0x51
 9255 2b2a 01       		.uleb128 0x1
 9256 2b2b 30       		.byte	0x30
 9257 2b2c 33       		.uleb128 0x33
 9258 2b2d 01       		.uleb128 0x1
 9259 2b2e 52       		.byte	0x52
 9260 2b2f 07       		.uleb128 0x7
 9261 2b30 75       		.byte	0x75
 9262 2b31 00       		.sleb128 0
 9263 2b32 77       		.byte	0x77
 9264 2b33 00       		.sleb128 0
 9265 2b34 22       		.byte	0x22
 9266 2b35 32       		.byte	0x32
 9267 2b36 24       		.byte	0x24
 9268 2b37 00       		.byte	0
 9269 2b38 00       		.byte	0
 9270 2b39 3D       		.uleb128 0x3d
 9271 2b3a D10A0000 		.4byte	.LASF195
 9272 2b3e 01       		.byte	0x1
 9273 2b3f D502     		.2byte	0x2d5
ARM GAS  C:\Users\rdn\AppData\Local\Temp\ccCxUcqe.s 			page 189


 9274 2b41 88040000 		.4byte	0x488
 9275 2b45 00000000 		.4byte	.LFB53
 9276 2b49 18000000 		.4byte	.LFE53-.LFB53
 9277 2b4d 01       		.uleb128 0x1
 9278 2b4e 9C       		.byte	0x9c
 9279 2b4f C02B0000 		.4byte	0x2bc0
 9280 2b53 2A       		.uleb128 0x2a
 9281 2b54 86040000 		.4byte	.LASF171
 9282 2b58 01       		.byte	0x1
 9283 2b59 D602     		.2byte	0x2d6
 9284 2b5b 25000000 		.4byte	0x25
 9285 2b5f B5200000 		.4byte	.LLST260
 9286 2b63 2A       		.uleb128 0x2a
 9287 2b64 F8010000 		.4byte	.LASF172
 9288 2b68 01       		.byte	0x1
 9289 2b69 D602     		.2byte	0x2d6
 9290 2b6b 25000000 		.4byte	0x25
 9291 2b6f E1200000 		.4byte	.LLST261
 9292 2b73 2A       		.uleb128 0x2a
 9293 2b74 B3020000 		.4byte	.LASF188
 9294 2b78 01       		.byte	0x1
 9295 2b79 D602     		.2byte	0x2d6
 9296 2b7b 25000000 		.4byte	0x25
 9297 2b7f 0D210000 		.4byte	.LLST262
 9298 2b83 3E       		.uleb128 0x3e
 9299 2b84 6D656D00 		.ascii	"mem\000"
 9300 2b88 01       		.byte	0x1
 9301 2b89 D602     		.2byte	0x2d6
 9302 2b8b 95040000 		.4byte	0x495
 9303 2b8f 39210000 		.4byte	.LLST263
 9304 2b93 34       		.uleb128 0x34
 9305 2b94 12000000 		.4byte	.LVL502
 9306 2b98 5E290000 		.4byte	0x295e
 9307 2b9c 33       		.uleb128 0x33
 9308 2b9d 01       		.uleb128 0x1
 9309 2b9e 50       		.byte	0x50
 9310 2b9f 01       		.uleb128 0x1
 9311 2ba0 30       		.byte	0x30
 9312 2ba1 33       		.uleb128 0x33
 9313 2ba2 01       		.uleb128 0x1
 9314 2ba3 51       		.byte	0x51
 9315 2ba4 03       		.uleb128 0x3
 9316 2ba5 F3       		.byte	0xf3
 9317 2ba6 01       		.uleb128 0x1
 9318 2ba7 50       		.byte	0x50
 9319 2ba8 33       		.uleb128 0x33
 9320 2ba9 01       		.uleb128 0x1
 9321 2baa 52       		.byte	0x52
 9322 2bab 03       		.uleb128 0x3
 9323 2bac F3       		.byte	0xf3
 9324 2bad 01       		.uleb128 0x1
 9325 2bae 51       		.byte	0x51
 9326 2baf 33       		.uleb128 0x33
 9327 2bb0 01       		.uleb128 0x1
 9328 2bb1 53       		.byte	0x53
 9329 2bb2 03       		.uleb128 0x3
 9330 2bb3 F3       		.byte	0xf3
ARM GAS  C:\Users\rdn\AppData\Local\Temp\ccCxUcqe.s 			page 190


 9331 2bb4 01       		.uleb128 0x1
 9332 2bb5 52       		.byte	0x52
 9333 2bb6 33       		.uleb128 0x33
 9334 2bb7 02       		.uleb128 0x2
 9335 2bb8 7D       		.byte	0x7d
 9336 2bb9 00       		.sleb128 0
 9337 2bba 03       		.uleb128 0x3
 9338 2bbb F3       		.byte	0xf3
 9339 2bbc 01       		.uleb128 0x1
 9340 2bbd 53       		.byte	0x53
 9341 2bbe 00       		.byte	0
 9342 2bbf 00       		.byte	0
 9343 2bc0 3D       		.uleb128 0x3d
 9344 2bc1 500C0000 		.4byte	.LASF196
 9345 2bc5 01       		.byte	0x1
 9346 2bc6 DE02     		.2byte	0x2de
 9347 2bc8 25000000 		.4byte	0x25
 9348 2bcc 00000000 		.4byte	.LFB54
 9349 2bd0 94000000 		.4byte	.LFE54-.LFB54
 9350 2bd4 01       		.uleb128 0x1
 9351 2bd5 9C       		.byte	0x9c
 9352 2bd6 082D0000 		.4byte	0x2d08
 9353 2bda 2A       		.uleb128 0x2a
 9354 2bdb 05040000 		.4byte	.LASF155
 9355 2bdf 01       		.byte	0x1
 9356 2be0 DE02     		.2byte	0x2de
 9357 2be2 88040000 		.4byte	0x488
 9358 2be6 66210000 		.4byte	.LLST264
 9359 2bea 3E       		.uleb128 0x3e
 9360 2beb 696E00   		.ascii	"in\000"
 9361 2bee 01       		.byte	0x1
 9362 2bef DF02     		.2byte	0x2df
 9363 2bf1 DA0A0000 		.4byte	0xada
 9364 2bf5 C1210000 		.4byte	.LLST265
 9365 2bf9 2A       		.uleb128 0x2a
 9366 2bfa 33030000 		.4byte	.LASF160
 9367 2bfe 01       		.byte	0x1
 9368 2bff DF02     		.2byte	0x2df
 9369 2c01 25000000 		.4byte	0x25
 9370 2c05 14220000 		.4byte	.LLST266
 9371 2c09 3E       		.uleb128 0x3e
 9372 2c0a 666D7400 		.ascii	"fmt\000"
 9373 2c0e 01       		.byte	0x1
 9374 2c0f DF02     		.2byte	0x2df
 9375 2c11 59040000 		.4byte	0x459
 9376 2c15 61220000 		.4byte	.LLST267
 9377 2c19 3E       		.uleb128 0x3e
 9378 2c1a 70636D00 		.ascii	"pcm\000"
 9379 2c1e 01       		.byte	0x1
 9380 2c1f DF02     		.2byte	0x2df
 9381 2c21 95040000 		.4byte	0x495
 9382 2c25 B4220000 		.4byte	.LLST268
 9383 2c29 2A       		.uleb128 0x2a
 9384 2c2a CA090000 		.4byte	.LASF149
 9385 2c2e 01       		.byte	0x1
 9386 2c2f DF02     		.2byte	0x2df
 9387 2c31 25000000 		.4byte	0x25
ARM GAS  C:\Users\rdn\AppData\Local\Temp\ccCxUcqe.s 			page 191


 9388 2c35 D4220000 		.4byte	.LLST269
 9389 2c39 35       		.uleb128 0x35
 9390 2c3a 85030000 		.4byte	.LASF197
 9391 2c3e 01       		.byte	0x1
 9392 2c3f E102     		.2byte	0x2e1
 9393 2c41 382D0000 		.4byte	0x2d38
 9394 2c45 05       		.uleb128 0x5
 9395 2c46 03       		.byte	0x3
 9396 2c47 10000000 		.4byte	store.6009
 9397 2c4b 35       		.uleb128 0x35
 9398 2c4c DD000000 		.4byte	.LASF161
 9399 2c50 01       		.byte	0x1
 9400 2c51 F302     		.2byte	0x2f3
 9401 2c53 75070000 		.4byte	0x775
 9402 2c57 03       		.uleb128 0x3
 9403 2c58 91       		.byte	0x91
 9404 2c59 E47E     		.sleb128 -156
 9405 2c5b 2D       		.uleb128 0x2d
 9406 2c5c 72657400 		.ascii	"ret\000"
 9407 2c60 01       		.byte	0x1
 9408 2c61 F502     		.2byte	0x2f5
 9409 2c63 25000000 		.4byte	0x25
 9410 2c67 F4220000 		.4byte	.LLST270
 9411 2c6b 2F       		.uleb128 0x2f
 9412 2c6c 59090000 		.4byte	0x959
 9413 2c70 14000000 		.4byte	.LBB223
 9414 2c74 18000000 		.4byte	.LBE223-.LBB223
 9415 2c78 01       		.byte	0x1
 9416 2c79 EE02     		.2byte	0x2ee
 9417 2c7b 922C0000 		.4byte	0x2c92
 9418 2c7f 24       		.uleb128 0x24
 9419 2c80 73090000 		.4byte	0x973
 9420 2c84 07230000 		.4byte	.LLST271
 9421 2c88 24       		.uleb128 0x24
 9422 2c89 69090000 		.4byte	0x969
 9423 2c8d 3E230000 		.4byte	.LLST272
 9424 2c91 00       		.byte	0
 9425 2c92 32       		.uleb128 0x32
 9426 2c93 3E000000 		.4byte	.LVL511
 9427 2c97 B1170000 		.4byte	0x17b1
 9428 2c9b B32C0000 		.4byte	0x2cb3
 9429 2c9f 33       		.uleb128 0x33
 9430 2ca0 01       		.uleb128 0x1
 9431 2ca1 50       		.byte	0x50
 9432 2ca2 02       		.uleb128 0x2
 9433 2ca3 74       		.byte	0x74
 9434 2ca4 00       		.sleb128 0
 9435 2ca5 33       		.uleb128 0x33
 9436 2ca6 01       		.uleb128 0x1
 9437 2ca7 52       		.byte	0x52
 9438 2ca8 02       		.uleb128 0x2
 9439 2ca9 75       		.byte	0x75
 9440 2caa 00       		.sleb128 0
 9441 2cab 33       		.uleb128 0x33
 9442 2cac 01       		.uleb128 0x1
 9443 2cad 53       		.byte	0x53
 9444 2cae 03       		.uleb128 0x3
ARM GAS  C:\Users\rdn\AppData\Local\Temp\ccCxUcqe.s 			page 192


 9445 2caf 91       		.byte	0x91
 9446 2cb0 E47E     		.sleb128 -156
 9447 2cb2 00       		.byte	0
 9448 2cb3 32       		.uleb128 0x32
 9449 2cb4 5C000000 		.4byte	.LVL515
 9450 2cb8 7A1A0000 		.4byte	0x1a7a
 9451 2cbc CD2C0000 		.4byte	0x2ccd
 9452 2cc0 33       		.uleb128 0x33
 9453 2cc1 01       		.uleb128 0x1
 9454 2cc2 50       		.byte	0x50
 9455 2cc3 02       		.uleb128 0x2
 9456 2cc4 74       		.byte	0x74
 9457 2cc5 00       		.sleb128 0
 9458 2cc6 33       		.uleb128 0x33
 9459 2cc7 01       		.uleb128 0x1
 9460 2cc8 52       		.byte	0x52
 9461 2cc9 02       		.uleb128 0x2
 9462 2cca 75       		.byte	0x75
 9463 2ccb 00       		.sleb128 0
 9464 2ccc 00       		.byte	0
 9465 2ccd 3F       		.uleb128 0x3f
 9466 2cce 6C000000 		.4byte	.LVL516
 9467 2cd2 0B       		.uleb128 0xb
 9468 2cd3 77       		.byte	0x77
 9469 2cd4 00       		.sleb128 0
 9470 2cd5 32       		.byte	0x32
 9471 2cd6 24       		.byte	0x24
 9472 2cd7 03       		.byte	0x3
 9473 2cd8 10000000 		.4byte	.LANCHOR0+16
 9474 2cdc 22       		.byte	0x22
 9475 2cdd 06       		.byte	0x6
 9476 2cde F72C0000 		.4byte	0x2cf7
 9477 2ce2 33       		.uleb128 0x33
 9478 2ce3 01       		.uleb128 0x1
 9479 2ce4 50       		.byte	0x50
 9480 2ce5 02       		.uleb128 0x2
 9481 2ce6 74       		.byte	0x74
 9482 2ce7 00       		.sleb128 0
 9483 2ce8 33       		.uleb128 0x33
 9484 2ce9 01       		.uleb128 0x1
 9485 2cea 51       		.byte	0x51
 9486 2ceb 03       		.uleb128 0x3
 9487 2cec 91       		.byte	0x91
 9488 2ced 00       		.sleb128 0
 9489 2cee 06       		.byte	0x6
 9490 2cef 33       		.uleb128 0x33
 9491 2cf0 01       		.uleb128 0x1
 9492 2cf1 52       		.byte	0x52
 9493 2cf2 03       		.uleb128 0x3
 9494 2cf3 91       		.byte	0x91
 9495 2cf4 04       		.sleb128 4
 9496 2cf5 06       		.byte	0x6
 9497 2cf6 00       		.byte	0
 9498 2cf7 34       		.uleb128 0x34
 9499 2cf8 72000000 		.4byte	.LVL517
 9500 2cfc 7F110000 		.4byte	0x117f
 9501 2d00 33       		.uleb128 0x33
ARM GAS  C:\Users\rdn\AppData\Local\Temp\ccCxUcqe.s 			page 193


 9502 2d01 01       		.uleb128 0x1
 9503 2d02 50       		.byte	0x50
 9504 2d03 02       		.uleb128 0x2
 9505 2d04 74       		.byte	0x74
 9506 2d05 00       		.sleb128 0
 9507 2d06 00       		.byte	0
 9508 2d07 00       		.byte	0
 9509 2d08 0D       		.uleb128 0xd
 9510 2d09 332D0000 		.4byte	0x2d33
 9511 2d0d 182D0000 		.4byte	0x2d18
 9512 2d11 0E       		.uleb128 0xe
 9513 2d12 3E020000 		.4byte	0x23e
 9514 2d16 03       		.byte	0x3
 9515 2d17 00       		.byte	0
 9516 2d18 10       		.uleb128 0x10
 9517 2d19 04       		.byte	0x4
 9518 2d1a 1E2D0000 		.4byte	0x2d1e
 9519 2d1e 40       		.uleb128 0x40
 9520 2d1f 332D0000 		.4byte	0x2d33
 9521 2d23 41       		.uleb128 0x41
 9522 2d24 88040000 		.4byte	0x488
 9523 2d28 41       		.uleb128 0x41
 9524 2d29 95040000 		.4byte	0x495
 9525 2d2d 41       		.uleb128 0x41
 9526 2d2e 25000000 		.4byte	0x25
 9527 2d32 00       		.byte	0
 9528 2d33 12       		.uleb128 0x12
 9529 2d34 182D0000 		.4byte	0x2d18
 9530 2d38 12       		.uleb128 0x12
 9531 2d39 082D0000 		.4byte	0x2d08
 9532 2d3d 0D       		.uleb128 0xd
 9533 2d3e 4D2D0000 		.4byte	0x2d4d
 9534 2d42 4D2D0000 		.4byte	0x2d4d
 9535 2d46 0E       		.uleb128 0xe
 9536 2d47 3E020000 		.4byte	0x23e
 9537 2d4b 06       		.byte	0x6
 9538 2d4c 00       		.byte	0
 9539 2d4d 12       		.uleb128 0x12
 9540 2d4e 25000000 		.4byte	0x25
 9541 2d52 42       		.uleb128 0x42
 9542 2d53 A2000000 		.4byte	.LASF198
 9543 2d57 02       		.byte	0x2
 9544 2d58 2A       		.byte	0x2a
 9545 2d59 5D2D0000 		.4byte	0x2d5d
 9546 2d5d 12       		.uleb128 0x12
 9547 2d5e 3D2D0000 		.4byte	0x2d3d
 9548 2d62 42       		.uleb128 0x42
 9549 2d63 75000000 		.4byte	.LASF199
 9550 2d67 02       		.byte	0x2
 9551 2d68 2B       		.byte	0x2b
 9552 2d69 6D2D0000 		.4byte	0x2d6d
 9553 2d6d 12       		.uleb128 0x12
 9554 2d6e 3D2D0000 		.4byte	0x2d3d
 9555 2d72 42       		.uleb128 0x42
 9556 2d73 30020000 		.4byte	.LASF200
 9557 2d77 02       		.byte	0x2
 9558 2d78 2C       		.byte	0x2c
ARM GAS  C:\Users\rdn\AppData\Local\Temp\ccCxUcqe.s 			page 194


 9559 2d79 7D2D0000 		.4byte	0x2d7d
 9560 2d7d 12       		.uleb128 0x12
 9561 2d7e 3D2D0000 		.4byte	0x2d3d
 9562 2d82 0D       		.uleb128 0xd
 9563 2d83 4D2D0000 		.4byte	0x2d4d
 9564 2d87 9E2D0000 		.4byte	0x2d9e
 9565 2d8b 0E       		.uleb128 0xe
 9566 2d8c 3E020000 		.4byte	0x23e
 9567 2d90 03       		.byte	0x3
 9568 2d91 0E       		.uleb128 0xe
 9569 2d92 3E020000 		.4byte	0x23e
 9570 2d96 01       		.byte	0x1
 9571 2d97 0E       		.uleb128 0xe
 9572 2d98 3E020000 		.4byte	0x23e
 9573 2d9c 01       		.byte	0x1
 9574 2d9d 00       		.byte	0
 9575 2d9e 42       		.uleb128 0x42
 9576 2d9f 340C0000 		.4byte	.LASF201
 9577 2da3 02       		.byte	0x2
 9578 2da4 4E       		.byte	0x4e
 9579 2da5 A92D0000 		.4byte	0x2da9
 9580 2da9 12       		.uleb128 0x12
 9581 2daa 822D0000 		.4byte	0x2d82
 9582 2dae 43       		.uleb128 0x43
 9583 2daf 1B050000 		.4byte	.LASF202
 9584 2db3 1B050000 		.4byte	.LASF202
 9585 2db7 0E       		.byte	0xe
 9586 2db8 21       		.byte	0x21
 9587 2db9 43       		.uleb128 0x43
 9588 2dba 7B090000 		.4byte	.LASF203
 9589 2dbe 7B090000 		.4byte	.LASF203
 9590 2dc2 0A       		.byte	0xa
 9591 2dc3 35       		.byte	0x35
 9592 2dc4 43       		.uleb128 0x43
 9593 2dc5 DF090000 		.4byte	.LASF204
 9594 2dc9 DF090000 		.4byte	.LASF204
 9595 2dcd 0F       		.byte	0xf
 9596 2dce 18       		.byte	0x18
 9597 2dcf 43       		.uleb128 0x43
 9598 2dd0 FE000000 		.4byte	.LASF205
 9599 2dd4 FE000000 		.4byte	.LASF205
 9600 2dd8 10       		.byte	0x10
 9601 2dd9 22       		.byte	0x22
 9602 2dda 43       		.uleb128 0x43
 9603 2ddb 1C0A0000 		.4byte	.LASF206
 9604 2ddf 1C0A0000 		.4byte	.LASF206
 9605 2de3 11       		.byte	0x11
 9606 2de4 20       		.byte	0x20
 9607 2de5 43       		.uleb128 0x43
 9608 2de6 3A030000 		.4byte	.LASF207
 9609 2dea 3A030000 		.4byte	.LASF207
 9610 2dee 0A       		.byte	0xa
 9611 2def 3C       		.byte	0x3c
 9612 2df0 43       		.uleb128 0x43
 9613 2df1 2F0A0000 		.4byte	.LASF208
 9614 2df5 2F0A0000 		.4byte	.LASF208
 9615 2df9 12       		.byte	0x12
ARM GAS  C:\Users\rdn\AppData\Local\Temp\ccCxUcqe.s 			page 195


 9616 2dfa 20       		.byte	0x20
 9617 2dfb 43       		.uleb128 0x43
 9618 2dfc B9040000 		.4byte	.LASF209
 9619 2e00 B9040000 		.4byte	.LASF209
 9620 2e04 0B       		.byte	0xb
 9621 2e05 36       		.byte	0x36
 9622 2e06 43       		.uleb128 0x43
 9623 2e07 67070000 		.4byte	.LASF210
 9624 2e0b 67070000 		.4byte	.LASF210
 9625 2e0f 0C       		.byte	0xc
 9626 2e10 32       		.byte	0x32
 9627 2e11 43       		.uleb128 0x43
 9628 2e12 EB0B0000 		.4byte	.LASF211
 9629 2e16 EB0B0000 		.4byte	.LASF211
 9630 2e1a 0D       		.byte	0xd
 9631 2e1b 33       		.byte	0x33
 9632 2e1c 43       		.uleb128 0x43
 9633 2e1d 8A070000 		.4byte	.LASF212
 9634 2e21 8A070000 		.4byte	.LASF212
 9635 2e25 04       		.byte	0x4
 9636 2e26 C8       		.byte	0xc8
 9637 2e27 43       		.uleb128 0x43
 9638 2e28 790C0000 		.4byte	.LASF213
 9639 2e2c 790C0000 		.4byte	.LASF213
 9640 2e30 04       		.byte	0x4
 9641 2e31 7E       		.byte	0x7e
 9642 2e32 43       		.uleb128 0x43
 9643 2e33 2D070000 		.4byte	.LASF214
 9644 2e37 2D070000 		.4byte	.LASF214
 9645 2e3b 12       		.byte	0x12
 9646 2e3c 30       		.byte	0x30
 9647 2e3d 43       		.uleb128 0x43
 9648 2e3e E5050000 		.4byte	.LASF215
 9649 2e42 E5050000 		.4byte	.LASF215
 9650 2e46 0D       		.byte	0xd
 9651 2e47 3E       		.byte	0x3e
 9652 2e48 43       		.uleb128 0x43
 9653 2e49 9E0B0000 		.4byte	.LASF216
 9654 2e4d 9E0B0000 		.4byte	.LASF216
 9655 2e51 0C       		.byte	0xc
 9656 2e52 41       		.byte	0x41
 9657 2e53 43       		.uleb128 0x43
 9658 2e54 AC070000 		.4byte	.LASF217
 9659 2e58 AC070000 		.4byte	.LASF217
 9660 2e5c 0B       		.byte	0xb
 9661 2e5d 46       		.byte	0x46
 9662 2e5e 43       		.uleb128 0x43
 9663 2e5f B9060000 		.4byte	.LASF218
 9664 2e63 B9060000 		.4byte	.LASF218
 9665 2e67 0A       		.byte	0xa
 9666 2e68 4A       		.byte	0x4a
 9667 2e69 43       		.uleb128 0x43
 9668 2e6a 68080000 		.4byte	.LASF219
 9669 2e6e 68080000 		.4byte	.LASF219
 9670 2e72 0D       		.byte	0xd
 9671 2e73 48       		.byte	0x48
 9672 2e74 43       		.uleb128 0x43
ARM GAS  C:\Users\rdn\AppData\Local\Temp\ccCxUcqe.s 			page 196


 9673 2e75 CE050000 		.4byte	.LASF220
 9674 2e79 CE050000 		.4byte	.LASF220
 9675 2e7d 04       		.byte	0x4
 9676 2e7e A9       		.byte	0xa9
 9677 2e7f 43       		.uleb128 0x43
 9678 2e80 4A040000 		.4byte	.LASF221
 9679 2e84 4A040000 		.4byte	.LASF221
 9680 2e88 04       		.byte	0x4
 9681 2e89 C9       		.byte	0xc9
 9682 2e8a 43       		.uleb128 0x43
 9683 2e8b FC080000 		.4byte	.LASF222
 9684 2e8f FC080000 		.4byte	.LASF222
 9685 2e93 12       		.byte	0x12
 9686 2e94 3A       		.byte	0x3a
 9687 2e95 43       		.uleb128 0x43
 9688 2e96 5B0C0000 		.4byte	.LASF223
 9689 2e9a 5B0C0000 		.4byte	.LASF223
 9690 2e9e 0D       		.byte	0xd
 9691 2e9f 58       		.byte	0x58
 9692 2ea0 43       		.uleb128 0x43
 9693 2ea1 8C040000 		.4byte	.LASF224
 9694 2ea5 8C040000 		.4byte	.LASF224
 9695 2ea9 0C       		.byte	0xc
 9696 2eaa 50       		.byte	0x50
 9697 2eab 43       		.uleb128 0x43
 9698 2eac 0F020000 		.4byte	.LASF225
 9699 2eb0 0F020000 		.4byte	.LASF225
 9700 2eb4 0B       		.byte	0xb
 9701 2eb5 53       		.byte	0x53
 9702 2eb6 43       		.uleb128 0x43
 9703 2eb7 1B040000 		.4byte	.LASF226
 9704 2ebb 1B040000 		.4byte	.LASF226
 9705 2ebf 0A       		.byte	0xa
 9706 2ec0 55       		.byte	0x55
 9707 2ec1 43       		.uleb128 0x43
 9708 2ec2 35010000 		.4byte	.LASF227
 9709 2ec6 35010000 		.4byte	.LASF227
 9710 2eca 0D       		.byte	0xd
 9711 2ecb 64       		.byte	0x64
 9712 2ecc 44       		.uleb128 0x44
 9713 2ecd 16070000 		.4byte	.LASF241
 9714 2ed1 16070000 		.4byte	.LASF241
 9715 2ed5 43       		.uleb128 0x43
 9716 2ed6 3E070000 		.4byte	.LASF228
 9717 2eda 3E070000 		.4byte	.LASF228
 9718 2ede 04       		.byte	0x4
 9719 2edf 8D       		.byte	0x8d
 9720 2ee0 43       		.uleb128 0x43
 9721 2ee1 3D060000 		.4byte	.LASF229
 9722 2ee5 3D060000 		.4byte	.LASF229
 9723 2ee9 13       		.byte	0x13
 9724 2eea 23       		.byte	0x23
 9725 2eeb 43       		.uleb128 0x43
 9726 2eec EA040000 		.4byte	.LASF230
 9727 2ef0 EA040000 		.4byte	.LASF230
 9728 2ef4 0C       		.byte	0xc
 9729 2ef5 59       		.byte	0x59
ARM GAS  C:\Users\rdn\AppData\Local\Temp\ccCxUcqe.s 			page 197


 9730 2ef6 43       		.uleb128 0x43
 9731 2ef7 BB050000 		.4byte	.LASF231
 9732 2efb BB050000 		.4byte	.LASF231
 9733 2eff 0B       		.byte	0xb
 9734 2f00 5E       		.byte	0x5e
 9735 2f01 43       		.uleb128 0x43
 9736 2f02 9C020000 		.4byte	.LASF232
 9737 2f06 9C020000 		.4byte	.LASF232
 9738 2f0a 10       		.byte	0x10
 9739 2f0b 2F       		.byte	0x2f
 9740 2f0c 43       		.uleb128 0x43
 9741 2f0d AF0B0000 		.4byte	.LASF233
 9742 2f11 AF0B0000 		.4byte	.LASF233
 9743 2f15 13       		.byte	0x13
 9744 2f16 2E       		.byte	0x2e
 9745 2f17 43       		.uleb128 0x43
 9746 2f18 DC030000 		.4byte	.LASF234
 9747 2f1c DC030000 		.4byte	.LASF234
 9748 2f20 0A       		.byte	0xa
 9749 2f21 63       		.byte	0x63
 9750 2f22 45       		.uleb128 0x45
 9751 2f23 21090000 		.4byte	.LASF235
 9752 2f27 21090000 		.4byte	.LASF235
 9753 2f2b 14       		.byte	0x14
 9754 2f2c 9701     		.2byte	0x197
 9755 2f2e 45       		.uleb128 0x45
 9756 2f2f 1D070000 		.4byte	.LASF236
 9757 2f33 1D070000 		.4byte	.LASF236
 9758 2f37 14       		.byte	0x14
 9759 2f38 9801     		.2byte	0x198
 9760 2f3a 43       		.uleb128 0x43
 9761 2f3b 8D060000 		.4byte	.LASF237
 9762 2f3f 8D060000 		.4byte	.LASF237
 9763 2f43 13       		.byte	0x13
 9764 2f44 1D       		.byte	0x1d
 9765 2f45 00       		.byte	0
 9766              		.section	.debug_abbrev,"",%progbits
 9767              	.Ldebug_abbrev0:
 9768 0000 01       		.uleb128 0x1
 9769 0001 11       		.uleb128 0x11
 9770 0002 01       		.byte	0x1
 9771 0003 25       		.uleb128 0x25
 9772 0004 0E       		.uleb128 0xe
 9773 0005 13       		.uleb128 0x13
 9774 0006 0B       		.uleb128 0xb
 9775 0007 03       		.uleb128 0x3
 9776 0008 0E       		.uleb128 0xe
 9777 0009 1B       		.uleb128 0x1b
 9778 000a 0E       		.uleb128 0xe
 9779 000b 55       		.uleb128 0x55
 9780 000c 17       		.uleb128 0x17
 9781 000d 11       		.uleb128 0x11
 9782 000e 01       		.uleb128 0x1
 9783 000f 10       		.uleb128 0x10
 9784 0010 17       		.uleb128 0x17
 9785 0011 00       		.byte	0
 9786 0012 00       		.byte	0
ARM GAS  C:\Users\rdn\AppData\Local\Temp\ccCxUcqe.s 			page 198


 9787 0013 02       		.uleb128 0x2
 9788 0014 24       		.uleb128 0x24
 9789 0015 00       		.byte	0
 9790 0016 0B       		.uleb128 0xb
 9791 0017 0B       		.uleb128 0xb
 9792 0018 3E       		.uleb128 0x3e
 9793 0019 0B       		.uleb128 0xb
 9794 001a 03       		.uleb128 0x3
 9795 001b 08       		.uleb128 0x8
 9796 001c 00       		.byte	0
 9797 001d 00       		.byte	0
 9798 001e 03       		.uleb128 0x3
 9799 001f 24       		.uleb128 0x24
 9800 0020 00       		.byte	0
 9801 0021 0B       		.uleb128 0xb
 9802 0022 0B       		.uleb128 0xb
 9803 0023 3E       		.uleb128 0x3e
 9804 0024 0B       		.uleb128 0xb
 9805 0025 03       		.uleb128 0x3
 9806 0026 0E       		.uleb128 0xe
 9807 0027 00       		.byte	0
 9808 0028 00       		.byte	0
 9809 0029 04       		.uleb128 0x4
 9810 002a 16       		.uleb128 0x16
 9811 002b 00       		.byte	0
 9812 002c 03       		.uleb128 0x3
 9813 002d 0E       		.uleb128 0xe
 9814 002e 3A       		.uleb128 0x3a
 9815 002f 0B       		.uleb128 0xb
 9816 0030 3B       		.uleb128 0x3b
 9817 0031 0B       		.uleb128 0xb
 9818 0032 49       		.uleb128 0x49
 9819 0033 13       		.uleb128 0x13
 9820 0034 00       		.byte	0
 9821 0035 00       		.byte	0
 9822 0036 05       		.uleb128 0x5
 9823 0037 04       		.uleb128 0x4
 9824 0038 01       		.byte	0x1
 9825 0039 03       		.uleb128 0x3
 9826 003a 0E       		.uleb128 0xe
 9827 003b 0B       		.uleb128 0xb
 9828 003c 0B       		.uleb128 0xb
 9829 003d 49       		.uleb128 0x49
 9830 003e 13       		.uleb128 0x13
 9831 003f 3A       		.uleb128 0x3a
 9832 0040 0B       		.uleb128 0xb
 9833 0041 3B       		.uleb128 0x3b
 9834 0042 0B       		.uleb128 0xb
 9835 0043 01       		.uleb128 0x1
 9836 0044 13       		.uleb128 0x13
 9837 0045 00       		.byte	0
 9838 0046 00       		.byte	0
 9839 0047 06       		.uleb128 0x6
 9840 0048 28       		.uleb128 0x28
 9841 0049 00       		.byte	0
 9842 004a 03       		.uleb128 0x3
 9843 004b 0E       		.uleb128 0xe
ARM GAS  C:\Users\rdn\AppData\Local\Temp\ccCxUcqe.s 			page 199


 9844 004c 1C       		.uleb128 0x1c
 9845 004d 0B       		.uleb128 0xb
 9846 004e 00       		.byte	0
 9847 004f 00       		.byte	0
 9848 0050 07       		.uleb128 0x7
 9849 0051 13       		.uleb128 0x13
 9850 0052 01       		.byte	0x1
 9851 0053 03       		.uleb128 0x3
 9852 0054 0E       		.uleb128 0xe
 9853 0055 0B       		.uleb128 0xb
 9854 0056 0B       		.uleb128 0xb
 9855 0057 3A       		.uleb128 0x3a
 9856 0058 0B       		.uleb128 0xb
 9857 0059 3B       		.uleb128 0x3b
 9858 005a 0B       		.uleb128 0xb
 9859 005b 01       		.uleb128 0x1
 9860 005c 13       		.uleb128 0x13
 9861 005d 00       		.byte	0
 9862 005e 00       		.byte	0
 9863 005f 08       		.uleb128 0x8
 9864 0060 0D       		.uleb128 0xd
 9865 0061 00       		.byte	0
 9866 0062 03       		.uleb128 0x3
 9867 0063 08       		.uleb128 0x8
 9868 0064 3A       		.uleb128 0x3a
 9869 0065 0B       		.uleb128 0xb
 9870 0066 3B       		.uleb128 0x3b
 9871 0067 0B       		.uleb128 0xb
 9872 0068 49       		.uleb128 0x49
 9873 0069 13       		.uleb128 0x13
 9874 006a 38       		.uleb128 0x38
 9875 006b 0B       		.uleb128 0xb
 9876 006c 00       		.byte	0
 9877 006d 00       		.byte	0
 9878 006e 09       		.uleb128 0x9
 9879 006f 0D       		.uleb128 0xd
 9880 0070 00       		.byte	0
 9881 0071 03       		.uleb128 0x3
 9882 0072 0E       		.uleb128 0xe
 9883 0073 3A       		.uleb128 0x3a
 9884 0074 0B       		.uleb128 0xb
 9885 0075 3B       		.uleb128 0x3b
 9886 0076 0B       		.uleb128 0xb
 9887 0077 49       		.uleb128 0x49
 9888 0078 13       		.uleb128 0x13
 9889 0079 38       		.uleb128 0x38
 9890 007a 0B       		.uleb128 0xb
 9891 007b 00       		.byte	0
 9892 007c 00       		.byte	0
 9893 007d 0A       		.uleb128 0xa
 9894 007e 13       		.uleb128 0x13
 9895 007f 01       		.byte	0x1
 9896 0080 03       		.uleb128 0x3
 9897 0081 0E       		.uleb128 0xe
 9898 0082 0B       		.uleb128 0xb
 9899 0083 05       		.uleb128 0x5
 9900 0084 3A       		.uleb128 0x3a
ARM GAS  C:\Users\rdn\AppData\Local\Temp\ccCxUcqe.s 			page 200


 9901 0085 0B       		.uleb128 0xb
 9902 0086 3B       		.uleb128 0x3b
 9903 0087 0B       		.uleb128 0xb
 9904 0088 01       		.uleb128 0x1
 9905 0089 13       		.uleb128 0x13
 9906 008a 00       		.byte	0
 9907 008b 00       		.byte	0
 9908 008c 0B       		.uleb128 0xb
 9909 008d 0D       		.uleb128 0xd
 9910 008e 00       		.byte	0
 9911 008f 03       		.uleb128 0x3
 9912 0090 0E       		.uleb128 0xe
 9913 0091 3A       		.uleb128 0x3a
 9914 0092 0B       		.uleb128 0xb
 9915 0093 3B       		.uleb128 0x3b
 9916 0094 0B       		.uleb128 0xb
 9917 0095 49       		.uleb128 0x49
 9918 0096 13       		.uleb128 0x13
 9919 0097 38       		.uleb128 0x38
 9920 0098 05       		.uleb128 0x5
 9921 0099 00       		.byte	0
 9922 009a 00       		.byte	0
 9923 009b 0C       		.uleb128 0xc
 9924 009c 0D       		.uleb128 0xd
 9925 009d 00       		.byte	0
 9926 009e 03       		.uleb128 0x3
 9927 009f 08       		.uleb128 0x8
 9928 00a0 3A       		.uleb128 0x3a
 9929 00a1 0B       		.uleb128 0xb
 9930 00a2 3B       		.uleb128 0x3b
 9931 00a3 0B       		.uleb128 0xb
 9932 00a4 49       		.uleb128 0x49
 9933 00a5 13       		.uleb128 0x13
 9934 00a6 38       		.uleb128 0x38
 9935 00a7 05       		.uleb128 0x5
 9936 00a8 00       		.byte	0
 9937 00a9 00       		.byte	0
 9938 00aa 0D       		.uleb128 0xd
 9939 00ab 01       		.uleb128 0x1
 9940 00ac 01       		.byte	0x1
 9941 00ad 49       		.uleb128 0x49
 9942 00ae 13       		.uleb128 0x13
 9943 00af 01       		.uleb128 0x1
 9944 00b0 13       		.uleb128 0x13
 9945 00b1 00       		.byte	0
 9946 00b2 00       		.byte	0
 9947 00b3 0E       		.uleb128 0xe
 9948 00b4 21       		.uleb128 0x21
 9949 00b5 00       		.byte	0
 9950 00b6 49       		.uleb128 0x49
 9951 00b7 13       		.uleb128 0x13
 9952 00b8 2F       		.uleb128 0x2f
 9953 00b9 0B       		.uleb128 0xb
 9954 00ba 00       		.byte	0
 9955 00bb 00       		.byte	0
 9956 00bc 0F       		.uleb128 0xf
 9957 00bd 21       		.uleb128 0x21
ARM GAS  C:\Users\rdn\AppData\Local\Temp\ccCxUcqe.s 			page 201


 9958 00be 00       		.byte	0
 9959 00bf 49       		.uleb128 0x49
 9960 00c0 13       		.uleb128 0x13
 9961 00c1 2F       		.uleb128 0x2f
 9962 00c2 05       		.uleb128 0x5
 9963 00c3 00       		.byte	0
 9964 00c4 00       		.byte	0
 9965 00c5 10       		.uleb128 0x10
 9966 00c6 0F       		.uleb128 0xf
 9967 00c7 00       		.byte	0
 9968 00c8 0B       		.uleb128 0xb
 9969 00c9 0B       		.uleb128 0xb
 9970 00ca 49       		.uleb128 0x49
 9971 00cb 13       		.uleb128 0x13
 9972 00cc 00       		.byte	0
 9973 00cd 00       		.byte	0
 9974 00ce 11       		.uleb128 0x11
 9975 00cf 0F       		.uleb128 0xf
 9976 00d0 00       		.byte	0
 9977 00d1 0B       		.uleb128 0xb
 9978 00d2 0B       		.uleb128 0xb
 9979 00d3 00       		.byte	0
 9980 00d4 00       		.byte	0
 9981 00d5 12       		.uleb128 0x12
 9982 00d6 26       		.uleb128 0x26
 9983 00d7 00       		.byte	0
 9984 00d8 49       		.uleb128 0x49
 9985 00d9 13       		.uleb128 0x13
 9986 00da 00       		.byte	0
 9987 00db 00       		.byte	0
 9988 00dc 13       		.uleb128 0x13
 9989 00dd 2E       		.uleb128 0x2e
 9990 00de 01       		.byte	0x1
 9991 00df 03       		.uleb128 0x3
 9992 00e0 0E       		.uleb128 0xe
 9993 00e1 3A       		.uleb128 0x3a
 9994 00e2 0B       		.uleb128 0xb
 9995 00e3 3B       		.uleb128 0x3b
 9996 00e4 0B       		.uleb128 0xb
 9997 00e5 27       		.uleb128 0x27
 9998 00e6 19       		.uleb128 0x19
 9999 00e7 49       		.uleb128 0x49
 10000 00e8 13       		.uleb128 0x13
 10001 00e9 20       		.uleb128 0x20
 10002 00ea 0B       		.uleb128 0xb
 10003 00eb 01       		.uleb128 0x1
 10004 00ec 13       		.uleb128 0x13
 10005 00ed 00       		.byte	0
 10006 00ee 00       		.byte	0
 10007 00ef 14       		.uleb128 0x14
 10008 00f0 05       		.uleb128 0x5
 10009 00f1 00       		.byte	0
 10010 00f2 03       		.uleb128 0x3
 10011 00f3 08       		.uleb128 0x8
 10012 00f4 3A       		.uleb128 0x3a
 10013 00f5 0B       		.uleb128 0xb
 10014 00f6 3B       		.uleb128 0x3b
ARM GAS  C:\Users\rdn\AppData\Local\Temp\ccCxUcqe.s 			page 202


 10015 00f7 0B       		.uleb128 0xb
 10016 00f8 49       		.uleb128 0x49
 10017 00f9 13       		.uleb128 0x13
 10018 00fa 00       		.byte	0
 10019 00fb 00       		.byte	0
 10020 00fc 15       		.uleb128 0x15
 10021 00fd 17       		.uleb128 0x17
 10022 00fe 01       		.byte	0x1
 10023 00ff 0B       		.uleb128 0xb
 10024 0100 0B       		.uleb128 0xb
 10025 0101 3A       		.uleb128 0x3a
 10026 0102 0B       		.uleb128 0xb
 10027 0103 3B       		.uleb128 0x3b
 10028 0104 0B       		.uleb128 0xb
 10029 0105 01       		.uleb128 0x1
 10030 0106 13       		.uleb128 0x13
 10031 0107 00       		.byte	0
 10032 0108 00       		.byte	0
 10033 0109 16       		.uleb128 0x16
 10034 010a 0D       		.uleb128 0xd
 10035 010b 00       		.byte	0
 10036 010c 03       		.uleb128 0x3
 10037 010d 08       		.uleb128 0x8
 10038 010e 3A       		.uleb128 0x3a
 10039 010f 0B       		.uleb128 0xb
 10040 0110 3B       		.uleb128 0x3b
 10041 0111 0B       		.uleb128 0xb
 10042 0112 49       		.uleb128 0x49
 10043 0113 13       		.uleb128 0x13
 10044 0114 00       		.byte	0
 10045 0115 00       		.byte	0
 10046 0116 17       		.uleb128 0x17
 10047 0117 34       		.uleb128 0x34
 10048 0118 00       		.byte	0
 10049 0119 03       		.uleb128 0x3
 10050 011a 08       		.uleb128 0x8
 10051 011b 3A       		.uleb128 0x3a
 10052 011c 0B       		.uleb128 0xb
 10053 011d 3B       		.uleb128 0x3b
 10054 011e 0B       		.uleb128 0xb
 10055 011f 49       		.uleb128 0x49
 10056 0120 13       		.uleb128 0x13
 10057 0121 00       		.byte	0
 10058 0122 00       		.byte	0
 10059 0123 18       		.uleb128 0x18
 10060 0124 2E       		.uleb128 0x2e
 10061 0125 01       		.byte	0x1
 10062 0126 03       		.uleb128 0x3
 10063 0127 0E       		.uleb128 0xe
 10064 0128 3A       		.uleb128 0x3a
 10065 0129 0B       		.uleb128 0xb
 10066 012a 3B       		.uleb128 0x3b
 10067 012b 0B       		.uleb128 0xb
 10068 012c 27       		.uleb128 0x27
 10069 012d 19       		.uleb128 0x19
 10070 012e 20       		.uleb128 0x20
 10071 012f 0B       		.uleb128 0xb
ARM GAS  C:\Users\rdn\AppData\Local\Temp\ccCxUcqe.s 			page 203


 10072 0130 01       		.uleb128 0x1
 10073 0131 13       		.uleb128 0x13
 10074 0132 00       		.byte	0
 10075 0133 00       		.byte	0
 10076 0134 19       		.uleb128 0x19
 10077 0135 05       		.uleb128 0x5
 10078 0136 00       		.byte	0
 10079 0137 03       		.uleb128 0x3
 10080 0138 0E       		.uleb128 0xe
 10081 0139 3A       		.uleb128 0x3a
 10082 013a 0B       		.uleb128 0xb
 10083 013b 3B       		.uleb128 0x3b
 10084 013c 0B       		.uleb128 0xb
 10085 013d 49       		.uleb128 0x49
 10086 013e 13       		.uleb128 0x13
 10087 013f 00       		.byte	0
 10088 0140 00       		.byte	0
 10089 0141 1A       		.uleb128 0x1a
 10090 0142 34       		.uleb128 0x34
 10091 0143 00       		.byte	0
 10092 0144 03       		.uleb128 0x3
 10093 0145 0E       		.uleb128 0xe
 10094 0146 3A       		.uleb128 0x3a
 10095 0147 0B       		.uleb128 0xb
 10096 0148 3B       		.uleb128 0x3b
 10097 0149 0B       		.uleb128 0xb
 10098 014a 49       		.uleb128 0x49
 10099 014b 13       		.uleb128 0x13
 10100 014c 00       		.byte	0
 10101 014d 00       		.byte	0
 10102 014e 1B       		.uleb128 0x1b
 10103 014f 0B       		.uleb128 0xb
 10104 0150 01       		.byte	0x1
 10105 0151 00       		.byte	0
 10106 0152 00       		.byte	0
 10107 0153 1C       		.uleb128 0x1c
 10108 0154 2E       		.uleb128 0x2e
 10109 0155 01       		.byte	0x1
 10110 0156 03       		.uleb128 0x3
 10111 0157 0E       		.uleb128 0xe
 10112 0158 3A       		.uleb128 0x3a
 10113 0159 0B       		.uleb128 0xb
 10114 015a 3B       		.uleb128 0x3b
 10115 015b 0B       		.uleb128 0xb
 10116 015c 27       		.uleb128 0x27
 10117 015d 19       		.uleb128 0x19
 10118 015e 49       		.uleb128 0x49
 10119 015f 13       		.uleb128 0x13
 10120 0160 11       		.uleb128 0x11
 10121 0161 01       		.uleb128 0x1
 10122 0162 12       		.uleb128 0x12
 10123 0163 06       		.uleb128 0x6
 10124 0164 40       		.uleb128 0x40
 10125 0165 18       		.uleb128 0x18
 10126 0166 9742     		.uleb128 0x2117
 10127 0168 19       		.uleb128 0x19
 10128 0169 01       		.uleb128 0x1
ARM GAS  C:\Users\rdn\AppData\Local\Temp\ccCxUcqe.s 			page 204


 10129 016a 13       		.uleb128 0x13
 10130 016b 00       		.byte	0
 10131 016c 00       		.byte	0
 10132 016d 1D       		.uleb128 0x1d
 10133 016e 05       		.uleb128 0x5
 10134 016f 00       		.byte	0
 10135 0170 03       		.uleb128 0x3
 10136 0171 08       		.uleb128 0x8
 10137 0172 3A       		.uleb128 0x3a
 10138 0173 0B       		.uleb128 0xb
 10139 0174 3B       		.uleb128 0x3b
 10140 0175 0B       		.uleb128 0xb
 10141 0176 49       		.uleb128 0x49
 10142 0177 13       		.uleb128 0x13
 10143 0178 02       		.uleb128 0x2
 10144 0179 17       		.uleb128 0x17
 10145 017a 00       		.byte	0
 10146 017b 00       		.byte	0
 10147 017c 1E       		.uleb128 0x1e
 10148 017d 05       		.uleb128 0x5
 10149 017e 00       		.byte	0
 10150 017f 03       		.uleb128 0x3
 10151 0180 0E       		.uleb128 0xe
 10152 0181 3A       		.uleb128 0x3a
 10153 0182 0B       		.uleb128 0xb
 10154 0183 3B       		.uleb128 0x3b
 10155 0184 0B       		.uleb128 0xb
 10156 0185 49       		.uleb128 0x49
 10157 0186 13       		.uleb128 0x13
 10158 0187 02       		.uleb128 0x2
 10159 0188 18       		.uleb128 0x18
 10160 0189 00       		.byte	0
 10161 018a 00       		.byte	0
 10162 018b 1F       		.uleb128 0x1f
 10163 018c 2E       		.uleb128 0x2e
 10164 018d 01       		.byte	0x1
 10165 018e 03       		.uleb128 0x3
 10166 018f 0E       		.uleb128 0xe
 10167 0190 3A       		.uleb128 0x3a
 10168 0191 0B       		.uleb128 0xb
 10169 0192 3B       		.uleb128 0x3b
 10170 0193 0B       		.uleb128 0xb
 10171 0194 27       		.uleb128 0x27
 10172 0195 19       		.uleb128 0x19
 10173 0196 11       		.uleb128 0x11
 10174 0197 01       		.uleb128 0x1
 10175 0198 12       		.uleb128 0x12
 10176 0199 06       		.uleb128 0x6
 10177 019a 40       		.uleb128 0x40
 10178 019b 18       		.uleb128 0x18
 10179 019c 9742     		.uleb128 0x2117
 10180 019e 19       		.uleb128 0x19
 10181 019f 01       		.uleb128 0x1
 10182 01a0 13       		.uleb128 0x13
 10183 01a1 00       		.byte	0
 10184 01a2 00       		.byte	0
 10185 01a3 20       		.uleb128 0x20
ARM GAS  C:\Users\rdn\AppData\Local\Temp\ccCxUcqe.s 			page 205


 10186 01a4 05       		.uleb128 0x5
 10187 01a5 00       		.byte	0
 10188 01a6 03       		.uleb128 0x3
 10189 01a7 0E       		.uleb128 0xe
 10190 01a8 3A       		.uleb128 0x3a
 10191 01a9 0B       		.uleb128 0xb
 10192 01aa 3B       		.uleb128 0x3b
 10193 01ab 0B       		.uleb128 0xb
 10194 01ac 49       		.uleb128 0x49
 10195 01ad 13       		.uleb128 0x13
 10196 01ae 02       		.uleb128 0x2
 10197 01af 17       		.uleb128 0x17
 10198 01b0 00       		.byte	0
 10199 01b1 00       		.byte	0
 10200 01b2 21       		.uleb128 0x21
 10201 01b3 34       		.uleb128 0x34
 10202 01b4 00       		.byte	0
 10203 01b5 03       		.uleb128 0x3
 10204 01b6 08       		.uleb128 0x8
 10205 01b7 3A       		.uleb128 0x3a
 10206 01b8 0B       		.uleb128 0xb
 10207 01b9 3B       		.uleb128 0x3b
 10208 01ba 0B       		.uleb128 0xb
 10209 01bb 49       		.uleb128 0x49
 10210 01bc 13       		.uleb128 0x13
 10211 01bd 02       		.uleb128 0x2
 10212 01be 18       		.uleb128 0x18
 10213 01bf 00       		.byte	0
 10214 01c0 00       		.byte	0
 10215 01c1 22       		.uleb128 0x22
 10216 01c2 34       		.uleb128 0x34
 10217 01c3 00       		.byte	0
 10218 01c4 03       		.uleb128 0x3
 10219 01c5 08       		.uleb128 0x8
 10220 01c6 3A       		.uleb128 0x3a
 10221 01c7 0B       		.uleb128 0xb
 10222 01c8 3B       		.uleb128 0x3b
 10223 01c9 0B       		.uleb128 0xb
 10224 01ca 49       		.uleb128 0x49
 10225 01cb 13       		.uleb128 0x13
 10226 01cc 02       		.uleb128 0x2
 10227 01cd 17       		.uleb128 0x17
 10228 01ce 00       		.byte	0
 10229 01cf 00       		.byte	0
 10230 01d0 23       		.uleb128 0x23
 10231 01d1 1D       		.uleb128 0x1d
 10232 01d2 01       		.byte	0x1
 10233 01d3 31       		.uleb128 0x31
 10234 01d4 13       		.uleb128 0x13
 10235 01d5 11       		.uleb128 0x11
 10236 01d6 01       		.uleb128 0x1
 10237 01d7 12       		.uleb128 0x12
 10238 01d8 06       		.uleb128 0x6
 10239 01d9 58       		.uleb128 0x58
 10240 01da 0B       		.uleb128 0xb
 10241 01db 59       		.uleb128 0x59
 10242 01dc 0B       		.uleb128 0xb
ARM GAS  C:\Users\rdn\AppData\Local\Temp\ccCxUcqe.s 			page 206


 10243 01dd 01       		.uleb128 0x1
 10244 01de 13       		.uleb128 0x13
 10245 01df 00       		.byte	0
 10246 01e0 00       		.byte	0
 10247 01e1 24       		.uleb128 0x24
 10248 01e2 05       		.uleb128 0x5
 10249 01e3 00       		.byte	0
 10250 01e4 31       		.uleb128 0x31
 10251 01e5 13       		.uleb128 0x13
 10252 01e6 02       		.uleb128 0x2
 10253 01e7 17       		.uleb128 0x17
 10254 01e8 00       		.byte	0
 10255 01e9 00       		.byte	0
 10256 01ea 25       		.uleb128 0x25
 10257 01eb 0B       		.uleb128 0xb
 10258 01ec 01       		.byte	0x1
 10259 01ed 11       		.uleb128 0x11
 10260 01ee 01       		.uleb128 0x1
 10261 01ef 12       		.uleb128 0x12
 10262 01f0 06       		.uleb128 0x6
 10263 01f1 00       		.byte	0
 10264 01f2 00       		.byte	0
 10265 01f3 26       		.uleb128 0x26
 10266 01f4 26       		.uleb128 0x26
 10267 01f5 00       		.byte	0
 10268 01f6 00       		.byte	0
 10269 01f7 00       		.byte	0
 10270 01f8 27       		.uleb128 0x27
 10271 01f9 1D       		.uleb128 0x1d
 10272 01fa 01       		.byte	0x1
 10273 01fb 31       		.uleb128 0x31
 10274 01fc 13       		.uleb128 0x13
 10275 01fd 11       		.uleb128 0x11
 10276 01fe 01       		.uleb128 0x1
 10277 01ff 12       		.uleb128 0x12
 10278 0200 06       		.uleb128 0x6
 10279 0201 58       		.uleb128 0x58
 10280 0202 0B       		.uleb128 0xb
 10281 0203 59       		.uleb128 0x59
 10282 0204 0B       		.uleb128 0xb
 10283 0205 00       		.byte	0
 10284 0206 00       		.byte	0
 10285 0207 28       		.uleb128 0x28
 10286 0208 34       		.uleb128 0x34
 10287 0209 00       		.byte	0
 10288 020a 31       		.uleb128 0x31
 10289 020b 13       		.uleb128 0x13
 10290 020c 02       		.uleb128 0x2
 10291 020d 17       		.uleb128 0x17
 10292 020e 00       		.byte	0
 10293 020f 00       		.byte	0
 10294 0210 29       		.uleb128 0x29
 10295 0211 2E       		.uleb128 0x2e
 10296 0212 01       		.byte	0x1
 10297 0213 03       		.uleb128 0x3
 10298 0214 0E       		.uleb128 0xe
 10299 0215 3A       		.uleb128 0x3a
ARM GAS  C:\Users\rdn\AppData\Local\Temp\ccCxUcqe.s 			page 207


 10300 0216 0B       		.uleb128 0xb
 10301 0217 3B       		.uleb128 0x3b
 10302 0218 05       		.uleb128 0x5
 10303 0219 27       		.uleb128 0x27
 10304 021a 19       		.uleb128 0x19
 10305 021b 11       		.uleb128 0x11
 10306 021c 01       		.uleb128 0x1
 10307 021d 12       		.uleb128 0x12
 10308 021e 06       		.uleb128 0x6
 10309 021f 40       		.uleb128 0x40
 10310 0220 18       		.uleb128 0x18
 10311 0221 9742     		.uleb128 0x2117
 10312 0223 19       		.uleb128 0x19
 10313 0224 01       		.uleb128 0x1
 10314 0225 13       		.uleb128 0x13
 10315 0226 00       		.byte	0
 10316 0227 00       		.byte	0
 10317 0228 2A       		.uleb128 0x2a
 10318 0229 05       		.uleb128 0x5
 10319 022a 00       		.byte	0
 10320 022b 03       		.uleb128 0x3
 10321 022c 0E       		.uleb128 0xe
 10322 022d 3A       		.uleb128 0x3a
 10323 022e 0B       		.uleb128 0xb
 10324 022f 3B       		.uleb128 0x3b
 10325 0230 05       		.uleb128 0x5
 10326 0231 49       		.uleb128 0x49
 10327 0232 13       		.uleb128 0x13
 10328 0233 02       		.uleb128 0x2
 10329 0234 17       		.uleb128 0x17
 10330 0235 00       		.byte	0
 10331 0236 00       		.byte	0
 10332 0237 2B       		.uleb128 0x2b
 10333 0238 05       		.uleb128 0x5
 10334 0239 00       		.byte	0
 10335 023a 03       		.uleb128 0x3
 10336 023b 0E       		.uleb128 0xe
 10337 023c 3A       		.uleb128 0x3a
 10338 023d 0B       		.uleb128 0xb
 10339 023e 3B       		.uleb128 0x3b
 10340 023f 05       		.uleb128 0x5
 10341 0240 49       		.uleb128 0x49
 10342 0241 13       		.uleb128 0x13
 10343 0242 02       		.uleb128 0x2
 10344 0243 18       		.uleb128 0x18
 10345 0244 00       		.byte	0
 10346 0245 00       		.byte	0
 10347 0246 2C       		.uleb128 0x2c
 10348 0247 34       		.uleb128 0x34
 10349 0248 00       		.byte	0
 10350 0249 03       		.uleb128 0x3
 10351 024a 08       		.uleb128 0x8
 10352 024b 3A       		.uleb128 0x3a
 10353 024c 0B       		.uleb128 0xb
 10354 024d 3B       		.uleb128 0x3b
 10355 024e 05       		.uleb128 0x5
 10356 024f 49       		.uleb128 0x49
ARM GAS  C:\Users\rdn\AppData\Local\Temp\ccCxUcqe.s 			page 208


 10357 0250 13       		.uleb128 0x13
 10358 0251 02       		.uleb128 0x2
 10359 0252 18       		.uleb128 0x18
 10360 0253 00       		.byte	0
 10361 0254 00       		.byte	0
 10362 0255 2D       		.uleb128 0x2d
 10363 0256 34       		.uleb128 0x34
 10364 0257 00       		.byte	0
 10365 0258 03       		.uleb128 0x3
 10366 0259 08       		.uleb128 0x8
 10367 025a 3A       		.uleb128 0x3a
 10368 025b 0B       		.uleb128 0xb
 10369 025c 3B       		.uleb128 0x3b
 10370 025d 05       		.uleb128 0x5
 10371 025e 49       		.uleb128 0x49
 10372 025f 13       		.uleb128 0x13
 10373 0260 02       		.uleb128 0x2
 10374 0261 17       		.uleb128 0x17
 10375 0262 00       		.byte	0
 10376 0263 00       		.byte	0
 10377 0264 2E       		.uleb128 0x2e
 10378 0265 34       		.uleb128 0x34
 10379 0266 00       		.byte	0
 10380 0267 03       		.uleb128 0x3
 10381 0268 08       		.uleb128 0x8
 10382 0269 3A       		.uleb128 0x3a
 10383 026a 0B       		.uleb128 0xb
 10384 026b 3B       		.uleb128 0x3b
 10385 026c 05       		.uleb128 0x5
 10386 026d 49       		.uleb128 0x49
 10387 026e 13       		.uleb128 0x13
 10388 026f 00       		.byte	0
 10389 0270 00       		.byte	0
 10390 0271 2F       		.uleb128 0x2f
 10391 0272 1D       		.uleb128 0x1d
 10392 0273 01       		.byte	0x1
 10393 0274 31       		.uleb128 0x31
 10394 0275 13       		.uleb128 0x13
 10395 0276 11       		.uleb128 0x11
 10396 0277 01       		.uleb128 0x1
 10397 0278 12       		.uleb128 0x12
 10398 0279 06       		.uleb128 0x6
 10399 027a 58       		.uleb128 0x58
 10400 027b 0B       		.uleb128 0xb
 10401 027c 59       		.uleb128 0x59
 10402 027d 05       		.uleb128 0x5
 10403 027e 01       		.uleb128 0x1
 10404 027f 13       		.uleb128 0x13
 10405 0280 00       		.byte	0
 10406 0281 00       		.byte	0
 10407 0282 30       		.uleb128 0x30
 10408 0283 1D       		.uleb128 0x1d
 10409 0284 01       		.byte	0x1
 10410 0285 31       		.uleb128 0x31
 10411 0286 13       		.uleb128 0x13
 10412 0287 11       		.uleb128 0x11
 10413 0288 01       		.uleb128 0x1
ARM GAS  C:\Users\rdn\AppData\Local\Temp\ccCxUcqe.s 			page 209


 10414 0289 12       		.uleb128 0x12
 10415 028a 06       		.uleb128 0x6
 10416 028b 58       		.uleb128 0x58
 10417 028c 0B       		.uleb128 0xb
 10418 028d 59       		.uleb128 0x59
 10419 028e 05       		.uleb128 0x5
 10420 028f 00       		.byte	0
 10421 0290 00       		.byte	0
 10422 0291 31       		.uleb128 0x31
 10423 0292 34       		.uleb128 0x34
 10424 0293 00       		.byte	0
 10425 0294 03       		.uleb128 0x3
 10426 0295 0E       		.uleb128 0xe
 10427 0296 3A       		.uleb128 0x3a
 10428 0297 0B       		.uleb128 0xb
 10429 0298 3B       		.uleb128 0x3b
 10430 0299 05       		.uleb128 0x5
 10431 029a 49       		.uleb128 0x49
 10432 029b 13       		.uleb128 0x13
 10433 029c 02       		.uleb128 0x2
 10434 029d 17       		.uleb128 0x17
 10435 029e 00       		.byte	0
 10436 029f 00       		.byte	0
 10437 02a0 32       		.uleb128 0x32
 10438 02a1 898201   		.uleb128 0x4109
 10439 02a4 01       		.byte	0x1
 10440 02a5 11       		.uleb128 0x11
 10441 02a6 01       		.uleb128 0x1
 10442 02a7 31       		.uleb128 0x31
 10443 02a8 13       		.uleb128 0x13
 10444 02a9 01       		.uleb128 0x1
 10445 02aa 13       		.uleb128 0x13
 10446 02ab 00       		.byte	0
 10447 02ac 00       		.byte	0
 10448 02ad 33       		.uleb128 0x33
 10449 02ae 8A8201   		.uleb128 0x410a
 10450 02b1 00       		.byte	0
 10451 02b2 02       		.uleb128 0x2
 10452 02b3 18       		.uleb128 0x18
 10453 02b4 9142     		.uleb128 0x2111
 10454 02b6 18       		.uleb128 0x18
 10455 02b7 00       		.byte	0
 10456 02b8 00       		.byte	0
 10457 02b9 34       		.uleb128 0x34
 10458 02ba 898201   		.uleb128 0x4109
 10459 02bd 01       		.byte	0x1
 10460 02be 11       		.uleb128 0x11
 10461 02bf 01       		.uleb128 0x1
 10462 02c0 31       		.uleb128 0x31
 10463 02c1 13       		.uleb128 0x13
 10464 02c2 00       		.byte	0
 10465 02c3 00       		.byte	0
 10466 02c4 35       		.uleb128 0x35
 10467 02c5 34       		.uleb128 0x34
 10468 02c6 00       		.byte	0
 10469 02c7 03       		.uleb128 0x3
 10470 02c8 0E       		.uleb128 0xe
ARM GAS  C:\Users\rdn\AppData\Local\Temp\ccCxUcqe.s 			page 210


 10471 02c9 3A       		.uleb128 0x3a
 10472 02ca 0B       		.uleb128 0xb
 10473 02cb 3B       		.uleb128 0x3b
 10474 02cc 05       		.uleb128 0x5
 10475 02cd 49       		.uleb128 0x49
 10476 02ce 13       		.uleb128 0x13
 10477 02cf 02       		.uleb128 0x2
 10478 02d0 18       		.uleb128 0x18
 10479 02d1 00       		.byte	0
 10480 02d2 00       		.byte	0
 10481 02d3 36       		.uleb128 0x36
 10482 02d4 34       		.uleb128 0x34
 10483 02d5 00       		.byte	0
 10484 02d6 31       		.uleb128 0x31
 10485 02d7 13       		.uleb128 0x13
 10486 02d8 02       		.uleb128 0x2
 10487 02d9 18       		.uleb128 0x18
 10488 02da 00       		.byte	0
 10489 02db 00       		.byte	0
 10490 02dc 37       		.uleb128 0x37
 10491 02dd 2E       		.uleb128 0x2e
 10492 02de 01       		.byte	0x1
 10493 02df 03       		.uleb128 0x3
 10494 02e0 0E       		.uleb128 0xe
 10495 02e1 3A       		.uleb128 0x3a
 10496 02e2 0B       		.uleb128 0xb
 10497 02e3 3B       		.uleb128 0x3b
 10498 02e4 05       		.uleb128 0x5
 10499 02e5 27       		.uleb128 0x27
 10500 02e6 19       		.uleb128 0x19
 10501 02e7 49       		.uleb128 0x49
 10502 02e8 13       		.uleb128 0x13
 10503 02e9 11       		.uleb128 0x11
 10504 02ea 01       		.uleb128 0x1
 10505 02eb 12       		.uleb128 0x12
 10506 02ec 06       		.uleb128 0x6
 10507 02ed 40       		.uleb128 0x40
 10508 02ee 18       		.uleb128 0x18
 10509 02ef 9742     		.uleb128 0x2117
 10510 02f1 19       		.uleb128 0x19
 10511 02f2 01       		.uleb128 0x1
 10512 02f3 13       		.uleb128 0x13
 10513 02f4 00       		.byte	0
 10514 02f5 00       		.byte	0
 10515 02f6 38       		.uleb128 0x38
 10516 02f7 0B       		.uleb128 0xb
 10517 02f8 01       		.byte	0x1
 10518 02f9 11       		.uleb128 0x11
 10519 02fa 01       		.uleb128 0x1
 10520 02fb 12       		.uleb128 0x12
 10521 02fc 06       		.uleb128 0x6
 10522 02fd 01       		.uleb128 0x1
 10523 02fe 13       		.uleb128 0x13
 10524 02ff 00       		.byte	0
 10525 0300 00       		.byte	0
 10526 0301 39       		.uleb128 0x39
 10527 0302 898201   		.uleb128 0x4109
ARM GAS  C:\Users\rdn\AppData\Local\Temp\ccCxUcqe.s 			page 211


 10528 0305 00       		.byte	0
 10529 0306 11       		.uleb128 0x11
 10530 0307 01       		.uleb128 0x1
 10531 0308 31       		.uleb128 0x31
 10532 0309 13       		.uleb128 0x13
 10533 030a 00       		.byte	0
 10534 030b 00       		.byte	0
 10535 030c 3A       		.uleb128 0x3a
 10536 030d 2E       		.uleb128 0x2e
 10537 030e 01       		.byte	0x1
 10538 030f 3F       		.uleb128 0x3f
 10539 0310 19       		.uleb128 0x19
 10540 0311 03       		.uleb128 0x3
 10541 0312 0E       		.uleb128 0xe
 10542 0313 3A       		.uleb128 0x3a
 10543 0314 0B       		.uleb128 0xb
 10544 0315 3B       		.uleb128 0x3b
 10545 0316 0B       		.uleb128 0xb
 10546 0317 27       		.uleb128 0x27
 10547 0318 19       		.uleb128 0x19
 10548 0319 49       		.uleb128 0x49
 10549 031a 13       		.uleb128 0x13
 10550 031b 11       		.uleb128 0x11
 10551 031c 01       		.uleb128 0x1
 10552 031d 12       		.uleb128 0x12
 10553 031e 06       		.uleb128 0x6
 10554 031f 40       		.uleb128 0x40
 10555 0320 18       		.uleb128 0x18
 10556 0321 9742     		.uleb128 0x2117
 10557 0323 19       		.uleb128 0x19
 10558 0324 01       		.uleb128 0x1
 10559 0325 13       		.uleb128 0x13
 10560 0326 00       		.byte	0
 10561 0327 00       		.byte	0
 10562 0328 3B       		.uleb128 0x3b
 10563 0329 05       		.uleb128 0x5
 10564 032a 00       		.byte	0
 10565 032b 31       		.uleb128 0x31
 10566 032c 13       		.uleb128 0x13
 10567 032d 00       		.byte	0
 10568 032e 00       		.byte	0
 10569 032f 3C       		.uleb128 0x3c
 10570 0330 2E       		.uleb128 0x2e
 10571 0331 01       		.byte	0x1
 10572 0332 3F       		.uleb128 0x3f
 10573 0333 19       		.uleb128 0x19
 10574 0334 03       		.uleb128 0x3
 10575 0335 0E       		.uleb128 0xe
 10576 0336 3A       		.uleb128 0x3a
 10577 0337 0B       		.uleb128 0xb
 10578 0338 3B       		.uleb128 0x3b
 10579 0339 0B       		.uleb128 0xb
 10580 033a 27       		.uleb128 0x27
 10581 033b 19       		.uleb128 0x19
 10582 033c 49       		.uleb128 0x49
 10583 033d 13       		.uleb128 0x13
 10584 033e 11       		.uleb128 0x11
ARM GAS  C:\Users\rdn\AppData\Local\Temp\ccCxUcqe.s 			page 212


 10585 033f 01       		.uleb128 0x1
 10586 0340 12       		.uleb128 0x12
 10587 0341 06       		.uleb128 0x6
 10588 0342 40       		.uleb128 0x40
 10589 0343 18       		.uleb128 0x18
 10590 0344 9642     		.uleb128 0x2116
 10591 0346 19       		.uleb128 0x19
 10592 0347 01       		.uleb128 0x1
 10593 0348 13       		.uleb128 0x13
 10594 0349 00       		.byte	0
 10595 034a 00       		.byte	0
 10596 034b 3D       		.uleb128 0x3d
 10597 034c 2E       		.uleb128 0x2e
 10598 034d 01       		.byte	0x1
 10599 034e 3F       		.uleb128 0x3f
 10600 034f 19       		.uleb128 0x19
 10601 0350 03       		.uleb128 0x3
 10602 0351 0E       		.uleb128 0xe
 10603 0352 3A       		.uleb128 0x3a
 10604 0353 0B       		.uleb128 0xb
 10605 0354 3B       		.uleb128 0x3b
 10606 0355 05       		.uleb128 0x5
 10607 0356 27       		.uleb128 0x27
 10608 0357 19       		.uleb128 0x19
 10609 0358 49       		.uleb128 0x49
 10610 0359 13       		.uleb128 0x13
 10611 035a 11       		.uleb128 0x11
 10612 035b 01       		.uleb128 0x1
 10613 035c 12       		.uleb128 0x12
 10614 035d 06       		.uleb128 0x6
 10615 035e 40       		.uleb128 0x40
 10616 035f 18       		.uleb128 0x18
 10617 0360 9742     		.uleb128 0x2117
 10618 0362 19       		.uleb128 0x19
 10619 0363 01       		.uleb128 0x1
 10620 0364 13       		.uleb128 0x13
 10621 0365 00       		.byte	0
 10622 0366 00       		.byte	0
 10623 0367 3E       		.uleb128 0x3e
 10624 0368 05       		.uleb128 0x5
 10625 0369 00       		.byte	0
 10626 036a 03       		.uleb128 0x3
 10627 036b 08       		.uleb128 0x8
 10628 036c 3A       		.uleb128 0x3a
 10629 036d 0B       		.uleb128 0xb
 10630 036e 3B       		.uleb128 0x3b
 10631 036f 05       		.uleb128 0x5
 10632 0370 49       		.uleb128 0x49
 10633 0371 13       		.uleb128 0x13
 10634 0372 02       		.uleb128 0x2
 10635 0373 17       		.uleb128 0x17
 10636 0374 00       		.byte	0
 10637 0375 00       		.byte	0
 10638 0376 3F       		.uleb128 0x3f
 10639 0377 898201   		.uleb128 0x4109
 10640 037a 01       		.byte	0x1
 10641 037b 11       		.uleb128 0x11
ARM GAS  C:\Users\rdn\AppData\Local\Temp\ccCxUcqe.s 			page 213


 10642 037c 01       		.uleb128 0x1
 10643 037d 9342     		.uleb128 0x2113
 10644 037f 18       		.uleb128 0x18
 10645 0380 01       		.uleb128 0x1
 10646 0381 13       		.uleb128 0x13
 10647 0382 00       		.byte	0
 10648 0383 00       		.byte	0
 10649 0384 40       		.uleb128 0x40
 10650 0385 15       		.uleb128 0x15
 10651 0386 01       		.byte	0x1
 10652 0387 27       		.uleb128 0x27
 10653 0388 19       		.uleb128 0x19
 10654 0389 01       		.uleb128 0x1
 10655 038a 13       		.uleb128 0x13
 10656 038b 00       		.byte	0
 10657 038c 00       		.byte	0
 10658 038d 41       		.uleb128 0x41
 10659 038e 05       		.uleb128 0x5
 10660 038f 00       		.byte	0
 10661 0390 49       		.uleb128 0x49
 10662 0391 13       		.uleb128 0x13
 10663 0392 00       		.byte	0
 10664 0393 00       		.byte	0
 10665 0394 42       		.uleb128 0x42
 10666 0395 34       		.uleb128 0x34
 10667 0396 00       		.byte	0
 10668 0397 03       		.uleb128 0x3
 10669 0398 0E       		.uleb128 0xe
 10670 0399 3A       		.uleb128 0x3a
 10671 039a 0B       		.uleb128 0xb
 10672 039b 3B       		.uleb128 0x3b
 10673 039c 0B       		.uleb128 0xb
 10674 039d 49       		.uleb128 0x49
 10675 039e 13       		.uleb128 0x13
 10676 039f 3F       		.uleb128 0x3f
 10677 03a0 19       		.uleb128 0x19
 10678 03a1 3C       		.uleb128 0x3c
 10679 03a2 19       		.uleb128 0x19
 10680 03a3 00       		.byte	0
 10681 03a4 00       		.byte	0
 10682 03a5 43       		.uleb128 0x43
 10683 03a6 2E       		.uleb128 0x2e
 10684 03a7 00       		.byte	0
 10685 03a8 3F       		.uleb128 0x3f
 10686 03a9 19       		.uleb128 0x19
 10687 03aa 3C       		.uleb128 0x3c
 10688 03ab 19       		.uleb128 0x19
 10689 03ac 6E       		.uleb128 0x6e
 10690 03ad 0E       		.uleb128 0xe
 10691 03ae 03       		.uleb128 0x3
 10692 03af 0E       		.uleb128 0xe
 10693 03b0 3A       		.uleb128 0x3a
 10694 03b1 0B       		.uleb128 0xb
 10695 03b2 3B       		.uleb128 0x3b
 10696 03b3 0B       		.uleb128 0xb
 10697 03b4 00       		.byte	0
 10698 03b5 00       		.byte	0
ARM GAS  C:\Users\rdn\AppData\Local\Temp\ccCxUcqe.s 			page 214


 10699 03b6 44       		.uleb128 0x44
 10700 03b7 2E       		.uleb128 0x2e
 10701 03b8 00       		.byte	0
 10702 03b9 3F       		.uleb128 0x3f
 10703 03ba 19       		.uleb128 0x19
 10704 03bb 3C       		.uleb128 0x3c
 10705 03bc 19       		.uleb128 0x19
 10706 03bd 6E       		.uleb128 0x6e
 10707 03be 0E       		.uleb128 0xe
 10708 03bf 03       		.uleb128 0x3
 10709 03c0 0E       		.uleb128 0xe
 10710 03c1 00       		.byte	0
 10711 03c2 00       		.byte	0
 10712 03c3 45       		.uleb128 0x45
 10713 03c4 2E       		.uleb128 0x2e
 10714 03c5 00       		.byte	0
 10715 03c6 3F       		.uleb128 0x3f
 10716 03c7 19       		.uleb128 0x19
 10717 03c8 3C       		.uleb128 0x3c
 10718 03c9 19       		.uleb128 0x19
 10719 03ca 6E       		.uleb128 0x6e
 10720 03cb 0E       		.uleb128 0xe
 10721 03cc 03       		.uleb128 0x3
 10722 03cd 0E       		.uleb128 0xe
 10723 03ce 3A       		.uleb128 0x3a
 10724 03cf 0B       		.uleb128 0xb
 10725 03d0 3B       		.uleb128 0x3b
 10726 03d1 05       		.uleb128 0x5
 10727 03d2 00       		.byte	0
 10728 03d3 00       		.byte	0
 10729 03d4 00       		.byte	0
 10730              		.section	.debug_loc,"",%progbits
 10731              	.Ldebug_loc0:
 10732              	.LLST0:
 10733 0000 00000000 		.4byte	.LVL0
 10734 0004 24000000 		.4byte	.LVL1
 10735 0008 0100     		.2byte	0x1
 10736 000a 50       		.byte	0x50
 10737 000b 24000000 		.4byte	.LVL1
 10738 000f 26000000 		.4byte	.LVL2
 10739 0013 0400     		.2byte	0x4
 10740 0015 F3       		.byte	0xf3
 10741 0016 01       		.uleb128 0x1
 10742 0017 50       		.byte	0x50
 10743 0018 9F       		.byte	0x9f
 10744 0019 26000000 		.4byte	.LVL2
 10745 001d 28000000 		.4byte	.LVL3
 10746 0021 0100     		.2byte	0x1
 10747 0023 50       		.byte	0x50
 10748 0024 28000000 		.4byte	.LVL3
 10749 0028 2A000000 		.4byte	.LVL4
 10750 002c 0400     		.2byte	0x4
 10751 002e F3       		.byte	0xf3
 10752 002f 01       		.uleb128 0x1
 10753 0030 50       		.byte	0x50
 10754 0031 9F       		.byte	0x9f
 10755 0032 2A000000 		.4byte	.LVL4
ARM GAS  C:\Users\rdn\AppData\Local\Temp\ccCxUcqe.s 			page 215


 10756 0036 2C000000 		.4byte	.LVL5
 10757 003a 0100     		.2byte	0x1
 10758 003c 50       		.byte	0x50
 10759 003d 2C000000 		.4byte	.LVL5
 10760 0041 2E000000 		.4byte	.LVL6
 10761 0045 0400     		.2byte	0x4
 10762 0047 F3       		.byte	0xf3
 10763 0048 01       		.uleb128 0x1
 10764 0049 50       		.byte	0x50
 10765 004a 9F       		.byte	0x9f
 10766 004b 2E000000 		.4byte	.LVL6
 10767 004f 30000000 		.4byte	.LVL7
 10768 0053 0100     		.2byte	0x1
 10769 0055 50       		.byte	0x50
 10770 0056 30000000 		.4byte	.LVL7
 10771 005a 32000000 		.4byte	.LVL8
 10772 005e 0400     		.2byte	0x4
 10773 0060 F3       		.byte	0xf3
 10774 0061 01       		.uleb128 0x1
 10775 0062 50       		.byte	0x50
 10776 0063 9F       		.byte	0x9f
 10777 0064 32000000 		.4byte	.LVL8
 10778 0068 34000000 		.4byte	.LVL9
 10779 006c 0100     		.2byte	0x1
 10780 006e 50       		.byte	0x50
 10781 006f 34000000 		.4byte	.LVL9
 10782 0073 36000000 		.4byte	.LFE20
 10783 0077 0400     		.2byte	0x4
 10784 0079 F3       		.byte	0xf3
 10785 007a 01       		.uleb128 0x1
 10786 007b 50       		.byte	0x50
 10787 007c 9F       		.byte	0x9f
 10788 007d 00000000 		.4byte	0
 10789 0081 00000000 		.4byte	0
 10790              	.LLST1:
 10791 0085 00000000 		.4byte	.LVL10
 10792 0089 42000000 		.4byte	.LVL11
 10793 008d 0100     		.2byte	0x1
 10794 008f 50       		.byte	0x50
 10795 0090 42000000 		.4byte	.LVL11
 10796 0094 44000000 		.4byte	.LVL12
 10797 0098 0400     		.2byte	0x4
 10798 009a F3       		.byte	0xf3
 10799 009b 01       		.uleb128 0x1
 10800 009c 50       		.byte	0x50
 10801 009d 9F       		.byte	0x9f
 10802 009e 44000000 		.4byte	.LVL12
 10803 00a2 46000000 		.4byte	.LVL13
 10804 00a6 0100     		.2byte	0x1
 10805 00a8 50       		.byte	0x50
 10806 00a9 46000000 		.4byte	.LVL13
 10807 00ad 48000000 		.4byte	.LVL14
 10808 00b1 0400     		.2byte	0x4
 10809 00b3 F3       		.byte	0xf3
 10810 00b4 01       		.uleb128 0x1
 10811 00b5 50       		.byte	0x50
 10812 00b6 9F       		.byte	0x9f
ARM GAS  C:\Users\rdn\AppData\Local\Temp\ccCxUcqe.s 			page 216


 10813 00b7 48000000 		.4byte	.LVL14
 10814 00bb 4A000000 		.4byte	.LVL15
 10815 00bf 0100     		.2byte	0x1
 10816 00c1 50       		.byte	0x50
 10817 00c2 4A000000 		.4byte	.LVL15
 10818 00c6 4C000000 		.4byte	.LVL16
 10819 00ca 0400     		.2byte	0x4
 10820 00cc F3       		.byte	0xf3
 10821 00cd 01       		.uleb128 0x1
 10822 00ce 50       		.byte	0x50
 10823 00cf 9F       		.byte	0x9f
 10824 00d0 4C000000 		.4byte	.LVL16
 10825 00d4 4E000000 		.4byte	.LVL17
 10826 00d8 0100     		.2byte	0x1
 10827 00da 50       		.byte	0x50
 10828 00db 4E000000 		.4byte	.LVL17
 10829 00df 50000000 		.4byte	.LVL18
 10830 00e3 0400     		.2byte	0x4
 10831 00e5 F3       		.byte	0xf3
 10832 00e6 01       		.uleb128 0x1
 10833 00e7 50       		.byte	0x50
 10834 00e8 9F       		.byte	0x9f
 10835 00e9 50000000 		.4byte	.LVL18
 10836 00ed 52000000 		.4byte	.LVL19
 10837 00f1 0100     		.2byte	0x1
 10838 00f3 50       		.byte	0x50
 10839 00f4 52000000 		.4byte	.LVL19
 10840 00f8 54000000 		.4byte	.LVL20
 10841 00fc 0400     		.2byte	0x4
 10842 00fe F3       		.byte	0xf3
 10843 00ff 01       		.uleb128 0x1
 10844 0100 50       		.byte	0x50
 10845 0101 9F       		.byte	0x9f
 10846 0102 54000000 		.4byte	.LVL20
 10847 0106 56000000 		.4byte	.LVL21
 10848 010a 0100     		.2byte	0x1
 10849 010c 50       		.byte	0x50
 10850 010d 56000000 		.4byte	.LVL21
 10851 0111 58000000 		.4byte	.LVL22
 10852 0115 0400     		.2byte	0x4
 10853 0117 F3       		.byte	0xf3
 10854 0118 01       		.uleb128 0x1
 10855 0119 50       		.byte	0x50
 10856 011a 9F       		.byte	0x9f
 10857 011b 58000000 		.4byte	.LVL22
 10858 011f 5A000000 		.4byte	.LVL23
 10859 0123 0100     		.2byte	0x1
 10860 0125 50       		.byte	0x50
 10861 0126 5A000000 		.4byte	.LVL23
 10862 012a 5C000000 		.4byte	.LVL24
 10863 012e 0400     		.2byte	0x4
 10864 0130 F3       		.byte	0xf3
 10865 0131 01       		.uleb128 0x1
 10866 0132 50       		.byte	0x50
 10867 0133 9F       		.byte	0x9f
 10868 0134 5C000000 		.4byte	.LVL24
 10869 0138 5E000000 		.4byte	.LVL25
ARM GAS  C:\Users\rdn\AppData\Local\Temp\ccCxUcqe.s 			page 217


 10870 013c 0100     		.2byte	0x1
 10871 013e 50       		.byte	0x50
 10872 013f 5E000000 		.4byte	.LVL25
 10873 0143 60000000 		.4byte	.LVL26
 10874 0147 0400     		.2byte	0x4
 10875 0149 F3       		.byte	0xf3
 10876 014a 01       		.uleb128 0x1
 10877 014b 50       		.byte	0x50
 10878 014c 9F       		.byte	0x9f
 10879 014d 60000000 		.4byte	.LVL26
 10880 0151 62000000 		.4byte	.LVL27
 10881 0155 0100     		.2byte	0x1
 10882 0157 50       		.byte	0x50
 10883 0158 62000000 		.4byte	.LVL27
 10884 015c 68000000 		.4byte	.LFE21
 10885 0160 0400     		.2byte	0x4
 10886 0162 F3       		.byte	0xf3
 10887 0163 01       		.uleb128 0x1
 10888 0164 50       		.byte	0x50
 10889 0165 9F       		.byte	0x9f
 10890 0166 00000000 		.4byte	0
 10891 016a 00000000 		.4byte	0
 10892              	.LLST2:
 10893 016e 00000000 		.4byte	.LVL28
 10894 0172 1A000000 		.4byte	.LVL34
 10895 0176 0100     		.2byte	0x1
 10896 0178 50       		.byte	0x50
 10897 0179 1A000000 		.4byte	.LVL34
 10898 017d 52000000 		.4byte	.LVL40
 10899 0181 0400     		.2byte	0x4
 10900 0183 74       		.byte	0x74
 10901 0184 D476     		.sleb128 -1196
 10902 0186 9F       		.byte	0x9f
 10903 0187 52000000 		.4byte	.LVL40
 10904 018b 58000000 		.4byte	.LFE32
 10905 018f 0400     		.2byte	0x4
 10906 0191 F3       		.byte	0xf3
 10907 0192 01       		.uleb128 0x1
 10908 0193 50       		.byte	0x50
 10909 0194 9F       		.byte	0x9f
 10910 0195 00000000 		.4byte	0
 10911 0199 00000000 		.4byte	0
 10912              	.LLST3:
 10913 019d 00000000 		.4byte	.LVL28
 10914 01a1 26000000 		.4byte	.LVL37
 10915 01a5 0100     		.2byte	0x1
 10916 01a7 51       		.byte	0x51
 10917 01a8 26000000 		.4byte	.LVL37
 10918 01ac 58000000 		.4byte	.LFE32
 10919 01b0 0400     		.2byte	0x4
 10920 01b2 F3       		.byte	0xf3
 10921 01b3 01       		.uleb128 0x1
 10922 01b4 51       		.byte	0x51
 10923 01b5 9F       		.byte	0x9f
 10924 01b6 00000000 		.4byte	0
 10925 01ba 00000000 		.4byte	0
 10926              	.LLST4:
ARM GAS  C:\Users\rdn\AppData\Local\Temp\ccCxUcqe.s 			page 218


 10927 01be 04000000 		.4byte	.LVL30
 10928 01c2 24000000 		.4byte	.LVL36
 10929 01c6 0100     		.2byte	0x1
 10930 01c8 53       		.byte	0x53
 10931 01c9 24000000 		.4byte	.LVL36
 10932 01cd 26000000 		.4byte	.LVL37
 10933 01d1 0300     		.2byte	0x3
 10934 01d3 74       		.byte	0x74
 10935 01d4 D476     		.sleb128 -1196
 10936 01d6 00000000 		.4byte	0
 10937 01da 00000000 		.4byte	0
 10938              	.LLST5:
 10939 01de 06000000 		.4byte	.LVL31
 10940 01e2 26000000 		.4byte	.LVL37
 10941 01e6 0100     		.2byte	0x1
 10942 01e8 55       		.byte	0x55
 10943 01e9 00000000 		.4byte	0
 10944 01ed 00000000 		.4byte	0
 10945              	.LLST6:
 10946 01f1 12000000 		.4byte	.LVL32
 10947 01f5 52000000 		.4byte	.LVL40
 10948 01f9 0600     		.2byte	0x6
 10949 01fb 74       		.byte	0x74
 10950 01fc 00       		.sleb128 0
 10951 01fd 7E       		.byte	0x7e
 10952 01fe 00       		.sleb128 0
 10953 01ff 22       		.byte	0x22
 10954 0200 9F       		.byte	0x9f
 10955 0201 52000000 		.4byte	.LVL40
 10956 0205 58000000 		.4byte	.LFE32
 10957 0209 0A00     		.2byte	0xa
 10958 020b F3       		.byte	0xf3
 10959 020c 01       		.uleb128 0x1
 10960 020d 50       		.byte	0x50
 10961 020e 7E       		.byte	0x7e
 10962 020f 00       		.sleb128 0
 10963 0210 22       		.byte	0x22
 10964 0211 23       		.byte	0x23
 10965 0212 AC09     		.uleb128 0x4ac
 10966 0214 9F       		.byte	0x9f
 10967 0215 00000000 		.4byte	0
 10968 0219 00000000 		.4byte	0
 10969              	.LLST7:
 10970 021d 18000000 		.4byte	.LVL33
 10971 0221 52000000 		.4byte	.LVL40
 10972 0225 0600     		.2byte	0x6
 10973 0227 74       		.byte	0x74
 10974 0228 00       		.sleb128 0
 10975 0229 77       		.byte	0x77
 10976 022a 00       		.sleb128 0
 10977 022b 22       		.byte	0x22
 10978 022c 9F       		.byte	0x9f
 10979 022d 00000000 		.4byte	0
 10980 0231 00000000 		.4byte	0
 10981              	.LLST8:
 10982 0235 18000000 		.4byte	.LVL33
 10983 0239 22000000 		.4byte	.LVL35
ARM GAS  C:\Users\rdn\AppData\Local\Temp\ccCxUcqe.s 			page 219


 10984 023d 0100     		.2byte	0x1
 10985 023f 55       		.byte	0x55
 10986 0240 00000000 		.4byte	0
 10987 0244 00000000 		.4byte	0
 10988              	.LLST9:
 10989 0248 18000000 		.4byte	.LVL33
 10990 024c 22000000 		.4byte	.LVL35
 10991 0250 0100     		.2byte	0x1
 10992 0252 53       		.byte	0x53
 10993 0253 00000000 		.4byte	0
 10994 0257 00000000 		.4byte	0
 10995              	.LLST10:
 10996 025b 22000000 		.4byte	.LVL35
 10997 025f 26000000 		.4byte	.LVL37
 10998 0263 0200     		.2byte	0x2
 10999 0265 30       		.byte	0x30
 11000 0266 9F       		.byte	0x9f
 11001 0267 26000000 		.4byte	.LVL37
 11002 026b 58000000 		.4byte	.LFE32
 11003 026f 0100     		.2byte	0x1
 11004 0271 53       		.byte	0x53
 11005 0272 00000000 		.4byte	0
 11006 0276 00000000 		.4byte	0
 11007              	.LLST11:
 11008 027a 00000000 		.4byte	.LVL41
 11009 027e 1A000000 		.4byte	.LVL47
 11010 0282 0100     		.2byte	0x1
 11011 0284 50       		.byte	0x50
 11012 0285 1A000000 		.4byte	.LVL47
 11013 0289 5A000000 		.4byte	.LVL57
 11014 028d 0400     		.2byte	0x4
 11015 028f 75       		.byte	0x75
 11016 0290 D476     		.sleb128 -1196
 11017 0292 9F       		.byte	0x9f
 11018 0293 5A000000 		.4byte	.LVL57
 11019 0297 60000000 		.4byte	.LFE33
 11020 029b 0400     		.2byte	0x4
 11021 029d F3       		.byte	0xf3
 11022 029e 01       		.uleb128 0x1
 11023 029f 50       		.byte	0x50
 11024 02a0 9F       		.byte	0x9f
 11025 02a1 00000000 		.4byte	0
 11026 02a5 00000000 		.4byte	0
 11027              	.LLST12:
 11028 02a9 00000000 		.4byte	.LVL41
 11029 02ad 26000000 		.4byte	.LVL49
 11030 02b1 0100     		.2byte	0x1
 11031 02b3 51       		.byte	0x51
 11032 02b4 26000000 		.4byte	.LVL49
 11033 02b8 60000000 		.4byte	.LFE33
 11034 02bc 0400     		.2byte	0x4
 11035 02be F3       		.byte	0xf3
 11036 02bf 01       		.uleb128 0x1
 11037 02c0 51       		.byte	0x51
 11038 02c1 9F       		.byte	0x9f
 11039 02c2 00000000 		.4byte	0
 11040 02c6 00000000 		.4byte	0
ARM GAS  C:\Users\rdn\AppData\Local\Temp\ccCxUcqe.s 			page 220


 11041              	.LLST13:
 11042 02ca 04000000 		.4byte	.LVL43
 11043 02ce 26000000 		.4byte	.LVL49
 11044 02d2 0100     		.2byte	0x1
 11045 02d4 53       		.byte	0x53
 11046 02d5 00000000 		.4byte	0
 11047 02d9 00000000 		.4byte	0
 11048              	.LLST14:
 11049 02dd 06000000 		.4byte	.LVL44
 11050 02e1 26000000 		.4byte	.LVL49
 11051 02e5 0100     		.2byte	0x1
 11052 02e7 54       		.byte	0x54
 11053 02e8 00000000 		.4byte	0
 11054 02ec 00000000 		.4byte	0
 11055              	.LLST15:
 11056 02f0 12000000 		.4byte	.LVL45
 11057 02f4 5A000000 		.4byte	.LVL57
 11058 02f8 0600     		.2byte	0x6
 11059 02fa 75       		.byte	0x75
 11060 02fb 00       		.sleb128 0
 11061 02fc 7E       		.byte	0x7e
 11062 02fd 00       		.sleb128 0
 11063 02fe 22       		.byte	0x22
 11064 02ff 9F       		.byte	0x9f
 11065 0300 5A000000 		.4byte	.LVL57
 11066 0304 60000000 		.4byte	.LFE33
 11067 0308 0A00     		.2byte	0xa
 11068 030a F3       		.byte	0xf3
 11069 030b 01       		.uleb128 0x1
 11070 030c 50       		.byte	0x50
 11071 030d 7E       		.byte	0x7e
 11072 030e 00       		.sleb128 0
 11073 030f 22       		.byte	0x22
 11074 0310 23       		.byte	0x23
 11075 0311 AC09     		.uleb128 0x4ac
 11076 0313 9F       		.byte	0x9f
 11077 0314 00000000 		.4byte	0
 11078 0318 00000000 		.4byte	0
 11079              	.LLST16:
 11080 031c 18000000 		.4byte	.LVL46
 11081 0320 5A000000 		.4byte	.LVL57
 11082 0324 0600     		.2byte	0x6
 11083 0326 75       		.byte	0x75
 11084 0327 00       		.sleb128 0
 11085 0328 77       		.byte	0x77
 11086 0329 00       		.sleb128 0
 11087 032a 22       		.byte	0x22
 11088 032b 9F       		.byte	0x9f
 11089 032c 00000000 		.4byte	0
 11090 0330 00000000 		.4byte	0
 11091              	.LLST17:
 11092 0334 18000000 		.4byte	.LVL46
 11093 0338 22000000 		.4byte	.LVL48
 11094 033c 0100     		.2byte	0x1
 11095 033e 54       		.byte	0x54
 11096 033f 00000000 		.4byte	0
 11097 0343 00000000 		.4byte	0
ARM GAS  C:\Users\rdn\AppData\Local\Temp\ccCxUcqe.s 			page 221


 11098              	.LLST18:
 11099 0347 18000000 		.4byte	.LVL46
 11100 034b 22000000 		.4byte	.LVL48
 11101 034f 0100     		.2byte	0x1
 11102 0351 53       		.byte	0x53
 11103 0352 00000000 		.4byte	0
 11104 0356 00000000 		.4byte	0
 11105              	.LLST19:
 11106 035a 22000000 		.4byte	.LVL48
 11107 035e 26000000 		.4byte	.LVL49
 11108 0362 0200     		.2byte	0x2
 11109 0364 30       		.byte	0x30
 11110 0365 9F       		.byte	0x9f
 11111 0366 26000000 		.4byte	.LVL49
 11112 036a 60000000 		.4byte	.LFE33
 11113 036e 0100     		.2byte	0x1
 11114 0370 50       		.byte	0x50
 11115 0371 00000000 		.4byte	0
 11116 0375 00000000 		.4byte	0
 11117              	.LLST20:
 11118 0379 36000000 		.4byte	.LVL51
 11119 037d 4C000000 		.4byte	.LVL54
 11120 0381 0300     		.2byte	0x3
 11121 0383 09       		.byte	0x9
 11122 0384 F8       		.byte	0xf8
 11123 0385 9F       		.byte	0x9f
 11124 0386 00000000 		.4byte	0
 11125 038a 00000000 		.4byte	0
 11126              	.LLST21:
 11127 038e 36000000 		.4byte	.LVL51
 11128 0392 3E000000 		.4byte	.LVL52
 11129 0396 0800     		.2byte	0x8
 11130 0398 71       		.byte	0x71
 11131 0399 00       		.sleb128 0
 11132 039a 06       		.byte	0x6
 11133 039b F7       		.byte	0xf7
 11134 039c 25       		.uleb128 0x25
 11135 039d F7       		.byte	0xf7
 11136 039e 2C       		.uleb128 0x2c
 11137 039f 9F       		.byte	0x9f
 11138 03a0 3E000000 		.4byte	.LVL52
 11139 03a4 4C000000 		.4byte	.LVL54
 11140 03a8 0200     		.2byte	0x2
 11141 03aa 90       		.byte	0x90
 11142 03ab 4F       		.uleb128 0x4f
 11143 03ac 00000000 		.4byte	0
 11144 03b0 00000000 		.4byte	0
 11145              	.LLST22:
 11146 03b4 26000000 		.4byte	.LVL49
 11147 03b8 2A000000 		.4byte	.LVL50
 11148 03bc 0100     		.2byte	0x1
 11149 03be 53       		.byte	0x53
 11150 03bf 42000000 		.4byte	.LVL53
 11151 03c3 60000000 		.4byte	.LFE33
 11152 03c7 0100     		.2byte	0x1
 11153 03c9 53       		.byte	0x53
 11154 03ca 00000000 		.4byte	0
ARM GAS  C:\Users\rdn\AppData\Local\Temp\ccCxUcqe.s 			page 222


 11155 03ce 00000000 		.4byte	0
 11156              	.LLST23:
 11157 03d2 00000000 		.4byte	.LVL58
 11158 03d6 1A000000 		.4byte	.LVL64
 11159 03da 0100     		.2byte	0x1
 11160 03dc 50       		.byte	0x50
 11161 03dd 1A000000 		.4byte	.LVL64
 11162 03e1 6E000000 		.4byte	.LVL75
 11163 03e5 0400     		.2byte	0x4
 11164 03e7 75       		.byte	0x75
 11165 03e8 D476     		.sleb128 -1196
 11166 03ea 9F       		.byte	0x9f
 11167 03eb 6E000000 		.4byte	.LVL75
 11168 03ef 74000000 		.4byte	.LFE34
 11169 03f3 0400     		.2byte	0x4
 11170 03f5 F3       		.byte	0xf3
 11171 03f6 01       		.uleb128 0x1
 11172 03f7 50       		.byte	0x50
 11173 03f8 9F       		.byte	0x9f
 11174 03f9 00000000 		.4byte	0
 11175 03fd 00000000 		.4byte	0
 11176              	.LLST24:
 11177 0401 00000000 		.4byte	.LVL58
 11178 0405 26000000 		.4byte	.LVL66
 11179 0409 0100     		.2byte	0x1
 11180 040b 51       		.byte	0x51
 11181 040c 26000000 		.4byte	.LVL66
 11182 0410 74000000 		.4byte	.LFE34
 11183 0414 0400     		.2byte	0x4
 11184 0416 F3       		.byte	0xf3
 11185 0417 01       		.uleb128 0x1
 11186 0418 51       		.byte	0x51
 11187 0419 9F       		.byte	0x9f
 11188 041a 00000000 		.4byte	0
 11189 041e 00000000 		.4byte	0
 11190              	.LLST25:
 11191 0422 04000000 		.4byte	.LVL60
 11192 0426 26000000 		.4byte	.LVL66
 11193 042a 0100     		.2byte	0x1
 11194 042c 53       		.byte	0x53
 11195 042d 00000000 		.4byte	0
 11196 0431 00000000 		.4byte	0
 11197              	.LLST26:
 11198 0435 06000000 		.4byte	.LVL61
 11199 0439 26000000 		.4byte	.LVL66
 11200 043d 0100     		.2byte	0x1
 11201 043f 54       		.byte	0x54
 11202 0440 00000000 		.4byte	0
 11203 0444 00000000 		.4byte	0
 11204              	.LLST27:
 11205 0448 12000000 		.4byte	.LVL62
 11206 044c 6E000000 		.4byte	.LVL75
 11207 0450 0600     		.2byte	0x6
 11208 0452 75       		.byte	0x75
 11209 0453 00       		.sleb128 0
 11210 0454 7E       		.byte	0x7e
 11211 0455 00       		.sleb128 0
ARM GAS  C:\Users\rdn\AppData\Local\Temp\ccCxUcqe.s 			page 223


 11212 0456 22       		.byte	0x22
 11213 0457 9F       		.byte	0x9f
 11214 0458 6E000000 		.4byte	.LVL75
 11215 045c 74000000 		.4byte	.LFE34
 11216 0460 0A00     		.2byte	0xa
 11217 0462 F3       		.byte	0xf3
 11218 0463 01       		.uleb128 0x1
 11219 0464 50       		.byte	0x50
 11220 0465 7E       		.byte	0x7e
 11221 0466 00       		.sleb128 0
 11222 0467 22       		.byte	0x22
 11223 0468 23       		.byte	0x23
 11224 0469 AC09     		.uleb128 0x4ac
 11225 046b 9F       		.byte	0x9f
 11226 046c 00000000 		.4byte	0
 11227 0470 00000000 		.4byte	0
 11228              	.LLST28:
 11229 0474 18000000 		.4byte	.LVL63
 11230 0478 6E000000 		.4byte	.LVL75
 11231 047c 0600     		.2byte	0x6
 11232 047e 75       		.byte	0x75
 11233 047f 00       		.sleb128 0
 11234 0480 77       		.byte	0x77
 11235 0481 00       		.sleb128 0
 11236 0482 22       		.byte	0x22
 11237 0483 9F       		.byte	0x9f
 11238 0484 00000000 		.4byte	0
 11239 0488 00000000 		.4byte	0
 11240              	.LLST29:
 11241 048c 18000000 		.4byte	.LVL63
 11242 0490 22000000 		.4byte	.LVL65
 11243 0494 0100     		.2byte	0x1
 11244 0496 54       		.byte	0x54
 11245 0497 00000000 		.4byte	0
 11246 049b 00000000 		.4byte	0
 11247              	.LLST30:
 11248 049f 18000000 		.4byte	.LVL63
 11249 04a3 22000000 		.4byte	.LVL65
 11250 04a7 0100     		.2byte	0x1
 11251 04a9 53       		.byte	0x53
 11252 04aa 00000000 		.4byte	0
 11253 04ae 00000000 		.4byte	0
 11254              	.LLST31:
 11255 04b2 22000000 		.4byte	.LVL65
 11256 04b6 26000000 		.4byte	.LVL66
 11257 04ba 0200     		.2byte	0x2
 11258 04bc 30       		.byte	0x30
 11259 04bd 9F       		.byte	0x9f
 11260 04be 26000000 		.4byte	.LVL66
 11261 04c2 74000000 		.4byte	.LFE34
 11262 04c6 0100     		.2byte	0x1
 11263 04c8 50       		.byte	0x50
 11264 04c9 00000000 		.4byte	0
 11265 04cd 00000000 		.4byte	0
 11266              	.LLST32:
 11267 04d1 36000000 		.4byte	.LVL67
 11268 04d5 54000000 		.4byte	.LVL70
ARM GAS  C:\Users\rdn\AppData\Local\Temp\ccCxUcqe.s 			page 224


 11269 04d9 0100     		.2byte	0x1
 11270 04db 53       		.byte	0x53
 11271 04dc 00000000 		.4byte	0
 11272 04e0 00000000 		.4byte	0
 11273              	.LLST33:
 11274 04e4 48000000 		.4byte	.LVL68
 11275 04e8 5E000000 		.4byte	.LVL71
 11276 04ec 0300     		.2byte	0x3
 11277 04ee 09       		.byte	0x9
 11278 04ef F0       		.byte	0xf0
 11279 04f0 9F       		.byte	0x9f
 11280 04f1 00000000 		.4byte	0
 11281 04f5 00000000 		.4byte	0
 11282              	.LLST34:
 11283 04f9 48000000 		.4byte	.LVL68
 11284 04fd 50000000 		.4byte	.LVL69
 11285 0501 0700     		.2byte	0x7
 11286 0503 73       		.byte	0x73
 11287 0504 00       		.sleb128 0
 11288 0505 F7       		.byte	0xf7
 11289 0506 25       		.uleb128 0x25
 11290 0507 F7       		.byte	0xf7
 11291 0508 2C       		.uleb128 0x2c
 11292 0509 9F       		.byte	0x9f
 11293 050a 50000000 		.4byte	.LVL69
 11294 050e 5E000000 		.4byte	.LVL71
 11295 0512 0200     		.2byte	0x2
 11296 0514 90       		.byte	0x90
 11297 0515 4F       		.uleb128 0x4f
 11298 0516 00000000 		.4byte	0
 11299 051a 00000000 		.4byte	0
 11300              	.LLST35:
 11301 051e 54000000 		.4byte	.LVL70
 11302 0522 66000000 		.4byte	.LVL73
 11303 0526 0100     		.2byte	0x1
 11304 0528 53       		.byte	0x53
 11305 0529 00000000 		.4byte	0
 11306 052d 00000000 		.4byte	0
 11307              	.LLST36:
 11308 0531 00000000 		.4byte	.LVL76
 11309 0535 1C000000 		.4byte	.LVL82
 11310 0539 0100     		.2byte	0x1
 11311 053b 50       		.byte	0x50
 11312 053c 1C000000 		.4byte	.LVL82
 11313 0540 7C000000 		.4byte	.LFE35
 11314 0544 0400     		.2byte	0x4
 11315 0546 7C       		.byte	0x7c
 11316 0547 D476     		.sleb128 -1196
 11317 0549 9F       		.byte	0x9f
 11318 054a 00000000 		.4byte	0
 11319 054e 00000000 		.4byte	0
 11320              	.LLST37:
 11321 0552 00000000 		.4byte	.LVL76
 11322 0556 28000000 		.4byte	.LVL84
 11323 055a 0100     		.2byte	0x1
 11324 055c 51       		.byte	0x51
 11325 055d 28000000 		.4byte	.LVL84
ARM GAS  C:\Users\rdn\AppData\Local\Temp\ccCxUcqe.s 			page 225


 11326 0561 7C000000 		.4byte	.LFE35
 11327 0565 0400     		.2byte	0x4
 11328 0567 F3       		.byte	0xf3
 11329 0568 01       		.uleb128 0x1
 11330 0569 51       		.byte	0x51
 11331 056a 9F       		.byte	0x9f
 11332 056b 00000000 		.4byte	0
 11333 056f 00000000 		.4byte	0
 11334              	.LLST38:
 11335 0573 04000000 		.4byte	.LVL78
 11336 0577 28000000 		.4byte	.LVL84
 11337 057b 0100     		.2byte	0x1
 11338 057d 53       		.byte	0x53
 11339 057e 00000000 		.4byte	0
 11340 0582 00000000 		.4byte	0
 11341              	.LLST39:
 11342 0586 06000000 		.4byte	.LVL79
 11343 058a 28000000 		.4byte	.LVL84
 11344 058e 0100     		.2byte	0x1
 11345 0590 54       		.byte	0x54
 11346 0591 00000000 		.4byte	0
 11347 0595 00000000 		.4byte	0
 11348              	.LLST40:
 11349 0599 1A000000 		.4byte	.LVL81
 11350 059d 74000000 		.4byte	.LVL92
 11351 05a1 0100     		.2byte	0x1
 11352 05a3 57       		.byte	0x57
 11353 05a4 00000000 		.4byte	0
 11354 05a8 00000000 		.4byte	0
 11355              	.LLST41:
 11356 05ac 1A000000 		.4byte	.LVL81
 11357 05b0 24000000 		.4byte	.LVL83
 11358 05b4 0100     		.2byte	0x1
 11359 05b6 54       		.byte	0x54
 11360 05b7 00000000 		.4byte	0
 11361 05bb 00000000 		.4byte	0
 11362              	.LLST42:
 11363 05bf 1A000000 		.4byte	.LVL81
 11364 05c3 24000000 		.4byte	.LVL83
 11365 05c7 0100     		.2byte	0x1
 11366 05c9 53       		.byte	0x53
 11367 05ca 00000000 		.4byte	0
 11368 05ce 00000000 		.4byte	0
 11369              	.LLST43:
 11370 05d2 24000000 		.4byte	.LVL83
 11371 05d6 28000000 		.4byte	.LVL84
 11372 05da 0200     		.2byte	0x2
 11373 05dc 30       		.byte	0x30
 11374 05dd 9F       		.byte	0x9f
 11375 05de 28000000 		.4byte	.LVL84
 11376 05e2 7C000000 		.4byte	.LFE35
 11377 05e6 0100     		.2byte	0x1
 11378 05e8 50       		.byte	0x50
 11379 05e9 00000000 		.4byte	0
 11380 05ed 00000000 		.4byte	0
 11381              	.LLST44:
 11382 05f1 2E000000 		.4byte	.LVL85
ARM GAS  C:\Users\rdn\AppData\Local\Temp\ccCxUcqe.s 			page 226


 11383 05f5 3E000000 		.4byte	.LVL88
 11384 05f9 0200     		.2byte	0x2
 11385 05fb 3F       		.byte	0x3f
 11386 05fc 9F       		.byte	0x9f
 11387 05fd 00000000 		.4byte	0
 11388 0601 00000000 		.4byte	0
 11389              	.LLST45:
 11390 0605 2E000000 		.4byte	.LVL85
 11391 0609 3E000000 		.4byte	.LVL88
 11392 060d 0200     		.2byte	0x2
 11393 060f 71       		.byte	0x71
 11394 0610 00       		.sleb128 0
 11395 0611 00000000 		.4byte	0
 11396 0615 00000000 		.4byte	0
 11397              	.LLST46:
 11398 0619 30000000 		.4byte	.LVL86
 11399 061d 40000000 		.4byte	.LVL89
 11400 0621 0100     		.2byte	0x1
 11401 0623 53       		.byte	0x53
 11402 0624 00000000 		.4byte	0
 11403 0628 00000000 		.4byte	0
 11404              	.LLST47:
 11405 062c 00000000 		.4byte	.LVL93
 11406 0630 1E000000 		.4byte	.LVL100
 11407 0634 0100     		.2byte	0x1
 11408 0636 50       		.byte	0x50
 11409 0637 1E000000 		.4byte	.LVL100
 11410 063b 80000000 		.4byte	.LFE43
 11411 063f 0400     		.2byte	0x4
 11412 0641 F3       		.byte	0xf3
 11413 0642 01       		.uleb128 0x1
 11414 0643 50       		.byte	0x50
 11415 0644 9F       		.byte	0x9f
 11416 0645 00000000 		.4byte	0
 11417 0649 00000000 		.4byte	0
 11418              	.LLST48:
 11419 064d 00000000 		.4byte	.LVL93
 11420 0651 1E000000 		.4byte	.LVL100
 11421 0655 0100     		.2byte	0x1
 11422 0657 51       		.byte	0x51
 11423 0658 1E000000 		.4byte	.LVL100
 11424 065c 80000000 		.4byte	.LFE43
 11425 0660 0400     		.2byte	0x4
 11426 0662 F3       		.byte	0xf3
 11427 0663 01       		.uleb128 0x1
 11428 0664 51       		.byte	0x51
 11429 0665 9F       		.byte	0x9f
 11430 0666 00000000 		.4byte	0
 11431 066a 00000000 		.4byte	0
 11432              	.LLST49:
 11433 066e 04000000 		.4byte	.LVL95
 11434 0672 76000000 		.4byte	.LVL108
 11435 0676 0100     		.2byte	0x1
 11436 0678 56       		.byte	0x56
 11437 0679 00000000 		.4byte	0
 11438 067d 00000000 		.4byte	0
 11439              	.LLST50:
ARM GAS  C:\Users\rdn\AppData\Local\Temp\ccCxUcqe.s 			page 227


 11440 0681 06000000 		.4byte	.LVL96
 11441 0685 18000000 		.4byte	.LVL98
 11442 0689 0100     		.2byte	0x1
 11443 068b 54       		.byte	0x54
 11444 068c 18000000 		.4byte	.LVL98
 11445 0690 1E000000 		.4byte	.LVL100
 11446 0694 0200     		.2byte	0x2
 11447 0696 70       		.byte	0x70
 11448 0697 02       		.sleb128 2
 11449 0698 00000000 		.4byte	0
 11450 069c 00000000 		.4byte	0
 11451              	.LLST51:
 11452 06a0 12000000 		.4byte	.LVL97
 11453 06a4 76000000 		.4byte	.LVL108
 11454 06a8 0100     		.2byte	0x1
 11455 06aa 55       		.byte	0x55
 11456 06ab 00000000 		.4byte	0
 11457 06af 00000000 		.4byte	0
 11458              	.LLST52:
 11459 06b3 1E000000 		.4byte	.LVL100
 11460 06b7 76000000 		.4byte	.LVL108
 11461 06bb 0100     		.2byte	0x1
 11462 06bd 54       		.byte	0x54
 11463 06be 00000000 		.4byte	0
 11464 06c2 00000000 		.4byte	0
 11465              	.LLST53:
 11466 06c6 12000000 		.4byte	.LVL97
 11467 06ca 18000000 		.4byte	.LVL98
 11468 06ce 0100     		.2byte	0x1
 11469 06d0 54       		.byte	0x54
 11470 06d1 18000000 		.4byte	.LVL98
 11471 06d5 1C000000 		.4byte	.LVL99
 11472 06d9 0200     		.2byte	0x2
 11473 06db 70       		.byte	0x70
 11474 06dc 02       		.sleb128 2
 11475 06dd 00000000 		.4byte	0
 11476 06e1 00000000 		.4byte	0
 11477              	.LLST54:
 11478 06e5 12000000 		.4byte	.LVL97
 11479 06e9 1C000000 		.4byte	.LVL99
 11480 06ed 0100     		.2byte	0x1
 11481 06ef 56       		.byte	0x56
 11482 06f0 00000000 		.4byte	0
 11483 06f4 00000000 		.4byte	0
 11484              	.LLST55:
 11485 06f8 4E000000 		.4byte	.LVL101
 11486 06fc 5E000000 		.4byte	.LVL102
 11487 0700 0100     		.2byte	0x1
 11488 0702 53       		.byte	0x53
 11489 0703 62000000 		.4byte	.LVL103
 11490 0707 66000000 		.4byte	.LVL104
 11491 070b 0100     		.2byte	0x1
 11492 070d 53       		.byte	0x53
 11493 070e 00000000 		.4byte	0
 11494 0712 00000000 		.4byte	0
 11495              	.LLST56:
 11496 0716 00000000 		.4byte	.LVL109
ARM GAS  C:\Users\rdn\AppData\Local\Temp\ccCxUcqe.s 			page 228


 11497 071a 18000000 		.4byte	.LVL114
 11498 071e 0100     		.2byte	0x1
 11499 0720 50       		.byte	0x50
 11500 0721 18000000 		.4byte	.LVL114
 11501 0725 A8000000 		.4byte	.LFE44
 11502 0729 0400     		.2byte	0x4
 11503 072b F3       		.byte	0xf3
 11504 072c 01       		.uleb128 0x1
 11505 072d 50       		.byte	0x50
 11506 072e 9F       		.byte	0x9f
 11507 072f 00000000 		.4byte	0
 11508 0733 00000000 		.4byte	0
 11509              	.LLST57:
 11510 0737 00000000 		.4byte	.LVL109
 11511 073b 1E000000 		.4byte	.LVL116
 11512 073f 0100     		.2byte	0x1
 11513 0741 51       		.byte	0x51
 11514 0742 1E000000 		.4byte	.LVL116
 11515 0746 A8000000 		.4byte	.LFE44
 11516 074a 0400     		.2byte	0x4
 11517 074c F3       		.byte	0xf3
 11518 074d 01       		.uleb128 0x1
 11519 074e 51       		.byte	0x51
 11520 074f 9F       		.byte	0x9f
 11521 0750 00000000 		.4byte	0
 11522 0754 00000000 		.4byte	0
 11523              	.LLST58:
 11524 0758 04000000 		.4byte	.LVL111
 11525 075c 1E000000 		.4byte	.LVL116
 11526 0760 0100     		.2byte	0x1
 11527 0762 55       		.byte	0x55
 11528 0763 00000000 		.4byte	0
 11529 0767 00000000 		.4byte	0
 11530              	.LLST59:
 11531 076b 06000000 		.4byte	.LVL112
 11532 076f 94000000 		.4byte	.LVL133
 11533 0773 0100     		.2byte	0x1
 11534 0775 56       		.byte	0x56
 11535 0776 00000000 		.4byte	0
 11536 077a 00000000 		.4byte	0
 11537              	.LLST60:
 11538 077e 12000000 		.4byte	.LVL113
 11539 0782 94000000 		.4byte	.LVL133
 11540 0786 0100     		.2byte	0x1
 11541 0788 54       		.byte	0x54
 11542 0789 00000000 		.4byte	0
 11543 078d 00000000 		.4byte	0
 11544              	.LLST61:
 11545 0791 12000000 		.4byte	.LVL113
 11546 0795 1C000000 		.4byte	.LVL115
 11547 0799 0100     		.2byte	0x1
 11548 079b 56       		.byte	0x56
 11549 079c 00000000 		.4byte	0
 11550 07a0 00000000 		.4byte	0
 11551              	.LLST62:
 11552 07a4 12000000 		.4byte	.LVL113
 11553 07a8 1C000000 		.4byte	.LVL115
ARM GAS  C:\Users\rdn\AppData\Local\Temp\ccCxUcqe.s 			page 229


 11554 07ac 0100     		.2byte	0x1
 11555 07ae 55       		.byte	0x55
 11556 07af 00000000 		.4byte	0
 11557 07b3 00000000 		.4byte	0
 11558              	.LLST63:
 11559 07b7 72000000 		.4byte	.LVL126
 11560 07bb 80000000 		.4byte	.LVL127
 11561 07bf 0100     		.2byte	0x1
 11562 07c1 53       		.byte	0x53
 11563 07c2 82000000 		.4byte	.LVL128
 11564 07c6 84000000 		.4byte	.LVL129
 11565 07ca 0100     		.2byte	0x1
 11566 07cc 53       		.byte	0x53
 11567 07cd 00000000 		.4byte	0
 11568 07d1 00000000 		.4byte	0
 11569              	.LLST64:
 11570 07d5 2C000000 		.4byte	.LVL117
 11571 07d9 3E000000 		.4byte	.LVL120
 11572 07dd 0200     		.2byte	0x2
 11573 07df 38       		.byte	0x38
 11574 07e0 9F       		.byte	0x9f
 11575 07e1 00000000 		.4byte	0
 11576 07e5 00000000 		.4byte	0
 11577              	.LLST65:
 11578 07e9 2C000000 		.4byte	.LVL117
 11579 07ed 3E000000 		.4byte	.LVL120
 11580 07f1 0200     		.2byte	0x2
 11581 07f3 90       		.byte	0x90
 11582 07f4 4F       		.uleb128 0x4f
 11583 07f5 00000000 		.4byte	0
 11584 07f9 00000000 		.4byte	0
 11585              	.LLST66:
 11586 07fd 30000000 		.4byte	.LVL118
 11587 0801 4E000000 		.4byte	.LVL121
 11588 0805 0100     		.2byte	0x1
 11589 0807 53       		.byte	0x53
 11590 0808 00000000 		.4byte	0
 11591 080c 00000000 		.4byte	0
 11592              	.LLST67:
 11593 0810 50000000 		.4byte	.LVL122
 11594 0814 62000000 		.4byte	.LVL125
 11595 0818 0200     		.2byte	0x2
 11596 081a 38       		.byte	0x38
 11597 081b 9F       		.byte	0x9f
 11598 081c 00000000 		.4byte	0
 11599 0820 00000000 		.4byte	0
 11600              	.LLST68:
 11601 0824 50000000 		.4byte	.LVL122
 11602 0828 62000000 		.4byte	.LVL125
 11603 082c 0200     		.2byte	0x2
 11604 082e 90       		.byte	0x90
 11605 082f 4F       		.uleb128 0x4f
 11606 0830 00000000 		.4byte	0
 11607 0834 00000000 		.4byte	0
 11608              	.LLST69:
 11609 0838 54000000 		.4byte	.LVL123
 11610 083c 72000000 		.4byte	.LVL126
ARM GAS  C:\Users\rdn\AppData\Local\Temp\ccCxUcqe.s 			page 230


 11611 0840 0100     		.2byte	0x1
 11612 0842 53       		.byte	0x53
 11613 0843 00000000 		.4byte	0
 11614 0847 00000000 		.4byte	0
 11615              	.LLST70:
 11616 084b 00000000 		.4byte	.LVL134
 11617 084f 0E000000 		.4byte	.LVL138
 11618 0853 0100     		.2byte	0x1
 11619 0855 50       		.byte	0x50
 11620 0856 0E000000 		.4byte	.LVL138
 11621 085a 12000000 		.4byte	.LVL139
 11622 085e 0400     		.2byte	0x4
 11623 0860 75       		.byte	0x75
 11624 0861 C87E     		.sleb128 -184
 11625 0863 9F       		.byte	0x9f
 11626 0864 12000000 		.4byte	.LVL139
 11627 0868 B0000000 		.4byte	.LFE45
 11628 086c 0400     		.2byte	0x4
 11629 086e F3       		.byte	0xf3
 11630 086f 01       		.uleb128 0x1
 11631 0870 50       		.byte	0x50
 11632 0871 9F       		.byte	0x9f
 11633 0872 00000000 		.4byte	0
 11634 0876 00000000 		.4byte	0
 11635              	.LLST71:
 11636 087a 00000000 		.4byte	.LVL134
 11637 087e 1E000000 		.4byte	.LVL142
 11638 0882 0100     		.2byte	0x1
 11639 0884 51       		.byte	0x51
 11640 0885 1E000000 		.4byte	.LVL142
 11641 0889 B0000000 		.4byte	.LFE45
 11642 088d 0400     		.2byte	0x4
 11643 088f F3       		.byte	0xf3
 11644 0890 01       		.uleb128 0x1
 11645 0891 51       		.byte	0x51
 11646 0892 9F       		.byte	0x9f
 11647 0893 00000000 		.4byte	0
 11648 0897 00000000 		.4byte	0
 11649              	.LLST72:
 11650 089b 04000000 		.4byte	.LVL136
 11651 089f 1E000000 		.4byte	.LVL142
 11652 08a3 0100     		.2byte	0x1
 11653 08a5 53       		.byte	0x53
 11654 08a6 00000000 		.4byte	0
 11655 08aa 00000000 		.4byte	0
 11656              	.LLST73:
 11657 08ae 06000000 		.4byte	.LVL137
 11658 08b2 18000000 		.4byte	.LVL140
 11659 08b6 0100     		.2byte	0x1
 11660 08b8 54       		.byte	0x54
 11661 08b9 18000000 		.4byte	.LVL140
 11662 08bd 1E000000 		.4byte	.LVL142
 11663 08c1 0500     		.2byte	0x5
 11664 08c3 F3       		.byte	0xf3
 11665 08c4 01       		.uleb128 0x1
 11666 08c5 50       		.byte	0x50
 11667 08c6 23       		.byte	0x23
ARM GAS  C:\Users\rdn\AppData\Local\Temp\ccCxUcqe.s 			page 231


 11668 08c7 02       		.uleb128 0x2
 11669 08c8 00000000 		.4byte	0
 11670 08cc 00000000 		.4byte	0
 11671              	.LLST74:
 11672 08d0 12000000 		.4byte	.LVL139
 11673 08d4 9E000000 		.4byte	.LVL160
 11674 08d8 0100     		.2byte	0x1
 11675 08da 55       		.byte	0x55
 11676 08db 00000000 		.4byte	0
 11677 08df 00000000 		.4byte	0
 11678              	.LLST75:
 11679 08e3 1E000000 		.4byte	.LVL142
 11680 08e7 9E000000 		.4byte	.LVL160
 11681 08eb 0100     		.2byte	0x1
 11682 08ed 54       		.byte	0x54
 11683 08ee 00000000 		.4byte	0
 11684 08f2 00000000 		.4byte	0
 11685              	.LLST76:
 11686 08f6 12000000 		.4byte	.LVL139
 11687 08fa 18000000 		.4byte	.LVL140
 11688 08fe 0100     		.2byte	0x1
 11689 0900 54       		.byte	0x54
 11690 0901 18000000 		.4byte	.LVL140
 11691 0905 1C000000 		.4byte	.LVL141
 11692 0909 0500     		.2byte	0x5
 11693 090b F3       		.byte	0xf3
 11694 090c 01       		.uleb128 0x1
 11695 090d 50       		.byte	0x50
 11696 090e 23       		.byte	0x23
 11697 090f 02       		.uleb128 0x2
 11698 0910 00000000 		.4byte	0
 11699 0914 00000000 		.4byte	0
 11700              	.LLST77:
 11701 0918 12000000 		.4byte	.LVL139
 11702 091c 1C000000 		.4byte	.LVL141
 11703 0920 0100     		.2byte	0x1
 11704 0922 53       		.byte	0x53
 11705 0923 00000000 		.4byte	0
 11706 0927 00000000 		.4byte	0
 11707              	.LLST78:
 11708 092b 72000000 		.4byte	.LVL152
 11709 092f 80000000 		.4byte	.LVL153
 11710 0933 0100     		.2byte	0x1
 11711 0935 53       		.byte	0x53
 11712 0936 82000000 		.4byte	.LVL154
 11713 093a 8C000000 		.4byte	.LVL156
 11714 093e 0100     		.2byte	0x1
 11715 0940 53       		.byte	0x53
 11716 0941 00000000 		.4byte	0
 11717 0945 00000000 		.4byte	0
 11718              	.LLST79:
 11719 0949 2C000000 		.4byte	.LVL143
 11720 094d 3E000000 		.4byte	.LVL146
 11721 0951 0200     		.2byte	0x2
 11722 0953 38       		.byte	0x38
 11723 0954 9F       		.byte	0x9f
 11724 0955 00000000 		.4byte	0
ARM GAS  C:\Users\rdn\AppData\Local\Temp\ccCxUcqe.s 			page 232


 11725 0959 00000000 		.4byte	0
 11726              	.LLST80:
 11727 095d 2C000000 		.4byte	.LVL143
 11728 0961 3E000000 		.4byte	.LVL146
 11729 0965 0200     		.2byte	0x2
 11730 0967 90       		.byte	0x90
 11731 0968 4F       		.uleb128 0x4f
 11732 0969 00000000 		.4byte	0
 11733 096d 00000000 		.4byte	0
 11734              	.LLST81:
 11735 0971 30000000 		.4byte	.LVL144
 11736 0975 4E000000 		.4byte	.LVL147
 11737 0979 0100     		.2byte	0x1
 11738 097b 53       		.byte	0x53
 11739 097c 00000000 		.4byte	0
 11740 0980 00000000 		.4byte	0
 11741              	.LLST82:
 11742 0984 50000000 		.4byte	.LVL148
 11743 0988 62000000 		.4byte	.LVL151
 11744 098c 0200     		.2byte	0x2
 11745 098e 38       		.byte	0x38
 11746 098f 9F       		.byte	0x9f
 11747 0990 00000000 		.4byte	0
 11748 0994 00000000 		.4byte	0
 11749              	.LLST83:
 11750 0998 50000000 		.4byte	.LVL148
 11751 099c 62000000 		.4byte	.LVL151
 11752 09a0 0200     		.2byte	0x2
 11753 09a2 90       		.byte	0x90
 11754 09a3 4F       		.uleb128 0x4f
 11755 09a4 00000000 		.4byte	0
 11756 09a8 00000000 		.4byte	0
 11757              	.LLST84:
 11758 09ac 54000000 		.4byte	.LVL149
 11759 09b0 72000000 		.4byte	.LVL152
 11760 09b4 0100     		.2byte	0x1
 11761 09b6 53       		.byte	0x53
 11762 09b7 00000000 		.4byte	0
 11763 09bb 00000000 		.4byte	0
 11764              	.LLST85:
 11765 09bf 04000000 		.4byte	.LVL162
 11766 09c3 30000000 		.4byte	.LVL166
 11767 09c7 0100     		.2byte	0x1
 11768 09c9 54       		.byte	0x54
 11769 09ca 30000000 		.4byte	.LVL166
 11770 09ce 48000000 		.4byte	.LFE49
 11771 09d2 0200     		.2byte	0x2
 11772 09d4 70       		.byte	0x70
 11773 09d5 00       		.sleb128 0
 11774 09d6 00000000 		.4byte	0
 11775 09da 00000000 		.4byte	0
 11776              	.LLST86:
 11777 09de 06000000 		.4byte	.LVL163
 11778 09e2 34000000 		.4byte	.LVL167
 11779 09e6 0100     		.2byte	0x1
 11780 09e8 52       		.byte	0x52
 11781 09e9 34000000 		.4byte	.LVL167
ARM GAS  C:\Users\rdn\AppData\Local\Temp\ccCxUcqe.s 			page 233


 11782 09ed 48000000 		.4byte	.LFE49
 11783 09f1 0200     		.2byte	0x2
 11784 09f3 70       		.byte	0x70
 11785 09f4 02       		.sleb128 2
 11786 09f5 00000000 		.4byte	0
 11787 09f9 00000000 		.4byte	0
 11788              	.LLST87:
 11789 09fd 06000000 		.4byte	.LVL163
 11790 0a01 22000000 		.4byte	.LVL164
 11791 0a05 0100     		.2byte	0x1
 11792 0a07 52       		.byte	0x52
 11793 0a08 00000000 		.4byte	0
 11794 0a0c 00000000 		.4byte	0
 11795              	.LLST88:
 11796 0a10 06000000 		.4byte	.LVL163
 11797 0a14 22000000 		.4byte	.LVL164
 11798 0a18 0100     		.2byte	0x1
 11799 0a1a 54       		.byte	0x54
 11800 0a1b 00000000 		.4byte	0
 11801 0a1f 00000000 		.4byte	0
 11802              	.LLST89:
 11803 0a23 22000000 		.4byte	.LVL164
 11804 0a27 2C000000 		.4byte	.LVL165
 11805 0a2b 0100     		.2byte	0x1
 11806 0a2d 52       		.byte	0x52
 11807 0a2e 00000000 		.4byte	0
 11808 0a32 00000000 		.4byte	0
 11809              	.LLST90:
 11810 0a36 22000000 		.4byte	.LVL164
 11811 0a3a 2C000000 		.4byte	.LVL165
 11812 0a3e 0100     		.2byte	0x1
 11813 0a40 54       		.byte	0x54
 11814 0a41 00000000 		.4byte	0
 11815 0a45 00000000 		.4byte	0
 11816              	.LLST91:
 11817 0a49 00000000 		.4byte	.LVL168
 11818 0a4d 42000000 		.4byte	.LVL178
 11819 0a51 0100     		.2byte	0x1
 11820 0a53 50       		.byte	0x50
 11821 0a54 42000000 		.4byte	.LVL178
 11822 0a58 FE000000 		.4byte	.LVL195
 11823 0a5c 0100     		.2byte	0x1
 11824 0a5e 54       		.byte	0x54
 11825 0a5f FE000000 		.4byte	.LVL195
 11826 0a63 14010000 		.4byte	.LVL197
 11827 0a67 0400     		.2byte	0x4
 11828 0a69 74       		.byte	0x74
 11829 0a6a E876     		.sleb128 -1176
 11830 0a6c 9F       		.byte	0x9f
 11831 0a6d 14010000 		.4byte	.LVL197
 11832 0a71 18010000 		.4byte	.LFE36
 11833 0a75 0400     		.2byte	0x4
 11834 0a77 F3       		.byte	0xf3
 11835 0a78 01       		.uleb128 0x1
 11836 0a79 50       		.byte	0x50
 11837 0a7a 9F       		.byte	0x9f
 11838 0a7b 00000000 		.4byte	0
ARM GAS  C:\Users\rdn\AppData\Local\Temp\ccCxUcqe.s 			page 234


 11839 0a7f 00000000 		.4byte	0
 11840              	.LLST92:
 11841 0a83 00000000 		.4byte	.LVL168
 11842 0a87 32000000 		.4byte	.LVL175
 11843 0a8b 0100     		.2byte	0x1
 11844 0a8d 51       		.byte	0x51
 11845 0a8e 32000000 		.4byte	.LVL175
 11846 0a92 53000000 		.4byte	.LVL181-1
 11847 0a96 0100     		.2byte	0x1
 11848 0a98 5E       		.byte	0x5e
 11849 0a99 53000000 		.4byte	.LVL181-1
 11850 0a9d 14010000 		.4byte	.LVL197
 11851 0aa1 0300     		.2byte	0x3
 11852 0aa3 91       		.byte	0x91
 11853 0aa4 D07D     		.sleb128 -304
 11854 0aa6 14010000 		.4byte	.LVL197
 11855 0aaa 18010000 		.4byte	.LFE36
 11856 0aae 0300     		.2byte	0x3
 11857 0ab0 7D       		.byte	0x7d
 11858 0ab1 D07D     		.sleb128 -304
 11859 0ab3 00000000 		.4byte	0
 11860 0ab7 00000000 		.4byte	0
 11861              	.LLST93:
 11862 0abb 00000000 		.4byte	.LVL168
 11863 0abf 20000000 		.4byte	.LVL172
 11864 0ac3 0100     		.2byte	0x1
 11865 0ac5 52       		.byte	0x52
 11866 0ac6 20000000 		.4byte	.LVL172
 11867 0aca F6000000 		.4byte	.LVL194
 11868 0ace 0100     		.2byte	0x1
 11869 0ad0 57       		.byte	0x57
 11870 0ad1 F6000000 		.4byte	.LVL194
 11871 0ad5 14010000 		.4byte	.LVL197
 11872 0ad9 0400     		.2byte	0x4
 11873 0adb 77       		.byte	0x77
 11874 0adc 887F     		.sleb128 -120
 11875 0ade 9F       		.byte	0x9f
 11876 0adf 14010000 		.4byte	.LVL197
 11877 0ae3 18010000 		.4byte	.LFE36
 11878 0ae7 0700     		.2byte	0x7
 11879 0ae9 7D       		.byte	0x7d
 11880 0aea D47D     		.sleb128 -300
 11881 0aec 06       		.byte	0x6
 11882 0aed 34       		.byte	0x34
 11883 0aee 1C       		.byte	0x1c
 11884 0aef 9F       		.byte	0x9f
 11885 0af0 00000000 		.4byte	0
 11886 0af4 00000000 		.4byte	0
 11887              	.LLST94:
 11888 0af8 10000000 		.4byte	.LVL169
 11889 0afc 14010000 		.4byte	.LVL197
 11890 0b00 0100     		.2byte	0x1
 11891 0b02 55       		.byte	0x55
 11892 0b03 00000000 		.4byte	0
 11893 0b07 00000000 		.4byte	0
 11894              	.LLST95:
 11895 0b0b 14000000 		.4byte	.LVL170
ARM GAS  C:\Users\rdn\AppData\Local\Temp\ccCxUcqe.s 			page 235


 11896 0b0f 14010000 		.4byte	.LVL197
 11897 0b13 0300     		.2byte	0x3
 11898 0b15 91       		.byte	0x91
 11899 0b16 C47D     		.sleb128 -316
 11900 0b18 14010000 		.4byte	.LVL197
 11901 0b1c 18010000 		.4byte	.LFE36
 11902 0b20 0300     		.2byte	0x3
 11903 0b22 7D       		.byte	0x7d
 11904 0b23 C47D     		.sleb128 -316
 11905 0b25 00000000 		.4byte	0
 11906 0b29 00000000 		.4byte	0
 11907              	.LLST96:
 11908 0b2d 18000000 		.4byte	.LVL171
 11909 0b31 D2000000 		.4byte	.LVL191
 11910 0b35 0100     		.2byte	0x1
 11911 0b37 5A       		.byte	0x5a
 11912 0b38 00000000 		.4byte	0
 11913 0b3c 00000000 		.4byte	0
 11914              	.LLST97:
 11915 0b40 24000000 		.4byte	.LVL173
 11916 0b44 8E000000 		.4byte	.LVL185
 11917 0b48 0100     		.2byte	0x1
 11918 0b4a 58       		.byte	0x58
 11919 0b4b 00000000 		.4byte	0
 11920 0b4f 00000000 		.4byte	0
 11921              	.LLST98:
 11922 0b53 2C000000 		.4byte	.LVL174
 11923 0b57 14010000 		.4byte	.LVL197
 11924 0b5b 0100     		.2byte	0x1
 11925 0b5d 56       		.byte	0x56
 11926 0b5e 00000000 		.4byte	0
 11927 0b62 00000000 		.4byte	0
 11928              	.LLST99:
 11929 0b66 44000000 		.4byte	.LVL179
 11930 0b6a 50000000 		.4byte	.LVL180
 11931 0b6e 0100     		.2byte	0x1
 11932 0b70 50       		.byte	0x50
 11933 0b71 50000000 		.4byte	.LVL180
 11934 0b75 14010000 		.4byte	.LVL197
 11935 0b79 0300     		.2byte	0x3
 11936 0b7b 91       		.byte	0x91
 11937 0b7c C87D     		.sleb128 -312
 11938 0b7e 14010000 		.4byte	.LVL197
 11939 0b82 18010000 		.4byte	.LFE36
 11940 0b86 0300     		.2byte	0x3
 11941 0b88 7D       		.byte	0x7d
 11942 0b89 C87D     		.sleb128 -312
 11943 0b8b 00000000 		.4byte	0
 11944 0b8f 00000000 		.4byte	0
 11945              	.LLST100:
 11946 0b93 44000000 		.4byte	.LVL179
 11947 0b97 14010000 		.4byte	.LVL197
 11948 0b9b 0100     		.2byte	0x1
 11949 0b9d 56       		.byte	0x56
 11950 0b9e 00000000 		.4byte	0
 11951 0ba2 00000000 		.4byte	0
 11952              	.LLST101:
ARM GAS  C:\Users\rdn\AppData\Local\Temp\ccCxUcqe.s 			page 236


 11953 0ba6 56000000 		.4byte	.LVL182
 11954 0baa 14010000 		.4byte	.LVL197
 11955 0bae 0300     		.2byte	0x3
 11956 0bb0 91       		.byte	0x91
 11957 0bb1 CC7D     		.sleb128 -308
 11958 0bb3 14010000 		.4byte	.LVL197
 11959 0bb7 18010000 		.4byte	.LFE36
 11960 0bbb 0300     		.2byte	0x3
 11961 0bbd 7D       		.byte	0x7d
 11962 0bbe CC7D     		.sleb128 -308
 11963 0bc0 00000000 		.4byte	0
 11964 0bc4 00000000 		.4byte	0
 11965              	.LLST102:
 11966 0bc8 A4000000 		.4byte	.LVL187
 11967 0bcc AA000000 		.4byte	.LVL188
 11968 0bd0 0100     		.2byte	0x1
 11969 0bd2 50       		.byte	0x50
 11970 0bd3 00000000 		.4byte	0
 11971 0bd7 00000000 		.4byte	0
 11972              	.LLST103:
 11973 0bdb 2C000000 		.4byte	.LVL174
 11974 0bdf 36000000 		.4byte	.LVL176
 11975 0be3 0100     		.2byte	0x1
 11976 0be5 5A       		.byte	0x5a
 11977 0be6 00000000 		.4byte	0
 11978 0bea 00000000 		.4byte	0
 11979              	.LLST104:
 11980 0bee 2C000000 		.4byte	.LVL174
 11981 0bf2 36000000 		.4byte	.LVL176
 11982 0bf6 0100     		.2byte	0x1
 11983 0bf8 55       		.byte	0x55
 11984 0bf9 00000000 		.4byte	0
 11985 0bfd 00000000 		.4byte	0
 11986              	.LLST105:
 11987 0c01 36000000 		.4byte	.LVL176
 11988 0c05 3A000000 		.4byte	.LVL177
 11989 0c09 0100     		.2byte	0x1
 11990 0c0b 5A       		.byte	0x5a
 11991 0c0c 00000000 		.4byte	0
 11992 0c10 00000000 		.4byte	0
 11993              	.LLST106:
 11994 0c14 00000000 		.4byte	.LVL198
 11995 0c18 2A000000 		.4byte	.LVL206
 11996 0c1c 0100     		.2byte	0x1
 11997 0c1e 50       		.byte	0x50
 11998 0c1f 2A000000 		.4byte	.LVL206
 11999 0c23 A2000000 		.4byte	.LFE37
 12000 0c27 0400     		.2byte	0x4
 12001 0c29 F3       		.byte	0xf3
 12002 0c2a 01       		.uleb128 0x1
 12003 0c2b 50       		.byte	0x50
 12004 0c2c 9F       		.byte	0x9f
 12005 0c2d 00000000 		.4byte	0
 12006 0c31 00000000 		.4byte	0
 12007              	.LLST107:
 12008 0c35 00000000 		.4byte	.LVL198
 12009 0c39 28000000 		.4byte	.LVL205
ARM GAS  C:\Users\rdn\AppData\Local\Temp\ccCxUcqe.s 			page 237


 12010 0c3d 0100     		.2byte	0x1
 12011 0c3f 51       		.byte	0x51
 12012 0c40 28000000 		.4byte	.LVL205
 12013 0c44 A2000000 		.4byte	.LFE37
 12014 0c48 0100     		.2byte	0x1
 12015 0c4a 54       		.byte	0x54
 12016 0c4b 00000000 		.4byte	0
 12017 0c4f 00000000 		.4byte	0
 12018              	.LLST108:
 12019 0c53 00000000 		.4byte	.LVL198
 12020 0c57 0C000000 		.4byte	.LVL199
 12021 0c5b 0100     		.2byte	0x1
 12022 0c5d 52       		.byte	0x52
 12023 0c5e 0C000000 		.4byte	.LVL199
 12024 0c62 A2000000 		.4byte	.LFE37
 12025 0c66 0100     		.2byte	0x1
 12026 0c68 59       		.byte	0x59
 12027 0c69 00000000 		.4byte	0
 12028 0c6d 00000000 		.4byte	0
 12029              	.LLST109:
 12030 0c71 00000000 		.4byte	.LVL198
 12031 0c75 16000000 		.4byte	.LVL202
 12032 0c79 0100     		.2byte	0x1
 12033 0c7b 53       		.byte	0x53
 12034 0c7c 16000000 		.4byte	.LVL202
 12035 0c80 2D000000 		.4byte	.LVL207-1
 12036 0c84 0100     		.2byte	0x1
 12037 0c86 52       		.byte	0x52
 12038 0c87 2D000000 		.4byte	.LVL207-1
 12039 0c8b A2000000 		.4byte	.LFE37
 12040 0c8f 0400     		.2byte	0x4
 12041 0c91 F3       		.byte	0xf3
 12042 0c92 01       		.uleb128 0x1
 12043 0c93 53       		.byte	0x53
 12044 0c94 9F       		.byte	0x9f
 12045 0c95 00000000 		.4byte	0
 12046 0c99 00000000 		.4byte	0
 12047              	.LLST110:
 12048 0c9d 50000000 		.4byte	.LVL211
 12049 0ca1 5A000000 		.4byte	.LVL212
 12050 0ca5 0100     		.2byte	0x1
 12051 0ca7 51       		.byte	0x51
 12052 0ca8 5A000000 		.4byte	.LVL212
 12053 0cac 60000000 		.4byte	.LVL213
 12054 0cb0 0800     		.2byte	0x8
 12055 0cb2 74       		.byte	0x74
 12056 0cb3 01       		.sleb128 1
 12057 0cb4 94       		.byte	0x94
 12058 0cb5 01       		.byte	0x1
 12059 0cb6 08       		.byte	0x8
 12060 0cb7 FF       		.byte	0xff
 12061 0cb8 1A       		.byte	0x1a
 12062 0cb9 9F       		.byte	0x9f
 12063 0cba 64000000 		.4byte	.LVL214
 12064 0cbe 6B000000 		.4byte	.LVL216-1
 12065 0cc2 0100     		.2byte	0x1
 12066 0cc4 51       		.byte	0x51
ARM GAS  C:\Users\rdn\AppData\Local\Temp\ccCxUcqe.s 			page 238


 12067 0cc5 00000000 		.4byte	0
 12068 0cc9 00000000 		.4byte	0
 12069              	.LLST111:
 12070 0ccd 50000000 		.4byte	.LVL211
 12071 0cd1 68000000 		.4byte	.LVL215
 12072 0cd5 0400     		.2byte	0x4
 12073 0cd7 91       		.byte	0x91
 12074 0cd8 A87F     		.sleb128 -88
 12075 0cda 9F       		.byte	0x9f
 12076 0cdb 68000000 		.4byte	.LVL215
 12077 0cdf 6B000000 		.4byte	.LVL216-1
 12078 0ce3 0100     		.2byte	0x1
 12079 0ce5 50       		.byte	0x50
 12080 0ce6 6B000000 		.4byte	.LVL216-1
 12081 0cea 6C000000 		.4byte	.LVL216
 12082 0cee 0400     		.2byte	0x4
 12083 0cf0 91       		.byte	0x91
 12084 0cf1 A87F     		.sleb128 -88
 12085 0cf3 9F       		.byte	0x9f
 12086 0cf4 00000000 		.4byte	0
 12087 0cf8 00000000 		.4byte	0
 12088              	.LLST112:
 12089 0cfc 50000000 		.4byte	.LVL211
 12090 0d00 6C000000 		.4byte	.LVL216
 12091 0d04 0200     		.2byte	0x2
 12092 0d06 31       		.byte	0x31
 12093 0d07 9F       		.byte	0x9f
 12094 0d08 00000000 		.4byte	0
 12095 0d0c 00000000 		.4byte	0
 12096              	.LLST115:
 12097 0d10 00000000 		.4byte	.LVL221
 12098 0d14 3C000000 		.4byte	.LVL230
 12099 0d18 0100     		.2byte	0x1
 12100 0d1a 50       		.byte	0x50
 12101 0d1b 3C000000 		.4byte	.LVL230
 12102 0d1f F8000000 		.4byte	.LFE47
 12103 0d23 0400     		.2byte	0x4
 12104 0d25 F3       		.byte	0xf3
 12105 0d26 01       		.uleb128 0x1
 12106 0d27 50       		.byte	0x50
 12107 0d28 9F       		.byte	0x9f
 12108 0d29 00000000 		.4byte	0
 12109 0d2d 00000000 		.4byte	0
 12110              	.LLST116:
 12111 0d31 00000000 		.4byte	.LVL221
 12112 0d35 3A000000 		.4byte	.LVL229
 12113 0d39 0100     		.2byte	0x1
 12114 0d3b 51       		.byte	0x51
 12115 0d3c 3A000000 		.4byte	.LVL229
 12116 0d40 3F000000 		.4byte	.LVL231-1
 12117 0d44 0100     		.2byte	0x1
 12118 0d46 52       		.byte	0x52
 12119 0d47 3F000000 		.4byte	.LVL231-1
 12120 0d4b F8000000 		.4byte	.LFE47
 12121 0d4f 0400     		.2byte	0x4
 12122 0d51 F3       		.byte	0xf3
 12123 0d52 01       		.uleb128 0x1
ARM GAS  C:\Users\rdn\AppData\Local\Temp\ccCxUcqe.s 			page 239


 12124 0d53 51       		.byte	0x51
 12125 0d54 9F       		.byte	0x9f
 12126 0d55 00000000 		.4byte	0
 12127 0d59 00000000 		.4byte	0
 12128              	.LLST117:
 12129 0d5d 00000000 		.4byte	.LVL221
 12130 0d61 18000000 		.4byte	.LVL225
 12131 0d65 0100     		.2byte	0x1
 12132 0d67 52       		.byte	0x52
 12133 0d68 18000000 		.4byte	.LVL225
 12134 0d6c EE000000 		.4byte	.LVL250
 12135 0d70 0100     		.2byte	0x1
 12136 0d72 5A       		.byte	0x5a
 12137 0d73 EE000000 		.4byte	.LVL250
 12138 0d77 F8000000 		.4byte	.LFE47
 12139 0d7b 0400     		.2byte	0x4
 12140 0d7d F3       		.byte	0xf3
 12141 0d7e 01       		.uleb128 0x1
 12142 0d7f 52       		.byte	0x52
 12143 0d80 9F       		.byte	0x9f
 12144 0d81 00000000 		.4byte	0
 12145 0d85 00000000 		.4byte	0
 12146              	.LLST118:
 12147 0d89 00000000 		.4byte	.LVL221
 12148 0d8d 14000000 		.4byte	.LVL224
 12149 0d91 0100     		.2byte	0x1
 12150 0d93 53       		.byte	0x53
 12151 0d94 14000000 		.4byte	.LVL224
 12152 0d98 EE000000 		.4byte	.LVL250
 12153 0d9c 0100     		.2byte	0x1
 12154 0d9e 56       		.byte	0x56
 12155 0d9f EE000000 		.4byte	.LVL250
 12156 0da3 F8000000 		.4byte	.LFE47
 12157 0da7 0400     		.2byte	0x4
 12158 0da9 F3       		.byte	0xf3
 12159 0daa 01       		.uleb128 0x1
 12160 0dab 53       		.byte	0x53
 12161 0dac 9F       		.byte	0x9f
 12162 0dad 00000000 		.4byte	0
 12163 0db1 00000000 		.4byte	0
 12164              	.LLST119:
 12165 0db5 0E000000 		.4byte	.LVL222
 12166 0db9 EE000000 		.4byte	.LVL250
 12167 0dbd 0100     		.2byte	0x1
 12168 0dbf 59       		.byte	0x59
 12169 0dc0 00000000 		.4byte	0
 12170 0dc4 00000000 		.4byte	0
 12171              	.LLST120:
 12172 0dc8 10000000 		.4byte	.LVL223
 12173 0dcc EE000000 		.4byte	.LVL250
 12174 0dd0 0100     		.2byte	0x1
 12175 0dd2 54       		.byte	0x54
 12176 0dd3 00000000 		.4byte	0
 12177 0dd7 00000000 		.4byte	0
 12178              	.LLST121:
 12179 0ddb 1C000000 		.4byte	.LVL226
 12180 0ddf EE000000 		.4byte	.LVL250
ARM GAS  C:\Users\rdn\AppData\Local\Temp\ccCxUcqe.s 			page 240


 12181 0de3 0100     		.2byte	0x1
 12182 0de5 58       		.byte	0x58
 12183 0de6 00000000 		.4byte	0
 12184 0dea 00000000 		.4byte	0
 12185              	.LLST122:
 12186 0dee 34000000 		.4byte	.LVL228
 12187 0df2 4A000000 		.4byte	.LVL232
 12188 0df6 0200     		.2byte	0x2
 12189 0df8 30       		.byte	0x30
 12190 0df9 9F       		.byte	0x9f
 12191 0dfa 4A000000 		.4byte	.LVL232
 12192 0dfe 5A000000 		.4byte	.LVL233
 12193 0e02 0100     		.2byte	0x1
 12194 0e04 50       		.byte	0x50
 12195 0e05 5E000000 		.4byte	.LVL234
 12196 0e09 70000000 		.4byte	.LVL235
 12197 0e0d 0100     		.2byte	0x1
 12198 0e0f 50       		.byte	0x50
 12199 0e10 74000000 		.4byte	.LVL236
 12200 0e14 7A000000 		.4byte	.LVL238
 12201 0e18 0100     		.2byte	0x1
 12202 0e1a 50       		.byte	0x50
 12203 0e1b A8000000 		.4byte	.LVL243
 12204 0e1f B4000000 		.4byte	.LVL244
 12205 0e23 0100     		.2byte	0x1
 12206 0e25 50       		.byte	0x50
 12207 0e26 D0000000 		.4byte	.LVL246
 12208 0e2a DE000000 		.4byte	.LVL247
 12209 0e2e 0100     		.2byte	0x1
 12210 0e30 50       		.byte	0x50
 12211 0e31 00000000 		.4byte	0
 12212 0e35 00000000 		.4byte	0
 12213              	.LLST123:
 12214 0e39 1C000000 		.4byte	.LVL226
 12215 0e3d 2A000000 		.4byte	.LVL227
 12216 0e41 0100     		.2byte	0x1
 12217 0e43 54       		.byte	0x54
 12218 0e44 00000000 		.4byte	0
 12219 0e48 00000000 		.4byte	0
 12220              	.LLST124:
 12221 0e4c 1C000000 		.4byte	.LVL226
 12222 0e50 2A000000 		.4byte	.LVL227
 12223 0e54 0100     		.2byte	0x1
 12224 0e56 59       		.byte	0x59
 12225 0e57 00000000 		.4byte	0
 12226 0e5b 00000000 		.4byte	0
 12227              	.LLST125:
 12228 0e5f 2A000000 		.4byte	.LVL227
 12229 0e63 34000000 		.4byte	.LVL228
 12230 0e67 0100     		.2byte	0x1
 12231 0e69 54       		.byte	0x54
 12232 0e6a 00000000 		.4byte	0
 12233 0e6e 00000000 		.4byte	0
 12234              	.LLST126:
 12235 0e72 2A000000 		.4byte	.LVL227
 12236 0e76 34000000 		.4byte	.LVL228
 12237 0e7a 0100     		.2byte	0x1
ARM GAS  C:\Users\rdn\AppData\Local\Temp\ccCxUcqe.s 			page 241


 12238 0e7c 59       		.byte	0x59
 12239 0e7d 00000000 		.4byte	0
 12240 0e81 00000000 		.4byte	0
 12241              	.LLST127:
 12242 0e85 78000000 		.4byte	.LVL237
 12243 0e89 92000000 		.4byte	.LVL241
 12244 0e8d 0400     		.2byte	0x4
 12245 0e8f 91       		.byte	0x91
 12246 0e90 A07F     		.sleb128 -96
 12247 0e92 9F       		.byte	0x9f
 12248 0e93 92000000 		.4byte	.LVL241
 12249 0e97 95000000 		.4byte	.LVL242-1
 12250 0e9b 0100     		.2byte	0x1
 12251 0e9d 50       		.byte	0x50
 12252 0e9e 95000000 		.4byte	.LVL242-1
 12253 0ea2 96000000 		.4byte	.LVL242
 12254 0ea6 0400     		.2byte	0x4
 12255 0ea8 91       		.byte	0x91
 12256 0ea9 A07F     		.sleb128 -96
 12257 0eab 9F       		.byte	0x9f
 12258 0eac 00000000 		.4byte	0
 12259 0eb0 00000000 		.4byte	0
 12260              	.LLST128:
 12261 0eb4 78000000 		.4byte	.LVL237
 12262 0eb8 96000000 		.4byte	.LVL242
 12263 0ebc 0200     		.2byte	0x2
 12264 0ebe 31       		.byte	0x31
 12265 0ebf 9F       		.byte	0x9f
 12266 0ec0 00000000 		.4byte	0
 12267 0ec4 00000000 		.4byte	0
 12268              	.LLST130:
 12269 0ec8 78000000 		.4byte	.LVL237
 12270 0ecc E8000000 		.4byte	.LVL249
 12271 0ed0 0400     		.2byte	0x4
 12272 0ed2 91       		.byte	0x91
 12273 0ed3 BC7F     		.sleb128 -68
 12274 0ed5 9F       		.byte	0x9f
 12275 0ed6 00000000 		.4byte	0
 12276 0eda 00000000 		.4byte	0
 12277              	.LLST131:
 12278 0ede 8A000000 		.4byte	.LVL239
 12279 0ee2 8E000000 		.4byte	.LVL240
 12280 0ee6 0100     		.2byte	0x1
 12281 0ee8 50       		.byte	0x50
 12282 0ee9 00000000 		.4byte	0
 12283 0eed 00000000 		.4byte	0
 12284              	.LLST132:
 12285 0ef1 00000000 		.4byte	.LVL251
 12286 0ef5 26000000 		.4byte	.LVL257
 12287 0ef9 0100     		.2byte	0x1
 12288 0efb 50       		.byte	0x50
 12289 0efc 26000000 		.4byte	.LVL257
 12290 0f00 FE000000 		.4byte	.LVL278
 12291 0f04 0100     		.2byte	0x1
 12292 0f06 54       		.byte	0x54
 12293 0f07 FE000000 		.4byte	.LVL278
 12294 0f0b 08010000 		.4byte	.LFE48
ARM GAS  C:\Users\rdn\AppData\Local\Temp\ccCxUcqe.s 			page 242


 12295 0f0f 0400     		.2byte	0x4
 12296 0f11 F3       		.byte	0xf3
 12297 0f12 01       		.uleb128 0x1
 12298 0f13 50       		.byte	0x50
 12299 0f14 9F       		.byte	0x9f
 12300 0f15 00000000 		.4byte	0
 12301 0f19 00000000 		.4byte	0
 12302              	.LLST133:
 12303 0f1d 00000000 		.4byte	.LVL251
 12304 0f21 63000000 		.4byte	.LVL266-1
 12305 0f25 0100     		.2byte	0x1
 12306 0f27 51       		.byte	0x51
 12307 0f28 63000000 		.4byte	.LVL266-1
 12308 0f2c 96000000 		.4byte	.LVL270
 12309 0f30 0100     		.2byte	0x1
 12310 0f32 58       		.byte	0x58
 12311 0f33 96000000 		.4byte	.LVL270
 12312 0f37 A0000000 		.4byte	.LVL272
 12313 0f3b 0100     		.2byte	0x1
 12314 0f3d 51       		.byte	0x51
 12315 0f3e A0000000 		.4byte	.LVL272
 12316 0f42 FE000000 		.4byte	.LVL278
 12317 0f46 0100     		.2byte	0x1
 12318 0f48 58       		.byte	0x58
 12319 0f49 FE000000 		.4byte	.LVL278
 12320 0f4d 08010000 		.4byte	.LFE48
 12321 0f51 0400     		.2byte	0x4
 12322 0f53 F3       		.byte	0xf3
 12323 0f54 01       		.uleb128 0x1
 12324 0f55 51       		.byte	0x51
 12325 0f56 9F       		.byte	0x9f
 12326 0f57 00000000 		.4byte	0
 12327 0f5b 00000000 		.4byte	0
 12328              	.LLST134:
 12329 0f5f 00000000 		.4byte	.LVL251
 12330 0f63 20000000 		.4byte	.LVL256
 12331 0f67 0100     		.2byte	0x1
 12332 0f69 52       		.byte	0x52
 12333 0f6a 20000000 		.4byte	.LVL256
 12334 0f6e FE000000 		.4byte	.LVL278
 12335 0f72 0200     		.2byte	0x2
 12336 0f74 91       		.byte	0x91
 12337 0f75 54       		.sleb128 -44
 12338 0f76 FE000000 		.4byte	.LVL278
 12339 0f7a 08010000 		.4byte	.LFE48
 12340 0f7e 0200     		.2byte	0x2
 12341 0f80 7D       		.byte	0x7d
 12342 0f81 54       		.sleb128 -44
 12343 0f82 00000000 		.4byte	0
 12344 0f86 00000000 		.4byte	0
 12345              	.LLST135:
 12346 0f8a 0C000000 		.4byte	.LVL252
 12347 0f8e FE000000 		.4byte	.LVL278
 12348 0f92 0100     		.2byte	0x1
 12349 0f94 56       		.byte	0x56
 12350 0f95 00000000 		.4byte	0
 12351 0f99 00000000 		.4byte	0
ARM GAS  C:\Users\rdn\AppData\Local\Temp\ccCxUcqe.s 			page 243


 12352              	.LLST136:
 12353 0f9d 0E000000 		.4byte	.LVL253
 12354 0fa1 FE000000 		.4byte	.LVL278
 12355 0fa5 0100     		.2byte	0x1
 12356 0fa7 57       		.byte	0x57
 12357 0fa8 00000000 		.4byte	0
 12358 0fac 00000000 		.4byte	0
 12359              	.LLST137:
 12360 0fb0 12000000 		.4byte	.LVL254
 12361 0fb4 FE000000 		.4byte	.LVL278
 12362 0fb8 0100     		.2byte	0x1
 12363 0fba 59       		.byte	0x59
 12364 0fbb 00000000 		.4byte	0
 12365 0fbf 00000000 		.4byte	0
 12366              	.LLST138:
 12367 0fc3 1E000000 		.4byte	.LVL255
 12368 0fc7 FE000000 		.4byte	.LVL278
 12369 0fcb 0100     		.2byte	0x1
 12370 0fcd 55       		.byte	0x55
 12371 0fce 00000000 		.4byte	0
 12372 0fd2 00000000 		.4byte	0
 12373              	.LLST139:
 12374 0fd6 3E000000 		.4byte	.LVL260
 12375 0fda 42000000 		.4byte	.LVL261
 12376 0fde 0100     		.2byte	0x1
 12377 0fe0 52       		.byte	0x52
 12378 0fe1 42000000 		.4byte	.LVL261
 12379 0fe5 FE000000 		.4byte	.LVL278
 12380 0fe9 0200     		.2byte	0x2
 12381 0feb 91       		.byte	0x91
 12382 0fec 48       		.sleb128 -56
 12383 0fed FE000000 		.4byte	.LVL278
 12384 0ff1 08010000 		.4byte	.LFE48
 12385 0ff5 0200     		.2byte	0x2
 12386 0ff7 7D       		.byte	0x7d
 12387 0ff8 48       		.sleb128 -56
 12388 0ff9 00000000 		.4byte	0
 12389 0ffd 00000000 		.4byte	0
 12390              	.LLST140:
 12391 1001 3E000000 		.4byte	.LVL260
 12392 1005 FE000000 		.4byte	.LVL278
 12393 1009 0100     		.2byte	0x1
 12394 100b 55       		.byte	0x55
 12395 100c 00000000 		.4byte	0
 12396 1010 00000000 		.4byte	0
 12397              	.LLST141:
 12398 1014 48000000 		.4byte	.LVL262
 12399 1018 60000000 		.4byte	.LVL265
 12400 101c 0100     		.2byte	0x1
 12401 101e 50       		.byte	0x50
 12402 101f 60000000 		.4byte	.LVL265
 12403 1023 96000000 		.4byte	.LVL270
 12404 1027 0200     		.2byte	0x2
 12405 1029 91       		.byte	0x91
 12406 102a 4C       		.sleb128 -52
 12407 102b 96000000 		.4byte	.LVL270
 12408 102f A2000000 		.4byte	.LVL273
ARM GAS  C:\Users\rdn\AppData\Local\Temp\ccCxUcqe.s 			page 244


 12409 1033 0100     		.2byte	0x1
 12410 1035 50       		.byte	0x50
 12411 1036 A2000000 		.4byte	.LVL273
 12412 103a FE000000 		.4byte	.LVL278
 12413 103e 0200     		.2byte	0x2
 12414 1040 91       		.byte	0x91
 12415 1041 4C       		.sleb128 -52
 12416 1042 FE000000 		.4byte	.LVL278
 12417 1046 08010000 		.4byte	.LFE48
 12418 104a 0200     		.2byte	0x2
 12419 104c 7D       		.byte	0x7d
 12420 104d 4C       		.sleb128 -52
 12421 104e 00000000 		.4byte	0
 12422 1052 00000000 		.4byte	0
 12423              	.LLST142:
 12424 1056 52000000 		.4byte	.LVL263
 12425 105a 63000000 		.4byte	.LVL266-1
 12426 105e 0100     		.2byte	0x1
 12427 1060 53       		.byte	0x53
 12428 1061 63000000 		.4byte	.LVL266-1
 12429 1065 96000000 		.4byte	.LVL270
 12430 1069 0200     		.2byte	0x2
 12431 106b 91       		.byte	0x91
 12432 106c 50       		.sleb128 -48
 12433 106d 96000000 		.4byte	.LVL270
 12434 1071 9A000000 		.4byte	.LVL271
 12435 1075 0100     		.2byte	0x1
 12436 1077 53       		.byte	0x53
 12437 1078 9A000000 		.4byte	.LVL271
 12438 107c FE000000 		.4byte	.LVL278
 12439 1080 0200     		.2byte	0x2
 12440 1082 91       		.byte	0x91
 12441 1083 50       		.sleb128 -48
 12442 1084 FE000000 		.4byte	.LVL278
 12443 1088 08010000 		.4byte	.LFE48
 12444 108c 0200     		.2byte	0x2
 12445 108e 7D       		.byte	0x7d
 12446 108f 50       		.sleb128 -48
 12447 1090 00000000 		.4byte	0
 12448 1094 00000000 		.4byte	0
 12449              	.LLST143:
 12450 1098 1E000000 		.4byte	.LVL255
 12451 109c 2A000000 		.4byte	.LVL258
 12452 10a0 0100     		.2byte	0x1
 12453 10a2 59       		.byte	0x59
 12454 10a3 00000000 		.4byte	0
 12455 10a7 00000000 		.4byte	0
 12456              	.LLST144:
 12457 10ab 1E000000 		.4byte	.LVL255
 12458 10af 2A000000 		.4byte	.LVL258
 12459 10b3 0100     		.2byte	0x1
 12460 10b5 56       		.byte	0x56
 12461 10b6 00000000 		.4byte	0
 12462 10ba 00000000 		.4byte	0
 12463              	.LLST145:
 12464 10be 2A000000 		.4byte	.LVL258
 12465 10c2 34000000 		.4byte	.LVL259
ARM GAS  C:\Users\rdn\AppData\Local\Temp\ccCxUcqe.s 			page 245


 12466 10c6 0100     		.2byte	0x1
 12467 10c8 57       		.byte	0x57
 12468 10c9 00000000 		.4byte	0
 12469 10cd 00000000 		.4byte	0
 12470              	.LLST146:
 12471 10d1 2A000000 		.4byte	.LVL258
 12472 10d5 34000000 		.4byte	.LVL259
 12473 10d9 0100     		.2byte	0x1
 12474 10db 56       		.byte	0x56
 12475 10dc 00000000 		.4byte	0
 12476 10e0 00000000 		.4byte	0
 12477              	.LLST147:
 12478 10e4 5C000000 		.4byte	.LVL264
 12479 10e8 96000000 		.4byte	.LVL270
 12480 10ec 0100     		.2byte	0x1
 12481 10ee 5B       		.byte	0x5b
 12482 10ef 00000000 		.4byte	0
 12483 10f3 00000000 		.4byte	0
 12484              	.LLST148:
 12485 10f7 00000000 		.4byte	.LVL279
 12486 10fb 22000000 		.4byte	.LVL286
 12487 10ff 0100     		.2byte	0x1
 12488 1101 50       		.byte	0x50
 12489 1102 22000000 		.4byte	.LVL286
 12490 1106 54000000 		.4byte	.LFE46
 12491 110a 0400     		.2byte	0x4
 12492 110c F3       		.byte	0xf3
 12493 110d 01       		.uleb128 0x1
 12494 110e 50       		.byte	0x50
 12495 110f 9F       		.byte	0x9f
 12496 1110 00000000 		.4byte	0
 12497 1114 00000000 		.4byte	0
 12498              	.LLST149:
 12499 1118 00000000 		.4byte	.LVL279
 12500 111c 0A000000 		.4byte	.LVL282
 12501 1120 0100     		.2byte	0x1
 12502 1122 51       		.byte	0x51
 12503 1123 0A000000 		.4byte	.LVL282
 12504 1127 22000000 		.4byte	.LVL286
 12505 112b 0100     		.2byte	0x1
 12506 112d 56       		.byte	0x56
 12507 112e 22000000 		.4byte	.LVL286
 12508 1132 54000000 		.4byte	.LFE46
 12509 1136 0400     		.2byte	0x4
 12510 1138 F3       		.byte	0xf3
 12511 1139 01       		.uleb128 0x1
 12512 113a 51       		.byte	0x51
 12513 113b 9F       		.byte	0x9f
 12514 113c 00000000 		.4byte	0
 12515 1140 00000000 		.4byte	0
 12516              	.LLST150:
 12517 1144 00000000 		.4byte	.LVL279
 12518 1148 0E000000 		.4byte	.LVL283
 12519 114c 0100     		.2byte	0x1
 12520 114e 52       		.byte	0x52
 12521 114f 0E000000 		.4byte	.LVL283
 12522 1153 4C000000 		.4byte	.LVL294
ARM GAS  C:\Users\rdn\AppData\Local\Temp\ccCxUcqe.s 			page 246


 12523 1157 0100     		.2byte	0x1
 12524 1159 57       		.byte	0x57
 12525 115a 4C000000 		.4byte	.LVL294
 12526 115e 54000000 		.4byte	.LFE46
 12527 1162 0400     		.2byte	0x4
 12528 1164 F3       		.byte	0xf3
 12529 1165 01       		.uleb128 0x1
 12530 1166 52       		.byte	0x52
 12531 1167 9F       		.byte	0x9f
 12532 1168 00000000 		.4byte	0
 12533 116c 00000000 		.4byte	0
 12534              	.LLST151:
 12535 1170 06000000 		.4byte	.LVL280
 12536 1174 0A000000 		.4byte	.LVL282
 12537 1178 0100     		.2byte	0x1
 12538 117a 51       		.byte	0x51
 12539 117b 0A000000 		.4byte	.LVL282
 12540 117f 4C000000 		.4byte	.LVL294
 12541 1183 0100     		.2byte	0x1
 12542 1185 56       		.byte	0x56
 12543 1186 00000000 		.4byte	0
 12544 118a 00000000 		.4byte	0
 12545              	.LLST152:
 12546 118e 08000000 		.4byte	.LVL281
 12547 1192 22000000 		.4byte	.LVL286
 12548 1196 0100     		.2byte	0x1
 12549 1198 53       		.byte	0x53
 12550 1199 00000000 		.4byte	0
 12551 119d 00000000 		.4byte	0
 12552              	.LLST153:
 12553 11a1 0A000000 		.4byte	.LVL282
 12554 11a5 22000000 		.4byte	.LVL286
 12555 11a9 0100     		.2byte	0x1
 12556 11ab 51       		.byte	0x51
 12557 11ac 00000000 		.4byte	0
 12558 11b0 00000000 		.4byte	0
 12559              	.LLST154:
 12560 11b4 16000000 		.4byte	.LVL284
 12561 11b8 4C000000 		.4byte	.LVL294
 12562 11bc 0100     		.2byte	0x1
 12563 11be 55       		.byte	0x55
 12564 11bf 00000000 		.4byte	0
 12565 11c3 00000000 		.4byte	0
 12566              	.LLST155:
 12567 11c7 22000000 		.4byte	.LVL286
 12568 11cb 4C000000 		.4byte	.LVL294
 12569 11cf 0100     		.2byte	0x1
 12570 11d1 54       		.byte	0x54
 12571 11d2 00000000 		.4byte	0
 12572 11d6 00000000 		.4byte	0
 12573              	.LLST156:
 12574 11da 16000000 		.4byte	.LVL284
 12575 11de 20000000 		.4byte	.LVL285
 12576 11e2 0100     		.2byte	0x1
 12577 11e4 51       		.byte	0x51
 12578 11e5 00000000 		.4byte	0
 12579 11e9 00000000 		.4byte	0
ARM GAS  C:\Users\rdn\AppData\Local\Temp\ccCxUcqe.s 			page 247


 12580              	.LLST157:
 12581 11ed 16000000 		.4byte	.LVL284
 12582 11f1 20000000 		.4byte	.LVL285
 12583 11f5 0100     		.2byte	0x1
 12584 11f7 53       		.byte	0x53
 12585 11f8 00000000 		.4byte	0
 12586 11fc 00000000 		.4byte	0
 12587              	.LLST158:
 12588 1200 22000000 		.4byte	.LVL286
 12589 1204 2E000000 		.4byte	.LVL288
 12590 1208 0300     		.2byte	0x3
 12591 120a 09       		.byte	0x9
 12592 120b F1       		.byte	0xf1
 12593 120c 9F       		.byte	0x9f
 12594 120d 00000000 		.4byte	0
 12595 1211 00000000 		.4byte	0
 12596              	.LLST159:
 12597 1215 22000000 		.4byte	.LVL286
 12598 1219 2E000000 		.4byte	.LVL288
 12599 121d 0200     		.2byte	0x2
 12600 121f 75       		.byte	0x75
 12601 1220 00       		.sleb128 0
 12602 1221 00000000 		.4byte	0
 12603 1225 00000000 		.4byte	0
 12604              	.LLST160:
 12605 1229 24000000 		.4byte	.LVL287
 12606 122d 33000000 		.4byte	.LVL289-1
 12607 1231 0100     		.2byte	0x1
 12608 1233 50       		.byte	0x50
 12609 1234 00000000 		.4byte	0
 12610 1238 00000000 		.4byte	0
 12611              	.LLST161:
 12612 123c 00000000 		.4byte	.LVL295
 12613 1240 06000000 		.4byte	.LVL296
 12614 1244 0100     		.2byte	0x1
 12615 1246 50       		.byte	0x50
 12616 1247 06000000 		.4byte	.LVL296
 12617 124b 3C000000 		.4byte	.LFE22
 12618 124f 0400     		.2byte	0x4
 12619 1251 F3       		.byte	0xf3
 12620 1252 01       		.uleb128 0x1
 12621 1253 50       		.byte	0x50
 12622 1254 9F       		.byte	0x9f
 12623 1255 00000000 		.4byte	0
 12624 1259 00000000 		.4byte	0
 12625              	.LLST162:
 12626 125d 00000000 		.4byte	.LVL295
 12627 1261 0A000000 		.4byte	.LVL297
 12628 1265 0100     		.2byte	0x1
 12629 1267 51       		.byte	0x51
 12630 1268 0A000000 		.4byte	.LVL297
 12631 126c 0D000000 		.4byte	.LVL298-1
 12632 1270 0100     		.2byte	0x1
 12633 1272 50       		.byte	0x50
 12634 1273 0D000000 		.4byte	.LVL298-1
 12635 1277 3C000000 		.4byte	.LFE22
 12636 127b 0400     		.2byte	0x4
ARM GAS  C:\Users\rdn\AppData\Local\Temp\ccCxUcqe.s 			page 248


 12637 127d F3       		.byte	0xf3
 12638 127e 01       		.uleb128 0x1
 12639 127f 51       		.byte	0x51
 12640 1280 9F       		.byte	0x9f
 12641 1281 00000000 		.4byte	0
 12642 1285 00000000 		.4byte	0
 12643              	.LLST163:
 12644 1289 00000000 		.4byte	.LVL295
 12645 128d 0D000000 		.4byte	.LVL298-1
 12646 1291 0100     		.2byte	0x1
 12647 1293 52       		.byte	0x52
 12648 1294 0D000000 		.4byte	.LVL298-1
 12649 1298 38000000 		.4byte	.LVL308
 12650 129c 0100     		.2byte	0x1
 12651 129e 56       		.byte	0x56
 12652 129f 38000000 		.4byte	.LVL308
 12653 12a3 3C000000 		.4byte	.LFE22
 12654 12a7 0400     		.2byte	0x4
 12655 12a9 F3       		.byte	0xf3
 12656 12aa 01       		.uleb128 0x1
 12657 12ab 52       		.byte	0x52
 12658 12ac 9F       		.byte	0x9f
 12659 12ad 00000000 		.4byte	0
 12660 12b1 00000000 		.4byte	0
 12661              	.LLST164:
 12662 12b5 10000000 		.4byte	.LVL299
 12663 12b9 38000000 		.4byte	.LVL308
 12664 12bd 0100     		.2byte	0x1
 12665 12bf 55       		.byte	0x55
 12666 12c0 00000000 		.4byte	0
 12667 12c4 00000000 		.4byte	0
 12668              	.LLST165:
 12669 12c8 18000000 		.4byte	.LVL300
 12670 12cc 26000000 		.4byte	.LVL302
 12671 12d0 0100     		.2byte	0x1
 12672 12d2 50       		.byte	0x50
 12673 12d3 2C000000 		.4byte	.LVL304
 12674 12d7 30000000 		.4byte	.LVL305
 12675 12db 0100     		.2byte	0x1
 12676 12dd 50       		.byte	0x50
 12677 12de 32000000 		.4byte	.LVL306
 12678 12e2 36000000 		.4byte	.LVL307
 12679 12e6 0100     		.2byte	0x1
 12680 12e8 50       		.byte	0x50
 12681 12e9 00000000 		.4byte	0
 12682 12ed 00000000 		.4byte	0
 12683              	.LLST166:
 12684 12f1 20000000 		.4byte	.LVL301
 12685 12f5 26000000 		.4byte	.LVL302
 12686 12f9 0100     		.2byte	0x1
 12687 12fb 50       		.byte	0x50
 12688 12fc 00000000 		.4byte	0
 12689 1300 00000000 		.4byte	0
 12690              	.LLST167:
 12691 1304 20000000 		.4byte	.LVL301
 12692 1308 2A000000 		.4byte	.LVL303
 12693 130c 0100     		.2byte	0x1
ARM GAS  C:\Users\rdn\AppData\Local\Temp\ccCxUcqe.s 			page 249


 12694 130e 55       		.byte	0x55
 12695 130f 00000000 		.4byte	0
 12696 1313 00000000 		.4byte	0
 12697              	.LLST168:
 12698 1317 00000000 		.4byte	.LVL309
 12699 131b 08000000 		.4byte	.LVL311
 12700 131f 0100     		.2byte	0x1
 12701 1321 50       		.byte	0x50
 12702 1322 08000000 		.4byte	.LVL311
 12703 1326 0B000000 		.4byte	.LVL312-1
 12704 132a 0100     		.2byte	0x1
 12705 132c 51       		.byte	0x51
 12706 132d 0B000000 		.4byte	.LVL312-1
 12707 1331 0E000000 		.4byte	.LFE23
 12708 1335 0400     		.2byte	0x4
 12709 1337 F3       		.byte	0xf3
 12710 1338 01       		.uleb128 0x1
 12711 1339 50       		.byte	0x50
 12712 133a 9F       		.byte	0x9f
 12713 133b 00000000 		.4byte	0
 12714 133f 00000000 		.4byte	0
 12715              	.LLST169:
 12716 1343 00000000 		.4byte	.LVL309
 12717 1347 06000000 		.4byte	.LVL310
 12718 134b 0100     		.2byte	0x1
 12719 134d 51       		.byte	0x51
 12720 134e 06000000 		.4byte	.LVL310
 12721 1352 0B000000 		.4byte	.LVL312-1
 12722 1356 0100     		.2byte	0x1
 12723 1358 52       		.byte	0x52
 12724 1359 0B000000 		.4byte	.LVL312-1
 12725 135d 0E000000 		.4byte	.LFE23
 12726 1361 0400     		.2byte	0x4
 12727 1363 F3       		.byte	0xf3
 12728 1364 01       		.uleb128 0x1
 12729 1365 51       		.byte	0x51
 12730 1366 9F       		.byte	0x9f
 12731 1367 00000000 		.4byte	0
 12732 136b 00000000 		.4byte	0
 12733              	.LLST170:
 12734 136f 00000000 		.4byte	.LVL313
 12735 1373 08000000 		.4byte	.LVL314
 12736 1377 0100     		.2byte	0x1
 12737 1379 50       		.byte	0x50
 12738 137a 08000000 		.4byte	.LVL314
 12739 137e 30010000 		.4byte	.LFE24
 12740 1382 0400     		.2byte	0x4
 12741 1384 F3       		.byte	0xf3
 12742 1385 01       		.uleb128 0x1
 12743 1386 50       		.byte	0x50
 12744 1387 9F       		.byte	0x9f
 12745 1388 00000000 		.4byte	0
 12746 138c 00000000 		.4byte	0
 12747              	.LLST171:
 12748 1390 00000000 		.4byte	.LVL313
 12749 1394 10000000 		.4byte	.LVL315
 12750 1398 0100     		.2byte	0x1
ARM GAS  C:\Users\rdn\AppData\Local\Temp\ccCxUcqe.s 			page 250


 12751 139a 51       		.byte	0x51
 12752 139b 10000000 		.4byte	.LVL315
 12753 139f 13000000 		.4byte	.LVL316-1
 12754 13a3 0100     		.2byte	0x1
 12755 13a5 50       		.byte	0x50
 12756 13a6 13000000 		.4byte	.LVL316-1
 12757 13aa 30010000 		.4byte	.LFE24
 12758 13ae 0400     		.2byte	0x4
 12759 13b0 F3       		.byte	0xf3
 12760 13b1 01       		.uleb128 0x1
 12761 13b2 51       		.byte	0x51
 12762 13b3 9F       		.byte	0x9f
 12763 13b4 00000000 		.4byte	0
 12764 13b8 00000000 		.4byte	0
 12765              	.LLST172:
 12766 13bc 00000000 		.4byte	.LVL313
 12767 13c0 13000000 		.4byte	.LVL316-1
 12768 13c4 0100     		.2byte	0x1
 12769 13c6 52       		.byte	0x52
 12770 13c7 13000000 		.4byte	.LVL316-1
 12771 13cb 1E010000 		.4byte	.LVL339
 12772 13cf 0100     		.2byte	0x1
 12773 13d1 58       		.byte	0x58
 12774 13d2 1E010000 		.4byte	.LVL339
 12775 13d6 30010000 		.4byte	.LFE24
 12776 13da 0400     		.2byte	0x4
 12777 13dc F3       		.byte	0xf3
 12778 13dd 01       		.uleb128 0x1
 12779 13de 52       		.byte	0x52
 12780 13df 9F       		.byte	0x9f
 12781 13e0 00000000 		.4byte	0
 12782 13e4 00000000 		.4byte	0
 12783              	.LLST173:
 12784 13e8 00000000 		.4byte	.LVL313
 12785 13ec 13000000 		.4byte	.LVL316-1
 12786 13f0 0100     		.2byte	0x1
 12787 13f2 53       		.byte	0x53
 12788 13f3 13000000 		.4byte	.LVL316-1
 12789 13f7 1E010000 		.4byte	.LVL339
 12790 13fb 0100     		.2byte	0x1
 12791 13fd 55       		.byte	0x55
 12792 13fe 1E010000 		.4byte	.LVL339
 12793 1402 30010000 		.4byte	.LFE24
 12794 1406 0400     		.2byte	0x4
 12795 1408 F3       		.byte	0xf3
 12796 1409 01       		.uleb128 0x1
 12797 140a 53       		.byte	0x53
 12798 140b 9F       		.byte	0x9f
 12799 140c 00000000 		.4byte	0
 12800 1410 00000000 		.4byte	0
 12801              	.LLST174:
 12802 1414 00000000 		.4byte	.LVL313
 12803 1418 40000000 		.4byte	.LVL319
 12804 141c 0200     		.2byte	0x2
 12805 141e 91       		.byte	0x91
 12806 141f 00       		.sleb128 0
 12807 1420 40000000 		.4byte	.LVL319
ARM GAS  C:\Users\rdn\AppData\Local\Temp\ccCxUcqe.s 			page 251


 12808 1424 44000000 		.4byte	.LVL320
 12809 1428 0100     		.2byte	0x1
 12810 142a 54       		.byte	0x54
 12811 142b FC000000 		.4byte	.LVL337
 12812 142f 18010000 		.4byte	.LVL338
 12813 1433 0200     		.2byte	0x2
 12814 1435 91       		.byte	0x91
 12815 1436 00       		.sleb128 0
 12816 1437 00000000 		.4byte	0
 12817 143b 00000000 		.4byte	0
 12818              	.LLST175:
 12819 143f 1E000000 		.4byte	.LVL318
 12820 1443 CA000000 		.4byte	.LVL330
 12821 1447 0100     		.2byte	0x1
 12822 1449 50       		.byte	0x50
 12823 144a D6000000 		.4byte	.LVL331
 12824 144e D8000000 		.4byte	.LVL332
 12825 1452 0100     		.2byte	0x1
 12826 1454 50       		.byte	0x50
 12827 1455 DE000000 		.4byte	.LVL333
 12828 1459 E4000000 		.4byte	.LVL334
 12829 145d 0100     		.2byte	0x1
 12830 145f 50       		.byte	0x50
 12831 1460 F2000000 		.4byte	.LVL335
 12832 1464 F6000000 		.4byte	.LVL336
 12833 1468 0100     		.2byte	0x1
 12834 146a 50       		.byte	0x50
 12835 146b FC000000 		.4byte	.LVL337
 12836 146f 18010000 		.4byte	.LVL338
 12837 1473 0100     		.2byte	0x1
 12838 1475 50       		.byte	0x50
 12839 1476 00000000 		.4byte	0
 12840 147a 00000000 		.4byte	0
 12841              	.LLST176:
 12842 147e 50000000 		.4byte	.LVL321
 12843 1482 64000000 		.4byte	.LVL322
 12844 1486 0100     		.2byte	0x1
 12845 1488 50       		.byte	0x50
 12846 1489 00000000 		.4byte	0
 12847 148d 00000000 		.4byte	0
 12848              	.LLST177:
 12849 1491 6C000000 		.4byte	.LVL323
 12850 1495 80000000 		.4byte	.LVL324
 12851 1499 0100     		.2byte	0x1
 12852 149b 50       		.byte	0x50
 12853 149c 00000000 		.4byte	0
 12854 14a0 00000000 		.4byte	0
 12855              	.LLST178:
 12856 14a4 88000000 		.4byte	.LVL325
 12857 14a8 A0000000 		.4byte	.LVL326
 12858 14ac 0100     		.2byte	0x1
 12859 14ae 50       		.byte	0x50
 12860 14af 00000000 		.4byte	0
 12861 14b3 00000000 		.4byte	0
 12862              	.LLST179:
 12863 14b7 A8000000 		.4byte	.LVL327
 12864 14bb BC000000 		.4byte	.LVL328
ARM GAS  C:\Users\rdn\AppData\Local\Temp\ccCxUcqe.s 			page 252


 12865 14bf 0100     		.2byte	0x1
 12866 14c1 50       		.byte	0x50
 12867 14c2 00000000 		.4byte	0
 12868 14c6 00000000 		.4byte	0
 12869              	.LLST180:
 12870 14ca C4000000 		.4byte	.LVL329
 12871 14ce CA000000 		.4byte	.LVL330
 12872 14d2 0100     		.2byte	0x1
 12873 14d4 50       		.byte	0x50
 12874 14d5 D6000000 		.4byte	.LVL331
 12875 14d9 D8000000 		.4byte	.LVL332
 12876 14dd 0100     		.2byte	0x1
 12877 14df 50       		.byte	0x50
 12878 14e0 00000000 		.4byte	0
 12879 14e4 00000000 		.4byte	0
 12880              	.LLST181:
 12881 14e8 DE000000 		.4byte	.LVL333
 12882 14ec E4000000 		.4byte	.LVL334
 12883 14f0 0100     		.2byte	0x1
 12884 14f2 50       		.byte	0x50
 12885 14f3 F2000000 		.4byte	.LVL335
 12886 14f7 F6000000 		.4byte	.LVL336
 12887 14fb 0100     		.2byte	0x1
 12888 14fd 50       		.byte	0x50
 12889 14fe 00000000 		.4byte	0
 12890 1502 00000000 		.4byte	0
 12891              	.LLST182:
 12892 1506 00000000 		.4byte	.LVL340
 12893 150a 10000000 		.4byte	.LVL343
 12894 150e 0100     		.2byte	0x1
 12895 1510 50       		.byte	0x50
 12896 1511 10000000 		.4byte	.LVL343
 12897 1515 13000000 		.4byte	.LVL344-1
 12898 1519 0100     		.2byte	0x1
 12899 151b 51       		.byte	0x51
 12900 151c 13000000 		.4byte	.LVL344-1
 12901 1520 1A000000 		.4byte	.LFE25
 12902 1524 0400     		.2byte	0x4
 12903 1526 F3       		.byte	0xf3
 12904 1527 01       		.uleb128 0x1
 12905 1528 50       		.byte	0x50
 12906 1529 9F       		.byte	0x9f
 12907 152a 00000000 		.4byte	0
 12908 152e 00000000 		.4byte	0
 12909              	.LLST183:
 12910 1532 00000000 		.4byte	.LVL340
 12911 1536 0E000000 		.4byte	.LVL342
 12912 153a 0100     		.2byte	0x1
 12913 153c 51       		.byte	0x51
 12914 153d 0E000000 		.4byte	.LVL342
 12915 1541 13000000 		.4byte	.LVL344-1
 12916 1545 0100     		.2byte	0x1
 12917 1547 53       		.byte	0x53
 12918 1548 13000000 		.4byte	.LVL344-1
 12919 154c 1A000000 		.4byte	.LFE25
 12920 1550 0400     		.2byte	0x4
 12921 1552 F3       		.byte	0xf3
ARM GAS  C:\Users\rdn\AppData\Local\Temp\ccCxUcqe.s 			page 253


 12922 1553 01       		.uleb128 0x1
 12923 1554 51       		.byte	0x51
 12924 1555 9F       		.byte	0x9f
 12925 1556 00000000 		.4byte	0
 12926 155a 00000000 		.4byte	0
 12927              	.LLST184:
 12928 155e 00000000 		.4byte	.LVL340
 12929 1562 0C000000 		.4byte	.LVL341
 12930 1566 0100     		.2byte	0x1
 12931 1568 52       		.byte	0x52
 12932 1569 0C000000 		.4byte	.LVL341
 12933 156d 13000000 		.4byte	.LVL344-1
 12934 1571 0200     		.2byte	0x2
 12935 1573 7D       		.byte	0x7d
 12936 1574 00       		.sleb128 0
 12937 1575 13000000 		.4byte	.LVL344-1
 12938 1579 1A000000 		.4byte	.LFE25
 12939 157d 0400     		.2byte	0x4
 12940 157f F3       		.byte	0xf3
 12941 1580 01       		.uleb128 0x1
 12942 1581 52       		.byte	0x52
 12943 1582 9F       		.byte	0x9f
 12944 1583 00000000 		.4byte	0
 12945 1587 00000000 		.4byte	0
 12946              	.LLST185:
 12947 158b 00000000 		.4byte	.LVL345
 12948 158f 0B000000 		.4byte	.LVL347-1
 12949 1593 0100     		.2byte	0x1
 12950 1595 50       		.byte	0x50
 12951 1596 0B000000 		.4byte	.LVL347-1
 12952 159a 12000000 		.4byte	.LFE26
 12953 159e 0400     		.2byte	0x4
 12954 15a0 F3       		.byte	0xf3
 12955 15a1 01       		.uleb128 0x1
 12956 15a2 50       		.byte	0x50
 12957 15a3 9F       		.byte	0x9f
 12958 15a4 00000000 		.4byte	0
 12959 15a8 00000000 		.4byte	0
 12960              	.LLST186:
 12961 15ac 00000000 		.4byte	.LVL345
 12962 15b0 0B000000 		.4byte	.LVL347-1
 12963 15b4 0100     		.2byte	0x1
 12964 15b6 51       		.byte	0x51
 12965 15b7 0B000000 		.4byte	.LVL347-1
 12966 15bb 12000000 		.4byte	.LFE26
 12967 15bf 0400     		.2byte	0x4
 12968 15c1 F3       		.byte	0xf3
 12969 15c2 01       		.uleb128 0x1
 12970 15c3 51       		.byte	0x51
 12971 15c4 9F       		.byte	0x9f
 12972 15c5 00000000 		.4byte	0
 12973 15c9 00000000 		.4byte	0
 12974              	.LLST187:
 12975 15cd 00000000 		.4byte	.LVL345
 12976 15d1 0B000000 		.4byte	.LVL347-1
 12977 15d5 0100     		.2byte	0x1
 12978 15d7 52       		.byte	0x52
ARM GAS  C:\Users\rdn\AppData\Local\Temp\ccCxUcqe.s 			page 254


 12979 15d8 0B000000 		.4byte	.LVL347-1
 12980 15dc 12000000 		.4byte	.LFE26
 12981 15e0 0400     		.2byte	0x4
 12982 15e2 F3       		.byte	0xf3
 12983 15e3 01       		.uleb128 0x1
 12984 15e4 52       		.byte	0x52
 12985 15e5 9F       		.byte	0x9f
 12986 15e6 00000000 		.4byte	0
 12987 15ea 00000000 		.4byte	0
 12988              	.LLST188:
 12989 15ee 00000000 		.4byte	.LVL345
 12990 15f2 08000000 		.4byte	.LVL346
 12991 15f6 0100     		.2byte	0x1
 12992 15f8 53       		.byte	0x53
 12993 15f9 08000000 		.4byte	.LVL346
 12994 15fd 0B000000 		.4byte	.LVL347-1
 12995 1601 0200     		.2byte	0x2
 12996 1603 7D       		.byte	0x7d
 12997 1604 00       		.sleb128 0
 12998 1605 0B000000 		.4byte	.LVL347-1
 12999 1609 12000000 		.4byte	.LFE26
 13000 160d 0400     		.2byte	0x4
 13001 160f F3       		.byte	0xf3
 13002 1610 01       		.uleb128 0x1
 13003 1611 53       		.byte	0x53
 13004 1612 9F       		.byte	0x9f
 13005 1613 00000000 		.4byte	0
 13006 1617 00000000 		.4byte	0
 13007              	.LLST189:
 13008 161b 00000000 		.4byte	.LVL348
 13009 161f 0C000000 		.4byte	.LVL350
 13010 1623 0100     		.2byte	0x1
 13011 1625 50       		.byte	0x50
 13012 1626 0C000000 		.4byte	.LVL350
 13013 162a 0F000000 		.4byte	.LVL351-1
 13014 162e 0100     		.2byte	0x1
 13015 1630 51       		.byte	0x51
 13016 1631 0F000000 		.4byte	.LVL351-1
 13017 1635 12000000 		.4byte	.LFE27
 13018 1639 0400     		.2byte	0x4
 13019 163b F3       		.byte	0xf3
 13020 163c 01       		.uleb128 0x1
 13021 163d 50       		.byte	0x50
 13022 163e 9F       		.byte	0x9f
 13023 163f 00000000 		.4byte	0
 13024 1643 00000000 		.4byte	0
 13025              	.LLST190:
 13026 1647 00000000 		.4byte	.LVL348
 13027 164b 0A000000 		.4byte	.LVL349
 13028 164f 0100     		.2byte	0x1
 13029 1651 51       		.byte	0x51
 13030 1652 0A000000 		.4byte	.LVL349
 13031 1656 0F000000 		.4byte	.LVL351-1
 13032 165a 0100     		.2byte	0x1
 13033 165c 53       		.byte	0x53
 13034 165d 0F000000 		.4byte	.LVL351-1
 13035 1661 12000000 		.4byte	.LFE27
ARM GAS  C:\Users\rdn\AppData\Local\Temp\ccCxUcqe.s 			page 255


 13036 1665 0400     		.2byte	0x4
 13037 1667 F3       		.byte	0xf3
 13038 1668 01       		.uleb128 0x1
 13039 1669 51       		.byte	0x51
 13040 166a 9F       		.byte	0x9f
 13041 166b 00000000 		.4byte	0
 13042 166f 00000000 		.4byte	0
 13043              	.LLST191:
 13044 1673 00000000 		.4byte	.LVL352
 13045 1677 06000000 		.4byte	.LVL353
 13046 167b 0100     		.2byte	0x1
 13047 167d 50       		.byte	0x50
 13048 167e 06000000 		.4byte	.LVL353
 13049 1682 80000000 		.4byte	.LFE28
 13050 1686 0400     		.2byte	0x4
 13051 1688 F3       		.byte	0xf3
 13052 1689 01       		.uleb128 0x1
 13053 168a 50       		.byte	0x50
 13054 168b 9F       		.byte	0x9f
 13055 168c 00000000 		.4byte	0
 13056 1690 00000000 		.4byte	0
 13057              	.LLST192:
 13058 1694 00000000 		.4byte	.LVL352
 13059 1698 0C000000 		.4byte	.LVL354
 13060 169c 0100     		.2byte	0x1
 13061 169e 51       		.byte	0x51
 13062 169f 0C000000 		.4byte	.LVL354
 13063 16a3 0F000000 		.4byte	.LVL355-1
 13064 16a7 0100     		.2byte	0x1
 13065 16a9 50       		.byte	0x50
 13066 16aa 0F000000 		.4byte	.LVL355-1
 13067 16ae 80000000 		.4byte	.LFE28
 13068 16b2 0400     		.2byte	0x4
 13069 16b4 F3       		.byte	0xf3
 13070 16b5 01       		.uleb128 0x1
 13071 16b6 51       		.byte	0x51
 13072 16b7 9F       		.byte	0x9f
 13073 16b8 00000000 		.4byte	0
 13074 16bc 00000000 		.4byte	0
 13075              	.LLST193:
 13076 16c0 00000000 		.4byte	.LVL352
 13077 16c4 0F000000 		.4byte	.LVL355-1
 13078 16c8 0100     		.2byte	0x1
 13079 16ca 52       		.byte	0x52
 13080 16cb 0F000000 		.4byte	.LVL355-1
 13081 16cf 80000000 		.4byte	.LFE28
 13082 16d3 0100     		.2byte	0x1
 13083 16d5 57       		.byte	0x57
 13084 16d6 00000000 		.4byte	0
 13085 16da 00000000 		.4byte	0
 13086              	.LLST194:
 13087 16de 00000000 		.4byte	.LVL352
 13088 16e2 0F000000 		.4byte	.LVL355-1
 13089 16e6 0100     		.2byte	0x1
 13090 16e8 53       		.byte	0x53
 13091 16e9 0F000000 		.4byte	.LVL355-1
 13092 16ed 3C000000 		.4byte	.LVL359
ARM GAS  C:\Users\rdn\AppData\Local\Temp\ccCxUcqe.s 			page 256


 13093 16f1 0100     		.2byte	0x1
 13094 16f3 54       		.byte	0x54
 13095 16f4 3C000000 		.4byte	.LVL359
 13096 16f8 6E000000 		.4byte	.LVL361
 13097 16fc 0400     		.2byte	0x4
 13098 16fe F3       		.byte	0xf3
 13099 16ff 01       		.uleb128 0x1
 13100 1700 53       		.byte	0x53
 13101 1701 9F       		.byte	0x9f
 13102 1702 6E000000 		.4byte	.LVL361
 13103 1706 80000000 		.4byte	.LFE28
 13104 170a 0100     		.2byte	0x1
 13105 170c 54       		.byte	0x54
 13106 170d 00000000 		.4byte	0
 13107 1711 00000000 		.4byte	0
 13108              	.LLST195:
 13109 1715 1A000000 		.4byte	.LVL357
 13110 1719 2A000000 		.4byte	.LVL358
 13111 171d 0100     		.2byte	0x1
 13112 171f 50       		.byte	0x50
 13113 1720 6E000000 		.4byte	.LVL361
 13114 1724 72000000 		.4byte	.LVL362
 13115 1728 0100     		.2byte	0x1
 13116 172a 50       		.byte	0x50
 13117 172b 74000000 		.4byte	.LVL363
 13118 172f 78000000 		.4byte	.LVL364
 13119 1733 0100     		.2byte	0x1
 13120 1735 50       		.byte	0x50
 13121 1736 7A000000 		.4byte	.LVL365
 13122 173a 7E000000 		.4byte	.LVL366
 13123 173e 0100     		.2byte	0x1
 13124 1740 50       		.byte	0x50
 13125 1741 00000000 		.4byte	0
 13126 1745 00000000 		.4byte	0
 13127              	.LLST196:
 13128 1749 00000000 		.4byte	.LVL367
 13129 174d 0C000000 		.4byte	.LVL369
 13130 1751 0100     		.2byte	0x1
 13131 1753 50       		.byte	0x50
 13132 1754 0C000000 		.4byte	.LVL369
 13133 1758 0F000000 		.4byte	.LVL370-1
 13134 175c 0100     		.2byte	0x1
 13135 175e 51       		.byte	0x51
 13136 175f 0F000000 		.4byte	.LVL370-1
 13137 1763 12000000 		.4byte	.LFE29
 13138 1767 0400     		.2byte	0x4
 13139 1769 F3       		.byte	0xf3
 13140 176a 01       		.uleb128 0x1
 13141 176b 50       		.byte	0x50
 13142 176c 9F       		.byte	0x9f
 13143 176d 00000000 		.4byte	0
 13144 1771 00000000 		.4byte	0
 13145              	.LLST197:
 13146 1775 00000000 		.4byte	.LVL367
 13147 1779 0A000000 		.4byte	.LVL368
 13148 177d 0100     		.2byte	0x1
 13149 177f 51       		.byte	0x51
ARM GAS  C:\Users\rdn\AppData\Local\Temp\ccCxUcqe.s 			page 257


 13150 1780 0A000000 		.4byte	.LVL368
 13151 1784 0F000000 		.4byte	.LVL370-1
 13152 1788 0100     		.2byte	0x1
 13153 178a 53       		.byte	0x53
 13154 178b 0F000000 		.4byte	.LVL370-1
 13155 178f 12000000 		.4byte	.LFE29
 13156 1793 0400     		.2byte	0x4
 13157 1795 F3       		.byte	0xf3
 13158 1796 01       		.uleb128 0x1
 13159 1797 51       		.byte	0x51
 13160 1798 9F       		.byte	0x9f
 13161 1799 00000000 		.4byte	0
 13162 179d 00000000 		.4byte	0
 13163              	.LLST198:
 13164 17a1 00000000 		.4byte	.LVL371
 13165 17a5 06000000 		.4byte	.LVL372
 13166 17a9 0100     		.2byte	0x1
 13167 17ab 50       		.byte	0x50
 13168 17ac 06000000 		.4byte	.LVL372
 13169 17b0 54000000 		.4byte	.LFE30
 13170 17b4 0400     		.2byte	0x4
 13171 17b6 F3       		.byte	0xf3
 13172 17b7 01       		.uleb128 0x1
 13173 17b8 50       		.byte	0x50
 13174 17b9 9F       		.byte	0x9f
 13175 17ba 00000000 		.4byte	0
 13176 17be 00000000 		.4byte	0
 13177              	.LLST199:
 13178 17c2 00000000 		.4byte	.LVL371
 13179 17c6 0A000000 		.4byte	.LVL373
 13180 17ca 0100     		.2byte	0x1
 13181 17cc 51       		.byte	0x51
 13182 17cd 0A000000 		.4byte	.LVL373
 13183 17d1 0D000000 		.4byte	.LVL374-1
 13184 17d5 0100     		.2byte	0x1
 13185 17d7 50       		.byte	0x50
 13186 17d8 0D000000 		.4byte	.LVL374-1
 13187 17dc 54000000 		.4byte	.LFE30
 13188 17e0 0400     		.2byte	0x4
 13189 17e2 F3       		.byte	0xf3
 13190 17e3 01       		.uleb128 0x1
 13191 17e4 51       		.byte	0x51
 13192 17e5 9F       		.byte	0x9f
 13193 17e6 00000000 		.4byte	0
 13194 17ea 00000000 		.4byte	0
 13195              	.LLST200:
 13196 17ee 00000000 		.4byte	.LVL371
 13197 17f2 0D000000 		.4byte	.LVL374-1
 13198 17f6 0100     		.2byte	0x1
 13199 17f8 52       		.byte	0x52
 13200 17f9 0D000000 		.4byte	.LVL374-1
 13201 17fd 4A000000 		.4byte	.LVL385
 13202 1801 0100     		.2byte	0x1
 13203 1803 56       		.byte	0x56
 13204 1804 4A000000 		.4byte	.LVL385
 13205 1808 54000000 		.4byte	.LFE30
 13206 180c 0400     		.2byte	0x4
ARM GAS  C:\Users\rdn\AppData\Local\Temp\ccCxUcqe.s 			page 258


 13207 180e F3       		.byte	0xf3
 13208 180f 01       		.uleb128 0x1
 13209 1810 52       		.byte	0x52
 13210 1811 9F       		.byte	0x9f
 13211 1812 00000000 		.4byte	0
 13212 1816 00000000 		.4byte	0
 13213              	.LLST201:
 13214 181a 10000000 		.4byte	.LVL375
 13215 181e 4A000000 		.4byte	.LVL385
 13216 1822 0100     		.2byte	0x1
 13217 1824 54       		.byte	0x54
 13218 1825 00000000 		.4byte	0
 13219 1829 00000000 		.4byte	0
 13220              	.LLST202:
 13221 182d 18000000 		.4byte	.LVL376
 13222 1831 3C000000 		.4byte	.LVL380
 13223 1835 0100     		.2byte	0x1
 13224 1837 50       		.byte	0x50
 13225 1838 3E000000 		.4byte	.LVL381
 13226 183c 42000000 		.4byte	.LVL382
 13227 1840 0100     		.2byte	0x1
 13228 1842 50       		.byte	0x50
 13229 1843 44000000 		.4byte	.LVL383
 13230 1847 48000000 		.4byte	.LVL384
 13231 184b 0100     		.2byte	0x1
 13232 184d 50       		.byte	0x50
 13233 184e 00000000 		.4byte	0
 13234 1852 00000000 		.4byte	0
 13235              	.LLST203:
 13236 1856 20000000 		.4byte	.LVL377
 13237 185a 36000000 		.4byte	.LVL379
 13238 185e 0100     		.2byte	0x1
 13239 1860 50       		.byte	0x50
 13240 1861 00000000 		.4byte	0
 13241 1865 00000000 		.4byte	0
 13242              	.LLST204:
 13243 1869 20000000 		.4byte	.LVL377
 13244 186d 36000000 		.4byte	.LVL379
 13245 1871 0100     		.2byte	0x1
 13246 1873 54       		.byte	0x54
 13247 1874 00000000 		.4byte	0
 13248 1878 00000000 		.4byte	0
 13249              	.LLST205:
 13250 187c 20000000 		.4byte	.LVL377
 13251 1880 2A000000 		.4byte	.LVL378
 13252 1884 0100     		.2byte	0x1
 13253 1886 50       		.byte	0x50
 13254 1887 00000000 		.4byte	0
 13255 188b 00000000 		.4byte	0
 13256              	.LLST206:
 13257 188f 20000000 		.4byte	.LVL377
 13258 1893 2A000000 		.4byte	.LVL378
 13259 1897 0100     		.2byte	0x1
 13260 1899 54       		.byte	0x54
 13261 189a 00000000 		.4byte	0
 13262 189e 00000000 		.4byte	0
 13263              	.LLST207:
ARM GAS  C:\Users\rdn\AppData\Local\Temp\ccCxUcqe.s 			page 259


 13264 18a2 00000000 		.4byte	.LVL386
 13265 18a6 08000000 		.4byte	.LVL388
 13266 18aa 0100     		.2byte	0x1
 13267 18ac 50       		.byte	0x50
 13268 18ad 08000000 		.4byte	.LVL388
 13269 18b1 0B000000 		.4byte	.LVL389-1
 13270 18b5 0100     		.2byte	0x1
 13271 18b7 51       		.byte	0x51
 13272 18b8 0B000000 		.4byte	.LVL389-1
 13273 18bc 0E000000 		.4byte	.LFE31
 13274 18c0 0400     		.2byte	0x4
 13275 18c2 F3       		.byte	0xf3
 13276 18c3 01       		.uleb128 0x1
 13277 18c4 50       		.byte	0x50
 13278 18c5 9F       		.byte	0x9f
 13279 18c6 00000000 		.4byte	0
 13280 18ca 00000000 		.4byte	0
 13281              	.LLST208:
 13282 18ce 00000000 		.4byte	.LVL386
 13283 18d2 06000000 		.4byte	.LVL387
 13284 18d6 0100     		.2byte	0x1
 13285 18d8 51       		.byte	0x51
 13286 18d9 06000000 		.4byte	.LVL387
 13287 18dd 0B000000 		.4byte	.LVL389-1
 13288 18e1 0100     		.2byte	0x1
 13289 18e3 52       		.byte	0x52
 13290 18e4 0B000000 		.4byte	.LVL389-1
 13291 18e8 0E000000 		.4byte	.LFE31
 13292 18ec 0400     		.2byte	0x4
 13293 18ee F3       		.byte	0xf3
 13294 18ef 01       		.uleb128 0x1
 13295 18f0 51       		.byte	0x51
 13296 18f1 9F       		.byte	0x9f
 13297 18f2 00000000 		.4byte	0
 13298 18f6 00000000 		.4byte	0
 13299              	.LLST209:
 13300 18fa 00000000 		.4byte	.LVL390
 13301 18fe 0C000000 		.4byte	.LVL392
 13302 1902 0100     		.2byte	0x1
 13303 1904 50       		.byte	0x50
 13304 1905 0C000000 		.4byte	.LVL392
 13305 1909 8C000000 		.4byte	.LFE38
 13306 190d 0400     		.2byte	0x4
 13307 190f F3       		.byte	0xf3
 13308 1910 01       		.uleb128 0x1
 13309 1911 50       		.byte	0x50
 13310 1912 9F       		.byte	0x9f
 13311 1913 00000000 		.4byte	0
 13312 1917 00000000 		.4byte	0
 13313              	.LLST210:
 13314 191b 00000000 		.4byte	.LVL390
 13315 191f 0A000000 		.4byte	.LVL391
 13316 1923 0100     		.2byte	0x1
 13317 1925 51       		.byte	0x51
 13318 1926 0A000000 		.4byte	.LVL391
 13319 192a 86000000 		.4byte	.LVL398
 13320 192e 0100     		.2byte	0x1
ARM GAS  C:\Users\rdn\AppData\Local\Temp\ccCxUcqe.s 			page 260


 13321 1930 55       		.byte	0x55
 13322 1931 86000000 		.4byte	.LVL398
 13323 1935 8C000000 		.4byte	.LFE38
 13324 1939 0400     		.2byte	0x4
 13325 193b F3       		.byte	0xf3
 13326 193c 01       		.uleb128 0x1
 13327 193d 51       		.byte	0x51
 13328 193e 9F       		.byte	0x9f
 13329 193f 00000000 		.4byte	0
 13330 1943 00000000 		.4byte	0
 13331              	.LLST211:
 13332 1947 00000000 		.4byte	.LVL390
 13333 194b 0F000000 		.4byte	.LVL393-1
 13334 194f 0100     		.2byte	0x1
 13335 1951 52       		.byte	0x52
 13336 1952 0F000000 		.4byte	.LVL393-1
 13337 1956 66000000 		.4byte	.LVL395
 13338 195a 0100     		.2byte	0x1
 13339 195c 54       		.byte	0x54
 13340 195d 66000000 		.4byte	.LVL395
 13341 1961 7E000000 		.4byte	.LVL396
 13342 1965 0400     		.2byte	0x4
 13343 1967 F3       		.byte	0xf3
 13344 1968 01       		.uleb128 0x1
 13345 1969 52       		.byte	0x52
 13346 196a 9F       		.byte	0x9f
 13347 196b 7E000000 		.4byte	.LVL396
 13348 196f 86000000 		.4byte	.LVL398
 13349 1973 0100     		.2byte	0x1
 13350 1975 54       		.byte	0x54
 13351 1976 86000000 		.4byte	.LVL398
 13352 197a 8C000000 		.4byte	.LFE38
 13353 197e 0400     		.2byte	0x4
 13354 1980 F3       		.byte	0xf3
 13355 1981 01       		.uleb128 0x1
 13356 1982 52       		.byte	0x52
 13357 1983 9F       		.byte	0x9f
 13358 1984 00000000 		.4byte	0
 13359 1988 00000000 		.4byte	0
 13360              	.LLST212:
 13361 198c 00000000 		.4byte	.LVL399
 13362 1990 08000000 		.4byte	.LVL401
 13363 1994 0100     		.2byte	0x1
 13364 1996 50       		.byte	0x50
 13365 1997 08000000 		.4byte	.LVL401
 13366 199b 0B000000 		.4byte	.LVL402-1
 13367 199f 0100     		.2byte	0x1
 13368 19a1 51       		.byte	0x51
 13369 19a2 0B000000 		.4byte	.LVL402-1
 13370 19a6 0E000000 		.4byte	.LFE39
 13371 19aa 0400     		.2byte	0x4
 13372 19ac F3       		.byte	0xf3
 13373 19ad 01       		.uleb128 0x1
 13374 19ae 50       		.byte	0x50
 13375 19af 9F       		.byte	0x9f
 13376 19b0 00000000 		.4byte	0
 13377 19b4 00000000 		.4byte	0
ARM GAS  C:\Users\rdn\AppData\Local\Temp\ccCxUcqe.s 			page 261


 13378              	.LLST213:
 13379 19b8 00000000 		.4byte	.LVL399
 13380 19bc 06000000 		.4byte	.LVL400
 13381 19c0 0100     		.2byte	0x1
 13382 19c2 51       		.byte	0x51
 13383 19c3 06000000 		.4byte	.LVL400
 13384 19c7 0B000000 		.4byte	.LVL402-1
 13385 19cb 0100     		.2byte	0x1
 13386 19cd 52       		.byte	0x52
 13387 19ce 0B000000 		.4byte	.LVL402-1
 13388 19d2 0E000000 		.4byte	.LFE39
 13389 19d6 0400     		.2byte	0x4
 13390 19d8 F3       		.byte	0xf3
 13391 19d9 01       		.uleb128 0x1
 13392 19da 51       		.byte	0x51
 13393 19db 9F       		.byte	0x9f
 13394 19dc 00000000 		.4byte	0
 13395 19e0 00000000 		.4byte	0
 13396              	.LLST214:
 13397 19e4 00000000 		.4byte	.LVL403
 13398 19e8 18000000 		.4byte	.LVL406
 13399 19ec 0100     		.2byte	0x1
 13400 19ee 50       		.byte	0x50
 13401 19ef 18000000 		.4byte	.LVL406
 13402 19f3 08010000 		.4byte	.LFE40
 13403 19f7 0400     		.2byte	0x4
 13404 19f9 F3       		.byte	0xf3
 13405 19fa 01       		.uleb128 0x1
 13406 19fb 50       		.byte	0x50
 13407 19fc 9F       		.byte	0x9f
 13408 19fd 00000000 		.4byte	0
 13409 1a01 00000000 		.4byte	0
 13410              	.LLST215:
 13411 1a05 00000000 		.4byte	.LVL403
 13412 1a09 16000000 		.4byte	.LVL405
 13413 1a0d 0100     		.2byte	0x1
 13414 1a0f 51       		.byte	0x51
 13415 1a10 16000000 		.4byte	.LVL405
 13416 1a14 00010000 		.4byte	.LVL429
 13417 1a18 0100     		.2byte	0x1
 13418 1a1a 5A       		.byte	0x5a
 13419 1a1b 00010000 		.4byte	.LVL429
 13420 1a1f 08010000 		.4byte	.LFE40
 13421 1a23 0400     		.2byte	0x4
 13422 1a25 F3       		.byte	0xf3
 13423 1a26 01       		.uleb128 0x1
 13424 1a27 51       		.byte	0x51
 13425 1a28 9F       		.byte	0x9f
 13426 1a29 00000000 		.4byte	0
 13427 1a2d 00000000 		.4byte	0
 13428              	.LLST216:
 13429 1a31 00000000 		.4byte	.LVL403
 13430 1a35 1B000000 		.4byte	.LVL407-1
 13431 1a39 0100     		.2byte	0x1
 13432 1a3b 52       		.byte	0x52
 13433 1a3c 1B000000 		.4byte	.LVL407-1
 13434 1a40 28000000 		.4byte	.LVL410
ARM GAS  C:\Users\rdn\AppData\Local\Temp\ccCxUcqe.s 			page 262


 13435 1a44 0100     		.2byte	0x1
 13436 1a46 56       		.byte	0x56
 13437 1a47 28000000 		.4byte	.LVL410
 13438 1a4b 08010000 		.4byte	.LFE40
 13439 1a4f 0400     		.2byte	0x4
 13440 1a51 F3       		.byte	0xf3
 13441 1a52 01       		.uleb128 0x1
 13442 1a53 52       		.byte	0x52
 13443 1a54 9F       		.byte	0x9f
 13444 1a55 00000000 		.4byte	0
 13445 1a59 00000000 		.4byte	0
 13446              	.LLST217:
 13447 1a5d 00000000 		.4byte	.LVL403
 13448 1a61 14000000 		.4byte	.LVL404
 13449 1a65 0100     		.2byte	0x1
 13450 1a67 53       		.byte	0x53
 13451 1a68 14000000 		.4byte	.LVL404
 13452 1a6c D0000000 		.4byte	.LVL419
 13453 1a70 0100     		.2byte	0x1
 13454 1a72 57       		.byte	0x57
 13455 1a73 EC000000 		.4byte	.LVL421
 13456 1a77 FA000000 		.4byte	.LVL428
 13457 1a7b 0100     		.2byte	0x1
 13458 1a7d 57       		.byte	0x57
 13459 1a7e 00000000 		.4byte	0
 13460 1a82 00000000 		.4byte	0
 13461              	.LLST218:
 13462 1a86 00000000 		.4byte	.LVL403
 13463 1a8a 00010000 		.4byte	.LVL429
 13464 1a8e 0200     		.2byte	0x2
 13465 1a90 91       		.byte	0x91
 13466 1a91 00       		.sleb128 0
 13467 1a92 00010000 		.4byte	.LVL429
 13468 1a96 08010000 		.4byte	.LFE40
 13469 1a9a 0200     		.2byte	0x2
 13470 1a9c 7D       		.byte	0x7d
 13471 1a9d 00       		.sleb128 0
 13472 1a9e 00000000 		.4byte	0
 13473 1aa2 00000000 		.4byte	0
 13474              	.LLST219:
 13475 1aa6 1E000000 		.4byte	.LVL408
 13476 1aaa 00010000 		.4byte	.LVL429
 13477 1aae 0100     		.2byte	0x1
 13478 1ab0 5B       		.byte	0x5b
 13479 1ab1 00000000 		.4byte	0
 13480 1ab5 00000000 		.4byte	0
 13481              	.LLST220:
 13482 1ab9 28000000 		.4byte	.LVL410
 13483 1abd 4C000000 		.4byte	.LVL414
 13484 1ac1 0100     		.2byte	0x1
 13485 1ac3 56       		.byte	0x56
 13486 1ac4 EC000000 		.4byte	.LVL421
 13487 1ac8 FA000000 		.4byte	.LVL428
 13488 1acc 0100     		.2byte	0x1
 13489 1ace 56       		.byte	0x56
 13490 1acf 00000000 		.4byte	0
 13491 1ad3 00000000 		.4byte	0
ARM GAS  C:\Users\rdn\AppData\Local\Temp\ccCxUcqe.s 			page 263


 13492              	.LLST221:
 13493 1ad7 32000000 		.4byte	.LVL412
 13494 1adb 66000000 		.4byte	.LVL417
 13495 1adf 0100     		.2byte	0x1
 13496 1ae1 50       		.byte	0x50
 13497 1ae2 EC000000 		.4byte	.LVL421
 13498 1ae6 EE000000 		.4byte	.LVL422
 13499 1aea 0100     		.2byte	0x1
 13500 1aec 50       		.byte	0x50
 13501 1aed F0000000 		.4byte	.LVL423
 13502 1af1 F2000000 		.4byte	.LVL424
 13503 1af5 0100     		.2byte	0x1
 13504 1af7 50       		.byte	0x50
 13505 1af8 F4000000 		.4byte	.LVL425
 13506 1afc F6000000 		.4byte	.LVL426
 13507 1b00 0100     		.2byte	0x1
 13508 1b02 50       		.byte	0x50
 13509 1b03 F8000000 		.4byte	.LVL427
 13510 1b07 FA000000 		.4byte	.LVL428
 13511 1b0b 0100     		.2byte	0x1
 13512 1b0d 50       		.byte	0x50
 13513 1b0e 00000000 		.4byte	0
 13514 1b12 00000000 		.4byte	0
 13515              	.LLST222:
 13516 1b16 46000000 		.4byte	.LVL413
 13517 1b1a EC000000 		.4byte	.LVL421
 13518 1b1e 0100     		.2byte	0x1
 13519 1b20 54       		.byte	0x54
 13520 1b21 00000000 		.4byte	0
 13521 1b25 00000000 		.4byte	0
 13522              	.LLST223:
 13523 1b29 46000000 		.4byte	.LVL413
 13524 1b2d 50000000 		.4byte	.LVL415
 13525 1b31 0100     		.2byte	0x1
 13526 1b33 50       		.byte	0x50
 13527 1b34 00000000 		.4byte	0
 13528 1b38 00000000 		.4byte	0
 13529              	.LLST224:
 13530 1b3c 46000000 		.4byte	.LVL413
 13531 1b40 50000000 		.4byte	.LVL415
 13532 1b44 0100     		.2byte	0x1
 13533 1b46 5B       		.byte	0x5b
 13534 1b47 00000000 		.4byte	0
 13535 1b4b 00000000 		.4byte	0
 13536              	.LLST225:
 13537 1b4f 50000000 		.4byte	.LVL415
 13538 1b53 52000000 		.4byte	.LVL416
 13539 1b57 0100     		.2byte	0x1
 13540 1b59 58       		.byte	0x58
 13541 1b5a 00000000 		.4byte	0
 13542 1b5e 00000000 		.4byte	0
 13543              	.LLST226:
 13544 1b62 00000000 		.4byte	.LVL430
 13545 1b66 0E000000 		.4byte	.LVL434
 13546 1b6a 0100     		.2byte	0x1
 13547 1b6c 50       		.byte	0x50
 13548 1b6d 0E000000 		.4byte	.LVL434
ARM GAS  C:\Users\rdn\AppData\Local\Temp\ccCxUcqe.s 			page 264


 13549 1b71 11000000 		.4byte	.LVL435-1
 13550 1b75 0100     		.2byte	0x1
 13551 1b77 51       		.byte	0x51
 13552 1b78 11000000 		.4byte	.LVL435-1
 13553 1b7c 18000000 		.4byte	.LFE41
 13554 1b80 0400     		.2byte	0x4
 13555 1b82 F3       		.byte	0xf3
 13556 1b83 01       		.uleb128 0x1
 13557 1b84 50       		.byte	0x50
 13558 1b85 9F       		.byte	0x9f
 13559 1b86 00000000 		.4byte	0
 13560 1b8a 00000000 		.4byte	0
 13561              	.LLST227:
 13562 1b8e 00000000 		.4byte	.LVL430
 13563 1b92 0C000000 		.4byte	.LVL433
 13564 1b96 0100     		.2byte	0x1
 13565 1b98 51       		.byte	0x51
 13566 1b99 0C000000 		.4byte	.LVL433
 13567 1b9d 11000000 		.4byte	.LVL435-1
 13568 1ba1 0100     		.2byte	0x1
 13569 1ba3 52       		.byte	0x52
 13570 1ba4 11000000 		.4byte	.LVL435-1
 13571 1ba8 18000000 		.4byte	.LFE41
 13572 1bac 0400     		.2byte	0x4
 13573 1bae F3       		.byte	0xf3
 13574 1baf 01       		.uleb128 0x1
 13575 1bb0 51       		.byte	0x51
 13576 1bb1 9F       		.byte	0x9f
 13577 1bb2 00000000 		.4byte	0
 13578 1bb6 00000000 		.4byte	0
 13579              	.LLST228:
 13580 1bba 00000000 		.4byte	.LVL430
 13581 1bbe 0A000000 		.4byte	.LVL432
 13582 1bc2 0100     		.2byte	0x1
 13583 1bc4 52       		.byte	0x52
 13584 1bc5 0A000000 		.4byte	.LVL432
 13585 1bc9 11000000 		.4byte	.LVL435-1
 13586 1bcd 0100     		.2byte	0x1
 13587 1bcf 53       		.byte	0x53
 13588 1bd0 11000000 		.4byte	.LVL435-1
 13589 1bd4 18000000 		.4byte	.LFE41
 13590 1bd8 0400     		.2byte	0x4
 13591 1bda F3       		.byte	0xf3
 13592 1bdb 01       		.uleb128 0x1
 13593 1bdc 52       		.byte	0x52
 13594 1bdd 9F       		.byte	0x9f
 13595 1bde 00000000 		.4byte	0
 13596 1be2 00000000 		.4byte	0
 13597              	.LLST229:
 13598 1be6 00000000 		.4byte	.LVL430
 13599 1bea 08000000 		.4byte	.LVL431
 13600 1bee 0100     		.2byte	0x1
 13601 1bf0 53       		.byte	0x53
 13602 1bf1 08000000 		.4byte	.LVL431
 13603 1bf5 11000000 		.4byte	.LVL435-1
 13604 1bf9 0200     		.2byte	0x2
 13605 1bfb 7D       		.byte	0x7d
ARM GAS  C:\Users\rdn\AppData\Local\Temp\ccCxUcqe.s 			page 265


 13606 1bfc 00       		.sleb128 0
 13607 1bfd 11000000 		.4byte	.LVL435-1
 13608 1c01 18000000 		.4byte	.LFE41
 13609 1c05 0400     		.2byte	0x4
 13610 1c07 F3       		.byte	0xf3
 13611 1c08 01       		.uleb128 0x1
 13612 1c09 53       		.byte	0x53
 13613 1c0a 9F       		.byte	0x9f
 13614 1c0b 00000000 		.4byte	0
 13615 1c0f 00000000 		.4byte	0
 13616              	.LLST230:
 13617 1c13 00000000 		.4byte	.LVL436
 13618 1c17 0E000000 		.4byte	.LVL437
 13619 1c1b 0100     		.2byte	0x1
 13620 1c1d 50       		.byte	0x50
 13621 1c1e 0E000000 		.4byte	.LVL437
 13622 1c22 6E000000 		.4byte	.LVL450
 13623 1c26 0100     		.2byte	0x1
 13624 1c28 54       		.byte	0x54
 13625 1c29 6E000000 		.4byte	.LVL450
 13626 1c2d 72000000 		.4byte	.LVL451
 13627 1c31 0100     		.2byte	0x1
 13628 1c33 50       		.byte	0x50
 13629 1c34 72000000 		.4byte	.LVL451
 13630 1c38 74000000 		.4byte	.LVL452
 13631 1c3c 0400     		.2byte	0x4
 13632 1c3e F3       		.byte	0xf3
 13633 1c3f 01       		.uleb128 0x1
 13634 1c40 50       		.byte	0x50
 13635 1c41 9F       		.byte	0x9f
 13636 1c42 74000000 		.4byte	.LVL452
 13637 1c46 7E000000 		.4byte	.LVL453
 13638 1c4a 0100     		.2byte	0x1
 13639 1c4c 54       		.byte	0x54
 13640 1c4d 7E000000 		.4byte	.LVL453
 13641 1c51 8C000000 		.4byte	.LFE42
 13642 1c55 0400     		.2byte	0x4
 13643 1c57 F3       		.byte	0xf3
 13644 1c58 01       		.uleb128 0x1
 13645 1c59 50       		.byte	0x50
 13646 1c5a 9F       		.byte	0x9f
 13647 1c5b 00000000 		.4byte	0
 13648 1c5f 00000000 		.4byte	0
 13649              	.LLST231:
 13650 1c63 00000000 		.4byte	.LVL436
 13651 1c67 50000000 		.4byte	.LVL445
 13652 1c6b 0100     		.2byte	0x1
 13653 1c6d 51       		.byte	0x51
 13654 1c6e 50000000 		.4byte	.LVL445
 13655 1c72 6E000000 		.4byte	.LVL450
 13656 1c76 0400     		.2byte	0x4
 13657 1c78 F3       		.byte	0xf3
 13658 1c79 01       		.uleb128 0x1
 13659 1c7a 51       		.byte	0x51
 13660 1c7b 9F       		.byte	0x9f
 13661 1c7c 6E000000 		.4byte	.LVL450
 13662 1c80 7E000000 		.4byte	.LVL453
ARM GAS  C:\Users\rdn\AppData\Local\Temp\ccCxUcqe.s 			page 266


 13663 1c84 0100     		.2byte	0x1
 13664 1c86 51       		.byte	0x51
 13665 1c87 7E000000 		.4byte	.LVL453
 13666 1c8b 8C000000 		.4byte	.LFE42
 13667 1c8f 0400     		.2byte	0x4
 13668 1c91 F3       		.byte	0xf3
 13669 1c92 01       		.uleb128 0x1
 13670 1c93 51       		.byte	0x51
 13671 1c94 9F       		.byte	0x9f
 13672 1c95 00000000 		.4byte	0
 13673 1c99 00000000 		.4byte	0
 13674              	.LLST232:
 13675 1c9d 00000000 		.4byte	.LVL436
 13676 1ca1 48000000 		.4byte	.LVL444
 13677 1ca5 0100     		.2byte	0x1
 13678 1ca7 52       		.byte	0x52
 13679 1ca8 48000000 		.4byte	.LVL444
 13680 1cac 52000000 		.4byte	.LVL446
 13681 1cb0 0100     		.2byte	0x1
 13682 1cb2 50       		.byte	0x50
 13683 1cb3 52000000 		.4byte	.LVL446
 13684 1cb7 53000000 		.4byte	.LVL447-1
 13685 1cbb 0100     		.2byte	0x1
 13686 1cbd 51       		.byte	0x51
 13687 1cbe 53000000 		.4byte	.LVL447-1
 13688 1cc2 6E000000 		.4byte	.LVL450
 13689 1cc6 0400     		.2byte	0x4
 13690 1cc8 F3       		.byte	0xf3
 13691 1cc9 01       		.uleb128 0x1
 13692 1cca 52       		.byte	0x52
 13693 1ccb 9F       		.byte	0x9f
 13694 1ccc 6E000000 		.4byte	.LVL450
 13695 1cd0 7E000000 		.4byte	.LVL453
 13696 1cd4 0100     		.2byte	0x1
 13697 1cd6 52       		.byte	0x52
 13698 1cd7 7E000000 		.4byte	.LVL453
 13699 1cdb 8C000000 		.4byte	.LFE42
 13700 1cdf 0400     		.2byte	0x4
 13701 1ce1 F3       		.byte	0xf3
 13702 1ce2 01       		.uleb128 0x1
 13703 1ce3 52       		.byte	0x52
 13704 1ce4 9F       		.byte	0x9f
 13705 1ce5 00000000 		.4byte	0
 13706 1ce9 00000000 		.4byte	0
 13707              	.LLST233:
 13708 1ced 00000000 		.4byte	.LVL436
 13709 1cf1 53000000 		.4byte	.LVL447-1
 13710 1cf5 0100     		.2byte	0x1
 13711 1cf7 53       		.byte	0x53
 13712 1cf8 53000000 		.4byte	.LVL447-1
 13713 1cfc 6E000000 		.4byte	.LVL450
 13714 1d00 0400     		.2byte	0x4
 13715 1d02 F3       		.byte	0xf3
 13716 1d03 01       		.uleb128 0x1
 13717 1d04 53       		.byte	0x53
 13718 1d05 9F       		.byte	0x9f
 13719 1d06 6E000000 		.4byte	.LVL450
ARM GAS  C:\Users\rdn\AppData\Local\Temp\ccCxUcqe.s 			page 267


 13720 1d0a 7E000000 		.4byte	.LVL453
 13721 1d0e 0100     		.2byte	0x1
 13722 1d10 53       		.byte	0x53
 13723 1d11 7E000000 		.4byte	.LVL453
 13724 1d15 8C000000 		.4byte	.LFE42
 13725 1d19 0400     		.2byte	0x4
 13726 1d1b F3       		.byte	0xf3
 13727 1d1c 01       		.uleb128 0x1
 13728 1d1d 53       		.byte	0x53
 13729 1d1e 9F       		.byte	0x9f
 13730 1d1f 00000000 		.4byte	0
 13731 1d23 00000000 		.4byte	0
 13732              	.LLST234:
 13733 1d27 00000000 		.4byte	.LVL436
 13734 1d2b 82000000 		.4byte	.LVL454
 13735 1d2f 0200     		.2byte	0x2
 13736 1d31 91       		.byte	0x91
 13737 1d32 00       		.sleb128 0
 13738 1d33 82000000 		.4byte	.LVL454
 13739 1d37 8C000000 		.4byte	.LFE42
 13740 1d3b 0200     		.2byte	0x2
 13741 1d3d 7D       		.byte	0x7d
 13742 1d3e 00       		.sleb128 0
 13743 1d3f 00000000 		.4byte	0
 13744 1d43 00000000 		.4byte	0
 13745              	.LLST235:
 13746 1d47 00000000 		.4byte	.LVL436
 13747 1d4b 82000000 		.4byte	.LVL454
 13748 1d4f 0200     		.2byte	0x2
 13749 1d51 91       		.byte	0x91
 13750 1d52 04       		.sleb128 4
 13751 1d53 82000000 		.4byte	.LVL454
 13752 1d57 8C000000 		.4byte	.LFE42
 13753 1d5b 0200     		.2byte	0x2
 13754 1d5d 7D       		.byte	0x7d
 13755 1d5e 04       		.sleb128 4
 13756 1d5f 00000000 		.4byte	0
 13757 1d63 00000000 		.4byte	0
 13758              	.LLST236:
 13759 1d67 0E000000 		.4byte	.LVL437
 13760 1d6b 24000000 		.4byte	.LVL438
 13761 1d6f 0100     		.2byte	0x1
 13762 1d71 50       		.byte	0x50
 13763 1d72 00000000 		.4byte	0
 13764 1d76 00000000 		.4byte	0
 13765              	.LLST237:
 13766 1d7a 0E000000 		.4byte	.LVL437
 13767 1d7e 24000000 		.4byte	.LVL438
 13768 1d82 0100     		.2byte	0x1
 13769 1d84 57       		.byte	0x57
 13770 1d85 00000000 		.4byte	0
 13771 1d89 00000000 		.4byte	0
 13772              	.LLST238:
 13773 1d8d 28000000 		.4byte	.LVL439
 13774 1d91 2E000000 		.4byte	.LVL440
 13775 1d95 0100     		.2byte	0x1
 13776 1d97 50       		.byte	0x50
ARM GAS  C:\Users\rdn\AppData\Local\Temp\ccCxUcqe.s 			page 268


 13777 1d98 2E000000 		.4byte	.LVL440
 13778 1d9c 32000000 		.4byte	.LVL441
 13779 1da0 0300     		.2byte	0x3
 13780 1da2 70       		.byte	0x70
 13781 1da3 05       		.sleb128 5
 13782 1da4 9F       		.byte	0x9f
 13783 1da5 32000000 		.4byte	.LVL441
 13784 1da9 3C000000 		.4byte	.LVL442
 13785 1dad 0200     		.2byte	0x2
 13786 1daf 74       		.byte	0x74
 13787 1db0 01       		.sleb128 1
 13788 1db1 3C000000 		.4byte	.LVL442
 13789 1db5 40000000 		.4byte	.LVL443
 13790 1db9 0100     		.2byte	0x1
 13791 1dbb 50       		.byte	0x50
 13792 1dbc 00000000 		.4byte	0
 13793 1dc0 00000000 		.4byte	0
 13794              	.LLST239:
 13795 1dc4 28000000 		.4byte	.LVL439
 13796 1dc8 40000000 		.4byte	.LVL443
 13797 1dcc 0100     		.2byte	0x1
 13798 1dce 57       		.byte	0x57
 13799 1dcf 00000000 		.4byte	0
 13800 1dd3 00000000 		.4byte	0
 13801              	.LLST240:
 13802 1dd7 00000000 		.4byte	.LVL455
 13803 1ddb 0C000000 		.4byte	.LVL457
 13804 1ddf 0100     		.2byte	0x1
 13805 1de1 50       		.byte	0x50
 13806 1de2 0C000000 		.4byte	.LVL457
 13807 1de6 AC000000 		.4byte	.LFE50
 13808 1dea 0400     		.2byte	0x4
 13809 1dec F3       		.byte	0xf3
 13810 1ded 01       		.uleb128 0x1
 13811 1dee 50       		.byte	0x50
 13812 1def 9F       		.byte	0x9f
 13813 1df0 00000000 		.4byte	0
 13814 1df4 00000000 		.4byte	0
 13815              	.LLST241:
 13816 1df8 00000000 		.4byte	.LVL455
 13817 1dfc 0A000000 		.4byte	.LVL456
 13818 1e00 0100     		.2byte	0x1
 13819 1e02 51       		.byte	0x51
 13820 1e03 0A000000 		.4byte	.LVL456
 13821 1e07 8C000000 		.4byte	.LVL461
 13822 1e0b 0100     		.2byte	0x1
 13823 1e0d 55       		.byte	0x55
 13824 1e0e 8C000000 		.4byte	.LVL461
 13825 1e12 9E000000 		.4byte	.LVL462
 13826 1e16 0400     		.2byte	0x4
 13827 1e18 F3       		.byte	0xf3
 13828 1e19 01       		.uleb128 0x1
 13829 1e1a 51       		.byte	0x51
 13830 1e1b 9F       		.byte	0x9f
 13831 1e1c 9E000000 		.4byte	.LVL462
 13832 1e20 A6000000 		.4byte	.LVL464
 13833 1e24 0100     		.2byte	0x1
ARM GAS  C:\Users\rdn\AppData\Local\Temp\ccCxUcqe.s 			page 269


 13834 1e26 55       		.byte	0x55
 13835 1e27 A6000000 		.4byte	.LVL464
 13836 1e2b AC000000 		.4byte	.LFE50
 13837 1e2f 0400     		.2byte	0x4
 13838 1e31 F3       		.byte	0xf3
 13839 1e32 01       		.uleb128 0x1
 13840 1e33 51       		.byte	0x51
 13841 1e34 9F       		.byte	0x9f
 13842 1e35 00000000 		.4byte	0
 13843 1e39 00000000 		.4byte	0
 13844              	.LLST242:
 13845 1e3d 00000000 		.4byte	.LVL455
 13846 1e41 0F000000 		.4byte	.LVL458-1
 13847 1e45 0100     		.2byte	0x1
 13848 1e47 52       		.byte	0x52
 13849 1e48 0F000000 		.4byte	.LVL458-1
 13850 1e4c 86000000 		.4byte	.LVL460
 13851 1e50 0100     		.2byte	0x1
 13852 1e52 54       		.byte	0x54
 13853 1e53 86000000 		.4byte	.LVL460
 13854 1e57 9E000000 		.4byte	.LVL462
 13855 1e5b 0400     		.2byte	0x4
 13856 1e5d F3       		.byte	0xf3
 13857 1e5e 01       		.uleb128 0x1
 13858 1e5f 52       		.byte	0x52
 13859 1e60 9F       		.byte	0x9f
 13860 1e61 9E000000 		.4byte	.LVL462
 13861 1e65 A6000000 		.4byte	.LVL464
 13862 1e69 0100     		.2byte	0x1
 13863 1e6b 54       		.byte	0x54
 13864 1e6c A6000000 		.4byte	.LVL464
 13865 1e70 AC000000 		.4byte	.LFE50
 13866 1e74 0400     		.2byte	0x4
 13867 1e76 F3       		.byte	0xf3
 13868 1e77 01       		.uleb128 0x1
 13869 1e78 52       		.byte	0x52
 13870 1e79 9F       		.byte	0x9f
 13871 1e7a 00000000 		.4byte	0
 13872 1e7e 00000000 		.4byte	0
 13873              	.LLST243:
 13874 1e82 00000000 		.4byte	.LVL465
 13875 1e86 08000000 		.4byte	.LVL467
 13876 1e8a 0100     		.2byte	0x1
 13877 1e8c 50       		.byte	0x50
 13878 1e8d 08000000 		.4byte	.LVL467
 13879 1e91 0B000000 		.4byte	.LVL468-1
 13880 1e95 0100     		.2byte	0x1
 13881 1e97 51       		.byte	0x51
 13882 1e98 0B000000 		.4byte	.LVL468-1
 13883 1e9c 0E000000 		.4byte	.LFE51
 13884 1ea0 0400     		.2byte	0x4
 13885 1ea2 F3       		.byte	0xf3
 13886 1ea3 01       		.uleb128 0x1
 13887 1ea4 50       		.byte	0x50
 13888 1ea5 9F       		.byte	0x9f
 13889 1ea6 00000000 		.4byte	0
 13890 1eaa 00000000 		.4byte	0
ARM GAS  C:\Users\rdn\AppData\Local\Temp\ccCxUcqe.s 			page 270


 13891              	.LLST244:
 13892 1eae 00000000 		.4byte	.LVL465
 13893 1eb2 06000000 		.4byte	.LVL466
 13894 1eb6 0100     		.2byte	0x1
 13895 1eb8 51       		.byte	0x51
 13896 1eb9 06000000 		.4byte	.LVL466
 13897 1ebd 0B000000 		.4byte	.LVL468-1
 13898 1ec1 0100     		.2byte	0x1
 13899 1ec3 52       		.byte	0x52
 13900 1ec4 0B000000 		.4byte	.LVL468-1
 13901 1ec8 0E000000 		.4byte	.LFE51
 13902 1ecc 0400     		.2byte	0x4
 13903 1ece F3       		.byte	0xf3
 13904 1ecf 01       		.uleb128 0x1
 13905 1ed0 51       		.byte	0x51
 13906 1ed1 9F       		.byte	0x9f
 13907 1ed2 00000000 		.4byte	0
 13908 1ed6 00000000 		.4byte	0
 13909              	.LLST245:
 13910 1eda 00000000 		.4byte	.LVL469
 13911 1ede 18000000 		.4byte	.LVL472
 13912 1ee2 0100     		.2byte	0x1
 13913 1ee4 50       		.byte	0x50
 13914 1ee5 18000000 		.4byte	.LVL472
 13915 1ee9 58010000 		.4byte	.LFE52
 13916 1eed 0400     		.2byte	0x4
 13917 1eef F3       		.byte	0xf3
 13918 1ef0 01       		.uleb128 0x1
 13919 1ef1 50       		.byte	0x50
 13920 1ef2 9F       		.byte	0x9f
 13921 1ef3 00000000 		.4byte	0
 13922 1ef7 00000000 		.4byte	0
 13923              	.LLST246:
 13924 1efb 00000000 		.4byte	.LVL469
 13925 1eff 16000000 		.4byte	.LVL471
 13926 1f03 0100     		.2byte	0x1
 13927 1f05 51       		.byte	0x51
 13928 1f06 16000000 		.4byte	.LVL471
 13929 1f0a 4A010000 		.4byte	.LVL496
 13930 1f0e 0100     		.2byte	0x1
 13931 1f10 5A       		.byte	0x5a
 13932 1f11 4A010000 		.4byte	.LVL496
 13933 1f15 58010000 		.4byte	.LFE52
 13934 1f19 0400     		.2byte	0x4
 13935 1f1b F3       		.byte	0xf3
 13936 1f1c 01       		.uleb128 0x1
 13937 1f1d 51       		.byte	0x51
 13938 1f1e 9F       		.byte	0x9f
 13939 1f1f 00000000 		.4byte	0
 13940 1f23 00000000 		.4byte	0
 13941              	.LLST247:
 13942 1f27 00000000 		.4byte	.LVL469
 13943 1f2b 1B000000 		.4byte	.LVL473-1
 13944 1f2f 0100     		.2byte	0x1
 13945 1f31 52       		.byte	0x52
 13946 1f32 1B000000 		.4byte	.LVL473-1
 13947 1f36 34000000 		.4byte	.LVL478
ARM GAS  C:\Users\rdn\AppData\Local\Temp\ccCxUcqe.s 			page 271


 13948 1f3a 0100     		.2byte	0x1
 13949 1f3c 56       		.byte	0x56
 13950 1f3d 34000000 		.4byte	.LVL478
 13951 1f41 58010000 		.4byte	.LFE52
 13952 1f45 0400     		.2byte	0x4
 13953 1f47 F3       		.byte	0xf3
 13954 1f48 01       		.uleb128 0x1
 13955 1f49 52       		.byte	0x52
 13956 1f4a 9F       		.byte	0x9f
 13957 1f4b 00000000 		.4byte	0
 13958 1f4f 00000000 		.4byte	0
 13959              	.LLST248:
 13960 1f53 00000000 		.4byte	.LVL469
 13961 1f57 14000000 		.4byte	.LVL470
 13962 1f5b 0100     		.2byte	0x1
 13963 1f5d 53       		.byte	0x53
 13964 1f5e 14000000 		.4byte	.LVL470
 13965 1f62 18010000 		.4byte	.LVL486
 13966 1f66 0100     		.2byte	0x1
 13967 1f68 57       		.byte	0x57
 13968 1f69 36010000 		.4byte	.LVL488
 13969 1f6d 44010000 		.4byte	.LVL495
 13970 1f71 0100     		.2byte	0x1
 13971 1f73 57       		.byte	0x57
 13972 1f74 00000000 		.4byte	0
 13973 1f78 00000000 		.4byte	0
 13974              	.LLST249:
 13975 1f7c 00000000 		.4byte	.LVL469
 13976 1f80 4A010000 		.4byte	.LVL496
 13977 1f84 0200     		.2byte	0x2
 13978 1f86 91       		.byte	0x91
 13979 1f87 00       		.sleb128 0
 13980 1f88 4A010000 		.4byte	.LVL496
 13981 1f8c 58010000 		.4byte	.LFE52
 13982 1f90 0200     		.2byte	0x2
 13983 1f92 7D       		.byte	0x7d
 13984 1f93 00       		.sleb128 0
 13985 1f94 00000000 		.4byte	0
 13986 1f98 00000000 		.4byte	0
 13987              	.LLST250:
 13988 1f9c 1E000000 		.4byte	.LVL474
 13989 1fa0 4A010000 		.4byte	.LVL496
 13990 1fa4 0100     		.2byte	0x1
 13991 1fa6 58       		.byte	0x58
 13992 1fa7 00000000 		.4byte	0
 13993 1fab 00000000 		.4byte	0
 13994              	.LLST251:
 13995 1faf 2A000000 		.4byte	.LVL476
 13996 1fb3 70000000 		.4byte	.LVL481
 13997 1fb7 0100     		.2byte	0x1
 13998 1fb9 59       		.byte	0x59
 13999 1fba 70000000 		.4byte	.LVL481
 14000 1fbe 36010000 		.4byte	.LVL488
 14001 1fc2 0200     		.2byte	0x2
 14002 1fc4 91       		.byte	0x91
 14003 1fc5 54       		.sleb128 -44
 14004 1fc6 36010000 		.4byte	.LVL488
ARM GAS  C:\Users\rdn\AppData\Local\Temp\ccCxUcqe.s 			page 272


 14005 1fca 44010000 		.4byte	.LVL495
 14006 1fce 0100     		.2byte	0x1
 14007 1fd0 59       		.byte	0x59
 14008 1fd1 44010000 		.4byte	.LVL495
 14009 1fd5 4A010000 		.4byte	.LVL496
 14010 1fd9 0200     		.2byte	0x2
 14011 1fdb 91       		.byte	0x91
 14012 1fdc 54       		.sleb128 -44
 14013 1fdd 4A010000 		.4byte	.LVL496
 14014 1fe1 58010000 		.4byte	.LFE52
 14015 1fe5 0200     		.2byte	0x2
 14016 1fe7 7D       		.byte	0x7d
 14017 1fe8 54       		.sleb128 -44
 14018 1fe9 00000000 		.4byte	0
 14019 1fed 00000000 		.4byte	0
 14020              	.LLST252:
 14021 1ff1 34000000 		.4byte	.LVL478
 14022 1ff5 8A000000 		.4byte	.LVL483
 14023 1ff9 0100     		.2byte	0x1
 14024 1ffb 50       		.byte	0x50
 14025 1ffc 36010000 		.4byte	.LVL488
 14026 2000 38010000 		.4byte	.LVL489
 14027 2004 0100     		.2byte	0x1
 14028 2006 50       		.byte	0x50
 14029 2007 3A010000 		.4byte	.LVL490
 14030 200b 3C010000 		.4byte	.LVL491
 14031 200f 0100     		.2byte	0x1
 14032 2011 50       		.byte	0x50
 14033 2012 3E010000 		.4byte	.LVL492
 14034 2016 40010000 		.4byte	.LVL493
 14035 201a 0100     		.2byte	0x1
 14036 201c 50       		.byte	0x50
 14037 201d 42010000 		.4byte	.LVL494
 14038 2021 44010000 		.4byte	.LVL495
 14039 2025 0100     		.2byte	0x1
 14040 2027 50       		.byte	0x50
 14041 2028 00000000 		.4byte	0
 14042 202c 00000000 		.4byte	0
 14043              	.LLST253:
 14044 2030 46000000 		.4byte	.LVL479
 14045 2034 36010000 		.4byte	.LVL488
 14046 2038 0100     		.2byte	0x1
 14047 203a 54       		.byte	0x54
 14048 203b 00000000 		.4byte	0
 14049 203f 00000000 		.4byte	0
 14050              	.LLST254:
 14051 2043 46000000 		.4byte	.LVL479
 14052 2047 66000000 		.4byte	.LVL480
 14053 204b 0100     		.2byte	0x1
 14054 204d 50       		.byte	0x50
 14055 204e 00000000 		.4byte	0
 14056 2052 00000000 		.4byte	0
 14057              	.LLST255:
 14058 2056 46000000 		.4byte	.LVL479
 14059 205a 66000000 		.4byte	.LVL480
 14060 205e 0100     		.2byte	0x1
 14061 2060 58       		.byte	0x58
ARM GAS  C:\Users\rdn\AppData\Local\Temp\ccCxUcqe.s 			page 273


 14062 2061 00000000 		.4byte	0
 14063 2065 00000000 		.4byte	0
 14064              	.LLST256:
 14065 2069 66000000 		.4byte	.LVL480
 14066 206d 70000000 		.4byte	.LVL481
 14067 2071 0100     		.2byte	0x1
 14068 2073 56       		.byte	0x56
 14069 2074 00000000 		.4byte	0
 14070 2078 00000000 		.4byte	0
 14071              	.LLST257:
 14072 207c 66000000 		.4byte	.LVL480
 14073 2080 70000000 		.4byte	.LVL481
 14074 2084 0100     		.2byte	0x1
 14075 2086 58       		.byte	0x58
 14076 2087 00000000 		.4byte	0
 14077 208b 00000000 		.4byte	0
 14078              	.LLST258:
 14079 208f 70000000 		.4byte	.LVL481
 14080 2093 7E000000 		.4byte	.LVL482
 14081 2097 0100     		.2byte	0x1
 14082 2099 56       		.byte	0x56
 14083 209a 00000000 		.4byte	0
 14084 209e 00000000 		.4byte	0
 14085              	.LLST259:
 14086 20a2 70000000 		.4byte	.LVL481
 14087 20a6 7E000000 		.4byte	.LVL482
 14088 20aa 0100     		.2byte	0x1
 14089 20ac 58       		.byte	0x58
 14090 20ad 00000000 		.4byte	0
 14091 20b1 00000000 		.4byte	0
 14092              	.LLST260:
 14093 20b5 00000000 		.4byte	.LVL497
 14094 20b9 0E000000 		.4byte	.LVL501
 14095 20bd 0100     		.2byte	0x1
 14096 20bf 50       		.byte	0x50
 14097 20c0 0E000000 		.4byte	.LVL501
 14098 20c4 11000000 		.4byte	.LVL502-1
 14099 20c8 0100     		.2byte	0x1
 14100 20ca 51       		.byte	0x51
 14101 20cb 11000000 		.4byte	.LVL502-1
 14102 20cf 18000000 		.4byte	.LFE53
 14103 20d3 0400     		.2byte	0x4
 14104 20d5 F3       		.byte	0xf3
 14105 20d6 01       		.uleb128 0x1
 14106 20d7 50       		.byte	0x50
 14107 20d8 9F       		.byte	0x9f
 14108 20d9 00000000 		.4byte	0
 14109 20dd 00000000 		.4byte	0
 14110              	.LLST261:
 14111 20e1 00000000 		.4byte	.LVL497
 14112 20e5 0C000000 		.4byte	.LVL500
 14113 20e9 0100     		.2byte	0x1
 14114 20eb 51       		.byte	0x51
 14115 20ec 0C000000 		.4byte	.LVL500
 14116 20f0 11000000 		.4byte	.LVL502-1
 14117 20f4 0100     		.2byte	0x1
 14118 20f6 52       		.byte	0x52
ARM GAS  C:\Users\rdn\AppData\Local\Temp\ccCxUcqe.s 			page 274


 14119 20f7 11000000 		.4byte	.LVL502-1
 14120 20fb 18000000 		.4byte	.LFE53
 14121 20ff 0400     		.2byte	0x4
 14122 2101 F3       		.byte	0xf3
 14123 2102 01       		.uleb128 0x1
 14124 2103 51       		.byte	0x51
 14125 2104 9F       		.byte	0x9f
 14126 2105 00000000 		.4byte	0
 14127 2109 00000000 		.4byte	0
 14128              	.LLST262:
 14129 210d 00000000 		.4byte	.LVL497
 14130 2111 0A000000 		.4byte	.LVL499
 14131 2115 0100     		.2byte	0x1
 14132 2117 52       		.byte	0x52
 14133 2118 0A000000 		.4byte	.LVL499
 14134 211c 11000000 		.4byte	.LVL502-1
 14135 2120 0100     		.2byte	0x1
 14136 2122 53       		.byte	0x53
 14137 2123 11000000 		.4byte	.LVL502-1
 14138 2127 18000000 		.4byte	.LFE53
 14139 212b 0400     		.2byte	0x4
 14140 212d F3       		.byte	0xf3
 14141 212e 01       		.uleb128 0x1
 14142 212f 52       		.byte	0x52
 14143 2130 9F       		.byte	0x9f
 14144 2131 00000000 		.4byte	0
 14145 2135 00000000 		.4byte	0
 14146              	.LLST263:
 14147 2139 00000000 		.4byte	.LVL497
 14148 213d 08000000 		.4byte	.LVL498
 14149 2141 0100     		.2byte	0x1
 14150 2143 53       		.byte	0x53
 14151 2144 08000000 		.4byte	.LVL498
 14152 2148 11000000 		.4byte	.LVL502-1
 14153 214c 0200     		.2byte	0x2
 14154 214e 7D       		.byte	0x7d
 14155 214f 00       		.sleb128 0
 14156 2150 11000000 		.4byte	.LVL502-1
 14157 2154 18000000 		.4byte	.LFE53
 14158 2158 0400     		.2byte	0x4
 14159 215a F3       		.byte	0xf3
 14160 215b 01       		.uleb128 0x1
 14161 215c 53       		.byte	0x53
 14162 215d 9F       		.byte	0x9f
 14163 215e 00000000 		.4byte	0
 14164 2162 00000000 		.4byte	0
 14165              	.LLST264:
 14166 2166 00000000 		.4byte	.LVL503
 14167 216a 14000000 		.4byte	.LVL504
 14168 216e 0100     		.2byte	0x1
 14169 2170 50       		.byte	0x50
 14170 2171 14000000 		.4byte	.LVL504
 14171 2175 76000000 		.4byte	.LVL518
 14172 2179 0100     		.2byte	0x1
 14173 217b 54       		.byte	0x54
 14174 217c 76000000 		.4byte	.LVL518
 14175 2180 7A000000 		.4byte	.LVL519
ARM GAS  C:\Users\rdn\AppData\Local\Temp\ccCxUcqe.s 			page 275


 14176 2184 0100     		.2byte	0x1
 14177 2186 50       		.byte	0x50
 14178 2187 7A000000 		.4byte	.LVL519
 14179 218b 7C000000 		.4byte	.LVL520
 14180 218f 0400     		.2byte	0x4
 14181 2191 F3       		.byte	0xf3
 14182 2192 01       		.uleb128 0x1
 14183 2193 50       		.byte	0x50
 14184 2194 9F       		.byte	0x9f
 14185 2195 7C000000 		.4byte	.LVL520
 14186 2199 80000000 		.4byte	.LVL521
 14187 219d 0100     		.2byte	0x1
 14188 219f 50       		.byte	0x50
 14189 21a0 80000000 		.4byte	.LVL521
 14190 21a4 8A000000 		.4byte	.LVL523
 14191 21a8 0100     		.2byte	0x1
 14192 21aa 54       		.byte	0x54
 14193 21ab 8A000000 		.4byte	.LVL523
 14194 21af 94000000 		.4byte	.LFE54
 14195 21b3 0400     		.2byte	0x4
 14196 21b5 F3       		.byte	0xf3
 14197 21b6 01       		.uleb128 0x1
 14198 21b7 50       		.byte	0x50
 14199 21b8 9F       		.byte	0x9f
 14200 21b9 00000000 		.4byte	0
 14201 21bd 00000000 		.4byte	0
 14202              	.LLST265:
 14203 21c1 00000000 		.4byte	.LVL503
 14204 21c5 3D000000 		.4byte	.LVL511-1
 14205 21c9 0100     		.2byte	0x1
 14206 21cb 51       		.byte	0x51
 14207 21cc 3D000000 		.4byte	.LVL511-1
 14208 21d0 46000000 		.4byte	.LVL512
 14209 21d4 0400     		.2byte	0x4
 14210 21d6 F3       		.byte	0xf3
 14211 21d7 01       		.uleb128 0x1
 14212 21d8 51       		.byte	0x51
 14213 21d9 9F       		.byte	0x9f
 14214 21da 46000000 		.4byte	.LVL512
 14215 21de 4A000000 		.4byte	.LVL513
 14216 21e2 0100     		.2byte	0x1
 14217 21e4 51       		.byte	0x51
 14218 21e5 4A000000 		.4byte	.LVL513
 14219 21e9 76000000 		.4byte	.LVL518
 14220 21ed 0400     		.2byte	0x4
 14221 21ef F3       		.byte	0xf3
 14222 21f0 01       		.uleb128 0x1
 14223 21f1 51       		.byte	0x51
 14224 21f2 9F       		.byte	0x9f
 14225 21f3 76000000 		.4byte	.LVL518
 14226 21f7 86000000 		.4byte	.LVL522
 14227 21fb 0100     		.2byte	0x1
 14228 21fd 51       		.byte	0x51
 14229 21fe 86000000 		.4byte	.LVL522
 14230 2202 94000000 		.4byte	.LFE54
 14231 2206 0400     		.2byte	0x4
 14232 2208 F3       		.byte	0xf3
ARM GAS  C:\Users\rdn\AppData\Local\Temp\ccCxUcqe.s 			page 276


 14233 2209 01       		.uleb128 0x1
 14234 220a 51       		.byte	0x51
 14235 220b 9F       		.byte	0x9f
 14236 220c 00000000 		.4byte	0
 14237 2210 00000000 		.4byte	0
 14238              	.LLST266:
 14239 2214 00000000 		.4byte	.LVL503
 14240 2218 3D000000 		.4byte	.LVL511-1
 14241 221c 0100     		.2byte	0x1
 14242 221e 52       		.byte	0x52
 14243 221f 3D000000 		.4byte	.LVL511-1
 14244 2223 46000000 		.4byte	.LVL512
 14245 2227 0100     		.2byte	0x1
 14246 2229 55       		.byte	0x55
 14247 222a 46000000 		.4byte	.LVL512
 14248 222e 4A000000 		.4byte	.LVL513
 14249 2232 0100     		.2byte	0x1
 14250 2234 52       		.byte	0x52
 14251 2235 4A000000 		.4byte	.LVL513
 14252 2239 76000000 		.4byte	.LVL518
 14253 223d 0100     		.2byte	0x1
 14254 223f 55       		.byte	0x55
 14255 2240 76000000 		.4byte	.LVL518
 14256 2244 86000000 		.4byte	.LVL522
 14257 2248 0100     		.2byte	0x1
 14258 224a 52       		.byte	0x52
 14259 224b 86000000 		.4byte	.LVL522
 14260 224f 94000000 		.4byte	.LFE54
 14261 2253 0400     		.2byte	0x4
 14262 2255 F3       		.byte	0xf3
 14263 2256 01       		.uleb128 0x1
 14264 2257 52       		.byte	0x52
 14265 2258 9F       		.byte	0x9f
 14266 2259 00000000 		.4byte	0
 14267 225d 00000000 		.4byte	0
 14268              	.LLST267:
 14269 2261 00000000 		.4byte	.LVL503
 14270 2265 38000000 		.4byte	.LVL510
 14271 2269 0100     		.2byte	0x1
 14272 226b 53       		.byte	0x53
 14273 226c 38000000 		.4byte	.LVL510
 14274 2270 46000000 		.4byte	.LVL512
 14275 2274 0400     		.2byte	0x4
 14276 2276 F3       		.byte	0xf3
 14277 2277 01       		.uleb128 0x1
 14278 2278 53       		.byte	0x53
 14279 2279 9F       		.byte	0x9f
 14280 227a 46000000 		.4byte	.LVL512
 14281 227e 4A000000 		.4byte	.LVL513
 14282 2282 0100     		.2byte	0x1
 14283 2284 53       		.byte	0x53
 14284 2285 4A000000 		.4byte	.LVL513
 14285 2289 76000000 		.4byte	.LVL518
 14286 228d 0400     		.2byte	0x4
 14287 228f F3       		.byte	0xf3
 14288 2290 01       		.uleb128 0x1
 14289 2291 53       		.byte	0x53
ARM GAS  C:\Users\rdn\AppData\Local\Temp\ccCxUcqe.s 			page 277


 14290 2292 9F       		.byte	0x9f
 14291 2293 76000000 		.4byte	.LVL518
 14292 2297 86000000 		.4byte	.LVL522
 14293 229b 0100     		.2byte	0x1
 14294 229d 53       		.byte	0x53
 14295 229e 86000000 		.4byte	.LVL522
 14296 22a2 94000000 		.4byte	.LFE54
 14297 22a6 0400     		.2byte	0x4
 14298 22a8 F3       		.byte	0xf3
 14299 22a9 01       		.uleb128 0x1
 14300 22aa 53       		.byte	0x53
 14301 22ab 9F       		.byte	0x9f
 14302 22ac 00000000 		.4byte	0
 14303 22b0 00000000 		.4byte	0
 14304              	.LLST268:
 14305 22b4 00000000 		.4byte	.LVL503
 14306 22b8 8A000000 		.4byte	.LVL523
 14307 22bc 0200     		.2byte	0x2
 14308 22be 91       		.byte	0x91
 14309 22bf 00       		.sleb128 0
 14310 22c0 8A000000 		.4byte	.LVL523
 14311 22c4 94000000 		.4byte	.LFE54
 14312 22c8 0200     		.2byte	0x2
 14313 22ca 7D       		.byte	0x7d
 14314 22cb 00       		.sleb128 0
 14315 22cc 00000000 		.4byte	0
 14316 22d0 00000000 		.4byte	0
 14317              	.LLST269:
 14318 22d4 00000000 		.4byte	.LVL503
 14319 22d8 8A000000 		.4byte	.LVL523
 14320 22dc 0200     		.2byte	0x2
 14321 22de 91       		.byte	0x91
 14322 22df 04       		.sleb128 4
 14323 22e0 8A000000 		.4byte	.LVL523
 14324 22e4 94000000 		.4byte	.LFE54
 14325 22e8 0200     		.2byte	0x2
 14326 22ea 7D       		.byte	0x7d
 14327 22eb 04       		.sleb128 4
 14328 22ec 00000000 		.4byte	0
 14329 22f0 00000000 		.4byte	0
 14330              	.LLST270:
 14331 22f4 4C000000 		.4byte	.LVL514
 14332 22f8 76000000 		.4byte	.LVL518
 14333 22fc 0100     		.2byte	0x1
 14334 22fe 56       		.byte	0x56
 14335 22ff 00000000 		.4byte	0
 14336 2303 00000000 		.4byte	0
 14337              	.LLST271:
 14338 2307 14000000 		.4byte	.LVL504
 14339 230b 1A000000 		.4byte	.LVL505
 14340 230f 0100     		.2byte	0x1
 14341 2311 50       		.byte	0x50
 14342 2312 1A000000 		.4byte	.LVL505
 14343 2316 1E000000 		.4byte	.LVL506
 14344 231a 0300     		.2byte	0x3
 14345 231c 70       		.byte	0x70
 14346 231d 05       		.sleb128 5
ARM GAS  C:\Users\rdn\AppData\Local\Temp\ccCxUcqe.s 			page 278


 14347 231e 9F       		.byte	0x9f
 14348 231f 1E000000 		.4byte	.LVL506
 14349 2323 28000000 		.4byte	.LVL508
 14350 2327 0200     		.2byte	0x2
 14351 2329 74       		.byte	0x74
 14352 232a 01       		.sleb128 1
 14353 232b 28000000 		.4byte	.LVL508
 14354 232f 2C000000 		.4byte	.LVL509
 14355 2333 0100     		.2byte	0x1
 14356 2335 50       		.byte	0x50
 14357 2336 00000000 		.4byte	0
 14358 233a 00000000 		.4byte	0
 14359              	.LLST272:
 14360 233e 14000000 		.4byte	.LVL504
 14361 2342 20000000 		.4byte	.LVL507
 14362 2346 0100     		.2byte	0x1
 14363 2348 55       		.byte	0x55
 14364 2349 20000000 		.4byte	.LVL507
 14365 234d 28000000 		.4byte	.LVL508
 14366 2351 0200     		.2byte	0x2
 14367 2353 74       		.byte	0x74
 14368 2354 00       		.sleb128 0
 14369 2355 28000000 		.4byte	.LVL508
 14370 2359 2C000000 		.4byte	.LVL509
 14371 235d 0100     		.2byte	0x1
 14372 235f 55       		.byte	0x55
 14373 2360 00000000 		.4byte	0
 14374 2364 00000000 		.4byte	0
 14375              		.section	.debug_aranges,"",%progbits
 14376 0000 2C010000 		.4byte	0x12c
 14377 0004 0200     		.2byte	0x2
 14378 0006 00000000 		.4byte	.Ldebug_info0
 14379 000a 04       		.byte	0x4
 14380 000b 00       		.byte	0
 14381 000c 0000     		.2byte	0
 14382 000e 0000     		.2byte	0
 14383 0010 00000000 		.4byte	.LFB20
 14384 0014 36000000 		.4byte	.LFE20-.LFB20
 14385 0018 00000000 		.4byte	.LFB21
 14386 001c 68000000 		.4byte	.LFE21-.LFB21
 14387 0020 00000000 		.4byte	.LFB32
 14388 0024 58000000 		.4byte	.LFE32-.LFB32
 14389 0028 00000000 		.4byte	.LFB33
 14390 002c 60000000 		.4byte	.LFE33-.LFB33
 14391 0030 00000000 		.4byte	.LFB34
 14392 0034 74000000 		.4byte	.LFE34-.LFB34
 14393 0038 00000000 		.4byte	.LFB35
 14394 003c 7C000000 		.4byte	.LFE35-.LFB35
 14395 0040 00000000 		.4byte	.LFB43
 14396 0044 80000000 		.4byte	.LFE43-.LFB43
 14397 0048 00000000 		.4byte	.LFB44
 14398 004c A8000000 		.4byte	.LFE44-.LFB44
 14399 0050 00000000 		.4byte	.LFB45
 14400 0054 B0000000 		.4byte	.LFE45-.LFB45
 14401 0058 00000000 		.4byte	.LFB49
 14402 005c 48000000 		.4byte	.LFE49-.LFB49
 14403 0060 00000000 		.4byte	.LFB36
ARM GAS  C:\Users\rdn\AppData\Local\Temp\ccCxUcqe.s 			page 279


 14404 0064 18010000 		.4byte	.LFE36-.LFB36
 14405 0068 00000000 		.4byte	.LFB37
 14406 006c A2000000 		.4byte	.LFE37-.LFB37
 14407 0070 00000000 		.4byte	.LFB47
 14408 0074 F8000000 		.4byte	.LFE47-.LFB47
 14409 0078 00000000 		.4byte	.LFB48
 14410 007c 08010000 		.4byte	.LFE48-.LFB48
 14411 0080 00000000 		.4byte	.LFB46
 14412 0084 54000000 		.4byte	.LFE46-.LFB46
 14413 0088 00000000 		.4byte	.LFB22
 14414 008c 3C000000 		.4byte	.LFE22-.LFB22
 14415 0090 00000000 		.4byte	.LFB23
 14416 0094 0E000000 		.4byte	.LFE23-.LFB23
 14417 0098 00000000 		.4byte	.LFB24
 14418 009c 30010000 		.4byte	.LFE24-.LFB24
 14419 00a0 00000000 		.4byte	.LFB25
 14420 00a4 1A000000 		.4byte	.LFE25-.LFB25
 14421 00a8 00000000 		.4byte	.LFB26
 14422 00ac 12000000 		.4byte	.LFE26-.LFB26
 14423 00b0 00000000 		.4byte	.LFB27
 14424 00b4 12000000 		.4byte	.LFE27-.LFB27
 14425 00b8 00000000 		.4byte	.LFB28
 14426 00bc 80000000 		.4byte	.LFE28-.LFB28
 14427 00c0 00000000 		.4byte	.LFB29
 14428 00c4 12000000 		.4byte	.LFE29-.LFB29
 14429 00c8 00000000 		.4byte	.LFB30
 14430 00cc 54000000 		.4byte	.LFE30-.LFB30
 14431 00d0 00000000 		.4byte	.LFB31
 14432 00d4 0E000000 		.4byte	.LFE31-.LFB31
 14433 00d8 00000000 		.4byte	.LFB38
 14434 00dc 8C000000 		.4byte	.LFE38-.LFB38
 14435 00e0 00000000 		.4byte	.LFB39
 14436 00e4 0E000000 		.4byte	.LFE39-.LFB39
 14437 00e8 00000000 		.4byte	.LFB40
 14438 00ec 08010000 		.4byte	.LFE40-.LFB40
 14439 00f0 00000000 		.4byte	.LFB41
 14440 00f4 18000000 		.4byte	.LFE41-.LFB41
 14441 00f8 00000000 		.4byte	.LFB42
 14442 00fc 8C000000 		.4byte	.LFE42-.LFB42
 14443 0100 00000000 		.4byte	.LFB50
 14444 0104 AC000000 		.4byte	.LFE50-.LFB50
 14445 0108 00000000 		.4byte	.LFB51
 14446 010c 0E000000 		.4byte	.LFE51-.LFB51
 14447 0110 00000000 		.4byte	.LFB52
 14448 0114 58010000 		.4byte	.LFE52-.LFB52
 14449 0118 00000000 		.4byte	.LFB53
 14450 011c 18000000 		.4byte	.LFE53-.LFB53
 14451 0120 00000000 		.4byte	.LFB54
 14452 0124 94000000 		.4byte	.LFE54-.LFB54
 14453 0128 00000000 		.4byte	0
 14454 012c 00000000 		.4byte	0
 14455              		.section	.debug_ranges,"",%progbits
 14456              	.Ldebug_ranges0:
 14457 0000 00000000 		.4byte	.LFB20
 14458 0004 36000000 		.4byte	.LFE20
 14459 0008 00000000 		.4byte	.LFB21
 14460 000c 68000000 		.4byte	.LFE21
ARM GAS  C:\Users\rdn\AppData\Local\Temp\ccCxUcqe.s 			page 280


 14461 0010 00000000 		.4byte	.LFB32
 14462 0014 58000000 		.4byte	.LFE32
 14463 0018 00000000 		.4byte	.LFB33
 14464 001c 60000000 		.4byte	.LFE33
 14465 0020 00000000 		.4byte	.LFB34
 14466 0024 74000000 		.4byte	.LFE34
 14467 0028 00000000 		.4byte	.LFB35
 14468 002c 7C000000 		.4byte	.LFE35
 14469 0030 00000000 		.4byte	.LFB43
 14470 0034 80000000 		.4byte	.LFE43
 14471 0038 00000000 		.4byte	.LFB44
 14472 003c A8000000 		.4byte	.LFE44
 14473 0040 00000000 		.4byte	.LFB45
 14474 0044 B0000000 		.4byte	.LFE45
 14475 0048 00000000 		.4byte	.LFB49
 14476 004c 48000000 		.4byte	.LFE49
 14477 0050 00000000 		.4byte	.LFB36
 14478 0054 18010000 		.4byte	.LFE36
 14479 0058 00000000 		.4byte	.LFB37
 14480 005c A2000000 		.4byte	.LFE37
 14481 0060 00000000 		.4byte	.LFB47
 14482 0064 F8000000 		.4byte	.LFE47
 14483 0068 00000000 		.4byte	.LFB48
 14484 006c 08010000 		.4byte	.LFE48
 14485 0070 00000000 		.4byte	.LFB46
 14486 0074 54000000 		.4byte	.LFE46
 14487 0078 00000000 		.4byte	.LFB22
 14488 007c 3C000000 		.4byte	.LFE22
 14489 0080 00000000 		.4byte	.LFB23
 14490 0084 0E000000 		.4byte	.LFE23
 14491 0088 00000000 		.4byte	.LFB24
 14492 008c 30010000 		.4byte	.LFE24
 14493 0090 00000000 		.4byte	.LFB25
 14494 0094 1A000000 		.4byte	.LFE25
 14495 0098 00000000 		.4byte	.LFB26
 14496 009c 12000000 		.4byte	.LFE26
 14497 00a0 00000000 		.4byte	.LFB27
 14498 00a4 12000000 		.4byte	.LFE27
 14499 00a8 00000000 		.4byte	.LFB28
 14500 00ac 80000000 		.4byte	.LFE28
 14501 00b0 00000000 		.4byte	.LFB29
 14502 00b4 12000000 		.4byte	.LFE29
 14503 00b8 00000000 		.4byte	.LFB30
 14504 00bc 54000000 		.4byte	.LFE30
 14505 00c0 00000000 		.4byte	.LFB31
 14506 00c4 0E000000 		.4byte	.LFE31
 14507 00c8 00000000 		.4byte	.LFB38
 14508 00cc 8C000000 		.4byte	.LFE38
 14509 00d0 00000000 		.4byte	.LFB39
 14510 00d4 0E000000 		.4byte	.LFE39
 14511 00d8 00000000 		.4byte	.LFB40
 14512 00dc 08010000 		.4byte	.LFE40
 14513 00e0 00000000 		.4byte	.LFB41
 14514 00e4 18000000 		.4byte	.LFE41
 14515 00e8 00000000 		.4byte	.LFB42
 14516 00ec 8C000000 		.4byte	.LFE42
 14517 00f0 00000000 		.4byte	.LFB50
ARM GAS  C:\Users\rdn\AppData\Local\Temp\ccCxUcqe.s 			page 281


 14518 00f4 AC000000 		.4byte	.LFE50
 14519 00f8 00000000 		.4byte	.LFB51
 14520 00fc 0E000000 		.4byte	.LFE51
 14521 0100 00000000 		.4byte	.LFB52
 14522 0104 58010000 		.4byte	.LFE52
 14523 0108 00000000 		.4byte	.LFB53
 14524 010c 18000000 		.4byte	.LFE53
 14525 0110 00000000 		.4byte	.LFB54
 14526 0114 94000000 		.4byte	.LFE54
 14527 0118 00000000 		.4byte	0
 14528 011c 00000000 		.4byte	0
 14529              		.section	.debug_line,"",%progbits
 14530              	.Ldebug_line0:
 14531 0000 E6090000 		.section	.debug_str,"MS",%progbits,1
 14531      02006202 
 14531      00000201 
 14531      FB0E0D00 
 14531      01010101 
 14532              	.LASF142:
 14533 0000 6C63335F 		.ascii	"lc3_max_frame_bytes\000"
 14533      6D61785F 
 14533      6672616D 
 14533      655F6279 
 14533      74657300 
 14534              	.LASF143:
 14535 0014 6C63335F 		.ascii	"lc3_nd\000"
 14535      6E6400
 14536              	.LASF31:
 14537 001b 4C43335F 		.ascii	"LC3_SRATE_24K\000"
 14537      53524154 
 14537      455F3234 
 14537      4B00
 14538              	.LASF136:
 14539 0029 6C63335F 		.ascii	"lc3_nh\000"
 14539      6E6800
 14540              	.LASF86:
 14541 0030 4C43335F 		.ascii	"LC3_BANDWIDTH_FB_HR\000"
 14541      42414E44 
 14541      57494454 
 14541      485F4642 
 14541      5F485200 
 14542              	.LASF82:
 14543 0044 4C43335F 		.ascii	"LC3_BANDWIDTH_WB\000"
 14543      42414E44 
 14543      57494454 
 14543      485F5742 
 14543      00
 14544              	.LASF125:
 14545 0055 72635F6F 		.ascii	"rc_order\000"
 14545      72646572 
 14545      00
 14546              	.LASF100:
 14547 005e 6C63335F 		.ascii	"lc3_bits_buffer\000"
 14547      62697473 
 14547      5F627566 
 14547      66657200 
 14548              	.LASF107:
ARM GAS  C:\Users\rdn\AppData\Local\Temp\ccCxUcqe.s 			page 282


 14549 006e 62756666 		.ascii	"buffer\000"
 14549      657200
 14550              	.LASF199:
 14551 0075 6C63335F 		.ascii	"lc3_ne_2m5\000"
 14551      6E655F32 
 14551      6D3500
 14552              	.LASF165:
 14553 0080 656E636F 		.ascii	"encode\000"
 14553      646500
 14554              	.LASF15:
 14555 0087 756E7369 		.ascii	"unsigned int\000"
 14555      676E6564 
 14555      20696E74 
 14555      00
 14556              	.LASF33:
 14557 0094 4C43335F 		.ascii	"LC3_SRATE_48K\000"
 14557      53524154 
 14557      455F3438 
 14557      4B00
 14558              	.LASF198:
 14559 00a2 6C63335F 		.ascii	"lc3_ns_2m5\000"
 14559      6E735F32 
 14559      6D3500
 14560              	.LASF8:
 14561 00ad 5F5F696E 		.ascii	"__int32_t\000"
 14561      7433325F 
 14561      7400
 14562              	.LASF150:
 14563 00b7 6C6F6164 		.ascii	"load_s16\000"
 14563      5F733136 
 14563      00
 14564              	.LASF43:
 14565 00c0 70697463 		.ascii	"pitch\000"
 14565      6800
 14566              	.LASF75:
 14567 00c6 4C43335F 		.ascii	"LC3_PCM_FORMAT_S24_3LE\000"
 14567      50434D5F 
 14567      464F524D 
 14567      41545F53 
 14567      32345F33 
 14568              	.LASF161:
 14569 00dd 73696465 		.ascii	"side\000"
 14569      00
 14570              	.LASF139:
 14571 00e2 6C63335F 		.ascii	"lc3_get_bits\000"
 14571      6765745F 
 14571      62697473 
 14571      00
 14572              	.LASF126:
 14573 00ef 6C63335F 		.ascii	"lc3_tns_data_t\000"
 14573      746E735F 
 14573      64617461 
 14573      5F7400
 14574              	.LASF205:
 14575 00fe 6C63335F 		.ascii	"lc3_mdct_forward\000"
 14575      6D646374 
 14575      5F666F72 
ARM GAS  C:\Users\rdn\AppData\Local\Temp\ccCxUcqe.s 			page 283


 14575      77617264 
 14575      00
 14576              	.LASF40:
 14577 010f 6C63335F 		.ascii	"lc3_ltpf_hp50_state\000"
 14577      6C747066 
 14577      5F687035 
 14577      305F7374 
 14577      61746500 
 14578              	.LASF99:
 14579 0123 6572726F 		.ascii	"error\000"
 14579      7200
 14580              	.LASF105:
 14581 0129 6D6F6465 		.ascii	"mode\000"
 14581      00
 14582              	.LASF27:
 14583 012e 6C63335F 		.ascii	"lc3_dt\000"
 14583      647400
 14584              	.LASF227:
 14585 0135 6C63335F 		.ascii	"lc3_spec_decode\000"
 14585      73706563 
 14585      5F646563 
 14585      6F646500 
 14586              	.LASF238:
 14587 0145 474E5520 		.ascii	"GNU C11 5.4.1 20160609 (release) [ARM/embedded-5-br"
 14587      43313120 
 14587      352E342E 
 14587      31203230 
 14587      31363036 
 14588 0178 616E6368 		.ascii	"anch revision 237715] -mcpu=cortex-m4 -mfloat-abi=s"
 14588      20726576 
 14588      6973696F 
 14588      6E203233 
 14588      37373135 
 14589 01ab 6F667466 		.ascii	"oftfp -mfpu=fpv4-sp-d16 -mthumb -g -Og -ffunction-s"
 14589      70202D6D 
 14589      6670753D 
 14589      66707634 
 14589      2D73702D 
 14590 01de 65637469 		.ascii	"ections -ffat-lto-objects\000"
 14590      6F6E7320 
 14590      2D666661 
 14590      742D6C74 
 14590      6F2D6F62 
 14591              	.LASF172:
 14592 01f8 73725F68 		.ascii	"sr_hz\000"
 14592      7A00
 14593              	.LASF34:
 14594 01fe 4C43335F 		.ascii	"LC3_SRATE_48K_HR\000"
 14594      53524154 
 14594      455F3438 
 14594      4B5F4852 
 14594      00
 14595              	.LASF225:
 14596 020f 6C63335F 		.ascii	"lc3_sns_get_data\000"
 14596      736E735F 
 14596      6765745F 
 14596      64617461 
ARM GAS  C:\Users\rdn\AppData\Local\Temp\ccCxUcqe.s 			page 284


 14596      00
 14597              	.LASF56:
 14598 0220 61747464 		.ascii	"attdet\000"
 14598      657400
 14599              	.LASF151:
 14600 0227 6C6F6164 		.ascii	"load_s24\000"
 14600      5F733234 
 14600      00
 14601              	.LASF200:
 14602 0230 6C63335F 		.ascii	"lc3_ns_4m\000"
 14602      6E735F34 
 14602      6D00
 14603              	.LASF89:
 14604 023a 6C63335F 		.ascii	"lc3_bits_mode\000"
 14604      62697473 
 14604      5F6D6F64 
 14604      6500
 14605              	.LASF42:
 14606 0248 61637469 		.ascii	"active\000"
 14606      766500
 14607              	.LASF45:
 14608 024f 785F3132 		.ascii	"x_12k8\000"
 14608      6B3800
 14609              	.LASF122:
 14610 0256 6C63335F 		.ascii	"lc3_tns_data\000"
 14610      746E735F 
 14610      64617461 
 14610      00
 14611              	.LASF128:
 14612 0263 675F6964 		.ascii	"g_idx\000"
 14612      7800
 14613              	.LASF130:
 14614 0269 6C63335F 		.ascii	"lc3_spec_side_t\000"
 14614      73706563 
 14614      5F736964 
 14614      655F7400 
 14615              	.LASF23:
 14616 0279 4C43335F 		.ascii	"LC3_DT_5M\000"
 14616      44545F35 
 14616      4D00
 14617              	.LASF20:
 14618 0283 75696E74 		.ascii	"uint32_t\000"
 14618      33325F74 
 14618      00
 14619              	.LASF135:
 14620 028c 6C63335F 		.ascii	"lc3_ldexpf\000"
 14620      6C646578 
 14620      706600
 14621              	.LASF191:
 14622 0297 6C6F6164 		.ascii	"load\000"
 14622      00
 14623              	.LASF232:
 14624 029c 6C63335F 		.ascii	"lc3_mdct_inverse\000"
 14624      6D646374 
 14624      5F696E76 
 14624      65727365 
 14624      00
ARM GAS  C:\Users\rdn\AppData\Local\Temp\ccCxUcqe.s 			page 285


 14625              	.LASF0:
 14626 02ad 666C6F61 		.ascii	"float\000"
 14626      7400
 14627              	.LASF188:
 14628 02b3 73725F70 		.ascii	"sr_pcm_hz\000"
 14628      636D5F68 
 14628      7A00
 14629              	.LASF177:
 14630 02bd 62697472 		.ascii	"bitrate\000"
 14630      61746500 
 14631              	.LASF156:
 14632 02c5 73746F72 		.ascii	"store_s24\000"
 14632      655F7332 
 14632      3400
 14633              	.LASF55:
 14634 02cf 73725F70 		.ascii	"sr_pcm\000"
 14634      636D00
 14635              	.LASF66:
 14636 02d6 636F756E 		.ascii	"count\000"
 14636      7400
 14637              	.LASF97:
 14638 02dc 63617272 		.ascii	"carry\000"
 14638      7900
 14639              	.LASF17:
 14640 02e2 696E7431 		.ascii	"int16_t\000"
 14640      365F7400 
 14641              	.LASF14:
 14642 02ea 6C6F6E67 		.ascii	"long long unsigned int\000"
 14642      206C6F6E 
 14642      6720756E 
 14642      7369676E 
 14642      65642069 
 14643              	.LASF113:
 14644 0301 6C666362 		.ascii	"lfcb\000"
 14644      00
 14645              	.LASF132:
 14646 0306 70697463 		.ascii	"pitch_present\000"
 14646      685F7072 
 14646      6573656E 
 14646      7400
 14647              	.LASF186:
 14648 0314 6C63335F 		.ascii	"lc3_encoder_size\000"
 14648      656E636F 
 14648      6465725F 
 14648      73697A65 
 14648      00
 14649              	.LASF64:
 14650 0325 6C63335F 		.ascii	"lc3_plc_state\000"
 14650      706C635F 
 14650      73746174 
 14650      6500
 14651              	.LASF160:
 14652 0333 6E627974 		.ascii	"nbytes\000"
 14652      657300
 14653              	.LASF207:
 14654 033a 6C63335F 		.ascii	"lc3_ltpf_disable\000"
 14654      6C747066 
ARM GAS  C:\Users\rdn\AppData\Local\Temp\ccCxUcqe.s 			page 286


 14654      5F646973 
 14654      61626C65 
 14654      00
 14655              	.LASF6:
 14656 034b 5F5F7569 		.ascii	"__uint16_t\000"
 14656      6E743136 
 14656      5F7400
 14657              	.LASF164:
 14658 0356 6C63335F 		.ascii	"lc3_put_bit\000"
 14658      7075745F 
 14658      62697400 
 14659              	.LASF173:
 14660 0362 6C63335F 		.ascii	"lc3_hr_frame_samples\000"
 14660      68725F66 
 14660      72616D65 
 14660      5F73616D 
 14660      706C6573 
 14661              	.LASF32:
 14662 0377 4C43335F 		.ascii	"LC3_SRATE_32K\000"
 14662      53524154 
 14662      455F3332 
 14662      4B00
 14663              	.LASF197:
 14664 0385 73746F72 		.ascii	"store\000"
 14664      6500
 14665              	.LASF76:
 14666 038b 4C43335F 		.ascii	"LC3_PCM_FORMAT_FLOAT\000"
 14666      50434D5F 
 14666      464F524D 
 14666      41545F46 
 14666      4C4F4154 
 14667              	.LASF182:
 14668 03a0 6C63335F 		.ascii	"lc3_resolve_bitrate\000"
 14668      7265736F 
 14668      6C76655F 
 14668      62697472 
 14668      61746500 
 14669              	.LASF38:
 14670 03b4 6C63335F 		.ascii	"lc3_attdet_analysis_t\000"
 14670      61747464 
 14670      65745F61 
 14670      6E616C79 
 14670      7369735F 
 14671              	.LASF26:
 14672 03ca 4C43335F 		.ascii	"LC3_NUM_DT\000"
 14672      4E554D5F 
 14672      445400
 14673              	.LASF59:
 14674 03d5 78745F6F 		.ascii	"xt_off\000"
 14674      666600
 14675              	.LASF234:
 14676 03dc 6C63335F 		.ascii	"lc3_ltpf_synthesize\000"
 14676      6C747066 
 14676      5F73796E 
 14676      74686573 
 14676      697A6500 
 14677              	.LASF163:
ARM GAS  C:\Users\rdn\AppData\Local\Temp\ccCxUcqe.s 			page 287


 14678 03f0 6C63335F 		.ascii	"lc3_put_bits\000"
 14678      7075745F 
 14678      62697473 
 14678      00
 14679              	.LASF147:
 14680 03fd 656E636F 		.ascii	"encoder\000"
 14680      64657200 
 14681              	.LASF155:
 14682 0405 6465636F 		.ascii	"decoder\000"
 14682      64657200 
 14683              	.LASF46:
 14684 040d 785F366B 		.ascii	"x_6k4\000"
 14684      3400
 14685              	.LASF21:
 14686 0413 696E7436 		.ascii	"int64_t\000"
 14686      345F7400 
 14687              	.LASF226:
 14688 041b 6C63335F 		.ascii	"lc3_ltpf_get_data\000"
 14688      6C747066 
 14688      5F676574 
 14688      5F646174 
 14688      6100
 14689              	.LASF110:
 14690 042d 70697463 		.ascii	"pitch_index\000"
 14690      685F696E 
 14690      64657800 
 14691              	.LASF98:
 14692 0439 63617272 		.ascii	"carry_count\000"
 14692      795F636F 
 14692      756E7400 
 14693              	.LASF57:
 14694 0445 6C747066 		.ascii	"ltpf\000"
 14694      00
 14695              	.LASF221:
 14696 044a 6C63335F 		.ascii	"lc3_get_bits_generic\000"
 14696      6765745F 
 14696      62697473 
 14696      5F67656E 
 14696      65726963 
 14697              	.LASF47:
 14698 045f 5F426F6F 		.ascii	"_Bool\000"
 14698      6C00
 14699              	.LASF169:
 14700 0465 73796E74 		.ascii	"synthesize\000"
 14700      68657369 
 14700      7A6500
 14701              	.LASF190:
 14702 0470 6C63335F 		.ascii	"lc3_encode\000"
 14702      656E636F 
 14702      646500
 14703              	.LASF108:
 14704 047b 6C63335F 		.ascii	"lc3_bits_t\000"
 14704      62697473 
 14704      5F7400
 14705              	.LASF171:
 14706 0486 64745F75 		.ascii	"dt_us\000"
 14706      7300
ARM GAS  C:\Users\rdn\AppData\Local\Temp\ccCxUcqe.s 			page 288


 14707              	.LASF224:
 14708 048c 6C63335F 		.ascii	"lc3_tns_get_data\000"
 14708      746E735F 
 14708      6765745F 
 14708      64617461 
 14708      00
 14709              	.LASF158:
 14710 049d 636F6D70 		.ascii	"complete\000"
 14710      6C657465 
 14710      00
 14711              	.LASF73:
 14712 04a6 4C43335F 		.ascii	"LC3_PCM_FORMAT_S16\000"
 14712      50434D5F 
 14712      464F524D 
 14712      41545F53 
 14712      313600
 14713              	.LASF209:
 14714 04b9 6C63335F 		.ascii	"lc3_sns_analyze\000"
 14714      736E735F 
 14714      616E616C 
 14714      797A6500 
 14715              	.LASF25:
 14716 04c9 4C43335F 		.ascii	"LC3_DT_10M\000"
 14716      44545F31 
 14716      304D00
 14717              	.LASF148:
 14718 04d4 5F70636D 		.ascii	"_pcm\000"
 14718      00
 14719              	.LASF134:
 14720 04d9 6C63335F 		.ascii	"lc3_hr\000"
 14720      687200
 14721              	.LASF106:
 14722 04e0 61636375 		.ascii	"accu\000"
 14722      00
 14723              	.LASF78:
 14724 04e5 63686172 		.ascii	"char\000"
 14724      00
 14725              	.LASF230:
 14726 04ea 6C63335F 		.ascii	"lc3_tns_synthesize\000"
 14726      746E735F 
 14726      73796E74 
 14726      68657369 
 14726      7A6500
 14727              	.LASF153:
 14728 04fd 6C6F6164 		.ascii	"load_float\000"
 14728      5F666C6F 
 14728      617400
 14729              	.LASF62:
 14730 0508 6C63335F 		.ascii	"lc3_ltpf_synthesis\000"
 14730      6C747066 
 14730      5F73796E 
 14730      74686573 
 14730      697300
 14731              	.LASF202:
 14732 051b 6C63335F 		.ascii	"lc3_attdet_run\000"
 14732      61747464 
 14732      65745F72 
ARM GAS  C:\Users\rdn\AppData\Local\Temp\ccCxUcqe.s 			page 289


 14732      756E00
 14733              	.LASF92:
 14734 052a 6C63335F 		.ascii	"lc3_bits_accu\000"
 14734      62697473 
 14734      5F616363 
 14734      7500
 14735              	.LASF52:
 14736 0538 6E626974 		.ascii	"nbits_spare\000"
 14736      735F7370 
 14736      61726500 
 14737              	.LASF168:
 14738 0544 64617461 		.ascii	"data\000"
 14738      00
 14739              	.LASF180:
 14740 0549 6C63335F 		.ascii	"lc3_frame_bytes\000"
 14740      6672616D 
 14740      655F6279 
 14740      74657300 
 14741              	.LASF240:
 14742 0559 433A5C55 		.ascii	"C:\\Users\\rdn\\Documents\\PSoC Creator\\SEES\\ble_"
 14742      73657273 
 14742      5C72646E 
 14742      5C446F63 
 14742      756D656E 
 14743 0586 74657374 		.ascii	"test.cydsn\000"
 14743      2E637964 
 14743      736E00
 14744              	.LASF93:
 14745 0591 6E6F7665 		.ascii	"nover\000"
 14745      7200
 14746              	.LASF81:
 14747 0597 4C43335F 		.ascii	"LC3_BANDWIDTH_NB\000"
 14747      42414E44 
 14747      57494454 
 14747      485F4E42 
 14747      00
 14748              	.LASF74:
 14749 05a8 4C43335F 		.ascii	"LC3_PCM_FORMAT_S24\000"
 14749      50434D5F 
 14749      464F524D 
 14749      41545F53 
 14749      323400
 14750              	.LASF231:
 14751 05bb 6C63335F 		.ascii	"lc3_sns_synthesize\000"
 14751      736E735F 
 14751      73796E74 
 14751      68657369 
 14751      7A6500
 14752              	.LASF220:
 14753 05ce 6C63335F 		.ascii	"lc3_flush_bits\000"
 14753      666C7573 
 14753      685F6269 
 14753      747300
 14754              	.LASF16:
 14755 05dd 75696E74 		.ascii	"uint8_t\000"
 14755      385F7400 
 14756              	.LASF215:
ARM GAS  C:\Users\rdn\AppData\Local\Temp\ccCxUcqe.s 			page 290


 14757 05e5 6C63335F 		.ascii	"lc3_spec_put_side\000"
 14757      73706563 
 14757      5F707574 
 14757      5F736964 
 14757      6500
 14758              	.LASF193:
 14759 05f7 6C63335F 		.ascii	"lc3_decoder_size\000"
 14759      6465636F 
 14759      6465725F 
 14759      73697A65 
 14759      00
 14760              	.LASF116:
 14761 0608 6761696E 		.ascii	"gain\000"
 14761      00
 14762              	.LASF68:
 14763 060d 6C63335F 		.ascii	"lc3_plc_state_t\000"
 14763      706C635F 
 14763      73746174 
 14763      655F7400 
 14764              	.LASF103:
 14765 061d 705F6277 		.ascii	"p_bw\000"
 14765      00
 14766              	.LASF138:
 14767 0622 62697473 		.ascii	"bits\000"
 14767      00
 14768              	.LASF144:
 14769 0627 68726D6F 		.ascii	"hrmode\000"
 14769      646500
 14770              	.LASF70:
 14771 062e 78685F6F 		.ascii	"xh_off\000"
 14771      666600
 14772              	.LASF162:
 14773 0635 6E6E5F66 		.ascii	"nn_flag\000"
 14773      6C616700 
 14774              	.LASF229:
 14775 063d 6C63335F 		.ascii	"lc3_plc_suspend\000"
 14775      706C635F 
 14775      73757370 
 14775      656E6400 
 14776              	.LASF13:
 14777 064d 6C6F6E67 		.ascii	"long long int\000"
 14777      206C6F6E 
 14777      6720696E 
 14777      7400
 14778              	.LASF174:
 14779 065b 6C63335F 		.ascii	"lc3_frame_samples\000"
 14779      6672616D 
 14779      655F7361 
 14779      6D706C65 
 14779      7300
 14780              	.LASF39:
 14781 066d 6C63335F 		.ascii	"lc3_attdet_analysis\000"
 14781      61747464 
 14781      65745F61 
 14781      6E616C79 
 14781      73697300 
 14782              	.LASF166:
ARM GAS  C:\Users\rdn\AppData\Local\Temp\ccCxUcqe.s 			page 291


 14783 0681 6C63335F 		.ascii	"lc3_get_bit\000"
 14783      6765745F 
 14783      62697400 
 14784              	.LASF237:
 14785 068d 6C63335F 		.ascii	"lc3_plc_reset\000"
 14785      706C635F 
 14785      72657365 
 14785      7400
 14786              	.LASF175:
 14787 069b 6C63335F 		.ascii	"lc3_hr_frame_block_bytes\000"
 14787      68725F66 
 14787      72616D65 
 14787      5F626C6F 
 14787      636B5F62 
 14788              	.LASF44:
 14789 06b4 68703530 		.ascii	"hp50\000"
 14789      00
 14790              	.LASF218:
 14791 06b9 6C63335F 		.ascii	"lc3_ltpf_put_data\000"
 14791      6C747066 
 14791      5F707574 
 14791      5F646174 
 14791      6100
 14792              	.LASF51:
 14793 06cb 6E626974 		.ascii	"nbits_off\000"
 14793      735F6F66 
 14793      6600
 14794              	.LASF181:
 14795 06d5 6C63335F 		.ascii	"lc3_hr_resolve_bitrate\000"
 14795      68725F72 
 14795      65736F6C 
 14795      76655F62 
 14795      69747261 
 14796              	.LASF4:
 14797 06ec 5F5F696E 		.ascii	"__int16_t\000"
 14797      7431365F 
 14797      7400
 14798              	.LASF84:
 14799 06f6 4C43335F 		.ascii	"LC3_BANDWIDTH_SWB\000"
 14799      42414E44 
 14799      57494454 
 14799      485F5357 
 14799      4200
 14800              	.LASF109:
 14801 0708 6C63335F 		.ascii	"lc3_ltpf_data\000"
 14801      6C747066 
 14801      5F646174 
 14801      6100
 14802              	.LASF241:
 14803 0716 6D656D73 		.ascii	"memset\000"
 14803      657400
 14804              	.LASF236:
 14805 071d 666D696E 		.ascii	"fminf\000"
 14805      6600
 14806              	.LASF154:
 14807 0723 73746F72 		.ascii	"store_s16\000"
 14807      655F7331 
ARM GAS  C:\Users\rdn\AppData\Local\Temp\ccCxUcqe.s 			page 292


 14807      3600
 14808              	.LASF214:
 14809 072d 6C63335F 		.ascii	"lc3_bwdet_put_bw\000"
 14809      62776465 
 14809      745F7075 
 14809      745F6277 
 14809      00
 14810              	.LASF228:
 14811 073e 6C63335F 		.ascii	"lc3_check_bits\000"
 14811      63686563 
 14811      6B5F6269 
 14811      747300
 14812              	.LASF49:
 14813 074d 6C63335F 		.ascii	"lc3_ltpf_analysis_t\000"
 14813      6C747066 
 14813      5F616E61 
 14813      6C797369 
 14813      735F7400 
 14814              	.LASF95:
 14815 0761 72616E67 		.ascii	"range\000"
 14815      6500
 14816              	.LASF210:
 14817 0767 6C63335F 		.ascii	"lc3_tns_analyze\000"
 14817      746E735F 
 14817      616E616C 
 14817      797A6500 
 14818              	.LASF179:
 14819 0777 6C63335F 		.ascii	"lc3_hr_frame_bytes\000"
 14819      68725F66 
 14819      72616D65 
 14819      5F627974 
 14819      657300
 14820              	.LASF212:
 14821 078a 6C63335F 		.ascii	"lc3_put_bits_generic\000"
 14821      7075745F 
 14821      62697473 
 14821      5F67656E 
 14821      65726963 
 14822              	.LASF152:
 14823 079f 6C6F6164 		.ascii	"load_s24_3le\000"
 14823      5F733234 
 14823      5F336C65 
 14823      00
 14824              	.LASF217:
 14825 07ac 6C63335F 		.ascii	"lc3_sns_put_data\000"
 14825      736E735F 
 14825      7075745F 
 14825      64617461 
 14825      00
 14826              	.LASF65:
 14827 07bd 73656564 		.ascii	"seed\000"
 14827      00
 14828              	.LASF87:
 14829 07c2 4C43335F 		.ascii	"LC3_BANDWIDTH_UB_HR\000"
 14829      42414E44 
 14829      57494454 
 14829      485F5542 
ARM GAS  C:\Users\rdn\AppData\Local\Temp\ccCxUcqe.s 			page 293


 14829      5F485200 
 14830              	.LASF96:
 14831 07d6 63616368 		.ascii	"cache\000"
 14831      6500
 14832              	.LASF127:
 14833 07dc 6C63335F 		.ascii	"lc3_spec_side\000"
 14833      73706563 
 14833      5F736964 
 14833      6500
 14834              	.LASF54:
 14835 07ea 6C63335F 		.ascii	"lc3_encoder\000"
 14835      656E636F 
 14835      64657200 
 14836              	.LASF104:
 14837 07f6 6C63335F 		.ascii	"lc3_bits\000"
 14837      62697473 
 14837      00
 14838              	.LASF69:
 14839 07ff 6C63335F 		.ascii	"lc3_decoder\000"
 14839      6465636F 
 14839      64657200 
 14840              	.LASF72:
 14841 080b 6C63335F 		.ascii	"lc3_pcm_format\000"
 14841      70636D5F 
 14841      666F726D 
 14841      617400
 14842              	.LASF114:
 14843 081a 68666362 		.ascii	"hfcb\000"
 14843      00
 14844              	.LASF12:
 14845 081f 5F5F696E 		.ascii	"__int64_t\000"
 14845      7436345F 
 14845      7400
 14846              	.LASF63:
 14847 0829 6C63335F 		.ascii	"lc3_ltpf_synthesis_t\000"
 14847      6C747066 
 14847      5F73796E 
 14847      74686573 
 14847      69735F74 
 14848              	.LASF77:
 14849 083e 6C6F6E67 		.ascii	"long double\000"
 14849      20646F75 
 14849      626C6500 
 14850              	.LASF18:
 14851 084a 75696E74 		.ascii	"uint16_t\000"
 14851      31365F74 
 14851      00
 14852              	.LASF187:
 14853 0853 6C63335F 		.ascii	"lc3_hr_setup_encoder\000"
 14853      68725F73 
 14853      65747570 
 14853      5F656E63 
 14853      6F646572 
 14854              	.LASF219:
 14855 0868 6C63335F 		.ascii	"lc3_spec_encode\000"
 14855      73706563 
 14855      5F656E63 
ARM GAS  C:\Users\rdn\AppData\Local\Temp\ccCxUcqe.s 			page 294


 14855      6F646500 
 14856              	.LASF194:
 14857 0878 6C63335F 		.ascii	"lc3_hr_setup_decoder\000"
 14857      68725F73 
 14857      65747570 
 14857      5F646563 
 14857      6F646572 
 14858              	.LASF36:
 14859 088d 4C43335F 		.ascii	"LC3_NUM_SRATE\000"
 14859      4E554D5F 
 14859      53524154 
 14859      4500
 14860              	.LASF157:
 14861 089b 73746F72 		.ascii	"store_s24_3le\000"
 14861      655F7332 
 14861      345F336C 
 14861      6500
 14862              	.LASF60:
 14863 08a9 78735F6F 		.ascii	"xs_off\000"
 14863      666600
 14864              	.LASF24:
 14865 08b0 4C43335F 		.ascii	"LC3_DT_7M5\000"
 14865      44545F37 
 14865      4D3500
 14866              	.LASF176:
 14867 08bb 6E636861 		.ascii	"nchannels\000"
 14867      6E6E656C 
 14867      7300
 14868              	.LASF5:
 14869 08c5 73686F72 		.ascii	"short int\000"
 14869      7420696E 
 14869      7400
 14870              	.LASF22:
 14871 08cf 4C43335F 		.ascii	"LC3_DT_2M5\000"
 14871      44545F32 
 14871      4D3500
 14872              	.LASF167:
 14873 08da 6465636F 		.ascii	"decode\000"
 14873      646500
 14874              	.LASF170:
 14875 08e1 73746F72 		.ascii	"store_float\000"
 14875      655F666C 
 14875      6F617400 
 14876              	.LASF9:
 14877 08ed 6C6F6E67 		.ascii	"long int\000"
 14877      20696E74 
 14877      00
 14878              	.LASF115:
 14879 08f6 73686170 		.ascii	"shape\000"
 14879      6500
 14880              	.LASF222:
 14881 08fc 6C63335F 		.ascii	"lc3_bwdet_get_bw\000"
 14881      62776465 
 14881      745F6765 
 14881      745F6277 
 14881      00
 14882              	.LASF53:
ARM GAS  C:\Users\rdn\AppData\Local\Temp\ccCxUcqe.s 			page 295


 14883 090d 6C63335F 		.ascii	"lc3_spec_analysis_t\000"
 14883      73706563 
 14883      5F616E61 
 14883      6C797369 
 14883      735F7400 
 14884              	.LASF235:
 14885 0921 666D6178 		.ascii	"fmaxf\000"
 14885      6600
 14886              	.LASF91:
 14887 0927 4C43335F 		.ascii	"LC3_BITS_MODE_WRITE\000"
 14887      42495453 
 14887      5F4D4F44 
 14887      455F5752 
 14887      49544500 
 14888              	.LASF185:
 14889 093b 6C63335F 		.ascii	"lc3_hr_encoder_size\000"
 14889      68725F65 
 14889      6E636F64 
 14889      65725F73 
 14889      697A6500 
 14890              	.LASF146:
 14891 094f 7265736F 		.ascii	"resolve_srate\000"
 14891      6C76655F 
 14891      73726174 
 14891      6500
 14892              	.LASF3:
 14893 095d 5F5F7569 		.ascii	"__uint8_t\000"
 14893      6E74385F 
 14893      7400
 14894              	.LASF101:
 14895 0967 73746172 		.ascii	"start\000"
 14895      7400
 14896              	.LASF30:
 14897 096d 4C43335F 		.ascii	"LC3_SRATE_16K\000"
 14897      53524154 
 14897      455F3136 
 14897      4B00
 14898              	.LASF203:
 14899 097b 6C63335F 		.ascii	"lc3_ltpf_analyse\000"
 14899      6C747066 
 14899      5F616E61 
 14899      6C797365 
 14899      00
 14900              	.LASF178:
 14901 098c 6C63335F 		.ascii	"lc3_frame_bock_bytes\000"
 14901      6672616D 
 14901      655F626F 
 14901      636B5F62 
 14901      79746573 
 14902              	.LASF123:
 14903 09a1 6E66696C 		.ascii	"nfilters\000"
 14903      74657273 
 14903      00
 14904              	.LASF145:
 14905 09aa 7265736F 		.ascii	"resolve_dt\000"
 14905      6C76655F 
 14905      647400
ARM GAS  C:\Users\rdn\AppData\Local\Temp\ccCxUcqe.s 			page 296


 14906              	.LASF183:
 14907 09b5 6C63335F 		.ascii	"lc3_hr_delay_samples\000"
 14907      68725F64 
 14907      656C6179 
 14907      5F73616D 
 14907      706C6573 
 14908              	.LASF149:
 14909 09ca 73747269 		.ascii	"stride\000"
 14909      646500
 14910              	.LASF124:
 14911 09d1 6C70635F 		.ascii	"lpc_weighting\000"
 14911      77656967 
 14911      6874696E 
 14911      6700
 14912              	.LASF204:
 14913 09df 6D656D6D 		.ascii	"memmove\000"
 14913      6F766500 
 14914              	.LASF83:
 14915 09e7 4C43335F 		.ascii	"LC3_BANDWIDTH_SSWB\000"
 14915      42414E44 
 14915      57494454 
 14915      485F5353 
 14915      574200
 14916              	.LASF48:
 14917 09fa 73697A65 		.ascii	"sizetype\000"
 14917      74797065 
 14917      00
 14918              	.LASF140:
 14919 0a03 6C63335F 		.ascii	"lc3_ne\000"
 14919      6E6500
 14920              	.LASF11:
 14921 0a0a 6C6F6E67 		.ascii	"long unsigned int\000"
 14921      20756E73 
 14921      69676E65 
 14921      6420696E 
 14921      7400
 14922              	.LASF206:
 14923 0a1c 6C63335F 		.ascii	"lc3_energy_compute\000"
 14923      656E6572 
 14923      67795F63 
 14923      6F6D7075 
 14923      746500
 14924              	.LASF208:
 14925 0a2f 6C63335F 		.ascii	"lc3_bwdet_run\000"
 14925      62776465 
 14925      745F7275 
 14925      6E00
 14926              	.LASF67:
 14927 0a3d 616C7068 		.ascii	"alpha\000"
 14927      6100
 14928              	.LASF133:
 14929 0a43 6C63335F 		.ascii	"lc3_ns\000"
 14929      6E7300
 14930              	.LASF137:
 14931 0a4a 6C63335F 		.ascii	"lc3_nt\000"
 14931      6E7400
 14932              	.LASF19:
ARM GAS  C:\Users\rdn\AppData\Local\Temp\ccCxUcqe.s 			page 297


 14933 0a51 696E7433 		.ascii	"int32_t\000"
 14933      325F7400 
 14934              	.LASF112:
 14935 0a59 6C63335F 		.ascii	"lc3_sns_data\000"
 14935      736E735F 
 14935      64617461 
 14935      00
 14936              	.LASF119:
 14937 0a66 6C735F61 		.ascii	"ls_a\000"
 14937      00
 14938              	.LASF120:
 14939 0a6b 6C735F62 		.ascii	"ls_b\000"
 14939      00
 14940              	.LASF129:
 14941 0a70 6C73625F 		.ascii	"lsb_mode\000"
 14941      6D6F6465 
 14941      00
 14942              	.LASF131:
 14943 0a79 73696465 		.ascii	"side_data\000"
 14943      5F646174 
 14943      6100
 14944              	.LASF28:
 14945 0a83 6C63335F 		.ascii	"lc3_srate\000"
 14945      73726174 
 14945      6500
 14946              	.LASF50:
 14947 0a8d 6C63335F 		.ascii	"lc3_spec_analysis\000"
 14947      73706563 
 14947      5F616E61 
 14947      6C797369 
 14947      7300
 14948              	.LASF2:
 14949 0a9f 756E7369 		.ascii	"unsigned char\000"
 14949      676E6564 
 14949      20636861 
 14949      7200
 14950              	.LASF10:
 14951 0aad 5F5F7569 		.ascii	"__uint32_t\000"
 14951      6E743332 
 14951      5F7400
 14952              	.LASF71:
 14953 0ab8 78675F6F 		.ascii	"xg_off\000"
 14953      666600
 14954              	.LASF189:
 14955 0abf 6C63335F 		.ascii	"lc3_setup_encoder\000"
 14955      73657475 
 14955      705F656E 
 14955      636F6465 
 14955      7200
 14956              	.LASF195:
 14957 0ad1 6C63335F 		.ascii	"lc3_setup_decoder\000"
 14957      73657475 
 14957      705F6465 
 14957      636F6465 
 14957      7200
 14958              	.LASF80:
 14959 0ae3 6C63335F 		.ascii	"lc3_bandwidth\000"
ARM GAS  C:\Users\rdn\AppData\Local\Temp\ccCxUcqe.s 			page 298


 14959      62616E64 
 14959      77696474 
 14959      6800
 14960              	.LASF111:
 14961 0af1 6C63335F 		.ascii	"lc3_ltpf_data_t\000"
 14961      6C747066 
 14961      5F646174 
 14961      615F7400 
 14962              	.LASF90:
 14963 0b01 4C43335F 		.ascii	"LC3_BITS_MODE_READ\000"
 14963      42495453 
 14963      5F4D4F44 
 14963      455F5245 
 14963      414400
 14964              	.LASF184:
 14965 0b14 6C63335F 		.ascii	"lc3_delay_samples\000"
 14965      64656C61 
 14965      795F7361 
 14965      6D706C65 
 14965      7300
 14966              	.LASF61:
 14967 0b26 78645F6F 		.ascii	"xd_off\000"
 14967      666600
 14968              	.LASF192:
 14969 0b2d 6C63335F 		.ascii	"lc3_hr_decoder_size\000"
 14969      68725F64 
 14969      65636F64 
 14969      65725F73 
 14969      697A6500 
 14970              	.LASF121:
 14971 0b41 6C63335F 		.ascii	"lc3_sns_data_t\000"
 14971      736E735F 
 14971      64617461 
 14971      5F7400
 14972              	.LASF239:
 14973 0b50 2E2E5C2E 		.ascii	"..\\..\\..\\liblc3\\src\\lc3.c\000"
 14973      2E5C2E2E 
 14973      5C6C6962 
 14973      6C63335C 
 14973      7372635C 
 14974              	.LASF159:
 14975 0b6a 616E616C 		.ascii	"analyze\000"
 14975      797A6500 
 14976              	.LASF29:
 14977 0b72 4C43335F 		.ascii	"LC3_SRATE_8K\000"
 14977      53524154 
 14977      455F384B 
 14977      00
 14978              	.LASF1:
 14979 0b7f 7369676E 		.ascii	"signed char\000"
 14979      65642063 
 14979      68617200 
 14980              	.LASF7:
 14981 0b8b 73686F72 		.ascii	"short unsigned int\000"
 14981      7420756E 
 14981      7369676E 
 14981      65642069 
ARM GAS  C:\Users\rdn\AppData\Local\Temp\ccCxUcqe.s 			page 299


 14981      6E7400
 14982              	.LASF216:
 14983 0b9e 6C63335F 		.ascii	"lc3_tns_put_data\000"
 14983      746E735F 
 14983      7075745F 
 14983      64617461 
 14983      00
 14984              	.LASF233:
 14985 0baf 6C63335F 		.ascii	"lc3_plc_synthesize\000"
 14985      706C635F 
 14985      73796E74 
 14985      68657369 
 14985      7A6500
 14986              	.LASF37:
 14987 0bc2 705F6174 		.ascii	"p_att\000"
 14987      7400
 14988              	.LASF85:
 14989 0bc8 4C43335F 		.ascii	"LC3_BANDWIDTH_FB\000"
 14989      42414E44 
 14989      57494454 
 14989      485F4642 
 14989      00
 14990              	.LASF88:
 14991 0bd9 4C43335F 		.ascii	"LC3_NUM_BANDWIDTH\000"
 14991      4E554D5F 
 14991      42414E44 
 14991      57494454 
 14991      4800
 14992              	.LASF211:
 14993 0beb 6C63335F 		.ascii	"lc3_spec_analyze\000"
 14993      73706563 
 14993      5F616E61 
 14993      6C797A65 
 14993      00
 14994              	.LASF79:
 14995 0bfc 646F7562 		.ascii	"double\000"
 14995      6C6500
 14996              	.LASF35:
 14997 0c03 4C43335F 		.ascii	"LC3_SRATE_96K_HR\000"
 14997      53524154 
 14997      455F3936 
 14997      4B5F4852 
 14997      00
 14998              	.LASF94:
 14999 0c14 6C63335F 		.ascii	"lc3_bits_ac\000"
 14999      62697473 
 14999      5F616300 
 15000              	.LASF141:
 15001 0c20 6C63335F 		.ascii	"lc3_min_frame_bytes\000"
 15001      6D696E5F 
 15001      6672616D 
 15001      655F6279 
 15001      74657300 
 15002              	.LASF201:
 15003 0c34 6C63335F 		.ascii	"lc3_frame_bytes_hr_lim\000"
 15003      6672616D 
 15003      655F6279 
ARM GAS  C:\Users\rdn\AppData\Local\Temp\ccCxUcqe.s 			page 300


 15003      7465735F 
 15003      68725F6C 
 15004              	.LASF58:
 15005 0c4b 73706563 		.ascii	"spec\000"
 15005      00
 15006              	.LASF196:
 15007 0c50 6C63335F 		.ascii	"lc3_decode\000"
 15007      6465636F 
 15007      646500
 15008              	.LASF223:
 15009 0c5b 6C63335F 		.ascii	"lc3_spec_get_side\000"
 15009      73706563 
 15009      5F676574 
 15009      5F736964 
 15009      6500
 15010              	.LASF117:
 15011 0c6d 6964785F 		.ascii	"idx_a\000"
 15011      6100
 15012              	.LASF118:
 15013 0c73 6964785F 		.ascii	"idx_b\000"
 15013      6200
 15014              	.LASF213:
 15015 0c79 6C63335F 		.ascii	"lc3_setup_bits\000"
 15015      73657475 
 15015      705F6269 
 15015      747300
 15016              	.LASF41:
 15017 0c88 6C63335F 		.ascii	"lc3_ltpf_analysis\000"
 15017      6C747066 
 15017      5F616E61 
 15017      6C797369 
 15017      7300
 15018              	.LASF102:
 15019 0c9a 705F6677 		.ascii	"p_fw\000"
 15019      00
 15020              		.ident	"GCC: (GNU Tools for ARM Embedded Processors) 5.4.1 20160609 (release) [ARM/embedded-5-bran
