ARM GAS  C:\Users\rdn\AppData\Local\Temp\cc5zc0m9.s 			page 1


   1              		.syntax unified
   2              		.cpu cortex-m4
   3              		.eabi_attribute 27, 1
   4              		.fpu fpv4-sp-d16
   5              		.eabi_attribute 20, 1
   6              		.eabi_attribute 21, 1
   7              		.eabi_attribute 23, 3
   8              		.eabi_attribute 24, 1
   9              		.eabi_attribute 25, 1
  10              		.eabi_attribute 26, 1
  11              		.eabi_attribute 30, 1
  12              		.eabi_attribute 34, 1
  13              		.eabi_attribute 18, 4
  14              		.thumb
  15              		.syntax unified
  16              		.file	"ltpf.c"
  17              		.text
  18              	.Ltext0:
  19              		.cfi_sections	.debug_frame
  20              		.section	.text.resample_8k_12k8,"ax",%progbits
  21              		.align	2
  22              		.thumb
  23              		.thumb_func
  24              		.type	resample_8k_12k8, %function
  25              	resample_8k_12k8:
  26              	.LFB23:
  27              		.file 1 "..\\..\\..\\liblc3\\src\\ltpf.c"
   1:..\..\..\liblc3\src/ltpf.c **** /******************************************************************************
   2:..\..\..\liblc3\src/ltpf.c ****  *
   3:..\..\..\liblc3\src/ltpf.c ****  *  Copyright 2022 Google LLC
   4:..\..\..\liblc3\src/ltpf.c ****  *
   5:..\..\..\liblc3\src/ltpf.c ****  *  Licensed under the Apache License, Version 2.0 (the "License");
   6:..\..\..\liblc3\src/ltpf.c ****  *  you may not use this file except in compliance with the License.
   7:..\..\..\liblc3\src/ltpf.c ****  *  You may obtain a copy of the License at:
   8:..\..\..\liblc3\src/ltpf.c ****  *
   9:..\..\..\liblc3\src/ltpf.c ****  *  http://www.apache.org/licenses/LICENSE-2.0
  10:..\..\..\liblc3\src/ltpf.c ****  *
  11:..\..\..\liblc3\src/ltpf.c ****  *  Unless required by applicable law or agreed to in writing, software
  12:..\..\..\liblc3\src/ltpf.c ****  *  distributed under the License is distributed on an "AS IS" BASIS,
  13:..\..\..\liblc3\src/ltpf.c ****  *  WITHOUT WARRANTIES OR CONDITIONS OF ANY KIND, either express or implied.
  14:..\..\..\liblc3\src/ltpf.c ****  *  See the License for the specific language governing permissions and
  15:..\..\..\liblc3\src/ltpf.c ****  *  limitations under the License.
  16:..\..\..\liblc3\src/ltpf.c ****  *
  17:..\..\..\liblc3\src/ltpf.c ****  ******************************************************************************/
  18:..\..\..\liblc3\src/ltpf.c **** 
  19:..\..\..\liblc3\src/ltpf.c **** #include "ltpf.h"
  20:..\..\..\liblc3\src/ltpf.c **** #include "tables.h"
  21:..\..\..\liblc3\src/ltpf.c **** 
  22:..\..\..\liblc3\src/ltpf.c **** #include "ltpf_neon.h"
  23:..\..\..\liblc3\src/ltpf.c **** #include "ltpf_arm.h"
  24:..\..\..\liblc3\src/ltpf.c **** 
  25:..\..\..\liblc3\src/ltpf.c **** 
  26:..\..\..\liblc3\src/ltpf.c **** /* ----------------------------------------------------------------------------
  27:..\..\..\liblc3\src/ltpf.c ****  *  Resampling
  28:..\..\..\liblc3\src/ltpf.c ****  * -------------------------------------------------------------------------- */
  29:..\..\..\liblc3\src/ltpf.c **** 
  30:..\..\..\liblc3\src/ltpf.c **** /**
ARM GAS  C:\Users\rdn\AppData\Local\Temp\cc5zc0m9.s 			page 2


  31:..\..\..\liblc3\src/ltpf.c ****  * Resampling coefficients
  32:..\..\..\liblc3\src/ltpf.c ****  * The coefficients, in fixed Q15, are reordered by phase for each source
  33:..\..\..\liblc3\src/ltpf.c ****  * samplerate (coefficient matrix transposed)
  34:..\..\..\liblc3\src/ltpf.c ****  */
  35:..\..\..\liblc3\src/ltpf.c **** 
  36:..\..\..\liblc3\src/ltpf.c **** #ifndef resample_8k_12k8
  37:..\..\..\liblc3\src/ltpf.c **** static const int16_t h_8k_12k8_q15[8*10] = {
  38:..\..\..\liblc3\src/ltpf.c ****       214,   417, -1052, -4529, 26233, -4529, -1052,   417,   214,     0,
  39:..\..\..\liblc3\src/ltpf.c ****       180,     0, -1522, -2427, 24506, -5289,     0,   763,   156,   -28,
  40:..\..\..\liblc3\src/ltpf.c ****        92,  -323, -1361,     0, 19741, -3885,  1317,   861,     0,   -61,
  41:..\..\..\liblc3\src/ltpf.c ****         0,  -457,  -752,  1873, 13068,     0,  2389,   598,  -213,   -79,
  42:..\..\..\liblc3\src/ltpf.c ****       -61,  -398,     0,  2686,  5997,  5997,  2686,     0,  -398,   -61,
  43:..\..\..\liblc3\src/ltpf.c ****       -79,  -213,   598,  2389,     0, 13068,  1873,  -752,  -457,     0,
  44:..\..\..\liblc3\src/ltpf.c ****       -61,     0,   861,  1317, -3885, 19741,     0, -1361,  -323,    92,
  45:..\..\..\liblc3\src/ltpf.c ****       -28,   156,   763,     0, -5289, 24506, -2427, -1522,     0,   180,
  46:..\..\..\liblc3\src/ltpf.c **** };
  47:..\..\..\liblc3\src/ltpf.c **** #endif /* resample_8k_12k8 */
  48:..\..\..\liblc3\src/ltpf.c **** 
  49:..\..\..\liblc3\src/ltpf.c **** #ifndef resample_16k_12k8
  50:..\..\..\liblc3\src/ltpf.c **** static const int16_t h_16k_12k8_q15[4*20] = {
  51:..\..\..\liblc3\src/ltpf.c ****       -61,   214,  -398,   417,     0, -1052,  2686, -4529,  5997, 26233,
  52:..\..\..\liblc3\src/ltpf.c ****      5997, -4529,  2686, -1052,     0,   417,  -398,   214,   -61,     0,
  53:..\..\..\liblc3\src/ltpf.c **** 
  54:..\..\..\liblc3\src/ltpf.c ****       -79,   180,  -213,     0,   598, -1522,  2389, -2427,     0, 24506,
  55:..\..\..\liblc3\src/ltpf.c ****     13068, -5289,  1873,     0,  -752,   763,  -457,   156,     0,   -28,
  56:..\..\..\liblc3\src/ltpf.c **** 
  57:..\..\..\liblc3\src/ltpf.c ****       -61,    92,     0,  -323,   861, -1361,  1317,     0, -3885, 19741,
  58:..\..\..\liblc3\src/ltpf.c ****     19741, -3885,     0,  1317, -1361,   861,  -323,     0,    92,   -61,
  59:..\..\..\liblc3\src/ltpf.c **** 
  60:..\..\..\liblc3\src/ltpf.c ****       -28,     0,   156,  -457,   763,  -752,     0,  1873, -5289, 13068,
  61:..\..\..\liblc3\src/ltpf.c ****     24506,     0, -2427,  2389, -1522,   598,     0,  -213,   180,   -79,
  62:..\..\..\liblc3\src/ltpf.c **** };
  63:..\..\..\liblc3\src/ltpf.c **** #endif /* resample_16k_12k8 */
  64:..\..\..\liblc3\src/ltpf.c **** 
  65:..\..\..\liblc3\src/ltpf.c **** #ifndef resample_32k_12k8
  66:..\..\..\liblc3\src/ltpf.c **** static const int16_t h_32k_12k8_q15[2*40] = {
  67:..\..\..\liblc3\src/ltpf.c ****       -30,   -31,    46,   107,     0,  -199,  -162,   209,   430,     0,
  68:..\..\..\liblc3\src/ltpf.c ****      -681,  -526,   658,  1343,     0, -2264, -1943,  2999,  9871, 13116,
  69:..\..\..\liblc3\src/ltpf.c ****      9871,  2999, -1943, -2264,     0,  1343,   658,  -526,  -681,     0,
  70:..\..\..\liblc3\src/ltpf.c ****       430,   209,  -162,  -199,     0,   107,    46,   -31,   -30,     0,
  71:..\..\..\liblc3\src/ltpf.c **** 
  72:..\..\..\liblc3\src/ltpf.c ****       -14,   -39,     0,    90,    78,  -106,  -229,     0,   382,   299,
  73:..\..\..\liblc3\src/ltpf.c ****      -376,  -761,     0,  1194,   937, -1214, -2644,     0,  6534, 12253,
  74:..\..\..\liblc3\src/ltpf.c ****     12253,  6534,     0, -2644, -1214,   937,  1194,     0,  -761,  -376,
  75:..\..\..\liblc3\src/ltpf.c ****       299,   382,     0,  -229,  -106,    78,    90,     0,   -39,   -14,
  76:..\..\..\liblc3\src/ltpf.c **** };
  77:..\..\..\liblc3\src/ltpf.c **** #endif /* resample_32k_12k8 */
  78:..\..\..\liblc3\src/ltpf.c **** 
  79:..\..\..\liblc3\src/ltpf.c **** #ifndef resample_24k_12k8
  80:..\..\..\liblc3\src/ltpf.c **** static const int16_t h_24k_12k8_q15[8*30] = {
  81:..\..\..\liblc3\src/ltpf.c ****       -50,    19,   143,   -93,  -290,   278,   485,  -658,  -701,  1396,
  82:..\..\..\liblc3\src/ltpf.c ****       901, -3019, -1042, 10276, 17488, 10276, -1042, -3019,   901,  1396,
  83:..\..\..\liblc3\src/ltpf.c ****      -701,  -658,   485,   278,  -290,   -93,   143,    19,   -50,     0,
  84:..\..\..\liblc3\src/ltpf.c **** 
  85:..\..\..\liblc3\src/ltpf.c ****       -46,     0,   141,   -45,  -305,   185,   543,  -501,  -854,  1153,
  86:..\..\..\liblc3\src/ltpf.c ****      1249, -2619, -1908,  8712, 17358, 11772,     0, -3319,   480,  1593,
  87:..\..\..\liblc3\src/ltpf.c ****      -504,  -796,   399,   367,  -261,  -142,   138,    40,   -52,    -5,
ARM GAS  C:\Users\rdn\AppData\Local\Temp\cc5zc0m9.s 			page 3


  88:..\..\..\liblc3\src/ltpf.c **** 
  89:..\..\..\liblc3\src/ltpf.c ****       -41,   -17,   133,     0,  -304,    91,   574,  -334,  -959,   878,
  90:..\..\..\liblc3\src/ltpf.c ****      1516, -2143, -2590,  7118, 16971, 13161,  1202, -3495,     0,  1731,
  91:..\..\..\liblc3\src/ltpf.c ****      -267,  -908,   287,   445,  -215,  -188,   125,    62,   -52,   -12,
  92:..\..\..\liblc3\src/ltpf.c **** 
  93:..\..\..\liblc3\src/ltpf.c ****       -34,   -30,   120,    41,  -291,     0,   577,  -164, -1015,   585,
  94:..\..\..\liblc3\src/ltpf.c ****      1697, -1618, -3084,  5534, 16337, 14406,  2544, -3526,  -523,  1800,
  95:..\..\..\liblc3\src/ltpf.c ****         0,  -985,   152,   509,  -156,  -230,   104,    83,   -48,   -19,
  96:..\..\..\liblc3\src/ltpf.c **** 
  97:..\..\..\liblc3\src/ltpf.c ****       -26,   -41,   103,    76,  -265,   -83,   554,     0, -1023,   288,
  98:..\..\..\liblc3\src/ltpf.c ****      1791, -1070, -3393,  3998, 15474, 15474,  3998, -3393, -1070,  1791,
  99:..\..\..\liblc3\src/ltpf.c ****       288, -1023,     0,   554,   -83,  -265,    76,   103,   -41,   -26,
 100:..\..\..\liblc3\src/ltpf.c **** 
 101:..\..\..\liblc3\src/ltpf.c ****       -19,   -48,    83,   104,  -230,  -156,   509,   152,  -985,     0,
 102:..\..\..\liblc3\src/ltpf.c ****      1800,  -523, -3526,  2544, 14406, 16337,  5534, -3084, -1618,  1697,
 103:..\..\..\liblc3\src/ltpf.c ****       585, -1015,  -164,   577,     0,  -291,    41,   120,   -30,   -34,
 104:..\..\..\liblc3\src/ltpf.c **** 
 105:..\..\..\liblc3\src/ltpf.c ****       -12,   -52,    62,   125,  -188,  -215,   445,   287,  -908,  -267,
 106:..\..\..\liblc3\src/ltpf.c ****      1731,     0, -3495,  1202, 13161, 16971,  7118, -2590, -2143,  1516,
 107:..\..\..\liblc3\src/ltpf.c ****       878,  -959,  -334,   574,    91,  -304,     0,   133,   -17,   -41,
 108:..\..\..\liblc3\src/ltpf.c **** 
 109:..\..\..\liblc3\src/ltpf.c ****        -5,   -52,    40,   138,  -142,  -261,   367,   399,  -796,  -504,
 110:..\..\..\liblc3\src/ltpf.c ****      1593,   480, -3319,     0, 11772, 17358,  8712, -1908, -2619,  1249,
 111:..\..\..\liblc3\src/ltpf.c ****      1153,  -854,  -501,   543,   185,  -305,   -45,   141,     0,   -46,
 112:..\..\..\liblc3\src/ltpf.c **** };
 113:..\..\..\liblc3\src/ltpf.c **** #endif /* resample_24k_12k8 */
 114:..\..\..\liblc3\src/ltpf.c **** 
 115:..\..\..\liblc3\src/ltpf.c **** #ifndef resample_48k_12k8
 116:..\..\..\liblc3\src/ltpf.c **** static const int16_t h_48k_12k8_q15[4*60] = {
 117:..\..\..\liblc3\src/ltpf.c ****       -13,   -25,   -20,    10,    51,    71,    38,   -47,  -133,  -145,
 118:..\..\..\liblc3\src/ltpf.c ****       -42,   139,   277,   242,     0,  -329,  -511,  -351,   144,   698,
 119:..\..\..\liblc3\src/ltpf.c ****       895,   450,  -535, -1510, -1697,  -521,  1999,  5138,  7737,  8744,
 120:..\..\..\liblc3\src/ltpf.c ****      7737,  5138,  1999,  -521, -1697, -1510,  -535,   450,   895,   698,
 121:..\..\..\liblc3\src/ltpf.c ****       144,  -351,  -511,  -329,     0,   242,   277,   139,   -42,  -145,
 122:..\..\..\liblc3\src/ltpf.c ****      -133,   -47,    38,    71,    51,    10,   -20,   -25,   -13,     0,
 123:..\..\..\liblc3\src/ltpf.c **** 
 124:..\..\..\liblc3\src/ltpf.c ****        -9,   -23,   -24,     0,    41,    71,    52,   -23,  -115,  -152,
 125:..\..\..\liblc3\src/ltpf.c ****       -78,    92,   254,   272,    76,  -251,  -493,  -427,     0,   576,
 126:..\..\..\liblc3\src/ltpf.c ****       900,   624,  -262, -1309, -1763,  -954,  1272,  4356,  7203,  8679,
 127:..\..\..\liblc3\src/ltpf.c ****      8169,  5886,  2767,     0, -1542, -1660,  -809,   240,   848,   796,
 128:..\..\..\liblc3\src/ltpf.c ****       292,  -252,  -507,  -398,   -82,   199,   288,   183,     0,  -130,
 129:..\..\..\liblc3\src/ltpf.c ****      -145,   -71,    20,    69,    60,    20,   -15,   -26,   -17,    -3,
 130:..\..\..\liblc3\src/ltpf.c **** 
 131:..\..\..\liblc3\src/ltpf.c ****        -6,   -20,   -26,    -8,    31,    67,    62,     0,   -94,  -152,
 132:..\..\..\liblc3\src/ltpf.c ****      -108,    45,   223,   287,   143,  -167,  -454,  -480,  -134,   439,
 133:..\..\..\liblc3\src/ltpf.c ****       866,   758,     0, -1071, -1748, -1295,   601,  3559,  6580,  8485,
 134:..\..\..\liblc3\src/ltpf.c ****      8485,  6580,  3559,   601, -1295, -1748, -1071,     0,   758,   866,
 135:..\..\..\liblc3\src/ltpf.c ****       439,  -134,  -480,  -454,  -167,   143,   287,   223,    45,  -108,
 136:..\..\..\liblc3\src/ltpf.c ****      -152,   -94,     0,    62,    67,    31,    -8,   -26,   -20,    -6,
 137:..\..\..\liblc3\src/ltpf.c **** 
 138:..\..\..\liblc3\src/ltpf.c ****        -3,   -17,   -26,   -15,    20,    60,    69,    20,   -71,  -145,
 139:..\..\..\liblc3\src/ltpf.c ****      -130,     0,   183,   288,   199,   -82,  -398,  -507,  -252,   292,
 140:..\..\..\liblc3\src/ltpf.c ****       796,   848,   240,  -809, -1660, -1542,     0,  2767,  5886,  8169,
 141:..\..\..\liblc3\src/ltpf.c ****      8679,  7203,  4356,  1272,  -954, -1763, -1309,  -262,   624,   900,
 142:..\..\..\liblc3\src/ltpf.c ****       576,     0,  -427,  -493,  -251,    76,   272,   254,    92,   -78,
 143:..\..\..\liblc3\src/ltpf.c ****      -152,  -115,   -23,    52,    71,    41,     0,   -24,   -23,    -9,
 144:..\..\..\liblc3\src/ltpf.c **** };
ARM GAS  C:\Users\rdn\AppData\Local\Temp\cc5zc0m9.s 			page 4


 145:..\..\..\liblc3\src/ltpf.c **** #endif /* resample_48k_12k8 */
 146:..\..\..\liblc3\src/ltpf.c **** 
 147:..\..\..\liblc3\src/ltpf.c **** #ifndef resample_96k_12k8
 148:..\..\..\liblc3\src/ltpf.c **** static const int16_t h_96k_12k8_q15[2*120] = {
 149:..\..\..\liblc3\src/ltpf.c ****        -3,    -7,   -10,   -13,   -13,   -10,    -4,     5,    15,    26,
 150:..\..\..\liblc3\src/ltpf.c ****        33,    36,    31,    19,     0,   -23,   -47,   -66,   -76,   -73,
 151:..\..\..\liblc3\src/ltpf.c ****       -54,   -21,    23,    70,   111,   139,   143,   121,    72,     0,
 152:..\..\..\liblc3\src/ltpf.c ****       -84,  -165,  -227,  -256,  -240,  -175,   -67,    72,   219,   349,
 153:..\..\..\liblc3\src/ltpf.c ****       433,   448,   379,   225,     0,  -268,  -536,  -755,  -874,  -848,
 154:..\..\..\liblc3\src/ltpf.c ****      -648,  -260,   301,  1000,  1780,  2569,  3290,  3869,  4243,  4372,
 155:..\..\..\liblc3\src/ltpf.c ****      4243,  3869,  3290,  2569,  1780,  1000,   301,  -260,  -648,  -848,
 156:..\..\..\liblc3\src/ltpf.c ****      -874,  -755,  -536,  -268,     0,   225,   379,   448,   433,   349,
 157:..\..\..\liblc3\src/ltpf.c ****       219,    72,   -67,  -175,  -240,  -256,  -227,  -165,   -84,     0,
 158:..\..\..\liblc3\src/ltpf.c ****        72,   121,   143,   139,   111,    70,    23,   -21,   -54,   -73,
 159:..\..\..\liblc3\src/ltpf.c ****       -76,   -66,   -47,   -23,     0,    19,    31,    36,    33,    26,
 160:..\..\..\liblc3\src/ltpf.c ****        15,     5,    -4,   -10,   -13,   -13,   -10,    -7,    -3,     0,
 161:..\..\..\liblc3\src/ltpf.c **** 
 162:..\..\..\liblc3\src/ltpf.c ****        -1,    -5,    -8,   -12,   -13,   -12,    -8,     0,    10,    21,
 163:..\..\..\liblc3\src/ltpf.c ****        30,    35,    34,    26,    10,   -11,   -35,   -58,   -73,   -76,
 164:..\..\..\liblc3\src/ltpf.c ****       -65,   -39,     0,    46,    92,   127,   144,   136,   100,    38,
 165:..\..\..\liblc3\src/ltpf.c ****       -41,  -125,  -199,  -246,  -254,  -214,  -126,     0,   146,   288,
 166:..\..\..\liblc3\src/ltpf.c ****       398,   450,   424,   312,   120,  -131,  -405,  -655,  -830,  -881,
 167:..\..\..\liblc3\src/ltpf.c ****      -771,  -477,     0,   636,  1384,  2178,  2943,  3601,  4084,  4340,
 168:..\..\..\liblc3\src/ltpf.c ****      4340,  4084,  3601,  2943,  2178,  1384,   636,     0,  -477,  -771,
 169:..\..\..\liblc3\src/ltpf.c ****      -881,  -830,  -655,  -405,  -131,   120,   312,   424,   450,   398,
 170:..\..\..\liblc3\src/ltpf.c ****       288,   146,     0,  -126,  -214,  -254,  -246,  -199,  -125,   -41,
 171:..\..\..\liblc3\src/ltpf.c ****        38,   100,   136,   144,   127,    92,    46,     0,   -39,   -65,
 172:..\..\..\liblc3\src/ltpf.c ****       -76,   -73,   -58,   -35,   -11,    10,    26,    34,    35,    30,
 173:..\..\..\liblc3\src/ltpf.c ****        21,    10,     0,    -8,   -12,   -13,   -12,    -8,    -5,    -1,
 174:..\..\..\liblc3\src/ltpf.c **** };
 175:..\..\..\liblc3\src/ltpf.c **** #endif /* resample_96k_12k8 */
 176:..\..\..\liblc3\src/ltpf.c **** 
 177:..\..\..\liblc3\src/ltpf.c **** 
 178:..\..\..\liblc3\src/ltpf.c **** /**
 179:..\..\..\liblc3\src/ltpf.c ****  * High-pass 50Hz filtering, at 12.8 KHz samplerate
 180:..\..\..\liblc3\src/ltpf.c ****  * hp50            Biquad filter state
 181:..\..\..\liblc3\src/ltpf.c ****  * xn              Input sample, in fixed Q30
 182:..\..\..\liblc3\src/ltpf.c ****  * return          Filtered sample, in fixed Q30
 183:..\..\..\liblc3\src/ltpf.c ****  */
 184:..\..\..\liblc3\src/ltpf.c **** LC3_HOT static inline int32_t filter_hp50(
 185:..\..\..\liblc3\src/ltpf.c ****     struct lc3_ltpf_hp50_state *hp50, int32_t xn)
 186:..\..\..\liblc3\src/ltpf.c **** {
 187:..\..\..\liblc3\src/ltpf.c ****     int32_t yn;
 188:..\..\..\liblc3\src/ltpf.c **** 
 189:..\..\..\liblc3\src/ltpf.c ****     const int32_t a1 = -2110217691, a2 = 1037111617;
 190:..\..\..\liblc3\src/ltpf.c ****     const int32_t b1 = -2110535566, b2 = 1055267782;
 191:..\..\..\liblc3\src/ltpf.c **** 
 192:..\..\..\liblc3\src/ltpf.c ****     yn       = (hp50->s1 + (int64_t)xn * b2) >> 30;
 193:..\..\..\liblc3\src/ltpf.c ****     hp50->s1 = (hp50->s2 + (int64_t)xn * b1 - (int64_t)yn * a1);
 194:..\..\..\liblc3\src/ltpf.c ****     hp50->s2 = (           (int64_t)xn * b2 - (int64_t)yn * a2);
 195:..\..\..\liblc3\src/ltpf.c **** 
 196:..\..\..\liblc3\src/ltpf.c ****     return yn;
 197:..\..\..\liblc3\src/ltpf.c **** }
 198:..\..\..\liblc3\src/ltpf.c **** 
 199:..\..\..\liblc3\src/ltpf.c **** /**
 200:..\..\..\liblc3\src/ltpf.c ****  * Resample from 8 / 16 / 32 KHz to 12.8 KHz Template
 201:..\..\..\liblc3\src/ltpf.c ****  * p               Resampling factor with compared to 192 KHz (8, 4 or 2)
ARM GAS  C:\Users\rdn\AppData\Local\Temp\cc5zc0m9.s 			page 5


 202:..\..\..\liblc3\src/ltpf.c ****  * h               Arrange by phase coefficients table
 203:..\..\..\liblc3\src/ltpf.c ****  * hp50            High-Pass biquad filter state
 204:..\..\..\liblc3\src/ltpf.c ****  * x               [-d..-1] Previous, [0..ns-1] Current samples, Q15
 205:..\..\..\liblc3\src/ltpf.c ****  * y, n            [0..n-1] Output `n` processed samples, Q14
 206:..\..\..\liblc3\src/ltpf.c ****  *
 207:..\..\..\liblc3\src/ltpf.c ****  * The `x` vector is aligned on 32 bits
 208:..\..\..\liblc3\src/ltpf.c ****  * The number of previous samples `d` accessed on `x` is :
 209:..\..\..\liblc3\src/ltpf.c ****  *   d: { 10, 20, 40 } - 1 for resampling factors 8, 4 and 2.
 210:..\..\..\liblc3\src/ltpf.c ****  */
 211:..\..\..\liblc3\src/ltpf.c **** #if !defined(resample_8k_12k8) || !defined(resample_16k_12k8) \
 212:..\..\..\liblc3\src/ltpf.c ****     || !defined(resample_32k_12k8)
 213:..\..\..\liblc3\src/ltpf.c **** LC3_HOT static inline void resample_x64k_12k8(const int p, const int16_t *h,
 214:..\..\..\liblc3\src/ltpf.c ****     struct lc3_ltpf_hp50_state *hp50, const int16_t *x, int16_t *y, int n)
 215:..\..\..\liblc3\src/ltpf.c **** {
 216:..\..\..\liblc3\src/ltpf.c ****     const int w = 2*(40 / p);
 217:..\..\..\liblc3\src/ltpf.c **** 
 218:..\..\..\liblc3\src/ltpf.c ****     x -= w - 1;
 219:..\..\..\liblc3\src/ltpf.c **** 
 220:..\..\..\liblc3\src/ltpf.c ****     for (int i = 0; i < 5*n; i += 5) {
 221:..\..\..\liblc3\src/ltpf.c ****         const int16_t *hn = h + (i % p) * w;
 222:..\..\..\liblc3\src/ltpf.c ****         const int16_t *xn = x + (i / p);
 223:..\..\..\liblc3\src/ltpf.c ****         int32_t un = 0;
 224:..\..\..\liblc3\src/ltpf.c **** 
 225:..\..\..\liblc3\src/ltpf.c ****         for (int k = 0; k < w; k += 10) {
 226:..\..\..\liblc3\src/ltpf.c ****             un += *(xn++) * *(hn++);
 227:..\..\..\liblc3\src/ltpf.c ****             un += *(xn++) * *(hn++);
 228:..\..\..\liblc3\src/ltpf.c ****             un += *(xn++) * *(hn++);
 229:..\..\..\liblc3\src/ltpf.c ****             un += *(xn++) * *(hn++);
 230:..\..\..\liblc3\src/ltpf.c ****             un += *(xn++) * *(hn++);
 231:..\..\..\liblc3\src/ltpf.c ****             un += *(xn++) * *(hn++);
 232:..\..\..\liblc3\src/ltpf.c ****             un += *(xn++) * *(hn++);
 233:..\..\..\liblc3\src/ltpf.c ****             un += *(xn++) * *(hn++);
 234:..\..\..\liblc3\src/ltpf.c ****             un += *(xn++) * *(hn++);
 235:..\..\..\liblc3\src/ltpf.c ****             un += *(xn++) * *(hn++);
 236:..\..\..\liblc3\src/ltpf.c ****         }
 237:..\..\..\liblc3\src/ltpf.c **** 
 238:..\..\..\liblc3\src/ltpf.c ****         int32_t yn = filter_hp50(hp50, un);
 239:..\..\..\liblc3\src/ltpf.c ****         *(y++) = (yn + (1 << 15)) >> 16;
 240:..\..\..\liblc3\src/ltpf.c ****     }
 241:..\..\..\liblc3\src/ltpf.c **** }
 242:..\..\..\liblc3\src/ltpf.c **** #endif
 243:..\..\..\liblc3\src/ltpf.c **** 
 244:..\..\..\liblc3\src/ltpf.c **** /**
 245:..\..\..\liblc3\src/ltpf.c ****  * Resample from 24 / 48 KHz to 12.8 KHz Template
 246:..\..\..\liblc3\src/ltpf.c ****  * p               Resampling factor with compared to 192 KHz (8 or 4)
 247:..\..\..\liblc3\src/ltpf.c ****  * h               Arrange by phase coefficients table
 248:..\..\..\liblc3\src/ltpf.c ****  * hp50            High-Pass biquad filter state
 249:..\..\..\liblc3\src/ltpf.c ****  * x               [-d..-1] Previous, [0..ns-1] Current samples, Q15
 250:..\..\..\liblc3\src/ltpf.c ****  * y, n            [0..n-1] Output `n` processed samples, Q14
 251:..\..\..\liblc3\src/ltpf.c ****  *
 252:..\..\..\liblc3\src/ltpf.c ****  * The `x` vector is aligned on 32 bits
 253:..\..\..\liblc3\src/ltpf.c ****  * The number of previous samples `d` accessed on `x` is :
 254:..\..\..\liblc3\src/ltpf.c ****  *   d: { 30, 60 } - 1 for resampling factors 8 and 4.
 255:..\..\..\liblc3\src/ltpf.c ****  */
 256:..\..\..\liblc3\src/ltpf.c **** #if !defined(resample_24k_12k8) || !defined(resample_48k_12k8) \
 257:..\..\..\liblc3\src/ltpf.c ****     || !defined(resample_96k_12k8)
 258:..\..\..\liblc3\src/ltpf.c **** LC3_HOT static inline void resample_x192k_12k8(const int p, const int16_t *h,
ARM GAS  C:\Users\rdn\AppData\Local\Temp\cc5zc0m9.s 			page 6


 259:..\..\..\liblc3\src/ltpf.c ****     struct lc3_ltpf_hp50_state *hp50, const int16_t *x, int16_t *y, int n)
 260:..\..\..\liblc3\src/ltpf.c **** {
 261:..\..\..\liblc3\src/ltpf.c ****     const int w = 2*(120 / p);
 262:..\..\..\liblc3\src/ltpf.c **** 
 263:..\..\..\liblc3\src/ltpf.c ****     x -= w - 1;
 264:..\..\..\liblc3\src/ltpf.c **** 
 265:..\..\..\liblc3\src/ltpf.c ****     for (int i = 0; i < 15*n; i += 15) {
 266:..\..\..\liblc3\src/ltpf.c ****         const int16_t *hn = h + (i % p) * w;
 267:..\..\..\liblc3\src/ltpf.c ****         const int16_t *xn = x + (i / p);
 268:..\..\..\liblc3\src/ltpf.c ****         int32_t un = 0;
 269:..\..\..\liblc3\src/ltpf.c **** 
 270:..\..\..\liblc3\src/ltpf.c ****         for (int k = 0; k < w; k += 15) {
 271:..\..\..\liblc3\src/ltpf.c ****             un += *(xn++) * *(hn++);
 272:..\..\..\liblc3\src/ltpf.c ****             un += *(xn++) * *(hn++);
 273:..\..\..\liblc3\src/ltpf.c ****             un += *(xn++) * *(hn++);
 274:..\..\..\liblc3\src/ltpf.c ****             un += *(xn++) * *(hn++);
 275:..\..\..\liblc3\src/ltpf.c ****             un += *(xn++) * *(hn++);
 276:..\..\..\liblc3\src/ltpf.c ****             un += *(xn++) * *(hn++);
 277:..\..\..\liblc3\src/ltpf.c ****             un += *(xn++) * *(hn++);
 278:..\..\..\liblc3\src/ltpf.c ****             un += *(xn++) * *(hn++);
 279:..\..\..\liblc3\src/ltpf.c ****             un += *(xn++) * *(hn++);
 280:..\..\..\liblc3\src/ltpf.c ****             un += *(xn++) * *(hn++);
 281:..\..\..\liblc3\src/ltpf.c ****             un += *(xn++) * *(hn++);
 282:..\..\..\liblc3\src/ltpf.c ****             un += *(xn++) * *(hn++);
 283:..\..\..\liblc3\src/ltpf.c ****             un += *(xn++) * *(hn++);
 284:..\..\..\liblc3\src/ltpf.c ****             un += *(xn++) * *(hn++);
 285:..\..\..\liblc3\src/ltpf.c ****             un += *(xn++) * *(hn++);
 286:..\..\..\liblc3\src/ltpf.c ****         }
 287:..\..\..\liblc3\src/ltpf.c **** 
 288:..\..\..\liblc3\src/ltpf.c ****         int32_t yn = filter_hp50(hp50, un);
 289:..\..\..\liblc3\src/ltpf.c ****         *(y++) = (yn + (1 << 15)) >> 16;
 290:..\..\..\liblc3\src/ltpf.c ****     }
 291:..\..\..\liblc3\src/ltpf.c **** }
 292:..\..\..\liblc3\src/ltpf.c **** #endif
 293:..\..\..\liblc3\src/ltpf.c **** 
 294:..\..\..\liblc3\src/ltpf.c **** /**
 295:..\..\..\liblc3\src/ltpf.c ****  * Resample from 8 Khz to 12.8 KHz
 296:..\..\..\liblc3\src/ltpf.c ****  * hp50            High-Pass biquad filter state
 297:..\..\..\liblc3\src/ltpf.c ****  * x               [-10..-1] Previous, [0..ns-1] Current samples, Q15
 298:..\..\..\liblc3\src/ltpf.c ****  * y, n            [0..n-1] Output `n` processed samples, Q14
 299:..\..\..\liblc3\src/ltpf.c ****  *
 300:..\..\..\liblc3\src/ltpf.c ****  * The `x` vector is aligned on 32 bits
 301:..\..\..\liblc3\src/ltpf.c ****  */
 302:..\..\..\liblc3\src/ltpf.c **** #ifndef resample_8k_12k8
 303:..\..\..\liblc3\src/ltpf.c **** LC3_HOT static void resample_8k_12k8(
 304:..\..\..\liblc3\src/ltpf.c ****     struct lc3_ltpf_hp50_state *hp50, const int16_t *x, int16_t *y, int n)
 305:..\..\..\liblc3\src/ltpf.c **** {
  28              		.loc 1 305 0
  29              		.cfi_startproc
  30              		@ args = 0, pretend = 0, frame = 8
  31              		@ frame_needed = 0, uses_anonymous_args = 0
  32              	.LVL0:
  33 0000 2DE9F04F 		push	{r4, r5, r6, r7, r8, r9, r10, fp, lr}
  34              		.cfi_def_cfa_offset 36
  35              		.cfi_offset 4, -36
  36              		.cfi_offset 5, -32
  37              		.cfi_offset 6, -28
ARM GAS  C:\Users\rdn\AppData\Local\Temp\cc5zc0m9.s 			page 7


  38              		.cfi_offset 7, -24
  39              		.cfi_offset 8, -20
  40              		.cfi_offset 9, -16
  41              		.cfi_offset 10, -12
  42              		.cfi_offset 11, -8
  43              		.cfi_offset 14, -4
  44 0004 83B0     		sub	sp, sp, #12
  45              		.cfi_def_cfa_offset 48
  46 0006 0191     		str	r1, [sp, #4]
  47 0008 9E46     		mov	lr, r3
  48              	.LVL1:
  49              	.LBB78:
  50              	.LBB79:
 218:..\..\..\liblc3\src/ltpf.c **** 
  51              		.loc 1 218 0
  52 000a 6FF0110C 		mvn	ip, #17
  53              	.LVL2:
  54              	.LBB80:
 220:..\..\..\liblc3\src/ltpf.c ****         const int16_t *hn = h + (i % p) * w;
  55              		.loc 1 220 0
  56 000e 0021     		movs	r1, #0
  57              	.LVL3:
  58 0010 99E0     		b	.L2
  59              	.LVL4:
  60              	.L7:
  61              	.LBB81:
 221:..\..\..\liblc3\src/ltpf.c ****         const int16_t *xn = x + (i / p);
  62              		.loc 1 221 0
  63 0012 514B     		ldr	r3, .L9
  64 0014 0B40     		ands	r3, r1, r3
  65 0016 03D5     		bpl	.L3
  66 0018 013B     		subs	r3, r3, #1
  67 001a 63F00703 		orn	r3, r3, #7
  68 001e 0133     		adds	r3, r3, #1
  69              	.L3:
  70 0020 03EB8303 		add	r3, r3, r3, lsl #2
  71 0024 5C00     		lsls	r4, r3, #1
  72 0026 4D4B     		ldr	r3, .L9+4
  73 0028 03EB4408 		add	r8, r3, r4, lsl #1
  74              	.LVL5:
 222:..\..\..\liblc3\src/ltpf.c ****         int32_t un = 0;
  75              		.loc 1 222 0
  76 002c 0F46     		mov	r7, r1
  77 002e 0029     		cmp	r1, #0
  78 0030 00DA     		bge	.L4
  79 0032 CF1D     		adds	r7, r1, #7
  80              	.L4:
  81 0034 FF10     		asrs	r7, r7, #3
  82 0036 0CEB4707 		add	r7, ip, r7, lsl #1
  83 003a 019B     		ldr	r3, [sp, #4]
  84 003c 1F44     		add	r7, r7, r3
  85              	.LVL6:
  86              	.LBB82:
 225:..\..\..\liblc3\src/ltpf.c ****             un += *(xn++) * *(hn++);
  87              		.loc 1 225 0
  88 003e 4FF00009 		mov	r9, #0
  89              	.LBE82:
ARM GAS  C:\Users\rdn\AppData\Local\Temp\cc5zc0m9.s 			page 8


 223:..\..\..\liblc3\src/ltpf.c **** 
  90              		.loc 1 223 0
  91 0042 4D46     		mov	r5, r9
  92 0044 40E0     		b	.L5
  93              	.LVL7:
  94              	.L6:
  95              	.LBB83:
 226:..\..\..\liblc3\src/ltpf.c ****             un += *(xn++) * *(hn++);
  96              		.loc 1 226 0
  97 0046 B7F90030 		ldrsh	r3, [r7]
  98              	.LVL8:
  99 004a B8F90040 		ldrsh	r4, [r8]
 100 004e 04FB0355 		mla	r5, r4, r3, r5
 101              	.LVL9:
 227:..\..\..\liblc3\src/ltpf.c ****             un += *(xn++) * *(hn++);
 102              		.loc 1 227 0
 103 0052 B7F90230 		ldrsh	r3, [r7, #2]
 104              	.LVL10:
 105 0056 B8F90240 		ldrsh	r4, [r8, #2]
 106 005a 04FB0355 		mla	r5, r4, r3, r5
 107              	.LVL11:
 228:..\..\..\liblc3\src/ltpf.c ****             un += *(xn++) * *(hn++);
 108              		.loc 1 228 0
 109 005e B7F90430 		ldrsh	r3, [r7, #4]
 110              	.LVL12:
 111 0062 B8F90440 		ldrsh	r4, [r8, #4]
 112 0066 04FB0355 		mla	r5, r4, r3, r5
 113              	.LVL13:
 229:..\..\..\liblc3\src/ltpf.c ****             un += *(xn++) * *(hn++);
 114              		.loc 1 229 0
 115 006a B7F90630 		ldrsh	r3, [r7, #6]
 116              	.LVL14:
 117 006e B8F90640 		ldrsh	r4, [r8, #6]
 118 0072 04FB0354 		mla	r4, r4, r3, r5
 119              	.LVL15:
 230:..\..\..\liblc3\src/ltpf.c ****             un += *(xn++) * *(hn++);
 120              		.loc 1 230 0
 121 0076 B7F90830 		ldrsh	r3, [r7, #8]
 122              	.LVL16:
 123 007a B8F90850 		ldrsh	r5, [r8, #8]
 124 007e 05FB0344 		mla	r4, r5, r3, r4
 125              	.LVL17:
 231:..\..\..\liblc3\src/ltpf.c ****             un += *(xn++) * *(hn++);
 126              		.loc 1 231 0
 127 0082 B7F90A30 		ldrsh	r3, [r7, #10]
 128              	.LVL18:
 129 0086 B8F90A50 		ldrsh	r5, [r8, #10]
 130 008a 05FB0344 		mla	r4, r5, r3, r4
 131              	.LVL19:
 232:..\..\..\liblc3\src/ltpf.c ****             un += *(xn++) * *(hn++);
 132              		.loc 1 232 0
 133 008e B7F90C30 		ldrsh	r3, [r7, #12]
 134              	.LVL20:
 135 0092 B8F90C50 		ldrsh	r5, [r8, #12]
 136 0096 05FB0344 		mla	r4, r5, r3, r4
 137              	.LVL21:
 233:..\..\..\liblc3\src/ltpf.c ****             un += *(xn++) * *(hn++);
ARM GAS  C:\Users\rdn\AppData\Local\Temp\cc5zc0m9.s 			page 9


 138              		.loc 1 233 0
 139 009a B7F90E30 		ldrsh	r3, [r7, #14]
 140              	.LVL22:
 141 009e B8F90E50 		ldrsh	r5, [r8, #14]
 142 00a2 05FB0345 		mla	r5, r5, r3, r4
 143              	.LVL23:
 234:..\..\..\liblc3\src/ltpf.c ****             un += *(xn++) * *(hn++);
 144              		.loc 1 234 0
 145 00a6 B7F91030 		ldrsh	r3, [r7, #16]
 146              	.LVL24:
 147 00aa B8F91040 		ldrsh	r4, [r8, #16]
 148 00ae 04FB0354 		mla	r4, r4, r3, r5
 149              	.LVL25:
 235:..\..\..\liblc3\src/ltpf.c ****         }
 150              		.loc 1 235 0
 151 00b2 B7F91230 		ldrsh	r3, [r7, #18]
 152              	.LVL26:
 153 00b6 B8F91250 		ldrsh	r5, [r8, #18]
 154 00ba 05FB0345 		mla	r5, r5, r3, r4
 155              	.LVL27:
 225:..\..\..\liblc3\src/ltpf.c ****             un += *(xn++) * *(hn++);
 156              		.loc 1 225 0
 157 00be 09F10A09 		add	r9, r9, #10
 158              	.LVL28:
 235:..\..\..\liblc3\src/ltpf.c ****         }
 159              		.loc 1 235 0
 160 00c2 1437     		adds	r7, r7, #20
 161              	.LVL29:
 162 00c4 08F11408 		add	r8, r8, #20
 163              	.LVL30:
 164              	.L5:
 225:..\..\..\liblc3\src/ltpf.c ****             un += *(xn++) * *(hn++);
 165              		.loc 1 225 0
 166 00c8 B9F1090F 		cmp	r9, #9
 167 00cc BBDD     		ble	.L6
 168              	.LVL31:
 169              	.LBE83:
 170              	.LBB84:
 171              	.LBB85:
 192:..\..\..\liblc3\src/ltpf.c ****     hp50->s1 = (hp50->s2 + (int64_t)xn * b1 - (int64_t)yn * a1);
 172              		.loc 1 192 0
 173 00ce D0E90089 		ldrd	r8, [r0]
 174              	.LVL32:
 175 00d2 EF17     		asrs	r7, r5, #31
 176              	.LVL33:
 177 00d4 224B     		ldr	r3, .L9+8
 178 00d6 A5FB03AB 		umull	r10, fp, r5, r3
 179 00da 03FB07BB 		mla	fp, r3, r7, fp
 180 00de 18EB0A08 		adds	r8, r8, r10
 181 00e2 49EB0B09 		adc	r9, r9, fp
 182              	.LVL34:
 183 00e6 4FEA9873 		lsr	r3, r8, #30
 184 00ea 43EA8903 		orr	r3, r3, r9, lsl #2
 185              	.LVL35:
 193:..\..\..\liblc3\src/ltpf.c ****     hp50->s2 = (           (int64_t)xn * b2 - (int64_t)yn * a2);
 186              		.loc 1 193 0
 187 00ee D0E90289 		ldrd	r8, [r0, #8]
ARM GAS  C:\Users\rdn\AppData\Local\Temp\cc5zc0m9.s 			page 10


 188 00f2 1C4C     		ldr	r4, .L9+12
 189 00f4 6E42     		negs	r6, r5
 190 00f6 04FB0766 		mla	r6, r4, r7, r6
 191 00fa A5FB0445 		umull	r4, r5, r5, r4
 192 00fe 3544     		add	r5, r5, r6
 193              	.LVL36:
 194 0100 18EB0408 		adds	r8, r8, r4
 195 0104 49EB0509 		adc	r9, r9, r5
 196 0108 DF17     		asrs	r7, r3, #31
 197 010a 174E     		ldr	r6, .L9+16
 198 010c A3FB0645 		umull	r4, r5, r3, r6
 199 0110 06FB0755 		mla	r5, r6, r7, r5
 200 0114 14EB0804 		adds	r4, r4, r8
 201 0118 45EB0905 		adc	r5, r5, r9
 202 011c C0E90045 		strd	r4, [r0]
 194:..\..\..\liblc3\src/ltpf.c **** 
 203              		.loc 1 194 0
 204 0120 124C     		ldr	r4, .L9+20
 205 0122 5E42     		negs	r6, r3
 206 0124 04FB0766 		mla	r6, r4, r7, r6
 207 0128 A3FB0445 		umull	r4, r5, r3, r4
 208 012c 3544     		add	r5, r5, r6
 209 012e 14EB0A04 		adds	r4, r4, r10
 210 0132 45EB0B05 		adc	r5, r5, fp
 211 0136 C0E90245 		strd	r4, [r0, #8]
 212              	.LVL37:
 213              	.LBE85:
 214              	.LBE84:
 239:..\..\..\liblc3\src/ltpf.c ****     }
 215              		.loc 1 239 0
 216 013a 03F50043 		add	r3, r3, #32768
 217 013e 1B14     		asrs	r3, r3, #16
 218 0140 1380     		strh	r3, [r2]	@ movhi
 219              	.LBE81:
 220:..\..\..\liblc3\src/ltpf.c ****         const int16_t *hn = h + (i % p) * w;
 220              		.loc 1 220 0
 221 0142 0531     		adds	r1, r1, #5
 222              	.LVL38:
 223              	.LBB86:
 239:..\..\..\liblc3\src/ltpf.c ****     }
 224              		.loc 1 239 0
 225 0144 0232     		adds	r2, r2, #2
 226              	.LVL39:
 227              	.L2:
 228              	.LBE86:
 220:..\..\..\liblc3\src/ltpf.c ****         const int16_t *hn = h + (i % p) * w;
 229              		.loc 1 220 0
 230 0146 0EEB8E03 		add	r3, lr, lr, lsl #2
 231 014a 9942     		cmp	r1, r3
 232 014c FFF661AF 		blt	.L7
 233              	.LBE80:
 234              	.LBE79:
 235              	.LBE78:
 306:..\..\..\liblc3\src/ltpf.c ****     resample_x64k_12k8(8, h_8k_12k8_q15, hp50, x, y, n);
 307:..\..\..\liblc3\src/ltpf.c **** }
 236              		.loc 1 307 0
 237 0150 03B0     		add	sp, sp, #12
ARM GAS  C:\Users\rdn\AppData\Local\Temp\cc5zc0m9.s 			page 11


 238              		.cfi_def_cfa_offset 36
 239              		@ sp needed
 240 0152 BDE8F08F 		pop	{r4, r5, r6, r7, r8, r9, r10, fp, pc}
 241              	.LVL40:
 242              	.L10:
 243 0156 00BF     		.align	2
 244              	.L9:
 245 0158 07000080 		.word	-2147483641
 246 015c 00000000 		.word	.LANCHOR0
 247 0160 C61BE63E 		.word	1055267782
 248 0164 72C83382 		.word	-2110535566
 249 0168 DB5DC77D 		.word	2110217691
 250 016c BFEE2EC2 		.word	-1037111617
 251              		.cfi_endproc
 252              	.LFE23:
 253              		.size	resample_8k_12k8, .-resample_8k_12k8
 254              		.section	.text.resample_96k_12k8,"ax",%progbits
 255              		.align	2
 256              		.thumb
 257              		.thumb_func
 258              		.type	resample_96k_12k8, %function
 259              	resample_96k_12k8:
 260              	.LFB28:
 308:..\..\..\liblc3\src/ltpf.c **** #endif /* resample_8k_12k8 */
 309:..\..\..\liblc3\src/ltpf.c **** 
 310:..\..\..\liblc3\src/ltpf.c **** /**
 311:..\..\..\liblc3\src/ltpf.c ****  * Resample from 16 Khz to 12.8 KHz
 312:..\..\..\liblc3\src/ltpf.c ****  * hp50            High-Pass biquad filter state
 313:..\..\..\liblc3\src/ltpf.c ****  * x               [-20..-1] Previous, [0..ns-1] Current samples, in fixed Q15
 314:..\..\..\liblc3\src/ltpf.c ****  * y, n            [0..n-1] Output `n` processed samples, in fixed Q14
 315:..\..\..\liblc3\src/ltpf.c ****  *
 316:..\..\..\liblc3\src/ltpf.c ****  * The `x` vector is aligned on 32 bits
 317:..\..\..\liblc3\src/ltpf.c ****  */
 318:..\..\..\liblc3\src/ltpf.c **** #ifndef resample_16k_12k8
 319:..\..\..\liblc3\src/ltpf.c **** LC3_HOT static void resample_16k_12k8(
 320:..\..\..\liblc3\src/ltpf.c ****     struct lc3_ltpf_hp50_state *hp50, const int16_t *x, int16_t *y, int n)
 321:..\..\..\liblc3\src/ltpf.c **** {
 322:..\..\..\liblc3\src/ltpf.c ****     resample_x64k_12k8(4, h_16k_12k8_q15, hp50, x, y, n);
 323:..\..\..\liblc3\src/ltpf.c **** }
 324:..\..\..\liblc3\src/ltpf.c **** #endif /* resample_16k_12k8 */
 325:..\..\..\liblc3\src/ltpf.c **** 
 326:..\..\..\liblc3\src/ltpf.c **** /**
 327:..\..\..\liblc3\src/ltpf.c ****  * Resample from 32 Khz to 12.8 KHz
 328:..\..\..\liblc3\src/ltpf.c ****  * hp50            High-Pass biquad filter state
 329:..\..\..\liblc3\src/ltpf.c ****  * x               [-30..-1] Previous, [0..ns-1] Current samples, in fixed Q15
 330:..\..\..\liblc3\src/ltpf.c ****  * y, n            [0..n-1] Output `n` processed samples, in fixed Q14
 331:..\..\..\liblc3\src/ltpf.c ****  *
 332:..\..\..\liblc3\src/ltpf.c ****  * The `x` vector is aligned on 32 bits
 333:..\..\..\liblc3\src/ltpf.c ****  */
 334:..\..\..\liblc3\src/ltpf.c **** #ifndef resample_32k_12k8
 335:..\..\..\liblc3\src/ltpf.c **** LC3_HOT static void resample_32k_12k8(
 336:..\..\..\liblc3\src/ltpf.c ****     struct lc3_ltpf_hp50_state *hp50, const int16_t *x, int16_t *y, int n)
 337:..\..\..\liblc3\src/ltpf.c **** {
 338:..\..\..\liblc3\src/ltpf.c ****     resample_x64k_12k8(2, h_32k_12k8_q15, hp50, x, y, n);
 339:..\..\..\liblc3\src/ltpf.c **** }
 340:..\..\..\liblc3\src/ltpf.c **** #endif /* resample_32k_12k8 */
 341:..\..\..\liblc3\src/ltpf.c **** 
ARM GAS  C:\Users\rdn\AppData\Local\Temp\cc5zc0m9.s 			page 12


 342:..\..\..\liblc3\src/ltpf.c **** /**
 343:..\..\..\liblc3\src/ltpf.c ****  * Resample from 24 Khz to 12.8 KHz
 344:..\..\..\liblc3\src/ltpf.c ****  * hp50            High-Pass biquad filter state
 345:..\..\..\liblc3\src/ltpf.c ****  * x               [-30..-1] Previous, [0..ns-1] Current samples, in fixed Q15
 346:..\..\..\liblc3\src/ltpf.c ****  * y, n            [0..n-1] Output `n` processed samples, in fixed Q14
 347:..\..\..\liblc3\src/ltpf.c ****  *
 348:..\..\..\liblc3\src/ltpf.c ****  * The `x` vector is aligned on 32 bits
 349:..\..\..\liblc3\src/ltpf.c ****  */
 350:..\..\..\liblc3\src/ltpf.c **** #ifndef resample_24k_12k8
 351:..\..\..\liblc3\src/ltpf.c **** LC3_HOT static void resample_24k_12k8(
 352:..\..\..\liblc3\src/ltpf.c ****     struct lc3_ltpf_hp50_state *hp50, const int16_t *x, int16_t *y, int n)
 353:..\..\..\liblc3\src/ltpf.c **** {
 354:..\..\..\liblc3\src/ltpf.c ****     resample_x192k_12k8(8, h_24k_12k8_q15, hp50, x, y, n);
 355:..\..\..\liblc3\src/ltpf.c **** }
 356:..\..\..\liblc3\src/ltpf.c **** #endif /* resample_24k_12k8 */
 357:..\..\..\liblc3\src/ltpf.c **** 
 358:..\..\..\liblc3\src/ltpf.c **** /**
 359:..\..\..\liblc3\src/ltpf.c ****  * Resample from 48 Khz to 12.8 KHz
 360:..\..\..\liblc3\src/ltpf.c ****  * hp50            High-Pass biquad filter state
 361:..\..\..\liblc3\src/ltpf.c ****  * x               [-60..-1] Previous, [0..ns-1] Current samples, in fixed Q15
 362:..\..\..\liblc3\src/ltpf.c ****  * y, n            [0..n-1] Output `n` processed samples, in fixed Q14
 363:..\..\..\liblc3\src/ltpf.c ****  *
 364:..\..\..\liblc3\src/ltpf.c **** * The `x` vector is aligned on 32 bits
 365:..\..\..\liblc3\src/ltpf.c **** */
 366:..\..\..\liblc3\src/ltpf.c **** #ifndef resample_48k_12k8
 367:..\..\..\liblc3\src/ltpf.c **** LC3_HOT static void resample_48k_12k8(
 368:..\..\..\liblc3\src/ltpf.c ****     struct lc3_ltpf_hp50_state *hp50, const int16_t *x, int16_t *y, int n)
 369:..\..\..\liblc3\src/ltpf.c **** {
 370:..\..\..\liblc3\src/ltpf.c ****     resample_x192k_12k8(4, h_48k_12k8_q15, hp50, x, y, n);
 371:..\..\..\liblc3\src/ltpf.c **** }
 372:..\..\..\liblc3\src/ltpf.c **** #endif /* resample_48k_12k8 */
 373:..\..\..\liblc3\src/ltpf.c **** 
 374:..\..\..\liblc3\src/ltpf.c **** /**
 375:..\..\..\liblc3\src/ltpf.c ****  * Resample from 96 Khz to 12.8 KHz
 376:..\..\..\liblc3\src/ltpf.c ****  * hp50            High-Pass biquad filter state
 377:..\..\..\liblc3\src/ltpf.c ****  * x               [-120..-1] Previous, [0..ns-1] Current samples, in fixed Q15
 378:..\..\..\liblc3\src/ltpf.c ****  * y, n            [0..n-1] Output `n` processed samples, in fixed Q14
 379:..\..\..\liblc3\src/ltpf.c ****  *
 380:..\..\..\liblc3\src/ltpf.c **** * The `x` vector is aligned on 32 bits
 381:..\..\..\liblc3\src/ltpf.c **** */
 382:..\..\..\liblc3\src/ltpf.c **** #ifndef resample_96k_12k8
 383:..\..\..\liblc3\src/ltpf.c **** LC3_HOT static void resample_96k_12k8(
 384:..\..\..\liblc3\src/ltpf.c ****     struct lc3_ltpf_hp50_state *hp50, const int16_t *x, int16_t *y, int n)
 385:..\..\..\liblc3\src/ltpf.c **** {
 261              		.loc 1 385 0
 262              		.cfi_startproc
 263              		@ args = 0, pretend = 0, frame = 8
 264              		@ frame_needed = 0, uses_anonymous_args = 0
 265              	.LVL41:
 266 0000 2DE9F04F 		push	{r4, r5, r6, r7, r8, r9, r10, fp, lr}
 267              		.cfi_def_cfa_offset 36
 268              		.cfi_offset 4, -36
 269              		.cfi_offset 5, -32
 270              		.cfi_offset 6, -28
 271              		.cfi_offset 7, -24
 272              		.cfi_offset 8, -20
 273              		.cfi_offset 9, -16
ARM GAS  C:\Users\rdn\AppData\Local\Temp\cc5zc0m9.s 			page 13


 274              		.cfi_offset 10, -12
 275              		.cfi_offset 11, -8
 276              		.cfi_offset 14, -4
 277 0004 83B0     		sub	sp, sp, #12
 278              		.cfi_def_cfa_offset 48
 279 0006 0191     		str	r1, [sp, #4]
 280 0008 9E46     		mov	lr, r3
 281              	.LVL42:
 282              	.LBB94:
 283              	.LBB95:
 263:..\..\..\liblc3\src/ltpf.c **** 
 284              		.loc 1 263 0
 285 000a 6FF0ED0C 		mvn	ip, #237
 286              	.LVL43:
 287              	.LBB96:
 265:..\..\..\liblc3\src/ltpf.c ****         const int16_t *hn = h + (i % p) * w;
 288              		.loc 1 265 0
 289 000e 0021     		movs	r1, #0
 290              	.LVL44:
 291 0010 B5E0     		b	.L12
 292              	.LVL45:
 293              	.L16:
 294              	.LBB97:
 266:..\..\..\liblc3\src/ltpf.c ****         const int16_t *xn = x + (i / p);
 295              		.loc 1 266 0
 296 0012 5F4B     		ldr	r3, .L18
 297 0014 0B40     		ands	r3, r1, r3
 298 0016 03D5     		bpl	.L13
 299 0018 013B     		subs	r3, r3, #1
 300 001a 63F00103 		orn	r3, r3, #1
 301 001e 0133     		adds	r3, r3, #1
 302              	.L13:
 303 0020 C3EB0313 		rsb	r3, r3, r3, lsl #4
 304 0024 DC00     		lsls	r4, r3, #3
 305 0026 5B4B     		ldr	r3, .L18+4
 306 0028 03EB4408 		add	r8, r3, r4, lsl #1
 307              	.LVL46:
 267:..\..\..\liblc3\src/ltpf.c ****         int32_t un = 0;
 308              		.loc 1 267 0
 309 002c 01EBD177 		add	r7, r1, r1, lsr #31
 310 0030 27F00107 		bic	r7, r7, #1
 311 0034 6744     		add	r7, r7, ip
 312 0036 019B     		ldr	r3, [sp, #4]
 313 0038 1F44     		add	r7, r7, r3
 314              	.LVL47:
 315              	.LBB98:
 270:..\..\..\liblc3\src/ltpf.c ****             un += *(xn++) * *(hn++);
 316              		.loc 1 270 0
 317 003a 4FF00009 		mov	r9, #0
 318              	.LBE98:
 268:..\..\..\liblc3\src/ltpf.c **** 
 319              		.loc 1 268 0
 320 003e 4D46     		mov	r5, r9
 321 0040 5EE0     		b	.L14
 322              	.LVL48:
 323              	.L15:
 324              	.LBB99:
ARM GAS  C:\Users\rdn\AppData\Local\Temp\cc5zc0m9.s 			page 14


 271:..\..\..\liblc3\src/ltpf.c ****             un += *(xn++) * *(hn++);
 325              		.loc 1 271 0
 326 0042 B7F90030 		ldrsh	r3, [r7]
 327              	.LVL49:
 328 0046 B8F90040 		ldrsh	r4, [r8]
 329 004a 04FB0355 		mla	r5, r4, r3, r5
 330              	.LVL50:
 272:..\..\..\liblc3\src/ltpf.c ****             un += *(xn++) * *(hn++);
 331              		.loc 1 272 0
 332 004e B7F90230 		ldrsh	r3, [r7, #2]
 333              	.LVL51:
 334 0052 B8F90240 		ldrsh	r4, [r8, #2]
 335 0056 04FB0355 		mla	r5, r4, r3, r5
 336              	.LVL52:
 273:..\..\..\liblc3\src/ltpf.c ****             un += *(xn++) * *(hn++);
 337              		.loc 1 273 0
 338 005a B7F90430 		ldrsh	r3, [r7, #4]
 339              	.LVL53:
 340 005e B8F90440 		ldrsh	r4, [r8, #4]
 341 0062 04FB0355 		mla	r5, r4, r3, r5
 342              	.LVL54:
 274:..\..\..\liblc3\src/ltpf.c ****             un += *(xn++) * *(hn++);
 343              		.loc 1 274 0
 344 0066 B7F90630 		ldrsh	r3, [r7, #6]
 345              	.LVL55:
 346 006a B8F90640 		ldrsh	r4, [r8, #6]
 347 006e 04FB0354 		mla	r4, r4, r3, r5
 348              	.LVL56:
 275:..\..\..\liblc3\src/ltpf.c ****             un += *(xn++) * *(hn++);
 349              		.loc 1 275 0
 350 0072 B7F90830 		ldrsh	r3, [r7, #8]
 351              	.LVL57:
 352 0076 B8F90850 		ldrsh	r5, [r8, #8]
 353 007a 05FB0344 		mla	r4, r5, r3, r4
 354              	.LVL58:
 276:..\..\..\liblc3\src/ltpf.c ****             un += *(xn++) * *(hn++);
 355              		.loc 1 276 0
 356 007e B7F90A30 		ldrsh	r3, [r7, #10]
 357              	.LVL59:
 358 0082 B8F90A50 		ldrsh	r5, [r8, #10]
 359 0086 05FB0344 		mla	r4, r5, r3, r4
 360              	.LVL60:
 277:..\..\..\liblc3\src/ltpf.c ****             un += *(xn++) * *(hn++);
 361              		.loc 1 277 0
 362 008a B7F90C30 		ldrsh	r3, [r7, #12]
 363              	.LVL61:
 364 008e B8F90C50 		ldrsh	r5, [r8, #12]
 365 0092 05FB0344 		mla	r4, r5, r3, r4
 366              	.LVL62:
 278:..\..\..\liblc3\src/ltpf.c ****             un += *(xn++) * *(hn++);
 367              		.loc 1 278 0
 368 0096 B7F90E30 		ldrsh	r3, [r7, #14]
 369              	.LVL63:
 370 009a B8F90E50 		ldrsh	r5, [r8, #14]
 371 009e 05FB0344 		mla	r4, r5, r3, r4
 372              	.LVL64:
 279:..\..\..\liblc3\src/ltpf.c ****             un += *(xn++) * *(hn++);
ARM GAS  C:\Users\rdn\AppData\Local\Temp\cc5zc0m9.s 			page 15


 373              		.loc 1 279 0
 374 00a2 B7F91030 		ldrsh	r3, [r7, #16]
 375              	.LVL65:
 376 00a6 B8F91050 		ldrsh	r5, [r8, #16]
 377 00aa 05FB0344 		mla	r4, r5, r3, r4
 378              	.LVL66:
 280:..\..\..\liblc3\src/ltpf.c ****             un += *(xn++) * *(hn++);
 379              		.loc 1 280 0
 380 00ae B7F91230 		ldrsh	r3, [r7, #18]
 381              	.LVL67:
 382 00b2 B8F91250 		ldrsh	r5, [r8, #18]
 383 00b6 05FB0344 		mla	r4, r5, r3, r4
 384              	.LVL68:
 281:..\..\..\liblc3\src/ltpf.c ****             un += *(xn++) * *(hn++);
 385              		.loc 1 281 0
 386 00ba B7F91430 		ldrsh	r3, [r7, #20]
 387              	.LVL69:
 388 00be B8F91450 		ldrsh	r5, [r8, #20]
 389 00c2 05FB0344 		mla	r4, r5, r3, r4
 390              	.LVL70:
 282:..\..\..\liblc3\src/ltpf.c ****             un += *(xn++) * *(hn++);
 391              		.loc 1 282 0
 392 00c6 B7F91630 		ldrsh	r3, [r7, #22]
 393              	.LVL71:
 394 00ca B8F91650 		ldrsh	r5, [r8, #22]
 395 00ce 05FB0344 		mla	r4, r5, r3, r4
 396              	.LVL72:
 283:..\..\..\liblc3\src/ltpf.c ****             un += *(xn++) * *(hn++);
 397              		.loc 1 283 0
 398 00d2 B7F91830 		ldrsh	r3, [r7, #24]
 399              	.LVL73:
 400 00d6 B8F91850 		ldrsh	r5, [r8, #24]
 401 00da 05FB0345 		mla	r5, r5, r3, r4
 402              	.LVL74:
 284:..\..\..\liblc3\src/ltpf.c ****             un += *(xn++) * *(hn++);
 403              		.loc 1 284 0
 404 00de B7F91A30 		ldrsh	r3, [r7, #26]
 405              	.LVL75:
 406 00e2 B8F91A40 		ldrsh	r4, [r8, #26]
 407 00e6 04FB0354 		mla	r4, r4, r3, r5
 408              	.LVL76:
 285:..\..\..\liblc3\src/ltpf.c ****         }
 409              		.loc 1 285 0
 410 00ea B7F91C30 		ldrsh	r3, [r7, #28]
 411              	.LVL77:
 412 00ee B8F91C50 		ldrsh	r5, [r8, #28]
 413 00f2 05FB0345 		mla	r5, r5, r3, r4
 414              	.LVL78:
 270:..\..\..\liblc3\src/ltpf.c ****             un += *(xn++) * *(hn++);
 415              		.loc 1 270 0
 416 00f6 09F10F09 		add	r9, r9, #15
 417              	.LVL79:
 285:..\..\..\liblc3\src/ltpf.c ****         }
 418              		.loc 1 285 0
 419 00fa 1E37     		adds	r7, r7, #30
 420              	.LVL80:
 421 00fc 08F11E08 		add	r8, r8, #30
ARM GAS  C:\Users\rdn\AppData\Local\Temp\cc5zc0m9.s 			page 16


 422              	.LVL81:
 423              	.L14:
 270:..\..\..\liblc3\src/ltpf.c ****             un += *(xn++) * *(hn++);
 424              		.loc 1 270 0
 425 0100 B9F1770F 		cmp	r9, #119
 426 0104 9DDD     		ble	.L15
 427              	.LVL82:
 428              	.LBE99:
 429              	.LBB100:
 430              	.LBB101:
 192:..\..\..\liblc3\src/ltpf.c ****     hp50->s1 = (hp50->s2 + (int64_t)xn * b1 - (int64_t)yn * a1);
 431              		.loc 1 192 0
 432 0106 D0E90089 		ldrd	r8, [r0]
 433              	.LVL83:
 434 010a EF17     		asrs	r7, r5, #31
 435              	.LVL84:
 436 010c 224B     		ldr	r3, .L18+8
 437 010e A5FB03AB 		umull	r10, fp, r5, r3
 438 0112 03FB07BB 		mla	fp, r3, r7, fp
 439 0116 18EB0A08 		adds	r8, r8, r10
 440 011a 49EB0B09 		adc	r9, r9, fp
 441              	.LVL85:
 442 011e 4FEA9873 		lsr	r3, r8, #30
 443 0122 43EA8903 		orr	r3, r3, r9, lsl #2
 444              	.LVL86:
 193:..\..\..\liblc3\src/ltpf.c ****     hp50->s2 = (           (int64_t)xn * b2 - (int64_t)yn * a2);
 445              		.loc 1 193 0
 446 0126 D0E90289 		ldrd	r8, [r0, #8]
 447 012a 1C4C     		ldr	r4, .L18+12
 448 012c 6E42     		negs	r6, r5
 449 012e 04FB0766 		mla	r6, r4, r7, r6
 450 0132 A5FB0445 		umull	r4, r5, r5, r4
 451 0136 3544     		add	r5, r5, r6
 452              	.LVL87:
 453 0138 18EB0408 		adds	r8, r8, r4
 454 013c 49EB0509 		adc	r9, r9, r5
 455 0140 DF17     		asrs	r7, r3, #31
 456 0142 174E     		ldr	r6, .L18+16
 457 0144 A3FB0645 		umull	r4, r5, r3, r6
 458 0148 06FB0755 		mla	r5, r6, r7, r5
 459 014c 14EB0804 		adds	r4, r4, r8
 460 0150 45EB0905 		adc	r5, r5, r9
 461 0154 C0E90045 		strd	r4, [r0]
 194:..\..\..\liblc3\src/ltpf.c **** 
 462              		.loc 1 194 0
 463 0158 124C     		ldr	r4, .L18+20
 464 015a 5E42     		negs	r6, r3
 465 015c 04FB0766 		mla	r6, r4, r7, r6
 466 0160 A3FB0445 		umull	r4, r5, r3, r4
 467 0164 3544     		add	r5, r5, r6
 468 0166 14EB0A04 		adds	r4, r4, r10
 469 016a 45EB0B05 		adc	r5, r5, fp
 470 016e C0E90245 		strd	r4, [r0, #8]
 471              	.LVL88:
 472              	.LBE101:
 473              	.LBE100:
 289:..\..\..\liblc3\src/ltpf.c ****     }
ARM GAS  C:\Users\rdn\AppData\Local\Temp\cc5zc0m9.s 			page 17


 474              		.loc 1 289 0
 475 0172 03F50043 		add	r3, r3, #32768
 476 0176 1B14     		asrs	r3, r3, #16
 477 0178 1380     		strh	r3, [r2]	@ movhi
 478              	.LBE97:
 265:..\..\..\liblc3\src/ltpf.c ****         const int16_t *hn = h + (i % p) * w;
 479              		.loc 1 265 0
 480 017a 0F31     		adds	r1, r1, #15
 481              	.LVL89:
 482              	.LBB102:
 289:..\..\..\liblc3\src/ltpf.c ****     }
 483              		.loc 1 289 0
 484 017c 0232     		adds	r2, r2, #2
 485              	.LVL90:
 486              	.L12:
 487              	.LBE102:
 265:..\..\..\liblc3\src/ltpf.c ****         const int16_t *hn = h + (i % p) * w;
 488              		.loc 1 265 0
 489 017e CEEB0E13 		rsb	r3, lr, lr, lsl #4
 490 0182 9942     		cmp	r1, r3
 491 0184 FFF645AF 		blt	.L16
 492              	.LBE96:
 493              	.LBE95:
 494              	.LBE94:
 386:..\..\..\liblc3\src/ltpf.c ****     resample_x192k_12k8(2, h_96k_12k8_q15, hp50, x, y, n);
 387:..\..\..\liblc3\src/ltpf.c **** }
 495              		.loc 1 387 0
 496 0188 03B0     		add	sp, sp, #12
 497              		.cfi_def_cfa_offset 36
 498              		@ sp needed
 499 018a BDE8F08F 		pop	{r4, r5, r6, r7, r8, r9, r10, fp, pc}
 500              	.LVL91:
 501              	.L19:
 502 018e 00BF     		.align	2
 503              	.L18:
 504 0190 01000080 		.word	-2147483647
 505 0194 A0000000 		.word	.LANCHOR0+160
 506 0198 C61BE63E 		.word	1055267782
 507 019c 72C83382 		.word	-2110535566
 508 01a0 DB5DC77D 		.word	2110217691
 509 01a4 BFEE2EC2 		.word	-1037111617
 510              		.cfi_endproc
 511              	.LFE28:
 512              		.size	resample_96k_12k8, .-resample_96k_12k8
 513              		.section	.text.resample_6k4,"ax",%progbits
 514              		.align	2
 515              		.thumb
 516              		.thumb_func
 517              		.type	resample_6k4, %function
 518              	resample_6k4:
 519              	.LFB29:
 388:..\..\..\liblc3\src/ltpf.c **** #endif /* resample_96k_12k8 */
 389:..\..\..\liblc3\src/ltpf.c **** 
 390:..\..\..\liblc3\src/ltpf.c **** /**
 391:..\..\..\liblc3\src/ltpf.c **** * Resample to 6.4 KHz
 392:..\..\..\liblc3\src/ltpf.c **** * x               [-3..-1] Previous, [0..n-1] Current samples
 393:..\..\..\liblc3\src/ltpf.c **** * y, n            [0..n-1] Output `n` processed samples
ARM GAS  C:\Users\rdn\AppData\Local\Temp\cc5zc0m9.s 			page 18


 394:..\..\..\liblc3\src/ltpf.c **** *
 395:..\..\..\liblc3\src/ltpf.c **** * The `x` vector is aligned on 32 bits
 396:..\..\..\liblc3\src/ltpf.c ****  */
 397:..\..\..\liblc3\src/ltpf.c **** #ifndef resample_6k4
 398:..\..\..\liblc3\src/ltpf.c **** LC3_HOT static void resample_6k4(const int16_t *x, int16_t *y, int n)
 399:..\..\..\liblc3\src/ltpf.c **** {
 520              		.loc 1 399 0
 521              		.cfi_startproc
 522              		@ args = 0, pretend = 0, frame = 0
 523              		@ frame_needed = 0, uses_anonymous_args = 0
 524              		@ link register save eliminated.
 525              	.LVL92:
 526 0000 70B4     		push	{r4, r5, r6}
 527              		.cfi_def_cfa_offset 12
 528              		.cfi_offset 4, -12
 529              		.cfi_offset 5, -8
 530              		.cfi_offset 6, -4
 400:..\..\..\liblc3\src/ltpf.c ****     static const int16_t h[] = { 18477, 15424, 8105 };
 401:..\..\..\liblc3\src/ltpf.c ****     const int16_t *ye = y + n;
 531              		.loc 1 401 0
 532 0002 01EB4202 		add	r2, r1, r2, lsl #1
 533              	.LVL93:
 402:..\..\..\liblc3\src/ltpf.c **** 
 403:..\..\..\liblc3\src/ltpf.c ****     for (x--; y < ye; x += 2)
 534              		.loc 1 403 0
 535 0006 0238     		subs	r0, r0, #2
 536              	.LVL94:
 537 0008 1AE0     		b	.L21
 538              	.L22:
 539              	.LVL95:
 404:..\..\..\liblc3\src/ltpf.c ****         *(y++) = (x[0] * h[0] + (x[-1] + x[1]) * h[1]
 540              		.loc 1 404 0 discriminator 3
 541 000a B0F90040 		ldrsh	r4, [r0]
 542 000e 30F9025C 		ldrsh	r5, [r0, #-2]
 543 0012 B0F90230 		ldrsh	r3, [r0, #2]
 544 0016 2B44     		add	r3, r3, r5
 545 0018 4FF47156 		mov	r6, #15424
 546 001c 06FB03F3 		mul	r3, r6, r3
 547 0020 44F62D05 		movw	r5, #18477
 548 0024 05FB0435 		mla	r5, r5, r4, r3
 405:..\..\..\liblc3\src/ltpf.c ****                               + (x[-2] + x[2]) * h[2]) >> 16;
 549              		.loc 1 405 0 discriminator 3
 550 0028 30F9043C 		ldrsh	r3, [r0, #-4]
 551 002c 30F9044F 		ldrsh	r4, [r0, #4]!
 552              	.LVL96:
 553 0030 1C44     		add	r4, r4, r3
 554 0032 41F6A973 		movw	r3, #8105
 555 0036 03FB0453 		mla	r3, r3, r4, r5
 556 003a 1B14     		asrs	r3, r3, #16
 404:..\..\..\liblc3\src/ltpf.c ****         *(y++) = (x[0] * h[0] + (x[-1] + x[1]) * h[1]
 557              		.loc 1 404 0 discriminator 3
 558 003c 0B80     		strh	r3, [r1]	@ movhi
 559              	.LVL97:
 560 003e 0231     		adds	r1, r1, #2
 561              	.LVL98:
 562              	.L21:
 403:..\..\..\liblc3\src/ltpf.c ****         *(y++) = (x[0] * h[0] + (x[-1] + x[1]) * h[1]
ARM GAS  C:\Users\rdn\AppData\Local\Temp\cc5zc0m9.s 			page 19


 563              		.loc 1 403 0 discriminator 1
 564 0040 9142     		cmp	r1, r2
 565 0042 E2D3     		bcc	.L22
 406:..\..\..\liblc3\src/ltpf.c **** }
 566              		.loc 1 406 0
 567 0044 70BC     		pop	{r4, r5, r6}
 568              		.cfi_restore 6
 569              		.cfi_restore 5
 570              		.cfi_restore 4
 571              		.cfi_def_cfa_offset 0
 572 0046 7047     		bx	lr
 573              		.cfi_endproc
 574              	.LFE29:
 575              		.size	resample_6k4, .-resample_6k4
 576              		.section	.text.correlate,"ax",%progbits
 577              		.align	2
 578              		.thumb
 579              		.thumb_func
 580              		.type	correlate, %function
 581              	correlate:
 582              	.LFB31:
 407:..\..\..\liblc3\src/ltpf.c **** #endif /* resample_6k4 */
 408:..\..\..\liblc3\src/ltpf.c **** 
 409:..\..\..\liblc3\src/ltpf.c **** /**
 410:..\..\..\liblc3\src/ltpf.c ****  * LTPF Resample to 12.8 KHz implementations for each samplerates
 411:..\..\..\liblc3\src/ltpf.c ****  */
 412:..\..\..\liblc3\src/ltpf.c **** 
 413:..\..\..\liblc3\src/ltpf.c **** static void (* const resample_12k8[])
 414:..\..\..\liblc3\src/ltpf.c ****     (struct lc3_ltpf_hp50_state *, const int16_t *, int16_t *, int ) =
 415:..\..\..\liblc3\src/ltpf.c **** {
 416:..\..\..\liblc3\src/ltpf.c ****     [LC3_SRATE_8K    ] = resample_8k_12k8,
 417:..\..\..\liblc3\src/ltpf.c ****     [LC3_SRATE_16K   ] = resample_16k_12k8,
 418:..\..\..\liblc3\src/ltpf.c ****     [LC3_SRATE_24K   ] = resample_24k_12k8,
 419:..\..\..\liblc3\src/ltpf.c ****     [LC3_SRATE_32K   ] = resample_32k_12k8,
 420:..\..\..\liblc3\src/ltpf.c ****     [LC3_SRATE_48K   ] = resample_48k_12k8,
 421:..\..\..\liblc3\src/ltpf.c ****     [LC3_SRATE_48K_HR] = resample_48k_12k8,
 422:..\..\..\liblc3\src/ltpf.c ****     [LC3_SRATE_96K_HR] = resample_96k_12k8,
 423:..\..\..\liblc3\src/ltpf.c **** };
 424:..\..\..\liblc3\src/ltpf.c **** 
 425:..\..\..\liblc3\src/ltpf.c **** 
 426:..\..\..\liblc3\src/ltpf.c **** /* ----------------------------------------------------------------------------
 427:..\..\..\liblc3\src/ltpf.c ****  *  Analysis
 428:..\..\..\liblc3\src/ltpf.c ****  * -------------------------------------------------------------------------- */
 429:..\..\..\liblc3\src/ltpf.c **** 
 430:..\..\..\liblc3\src/ltpf.c **** /**
 431:..\..\..\liblc3\src/ltpf.c ****  * Return dot product of 2 vectors
 432:..\..\..\liblc3\src/ltpf.c ****  * a, b, n         The 2 vectors of size `n` (> 0 and <= 128)
 433:..\..\..\liblc3\src/ltpf.c ****  * return          sum( a[i] * b[i] ), i = [0..n-1]
 434:..\..\..\liblc3\src/ltpf.c ****  *
 435:..\..\..\liblc3\src/ltpf.c ****  * The size `n` of vectors must be multiple of 16, and less or equal to 128
 436:..\..\..\liblc3\src/ltpf.c **** */
 437:..\..\..\liblc3\src/ltpf.c **** #ifndef dot
 438:..\..\..\liblc3\src/ltpf.c **** LC3_HOT static inline float dot(const int16_t *a, const int16_t *b, int n)
 439:..\..\..\liblc3\src/ltpf.c **** {
 440:..\..\..\liblc3\src/ltpf.c ****     int64_t v = 0;
 441:..\..\..\liblc3\src/ltpf.c **** 
 442:..\..\..\liblc3\src/ltpf.c ****     for (int i = 0; i < (n >> 4); i++)
ARM GAS  C:\Users\rdn\AppData\Local\Temp\cc5zc0m9.s 			page 20


 443:..\..\..\liblc3\src/ltpf.c ****         for (int j = 0; j < 16; j++)
 444:..\..\..\liblc3\src/ltpf.c ****             v += *(a++) * *(b++);
 445:..\..\..\liblc3\src/ltpf.c **** 
 446:..\..\..\liblc3\src/ltpf.c ****     int32_t v32 = (v + (1 << 5)) >> 6;
 447:..\..\..\liblc3\src/ltpf.c ****     return (float)v32;
 448:..\..\..\liblc3\src/ltpf.c **** }
 449:..\..\..\liblc3\src/ltpf.c **** #endif /* dot */
 450:..\..\..\liblc3\src/ltpf.c **** 
 451:..\..\..\liblc3\src/ltpf.c **** /**
 452:..\..\..\liblc3\src/ltpf.c ****  * Return vector of correlations
 453:..\..\..\liblc3\src/ltpf.c ****  * a, b, n         The 2 vector of size `n` (> 0 and <= 128)
 454:..\..\..\liblc3\src/ltpf.c ****  * y, nc           Output the correlation vector of size `nc`
 455:..\..\..\liblc3\src/ltpf.c ****  *
 456:..\..\..\liblc3\src/ltpf.c ****  * The first vector `a` is aligned of 32 bits
 457:..\..\..\liblc3\src/ltpf.c ****  * The size `n` of vectors is multiple of 16, and less or equal to 128
 458:..\..\..\liblc3\src/ltpf.c ****  */
 459:..\..\..\liblc3\src/ltpf.c **** #ifndef correlate
 460:..\..\..\liblc3\src/ltpf.c **** LC3_HOT static void correlate(
 461:..\..\..\liblc3\src/ltpf.c ****     const int16_t *a, const int16_t *b, int n, float *y, int nc)
 462:..\..\..\liblc3\src/ltpf.c **** {
 583              		.loc 1 462 0
 584              		.cfi_startproc
 585              		@ args = 4, pretend = 0, frame = 0
 586              		@ frame_needed = 0, uses_anonymous_args = 0
 587              	.LVL99:
 588 0000 2DE9F04F 		push	{r4, r5, r6, r7, r8, r9, r10, fp, lr}
 589              		.cfi_def_cfa_offset 36
 590              		.cfi_offset 4, -36
 591              		.cfi_offset 5, -32
 592              		.cfi_offset 6, -28
 593              		.cfi_offset 7, -24
 594              		.cfi_offset 8, -20
 595              		.cfi_offset 9, -16
 596              		.cfi_offset 10, -12
 597              		.cfi_offset 11, -8
 598              		.cfi_offset 14, -4
 599              	.LBB103:
 463:..\..\..\liblc3\src/ltpf.c ****     for (const float *ye = y + nc; y < ye; )
 600              		.loc 1 463 0
 601 0004 099C     		ldr	r4, [sp, #36]
 602 0006 03EB8408 		add	r8, r3, r4, lsl #2
 603              	.LVL100:
 604 000a 2DE0     		b	.L25
 605              	.L29:
 464:..\..\..\liblc3\src/ltpf.c ****         *(y++) = dot(a, b--, n);
 606              		.loc 1 464 0
 607 000c 03F1040C 		add	ip, r3, #4
 608              	.LVL101:
 609 0010 A1F1020E 		sub	lr, r1, #2
 610              	.LVL102:
 611 0014 8146     		mov	r9, r0
 612              	.LBB104:
 613              	.LBB105:
 614              	.LBB106:
 442:..\..\..\liblc3\src/ltpf.c ****         for (int j = 0; j < 16; j++)
 615              		.loc 1 442 0
 616 0016 4FF0000A 		mov	r10, #0
ARM GAS  C:\Users\rdn\AppData\Local\Temp\cc5zc0m9.s 			page 21


 617              	.LBE106:
 440:..\..\..\liblc3\src/ltpf.c **** 
 618              		.loc 1 440 0
 619 001a 0026     		movs	r6, #0
 620 001c 0027     		movs	r7, #0
 621 001e 12E0     		b	.L26
 622              	.LVL103:
 623              	.L27:
 624              	.LBB109:
 625              	.LBB107:
 444:..\..\..\liblc3\src/ltpf.c **** 
 626              		.loc 1 444 0
 627 0020 B9F900B0 		ldrsh	fp, [r9]
 628              	.LVL104:
 629 0024 B1F90040 		ldrsh	r4, [r1]
 630 0028 04FB0BF4 		mul	r4, r4, fp
 631 002c 3619     		adds	r6, r6, r4
 632              	.LVL105:
 633 002e 47EBE477 		adc	r7, r7, r4, asr #31
 634              	.LVL106:
 443:..\..\..\liblc3\src/ltpf.c ****             v += *(a++) * *(b++);
 635              		.loc 1 443 0
 636 0032 0135     		adds	r5, r5, #1
 637              	.LVL107:
 444:..\..\..\liblc3\src/ltpf.c **** 
 638              		.loc 1 444 0
 639 0034 0231     		adds	r1, r1, #2
 640              	.LVL108:
 641 0036 09F10209 		add	r9, r9, #2
 642              	.LVL109:
 643 003a 00E0     		b	.L28
 644              	.LVL110:
 645              	.L30:
 646              	.LBE107:
 442:..\..\..\liblc3\src/ltpf.c ****         for (int j = 0; j < 16; j++)
 647              		.loc 1 442 0
 648 003c 0025     		movs	r5, #0
 649              	.L28:
 650              	.LVL111:
 651              	.LBB108:
 443:..\..\..\liblc3\src/ltpf.c ****             v += *(a++) * *(b++);
 652              		.loc 1 443 0
 653 003e 0F2D     		cmp	r5, #15
 654 0040 EEDD     		ble	.L27
 655              	.LBE108:
 442:..\..\..\liblc3\src/ltpf.c ****         for (int j = 0; j < 16; j++)
 656              		.loc 1 442 0
 657 0042 0AF1010A 		add	r10, r10, #1
 658              	.LVL112:
 659              	.L26:
 660 0046 BAEB221F 		cmp	r10, r2, asr #4
 661 004a F7DB     		blt	.L30
 662              	.LBE109:
 446:..\..\..\liblc3\src/ltpf.c ****     return (float)v32;
 663              		.loc 1 446 0
 664 004c 2036     		adds	r6, r6, #32
 665              	.LVL113:
ARM GAS  C:\Users\rdn\AppData\Local\Temp\cc5zc0m9.s 			page 22


 666 004e 47F10007 		adc	r7, r7, #0
 667 0052 B109     		lsrs	r1, r6, #6
 668              	.LVL114:
 669 0054 41EA8761 		orr	r1, r1, r7, lsl #26
 670              	.LVL115:
 447:..\..\..\liblc3\src/ltpf.c **** }
 671              		.loc 1 447 0
 672 0058 07EE901A 		vmov	s15, r1	@ int
 673 005c F8EEE77A 		vcvt.f32.s32	s15, s15
 674              	.LVL116:
 675              	.LBE105:
 676              	.LBE104:
 677              		.loc 1 464 0
 678 0060 C3ED007A 		vstr.32	s15, [r3]
 679 0064 6346     		mov	r3, ip
 680 0066 7146     		mov	r1, lr
 681              	.LVL117:
 682              	.L25:
 463:..\..\..\liblc3\src/ltpf.c ****         *(y++) = dot(a, b--, n);
 683              		.loc 1 463 0 discriminator 1
 684 0068 4345     		cmp	r3, r8
 685 006a CFD3     		bcc	.L29
 686              	.LBE103:
 465:..\..\..\liblc3\src/ltpf.c **** }
 687              		.loc 1 465 0
 688 006c BDE8F08F 		pop	{r4, r5, r6, r7, r8, r9, r10, fp, pc}
 689              		.cfi_endproc
 690              	.LFE31:
 691              		.size	correlate, .-correlate
 692              		.section	.text.argmax,"ax",%progbits
 693              		.align	2
 694              		.thumb
 695              		.thumb_func
 696              		.type	argmax, %function
 697              	argmax:
 698              	.LFB32:
 466:..\..\..\liblc3\src/ltpf.c **** #endif /* correlate */
 467:..\..\..\liblc3\src/ltpf.c **** 
 468:..\..\..\liblc3\src/ltpf.c **** /**
 469:..\..\..\liblc3\src/ltpf.c ****  * Search the maximum value and returns its argument
 470:..\..\..\liblc3\src/ltpf.c ****  * x, n            The input vector of size `n`
 471:..\..\..\liblc3\src/ltpf.c ****  * x_max           Return the maximum value
 472:..\..\..\liblc3\src/ltpf.c ****  * return          Return the argument of the maximum
 473:..\..\..\liblc3\src/ltpf.c ****  */
 474:..\..\..\liblc3\src/ltpf.c **** LC3_HOT static int argmax(const float *x, int n, float *x_max)
 475:..\..\..\liblc3\src/ltpf.c **** {
 699              		.loc 1 475 0
 700              		.cfi_startproc
 701              		@ args = 0, pretend = 0, frame = 0
 702              		@ frame_needed = 0, uses_anonymous_args = 0
 703              		@ link register save eliminated.
 704              	.LVL118:
 705 0000 30B4     		push	{r4, r5}
 706              		.cfi_def_cfa_offset 8
 707              		.cfi_offset 4, -8
 708              		.cfi_offset 5, -4
 709              	.LVL119:
ARM GAS  C:\Users\rdn\AppData\Local\Temp\cc5zc0m9.s 			page 23


 476:..\..\..\liblc3\src/ltpf.c ****     int arg = 0;
 477:..\..\..\liblc3\src/ltpf.c **** 
 478:..\..\..\liblc3\src/ltpf.c ****     *x_max = x[arg = 0];
 710              		.loc 1 478 0
 711 0002 0368     		ldr	r3, [r0]	@ float
 712 0004 1360     		str	r3, [r2]	@ float
 713              	.LVL120:
 714              	.LBB110:
 479:..\..\..\liblc3\src/ltpf.c ****     for (int i = 1; i < n; i++)
 715              		.loc 1 479 0
 716 0006 0123     		movs	r3, #1
 717              	.LBE110:
 478:..\..\..\liblc3\src/ltpf.c ****     for (int i = 1; i < n; i++)
 718              		.loc 1 478 0
 719 0008 0025     		movs	r5, #0
 720              	.LBB111:
 721              		.loc 1 479 0
 722 000a 0EE0     		b	.L33
 723              	.LVL121:
 724              	.L36:
 480:..\..\..\liblc3\src/ltpf.c ****         if (*x_max < x[i])
 725              		.loc 1 480 0
 726 000c 92ED007A 		vldr.32	s14, [r2]
 727 0010 00EB8304 		add	r4, r0, r3, lsl #2
 728 0014 D4ED007A 		vldr.32	s15, [r4]
 729 0018 B4EEE77A 		vcmpe.f32	s14, s15
 730 001c F1EE10FA 		vmrs	APSR_nzcv, FPSCR
 731 0020 02D5     		bpl	.L34
 732              	.LVL122:
 481:..\..\..\liblc3\src/ltpf.c ****             *x_max = x[arg = i];
 733              		.loc 1 481 0
 734 0022 C2ED007A 		vstr.32	s15, [r2]
 735 0026 1D46     		mov	r5, r3
 736              	.LVL123:
 737              	.L34:
 479:..\..\..\liblc3\src/ltpf.c ****         if (*x_max < x[i])
 738              		.loc 1 479 0 discriminator 2
 739 0028 0133     		adds	r3, r3, #1
 740              	.LVL124:
 741              	.L33:
 479:..\..\..\liblc3\src/ltpf.c ****         if (*x_max < x[i])
 742              		.loc 1 479 0 is_stmt 0 discriminator 1
 743 002a 8B42     		cmp	r3, r1
 744 002c EEDB     		blt	.L36
 745              	.LBE111:
 482:..\..\..\liblc3\src/ltpf.c **** 
 483:..\..\..\liblc3\src/ltpf.c ****     return arg;
 484:..\..\..\liblc3\src/ltpf.c **** }
 746              		.loc 1 484 0 is_stmt 1
 747 002e 2846     		mov	r0, r5
 748              	.LVL125:
 749 0030 30BC     		pop	{r4, r5}
 750              		.cfi_restore 5
 751              		.cfi_restore 4
 752              		.cfi_def_cfa_offset 0
 753              	.LVL126:
 754 0032 7047     		bx	lr
ARM GAS  C:\Users\rdn\AppData\Local\Temp\cc5zc0m9.s 			page 24


 755              		.cfi_endproc
 756              	.LFE32:
 757              		.size	argmax, .-argmax
 758              		.section	.text.argmax_weighted,"ax",%progbits
 759              		.align	2
 760              		.thumb
 761              		.thumb_func
 762              		.type	argmax_weighted, %function
 763              	argmax_weighted:
 764              	.LFB33:
 485:..\..\..\liblc3\src/ltpf.c **** 
 486:..\..\..\liblc3\src/ltpf.c **** /**
 487:..\..\..\liblc3\src/ltpf.c ****  * Search the maximum weithed value and returns its argument
 488:..\..\..\liblc3\src/ltpf.c ****  * x, n            The input vector of size `n`
 489:..\..\..\liblc3\src/ltpf.c ****  * w_incr          Increment of the weight
 490:..\..\..\liblc3\src/ltpf.c ****  * x_max, xw_max   Return the maximum not weighted value
 491:..\..\..\liblc3\src/ltpf.c ****  * return          Return the argument of the weigthed maximum
 492:..\..\..\liblc3\src/ltpf.c ****  */
 493:..\..\..\liblc3\src/ltpf.c **** LC3_HOT static int argmax_weighted(
 494:..\..\..\liblc3\src/ltpf.c ****     const float *x, int n, float w_incr, float *x_max)
 495:..\..\..\liblc3\src/ltpf.c **** {
 765              		.loc 1 495 0
 766              		.cfi_startproc
 767              		@ args = 0, pretend = 0, frame = 0
 768              		@ frame_needed = 0, uses_anonymous_args = 0
 769              		@ link register save eliminated.
 770              	.LVL127:
 771 0000 30B4     		push	{r4, r5}
 772              		.cfi_def_cfa_offset 8
 773              		.cfi_offset 4, -8
 774              		.cfi_offset 5, -4
 775              	.LVL128:
 496:..\..\..\liblc3\src/ltpf.c ****     int arg;
 497:..\..\..\liblc3\src/ltpf.c **** 
 498:..\..\..\liblc3\src/ltpf.c ****     float xw_max = (*x_max = x[arg = 0]);
 776              		.loc 1 498 0
 777 0002 90ED006A 		vldr.32	s12, [r0]
 778 0006 82ED006A 		vstr.32	s12, [r2]
 779              	.LVL129:
 499:..\..\..\liblc3\src/ltpf.c ****     float w = 1 + w_incr;
 780              		.loc 1 499 0
 781 000a F7EE007A 		vmov.f32	s15, #1.0e+0
 782 000e 70EE277A 		vadd.f32	s15, s0, s15
 783              	.LVL130:
 784              	.LBB112:
 500:..\..\..\liblc3\src/ltpf.c **** 
 501:..\..\..\liblc3\src/ltpf.c ****     for (int i = 1; i < n; i++, w += w_incr)
 785              		.loc 1 501 0
 786 0012 0123     		movs	r3, #1
 787              	.LBE112:
 498:..\..\..\liblc3\src/ltpf.c ****     float w = 1 + w_incr;
 788              		.loc 1 498 0
 789 0014 0025     		movs	r5, #0
 790              	.LBB113:
 791              		.loc 1 501 0
 792 0016 12E0     		b	.L40
 793              	.LVL131:
ARM GAS  C:\Users\rdn\AppData\Local\Temp\cc5zc0m9.s 			page 25


 794              	.L43:
 502:..\..\..\liblc3\src/ltpf.c ****         if (xw_max < x[i] * w)
 795              		.loc 1 502 0
 796 0018 00EB8304 		add	r4, r0, r3, lsl #2
 797 001c D4ED006A 		vldr.32	s13, [r4]
 798 0020 27EEA67A 		vmul.f32	s14, s15, s13
 799 0024 B4EEC76A 		vcmpe.f32	s12, s14
 800 0028 F1EE10FA 		vmrs	APSR_nzcv, FPSCR
 801 002c 04D5     		bpl	.L41
 802              	.LVL132:
 503:..\..\..\liblc3\src/ltpf.c ****             xw_max = (*x_max = x[arg = i]) * w;
 803              		.loc 1 503 0
 804 002e C2ED006A 		vstr.32	s13, [r2]
 805              	.LVL133:
 806 0032 B0EE476A 		vmov.f32	s12, s14
 807 0036 1D46     		mov	r5, r3
 808              	.LVL134:
 809              	.L41:
 501:..\..\..\liblc3\src/ltpf.c ****         if (xw_max < x[i] * w)
 810              		.loc 1 501 0 discriminator 2
 811 0038 0133     		adds	r3, r3, #1
 812              	.LVL135:
 813 003a 77EE807A 		vadd.f32	s15, s15, s0
 814              	.LVL136:
 815              	.L40:
 501:..\..\..\liblc3\src/ltpf.c ****         if (xw_max < x[i] * w)
 816              		.loc 1 501 0 is_stmt 0 discriminator 1
 817 003e 8B42     		cmp	r3, r1
 818 0040 EADB     		blt	.L43
 819              	.LBE113:
 504:..\..\..\liblc3\src/ltpf.c **** 
 505:..\..\..\liblc3\src/ltpf.c ****     return arg;
 506:..\..\..\liblc3\src/ltpf.c **** }
 820              		.loc 1 506 0 is_stmt 1
 821 0042 2846     		mov	r0, r5
 822              	.LVL137:
 823 0044 30BC     		pop	{r4, r5}
 824              		.cfi_restore 5
 825              		.cfi_restore 4
 826              		.cfi_def_cfa_offset 0
 827              	.LVL138:
 828 0046 7047     		bx	lr
 829              		.cfi_endproc
 830              	.LFE33:
 831              		.size	argmax_weighted, .-argmax_weighted
 832              		.section	.text.interpolate,"ax",%progbits
 833              		.align	2
 834              		.thumb
 835              		.thumb_func
 836              		.type	interpolate, %function
 837              	interpolate:
 838              	.LFB34:
 507:..\..\..\liblc3\src/ltpf.c **** 
 508:..\..\..\liblc3\src/ltpf.c **** /**
 509:..\..\..\liblc3\src/ltpf.c ****  * Interpolate from pitch detected value
 510:..\..\..\liblc3\src/ltpf.c ****  * x, n            [-2..-1] Previous, [0..n] Current input
 511:..\..\..\liblc3\src/ltpf.c ****  * d               The phase of interpolation (0 to 3)
ARM GAS  C:\Users\rdn\AppData\Local\Temp\cc5zc0m9.s 			page 26


 512:..\..\..\liblc3\src/ltpf.c ****  * return          The interpolated vector
 513:..\..\..\liblc3\src/ltpf.c ****  *
 514:..\..\..\liblc3\src/ltpf.c ****  * The size `n` of vectors must be multiple of 4
 515:..\..\..\liblc3\src/ltpf.c ****  */
 516:..\..\..\liblc3\src/ltpf.c **** LC3_HOT static void interpolate(const int16_t *x, int n, int d, int16_t *y)
 517:..\..\..\liblc3\src/ltpf.c **** {
 839              		.loc 1 517 0
 840              		.cfi_startproc
 841              		@ args = 0, pretend = 0, frame = 0
 842              		@ frame_needed = 0, uses_anonymous_args = 0
 843              	.LVL139:
 844 0000 2DE9F041 		push	{r4, r5, r6, r7, r8, lr}
 845              		.cfi_def_cfa_offset 24
 846              		.cfi_offset 4, -24
 847              		.cfi_offset 5, -20
 848              		.cfi_offset 6, -16
 849              		.cfi_offset 7, -12
 850              		.cfi_offset 8, -8
 851              		.cfi_offset 14, -4
 518:..\..\..\liblc3\src/ltpf.c ****     static const int16_t h4_q15[][4] = {
 519:..\..\..\liblc3\src/ltpf.c ****         { 6877, 19121,  6877,     0 }, { 3506, 18025, 11000,   220 },
 520:..\..\..\liblc3\src/ltpf.c ****         { 1300, 15048, 15048,  1300 }, {  220, 11000, 18025,  3506 } };
 521:..\..\..\liblc3\src/ltpf.c **** 
 522:..\..\..\liblc3\src/ltpf.c ****     const int16_t *h = h4_q15[d];
 852              		.loc 1 522 0
 853 0004 324C     		ldr	r4, .L50
 854 0006 04EBC202 		add	r2, r4, r2, lsl #3
 855              	.LVL140:
 523:..\..\..\liblc3\src/ltpf.c ****     int16_t x3 = x[-2], x2 = x[-1], x1, x0;
 856              		.loc 1 523 0
 857 000a 30F904EC 		ldrsh	lr, [r0, #-4]
 858              	.LVL141:
 859 000e 30F902CC 		ldrsh	ip, [r0, #-2]
 860              	.LVL142:
 524:..\..\..\liblc3\src/ltpf.c **** 
 525:..\..\..\liblc3\src/ltpf.c ****     x1 = (*x++);
 861              		.loc 1 525 0
 862 0012 841C     		adds	r4, r0, #2
 863              	.LVL143:
 864 0014 B0F90070 		ldrsh	r7, [r0]
 865              	.LVL144:
 866              	.LBB114:
 526:..\..\..\liblc3\src/ltpf.c ****     for (const int16_t *ye = y + n; y < ye; ) {
 867              		.loc 1 526 0
 868 0018 03EB4101 		add	r1, r3, r1, lsl #1
 869              	.LVL145:
 870 001c 53E0     		b	.L47
 871              	.L48:
 872              	.LVL146:
 873              	.LBB115:
 527:..\..\..\liblc3\src/ltpf.c ****         int32_t yn;
 528:..\..\..\liblc3\src/ltpf.c **** 
 529:..\..\..\liblc3\src/ltpf.c ****         yn = (x0 = *(x++)) * h[0] + x1 * h[1] + x2 * h[2] + x3 * h[3];
 874              		.loc 1 529 0
 875 001e B4F90080 		ldrsh	r8, [r4]
 876              	.LVL147:
 877 0022 B2F90000 		ldrsh	r0, [r2]
ARM GAS  C:\Users\rdn\AppData\Local\Temp\cc5zc0m9.s 			page 27


 878 0026 B2F90250 		ldrsh	r5, [r2, #2]
 879 002a 07FB05F5 		mul	r5, r7, r5
 880 002e 08FB0055 		mla	r5, r8, r0, r5
 881 0032 B2F90400 		ldrsh	r0, [r2, #4]
 882 0036 0CFB0055 		mla	r5, ip, r0, r5
 883 003a B2F90600 		ldrsh	r0, [r2, #6]
 884 003e 00FB0E5E 		mla	lr, r0, lr, r5
 885              	.LVL148:
 530:..\..\..\liblc3\src/ltpf.c ****         *(y++) = yn >> 15;
 886              		.loc 1 530 0
 887 0042 4FEAEE3E 		asr	lr, lr, #15
 888              	.LVL149:
 889 0046 A3F800E0 		strh	lr, [r3]	@ movhi
 890              	.LVL150:
 531:..\..\..\liblc3\src/ltpf.c **** 
 532:..\..\..\liblc3\src/ltpf.c ****         yn = (x3 = *(x++)) * h[0] + x0 * h[1] + x1 * h[2] + x2 * h[3];
 891              		.loc 1 532 0
 892 004a B4F902E0 		ldrsh	lr, [r4, #2]
 893              	.LVL151:
 894 004e B2F90000 		ldrsh	r0, [r2]
 895 0052 B2F90260 		ldrsh	r6, [r2, #2]
 896 0056 08FB06F6 		mul	r6, r8, r6
 897 005a 0EFB0066 		mla	r6, lr, r0, r6
 898 005e B2F90400 		ldrsh	r0, [r2, #4]
 899 0062 07FB0066 		mla	r6, r7, r0, r6
 900 0066 B2F90600 		ldrsh	r0, [r2, #6]
 901 006a 0CFB0066 		mla	r6, ip, r0, r6
 902              	.LVL152:
 533:..\..\..\liblc3\src/ltpf.c ****         *(y++) = yn >> 15;
 903              		.loc 1 533 0
 904 006e F613     		asrs	r6, r6, #15
 905              	.LVL153:
 906 0070 5E80     		strh	r6, [r3, #2]	@ movhi
 907              	.LVL154:
 534:..\..\..\liblc3\src/ltpf.c **** 
 535:..\..\..\liblc3\src/ltpf.c ****         yn = (x2 = *(x++)) * h[0] + x3 * h[1] + x0 * h[2] + x1 * h[3];
 908              		.loc 1 535 0
 909 0072 B4F904C0 		ldrsh	ip, [r4, #4]
 910              	.LVL155:
 911 0076 B2F90000 		ldrsh	r0, [r2]
 912 007a B2F90250 		ldrsh	r5, [r2, #2]
 913 007e 0EFB05F5 		mul	r5, lr, r5
 914 0082 0CFB0055 		mla	r5, ip, r0, r5
 915 0086 B2F90400 		ldrsh	r0, [r2, #4]
 916 008a 08FB0055 		mla	r5, r8, r0, r5
 917 008e B2F90660 		ldrsh	r6, [r2, #6]
 918 0092 07FB0655 		mla	r5, r7, r6, r5
 919              	.LVL156:
 536:..\..\..\liblc3\src/ltpf.c ****         *(y++) = yn >> 15;
 920              		.loc 1 536 0
 921 0096 ED13     		asrs	r5, r5, #15
 922              	.LVL157:
 923 0098 9D80     		strh	r5, [r3, #4]	@ movhi
 924              	.LVL158:
 537:..\..\..\liblc3\src/ltpf.c **** 
 538:..\..\..\liblc3\src/ltpf.c ****         yn = (x1 = *(x++)) * h[0] + x2 * h[1] + x3 * h[2] + x0 * h[3];
 925              		.loc 1 538 0
ARM GAS  C:\Users\rdn\AppData\Local\Temp\cc5zc0m9.s 			page 28


 926 009a B4F90670 		ldrsh	r7, [r4, #6]
 927              	.LVL159:
 928 009e B2F90050 		ldrsh	r5, [r2]
 929 00a2 B2F90200 		ldrsh	r0, [r2, #2]
 930 00a6 0CFB00F0 		mul	r0, ip, r0
 931 00aa 05FB0700 		mla	r0, r5, r7, r0
 932 00ae B2F90450 		ldrsh	r5, [r2, #4]
 933 00b2 0EFB0500 		mla	r0, lr, r5, r0
 934 00b6 B2F90650 		ldrsh	r5, [r2, #6]
 935 00ba 08FB0500 		mla	r0, r8, r5, r0
 936              	.LVL160:
 539:..\..\..\liblc3\src/ltpf.c ****         *(y++) = yn >> 15;
 937              		.loc 1 539 0
 938 00be C013     		asrs	r0, r0, #15
 939              	.LVL161:
 940 00c0 D880     		strh	r0, [r3, #6]	@ movhi
 941              	.LVL162:
 942 00c2 0833     		adds	r3, r3, #8
 943              	.LVL163:
 538:..\..\..\liblc3\src/ltpf.c ****         *(y++) = yn >> 15;
 944              		.loc 1 538 0
 945 00c4 0834     		adds	r4, r4, #8
 946              	.LVL164:
 947              	.L47:
 948              	.LBE115:
 526:..\..\..\liblc3\src/ltpf.c ****         int32_t yn;
 949              		.loc 1 526 0 discriminator 1
 950 00c6 8B42     		cmp	r3, r1
 951 00c8 A9D3     		bcc	.L48
 952              	.LBE114:
 540:..\..\..\liblc3\src/ltpf.c ****     }
 541:..\..\..\liblc3\src/ltpf.c **** }
 953              		.loc 1 541 0
 954 00ca BDE8F081 		pop	{r4, r5, r6, r7, r8, pc}
 955              	.LVL165:
 956              	.L51:
 957 00ce 00BF     		.align	2
 958              	.L50:
 959 00d0 80020000 		.word	.LANCHOR0+640
 960              		.cfi_endproc
 961              	.LFE34:
 962              		.size	interpolate, .-interpolate
 963              		.section	.text.interpolate_corr,"ax",%progbits
 964              		.align	2
 965              		.thumb
 966              		.thumb_func
 967              		.type	interpolate_corr, %function
 968              	interpolate_corr:
 969              	.LFB35:
 542:..\..\..\liblc3\src/ltpf.c **** 
 543:..\..\..\liblc3\src/ltpf.c **** /**
 544:..\..\..\liblc3\src/ltpf.c ****  * Interpolate autocorrelation
 545:..\..\..\liblc3\src/ltpf.c ****  * x               [-4..-1] Previous, [0..4] Current input
 546:..\..\..\liblc3\src/ltpf.c ****  * d               The phase of interpolation (-3 to 3)
 547:..\..\..\liblc3\src/ltpf.c ****  * return          The interpolated value
 548:..\..\..\liblc3\src/ltpf.c ****  */
 549:..\..\..\liblc3\src/ltpf.c **** LC3_HOT static float interpolate_corr(const float *x, int d)
ARM GAS  C:\Users\rdn\AppData\Local\Temp\cc5zc0m9.s 			page 29


 550:..\..\..\liblc3\src/ltpf.c **** {
 970              		.loc 1 550 0
 971              		.cfi_startproc
 972              		@ args = 0, pretend = 0, frame = 0
 973              		@ frame_needed = 0, uses_anonymous_args = 0
 974              		@ link register save eliminated.
 975              	.LVL166:
 551:..\..\..\liblc3\src/ltpf.c ****     static const float h4[][8] = {
 552:..\..\..\liblc3\src/ltpf.c ****         {  1.53572770e-02, -4.72963246e-02,  8.35788573e-02,  8.98638285e-01,
 553:..\..\..\liblc3\src/ltpf.c ****            8.35788573e-02, -4.72963246e-02,  1.53572770e-02,                 },
 554:..\..\..\liblc3\src/ltpf.c ****         {  2.74547165e-03,  4.59833449e-03, -7.54404636e-02,  8.17488686e-01,
 555:..\..\..\liblc3\src/ltpf.c ****            3.30182571e-01, -1.05835916e-01,  2.86823405e-02, -2.87456116e-03 },
 556:..\..\..\liblc3\src/ltpf.c ****         { -3.00125103e-03,  2.95038503e-02, -1.30305021e-01,  6.03297008e-01,
 557:..\..\..\liblc3\src/ltpf.c ****            6.03297008e-01, -1.30305021e-01,  2.95038503e-02, -3.00125103e-03 },
 558:..\..\..\liblc3\src/ltpf.c ****         { -2.87456116e-03,  2.86823405e-02, -1.05835916e-01,  3.30182571e-01,
 559:..\..\..\liblc3\src/ltpf.c ****            8.17488686e-01, -7.54404636e-02,  4.59833449e-03,  2.74547165e-03 },
 560:..\..\..\liblc3\src/ltpf.c ****     };
 561:..\..\..\liblc3\src/ltpf.c **** 
 562:..\..\..\liblc3\src/ltpf.c ****     const float *h = h4[(4+d) % 4];
 976              		.loc 1 562 0
 977 0000 0B1D     		adds	r3, r1, #4
 978 0002 2C4A     		ldr	r2, .L57
 979 0004 1A40     		ands	r2, r3, r2
 980 0006 03D5     		bpl	.L53
 981 0008 013A     		subs	r2, r2, #1
 982 000a 62F00302 		orn	r2, r2, #3
 983 000e 0132     		adds	r2, r2, #1
 984              	.L53:
 985 0010 294B     		ldr	r3, .L57+4
 986 0012 03EB4213 		add	r3, r3, r2, lsl #5
 987              	.LVL167:
 563:..\..\..\liblc3\src/ltpf.c **** 
 564:..\..\..\liblc3\src/ltpf.c ****     float y = d < 0 ? x[-4] * *(h++) :
 988              		.loc 1 564 0
 989 0016 0029     		cmp	r1, #0
 990 0018 07DA     		bge	.L54
 991              		.loc 1 564 0 is_stmt 0 discriminator 1
 992 001a 50ED047A 		vldr.32	s15, [r0, #-16]
 993              	.LVL168:
 994 001e 93ED000A 		vldr.32	s0, [r3]
 995 0022 27EE800A 		vmul.f32	s0, s15, s0
 996 0026 0433     		adds	r3, r3, #4
 997              	.LVL169:
 998 0028 0AE0     		b	.L55
 999              	.L54:
 565:..\..\..\liblc3\src/ltpf.c ****               d > 0 ? x[ 4] * *(h+7) : 0;
 1000              		.loc 1 565 0 is_stmt 1
 1001 002a 0029     		cmp	r1, #0
 1002 002c 06DD     		ble	.L56
 1003              		.loc 1 565 0 is_stmt 0 discriminator 1
 1004 002e D0ED047A 		vldr.32	s15, [r0, #16]
 1005 0032 93ED070A 		vldr.32	s0, [r3, #28]
 1006 0036 27EE800A 		vmul.f32	s0, s15, s0
 1007 003a 01E0     		b	.L55
 1008              	.L56:
 1009              		.loc 1 565 0
 1010 003c 9FED1F0A 		vldr.32	s0, .L57+8
ARM GAS  C:\Users\rdn\AppData\Local\Temp\cc5zc0m9.s 			page 30


 1011              	.L55:
 1012              	.LVL170:
 566:..\..\..\liblc3\src/ltpf.c **** 
 567:..\..\..\liblc3\src/ltpf.c ****     y += x[-3] * h[0] + x[-2] * h[1] + x[-1] * h[2] + x[0] * h[3] +
 1013              		.loc 1 567 0 is_stmt 1 discriminator 2
 1014 0040 50ED037A 		vldr.32	s15, [r0, #-12]
 1015 0044 93ED007A 		vldr.32	s14, [r3]
 1016 0048 27EE877A 		vmul.f32	s14, s15, s14
 1017 004c 50ED027A 		vldr.32	s15, [r0, #-8]
 1018 0050 D3ED015A 		vldr.32	s11, [r3, #4]
 1019 0054 67EEA55A 		vmul.f32	s11, s15, s11
 1020 0058 77EE257A 		vadd.f32	s15, s14, s11
 1021 005c 10ED017A 		vldr.32	s14, [r0, #-4]
 1022 0060 93ED026A 		vldr.32	s12, [r3, #8]
 1023 0064 27EE066A 		vmul.f32	s12, s14, s12
 1024 0068 77EE865A 		vadd.f32	s11, s15, s12
 1025 006c D0ED007A 		vldr.32	s15, [r0]
 1026 0070 D3ED036A 		vldr.32	s13, [r3, #12]
 1027 0074 67EEA66A 		vmul.f32	s13, s15, s13
 1028 0078 35EEA66A 		vadd.f32	s12, s11, s13
 568:..\..\..\liblc3\src/ltpf.c ****          x[ 1] * h[4] + x[ 2] * h[5] + x[ 3] * h[6];
 1029              		.loc 1 568 0 discriminator 2
 1030 007c D0ED017A 		vldr.32	s15, [r0, #4]
 1031 0080 93ED047A 		vldr.32	s14, [r3, #16]
 1032 0084 27EE877A 		vmul.f32	s14, s15, s14
 567:..\..\..\liblc3\src/ltpf.c ****          x[ 1] * h[4] + x[ 2] * h[5] + x[ 3] * h[6];
 1033              		.loc 1 567 0 discriminator 2
 1034 0088 76EE076A 		vadd.f32	s13, s12, s14
 1035              		.loc 1 568 0 discriminator 2
 1036 008c D0ED027A 		vldr.32	s15, [r0, #8]
 1037 0090 93ED057A 		vldr.32	s14, [r3, #20]
 1038 0094 67EE877A 		vmul.f32	s15, s15, s14
 1039 0098 36EEA77A 		vadd.f32	s14, s13, s15
 1040 009c D0ED037A 		vldr.32	s15, [r0, #12]
 1041 00a0 D3ED066A 		vldr.32	s13, [r3, #24]
 1042 00a4 67EEA67A 		vmul.f32	s15, s15, s13
 1043 00a8 77EE277A 		vadd.f32	s15, s14, s15
 1044              	.LVL171:
 569:..\..\..\liblc3\src/ltpf.c **** 
 570:..\..\..\liblc3\src/ltpf.c ****     return y;
 571:..\..\..\liblc3\src/ltpf.c **** }
 1045              		.loc 1 571 0 discriminator 2
 1046 00ac 30EE270A 		vadd.f32	s0, s0, s15
 1047              	.LVL172:
 1048 00b0 7047     		bx	lr
 1049              	.L58:
 1050 00b2 00BF     		.align	2
 1051              	.L57:
 1052 00b4 03000080 		.word	-2147483645
 1053 00b8 A0020000 		.word	.LANCHOR0+672
 1054 00bc 00000000 		.word	0
 1055              		.cfi_endproc
 1056              	.LFE35:
 1057              		.size	interpolate_corr, .-interpolate_corr
 1058              		.section	.text.refine_pitch,"ax",%progbits
 1059              		.align	2
 1060              		.thumb
ARM GAS  C:\Users\rdn\AppData\Local\Temp\cc5zc0m9.s 			page 31


 1061              		.thumb_func
 1062              		.type	refine_pitch, %function
 1063              	refine_pitch:
 1064              	.LFB37:
 572:..\..\..\liblc3\src/ltpf.c **** 
 573:..\..\..\liblc3\src/ltpf.c **** /**
 574:..\..\..\liblc3\src/ltpf.c ****  * Pitch detection algorithm
 575:..\..\..\liblc3\src/ltpf.c ****  * ltpf            Context of analysis
 576:..\..\..\liblc3\src/ltpf.c ****  * x, n            [-114..-17] Previous, [0..n-1] Current 6.4KHz samples
 577:..\..\..\liblc3\src/ltpf.c ****  * tc              Return the pitch-lag estimation
 578:..\..\..\liblc3\src/ltpf.c ****  * return          True when pitch present
 579:..\..\..\liblc3\src/ltpf.c ****  *
 580:..\..\..\liblc3\src/ltpf.c ****  * The `x` vector is aligned on 32 bits
 581:..\..\..\liblc3\src/ltpf.c ****  */
 582:..\..\..\liblc3\src/ltpf.c **** static bool detect_pitch(struct lc3_ltpf_analysis *ltpf,
 583:..\..\..\liblc3\src/ltpf.c ****     const int16_t *x, int n, int *tc)
 584:..\..\..\liblc3\src/ltpf.c **** {
 585:..\..\..\liblc3\src/ltpf.c ****     float rm1, rm2;
 586:..\..\..\liblc3\src/ltpf.c ****     float r[98];
 587:..\..\..\liblc3\src/ltpf.c **** 
 588:..\..\..\liblc3\src/ltpf.c ****     const int r0 = 17, nr = 98;
 589:..\..\..\liblc3\src/ltpf.c ****     int k0 = LC3_MAX(   0, ltpf->tc-4);
 590:..\..\..\liblc3\src/ltpf.c ****     int nk = LC3_MIN(nr-1, ltpf->tc+4) - k0 + 1;
 591:..\..\..\liblc3\src/ltpf.c **** 
 592:..\..\..\liblc3\src/ltpf.c ****     correlate(x, x - r0, n, r, nr);
 593:..\..\..\liblc3\src/ltpf.c **** 
 594:..\..\..\liblc3\src/ltpf.c ****     int t1 = argmax_weighted(r, nr, -.5f/(nr-1), &rm1);
 595:..\..\..\liblc3\src/ltpf.c ****     int t2 = k0 + argmax(r + k0, nk, &rm2);
 596:..\..\..\liblc3\src/ltpf.c **** 
 597:..\..\..\liblc3\src/ltpf.c ****     const int16_t *x1 = x - (r0 + t1);
 598:..\..\..\liblc3\src/ltpf.c ****     const int16_t *x2 = x - (r0 + t2);
 599:..\..\..\liblc3\src/ltpf.c **** 
 600:..\..\..\liblc3\src/ltpf.c ****     float nc1 = rm1 <= 0 ? 0 :
 601:..\..\..\liblc3\src/ltpf.c ****         rm1 / sqrtf(dot(x, x, n) * dot(x1, x1, n));
 602:..\..\..\liblc3\src/ltpf.c **** 
 603:..\..\..\liblc3\src/ltpf.c ****     float nc2 = rm2 <= 0 ? 0 :
 604:..\..\..\liblc3\src/ltpf.c ****         rm2 / sqrtf(dot(x, x, n) * dot(x2, x2, n));
 605:..\..\..\liblc3\src/ltpf.c **** 
 606:..\..\..\liblc3\src/ltpf.c ****     int t1sel = nc2 <= 0.85f * nc1;
 607:..\..\..\liblc3\src/ltpf.c ****     ltpf->tc = (t1sel ? t1 : t2);
 608:..\..\..\liblc3\src/ltpf.c **** 
 609:..\..\..\liblc3\src/ltpf.c ****     *tc = r0 + ltpf->tc;
 610:..\..\..\liblc3\src/ltpf.c ****     return (t1sel ? nc1 : nc2) > 0.6f;
 611:..\..\..\liblc3\src/ltpf.c **** }
 612:..\..\..\liblc3\src/ltpf.c **** 
 613:..\..\..\liblc3\src/ltpf.c **** /**
 614:..\..\..\liblc3\src/ltpf.c ****  * Pitch-lag parameter
 615:..\..\..\liblc3\src/ltpf.c ****  * x, n            [-232..-28] Previous, [0..n-1] Current 12.8KHz samples, Q14
 616:..\..\..\liblc3\src/ltpf.c ****  * tc              Pitch-lag estimation
 617:..\..\..\liblc3\src/ltpf.c ****  * pitch           The pitch value, in fixed .4
 618:..\..\..\liblc3\src/ltpf.c ****  * return          The bitstream pitch index value
 619:..\..\..\liblc3\src/ltpf.c ****  *
 620:..\..\..\liblc3\src/ltpf.c ****  * The `x` vector is aligned on 32 bits
 621:..\..\..\liblc3\src/ltpf.c ****  */
 622:..\..\..\liblc3\src/ltpf.c **** static int refine_pitch(const int16_t *x, int n, int tc, int *pitch)
 623:..\..\..\liblc3\src/ltpf.c **** {
 1065              		.loc 1 623 0
ARM GAS  C:\Users\rdn\AppData\Local\Temp\cc5zc0m9.s 			page 32


 1066              		.cfi_startproc
 1067              		@ args = 0, pretend = 0, frame = 72
 1068              		@ frame_needed = 0, uses_anonymous_args = 0
 1069              	.LVL173:
 1070 0000 2DE9F043 		push	{r4, r5, r6, r7, r8, r9, lr}
 1071              		.cfi_def_cfa_offset 28
 1072              		.cfi_offset 4, -28
 1073              		.cfi_offset 5, -24
 1074              		.cfi_offset 6, -20
 1075              		.cfi_offset 7, -16
 1076              		.cfi_offset 8, -12
 1077              		.cfi_offset 9, -8
 1078              		.cfi_offset 14, -4
 1079 0004 2DED028B 		vpush.64	{d8}
 1080              		.cfi_def_cfa_offset 36
 1081              		.cfi_offset 80, -36
 1082              		.cfi_offset 81, -32
 1083 0008 95B0     		sub	sp, sp, #84
 1084              		.cfi_def_cfa_offset 120
 1085 000a 1E46     		mov	r6, r3
 624:..\..\..\liblc3\src/ltpf.c ****     float r[17], rm;
 625:..\..\..\liblc3\src/ltpf.c ****     int e, f;
 626:..\..\..\liblc3\src/ltpf.c **** 
 627:..\..\..\liblc3\src/ltpf.c ****     int r0 = LC3_MAX( 32, 2*tc - 4);
 1086              		.loc 1 627 0
 1087 000c 941E     		subs	r4, r2, #2
 1088 000e 6400     		lsls	r4, r4, #1
 1089 0010 202C     		cmp	r4, #32
 1090 0012 B8BF     		it	lt
 1091 0014 2024     		movlt	r4, #32
 1092              	.LVL174:
 628:..\..\..\liblc3\src/ltpf.c ****     int nr = LC3_MIN(228, 2*tc + 4) - r0 + 1;
 1093              		.loc 1 628 0
 1094 0016 0232     		adds	r2, r2, #2
 1095              	.LVL175:
 1096 0018 5200     		lsls	r2, r2, #1
 1097              	.LVL176:
 1098 001a E42A     		cmp	r2, #228
 1099 001c D4BF     		ite	le
 1100 001e C4EB0202 		rsble	r2, r4, r2
 1101 0022 C4F1E402 		rsbgt	r2, r4, #228
 1102 0026 571C     		adds	r7, r2, #1
 1103              	.LVL177:
 629:..\..\..\liblc3\src/ltpf.c **** 
 630:..\..\..\liblc3\src/ltpf.c ****     correlate(x, x - (r0 - 4), n, r, nr + 8);
 1104              		.loc 1 630 0
 1105 0028 6542     		negs	r5, r4
 1106 002a 6B00     		lsls	r3, r5, #1
 1107              	.LVL178:
 1108 002c 03F10805 		add	r5, r3, #8
 1109 0030 0932     		adds	r2, r2, #9
 1110 0032 0092     		str	r2, [sp]
 1111 0034 03AB     		add	r3, sp, #12
 1112 0036 0A46     		mov	r2, r1
 1113 0038 4119     		adds	r1, r0, r5
 1114              	.LVL179:
 1115 003a FFF7FEFF 		bl	correlate
ARM GAS  C:\Users\rdn\AppData\Local\Temp\cc5zc0m9.s 			page 33


 1116              	.LVL180:
 631:..\..\..\liblc3\src/ltpf.c **** 
 632:..\..\..\liblc3\src/ltpf.c ****     e = r0 + argmax(r + 4, nr, &rm);
 1117              		.loc 1 632 0
 1118 003e 02AA     		add	r2, sp, #8
 1119 0040 3946     		mov	r1, r7
 1120 0042 07A8     		add	r0, sp, #28
 1121 0044 FFF7FEFF 		bl	argmax
 1122              	.LVL181:
 1123 0048 2518     		adds	r5, r4, r0
 1124              	.LVL182:
 633:..\..\..\liblc3\src/ltpf.c ****     const float *re = r + (e - (r0 - 4));
 1125              		.loc 1 633 0
 1126 004a 043C     		subs	r4, r4, #4
 1127              	.LVL183:
 1128 004c 2C1B     		subs	r4, r5, r4
 1129              	.LVL184:
 1130 004e 03AB     		add	r3, sp, #12
 1131 0050 03EB8407 		add	r7, r3, r4, lsl #2
 1132              	.LVL185:
 634:..\..\..\liblc3\src/ltpf.c **** 
 635:..\..\..\liblc3\src/ltpf.c ****     float dm = interpolate_corr(re, f = 0);
 1133              		.loc 1 635 0
 1134 0054 0021     		movs	r1, #0
 1135 0056 3846     		mov	r0, r7
 1136 0058 FFF7FEFF 		bl	interpolate_corr
 1137              	.LVL186:
 1138 005c B0EE408A 		vmov.f32	s16, s0
 1139              	.LVL187:
 1140              	.LBB116:
 636:..\..\..\liblc3\src/ltpf.c ****     for (int i = 1; i <= 3; i++) {
 1141              		.loc 1 636 0
 1142 0060 0124     		movs	r4, #1
 1143              	.LBE116:
 635:..\..\..\liblc3\src/ltpf.c ****     for (int i = 1; i <= 3; i++) {
 1144              		.loc 1 635 0
 1145 0062 4FF00008 		mov	r8, #0
 1146              	.LBB118:
 1147              		.loc 1 636 0
 1148 0066 25E0     		b	.L60
 1149              	.LVL188:
 1150              	.L64:
 1151              	.LBB117:
 637:..\..\..\liblc3\src/ltpf.c ****         float d;
 638:..\..\..\liblc3\src/ltpf.c **** 
 639:..\..\..\liblc3\src/ltpf.c ****         if (e >= 127 && ((i & 1) | (e >= 157)))
 1152              		.loc 1 639 0
 1153 0068 7E2D     		cmp	r5, #126
 1154 006a 06DD     		ble	.L61
 1155              		.loc 1 639 0 is_stmt 0 discriminator 1
 1156 006c 04F00103 		and	r3, r4, #1
 1157 0070 9C2D     		cmp	r5, #156
 1158 0072 C8BF     		it	gt
 1159 0074 43F00103 		orrgt	r3, r3, #1
 1160 0078 DBB9     		cbnz	r3, .L62
 1161              	.L61:
 640:..\..\..\liblc3\src/ltpf.c ****             continue;
ARM GAS  C:\Users\rdn\AppData\Local\Temp\cc5zc0m9.s 			page 34


 641:..\..\..\liblc3\src/ltpf.c **** 
 642:..\..\..\liblc3\src/ltpf.c ****         if ((d = interpolate_corr(re, i)) > dm)
 1162              		.loc 1 642 0 is_stmt 1
 1163 007a 2146     		mov	r1, r4
 1164 007c 3846     		mov	r0, r7
 1165 007e FFF7FEFF 		bl	interpolate_corr
 1166              	.LVL189:
 1167 0082 B4EEC08A 		vcmpe.f32	s16, s0
 1168 0086 F1EE10FA 		vmrs	APSR_nzcv, FPSCR
 1169 008a 02D5     		bpl	.L63
 643:..\..\..\liblc3\src/ltpf.c ****             dm = d, f = i;
 1170              		.loc 1 643 0
 1171 008c B0EE408A 		vmov.f32	s16, s0
 1172              	.LVL190:
 1173 0090 A046     		mov	r8, r4
 1174              	.LVL191:
 1175              	.L63:
 644:..\..\..\liblc3\src/ltpf.c **** 
 645:..\..\..\liblc3\src/ltpf.c ****         if (e > 32 && (d = interpolate_corr(re, -i)) > dm)
 1176              		.loc 1 645 0
 1177 0092 202D     		cmp	r5, #32
 1178 0094 0DDD     		ble	.L62
 1179              		.loc 1 645 0 is_stmt 0 discriminator 1
 1180 0096 C4F10009 		rsb	r9, r4, #0
 1181 009a 4946     		mov	r1, r9
 1182 009c 3846     		mov	r0, r7
 1183 009e FFF7FEFF 		bl	interpolate_corr
 1184              	.LVL192:
 1185 00a2 B4EEC08A 		vcmpe.f32	s16, s0
 1186 00a6 F1EE10FA 		vmrs	APSR_nzcv, FPSCR
 1187 00aa 02D5     		bpl	.L62
 646:..\..\..\liblc3\src/ltpf.c ****             dm = d, f = -i;
 1188              		.loc 1 646 0 is_stmt 1
 1189 00ac B0EE408A 		vmov.f32	s16, s0
 1190              	.LVL193:
 1191 00b0 C846     		mov	r8, r9
 1192              	.LVL194:
 1193              	.L62:
 1194              	.LBE117:
 636:..\..\..\liblc3\src/ltpf.c ****         float d;
 1195              		.loc 1 636 0 discriminator 2
 1196 00b2 0134     		adds	r4, r4, #1
 1197              	.LVL195:
 1198              	.L60:
 636:..\..\..\liblc3\src/ltpf.c ****         float d;
 1199              		.loc 1 636 0 is_stmt 0 discriminator 1
 1200 00b4 032C     		cmp	r4, #3
 1201 00b6 D7DD     		ble	.L64
 1202              	.LBE118:
 647:..\..\..\liblc3\src/ltpf.c ****     }
 648:..\..\..\liblc3\src/ltpf.c **** 
 649:..\..\..\liblc3\src/ltpf.c ****     e -=   (f < 0);
 1203              		.loc 1 649 0 is_stmt 1
 1204 00b8 A5EBD875 		sub	r5, r5, r8, lsr #31
 1205              	.LVL196:
 650:..\..\..\liblc3\src/ltpf.c ****     f += 4*(f < 0);
 1206              		.loc 1 650 0
ARM GAS  C:\Users\rdn\AppData\Local\Temp\cc5zc0m9.s 			page 35


 1207 00bc B8F1000F 		cmp	r8, #0
 1208 00c0 01DA     		bge	.L71
 1209 00c2 0423     		movs	r3, #4
 1210 00c4 00E0     		b	.L65
 1211              	.L71:
 1212 00c6 0023     		movs	r3, #0
 1213              	.L65:
 1214              		.loc 1 650 0 is_stmt 0 discriminator 4
 1215 00c8 9844     		add	r8, r8, r3
 1216              	.LVL197:
 651:..\..\..\liblc3\src/ltpf.c **** 
 652:..\..\..\liblc3\src/ltpf.c ****     *pitch = 4*e + f;
 1217              		.loc 1 652 0 is_stmt 1 discriminator 4
 1218 00ca 08EB8500 		add	r0, r8, r5, lsl #2
 1219 00ce 3060     		str	r0, [r6]
 653:..\..\..\liblc3\src/ltpf.c ****     return e < 127 ? 4*e +  f       - 128 :
 1220              		.loc 1 653 0 discriminator 4
 1221 00d0 7E2D     		cmp	r5, #126
 1222 00d2 01DC     		bgt	.L66
 1223              		.loc 1 653 0 is_stmt 0 discriminator 1
 1224 00d4 8038     		subs	r0, r0, #128
 1225 00d6 0AE0     		b	.L67
 1226              	.L66:
 654:..\..\..\liblc3\src/ltpf.c ****            e < 157 ? 2*e + (f >> 1) + 126 : e + 283;
 1227              		.loc 1 654 0 is_stmt 1
 1228 00d8 9C2D     		cmp	r5, #156
 1229 00da 06DC     		bgt	.L68
 1230              		.loc 1 654 0 is_stmt 0 discriminator 1
 1231 00dc 4FEA6808 		asr	r8, r8, #1
 1232              	.LVL198:
 1233 00e0 08EB4505 		add	r5, r8, r5, lsl #1
 1234              	.LVL199:
 1235 00e4 05F17E00 		add	r0, r5, #126
 1236 00e8 01E0     		b	.L67
 1237              	.LVL200:
 1238              	.L68:
 1239              		.loc 1 654 0 discriminator 2
 1240 00ea 05F21B10 		addw	r0, r5, #283
 1241              	.LVL201:
 1242              	.L67:
 655:..\..\..\liblc3\src/ltpf.c **** }
 1243              		.loc 1 655 0 is_stmt 1 discriminator 2
 1244 00ee 15B0     		add	sp, sp, #84
 1245              		.cfi_def_cfa_offset 36
 1246              		@ sp needed
 1247 00f0 BDEC028B 		vldm	sp!, {d8}
 1248              		.cfi_restore 80
 1249              		.cfi_restore 81
 1250              		.cfi_def_cfa_offset 28
 1251              	.LVL202:
 1252 00f4 BDE8F083 		pop	{r4, r5, r6, r7, r8, r9, pc}
 1253              		.cfi_endproc
 1254              	.LFE37:
 1255              		.size	refine_pitch, .-refine_pitch
 1256              		.section	.text.synthesize_8,"ax",%progbits
 1257              		.align	2
 1258              		.thumb
ARM GAS  C:\Users\rdn\AppData\Local\Temp\cc5zc0m9.s 			page 36


 1259              		.thumb_func
 1260              		.type	synthesize_8, %function
 1261              	synthesize_8:
 1262              	.LFB42:
 656:..\..\..\liblc3\src/ltpf.c **** 
 657:..\..\..\liblc3\src/ltpf.c **** /**
 658:..\..\..\liblc3\src/ltpf.c ****  * LTPF Analysis
 659:..\..\..\liblc3\src/ltpf.c ****  */
 660:..\..\..\liblc3\src/ltpf.c **** bool lc3_ltpf_analyse(
 661:..\..\..\liblc3\src/ltpf.c ****     enum lc3_dt dt, enum lc3_srate sr, struct lc3_ltpf_analysis *ltpf,
 662:..\..\..\liblc3\src/ltpf.c ****     const int16_t *x, struct lc3_ltpf_data *data)
 663:..\..\..\liblc3\src/ltpf.c **** {
 664:..\..\..\liblc3\src/ltpf.c ****     /* --- Resampling to 12.8 KHz --- */
 665:..\..\..\liblc3\src/ltpf.c **** 
 666:..\..\..\liblc3\src/ltpf.c ****     int z_12k8 = sizeof(ltpf->x_12k8) / sizeof(*ltpf->x_12k8);
 667:..\..\..\liblc3\src/ltpf.c ****     int n_12k8 = (1 + dt) * 32;
 668:..\..\..\liblc3\src/ltpf.c **** 
 669:..\..\..\liblc3\src/ltpf.c ****     memmove(ltpf->x_12k8, ltpf->x_12k8 + n_12k8,
 670:..\..\..\liblc3\src/ltpf.c ****         (z_12k8 - n_12k8) * sizeof(*ltpf->x_12k8));
 671:..\..\..\liblc3\src/ltpf.c **** 
 672:..\..\..\liblc3\src/ltpf.c ****     int16_t *x_12k8 = ltpf->x_12k8 + (z_12k8 - n_12k8);
 673:..\..\..\liblc3\src/ltpf.c **** 
 674:..\..\..\liblc3\src/ltpf.c ****     resample_12k8[sr](&ltpf->hp50, x, x_12k8, n_12k8);
 675:..\..\..\liblc3\src/ltpf.c **** 
 676:..\..\..\liblc3\src/ltpf.c ****     x_12k8 -= (dt == LC3_DT_7M5 ? 44 : 24);
 677:..\..\..\liblc3\src/ltpf.c **** 
 678:..\..\..\liblc3\src/ltpf.c ****     /* --- Resampling to 6.4 KHz --- */
 679:..\..\..\liblc3\src/ltpf.c **** 
 680:..\..\..\liblc3\src/ltpf.c ****     int z_6k4 = sizeof(ltpf->x_6k4) / sizeof(*ltpf->x_6k4);
 681:..\..\..\liblc3\src/ltpf.c ****     int n_6k4 = n_12k8 >> 1;
 682:..\..\..\liblc3\src/ltpf.c **** 
 683:..\..\..\liblc3\src/ltpf.c ****     memmove(ltpf->x_6k4, ltpf->x_6k4 + n_6k4,
 684:..\..\..\liblc3\src/ltpf.c ****         (z_6k4 - n_6k4) * sizeof(*ltpf->x_6k4));
 685:..\..\..\liblc3\src/ltpf.c **** 
 686:..\..\..\liblc3\src/ltpf.c ****     int16_t *x_6k4 = ltpf->x_6k4 + (z_6k4 - n_6k4);
 687:..\..\..\liblc3\src/ltpf.c **** 
 688:..\..\..\liblc3\src/ltpf.c ****     resample_6k4(x_12k8, x_6k4, n_6k4);
 689:..\..\..\liblc3\src/ltpf.c **** 
 690:..\..\..\liblc3\src/ltpf.c ****     /* --- Enlarge for small frame size --- */
 691:..\..\..\liblc3\src/ltpf.c **** 
 692:..\..\..\liblc3\src/ltpf.c ****     if (dt == LC3_DT_2M5) {
 693:..\..\..\liblc3\src/ltpf.c ****         x_12k8 -= n_12k8, x_6k4 -= n_6k4;
 694:..\..\..\liblc3\src/ltpf.c ****         n_12k8 += n_12k8; n_6k4 += n_6k4;
 695:..\..\..\liblc3\src/ltpf.c ****     }
 696:..\..\..\liblc3\src/ltpf.c **** 
 697:..\..\..\liblc3\src/ltpf.c ****     /* --- Pitch detection --- */
 698:..\..\..\liblc3\src/ltpf.c **** 
 699:..\..\..\liblc3\src/ltpf.c ****     int tc, pitch = 0;
 700:..\..\..\liblc3\src/ltpf.c ****     float nc = 0;
 701:..\..\..\liblc3\src/ltpf.c **** 
 702:..\..\..\liblc3\src/ltpf.c ****     bool pitch_present = detect_pitch(ltpf, x_6k4, n_6k4, &tc);
 703:..\..\..\liblc3\src/ltpf.c **** 
 704:..\..\..\liblc3\src/ltpf.c ****     if (pitch_present) {
 705:..\..\..\liblc3\src/ltpf.c ****         int16_t u[128], v[128];
 706:..\..\..\liblc3\src/ltpf.c **** 
 707:..\..\..\liblc3\src/ltpf.c ****         data->pitch_index = refine_pitch(x_12k8, n_12k8, tc, &pitch);
 708:..\..\..\liblc3\src/ltpf.c **** 
ARM GAS  C:\Users\rdn\AppData\Local\Temp\cc5zc0m9.s 			page 37


 709:..\..\..\liblc3\src/ltpf.c ****         interpolate(x_12k8, n_12k8, 0, u);
 710:..\..\..\liblc3\src/ltpf.c ****         interpolate(x_12k8 - (pitch >> 2), n_12k8, pitch & 3, v);
 711:..\..\..\liblc3\src/ltpf.c **** 
 712:..\..\..\liblc3\src/ltpf.c ****         nc = dot(u, v, n_12k8) / sqrtf(dot(u, u, n_12k8) * dot(v, v, n_12k8));
 713:..\..\..\liblc3\src/ltpf.c ****     }
 714:..\..\..\liblc3\src/ltpf.c **** 
 715:..\..\..\liblc3\src/ltpf.c ****     /* --- Activation --- */
 716:..\..\..\liblc3\src/ltpf.c **** 
 717:..\..\..\liblc3\src/ltpf.c ****      if (ltpf->active) {
 718:..\..\..\liblc3\src/ltpf.c ****         int pitch_diff =
 719:..\..\..\liblc3\src/ltpf.c ****             LC3_MAX(pitch, ltpf->pitch) - LC3_MIN(pitch, ltpf->pitch);
 720:..\..\..\liblc3\src/ltpf.c ****         float nc_diff = nc - ltpf->nc[0];
 721:..\..\..\liblc3\src/ltpf.c **** 
 722:..\..\..\liblc3\src/ltpf.c ****         data->active = !lc3_hr(sr) && pitch_present &&
 723:..\..\..\liblc3\src/ltpf.c ****             ((nc > 0.9f) || (nc > 0.84f && pitch_diff < 8 && nc_diff > -0.1f));
 724:..\..\..\liblc3\src/ltpf.c **** 
 725:..\..\..\liblc3\src/ltpf.c ****      } else {
 726:..\..\..\liblc3\src/ltpf.c ****          data->active = !lc3_hr(sr) && pitch_present &&
 727:..\..\..\liblc3\src/ltpf.c ****             ( (dt == LC3_DT_10M || ltpf->nc[1] > 0.94f) &&
 728:..\..\..\liblc3\src/ltpf.c ****               (ltpf->nc[0] > 0.94f && nc > 0.94f) );
 729:..\..\..\liblc3\src/ltpf.c ****      }
 730:..\..\..\liblc3\src/ltpf.c **** 
 731:..\..\..\liblc3\src/ltpf.c ****      ltpf->active = data->active;
 732:..\..\..\liblc3\src/ltpf.c ****      ltpf->pitch = pitch;
 733:..\..\..\liblc3\src/ltpf.c ****      ltpf->nc[1] = ltpf->nc[0];
 734:..\..\..\liblc3\src/ltpf.c ****      ltpf->nc[0] = nc;
 735:..\..\..\liblc3\src/ltpf.c **** 
 736:..\..\..\liblc3\src/ltpf.c ****      return pitch_present;
 737:..\..\..\liblc3\src/ltpf.c **** }
 738:..\..\..\liblc3\src/ltpf.c **** 
 739:..\..\..\liblc3\src/ltpf.c **** 
 740:..\..\..\liblc3\src/ltpf.c **** /* ----------------------------------------------------------------------------
 741:..\..\..\liblc3\src/ltpf.c ****  *  Synthesis
 742:..\..\..\liblc3\src/ltpf.c ****  * -------------------------------------------------------------------------- */
 743:..\..\..\liblc3\src/ltpf.c **** 
 744:..\..\..\liblc3\src/ltpf.c **** /**
 745:..\..\..\liblc3\src/ltpf.c ****  * Width of synthesis filter
 746:..\..\..\liblc3\src/ltpf.c ****  */
 747:..\..\..\liblc3\src/ltpf.c **** 
 748:..\..\..\liblc3\src/ltpf.c **** #define MAX_FILTER_WIDTH \
 749:..\..\..\liblc3\src/ltpf.c ****     (LC3_MAX_SRATE_HZ / 4000)
 750:..\..\..\liblc3\src/ltpf.c **** 
 751:..\..\..\liblc3\src/ltpf.c **** 
 752:..\..\..\liblc3\src/ltpf.c **** /**
 753:..\..\..\liblc3\src/ltpf.c ****  * Synthesis filter template
 754:..\..\..\liblc3\src/ltpf.c ****  * xh, nh          History ring buffer of filtered samples
 755:..\..\..\liblc3\src/ltpf.c ****  * lag             Lag parameter in the ring buffer
 756:..\..\..\liblc3\src/ltpf.c ****  * x0              w-1 previous input samples
 757:..\..\..\liblc3\src/ltpf.c ****  * x, n            Current samples as input, filtered as output
 758:..\..\..\liblc3\src/ltpf.c ****  * c, w            Coefficients `den` then `num`, and width of filter
 759:..\..\..\liblc3\src/ltpf.c ****  * fade            Fading mode of filter  -1: Out  1: In  0: None
 760:..\..\..\liblc3\src/ltpf.c ****  */
 761:..\..\..\liblc3\src/ltpf.c **** LC3_HOT static inline void synthesize_template(
 762:..\..\..\liblc3\src/ltpf.c ****     const float *xh, int nh, int lag,
 763:..\..\..\liblc3\src/ltpf.c ****     const float *x0, float *x, int n,
 764:..\..\..\liblc3\src/ltpf.c ****     const float *c, const int w, int fade)
 765:..\..\..\liblc3\src/ltpf.c **** {
ARM GAS  C:\Users\rdn\AppData\Local\Temp\cc5zc0m9.s 			page 38


 766:..\..\..\liblc3\src/ltpf.c ****     float g = (float)(fade <= 0);
 767:..\..\..\liblc3\src/ltpf.c ****     float g_incr = (float)((fade > 0) - (fade < 0)) / n;
 768:..\..\..\liblc3\src/ltpf.c ****     float u[MAX_FILTER_WIDTH];
 769:..\..\..\liblc3\src/ltpf.c **** 
 770:..\..\..\liblc3\src/ltpf.c ****     /* --- Load previous samples --- */
 771:..\..\..\liblc3\src/ltpf.c **** 
 772:..\..\..\liblc3\src/ltpf.c ****     lag += (w >> 1);
 773:..\..\..\liblc3\src/ltpf.c **** 
 774:..\..\..\liblc3\src/ltpf.c ****     const float *y = x - xh < lag ? x + (nh - lag) : x - lag;
 775:..\..\..\liblc3\src/ltpf.c ****     const float *y_end = xh + nh - 1;
 776:..\..\..\liblc3\src/ltpf.c **** 
 777:..\..\..\liblc3\src/ltpf.c ****     for (int j = 0; j < w-1; j++) {
 778:..\..\..\liblc3\src/ltpf.c **** 
 779:..\..\..\liblc3\src/ltpf.c ****         u[j] = 0;
 780:..\..\..\liblc3\src/ltpf.c **** 
 781:..\..\..\liblc3\src/ltpf.c ****         float yi = *y, xi = *(x0++);
 782:..\..\..\liblc3\src/ltpf.c ****         y = y < y_end ? y + 1 : xh;
 783:..\..\..\liblc3\src/ltpf.c **** 
 784:..\..\..\liblc3\src/ltpf.c ****         for (int k = 0; k <= j; k++)
 785:..\..\..\liblc3\src/ltpf.c ****             u[j-k] -= yi * c[k];
 786:..\..\..\liblc3\src/ltpf.c **** 
 787:..\..\..\liblc3\src/ltpf.c ****         for (int k = 0; k <= j; k++)
 788:..\..\..\liblc3\src/ltpf.c ****             u[j-k] += xi * c[w+k];
 789:..\..\..\liblc3\src/ltpf.c ****     }
 790:..\..\..\liblc3\src/ltpf.c **** 
 791:..\..\..\liblc3\src/ltpf.c ****     u[w-1] = 0;
 792:..\..\..\liblc3\src/ltpf.c **** 
 793:..\..\..\liblc3\src/ltpf.c ****     /* --- Process by filter length --- */
 794:..\..\..\liblc3\src/ltpf.c **** 
 795:..\..\..\liblc3\src/ltpf.c ****     for (int i = 0; i < n; i += w)
 796:..\..\..\liblc3\src/ltpf.c ****         for (int j = 0; j < w; j++, g += g_incr) {
 797:..\..\..\liblc3\src/ltpf.c **** 
 798:..\..\..\liblc3\src/ltpf.c ****             float yi = *y, xi = *x;
 799:..\..\..\liblc3\src/ltpf.c ****             y = y < y_end ? y + 1 : xh;
 800:..\..\..\liblc3\src/ltpf.c **** 
 801:..\..\..\liblc3\src/ltpf.c ****             for (int k = 0; k < w; k++)
 802:..\..\..\liblc3\src/ltpf.c ****                 u[(j+(w-1)-k)%w] -= yi * c[k];
 803:..\..\..\liblc3\src/ltpf.c **** 
 804:..\..\..\liblc3\src/ltpf.c ****             for (int k = 0; k < w; k++)
 805:..\..\..\liblc3\src/ltpf.c ****                 u[(j+(w-1)-k)%w] += xi * c[w+k];
 806:..\..\..\liblc3\src/ltpf.c **** 
 807:..\..\..\liblc3\src/ltpf.c ****             *(x++) = xi - g * u[j];
 808:..\..\..\liblc3\src/ltpf.c ****             u[j] = 0;
 809:..\..\..\liblc3\src/ltpf.c ****         }
 810:..\..\..\liblc3\src/ltpf.c **** }
 811:..\..\..\liblc3\src/ltpf.c **** 
 812:..\..\..\liblc3\src/ltpf.c **** /**
 813:..\..\..\liblc3\src/ltpf.c ****  * Synthesis filter for each samplerates (width of filter)
 814:..\..\..\liblc3\src/ltpf.c ****  */
 815:..\..\..\liblc3\src/ltpf.c **** 
 816:..\..\..\liblc3\src/ltpf.c **** 
 817:..\..\..\liblc3\src/ltpf.c **** LC3_HOT static void synthesize_4(const float *xh, int nh, int lag,
 818:..\..\..\liblc3\src/ltpf.c ****     const float *x0, float *x, int n, const float *c, int fade)
 819:..\..\..\liblc3\src/ltpf.c **** {
 820:..\..\..\liblc3\src/ltpf.c ****     synthesize_template(xh, nh, lag, x0, x, n, c, 4, fade);
 821:..\..\..\liblc3\src/ltpf.c **** }
 822:..\..\..\liblc3\src/ltpf.c **** 
ARM GAS  C:\Users\rdn\AppData\Local\Temp\cc5zc0m9.s 			page 39


 823:..\..\..\liblc3\src/ltpf.c **** LC3_HOT static void synthesize_6(const float *xh, int nh, int lag,
 824:..\..\..\liblc3\src/ltpf.c ****     const float *x0, float *x, int n, const float *c, int fade)
 825:..\..\..\liblc3\src/ltpf.c **** {
 826:..\..\..\liblc3\src/ltpf.c ****     synthesize_template(xh, nh, lag, x0, x, n, c, 6, fade);
 827:..\..\..\liblc3\src/ltpf.c **** }
 828:..\..\..\liblc3\src/ltpf.c **** 
 829:..\..\..\liblc3\src/ltpf.c **** LC3_HOT static void synthesize_8(const float *xh, int nh, int lag,
 830:..\..\..\liblc3\src/ltpf.c ****     const float *x0, float *x, int n, const float *c, int fade)
 831:..\..\..\liblc3\src/ltpf.c **** {
 1263              		.loc 1 831 0
 1264              		.cfi_startproc
 1265              		@ args = 16, pretend = 0, frame = 96
 1266              		@ frame_needed = 0, uses_anonymous_args = 0
 1267              	.LVL203:
 1268 0000 2DE9F043 		push	{r4, r5, r6, r7, r8, r9, lr}
 1269              		.cfi_def_cfa_offset 28
 1270              		.cfi_offset 4, -28
 1271              		.cfi_offset 5, -24
 1272              		.cfi_offset 6, -20
 1273              		.cfi_offset 7, -16
 1274              		.cfi_offset 8, -12
 1275              		.cfi_offset 9, -8
 1276              		.cfi_offset 14, -4
 1277 0004 99B0     		sub	sp, sp, #100
 1278              		.cfi_def_cfa_offset 128
 1279 0006 8146     		mov	r9, r0
 1280 0008 209D     		ldr	r5, [sp, #128]
 1281 000a DDF884E0 		ldr	lr, [sp, #132]
 1282 000e 229C     		ldr	r4, [sp, #136]
 1283 0010 239F     		ldr	r7, [sp, #140]
 1284              	.LVL204:
 1285              	.LBB130:
 1286              	.LBB131:
 766:..\..\..\liblc3\src/ltpf.c ****     float g_incr = (float)((fade > 0) - (fade < 0)) / n;
 1287              		.loc 1 766 0
 1288 0012 002F     		cmp	r7, #0
 1289 0014 02DC     		bgt	.L94
 1290 0016 F7EE005A 		vmov.f32	s11, #1.0e+0
 1291 001a 01E0     		b	.L74
 1292              	.L94:
 1293 001c DFED6A5A 		vldr.32	s11, .L99
 1294              	.L74:
 1295              	.LVL205:
 767:..\..\..\liblc3\src/ltpf.c ****     float u[MAX_FILTER_WIDTH];
 1296              		.loc 1 767 0
 1297 0020 FE0F     		lsrs	r6, r7, #31
 1298 0022 002F     		cmp	r7, #0
 1299 0024 D4BF     		ite	le
 1300 0026 7642     		rsble	r6, r6, #0
 1301 0028 C6F10106 		rsbgt	r6, r6, #1
 1302 002c 07EE906A 		vmov	s15, r6	@ int
 1303 0030 F8EEE77A 		vcvt.f32.s32	s15, s15
 1304 0034 07EE10EA 		vmov	s14, lr	@ int
 1305 0038 B8EEC77A 		vcvt.f32.s32	s14, s14
 1306 003c 87EE875A 		vdiv.f32	s10, s15, s14
 1307              	.LVL206:
 772:..\..\..\liblc3\src/ltpf.c **** 
ARM GAS  C:\Users\rdn\AppData\Local\Temp\cc5zc0m9.s 			page 40


 1308              		.loc 1 772 0
 1309 0040 161D     		adds	r6, r2, #4
 1310              	.LVL207:
 774:..\..\..\liblc3\src/ltpf.c ****     const float *y_end = xh + nh - 1;
 1311              		.loc 1 774 0
 1312 0042 C9EB0502 		rsb	r2, r9, r5
 1313              	.LVL208:
 1314 0046 B6EBA20F 		cmp	r6, r2, asr #2
 1315 004a 03DD     		ble	.L75
 1316 004c 8E1B     		subs	r6, r1, r6
 1317              	.LVL209:
 1318 004e 05EB8606 		add	r6, r5, r6, lsl #2
 1319 0052 01E0     		b	.L76
 1320              	.LVL210:
 1321              	.L75:
 1322 0054 A5EB8606 		sub	r6, r5, r6, lsl #2
 1323              	.LVL211:
 1324              	.L76:
 775:..\..\..\liblc3\src/ltpf.c **** 
 1325              		.loc 1 775 0
 1326 0058 01F18041 		add	r1, r1, #1073741824
 1327              	.LVL212:
 1328 005c 0139     		subs	r1, r1, #1
 1329              	.LVL213:
 1330 005e 09EB8101 		add	r1, r9, r1, lsl #2
 1331              	.LVL214:
 1332              	.LBB132:
 777:..\..\..\liblc3\src/ltpf.c **** 
 1333              		.loc 1 777 0
 1334 0062 0027     		movs	r7, #0
 1335              	.LVL215:
 1336 0064 3FE0     		b	.L77
 1337              	.LVL216:
 1338              	.L83:
 1339              	.LBB133:
 779:..\..\..\liblc3\src/ltpf.c **** 
 1340              		.loc 1 779 0
 1341 0066 4FF0000C 		mov	ip, #0
 1342 006a 18AA     		add	r2, sp, #96
 1343 006c 02EB8702 		add	r2, r2, r7, lsl #2
 1344 0070 42F860CC 		str	ip, [r2, #-96]	@ float
 781:..\..\..\liblc3\src/ltpf.c ****         y = y < y_end ? y + 1 : xh;
 1345              		.loc 1 781 0
 1346 0074 96ED006A 		vldr.32	s12, [r6]
 1347              	.LVL217:
 1348 0078 03F1040C 		add	ip, r3, #4
 1349              	.LVL218:
 1350 007c D3ED006A 		vldr.32	s13, [r3]
 1351              	.LVL219:
 782:..\..\..\liblc3\src/ltpf.c **** 
 1352              		.loc 1 782 0
 1353 0080 B142     		cmp	r1, r6
 1354 0082 01D9     		bls	.L95
 1355 0084 0436     		adds	r6, r6, #4
 1356              	.LVL220:
 1357 0086 00E0     		b	.L78
 1358              	.LVL221:
ARM GAS  C:\Users\rdn\AppData\Local\Temp\cc5zc0m9.s 			page 41


 1359              	.L95:
 1360 0088 4E46     		mov	r6, r9
 1361              	.LVL222:
 1362              	.L78:
 1363              	.LBB134:
 784:..\..\..\liblc3\src/ltpf.c ****             u[j-k] -= yi * c[k];
 1364              		.loc 1 784 0
 1365 008a 0023     		movs	r3, #0
 1366 008c 10E0     		b	.L79
 1367              	.LVL223:
 1368              	.L80:
 785:..\..\..\liblc3\src/ltpf.c **** 
 1369              		.loc 1 785 0
 1370 008e FA1A     		subs	r2, r7, r3
 1371 0090 04EB8308 		add	r8, r4, r3, lsl #2
 1372 0094 D8ED007A 		vldr.32	s15, [r8]
 1373 0098 26EE277A 		vmul.f32	s14, s12, s15
 1374 009c 18A8     		add	r0, sp, #96
 1375 009e 00EB8202 		add	r2, r0, r2, lsl #2
 1376 00a2 52ED187A 		vldr.32	s15, [r2, #-96]
 1377 00a6 77EEC77A 		vsub.f32	s15, s15, s14
 1378 00aa 42ED187A 		vstr.32	s15, [r2, #-96]
 784:..\..\..\liblc3\src/ltpf.c ****             u[j-k] -= yi * c[k];
 1379              		.loc 1 784 0
 1380 00ae 0133     		adds	r3, r3, #1
 1381              	.LVL224:
 1382              	.L79:
 1383 00b0 9F42     		cmp	r7, r3
 1384 00b2 ECDA     		bge	.L80
 1385 00b4 0023     		movs	r3, #0
 1386              	.LVL225:
 1387 00b6 12E0     		b	.L81
 1388              	.LVL226:
 1389              	.L82:
 1390              	.LBE134:
 1391              	.LBB135:
 788:..\..\..\liblc3\src/ltpf.c ****     }
 1392              		.loc 1 788 0
 1393 00b8 FA1A     		subs	r2, r7, r3
 1394 00ba 03F10808 		add	r8, r3, #8
 1395 00be 04EB8808 		add	r8, r4, r8, lsl #2
 1396 00c2 D8ED007A 		vldr.32	s15, [r8]
 1397 00c6 26EEA77A 		vmul.f32	s14, s13, s15
 1398 00ca 18A8     		add	r0, sp, #96
 1399 00cc 00EB8202 		add	r2, r0, r2, lsl #2
 1400 00d0 52ED187A 		vldr.32	s15, [r2, #-96]
 1401 00d4 77EE877A 		vadd.f32	s15, s15, s14
 1402 00d8 42ED187A 		vstr.32	s15, [r2, #-96]
 787:..\..\..\liblc3\src/ltpf.c ****             u[j-k] += xi * c[w+k];
 1403              		.loc 1 787 0
 1404 00dc 0133     		adds	r3, r3, #1
 1405              	.LVL227:
 1406              	.L81:
 1407 00de 9F42     		cmp	r7, r3
 1408 00e0 EADA     		bge	.L82
 1409              	.LBE135:
 1410              	.LBE133:
ARM GAS  C:\Users\rdn\AppData\Local\Temp\cc5zc0m9.s 			page 42


 777:..\..\..\liblc3\src/ltpf.c **** 
 1411              		.loc 1 777 0
 1412 00e2 0137     		adds	r7, r7, #1
 1413              	.LVL228:
 1414              	.LBB136:
 781:..\..\..\liblc3\src/ltpf.c ****         y = y < y_end ? y + 1 : xh;
 1415              		.loc 1 781 0
 1416 00e4 6346     		mov	r3, ip
 1417              	.LVL229:
 1418              	.L77:
 1419              	.LBE136:
 777:..\..\..\liblc3\src/ltpf.c **** 
 1420              		.loc 1 777 0
 1421 00e6 062F     		cmp	r7, #6
 1422 00e8 BDDD     		ble	.L83
 1423              	.LBE132:
 791:..\..\..\liblc3\src/ltpf.c **** 
 1424              		.loc 1 791 0
 1425 00ea 0023     		movs	r3, #0
 1426              	.LVL230:
 1427 00ec 0793     		str	r3, [sp, #28]	@ float
 1428              	.LVL231:
 1429              	.LBB137:
 795:..\..\..\liblc3\src/ltpf.c ****         for (int j = 0; j < w; j++, g += g_incr) {
 1430              		.loc 1 795 0
 1431 00ee 0027     		movs	r7, #0
 1432              	.LVL232:
 1433 00f0 64E0     		b	.L84
 1434              	.LVL233:
 1435              	.L92:
 1436              	.LBB138:
 1437              	.LBB139:
 798:..\..\..\liblc3\src/ltpf.c ****             y = y < y_end ? y + 1 : xh;
 1438              		.loc 1 798 0
 1439 00f2 96ED006A 		vldr.32	s12, [r6]
 1440              	.LVL234:
 1441 00f6 D5ED006A 		vldr.32	s13, [r5]
 1442              	.LVL235:
 799:..\..\..\liblc3\src/ltpf.c **** 
 1443              		.loc 1 799 0
 1444 00fa B142     		cmp	r1, r6
 1445 00fc 01D9     		bls	.L96
 1446 00fe 0436     		adds	r6, r6, #4
 1447              	.LVL236:
 1448 0100 00E0     		b	.L85
 1449              	.LVL237:
 1450              	.L96:
 1451 0102 4E46     		mov	r6, r9
 1452              	.LVL238:
 1453              	.L85:
 1454              	.LBB140:
 801:..\..\..\liblc3\src/ltpf.c ****                 u[(j+(w-1)-k)%w] -= yi * c[k];
 1455              		.loc 1 801 0
 1456 0104 4FF0000C 		mov	ip, #0
 1457 0108 1AE0     		b	.L86
 1458              	.LVL239:
 1459              	.L88:
ARM GAS  C:\Users\rdn\AppData\Local\Temp\cc5zc0m9.s 			page 43


 802:..\..\..\liblc3\src/ltpf.c **** 
 1460              		.loc 1 802 0
 1461 010a D31D     		adds	r3, r2, #7
 1462 010c CCEB0303 		rsb	r3, ip, r3
 1463 0110 2E48     		ldr	r0, .L99+4
 1464 0112 0340     		ands	r3, r3, r0
 1465 0114 03D5     		bpl	.L87
 1466 0116 013B     		subs	r3, r3, #1
 1467 0118 63F00703 		orn	r3, r3, #7
 1468 011c 0133     		adds	r3, r3, #1
 1469              	.L87:
 1470 011e 04EB8C08 		add	r8, r4, ip, lsl #2
 1471 0122 D8ED007A 		vldr.32	s15, [r8]
 1472 0126 26EE277A 		vmul.f32	s14, s12, s15
 1473 012a 18A8     		add	r0, sp, #96
 1474 012c 00EB8303 		add	r3, r0, r3, lsl #2
 1475 0130 53ED187A 		vldr.32	s15, [r3, #-96]
 1476 0134 77EEC77A 		vsub.f32	s15, s15, s14
 1477 0138 43ED187A 		vstr.32	s15, [r3, #-96]
 801:..\..\..\liblc3\src/ltpf.c ****                 u[(j+(w-1)-k)%w] -= yi * c[k];
 1478              		.loc 1 801 0
 1479 013c 0CF1010C 		add	ip, ip, #1
 1480              	.LVL240:
 1481              	.L86:
 1482 0140 BCF1070F 		cmp	ip, #7
 1483 0144 E1DD     		ble	.L88
 1484 0146 4FF0000C 		mov	ip, #0
 1485              	.LVL241:
 1486 014a 1CE0     		b	.L89
 1487              	.LVL242:
 1488              	.L91:
 1489              	.LBE140:
 1490              	.LBB141:
 805:..\..\..\liblc3\src/ltpf.c **** 
 1491              		.loc 1 805 0
 1492 014c D31D     		adds	r3, r2, #7
 1493 014e CCEB0303 		rsb	r3, ip, r3
 1494 0152 1E48     		ldr	r0, .L99+4
 1495 0154 0340     		ands	r3, r3, r0
 1496 0156 03D5     		bpl	.L90
 1497 0158 013B     		subs	r3, r3, #1
 1498 015a 63F00703 		orn	r3, r3, #7
 1499 015e 0133     		adds	r3, r3, #1
 1500              	.L90:
 1501 0160 0CF10808 		add	r8, ip, #8
 1502 0164 04EB8808 		add	r8, r4, r8, lsl #2
 1503 0168 D8ED007A 		vldr.32	s15, [r8]
 1504 016c 26EEA77A 		vmul.f32	s14, s13, s15
 1505 0170 18A8     		add	r0, sp, #96
 1506 0172 00EB8303 		add	r3, r0, r3, lsl #2
 1507 0176 53ED187A 		vldr.32	s15, [r3, #-96]
 1508 017a 77EE877A 		vadd.f32	s15, s15, s14
 1509 017e 43ED187A 		vstr.32	s15, [r3, #-96]
 804:..\..\..\liblc3\src/ltpf.c ****                 u[(j+(w-1)-k)%w] += xi * c[w+k];
 1510              		.loc 1 804 0
 1511 0182 0CF1010C 		add	ip, ip, #1
 1512              	.LVL243:
ARM GAS  C:\Users\rdn\AppData\Local\Temp\cc5zc0m9.s 			page 44


 1513              	.L89:
 1514 0186 BCF1070F 		cmp	ip, #7
 1515 018a DFDD     		ble	.L91
 1516              	.LVL244:
 1517              	.LBE141:
 807:..\..\..\liblc3\src/ltpf.c ****             u[j] = 0;
 1518              		.loc 1 807 0
 1519 018c 18AB     		add	r3, sp, #96
 1520 018e 03EB8203 		add	r3, r3, r2, lsl #2
 1521 0192 53ED187A 		vldr.32	s15, [r3, #-96]
 1522 0196 67EEA57A 		vmul.f32	s15, s15, s11
 1523 019a 76EEE76A 		vsub.f32	s13, s13, s15
 1524              	.LVL245:
 1525 019e C5ED006A 		vstr.32	s13, [r5]
 1526              	.LVL246:
 808:..\..\..\liblc3\src/ltpf.c ****         }
 1527              		.loc 1 808 0
 1528 01a2 4FF0000C 		mov	ip, #0
 1529              	.LVL247:
 1530 01a6 43F860CC 		str	ip, [r3, #-96]	@ float
 1531              	.LBE139:
 796:..\..\..\liblc3\src/ltpf.c **** 
 1532              		.loc 1 796 0
 1533 01aa 0132     		adds	r2, r2, #1
 1534              	.LVL248:
 1535 01ac 75EE855A 		vadd.f32	s11, s11, s10
 1536              	.LVL249:
 1537              	.LBB142:
 807:..\..\..\liblc3\src/ltpf.c ****             u[j] = 0;
 1538              		.loc 1 807 0
 1539 01b0 0435     		adds	r5, r5, #4
 1540              	.LVL250:
 1541 01b2 00E0     		b	.L93
 1542              	.LVL251:
 1543              	.L97:
 1544              	.LBE142:
 1545              	.LBE138:
 795:..\..\..\liblc3\src/ltpf.c ****         for (int j = 0; j < w; j++, g += g_incr) {
 1546              		.loc 1 795 0
 1547 01b4 0022     		movs	r2, #0
 1548              	.L93:
 1549              	.LVL252:
 1550              	.LBB143:
 796:..\..\..\liblc3\src/ltpf.c **** 
 1551              		.loc 1 796 0
 1552 01b6 072A     		cmp	r2, #7
 1553 01b8 9BDD     		ble	.L92
 1554              	.LBE143:
 795:..\..\..\liblc3\src/ltpf.c ****         for (int j = 0; j < w; j++, g += g_incr) {
 1555              		.loc 1 795 0
 1556 01ba 0837     		adds	r7, r7, #8
 1557              	.LVL253:
 1558              	.L84:
 1559 01bc BE45     		cmp	lr, r7
 1560 01be F9DC     		bgt	.L97
 1561              	.LBE137:
 1562              	.LBE131:
ARM GAS  C:\Users\rdn\AppData\Local\Temp\cc5zc0m9.s 			page 45


 1563              	.LBE130:
 832:..\..\..\liblc3\src/ltpf.c ****     synthesize_template(xh, nh, lag, x0, x, n, c, 8, fade);
 833:..\..\..\liblc3\src/ltpf.c **** }
 1564              		.loc 1 833 0
 1565 01c0 19B0     		add	sp, sp, #100
 1566              		.cfi_def_cfa_offset 28
 1567              		@ sp needed
 1568 01c2 BDE8F083 		pop	{r4, r5, r6, r7, r8, r9, pc}
 1569              	.LVL254:
 1570              	.L100:
 1571 01c6 00BF     		.align	2
 1572              	.L99:
 1573 01c8 00000000 		.word	0
 1574 01cc 07000080 		.word	-2147483641
 1575              		.cfi_endproc
 1576              	.LFE42:
 1577              		.size	synthesize_8, .-synthesize_8
 1578              		.section	.text.detect_pitch,"ax",%progbits
 1579              		.align	2
 1580              		.thumb
 1581              		.thumb_func
 1582              		.type	detect_pitch, %function
 1583              	detect_pitch:
 1584              	.LFB36:
 584:..\..\..\liblc3\src/ltpf.c ****     float rm1, rm2;
 1585              		.loc 1 584 0
 1586              		.cfi_startproc
 1587              		@ args = 0, pretend = 0, frame = 408
 1588              		@ frame_needed = 0, uses_anonymous_args = 0
 1589              	.LVL255:
 1590 0000 2DE9F04F 		push	{r4, r5, r6, r7, r8, r9, r10, fp, lr}
 1591              		.cfi_def_cfa_offset 36
 1592              		.cfi_offset 4, -36
 1593              		.cfi_offset 5, -32
 1594              		.cfi_offset 6, -28
 1595              		.cfi_offset 7, -24
 1596              		.cfi_offset 8, -20
 1597              		.cfi_offset 9, -16
 1598              		.cfi_offset 10, -12
 1599              		.cfi_offset 11, -8
 1600              		.cfi_offset 14, -4
 1601 0004 2DED028B 		vpush.64	{d8}
 1602              		.cfi_def_cfa_offset 44
 1603              		.cfi_offset 80, -44
 1604              		.cfi_offset 81, -40
 1605 0008 E9B0     		sub	sp, sp, #420
 1606              		.cfi_def_cfa_offset 464
 1607 000a 8046     		mov	r8, r0
 1608 000c 0C46     		mov	r4, r1
 1609 000e 1646     		mov	r6, r2
 1610 0010 0293     		str	r3, [sp, #8]
 1611              	.LVL256:
 589:..\..\..\liblc3\src/ltpf.c ****     int nk = LC3_MIN(nr-1, ltpf->tc+4) - k0 + 1;
 1612              		.loc 1 589 0
 1613 0012 D0F88434 		ldr	r3, [r0, #1156]
 1614              	.LVL257:
 1615 0016 1F1F     		subs	r7, r3, #4
ARM GAS  C:\Users\rdn\AppData\Local\Temp\cc5zc0m9.s 			page 46


 1616 0018 27EAE777 		bic	r7, r7, r7, asr #31
 1617              	.LVL258:
 590:..\..\..\liblc3\src/ltpf.c **** 
 1618              		.loc 1 590 0
 1619 001c 1D1D     		adds	r5, r3, #4
 1620 001e 612D     		cmp	r5, #97
 1621 0020 D4BF     		ite	le
 1622 0022 C7EB0505 		rsble	r5, r7, r5
 1623 0026 C7F16105 		rsbgt	r5, r7, #97
 1624 002a 0135     		adds	r5, r5, #1
 1625              	.LVL259:
 592:..\..\..\liblc3\src/ltpf.c **** 
 1626              		.loc 1 592 0
 1627 002c 4FF06209 		mov	r9, #98
 1628 0030 CDF80090 		str	r9, [sp]
 1629 0034 04AB     		add	r3, sp, #16
 1630 0036 2239     		subs	r1, r1, #34
 1631              	.LVL260:
 1632 0038 2046     		mov	r0, r4
 1633              	.LVL261:
 1634 003a FFF7FEFF 		bl	correlate
 1635              	.LVL262:
 594:..\..\..\liblc3\src/ltpf.c ****     int t2 = k0 + argmax(r + k0, nk, &rm2);
 1636              		.loc 1 594 0
 1637 003e 67AA     		add	r2, sp, #412
 1638 0040 9FED8D0A 		vldr.32	s0, .L135
 1639 0044 4946     		mov	r1, r9
 1640 0046 04A8     		add	r0, sp, #16
 1641 0048 FFF7FEFF 		bl	argmax_weighted
 1642              	.LVL263:
 1643 004c 8146     		mov	r9, r0
 1644 004e 0390     		str	r0, [sp, #12]
 1645              	.LVL264:
 595:..\..\..\liblc3\src/ltpf.c **** 
 1646              		.loc 1 595 0
 1647 0050 66AA     		add	r2, sp, #408
 1648 0052 2946     		mov	r1, r5
 1649 0054 04AB     		add	r3, sp, #16
 1650 0056 03EB8700 		add	r0, r3, r7, lsl #2
 1651              	.LVL265:
 1652 005a FFF7FEFF 		bl	argmax
 1653              	.LVL266:
 1654 005e 0744     		add	r7, r7, r0
 1655              	.LVL267:
 597:..\..\..\liblc3\src/ltpf.c ****     const int16_t *x2 = x - (r0 + t2);
 1656              		.loc 1 597 0
 1657 0060 09F11102 		add	r2, r9, #17
 1658 0064 A4EB4202 		sub	r2, r4, r2, lsl #1
 1659              	.LVL268:
 598:..\..\..\liblc3\src/ltpf.c **** 
 1660              		.loc 1 598 0
 1661 0068 07F11105 		add	r5, r7, #17
 1662              	.LVL269:
 1663 006c A4EB4505 		sub	r5, r4, r5, lsl #1
 1664              	.LVL270:
 600:..\..\..\liblc3\src/ltpf.c ****         rm1 / sqrtf(dot(x, x, n) * dot(x1, x1, n));
 1665              		.loc 1 600 0
ARM GAS  C:\Users\rdn\AppData\Local\Temp\cc5zc0m9.s 			page 47


 1666 0070 9DED678A 		vldr.32	s16, [sp, #412]
 1667 0074 B5EEC08A 		vcmpe.f32	s16, #0
 1668 0078 F1EE10FA 		vmrs	APSR_nzcv, FPSCR
 1669 007c 65D9     		bls	.L123
 1670 007e A146     		mov	r9, r4
 1671              	.LVL271:
 1672 0080 A446     		mov	ip, r4
 1673 0082 4FF0000A 		mov	r10, #0
 1674 0086 0020     		movs	r0, #0
 1675 0088 0021     		movs	r1, #0
 1676 008a 16E0     		b	.L103
 1677              	.LVL272:
 1678              	.L104:
 1679              	.LBB144:
 1680              	.LBB145:
 1681              	.LBB146:
 1682              	.LBB147:
 444:..\..\..\liblc3\src/ltpf.c **** 
 1683              		.loc 1 444 0
 1684 008c BCF900E0 		ldrsh	lr, [ip]
 1685              	.LVL273:
 1686 0090 B9F90030 		ldrsh	r3, [r9]
 1687 0094 03FB0EF3 		mul	r3, r3, lr
 1688 0098 C018     		adds	r0, r0, r3
 1689              	.LVL274:
 1690 009a 41EBE371 		adc	r1, r1, r3, asr #31
 1691              	.LVL275:
 443:..\..\..\liblc3\src/ltpf.c ****             v += *(a++) * *(b++);
 1692              		.loc 1 443 0
 1693 009e 0BF1010B 		add	fp, fp, #1
 1694              	.LVL276:
 444:..\..\..\liblc3\src/ltpf.c **** 
 1695              		.loc 1 444 0
 1696 00a2 09F10209 		add	r9, r9, #2
 1697              	.LVL277:
 1698 00a6 0CF1020C 		add	ip, ip, #2
 1699              	.LVL278:
 1700 00aa 01E0     		b	.L105
 1701              	.LVL279:
 1702              	.L124:
 1703              	.LBE147:
 442:..\..\..\liblc3\src/ltpf.c ****         for (int j = 0; j < 16; j++)
 1704              		.loc 1 442 0
 1705 00ac 4FF0000B 		mov	fp, #0
 1706              	.L105:
 1707              	.LVL280:
 1708              	.LBB148:
 443:..\..\..\liblc3\src/ltpf.c ****             v += *(a++) * *(b++);
 1709              		.loc 1 443 0
 1710 00b0 BBF10F0F 		cmp	fp, #15
 1711 00b4 EADD     		ble	.L104
 1712              	.LBE148:
 442:..\..\..\liblc3\src/ltpf.c ****         for (int j = 0; j < 16; j++)
 1713              		.loc 1 442 0
 1714 00b6 0AF1010A 		add	r10, r10, #1
 1715              	.LVL281:
 1716              	.L103:
ARM GAS  C:\Users\rdn\AppData\Local\Temp\cc5zc0m9.s 			page 48


 1717 00ba 4FEA261E 		asr	lr, r6, #4
 1718 00be F245     		cmp	r10, lr
 1719 00c0 F4DB     		blt	.L124
 1720              	.LBE146:
 446:..\..\..\liblc3\src/ltpf.c ****     return (float)v32;
 1721              		.loc 1 446 0
 1722 00c2 2030     		adds	r0, r0, #32
 1723              	.LVL282:
 1724 00c4 41F10001 		adc	r1, r1, #0
 1725 00c8 8309     		lsrs	r3, r0, #6
 1726 00ca 43EA8163 		orr	r3, r3, r1, lsl #26
 1727              	.LVL283:
 447:..\..\..\liblc3\src/ltpf.c **** }
 1728              		.loc 1 447 0
 1729 00ce 07EE903A 		vmov	s15, r3	@ int
 1730 00d2 F8EEE77A 		vcvt.f32.s32	s15, s15
 1731              	.LVL284:
 1732 00d6 9246     		mov	r10, r2
 1733              	.LBE145:
 1734              	.LBE144:
 1735              	.LBB149:
 1736              	.LBB150:
 1737              	.LBB151:
 442:..\..\..\liblc3\src/ltpf.c ****         for (int j = 0; j < 16; j++)
 1738              		.loc 1 442 0
 1739 00d8 4FF0000B 		mov	fp, #0
 1740              	.LBE151:
 440:..\..\..\liblc3\src/ltpf.c **** 
 1741              		.loc 1 440 0
 1742 00dc 0020     		movs	r0, #0
 1743 00de 0021     		movs	r1, #0
 1744 00e0 15E0     		b	.L106
 1745              	.LVL285:
 1746              	.L107:
 1747              	.LBB154:
 1748              	.LBB152:
 444:..\..\..\liblc3\src/ltpf.c **** 
 1749              		.loc 1 444 0
 1750 00e2 B2F900C0 		ldrsh	ip, [r2]
 1751              	.LVL286:
 1752 00e6 BAF90030 		ldrsh	r3, [r10]
 1753 00ea 03FB0CF3 		mul	r3, r3, ip
 1754 00ee C018     		adds	r0, r0, r3
 1755              	.LVL287:
 1756 00f0 41EBE371 		adc	r1, r1, r3, asr #31
 1757              	.LVL288:
 443:..\..\..\liblc3\src/ltpf.c ****             v += *(a++) * *(b++);
 1758              		.loc 1 443 0
 1759 00f4 09F10109 		add	r9, r9, #1
 1760              	.LVL289:
 444:..\..\..\liblc3\src/ltpf.c **** 
 1761              		.loc 1 444 0
 1762 00f8 0AF1020A 		add	r10, r10, #2
 1763              	.LVL290:
 1764 00fc 0232     		adds	r2, r2, #2
 1765              	.LVL291:
 1766 00fe 01E0     		b	.L108
ARM GAS  C:\Users\rdn\AppData\Local\Temp\cc5zc0m9.s 			page 49


 1767              	.LVL292:
 1768              	.L125:
 1769              	.LBE152:
 442:..\..\..\liblc3\src/ltpf.c ****         for (int j = 0; j < 16; j++)
 1770              		.loc 1 442 0
 1771 0100 4FF00009 		mov	r9, #0
 1772              	.L108:
 1773              	.LVL293:
 1774              	.LBB153:
 443:..\..\..\liblc3\src/ltpf.c ****             v += *(a++) * *(b++);
 1775              		.loc 1 443 0
 1776 0104 B9F10F0F 		cmp	r9, #15
 1777 0108 EBDD     		ble	.L107
 1778              	.LBE153:
 442:..\..\..\liblc3\src/ltpf.c ****         for (int j = 0; j < 16; j++)
 1779              		.loc 1 442 0
 1780 010a 0BF1010B 		add	fp, fp, #1
 1781              	.LVL294:
 1782              	.L106:
 1783 010e F345     		cmp	fp, lr
 1784 0110 F6DB     		blt	.L125
 1785              	.LBE154:
 446:..\..\..\liblc3\src/ltpf.c ****     return (float)v32;
 1786              		.loc 1 446 0
 1787 0112 2030     		adds	r0, r0, #32
 1788              	.LVL295:
 1789 0114 41F10001 		adc	r1, r1, #0
 1790 0118 8309     		lsrs	r3, r0, #6
 1791 011a 43EA8163 		orr	r3, r3, r1, lsl #26
 1792              	.LVL296:
 447:..\..\..\liblc3\src/ltpf.c **** }
 1793              		.loc 1 447 0
 1794 011e 07EE103A 		vmov	s14, r3	@ int
 1795 0122 B8EEC77A 		vcvt.f32.s32	s14, s14
 1796              	.LVL297:
 1797              	.LBE150:
 1798              	.LBE149:
 601:..\..\..\liblc3\src/ltpf.c **** 
 1799              		.loc 1 601 0
 1800 0126 27EE276A 		vmul.f32	s12, s14, s15
 1801 012a F1EEC66A 		vsqrt.f32	s13, s12
 1802 012e F4EE666A 		vcmp.f32	s13, s13
 1803 0132 F1EE10FA 		vmrs	APSR_nzcv, FPSCR
 1804 0136 05D0     		beq	.L109
 1805 0138 16EE100A 		vmov	r0, s12
 1806 013c FFF7FEFF 		bl	sqrtf
 1807              	.LVL298:
 1808 0140 06EE900A 		vmov	s13, r0
 1809              	.L109:
 600:..\..\..\liblc3\src/ltpf.c ****         rm1 / sqrtf(dot(x, x, n) * dot(x1, x1, n));
 1810              		.loc 1 600 0
 1811 0144 C8EE268A 		vdiv.f32	s17, s16, s13
 1812 0148 01E0     		b	.L102
 1813              	.LVL299:
 1814              	.L123:
 1815 014a DFED4C8A 		vldr.32	s17, .L135+4
 1816              	.LVL300:
ARM GAS  C:\Users\rdn\AppData\Local\Temp\cc5zc0m9.s 			page 50


 1817              	.L102:
 603:..\..\..\liblc3\src/ltpf.c ****         rm2 / sqrtf(dot(x, x, n) * dot(x2, x2, n));
 1818              		.loc 1 603 0 discriminator 4
 1819 014e 9DED668A 		vldr.32	s16, [sp, #408]
 1820 0152 B5EEC08A 		vcmpe.f32	s16, #0
 1821 0156 F1EE10FA 		vmrs	APSR_nzcv, FPSCR
 1822 015a 5ED9     		bls	.L126
 1823 015c 2046     		mov	r0, r4
 1824 015e 4FF0000C 		mov	ip, #0
 1825 0162 0022     		movs	r2, #0
 1826 0164 0023     		movs	r3, #0
 1827 0166 14E0     		b	.L111
 1828              	.LVL301:
 1829              	.L112:
 1830              	.LBB155:
 1831              	.LBB156:
 1832              	.LBB157:
 1833              	.LBB158:
 444:..\..\..\liblc3\src/ltpf.c **** 
 1834              		.loc 1 444 0
 1835 0168 B4F90090 		ldrsh	r9, [r4]
 1836              	.LVL302:
 1837 016c B0F90010 		ldrsh	r1, [r0]
 1838 0170 01FB09F1 		mul	r1, r1, r9
 1839 0174 5218     		adds	r2, r2, r1
 1840              	.LVL303:
 1841 0176 43EBE173 		adc	r3, r3, r1, asr #31
 1842              	.LVL304:
 443:..\..\..\liblc3\src/ltpf.c ****             v += *(a++) * *(b++);
 1843              		.loc 1 443 0
 1844 017a 0EF1010E 		add	lr, lr, #1
 1845              	.LVL305:
 444:..\..\..\liblc3\src/ltpf.c **** 
 1846              		.loc 1 444 0
 1847 017e 0230     		adds	r0, r0, #2
 1848              	.LVL306:
 1849 0180 0234     		adds	r4, r4, #2
 1850              	.LVL307:
 1851 0182 01E0     		b	.L113
 1852              	.LVL308:
 1853              	.L127:
 1854              	.LBE158:
 442:..\..\..\liblc3\src/ltpf.c ****         for (int j = 0; j < 16; j++)
 1855              		.loc 1 442 0
 1856 0184 4FF0000E 		mov	lr, #0
 1857              	.L113:
 1858              	.LVL309:
 1859              	.LBB159:
 443:..\..\..\liblc3\src/ltpf.c ****             v += *(a++) * *(b++);
 1860              		.loc 1 443 0
 1861 0188 BEF10F0F 		cmp	lr, #15
 1862 018c ECDD     		ble	.L112
 1863              	.LBE159:
 442:..\..\..\liblc3\src/ltpf.c ****         for (int j = 0; j < 16; j++)
 1864              		.loc 1 442 0
 1865 018e 0CF1010C 		add	ip, ip, #1
 1866              	.LVL310:
ARM GAS  C:\Users\rdn\AppData\Local\Temp\cc5zc0m9.s 			page 51


 1867              	.L111:
 1868 0192 4FEA261E 		asr	lr, r6, #4
 1869 0196 F445     		cmp	ip, lr
 1870 0198 F4DB     		blt	.L127
 1871              	.LBE157:
 446:..\..\..\liblc3\src/ltpf.c ****     return (float)v32;
 1872              		.loc 1 446 0
 1873 019a 2032     		adds	r2, r2, #32
 1874              	.LVL311:
 1875 019c 43F10003 		adc	r3, r3, #0
 1876 01a0 9209     		lsrs	r2, r2, #6
 1877 01a2 42EA8362 		orr	r2, r2, r3, lsl #26
 1878              	.LVL312:
 447:..\..\..\liblc3\src/ltpf.c **** }
 1879              		.loc 1 447 0
 1880 01a6 07EE902A 		vmov	s15, r2	@ int
 1881 01aa F8EEE77A 		vcvt.f32.s32	s15, s15
 1882              	.LVL313:
 1883 01ae 2E46     		mov	r6, r5
 1884              	.LVL314:
 1885              	.LBE156:
 1886              	.LBE155:
 1887              	.LBB160:
 1888              	.LBB161:
 1889              	.LBB162:
 442:..\..\..\liblc3\src/ltpf.c ****         for (int j = 0; j < 16; j++)
 1890              		.loc 1 442 0
 1891 01b0 4FF0000C 		mov	ip, #0
 1892              	.LBE162:
 440:..\..\..\liblc3\src/ltpf.c **** 
 1893              		.loc 1 440 0
 1894 01b4 0020     		movs	r0, #0
 1895 01b6 0021     		movs	r1, #0
 1896 01b8 11E0     		b	.L114
 1897              	.LVL315:
 1898              	.L115:
 1899              	.LBB165:
 1900              	.LBB163:
 444:..\..\..\liblc3\src/ltpf.c **** 
 1901              		.loc 1 444 0
 1902 01ba B5F90040 		ldrsh	r4, [r5]
 1903              	.LVL316:
 1904 01be B6F90030 		ldrsh	r3, [r6]
 1905 01c2 03FB04F3 		mul	r3, r3, r4
 1906 01c6 C018     		adds	r0, r0, r3
 1907              	.LVL317:
 1908 01c8 41EBE371 		adc	r1, r1, r3, asr #31
 1909              	.LVL318:
 443:..\..\..\liblc3\src/ltpf.c ****             v += *(a++) * *(b++);
 1910              		.loc 1 443 0
 1911 01cc 0132     		adds	r2, r2, #1
 1912              	.LVL319:
 444:..\..\..\liblc3\src/ltpf.c **** 
 1913              		.loc 1 444 0
 1914 01ce 0236     		adds	r6, r6, #2
 1915              	.LVL320:
 1916 01d0 0235     		adds	r5, r5, #2
ARM GAS  C:\Users\rdn\AppData\Local\Temp\cc5zc0m9.s 			page 52


 1917              	.LVL321:
 1918 01d2 00E0     		b	.L116
 1919              	.LVL322:
 1920              	.L128:
 1921              	.LBE163:
 442:..\..\..\liblc3\src/ltpf.c ****         for (int j = 0; j < 16; j++)
 1922              		.loc 1 442 0
 1923 01d4 0022     		movs	r2, #0
 1924              	.L116:
 1925              	.LVL323:
 1926              	.LBB164:
 443:..\..\..\liblc3\src/ltpf.c ****             v += *(a++) * *(b++);
 1927              		.loc 1 443 0
 1928 01d6 0F2A     		cmp	r2, #15
 1929 01d8 EFDD     		ble	.L115
 1930              	.LBE164:
 442:..\..\..\liblc3\src/ltpf.c ****         for (int j = 0; j < 16; j++)
 1931              		.loc 1 442 0
 1932 01da 0CF1010C 		add	ip, ip, #1
 1933              	.LVL324:
 1934              	.L114:
 1935 01de F445     		cmp	ip, lr
 1936 01e0 F8DB     		blt	.L128
 1937              	.LBE165:
 446:..\..\..\liblc3\src/ltpf.c ****     return (float)v32;
 1938              		.loc 1 446 0
 1939 01e2 2030     		adds	r0, r0, #32
 1940              	.LVL325:
 1941 01e4 41F10001 		adc	r1, r1, #0
 1942 01e8 8309     		lsrs	r3, r0, #6
 1943 01ea 43EA8163 		orr	r3, r3, r1, lsl #26
 1944              	.LVL326:
 447:..\..\..\liblc3\src/ltpf.c **** }
 1945              		.loc 1 447 0
 1946 01ee 07EE103A 		vmov	s14, r3	@ int
 1947 01f2 B8EEC77A 		vcvt.f32.s32	s14, s14
 1948              	.LVL327:
 1949              	.LBE161:
 1950              	.LBE160:
 604:..\..\..\liblc3\src/ltpf.c **** 
 1951              		.loc 1 604 0
 1952 01f6 27EE276A 		vmul.f32	s12, s14, s15
 1953 01fa F1EEC66A 		vsqrt.f32	s13, s12
 1954 01fe F4EE666A 		vcmp.f32	s13, s13
 1955 0202 F1EE10FA 		vmrs	APSR_nzcv, FPSCR
 1956 0206 05D0     		beq	.L117
 1957 0208 16EE100A 		vmov	r0, s12
 1958 020c FFF7FEFF 		bl	sqrtf
 1959              	.LVL328:
 1960 0210 06EE900A 		vmov	s13, r0
 1961              	.L117:
 603:..\..\..\liblc3\src/ltpf.c ****         rm2 / sqrtf(dot(x, x, n) * dot(x2, x2, n));
 1962              		.loc 1 603 0
 1963 0214 88EE267A 		vdiv.f32	s14, s16, s13
 1964 0218 01E0     		b	.L110
 1965              	.LVL329:
 1966              	.L126:
ARM GAS  C:\Users\rdn\AppData\Local\Temp\cc5zc0m9.s 			page 53


 1967 021a 9FED187A 		vldr.32	s14, .L135+4
 1968              	.LVL330:
 1969              	.L110:
 606:..\..\..\liblc3\src/ltpf.c ****     ltpf->tc = (t1sel ? t1 : t2);
 1970              		.loc 1 606 0 discriminator 4
 1971 021e DFED187A 		vldr.32	s15, .L135+8
 1972 0222 68EEA77A 		vmul.f32	s15, s17, s15
 1973              	.LVL331:
 607:..\..\..\liblc3\src/ltpf.c **** 
 1974              		.loc 1 607 0 discriminator 4
 1975 0226 B4EEE77A 		vcmpe.f32	s14, s15
 1976 022a F1EE10FA 		vmrs	APSR_nzcv, FPSCR
 1977 022e 00D8     		bhi	.L118
 607:..\..\..\liblc3\src/ltpf.c **** 
 1978              		.loc 1 607 0 is_stmt 0
 1979 0230 039F     		ldr	r7, [sp, #12]
 1980              	.LVL332:
 1981              	.L118:
 607:..\..\..\liblc3\src/ltpf.c **** 
 1982              		.loc 1 607 0 discriminator 4
 1983 0232 C8F88474 		str	r7, [r8, #1156]
 609:..\..\..\liblc3\src/ltpf.c ****     return (t1sel ? nc1 : nc2) > 0.6f;
 1984              		.loc 1 609 0 is_stmt 1 discriminator 4
 1985 0236 1137     		adds	r7, r7, #17
 1986 0238 029B     		ldr	r3, [sp, #8]
 1987 023a 1F60     		str	r7, [r3]
 610:..\..\..\liblc3\src/ltpf.c **** }
 1988              		.loc 1 610 0 discriminator 4
 1989 023c B4EEE77A 		vcmpe.f32	s14, s15
 1990 0240 F1EE10FA 		vmrs	APSR_nzcv, FPSCR
 1991 0244 09D8     		bhi	.L133
 610:..\..\..\liblc3\src/ltpf.c **** }
 1992              		.loc 1 610 0 is_stmt 0 discriminator 1
 1993 0246 DFED0F7A 		vldr.32	s15, .L135+12
 1994              	.LVL333:
 1995 024a F4EEE78A 		vcmpe.f32	s17, s15
 1996 024e F1EE10FA 		vmrs	APSR_nzcv, FPSCR
 1997 0252 CCBF     		ite	gt
 1998 0254 0120     		movgt	r0, #1
 1999 0256 0020     		movle	r0, #0
 2000 0258 08E0     		b	.L122
 2001              	.LVL334:
 2002              	.L133:
 610:..\..\..\liblc3\src/ltpf.c **** }
 2003              		.loc 1 610 0 discriminator 2
 2004 025a DFED0A7A 		vldr.32	s15, .L135+12
 2005              	.LVL335:
 2006 025e B4EEE77A 		vcmpe.f32	s14, s15
 2007 0262 F1EE10FA 		vmrs	APSR_nzcv, FPSCR
 2008 0266 CCBF     		ite	gt
 2009 0268 0120     		movgt	r0, #1
 2010 026a 0020     		movle	r0, #0
 2011              	.L122:
 611:..\..\..\liblc3\src/ltpf.c **** 
 2012              		.loc 1 611 0 is_stmt 1 discriminator 4
 2013 026c 69B0     		add	sp, sp, #420
 2014              		.cfi_def_cfa_offset 44
ARM GAS  C:\Users\rdn\AppData\Local\Temp\cc5zc0m9.s 			page 54


 2015              		@ sp needed
 2016 026e BDEC028B 		vldm	sp!, {d8}
 2017              		.cfi_restore 80
 2018              		.cfi_restore 81
 2019              		.cfi_def_cfa_offset 36
 2020 0272 BDE8F08F 		pop	{r4, r5, r6, r7, r8, r9, r10, fp, pc}
 2021              	.LVL336:
 2022              	.L136:
 2023 0276 00BF     		.align	2
 2024              	.L135:
 2025 0278 3FE8A8BB 		.word	-1146558401
 2026 027c 00000000 		.word	0
 2027 0280 9A99593F 		.word	1062836634
 2028 0284 9A99193F 		.word	1058642330
 2029              		.cfi_endproc
 2030              	.LFE36:
 2031              		.size	detect_pitch, .-detect_pitch
 2032              		.section	.text.resample_16k_12k8,"ax",%progbits
 2033              		.align	2
 2034              		.thumb
 2035              		.thumb_func
 2036              		.type	resample_16k_12k8, %function
 2037              	resample_16k_12k8:
 2038              	.LFB24:
 321:..\..\..\liblc3\src/ltpf.c ****     resample_x64k_12k8(4, h_16k_12k8_q15, hp50, x, y, n);
 2039              		.loc 1 321 0
 2040              		.cfi_startproc
 2041              		@ args = 0, pretend = 0, frame = 8
 2042              		@ frame_needed = 0, uses_anonymous_args = 0
 2043              	.LVL337:
 2044 0000 2DE9F04F 		push	{r4, r5, r6, r7, r8, r9, r10, fp, lr}
 2045              		.cfi_def_cfa_offset 36
 2046              		.cfi_offset 4, -36
 2047              		.cfi_offset 5, -32
 2048              		.cfi_offset 6, -28
 2049              		.cfi_offset 7, -24
 2050              		.cfi_offset 8, -20
 2051              		.cfi_offset 9, -16
 2052              		.cfi_offset 10, -12
 2053              		.cfi_offset 11, -8
 2054              		.cfi_offset 14, -4
 2055 0004 83B0     		sub	sp, sp, #12
 2056              		.cfi_def_cfa_offset 48
 2057 0006 0191     		str	r1, [sp, #4]
 2058 0008 9E46     		mov	lr, r3
 2059              	.LVL338:
 2060              	.LBB173:
 2061              	.LBB174:
 218:..\..\..\liblc3\src/ltpf.c **** 
 2062              		.loc 1 218 0
 2063 000a 6FF0250C 		mvn	ip, #37
 2064              	.LVL339:
 2065              	.LBB175:
 220:..\..\..\liblc3\src/ltpf.c ****         const int16_t *hn = h + (i % p) * w;
 2066              		.loc 1 220 0
 2067 000e 0021     		movs	r1, #0
 2068              	.LVL340:
ARM GAS  C:\Users\rdn\AppData\Local\Temp\cc5zc0m9.s 			page 55


 2069 0010 99E0     		b	.L138
 2070              	.LVL341:
 2071              	.L143:
 2072              	.LBB176:
 221:..\..\..\liblc3\src/ltpf.c ****         const int16_t *xn = x + (i / p);
 2073              		.loc 1 221 0
 2074 0012 514B     		ldr	r3, .L145
 2075 0014 0B40     		ands	r3, r1, r3
 2076 0016 03D5     		bpl	.L139
 2077 0018 013B     		subs	r3, r3, #1
 2078 001a 63F00303 		orn	r3, r3, #3
 2079 001e 0133     		adds	r3, r3, #1
 2080              	.L139:
 2081 0020 03EB8303 		add	r3, r3, r3, lsl #2
 2082 0024 9C00     		lsls	r4, r3, #2
 2083 0026 4D4B     		ldr	r3, .L145+4
 2084 0028 03EB4408 		add	r8, r3, r4, lsl #1
 2085              	.LVL342:
 222:..\..\..\liblc3\src/ltpf.c ****         int32_t un = 0;
 2086              		.loc 1 222 0
 2087 002c 0F46     		mov	r7, r1
 2088 002e 0029     		cmp	r1, #0
 2089 0030 00DA     		bge	.L140
 2090 0032 CF1C     		adds	r7, r1, #3
 2091              	.L140:
 2092 0034 BF10     		asrs	r7, r7, #2
 2093 0036 0CEB4707 		add	r7, ip, r7, lsl #1
 2094 003a 019B     		ldr	r3, [sp, #4]
 2095 003c 1F44     		add	r7, r7, r3
 2096              	.LVL343:
 2097              	.LBB177:
 225:..\..\..\liblc3\src/ltpf.c ****             un += *(xn++) * *(hn++);
 2098              		.loc 1 225 0
 2099 003e 4FF00009 		mov	r9, #0
 2100              	.LBE177:
 223:..\..\..\liblc3\src/ltpf.c **** 
 2101              		.loc 1 223 0
 2102 0042 4D46     		mov	r5, r9
 2103 0044 40E0     		b	.L141
 2104              	.LVL344:
 2105              	.L142:
 2106              	.LBB178:
 226:..\..\..\liblc3\src/ltpf.c ****             un += *(xn++) * *(hn++);
 2107              		.loc 1 226 0
 2108 0046 B7F90030 		ldrsh	r3, [r7]
 2109              	.LVL345:
 2110 004a B8F90040 		ldrsh	r4, [r8]
 2111 004e 04FB0355 		mla	r5, r4, r3, r5
 2112              	.LVL346:
 227:..\..\..\liblc3\src/ltpf.c ****             un += *(xn++) * *(hn++);
 2113              		.loc 1 227 0
 2114 0052 B7F90230 		ldrsh	r3, [r7, #2]
 2115              	.LVL347:
 2116 0056 B8F90240 		ldrsh	r4, [r8, #2]
 2117 005a 04FB0355 		mla	r5, r4, r3, r5
 2118              	.LVL348:
 228:..\..\..\liblc3\src/ltpf.c ****             un += *(xn++) * *(hn++);
ARM GAS  C:\Users\rdn\AppData\Local\Temp\cc5zc0m9.s 			page 56


 2119              		.loc 1 228 0
 2120 005e B7F90430 		ldrsh	r3, [r7, #4]
 2121              	.LVL349:
 2122 0062 B8F90440 		ldrsh	r4, [r8, #4]
 2123 0066 04FB0355 		mla	r5, r4, r3, r5
 2124              	.LVL350:
 229:..\..\..\liblc3\src/ltpf.c ****             un += *(xn++) * *(hn++);
 2125              		.loc 1 229 0
 2126 006a B7F90630 		ldrsh	r3, [r7, #6]
 2127              	.LVL351:
 2128 006e B8F90640 		ldrsh	r4, [r8, #6]
 2129 0072 04FB0354 		mla	r4, r4, r3, r5
 2130              	.LVL352:
 230:..\..\..\liblc3\src/ltpf.c ****             un += *(xn++) * *(hn++);
 2131              		.loc 1 230 0
 2132 0076 B7F90830 		ldrsh	r3, [r7, #8]
 2133              	.LVL353:
 2134 007a B8F90850 		ldrsh	r5, [r8, #8]
 2135 007e 05FB0344 		mla	r4, r5, r3, r4
 2136              	.LVL354:
 231:..\..\..\liblc3\src/ltpf.c ****             un += *(xn++) * *(hn++);
 2137              		.loc 1 231 0
 2138 0082 B7F90A30 		ldrsh	r3, [r7, #10]
 2139              	.LVL355:
 2140 0086 B8F90A50 		ldrsh	r5, [r8, #10]
 2141 008a 05FB0344 		mla	r4, r5, r3, r4
 2142              	.LVL356:
 232:..\..\..\liblc3\src/ltpf.c ****             un += *(xn++) * *(hn++);
 2143              		.loc 1 232 0
 2144 008e B7F90C30 		ldrsh	r3, [r7, #12]
 2145              	.LVL357:
 2146 0092 B8F90C50 		ldrsh	r5, [r8, #12]
 2147 0096 05FB0344 		mla	r4, r5, r3, r4
 2148              	.LVL358:
 233:..\..\..\liblc3\src/ltpf.c ****             un += *(xn++) * *(hn++);
 2149              		.loc 1 233 0
 2150 009a B7F90E30 		ldrsh	r3, [r7, #14]
 2151              	.LVL359:
 2152 009e B8F90E50 		ldrsh	r5, [r8, #14]
 2153 00a2 05FB0345 		mla	r5, r5, r3, r4
 2154              	.LVL360:
 234:..\..\..\liblc3\src/ltpf.c ****             un += *(xn++) * *(hn++);
 2155              		.loc 1 234 0
 2156 00a6 B7F91030 		ldrsh	r3, [r7, #16]
 2157              	.LVL361:
 2158 00aa B8F91040 		ldrsh	r4, [r8, #16]
 2159 00ae 04FB0354 		mla	r4, r4, r3, r5
 2160              	.LVL362:
 235:..\..\..\liblc3\src/ltpf.c ****         }
 2161              		.loc 1 235 0
 2162 00b2 B7F91230 		ldrsh	r3, [r7, #18]
 2163              	.LVL363:
 2164 00b6 B8F91250 		ldrsh	r5, [r8, #18]
 2165 00ba 05FB0345 		mla	r5, r5, r3, r4
 2166              	.LVL364:
 225:..\..\..\liblc3\src/ltpf.c ****             un += *(xn++) * *(hn++);
 2167              		.loc 1 225 0
ARM GAS  C:\Users\rdn\AppData\Local\Temp\cc5zc0m9.s 			page 57


 2168 00be 09F10A09 		add	r9, r9, #10
 2169              	.LVL365:
 235:..\..\..\liblc3\src/ltpf.c ****         }
 2170              		.loc 1 235 0
 2171 00c2 1437     		adds	r7, r7, #20
 2172              	.LVL366:
 2173 00c4 08F11408 		add	r8, r8, #20
 2174              	.LVL367:
 2175              	.L141:
 225:..\..\..\liblc3\src/ltpf.c ****             un += *(xn++) * *(hn++);
 2176              		.loc 1 225 0
 2177 00c8 B9F1130F 		cmp	r9, #19
 2178 00cc BBDD     		ble	.L142
 2179              	.LVL368:
 2180              	.LBE178:
 2181              	.LBB179:
 2182              	.LBB180:
 192:..\..\..\liblc3\src/ltpf.c ****     hp50->s1 = (hp50->s2 + (int64_t)xn * b1 - (int64_t)yn * a1);
 2183              		.loc 1 192 0
 2184 00ce D0E90089 		ldrd	r8, [r0]
 2185              	.LVL369:
 2186 00d2 EF17     		asrs	r7, r5, #31
 2187              	.LVL370:
 2188 00d4 224B     		ldr	r3, .L145+8
 2189 00d6 A5FB03AB 		umull	r10, fp, r5, r3
 2190 00da 03FB07BB 		mla	fp, r3, r7, fp
 2191 00de 18EB0A08 		adds	r8, r8, r10
 2192 00e2 49EB0B09 		adc	r9, r9, fp
 2193              	.LVL371:
 2194 00e6 4FEA9873 		lsr	r3, r8, #30
 2195 00ea 43EA8903 		orr	r3, r3, r9, lsl #2
 2196              	.LVL372:
 193:..\..\..\liblc3\src/ltpf.c ****     hp50->s2 = (           (int64_t)xn * b2 - (int64_t)yn * a2);
 2197              		.loc 1 193 0
 2198 00ee D0E90289 		ldrd	r8, [r0, #8]
 2199 00f2 1C4C     		ldr	r4, .L145+12
 2200 00f4 6E42     		negs	r6, r5
 2201 00f6 04FB0766 		mla	r6, r4, r7, r6
 2202 00fa A5FB0445 		umull	r4, r5, r5, r4
 2203 00fe 3544     		add	r5, r5, r6
 2204              	.LVL373:
 2205 0100 18EB0408 		adds	r8, r8, r4
 2206 0104 49EB0509 		adc	r9, r9, r5
 2207 0108 DF17     		asrs	r7, r3, #31
 2208 010a 174E     		ldr	r6, .L145+16
 2209 010c A3FB0645 		umull	r4, r5, r3, r6
 2210 0110 06FB0755 		mla	r5, r6, r7, r5
 2211 0114 14EB0804 		adds	r4, r4, r8
 2212 0118 45EB0905 		adc	r5, r5, r9
 2213 011c C0E90045 		strd	r4, [r0]
 194:..\..\..\liblc3\src/ltpf.c **** 
 2214              		.loc 1 194 0
 2215 0120 124C     		ldr	r4, .L145+20
 2216 0122 5E42     		negs	r6, r3
 2217 0124 04FB0766 		mla	r6, r4, r7, r6
 2218 0128 A3FB0445 		umull	r4, r5, r3, r4
 2219 012c 3544     		add	r5, r5, r6
ARM GAS  C:\Users\rdn\AppData\Local\Temp\cc5zc0m9.s 			page 58


 2220 012e 14EB0A04 		adds	r4, r4, r10
 2221 0132 45EB0B05 		adc	r5, r5, fp
 2222 0136 C0E90245 		strd	r4, [r0, #8]
 2223              	.LVL374:
 2224              	.LBE180:
 2225              	.LBE179:
 239:..\..\..\liblc3\src/ltpf.c ****     }
 2226              		.loc 1 239 0
 2227 013a 03F50043 		add	r3, r3, #32768
 2228 013e 1B14     		asrs	r3, r3, #16
 2229 0140 1380     		strh	r3, [r2]	@ movhi
 2230              	.LBE176:
 220:..\..\..\liblc3\src/ltpf.c ****         const int16_t *hn = h + (i % p) * w;
 2231              		.loc 1 220 0
 2232 0142 0531     		adds	r1, r1, #5
 2233              	.LVL375:
 2234              	.LBB181:
 239:..\..\..\liblc3\src/ltpf.c ****     }
 2235              		.loc 1 239 0
 2236 0144 0232     		adds	r2, r2, #2
 2237              	.LVL376:
 2238              	.L138:
 2239              	.LBE181:
 220:..\..\..\liblc3\src/ltpf.c ****         const int16_t *hn = h + (i % p) * w;
 2240              		.loc 1 220 0
 2241 0146 0EEB8E03 		add	r3, lr, lr, lsl #2
 2242 014a 9942     		cmp	r1, r3
 2243 014c FFF661AF 		blt	.L143
 2244              	.LBE175:
 2245              	.LBE174:
 2246              	.LBE173:
 323:..\..\..\liblc3\src/ltpf.c **** #endif /* resample_16k_12k8 */
 2247              		.loc 1 323 0
 2248 0150 03B0     		add	sp, sp, #12
 2249              		.cfi_def_cfa_offset 36
 2250              		@ sp needed
 2251 0152 BDE8F08F 		pop	{r4, r5, r6, r7, r8, r9, r10, fp, pc}
 2252              	.LVL377:
 2253              	.L146:
 2254 0156 00BF     		.align	2
 2255              	.L145:
 2256 0158 03000080 		.word	-2147483645
 2257 015c 20030000 		.word	.LANCHOR0+800
 2258 0160 C61BE63E 		.word	1055267782
 2259 0164 72C83382 		.word	-2110535566
 2260 0168 DB5DC77D 		.word	2110217691
 2261 016c BFEE2EC2 		.word	-1037111617
 2262              		.cfi_endproc
 2263              	.LFE24:
 2264              		.size	resample_16k_12k8, .-resample_16k_12k8
 2265              		.section	.text.resample_32k_12k8,"ax",%progbits
 2266              		.align	2
 2267              		.thumb
 2268              		.thumb_func
 2269              		.type	resample_32k_12k8, %function
 2270              	resample_32k_12k8:
 2271              	.LFB25:
ARM GAS  C:\Users\rdn\AppData\Local\Temp\cc5zc0m9.s 			page 59


 337:..\..\..\liblc3\src/ltpf.c ****     resample_x64k_12k8(2, h_32k_12k8_q15, hp50, x, y, n);
 2272              		.loc 1 337 0
 2273              		.cfi_startproc
 2274              		@ args = 0, pretend = 0, frame = 8
 2275              		@ frame_needed = 0, uses_anonymous_args = 0
 2276              	.LVL378:
 2277 0000 2DE9F04F 		push	{r4, r5, r6, r7, r8, r9, r10, fp, lr}
 2278              		.cfi_def_cfa_offset 36
 2279              		.cfi_offset 4, -36
 2280              		.cfi_offset 5, -32
 2281              		.cfi_offset 6, -28
 2282              		.cfi_offset 7, -24
 2283              		.cfi_offset 8, -20
 2284              		.cfi_offset 9, -16
 2285              		.cfi_offset 10, -12
 2286              		.cfi_offset 11, -8
 2287              		.cfi_offset 14, -4
 2288 0004 83B0     		sub	sp, sp, #12
 2289              		.cfi_def_cfa_offset 48
 2290 0006 0191     		str	r1, [sp, #4]
 2291 0008 9E46     		mov	lr, r3
 2292              	.LVL379:
 2293              	.LBB189:
 2294              	.LBB190:
 218:..\..\..\liblc3\src/ltpf.c **** 
 2295              		.loc 1 218 0
 2296 000a 6FF04D0C 		mvn	ip, #77
 2297              	.LVL380:
 2298              	.LBB191:
 220:..\..\..\liblc3\src/ltpf.c ****         const int16_t *hn = h + (i % p) * w;
 2299              		.loc 1 220 0
 2300 000e 0021     		movs	r1, #0
 2301              	.LVL381:
 2302 0010 97E0     		b	.L148
 2303              	.LVL382:
 2304              	.L152:
 2305              	.LBB192:
 221:..\..\..\liblc3\src/ltpf.c ****         const int16_t *xn = x + (i / p);
 2306              		.loc 1 221 0
 2307 0012 504B     		ldr	r3, .L154
 2308 0014 0B40     		ands	r3, r1, r3
 2309 0016 03D5     		bpl	.L149
 2310 0018 013B     		subs	r3, r3, #1
 2311 001a 63F00103 		orn	r3, r3, #1
 2312 001e 0133     		adds	r3, r3, #1
 2313              	.L149:
 2314 0020 03EB8303 		add	r3, r3, r3, lsl #2
 2315 0024 DC00     		lsls	r4, r3, #3
 2316 0026 4C4B     		ldr	r3, .L154+4
 2317 0028 03EB4408 		add	r8, r3, r4, lsl #1
 2318              	.LVL383:
 222:..\..\..\liblc3\src/ltpf.c ****         int32_t un = 0;
 2319              		.loc 1 222 0
 2320 002c 01EBD177 		add	r7, r1, r1, lsr #31
 2321 0030 27F00107 		bic	r7, r7, #1
 2322 0034 6744     		add	r7, r7, ip
 2323 0036 019B     		ldr	r3, [sp, #4]
ARM GAS  C:\Users\rdn\AppData\Local\Temp\cc5zc0m9.s 			page 60


 2324 0038 1F44     		add	r7, r7, r3
 2325              	.LVL384:
 2326              	.LBB193:
 225:..\..\..\liblc3\src/ltpf.c ****             un += *(xn++) * *(hn++);
 2327              		.loc 1 225 0
 2328 003a 4FF00009 		mov	r9, #0
 2329              	.LBE193:
 223:..\..\..\liblc3\src/ltpf.c **** 
 2330              		.loc 1 223 0
 2331 003e 4D46     		mov	r5, r9
 2332 0040 40E0     		b	.L150
 2333              	.LVL385:
 2334              	.L151:
 2335              	.LBB194:
 226:..\..\..\liblc3\src/ltpf.c ****             un += *(xn++) * *(hn++);
 2336              		.loc 1 226 0
 2337 0042 B7F90030 		ldrsh	r3, [r7]
 2338              	.LVL386:
 2339 0046 B8F90040 		ldrsh	r4, [r8]
 2340 004a 04FB0355 		mla	r5, r4, r3, r5
 2341              	.LVL387:
 227:..\..\..\liblc3\src/ltpf.c ****             un += *(xn++) * *(hn++);
 2342              		.loc 1 227 0
 2343 004e B7F90230 		ldrsh	r3, [r7, #2]
 2344              	.LVL388:
 2345 0052 B8F90240 		ldrsh	r4, [r8, #2]
 2346 0056 04FB0355 		mla	r5, r4, r3, r5
 2347              	.LVL389:
 228:..\..\..\liblc3\src/ltpf.c ****             un += *(xn++) * *(hn++);
 2348              		.loc 1 228 0
 2349 005a B7F90430 		ldrsh	r3, [r7, #4]
 2350              	.LVL390:
 2351 005e B8F90440 		ldrsh	r4, [r8, #4]
 2352 0062 04FB0355 		mla	r5, r4, r3, r5
 2353              	.LVL391:
 229:..\..\..\liblc3\src/ltpf.c ****             un += *(xn++) * *(hn++);
 2354              		.loc 1 229 0
 2355 0066 B7F90630 		ldrsh	r3, [r7, #6]
 2356              	.LVL392:
 2357 006a B8F90640 		ldrsh	r4, [r8, #6]
 2358 006e 04FB0354 		mla	r4, r4, r3, r5
 2359              	.LVL393:
 230:..\..\..\liblc3\src/ltpf.c ****             un += *(xn++) * *(hn++);
 2360              		.loc 1 230 0
 2361 0072 B7F90830 		ldrsh	r3, [r7, #8]
 2362              	.LVL394:
 2363 0076 B8F90850 		ldrsh	r5, [r8, #8]
 2364 007a 05FB0344 		mla	r4, r5, r3, r4
 2365              	.LVL395:
 231:..\..\..\liblc3\src/ltpf.c ****             un += *(xn++) * *(hn++);
 2366              		.loc 1 231 0
 2367 007e B7F90A30 		ldrsh	r3, [r7, #10]
 2368              	.LVL396:
 2369 0082 B8F90A50 		ldrsh	r5, [r8, #10]
 2370 0086 05FB0344 		mla	r4, r5, r3, r4
 2371              	.LVL397:
 232:..\..\..\liblc3\src/ltpf.c ****             un += *(xn++) * *(hn++);
ARM GAS  C:\Users\rdn\AppData\Local\Temp\cc5zc0m9.s 			page 61


 2372              		.loc 1 232 0
 2373 008a B7F90C30 		ldrsh	r3, [r7, #12]
 2374              	.LVL398:
 2375 008e B8F90C50 		ldrsh	r5, [r8, #12]
 2376 0092 05FB0344 		mla	r4, r5, r3, r4
 2377              	.LVL399:
 233:..\..\..\liblc3\src/ltpf.c ****             un += *(xn++) * *(hn++);
 2378              		.loc 1 233 0
 2379 0096 B7F90E30 		ldrsh	r3, [r7, #14]
 2380              	.LVL400:
 2381 009a B8F90E50 		ldrsh	r5, [r8, #14]
 2382 009e 05FB0345 		mla	r5, r5, r3, r4
 2383              	.LVL401:
 234:..\..\..\liblc3\src/ltpf.c ****             un += *(xn++) * *(hn++);
 2384              		.loc 1 234 0
 2385 00a2 B7F91030 		ldrsh	r3, [r7, #16]
 2386              	.LVL402:
 2387 00a6 B8F91040 		ldrsh	r4, [r8, #16]
 2388 00aa 04FB0354 		mla	r4, r4, r3, r5
 2389              	.LVL403:
 235:..\..\..\liblc3\src/ltpf.c ****         }
 2390              		.loc 1 235 0
 2391 00ae B7F91230 		ldrsh	r3, [r7, #18]
 2392              	.LVL404:
 2393 00b2 B8F91250 		ldrsh	r5, [r8, #18]
 2394 00b6 05FB0345 		mla	r5, r5, r3, r4
 2395              	.LVL405:
 225:..\..\..\liblc3\src/ltpf.c ****             un += *(xn++) * *(hn++);
 2396              		.loc 1 225 0
 2397 00ba 09F10A09 		add	r9, r9, #10
 2398              	.LVL406:
 235:..\..\..\liblc3\src/ltpf.c ****         }
 2399              		.loc 1 235 0
 2400 00be 1437     		adds	r7, r7, #20
 2401              	.LVL407:
 2402 00c0 08F11408 		add	r8, r8, #20
 2403              	.LVL408:
 2404              	.L150:
 225:..\..\..\liblc3\src/ltpf.c ****             un += *(xn++) * *(hn++);
 2405              		.loc 1 225 0
 2406 00c4 B9F1270F 		cmp	r9, #39
 2407 00c8 BBDD     		ble	.L151
 2408              	.LVL409:
 2409              	.LBE194:
 2410              	.LBB195:
 2411              	.LBB196:
 192:..\..\..\liblc3\src/ltpf.c ****     hp50->s1 = (hp50->s2 + (int64_t)xn * b1 - (int64_t)yn * a1);
 2412              		.loc 1 192 0
 2413 00ca D0E90089 		ldrd	r8, [r0]
 2414              	.LVL410:
 2415 00ce EF17     		asrs	r7, r5, #31
 2416              	.LVL411:
 2417 00d0 224B     		ldr	r3, .L154+8
 2418 00d2 A5FB03AB 		umull	r10, fp, r5, r3
 2419 00d6 03FB07BB 		mla	fp, r3, r7, fp
 2420 00da 18EB0A08 		adds	r8, r8, r10
 2421 00de 49EB0B09 		adc	r9, r9, fp
ARM GAS  C:\Users\rdn\AppData\Local\Temp\cc5zc0m9.s 			page 62


 2422              	.LVL412:
 2423 00e2 4FEA9873 		lsr	r3, r8, #30
 2424 00e6 43EA8903 		orr	r3, r3, r9, lsl #2
 2425              	.LVL413:
 193:..\..\..\liblc3\src/ltpf.c ****     hp50->s2 = (           (int64_t)xn * b2 - (int64_t)yn * a2);
 2426              		.loc 1 193 0
 2427 00ea D0E90289 		ldrd	r8, [r0, #8]
 2428 00ee 1C4C     		ldr	r4, .L154+12
 2429 00f0 6E42     		negs	r6, r5
 2430 00f2 04FB0766 		mla	r6, r4, r7, r6
 2431 00f6 A5FB0445 		umull	r4, r5, r5, r4
 2432 00fa 3544     		add	r5, r5, r6
 2433              	.LVL414:
 2434 00fc 18EB0408 		adds	r8, r8, r4
 2435 0100 49EB0509 		adc	r9, r9, r5
 2436 0104 DF17     		asrs	r7, r3, #31
 2437 0106 174E     		ldr	r6, .L154+16
 2438 0108 A3FB0645 		umull	r4, r5, r3, r6
 2439 010c 06FB0755 		mla	r5, r6, r7, r5
 2440 0110 14EB0804 		adds	r4, r4, r8
 2441 0114 45EB0905 		adc	r5, r5, r9
 2442 0118 C0E90045 		strd	r4, [r0]
 194:..\..\..\liblc3\src/ltpf.c **** 
 2443              		.loc 1 194 0
 2444 011c 124C     		ldr	r4, .L154+20
 2445 011e 5E42     		negs	r6, r3
 2446 0120 04FB0766 		mla	r6, r4, r7, r6
 2447 0124 A3FB0445 		umull	r4, r5, r3, r4
 2448 0128 3544     		add	r5, r5, r6
 2449 012a 14EB0A04 		adds	r4, r4, r10
 2450 012e 45EB0B05 		adc	r5, r5, fp
 2451 0132 C0E90245 		strd	r4, [r0, #8]
 2452              	.LVL415:
 2453              	.LBE196:
 2454              	.LBE195:
 239:..\..\..\liblc3\src/ltpf.c ****     }
 2455              		.loc 1 239 0
 2456 0136 03F50043 		add	r3, r3, #32768
 2457 013a 1B14     		asrs	r3, r3, #16
 2458 013c 1380     		strh	r3, [r2]	@ movhi
 2459              	.LBE192:
 220:..\..\..\liblc3\src/ltpf.c ****         const int16_t *hn = h + (i % p) * w;
 2460              		.loc 1 220 0
 2461 013e 0531     		adds	r1, r1, #5
 2462              	.LVL416:
 2463              	.LBB197:
 239:..\..\..\liblc3\src/ltpf.c ****     }
 2464              		.loc 1 239 0
 2465 0140 0232     		adds	r2, r2, #2
 2466              	.LVL417:
 2467              	.L148:
 2468              	.LBE197:
 220:..\..\..\liblc3\src/ltpf.c ****         const int16_t *hn = h + (i % p) * w;
 2469              		.loc 1 220 0
 2470 0142 0EEB8E03 		add	r3, lr, lr, lsl #2
 2471 0146 9942     		cmp	r1, r3
 2472 0148 FFF663AF 		blt	.L152
ARM GAS  C:\Users\rdn\AppData\Local\Temp\cc5zc0m9.s 			page 63


 2473              	.LBE191:
 2474              	.LBE190:
 2475              	.LBE189:
 339:..\..\..\liblc3\src/ltpf.c **** #endif /* resample_32k_12k8 */
 2476              		.loc 1 339 0
 2477 014c 03B0     		add	sp, sp, #12
 2478              		.cfi_def_cfa_offset 36
 2479              		@ sp needed
 2480 014e BDE8F08F 		pop	{r4, r5, r6, r7, r8, r9, r10, fp, pc}
 2481              	.LVL418:
 2482              	.L155:
 2483 0152 00BF     		.align	2
 2484              	.L154:
 2485 0154 01000080 		.word	-2147483647
 2486 0158 C0030000 		.word	.LANCHOR0+960
 2487 015c C61BE63E 		.word	1055267782
 2488 0160 72C83382 		.word	-2110535566
 2489 0164 DB5DC77D 		.word	2110217691
 2490 0168 BFEE2EC2 		.word	-1037111617
 2491              		.cfi_endproc
 2492              	.LFE25:
 2493              		.size	resample_32k_12k8, .-resample_32k_12k8
 2494              		.section	.text.resample_24k_12k8,"ax",%progbits
 2495              		.align	2
 2496              		.thumb
 2497              		.thumb_func
 2498              		.type	resample_24k_12k8, %function
 2499              	resample_24k_12k8:
 2500              	.LFB26:
 353:..\..\..\liblc3\src/ltpf.c ****     resample_x192k_12k8(8, h_24k_12k8_q15, hp50, x, y, n);
 2501              		.loc 1 353 0
 2502              		.cfi_startproc
 2503              		@ args = 0, pretend = 0, frame = 8
 2504              		@ frame_needed = 0, uses_anonymous_args = 0
 2505              	.LVL419:
 2506 0000 2DE9F04F 		push	{r4, r5, r6, r7, r8, r9, r10, fp, lr}
 2507              		.cfi_def_cfa_offset 36
 2508              		.cfi_offset 4, -36
 2509              		.cfi_offset 5, -32
 2510              		.cfi_offset 6, -28
 2511              		.cfi_offset 7, -24
 2512              		.cfi_offset 8, -20
 2513              		.cfi_offset 9, -16
 2514              		.cfi_offset 10, -12
 2515              		.cfi_offset 11, -8
 2516              		.cfi_offset 14, -4
 2517 0004 83B0     		sub	sp, sp, #12
 2518              		.cfi_def_cfa_offset 48
 2519 0006 0191     		str	r1, [sp, #4]
 2520 0008 9E46     		mov	lr, r3
 2521              	.LVL420:
 2522              	.LBB205:
 2523              	.LBB206:
 263:..\..\..\liblc3\src/ltpf.c **** 
 2524              		.loc 1 263 0
 2525 000a 6FF0390C 		mvn	ip, #57
 2526              	.LVL421:
ARM GAS  C:\Users\rdn\AppData\Local\Temp\cc5zc0m9.s 			page 64


 2527              	.LBB207:
 265:..\..\..\liblc3\src/ltpf.c ****         const int16_t *hn = h + (i % p) * w;
 2528              		.loc 1 265 0
 2529 000e 0021     		movs	r1, #0
 2530              	.LVL422:
 2531 0010 B7E0     		b	.L157
 2532              	.LVL423:
 2533              	.L162:
 2534              	.LBB208:
 266:..\..\..\liblc3\src/ltpf.c ****         const int16_t *xn = x + (i / p);
 2535              		.loc 1 266 0
 2536 0012 604B     		ldr	r3, .L164
 2537 0014 0B40     		ands	r3, r1, r3
 2538 0016 03D5     		bpl	.L158
 2539 0018 013B     		subs	r3, r3, #1
 2540 001a 63F00703 		orn	r3, r3, #7
 2541 001e 0133     		adds	r3, r3, #1
 2542              	.L158:
 2543 0020 C3EB0313 		rsb	r3, r3, r3, lsl #4
 2544 0024 5C00     		lsls	r4, r3, #1
 2545 0026 5C4B     		ldr	r3, .L164+4
 2546 0028 03EB4408 		add	r8, r3, r4, lsl #1
 2547              	.LVL424:
 267:..\..\..\liblc3\src/ltpf.c ****         int32_t un = 0;
 2548              		.loc 1 267 0
 2549 002c 0F46     		mov	r7, r1
 2550 002e 0029     		cmp	r1, #0
 2551 0030 00DA     		bge	.L159
 2552 0032 CF1D     		adds	r7, r1, #7
 2553              	.L159:
 2554 0034 FF10     		asrs	r7, r7, #3
 2555 0036 0CEB4707 		add	r7, ip, r7, lsl #1
 2556 003a 019B     		ldr	r3, [sp, #4]
 2557 003c 1F44     		add	r7, r7, r3
 2558              	.LVL425:
 2559              	.LBB209:
 270:..\..\..\liblc3\src/ltpf.c ****             un += *(xn++) * *(hn++);
 2560              		.loc 1 270 0
 2561 003e 4FF00009 		mov	r9, #0
 2562              	.LBE209:
 268:..\..\..\liblc3\src/ltpf.c **** 
 2563              		.loc 1 268 0
 2564 0042 4D46     		mov	r5, r9
 2565 0044 5EE0     		b	.L160
 2566              	.LVL426:
 2567              	.L161:
 2568              	.LBB210:
 271:..\..\..\liblc3\src/ltpf.c ****             un += *(xn++) * *(hn++);
 2569              		.loc 1 271 0
 2570 0046 B7F90030 		ldrsh	r3, [r7]
 2571              	.LVL427:
 2572 004a B8F90040 		ldrsh	r4, [r8]
 2573 004e 04FB0355 		mla	r5, r4, r3, r5
 2574              	.LVL428:
 272:..\..\..\liblc3\src/ltpf.c ****             un += *(xn++) * *(hn++);
 2575              		.loc 1 272 0
 2576 0052 B7F90230 		ldrsh	r3, [r7, #2]
ARM GAS  C:\Users\rdn\AppData\Local\Temp\cc5zc0m9.s 			page 65


 2577              	.LVL429:
 2578 0056 B8F90240 		ldrsh	r4, [r8, #2]
 2579 005a 04FB0355 		mla	r5, r4, r3, r5
 2580              	.LVL430:
 273:..\..\..\liblc3\src/ltpf.c ****             un += *(xn++) * *(hn++);
 2581              		.loc 1 273 0
 2582 005e B7F90430 		ldrsh	r3, [r7, #4]
 2583              	.LVL431:
 2584 0062 B8F90440 		ldrsh	r4, [r8, #4]
 2585 0066 04FB0355 		mla	r5, r4, r3, r5
 2586              	.LVL432:
 274:..\..\..\liblc3\src/ltpf.c ****             un += *(xn++) * *(hn++);
 2587              		.loc 1 274 0
 2588 006a B7F90630 		ldrsh	r3, [r7, #6]
 2589              	.LVL433:
 2590 006e B8F90640 		ldrsh	r4, [r8, #6]
 2591 0072 04FB0354 		mla	r4, r4, r3, r5
 2592              	.LVL434:
 275:..\..\..\liblc3\src/ltpf.c ****             un += *(xn++) * *(hn++);
 2593              		.loc 1 275 0
 2594 0076 B7F90830 		ldrsh	r3, [r7, #8]
 2595              	.LVL435:
 2596 007a B8F90850 		ldrsh	r5, [r8, #8]
 2597 007e 05FB0344 		mla	r4, r5, r3, r4
 2598              	.LVL436:
 276:..\..\..\liblc3\src/ltpf.c ****             un += *(xn++) * *(hn++);
 2599              		.loc 1 276 0
 2600 0082 B7F90A30 		ldrsh	r3, [r7, #10]
 2601              	.LVL437:
 2602 0086 B8F90A50 		ldrsh	r5, [r8, #10]
 2603 008a 05FB0344 		mla	r4, r5, r3, r4
 2604              	.LVL438:
 277:..\..\..\liblc3\src/ltpf.c ****             un += *(xn++) * *(hn++);
 2605              		.loc 1 277 0
 2606 008e B7F90C30 		ldrsh	r3, [r7, #12]
 2607              	.LVL439:
 2608 0092 B8F90C50 		ldrsh	r5, [r8, #12]
 2609 0096 05FB0344 		mla	r4, r5, r3, r4
 2610              	.LVL440:
 278:..\..\..\liblc3\src/ltpf.c ****             un += *(xn++) * *(hn++);
 2611              		.loc 1 278 0
 2612 009a B7F90E30 		ldrsh	r3, [r7, #14]
 2613              	.LVL441:
 2614 009e B8F90E50 		ldrsh	r5, [r8, #14]
 2615 00a2 05FB0344 		mla	r4, r5, r3, r4
 2616              	.LVL442:
 279:..\..\..\liblc3\src/ltpf.c ****             un += *(xn++) * *(hn++);
 2617              		.loc 1 279 0
 2618 00a6 B7F91030 		ldrsh	r3, [r7, #16]
 2619              	.LVL443:
 2620 00aa B8F91050 		ldrsh	r5, [r8, #16]
 2621 00ae 05FB0344 		mla	r4, r5, r3, r4
 2622              	.LVL444:
 280:..\..\..\liblc3\src/ltpf.c ****             un += *(xn++) * *(hn++);
 2623              		.loc 1 280 0
 2624 00b2 B7F91230 		ldrsh	r3, [r7, #18]
 2625              	.LVL445:
ARM GAS  C:\Users\rdn\AppData\Local\Temp\cc5zc0m9.s 			page 66


 2626 00b6 B8F91250 		ldrsh	r5, [r8, #18]
 2627 00ba 05FB0344 		mla	r4, r5, r3, r4
 2628              	.LVL446:
 281:..\..\..\liblc3\src/ltpf.c ****             un += *(xn++) * *(hn++);
 2629              		.loc 1 281 0
 2630 00be B7F91430 		ldrsh	r3, [r7, #20]
 2631              	.LVL447:
 2632 00c2 B8F91450 		ldrsh	r5, [r8, #20]
 2633 00c6 05FB0344 		mla	r4, r5, r3, r4
 2634              	.LVL448:
 282:..\..\..\liblc3\src/ltpf.c ****             un += *(xn++) * *(hn++);
 2635              		.loc 1 282 0
 2636 00ca B7F91630 		ldrsh	r3, [r7, #22]
 2637              	.LVL449:
 2638 00ce B8F91650 		ldrsh	r5, [r8, #22]
 2639 00d2 05FB0344 		mla	r4, r5, r3, r4
 2640              	.LVL450:
 283:..\..\..\liblc3\src/ltpf.c ****             un += *(xn++) * *(hn++);
 2641              		.loc 1 283 0
 2642 00d6 B7F91830 		ldrsh	r3, [r7, #24]
 2643              	.LVL451:
 2644 00da B8F91850 		ldrsh	r5, [r8, #24]
 2645 00de 05FB0345 		mla	r5, r5, r3, r4
 2646              	.LVL452:
 284:..\..\..\liblc3\src/ltpf.c ****             un += *(xn++) * *(hn++);
 2647              		.loc 1 284 0
 2648 00e2 B7F91A30 		ldrsh	r3, [r7, #26]
 2649              	.LVL453:
 2650 00e6 B8F91A40 		ldrsh	r4, [r8, #26]
 2651 00ea 04FB0354 		mla	r4, r4, r3, r5
 2652              	.LVL454:
 285:..\..\..\liblc3\src/ltpf.c ****         }
 2653              		.loc 1 285 0
 2654 00ee B7F91C30 		ldrsh	r3, [r7, #28]
 2655              	.LVL455:
 2656 00f2 B8F91C50 		ldrsh	r5, [r8, #28]
 2657 00f6 05FB0345 		mla	r5, r5, r3, r4
 2658              	.LVL456:
 270:..\..\..\liblc3\src/ltpf.c ****             un += *(xn++) * *(hn++);
 2659              		.loc 1 270 0
 2660 00fa 09F10F09 		add	r9, r9, #15
 2661              	.LVL457:
 285:..\..\..\liblc3\src/ltpf.c ****         }
 2662              		.loc 1 285 0
 2663 00fe 1E37     		adds	r7, r7, #30
 2664              	.LVL458:
 2665 0100 08F11E08 		add	r8, r8, #30
 2666              	.LVL459:
 2667              	.L160:
 270:..\..\..\liblc3\src/ltpf.c ****             un += *(xn++) * *(hn++);
 2668              		.loc 1 270 0
 2669 0104 B9F11D0F 		cmp	r9, #29
 2670 0108 9DDD     		ble	.L161
 2671              	.LVL460:
 2672              	.LBE210:
 2673              	.LBB211:
 2674              	.LBB212:
ARM GAS  C:\Users\rdn\AppData\Local\Temp\cc5zc0m9.s 			page 67


 192:..\..\..\liblc3\src/ltpf.c ****     hp50->s1 = (hp50->s2 + (int64_t)xn * b1 - (int64_t)yn * a1);
 2675              		.loc 1 192 0
 2676 010a D0E90089 		ldrd	r8, [r0]
 2677              	.LVL461:
 2678 010e EF17     		asrs	r7, r5, #31
 2679              	.LVL462:
 2680 0110 224B     		ldr	r3, .L164+8
 2681 0112 A5FB03AB 		umull	r10, fp, r5, r3
 2682 0116 03FB07BB 		mla	fp, r3, r7, fp
 2683 011a 18EB0A08 		adds	r8, r8, r10
 2684 011e 49EB0B09 		adc	r9, r9, fp
 2685              	.LVL463:
 2686 0122 4FEA9873 		lsr	r3, r8, #30
 2687 0126 43EA8903 		orr	r3, r3, r9, lsl #2
 2688              	.LVL464:
 193:..\..\..\liblc3\src/ltpf.c ****     hp50->s2 = (           (int64_t)xn * b2 - (int64_t)yn * a2);
 2689              		.loc 1 193 0
 2690 012a D0E90289 		ldrd	r8, [r0, #8]
 2691 012e 1C4C     		ldr	r4, .L164+12
 2692 0130 6E42     		negs	r6, r5
 2693 0132 04FB0766 		mla	r6, r4, r7, r6
 2694 0136 A5FB0445 		umull	r4, r5, r5, r4
 2695 013a 3544     		add	r5, r5, r6
 2696              	.LVL465:
 2697 013c 18EB0408 		adds	r8, r8, r4
 2698 0140 49EB0509 		adc	r9, r9, r5
 2699 0144 DF17     		asrs	r7, r3, #31
 2700 0146 174E     		ldr	r6, .L164+16
 2701 0148 A3FB0645 		umull	r4, r5, r3, r6
 2702 014c 06FB0755 		mla	r5, r6, r7, r5
 2703 0150 14EB0804 		adds	r4, r4, r8
 2704 0154 45EB0905 		adc	r5, r5, r9
 2705 0158 C0E90045 		strd	r4, [r0]
 194:..\..\..\liblc3\src/ltpf.c **** 
 2706              		.loc 1 194 0
 2707 015c 124C     		ldr	r4, .L164+20
 2708 015e 5E42     		negs	r6, r3
 2709 0160 04FB0766 		mla	r6, r4, r7, r6
 2710 0164 A3FB0445 		umull	r4, r5, r3, r4
 2711 0168 3544     		add	r5, r5, r6
 2712 016a 14EB0A04 		adds	r4, r4, r10
 2713 016e 45EB0B05 		adc	r5, r5, fp
 2714 0172 C0E90245 		strd	r4, [r0, #8]
 2715              	.LVL466:
 2716              	.LBE212:
 2717              	.LBE211:
 289:..\..\..\liblc3\src/ltpf.c ****     }
 2718              		.loc 1 289 0
 2719 0176 03F50043 		add	r3, r3, #32768
 2720 017a 1B14     		asrs	r3, r3, #16
 2721 017c 1380     		strh	r3, [r2]	@ movhi
 2722              	.LBE208:
 265:..\..\..\liblc3\src/ltpf.c ****         const int16_t *hn = h + (i % p) * w;
 2723              		.loc 1 265 0
 2724 017e 0F31     		adds	r1, r1, #15
 2725              	.LVL467:
 2726              	.LBB213:
ARM GAS  C:\Users\rdn\AppData\Local\Temp\cc5zc0m9.s 			page 68


 289:..\..\..\liblc3\src/ltpf.c ****     }
 2727              		.loc 1 289 0
 2728 0180 0232     		adds	r2, r2, #2
 2729              	.LVL468:
 2730              	.L157:
 2731              	.LBE213:
 265:..\..\..\liblc3\src/ltpf.c ****         const int16_t *hn = h + (i % p) * w;
 2732              		.loc 1 265 0
 2733 0182 CEEB0E13 		rsb	r3, lr, lr, lsl #4
 2734 0186 9942     		cmp	r1, r3
 2735 0188 FFF643AF 		blt	.L162
 2736              	.LBE207:
 2737              	.LBE206:
 2738              	.LBE205:
 355:..\..\..\liblc3\src/ltpf.c **** #endif /* resample_24k_12k8 */
 2739              		.loc 1 355 0
 2740 018c 03B0     		add	sp, sp, #12
 2741              		.cfi_def_cfa_offset 36
 2742              		@ sp needed
 2743 018e BDE8F08F 		pop	{r4, r5, r6, r7, r8, r9, r10, fp, pc}
 2744              	.LVL469:
 2745              	.L165:
 2746 0192 00BF     		.align	2
 2747              	.L164:
 2748 0194 07000080 		.word	-2147483641
 2749 0198 60040000 		.word	.LANCHOR0+1120
 2750 019c C61BE63E 		.word	1055267782
 2751 01a0 72C83382 		.word	-2110535566
 2752 01a4 DB5DC77D 		.word	2110217691
 2753 01a8 BFEE2EC2 		.word	-1037111617
 2754              		.cfi_endproc
 2755              	.LFE26:
 2756              		.size	resample_24k_12k8, .-resample_24k_12k8
 2757              		.section	.text.resample_48k_12k8,"ax",%progbits
 2758              		.align	2
 2759              		.thumb
 2760              		.thumb_func
 2761              		.type	resample_48k_12k8, %function
 2762              	resample_48k_12k8:
 2763              	.LFB27:
 369:..\..\..\liblc3\src/ltpf.c ****     resample_x192k_12k8(4, h_48k_12k8_q15, hp50, x, y, n);
 2764              		.loc 1 369 0
 2765              		.cfi_startproc
 2766              		@ args = 0, pretend = 0, frame = 8
 2767              		@ frame_needed = 0, uses_anonymous_args = 0
 2768              	.LVL470:
 2769 0000 2DE9F04F 		push	{r4, r5, r6, r7, r8, r9, r10, fp, lr}
 2770              		.cfi_def_cfa_offset 36
 2771              		.cfi_offset 4, -36
 2772              		.cfi_offset 5, -32
 2773              		.cfi_offset 6, -28
 2774              		.cfi_offset 7, -24
 2775              		.cfi_offset 8, -20
 2776              		.cfi_offset 9, -16
 2777              		.cfi_offset 10, -12
 2778              		.cfi_offset 11, -8
 2779              		.cfi_offset 14, -4
ARM GAS  C:\Users\rdn\AppData\Local\Temp\cc5zc0m9.s 			page 69


 2780 0004 83B0     		sub	sp, sp, #12
 2781              		.cfi_def_cfa_offset 48
 2782 0006 0191     		str	r1, [sp, #4]
 2783 0008 9E46     		mov	lr, r3
 2784              	.LVL471:
 2785              	.LBB221:
 2786              	.LBB222:
 263:..\..\..\liblc3\src/ltpf.c **** 
 2787              		.loc 1 263 0
 2788 000a 6FF0750C 		mvn	ip, #117
 2789              	.LVL472:
 2790              	.LBB223:
 265:..\..\..\liblc3\src/ltpf.c ****         const int16_t *hn = h + (i % p) * w;
 2791              		.loc 1 265 0
 2792 000e 0021     		movs	r1, #0
 2793              	.LVL473:
 2794 0010 B7E0     		b	.L167
 2795              	.LVL474:
 2796              	.L172:
 2797              	.LBB224:
 266:..\..\..\liblc3\src/ltpf.c ****         const int16_t *xn = x + (i / p);
 2798              		.loc 1 266 0
 2799 0012 604B     		ldr	r3, .L174
 2800 0014 0B40     		ands	r3, r1, r3
 2801 0016 03D5     		bpl	.L168
 2802 0018 013B     		subs	r3, r3, #1
 2803 001a 63F00303 		orn	r3, r3, #3
 2804 001e 0133     		adds	r3, r3, #1
 2805              	.L168:
 2806 0020 C3EB0313 		rsb	r3, r3, r3, lsl #4
 2807 0024 9C00     		lsls	r4, r3, #2
 2808 0026 5C4B     		ldr	r3, .L174+4
 2809 0028 03EB4408 		add	r8, r3, r4, lsl #1
 2810              	.LVL475:
 267:..\..\..\liblc3\src/ltpf.c ****         int32_t un = 0;
 2811              		.loc 1 267 0
 2812 002c 0F46     		mov	r7, r1
 2813 002e 0029     		cmp	r1, #0
 2814 0030 00DA     		bge	.L169
 2815 0032 CF1C     		adds	r7, r1, #3
 2816              	.L169:
 2817 0034 BF10     		asrs	r7, r7, #2
 2818 0036 0CEB4707 		add	r7, ip, r7, lsl #1
 2819 003a 019B     		ldr	r3, [sp, #4]
 2820 003c 1F44     		add	r7, r7, r3
 2821              	.LVL476:
 2822              	.LBB225:
 270:..\..\..\liblc3\src/ltpf.c ****             un += *(xn++) * *(hn++);
 2823              		.loc 1 270 0
 2824 003e 4FF00009 		mov	r9, #0
 2825              	.LBE225:
 268:..\..\..\liblc3\src/ltpf.c **** 
 2826              		.loc 1 268 0
 2827 0042 4D46     		mov	r5, r9
 2828 0044 5EE0     		b	.L170
 2829              	.LVL477:
 2830              	.L171:
ARM GAS  C:\Users\rdn\AppData\Local\Temp\cc5zc0m9.s 			page 70


 2831              	.LBB226:
 271:..\..\..\liblc3\src/ltpf.c ****             un += *(xn++) * *(hn++);
 2832              		.loc 1 271 0
 2833 0046 B7F90030 		ldrsh	r3, [r7]
 2834              	.LVL478:
 2835 004a B8F90040 		ldrsh	r4, [r8]
 2836 004e 04FB0355 		mla	r5, r4, r3, r5
 2837              	.LVL479:
 272:..\..\..\liblc3\src/ltpf.c ****             un += *(xn++) * *(hn++);
 2838              		.loc 1 272 0
 2839 0052 B7F90230 		ldrsh	r3, [r7, #2]
 2840              	.LVL480:
 2841 0056 B8F90240 		ldrsh	r4, [r8, #2]
 2842 005a 04FB0355 		mla	r5, r4, r3, r5
 2843              	.LVL481:
 273:..\..\..\liblc3\src/ltpf.c ****             un += *(xn++) * *(hn++);
 2844              		.loc 1 273 0
 2845 005e B7F90430 		ldrsh	r3, [r7, #4]
 2846              	.LVL482:
 2847 0062 B8F90440 		ldrsh	r4, [r8, #4]
 2848 0066 04FB0355 		mla	r5, r4, r3, r5
 2849              	.LVL483:
 274:..\..\..\liblc3\src/ltpf.c ****             un += *(xn++) * *(hn++);
 2850              		.loc 1 274 0
 2851 006a B7F90630 		ldrsh	r3, [r7, #6]
 2852              	.LVL484:
 2853 006e B8F90640 		ldrsh	r4, [r8, #6]
 2854 0072 04FB0354 		mla	r4, r4, r3, r5
 2855              	.LVL485:
 275:..\..\..\liblc3\src/ltpf.c ****             un += *(xn++) * *(hn++);
 2856              		.loc 1 275 0
 2857 0076 B7F90830 		ldrsh	r3, [r7, #8]
 2858              	.LVL486:
 2859 007a B8F90850 		ldrsh	r5, [r8, #8]
 2860 007e 05FB0344 		mla	r4, r5, r3, r4
 2861              	.LVL487:
 276:..\..\..\liblc3\src/ltpf.c ****             un += *(xn++) * *(hn++);
 2862              		.loc 1 276 0
 2863 0082 B7F90A30 		ldrsh	r3, [r7, #10]
 2864              	.LVL488:
 2865 0086 B8F90A50 		ldrsh	r5, [r8, #10]
 2866 008a 05FB0344 		mla	r4, r5, r3, r4
 2867              	.LVL489:
 277:..\..\..\liblc3\src/ltpf.c ****             un += *(xn++) * *(hn++);
 2868              		.loc 1 277 0
 2869 008e B7F90C30 		ldrsh	r3, [r7, #12]
 2870              	.LVL490:
 2871 0092 B8F90C50 		ldrsh	r5, [r8, #12]
 2872 0096 05FB0344 		mla	r4, r5, r3, r4
 2873              	.LVL491:
 278:..\..\..\liblc3\src/ltpf.c ****             un += *(xn++) * *(hn++);
 2874              		.loc 1 278 0
 2875 009a B7F90E30 		ldrsh	r3, [r7, #14]
 2876              	.LVL492:
 2877 009e B8F90E50 		ldrsh	r5, [r8, #14]
 2878 00a2 05FB0344 		mla	r4, r5, r3, r4
 2879              	.LVL493:
ARM GAS  C:\Users\rdn\AppData\Local\Temp\cc5zc0m9.s 			page 71


 279:..\..\..\liblc3\src/ltpf.c ****             un += *(xn++) * *(hn++);
 2880              		.loc 1 279 0
 2881 00a6 B7F91030 		ldrsh	r3, [r7, #16]
 2882              	.LVL494:
 2883 00aa B8F91050 		ldrsh	r5, [r8, #16]
 2884 00ae 05FB0344 		mla	r4, r5, r3, r4
 2885              	.LVL495:
 280:..\..\..\liblc3\src/ltpf.c ****             un += *(xn++) * *(hn++);
 2886              		.loc 1 280 0
 2887 00b2 B7F91230 		ldrsh	r3, [r7, #18]
 2888              	.LVL496:
 2889 00b6 B8F91250 		ldrsh	r5, [r8, #18]
 2890 00ba 05FB0344 		mla	r4, r5, r3, r4
 2891              	.LVL497:
 281:..\..\..\liblc3\src/ltpf.c ****             un += *(xn++) * *(hn++);
 2892              		.loc 1 281 0
 2893 00be B7F91430 		ldrsh	r3, [r7, #20]
 2894              	.LVL498:
 2895 00c2 B8F91450 		ldrsh	r5, [r8, #20]
 2896 00c6 05FB0344 		mla	r4, r5, r3, r4
 2897              	.LVL499:
 282:..\..\..\liblc3\src/ltpf.c ****             un += *(xn++) * *(hn++);
 2898              		.loc 1 282 0
 2899 00ca B7F91630 		ldrsh	r3, [r7, #22]
 2900              	.LVL500:
 2901 00ce B8F91650 		ldrsh	r5, [r8, #22]
 2902 00d2 05FB0344 		mla	r4, r5, r3, r4
 2903              	.LVL501:
 283:..\..\..\liblc3\src/ltpf.c ****             un += *(xn++) * *(hn++);
 2904              		.loc 1 283 0
 2905 00d6 B7F91830 		ldrsh	r3, [r7, #24]
 2906              	.LVL502:
 2907 00da B8F91850 		ldrsh	r5, [r8, #24]
 2908 00de 05FB0345 		mla	r5, r5, r3, r4
 2909              	.LVL503:
 284:..\..\..\liblc3\src/ltpf.c ****             un += *(xn++) * *(hn++);
 2910              		.loc 1 284 0
 2911 00e2 B7F91A30 		ldrsh	r3, [r7, #26]
 2912              	.LVL504:
 2913 00e6 B8F91A40 		ldrsh	r4, [r8, #26]
 2914 00ea 04FB0354 		mla	r4, r4, r3, r5
 2915              	.LVL505:
 285:..\..\..\liblc3\src/ltpf.c ****         }
 2916              		.loc 1 285 0
 2917 00ee B7F91C30 		ldrsh	r3, [r7, #28]
 2918              	.LVL506:
 2919 00f2 B8F91C50 		ldrsh	r5, [r8, #28]
 2920 00f6 05FB0345 		mla	r5, r5, r3, r4
 2921              	.LVL507:
 270:..\..\..\liblc3\src/ltpf.c ****             un += *(xn++) * *(hn++);
 2922              		.loc 1 270 0
 2923 00fa 09F10F09 		add	r9, r9, #15
 2924              	.LVL508:
 285:..\..\..\liblc3\src/ltpf.c ****         }
 2925              		.loc 1 285 0
 2926 00fe 1E37     		adds	r7, r7, #30
 2927              	.LVL509:
ARM GAS  C:\Users\rdn\AppData\Local\Temp\cc5zc0m9.s 			page 72


 2928 0100 08F11E08 		add	r8, r8, #30
 2929              	.LVL510:
 2930              	.L170:
 270:..\..\..\liblc3\src/ltpf.c ****             un += *(xn++) * *(hn++);
 2931              		.loc 1 270 0
 2932 0104 B9F13B0F 		cmp	r9, #59
 2933 0108 9DDD     		ble	.L171
 2934              	.LVL511:
 2935              	.LBE226:
 2936              	.LBB227:
 2937              	.LBB228:
 192:..\..\..\liblc3\src/ltpf.c ****     hp50->s1 = (hp50->s2 + (int64_t)xn * b1 - (int64_t)yn * a1);
 2938              		.loc 1 192 0
 2939 010a D0E90089 		ldrd	r8, [r0]
 2940              	.LVL512:
 2941 010e EF17     		asrs	r7, r5, #31
 2942              	.LVL513:
 2943 0110 224B     		ldr	r3, .L174+8
 2944 0112 A5FB03AB 		umull	r10, fp, r5, r3
 2945 0116 03FB07BB 		mla	fp, r3, r7, fp
 2946 011a 18EB0A08 		adds	r8, r8, r10
 2947 011e 49EB0B09 		adc	r9, r9, fp
 2948              	.LVL514:
 2949 0122 4FEA9873 		lsr	r3, r8, #30
 2950 0126 43EA8903 		orr	r3, r3, r9, lsl #2
 2951              	.LVL515:
 193:..\..\..\liblc3\src/ltpf.c ****     hp50->s2 = (           (int64_t)xn * b2 - (int64_t)yn * a2);
 2952              		.loc 1 193 0
 2953 012a D0E90289 		ldrd	r8, [r0, #8]
 2954 012e 1C4C     		ldr	r4, .L174+12
 2955 0130 6E42     		negs	r6, r5
 2956 0132 04FB0766 		mla	r6, r4, r7, r6
 2957 0136 A5FB0445 		umull	r4, r5, r5, r4
 2958 013a 3544     		add	r5, r5, r6
 2959              	.LVL516:
 2960 013c 18EB0408 		adds	r8, r8, r4
 2961 0140 49EB0509 		adc	r9, r9, r5
 2962 0144 DF17     		asrs	r7, r3, #31
 2963 0146 174E     		ldr	r6, .L174+16
 2964 0148 A3FB0645 		umull	r4, r5, r3, r6
 2965 014c 06FB0755 		mla	r5, r6, r7, r5
 2966 0150 14EB0804 		adds	r4, r4, r8
 2967 0154 45EB0905 		adc	r5, r5, r9
 2968 0158 C0E90045 		strd	r4, [r0]
 194:..\..\..\liblc3\src/ltpf.c **** 
 2969              		.loc 1 194 0
 2970 015c 124C     		ldr	r4, .L174+20
 2971 015e 5E42     		negs	r6, r3
 2972 0160 04FB0766 		mla	r6, r4, r7, r6
 2973 0164 A3FB0445 		umull	r4, r5, r3, r4
 2974 0168 3544     		add	r5, r5, r6
 2975 016a 14EB0A04 		adds	r4, r4, r10
 2976 016e 45EB0B05 		adc	r5, r5, fp
 2977 0172 C0E90245 		strd	r4, [r0, #8]
 2978              	.LVL517:
 2979              	.LBE228:
 2980              	.LBE227:
ARM GAS  C:\Users\rdn\AppData\Local\Temp\cc5zc0m9.s 			page 73


 289:..\..\..\liblc3\src/ltpf.c ****     }
 2981              		.loc 1 289 0
 2982 0176 03F50043 		add	r3, r3, #32768
 2983 017a 1B14     		asrs	r3, r3, #16
 2984 017c 1380     		strh	r3, [r2]	@ movhi
 2985              	.LBE224:
 265:..\..\..\liblc3\src/ltpf.c ****         const int16_t *hn = h + (i % p) * w;
 2986              		.loc 1 265 0
 2987 017e 0F31     		adds	r1, r1, #15
 2988              	.LVL518:
 2989              	.LBB229:
 289:..\..\..\liblc3\src/ltpf.c ****     }
 2990              		.loc 1 289 0
 2991 0180 0232     		adds	r2, r2, #2
 2992              	.LVL519:
 2993              	.L167:
 2994              	.LBE229:
 265:..\..\..\liblc3\src/ltpf.c ****         const int16_t *hn = h + (i % p) * w;
 2995              		.loc 1 265 0
 2996 0182 CEEB0E13 		rsb	r3, lr, lr, lsl #4
 2997 0186 9942     		cmp	r1, r3
 2998 0188 FFF643AF 		blt	.L172
 2999              	.LBE223:
 3000              	.LBE222:
 3001              	.LBE221:
 371:..\..\..\liblc3\src/ltpf.c **** #endif /* resample_48k_12k8 */
 3002              		.loc 1 371 0
 3003 018c 03B0     		add	sp, sp, #12
 3004              		.cfi_def_cfa_offset 36
 3005              		@ sp needed
 3006 018e BDE8F08F 		pop	{r4, r5, r6, r7, r8, r9, r10, fp, pc}
 3007              	.LVL520:
 3008              	.L175:
 3009 0192 00BF     		.align	2
 3010              	.L174:
 3011 0194 03000080 		.word	-2147483645
 3012 0198 40060000 		.word	.LANCHOR0+1600
 3013 019c C61BE63E 		.word	1055267782
 3014 01a0 72C83382 		.word	-2110535566
 3015 01a4 DB5DC77D 		.word	2110217691
 3016 01a8 BFEE2EC2 		.word	-1037111617
 3017              		.cfi_endproc
 3018              	.LFE27:
 3019              		.size	resample_48k_12k8, .-resample_48k_12k8
 3020              		.section	.text.synthesize_12,"ax",%progbits
 3021              		.align	2
 3022              		.thumb
 3023              		.thumb_func
 3024              		.type	synthesize_12, %function
 3025              	synthesize_12:
 3026              	.LFB43:
 834:..\..\..\liblc3\src/ltpf.c **** 
 835:..\..\..\liblc3\src/ltpf.c **** LC3_HOT static void synthesize_12(const float *xh, int nh, int lag,
 836:..\..\..\liblc3\src/ltpf.c ****     const float *x0, float *x, int n, const float *c, int fade)
 837:..\..\..\liblc3\src/ltpf.c **** {
 3027              		.loc 1 837 0
 3028              		.cfi_startproc
ARM GAS  C:\Users\rdn\AppData\Local\Temp\cc5zc0m9.s 			page 74


 3029              		@ args = 16, pretend = 0, frame = 96
 3030              		@ frame_needed = 0, uses_anonymous_args = 0
 3031              	.LVL521:
 3032 0000 2DE9F043 		push	{r4, r5, r6, r7, r8, r9, lr}
 3033              		.cfi_def_cfa_offset 28
 3034              		.cfi_offset 4, -28
 3035              		.cfi_offset 5, -24
 3036              		.cfi_offset 6, -20
 3037              		.cfi_offset 7, -16
 3038              		.cfi_offset 8, -12
 3039              		.cfi_offset 9, -8
 3040              		.cfi_offset 14, -4
 3041 0004 99B0     		sub	sp, sp, #100
 3042              		.cfi_def_cfa_offset 128
 3043 0006 209D     		ldr	r5, [sp, #128]
 3044 0008 DDF884E0 		ldr	lr, [sp, #132]
 3045 000c 229C     		ldr	r4, [sp, #136]
 3046 000e 239F     		ldr	r7, [sp, #140]
 3047              	.LVL522:
 3048              	.LBB241:
 3049              	.LBB242:
 766:..\..\..\liblc3\src/ltpf.c ****     float g_incr = (float)((fade > 0) - (fade < 0)) / n;
 3050              		.loc 1 766 0
 3051 0010 002F     		cmp	r7, #0
 3052 0012 02DC     		bgt	.L195
 3053 0014 F7EE005A 		vmov.f32	s11, #1.0e+0
 3054 0018 01E0     		b	.L177
 3055              	.L195:
 3056 001a DFED735A 		vldr.32	s11, .L200
 3057              	.L177:
 3058              	.LVL523:
 767:..\..\..\liblc3\src/ltpf.c ****     float u[MAX_FILTER_WIDTH];
 3059              		.loc 1 767 0
 3060 001e FE0F     		lsrs	r6, r7, #31
 3061 0020 002F     		cmp	r7, #0
 3062 0022 D4BF     		ite	le
 3063 0024 7642     		rsble	r6, r6, #0
 3064 0026 C6F10106 		rsbgt	r6, r6, #1
 3065 002a 07EE906A 		vmov	s15, r6	@ int
 3066 002e F8EEE77A 		vcvt.f32.s32	s15, s15
 3067 0032 07EE10EA 		vmov	s14, lr	@ int
 3068 0036 B8EEC77A 		vcvt.f32.s32	s14, s14
 3069 003a 87EE875A 		vdiv.f32	s10, s15, s14
 3070              	.LVL524:
 772:..\..\..\liblc3\src/ltpf.c **** 
 3071              		.loc 1 772 0
 3072 003e 961D     		adds	r6, r2, #6
 3073              	.LVL525:
 774:..\..\..\liblc3\src/ltpf.c ****     const float *y_end = xh + nh - 1;
 3074              		.loc 1 774 0
 3075 0040 2A1A     		subs	r2, r5, r0
 3076              	.LVL526:
 3077 0042 B6EBA20F 		cmp	r6, r2, asr #2
 3078 0046 03DD     		ble	.L178
 3079 0048 8E1B     		subs	r6, r1, r6
 3080              	.LVL527:
 3081 004a 05EB8606 		add	r6, r5, r6, lsl #2
ARM GAS  C:\Users\rdn\AppData\Local\Temp\cc5zc0m9.s 			page 75


 3082 004e 01E0     		b	.L179
 3083              	.LVL528:
 3084              	.L178:
 3085 0050 A5EB8606 		sub	r6, r5, r6, lsl #2
 3086              	.LVL529:
 3087              	.L179:
 775:..\..\..\liblc3\src/ltpf.c **** 
 3088              		.loc 1 775 0
 3089 0054 01F18041 		add	r1, r1, #1073741824
 3090              	.LVL530:
 3091 0058 0139     		subs	r1, r1, #1
 3092              	.LVL531:
 3093 005a 00EB8101 		add	r1, r0, r1, lsl #2
 3094              	.LVL532:
 3095              	.LBB243:
 777:..\..\..\liblc3\src/ltpf.c **** 
 3096              		.loc 1 777 0
 3097 005e 0027     		movs	r7, #0
 3098              	.LVL533:
 3099 0060 41E0     		b	.L180
 3100              	.LVL534:
 3101              	.L186:
 3102              	.LBB244:
 779:..\..\..\liblc3\src/ltpf.c **** 
 3103              		.loc 1 779 0
 3104 0062 4FF0000C 		mov	ip, #0
 3105 0066 18AA     		add	r2, sp, #96
 3106 0068 02EB8702 		add	r2, r2, r7, lsl #2
 3107 006c 42F860CC 		str	ip, [r2, #-96]	@ float
 781:..\..\..\liblc3\src/ltpf.c ****         y = y < y_end ? y + 1 : xh;
 3108              		.loc 1 781 0
 3109 0070 96ED006A 		vldr.32	s12, [r6]
 3110              	.LVL535:
 3111 0074 03F1040C 		add	ip, r3, #4
 3112              	.LVL536:
 3113 0078 D3ED006A 		vldr.32	s13, [r3]
 3114              	.LVL537:
 782:..\..\..\liblc3\src/ltpf.c **** 
 3115              		.loc 1 782 0
 3116 007c B142     		cmp	r1, r6
 3117 007e 01D9     		bls	.L196
 3118 0080 0436     		adds	r6, r6, #4
 3119              	.LVL538:
 3120 0082 00E0     		b	.L181
 3121              	.LVL539:
 3122              	.L196:
 3123 0084 0646     		mov	r6, r0
 3124              	.LVL540:
 3125              	.L181:
 3126              	.LBB245:
 784:..\..\..\liblc3\src/ltpf.c ****             u[j-k] -= yi * c[k];
 3127              		.loc 1 784 0
 3128 0086 0023     		movs	r3, #0
 3129 0088 11E0     		b	.L182
 3130              	.LVL541:
 3131              	.L183:
 785:..\..\..\liblc3\src/ltpf.c **** 
ARM GAS  C:\Users\rdn\AppData\Local\Temp\cc5zc0m9.s 			page 76


 3132              		.loc 1 785 0
 3133 008a FA1A     		subs	r2, r7, r3
 3134 008c 04EB8308 		add	r8, r4, r3, lsl #2
 3135 0090 D8ED007A 		vldr.32	s15, [r8]
 3136 0094 26EE277A 		vmul.f32	s14, s12, s15
 3137 0098 0DF16008 		add	r8, sp, #96
 3138 009c 08EB8202 		add	r2, r8, r2, lsl #2
 3139 00a0 52ED187A 		vldr.32	s15, [r2, #-96]
 3140 00a4 77EEC77A 		vsub.f32	s15, s15, s14
 3141 00a8 42ED187A 		vstr.32	s15, [r2, #-96]
 784:..\..\..\liblc3\src/ltpf.c ****             u[j-k] -= yi * c[k];
 3142              		.loc 1 784 0
 3143 00ac 0133     		adds	r3, r3, #1
 3144              	.LVL542:
 3145              	.L182:
 3146 00ae 9F42     		cmp	r7, r3
 3147 00b0 EBDA     		bge	.L183
 3148 00b2 0023     		movs	r3, #0
 3149              	.LVL543:
 3150 00b4 13E0     		b	.L184
 3151              	.LVL544:
 3152              	.L185:
 3153              	.LBE245:
 3154              	.LBB246:
 788:..\..\..\liblc3\src/ltpf.c ****     }
 3155              		.loc 1 788 0
 3156 00b6 FA1A     		subs	r2, r7, r3
 3157 00b8 03F10C08 		add	r8, r3, #12
 3158 00bc 04EB8808 		add	r8, r4, r8, lsl #2
 3159 00c0 D8ED007A 		vldr.32	s15, [r8]
 3160 00c4 26EEA77A 		vmul.f32	s14, s13, s15
 3161 00c8 0DF16008 		add	r8, sp, #96
 3162 00cc 08EB8202 		add	r2, r8, r2, lsl #2
 3163 00d0 52ED187A 		vldr.32	s15, [r2, #-96]
 3164 00d4 77EE877A 		vadd.f32	s15, s15, s14
 3165 00d8 42ED187A 		vstr.32	s15, [r2, #-96]
 787:..\..\..\liblc3\src/ltpf.c ****             u[j-k] += xi * c[w+k];
 3166              		.loc 1 787 0
 3167 00dc 0133     		adds	r3, r3, #1
 3168              	.LVL545:
 3169              	.L184:
 3170 00de 9F42     		cmp	r7, r3
 3171 00e0 E9DA     		bge	.L185
 3172              	.LBE246:
 3173              	.LBE244:
 777:..\..\..\liblc3\src/ltpf.c **** 
 3174              		.loc 1 777 0
 3175 00e2 0137     		adds	r7, r7, #1
 3176              	.LVL546:
 3177              	.LBB247:
 781:..\..\..\liblc3\src/ltpf.c ****         y = y < y_end ? y + 1 : xh;
 3178              		.loc 1 781 0
 3179 00e4 6346     		mov	r3, ip
 3180              	.LVL547:
 3181              	.L180:
 3182              	.LBE247:
 777:..\..\..\liblc3\src/ltpf.c **** 
ARM GAS  C:\Users\rdn\AppData\Local\Temp\cc5zc0m9.s 			page 77


 3183              		.loc 1 777 0
 3184 00e6 0A2F     		cmp	r7, #10
 3185 00e8 BBDD     		ble	.L186
 3186              	.LBE243:
 791:..\..\..\liblc3\src/ltpf.c **** 
 3187              		.loc 1 791 0
 3188 00ea 0023     		movs	r3, #0
 3189              	.LVL548:
 3190 00ec 0B93     		str	r3, [sp, #44]	@ float
 3191              	.LVL549:
 3192              	.LBB248:
 795:..\..\..\liblc3\src/ltpf.c ****         for (int j = 0; j < w; j++, g += g_incr) {
 3193              		.loc 1 795 0
 3194 00ee 0027     		movs	r7, #0
 3195              	.LVL550:
 3196 00f0 74E0     		b	.L187
 3197              	.LVL551:
 3198              	.L193:
 3199              	.LBB249:
 3200              	.LBB250:
 798:..\..\..\liblc3\src/ltpf.c ****             y = y < y_end ? y + 1 : xh;
 3201              		.loc 1 798 0
 3202 00f2 96ED006A 		vldr.32	s12, [r6]
 3203              	.LVL552:
 3204 00f6 D5ED006A 		vldr.32	s13, [r5]
 3205              	.LVL553:
 799:..\..\..\liblc3\src/ltpf.c **** 
 3206              		.loc 1 799 0
 3207 00fa B142     		cmp	r1, r6
 3208 00fc 01D9     		bls	.L197
 3209 00fe 0436     		adds	r6, r6, #4
 3210              	.LVL554:
 3211 0100 00E0     		b	.L188
 3212              	.LVL555:
 3213              	.L197:
 3214 0102 0646     		mov	r6, r0
 3215              	.LVL556:
 3216              	.L188:
 3217              	.LBB251:
 801:..\..\..\liblc3\src/ltpf.c ****                 u[(j+(w-1)-k)%w] -= yi * c[k];
 3218              		.loc 1 801 0
 3219 0104 4FF00008 		mov	r8, #0
 3220 0108 22E0     		b	.L189
 3221              	.LVL557:
 3222              	.L190:
 802:..\..\..\liblc3\src/ltpf.c **** 
 3223              		.loc 1 802 0
 3224 010a 02F10B0C 		add	ip, r2, #11
 3225 010e C8EB0C0C 		rsb	ip, r8, ip
 3226 0112 364B     		ldr	r3, .L200+4
 3227 0114 83FB0C39 		smull	r3, r9, r3, ip
 3228 0118 4FEAEC73 		asr	r3, ip, #31
 3229 011c C3EB6903 		rsb	r3, r3, r9, asr #1
 3230 0120 03EB4303 		add	r3, r3, r3, lsl #1
 3231 0124 4FEA8309 		lsl	r9, r3, #2
 3232 0128 C9EB0C03 		rsb	r3, r9, ip
 3233 012c 04EB880C 		add	ip, r4, r8, lsl #2
ARM GAS  C:\Users\rdn\AppData\Local\Temp\cc5zc0m9.s 			page 78


 3234 0130 DCED007A 		vldr.32	s15, [ip]
 3235 0134 26EE277A 		vmul.f32	s14, s12, s15
 3236 0138 0DF1600C 		add	ip, sp, #96
 3237 013c 0CEB8303 		add	r3, ip, r3, lsl #2
 3238 0140 53ED187A 		vldr.32	s15, [r3, #-96]
 3239 0144 77EEC77A 		vsub.f32	s15, s15, s14
 3240 0148 43ED187A 		vstr.32	s15, [r3, #-96]
 801:..\..\..\liblc3\src/ltpf.c ****                 u[(j+(w-1)-k)%w] -= yi * c[k];
 3241              		.loc 1 801 0
 3242 014c 08F10108 		add	r8, r8, #1
 3243              	.LVL558:
 3244              	.L189:
 3245 0150 B8F10B0F 		cmp	r8, #11
 3246 0154 D9DD     		ble	.L190
 3247 0156 4FF00008 		mov	r8, #0
 3248              	.LVL559:
 3249 015a 24E0     		b	.L191
 3250              	.LVL560:
 3251              	.L192:
 3252              	.LBE251:
 3253              	.LBB252:
 805:..\..\..\liblc3\src/ltpf.c **** 
 3254              		.loc 1 805 0
 3255 015c 02F10B0C 		add	ip, r2, #11
 3256 0160 C8EB0C0C 		rsb	ip, r8, ip
 3257 0164 214B     		ldr	r3, .L200+4
 3258 0166 83FB0C39 		smull	r3, r9, r3, ip
 3259 016a 4FEAEC73 		asr	r3, ip, #31
 3260 016e C3EB6903 		rsb	r3, r3, r9, asr #1
 3261 0172 03EB4303 		add	r3, r3, r3, lsl #1
 3262 0176 4FEA8309 		lsl	r9, r3, #2
 3263 017a C9EB0C03 		rsb	r3, r9, ip
 3264 017e 08F10C0C 		add	ip, r8, #12
 3265 0182 04EB8C0C 		add	ip, r4, ip, lsl #2
 3266 0186 DCED007A 		vldr.32	s15, [ip]
 3267 018a 26EEA77A 		vmul.f32	s14, s13, s15
 3268 018e 0DF1600C 		add	ip, sp, #96
 3269 0192 0CEB8303 		add	r3, ip, r3, lsl #2
 3270 0196 53ED187A 		vldr.32	s15, [r3, #-96]
 3271 019a 77EE877A 		vadd.f32	s15, s15, s14
 3272 019e 43ED187A 		vstr.32	s15, [r3, #-96]
 804:..\..\..\liblc3\src/ltpf.c ****                 u[(j+(w-1)-k)%w] += xi * c[w+k];
 3273              		.loc 1 804 0
 3274 01a2 08F10108 		add	r8, r8, #1
 3275              	.LVL561:
 3276              	.L191:
 3277 01a6 B8F10B0F 		cmp	r8, #11
 3278 01aa D7DD     		ble	.L192
 3279              	.LVL562:
 3280              	.LBE252:
 807:..\..\..\liblc3\src/ltpf.c ****             u[j] = 0;
 3281              		.loc 1 807 0
 3282 01ac 18AB     		add	r3, sp, #96
 3283 01ae 03EB8203 		add	r3, r3, r2, lsl #2
 3284 01b2 53ED187A 		vldr.32	s15, [r3, #-96]
 3285 01b6 67EEA57A 		vmul.f32	s15, s15, s11
 3286 01ba 76EEE76A 		vsub.f32	s13, s13, s15
ARM GAS  C:\Users\rdn\AppData\Local\Temp\cc5zc0m9.s 			page 79


 3287              	.LVL563:
 3288 01be C5ED006A 		vstr.32	s13, [r5]
 3289              	.LVL564:
 808:..\..\..\liblc3\src/ltpf.c ****         }
 3290              		.loc 1 808 0
 3291 01c2 4FF0000C 		mov	ip, #0
 3292 01c6 43F860CC 		str	ip, [r3, #-96]	@ float
 3293              	.LBE250:
 796:..\..\..\liblc3\src/ltpf.c **** 
 3294              		.loc 1 796 0
 3295 01ca 0132     		adds	r2, r2, #1
 3296              	.LVL565:
 3297 01cc 75EE855A 		vadd.f32	s11, s11, s10
 3298              	.LVL566:
 3299              	.LBB253:
 807:..\..\..\liblc3\src/ltpf.c ****             u[j] = 0;
 3300              		.loc 1 807 0
 3301 01d0 0435     		adds	r5, r5, #4
 3302              	.LVL567:
 3303 01d2 00E0     		b	.L194
 3304              	.LVL568:
 3305              	.L198:
 3306              	.LBE253:
 3307              	.LBE249:
 795:..\..\..\liblc3\src/ltpf.c ****         for (int j = 0; j < w; j++, g += g_incr) {
 3308              		.loc 1 795 0
 3309 01d4 0022     		movs	r2, #0
 3310              	.L194:
 3311              	.LVL569:
 3312              	.LBB254:
 796:..\..\..\liblc3\src/ltpf.c **** 
 3313              		.loc 1 796 0
 3314 01d6 0B2A     		cmp	r2, #11
 3315 01d8 8BDD     		ble	.L193
 3316              	.LBE254:
 795:..\..\..\liblc3\src/ltpf.c ****         for (int j = 0; j < w; j++, g += g_incr) {
 3317              		.loc 1 795 0
 3318 01da 0C37     		adds	r7, r7, #12
 3319              	.LVL570:
 3320              	.L187:
 3321 01dc BE45     		cmp	lr, r7
 3322 01de F9DC     		bgt	.L198
 3323              	.LBE248:
 3324              	.LBE242:
 3325              	.LBE241:
 838:..\..\..\liblc3\src/ltpf.c ****     synthesize_template(xh, nh, lag, x0, x, n, c, 12, fade);
 839:..\..\..\liblc3\src/ltpf.c **** }
 3326              		.loc 1 839 0
 3327 01e0 19B0     		add	sp, sp, #100
 3328              		.cfi_def_cfa_offset 28
 3329              		@ sp needed
 3330 01e2 BDE8F083 		pop	{r4, r5, r6, r7, r8, r9, pc}
 3331              	.LVL571:
 3332              	.L201:
 3333 01e6 00BF     		.align	2
 3334              	.L200:
 3335 01e8 00000000 		.word	0
ARM GAS  C:\Users\rdn\AppData\Local\Temp\cc5zc0m9.s 			page 80


 3336 01ec ABAAAA2A 		.word	715827883
 3337              		.cfi_endproc
 3338              	.LFE43:
 3339              		.size	synthesize_12, .-synthesize_12
 3340              		.section	.text.synthesize_4,"ax",%progbits
 3341              		.align	2
 3342              		.thumb
 3343              		.thumb_func
 3344              		.type	synthesize_4, %function
 3345              	synthesize_4:
 3346              	.LFB40:
 819:..\..\..\liblc3\src/ltpf.c ****     synthesize_template(xh, nh, lag, x0, x, n, c, 4, fade);
 3347              		.loc 1 819 0
 3348              		.cfi_startproc
 3349              		@ args = 16, pretend = 0, frame = 96
 3350              		@ frame_needed = 0, uses_anonymous_args = 0
 3351              	.LVL572:
 3352 0000 2DE9F043 		push	{r4, r5, r6, r7, r8, r9, lr}
 3353              		.cfi_def_cfa_offset 28
 3354              		.cfi_offset 4, -28
 3355              		.cfi_offset 5, -24
 3356              		.cfi_offset 6, -20
 3357              		.cfi_offset 7, -16
 3358              		.cfi_offset 8, -12
 3359              		.cfi_offset 9, -8
 3360              		.cfi_offset 14, -4
 3361 0004 99B0     		sub	sp, sp, #100
 3362              		.cfi_def_cfa_offset 128
 3363 0006 8146     		mov	r9, r0
 3364 0008 209D     		ldr	r5, [sp, #128]
 3365 000a DDF884E0 		ldr	lr, [sp, #132]
 3366 000e 229C     		ldr	r4, [sp, #136]
 3367 0010 239F     		ldr	r7, [sp, #140]
 3368              	.LVL573:
 3369              	.LBB266:
 3370              	.LBB267:
 766:..\..\..\liblc3\src/ltpf.c ****     float g_incr = (float)((fade > 0) - (fade < 0)) / n;
 3371              		.loc 1 766 0
 3372 0012 002F     		cmp	r7, #0
 3373 0014 02DC     		bgt	.L223
 3374 0016 F7EE005A 		vmov.f32	s11, #1.0e+0
 3375 001a 01E0     		b	.L203
 3376              	.L223:
 3377 001c DFED6A5A 		vldr.32	s11, .L228
 3378              	.L203:
 3379              	.LVL574:
 767:..\..\..\liblc3\src/ltpf.c ****     float u[MAX_FILTER_WIDTH];
 3380              		.loc 1 767 0
 3381 0020 FE0F     		lsrs	r6, r7, #31
 3382 0022 002F     		cmp	r7, #0
 3383 0024 D4BF     		ite	le
 3384 0026 7642     		rsble	r6, r6, #0
 3385 0028 C6F10106 		rsbgt	r6, r6, #1
 3386 002c 07EE906A 		vmov	s15, r6	@ int
 3387 0030 F8EEE77A 		vcvt.f32.s32	s15, s15
 3388 0034 07EE10EA 		vmov	s14, lr	@ int
 3389 0038 B8EEC77A 		vcvt.f32.s32	s14, s14
ARM GAS  C:\Users\rdn\AppData\Local\Temp\cc5zc0m9.s 			page 81


 3390 003c 87EE875A 		vdiv.f32	s10, s15, s14
 3391              	.LVL575:
 772:..\..\..\liblc3\src/ltpf.c **** 
 3392              		.loc 1 772 0
 3393 0040 961C     		adds	r6, r2, #2
 3394              	.LVL576:
 774:..\..\..\liblc3\src/ltpf.c ****     const float *y_end = xh + nh - 1;
 3395              		.loc 1 774 0
 3396 0042 C9EB0502 		rsb	r2, r9, r5
 3397              	.LVL577:
 3398 0046 B6EBA20F 		cmp	r6, r2, asr #2
 3399 004a 03DD     		ble	.L204
 3400 004c 8E1B     		subs	r6, r1, r6
 3401              	.LVL578:
 3402 004e 05EB8606 		add	r6, r5, r6, lsl #2
 3403 0052 01E0     		b	.L205
 3404              	.LVL579:
 3405              	.L204:
 3406 0054 A5EB8606 		sub	r6, r5, r6, lsl #2
 3407              	.LVL580:
 3408              	.L205:
 775:..\..\..\liblc3\src/ltpf.c **** 
 3409              		.loc 1 775 0
 3410 0058 01F18041 		add	r1, r1, #1073741824
 3411              	.LVL581:
 3412 005c 0139     		subs	r1, r1, #1
 3413              	.LVL582:
 3414 005e 09EB8101 		add	r1, r9, r1, lsl #2
 3415              	.LVL583:
 3416              	.LBB268:
 777:..\..\..\liblc3\src/ltpf.c **** 
 3417              		.loc 1 777 0
 3418 0062 0027     		movs	r7, #0
 3419              	.LVL584:
 3420 0064 3FE0     		b	.L206
 3421              	.LVL585:
 3422              	.L212:
 3423              	.LBB269:
 779:..\..\..\liblc3\src/ltpf.c **** 
 3424              		.loc 1 779 0
 3425 0066 4FF0000C 		mov	ip, #0
 3426 006a 18AA     		add	r2, sp, #96
 3427 006c 02EB8702 		add	r2, r2, r7, lsl #2
 3428 0070 42F860CC 		str	ip, [r2, #-96]	@ float
 781:..\..\..\liblc3\src/ltpf.c ****         y = y < y_end ? y + 1 : xh;
 3429              		.loc 1 781 0
 3430 0074 96ED006A 		vldr.32	s12, [r6]
 3431              	.LVL586:
 3432 0078 03F1040C 		add	ip, r3, #4
 3433              	.LVL587:
 3434 007c D3ED006A 		vldr.32	s13, [r3]
 3435              	.LVL588:
 782:..\..\..\liblc3\src/ltpf.c **** 
 3436              		.loc 1 782 0
 3437 0080 B142     		cmp	r1, r6
 3438 0082 01D9     		bls	.L224
 3439 0084 0436     		adds	r6, r6, #4
ARM GAS  C:\Users\rdn\AppData\Local\Temp\cc5zc0m9.s 			page 82


 3440              	.LVL589:
 3441 0086 00E0     		b	.L207
 3442              	.LVL590:
 3443              	.L224:
 3444 0088 4E46     		mov	r6, r9
 3445              	.LVL591:
 3446              	.L207:
 3447              	.LBB270:
 784:..\..\..\liblc3\src/ltpf.c ****             u[j-k] -= yi * c[k];
 3448              		.loc 1 784 0
 3449 008a 0023     		movs	r3, #0
 3450 008c 10E0     		b	.L208
 3451              	.LVL592:
 3452              	.L209:
 785:..\..\..\liblc3\src/ltpf.c **** 
 3453              		.loc 1 785 0
 3454 008e FA1A     		subs	r2, r7, r3
 3455 0090 04EB8308 		add	r8, r4, r3, lsl #2
 3456 0094 D8ED007A 		vldr.32	s15, [r8]
 3457 0098 26EE277A 		vmul.f32	s14, s12, s15
 3458 009c 18A8     		add	r0, sp, #96
 3459 009e 00EB8202 		add	r2, r0, r2, lsl #2
 3460 00a2 52ED187A 		vldr.32	s15, [r2, #-96]
 3461 00a6 77EEC77A 		vsub.f32	s15, s15, s14
 3462 00aa 42ED187A 		vstr.32	s15, [r2, #-96]
 784:..\..\..\liblc3\src/ltpf.c ****             u[j-k] -= yi * c[k];
 3463              		.loc 1 784 0
 3464 00ae 0133     		adds	r3, r3, #1
 3465              	.LVL593:
 3466              	.L208:
 3467 00b0 9F42     		cmp	r7, r3
 3468 00b2 ECDA     		bge	.L209
 3469 00b4 0023     		movs	r3, #0
 3470              	.LVL594:
 3471 00b6 12E0     		b	.L210
 3472              	.LVL595:
 3473              	.L211:
 3474              	.LBE270:
 3475              	.LBB271:
 788:..\..\..\liblc3\src/ltpf.c ****     }
 3476              		.loc 1 788 0
 3477 00b8 FA1A     		subs	r2, r7, r3
 3478 00ba 03F10408 		add	r8, r3, #4
 3479 00be 04EB8808 		add	r8, r4, r8, lsl #2
 3480 00c2 D8ED007A 		vldr.32	s15, [r8]
 3481 00c6 26EEA77A 		vmul.f32	s14, s13, s15
 3482 00ca 18A8     		add	r0, sp, #96
 3483 00cc 00EB8202 		add	r2, r0, r2, lsl #2
 3484 00d0 52ED187A 		vldr.32	s15, [r2, #-96]
 3485 00d4 77EE877A 		vadd.f32	s15, s15, s14
 3486 00d8 42ED187A 		vstr.32	s15, [r2, #-96]
 787:..\..\..\liblc3\src/ltpf.c ****             u[j-k] += xi * c[w+k];
 3487              		.loc 1 787 0
 3488 00dc 0133     		adds	r3, r3, #1
 3489              	.LVL596:
 3490              	.L210:
 3491 00de 9F42     		cmp	r7, r3
ARM GAS  C:\Users\rdn\AppData\Local\Temp\cc5zc0m9.s 			page 83


 3492 00e0 EADA     		bge	.L211
 3493              	.LBE271:
 3494              	.LBE269:
 777:..\..\..\liblc3\src/ltpf.c **** 
 3495              		.loc 1 777 0
 3496 00e2 0137     		adds	r7, r7, #1
 3497              	.LVL597:
 3498              	.LBB272:
 781:..\..\..\liblc3\src/ltpf.c ****         y = y < y_end ? y + 1 : xh;
 3499              		.loc 1 781 0
 3500 00e4 6346     		mov	r3, ip
 3501              	.LVL598:
 3502              	.L206:
 3503              	.LBE272:
 777:..\..\..\liblc3\src/ltpf.c **** 
 3504              		.loc 1 777 0
 3505 00e6 022F     		cmp	r7, #2
 3506 00e8 BDDD     		ble	.L212
 3507              	.LBE268:
 791:..\..\..\liblc3\src/ltpf.c **** 
 3508              		.loc 1 791 0
 3509 00ea 0023     		movs	r3, #0
 3510              	.LVL599:
 3511 00ec 0393     		str	r3, [sp, #12]	@ float
 3512              	.LVL600:
 3513              	.LBB273:
 795:..\..\..\liblc3\src/ltpf.c ****         for (int j = 0; j < w; j++, g += g_incr) {
 3514              		.loc 1 795 0
 3515 00ee 0027     		movs	r7, #0
 3516              	.LVL601:
 3517 00f0 64E0     		b	.L213
 3518              	.LVL602:
 3519              	.L221:
 3520              	.LBB274:
 3521              	.LBB275:
 798:..\..\..\liblc3\src/ltpf.c ****             y = y < y_end ? y + 1 : xh;
 3522              		.loc 1 798 0
 3523 00f2 96ED006A 		vldr.32	s12, [r6]
 3524              	.LVL603:
 3525 00f6 D5ED006A 		vldr.32	s13, [r5]
 3526              	.LVL604:
 799:..\..\..\liblc3\src/ltpf.c **** 
 3527              		.loc 1 799 0
 3528 00fa B142     		cmp	r1, r6
 3529 00fc 01D9     		bls	.L225
 3530 00fe 0436     		adds	r6, r6, #4
 3531              	.LVL605:
 3532 0100 00E0     		b	.L214
 3533              	.LVL606:
 3534              	.L225:
 3535 0102 4E46     		mov	r6, r9
 3536              	.LVL607:
 3537              	.L214:
 3538              	.LBB276:
 801:..\..\..\liblc3\src/ltpf.c ****                 u[(j+(w-1)-k)%w] -= yi * c[k];
 3539              		.loc 1 801 0
 3540 0104 4FF0000C 		mov	ip, #0
ARM GAS  C:\Users\rdn\AppData\Local\Temp\cc5zc0m9.s 			page 84


 3541 0108 1AE0     		b	.L215
 3542              	.LVL608:
 3543              	.L217:
 802:..\..\..\liblc3\src/ltpf.c **** 
 3544              		.loc 1 802 0
 3545 010a D31C     		adds	r3, r2, #3
 3546 010c CCEB0303 		rsb	r3, ip, r3
 3547 0110 2E48     		ldr	r0, .L228+4
 3548 0112 0340     		ands	r3, r3, r0
 3549 0114 03D5     		bpl	.L216
 3550 0116 013B     		subs	r3, r3, #1
 3551 0118 63F00303 		orn	r3, r3, #3
 3552 011c 0133     		adds	r3, r3, #1
 3553              	.L216:
 3554 011e 04EB8C08 		add	r8, r4, ip, lsl #2
 3555 0122 D8ED007A 		vldr.32	s15, [r8]
 3556 0126 26EE277A 		vmul.f32	s14, s12, s15
 3557 012a 18A8     		add	r0, sp, #96
 3558 012c 00EB8303 		add	r3, r0, r3, lsl #2
 3559 0130 53ED187A 		vldr.32	s15, [r3, #-96]
 3560 0134 77EEC77A 		vsub.f32	s15, s15, s14
 3561 0138 43ED187A 		vstr.32	s15, [r3, #-96]
 801:..\..\..\liblc3\src/ltpf.c ****                 u[(j+(w-1)-k)%w] -= yi * c[k];
 3562              		.loc 1 801 0
 3563 013c 0CF1010C 		add	ip, ip, #1
 3564              	.LVL609:
 3565              	.L215:
 3566 0140 BCF1030F 		cmp	ip, #3
 3567 0144 E1DD     		ble	.L217
 3568 0146 4FF0000C 		mov	ip, #0
 3569              	.LVL610:
 3570 014a 1CE0     		b	.L218
 3571              	.LVL611:
 3572              	.L220:
 3573              	.LBE276:
 3574              	.LBB277:
 805:..\..\..\liblc3\src/ltpf.c **** 
 3575              		.loc 1 805 0
 3576 014c D31C     		adds	r3, r2, #3
 3577 014e CCEB0303 		rsb	r3, ip, r3
 3578 0152 1E48     		ldr	r0, .L228+4
 3579 0154 0340     		ands	r3, r3, r0
 3580 0156 03D5     		bpl	.L219
 3581 0158 013B     		subs	r3, r3, #1
 3582 015a 63F00303 		orn	r3, r3, #3
 3583 015e 0133     		adds	r3, r3, #1
 3584              	.L219:
 3585 0160 0CF10408 		add	r8, ip, #4
 3586 0164 04EB8808 		add	r8, r4, r8, lsl #2
 3587 0168 D8ED007A 		vldr.32	s15, [r8]
 3588 016c 26EEA77A 		vmul.f32	s14, s13, s15
 3589 0170 18A8     		add	r0, sp, #96
 3590 0172 00EB8303 		add	r3, r0, r3, lsl #2
 3591 0176 53ED187A 		vldr.32	s15, [r3, #-96]
 3592 017a 77EE877A 		vadd.f32	s15, s15, s14
 3593 017e 43ED187A 		vstr.32	s15, [r3, #-96]
 804:..\..\..\liblc3\src/ltpf.c ****                 u[(j+(w-1)-k)%w] += xi * c[w+k];
ARM GAS  C:\Users\rdn\AppData\Local\Temp\cc5zc0m9.s 			page 85


 3594              		.loc 1 804 0
 3595 0182 0CF1010C 		add	ip, ip, #1
 3596              	.LVL612:
 3597              	.L218:
 3598 0186 BCF1030F 		cmp	ip, #3
 3599 018a DFDD     		ble	.L220
 3600              	.LVL613:
 3601              	.LBE277:
 807:..\..\..\liblc3\src/ltpf.c ****             u[j] = 0;
 3602              		.loc 1 807 0
 3603 018c 18AB     		add	r3, sp, #96
 3604 018e 03EB8203 		add	r3, r3, r2, lsl #2
 3605 0192 53ED187A 		vldr.32	s15, [r3, #-96]
 3606 0196 67EEA57A 		vmul.f32	s15, s15, s11
 3607 019a 76EEE76A 		vsub.f32	s13, s13, s15
 3608              	.LVL614:
 3609 019e C5ED006A 		vstr.32	s13, [r5]
 3610              	.LVL615:
 808:..\..\..\liblc3\src/ltpf.c ****         }
 3611              		.loc 1 808 0
 3612 01a2 4FF0000C 		mov	ip, #0
 3613              	.LVL616:
 3614 01a6 43F860CC 		str	ip, [r3, #-96]	@ float
 3615              	.LBE275:
 796:..\..\..\liblc3\src/ltpf.c **** 
 3616              		.loc 1 796 0
 3617 01aa 0132     		adds	r2, r2, #1
 3618              	.LVL617:
 3619 01ac 75EE855A 		vadd.f32	s11, s11, s10
 3620              	.LVL618:
 3621              	.LBB278:
 807:..\..\..\liblc3\src/ltpf.c ****             u[j] = 0;
 3622              		.loc 1 807 0
 3623 01b0 0435     		adds	r5, r5, #4
 3624              	.LVL619:
 3625 01b2 00E0     		b	.L222
 3626              	.LVL620:
 3627              	.L226:
 3628              	.LBE278:
 3629              	.LBE274:
 795:..\..\..\liblc3\src/ltpf.c ****         for (int j = 0; j < w; j++, g += g_incr) {
 3630              		.loc 1 795 0
 3631 01b4 0022     		movs	r2, #0
 3632              	.L222:
 3633              	.LVL621:
 3634              	.LBB279:
 796:..\..\..\liblc3\src/ltpf.c **** 
 3635              		.loc 1 796 0
 3636 01b6 032A     		cmp	r2, #3
 3637 01b8 9BDD     		ble	.L221
 3638              	.LBE279:
 795:..\..\..\liblc3\src/ltpf.c ****         for (int j = 0; j < w; j++, g += g_incr) {
 3639              		.loc 1 795 0
 3640 01ba 0437     		adds	r7, r7, #4
 3641              	.LVL622:
 3642              	.L213:
 3643 01bc BE45     		cmp	lr, r7
ARM GAS  C:\Users\rdn\AppData\Local\Temp\cc5zc0m9.s 			page 86


 3644 01be F9DC     		bgt	.L226
 3645              	.LBE273:
 3646              	.LBE267:
 3647              	.LBE266:
 821:..\..\..\liblc3\src/ltpf.c **** 
 3648              		.loc 1 821 0
 3649 01c0 19B0     		add	sp, sp, #100
 3650              		.cfi_def_cfa_offset 28
 3651              		@ sp needed
 3652 01c2 BDE8F083 		pop	{r4, r5, r6, r7, r8, r9, pc}
 3653              	.LVL623:
 3654              	.L229:
 3655 01c6 00BF     		.align	2
 3656              	.L228:
 3657 01c8 00000000 		.word	0
 3658 01cc 03000080 		.word	-2147483645
 3659              		.cfi_endproc
 3660              	.LFE40:
 3661              		.size	synthesize_4, .-synthesize_4
 3662              		.section	.text.synthesize_6,"ax",%progbits
 3663              		.align	2
 3664              		.thumb
 3665              		.thumb_func
 3666              		.type	synthesize_6, %function
 3667              	synthesize_6:
 3668              	.LFB41:
 825:..\..\..\liblc3\src/ltpf.c ****     synthesize_template(xh, nh, lag, x0, x, n, c, 6, fade);
 3669              		.loc 1 825 0
 3670              		.cfi_startproc
 3671              		@ args = 16, pretend = 0, frame = 96
 3672              		@ frame_needed = 0, uses_anonymous_args = 0
 3673              	.LVL624:
 3674 0000 2DE9F043 		push	{r4, r5, r6, r7, r8, r9, lr}
 3675              		.cfi_def_cfa_offset 28
 3676              		.cfi_offset 4, -28
 3677              		.cfi_offset 5, -24
 3678              		.cfi_offset 6, -20
 3679              		.cfi_offset 7, -16
 3680              		.cfi_offset 8, -12
 3681              		.cfi_offset 9, -8
 3682              		.cfi_offset 14, -4
 3683 0004 99B0     		sub	sp, sp, #100
 3684              		.cfi_def_cfa_offset 128
 3685 0006 209D     		ldr	r5, [sp, #128]
 3686 0008 DDF884E0 		ldr	lr, [sp, #132]
 3687 000c 229C     		ldr	r4, [sp, #136]
 3688 000e 239F     		ldr	r7, [sp, #140]
 3689              	.LVL625:
 3690              	.LBB291:
 3691              	.LBB292:
 766:..\..\..\liblc3\src/ltpf.c ****     float g_incr = (float)((fade > 0) - (fade < 0)) / n;
 3692              		.loc 1 766 0
 3693 0010 002F     		cmp	r7, #0
 3694 0012 02DC     		bgt	.L249
 3695 0014 F7EE005A 		vmov.f32	s11, #1.0e+0
 3696 0018 01E0     		b	.L231
 3697              	.L249:
ARM GAS  C:\Users\rdn\AppData\Local\Temp\cc5zc0m9.s 			page 87


 3698 001a DFED715A 		vldr.32	s11, .L254
 3699              	.L231:
 3700              	.LVL626:
 767:..\..\..\liblc3\src/ltpf.c ****     float u[MAX_FILTER_WIDTH];
 3701              		.loc 1 767 0
 3702 001e FE0F     		lsrs	r6, r7, #31
 3703 0020 002F     		cmp	r7, #0
 3704 0022 D4BF     		ite	le
 3705 0024 7642     		rsble	r6, r6, #0
 3706 0026 C6F10106 		rsbgt	r6, r6, #1
 3707 002a 07EE906A 		vmov	s15, r6	@ int
 3708 002e F8EEE77A 		vcvt.f32.s32	s15, s15
 3709 0032 07EE10EA 		vmov	s14, lr	@ int
 3710 0036 B8EEC77A 		vcvt.f32.s32	s14, s14
 3711 003a 87EE875A 		vdiv.f32	s10, s15, s14
 3712              	.LVL627:
 772:..\..\..\liblc3\src/ltpf.c **** 
 3713              		.loc 1 772 0
 3714 003e D61C     		adds	r6, r2, #3
 3715              	.LVL628:
 774:..\..\..\liblc3\src/ltpf.c ****     const float *y_end = xh + nh - 1;
 3716              		.loc 1 774 0
 3717 0040 2A1A     		subs	r2, r5, r0
 3718              	.LVL629:
 3719 0042 B6EBA20F 		cmp	r6, r2, asr #2
 3720 0046 03DD     		ble	.L232
 3721 0048 8E1B     		subs	r6, r1, r6
 3722              	.LVL630:
 3723 004a 05EB8606 		add	r6, r5, r6, lsl #2
 3724 004e 01E0     		b	.L233
 3725              	.LVL631:
 3726              	.L232:
 3727 0050 A5EB8606 		sub	r6, r5, r6, lsl #2
 3728              	.LVL632:
 3729              	.L233:
 775:..\..\..\liblc3\src/ltpf.c **** 
 3730              		.loc 1 775 0
 3731 0054 01F18041 		add	r1, r1, #1073741824
 3732              	.LVL633:
 3733 0058 0139     		subs	r1, r1, #1
 3734              	.LVL634:
 3735 005a 00EB8101 		add	r1, r0, r1, lsl #2
 3736              	.LVL635:
 3737              	.LBB293:
 777:..\..\..\liblc3\src/ltpf.c **** 
 3738              		.loc 1 777 0
 3739 005e 0027     		movs	r7, #0
 3740              	.LVL636:
 3741 0060 41E0     		b	.L234
 3742              	.LVL637:
 3743              	.L240:
 3744              	.LBB294:
 779:..\..\..\liblc3\src/ltpf.c **** 
 3745              		.loc 1 779 0
 3746 0062 4FF0000C 		mov	ip, #0
 3747 0066 18AA     		add	r2, sp, #96
 3748 0068 02EB8702 		add	r2, r2, r7, lsl #2
ARM GAS  C:\Users\rdn\AppData\Local\Temp\cc5zc0m9.s 			page 88


 3749 006c 42F860CC 		str	ip, [r2, #-96]	@ float
 781:..\..\..\liblc3\src/ltpf.c ****         y = y < y_end ? y + 1 : xh;
 3750              		.loc 1 781 0
 3751 0070 96ED006A 		vldr.32	s12, [r6]
 3752              	.LVL638:
 3753 0074 03F1040C 		add	ip, r3, #4
 3754              	.LVL639:
 3755 0078 D3ED006A 		vldr.32	s13, [r3]
 3756              	.LVL640:
 782:..\..\..\liblc3\src/ltpf.c **** 
 3757              		.loc 1 782 0
 3758 007c B142     		cmp	r1, r6
 3759 007e 01D9     		bls	.L250
 3760 0080 0436     		adds	r6, r6, #4
 3761              	.LVL641:
 3762 0082 00E0     		b	.L235
 3763              	.LVL642:
 3764              	.L250:
 3765 0084 0646     		mov	r6, r0
 3766              	.LVL643:
 3767              	.L235:
 3768              	.LBB295:
 784:..\..\..\liblc3\src/ltpf.c ****             u[j-k] -= yi * c[k];
 3769              		.loc 1 784 0
 3770 0086 0023     		movs	r3, #0
 3771 0088 11E0     		b	.L236
 3772              	.LVL644:
 3773              	.L237:
 785:..\..\..\liblc3\src/ltpf.c **** 
 3774              		.loc 1 785 0
 3775 008a FA1A     		subs	r2, r7, r3
 3776 008c 04EB8308 		add	r8, r4, r3, lsl #2
 3777 0090 D8ED007A 		vldr.32	s15, [r8]
 3778 0094 26EE277A 		vmul.f32	s14, s12, s15
 3779 0098 0DF16008 		add	r8, sp, #96
 3780 009c 08EB8202 		add	r2, r8, r2, lsl #2
 3781 00a0 52ED187A 		vldr.32	s15, [r2, #-96]
 3782 00a4 77EEC77A 		vsub.f32	s15, s15, s14
 3783 00a8 42ED187A 		vstr.32	s15, [r2, #-96]
 784:..\..\..\liblc3\src/ltpf.c ****             u[j-k] -= yi * c[k];
 3784              		.loc 1 784 0
 3785 00ac 0133     		adds	r3, r3, #1
 3786              	.LVL645:
 3787              	.L236:
 3788 00ae 9F42     		cmp	r7, r3
 3789 00b0 EBDA     		bge	.L237
 3790 00b2 0023     		movs	r3, #0
 3791              	.LVL646:
 3792 00b4 13E0     		b	.L238
 3793              	.LVL647:
 3794              	.L239:
 3795              	.LBE295:
 3796              	.LBB296:
 788:..\..\..\liblc3\src/ltpf.c ****     }
 3797              		.loc 1 788 0
 3798 00b6 FA1A     		subs	r2, r7, r3
 3799 00b8 03F10608 		add	r8, r3, #6
ARM GAS  C:\Users\rdn\AppData\Local\Temp\cc5zc0m9.s 			page 89


 3800 00bc 04EB8808 		add	r8, r4, r8, lsl #2
 3801 00c0 D8ED007A 		vldr.32	s15, [r8]
 3802 00c4 26EEA77A 		vmul.f32	s14, s13, s15
 3803 00c8 0DF16008 		add	r8, sp, #96
 3804 00cc 08EB8202 		add	r2, r8, r2, lsl #2
 3805 00d0 52ED187A 		vldr.32	s15, [r2, #-96]
 3806 00d4 77EE877A 		vadd.f32	s15, s15, s14
 3807 00d8 42ED187A 		vstr.32	s15, [r2, #-96]
 787:..\..\..\liblc3\src/ltpf.c ****             u[j-k] += xi * c[w+k];
 3808              		.loc 1 787 0
 3809 00dc 0133     		adds	r3, r3, #1
 3810              	.LVL648:
 3811              	.L238:
 3812 00de 9F42     		cmp	r7, r3
 3813 00e0 E9DA     		bge	.L239
 3814              	.LBE296:
 3815              	.LBE294:
 777:..\..\..\liblc3\src/ltpf.c **** 
 3816              		.loc 1 777 0
 3817 00e2 0137     		adds	r7, r7, #1
 3818              	.LVL649:
 3819              	.LBB297:
 781:..\..\..\liblc3\src/ltpf.c ****         y = y < y_end ? y + 1 : xh;
 3820              		.loc 1 781 0
 3821 00e4 6346     		mov	r3, ip
 3822              	.LVL650:
 3823              	.L234:
 3824              	.LBE297:
 777:..\..\..\liblc3\src/ltpf.c **** 
 3825              		.loc 1 777 0
 3826 00e6 042F     		cmp	r7, #4
 3827 00e8 BBDD     		ble	.L240
 3828              	.LBE293:
 791:..\..\..\liblc3\src/ltpf.c **** 
 3829              		.loc 1 791 0
 3830 00ea 0023     		movs	r3, #0
 3831              	.LVL651:
 3832 00ec 0593     		str	r3, [sp, #20]	@ float
 3833              	.LVL652:
 3834              	.LBB298:
 795:..\..\..\liblc3\src/ltpf.c ****         for (int j = 0; j < w; j++, g += g_incr) {
 3835              		.loc 1 795 0
 3836 00ee 0027     		movs	r7, #0
 3837              	.LVL653:
 3838 00f0 70E0     		b	.L241
 3839              	.LVL654:
 3840              	.L247:
 3841              	.LBB299:
 3842              	.LBB300:
 798:..\..\..\liblc3\src/ltpf.c ****             y = y < y_end ? y + 1 : xh;
 3843              		.loc 1 798 0
 3844 00f2 96ED006A 		vldr.32	s12, [r6]
 3845              	.LVL655:
 3846 00f6 D5ED006A 		vldr.32	s13, [r5]
 3847              	.LVL656:
 799:..\..\..\liblc3\src/ltpf.c **** 
 3848              		.loc 1 799 0
ARM GAS  C:\Users\rdn\AppData\Local\Temp\cc5zc0m9.s 			page 90


 3849 00fa B142     		cmp	r1, r6
 3850 00fc 01D9     		bls	.L251
 3851 00fe 0436     		adds	r6, r6, #4
 3852              	.LVL657:
 3853 0100 00E0     		b	.L242
 3854              	.LVL658:
 3855              	.L251:
 3856 0102 0646     		mov	r6, r0
 3857              	.LVL659:
 3858              	.L242:
 3859              	.LBB301:
 801:..\..\..\liblc3\src/ltpf.c ****                 u[(j+(w-1)-k)%w] -= yi * c[k];
 3860              		.loc 1 801 0
 3861 0104 4FF0000C 		mov	ip, #0
 3862 0108 20E0     		b	.L243
 3863              	.LVL660:
 3864              	.L244:
 802:..\..\..\liblc3\src/ltpf.c **** 
 3865              		.loc 1 802 0
 3866 010a 02F10508 		add	r8, r2, #5
 3867 010e CCEB0808 		rsb	r8, ip, r8
 3868 0112 344B     		ldr	r3, .L254+4
 3869 0114 83FB0893 		smull	r9, r3, r3, r8
 3870 0118 A3EBE873 		sub	r3, r3, r8, asr #31
 3871 011c 03EB4303 		add	r3, r3, r3, lsl #1
 3872 0120 4FEA4309 		lsl	r9, r3, #1
 3873 0124 C9EB0803 		rsb	r3, r9, r8
 3874 0128 04EB8C08 		add	r8, r4, ip, lsl #2
 3875 012c D8ED007A 		vldr.32	s15, [r8]
 3876 0130 26EE277A 		vmul.f32	s14, s12, s15
 3877 0134 0DF16008 		add	r8, sp, #96
 3878 0138 08EB8303 		add	r3, r8, r3, lsl #2
 3879 013c 53ED187A 		vldr.32	s15, [r3, #-96]
 3880 0140 77EEC77A 		vsub.f32	s15, s15, s14
 3881 0144 43ED187A 		vstr.32	s15, [r3, #-96]
 801:..\..\..\liblc3\src/ltpf.c ****                 u[(j+(w-1)-k)%w] -= yi * c[k];
 3882              		.loc 1 801 0
 3883 0148 0CF1010C 		add	ip, ip, #1
 3884              	.LVL661:
 3885              	.L243:
 3886 014c BCF1050F 		cmp	ip, #5
 3887 0150 DBDD     		ble	.L244
 3888 0152 4FF0000C 		mov	ip, #0
 3889              	.LVL662:
 3890 0156 22E0     		b	.L245
 3891              	.LVL663:
 3892              	.L246:
 3893              	.LBE301:
 3894              	.LBB302:
 805:..\..\..\liblc3\src/ltpf.c **** 
 3895              		.loc 1 805 0
 3896 0158 02F10508 		add	r8, r2, #5
 3897 015c CCEB0808 		rsb	r8, ip, r8
 3898 0160 204B     		ldr	r3, .L254+4
 3899 0162 83FB0893 		smull	r9, r3, r3, r8
 3900 0166 A3EBE873 		sub	r3, r3, r8, asr #31
 3901 016a 03EB4303 		add	r3, r3, r3, lsl #1
ARM GAS  C:\Users\rdn\AppData\Local\Temp\cc5zc0m9.s 			page 91


 3902 016e 4FEA4309 		lsl	r9, r3, #1
 3903 0172 C9EB0803 		rsb	r3, r9, r8
 3904 0176 0CF10608 		add	r8, ip, #6
 3905 017a 04EB8808 		add	r8, r4, r8, lsl #2
 3906 017e D8ED007A 		vldr.32	s15, [r8]
 3907 0182 26EEA77A 		vmul.f32	s14, s13, s15
 3908 0186 0DF16008 		add	r8, sp, #96
 3909 018a 08EB8303 		add	r3, r8, r3, lsl #2
 3910 018e 53ED187A 		vldr.32	s15, [r3, #-96]
 3911 0192 77EE877A 		vadd.f32	s15, s15, s14
 3912 0196 43ED187A 		vstr.32	s15, [r3, #-96]
 804:..\..\..\liblc3\src/ltpf.c ****                 u[(j+(w-1)-k)%w] += xi * c[w+k];
 3913              		.loc 1 804 0
 3914 019a 0CF1010C 		add	ip, ip, #1
 3915              	.LVL664:
 3916              	.L245:
 3917 019e BCF1050F 		cmp	ip, #5
 3918 01a2 D9DD     		ble	.L246
 3919              	.LVL665:
 3920              	.LBE302:
 807:..\..\..\liblc3\src/ltpf.c ****             u[j] = 0;
 3921              		.loc 1 807 0
 3922 01a4 18AB     		add	r3, sp, #96
 3923 01a6 03EB8203 		add	r3, r3, r2, lsl #2
 3924 01aa 53ED187A 		vldr.32	s15, [r3, #-96]
 3925 01ae 67EEA57A 		vmul.f32	s15, s15, s11
 3926 01b2 76EEE76A 		vsub.f32	s13, s13, s15
 3927              	.LVL666:
 3928 01b6 C5ED006A 		vstr.32	s13, [r5]
 3929              	.LVL667:
 808:..\..\..\liblc3\src/ltpf.c ****         }
 3930              		.loc 1 808 0
 3931 01ba 4FF0000C 		mov	ip, #0
 3932              	.LVL668:
 3933 01be 43F860CC 		str	ip, [r3, #-96]	@ float
 3934              	.LBE300:
 796:..\..\..\liblc3\src/ltpf.c **** 
 3935              		.loc 1 796 0
 3936 01c2 0132     		adds	r2, r2, #1
 3937              	.LVL669:
 3938 01c4 75EE855A 		vadd.f32	s11, s11, s10
 3939              	.LVL670:
 3940              	.LBB303:
 807:..\..\..\liblc3\src/ltpf.c ****             u[j] = 0;
 3941              		.loc 1 807 0
 3942 01c8 0435     		adds	r5, r5, #4
 3943              	.LVL671:
 3944 01ca 00E0     		b	.L248
 3945              	.LVL672:
 3946              	.L252:
 3947              	.LBE303:
 3948              	.LBE299:
 795:..\..\..\liblc3\src/ltpf.c ****         for (int j = 0; j < w; j++, g += g_incr) {
 3949              		.loc 1 795 0
 3950 01cc 0022     		movs	r2, #0
 3951              	.L248:
 3952              	.LVL673:
ARM GAS  C:\Users\rdn\AppData\Local\Temp\cc5zc0m9.s 			page 92


 3953              	.LBB304:
 796:..\..\..\liblc3\src/ltpf.c **** 
 3954              		.loc 1 796 0
 3955 01ce 052A     		cmp	r2, #5
 3956 01d0 8FDD     		ble	.L247
 3957              	.LBE304:
 795:..\..\..\liblc3\src/ltpf.c ****         for (int j = 0; j < w; j++, g += g_incr) {
 3958              		.loc 1 795 0
 3959 01d2 0637     		adds	r7, r7, #6
 3960              	.LVL674:
 3961              	.L241:
 3962 01d4 BE45     		cmp	lr, r7
 3963 01d6 F9DC     		bgt	.L252
 3964              	.LBE298:
 3965              	.LBE292:
 3966              	.LBE291:
 827:..\..\..\liblc3\src/ltpf.c **** 
 3967              		.loc 1 827 0
 3968 01d8 19B0     		add	sp, sp, #100
 3969              		.cfi_def_cfa_offset 28
 3970              		@ sp needed
 3971 01da BDE8F083 		pop	{r4, r5, r6, r7, r8, r9, pc}
 3972              	.LVL675:
 3973              	.L255:
 3974 01de 00BF     		.align	2
 3975              	.L254:
 3976 01e0 00000000 		.word	0
 3977 01e4 ABAAAA2A 		.word	715827883
 3978              		.cfi_endproc
 3979              	.LFE41:
 3980              		.size	synthesize_6, .-synthesize_6
 3981              		.section	.text.lc3_ltpf_analyse,"ax",%progbits
 3982              		.align	2
 3983              		.global	lc3_ltpf_analyse
 3984              		.thumb
 3985              		.thumb_func
 3986              		.type	lc3_ltpf_analyse, %function
 3987              	lc3_ltpf_analyse:
 3988              	.LFB38:
 663:..\..\..\liblc3\src/ltpf.c ****     /* --- Resampling to 12.8 KHz --- */
 3989              		.loc 1 663 0
 3990              		.cfi_startproc
 3991              		@ args = 4, pretend = 0, frame = 528
 3992              		@ frame_needed = 0, uses_anonymous_args = 0
 3993              	.LVL676:
 3994 0000 2DE9F04F 		push	{r4, r5, r6, r7, r8, r9, r10, fp, lr}
 3995              		.cfi_def_cfa_offset 36
 3996              		.cfi_offset 4, -36
 3997              		.cfi_offset 5, -32
 3998              		.cfi_offset 6, -28
 3999              		.cfi_offset 7, -24
 4000              		.cfi_offset 8, -20
 4001              		.cfi_offset 9, -16
 4002              		.cfi_offset 10, -12
 4003              		.cfi_offset 11, -8
 4004              		.cfi_offset 14, -4
 4005 0004 2DED028B 		vpush.64	{d8}
ARM GAS  C:\Users\rdn\AppData\Local\Temp\cc5zc0m9.s 			page 93


 4006              		.cfi_def_cfa_offset 44
 4007              		.cfi_offset 80, -44
 4008              		.cfi_offset 81, -40
 4009 0008 ADF5057D 		sub	sp, sp, #532
 4010              		.cfi_def_cfa_offset 576
 4011 000c 8346     		mov	fp, r0
 4012 000e 8846     		mov	r8, r1
 4013 0010 0191     		str	r1, [sp, #4]
 4014 0012 1446     		mov	r4, r2
 4015 0014 1F46     		mov	r7, r3
 4016              	.LVL677:
 667:..\..\..\liblc3\src/ltpf.c **** 
 4017              		.loc 1 667 0
 4018 0016 00F1010A 		add	r10, r0, #1
 4019 001a 4FEA4A16 		lsl	r6, r10, #5
 4020              	.LVL678:
 669:..\..\..\liblc3\src/ltpf.c ****         (z_12k8 - n_12k8) * sizeof(*ltpf->x_12k8));
 4021              		.loc 1 669 0
 4022 001e 02F12009 		add	r9, r2, #32
 4023 0022 4FEA8A1A 		lsl	r10, r10, #6
 670:..\..\..\liblc3\src/ltpf.c **** 
 4024              		.loc 1 670 0
 4025 0026 C6F5C075 		rsb	r5, r6, #384
 669:..\..\..\liblc3\src/ltpf.c ****         (z_12k8 - n_12k8) * sizeof(*ltpf->x_12k8));
 4026              		.loc 1 669 0
 4027 002a 6D00     		lsls	r5, r5, #1
 4028 002c 2A46     		mov	r2, r5
 4029              	.LVL679:
 4030 002e 09EB0A01 		add	r1, r9, r10
 4031              	.LVL680:
 4032 0032 4846     		mov	r0, r9
 4033              	.LVL681:
 4034 0034 FFF7FEFF 		bl	memmove
 4035              	.LVL682:
 672:..\..\..\liblc3\src/ltpf.c **** 
 4036              		.loc 1 672 0
 4037 0038 4D44     		add	r5, r5, r9
 4038              	.LVL683:
 674:..\..\..\liblc3\src/ltpf.c **** 
 4039              		.loc 1 674 0
 4040 003a AD4B     		ldr	r3, .L300
 4041 003c 03EB8803 		add	r3, r3, r8, lsl #2
 4042 0040 D3F82088 		ldr	r8, [r3, #2080]
 4043 0044 3346     		mov	r3, r6
 4044 0046 2A46     		mov	r2, r5
 4045 0048 3946     		mov	r1, r7
 4046 004a 04F11000 		add	r0, r4, #16
 4047 004e C047     		blx	r8
 4048              	.LVL684:
 676:..\..\..\liblc3\src/ltpf.c **** 
 4049              		.loc 1 676 0
 4050 0050 BBF1020F 		cmp	fp, #2
 4051 0054 02D1     		bne	.L278
 4052 0056 6FF05709 		mvn	r9, #87
 4053 005a 01E0     		b	.L257
 4054              	.L278:
 4055 005c 6FF02F09 		mvn	r9, #47
ARM GAS  C:\Users\rdn\AppData\Local\Temp\cc5zc0m9.s 			page 94


 4056              	.L257:
 676:..\..\..\liblc3\src/ltpf.c **** 
 4057              		.loc 1 676 0 is_stmt 0 discriminator 4
 4058 0060 05EB0903 		add	r3, r5, r9
 4059 0064 0093     		str	r3, [sp]
 4060              	.LVL685:
 681:..\..\..\liblc3\src/ltpf.c **** 
 4061              		.loc 1 681 0 is_stmt 1 discriminator 4
 4062 0066 7710     		asrs	r7, r6, #1
 4063              	.LVL686:
 683:..\..\..\liblc3\src/ltpf.c ****         (z_6k4 - n_6k4) * sizeof(*ltpf->x_6k4));
 4064              		.loc 1 683 0 discriminator 4
 4065 0068 04F54878 		add	r8, r4, #800
 4066 006c 4FEA4709 		lsl	r9, r7, #1
 684:..\..\..\liblc3\src/ltpf.c **** 
 4067              		.loc 1 684 0 discriminator 4
 4068 0070 C7F1B205 		rsb	r5, r7, #178
 683:..\..\..\liblc3\src/ltpf.c ****         (z_6k4 - n_6k4) * sizeof(*ltpf->x_6k4));
 4069              		.loc 1 683 0 discriminator 4
 4070 0074 6D00     		lsls	r5, r5, #1
 4071 0076 2A46     		mov	r2, r5
 4072 0078 08EB0901 		add	r1, r8, r9
 4073 007c 4046     		mov	r0, r8
 4074 007e FFF7FEFF 		bl	memmove
 4075              	.LVL687:
 686:..\..\..\liblc3\src/ltpf.c **** 
 4076              		.loc 1 686 0 discriminator 4
 4077 0082 4544     		add	r5, r5, r8
 4078              	.LVL688:
 688:..\..\..\liblc3\src/ltpf.c **** 
 4079              		.loc 1 688 0 discriminator 4
 4080 0084 3A46     		mov	r2, r7
 4081 0086 2946     		mov	r1, r5
 4082 0088 DDF80080 		ldr	r8, [sp]
 4083 008c 4046     		mov	r0, r8
 4084 008e FFF7FEFF 		bl	resample_6k4
 4085              	.LVL689:
 692:..\..\..\liblc3\src/ltpf.c ****         x_12k8 -= n_12k8, x_6k4 -= n_6k4;
 4086              		.loc 1 692 0 discriminator 4
 4087 0092 BBF1000F 		cmp	fp, #0
 4088 0096 06D1     		bne	.L258
 693:..\..\..\liblc3\src/ltpf.c ****         n_12k8 += n_12k8; n_6k4 += n_6k4;
 4089              		.loc 1 693 0
 4090 0098 CAEB0803 		rsb	r3, r10, r8
 4091 009c 0093     		str	r3, [sp]
 4092              	.LVL690:
 4093 009e C9EB0505 		rsb	r5, r9, r5
 4094              	.LVL691:
 694:..\..\..\liblc3\src/ltpf.c ****     }
 4095              		.loc 1 694 0
 4096 00a2 7600     		lsls	r6, r6, #1
 4097              	.LVL692:
 4098 00a4 4F46     		mov	r7, r9
 4099              	.LVL693:
 4100              	.L258:
 699:..\..\..\liblc3\src/ltpf.c ****     float nc = 0;
 4101              		.loc 1 699 0
ARM GAS  C:\Users\rdn\AppData\Local\Temp\cc5zc0m9.s 			page 95


 4102 00a6 0023     		movs	r3, #0
 4103 00a8 8293     		str	r3, [sp, #520]
 4104              	.LVL694:
 702:..\..\..\liblc3\src/ltpf.c **** 
 4105              		.loc 1 702 0
 4106 00aa 83AB     		add	r3, sp, #524
 4107 00ac 3A46     		mov	r2, r7
 4108 00ae 2946     		mov	r1, r5
 4109 00b0 2046     		mov	r0, r4
 4110 00b2 FFF7FEFF 		bl	detect_pitch
 4111              	.LVL695:
 704:..\..\..\liblc3\src/ltpf.c ****         int16_t u[128], v[128];
 4112              		.loc 1 704 0
 4113 00b6 0546     		mov	r5, r0
 4114              	.LVL696:
 4115 00b8 0028     		cmp	r0, #0
 4116 00ba 00F09F80 		beq	.L279
 4117              	.LBB305:
 707:..\..\..\liblc3\src/ltpf.c **** 
 4118              		.loc 1 707 0
 4119 00be 82AB     		add	r3, sp, #520
 4120 00c0 839A     		ldr	r2, [sp, #524]
 4121 00c2 3146     		mov	r1, r6
 4122 00c4 009F     		ldr	r7, [sp]
 4123              	.LVL697:
 4124 00c6 3846     		mov	r0, r7
 4125              	.LVL698:
 4126 00c8 FFF7FEFF 		bl	refine_pitch
 4127              	.LVL699:
 4128 00cc 909B     		ldr	r3, [sp, #576]
 4129 00ce 5860     		str	r0, [r3, #4]
 709:..\..\..\liblc3\src/ltpf.c ****         interpolate(x_12k8 - (pitch >> 2), n_12k8, pitch & 3, v);
 4130              		.loc 1 709 0
 4131 00d0 02AB     		add	r3, sp, #8
 4132 00d2 0022     		movs	r2, #0
 4133 00d4 3146     		mov	r1, r6
 4134 00d6 3846     		mov	r0, r7
 4135 00d8 FFF7FEFF 		bl	interpolate
 4136              	.LVL700:
 710:..\..\..\liblc3\src/ltpf.c **** 
 4137              		.loc 1 710 0
 4138 00dc 829A     		ldr	r2, [sp, #520]
 4139 00de 9010     		asrs	r0, r2, #2
 4140 00e0 42AB     		add	r3, sp, #264
 4141 00e2 02F00302 		and	r2, r2, #3
 4142 00e6 3146     		mov	r1, r6
 4143 00e8 A7EB4000 		sub	r0, r7, r0, lsl #1
 4144 00ec FFF7FEFF 		bl	interpolate
 4145              	.LVL701:
 4146              	.LBB306:
 4147              	.LBB307:
 4148              	.LBB308:
 442:..\..\..\liblc3\src/ltpf.c ****         for (int j = 0; j < 16; j++)
 4149              		.loc 1 442 0
 4150 00f0 4FF0000C 		mov	ip, #0
 4151              	.LBE308:
 440:..\..\..\liblc3\src/ltpf.c **** 
ARM GAS  C:\Users\rdn\AppData\Local\Temp\cc5zc0m9.s 			page 96


 4152              		.loc 1 440 0
 4153 00f4 0022     		movs	r2, #0
 4154 00f6 0023     		movs	r3, #0
 4155              	.LBE307:
 4156              	.LBE306:
 710:..\..\..\liblc3\src/ltpf.c **** 
 4157              		.loc 1 710 0
 4158 00f8 42AF     		add	r7, sp, #264
 4159              	.LVL702:
 4160 00fa 02A8     		add	r0, sp, #8
 4161              	.LVL703:
 4162 00fc 14E0     		b	.L260
 4163              	.LVL704:
 4164              	.L261:
 4165              	.LBB314:
 4166              	.LBB312:
 4167              	.LBB311:
 4168              	.LBB309:
 444:..\..\..\liblc3\src/ltpf.c **** 
 4169              		.loc 1 444 0
 4170 00fe B0F90080 		ldrsh	r8, [r0]
 4171              	.LVL705:
 4172 0102 B7F90010 		ldrsh	r1, [r7]
 4173 0106 01FB08F1 		mul	r1, r1, r8
 4174 010a 5218     		adds	r2, r2, r1
 4175              	.LVL706:
 4176 010c 43EBE173 		adc	r3, r3, r1, asr #31
 4177              	.LVL707:
 443:..\..\..\liblc3\src/ltpf.c ****             v += *(a++) * *(b++);
 4178              		.loc 1 443 0
 4179 0110 0EF1010E 		add	lr, lr, #1
 4180              	.LVL708:
 444:..\..\..\liblc3\src/ltpf.c **** 
 4181              		.loc 1 444 0
 4182 0114 0237     		adds	r7, r7, #2
 4183              	.LVL709:
 4184 0116 0230     		adds	r0, r0, #2
 4185              	.LVL710:
 4186 0118 01E0     		b	.L262
 4187              	.LVL711:
 4188              	.L280:
 4189              	.LBE309:
 442:..\..\..\liblc3\src/ltpf.c ****         for (int j = 0; j < 16; j++)
 4190              		.loc 1 442 0
 4191 011a 4FF0000E 		mov	lr, #0
 4192              	.L262:
 4193              	.LVL712:
 4194              	.LBB310:
 443:..\..\..\liblc3\src/ltpf.c ****             v += *(a++) * *(b++);
 4195              		.loc 1 443 0
 4196 011e BEF10F0F 		cmp	lr, #15
 4197 0122 ECDD     		ble	.L261
 4198              	.LBE310:
 442:..\..\..\liblc3\src/ltpf.c ****         for (int j = 0; j < 16; j++)
 4199              		.loc 1 442 0
 4200 0124 0CF1010C 		add	ip, ip, #1
 4201              	.LVL713:
ARM GAS  C:\Users\rdn\AppData\Local\Temp\cc5zc0m9.s 			page 97


 4202              	.L260:
 4203 0128 4FEA261E 		asr	lr, r6, #4
 4204 012c F445     		cmp	ip, lr
 4205 012e F4DB     		blt	.L280
 4206              	.LBE311:
 446:..\..\..\liblc3\src/ltpf.c ****     return (float)v32;
 4207              		.loc 1 446 0
 4208 0130 2032     		adds	r2, r2, #32
 4209              	.LVL714:
 4210 0132 43F10003 		adc	r3, r3, #0
 4211 0136 9209     		lsrs	r2, r2, #6
 4212 0138 42EA8362 		orr	r2, r2, r3, lsl #26
 4213              	.LVL715:
 447:..\..\..\liblc3\src/ltpf.c **** }
 4214              		.loc 1 447 0
 4215 013c 07EE902A 		vmov	s15, r2	@ int
 4216 0140 B8EEE78A 		vcvt.f32.s32	s16, s15
 4217              	.LVL716:
 4218              	.LBE312:
 4219              	.LBE314:
 4220              	.LBB315:
 4221              	.LBB316:
 4222              	.LBB317:
 442:..\..\..\liblc3\src/ltpf.c ****         for (int j = 0; j < 16; j++)
 4223              		.loc 1 442 0
 4224 0144 4FF0000C 		mov	ip, #0
 4225              	.LBE317:
 440:..\..\..\liblc3\src/ltpf.c **** 
 4226              		.loc 1 440 0
 4227 0148 0022     		movs	r2, #0
 4228 014a 0023     		movs	r3, #0
 4229              	.LBE316:
 4230              	.LBE315:
 4231              	.LBB323:
 4232              	.LBB313:
 447:..\..\..\liblc3\src/ltpf.c **** }
 4233              		.loc 1 447 0
 4234 014c 02AE     		add	r6, sp, #8
 4235              	.LVL717:
 4236 014e 3746     		mov	r7, r6
 4237 0150 11E0     		b	.L263
 4238              	.LVL718:
 4239              	.L264:
 4240              	.LBE313:
 4241              	.LBE323:
 4242              	.LBB324:
 4243              	.LBB321:
 4244              	.LBB320:
 4245              	.LBB318:
 444:..\..\..\liblc3\src/ltpf.c **** 
 4246              		.loc 1 444 0
 4247 0152 B7F90080 		ldrsh	r8, [r7]
 4248              	.LVL719:
 4249 0156 B6F90010 		ldrsh	r1, [r6]
 4250 015a 01FB08F1 		mul	r1, r1, r8
 4251 015e 5218     		adds	r2, r2, r1
 4252              	.LVL720:
ARM GAS  C:\Users\rdn\AppData\Local\Temp\cc5zc0m9.s 			page 98


 4253 0160 43EBE173 		adc	r3, r3, r1, asr #31
 4254              	.LVL721:
 443:..\..\..\liblc3\src/ltpf.c ****             v += *(a++) * *(b++);
 4255              		.loc 1 443 0
 4256 0164 0130     		adds	r0, r0, #1
 4257              	.LVL722:
 444:..\..\..\liblc3\src/ltpf.c **** 
 4258              		.loc 1 444 0
 4259 0166 0236     		adds	r6, r6, #2
 4260              	.LVL723:
 4261 0168 0237     		adds	r7, r7, #2
 4262              	.LVL724:
 4263 016a 00E0     		b	.L265
 4264              	.LVL725:
 4265              	.L281:
 4266              	.LBE318:
 442:..\..\..\liblc3\src/ltpf.c ****         for (int j = 0; j < 16; j++)
 4267              		.loc 1 442 0
 4268 016c 0020     		movs	r0, #0
 4269              	.L265:
 4270              	.LVL726:
 4271              	.LBB319:
 443:..\..\..\liblc3\src/ltpf.c ****             v += *(a++) * *(b++);
 4272              		.loc 1 443 0
 4273 016e 0F28     		cmp	r0, #15
 4274 0170 EFDD     		ble	.L264
 4275              	.LBE319:
 442:..\..\..\liblc3\src/ltpf.c ****         for (int j = 0; j < 16; j++)
 4276              		.loc 1 442 0
 4277 0172 0CF1010C 		add	ip, ip, #1
 4278              	.LVL727:
 4279              	.L263:
 4280 0176 F445     		cmp	ip, lr
 4281 0178 F8DB     		blt	.L281
 4282              	.LBE320:
 446:..\..\..\liblc3\src/ltpf.c ****     return (float)v32;
 4283              		.loc 1 446 0
 4284 017a 2032     		adds	r2, r2, #32
 4285              	.LVL728:
 4286 017c 43F10003 		adc	r3, r3, #0
 4287 0180 9209     		lsrs	r2, r2, #6
 4288 0182 42EA8362 		orr	r2, r2, r3, lsl #26
 4289              	.LVL729:
 447:..\..\..\liblc3\src/ltpf.c **** }
 4290              		.loc 1 447 0
 4291 0186 07EE902A 		vmov	s15, r2	@ int
 4292 018a F8EEE77A 		vcvt.f32.s32	s15, s15
 4293              	.LVL730:
 4294              	.LBE321:
 4295              	.LBE324:
 4296              	.LBB325:
 4297              	.LBB326:
 4298              	.LBB327:
 442:..\..\..\liblc3\src/ltpf.c ****         for (int j = 0; j < 16; j++)
 4299              		.loc 1 442 0
 4300 018e 4FF0000C 		mov	ip, #0
 4301              	.LBE327:
ARM GAS  C:\Users\rdn\AppData\Local\Temp\cc5zc0m9.s 			page 99


 440:..\..\..\liblc3\src/ltpf.c **** 
 4302              		.loc 1 440 0
 4303 0192 0020     		movs	r0, #0
 4304 0194 0021     		movs	r1, #0
 4305              	.LBE326:
 4306              	.LBE325:
 4307              	.LBB332:
 4308              	.LBB322:
 447:..\..\..\liblc3\src/ltpf.c **** }
 4309              		.loc 1 447 0
 4310 0196 42AE     		add	r6, sp, #264
 4311              	.LVL731:
 4312 0198 3746     		mov	r7, r6
 4313 019a 11E0     		b	.L266
 4314              	.LVL732:
 4315              	.L267:
 4316              	.LBE322:
 4317              	.LBE332:
 4318              	.LBB333:
 4319              	.LBB331:
 4320              	.LBB330:
 4321              	.LBB328:
 444:..\..\..\liblc3\src/ltpf.c **** 
 4322              		.loc 1 444 0
 4323 019c B7F90080 		ldrsh	r8, [r7]
 4324              	.LVL733:
 4325 01a0 B6F90030 		ldrsh	r3, [r6]
 4326 01a4 03FB08F3 		mul	r3, r3, r8
 4327 01a8 C018     		adds	r0, r0, r3
 4328              	.LVL734:
 4329 01aa 41EBE371 		adc	r1, r1, r3, asr #31
 4330              	.LVL735:
 443:..\..\..\liblc3\src/ltpf.c ****             v += *(a++) * *(b++);
 4331              		.loc 1 443 0
 4332 01ae 0132     		adds	r2, r2, #1
 4333              	.LVL736:
 444:..\..\..\liblc3\src/ltpf.c **** 
 4334              		.loc 1 444 0
 4335 01b0 0236     		adds	r6, r6, #2
 4336              	.LVL737:
 4337 01b2 0237     		adds	r7, r7, #2
 4338              	.LVL738:
 4339 01b4 00E0     		b	.L268
 4340              	.LVL739:
 4341              	.L282:
 4342              	.LBE328:
 442:..\..\..\liblc3\src/ltpf.c ****         for (int j = 0; j < 16; j++)
 4343              		.loc 1 442 0
 4344 01b6 0022     		movs	r2, #0
 4345              	.L268:
 4346              	.LVL740:
 4347              	.LBB329:
 443:..\..\..\liblc3\src/ltpf.c ****             v += *(a++) * *(b++);
 4348              		.loc 1 443 0
 4349 01b8 0F2A     		cmp	r2, #15
 4350 01ba EFDD     		ble	.L267
 4351              	.LBE329:
ARM GAS  C:\Users\rdn\AppData\Local\Temp\cc5zc0m9.s 			page 100


 442:..\..\..\liblc3\src/ltpf.c ****         for (int j = 0; j < 16; j++)
 4352              		.loc 1 442 0
 4353 01bc 0CF1010C 		add	ip, ip, #1
 4354              	.LVL741:
 4355              	.L266:
 4356 01c0 F445     		cmp	ip, lr
 4357 01c2 F8DB     		blt	.L282
 4358              	.LBE330:
 446:..\..\..\liblc3\src/ltpf.c ****     return (float)v32;
 4359              		.loc 1 446 0
 4360 01c4 2030     		adds	r0, r0, #32
 4361              	.LVL742:
 4362 01c6 41F10001 		adc	r1, r1, #0
 4363 01ca 8309     		lsrs	r3, r0, #6
 4364 01cc 43EA8163 		orr	r3, r3, r1, lsl #26
 4365              	.LVL743:
 447:..\..\..\liblc3\src/ltpf.c **** }
 4366              		.loc 1 447 0
 4367 01d0 07EE103A 		vmov	s14, r3	@ int
 4368 01d4 B8EEC77A 		vcvt.f32.s32	s14, s14
 4369              	.LVL744:
 4370              	.LBE331:
 4371              	.LBE333:
 712:..\..\..\liblc3\src/ltpf.c ****     }
 4372              		.loc 1 712 0
 4373 01d8 27EE276A 		vmul.f32	s12, s14, s15
 4374 01dc F1EEC66A 		vsqrt.f32	s13, s12
 4375 01e0 F4EE666A 		vcmp.f32	s13, s13
 4376 01e4 F1EE10FA 		vmrs	APSR_nzcv, FPSCR
 4377 01e8 05D0     		beq	.L269
 4378 01ea 16EE100A 		vmov	r0, s12
 4379 01ee FFF7FEFF 		bl	sqrtf
 4380              	.LVL745:
 4381 01f2 06EE900A 		vmov	s13, r0
 4382              	.L269:
 4383 01f6 C8EE267A 		vdiv.f32	s15, s16, s13
 4384              	.LVL746:
 4385 01fa 01E0     		b	.L259
 4386              	.LVL747:
 4387              	.L279:
 4388              	.LBE305:
 700:..\..\..\liblc3\src/ltpf.c **** 
 4389              		.loc 1 700 0
 4390 01fc DFED3D7A 		vldr.32	s15, .L300+4
 4391              	.LVL748:
 4392              	.L259:
 717:..\..\..\liblc3\src/ltpf.c ****         int pitch_diff =
 4393              		.loc 1 717 0
 4394 0200 2378     		ldrb	r3, [r4]	@ zero_extendqisi2
 4395 0202 D3B3     		cbz	r3, .L270
 4396              	.LBB334:
 719:..\..\..\liblc3\src/ltpf.c ****         float nc_diff = nc - ltpf->nc[0];
