ARM GAS  C:\Users\rdn\AppData\Local\Temp\cc5zc0m9.s 			page 1


   1              		.syntax unified
   2              		.cpu cortex-m4
   3              		.eabi_attribute 27, 1
   4              		.fpu fpv4-sp-d16
   5              		.eabi_attribute 20, 1
   6              		.eabi_attribute 21, 1
   7              		.eabi_attribute 23, 3
   8              		.eabi_attribute 24, 1
   9              		.eabi_attribute 25, 1
  10              		.eabi_attribute 26, 1
  11              		.eabi_attribute 30, 1
  12              		.eabi_attribute 34, 1
  13              		.eabi_attribute 18, 4
  14              		.thumb
  15              		.syntax unified
  16              		.file	"ltpf.c"
  17              		.text
  18              	.Ltext0:
  19              		.cfi_sections	.debug_frame
  20              		.section	.text.resample_8k_12k8,"ax",%progbits
  21              		.align	2
  22              		.thumb
  23              		.thumb_func
  24              		.type	resample_8k_12k8, %function
  25              	resample_8k_12k8:
  26              	.LFB23:
  27              		.file 1 "..\\..\\..\\liblc3\\src\\ltpf.c"
   1:..\..\..\liblc3\src/ltpf.c **** /******************************************************************************
   2:..\..\..\liblc3\src/ltpf.c ****  *
   3:..\..\..\liblc3\src/ltpf.c ****  *  Copyright 2022 Google LLC
   4:..\..\..\liblc3\src/ltpf.c ****  *
   5:..\..\..\liblc3\src/ltpf.c ****  *  Licensed under the Apache License, Version 2.0 (the "License");
   6:..\..\..\liblc3\src/ltpf.c ****  *  you may not use this file except in compliance with the License.
   7:..\..\..\liblc3\src/ltpf.c ****  *  You may obtain a copy of the License at:
   8:..\..\..\liblc3\src/ltpf.c ****  *
   9:..\..\..\liblc3\src/ltpf.c ****  *  http://www.apache.org/licenses/LICENSE-2.0
  10:..\..\..\liblc3\src/ltpf.c ****  *
  11:..\..\..\liblc3\src/ltpf.c ****  *  Unless required by applicable law or agreed to in writing, software
  12:..\..\..\liblc3\src/ltpf.c ****  *  distributed under the License is distributed on an "AS IS" BASIS,
  13:..\..\..\liblc3\src/ltpf.c ****  *  WITHOUT WARRANTIES OR CONDITIONS OF ANY KIND, either express or implied.
  14:..\..\..\liblc3\src/ltpf.c ****  *  See the License for the specific language governing permissions and
  15:..\..\..\liblc3\src/ltpf.c ****  *  limitations under the License.
  16:..\..\..\liblc3\src/ltpf.c ****  *
  17:..\..\..\liblc3\src/ltpf.c ****  ******************************************************************************/
  18:..\..\..\liblc3\src/ltpf.c **** 
  19:..\..\..\liblc3\src/ltpf.c **** #include "ltpf.h"
  20:..\..\..\liblc3\src/ltpf.c **** #include "tables.h"
  21:..\..\..\liblc3\src/ltpf.c **** 
  22:..\..\..\liblc3\src/ltpf.c **** #include "ltpf_neon.h"
  23:..\..\..\liblc3\src/ltpf.c **** #include "ltpf_arm.h"
  24:..\..\..\liblc3\src/ltpf.c **** 
  25:..\..\..\liblc3\src/ltpf.c **** 
  26:..\..\..\liblc3\src/ltpf.c **** /* ----------------------------------------------------------------------------
  27:..\..\..\liblc3\src/ltpf.c ****  *  Resampling
  28:..\..\..\liblc3\src/ltpf.c ****  * -------------------------------------------------------------------------- */
  29:..\..\..\liblc3\src/ltpf.c **** 
  30:..\..\..\liblc3\src/ltpf.c **** /**
ARM GAS  C:\Users\rdn\AppData\Local\Temp\cc5zc0m9.s 			page 2


  31:..\..\..\liblc3\src/ltpf.c ****  * Resampling coefficients
  32:..\..\..\liblc3\src/ltpf.c ****  * The coefficients, in fixed Q15, are reordered by phase for each source
  33:..\..\..\liblc3\src/ltpf.c ****  * samplerate (coefficient matrix transposed)
  34:..\..\..\liblc3\src/ltpf.c ****  */
  35:..\..\..\liblc3\src/ltpf.c **** 
  36:..\..\..\liblc3\src/ltpf.c **** #ifndef resample_8k_12k8
  37:..\..\..\liblc3\src/ltpf.c **** static const int16_t h_8k_12k8_q15[8*10] = {
  38:..\..\..\liblc3\src/ltpf.c ****       214,   417, -1052, -4529, 26233, -4529, -1052,   417,   214,     0,
  39:..\..\..\liblc3\src/ltpf.c ****       180,     0, -1522, -2427, 24506, -5289,     0,   763,   156,   -28,
  40:..\..\..\liblc3\src/ltpf.c ****        92,  -323, -1361,     0, 19741, -3885,  1317,   861,     0,   -61,
  41:..\..\..\liblc3\src/ltpf.c ****         0,  -457,  -752,  1873, 13068,     0,  2389,   598,  -213,   -79,
  42:..\..\..\liblc3\src/ltpf.c ****       -61,  -398,     0,  2686,  5997,  5997,  2686,     0,  -398,   -61,
  43:..\..\..\liblc3\src/ltpf.c ****       -79,  -213,   598,  2389,     0, 13068,  1873,  -752,  -457,     0,
  44:..\..\..\liblc3\src/ltpf.c ****       -61,     0,   861,  1317, -3885, 19741,     0, -1361,  -323,    92,
  45:..\..\..\liblc3\src/ltpf.c ****       -28,   156,   763,     0, -5289, 24506, -2427, -1522,     0,   180,
  46:..\..\..\liblc3\src/ltpf.c **** };
  47:..\..\..\liblc3\src/ltpf.c **** #endif /* resample_8k_12k8 */
  48:..\..\..\liblc3\src/ltpf.c **** 
  49:..\..\..\liblc3\src/ltpf.c **** #ifndef resample_16k_12k8
  50:..\..\..\liblc3\src/ltpf.c **** static const int16_t h_16k_12k8_q15[4*20] = {
  51:..\..\..\liblc3\src/ltpf.c ****       -61,   214,  -398,   417,     0, -1052,  2686, -4529,  5997, 26233,
  52:..\..\..\liblc3\src/ltpf.c ****      5997, -4529,  2686, -1052,     0,   417,  -398,   214,   -61,     0,
  53:..\..\..\liblc3\src/ltpf.c **** 
  54:..\..\..\liblc3\src/ltpf.c ****       -79,   180,  -213,     0,   598, -1522,  2389, -2427,     0, 24506,
  55:..\..\..\liblc3\src/ltpf.c ****     13068, -5289,  1873,     0,  -752,   763,  -457,   156,     0,   -28,
  56:..\..\..\liblc3\src/ltpf.c **** 
  57:..\..\..\liblc3\src/ltpf.c ****       -61,    92,     0,  -323,   861, -1361,  1317,     0, -3885, 19741,
  58:..\..\..\liblc3\src/ltpf.c ****     19741, -3885,     0,  1317, -1361,   861,  -323,     0,    92,   -61,
  59:..\..\..\liblc3\src/ltpf.c **** 
  60:..\..\..\liblc3\src/ltpf.c ****       -28,     0,   156,  -457,   763,  -752,     0,  1873, -5289, 13068,
  61:..\..\..\liblc3\src/ltpf.c ****     24506,     0, -2427,  2389, -1522,   598,     0,  -213,   180,   -79,
  62:..\..\..\liblc3\src/ltpf.c **** };
  63:..\..\..\liblc3\src/ltpf.c **** #endif /* resample_16k_12k8 */
  64:..\..\..\liblc3\src/ltpf.c **** 
  65:..\..\..\liblc3\src/ltpf.c **** #ifndef resample_32k_12k8
  66:..\..\..\liblc3\src/ltpf.c **** static const int16_t h_32k_12k8_q15[2*40] = {
  67:..\..\..\liblc3\src/ltpf.c ****       -30,   -31,    46,   107,     0,  -199,  -162,   209,   430,     0,
  68:..\..\..\liblc3\src/ltpf.c ****      -681,  -526,   658,  1343,     0, -2264, -1943,  2999,  9871, 13116,
  69:..\..\..\liblc3\src/ltpf.c ****      9871,  2999, -1943, -2264,     0,  1343,   658,  -526,  -681,     0,
  70:..\..\..\liblc3\src/ltpf.c ****       430,   209,  -162,  -199,     0,   107,    46,   -31,   -30,     0,
  71:..\..\..\liblc3\src/ltpf.c **** 
  72:..\..\..\liblc3\src/ltpf.c ****       -14,   -39,     0,    90,    78,  -106,  -229,     0,   382,   299,
  73:..\..\..\liblc3\src/ltpf.c ****      -376,  -761,     0,  1194,   937, -1214, -2644,     0,  6534, 12253,
  74:..\..\..\liblc3\src/ltpf.c ****     12253,  6534,     0, -2644, -1214,   937,  1194,     0,  -761,  -376,
  75:..\..\..\liblc3\src/ltpf.c ****       299,   382,     0,  -229,  -106,    78,    90,     0,   -39,   -14,
  76:..\..\..\liblc3\src/ltpf.c **** };
  77:..\..\..\liblc3\src/ltpf.c **** #endif /* resample_32k_12k8 */
  78:..\..\..\liblc3\src/ltpf.c **** 
  79:..\..\..\liblc3\src/ltpf.c **** #ifndef resample_24k_12k8
  80:..\..\..\liblc3\src/ltpf.c **** static const int16_t h_24k_12k8_q15[8*30] = {
  81:..\..\..\liblc3\src/ltpf.c ****       -50,    19,   143,   -93,  -290,   278,   485,  -658,  -701,  1396,
  82:..\..\..\liblc3\src/ltpf.c ****       901, -3019, -1042, 10276, 17488, 10276, -1042, -3019,   901,  1396,
  83:..\..\..\liblc3\src/ltpf.c ****      -701,  -658,   485,   278,  -290,   -93,   143,    19,   -50,     0,
  84:..\..\..\liblc3\src/ltpf.c **** 
  85:..\..\..\liblc3\src/ltpf.c ****       -46,     0,   141,   -45,  -305,   185,   543,  -501,  -854,  1153,
  86:..\..\..\liblc3\src/ltpf.c ****      1249, -2619, -1908,  8712, 17358, 11772,     0, -3319,   480,  1593,
  87:..\..\..\liblc3\src/ltpf.c ****      -504,  -796,   399,   367,  -261,  -142,   138,    40,   -52,    -5,
ARM GAS  C:\Users\rdn\AppData\Local\Temp\cc5zc0m9.s 			page 3


  88:..\..\..\liblc3\src/ltpf.c **** 
  89:..\..\..\liblc3\src/ltpf.c ****       -41,   -17,   133,     0,  -304,    91,   574,  -334,  -959,   878,
  90:..\..\..\liblc3\src/ltpf.c ****      1516, -2143, -2590,  7118, 16971, 13161,  1202, -3495,     0,  1731,
  91:..\..\..\liblc3\src/ltpf.c ****      -267,  -908,   287,   445,  -215,  -188,   125,    62,   -52,   -12,
  92:..\..\..\liblc3\src/ltpf.c **** 
  93:..\..\..\liblc3\src/ltpf.c ****       -34,   -30,   120,    41,  -291,     0,   577,  -164, -1015,   585,
  94:..\..\..\liblc3\src/ltpf.c ****      1697, -1618, -3084,  5534, 16337, 14406,  2544, -3526,  -523,  1800,
  95:..\..\..\liblc3\src/ltpf.c ****         0,  -985,   152,   509,  -156,  -230,   104,    83,   -48,   -19,
  96:..\..\..\liblc3\src/ltpf.c **** 
  97:..\..\..\liblc3\src/ltpf.c ****       -26,   -41,   103,    76,  -265,   -83,   554,     0, -1023,   288,
  98:..\..\..\liblc3\src/ltpf.c ****      1791, -1070, -3393,  3998, 15474, 15474,  3998, -3393, -1070,  1791,
  99:..\..\..\liblc3\src/ltpf.c ****       288, -1023,     0,   554,   -83,  -265,    76,   103,   -41,   -26,
 100:..\..\..\liblc3\src/ltpf.c **** 
 101:..\..\..\liblc3\src/ltpf.c ****       -19,   -48,    83,   104,  -230,  -156,   509,   152,  -985,     0,
 102:..\..\..\liblc3\src/ltpf.c ****      1800,  -523, -3526,  2544, 14406, 16337,  5534, -3084, -1618,  1697,
 103:..\..\..\liblc3\src/ltpf.c ****       585, -1015,  -164,   577,     0,  -291,    41,   120,   -30,   -34,
 104:..\..\..\liblc3\src/ltpf.c **** 
 105:..\..\..\liblc3\src/ltpf.c ****       -12,   -52,    62,   125,  -188,  -215,   445,   287,  -908,  -267,
 106:..\..\..\liblc3\src/ltpf.c ****      1731,     0, -3495,  1202, 13161, 16971,  7118, -2590, -2143,  1516,
 107:..\..\..\liblc3\src/ltpf.c ****       878,  -959,  -334,   574,    91,  -304,     0,   133,   -17,   -41,
 108:..\..\..\liblc3\src/ltpf.c **** 
 109:..\..\..\liblc3\src/ltpf.c ****        -5,   -52,    40,   138,  -142,  -261,   367,   399,  -796,  -504,
 110:..\..\..\liblc3\src/ltpf.c ****      1593,   480, -3319,     0, 11772, 17358,  8712, -1908, -2619,  1249,
 111:..\..\..\liblc3\src/ltpf.c ****      1153,  -854,  -501,   543,   185,  -305,   -45,   141,     0,   -46,
 112:..\..\..\liblc3\src/ltpf.c **** };
 113:..\..\..\liblc3\src/ltpf.c **** #endif /* resample_24k_12k8 */
 114:..\..\..\liblc3\src/ltpf.c **** 
 115:..\..\..\liblc3\src/ltpf.c **** #ifndef resample_48k_12k8
 116:..\..\..\liblc3\src/ltpf.c **** static const int16_t h_48k_12k8_q15[4*60] = {
 117:..\..\..\liblc3\src/ltpf.c ****       -13,   -25,   -20,    10,    51,    71,    38,   -47,  -133,  -145,
 118:..\..\..\liblc3\src/ltpf.c ****       -42,   139,   277,   242,     0,  -329,  -511,  -351,   144,   698,
 119:..\..\..\liblc3\src/ltpf.c ****       895,   450,  -535, -1510, -1697,  -521,  1999,  5138,  7737,  8744,
 120:..\..\..\liblc3\src/ltpf.c ****      7737,  5138,  1999,  -521, -1697, -1510,  -535,   450,   895,   698,
 121:..\..\..\liblc3\src/ltpf.c ****       144,  -351,  -511,  -329,     0,   242,   277,   139,   -42,  -145,
 122:..\..\..\liblc3\src/ltpf.c ****      -133,   -47,    38,    71,    51,    10,   -20,   -25,   -13,     0,
 123:..\..\..\liblc3\src/ltpf.c **** 
 124:..\..\..\liblc3\src/ltpf.c ****        -9,   -23,   -24,     0,    41,    71,    52,   -23,  -115,  -152,
 125:..\..\..\liblc3\src/ltpf.c ****       -78,    92,   254,   272,    76,  -251,  -493,  -427,     0,   576,
 126:..\..\..\liblc3\src/ltpf.c ****       900,   624,  -262, -1309, -1763,  -954,  1272,  4356,  7203,  8679,
 127:..\..\..\liblc3\src/ltpf.c ****      8169,  5886,  2767,     0, -1542, -1660,  -809,   240,   848,   796,
 128:..\..\..\liblc3\src/ltpf.c ****       292,  -252,  -507,  -398,   -82,   199,   288,   183,     0,  -130,
 129:..\..\..\liblc3\src/ltpf.c ****      -145,   -71,    20,    69,    60,    20,   -15,   -26,   -17,    -3,
 130:..\..\..\liblc3\src/ltpf.c **** 
 131:..\..\..\liblc3\src/ltpf.c ****        -6,   -20,   -26,    -8,    31,    67,    62,     0,   -94,  -152,
 132:..\..\..\liblc3\src/ltpf.c ****      -108,    45,   223,   287,   143,  -167,  -454,  -480,  -134,   439,
 133:..\..\..\liblc3\src/ltpf.c ****       866,   758,     0, -1071, -1748, -1295,   601,  3559,  6580,  8485,
 134:..\..\..\liblc3\src/ltpf.c ****      8485,  6580,  3559,   601, -1295, -1748, -1071,     0,   758,   866,
 135:..\..\..\liblc3\src/ltpf.c ****       439,  -134,  -480,  -454,  -167,   143,   287,   223,    45,  -108,
 136:..\..\..\liblc3\src/ltpf.c ****      -152,   -94,     0,    62,    67,    31,    -8,   -26,   -20,    -6,
 137:..\..\..\liblc3\src/ltpf.c **** 
 138:..\..\..\liblc3\src/ltpf.c ****        -3,   -17,   -26,   -15,    20,    60,    69,    20,   -71,  -145,
 139:..\..\..\liblc3\src/ltpf.c ****      -130,     0,   183,   288,   199,   -82,  -398,  -507,  -252,   292,
 140:..\..\..\liblc3\src/ltpf.c ****       796,   848,   240,  -809, -1660, -1542,     0,  2767,  5886,  8169,
 141:..\..\..\liblc3\src/ltpf.c ****      8679,  7203,  4356,  1272,  -954, -1763, -1309,  -262,   624,   900,
 142:..\..\..\liblc3\src/ltpf.c ****       576,     0,  -427,  -493,  -251,    76,   272,   254,    92,   -78,
 143:..\..\..\liblc3\src/ltpf.c ****      -152,  -115,   -23,    52,    71,    41,     0,   -24,   -23,    -9,
 144:..\..\..\liblc3\src/ltpf.c **** };
ARM GAS  C:\Users\rdn\AppData\Local\Temp\cc5zc0m9.s 			page 4


 145:..\..\..\liblc3\src/ltpf.c **** #endif /* resample_48k_12k8 */
 146:..\..\..\liblc3\src/ltpf.c **** 
 147:..\..\..\liblc3\src/ltpf.c **** #ifndef resample_96k_12k8
 148:..\..\..\liblc3\src/ltpf.c **** static const int16_t h_96k_12k8_q15[2*120] = {
 149:..\..\..\liblc3\src/ltpf.c ****        -3,    -7,   -10,   -13,   -13,   -10,    -4,     5,    15,    26,
 150:..\..\..\liblc3\src/ltpf.c ****        33,    36,    31,    19,     0,   -23,   -47,   -66,   -76,   -73,
 151:..\..\..\liblc3\src/ltpf.c ****       -54,   -21,    23,    70,   111,   139,   143,   121,    72,     0,
 152:..\..\..\liblc3\src/ltpf.c ****       -84,  -165,  -227,  -256,  -240,  -175,   -67,    72,   219,   349,
 153:..\..\..\liblc3\src/ltpf.c ****       433,   448,   379,   225,     0,  -268,  -536,  -755,  -874,  -848,
 154:..\..\..\liblc3\src/ltpf.c ****      -648,  -260,   301,  1000,  1780,  2569,  3290,  3869,  4243,  4372,
 155:..\..\..\liblc3\src/ltpf.c ****      4243,  3869,  3290,  2569,  1780,  1000,   301,  -260,  -648,  -848,
 156:..\..\..\liblc3\src/ltpf.c ****      -874,  -755,  -536,  -268,     0,   225,   379,   448,   433,   349,
 157:..\..\..\liblc3\src/ltpf.c ****       219,    72,   -67,  -175,  -240,  -256,  -227,  -165,   -84,     0,
 158:..\..\..\liblc3\src/ltpf.c ****        72,   121,   143,   139,   111,    70,    23,   -21,   -54,   -73,
 159:..\..\..\liblc3\src/ltpf.c ****       -76,   -66,   -47,   -23,     0,    19,    31,    36,    33,    26,
 160:..\..\..\liblc3\src/ltpf.c ****        15,     5,    -4,   -10,   -13,   -13,   -10,    -7,    -3,     0,
 161:..\..\..\liblc3\src/ltpf.c **** 
 162:..\..\..\liblc3\src/ltpf.c ****        -1,    -5,    -8,   -12,   -13,   -12,    -8,     0,    10,    21,
 163:..\..\..\liblc3\src/ltpf.c ****        30,    35,    34,    26,    10,   -11,   -35,   -58,   -73,   -76,
 164:..\..\..\liblc3\src/ltpf.c ****       -65,   -39,     0,    46,    92,   127,   144,   136,   100,    38,
 165:..\..\..\liblc3\src/ltpf.c ****       -41,  -125,  -199,  -246,  -254,  -214,  -126,     0,   146,   288,
 166:..\..\..\liblc3\src/ltpf.c ****       398,   450,   424,   312,   120,  -131,  -405,  -655,  -830,  -881,
 167:..\..\..\liblc3\src/ltpf.c ****      -771,  -477,     0,   636,  1384,  2178,  2943,  3601,  4084,  4340,
 168:..\..\..\liblc3\src/ltpf.c ****      4340,  4084,  3601,  2943,  2178,  1384,   636,     0,  -477,  -771,
 169:..\..\..\liblc3\src/ltpf.c ****      -881,  -830,  -655,  -405,  -131,   120,   312,   424,   450,   398,
 170:..\..\..\liblc3\src/ltpf.c ****       288,   146,     0,  -126,  -214,  -254,  -246,  -199,  -125,   -41,
 171:..\..\..\liblc3\src/ltpf.c ****        38,   100,   136,   144,   127,    92,    46,     0,   -39,   -65,
 172:..\..\..\liblc3\src/ltpf.c ****       -76,   -73,   -58,   -35,   -11,    10,    26,    34,    35,    30,
 173:..\..\..\liblc3\src/ltpf.c ****        21,    10,     0,    -8,   -12,   -13,   -12,    -8,    -5,    -1,
 174:..\..\..\liblc3\src/ltpf.c **** };
 175:..\..\..\liblc3\src/ltpf.c **** #endif /* resample_96k_12k8 */
 176:..\..\..\liblc3\src/ltpf.c **** 
 177:..\..\..\liblc3\src/ltpf.c **** 
 178:..\..\..\liblc3\src/ltpf.c **** /**
 179:..\..\..\liblc3\src/ltpf.c ****  * High-pass 50Hz filtering, at 12.8 KHz samplerate
 180:..\..\..\liblc3\src/ltpf.c ****  * hp50            Biquad filter state
 181:..\..\..\liblc3\src/ltpf.c ****  * xn              Input sample, in fixed Q30
 182:..\..\..\liblc3\src/ltpf.c ****  * return          Filtered sample, in fixed Q30
 183:..\..\..\liblc3\src/ltpf.c ****  */
 184:..\..\..\liblc3\src/ltpf.c **** LC3_HOT static inline int32_t filter_hp50(
 185:..\..\..\liblc3\src/ltpf.c ****     struct lc3_ltpf_hp50_state *hp50, int32_t xn)
 186:..\..\..\liblc3\src/ltpf.c **** {
 187:..\..\..\liblc3\src/ltpf.c ****     int32_t yn;
 188:..\..\..\liblc3\src/ltpf.c **** 
 189:..\..\..\liblc3\src/ltpf.c ****     const int32_t a1 = -2110217691, a2 = 1037111617;
 190:..\..\..\liblc3\src/ltpf.c ****     const int32_t b1 = -2110535566, b2 = 1055267782;
 191:..\..\..\liblc3\src/ltpf.c **** 
 192:..\..\..\liblc3\src/ltpf.c ****     yn       = (hp50->s1 + (int64_t)xn * b2) >> 30;
 193:..\..\..\liblc3\src/ltpf.c ****     hp50->s1 = (hp50->s2 + (int64_t)xn * b1 - (int64_t)yn * a1);
 194:..\..\..\liblc3\src/ltpf.c ****     hp50->s2 = (           (int64_t)xn * b2 - (int64_t)yn * a2);
 195:..\..\..\liblc3\src/ltpf.c **** 
 196:..\..\..\liblc3\src/ltpf.c ****     return yn;
 197:..\..\..\liblc3\src/ltpf.c **** }
 198:..\..\..\liblc3\src/ltpf.c **** 
 199:..\..\..\liblc3\src/ltpf.c **** /**
 200:..\..\..\liblc3\src/ltpf.c ****  * Resample from 8 / 16 / 32 KHz to 12.8 KHz Template
 201:..\..\..\liblc3\src/ltpf.c ****  * p               Resampling factor with compared to 192 KHz (8, 4 or 2)
ARM GAS  C:\Users\rdn\AppData\Local\Temp\cc5zc0m9.s 			page 5


 202:..\..\..\liblc3\src/ltpf.c ****  * h               Arrange by phase coefficients table
 203:..\..\..\liblc3\src/ltpf.c ****  * hp50            High-Pass biquad filter state
 204:..\..\..\liblc3\src/ltpf.c ****  * x               [-d..-1] Previous, [0..ns-1] Current samples, Q15
 205:..\..\..\liblc3\src/ltpf.c ****  * y, n            [0..n-1] Output `n` processed samples, Q14
 206:..\..\..\liblc3\src/ltpf.c ****  *
 207:..\..\..\liblc3\src/ltpf.c ****  * The `x` vector is aligned on 32 bits
 208:..\..\..\liblc3\src/ltpf.c ****  * The number of previous samples `d` accessed on `x` is :
 209:..\..\..\liblc3\src/ltpf.c ****  *   d: { 10, 20, 40 } - 1 for resampling factors 8, 4 and 2.
 210:..\..\..\liblc3\src/ltpf.c ****  */
 211:..\..\..\liblc3\src/ltpf.c **** #if !defined(resample_8k_12k8) || !defined(resample_16k_12k8) \
 212:..\..\..\liblc3\src/ltpf.c ****     || !defined(resample_32k_12k8)
 213:..\..\..\liblc3\src/ltpf.c **** LC3_HOT static inline void resample_x64k_12k8(const int p, const int16_t *h,
 214:..\..\..\liblc3\src/ltpf.c ****     struct lc3_ltpf_hp50_state *hp50, const int16_t *x, int16_t *y, int n)
 215:..\..\..\liblc3\src/ltpf.c **** {
 216:..\..\..\liblc3\src/ltpf.c ****     const int w = 2*(40 / p);
 217:..\..\..\liblc3\src/ltpf.c **** 
 218:..\..\..\liblc3\src/ltpf.c ****     x -= w - 1;
 219:..\..\..\liblc3\src/ltpf.c **** 
 220:..\..\..\liblc3\src/ltpf.c ****     for (int i = 0; i < 5*n; i += 5) {
 221:..\..\..\liblc3\src/ltpf.c ****         const int16_t *hn = h + (i % p) * w;
 222:..\..\..\liblc3\src/ltpf.c ****         const int16_t *xn = x + (i / p);
 223:..\..\..\liblc3\src/ltpf.c ****         int32_t un = 0;
 224:..\..\..\liblc3\src/ltpf.c **** 
 225:..\..\..\liblc3\src/ltpf.c ****         for (int k = 0; k < w; k += 10) {
 226:..\..\..\liblc3\src/ltpf.c ****             un += *(xn++) * *(hn++);
 227:..\..\..\liblc3\src/ltpf.c ****             un += *(xn++) * *(hn++);
 228:..\..\..\liblc3\src/ltpf.c ****             un += *(xn++) * *(hn++);
 229:..\..\..\liblc3\src/ltpf.c ****             un += *(xn++) * *(hn++);
 230:..\..\..\liblc3\src/ltpf.c ****             un += *(xn++) * *(hn++);
 231:..\..\..\liblc3\src/ltpf.c ****             un += *(xn++) * *(hn++);
 232:..\..\..\liblc3\src/ltpf.c ****             un += *(xn++) * *(hn++);
 233:..\..\..\liblc3\src/ltpf.c ****             un += *(xn++) * *(hn++);
 234:..\..\..\liblc3\src/ltpf.c ****             un += *(xn++) * *(hn++);
 235:..\..\..\liblc3\src/ltpf.c ****             un += *(xn++) * *(hn++);
 236:..\..\..\liblc3\src/ltpf.c ****         }
 237:..\..\..\liblc3\src/ltpf.c **** 
 238:..\..\..\liblc3\src/ltpf.c ****         int32_t yn = filter_hp50(hp50, un);
 239:..\..\..\liblc3\src/ltpf.c ****         *(y++) = (yn + (1 << 15)) >> 16;
 240:..\..\..\liblc3\src/ltpf.c ****     }
 241:..\..\..\liblc3\src/ltpf.c **** }
 242:..\..\..\liblc3\src/ltpf.c **** #endif
 243:..\..\..\liblc3\src/ltpf.c **** 
 244:..\..\..\liblc3\src/ltpf.c **** /**
 245:..\..\..\liblc3\src/ltpf.c ****  * Resample from 24 / 48 KHz to 12.8 KHz Template
 246:..\..\..\liblc3\src/ltpf.c ****  * p               Resampling factor with compared to 192 KHz (8 or 4)
 247:..\..\..\liblc3\src/ltpf.c ****  * h               Arrange by phase coefficients table
 248:..\..\..\liblc3\src/ltpf.c ****  * hp50            High-Pass biquad filter state
 249:..\..\..\liblc3\src/ltpf.c ****  * x               [-d..-1] Previous, [0..ns-1] Current samples, Q15
 250:..\..\..\liblc3\src/ltpf.c ****  * y, n            [0..n-1] Output `n` processed samples, Q14
 251:..\..\..\liblc3\src/ltpf.c ****  *
 252:..\..\..\liblc3\src/ltpf.c ****  * The `x` vector is aligned on 32 bits
 253:..\..\..\liblc3\src/ltpf.c ****  * The number of previous samples `d` accessed on `x` is :
 254:..\..\..\liblc3\src/ltpf.c ****  *   d: { 30, 60 } - 1 for resampling factors 8 and 4.
 255:..\..\..\liblc3\src/ltpf.c ****  */
 256:..\..\..\liblc3\src/ltpf.c **** #if !defined(resample_24k_12k8) || !defined(resample_48k_12k8) \
 257:..\..\..\liblc3\src/ltpf.c ****     || !defined(resample_96k_12k8)
 258:..\..\..\liblc3\src/ltpf.c **** LC3_HOT static inline void resample_x192k_12k8(const int p, const int16_t *h,
ARM GAS  C:\Users\rdn\AppData\Local\Temp\cc5zc0m9.s 			page 6


 259:..\..\..\liblc3\src/ltpf.c ****     struct lc3_ltpf_hp50_state *hp50, const int16_t *x, int16_t *y, int n)
 260:..\..\..\liblc3\src/ltpf.c **** {
 261:..\..\..\liblc3\src/ltpf.c ****     const int w = 2*(120 / p);
 262:..\..\..\liblc3\src/ltpf.c **** 
 263:..\..\..\liblc3\src/ltpf.c ****     x -= w - 1;
 264:..\..\..\liblc3\src/ltpf.c **** 
 265:..\..\..\liblc3\src/ltpf.c ****     for (int i = 0; i < 15*n; i += 15) {
 266:..\..\..\liblc3\src/ltpf.c ****         const int16_t *hn = h + (i % p) * w;
 267:..\..\..\liblc3\src/ltpf.c ****         const int16_t *xn = x + (i / p);
 268:..\..\..\liblc3\src/ltpf.c ****         int32_t un = 0;
 269:..\..\..\liblc3\src/ltpf.c **** 
 270:..\..\..\liblc3\src/ltpf.c ****         for (int k = 0; k < w; k += 15) {
 271:..\..\..\liblc3\src/ltpf.c ****             un += *(xn++) * *(hn++);
 272:..\..\..\liblc3\src/ltpf.c ****             un += *(xn++) * *(hn++);
 273:..\..\..\liblc3\src/ltpf.c ****             un += *(xn++) * *(hn++);
 274:..\..\..\liblc3\src/ltpf.c ****             un += *(xn++) * *(hn++);
 275:..\..\..\liblc3\src/ltpf.c ****             un += *(xn++) * *(hn++);
 276:..\..\..\liblc3\src/ltpf.c ****             un += *(xn++) * *(hn++);
 277:..\..\..\liblc3\src/ltpf.c ****             un += *(xn++) * *(hn++);
 278:..\..\..\liblc3\src/ltpf.c ****             un += *(xn++) * *(hn++);
 279:..\..\..\liblc3\src/ltpf.c ****             un += *(xn++) * *(hn++);
 280:..\..\..\liblc3\src/ltpf.c ****             un += *(xn++) * *(hn++);
 281:..\..\..\liblc3\src/ltpf.c ****             un += *(xn++) * *(hn++);
 282:..\..\..\liblc3\src/ltpf.c ****             un += *(xn++) * *(hn++);
 283:..\..\..\liblc3\src/ltpf.c ****             un += *(xn++) * *(hn++);
 284:..\..\..\liblc3\src/ltpf.c ****             un += *(xn++) * *(hn++);
 285:..\..\..\liblc3\src/ltpf.c ****             un += *(xn++) * *(hn++);
 286:..\..\..\liblc3\src/ltpf.c ****         }
 287:..\..\..\liblc3\src/ltpf.c **** 
 288:..\..\..\liblc3\src/ltpf.c ****         int32_t yn = filter_hp50(hp50, un);
 289:..\..\..\liblc3\src/ltpf.c ****         *(y++) = (yn + (1 << 15)) >> 16;
 290:..\..\..\liblc3\src/ltpf.c ****     }
 291:..\..\..\liblc3\src/ltpf.c **** }
 292:..\..\..\liblc3\src/ltpf.c **** #endif
 293:..\..\..\liblc3\src/ltpf.c **** 
 294:..\..\..\liblc3\src/ltpf.c **** /**
 295:..\..\..\liblc3\src/ltpf.c ****  * Resample from 8 Khz to 12.8 KHz
 296:..\..\..\liblc3\src/ltpf.c ****  * hp50            High-Pass biquad filter state
 297:..\..\..\liblc3\src/ltpf.c ****  * x               [-10..-1] Previous, [0..ns-1] Current samples, Q15
 298:..\..\..\liblc3\src/ltpf.c ****  * y, n            [0..n-1] Output `n` processed samples, Q14
 299:..\..\..\liblc3\src/ltpf.c ****  *
 300:..\..\..\liblc3\src/ltpf.c ****  * The `x` vector is aligned on 32 bits
 301:..\..\..\liblc3\src/ltpf.c ****  */
 302:..\..\..\liblc3\src/ltpf.c **** #ifndef resample_8k_12k8
 303:..\..\..\liblc3\src/ltpf.c **** LC3_HOT static void resample_8k_12k8(
 304:..\..\..\liblc3\src/ltpf.c ****     struct lc3_ltpf_hp50_state *hp50, const int16_t *x, int16_t *y, int n)
 305:..\..\..\liblc3\src/ltpf.c **** {
  28              		.loc 1 305 0
  29              		.cfi_startproc
  30              		@ args = 0, pretend = 0, frame = 8
  31              		@ frame_needed = 0, uses_anonymous_args = 0
  32              	.LVL0:
  33 0000 2DE9F04F 		push	{r4, r5, r6, r7, r8, r9, r10, fp, lr}
  34              		.cfi_def_cfa_offset 36
  35              		.cfi_offset 4, -36
  36              		.cfi_offset 5, -32
  37              		.cfi_offset 6, -28
ARM GAS  C:\Users\rdn\AppData\Local\Temp\cc5zc0m9.s 			page 7


  38              		.cfi_offset 7, -24
  39              		.cfi_offset 8, -20
  40              		.cfi_offset 9, -16
  41              		.cfi_offset 10, -12
  42              		.cfi_offset 11, -8
  43              		.cfi_offset 14, -4
  44 0004 83B0     		sub	sp, sp, #12
  45              		.cfi_def_cfa_offset 48
  46 0006 0191     		str	r1, [sp, #4]
  47 0008 9E46     		mov	lr, r3
  48              	.LVL1:
  49              	.LBB78:
  50              	.LBB79:
 218:..\..\..\liblc3\src/ltpf.c **** 
  51              		.loc 1 218 0
  52 000a 6FF0110C 		mvn	ip, #17
  53              	.LVL2:
  54              	.LBB80:
 220:..\..\..\liblc3\src/ltpf.c ****         const int16_t *hn = h + (i % p) * w;
  55              		.loc 1 220 0
  56 000e 0021     		movs	r1, #0
  57              	.LVL3:
  58 0010 99E0     		b	.L2
  59              	.LVL4:
  60              	.L7:
  61              	.LBB81:
 221:..\..\..\liblc3\src/ltpf.c ****         const int16_t *xn = x + (i / p);
  62              		.loc 1 221 0
  63 0012 514B     		ldr	r3, .L9
  64 0014 0B40     		ands	r3, r1, r3
  65 0016 03D5     		bpl	.L3
  66 0018 013B     		subs	r3, r3, #1
  67 001a 63F00703 		orn	r3, r3, #7
  68 001e 0133     		adds	r3, r3, #1
  69              	.L3:
  70 0020 03EB8303 		add	r3, r3, r3, lsl #2
  71 0024 5C00     		lsls	r4, r3, #1
  72 0026 4D4B     		ldr	r3, .L9+4
  73 0028 03EB4408 		add	r8, r3, r4, lsl #1
  74              	.LVL5:
 222:..\..\..\liblc3\src/ltpf.c ****         int32_t un = 0;
  75              		.loc 1 222 0
  76 002c 0F46     		mov	r7, r1
  77 002e 0029     		cmp	r1, #0
  78 0030 00DA     		bge	.L4
  79 0032 CF1D     		adds	r7, r1, #7
  80              	.L4:
  81 0034 FF10     		asrs	r7, r7, #3
  82 0036 0CEB4707 		add	r7, ip, r7, lsl #1
  83 003a 019B     		ldr	r3, [sp, #4]
  84 003c 1F44     		add	r7, r7, r3
  85              	.LVL6:
  86              	.LBB82:
 225:..\..\..\liblc3\src/ltpf.c ****             un += *(xn++) * *(hn++);
  87              		.loc 1 225 0
  88 003e 4FF00009 		mov	r9, #0
  89              	.LBE82:
ARM GAS  C:\Users\rdn\AppData\Local\Temp\cc5zc0m9.s 			page 8


 223:..\..\..\liblc3\src/ltpf.c **** 
  90              		.loc 1 223 0
  91 0042 4D46     		mov	r5, r9
  92 0044 40E0     		b	.L5
  93              	.LVL7:
  94              	.L6:
  95              	.LBB83:
 226:..\..\..\liblc3\src/ltpf.c ****             un += *(xn++) * *(hn++);
  96              		.loc 1 226 0
  97 0046 B7F90030 		ldrsh	r3, [r7]
  98              	.LVL8:
  99 004a B8F90040 		ldrsh	r4, [r8]
 100 004e 04FB0355 		mla	r5, r4, r3, r5
 101              	.LVL9:
 227:..\..\..\liblc3\src/ltpf.c ****             un += *(xn++) * *(hn++);
 102              		.loc 1 227 0
 103 0052 B7F90230 		ldrsh	r3, [r7, #2]
 104              	.LVL10:
 105 0056 B8F90240 		ldrsh	r4, [r8, #2]
 106 005a 04FB0355 		mla	r5, r4, r3, r5
 107              	.LVL11:
 228:..\..\..\liblc3\src/ltpf.c ****             un += *(xn++) * *(hn++);
 108              		.loc 1 228 0
 109 005e B7F90430 		ldrsh	r3, [r7, #4]
 110              	.LVL12:
 111 0062 B8F90440 		ldrsh	r4, [r8, #4]
 112 0066 04FB0355 		mla	r5, r4, r3, r5
 113              	.LVL13:
 229:..\..\..\liblc3\src/ltpf.c ****             un += *(xn++) * *(hn++);
 114              		.loc 1 229 0
 115 006a B7F90630 		ldrsh	r3, [r7, #6]
 116              	.LVL14:
 117 006e B8F90640 		ldrsh	r4, [r8, #6]
 118 0072 04FB0354 		mla	r4, r4, r3, r5
 119              	.LVL15:
 230:..\..\..\liblc3\src/ltpf.c ****             un += *(xn++) * *(hn++);
 120              		.loc 1 230 0
 121 0076 B7F90830 		ldrsh	r3, [r7, #8]
 122              	.LVL16:
 123 007a B8F90850 		ldrsh	r5, [r8, #8]
 124 007e 05FB0344 		mla	r4, r5, r3, r4
 125              	.LVL17:
 231:..\..\..\liblc3\src/ltpf.c ****             un += *(xn++) * *(hn++);
 126              		.loc 1 231 0
 127 0082 B7F90A30 		ldrsh	r3, [r7, #10]
 128              	.LVL18:
 129 0086 B8F90A50 		ldrsh	r5, [r8, #10]
 130 008a 05FB0344 		mla	r4, r5, r3, r4
 131              	.LVL19:
 232:..\..\..\liblc3\src/ltpf.c ****             un += *(xn++) * *(hn++);
 132              		.loc 1 232 0
 133 008e B7F90C30 		ldrsh	r3, [r7, #12]
 134              	.LVL20:
 135 0092 B8F90C50 		ldrsh	r5, [r8, #12]
 136 0096 05FB0344 		mla	r4, r5, r3, r4
 137              	.LVL21:
 233:..\..\..\liblc3\src/ltpf.c ****             un += *(xn++) * *(hn++);
ARM GAS  C:\Users\rdn\AppData\Local\Temp\cc5zc0m9.s 			page 9


 138              		.loc 1 233 0
 139 009a B7F90E30 		ldrsh	r3, [r7, #14]
 140              	.LVL22:
 141 009e B8F90E50 		ldrsh	r5, [r8, #14]
 142 00a2 05FB0345 		mla	r5, r5, r3, r4
 143              	.LVL23:
 234:..\..\..\liblc3\src/ltpf.c ****             un += *(xn++) * *(hn++);
 144              		.loc 1 234 0
 145 00a6 B7F91030 		ldrsh	r3, [r7, #16]
 146              	.LVL24:
 147 00aa B8F91040 		ldrsh	r4, [r8, #16]
 148 00ae 04FB0354 		mla	r4, r4, r3, r5
 149              	.LVL25:
 235:..\..\..\liblc3\src/ltpf.c ****         }
 150              		.loc 1 235 0
 151 00b2 B7F91230 		ldrsh	r3, [r7, #18]
 152              	.LVL26:
 153 00b6 B8F91250 		ldrsh	r5, [r8, #18]
 154 00ba 05FB0345 		mla	r5, r5, r3, r4
 155              	.LVL27:
 225:..\..\..\liblc3\src/ltpf.c ****             un += *(xn++) * *(hn++);
 156              		.loc 1 225 0
 157 00be 09F10A09 		add	r9, r9, #10
 158              	.LVL28:
 235:..\..\..\liblc3\src/ltpf.c ****         }
 159              		.loc 1 235 0
 160 00c2 1437     		adds	r7, r7, #20
 161              	.LVL29:
 162 00c4 08F11408 		add	r8, r8, #20
 163              	.LVL30:
 164              	.L5:
 225:..\..\..\liblc3\src/ltpf.c ****             un += *(xn++) * *(hn++);
 165              		.loc 1 225 0
 166 00c8 B9F1090F 		cmp	r9, #9
 167 00cc BBDD     		ble	.L6
 168              	.LVL31:
 169              	.LBE83:
 170              	.LBB84:
 171              	.LBB85:
 192:..\..\..\liblc3\src/ltpf.c ****     hp50->s1 = (hp50->s2 + (int64_t)xn * b1 - (int64_t)yn * a1);
 172              		.loc 1 192 0
 173 00ce D0E90089 		ldrd	r8, [r0]
 174              	.LVL32:
 175 00d2 EF17     		asrs	r7, r5, #31
 176              	.LVL33:
 177 00d4 224B     		ldr	r3, .L9+8
 178 00d6 A5FB03AB 		umull	r10, fp, r5, r3
 179 00da 03FB07BB 		mla	fp, r3, r7, fp
 180 00de 18EB0A08 		adds	r8, r8, r10
 181 00e2 49EB0B09 		adc	r9, r9, fp
 182              	.LVL34:
 183 00e6 4FEA9873 		lsr	r3, r8, #30
 184 00ea 43EA8903 		orr	r3, r3, r9, lsl #2
 185              	.LVL35:
 193:..\..\..\liblc3\src/ltpf.c ****     hp50->s2 = (           (int64_t)xn * b2 - (int64_t)yn * a2);
 186              		.loc 1 193 0
 187 00ee D0E90289 		ldrd	r8, [r0, #8]
ARM GAS  C:\Users\rdn\AppData\Local\Temp\cc5zc0m9.s 			page 10


 188 00f2 1C4C     		ldr	r4, .L9+12
 189 00f4 6E42     		negs	r6, r5
 190 00f6 04FB0766 		mla	r6, r4, r7, r6
 191 00fa A5FB0445 		umull	r4, r5, r5, r4
 192 00fe 3544     		add	r5, r5, r6
 193              	.LVL36:
 194 0100 18EB0408 		adds	r8, r8, r4
 195 0104 49EB0509 		adc	r9, r9, r5
 196 0108 DF17     		asrs	r7, r3, #31
 197 010a 174E     		ldr	r6, .L9+16
 198 010c A3FB0645 		umull	r4, r5, r3, r6
 199 0110 06FB0755 		mla	r5, r6, r7, r5
 200 0114 14EB0804 		adds	r4, r4, r8
 201 0118 45EB0905 		adc	r5, r5, r9
 202 011c C0E90045 		strd	r4, [r0]
 194:..\..\..\liblc3\src/ltpf.c **** 
 203              		.loc 1 194 0
 204 0120 124C     		ldr	r4, .L9+20
 205 0122 5E42     		negs	r6, r3
 206 0124 04FB0766 		mla	r6, r4, r7, r6
 207 0128 A3FB0445 		umull	r4, r5, r3, r4
 208 012c 3544     		add	r5, r5, r6
 209 012e 14EB0A04 		adds	r4, r4, r10
 210 0132 45EB0B05 		adc	r5, r5, fp
 211 0136 C0E90245 		strd	r4, [r0, #8]
 212              	.LVL37:
 213              	.LBE85:
 214              	.LBE84:
 239:..\..\..\liblc3\src/ltpf.c ****     }
 215              		.loc 1 239 0
 216 013a 03F50043 		add	r3, r3, #32768
 217 013e 1B14     		asrs	r3, r3, #16
 218 0140 1380     		strh	r3, [r2]	@ movhi
 219              	.LBE81:
 220:..\..\..\liblc3\src/ltpf.c ****         const int16_t *hn = h + (i % p) * w;
 220              		.loc 1 220 0
 221 0142 0531     		adds	r1, r1, #5
 222              	.LVL38:
 223              	.LBB86:
 239:..\..\..\liblc3\src/ltpf.c ****     }
 224              		.loc 1 239 0
 225 0144 0232     		adds	r2, r2, #2
 226              	.LVL39:
 227              	.L2:
 228              	.LBE86:
 220:..\..\..\liblc3\src/ltpf.c ****         const int16_t *hn = h + (i % p) * w;
 229              		.loc 1 220 0
 230 0146 0EEB8E03 		add	r3, lr, lr, lsl #2
 231 014a 9942     		cmp	r1, r3
 232 014c FFF661AF 		blt	.L7
 233              	.LBE80:
 234              	.LBE79:
 235              	.LBE78:
 306:..\..\..\liblc3\src/ltpf.c ****     resample_x64k_12k8(8, h_8k_12k8_q15, hp50, x, y, n);
 307:..\..\..\liblc3\src/ltpf.c **** }
 236              		.loc 1 307 0
 237 0150 03B0     		add	sp, sp, #12
ARM GAS  C:\Users\rdn\AppData\Local\Temp\cc5zc0m9.s 			page 11


 238              		.cfi_def_cfa_offset 36
 239              		@ sp needed
 240 0152 BDE8F08F 		pop	{r4, r5, r6, r7, r8, r9, r10, fp, pc}
 241              	.LVL40:
 242              	.L10:
 243 0156 00BF     		.align	2
 244              	.L9:
 245 0158 07000080 		.word	-2147483641
 246 015c 00000000 		.word	.LANCHOR0
 247 0160 C61BE63E 		.word	1055267782
 248 0164 72C83382 		.word	-2110535566
 249 0168 DB5DC77D 		.word	2110217691
 250 016c BFEE2EC2 		.word	-1037111617
 251              		.cfi_endproc
 252              	.LFE23:
 253              		.size	resample_8k_12k8, .-resample_8k_12k8
 254              		.section	.text.resample_96k_12k8,"ax",%progbits
 255              		.align	2
 256              		.thumb
 257              		.thumb_func
 258              		.type	resample_96k_12k8, %function
 259              	resample_96k_12k8:
 260              	.LFB28:
 308:..\..\..\liblc3\src/ltpf.c **** #endif /* resample_8k_12k8 */
 309:..\..\..\liblc3\src/ltpf.c **** 
 310:..\..\..\liblc3\src/ltpf.c **** /**
 311:..\..\..\liblc3\src/ltpf.c ****  * Resample from 16 Khz to 12.8 KHz
 312:..\..\..\liblc3\src/ltpf.c ****  * hp50            High-Pass biquad filter state
 313:..\..\..\liblc3\src/ltpf.c ****  * x               [-20..-1] Previous, [0..ns-1] Current samples, in fixed Q15
 314:..\..\..\liblc3\src/ltpf.c ****  * y, n            [0..n-1] Output `n` processed samples, in fixed Q14
 315:..\..\..\liblc3\src/ltpf.c ****  *
 316:..\..\..\liblc3\src/ltpf.c ****  * The `x` vector is aligned on 32 bits
 317:..\..\..\liblc3\src/ltpf.c ****  */
 318:..\..\..\liblc3\src/ltpf.c **** #ifndef resample_16k_12k8
 319:..\..\..\liblc3\src/ltpf.c **** LC3_HOT static void resample_16k_12k8(
 320:..\..\..\liblc3\src/ltpf.c ****     struct lc3_ltpf_hp50_state *hp50, const int16_t *x, int16_t *y, int n)
 321:..\..\..\liblc3\src/ltpf.c **** {
 322:..\..\..\liblc3\src/ltpf.c ****     resample_x64k_12k8(4, h_16k_12k8_q15, hp50, x, y, n);
 323:..\..\..\liblc3\src/ltpf.c **** }
 324:..\..\..\liblc3\src/ltpf.c **** #endif /* resample_16k_12k8 */
 325:..\..\..\liblc3\src/ltpf.c **** 
 326:..\..\..\liblc3\src/ltpf.c **** /**
 327:..\..\..\liblc3\src/ltpf.c ****  * Resample from 32 Khz to 12.8 KHz
 328:..\..\..\liblc3\src/ltpf.c ****  * hp50            High-Pass biquad filter state
 329:..\..\..\liblc3\src/ltpf.c ****  * x               [-30..-1] Previous, [0..ns-1] Current samples, in fixed Q15
 330:..\..\..\liblc3\src/ltpf.c ****  * y, n            [0..n-1] Output `n` processed samples, in fixed Q14
 331:..\..\..\liblc3\src/ltpf.c ****  *
 332:..\..\..\liblc3\src/ltpf.c ****  * The `x` vector is aligned on 32 bits
 333:..\..\..\liblc3\src/ltpf.c ****  */
 334:..\..\..\liblc3\src/ltpf.c **** #ifndef resample_32k_12k8
 335:..\..\..\liblc3\src/ltpf.c **** LC3_HOT static void resample_32k_12k8(
 336:..\..\..\liblc3\src/ltpf.c ****     struct lc3_ltpf_hp50_state *hp50, const int16_t *x, int16_t *y, int n)
 337:..\..\..\liblc3\src/ltpf.c **** {
 338:..\..\..\liblc3\src/ltpf.c ****     resample_x64k_12k8(2, h_32k_12k8_q15, hp50, x, y, n);
 339:..\..\..\liblc3\src/ltpf.c **** }
 340:..\..\..\liblc3\src/ltpf.c **** #endif /* resample_32k_12k8 */
 341:..\..\..\liblc3\src/ltpf.c **** 
ARM GAS  C:\Users\rdn\AppData\Local\Temp\cc5zc0m9.s 			page 12


 342:..\..\..\liblc3\src/ltpf.c **** /**
 343:..\..\..\liblc3\src/ltpf.c ****  * Resample from 24 Khz to 12.8 KHz
 344:..\..\..\liblc3\src/ltpf.c ****  * hp50            High-Pass biquad filter state
 345:..\..\..\liblc3\src/ltpf.c ****  * x               [-30..-1] Previous, [0..ns-1] Current samples, in fixed Q15
 346:..\..\..\liblc3\src/ltpf.c ****  * y, n            [0..n-1] Output `n` processed samples, in fixed Q14
 347:..\..\..\liblc3\src/ltpf.c ****  *
 348:..\..\..\liblc3\src/ltpf.c ****  * The `x` vector is aligned on 32 bits
 349:..\..\..\liblc3\src/ltpf.c ****  */
 350:..\..\..\liblc3\src/ltpf.c **** #ifndef resample_24k_12k8
 351:..\..\..\liblc3\src/ltpf.c **** LC3_HOT static void resample_24k_12k8(
 352:..\..\..\liblc3\src/ltpf.c ****     struct lc3_ltpf_hp50_state *hp50, const int16_t *x, int16_t *y, int n)
 353:..\..\..\liblc3\src/ltpf.c **** {
 354:..\..\..\liblc3\src/ltpf.c ****     resample_x192k_12k8(8, h_24k_12k8_q15, hp50, x, y, n);
 355:..\..\..\liblc3\src/ltpf.c **** }
 356:..\..\..\liblc3\src/ltpf.c **** #endif /* resample_24k_12k8 */
 357:..\..\..\liblc3\src/ltpf.c **** 
 358:..\..\..\liblc3\src/ltpf.c **** /**
 359:..\..\..\liblc3\src/ltpf.c ****  * Resample from 48 Khz to 12.8 KHz
 360:..\..\..\liblc3\src/ltpf.c ****  * hp50            High-Pass biquad filter state
 361:..\..\..\liblc3\src/ltpf.c ****  * x               [-60..-1] Previous, [0..ns-1] Current samples, in fixed Q15
 362:..\..\..\liblc3\src/ltpf.c ****  * y, n            [0..n-1] Output `n` processed samples, in fixed Q14
 363:..\..\..\liblc3\src/ltpf.c ****  *
 364:..\..\..\liblc3\src/ltpf.c **** * The `x` vector is aligned on 32 bits
 365:..\..\..\liblc3\src/ltpf.c **** */
 366:..\..\..\liblc3\src/ltpf.c **** #ifndef resample_48k_12k8
 367:..\..\..\liblc3\src/ltpf.c **** LC3_HOT static void resample_48k_12k8(
 368:..\..\..\liblc3\src/ltpf.c ****     struct lc3_ltpf_hp50_state *hp50, const int16_t *x, int16_t *y, int n)
 369:..\..\..\liblc3\src/ltpf.c **** {
 370:..\..\..\liblc3\src/ltpf.c ****     resample_x192k_12k8(4, h_48k_12k8_q15, hp50, x, y, n);
 371:..\..\..\liblc3\src/ltpf.c **** }
 372:..\..\..\liblc3\src/ltpf.c **** #endif /* resample_48k_12k8 */
 373:..\..\..\liblc3\src/ltpf.c **** 
 374:..\..\..\liblc3\src/ltpf.c **** /**
 375:..\..\..\liblc3\src/ltpf.c ****  * Resample from 96 Khz to 12.8 KHz
 376:..\..\..\liblc3\src/ltpf.c ****  * hp50            High-Pass biquad filter state
 377:..\..\..\liblc3\src/ltpf.c ****  * x               [-120..-1] Previous, [0..ns-1] Current samples, in fixed Q15
 378:..\..\..\liblc3\src/ltpf.c ****  * y, n            [0..n-1] Output `n` processed samples, in fixed Q14
 379:..\..\..\liblc3\src/ltpf.c ****  *
 380:..\..\..\liblc3\src/ltpf.c **** * The `x` vector is aligned on 32 bits
 381:..\..\..\liblc3\src/ltpf.c **** */
 382:..\..\..\liblc3\src/ltpf.c **** #ifndef resample_96k_12k8
 383:..\..\..\liblc3\src/ltpf.c **** LC3_HOT static void resample_96k_12k8(
 384:..\..\..\liblc3\src/ltpf.c ****     struct lc3_ltpf_hp50_state *hp50, const int16_t *x, int16_t *y, int n)
 385:..\..\..\liblc3\src/ltpf.c **** {
 261              		.loc 1 385 0
 262              		.cfi_startproc
 263              		@ args = 0, pretend = 0, frame = 8
 264              		@ frame_needed = 0, uses_anonymous_args = 0
 265              	.LVL41:
 266 0000 2DE9F04F 		push	{r4, r5, r6, r7, r8, r9, r10, fp, lr}
 267              		.cfi_def_cfa_offset 36
 268              		.cfi_offset 4, -36
 269              		.cfi_offset 5, -32
 270              		.cfi_offset 6, -28
 271              		.cfi_offset 7, -24
 272              		.cfi_offset 8, -20
 273              		.cfi_offset 9, -16
ARM GAS  C:\Users\rdn\AppData\Local\Temp\cc5zc0m9.s 			page 13


 274              		.cfi_offset 10, -12
 275              		.cfi_offset 11, -8
 276              		.cfi_offset 14, -4
 277 0004 83B0     		sub	sp, sp, #12
 278              		.cfi_def_cfa_offset 48
 279 0006 0191     		str	r1, [sp, #4]
 280 0008 9E46     		mov	lr, r3
 281              	.LVL42:
 282              	.LBB94:
 283              	.LBB95:
 263:..\..\..\liblc3\src/ltpf.c **** 
 284              		.loc 1 263 0
 285 000a 6FF0ED0C 		mvn	ip, #237
 286              	.LVL43:
 287              	.LBB96:
 265:..\..\..\liblc3\src/ltpf.c ****         const int16_t *hn = h + (i % p) * w;
 288              		.loc 1 265 0
 289 000e 0021     		movs	r1, #0
 290              	.LVL44:
 291 0010 B5E0     		b	.L12
 292              	.LVL45:
 293              	.L16:
 294              	.LBB97:
 266:..\..\..\liblc3\src/ltpf.c ****         const int16_t *xn = x + (i / p);
 295              		.loc 1 266 0
 296 0012 5F4B     		ldr	r3, .L18
 297 0014 0B40     		ands	r3, r1, r3
 298 0016 03D5     		bpl	.L13
 299 0018 013B     		subs	r3, r3, #1
 300 001a 63F00103 		orn	r3, r3, #1
 301 001e 0133     		adds	r3, r3, #1
 302              	.L13:
 303 0020 C3EB0313 		rsb	r3, r3, r3, lsl #4
 304 0024 DC00     		lsls	r4, r3, #3
 305 0026 5B4B     		ldr	r3, .L18+4
 306 0028 03EB4408 		add	r8, r3, r4, lsl #1
 307              	.LVL46:
 267:..\..\..\liblc3\src/ltpf.c ****         int32_t un = 0;
 308              		.loc 1 267 0
 309 002c 01EBD177 		add	r7, r1, r1, lsr #31
 310 0030 27F00107 		bic	r7, r7, #1
 311 0034 6744     		add	r7, r7, ip
 312 0036 019B     		ldr	r3, [sp, #4]
 313 0038 1F44     		add	r7, r7, r3
 314              	.LVL47:
 315              	.LBB98:
 270:..\..\..\liblc3\src/ltpf.c ****             un += *(xn++) * *(hn++);
 316              		.loc 1 270 0
 317 003a 4FF00009 		mov	r9, #0
 318              	.LBE98:
 268:..\..\..\liblc3\src/ltpf.c **** 
 319              		.loc 1 268 0
 320 003e 4D46     		mov	r5, r9
 321 0040 5EE0     		b	.L14
 322              	.LVL48:
 323              	.L15:
 324              	.LBB99:
ARM GAS  C:\Users\rdn\AppData\Local\Temp\cc5zc0m9.s 			page 14


 271:..\..\..\liblc3\src/ltpf.c ****             un += *(xn++) * *(hn++);
 325              		.loc 1 271 0
 326 0042 B7F90030 		ldrsh	r3, [r7]
 327              	.LVL49:
 328 0046 B8F90040 		ldrsh	r4, [r8]
 329 004a 04FB0355 		mla	r5, r4, r3, r5
 330              	.LVL50:
 272:..\..\..\liblc3\src/ltpf.c ****             un += *(xn++) * *(hn++);
 331              		.loc 1 272 0
 332 004e B7F90230 		ldrsh	r3, [r7, #2]
 333              	.LVL51:
 334 0052 B8F90240 		ldrsh	r4, [r8, #2]
 335 0056 04FB0355 		mla	r5, r4, r3, r5
 336              	.LVL52:
 273:..\..\..\liblc3\src/ltpf.c ****             un += *(xn++) * *(hn++);
 337              		.loc 1 273 0
 338 005a B7F90430 		ldrsh	r3, [r7, #4]
 339              	.LVL53:
 340 005e B8F90440 		ldrsh	r4, [r8, #4]
 341 0062 04FB0355 		mla	r5, r4, r3, r5
 342              	.LVL54:
 274:..\..\..\liblc3\src/ltpf.c ****             un += *(xn++) * *(hn++);
 343              		.loc 1 274 0
 344 0066 B7F90630 		ldrsh	r3, [r7, #6]
 345              	.LVL55:
 346 006a B8F90640 		ldrsh	r4, [r8, #6]
 347 006e 04FB0354 		mla	r4, r4, r3, r5
 348              	.LVL56:
 275:..\..\..\liblc3\src/ltpf.c ****             un += *(xn++) * *(hn++);
 349              		.loc 1 275 0
 350 0072 B7F90830 		ldrsh	r3, [r7, #8]
 351              	.LVL57:
 352 0076 B8F90850 		ldrsh	r5, [r8, #8]
 353 007a 05FB0344 		mla	r4, r5, r3, r4
 354              	.LVL58:
 276:..\..\..\liblc3\src/ltpf.c ****             un += *(xn++) * *(hn++);
 355              		.loc 1 276 0
 356 007e B7F90A30 		ldrsh	r3, [r7, #10]
 357              	.LVL59:
 358 0082 B8F90A50 		ldrsh	r5, [r8, #10]
 359 0086 05FB0344 		mla	r4, r5, r3, r4
 360              	.LVL60:
 277:..\..\..\liblc3\src/ltpf.c ****             un += *(xn++) * *(hn++);
 361              		.loc 1 277 0
 362 008a B7F90C30 		ldrsh	r3, [r7, #12]
 363              	.LVL61:
 364 008e B8F90C50 		ldrsh	r5, [r8, #12]
 365 0092 05FB0344 		mla	r4, r5, r3, r4
 366              	.LVL62:
 278:..\..\..\liblc3\src/ltpf.c ****             un += *(xn++) * *(hn++);
 367              		.loc 1 278 0
 368 0096 B7F90E30 		ldrsh	r3, [r7, #14]
 369              	.LVL63:
 370 009a B8F90E50 		ldrsh	r5, [r8, #14]
 371 009e 05FB0344 		mla	r4, r5, r3, r4
 372              	.LVL64:
 279:..\..\..\liblc3\src/ltpf.c ****             un += *(xn++) * *(hn++);
ARM GAS  C:\Users\rdn\AppData\Local\Temp\cc5zc0m9.s 			page 15


 373              		.loc 1 279 0
 374 00a2 B7F91030 		ldrsh	r3, [r7, #16]
 375              	.LVL65:
 376 00a6 B8F91050 		ldrsh	r5, [r8, #16]
 377 00aa 05FB0344 		mla	r4, r5, r3, r4
 378              	.LVL66:
 280:..\..\..\liblc3\src/ltpf.c ****             un += *(xn++) * *(hn++);
 379              		.loc 1 280 0
 380 00ae B7F91230 		ldrsh	r3, [r7, #18]
 381              	.LVL67:
 382 00b2 B8F91250 		ldrsh	r5, [r8, #18]
 383 00b6 05FB0344 		mla	r4, r5, r3, r4
 384              	.LVL68:
 281:..\..\..\liblc3\src/ltpf.c ****             un += *(xn++) * *(hn++);
 385              		.loc 1 281 0
 386 00ba B7F91430 		ldrsh	r3, [r7, #20]
 387              	.LVL69:
 388 00be B8F91450 		ldrsh	r5, [r8, #20]
 389 00c2 05FB0344 		mla	r4, r5, r3, r4
 390              	.LVL70:
 282:..\..\..\liblc3\src/ltpf.c ****             un += *(xn++) * *(hn++);
 391              		.loc 1 282 0
 392 00c6 B7F91630 		ldrsh	r3, [r7, #22]
 393              	.LVL71:
 394 00ca B8F91650 		ldrsh	r5, [r8, #22]
 395 00ce 05FB0344 		mla	r4, r5, r3, r4
 396              	.LVL72:
 283:..\..\..\liblc3\src/ltpf.c ****             un += *(xn++) * *(hn++);
 397              		.loc 1 283 0
 398 00d2 B7F91830 		ldrsh	r3, [r7, #24]
 399              	.LVL73:
 400 00d6 B8F91850 		ldrsh	r5, [r8, #24]
 401 00da 05FB0345 		mla	r5, r5, r3, r4
 402              	.LVL74:
 284:..\..\..\liblc3\src/ltpf.c ****             un += *(xn++) * *(hn++);
 403              		.loc 1 284 0
 404 00de B7F91A30 		ldrsh	r3, [r7, #26]
 405              	.LVL75:
 406 00e2 B8F91A40 		ldrsh	r4, [r8, #26]
 407 00e6 04FB0354 		mla	r4, r4, r3, r5
 408              	.LVL76:
 285:..\..\..\liblc3\src/ltpf.c ****         }
 409              		.loc 1 285 0
 410 00ea B7F91C30 		ldrsh	r3, [r7, #28]
 411              	.LVL77:
 412 00ee B8F91C50 		ldrsh	r5, [r8, #28]
 413 00f2 05FB0345 		mla	r5, r5, r3, r4
 414              	.LVL78:
 270:..\..\..\liblc3\src/ltpf.c ****             un += *(xn++) * *(hn++);
 415              		.loc 1 270 0
 416 00f6 09F10F09 		add	r9, r9, #15
 417              	.LVL79:
 285:..\..\..\liblc3\src/ltpf.c ****         }
 418              		.loc 1 285 0
 419 00fa 1E37     		adds	r7, r7, #30
 420              	.LVL80:
 421 00fc 08F11E08 		add	r8, r8, #30
ARM GAS  C:\Users\rdn\AppData\Local\Temp\cc5zc0m9.s 			page 16


 422              	.LVL81:
 423              	.L14:
 270:..\..\..\liblc3\src/ltpf.c ****             un += *(xn++) * *(hn++);
 424              		.loc 1 270 0
 425 0100 B9F1770F 		cmp	r9, #119
 426 0104 9DDD     		ble	.L15
 427              	.LVL82:
 428              	.LBE99:
 429              	.LBB100:
 430              	.LBB101:
 192:..\..\..\liblc3\src/ltpf.c ****     hp50->s1 = (hp50->s2 + (int64_t)xn * b1 - (int64_t)yn * a1);
 431              		.loc 1 192 0
 432 0106 D0E90089 		ldrd	r8, [r0]
 433              	.LVL83:
 434 010a EF17     		asrs	r7, r5, #31
 435              	.LVL84:
 436 010c 224B     		ldr	r3, .L18+8
 437 010e A5FB03AB 		umull	r10, fp, r5, r3
 438 0112 03FB07BB 		mla	fp, r3, r7, fp
 439 0116 18EB0A08 		adds	r8, r8, r10
 440 011a 49EB0B09 		adc	r9, r9, fp
 441              	.LVL85:
 442 011e 4FEA9873 		lsr	r3, r8, #30
 443 0122 43EA8903 		orr	r3, r3, r9, lsl #2
 444              	.LVL86:
 193:..\..\..\liblc3\src/ltpf.c ****     hp50->s2 = (           (int64_t)xn * b2 - (int64_t)yn * a2);
 445              		.loc 1 193 0
 446 0126 D0E90289 		ldrd	r8, [r0, #8]
 447 012a 1C4C     		ldr	r4, .L18+12
 448 012c 6E42     		negs	r6, r5
 449 012e 04FB0766 		mla	r6, r4, r7, r6
 450 0132 A5FB0445 		umull	r4, r5, r5, r4
 451 0136 3544     		add	r5, r5, r6
 452              	.LVL87:
 453 0138 18EB0408 		adds	r8, r8, r4
 454 013c 49EB0509 		adc	r9, r9, r5
 455 0140 DF17     		asrs	r7, r3, #31
 456 0142 174E     		ldr	r6, .L18+16
 457 0144 A3FB0645 		umull	r4, r5, r3, r6
 458 0148 06FB0755 		mla	r5, r6, r7, r5
 459 014c 14EB0804 		adds	r4, r4, r8
 460 0150 45EB0905 		adc	r5, r5, r9
 461 0154 C0E90045 		strd	r4, [r0]
 194:..\..\..\liblc3\src/ltpf.c **** 
 462              		.loc 1 194 0
 463 0158 124C     		ldr	r4, .L18+20
 464 015a 5E42     		negs	r6, r3
 465 015c 04FB0766 		mla	r6, r4, r7, r6
 466 0160 A3FB0445 		umull	r4, r5, r3, r4
 467 0164 3544     		add	r5, r5, r6
 468 0166 14EB0A04 		adds	r4, r4, r10
 469 016a 45EB0B05 		adc	r5, r5, fp
 470 016e C0E90245 		strd	r4, [r0, #8]
 471              	.LVL88:
 472              	.LBE101:
 473              	.LBE100:
 289:..\..\..\liblc3\src/ltpf.c ****     }
ARM GAS  C:\Users\rdn\AppData\Local\Temp\cc5zc0m9.s 			page 17


 474              		.loc 1 289 0
 475 0172 03F50043 		add	r3, r3, #32768
 476 0176 1B14     		asrs	r3, r3, #16
 477 0178 1380     		strh	r3, [r2]	@ movhi
 478              	.LBE97:
 265:..\..\..\liblc3\src/ltpf.c ****         const int16_t *hn = h + (i % p) * w;
 479              		.loc 1 265 0
 480 017a 0F31     		adds	r1, r1, #15
 481              	.LVL89:
 482              	.LBB102:
 289:..\..\..\liblc3\src/ltpf.c ****     }
 483              		.loc 1 289 0
 484 017c 0232     		adds	r2, r2, #2
 485              	.LVL90:
 486              	.L12:
 487              	.LBE102:
 265:..\..\..\liblc3\src/ltpf.c ****         const int16_t *hn = h + (i % p) * w;
 488              		.loc 1 265 0
 489 017e CEEB0E13 		rsb	r3, lr, lr, lsl #4
 490 0182 9942     		cmp	r1, r3
 491 0184 FFF645AF 		blt	.L16
 492              	.LBE96:
 493              	.LBE95:
 494              	.LBE94:
 386:..\..\..\liblc3\src/ltpf.c ****     resample_x192k_12k8(2, h_96k_12k8_q15, hp50, x, y, n);
 387:..\..\..\liblc3\src/ltpf.c **** }
 495              		.loc 1 387 0
 496 0188 03B0     		add	sp, sp, #12
 497              		.cfi_def_cfa_offset 36
 498              		@ sp needed
 499 018a BDE8F08F 		pop	{r4, r5, r6, r7, r8, r9, r10, fp, pc}
 500              	.LVL91:
 501              	.L19:
 502 018e 00BF     		.align	2
 503              	.L18:
 504 0190 01000080 		.word	-2147483647
 505 0194 A0000000 		.word	.LANCHOR0+160
 506 0198 C61BE63E 		.word	1055267782
 507 019c 72C83382 		.word	-2110535566
 508 01a0 DB5DC77D 		.word	2110217691
 509 01a4 BFEE2EC2 		.word	-1037111617
 510              		.cfi_endproc
 511              	.LFE28:
 512              		.size	resample_96k_12k8, .-resample_96k_12k8
 513              		.section	.text.resample_6k4,"ax",%progbits
 514              		.align	2
 515              		.thumb
 516              		.thumb_func
 517              		.type	resample_6k4, %function
 518              	resample_6k4:
 519              	.LFB29:
 388:..\..\..\liblc3\src/ltpf.c **** #endif /* resample_96k_12k8 */
 389:..\..\..\liblc3\src/ltpf.c **** 
 390:..\..\..\liblc3\src/ltpf.c **** /**
 391:..\..\..\liblc3\src/ltpf.c **** * Resample to 6.4 KHz
 392:..\..\..\liblc3\src/ltpf.c **** * x               [-3..-1] Previous, [0..n-1] Current samples
 393:..\..\..\liblc3\src/ltpf.c **** * y, n            [0..n-1] Output `n` processed samples
ARM GAS  C:\Users\rdn\AppData\Local\Temp\cc5zc0m9.s 			page 18


 394:..\..\..\liblc3\src/ltpf.c **** *
 395:..\..\..\liblc3\src/ltpf.c **** * The `x` vector is aligned on 32 bits
 396:..\..\..\liblc3\src/ltpf.c ****  */
 397:..\..\..\liblc3\src/ltpf.c **** #ifndef resample_6k4
 398:..\..\..\liblc3\src/ltpf.c **** LC3_HOT static void resample_6k4(const int16_t *x, int16_t *y, int n)
 399:..\..\..\liblc3\src/ltpf.c **** {
 520              		.loc 1 399 0
 521              		.cfi_startproc
 522              		@ args = 0, pretend = 0, frame = 0
 523              		@ frame_needed = 0, uses_anonymous_args = 0
 524              		@ link register save eliminated.
 525              	.LVL92:
 526 0000 70B4     		push	{r4, r5, r6}
 527              		.cfi_def_cfa_offset 12
 528              		.cfi_offset 4, -12
 529              		.cfi_offset 5, -8
 530              		.cfi_offset 6, -4
 400:..\..\..\liblc3\src/ltpf.c ****     static const int16_t h[] = { 18477, 15424, 8105 };
 401:..\..\..\liblc3\src/ltpf.c ****     const int16_t *ye = y + n;
 531              		.loc 1 401 0
 532 0002 01EB4202 		add	r2, r1, r2, lsl #1
 533              	.LVL93:
 402:..\..\..\liblc3\src/ltpf.c **** 
 403:..\..\..\liblc3\src/ltpf.c ****     for (x--; y < ye; x += 2)
 534              		.loc 1 403 0
 535 0006 0238     		subs	r0, r0, #2
 536              	.LVL94:
 537 0008 1AE0     		b	.L21
 538              	.L22:
 539              	.LVL95:
 404:..\..\..\liblc3\src/ltpf.c ****         *(y++) = (x[0] * h[0] + (x[-1] + x[1]) * h[1]
 540              		.loc 1 404 0 discriminator 3
 541 000a B0F90040 		ldrsh	r4, [r0]
 542 000e 30F9025C 		ldrsh	r5, [r0, #-2]
 543 0012 B0F90230 		ldrsh	r3, [r0, #2]
 544 0016 2B44     		add	r3, r3, r5
 545 0018 4FF47156 		mov	r6, #15424
 546 001c 06FB03F3 		mul	r3, r6, r3
 547 0020 44F62D05 		movw	r5, #18477
 548 0024 05FB0435 		mla	r5, r5, r4, r3
 405:..\..\..\liblc3\src/ltpf.c ****                               + (x[-2] + x[2]) * h[2]) >> 16;
 549              		.loc 1 405 0 discriminator 3
 550 0028 30F9043C 		ldrsh	r3, [r0, #-4]
 551 002c 30F9044F 		ldrsh	r4, [r0, #4]!
 552              	.LVL96:
 553 0030 1C44     		add	r4, r4, r3
 554 0032 41F6A973 		movw	r3, #8105
 555 0036 03FB0453 		mla	r3, r3, r4, r5
 556 003a 1B14     		asrs	r3, r3, #16
 404:..\..\..\liblc3\src/ltpf.c ****         *(y++) = (x[0] * h[0] + (x[-1] + x[1]) * h[1]
 557              		.loc 1 404 0 discriminator 3
 558 003c 0B80     		strh	r3, [r1]	@ movhi
 559              	.LVL97:
 560 003e 0231     		adds	r1, r1, #2
 561              	.LVL98:
 562              	.L21:
 403:..\..\..\liblc3\src/ltpf.c ****         *(y++) = (x[0] * h[0] + (x[-1] + x[1]) * h[1]
ARM GAS  C:\Users\rdn\AppData\Local\Temp\cc5zc0m9.s 			page 19


 563              		.loc 1 403 0 discriminator 1
 564 0040 9142     		cmp	r1, r2
 565 0042 E2D3     		bcc	.L22
 406:..\..\..\liblc3\src/ltpf.c **** }
 566              		.loc 1 406 0
 567 0044 70BC     		pop	{r4, r5, r6}
 568              		.cfi_restore 6
 569              		.cfi_restore 5
 570              		.cfi_restore 4
 571              		.cfi_def_cfa_offset 0
 572 0046 7047     		bx	lr
 573              		.cfi_endproc
 574              	.LFE29:
 575              		.size	resample_6k4, .-resample_6k4
 576              		.section	.text.correlate,"ax",%progbits
 577              		.align	2
 578              		.thumb
 579              		.thumb_func
 580              		.type	correlate, %function
 581              	correlate:
 582              	.LFB31:
 407:..\..\..\liblc3\src/ltpf.c **** #endif /* resample_6k4 */
 408:..\..\..\liblc3\src/ltpf.c **** 
 409:..\..\..\liblc3\src/ltpf.c **** /**
 410:..\..\..\liblc3\src/ltpf.c ****  * LTPF Resample to 12.8 KHz implementations for each samplerates
 411:..\..\..\liblc3\src/ltpf.c ****  */
 412:..\..\..\liblc3\src/ltpf.c **** 
 413:..\..\..\liblc3\src/ltpf.c **** static void (* const resample_12k8[])
 414:..\..\..\liblc3\src/ltpf.c ****     (struct lc3_ltpf_hp50_state *, const int16_t *, int16_t *, int ) =
 415:..\..\..\liblc3\src/ltpf.c **** {
 416:..\..\..\liblc3\src/ltpf.c ****     [LC3_SRATE_8K    ] = resample_8k_12k8,
 417:..\..\..\liblc3\src/ltpf.c ****     [LC3_SRATE_16K   ] = resample_16k_12k8,
 418:..\..\..\liblc3\src/ltpf.c ****     [LC3_SRATE_24K   ] = resample_24k_12k8,
 419:..\..\..\liblc3\src/ltpf.c ****     [LC3_SRATE_32K   ] = resample_32k_12k8,
 420:..\..\..\liblc3\src/ltpf.c ****     [LC3_SRATE_48K   ] = resample_48k_12k8,
 421:..\..\..\liblc3\src/ltpf.c ****     [LC3_SRATE_48K_HR] = resample_48k_12k8,
 422:..\..\..\liblc3\src/ltpf.c ****     [LC3_SRATE_96K_HR] = resample_96k_12k8,
 423:..\..\..\liblc3\src/ltpf.c **** };
 424:..\..\..\liblc3\src/ltpf.c **** 
 425:..\..\..\liblc3\src/ltpf.c **** 
 426:..\..\..\liblc3\src/ltpf.c **** /* ----------------------------------------------------------------------------
 427:..\..\..\liblc3\src/ltpf.c ****  *  Analysis
 428:..\..\..\liblc3\src/ltpf.c ****  * -------------------------------------------------------------------------- */
 429:..\..\..\liblc3\src/ltpf.c **** 
 430:..\..\..\liblc3\src/ltpf.c **** /**
 431:..\..\..\liblc3\src/ltpf.c ****  * Return dot product of 2 vectors
 432:..\..\..\liblc3\src/ltpf.c ****  * a, b, n         The 2 vectors of size `n` (> 0 and <= 128)
 433:..\..\..\liblc3\src/ltpf.c ****  * return          sum( a[i] * b[i] ), i = [0..n-1]
 434:..\..\..\liblc3\src/ltpf.c ****  *
 435:..\..\..\liblc3\src/ltpf.c ****  * The size `n` of vectors must be multiple of 16, and less or equal to 128
 436:..\..\..\liblc3\src/ltpf.c **** */
 437:..\..\..\liblc3\src/ltpf.c **** #ifndef dot
 438:..\..\..\liblc3\src/ltpf.c **** LC3_HOT static inline float dot(const int16_t *a, const int16_t *b, int n)
 439:..\..\..\liblc3\src/ltpf.c **** {
 440:..\..\..\liblc3\src/ltpf.c ****     int64_t v = 0;
 441:..\..\..\liblc3\src/ltpf.c **** 
 442:..\..\..\liblc3\src/ltpf.c ****     for (int i = 0; i < (n >> 4); i++)
ARM GAS  C:\Users\rdn\AppData\Local\Temp\cc5zc0m9.s 			page 20


 443:..\..\..\liblc3\src/ltpf.c ****         for (int j = 0; j < 16; j++)
 444:..\..\..\liblc3\src/ltpf.c ****             v += *(a++) * *(b++);
 445:..\..\..\liblc3\src/ltpf.c **** 
 446:..\..\..\liblc3\src/ltpf.c ****     int32_t v32 = (v + (1 << 5)) >> 6;
 447:..\..\..\liblc3\src/ltpf.c ****     return (float)v32;
 448:..\..\..\liblc3\src/ltpf.c **** }
 449:..\..\..\liblc3\src/ltpf.c **** #endif /* dot */
 450:..\..\..\liblc3\src/ltpf.c **** 
 451:..\..\..\liblc3\src/ltpf.c **** /**
 452:..\..\..\liblc3\src/ltpf.c ****  * Return vector of correlations
 453:..\..\..\liblc3\src/ltpf.c ****  * a, b, n         The 2 vector of size `n` (> 0 and <= 128)
 454:..\..\..\liblc3\src/ltpf.c ****  * y, nc           Output the correlation vector of size `nc`
 455:..\..\..\liblc3\src/ltpf.c ****  *
 456:..\..\..\liblc3\src/ltpf.c ****  * The first vector `a` is aligned of 32 bits
 457:..\..\..\liblc3\src/ltpf.c ****  * The size `n` of vectors is multiple of 16, and less or equal to 128
 458:..\..\..\liblc3\src/ltpf.c ****  */
 459:..\..\..\liblc3\src/ltpf.c **** #ifndef correlate
 460:..\..\..\liblc3\src/ltpf.c **** LC3_HOT static void correlate(
 461:..\..\..\liblc3\src/ltpf.c ****     const int16_t *a, const int16_t *b, int n, float *y, int nc)
 462:..\..\..\liblc3\src/ltpf.c **** {
 583              		.loc 1 462 0
 584              		.cfi_startproc
 585              		@ args = 4, pretend = 0, frame = 0
 586              		@ frame_needed = 0, uses_anonymous_args = 0
 587              	.LVL99:
 588 0000 2DE9F04F 		push	{r4, r5, r6, r7, r8, r9, r10, fp, lr}
 589              		.cfi_def_cfa_offset 36
 590              		.cfi_offset 4, -36
 591              		.cfi_offset 5, -32
 592              		.cfi_offset 6, -28
 593              		.cfi_offset 7, -24
 594              		.cfi_offset 8, -20
 595              		.cfi_offset 9, -16
 596              		.cfi_offset 10, -12
 597              		.cfi_offset 11, -8
 598              		.cfi_offset 14, -4
 599              	.LBB103:
 463:..\..\..\liblc3\src/ltpf.c ****     for (const float *ye = y + nc; y < ye; )
 600              		.loc 1 463 0
 601 0004 099C     		ldr	r4, [sp, #36]
 602 0006 03EB8408 		add	r8, r3, r4, lsl #2
 603              	.LVL100:
 604 000a 2DE0     		b	.L25
 605              	.L29:
 464:..\..\..\liblc3\src/ltpf.c ****         *(y++) = dot(a, b--, n);
 606              		.loc 1 464 0
 607 000c 03F1040C 		add	ip, r3, #4
 608              	.LVL101:
 609 0010 A1F1020E 		sub	lr, r1, #2
 610              	.LVL102:
 611 0014 8146     		mov	r9, r0
 612              	.LBB104:
 613              	.LBB105:
 614              	.LBB106:
 442:..\..\..\liblc3\src/ltpf.c ****         for (int j = 0; j < 16; j++)
 615              		.loc 1 442 0
 616 0016 4FF0000A 		mov	r10, #0
ARM GAS  C:\Users\rdn\AppData\Local\Temp\cc5zc0m9.s 			page 21


 617              	.LBE106:
 440:..\..\..\liblc3\src/ltpf.c **** 
 618              		.loc 1 440 0
 619 001a 0026     		movs	r6, #0
 620 001c 0027     		movs	r7, #0
 621 001e 12E0     		b	.L26
 622              	.LVL103:
 623              	.L27:
 624              	.LBB109:
 625              	.LBB107:
 444:..\..\..\liblc3\src/ltpf.c **** 
 626              		.loc 1 444 0
 627 0020 B9F900B0 		ldrsh	fp, [r9]
 628              	.LVL104:
 629 0024 B1F90040 		ldrsh	r4, [r1]
 630 0028 04FB0BF4 		mul	r4, r4, fp
 631 002c 3619     		adds	r6, r6, r4
 632              	.LVL105:
 633 002e 47EBE477 		adc	r7, r7, r4, asr #31
 634              	.LVL106:
 443:..\..\..\liblc3\src/ltpf.c ****             v += *(a++) * *(b++);
 635              		.loc 1 443 0
 636 0032 0135     		adds	r5, r5, #1
 637              	.LVL107:
 444:..\..\..\liblc3\src/ltpf.c **** 
 638              		.loc 1 444 0
 639 0034 0231     		adds	r1, r1, #2
 640              	.LVL108:
 641 0036 09F10209 		add	r9, r9, #2
 642              	.LVL109:
 643 003a 00E0     		b	.L28
 644              	.LVL110:
 645              	.L30:
 646              	.LBE107:
 442:..\..\..\liblc3\src/ltpf.c ****         for (int j = 0; j < 16; j++)
 647              		.loc 1 442 0
 648 003c 0025     		movs	r5, #0
 649              	.L28:
 650              	.LVL111:
 651              	.LBB108:
 443:..\..\..\liblc3\src/ltpf.c ****             v += *(a++) * *(b++);
 652              		.loc 1 443 0
 653 003e 0F2D     		cmp	r5, #15
 654 0040 EEDD     		ble	.L27
 655              	.LBE108:
 442:..\..\..\liblc3\src/ltpf.c ****         for (int j = 0; j < 16; j++)
 656              		.loc 1 442 0
 657 0042 0AF1010A 		add	r10, r10, #1
 658              	.LVL112:
 659              	.L26:
 660 0046 BAEB221F 		cmp	r10, r2, asr #4
 661 004a F7DB     		blt	.L30
 662              	.LBE109:
 446:..\..\..\liblc3\src/ltpf.c ****     return (float)v32;
 663              		.loc 1 446 0
 664 004c 2036     		adds	r6, r6, #32
 665              	.LVL113:
ARM GAS  C:\Users\rdn\AppData\Local\Temp\cc5zc0m9.s 			page 22


 666 004e 47F10007 		adc	r7, r7, #0
 667 0052 B109     		lsrs	r1, r6, #6
 668              	.LVL114:
 669 0054 41EA8761 		orr	r1, r1, r7, lsl #26
 670              	.LVL115:
 447:..\..\..\liblc3\src/ltpf.c **** }
 671              		.loc 1 447 0
 672 0058 07EE901A 		vmov	s15, r1	@ int
 673 005c F8EEE77A 		vcvt.f32.s32	s15, s15
 674              	.LVL116:
 675              	.LBE105:
 676              	.LBE104:
 677              		.loc 1 464 0
 678 0060 C3ED007A 		vstr.32	s15, [r3]
 679 0064 6346     		mov	r3, ip
 680 0066 7146     		mov	r1, lr
 681              	.LVL117:
 682              	.L25:
 463:..\..\..\liblc3\src/ltpf.c ****         *(y++) = dot(a, b--, n);
 683              		.loc 1 463 0 discriminator 1
 684 0068 4345     		cmp	r3, r8
 685 006a CFD3     		bcc	.L29
 686              	.LBE103:
 465:..\..\..\liblc3\src/ltpf.c **** }
 687              		.loc 1 465 0
 688 006c BDE8F08F 		pop	{r4, r5, r6, r7, r8, r9, r10, fp, pc}
 689              		.cfi_endproc
 690              	.LFE31:
 691              		.size	correlate, .-correlate
 692              		.section	.text.argmax,"ax",%progbits
 693              		.align	2
 694              		.thumb
 695              		.thumb_func
 696              		.type	argmax, %function
 697              	argmax:
 698              	.LFB32:
 466:..\..\..\liblc3\src/ltpf.c **** #endif /* correlate */
 467:..\..\..\liblc3\src/ltpf.c **** 
 468:..\..\..\liblc3\src/ltpf.c **** /**
 469:..\..\..\liblc3\src/ltpf.c ****  * Search the maximum value and returns its argument
 470:..\..\..\liblc3\src/ltpf.c ****  * x, n            The input vector of size `n`
 471:..\..\..\liblc3\src/ltpf.c ****  * x_max           Return the maximum value
 472:..\..\..\liblc3\src/ltpf.c ****  * return          Return the argument of the maximum
 473:..\..\..\liblc3\src/ltpf.c ****  */
 474:..\..\..\liblc3\src/ltpf.c **** LC3_HOT static int argmax(const float *x, int n, float *x_max)
 475:..\..\..\liblc3\src/ltpf.c **** {
 699              		.loc 1 475 0
 700              		.cfi_startproc
 701              		@ args = 0, pretend = 0, frame = 0
 702              		@ frame_needed = 0, uses_anonymous_args = 0
 703              		@ link register save eliminated.
 704              	.LVL118:
 705 0000 30B4     		push	{r4, r5}
 706              		.cfi_def_cfa_offset 8
 707              		.cfi_offset 4, -8
 708              		.cfi_offset 5, -4
 709              	.LVL119:
ARM GAS  C:\Users\rdn\AppData\Local\Temp\cc5zc0m9.s 			page 23


 476:..\..\..\liblc3\src/ltpf.c ****     int arg = 0;
 477:..\..\..\liblc3\src/ltpf.c **** 
 478:..\..\..\liblc3\src/ltpf.c ****     *x_max = x[arg = 0];
 710              		.loc 1 478 0
 711 0002 0368     		ldr	r3, [r0]	@ float
 712 0004 1360     		str	r3, [r2]	@ float
 713              	.LVL120:
 714              	.LBB110:
 479:..\..\..\liblc3\src/ltpf.c ****     for (int i = 1; i < n; i++)
 715              		.loc 1 479 0
 716 0006 0123     		movs	r3, #1
 717              	.LBE110:
 478:..\..\..\liblc3\src/ltpf.c ****     for (int i = 1; i < n; i++)
 718              		.loc 1 478 0
 719 0008 0025     		movs	r5, #0
 720              	.LBB111:
 721              		.loc 1 479 0
 722 000a 0EE0     		b	.L33
 723              	.LVL121:
 724              	.L36:
 480:..\..\..\liblc3\src/ltpf.c ****         if (*x_max < x[i])
 725              		.loc 1 480 0
 726 000c 92ED007A 		vldr.32	s14, [r2]
 727 0010 00EB8304 		add	r4, r0, r3, lsl #2
 728 0014 D4ED007A 		vldr.32	s15, [r4]
 729 0018 B4EEE77A 		vcmpe.f32	s14, s15
 730 001c F1EE10FA 		vmrs	APSR_nzcv, FPSCR
 731 0020 02D5     		bpl	.L34
 732              	.LVL122:
 481:..\..\..\liblc3\src/ltpf.c ****             *x_max = x[arg = i];
 733              		.loc 1 481 0
 734 0022 C2ED007A 		vstr.32	s15, [r2]
 735 0026 1D46     		mov	r5, r3
 736              	.LVL123:
 737              	.L34:
 479:..\..\..\liblc3\src/ltpf.c ****         if (*x_max < x[i])
 738              		.loc 1 479 0 discriminator 2
 739 0028 0133     		adds	r3, r3, #1
 740              	.LVL124:
 741              	.L33:
 479:..\..\..\liblc3\src/ltpf.c ****         if (*x_max < x[i])
 742              		.loc 1 479 0 is_stmt 0 discriminator 1
 743 002a 8B42     		cmp	r3, r1
 744 002c EEDB     		blt	.L36
 745              	.LBE111:
 482:..\..\..\liblc3\src/ltpf.c **** 
 483:..\..\..\liblc3\src/ltpf.c ****     return arg;
 484:..\..\..\liblc3\src/ltpf.c **** }
 746              		.loc 1 484 0 is_stmt 1
 747 002e 2846     		mov	r0, r5
 748              	.LVL125:
 749 0030 30BC     		pop	{r4, r5}
 750              		.cfi_restore 5
 751              		.cfi_restore 4
 752              		.cfi_def_cfa_offset 0
 753              	.LVL126:
 754 0032 7047     		bx	lr
ARM GAS  C:\Users\rdn\AppData\Local\Temp\cc5zc0m9.s 			page 24


 755              		.cfi_endproc
 756              	.LFE32:
 757              		.size	argmax, .-argmax
 758              		.section	.text.argmax_weighted,"ax",%progbits
 759              		.align	2
 760              		.thumb
 761              		.thumb_func
 762              		.type	argmax_weighted, %function
 763              	argmax_weighted:
 764              	.LFB33:
 485:..\..\..\liblc3\src/ltpf.c **** 
 486:..\..\..\liblc3\src/ltpf.c **** /**
 487:..\..\..\liblc3\src/ltpf.c ****  * Search the maximum weithed value and returns its argument
 488:..\..\..\liblc3\src/ltpf.c ****  * x, n            The input vector of size `n`
 489:..\..\..\liblc3\src/ltpf.c ****  * w_incr          Increment of the weight
 490:..\..\..\liblc3\src/ltpf.c ****  * x_max, xw_max   Return the maximum not weighted value
 491:..\..\..\liblc3\src/ltpf.c ****  * return          Return the argument of the weigthed maximum
 492:..\..\..\liblc3\src/ltpf.c ****  */
 493:..\..\..\liblc3\src/ltpf.c **** LC3_HOT static int argmax_weighted(
 494:..\..\..\liblc3\src/ltpf.c ****     const float *x, int n, float w_incr, float *x_max)
 495:..\..\..\liblc3\src/ltpf.c **** {
 765              		.loc 1 495 0
 766              		.cfi_startproc
 767              		@ args = 0, pretend = 0, frame = 0
 768              		@ frame_needed = 0, uses_anonymous_args = 0
 769              		@ link register save eliminated.
 770              	.LVL127:
 771 0000 30B4     		push	{r4, r5}
 772              		.cfi_def_cfa_offset 8
 773              		.cfi_offset 4, -8
 774              		.cfi_offset 5, -4
 775              	.LVL128:
 496:..\..\..\liblc3\src/ltpf.c ****     int arg;
 497:..\..\..\liblc3\src/ltpf.c **** 
 498:..\..\..\liblc3\src/ltpf.c ****     float xw_max = (*x_max = x[arg = 0]);
 776              		.loc 1 498 0
 777 0002 90ED006A 		vldr.32	s12, [r0]
 778 0006 82ED006A 		vstr.32	s12, [r2]
 779              	.LVL129:
 499:..\..\..\liblc3\src/ltpf.c ****     float w = 1 + w_incr;
 780              		.loc 1 499 0
 781 000a F7EE007A 		vmov.f32	s15, #1.0e+0
 782 000e 70EE277A 		vadd.f32	s15, s0, s15
 783              	.LVL130:
 784              	.LBB112:
 500:..\..\..\liblc3\src/ltpf.c **** 
 501:..\..\..\liblc3\src/ltpf.c ****     for (int i = 1; i < n; i++, w += w_incr)
 785              		.loc 1 501 0
 786 0012 0123     		movs	r3, #1
 787              	.LBE112:
 498:..\..\..\liblc3\src/ltpf.c ****     float w = 1 + w_incr;
 788              		.loc 1 498 0
 789 0014 0025     		movs	r5, #0
 790              	.LBB113:
 791              		.loc 1 501 0
 792 0016 12E0     		b	.L40
 793              	.LVL131:
ARM GAS  C:\Users\rdn\AppData\Local\Temp\cc5zc0m9.s 			page 25


 794              	.L43:
 502:..\..\..\liblc3\src/ltpf.c ****         if (xw_max < x[i] * w)
 795              		.loc 1 502 0
 796 0018 00EB8304 		add	r4, r0, r3, lsl #2
 797 001c D4ED006A 		vldr.32	s13, [r4]
 798 0020 27EEA67A 		vmul.f32	s14, s15, s13
 799 0024 B4EEC76A 		vcmpe.f32	s12, s14
 800 0028 F1EE10FA 		vmrs	APSR_nzcv, FPSCR
 801 002c 04D5     		bpl	.L41
 802              	.LVL132:
 503:..\..\..\liblc3\src/ltpf.c ****             xw_max = (*x_max = x[arg = i]) * w;
 803              		.loc 1 503 0
 804 002e C2ED006A 		vstr.32	s13, [r2]
 805              	.LVL133:
 806 0032 B0EE476A 		vmov.f32	s12, s14
 807 0036 1D46     		mov	r5, r3
 808              	.LVL134:
 809              	.L41:
 501:..\..\..\liblc3\src/ltpf.c ****         if (xw_max < x[i] * w)
 810              		.loc 1 501 0 discriminator 2
 811 0038 0133     		adds	r3, r3, #1
 812              	.LVL135:
 813 003a 77EE807A 		vadd.f32	s15, s15, s0
 814              	.LVL136:
 815              	.L40:
 501:..\..\..\liblc3\src/ltpf.c ****         if (xw_max < x[i] * w)
 816              		.loc 1 501 0 is_stmt 0 discriminator 1
 817 003e 8B42     		cmp	r3, r1
 818 0040 EADB     		blt	.L43
 819              	.LBE113:
 504:..\..\..\liblc3\src/ltpf.c **** 
 505:..\..\..\liblc3\src/ltpf.c ****     return arg;
 506:..\..\..\liblc3\src/ltpf.c **** }
 820              		.loc 1 506 0 is_stmt 1
 821 0042 2846     		mov	r0, r5
 822              	.LVL137:
 823 0044 30BC     		pop	{r4, r5}
 824              		.cfi_restore 5
 825              		.cfi_restore 4
 826              		.cfi_def_cfa_offset 0
 827              	.LVL138:
 828 0046 7047     		bx	lr
 829              		.cfi_endproc
 830              	.LFE33:
 831              		.size	argmax_weighted, .-argmax_weighted
 832              		.section	.text.interpolate,"ax",%progbits
 833              		.align	2
 834              		.thumb
 835              		.thumb_func
 836              		.type	interpolate, %function
 837              	interpolate:
 838              	.LFB34:
 507:..\..\..\liblc3\src/ltpf.c **** 
 508:..\..\..\liblc3\src/ltpf.c **** /**
 509:..\..\..\liblc3\src/ltpf.c ****  * Interpolate from pitch detected value
 510:..\..\..\liblc3\src/ltpf.c ****  * x, n            [-2..-1] Previous, [0..n] Current input
 511:..\..\..\liblc3\src/ltpf.c ****  * d               The phase of interpolation (0 to 3)
ARM GAS  C:\Users\rdn\AppData\Local\Temp\cc5zc0m9.s 			page 26


 512:..\..\..\liblc3\src/ltpf.c ****  * return          The interpolated vector
 513:..\..\..\liblc3\src/ltpf.c ****  *
 514:..\..\..\liblc3\src/ltpf.c ****  * The size `n` of vectors must be multiple of 4
 515:..\..\..\liblc3\src/ltpf.c ****  */
 516:..\..\..\liblc3\src/ltpf.c **** LC3_HOT static void interpolate(const int16_t *x, int n, int d, int16_t *y)
 517:..\..\..\liblc3\src/ltpf.c **** {
 839              		.loc 1 517 0
 840              		.cfi_startproc
 841              		@ args = 0, pretend = 0, frame = 0
 842              		@ frame_needed = 0, uses_anonymous_args = 0
 843              	.LVL139:
 844 0000 2DE9F041 		push	{r4, r5, r6, r7, r8, lr}
 845              		.cfi_def_cfa_offset 24
 846              		.cfi_offset 4, -24
 847              		.cfi_offset 5, -20
 848              		.cfi_offset 6, -16
 849              		.cfi_offset 7, -12
 850              		.cfi_offset 8, -8
 851              		.cfi_offset 14, -4
 518:..\..\..\liblc3\src/ltpf.c ****     static const int16_t h4_q15[][4] = {
 519:..\..\..\liblc3\src/ltpf.c ****         { 6877, 19121,  6877,     0 }, { 3506, 18025, 11000,   220 },
 520:..\..\..\liblc3\src/ltpf.c ****         { 1300, 15048, 15048,  1300 }, {  220, 11000, 18025,  3506 } };
 521:..\..\..\liblc3\src/ltpf.c **** 
 522:..\..\..\liblc3\src/ltpf.c ****     const int16_t *h = h4_q15[d];
 852              		.loc 1 522 0
 853 0004 324C     		ldr	r4, .L50
 854 0006 04EBC202 		add	r2, r4, r2, lsl #3
 855              	.LVL140:
 523:..\..\..\liblc3\src/ltpf.c ****     int16_t x3 = x[-2], x2 = x[-1], x1, x0;
 856              		.loc 1 523 0
 857 000a 30F904EC 		ldrsh	lr, [r0, #-4]
 858              	.LVL141:
 859 000e 30F902CC 		ldrsh	ip, [r0, #-2]
 860              	.LVL142:
 524:..\..\..\liblc3\src/ltpf.c **** 
 525:..\..\..\liblc3\src/ltpf.c ****     x1 = (*x++);
 861              		.loc 1 525 0
 862 0012 841C     		adds	r4, r0, #2
 863              	.LVL143:
 864 0014 B0F90070 		ldrsh	r7, [r0]
 865              	.LVL144:
 866              	.LBB114:
 526:..\..\..\liblc3\src/ltpf.c ****     for (const int16_t *ye = y + n; y < ye; ) {
 867              		.loc 1 526 0
 868 0018 03EB4101 		add	r1, r3, r1, lsl #1
 869              	.LVL145:
 870 001c 53E0     		b	.L47
 871              	.L48:
 872              	.LVL146:
 873              	.LBB115:
 527:..\..\..\liblc3\src/ltpf.c ****         int32_t yn;
 528:..\..\..\liblc3\src/ltpf.c **** 
 529:..\..\..\liblc3\src/ltpf.c ****         yn = (x0 = *(x++)) * h[0] + x1 * h[1] + x2 * h[2] + x3 * h[3];
 874              		.loc 1 529 0
 875 001e B4F90080 		ldrsh	r8, [r4]
 876              	.LVL147:
 877 0022 B2F90000 		ldrsh	r0, [r2]
ARM GAS  C:\Users\rdn\AppData\Local\Temp\cc5zc0m9.s 			page 27


 878 0026 B2F90250 		ldrsh	r5, [r2, #2]
 879 002a 07FB05F5 		mul	r5, r7, r5
 880 002e 08FB0055 		mla	r5, r8, r0, r5
 881 0032 B2F90400 		ldrsh	r0, [r2, #4]
 882 0036 0CFB0055 		mla	r5, ip, r0, r5
 883 003a B2F90600 		ldrsh	r0, [r2, #6]
 884 003e 00FB0E5E 		mla	lr, r0, lr, r5
 885              	.LVL148:
 530:..\..\..\liblc3\src/ltpf.c ****         *(y++) = yn >> 15;
 886              		.loc 1 530 0
 887 0042 4FEAEE3E 		asr	lr, lr, #15
 888              	.LVL149:
 889 0046 A3F800E0 		strh	lr, [r3]	@ movhi
 890              	.LVL150:
 531:..\..\..\liblc3\src/ltpf.c **** 
 532:..\..\..\liblc3\src/ltpf.c ****         yn = (x3 = *(x++)) * h[0] + x0 * h[1] + x1 * h[2] + x2 * h[3];
 891              		.loc 1 532 0
 892 004a B4F902E0 		ldrsh	lr, [r4, #2]
 893              	.LVL151:
 894 004e B2F90000 		ldrsh	r0, [r2]
 895 0052 B2F90260 		ldrsh	r6, [r2, #2]
 896 0056 08FB06F6 		mul	r6, r8, r6
 897 005a 0EFB0066 		mla	r6, lr, r0, r6
 898 005e B2F90400 		ldrsh	r0, [r2, #4]
 899 0062 07FB0066 		mla	r6, r7, r0, r6
 900 0066 B2F90600 		ldrsh	r0, [r2, #6]
 901 006a 0CFB0066 		mla	r6, ip, r0, r6
 902              	.LVL152:
 533:..\..\..\liblc3\src/ltpf.c ****         *(y++) = yn >> 15;
 903              		.loc 1 533 0
 904 006e F613     		asrs	r6, r6, #15
 905              	.LVL153:
 906 0070 5E80     		strh	r6, [r3, #2]	@ movhi
 907              	.LVL154:
 534:..\..\..\liblc3\src/ltpf.c **** 
 535:..\..\..\liblc3\src/ltpf.c ****         yn = (x2 = *(x++)) * h[0] + x3 * h[1] + x0 * h[2] + x1 * h[3];
 908              		.loc 1 535 0
 909 0072 B4F904C0 		ldrsh	ip, [r4, #4]
 910              	.LVL155:
 911 0076 B2F90000 		ldrsh	r0, [r2]
 912 007a B2F90250 		ldrsh	r5, [r2, #2]
 913 007e 0EFB05F5 		mul	r5, lr, r5
 914 0082 0CFB0055 		mla	r5, ip, r0, r5
 915 0086 B2F90400 		ldrsh	r0, [r2, #4]
 916 008a 08FB0055 		mla	r5, r8, r0, r5
 917 008e B2F90660 		ldrsh	r6, [r2, #6]
 918 0092 07FB0655 		mla	r5, r7, r6, r5
 919              	.LVL156:
 536:..\..\..\liblc3\src/ltpf.c ****         *(y++) = yn >> 15;
 920              		.loc 1 536 0
 921 0096 ED13     		asrs	r5, r5, #15
 922              	.LVL157:
 923 0098 9D80     		strh	r5, [r3, #4]	@ movhi
 924              	.LVL158:
 537:..\..\..\liblc3\src/ltpf.c **** 
 538:..\..\..\liblc3\src/ltpf.c ****         yn = (x1 = *(x++)) * h[0] + x2 * h[1] + x3 * h[2] + x0 * h[3];
 925              		.loc 1 538 0
ARM GAS  C:\Users\rdn\AppData\Local\Temp\cc5zc0m9.s 			page 28


 926 009a B4F90670 		ldrsh	r7, [r4, #6]
 927              	.LVL159:
 928 009e B2F90050 		ldrsh	r5, [r2]
 929 00a2 B2F90200 		ldrsh	r0, [r2, #2]
 930 00a6 0CFB00F0 		mul	r0, ip, r0
 931 00aa 05FB0700 		mla	r0, r5, r7, r0
 932 00ae B2F90450 		ldrsh	r5, [r2, #4]
 933 00b2 0EFB0500 		mla	r0, lr, r5, r0
 934 00b6 B2F90650 		ldrsh	r5, [r2, #6]
 935 00ba 08FB0500 		mla	r0, r8, r5, r0
 936              	.LVL160:
 539:..\..\..\liblc3\src/ltpf.c ****         *(y++) = yn >> 15;
 937              		.loc 1 539 0
 938 00be C013     		asrs	r0, r0, #15
 939              	.LVL161:
 940 00c0 D880     		strh	r0, [r3, #6]	@ movhi
 941              	.LVL162:
 942 00c2 0833     		adds	r3, r3, #8
 943              	.LVL163:
 538:..\..\..\liblc3\src/ltpf.c ****         *(y++) = yn >> 15;
 944              		.loc 1 538 0
 945 00c4 0834     		adds	r4, r4, #8
 946              	.LVL164:
 947              	.L47:
 948              	.LBE115:
 526:..\..\..\liblc3\src/ltpf.c ****         int32_t yn;
 949              		.loc 1 526 0 discriminator 1
 950 00c6 8B42     		cmp	r3, r1
 951 00c8 A9D3     		bcc	.L48
 952              	.LBE114:
 540:..\..\..\liblc3\src/ltpf.c ****     }
 541:..\..\..\liblc3\src/ltpf.c **** }
 953              		.loc 1 541 0
 954 00ca BDE8F081 		pop	{r4, r5, r6, r7, r8, pc}
 955              	.LVL165:
 956              	.L51:
 957 00ce 00BF     		.align	2
 958              	.L50:
 959 00d0 80020000 		.word	.LANCHOR0+640
 960              		.cfi_endproc
 961              	.LFE34:
 962              		.size	interpolate, .-interpolate
 963              		.section	.text.interpolate_corr,"ax",%progbits
 964              		.align	2
 965              		.thumb
 966              		.thumb_func
 967              		.type	interpolate_corr, %function
 968              	interpolate_corr:
 969              	.LFB35:
 542:..\..\..\liblc3\src/ltpf.c **** 
 543:..\..\..\liblc3\src/ltpf.c **** /**
 544:..\..\..\liblc3\src/ltpf.c ****  * Interpolate autocorrelation
 545:..\..\..\liblc3\src/ltpf.c ****  * x               [-4..-1] Previous, [0..4] Current input
 546:..\..\..\liblc3\src/ltpf.c ****  * d               The phase of interpolation (-3 to 3)
 547:..\..\..\liblc3\src/ltpf.c ****  * return          The interpolated value
 548:..\..\..\liblc3\src/ltpf.c ****  */
 549:..\..\..\liblc3\src/ltpf.c **** LC3_HOT static float interpolate_corr(const float *x, int d)
ARM GAS  C:\Users\rdn\AppData\Local\Temp\cc5zc0m9.s 			page 29


 550:..\..\..\liblc3\src/ltpf.c **** {
 970              		.loc 1 550 0
 971              		.cfi_startproc
 972              		@ args = 0, pretend = 0, frame = 0
 973              		@ frame_needed = 0, uses_anonymous_args = 0
 974              		@ link register save eliminated.
 975              	.LVL166:
 551:..\..\..\liblc3\src/ltpf.c ****     static const float h4[][8] = {
 552:..\..\..\liblc3\src/ltpf.c ****         {  1.53572770e-02, -4.72963246e-02,  8.35788573e-02,  8.98638285e-01,
 553:..\..\..\liblc3\src/ltpf.c ****            8.35788573e-02, -4.72963246e-02,  1.53572770e-02,                 },
 554:..\..\..\liblc3\src/ltpf.c ****         {  2.74547165e-03,  4.59833449e-03, -7.54404636e-02,  8.17488686e-01,
 555:..\..\..\liblc3\src/ltpf.c ****            3.30182571e-01, -1.05835916e-01,  2.86823405e-02, -2.87456116e-03 },
 556:..\..\..\liblc3\src/ltpf.c ****         { -3.00125103e-03,  2.95038503e-02, -1.30305021e-01,  6.03297008e-01,
 557:..\..\..\liblc3\src/ltpf.c ****            6.03297008e-01, -1.30305021e-01,  2.95038503e-02, -3.00125103e-03 },
 558:..\..\..\liblc3\src/ltpf.c ****         { -2.87456116e-03,  2.86823405e-02, -1.05835916e-01,  3.30182571e-01,
 559:..\..\..\liblc3\src/ltpf.c ****            8.17488686e-01, -7.54404636e-02,  4.59833449e-03,  2.74547165e-03 },
 560:..\..\..\liblc3\src/ltpf.c ****     };
 561:..\..\..\liblc3\src/ltpf.c **** 
 562:..\..\..\liblc3\src/ltpf.c ****     const float *h = h4[(4+d) % 4];
 976              		.loc 1 562 0
 977 0000 0B1D     		adds	r3, r1, #4
 978 0002 2C4A     		ldr	r2, .L57
 979 0004 1A40     		ands	r2, r3, r2
 980 0006 03D5     		bpl	.L53
 981 0008 013A     		subs	r2, r2, #1
 982 000a 62F00302 		orn	r2, r2, #3
 983 000e 0132     		adds	r2, r2, #1
 984              	.L53:
 985 0010 294B     		ldr	r3, .L57+4
 986 0012 03EB4213 		add	r3, r3, r2, lsl #5
 987              	.LVL167:
 563:..\..\..\liblc3\src/ltpf.c **** 
 564:..\..\..\liblc3\src/ltpf.c ****     float y = d < 0 ? x[-4] * *(h++) :
 988              		.loc 1 564 0
 989 0016 0029     		cmp	r1, #0
 990 0018 07DA     		bge	.L54
 991              		.loc 1 564 0 is_stmt 0 discriminator 1
 992 001a 50ED047A 		vldr.32	s15, [r0, #-16]
 993              	.LVL168:
 994 001e 93ED000A 		vldr.32	s0, [r3]
 995 0022 27EE800A 		vmul.f32	s0, s15, s0
 996 0026 0433     		adds	r3, r3, #4
 997              	.LVL169:
 998 0028 0AE0     		b	.L55
 999              	.L54:
 565:..\..\..\liblc3\src/ltpf.c ****               d > 0 ? x[ 4] * *(h+7) : 0;
 1000              		.loc 1 565 0 is_stmt 1
 1001 002a 0029     		cmp	r1, #0
 1002 002c 06DD     		ble	.L56
 1003              		.loc 1 565 0 is_stmt 0 discriminator 1
 1004 002e D0ED047A 		vldr.32	s15, [r0, #16]
 1005 0032 93ED070A 		vldr.32	s0, [r3, #28]
 1006 0036 27EE800A 		vmul.f32	s0, s15, s0
 1007 003a 01E0     		b	.L55
 1008              	.L56:
 1009              		.loc 1 565 0
 1010 003c 9FED1F0A 		vldr.32	s0, .L57+8
ARM GAS  C:\Users\rdn\AppData\Local\Temp\cc5zc0m9.s 			page 30


 1011              	.L55:
 1012              	.LVL170:
 566:..\..\..\liblc3\src/ltpf.c **** 
 567:..\..\..\liblc3\src/ltpf.c ****     y += x[-3] * h[0] + x[-2] * h[1] + x[-1] * h[2] + x[0] * h[3] +
 1013              		.loc 1 567 0 is_stmt 1 discriminator 2
 1014 0040 50ED037A 		vldr.32	s15, [r0, #-12]
 1015 0044 93ED007A 		vldr.32	s14, [r3]
 1016 0048 27EE877A 		vmul.f32	s14, s15, s14
 1017 004c 50ED027A 		vldr.32	s15, [r0, #-8]
 1018 0050 D3ED015A 		vldr.32	s11, [r3, #4]
 1019 0054 67EEA55A 		vmul.f32	s11, s15, s11
 1020 0058 77EE257A 		vadd.f32	s15, s14, s11
 1021 005c 10ED017A 		vldr.32	s14, [r0, #-4]
 1022 0060 93ED026A 		vldr.32	s12, [r3, #8]
 1023 0064 27EE066A 		vmul.f32	s12, s14, s12
 1024 0068 77EE865A 		vadd.f32	s11, s15, s12
 1025 006c D0ED007A 		vldr.32	s15, [r0]
 1026 0070 D3ED036A 		vldr.32	s13, [r3, #12]
 1027 0074 67EEA66A 		vmul.f32	s13, s15, s13
 1028 0078 35EEA66A 		vadd.f32	s12, s11, s13
 568:..\..\..\liblc3\src/ltpf.c ****          x[ 1] * h[4] + x[ 2] * h[5] + x[ 3] * h[6];
 1029              		.loc 1 568 0 discriminator 2
 1030 007c D0ED017A 		vldr.32	s15, [r0, #4]
 1031 0080 93ED047A 		vldr.32	s14, [r3, #16]
 1032 0084 27EE877A 		vmul.f32	s14, s15, s14
 567:..\..\..\liblc3\src/ltpf.c ****          x[ 1] * h[4] + x[ 2] * h[5] + x[ 3] * h[6];
 1033              		.loc 1 567 0 discriminator 2
 1034 0088 76EE076A 		vadd.f32	s13, s12, s14
 1035              		.loc 1 568 0 discriminator 2
 1036 008c D0ED027A 		vldr.32	s15, [r0, #8]
 1037 0090 93ED057A 		vldr.32	s14, [r3, #20]
 1038 0094 67EE877A 		vmul.f32	s15, s15, s14
 1039 0098 36EEA77A 		vadd.f32	s14, s13, s15
 1040 009c D0ED037A 		vldr.32	s15, [r0, #12]
 1041 00a0 D3ED066A 		vldr.32	s13, [r3, #24]
 1042 00a4 67EEA67A 		vmul.f32	s15, s15, s13
 1043 00a8 77EE277A 		vadd.f32	s15, s14, s15
 1044              	.LVL171:
 569:..\..\..\liblc3\src/ltpf.c **** 
 570:..\..\..\liblc3\src/ltpf.c ****     return y;
 571:..\..\..\liblc3\src/ltpf.c **** }
 1045              		.loc 1 571 0 discriminator 2
 1046 00ac 30EE270A 		vadd.f32	s0, s0, s15
 1047              	.LVL172:
 1048 00b0 7047     		bx	lr
 1049              	.L58:
 1050 00b2 00BF     		.align	2
 1051              	.L57:
 1052 00b4 03000080 		.word	-2147483645
 1053 00b8 A0020000 		.word	.LANCHOR0+672
 1054 00bc 00000000 		.word	0
 1055              		.cfi_endproc
 1056              	.LFE35:
 1057              		.size	interpolate_corr, .-interpolate_corr
 1058              		.section	.text.refine_pitch,"ax",%progbits
 1059              		.align	2
 1060              		.thumb
ARM GAS  C:\Users\rdn\AppData\Local\Temp\cc5zc0m9.s 			page 31


 1061              		.thumb_func
 1062              		.type	refine_pitch, %function
 1063              	refine_pitch:
 1064              	.LFB37:
 572:..\..\..\liblc3\src/ltpf.c **** 
 573:..\..\..\liblc3\src/ltpf.c **** /**
 574:..\..\..\liblc3\src/ltpf.c ****  * Pitch detection algorithm
 575:..\..\..\liblc3\src/ltpf.c ****  * ltpf            Context of analysis
 576:..\..\..\liblc3\src/ltpf.c ****  * x, n            [-114..-17] Previous, [0..n-1] Current 6.4KHz samples
 577:..\..\..\liblc3\src/ltpf.c ****  * tc              Return the pitch-lag estimation
 578:..\..\..\liblc3\src/ltpf.c ****  * return          True when pitch present
 579:..\..\..\liblc3\src/ltpf.c ****  *
 580:..\..\..\liblc3\src/ltpf.c ****  * The `x` vector is aligned on 32 bits
 581:..\..\..\liblc3\src/ltpf.c ****  */
 582:..\..\..\liblc3\src/ltpf.c **** static bool detect_pitch(struct lc3_ltpf_analysis *ltpf,
 583:..\..\..\liblc3\src/ltpf.c ****     const int16_t *x, int n, int *tc)
 584:..\..\..\liblc3\src/ltpf.c **** {
 585:..\..\..\liblc3\src/ltpf.c ****     float rm1, rm2;
 586:..\..\..\liblc3\src/ltpf.c ****     float r[98];
 587:..\..\..\liblc3\src/ltpf.c **** 
 588:..\..\..\liblc3\src/ltpf.c ****     const int r0 = 17, nr = 98;
 589:..\..\..\liblc3\src/ltpf.c ****     int k0 = LC3_MAX(   0, ltpf->tc-4);
 590:..\..\..\liblc3\src/ltpf.c ****     int nk = LC3_MIN(nr-1, ltpf->tc+4) - k0 + 1;
 591:..\..\..\liblc3\src/ltpf.c **** 
 592:..\..\..\liblc3\src/ltpf.c ****     correlate(x, x - r0, n, r, nr);
 593:..\..\..\liblc3\src/ltpf.c **** 
 594:..\..\..\liblc3\src/ltpf.c ****     int t1 = argmax_weighted(r, nr, -.5f/(nr-1), &rm1);
 595:..\..\..\liblc3\src/ltpf.c ****     int t2 = k0 + argmax(r + k0, nk, &rm2);
 596:..\..\..\liblc3\src/ltpf.c **** 
 597:..\..\..\liblc3\src/ltpf.c ****     const int16_t *x1 = x - (r0 + t1);
 598:..\..\..\liblc3\src/ltpf.c ****     const int16_t *x2 = x - (r0 + t2);
 599:..\..\..\liblc3\src/ltpf.c **** 
 600:..\..\..\liblc3\src/ltpf.c ****     float nc1 = rm1 <= 0 ? 0 :
 601:..\..\..\liblc3\src/ltpf.c ****         rm1 / sqrtf(dot(x, x, n) * dot(x1, x1, n));
 602:..\..\..\liblc3\src/ltpf.c **** 
 603:..\..\..\liblc3\src/ltpf.c ****     float nc2 = rm2 <= 0 ? 0 :
 604:..\..\..\liblc3\src/ltpf.c ****         rm2 / sqrtf(dot(x, x, n) * dot(x2, x2, n));
 605:..\..\..\liblc3\src/ltpf.c **** 
 606:..\..\..\liblc3\src/ltpf.c ****     int t1sel = nc2 <= 0.85f * nc1;
 607:..\..\..\liblc3\src/ltpf.c ****     ltpf->tc = (t1sel ? t1 : t2);
 608:..\..\..\liblc3\src/ltpf.c **** 
 609:..\..\..\liblc3\src/ltpf.c ****     *tc = r0 + ltpf->tc;
 610:..\..\..\liblc3\src/ltpf.c ****     return (t1sel ? nc1 : nc2) > 0.6f;
 611:..\..\..\liblc3\src/ltpf.c **** }
 612:..\..\..\liblc3\src/ltpf.c **** 
 613:..\..\..\liblc3\src/ltpf.c **** /**
 614:..\..\..\liblc3\src/ltpf.c ****  * Pitch-lag parameter
 615:..\..\..\liblc3\src/ltpf.c ****  * x, n            [-232..-28] Previous, [0..n-1] Current 12.8KHz samples, Q14
 616:..\..\..\liblc3\src/ltpf.c ****  * tc              Pitch-lag estimation
 617:..\..\..\liblc3\src/ltpf.c ****  * pitch           The pitch value, in fixed .4
 618:..\..\..\liblc3\src/ltpf.c ****  * return          The bitstream pitch index value
 619:..\..\..\liblc3\src/ltpf.c ****  *
 620:..\..\..\liblc3\src/ltpf.c ****  * The `x` vector is aligned on 32 bits
 621:..\..\..\liblc3\src/ltpf.c ****  */
 622:..\..\..\liblc3\src/ltpf.c **** static int refine_pitch(const int16_t *x, int n, int tc, int *pitch)
 623:..\..\..\liblc3\src/ltpf.c **** {
 1065              		.loc 1 623 0
ARM GAS  C:\Users\rdn\AppData\Local\Temp\cc5zc0m9.s 			page 32


 1066              		.cfi_startproc
 1067              		@ args = 0, pretend = 0, frame = 72
 1068              		@ frame_needed = 0, uses_anonymous_args = 0
 1069              	.LVL173:
 1070 0000 2DE9F043 		push	{r4, r5, r6, r7, r8, r9, lr}
 1071              		.cfi_def_cfa_offset 28
 1072              		.cfi_offset 4, -28
 1073              		.cfi_offset 5, -24
 1074              		.cfi_offset 6, -20
 1075              		.cfi_offset 7, -16
 1076              		.cfi_offset 8, -12
 1077              		.cfi_offset 9, -8
 1078              		.cfi_offset 14, -4
 1079 0004 2DED028B 		vpush.64	{d8}
 1080              		.cfi_def_cfa_offset 36
 1081              		.cfi_offset 80, -36
 1082              		.cfi_offset 81, -32
 1083 0008 95B0     		sub	sp, sp, #84
 1084              		.cfi_def_cfa_offset 120
 1085 000a 1E46     		mov	r6, r3
 624:..\..\..\liblc3\src/ltpf.c ****     float r[17], rm;
 625:..\..\..\liblc3\src/ltpf.c ****     int e, f;
 626:..\..\..\liblc3\src/ltpf.c **** 
 627:..\..\..\liblc3\src/ltpf.c ****     int r0 = LC3_MAX( 32, 2*tc - 4);
 1086              		.loc 1 627 0
 1087 000c 941E     		subs	r4, r2, #2
 1088 000e 6400     		lsls	r4, r4, #1
 1089 0010 202C     		cmp	r4, #32
 1090 0012 B8BF     		it	lt
 1091 0014 2024     		movlt	r4, #32
 1092              	.LVL174:
 628:..\..\..\liblc3\src/ltpf.c ****     int nr = LC3_MIN(228, 2*tc + 4) - r0 + 1;
 1093              		.loc 1 628 0
 1094 0016 0232     		adds	r2, r2, #2
 1095              	.LVL175:
 1096 0018 5200     		lsls	r2, r2, #1
 1097              	.LVL176:
 1098 001a E42A     		cmp	r2, #228
 1099 001c D4BF     		ite	le
 1100 001e C4EB0202 		rsble	r2, r4, r2
 1101 0022 C4F1E402 		rsbgt	r2, r4, #228
 1102 0026 571C     		adds	r7, r2, #1
 1103              	.LVL177:
 629:..\..\..\liblc3\src/ltpf.c **** 
 630:..\..\..\liblc3\src/ltpf.c ****     correlate(x, x - (r0 - 4), n, r, nr + 8);
 1104              		.loc 1 630 0
 1105 0028 6542     		negs	r5, r4
 1106 002a 6B00     		lsls	r3, r5, #1
 1107              	.LVL178:
 1108 002c 03F10805 		add	r5, r3, #8
 1109 0030 0932     		adds	r2, r2, #9
 1110 0032 0092     		str	r2, [sp]
 1111 0034 03AB     		add	r3, sp, #12
 1112 0036 0A46     		mov	r2, r1
 1113 0038 4119     		adds	r1, r0, r5
 1114              	.LVL179:
 1115 003a FFF7FEFF 		bl	correlate
ARM GAS  C:\Users\rdn\AppData\Local\Temp\cc5zc0m9.s 			page 33


 1116              	.LVL180:
 631:..\..\..\liblc3\src/ltpf.c **** 
 632:..\..\..\liblc3\src/ltpf.c ****     e = r0 + argmax(r + 4, nr, &rm);
 1117              		.loc 1 632 0
 1118 003e 02AA     		add	r2, sp, #8
 1119 0040 3946     		mov	r1, r7
 1120 0042 07A8     		add	r0, sp, #28
 1121 0044 FFF7FEFF 		bl	argmax
 1122              	.LVL181:
 1123 0048 2518     		adds	r5, r4, r0
 1124              	.LVL182:
 633:..\..\..\liblc3\src/ltpf.c ****     const float *re = r + (e - (r0 - 4));
 1125              		.loc 1 633 0
 1126 004a 043C     		subs	r4, r4, #4
 1127              	.LVL183:
 1128 004c 2C1B     		subs	r4, r5, r4
 1129              	.LVL184:
 1130 004e 03AB     		add	r3, sp, #12
 1131 0050 03EB8407 		add	r7, r3, r4, lsl #2
 1132              	.LVL185:
 634:..\..\..\liblc3\src/ltpf.c **** 
 635:..\..\..\liblc3\src/ltpf.c ****     float dm = interpolate_corr(re, f = 0);
 1133              		.loc 1 635 0
 1134 0054 0021     		movs	r1, #0
 1135 0056 3846     		mov	r0, r7
 1136 0058 FFF7FEFF 		bl	interpolate_corr
 1137              	.LVL186:
 1138 005c B0EE408A 		vmov.f32	s16, s0
 1139              	.LVL187:
 1140              	.LBB116:
 636:..\..\..\liblc3\src/ltpf.c ****     for (int i = 1; i <= 3; i++) {
 1141              		.loc 1 636 0
 1142 0060 0124     		movs	r4, #1
 1143              	.LBE116:
 635:..\..\..\liblc3\src/ltpf.c ****     for (int i = 1; i <= 3; i++) {
 1144              		.loc 1 635 0
 1145 0062 4FF00008 		mov	r8, #0
 1146              	.LBB118:
 1147              		.loc 1 636 0
 1148 0066 25E0     		b	.L60
 1149              	.LVL188:
 1150              	.L64:
 1151              	.LBB117:
 637:..\..\..\liblc3\src/ltpf.c ****         float d;
 638:..\..\..\liblc3\src/ltpf.c **** 
 639:..\..\..\liblc3\src/ltpf.c ****         if (e >= 127 && ((i & 1) | (e >= 157)))
 1152              		.loc 1 639 0
 1153 0068 7E2D     		cmp	r5, #126
 1154 006a 06DD     		ble	.L61
 1155              		.loc 1 639 0 is_stmt 0 discriminator 1
 1156 006c 04F00103 		and	r3, r4, #1
 1157 0070 9C2D     		cmp	r5, #156
 1158 0072 C8BF     		it	gt
 1159 0074 43F00103 		orrgt	r3, r3, #1
 1160 0078 DBB9     		cbnz	r3, .L62
 1161              	.L61:
 640:..\..\..\liblc3\src/ltpf.c ****             continue;
ARM GAS  C:\Users\rdn\AppData\Local\Temp\cc5zc0m9.s 			page 34


 641:..\..\..\liblc3\src/ltpf.c **** 
 642:..\..\..\liblc3\src/ltpf.c ****         if ((d = interpolate_corr(re, i)) > dm)
 1162              		.loc 1 642 0 is_stmt 1
 1163 007a 2146     		mov	r1, r4
 1164 007c 3846     		mov	r0, r7
 1165 007e FFF7FEFF 		bl	interpolate_corr
 1166              	.LVL189:
 1167 0082 B4EEC08A 		vcmpe.f32	s16, s0
 1168 0086 F1EE10FA 		vmrs	APSR_nzcv, FPSCR
 1169 008a 02D5     		bpl	.L63
 643:..\..\..\liblc3\src/ltpf.c ****             dm = d, f = i;
 1170              		.loc 1 643 0
 1171 008c B0EE408A 		vmov.f32	s16, s0
 1172              	.LVL190:
 1173 0090 A046     		mov	r8, r4
 1174              	.LVL191:
 1175              	.L63:
 644:..\..\..\liblc3\src/ltpf.c **** 
 645:..\..\..\liblc3\src/ltpf.c ****         if (e > 32 && (d = interpolate_corr(re, -i)) > dm)
 1176              		.loc 1 645 0
 1177 0092 202D     		cmp	r5, #32
 1178 0094 0DDD     		ble	.L62
 1179              		.loc 1 645 0 is_stmt 0 discriminator 1
 1180 0096 C4F10009 		rsb	r9, r4, #0
 1181 009a 4946     		mov	r1, r9
 1182 009c 3846     		mov	r0, r7
 1183 009e FFF7FEFF 		bl	interpolate_corr
 1184              	.LVL192:
 1185 00a2 B4EEC08A 		vcmpe.f32	s16, s0
 1186 00a6 F1EE10FA 		vmrs	APSR_nzcv, FPSCR
 1187 00aa 02D5     		bpl	.L62
 646:..\..\..\liblc3\src/ltpf.c ****             dm = d, f = -i;
 1188              		.loc 1 646 0 is_stmt 1
 1189 00ac B0EE408A 		vmov.f32	s16, s0
 1190              	.LVL193:
 1191 00b0 C846     		mov	r8, r9
 1192              	.LVL194:
 1193              	.L62:
 1194              	.LBE117:
 636:..\..\..\liblc3\src/ltpf.c ****         float d;
 1195              		.loc 1 636 0 discriminator 2
 1196 00b2 0134     		adds	r4, r4, #1
 1197              	.LVL195:
 1198              	.L60:
 636:..\..\..\liblc3\src/ltpf.c ****         float d;
 1199              		.loc 1 636 0 is_stmt 0 discriminator 1
 1200 00b4 032C     		cmp	r4, #3
 1201 00b6 D7DD     		ble	.L64
 1202              	.LBE118:
 647:..\..\..\liblc3\src/ltpf.c ****     }
 648:..\..\..\liblc3\src/ltpf.c **** 
 649:..\..\..\liblc3\src/ltpf.c ****     e -=   (f < 0);
 1203              		.loc 1 649 0 is_stmt 1
 1204 00b8 A5EBD875 		sub	r5, r5, r8, lsr #31
 1205              	.LVL196:
 650:..\..\..\liblc3\src/ltpf.c ****     f += 4*(f < 0);
 1206              		.loc 1 650 0
ARM GAS  C:\Users\rdn\AppData\Local\Temp\cc5zc0m9.s 			page 35


 1207 00bc B8F1000F 		cmp	r8, #0
 1208 00c0 01DA     		bge	.L71
 1209 00c2 0423     		movs	r3, #4
 1210 00c4 00E0     		b	.L65
 1211              	.L71:
 1212 00c6 0023     		movs	r3, #0
 1213              	.L65:
 1214              		.loc 1 650 0 is_stmt 0 discriminator 4
 1215 00c8 9844     		add	r8, r8, r3
 1216              	.LVL197:
 651:..\..\..\liblc3\src/ltpf.c **** 
 652:..\..\..\liblc3\src/ltpf.c ****     *pitch = 4*e + f;
 1217              		.loc 1 652 0 is_stmt 1 discriminator 4
 1218 00ca 08EB8500 		add	r0, r8, r5, lsl #2
 1219 00ce 3060     		str	r0, [r6]
 653:..\..\..\liblc3\src/ltpf.c ****     return e < 127 ? 4*e +  f       - 128 :
 1220              		.loc 1 653 0 discriminator 4
 1221 00d0 7E2D     		cmp	r5, #126
 1222 00d2 01DC     		bgt	.L66
 1223              		.loc 1 653 0 is_stmt 0 discriminator 1
 1224 00d4 8038     		subs	r0, r0, #128
 1225 00d6 0AE0     		b	.L67
 1226              	.L66:
 654:..\..\..\liblc3\src/ltpf.c ****            e < 157 ? 2*e + (f >> 1) + 126 : e + 283;
 1227              		.loc 1 654 0 is_stmt 1
 1228 00d8 9C2D     		cmp	r5, #156
 1229 00da 06DC     		bgt	.L68
 1230              		.loc 1 654 0 is_stmt 0 discriminator 1
 1231 00dc 4FEA6808 		asr	r8, r8, #1
 1232              	.LVL198:
 1233 00e0 08EB4505 		add	r5, r8, r5, lsl #1
 1234              	.LVL199:
 1235 00e4 05F17E00 		add	r0, r5, #126
 1236 00e8 01E0     		b	.L67
 1237              	.LVL200:
 1238              	.L68:
 1239              		.loc 1 654 0 discriminator 2
 1240 00ea 05F21B10 		addw	r0, r5, #283
 1241              	.LVL201:
 1242              	.L67:
 655:..\..\..\liblc3\src/ltpf.c **** }
 1243              		.loc 1 655 0 is_stmt 1 discriminator 2
 1244 00ee 15B0     		add	sp, sp, #84
 1245              		.cfi_def_cfa_offset 36
 1246              		@ sp needed
 1247 00f0 BDEC028B 		vldm	sp!, {d8}
 1248              		.cfi_restore 80
 1249              		.cfi_restore 81
 1250              		.cfi_def_cfa_offset 28
 1251              	.LVL202:
 1252 00f4 BDE8F083 		pop	{r4, r5, r6, r7, r8, r9, pc}
 1253              		.cfi_endproc
 1254              	.LFE37:
 1255              		.size	refine_pitch, .-refine_pitch
 1256              		.section	.text.synthesize_8,"ax",%progbits
 1257              		.align	2
 1258              		.thumb
ARM GAS  C:\Users\rdn\AppData\Local\Temp\cc5zc0m9.s 			page 36


 1259              		.thumb_func
 1260              		.type	synthesize_8, %function
 1261              	synthesize_8:
 1262              	.LFB42:
 656:..\..\..\liblc3\src/ltpf.c **** 
 657:..\..\..\liblc3\src/ltpf.c **** /**
 658:..\..\..\liblc3\src/ltpf.c ****  * LTPF Analysis
 659:..\..\..\liblc3\src/ltpf.c ****  */
 660:..\..\..\liblc3\src/ltpf.c **** bool lc3_ltpf_analyse(
 661:..\..\..\liblc3\src/ltpf.c ****     enum lc3_dt dt, enum lc3_srate sr, struct lc3_ltpf_analysis *ltpf,
 662:..\..\..\liblc3\src/ltpf.c ****     const int16_t *x, struct lc3_ltpf_data *data)
 663:..\..\..\liblc3\src/ltpf.c **** {
 664:..\..\..\liblc3\src/ltpf.c ****     /* --- Resampling to 12.8 KHz --- */
 665:..\..\..\liblc3\src/ltpf.c **** 
 666:..\..\..\liblc3\src/ltpf.c ****     int z_12k8 = sizeof(ltpf->x_12k8) / sizeof(*ltpf->x_12k8);
 667:..\..\..\liblc3\src/ltpf.c ****     int n_12k8 = (1 + dt) * 32;
 668:..\..\..\liblc3\src/ltpf.c **** 
 669:..\..\..\liblc3\src/ltpf.c ****     memmove(ltpf->x_12k8, ltpf->x_12k8 + n_12k8,
 670:..\..\..\liblc3\src/ltpf.c ****         (z_12k8 - n_12k8) * sizeof(*ltpf->x_12k8));
 671:..\..\..\liblc3\src/ltpf.c **** 
 672:..\..\..\liblc3\src/ltpf.c ****     int16_t *x_12k8 = ltpf->x_12k8 + (z_12k8 - n_12k8);
 673:..\..\..\liblc3\src/ltpf.c **** 
 674:..\..\..\liblc3\src/ltpf.c ****     resample_12k8[sr](&ltpf->hp50, x, x_12k8, n_12k8);
 675:..\..\..\liblc3\src/ltpf.c **** 
 676:..\..\..\liblc3\src/ltpf.c ****     x_12k8 -= (dt == LC3_DT_7M5 ? 44 : 24);
 677:..\..\..\liblc3\src/ltpf.c **** 
 678:..\..\..\liblc3\src/ltpf.c ****     /* --- Resampling to 6.4 KHz --- */
 679:..\..\..\liblc3\src/ltpf.c **** 
 680:..\..\..\liblc3\src/ltpf.c ****     int z_6k4 = sizeof(ltpf->x_6k4) / sizeof(*ltpf->x_6k4);
 681:..\..\..\liblc3\src/ltpf.c ****     int n_6k4 = n_12k8 >> 1;
 682:..\..\..\liblc3\src/ltpf.c **** 
 683:..\..\..\liblc3\src/ltpf.c ****     memmove(ltpf->x_6k4, ltpf->x_6k4 + n_6k4,
 684:..\..\..\liblc3\src/ltpf.c ****         (z_6k4 - n_6k4) * sizeof(*ltpf->x_6k4));
 685:..\..\..\liblc3\src/ltpf.c **** 
 686:..\..\..\liblc3\src/ltpf.c ****     int16_t *x_6k4 = ltpf->x_6k4 + (z_6k4 - n_6k4);
 687:..\..\..\liblc3\src/ltpf.c **** 
 688:..\..\..\liblc3\src/ltpf.c ****     resample_6k4(x_12k8, x_6k4, n_6k4);
 689:..\..\..\liblc3\src/ltpf.c **** 
 690:..\..\..\liblc3\src/ltpf.c ****     /* --- Enlarge for small frame size --- */
 691:..\..\..\liblc3\src/ltpf.c **** 
 692:..\..\..\liblc3\src/ltpf.c ****     if (dt == LC3_DT_2M5) {
 693:..\..\..\liblc3\src/ltpf.c ****         x_12k8 -= n_12k8, x_6k4 -= n_6k4;
 694:..\..\..\liblc3\src/ltpf.c ****         n_12k8 += n_12k8; n_6k4 += n_6k4;
 695:..\..\..\liblc3\src/ltpf.c ****     }
 696:..\..\..\liblc3\src/ltpf.c **** 
 697:..\..\..\liblc3\src/ltpf.c ****     /* --- Pitch detection --- */
 698:..\..\..\liblc3\src/ltpf.c **** 
 699:..\..\..\liblc3\src/ltpf.c ****     int tc, pitch = 0;
 700:..\..\..\liblc3\src/ltpf.c ****     float nc = 0;
 701:..\..\..\liblc3\src/ltpf.c **** 
 702:..\..\..\liblc3\src/ltpf.c ****     bool pitch_present = detect_pitch(ltpf, x_6k4, n_6k4, &tc);
 703:..\..\..\liblc3\src/ltpf.c **** 
 704:..\..\..\liblc3\src/ltpf.c ****     if (pitch_present) {
 705:..\..\..\liblc3\src/ltpf.c ****         int16_t u[128], v[128];
 706:..\..\..\liblc3\src/ltpf.c **** 
 707:..\..\..\liblc3\src/ltpf.c ****         data->pitch_index = refine_pitch(x_12k8, n_12k8, tc, &pitch);
 708:..\..\..\liblc3\src/ltpf.c **** 
ARM GAS  C:\Users\rdn\AppData\Local\Temp\cc5zc0m9.s 			page 37


 709:..\..\..\liblc3\src/ltpf.c ****         interpolate(x_12k8, n_12k8, 0, u);
 710:..\..\..\liblc3\src/ltpf.c ****         interpolate(x_12k8 - (pitch >> 2), n_12k8, pitch & 3, v);
 711:..\..\..\liblc3\src/ltpf.c **** 
 712:..\..\..\liblc3\src/ltpf.c ****         nc = dot(u, v, n_12k8) / sqrtf(dot(u, u, n_12k8) * dot(v, v, n_12k8));
 713:..\..\..\liblc3\src/ltpf.c ****     }
 714:..\..\..\liblc3\src/ltpf.c **** 
 715:..\..\..\liblc3\src/ltpf.c ****     /* --- Activation --- */
 716:..\..\..\liblc3\src/ltpf.c **** 
 717:..\..\..\liblc3\src/ltpf.c ****      if (ltpf->active) {
 718:..\..\..\liblc3\src/ltpf.c ****         int pitch_diff =
 719:..\..\..\liblc3\src/ltpf.c ****             LC3_MAX(pitch, ltpf->pitch) - LC3_MIN(pitch, ltpf->pitch);
 720:..\..\..\liblc3\src/ltpf.c ****         float nc_diff = nc - ltpf->nc[0];
 721:..\..\..\liblc3\src/ltpf.c **** 
 722:..\..\..\liblc3\src/ltpf.c ****         data->active = !lc3_hr(sr) && pitch_present &&
 723:..\..\..\liblc3\src/ltpf.c ****             ((nc > 0.9f) || (nc > 0.84f && pitch_diff < 8 && nc_diff > -0.1f));
 724:..\..\..\liblc3\src/ltpf.c **** 
 725:..\..\..\liblc3\src/ltpf.c ****      } else {
 726:..\..\..\liblc3\src/ltpf.c ****          data->active = !lc3_hr(sr) && pitch_present &&
 727:..\..\..\liblc3\src/ltpf.c ****             ( (dt == LC3_DT_10M || ltpf->nc[1] > 0.94f) &&
 728:..\..\..\liblc3\src/ltpf.c ****               (ltpf->nc[0] > 0.94f && nc > 0.94f) );
 729:..\..\..\liblc3\src/ltpf.c ****      }
 730:..\..\..\liblc3\src/ltpf.c **** 
 731:..\..\..\liblc3\src/ltpf.c ****      ltpf->active = data->active;
 732:..\..\..\liblc3\src/ltpf.c ****      ltpf->pitch = pitch;
 733:..\..\..\liblc3\src/ltpf.c ****      ltpf->nc[1] = ltpf->nc[0];
 734:..\..\..\liblc3\src/ltpf.c ****      ltpf->nc[0] = nc;
 735:..\..\..\liblc3\src/ltpf.c **** 
 736:..\..\..\liblc3\src/ltpf.c ****      return pitch_present;
 737:..\..\..\liblc3\src/ltpf.c **** }
 738:..\..\..\liblc3\src/ltpf.c **** 
 739:..\..\..\liblc3\src/ltpf.c **** 
 740:..\..\..\liblc3\src/ltpf.c **** /* ----------------------------------------------------------------------------
 741:..\..\..\liblc3\src/ltpf.c ****  *  Synthesis
 742:..\..\..\liblc3\src/ltpf.c ****  * -------------------------------------------------------------------------- */
 743:..\..\..\liblc3\src/ltpf.c **** 
 744:..\..\..\liblc3\src/ltpf.c **** /**
 745:..\..\..\liblc3\src/ltpf.c ****  * Width of synthesis filter
 746:..\..\..\liblc3\src/ltpf.c ****  */
 747:..\..\..\liblc3\src/ltpf.c **** 
 748:..\..\..\liblc3\src/ltpf.c **** #define MAX_FILTER_WIDTH \
 749:..\..\..\liblc3\src/ltpf.c ****     (LC3_MAX_SRATE_HZ / 4000)
 750:..\..\..\liblc3\src/ltpf.c **** 
 751:..\..\..\liblc3\src/ltpf.c **** 
 752:..\..\..\liblc3\src/ltpf.c **** /**
 753:..\..\..\liblc3\src/ltpf.c ****  * Synthesis filter template
 754:..\..\..\liblc3\src/ltpf.c ****  * xh, nh          History ring buffer of filtered samples
 755:..\..\..\liblc3\src/ltpf.c ****  * lag             Lag parameter in the ring buffer
 756:..\..\..\liblc3\src/ltpf.c ****  * x0              w-1 previous input samples
 757:..\..\..\liblc3\src/ltpf.c ****  * x, n            Current samples as input, filtered as output
 758:..\..\..\liblc3\src/ltpf.c ****  * c, w            Coefficients `den` then `num`, and width of filter
 759:..\..\..\liblc3\src/ltpf.c ****  * fade            Fading mode of filter  -1: Out  1: In  0: None
 760:..\..\..\liblc3\src/ltpf.c ****  */
 761:..\..\..\liblc3\src/ltpf.c **** LC3_HOT static inline void synthesize_template(
 762:..\..\..\liblc3\src/ltpf.c ****     const float *xh, int nh, int lag,
 763:..\..\..\liblc3\src/ltpf.c ****     const float *x0, float *x, int n,
 764:..\..\..\liblc3\src/ltpf.c ****     const float *c, const int w, int fade)
 765:..\..\..\liblc3\src/ltpf.c **** {
ARM GAS  C:\Users\rdn\AppData\Local\Temp\cc5zc0m9.s 			page 38


 766:..\..\..\liblc3\src/ltpf.c ****     float g = (float)(fade <= 0);
 767:..\..\..\liblc3\src/ltpf.c ****     float g_incr = (float)((fade > 0) - (fade < 0)) / n;
 768:..\..\..\liblc3\src/ltpf.c ****     float u[MAX_FILTER_WIDTH];
 769:..\..\..\liblc3\src/ltpf.c **** 
 770:..\..\..\liblc3\src/ltpf.c ****     /* --- Load previous samples --- */
 771:..\..\..\liblc3\src/ltpf.c **** 
 772:..\..\..\liblc3\src/ltpf.c ****     lag += (w >> 1);
 773:..\..\..\liblc3\src/ltpf.c **** 
 774:..\..\..\liblc3\src/ltpf.c ****     const float *y = x - xh < lag ? x + (nh - lag) : x - lag;
 775:..\..\..\liblc3\src/ltpf.c ****     const float *y_end = xh + nh - 1;
 776:..\..\..\liblc3\src/ltpf.c **** 
 777:..\..\..\liblc3\src/ltpf.c ****     for (int j = 0; j < w-1; j++) {
 778:..\..\..\liblc3\src/ltpf.c **** 
 779:..\..\..\liblc3\src/ltpf.c ****         u[j] = 0;
 780:..\..\..\liblc3\src/ltpf.c **** 
 781:..\..\..\liblc3\src/ltpf.c ****         float yi = *y, xi = *(x0++);
 782:..\..\..\liblc3\src/ltpf.c ****         y = y < y_end ? y + 1 : xh;
 783:..\..\..\liblc3\src/ltpf.c **** 
 784:..\..\..\liblc3\src/ltpf.c ****         for (int k = 0; k <= j; k++)
 785:..\..\..\liblc3\src/ltpf.c ****             u[j-k] -= yi * c[k];
 786:..\..\..\liblc3\src/ltpf.c **** 
 787:..\..\..\liblc3\src/ltpf.c ****         for (int k = 0; k <= j; k++)
 788:..\..\..\liblc3\src/ltpf.c ****             u[j-k] += xi * c[w+k];
 789:..\..\..\liblc3\src/ltpf.c ****     }
 790:..\..\..\liblc3\src/ltpf.c **** 
 791:..\..\..\liblc3\src/ltpf.c ****     u[w-1] = 0;
 792:..\..\..\liblc3\src/ltpf.c **** 
 793:..\..\..\liblc3\src/ltpf.c ****     /* --- Process by filter length --- */
 794:..\..\..\liblc3\src/ltpf.c **** 
 795:..\..\..\liblc3\src/ltpf.c ****     for (int i = 0; i < n; i += w)
 796:..\..\..\liblc3\src/ltpf.c ****         for (int j = 0; j < w; j++, g += g_incr) {
 797:..\..\..\liblc3\src/ltpf.c **** 
 798:..\..\..\liblc3\src/ltpf.c ****             float yi = *y, xi = *x;
 799:..\..\..\liblc3\src/ltpf.c ****             y = y < y_end ? y + 1 : xh;
 800:..\..\..\liblc3\src/ltpf.c **** 
 801:..\..\..\liblc3\src/ltpf.c ****             for (int k = 0; k < w; k++)
 802:..\..\..\liblc3\src/ltpf.c ****                 u[(j+(w-1)-k)%w] -= yi * c[k];
 803:..\..\..\liblc3\src/ltpf.c **** 
 804:..\..\..\liblc3\src/ltpf.c ****             for (int k = 0; k < w; k++)
 805:..\..\..\liblc3\src/ltpf.c ****                 u[(j+(w-1)-k)%w] += xi * c[w+k];
 806:..\..\..\liblc3\src/ltpf.c **** 
 807:..\..\..\liblc3\src/ltpf.c ****             *(x++) = xi - g * u[j];
 808:..\..\..\liblc3\src/ltpf.c ****             u[j] = 0;
 809:..\..\..\liblc3\src/ltpf.c ****         }
 810:..\..\..\liblc3\src/ltpf.c **** }
 811:..\..\..\liblc3\src/ltpf.c **** 
 812:..\..\..\liblc3\src/ltpf.c **** /**
 813:..\..\..\liblc3\src/ltpf.c ****  * Synthesis filter for each samplerates (width of filter)
 814:..\..\..\liblc3\src/ltpf.c ****  */
 815:..\..\..\liblc3\src/ltpf.c **** 
 816:..\..\..\liblc3\src/ltpf.c **** 
 817:..\..\..\liblc3\src/ltpf.c **** LC3_HOT static void synthesize_4(const float *xh, int nh, int lag,
 818:..\..\..\liblc3\src/ltpf.c ****     const float *x0, float *x, int n, const float *c, int fade)
 819:..\..\..\liblc3\src/ltpf.c **** {
 820:..\..\..\liblc3\src/ltpf.c ****     synthesize_template(xh, nh, lag, x0, x, n, c, 4, fade);
 821:..\..\..\liblc3\src/ltpf.c **** }
 822:..\..\..\liblc3\src/ltpf.c **** 
ARM GAS  C:\Users\rdn\AppData\Local\Temp\cc5zc0m9.s 			page 39


 823:..\..\..\liblc3\src/ltpf.c **** LC3_HOT static void synthesize_6(const float *xh, int nh, int lag,
 824:..\..\..\liblc3\src/ltpf.c ****     const float *x0, float *x, int n, const float *c, int fade)
 825:..\..\..\liblc3\src/ltpf.c **** {
 826:..\..\..\liblc3\src/ltpf.c ****     synthesize_template(xh, nh, lag, x0, x, n, c, 6, fade);
 827:..\..\..\liblc3\src/ltpf.c **** }
 828:..\..\..\liblc3\src/ltpf.c **** 
 829:..\..\..\liblc3\src/ltpf.c **** LC3_HOT static void synthesize_8(const float *xh, int nh, int lag,
 830:..\..\..\liblc3\src/ltpf.c ****     const float *x0, float *x, int n, const float *c, int fade)
 831:..\..\..\liblc3\src/ltpf.c **** {
 1263              		.loc 1 831 0
 1264              		.cfi_startproc
 1265              		@ args = 16, pretend = 0, frame = 96
 1266              		@ frame_needed = 0, uses_anonymous_args = 0
 1267              	.LVL203:
 1268 0000 2DE9F043 		push	{r4, r5, r6, r7, r8, r9, lr}
 1269              		.cfi_def_cfa_offset 28
 1270              		.cfi_offset 4, -28
 1271              		.cfi_offset 5, -24
 1272              		.cfi_offset 6, -20
 1273              		.cfi_offset 7, -16
 1274              		.cfi_offset 8, -12
 1275              		.cfi_offset 9, -8
 1276              		.cfi_offset 14, -4
 1277 0004 99B0     		sub	sp, sp, #100
 1278              		.cfi_def_cfa_offset 128
 1279 0006 8146     		mov	r9, r0
 1280 0008 209D     		ldr	r5, [sp, #128]
 1281 000a DDF884E0 		ldr	lr, [sp, #132]
 1282 000e 229C     		ldr	r4, [sp, #136]
 1283 0010 239F     		ldr	r7, [sp, #140]
 1284              	.LVL204:
 1285              	.LBB130:
 1286              	.LBB131:
 766:..\..\..\liblc3\src/ltpf.c ****     float g_incr = (float)((fade > 0) - (fade < 0)) / n;
 1287              		.loc 1 766 0
 1288 0012 002F     		cmp	r7, #0
 1289 0014 02DC     		bgt	.L94
 1290 0016 F7EE005A 		vmov.f32	s11, #1.0e+0
 1291 001a 01E0     		b	.L74
 1292              	.L94:
 1293 001c DFED6A5A 		vldr.32	s11, .L99
 1294              	.L74:
 1295              	.LVL205:
 767:..\..\..\liblc3\src/ltpf.c ****     float u[MAX_FILTER_WIDTH];
 1296              		.loc 1 767 0
 1297 0020 FE0F     		lsrs	r6, r7, #31
 1298 0022 002F     		cmp	r7, #0
 1299 0024 D4BF     		ite	le
 1300 0026 7642     		rsble	r6, r6, #0
 1301 0028 C6F10106 		rsbgt	r6, r6, #1
 1302 002c 07EE906A 		vmov	s15, r6	@ int
 1303 0030 F8EEE77A 		vcvt.f32.s32	s15, s15
 1304 0034 07EE10EA 		vmov	s14, lr	@ int
 1305 0038 B8EEC77A 		vcvt.f32.s32	s14, s14
 1306 003c 87EE875A 		vdiv.f32	s10, s15, s14
 1307              	.LVL206:
 772:..\..\..\liblc3\src/ltpf.c **** 
ARM GAS  C:\Users\rdn\AppData\Local\Temp\cc5zc0m9.s 			page 40


 1308              		.loc 1 772 0
 1309 0040 161D     		adds	r6, r2, #4
 1310              	.LVL207:
 774:..\..\..\liblc3\src/ltpf.c ****     const float *y_end = xh + nh - 1;
 1311              		.loc 1 774 0
 1312 0042 C9EB0502 		rsb	r2, r9, r5
 1313              	.LVL208:
 1314 0046 B6EBA20F 		cmp	r6, r2, asr #2
 1315 004a 03DD     		ble	.L75
 1316 004c 8E1B     		subs	r6, r1, r6
 1317              	.LVL209:
 1318 004e 05EB8606 		add	r6, r5, r6, lsl #2
 1319 0052 01E0     		b	.L76
 1320              	.LVL210:
 1321              	.L75:
 1322 0054 A5EB8606 		sub	r6, r5, r6, lsl #2
 1323              	.LVL211:
 1324              	.L76:
 775:..\..\..\liblc3\src/ltpf.c **** 
 1325              		.loc 1 775 0
 1326 0058 01F18041 		add	r1, r1, #1073741824
 1327              	.LVL212:
 1328 005c 0139     		subs	r1, r1, #1
 1329              	.LVL213:
 1330 005e 09EB8101 		add	r1, r9, r1, lsl #2
 1331              	.LVL214:
 1332              	.LBB132:
 777:..\..\..\liblc3\src/ltpf.c **** 
 1333              		.loc 1 777 0
 1334 0062 0027     		movs	r7, #0
 1335              	.LVL215:
 1336 0064 3FE0     		b	.L77
 1337              	.LVL216:
 1338              	.L83:
 1339              	.LBB133:
 779:..\..\..\liblc3\src/ltpf.c **** 
 1340              		.loc 1 779 0
 1341 0066 4FF0000C 		mov	ip, #0
 1342 006a 18AA     		add	r2, sp, #96
 1343 006c 02EB8702 		add	r2, r2, r7, lsl #2
 1344 0070 42F860CC 		str	ip, [r2, #-96]	@ float
 781:..\..\..\liblc3\src/ltpf.c ****         y = y < y_end ? y + 1 : xh;
 1345              		.loc 1 781 0
 1346 0074 96ED006A 		vldr.32	s12, [r6]
 1347              	.LVL217:
 1348 0078 03F1040C 		add	ip, r3, #4
 1349              	.LVL218:
 1350 007c D3ED006A 		vldr.32	s13, [r3]
 1351              	.LVL219:
 782:..\..\..\liblc3\src/ltpf.c **** 
 1352              		.loc 1 782 0
 1353 0080 B142     		cmp	r1, r6
 1354 0082 01D9     		bls	.L95
 1355 0084 0436     		adds	r6, r6, #4
 1356              	.LVL220:
 1357 0086 00E0     		b	.L78
 1358              	.LVL221:
ARM GAS  C:\Users\rdn\AppData\Local\Temp\cc5zc0m9.s 			page 41


 1359              	.L95:
 1360 0088 4E46     		mov	r6, r9
 1361              	.LVL222:
 1362              	.L78:
 1363              	.LBB134:
 784:..\..\..\liblc3\src/ltpf.c ****             u[j-k] -= yi * c[k];
 1364              		.loc 1 784 0
 1365 008a 0023     		movs	r3, #0
 1366 008c 10E0     		b	.L79
 1367              	.LVL223:
 1368              	.L80:
 785:..\..\..\liblc3\src/ltpf.c **** 
 1369              		.loc 1 785 0
 1370 008e FA1A     		subs	r2, r7, r3
 1371 0090 04EB8308 		add	r8, r4, r3, lsl #2
 1372 0094 D8ED007A 		vldr.32	s15, [r8]
 1373 0098 26EE277A 		vmul.f32	s14, s12, s15
 1374 009c 18A8     		add	r0, sp, #96
 1375 009e 00EB8202 		add	r2, r0, r2, lsl #2
 1376 00a2 52ED187A 		vldr.32	s15, [r2, #-96]
 1377 00a6 77EEC77A 		vsub.f32	s15, s15, s14
 1378 00aa 42ED187A 		vstr.32	s15, [r2, #-96]
 784:..\..\..\liblc3\src/ltpf.c ****             u[j-k] -= yi * c[k];
 1379              		.loc 1 784 0
 1380 00ae 0133     		adds	r3, r3, #1
 1381              	.LVL224:
 1382              	.L79:
 1383 00b0 9F42     		cmp	r7, r3
 1384 00b2 ECDA     		bge	.L80
 1385 00b4 0023     		movs	r3, #0
 1386              	.LVL225:
 1387 00b6 12E0     		b	.L81
 1388              	.LVL226:
 1389              	.L82:
 1390              	.LBE134:
 1391              	.LBB135:
 788:..\..\..\liblc3\src/ltpf.c ****     }
 1392              		.loc 1 788 0
 1393 00b8 FA1A     		subs	r2, r7, r3
 1394 00ba 03F10808 		add	r8, r3, #8
 1395 00be 04EB8808 		add	r8, r4, r8, lsl #2
 1396 00c2 D8ED007A 		vldr.32	s15, [r8]
 1397 00c6 26EEA77A 		vmul.f32	s14, s13, s15
 1398 00ca 18A8     		add	r0, sp, #96
 1399 00cc 00EB8202 		add	r2, r0, r2, lsl #2
 1400 00d0 52ED187A 		vldr.32	s15, [r2, #-96]
 1401 00d4 77EE877A 		vadd.f32	s15, s15, s14
 1402 00d8 42ED187A 		vstr.32	s15, [r2, #-96]
 787:..\..\..\liblc3\src/ltpf.c ****             u[j-k] += xi * c[w+k];
 1403              		.loc 1 787 0
 1404 00dc 0133     		adds	r3, r3, #1
 1405              	.LVL227:
 1406              	.L81:
 1407 00de 9F42     		cmp	r7, r3
 1408 00e0 EADA     		bge	.L82
 1409              	.LBE135:
 1410              	.LBE133:
ARM GAS  C:\Users\rdn\AppData\Local\Temp\cc5zc0m9.s 			page 42


 777:..\..\..\liblc3\src/ltpf.c **** 
 1411              		.loc 1 777 0
 1412 00e2 0137     		adds	r7, r7, #1
 1413              	.LVL228:
 1414              	.LBB136:
 781:..\..\..\liblc3\src/ltpf.c ****         y = y < y_end ? y + 1 : xh;
 1415              		.loc 1 781 0
 1416 00e4 6346     		mov	r3, ip
 1417              	.LVL229:
 1418              	.L77:
 1419              	.LBE136:
 777:..\..\..\liblc3\src/ltpf.c **** 
 1420              		.loc 1 777 0
 1421 00e6 062F     		cmp	r7, #6
 1422 00e8 BDDD     		ble	.L83
 1423              	.LBE132:
 791:..\..\..\liblc3\src/ltpf.c **** 
 1424              		.loc 1 791 0
 1425 00ea 0023     		movs	r3, #0
 1426              	.LVL230:
 1427 00ec 0793     		str	r3, [sp, #28]	@ float
 1428              	.LVL231:
 1429              	.LBB137:
 795:..\..\..\liblc3\src/ltpf.c ****         for (int j = 0; j < w; j++, g += g_incr) {
 1430              		.loc 1 795 0
 1431 00ee 0027     		movs	r7, #0
 1432              	.LVL232:
 1433 00f0 64E0     		b	.L84
 1434              	.LVL233:
 1435              	.L92:
 1436              	.LBB138:
 1437              	.LBB139:
 798:..\..\..\liblc3\src/ltpf.c ****             y = y < y_end ? y + 1 : xh;
 1438              		.loc 1 798 0
 1439 00f2 96ED006A 		vldr.32	s12, [r6]
 1440              	.LVL234:
 1441 00f6 D5ED006A 		vldr.32	s13, [r5]
 1442              	.LVL235:
 799:..\..\..\liblc3\src/ltpf.c **** 
 1443              		.loc 1 799 0
 1444 00fa B142     		cmp	r1, r6
 1445 00fc 01D9     		bls	.L96
 1446 00fe 0436     		adds	r6, r6, #4
 1447              	.LVL236:
 1448 0100 00E0     		b	.L85
 1449              	.LVL237:
 1450              	.L96:
 1451 0102 4E46     		mov	r6, r9
 1452              	.LVL238:
 1453              	.L85:
 1454              	.LBB140:
 801:..\..\..\liblc3\src/ltpf.c ****                 u[(j+(w-1)-k)%w] -= yi * c[k];
 1455              		.loc 1 801 0
 1456 0104 4FF0000C 		mov	ip, #0
 1457 0108 1AE0     		b	.L86
 1458              	.LVL239:
 1459              	.L88:
ARM GAS  C:\Users\rdn\AppData\Local\Temp\cc5zc0m9.s 			page 43


 802:..\..\..\liblc3\src/ltpf.c **** 
 1460              		.loc 1 802 0
 1461 010a D31D     		adds	r3, r2, #7
 1462 010c CCEB0303 		rsb	r3, ip, r3
 1463 0110 2E48     		ldr	r0, .L99+4
 1464 0112 0340     		ands	r3, r3, r0
 1465 0114 03D5     		bpl	.L87
 1466 0116 013B     		subs	r3, r3, #1
 1467 0118 63F00703 		orn	r3, r3, #7
 1468 011c 0133     		adds	r3, r3, #1
 1469              	.L87:
 1470 011e 04EB8C08 		add	r8, r4, ip, lsl #2
 1471 0122 D8ED007A 		vldr.32	s15, [r8]
 1472 0126 26EE277A 		vmul.f32	s14, s12, s15
 1473 012a 18A8     		add	r0, sp, #96
 1474 012c 00EB8303 		add	r3, r0, r3, lsl #2
 1475 0130 53ED187A 		vldr.32	s15, [r3, #-96]
 1476 0134 77EEC77A 		vsub.f32	s15, s15, s14
 1477 0138 43ED187A 		vstr.32	s15, [r3, #-96]
 801:..\..\..\liblc3\src/ltpf.c ****                 u[(j+(w-1)-k)%w] -= yi * c[k];
 1478              		.loc 1 801 0
 1479 013c 0CF1010C 		add	ip, ip, #1
 1480              	.LVL240:
 1481              	.L86:
 1482 0140 BCF1070F 		cmp	ip, #7
 1483 0144 E1DD     		ble	.L88
 1484 0146 4FF0000C 		mov	ip, #0
 1485              	.LVL241:
 1486 014a 1CE0     		b	.L89
 1487              	.LVL242:
 1488              	.L91:
 1489              	.LBE140:
 1490              	.LBB141:
 805:..\..\..\liblc3\src/ltpf.c **** 
 1491              		.loc 1 805 0
 1492 014c D31D     		adds	r3, r2, #7
 1493 014e CCEB0303 		rsb	r3, ip, r3
 1494 0152 1E48     		ldr	r0, .L99+4
 1495 0154 0340     		ands	r3, r3, r0
 1496 0156 03D5     		bpl	.L90
 1497 0158 013B     		subs	r3, r3, #1
 1498 015a 63F00703 		orn	r3, r3, #7
 1499 015e 0133     		adds	r3, r3, #1
 1500              	.L90:
 1501 0160 0CF10808 		add	r8, ip, #8
 1502 0164 04EB8808 		add	r8, r4, r8, lsl #2
 1503 0168 D8ED007A 		vldr.32	s15, [r8]
 1504 016c 26EEA77A 		vmul.f32	s14, s13, s15
 1505 0170 18A8     		add	r0, sp, #96
 1506 0172 00EB8303 		add	r3, r0, r3, lsl #2
 1507 0176 53ED187A 		vldr.32	s15, [r3, #-96]
 1508 017a 77EE877A 		vadd.f32	s15, s15, s14
 1509 017e 43ED187A 		vstr.32	s15, [r3, #-96]
 804:..\..\..\liblc3\src/ltpf.c ****                 u[(j+(w-1)-k)%w] += xi * c[w+k];
 1510              		.loc 1 804 0
 1511 0182 0CF1010C 		add	ip, ip, #1
 1512              	.LVL243:
ARM GAS  C:\Users\rdn\AppData\Local\Temp\cc5zc0m9.s 			page 44


 1513              	.L89:
 1514 0186 BCF1070F 		cmp	ip, #7
 1515 018a DFDD     		ble	.L91
 1516              	.LVL244:
 1517              	.LBE141:
 807:..\..\..\liblc3\src/ltpf.c ****             u[j] = 0;
 1518              		.loc 1 807 0
 1519 018c 18AB     		add	r3, sp, #96
 1520 018e 03EB8203 		add	r3, r3, r2, lsl #2
 1521 0192 53ED187A 		vldr.32	s15, [r3, #-96]
 1522 0196 67EEA57A 		vmul.f32	s15, s15, s11
 1523 019a 76EEE76A 		vsub.f32	s13, s13, s15
 1524              	.LVL245:
 1525 019e C5ED006A 		vstr.32	s13, [r5]
 1526              	.LVL246:
 808:..\..\..\liblc3\src/ltpf.c ****         }
 1527              		.loc 1 808 0
 1528 01a2 4FF0000C 		mov	ip, #0
 1529              	.LVL247:
 1530 01a6 43F860CC 		str	ip, [r3, #-96]	@ float
 1531              	.LBE139:
 796:..\..\..\liblc3\src/ltpf.c **** 
 1532              		.loc 1 796 0
 1533 01aa 0132     		adds	r2, r2, #1
 1534              	.LVL248:
 1535 01ac 75EE855A 		vadd.f32	s11, s11, s10
 1536              	.LVL249:
 1537              	.LBB142:
 807:..\..\..\liblc3\src/ltpf.c ****             u[j] = 0;
 1538              		.loc 1 807 0
 1539 01b0 0435     		adds	r5, r5, #4
 1540              	.LVL250:
 1541 01b2 00E0     		b	.L93
 1542              	.LVL251:
 1543              	.L97:
 1544              	.LBE142:
 1545              	.LBE138:
 795:..\..\..\liblc3\src/ltpf.c ****         for (int j = 0; j < w; j++, g += g_incr) {
 1546              		.loc 1 795 0
 1547 01b4 0022     		movs	r2, #0
 1548              	.L93:
 1549              	.LVL252:
 1550              	.LBB143:
 796:..\..\..\liblc3\src/ltpf.c **** 
 1551              		.loc 1 796 0
 1552 01b6 072A     		cmp	r2, #7
 1553 01b8 9BDD     		ble	.L92
 1554              	.LBE143:
 795:..\..\..\liblc3\src/ltpf.c ****         for (int j = 0; j < w; j++, g += g_incr) {
 1555              		.loc 1 795 0
 1556 01ba 0837     		adds	r7, r7, #8
 1557              	.LVL253:
 1558              	.L84:
 1559 01bc BE45     		cmp	lr, r7
 1560 01be F9DC     		bgt	.L97
 1561              	.LBE137:
 1562              	.LBE131:
ARM GAS  C:\Users\rdn\AppData\Local\Temp\cc5zc0m9.s 			page 45


 1563              	.LBE130:
 832:..\..\..\liblc3\src/ltpf.c ****     synthesize_template(xh, nh, lag, x0, x, n, c, 8, fade);
 833:..\..\..\liblc3\src/ltpf.c **** }
 1564              		.loc 1 833 0
 1565 01c0 19B0     		add	sp, sp, #100
 1566              		.cfi_def_cfa_offset 28
 1567              		@ sp needed
 1568 01c2 BDE8F083 		pop	{r4, r5, r6, r7, r8, r9, pc}
 1569              	.LVL254:
 1570              	.L100:
 1571 01c6 00BF     		.align	2
 1572              	.L99:
 1573 01c8 00000000 		.word	0
 1574 01cc 07000080 		.word	-2147483641
 1575              		.cfi_endproc
 1576              	.LFE42:
 1577              		.size	synthesize_8, .-synthesize_8
 1578              		.section	.text.detect_pitch,"ax",%progbits
 1579              		.align	2
 1580              		.thumb
 1581              		.thumb_func
 1582              		.type	detect_pitch, %function
 1583              	detect_pitch:
 1584              	.LFB36:
 584:..\..\..\liblc3\src/ltpf.c ****     float rm1, rm2;
 1585              		.loc 1 584 0
 1586              		.cfi_startproc
 1587              		@ args = 0, pretend = 0, frame = 408
 1588              		@ frame_needed = 0, uses_anonymous_args = 0
 1589              	.LVL255:
 1590 0000 2DE9F04F 		push	{r4, r5, r6, r7, r8, r9, r10, fp, lr}
 1591              		.cfi_def_cfa_offset 36
 1592              		.cfi_offset 4, -36
 1593              		.cfi_offset 5, -32
 1594              		.cfi_offset 6, -28
 1595              		.cfi_offset 7, -24
 1596              		.cfi_offset 8, -20
 1597              		.cfi_offset 9, -16
 1598              		.cfi_offset 10, -12
 1599              		.cfi_offset 11, -8
 1600              		.cfi_offset 14, -4
 1601 0004 2DED028B 		vpush.64	{d8}
 1602              		.cfi_def_cfa_offset 44
 1603              		.cfi_offset 80, -44
 1604              		.cfi_offset 81, -40
 1605 0008 E9B0     		sub	sp, sp, #420
 1606              		.cfi_def_cfa_offset 464
 1607 000a 8046     		mov	r8, r0
 1608 000c 0C46     		mov	r4, r1
 1609 000e 1646     		mov	r6, r2
 1610 0010 0293     		str	r3, [sp, #8]
 1611              	.LVL256:
 589:..\..\..\liblc3\src/ltpf.c ****     int nk = LC3_MIN(nr-1, ltpf->tc+4) - k0 + 1;
 1612              		.loc 1 589 0
 1613 0012 D0F88434 		ldr	r3, [r0, #1156]
 1614              	.LVL257:
 1615 0016 1F1F     		subs	r7, r3, #4
ARM GAS  C:\Users\rdn\AppData\Local\Temp\cc5zc0m9.s 			page 46


 1616 0018 27EAE777 		bic	r7, r7, r7, asr #31
 1617              	.LVL258:
 590:..\..\..\liblc3\src/ltpf.c **** 
 1618              		.loc 1 590 0
 1619 001c 1D1D     		adds	r5, r3, #4
 1620 001e 612D     		cmp	r5, #97
 1621 0020 D4BF     		ite	le
 1622 0022 C7EB0505 		rsble	r5, r7, r5
 1623 0026 C7F16105 		rsbgt	r5, r7, #97
 1624 002a 0135     		adds	r5, r5, #1
 1625              	.LVL259:
 592:..\..\..\liblc3\src/ltpf.c **** 
 1626              		.loc 1 592 0
 1627 002c 4FF06209 		mov	r9, #98
 1628 0030 CDF80090 		str	r9, [sp]
 1629 0034 04AB     		add	r3, sp, #16
 1630 0036 2239     		subs	r1, r1, #34
 1631              	.LVL260:
 1632 0038 2046     		mov	r0, r4
 1633              	.LVL261:
 1634 003a FFF7FEFF 		bl	correlate
 1635              	.LVL262:
 594:..\..\..\liblc3\src/ltpf.c ****     int t2 = k0 + argmax(r + k0, nk, &rm2);
 1636              		.loc 1 594 0
 1637 003e 67AA     		add	r2, sp, #412
 1638 0040 9FED8D0A 		vldr.32	s0, .L135
 1639 0044 4946     		mov	r1, r9
 1640 0046 04A8     		add	r0, sp, #16
 1641 0048 FFF7FEFF 		bl	argmax_weighted
 1642              	.LVL263:
 1643 004c 8146     		mov	r9, r0
 1644 004e 0390     		str	r0, [sp, #12]
 1645              	.LVL264:
 595:..\..\..\liblc3\src/ltpf.c **** 
 1646              		.loc 1 595 0
 1647 0050 66AA     		add	r2, sp, #408
 1648 0052 2946     		mov	r1, r5
 1649 0054 04AB     		add	r3, sp, #16
 1650 0056 03EB8700 		add	r0, r3, r7, lsl #2
 1651              	.LVL265:
 1652 005a FFF7FEFF 		bl	argmax
 1653              	.LVL266:
 1654 005e 0744     		add	r7, r7, r0
 1655              	.LVL267:
 597:..\..\..\liblc3\src/ltpf.c ****     const int16_t *x2 = x - (r0 + t2);
 1656              		.loc 1 597 0
 1657 0060 09F11102 		add	r2, r9, #17
 1658 0064 A4EB4202 		sub	r2, r4, r2, lsl #1
 1659              	.LVL268:
 598:..\..\..\liblc3\src/ltpf.c **** 
 1660              		.loc 1 598 0
 1661 0068 07F11105 		add	r5, r7, #17
 1662              	.LVL269:
 1663 006c A4EB4505 		sub	r5, r4, r5, lsl #1
 1664              	.LVL270:
 600:..\..\..\liblc3\src/ltpf.c ****         rm1 / sqrtf(dot(x, x, n) * dot(x1, x1, n));
 1665              		.loc 1 600 0
ARM GAS  C:\Users\rdn\AppData\Local\Temp\cc5zc0m9.s 			page 47


 1666 0070 9DED678A 		vldr.32	s16, [sp, #412]
 1667 0074 B5EEC08A 		vcmpe.f32	s16, #0
 1668 0078 F1EE10FA 		vmrs	APSR_nzcv, FPSCR
 1669 007c 65D9     		bls	.L123
 1670 007e A146     		mov	r9, r4
 1671              	.LVL271:
 1672 0080 A446     		mov	ip, r4
 1673 0082 4FF0000A 		mov	r10, #0
 1674 0086 0020     		movs	r0, #0
 1675 0088 0021     		movs	r1, #0
 1676 008a 16E0     		b	.L103
 1677              	.LVL272:
 1678              	.L104:
 1679              	.LBB144:
 1680              	.LBB145:
 1681              	.LBB146:
 1682              	.LBB147:
 444:..\..\..\liblc3\src/ltpf.c **** 
 1683              		.loc 1 444 0
 1684 008c BCF900E0 		ldrsh	lr, [ip]
 1685              	.LVL273:
 1686 0090 B9F90030 		ldrsh	r3, [r9]
 1687 0094 03FB0EF3 		mul	r3, r3, lr
 1688 0098 C018     		adds	r0, r0, r3
 1689              	.LVL274:
 1690 009a 41EBE371 		adc	r1, r1, r3, asr #31
 1691              	.LVL275:
 443:..\..\..\liblc3\src/ltpf.c ****             v += *(a++) * *(b++);
 1692              		.loc 1 443 0
 1693 009e 0BF1010B 		add	fp, fp, #1
 1694              	.LVL276:
 444:..\..\..\liblc3\src/ltpf.c **** 
 1695              		.loc 1 444 0
 1696 00a2 09F10209 		add	r9, r9, #2
 1697              	.LVL277:
 1698 00a6 0CF1020C 		add	ip, ip, #2
 1699              	.LVL278:
 1700 00aa 01E0     		b	.L105
 1701              	.LVL279:
 1702              	.L124:
 1703              	.LBE147:
 442:..\..\..\liblc3\src/ltpf.c ****         for (int j = 0; j < 16; j++)
 1704              		.loc 1 442 0
 1705 00ac 4FF0000B 		mov	fp, #0
 1706              	.L105:
 1707              	.LVL280:
 1708              	.LBB148:
 443:..\..\..\liblc3\src/ltpf.c ****             v += *(a++) * *(b++);
 1709              		.loc 1 443 0
 1710 00b0 BBF10F0F 		cmp	fp, #15
 1711 00b4 EADD     		ble	.L104
 1712              	.LBE148:
 442:..\..\..\liblc3\src/ltpf.c ****         for (int j = 0; j < 16; j++)
 1713              		.loc 1 442 0
 1714 00b6 0AF1010A 		add	r10, r10, #1
 1715              	.LVL281:
 1716              	.L103:
ARM GAS  C:\Users\rdn\AppData\Local\Temp\cc5zc0m9.s 			page 48


 1717 00ba 4FEA261E 		asr	lr, r6, #4
 1718 00be F245     		cmp	r10, lr
 1719 00c0 F4DB     		blt	.L124
 1720              	.LBE146:
 446:..\..\..\liblc3\src/ltpf.c ****     return (float)v32;
 1721              		.loc 1 446 0
 1722 00c2 2030     		adds	r0, r0, #32
 1723              	.LVL282:
 1724 00c4 41F10001 		adc	r1, r1, #0
 1725 00c8 8309     		lsrs	r3, r0, #6
 1726 00ca 43EA8163 		orr	r3, r3, r1, lsl #26
 1727              	.LVL283:
 447:..\..\..\liblc3\src/ltpf.c **** }
 1728              		.loc 1 447 0
 1729 00ce 07EE903A 		vmov	s15, r3	@ int
 1730 00d2 F8EEE77A 		vcvt.f32.s32	s15, s15
 1731              	.LVL284:
 1732 00d6 9246     		mov	r10, r2
 1733              	.LBE145:
 1734              	.LBE144:
 1735              	.LBB149:
 1736              	.LBB150:
 1737              	.LBB151:
 442:..\..\..\liblc3\src/ltpf.c ****         for (int j = 0; j < 16; j++)
 1738              		.loc 1 442 0
 1739 00d8 4FF0000B 		mov	fp, #0
 1740              	.LBE151:
 440:..\..\..\liblc3\src/ltpf.c **** 
 1741              		.loc 1 440 0
 1742 00dc 0020     		movs	r0, #0
 1743 00de 0021     		movs	r1, #0
 1744 00e0 15E0     		b	.L106
 1745              	.LVL285:
 1746              	.L107:
 1747              	.LBB154:
 1748              	.LBB152:
 444:..\..\..\liblc3\src/ltpf.c **** 
 1749              		.loc 1 444 0
 1750 00e2 B2F900C0 		ldrsh	ip, [r2]
 1751              	.LVL286:
 1752 00e6 BAF90030 		ldrsh	r3, [r10]
 1753 00ea 03FB0CF3 		mul	r3, r3, ip
 1754 00ee C018     		adds	r0, r0, r3
 1755              	.LVL287:
 1756 00f0 41EBE371 		adc	r1, r1, r3, asr #31
 1757              	.LVL288:
 443:..\..\..\liblc3\src/ltpf.c ****             v += *(a++) * *(b++);
 1758              		.loc 1 443 0
 1759 00f4 09F10109 		add	r9, r9, #1
 1760              	.LVL289:
 444:..\..\..\liblc3\src/ltpf.c **** 
 1761              		.loc 1 444 0
 1762 00f8 0AF1020A 		add	r10, r10, #2
 1763              	.LVL290:
 1764 00fc 0232     		adds	r2, r2, #2
 1765              	.LVL291:
 1766 00fe 01E0     		b	.L108
ARM GAS  C:\Users\rdn\AppData\Local\Temp\cc5zc0m9.s 			page 49


 1767              	.LVL292:
 1768              	.L125:
 1769              	.LBE152:
 442:..\..\..\liblc3\src/ltpf.c ****         for (int j = 0; j < 16; j++)
 1770              		.loc 1 442 0
 1771 0100 4FF00009 		mov	r9, #0
 1772              	.L108:
 1773              	.LVL293:
 1774              	.LBB153:
 443:..\..\..\liblc3\src/ltpf.c ****             v += *(a++) * *(b++);
 1775              		.loc 1 443 0
 1776 0104 B9F10F0F 		cmp	r9, #15
 1777 0108 EBDD     		ble	.L107
 1778              	.LBE153:
 442:..\..\..\liblc3\src/ltpf.c ****         for (int j = 0; j < 16; j++)
 1779              		.loc 1 442 0
 1780 010a 0BF1010B 		add	fp, fp, #1
 1781              	.LVL294:
 1782              	.L106:
 1783 010e F345     		cmp	fp, lr
 1784 0110 F6DB     		blt	.L125
 1785              	.LBE154:
 446:..\..\..\liblc3\src/ltpf.c ****     return (float)v32;
 1786              		.loc 1 446 0
 1787 0112 2030     		adds	r0, r0, #32
 1788              	.LVL295:
 1789 0114 41F10001 		adc	r1, r1, #0
 1790 0118 8309     		lsrs	r3, r0, #6
 1791 011a 43EA8163 		orr	r3, r3, r1, lsl #26
 1792              	.LVL296:
 447:..\..\..\liblc3\src/ltpf.c **** }
 1793              		.loc 1 447 0
 1794 011e 07EE103A 		vmov	s14, r3	@ int
 1795 0122 B8EEC77A 		vcvt.f32.s32	s14, s14
 1796              	.LVL297:
 1797              	.LBE150:
 1798              	.LBE149:
 601:..\..\..\liblc3\src/ltpf.c **** 
 1799              		.loc 1 601 0
 1800 0126 27EE276A 		vmul.f32	s12, s14, s15
 1801 012a F1EEC66A 		vsqrt.f32	s13, s12
 1802 012e F4EE666A 		vcmp.f32	s13, s13
 1803 0132 F1EE10FA 		vmrs	APSR_nzcv, FPSCR
 1804 0136 05D0     		beq	.L109
 1805 0138 16EE100A 		vmov	r0, s12
 1806 013c FFF7FEFF 		bl	sqrtf
 1807              	.LVL298:
 1808 0140 06EE900A 		vmov	s13, r0
 1809              	.L109:
 600:..\..\..\liblc3\src/ltpf.c ****         rm1 / sqrtf(dot(x, x, n) * dot(x1, x1, n));
 1810              		.loc 1 600 0
 1811 0144 C8EE268A 		vdiv.f32	s17, s16, s13
 1812 0148 01E0     		b	.L102
 1813              	.LVL299:
 1814              	.L123:
 1815 014a DFED4C8A 		vldr.32	s17, .L135+4
 1816              	.LVL300:
ARM GAS  C:\Users\rdn\AppData\Local\Temp\cc5zc0m9.s 			page 50


 1817              	.L102:
 603:..\..\..\liblc3\src/ltpf.c ****         rm2 / sqrtf(dot(x, x, n) * dot(x2, x2, n));
 1818              		.loc 1 603 0 discriminator 4
 1819 014e 9DED668A 		vldr.32	s16, [sp, #408]
 1820 0152 B5EEC08A 		vcmpe.f32	s16, #0
 1821 0156 F1EE10FA 		vmrs	APSR_nzcv, FPSCR
 1822 015a 5ED9     		bls	.L126
 1823 015c 2046     		mov	r0, r4
 1824 015e 4FF0000C 		mov	ip, #0
 1825 0162 0022     		movs	r2, #0
 1826 0164 0023     		movs	r3, #0
 1827 0166 14E0     		b	.L111
 1828              	.LVL301:
 1829              	.L112:
 1830              	.LBB155:
 1831              	.LBB156:
 1832              	.LBB157:
 1833              	.LBB158:
 444:..\..\..\liblc3\src/ltpf.c **** 
 1834              		.loc 1 444 0
 1835 0168 B4F90090 		ldrsh	r9, [r4]
 1836              	.LVL302:
 1837 016c B0F90010 		ldrsh	r1, [r0]
 1838 0170 01FB09F1 		mul	r1, r1, r9
 1839 0174 5218     		adds	r2, r2, r1
 1840              	.LVL303:
 1841 0176 43EBE173 		adc	r3, r3, r1, asr #31
 1842              	.LVL304:
 443:..\..\..\liblc3\src/ltpf.c ****             v += *(a++) * *(b++);
 1843              		.loc 1 443 0
 1844 017a 0EF1010E 		add	lr, lr, #1
 1845              	.LVL305:
 444:..\..\..\liblc3\src/ltpf.c **** 
 1846              		.loc 1 444 0
 1847 017e 0230     		adds	r0, r0, #2
 1848              	.LVL306:
 1849 0180 0234     		adds	r4, r4, #2
 1850              	.LVL307:
 1851 0182 01E0     		b	.L113
 1852              	.LVL308:
 1853              	.L127:
 1854              	.LBE158:
 442:..\..\..\liblc3\src/ltpf.c ****         for (int j = 0; j < 16; j++)
 1855              		.loc 1 442 0
 1856 0184 4FF0000E 		mov	lr, #0
 1857              	.L113:
 1858              	.LVL309:
 1859              	.LBB159:
 443:..\..\..\liblc3\src/ltpf.c ****             v += *(a++) * *(b++);
 1860              		.loc 1 443 0
 1861 0188 BEF10F0F 		cmp	lr, #15
 1862 018c ECDD     		ble	.L112
 1863              	.LBE159:
 442:..\..\..\liblc3\src/ltpf.c ****         for (int j = 0; j < 16; j++)
 1864              		.loc 1 442 0
 1865 018e 0CF1010C 		add	ip, ip, #1
 1866              	.LVL310:
ARM GAS  C:\Users\rdn\AppData\Local\Temp\cc5zc0m9.s 			page 51


 1867              	.L111:
 1868 0192 4FEA261E 		asr	lr, r6, #4
 1869 0196 F445     		cmp	ip, lr
 1870 0198 F4DB     		blt	.L127
 1871              	.LBE157:
 446:..\..\..\liblc3\src/ltpf.c ****     return (float)v32;
 1872              		.loc 1 446 0
 1873 019a 2032     		adds	r2, r2, #32
 1874              	.LVL311:
 1875 019c 43F10003 		adc	r3, r3, #0
 1876 01a0 9209     		lsrs	r2, r2, #6
 1877 01a2 42EA8362 		orr	r2, r2, r3, lsl #26
 1878              	.LVL312:
 447:..\..\..\liblc3\src/ltpf.c **** }
 1879              		.loc 1 447 0
 1880 01a6 07EE902A 		vmov	s15, r2	@ int
 1881 01aa F8EEE77A 		vcvt.f32.s32	s15, s15
 1882              	.LVL313:
 1883 01ae 2E46     		mov	r6, r5
 1884              	.LVL314:
 1885              	.LBE156:
 1886              	.LBE155:
 1887              	.LBB160:
 1888              	.LBB161:
 1889              	.LBB162:
 442:..\..\..\liblc3\src/ltpf.c ****         for (int j = 0; j < 16; j++)
 1890              		.loc 1 442 0
 1891 01b0 4FF0000C 		mov	ip, #0
 1892              	.LBE162:
 440:..\..\..\liblc3\src/ltpf.c **** 
 1893              		.loc 1 440 0
 1894 01b4 0020     		movs	r0, #0
 1895 01b6 0021     		movs	r1, #0
 1896 01b8 11E0     		b	.L114
 1897              	.LVL315:
 1898              	.L115:
 1899              	.LBB165:
 1900              	.LBB163:
 444:..\..\..\liblc3\src/ltpf.c **** 
 1901              		.loc 1 444 0
 1902 01ba B5F90040 		ldrsh	r4, [r5]
 1903              	.LVL316:
 1904 01be B6F90030 		ldrsh	r3, [r6]
 1905 01c2 03FB04F3 		mul	r3, r3, r4
 1906 01c6 C018     		adds	r0, r0, r3
 1907              	.LVL317:
 1908 01c8 41EBE371 		adc	r1, r1, r3, asr #31
 1909              	.LVL318:
 443:..\..\..\liblc3\src/ltpf.c ****             v += *(a++) * *(b++);
 1910              		.loc 1 443 0
 1911 01cc 0132     		adds	r2, r2, #1
 1912              	.LVL319:
 444:..\..\..\liblc3\src/ltpf.c **** 
 1913              		.loc 1 444 0
 1914 01ce 0236     		adds	r6, r6, #2
 1915              	.LVL320:
 1916 01d0 0235     		adds	r5, r5, #2
ARM GAS  C:\Users\rdn\AppData\Local\Temp\cc5zc0m9.s 			page 52


 1917              	.LVL321:
 1918 01d2 00E0     		b	.L116
 1919              	.LVL322:
 1920              	.L128:
 1921              	.LBE163:
 442:..\..\..\liblc3\src/ltpf.c ****         for (int j = 0; j < 16; j++)
 1922              		.loc 1 442 0
 1923 01d4 0022     		movs	r2, #0
 1924              	.L116:
 1925              	.LVL323:
 1926              	.LBB164:
 443:..\..\..\liblc3\src/ltpf.c ****             v += *(a++) * *(b++);
 1927              		.loc 1 443 0
 1928 01d6 0F2A     		cmp	r2, #15
 1929 01d8 EFDD     		ble	.L115
 1930              	.LBE164:
 442:..\..\..\liblc3\src/ltpf.c ****         for (int j = 0; j < 16; j++)
 1931              		.loc 1 442 0
 1932 01da 0CF1010C 		add	ip, ip, #1
 1933              	.LVL324:
 1934              	.L114:
 1935 01de F445     		cmp	ip, lr
 1936 01e0 F8DB     		blt	.L128
 1937              	.LBE165:
 446:..\..\..\liblc3\src/ltpf.c ****     return (float)v32;
 1938              		.loc 1 446 0
 1939 01e2 2030     		adds	r0, r0, #32
 1940              	.LVL325:
 1941 01e4 41F10001 		adc	r1, r1, #0
 1942 01e8 8309     		lsrs	r3, r0, #6
 1943 01ea 43EA8163 		orr	r3, r3, r1, lsl #26
 1944              	.LVL326:
 447:..\..\..\liblc3\src/ltpf.c **** }
 1945              		.loc 1 447 0
 1946 01ee 07EE103A 		vmov	s14, r3	@ int
 1947 01f2 B8EEC77A 		vcvt.f32.s32	s14, s14
 1948              	.LVL327:
 1949              	.LBE161:
 1950              	.LBE160:
 604:..\..\..\liblc3\src/ltpf.c **** 
 1951              		.loc 1 604 0
 1952 01f6 27EE276A 		vmul.f32	s12, s14, s15
 1953 01fa F1EEC66A 		vsqrt.f32	s13, s12
 1954 01fe F4EE666A 		vcmp.f32	s13, s13
 1955 0202 F1EE10FA 		vmrs	APSR_nzcv, FPSCR
 1956 0206 05D0     		beq	.L117
 1957 0208 16EE100A 		vmov	r0, s12
 1958 020c FFF7FEFF 		bl	sqrtf
 1959              	.LVL328:
 1960 0210 06EE900A 		vmov	s13, r0
 1961              	.L117:
 603:..\..\..\liblc3\src/ltpf.c ****         rm2 / sqrtf(dot(x, x, n) * dot(x2, x2, n));
 1962              		.loc 1 603 0
 1963 0214 88EE267A 		vdiv.f32	s14, s16, s13
 1964 0218 01E0     		b	.L110
 1965              	.LVL329:
 1966              	.L126:
ARM GAS  C:\Users\rdn\AppData\Local\Temp\cc5zc0m9.s 			page 53


 1967 021a 9FED187A 		vldr.32	s14, .L135+4
 1968              	.LVL330:
 1969              	.L110:
 606:..\..\..\liblc3\src/ltpf.c ****     ltpf->tc = (t1sel ? t1 : t2);
 1970              		.loc 1 606 0 discriminator 4
 1971 021e DFED187A 		vldr.32	s15, .L135+8
 1972 0222 68EEA77A 		vmul.f32	s15, s17, s15
 1973              	.LVL331:
 607:..\..\..\liblc3\src/ltpf.c **** 
 1974              		.loc 1 607 0 discriminator 4
 1975 0226 B4EEE77A 		vcmpe.f32	s14, s15
 1976 022a F1EE10FA 		vmrs	APSR_nzcv, FPSCR
 1977 022e 00D8     		bhi	.L118
 607:..\..\..\liblc3\src/ltpf.c **** 
 1978              		.loc 1 607 0 is_stmt 0
 1979 0230 039F     		ldr	r7, [sp, #12]
 1980              	.LVL332:
 1981              	.L118:
 607:..\..\..\liblc3\src/ltpf.c **** 
 1982              		.loc 1 607 0 discriminator 4
 1983 0232 C8F88474 		str	r7, [r8, #1156]
 609:..\..\..\liblc3\src/ltpf.c ****     return (t1sel ? nc1 : nc2) > 0.6f;
 1984              		.loc 1 609 0 is_stmt 1 discriminator 4
 1985 0236 1137     		adds	r7, r7, #17
 1986 0238 029B     		ldr	r3, [sp, #8]
 1987 023a 1F60     		str	r7, [r3]
 610:..\..\..\liblc3\src/ltpf.c **** }
 1988              		.loc 1 610 0 discriminator 4
 1989 023c B4EEE77A 		vcmpe.f32	s14, s15
 1990 0240 F1EE10FA 		vmrs	APSR_nzcv, FPSCR
 1991 0244 09D8     		bhi	.L133
 610:..\..\..\liblc3\src/ltpf.c **** }
 1992              		.loc 1 610 0 is_stmt 0 discriminator 1
 1993 0246 DFED0F7A 		vldr.32	s15, .L135+12
 1994              	.LVL333:
 1995 024a F4EEE78A 		vcmpe.f32	s17, s15
 1996 024e F1EE10FA 		vmrs	APSR_nzcv, FPSCR
 1997 0252 CCBF     		ite	gt
 1998 0254 0120     		movgt	r0, #1
 1999 0256 0020     		movle	r0, #0
 2000 0258 08E0     		b	.L122
 2001              	.LVL334:
 2002              	.L133:
 610:..\..\..\liblc3\src/ltpf.c **** }
 2003              		.loc 1 610 0 discriminator 2
 2004 025a DFED0A7A 		vldr.32	s15, .L135+12
 2005              	.LVL335:
 2006 025e B4EEE77A 		vcmpe.f32	s14, s15
 2007 0262 F1EE10FA 		vmrs	APSR_nzcv, FPSCR
 2008 0266 CCBF     		ite	gt
 2009 0268 0120     		movgt	r0, #1
 2010 026a 0020     		movle	r0, #0
 2011              	.L122:
 611:..\..\..\liblc3\src/ltpf.c **** 
 2012              		.loc 1 611 0 is_stmt 1 discriminator 4
 2013 026c 69B0     		add	sp, sp, #420
 2014              		.cfi_def_cfa_offset 44
ARM GAS  C:\Users\rdn\AppData\Local\Temp\cc5zc0m9.s 			page 54


 2015              		@ sp needed
 2016 026e BDEC028B 		vldm	sp!, {d8}
 2017              		.cfi_restore 80
 2018              		.cfi_restore 81
 2019              		.cfi_def_cfa_offset 36
 2020 0272 BDE8F08F 		pop	{r4, r5, r6, r7, r8, r9, r10, fp, pc}
 2021              	.LVL336:
 2022              	.L136:
 2023 0276 00BF     		.align	2
 2024              	.L135:
 2025 0278 3FE8A8BB 		.word	-1146558401
 2026 027c 00000000 		.word	0
 2027 0280 9A99593F 		.word	1062836634
 2028 0284 9A99193F 		.word	1058642330
 2029              		.cfi_endproc
 2030              	.LFE36:
 2031              		.size	detect_pitch, .-detect_pitch
 2032              		.section	.text.resample_16k_12k8,"ax",%progbits
 2033              		.align	2
 2034              		.thumb
 2035              		.thumb_func
 2036              		.type	resample_16k_12k8, %function
 2037              	resample_16k_12k8:
 2038              	.LFB24:
 321:..\..\..\liblc3\src/ltpf.c ****     resample_x64k_12k8(4, h_16k_12k8_q15, hp50, x, y, n);
 2039              		.loc 1 321 0
 2040              		.cfi_startproc
 2041              		@ args = 0, pretend = 0, frame = 8
 2042              		@ frame_needed = 0, uses_anonymous_args = 0
 2043              	.LVL337:
 2044 0000 2DE9F04F 		push	{r4, r5, r6, r7, r8, r9, r10, fp, lr}
 2045              		.cfi_def_cfa_offset 36
 2046              		.cfi_offset 4, -36
 2047              		.cfi_offset 5, -32
 2048              		.cfi_offset 6, -28
 2049              		.cfi_offset 7, -24
 2050              		.cfi_offset 8, -20
 2051              		.cfi_offset 9, -16
 2052              		.cfi_offset 10, -12
 2053              		.cfi_offset 11, -8
 2054              		.cfi_offset 14, -4
 2055 0004 83B0     		sub	sp, sp, #12
 2056              		.cfi_def_cfa_offset 48
 2057 0006 0191     		str	r1, [sp, #4]
 2058 0008 9E46     		mov	lr, r3
 2059              	.LVL338:
 2060              	.LBB173:
 2061              	.LBB174:
 218:..\..\..\liblc3\src/ltpf.c **** 
 2062              		.loc 1 218 0
 2063 000a 6FF0250C 		mvn	ip, #37
 2064              	.LVL339:
 2065              	.LBB175:
 220:..\..\..\liblc3\src/ltpf.c ****         const int16_t *hn = h + (i % p) * w;
 2066              		.loc 1 220 0
 2067 000e 0021     		movs	r1, #0
 2068              	.LVL340:
ARM GAS  C:\Users\rdn\AppData\Local\Temp\cc5zc0m9.s 			page 55


 2069 0010 99E0     		b	.L138
 2070              	.LVL341:
 2071              	.L143:
 2072              	.LBB176:
 221:..\..\..\liblc3\src/ltpf.c ****         const int16_t *xn = x + (i / p);
 2073              		.loc 1 221 0
 2074 0012 514B     		ldr	r3, .L145
 2075 0014 0B40     		ands	r3, r1, r3
 2076 0016 03D5     		bpl	.L139
 2077 0018 013B     		subs	r3, r3, #1
 2078 001a 63F00303 		orn	r3, r3, #3
 2079 001e 0133     		adds	r3, r3, #1
 2080              	.L139:
 2081 0020 03EB8303 		add	r3, r3, r3, lsl #2
 2082 0024 9C00     		lsls	r4, r3, #2
 2083 0026 4D4B     		ldr	r3, .L145+4
 2084 0028 03EB4408 		add	r8, r3, r4, lsl #1
 2085              	.LVL342:
 222:..\..\..\liblc3\src/ltpf.c ****         int32_t un = 0;
 2086              		.loc 1 222 0
 2087 002c 0F46     		mov	r7, r1
 2088 002e 0029     		cmp	r1, #0
 2089 0030 00DA     		bge	.L140
 2090 0032 CF1C     		adds	r7, r1, #3
 2091              	.L140:
 2092 0034 BF10     		asrs	r7, r7, #2
 2093 0036 0CEB4707 		add	r7, ip, r7, lsl #1
 2094 003a 019B     		ldr	r3, [sp, #4]
 2095 003c 1F44     		add	r7, r7, r3
 2096              	.LVL343:
 2097              	.LBB177:
 225:..\..\..\liblc3\src/ltpf.c ****             un += *(xn++) * *(hn++);
 2098              		.loc 1 225 0
 2099 003e 4FF00009 		mov	r9, #0
 2100              	.LBE177:
 223:..\..\..\liblc3\src/ltpf.c **** 
 2101              		.loc 1 223 0
 2102 0042 4D46     		mov	r5, r9
 2103 0044 40E0     		b	.L141
 2104              	.LVL344:
 2105              	.L142:
 2106              	.LBB178:
 226:..\..\..\liblc3\src/ltpf.c ****             un += *(xn++) * *(hn++);
 2107              		.loc 1 226 0
 2108 0046 B7F90030 		ldrsh	r3, [r7]
 2109              	.LVL345:
 2110 004a B8F90040 		ldrsh	r4, [r8]
 2111 004e 04FB0355 		mla	r5, r4, r3, r5
 2112              	.LVL346:
 227:..\..\..\liblc3\src/ltpf.c ****             un += *(xn++) * *(hn++);
 2113              		.loc 1 227 0
 2114 0052 B7F90230 		ldrsh	r3, [r7, #2]
 2115              	.LVL347:
 2116 0056 B8F90240 		ldrsh	r4, [r8, #2]
 2117 005a 04FB0355 		mla	r5, r4, r3, r5
 2118              	.LVL348:
 228:..\..\..\liblc3\src/ltpf.c ****             un += *(xn++) * *(hn++);
ARM GAS  C:\Users\rdn\AppData\Local\Temp\cc5zc0m9.s 			page 56


 2119              		.loc 1 228 0
 2120 005e B7F90430 		ldrsh	r3, [r7, #4]
 2121              	.LVL349:
 2122 0062 B8F90440 		ldrsh	r4, [r8, #4]
 2123 0066 04FB0355 		mla	r5, r4, r3, r5
 2124              	.LVL350:
 229:..\..\..\liblc3\src/ltpf.c ****             un += *(xn++) * *(hn++);
 2125              		.loc 1 229 0
 2126 006a B7F90630 		ldrsh	r3, [r7, #6]
 2127              	.LVL351:
 2128 006e B8F90640 		ldrsh	r4, [r8, #6]
 2129 0072 04FB0354 		mla	r4, r4, r3, r5
 2130              	.LVL352:
 230:..\..\..\liblc3\src/ltpf.c ****             un += *(xn++) * *(hn++);
 2131              		.loc 1 230 0
 2132 0076 B7F90830 		ldrsh	r3, [r7, #8]
 2133              	.LVL353:
 2134 007a B8F90850 		ldrsh	r5, [r8, #8]
 2135 007e 05FB0344 		mla	r4, r5, r3, r4
 2136              	.LVL354:
 231:..\..\..\liblc3\src/ltpf.c ****             un += *(xn++) * *(hn++);
 2137              		.loc 1 231 0
 2138 0082 B7F90A30 		ldrsh	r3, [r7, #10]
 2139              	.LVL355:
 2140 0086 B8F90A50 		ldrsh	r5, [r8, #10]
 2141 008a 05FB0344 		mla	r4, r5, r3, r4
 2142              	.LVL356:
 232:..\..\..\liblc3\src/ltpf.c ****             un += *(xn++) * *(hn++);
 2143              		.loc 1 232 0
 2144 008e B7F90C30 		ldrsh	r3, [r7, #12]
 2145              	.LVL357:
 2146 0092 B8F90C50 		ldrsh	r5, [r8, #12]
 2147 0096 05FB0344 		mla	r4, r5, r3, r4
 2148              	.LVL358:
 233:..\..\..\liblc3\src/ltpf.c ****             un += *(xn++) * *(hn++);
 2149              		.loc 1 233 0
 2150 009a B7F90E30 		ldrsh	r3, [r7, #14]
 2151              	.LVL359:
 2152 009e B8F90E50 		ldrsh	r5, [r8, #14]
 2153 00a2 05FB0345 		mla	r5, r5, r3, r4
 2154              	.LVL360:
 234:..\..\..\liblc3\src/ltpf.c ****             un += *(xn++) * *(hn++);
 2155              		.loc 1 234 0
 2156 00a6 B7F91030 		ldrsh	r3, [r7, #16]
 2157              	.LVL361:
 2158 00aa B8F91040 		ldrsh	r4, [r8, #16]
 2159 00ae 04FB0354 		mla	r4, r4, r3, r5
 2160              	.LVL362:
 235:..\..\..\liblc3\src/ltpf.c ****         }
 2161              		.loc 1 235 0
 2162 00b2 B7F91230 		ldrsh	r3, [r7, #18]
 2163              	.LVL363:
 2164 00b6 B8F91250 		ldrsh	r5, [r8, #18]
 2165 00ba 05FB0345 		mla	r5, r5, r3, r4
 2166              	.LVL364:
 225:..\..\..\liblc3\src/ltpf.c ****             un += *(xn++) * *(hn++);
 2167              		.loc 1 225 0
ARM GAS  C:\Users\rdn\AppData\Local\Temp\cc5zc0m9.s 			page 57


 2168 00be 09F10A09 		add	r9, r9, #10
 2169              	.LVL365:
 235:..\..\..\liblc3\src/ltpf.c ****         }
 2170              		.loc 1 235 0
 2171 00c2 1437     		adds	r7, r7, #20
 2172              	.LVL366:
 2173 00c4 08F11408 		add	r8, r8, #20
 2174              	.LVL367:
 2175              	.L141:
 225:..\..\..\liblc3\src/ltpf.c ****             un += *(xn++) * *(hn++);
 2176              		.loc 1 225 0
 2177 00c8 B9F1130F 		cmp	r9, #19
 2178 00cc BBDD     		ble	.L142
 2179              	.LVL368:
 2180              	.LBE178:
 2181              	.LBB179:
 2182              	.LBB180:
 192:..\..\..\liblc3\src/ltpf.c ****     hp50->s1 = (hp50->s2 + (int64_t)xn * b1 - (int64_t)yn * a1);
 2183              		.loc 1 192 0
 2184 00ce D0E90089 		ldrd	r8, [r0]
 2185              	.LVL369:
 2186 00d2 EF17     		asrs	r7, r5, #31
 2187              	.LVL370:
 2188 00d4 224B     		ldr	r3, .L145+8
 2189 00d6 A5FB03AB 		umull	r10, fp, r5, r3
 2190 00da 03FB07BB 		mla	fp, r3, r7, fp
 2191 00de 18EB0A08 		adds	r8, r8, r10
 2192 00e2 49EB0B09 		adc	r9, r9, fp
 2193              	.LVL371:
 2194 00e6 4FEA9873 		lsr	r3, r8, #30
 2195 00ea 43EA8903 		orr	r3, r3, r9, lsl #2
 2196              	.LVL372:
 193:..\..\..\liblc3\src/ltpf.c ****     hp50->s2 = (           (int64_t)xn * b2 - (int64_t)yn * a2);
 2197              		.loc 1 193 0
 2198 00ee D0E90289 		ldrd	r8, [r0, #8]
 2199 00f2 1C4C     		ldr	r4, .L145+12
 2200 00f4 6E42     		negs	r6, r5
 2201 00f6 04FB0766 		mla	r6, r4, r7, r6
 2202 00fa A5FB0445 		umull	r4, r5, r5, r4
 2203 00fe 3544     		add	r5, r5, r6
 2204              	.LVL373:
 2205 0100 18EB0408 		adds	r8, r8, r4
 2206 0104 49EB0509 		adc	r9, r9, r5
 2207 0108 DF17     		asrs	r7, r3, #31
 2208 010a 174E     		ldr	r6, .L145+16
 2209 010c A3FB0645 		umull	r4, r5, r3, r6
 2210 0110 06FB0755 		mla	r5, r6, r7, r5
 2211 0114 14EB0804 		adds	r4, r4, r8
 2212 0118 45EB0905 		adc	r5, r5, r9
 2213 011c C0E90045 		strd	r4, [r0]
 194:..\..\..\liblc3\src/ltpf.c **** 
 2214              		.loc 1 194 0
 2215 0120 124C     		ldr	r4, .L145+20
 2216 0122 5E42     		negs	r6, r3
 2217 0124 04FB0766 		mla	r6, r4, r7, r6
 2218 0128 A3FB0445 		umull	r4, r5, r3, r4
 2219 012c 3544     		add	r5, r5, r6
ARM GAS  C:\Users\rdn\AppData\Local\Temp\cc5zc0m9.s 			page 58


 2220 012e 14EB0A04 		adds	r4, r4, r10
 2221 0132 45EB0B05 		adc	r5, r5, fp
 2222 0136 C0E90245 		strd	r4, [r0, #8]
 2223              	.LVL374:
 2224              	.LBE180:
 2225              	.LBE179:
 239:..\..\..\liblc3\src/ltpf.c ****     }
 2226              		.loc 1 239 0
 2227 013a 03F50043 		add	r3, r3, #32768
 2228 013e 1B14     		asrs	r3, r3, #16
 2229 0140 1380     		strh	r3, [r2]	@ movhi
 2230              	.LBE176:
 220:..\..\..\liblc3\src/ltpf.c ****         const int16_t *hn = h + (i % p) * w;
 2231              		.loc 1 220 0
 2232 0142 0531     		adds	r1, r1, #5
 2233              	.LVL375:
 2234              	.LBB181:
 239:..\..\..\liblc3\src/ltpf.c ****     }
 2235              		.loc 1 239 0
 2236 0144 0232     		adds	r2, r2, #2
 2237              	.LVL376:
 2238              	.L138:
 2239              	.LBE181:
 220:..\..\..\liblc3\src/ltpf.c ****         const int16_t *hn = h + (i % p) * w;
 2240              		.loc 1 220 0
 2241 0146 0EEB8E03 		add	r3, lr, lr, lsl #2
 2242 014a 9942     		cmp	r1, r3
 2243 014c FFF661AF 		blt	.L143
 2244              	.LBE175:
 2245              	.LBE174:
 2246              	.LBE173:
 323:..\..\..\liblc3\src/ltpf.c **** #endif /* resample_16k_12k8 */
 2247              		.loc 1 323 0
 2248 0150 03B0     		add	sp, sp, #12
 2249              		.cfi_def_cfa_offset 36
 2250              		@ sp needed
 2251 0152 BDE8F08F 		pop	{r4, r5, r6, r7, r8, r9, r10, fp, pc}
 2252              	.LVL377:
 2253              	.L146:
 2254 0156 00BF     		.align	2
 2255              	.L145:
 2256 0158 03000080 		.word	-2147483645
 2257 015c 20030000 		.word	.LANCHOR0+800
 2258 0160 C61BE63E 		.word	1055267782
 2259 0164 72C83382 		.word	-2110535566
 2260 0168 DB5DC77D 		.word	2110217691
 2261 016c BFEE2EC2 		.word	-1037111617
 2262              		.cfi_endproc
 2263              	.LFE24:
 2264              		.size	resample_16k_12k8, .-resample_16k_12k8
 2265              		.section	.text.resample_32k_12k8,"ax",%progbits
 2266              		.align	2
 2267              		.thumb
 2268              		.thumb_func
 2269              		.type	resample_32k_12k8, %function
 2270              	resample_32k_12k8:
 2271              	.LFB25:
ARM GAS  C:\Users\rdn\AppData\Local\Temp\cc5zc0m9.s 			page 59


 337:..\..\..\liblc3\src/ltpf.c ****     resample_x64k_12k8(2, h_32k_12k8_q15, hp50, x, y, n);
 2272              		.loc 1 337 0
 2273              		.cfi_startproc
 2274              		@ args = 0, pretend = 0, frame = 8
 2275              		@ frame_needed = 0, uses_anonymous_args = 0
 2276              	.LVL378:
 2277 0000 2DE9F04F 		push	{r4, r5, r6, r7, r8, r9, r10, fp, lr}
 2278              		.cfi_def_cfa_offset 36
 2279              		.cfi_offset 4, -36
 2280              		.cfi_offset 5, -32
 2281              		.cfi_offset 6, -28
 2282              		.cfi_offset 7, -24
 2283              		.cfi_offset 8, -20
 2284              		.cfi_offset 9, -16
 2285              		.cfi_offset 10, -12
 2286              		.cfi_offset 11, -8
 2287              		.cfi_offset 14, -4
 2288 0004 83B0     		sub	sp, sp, #12
 2289              		.cfi_def_cfa_offset 48
 2290 0006 0191     		str	r1, [sp, #4]
 2291 0008 9E46     		mov	lr, r3
 2292              	.LVL379:
 2293              	.LBB189:
 2294              	.LBB190:
 218:..\..\..\liblc3\src/ltpf.c **** 
 2295              		.loc 1 218 0
 2296 000a 6FF04D0C 		mvn	ip, #77
 2297              	.LVL380:
 2298              	.LBB191:
 220:..\..\..\liblc3\src/ltpf.c ****         const int16_t *hn = h + (i % p) * w;
 2299              		.loc 1 220 0
 2300 000e 0021     		movs	r1, #0
 2301              	.LVL381:
 2302 0010 97E0     		b	.L148
 2303              	.LVL382:
 2304              	.L152:
 2305              	.LBB192:
 221:..\..\..\liblc3\src/ltpf.c ****         const int16_t *xn = x + (i / p);
 2306              		.loc 1 221 0
 2307 0012 504B     		ldr	r3, .L154
 2308 0014 0B40     		ands	r3, r1, r3
 2309 0016 03D5     		bpl	.L149
 2310 0018 013B     		subs	r3, r3, #1
 2311 001a 63F00103 		orn	r3, r3, #1
 2312 001e 0133     		adds	r3, r3, #1
 2313              	.L149:
 2314 0020 03EB8303 		add	r3, r3, r3, lsl #2
 2315 0024 DC00     		lsls	r4, r3, #3
 2316 0026 4C4B     		ldr	r3, .L154+4
 2317 0028 03EB4408 		add	r8, r3, r4, lsl #1
 2318              	.LVL383:
 222:..\..\..\liblc3\src/ltpf.c ****         int32_t un = 0;
 2319              		.loc 1 222 0
 2320 002c 01EBD177 		add	r7, r1, r1, lsr #31
 2321 0030 27F00107 		bic	r7, r7, #1
 2322 0034 6744     		add	r7, r7, ip
 2323 0036 019B     		ldr	r3, [sp, #4]
ARM GAS  C:\Users\rdn\AppData\Local\Temp\cc5zc0m9.s 			page 60


 2324 0038 1F44     		add	r7, r7, r3
 2325              	.LVL384:
 2326              	.LBB193:
 225:..\..\..\liblc3\src/ltpf.c ****             un += *(xn++) * *(hn++);
 2327              		.loc 1 225 0
 2328 003a 4FF00009 		mov	r9, #0
 2329              	.LBE193:
 223:..\..\..\liblc3\src/ltpf.c **** 
 2330              		.loc 1 223 0
 2331 003e 4D46     		mov	r5, r9
 2332 0040 40E0     		b	.L150
 2333              	.LVL385:
 2334              	.L151:
 2335              	.LBB194:
 226:..\..\..\liblc3\src/ltpf.c ****             un += *(xn++) * *(hn++);
 2336              		.loc 1 226 0
 2337 0042 B7F90030 		ldrsh	r3, [r7]
 2338              	.LVL386:
 2339 0046 B8F90040 		ldrsh	r4, [r8]
 2340 004a 04FB0355 		mla	r5, r4, r3, r5
 2341              	.LVL387:
 227:..\..\..\liblc3\src/ltpf.c ****             un += *(xn++) * *(hn++);
 2342              		.loc 1 227 0
 2343 004e B7F90230 		ldrsh	r3, [r7, #2]
 2344              	.LVL388:
 2345 0052 B8F90240 		ldrsh	r4, [r8, #2]
 2346 0056 04FB0355 		mla	r5, r4, r3, r5
 2347              	.LVL389:
 228:..\..\..\liblc3\src/ltpf.c ****             un += *(xn++) * *(hn++);
 2348              		.loc 1 228 0
 2349 005a B7F90430 		ldrsh	r3, [r7, #4]
 2350              	.LVL390:
 2351 005e B8F90440 		ldrsh	r4, [r8, #4]
 2352 0062 04FB0355 		mla	r5, r4, r3, r5
 2353              	.LVL391:
 229:..\..\..\liblc3\src/ltpf.c ****             un += *(xn++) * *(hn++);
 2354              		.loc 1 229 0
 2355 0066 B7F90630 		ldrsh	r3, [r7, #6]
 2356              	.LVL392:
 2357 006a B8F90640 		ldrsh	r4, [r8, #6]
 2358 006e 04FB0354 		mla	r4, r4, r3, r5
 2359              	.LVL393:
 230:..\..\..\liblc3\src/ltpf.c ****             un += *(xn++) * *(hn++);
 2360              		.loc 1 230 0
 2361 0072 B7F90830 		ldrsh	r3, [r7, #8]
 2362              	.LVL394:
 2363 0076 B8F90850 		ldrsh	r5, [r8, #8]
 2364 007a 05FB0344 		mla	r4, r5, r3, r4
 2365              	.LVL395:
 231:..\..\..\liblc3\src/ltpf.c ****             un += *(xn++) * *(hn++);
 2366              		.loc 1 231 0
 2367 007e B7F90A30 		ldrsh	r3, [r7, #10]
 2368              	.LVL396:
 2369 0082 B8F90A50 		ldrsh	r5, [r8, #10]
 2370 0086 05FB0344 		mla	r4, r5, r3, r4
 2371              	.LVL397:
 232:..\..\..\liblc3\src/ltpf.c ****             un += *(xn++) * *(hn++);
ARM GAS  C:\Users\rdn\AppData\Local\Temp\cc5zc0m9.s 			page 61


 2372              		.loc 1 232 0
 2373 008a B7F90C30 		ldrsh	r3, [r7, #12]
 2374              	.LVL398:
 2375 008e B8F90C50 		ldrsh	r5, [r8, #12]
 2376 0092 05FB0344 		mla	r4, r5, r3, r4
 2377              	.LVL399:
 233:..\..\..\liblc3\src/ltpf.c ****             un += *(xn++) * *(hn++);
 2378              		.loc 1 233 0
 2379 0096 B7F90E30 		ldrsh	r3, [r7, #14]
 2380              	.LVL400:
 2381 009a B8F90E50 		ldrsh	r5, [r8, #14]
 2382 009e 05FB0345 		mla	r5, r5, r3, r4
 2383              	.LVL401:
 234:..\..\..\liblc3\src/ltpf.c ****             un += *(xn++) * *(hn++);
 2384              		.loc 1 234 0
 2385 00a2 B7F91030 		ldrsh	r3, [r7, #16]
 2386              	.LVL402:
 2387 00a6 B8F91040 		ldrsh	r4, [r8, #16]
 2388 00aa 04FB0354 		mla	r4, r4, r3, r5
 2389              	.LVL403:
 235:..\..\..\liblc3\src/ltpf.c ****         }
 2390              		.loc 1 235 0
 2391 00ae B7F91230 		ldrsh	r3, [r7, #18]
 2392              	.LVL404:
 2393 00b2 B8F91250 		ldrsh	r5, [r8, #18]
 2394 00b6 05FB0345 		mla	r5, r5, r3, r4
 2395              	.LVL405:
 225:..\..\..\liblc3\src/ltpf.c ****             un += *(xn++) * *(hn++);
 2396              		.loc 1 225 0
 2397 00ba 09F10A09 		add	r9, r9, #10
 2398              	.LVL406:
 235:..\..\..\liblc3\src/ltpf.c ****         }
 2399              		.loc 1 235 0
 2400 00be 1437     		adds	r7, r7, #20
 2401              	.LVL407:
 2402 00c0 08F11408 		add	r8, r8, #20
 2403              	.LVL408:
 2404              	.L150:
 225:..\..\..\liblc3\src/ltpf.c ****             un += *(xn++) * *(hn++);
 2405              		.loc 1 225 0
 2406 00c4 B9F1270F 		cmp	r9, #39
 2407 00c8 BBDD     		ble	.L151
 2408              	.LVL409:
 2409              	.LBE194:
 2410              	.LBB195:
 2411              	.LBB196:
 192:..\..\..\liblc3\src/ltpf.c ****     hp50->s1 = (hp50->s2 + (int64_t)xn * b1 - (int64_t)yn * a1);
 2412              		.loc 1 192 0
 2413 00ca D0E90089 		ldrd	r8, [r0]
 2414              	.LVL410:
 2415 00ce EF17     		asrs	r7, r5, #31
 2416              	.LVL411:
 2417 00d0 224B     		ldr	r3, .L154+8
 2418 00d2 A5FB03AB 		umull	r10, fp, r5, r3
 2419 00d6 03FB07BB 		mla	fp, r3, r7, fp
 2420 00da 18EB0A08 		adds	r8, r8, r10
 2421 00de 49EB0B09 		adc	r9, r9, fp
ARM GAS  C:\Users\rdn\AppData\Local\Temp\cc5zc0m9.s 			page 62


 2422              	.LVL412:
 2423 00e2 4FEA9873 		lsr	r3, r8, #30
 2424 00e6 43EA8903 		orr	r3, r3, r9, lsl #2
 2425              	.LVL413:
 193:..\..\..\liblc3\src/ltpf.c ****     hp50->s2 = (           (int64_t)xn * b2 - (int64_t)yn * a2);
 2426              		.loc 1 193 0
 2427 00ea D0E90289 		ldrd	r8, [r0, #8]
 2428 00ee 1C4C     		ldr	r4, .L154+12
 2429 00f0 6E42     		negs	r6, r5
 2430 00f2 04FB0766 		mla	r6, r4, r7, r6
 2431 00f6 A5FB0445 		umull	r4, r5, r5, r4
 2432 00fa 3544     		add	r5, r5, r6
 2433              	.LVL414:
 2434 00fc 18EB0408 		adds	r8, r8, r4
 2435 0100 49EB0509 		adc	r9, r9, r5
 2436 0104 DF17     		asrs	r7, r3, #31
 2437 0106 174E     		ldr	r6, .L154+16
 2438 0108 A3FB0645 		umull	r4, r5, r3, r6
 2439 010c 06FB0755 		mla	r5, r6, r7, r5
 2440 0110 14EB0804 		adds	r4, r4, r8
 2441 0114 45EB0905 		adc	r5, r5, r9
 2442 0118 C0E90045 		strd	r4, [r0]
 194:..\..\..\liblc3\src/ltpf.c **** 
 2443              		.loc 1 194 0
 2444 011c 124C     		ldr	r4, .L154+20
 2445 011e 5E42     		negs	r6, r3
 2446 0120 04FB0766 		mla	r6, r4, r7, r6
 2447 0124 A3FB0445 		umull	r4, r5, r3, r4
 2448 0128 3544     		add	r5, r5, r6
 2449 012a 14EB0A04 		adds	r4, r4, r10
 2450 012e 45EB0B05 		adc	r5, r5, fp
 2451 0132 C0E90245 		strd	r4, [r0, #8]
 2452              	.LVL415:
 2453              	.LBE196:
 2454              	.LBE195:
 239:..\..\..\liblc3\src/ltpf.c ****     }
 2455              		.loc 1 239 0
 2456 0136 03F50043 		add	r3, r3, #32768
 2457 013a 1B14     		asrs	r3, r3, #16
 2458 013c 1380     		strh	r3, [r2]	@ movhi
 2459              	.LBE192:
 220:..\..\..\liblc3\src/ltpf.c ****         const int16_t *hn = h + (i % p) * w;
 2460              		.loc 1 220 0
 2461 013e 0531     		adds	r1, r1, #5
 2462              	.LVL416:
 2463              	.LBB197:
 239:..\..\..\liblc3\src/ltpf.c ****     }
 2464              		.loc 1 239 0
 2465 0140 0232     		adds	r2, r2, #2
 2466              	.LVL417:
 2467              	.L148:
 2468              	.LBE197:
 220:..\..\..\liblc3\src/ltpf.c ****         const int16_t *hn = h + (i % p) * w;
 2469              		.loc 1 220 0
 2470 0142 0EEB8E03 		add	r3, lr, lr, lsl #2
 2471 0146 9942     		cmp	r1, r3
 2472 0148 FFF663AF 		blt	.L152
ARM GAS  C:\Users\rdn\AppData\Local\Temp\cc5zc0m9.s 			page 63


 2473              	.LBE191:
 2474              	.LBE190:
 2475              	.LBE189:
 339:..\..\..\liblc3\src/ltpf.c **** #endif /* resample_32k_12k8 */
 2476              		.loc 1 339 0
 2477 014c 03B0     		add	sp, sp, #12
 2478              		.cfi_def_cfa_offset 36
 2479              		@ sp needed
 2480 014e BDE8F08F 		pop	{r4, r5, r6, r7, r8, r9, r10, fp, pc}
 2481              	.LVL418:
 2482              	.L155:
 2483 0152 00BF     		.align	2
 2484              	.L154:
 2485 0154 01000080 		.word	-2147483647
 2486 0158 C0030000 		.word	.LANCHOR0+960
 2487 015c C61BE63E 		.word	1055267782
 2488 0160 72C83382 		.word	-2110535566
 2489 0164 DB5DC77D 		.word	2110217691
 2490 0168 BFEE2EC2 		.word	-1037111617
 2491              		.cfi_endproc
 2492              	.LFE25:
 2493              		.size	resample_32k_12k8, .-resample_32k_12k8
 2494              		.section	.text.resample_24k_12k8,"ax",%progbits
 2495              		.align	2
 2496              		.thumb
 2497              		.thumb_func
 2498              		.type	resample_24k_12k8, %function
 2499              	resample_24k_12k8:
 2500              	.LFB26:
 353:..\..\..\liblc3\src/ltpf.c ****     resample_x192k_12k8(8, h_24k_12k8_q15, hp50, x, y, n);
 2501              		.loc 1 353 0
 2502              		.cfi_startproc
 2503              		@ args = 0, pretend = 0, frame = 8
 2504              		@ frame_needed = 0, uses_anonymous_args = 0
 2505              	.LVL419:
 2506 0000 2DE9F04F 		push	{r4, r5, r6, r7, r8, r9, r10, fp, lr}
 2507              		.cfi_def_cfa_offset 36
 2508              		.cfi_offset 4, -36
 2509              		.cfi_offset 5, -32
 2510              		.cfi_offset 6, -28
 2511              		.cfi_offset 7, -24
 2512              		.cfi_offset 8, -20
 2513              		.cfi_offset 9, -16
 2514              		.cfi_offset 10, -12
 2515              		.cfi_offset 11, -8
 2516              		.cfi_offset 14, -4
 2517 0004 83B0     		sub	sp, sp, #12
 2518              		.cfi_def_cfa_offset 48
 2519 0006 0191     		str	r1, [sp, #4]
 2520 0008 9E46     		mov	lr, r3
 2521              	.LVL420:
 2522              	.LBB205:
 2523              	.LBB206:
 263:..\..\..\liblc3\src/ltpf.c **** 
 2524              		.loc 1 263 0
 2525 000a 6FF0390C 		mvn	ip, #57
 2526              	.LVL421:
ARM GAS  C:\Users\rdn\AppData\Local\Temp\cc5zc0m9.s 			page 64


 2527              	.LBB207:
 265:..\..\..\liblc3\src/ltpf.c ****         const int16_t *hn = h + (i % p) * w;
 2528              		.loc 1 265 0
 2529 000e 0021     		movs	r1, #0
 2530              	.LVL422:
 2531 0010 B7E0     		b	.L157
 2532              	.LVL423:
 2533              	.L162:
 2534              	.LBB208:
 266:..\..\..\liblc3\src/ltpf.c ****         const int16_t *xn = x + (i / p);
 2535              		.loc 1 266 0
 2536 0012 604B     		ldr	r3, .L164
 2537 0014 0B40     		ands	r3, r1, r3
 2538 0016 03D5     		bpl	.L158
 2539 0018 013B     		subs	r3, r3, #1
 2540 001a 63F00703 		orn	r3, r3, #7
 2541 001e 0133     		adds	r3, r3, #1
 2542              	.L158:
 2543 0020 C3EB0313 		rsb	r3, r3, r3, lsl #4
 2544 0024 5C00     		lsls	r4, r3, #1
 2545 0026 5C4B     		ldr	r3, .L164+4
 2546 0028 03EB4408 		add	r8, r3, r4, lsl #1
 2547              	.LVL424:
 267:..\..\..\liblc3\src/ltpf.c ****         int32_t un = 0;
 2548              		.loc 1 267 0
 2549 002c 0F46     		mov	r7, r1
 2550 002e 0029     		cmp	r1, #0
 2551 0030 00DA     		bge	.L159
 2552 0032 CF1D     		adds	r7, r1, #7
 2553              	.L159:
 2554 0034 FF10     		asrs	r7, r7, #3
 2555 0036 0CEB4707 		add	r7, ip, r7, lsl #1
 2556 003a 019B     		ldr	r3, [sp, #4]
 2557 003c 1F44     		add	r7, r7, r3
 2558              	.LVL425:
 2559              	.LBB209:
 270:..\..\..\liblc3\src/ltpf.c ****             un += *(xn++) * *(hn++);
 2560              		.loc 1 270 0
 2561 003e 4FF00009 		mov	r9, #0
 2562              	.LBE209:
 268:..\..\..\liblc3\src/ltpf.c **** 
 2563              		.loc 1 268 0
 2564 0042 4D46     		mov	r5, r9
 2565 0044 5EE0     		b	.L160
 2566              	.LVL426:
 2567              	.L161:
 2568              	.LBB210:
 271:..\..\..\liblc3\src/ltpf.c ****             un += *(xn++) * *(hn++);
 2569              		.loc 1 271 0
 2570 0046 B7F90030 		ldrsh	r3, [r7]
 2571              	.LVL427:
 2572 004a B8F90040 		ldrsh	r4, [r8]
 2573 004e 04FB0355 		mla	r5, r4, r3, r5
 2574              	.LVL428:
 272:..\..\..\liblc3\src/ltpf.c ****             un += *(xn++) * *(hn++);
 2575              		.loc 1 272 0
 2576 0052 B7F90230 		ldrsh	r3, [r7, #2]
ARM GAS  C:\Users\rdn\AppData\Local\Temp\cc5zc0m9.s 			page 65


 2577              	.LVL429:
 2578 0056 B8F90240 		ldrsh	r4, [r8, #2]
 2579 005a 04FB0355 		mla	r5, r4, r3, r5
 2580              	.LVL430:
 273:..\..\..\liblc3\src/ltpf.c ****             un += *(xn++) * *(hn++);
 2581              		.loc 1 273 0
 2582 005e B7F90430 		ldrsh	r3, [r7, #4]
 2583              	.LVL431:
 2584 0062 B8F90440 		ldrsh	r4, [r8, #4]
 2585 0066 04FB0355 		mla	r5, r4, r3, r5
 2586              	.LVL432:
 274:..\..\..\liblc3\src/ltpf.c ****             un += *(xn++) * *(hn++);
 2587              		.loc 1 274 0
 2588 006a B7F90630 		ldrsh	r3, [r7, #6]
 2589              	.LVL433:
 2590 006e B8F90640 		ldrsh	r4, [r8, #6]
 2591 0072 04FB0354 		mla	r4, r4, r3, r5
 2592              	.LVL434:
 275:..\..\..\liblc3\src/ltpf.c ****             un += *(xn++) * *(hn++);
 2593              		.loc 1 275 0
 2594 0076 B7F90830 		ldrsh	r3, [r7, #8]
 2595              	.LVL435:
 2596 007a B8F90850 		ldrsh	r5, [r8, #8]
 2597 007e 05FB0344 		mla	r4, r5, r3, r4
 2598              	.LVL436:
 276:..\..\..\liblc3\src/ltpf.c ****             un += *(xn++) * *(hn++);
 2599              		.loc 1 276 0
 2600 0082 B7F90A30 		ldrsh	r3, [r7, #10]
 2601              	.LVL437:
 2602 0086 B8F90A50 		ldrsh	r5, [r8, #10]
 2603 008a 05FB0344 		mla	r4, r5, r3, r4
 2604              	.LVL438:
 277:..\..\..\liblc3\src/ltpf.c ****             un += *(xn++) * *(hn++);
 2605              		.loc 1 277 0
 2606 008e B7F90C30 		ldrsh	r3, [r7, #12]
 2607              	.LVL439:
 2608 0092 B8F90C50 		ldrsh	r5, [r8, #12]
 2609 0096 05FB0344 		mla	r4, r5, r3, r4
 2610              	.LVL440:
 278:..\..\..\liblc3\src/ltpf.c ****             un += *(xn++) * *(hn++);
 2611              		.loc 1 278 0
 2612 009a B7F90E30 		ldrsh	r3, [r7, #14]
 2613              	.LVL441:
 2614 009e B8F90E50 		ldrsh	r5, [r8, #14]
 2615 00a2 05FB0344 		mla	r4, r5, r3, r4
 2616              	.LVL442:
 279:..\..\..\liblc3\src/ltpf.c ****             un += *(xn++) * *(hn++);
 2617              		.loc 1 279 0
 2618 00a6 B7F91030 		ldrsh	r3, [r7, #16]
 2619              	.LVL443:
 2620 00aa B8F91050 		ldrsh	r5, [r8, #16]
 2621 00ae 05FB0344 		mla	r4, r5, r3, r4
 2622              	.LVL444:
 280:..\..\..\liblc3\src/ltpf.c ****             un += *(xn++) * *(hn++);
 2623              		.loc 1 280 0
 2624 00b2 B7F91230 		ldrsh	r3, [r7, #18]
 2625              	.LVL445:
ARM GAS  C:\Users\rdn\AppData\Local\Temp\cc5zc0m9.s 			page 66


 2626 00b6 B8F91250 		ldrsh	r5, [r8, #18]
 2627 00ba 05FB0344 		mla	r4, r5, r3, r4
 2628              	.LVL446:
 281:..\..\..\liblc3\src/ltpf.c ****             un += *(xn++) * *(hn++);
 2629              		.loc 1 281 0
 2630 00be B7F91430 		ldrsh	r3, [r7, #20]
 2631              	.LVL447:
 2632 00c2 B8F91450 		ldrsh	r5, [r8, #20]
 2633 00c6 05FB0344 		mla	r4, r5, r3, r4
 2634              	.LVL448:
 282:..\..\..\liblc3\src/ltpf.c ****             un += *(xn++) * *(hn++);
 2635              		.loc 1 282 0
 2636 00ca B7F91630 		ldrsh	r3, [r7, #22]
 2637              	.LVL449:
 2638 00ce B8F91650 		ldrsh	r5, [r8, #22]
 2639 00d2 05FB0344 		mla	r4, r5, r3, r4
 2640              	.LVL450:
 283:..\..\..\liblc3\src/ltpf.c ****             un += *(xn++) * *(hn++);
 2641              		.loc 1 283 0
 2642 00d6 B7F91830 		ldrsh	r3, [r7, #24]
 2643              	.LVL451:
 2644 00da B8F91850 		ldrsh	r5, [r8, #24]
 2645 00de 05FB0345 		mla	r5, r5, r3, r4
 2646              	.LVL452:
 284:..\..\..\liblc3\src/ltpf.c ****             un += *(xn++) * *(hn++);
 2647              		.loc 1 284 0
 2648 00e2 B7F91A30 		ldrsh	r3, [r7, #26]
 2649              	.LVL453:
 2650 00e6 B8F91A40 		ldrsh	r4, [r8, #26]
 2651 00ea 04FB0354 		mla	r4, r4, r3, r5
 2652              	.LVL454:
 285:..\..\..\liblc3\src/ltpf.c ****         }
 2653              		.loc 1 285 0
 2654 00ee B7F91C30 		ldrsh	r3, [r7, #28]
 2655              	.LVL455:
 2656 00f2 B8F91C50 		ldrsh	r5, [r8, #28]
 2657 00f6 05FB0345 		mla	r5, r5, r3, r4
 2658              	.LVL456:
 270:..\..\..\liblc3\src/ltpf.c ****             un += *(xn++) * *(hn++);
 2659              		.loc 1 270 0
 2660 00fa 09F10F09 		add	r9, r9, #15
 2661              	.LVL457:
 285:..\..\..\liblc3\src/ltpf.c ****         }
 2662              		.loc 1 285 0
 2663 00fe 1E37     		adds	r7, r7, #30
 2664              	.LVL458:
 2665 0100 08F11E08 		add	r8, r8, #30
 2666              	.LVL459:
 2667              	.L160:
 270:..\..\..\liblc3\src/ltpf.c ****             un += *(xn++) * *(hn++);
 2668              		.loc 1 270 0
 2669 0104 B9F11D0F 		cmp	r9, #29
 2670 0108 9DDD     		ble	.L161
 2671              	.LVL460:
 2672              	.LBE210:
 2673              	.LBB211:
 2674              	.LBB212:
ARM GAS  C:\Users\rdn\AppData\Local\Temp\cc5zc0m9.s 			page 67


 192:..\..\..\liblc3\src/ltpf.c ****     hp50->s1 = (hp50->s2 + (int64_t)xn * b1 - (int64_t)yn * a1);
 2675              		.loc 1 192 0
 2676 010a D0E90089 		ldrd	r8, [r0]
 2677              	.LVL461:
 2678 010e EF17     		asrs	r7, r5, #31
 2679              	.LVL462:
 2680 0110 224B     		ldr	r3, .L164+8
 2681 0112 A5FB03AB 		umull	r10, fp, r5, r3
 2682 0116 03FB07BB 		mla	fp, r3, r7, fp
 2683 011a 18EB0A08 		adds	r8, r8, r10
 2684 011e 49EB0B09 		adc	r9, r9, fp
 2685              	.LVL463:
 2686 0122 4FEA9873 		lsr	r3, r8, #30
 2687 0126 43EA8903 		orr	r3, r3, r9, lsl #2
 2688              	.LVL464:
 193:..\..\..\liblc3\src/ltpf.c ****     hp50->s2 = (           (int64_t)xn * b2 - (int64_t)yn * a2);
 2689              		.loc 1 193 0
 2690 012a D0E90289 		ldrd	r8, [r0, #8]
 2691 012e 1C4C     		ldr	r4, .L164+12
 2692 0130 6E42     		negs	r6, r5
 2693 0132 04FB0766 		mla	r6, r4, r7, r6
 2694 0136 A5FB0445 		umull	r4, r5, r5, r4
 2695 013a 3544     		add	r5, r5, r6
 2696              	.LVL465:
 2697 013c 18EB0408 		adds	r8, r8, r4
 2698 0140 49EB0509 		adc	r9, r9, r5
 2699 0144 DF17     		asrs	r7, r3, #31
 2700 0146 174E     		ldr	r6, .L164+16
 2701 0148 A3FB0645 		umull	r4, r5, r3, r6
 2702 014c 06FB0755 		mla	r5, r6, r7, r5
 2703 0150 14EB0804 		adds	r4, r4, r8
 2704 0154 45EB0905 		adc	r5, r5, r9
 2705 0158 C0E90045 		strd	r4, [r0]
 194:..\..\..\liblc3\src/ltpf.c **** 
 2706              		.loc 1 194 0
 2707 015c 124C     		ldr	r4, .L164+20
 2708 015e 5E42     		negs	r6, r3
 2709 0160 04FB0766 		mla	r6, r4, r7, r6
 2710 0164 A3FB0445 		umull	r4, r5, r3, r4
 2711 0168 3544     		add	r5, r5, r6
 2712 016a 14EB0A04 		adds	r4, r4, r10
 2713 016e 45EB0B05 		adc	r5, r5, fp
 2714 0172 C0E90245 		strd	r4, [r0, #8]
 2715              	.LVL466:
 2716              	.LBE212:
 2717              	.LBE211:
 289:..\..\..\liblc3\src/ltpf.c ****     }
 2718              		.loc 1 289 0
 2719 0176 03F50043 		add	r3, r3, #32768
 2720 017a 1B14     		asrs	r3, r3, #16
 2721 017c 1380     		strh	r3, [r2]	@ movhi
 2722              	.LBE208:
 265:..\..\..\liblc3\src/ltpf.c ****         const int16_t *hn = h + (i % p) * w;
 2723              		.loc 1 265 0
 2724 017e 0F31     		adds	r1, r1, #15
 2725              	.LVL467:
 2726              	.LBB213:
ARM GAS  C:\Users\rdn\AppData\Local\Temp\cc5zc0m9.s 			page 68


 289:..\..\..\liblc3\src/ltpf.c ****     }
 2727              		.loc 1 289 0
 2728 0180 0232     		adds	r2, r2, #2
 2729              	.LVL468:
 2730              	.L157:
 2731              	.LBE213:
 265:..\..\..\liblc3\src/ltpf.c ****         const int16_t *hn = h + (i % p) * w;
 2732              		.loc 1 265 0
 2733 0182 CEEB0E13 		rsb	r3, lr, lr, lsl #4
 2734 0186 9942     		cmp	r1, r3
 2735 0188 FFF643AF 		blt	.L162
 2736              	.LBE207:
 2737              	.LBE206:
 2738              	.LBE205:
 355:..\..\..\liblc3\src/ltpf.c **** #endif /* resample_24k_12k8 */
 2739              		.loc 1 355 0
 2740 018c 03B0     		add	sp, sp, #12
 2741              		.cfi_def_cfa_offset 36
 2742              		@ sp needed
 2743 018e BDE8F08F 		pop	{r4, r5, r6, r7, r8, r9, r10, fp, pc}
 2744              	.LVL469:
 2745              	.L165:
 2746 0192 00BF     		.align	2
 2747              	.L164:
 2748 0194 07000080 		.word	-2147483641
 2749 0198 60040000 		.word	.LANCHOR0+1120
 2750 019c C61BE63E 		.word	1055267782
 2751 01a0 72C83382 		.word	-2110535566
 2752 01a4 DB5DC77D 		.word	2110217691
 2753 01a8 BFEE2EC2 		.word	-1037111617
 2754              		.cfi_endproc
 2755              	.LFE26:
 2756              		.size	resample_24k_12k8, .-resample_24k_12k8
 2757              		.section	.text.resample_48k_12k8,"ax",%progbits
 2758              		.align	2
 2759              		.thumb
 2760              		.thumb_func
 2761              		.type	resample_48k_12k8, %function
 2762              	resample_48k_12k8:
 2763              	.LFB27:
 369:..\..\..\liblc3\src/ltpf.c ****     resample_x192k_12k8(4, h_48k_12k8_q15, hp50, x, y, n);
 2764              		.loc 1 369 0
 2765              		.cfi_startproc
 2766              		@ args = 0, pretend = 0, frame = 8
 2767              		@ frame_needed = 0, uses_anonymous_args = 0
 2768              	.LVL470:
 2769 0000 2DE9F04F 		push	{r4, r5, r6, r7, r8, r9, r10, fp, lr}
 2770              		.cfi_def_cfa_offset 36
 2771              		.cfi_offset 4, -36
 2772              		.cfi_offset 5, -32
 2773              		.cfi_offset 6, -28
 2774              		.cfi_offset 7, -24
 2775              		.cfi_offset 8, -20
 2776              		.cfi_offset 9, -16
 2777              		.cfi_offset 10, -12
 2778              		.cfi_offset 11, -8
 2779              		.cfi_offset 14, -4
ARM GAS  C:\Users\rdn\AppData\Local\Temp\cc5zc0m9.s 			page 69


 2780 0004 83B0     		sub	sp, sp, #12
 2781              		.cfi_def_cfa_offset 48
 2782 0006 0191     		str	r1, [sp, #4]
 2783 0008 9E46     		mov	lr, r3
 2784              	.LVL471:
 2785              	.LBB221:
 2786              	.LBB222:
 263:..\..\..\liblc3\src/ltpf.c **** 
 2787              		.loc 1 263 0
 2788 000a 6FF0750C 		mvn	ip, #117
 2789              	.LVL472:
 2790              	.LBB223:
 265:..\..\..\liblc3\src/ltpf.c ****         const int16_t *hn = h + (i % p) * w;
 2791              		.loc 1 265 0
 2792 000e 0021     		movs	r1, #0
 2793              	.LVL473:
 2794 0010 B7E0     		b	.L167
 2795              	.LVL474:
 2796              	.L172:
 2797              	.LBB224:
 266:..\..\..\liblc3\src/ltpf.c ****         const int16_t *xn = x + (i / p);
 2798              		.loc 1 266 0
 2799 0012 604B     		ldr	r3, .L174
 2800 0014 0B40     		ands	r3, r1, r3
 2801 0016 03D5     		bpl	.L168
 2802 0018 013B     		subs	r3, r3, #1
 2803 001a 63F00303 		orn	r3, r3, #3
 2804 001e 0133     		adds	r3, r3, #1
 2805              	.L168:
 2806 0020 C3EB0313 		rsb	r3, r3, r3, lsl #4
 2807 0024 9C00     		lsls	r4, r3, #2
 2808 0026 5C4B     		ldr	r3, .L174+4
 2809 0028 03EB4408 		add	r8, r3, r4, lsl #1
 2810              	.LVL475:
 267:..\..\..\liblc3\src/ltpf.c ****         int32_t un = 0;
 2811              		.loc 1 267 0
 2812 002c 0F46     		mov	r7, r1
 2813 002e 0029     		cmp	r1, #0
 2814 0030 00DA     		bge	.L169
 2815 0032 CF1C     		adds	r7, r1, #3
 2816              	.L169:
 2817 0034 BF10     		asrs	r7, r7, #2
 2818 0036 0CEB4707 		add	r7, ip, r7, lsl #1
 2819 003a 019B     		ldr	r3, [sp, #4]
 2820 003c 1F44     		add	r7, r7, r3
 2821              	.LVL476:
 2822              	.LBB225:
 270:..\..\..\liblc3\src/ltpf.c ****             un += *(xn++) * *(hn++);
 2823              		.loc 1 270 0
 2824 003e 4FF00009 		mov	r9, #0
 2825              	.LBE225:
 268:..\..\..\liblc3\src/ltpf.c **** 
 2826              		.loc 1 268 0
 2827 0042 4D46     		mov	r5, r9
 2828 0044 5EE0     		b	.L170
 2829              	.LVL477:
 2830              	.L171:
ARM GAS  C:\Users\rdn\AppData\Local\Temp\cc5zc0m9.s 			page 70


 2831              	.LBB226:
 271:..\..\..\liblc3\src/ltpf.c ****             un += *(xn++) * *(hn++);
 2832              		.loc 1 271 0
 2833 0046 B7F90030 		ldrsh	r3, [r7]
 2834              	.LVL478:
 2835 004a B8F90040 		ldrsh	r4, [r8]
 2836 004e 04FB0355 		mla	r5, r4, r3, r5
 2837              	.LVL479:
 272:..\..\..\liblc3\src/ltpf.c ****             un += *(xn++) * *(hn++);
 2838              		.loc 1 272 0
 2839 0052 B7F90230 		ldrsh	r3, [r7, #2]
 2840              	.LVL480:
 2841 0056 B8F90240 		ldrsh	r4, [r8, #2]
 2842 005a 04FB0355 		mla	r5, r4, r3, r5
 2843              	.LVL481:
 273:..\..\..\liblc3\src/ltpf.c ****             un += *(xn++) * *(hn++);
 2844              		.loc 1 273 0
 2845 005e B7F90430 		ldrsh	r3, [r7, #4]
 2846              	.LVL482:
 2847 0062 B8F90440 		ldrsh	r4, [r8, #4]
 2848 0066 04FB0355 		mla	r5, r4, r3, r5
 2849              	.LVL483:
 274:..\..\..\liblc3\src/ltpf.c ****             un += *(xn++) * *(hn++);
 2850              		.loc 1 274 0
 2851 006a B7F90630 		ldrsh	r3, [r7, #6]
 2852              	.LVL484:
 2853 006e B8F90640 		ldrsh	r4, [r8, #6]
 2854 0072 04FB0354 		mla	r4, r4, r3, r5
 2855              	.LVL485:
 275:..\..\..\liblc3\src/ltpf.c ****             un += *(xn++) * *(hn++);
 2856              		.loc 1 275 0
 2857 0076 B7F90830 		ldrsh	r3, [r7, #8]
 2858              	.LVL486:
 2859 007a B8F90850 		ldrsh	r5, [r8, #8]
 2860 007e 05FB0344 		mla	r4, r5, r3, r4
 2861              	.LVL487:
 276:..\..\..\liblc3\src/ltpf.c ****             un += *(xn++) * *(hn++);
 2862              		.loc 1 276 0
 2863 0082 B7F90A30 		ldrsh	r3, [r7, #10]
 2864              	.LVL488:
 2865 0086 B8F90A50 		ldrsh	r5, [r8, #10]
 2866 008a 05FB0344 		mla	r4, r5, r3, r4
 2867              	.LVL489:
 277:..\..\..\liblc3\src/ltpf.c ****             un += *(xn++) * *(hn++);
 2868              		.loc 1 277 0
 2869 008e B7F90C30 		ldrsh	r3, [r7, #12]
 2870              	.LVL490:
 2871 0092 B8F90C50 		ldrsh	r5, [r8, #12]
 2872 0096 05FB0344 		mla	r4, r5, r3, r4
 2873              	.LVL491:
 278:..\..\..\liblc3\src/ltpf.c ****             un += *(xn++) * *(hn++);
 2874              		.loc 1 278 0
 2875 009a B7F90E30 		ldrsh	r3, [r7, #14]
 2876              	.LVL492:
 2877 009e B8F90E50 		ldrsh	r5, [r8, #14]
 2878 00a2 05FB0344 		mla	r4, r5, r3, r4
 2879              	.LVL493:
ARM GAS  C:\Users\rdn\AppData\Local\Temp\cc5zc0m9.s 			page 71


 279:..\..\..\liblc3\src/ltpf.c ****             un += *(xn++) * *(hn++);
 2880              		.loc 1 279 0
 2881 00a6 B7F91030 		ldrsh	r3, [r7, #16]
 2882              	.LVL494:
 2883 00aa B8F91050 		ldrsh	r5, [r8, #16]
 2884 00ae 05FB0344 		mla	r4, r5, r3, r4
 2885              	.LVL495:
 280:..\..\..\liblc3\src/ltpf.c ****             un += *(xn++) * *(hn++);
 2886              		.loc 1 280 0
 2887 00b2 B7F91230 		ldrsh	r3, [r7, #18]
 2888              	.LVL496:
 2889 00b6 B8F91250 		ldrsh	r5, [r8, #18]
 2890 00ba 05FB0344 		mla	r4, r5, r3, r4
 2891              	.LVL497:
 281:..\..\..\liblc3\src/ltpf.c ****             un += *(xn++) * *(hn++);
 2892              		.loc 1 281 0
 2893 00be B7F91430 		ldrsh	r3, [r7, #20]
 2894              	.LVL498:
 2895 00c2 B8F91450 		ldrsh	r5, [r8, #20]
 2896 00c6 05FB0344 		mla	r4, r5, r3, r4
 2897              	.LVL499:
 282:..\..\..\liblc3\src/ltpf.c ****             un += *(xn++) * *(hn++);
 2898              		.loc 1 282 0
 2899 00ca B7F91630 		ldrsh	r3, [r7, #22]
 2900              	.LVL500:
 2901 00ce B8F91650 		ldrsh	r5, [r8, #22]
 2902 00d2 05FB0344 		mla	r4, r5, r3, r4
 2903              	.LVL501:
 283:..\..\..\liblc3\src/ltpf.c ****             un += *(xn++) * *(hn++);
 2904              		.loc 1 283 0
 2905 00d6 B7F91830 		ldrsh	r3, [r7, #24]
 2906              	.LVL502:
 2907 00da B8F91850 		ldrsh	r5, [r8, #24]
 2908 00de 05FB0345 		mla	r5, r5, r3, r4
 2909              	.LVL503:
 284:..\..\..\liblc3\src/ltpf.c ****             un += *(xn++) * *(hn++);
 2910              		.loc 1 284 0
 2911 00e2 B7F91A30 		ldrsh	r3, [r7, #26]
 2912              	.LVL504:
 2913 00e6 B8F91A40 		ldrsh	r4, [r8, #26]
 2914 00ea 04FB0354 		mla	r4, r4, r3, r5
 2915              	.LVL505:
 285:..\..\..\liblc3\src/ltpf.c ****         }
 2916              		.loc 1 285 0
 2917 00ee B7F91C30 		ldrsh	r3, [r7, #28]
 2918              	.LVL506:
 2919 00f2 B8F91C50 		ldrsh	r5, [r8, #28]
 2920 00f6 05FB0345 		mla	r5, r5, r3, r4
 2921              	.LVL507:
 270:..\..\..\liblc3\src/ltpf.c ****             un += *(xn++) * *(hn++);
 2922              		.loc 1 270 0
 2923 00fa 09F10F09 		add	r9, r9, #15
 2924              	.LVL508:
 285:..\..\..\liblc3\src/ltpf.c ****         }
 2925              		.loc 1 285 0
 2926 00fe 1E37     		adds	r7, r7, #30
 2927              	.LVL509:
ARM GAS  C:\Users\rdn\AppData\Local\Temp\cc5zc0m9.s 			page 72


 2928 0100 08F11E08 		add	r8, r8, #30
 2929              	.LVL510:
 2930              	.L170:
 270:..\..\..\liblc3\src/ltpf.c ****             un += *(xn++) * *(hn++);
 2931              		.loc 1 270 0
 2932 0104 B9F13B0F 		cmp	r9, #59
 2933 0108 9DDD     		ble	.L171
 2934              	.LVL511:
 2935              	.LBE226:
 2936              	.LBB227:
 2937              	.LBB228:
 192:..\..\..\liblc3\src/ltpf.c ****     hp50->s1 = (hp50->s2 + (int64_t)xn * b1 - (int64_t)yn * a1);
 2938              		.loc 1 192 0
 2939 010a D0E90089 		ldrd	r8, [r0]
 2940              	.LVL512:
 2941 010e EF17     		asrs	r7, r5, #31
 2942              	.LVL513:
 2943 0110 224B     		ldr	r3, .L174+8
 2944 0112 A5FB03AB 		umull	r10, fp, r5, r3
 2945 0116 03FB07BB 		mla	fp, r3, r7, fp
 2946 011a 18EB0A08 		adds	r8, r8, r10
 2947 011e 49EB0B09 		adc	r9, r9, fp
 2948              	.LVL514:
 2949 0122 4FEA9873 		lsr	r3, r8, #30
 2950 0126 43EA8903 		orr	r3, r3, r9, lsl #2
 2951              	.LVL515:
 193:..\..\..\liblc3\src/ltpf.c ****     hp50->s2 = (           (int64_t)xn * b2 - (int64_t)yn * a2);
 2952              		.loc 1 193 0
 2953 012a D0E90289 		ldrd	r8, [r0, #8]
 2954 012e 1C4C     		ldr	r4, .L174+12
 2955 0130 6E42     		negs	r6, r5
 2956 0132 04FB0766 		mla	r6, r4, r7, r6
 2957 0136 A5FB0445 		umull	r4, r5, r5, r4
 2958 013a 3544     		add	r5, r5, r6
 2959              	.LVL516:
 2960 013c 18EB0408 		adds	r8, r8, r4
 2961 0140 49EB0509 		adc	r9, r9, r5
 2962 0144 DF17     		asrs	r7, r3, #31
 2963 0146 174E     		ldr	r6, .L174+16
 2964 0148 A3FB0645 		umull	r4, r5, r3, r6
 2965 014c 06FB0755 		mla	r5, r6, r7, r5
 2966 0150 14EB0804 		adds	r4, r4, r8
 2967 0154 45EB0905 		adc	r5, r5, r9
 2968 0158 C0E90045 		strd	r4, [r0]
 194:..\..\..\liblc3\src/ltpf.c **** 
 2969              		.loc 1 194 0
 2970 015c 124C     		ldr	r4, .L174+20
 2971 015e 5E42     		negs	r6, r3
 2972 0160 04FB0766 		mla	r6, r4, r7, r6
 2973 0164 A3FB0445 		umull	r4, r5, r3, r4
 2974 0168 3544     		add	r5, r5, r6
 2975 016a 14EB0A04 		adds	r4, r4, r10
 2976 016e 45EB0B05 		adc	r5, r5, fp
 2977 0172 C0E90245 		strd	r4, [r0, #8]
 2978              	.LVL517:
 2979              	.LBE228:
 2980              	.LBE227:
ARM GAS  C:\Users\rdn\AppData\Local\Temp\cc5zc0m9.s 			page 73


 289:..\..\..\liblc3\src/ltpf.c ****     }
 2981              		.loc 1 289 0
 2982 0176 03F50043 		add	r3, r3, #32768
 2983 017a 1B14     		asrs	r3, r3, #16
 2984 017c 1380     		strh	r3, [r2]	@ movhi
 2985              	.LBE224:
 265:..\..\..\liblc3\src/ltpf.c ****         const int16_t *hn = h + (i % p) * w;
 2986              		.loc 1 265 0
 2987 017e 0F31     		adds	r1, r1, #15
 2988              	.LVL518:
 2989              	.LBB229:
 289:..\..\..\liblc3\src/ltpf.c ****     }
 2990              		.loc 1 289 0
 2991 0180 0232     		adds	r2, r2, #2
 2992              	.LVL519:
 2993              	.L167:
 2994              	.LBE229:
 265:..\..\..\liblc3\src/ltpf.c ****         const int16_t *hn = h + (i % p) * w;
 2995              		.loc 1 265 0
 2996 0182 CEEB0E13 		rsb	r3, lr, lr, lsl #4
 2997 0186 9942     		cmp	r1, r3
 2998 0188 FFF643AF 		blt	.L172
 2999              	.LBE223:
 3000              	.LBE222:
 3001              	.LBE221:
 371:..\..\..\liblc3\src/ltpf.c **** #endif /* resample_48k_12k8 */
 3002              		.loc 1 371 0
 3003 018c 03B0     		add	sp, sp, #12
 3004              		.cfi_def_cfa_offset 36
 3005              		@ sp needed
 3006 018e BDE8F08F 		pop	{r4, r5, r6, r7, r8, r9, r10, fp, pc}
 3007              	.LVL520:
 3008              	.L175:
 3009 0192 00BF     		.align	2
 3010              	.L174:
 3011 0194 03000080 		.word	-2147483645
 3012 0198 40060000 		.word	.LANCHOR0+1600
 3013 019c C61BE63E 		.word	1055267782
 3014 01a0 72C83382 		.word	-2110535566
 3015 01a4 DB5DC77D 		.word	2110217691
 3016 01a8 BFEE2EC2 		.word	-1037111617
 3017              		.cfi_endproc
 3018              	.LFE27:
 3019              		.size	resample_48k_12k8, .-resample_48k_12k8
 3020              		.section	.text.synthesize_12,"ax",%progbits
 3021              		.align	2
 3022              		.thumb
 3023              		.thumb_func
 3024              		.type	synthesize_12, %function
 3025              	synthesize_12:
 3026              	.LFB43:
 834:..\..\..\liblc3\src/ltpf.c **** 
 835:..\..\..\liblc3\src/ltpf.c **** LC3_HOT static void synthesize_12(const float *xh, int nh, int lag,
 836:..\..\..\liblc3\src/ltpf.c ****     const float *x0, float *x, int n, const float *c, int fade)
 837:..\..\..\liblc3\src/ltpf.c **** {
 3027              		.loc 1 837 0
 3028              		.cfi_startproc
ARM GAS  C:\Users\rdn\AppData\Local\Temp\cc5zc0m9.s 			page 74


 3029              		@ args = 16, pretend = 0, frame = 96
 3030              		@ frame_needed = 0, uses_anonymous_args = 0
 3031              	.LVL521:
 3032 0000 2DE9F043 		push	{r4, r5, r6, r7, r8, r9, lr}
 3033              		.cfi_def_cfa_offset 28
 3034              		.cfi_offset 4, -28
 3035              		.cfi_offset 5, -24
 3036              		.cfi_offset 6, -20
 3037              		.cfi_offset 7, -16
 3038              		.cfi_offset 8, -12
 3039              		.cfi_offset 9, -8
 3040              		.cfi_offset 14, -4
 3041 0004 99B0     		sub	sp, sp, #100
 3042              		.cfi_def_cfa_offset 128
 3043 0006 209D     		ldr	r5, [sp, #128]
 3044 0008 DDF884E0 		ldr	lr, [sp, #132]
 3045 000c 229C     		ldr	r4, [sp, #136]
 3046 000e 239F     		ldr	r7, [sp, #140]
 3047              	.LVL522:
 3048              	.LBB241:
 3049              	.LBB242:
 766:..\..\..\liblc3\src/ltpf.c ****     float g_incr = (float)((fade > 0) - (fade < 0)) / n;
 3050              		.loc 1 766 0
 3051 0010 002F     		cmp	r7, #0
 3052 0012 02DC     		bgt	.L195
 3053 0014 F7EE005A 		vmov.f32	s11, #1.0e+0
 3054 0018 01E0     		b	.L177
 3055              	.L195:
 3056 001a DFED735A 		vldr.32	s11, .L200
 3057              	.L177:
 3058              	.LVL523:
 767:..\..\..\liblc3\src/ltpf.c ****     float u[MAX_FILTER_WIDTH];
 3059              		.loc 1 767 0
 3060 001e FE0F     		lsrs	r6, r7, #31
 3061 0020 002F     		cmp	r7, #0
 3062 0022 D4BF     		ite	le
 3063 0024 7642     		rsble	r6, r6, #0
 3064 0026 C6F10106 		rsbgt	r6, r6, #1
 3065 002a 07EE906A 		vmov	s15, r6	@ int
 3066 002e F8EEE77A 		vcvt.f32.s32	s15, s15
 3067 0032 07EE10EA 		vmov	s14, lr	@ int
 3068 0036 B8EEC77A 		vcvt.f32.s32	s14, s14
 3069 003a 87EE875A 		vdiv.f32	s10, s15, s14
 3070              	.LVL524:
 772:..\..\..\liblc3\src/ltpf.c **** 
 3071              		.loc 1 772 0
 3072 003e 961D     		adds	r6, r2, #6
 3073              	.LVL525:
 774:..\..\..\liblc3\src/ltpf.c ****     const float *y_end = xh + nh - 1;
 3074              		.loc 1 774 0
 3075 0040 2A1A     		subs	r2, r5, r0
 3076              	.LVL526:
 3077 0042 B6EBA20F 		cmp	r6, r2, asr #2
 3078 0046 03DD     		ble	.L178
 3079 0048 8E1B     		subs	r6, r1, r6
 3080              	.LVL527:
 3081 004a 05EB8606 		add	r6, r5, r6, lsl #2
ARM GAS  C:\Users\rdn\AppData\Local\Temp\cc5zc0m9.s 			page 75


 3082 004e 01E0     		b	.L179
 3083              	.LVL528:
 3084              	.L178:
 3085 0050 A5EB8606 		sub	r6, r5, r6, lsl #2
 3086              	.LVL529:
 3087              	.L179:
 775:..\..\..\liblc3\src/ltpf.c **** 
 3088              		.loc 1 775 0
 3089 0054 01F18041 		add	r1, r1, #1073741824
 3090              	.LVL530:
 3091 0058 0139     		subs	r1, r1, #1
 3092              	.LVL531:
 3093 005a 00EB8101 		add	r1, r0, r1, lsl #2
 3094              	.LVL532:
 3095              	.LBB243:
 777:..\..\..\liblc3\src/ltpf.c **** 
 3096              		.loc 1 777 0
 3097 005e 0027     		movs	r7, #0
 3098              	.LVL533:
 3099 0060 41E0     		b	.L180
 3100              	.LVL534:
 3101              	.L186:
 3102              	.LBB244:
 779:..\..\..\liblc3\src/ltpf.c **** 
 3103              		.loc 1 779 0
 3104 0062 4FF0000C 		mov	ip, #0
 3105 0066 18AA     		add	r2, sp, #96
 3106 0068 02EB8702 		add	r2, r2, r7, lsl #2
 3107 006c 42F860CC 		str	ip, [r2, #-96]	@ float
 781:..\..\..\liblc3\src/ltpf.c ****         y = y < y_end ? y + 1 : xh;
 3108              		.loc 1 781 0
 3109 0070 96ED006A 		vldr.32	s12, [r6]
 3110              	.LVL535:
 3111 0074 03F1040C 		add	ip, r3, #4
 3112              	.LVL536:
 3113 0078 D3ED006A 		vldr.32	s13, [r3]
 3114              	.LVL537:
 782:..\..\..\liblc3\src/ltpf.c **** 
 3115              		.loc 1 782 0
 3116 007c B142     		cmp	r1, r6
 3117 007e 01D9     		bls	.L196
 3118 0080 0436     		adds	r6, r6, #4
 3119              	.LVL538:
 3120 0082 00E0     		b	.L181
 3121              	.LVL539:
 3122              	.L196:
 3123 0084 0646     		mov	r6, r0
 3124              	.LVL540:
 3125              	.L181:
 3126              	.LBB245:
 784:..\..\..\liblc3\src/ltpf.c ****             u[j-k] -= yi * c[k];
 3127              		.loc 1 784 0
 3128 0086 0023     		movs	r3, #0
 3129 0088 11E0     		b	.L182
 3130              	.LVL541:
 3131              	.L183:
 785:..\..\..\liblc3\src/ltpf.c **** 
ARM GAS  C:\Users\rdn\AppData\Local\Temp\cc5zc0m9.s 			page 76


 3132              		.loc 1 785 0
 3133 008a FA1A     		subs	r2, r7, r3
 3134 008c 04EB8308 		add	r8, r4, r3, lsl #2
 3135 0090 D8ED007A 		vldr.32	s15, [r8]
 3136 0094 26EE277A 		vmul.f32	s14, s12, s15
 3137 0098 0DF16008 		add	r8, sp, #96
 3138 009c 08EB8202 		add	r2, r8, r2, lsl #2
 3139 00a0 52ED187A 		vldr.32	s15, [r2, #-96]
 3140 00a4 77EEC77A 		vsub.f32	s15, s15, s14
 3141 00a8 42ED187A 		vstr.32	s15, [r2, #-96]
 784:..\..\..\liblc3\src/ltpf.c ****             u[j-k] -= yi * c[k];
 3142              		.loc 1 784 0
 3143 00ac 0133     		adds	r3, r3, #1
 3144              	.LVL542:
 3145              	.L182:
 3146 00ae 9F42     		cmp	r7, r3
 3147 00b0 EBDA     		bge	.L183
 3148 00b2 0023     		movs	r3, #0
 3149              	.LVL543:
 3150 00b4 13E0     		b	.L184
 3151              	.LVL544:
 3152              	.L185:
 3153              	.LBE245:
 3154              	.LBB246:
 788:..\..\..\liblc3\src/ltpf.c ****     }
 3155              		.loc 1 788 0
 3156 00b6 FA1A     		subs	r2, r7, r3
 3157 00b8 03F10C08 		add	r8, r3, #12
 3158 00bc 04EB8808 		add	r8, r4, r8, lsl #2
 3159 00c0 D8ED007A 		vldr.32	s15, [r8]
 3160 00c4 26EEA77A 		vmul.f32	s14, s13, s15
 3161 00c8 0DF16008 		add	r8, sp, #96
 3162 00cc 08EB8202 		add	r2, r8, r2, lsl #2
 3163 00d0 52ED187A 		vldr.32	s15, [r2, #-96]
 3164 00d4 77EE877A 		vadd.f32	s15, s15, s14
 3165 00d8 42ED187A 		vstr.32	s15, [r2, #-96]
 787:..\..\..\liblc3\src/ltpf.c ****             u[j-k] += xi * c[w+k];
 3166              		.loc 1 787 0
 3167 00dc 0133     		adds	r3, r3, #1
 3168              	.LVL545:
 3169              	.L184:
 3170 00de 9F42     		cmp	r7, r3
 3171 00e0 E9DA     		bge	.L185
 3172              	.LBE246:
 3173              	.LBE244:
 777:..\..\..\liblc3\src/ltpf.c **** 
 3174              		.loc 1 777 0
 3175 00e2 0137     		adds	r7, r7, #1
 3176              	.LVL546:
 3177              	.LBB247:
 781:..\..\..\liblc3\src/ltpf.c ****         y = y < y_end ? y + 1 : xh;
 3178              		.loc 1 781 0
 3179 00e4 6346     		mov	r3, ip
 3180              	.LVL547:
 3181              	.L180:
 3182              	.LBE247:
 777:..\..\..\liblc3\src/ltpf.c **** 
ARM GAS  C:\Users\rdn\AppData\Local\Temp\cc5zc0m9.s 			page 77


 3183              		.loc 1 777 0
 3184 00e6 0A2F     		cmp	r7, #10
 3185 00e8 BBDD     		ble	.L186
 3186              	.LBE243:
 791:..\..\..\liblc3\src/ltpf.c **** 
 3187              		.loc 1 791 0
 3188 00ea 0023     		movs	r3, #0
 3189              	.LVL548:
 3190 00ec 0B93     		str	r3, [sp, #44]	@ float
 3191              	.LVL549:
 3192              	.LBB248:
 795:..\..\..\liblc3\src/ltpf.c ****         for (int j = 0; j < w; j++, g += g_incr) {
 3193              		.loc 1 795 0
 3194 00ee 0027     		movs	r7, #0
 3195              	.LVL550:
 3196 00f0 74E0     		b	.L187
 3197              	.LVL551:
 3198              	.L193:
 3199              	.LBB249:
 3200              	.LBB250:
 798:..\..\..\liblc3\src/ltpf.c ****             y = y < y_end ? y + 1 : xh;
 3201              		.loc 1 798 0
 3202 00f2 96ED006A 		vldr.32	s12, [r6]
 3203              	.LVL552:
 3204 00f6 D5ED006A 		vldr.32	s13, [r5]
 3205              	.LVL553:
 799:..\..\..\liblc3\src/ltpf.c **** 
 3206              		.loc 1 799 0
 3207 00fa B142     		cmp	r1, r6
 3208 00fc 01D9     		bls	.L197
 3209 00fe 0436     		adds	r6, r6, #4
 3210              	.LVL554:
 3211 0100 00E0     		b	.L188
 3212              	.LVL555:
 3213              	.L197:
 3214 0102 0646     		mov	r6, r0
 3215              	.LVL556:
 3216              	.L188:
 3217              	.LBB251:
 801:..\..\..\liblc3\src/ltpf.c ****                 u[(j+(w-1)-k)%w] -= yi * c[k];
 3218              		.loc 1 801 0
 3219 0104 4FF00008 		mov	r8, #0
 3220 0108 22E0     		b	.L189
 3221              	.LVL557:
 3222              	.L190:
 802:..\..\..\liblc3\src/ltpf.c **** 
 3223              		.loc 1 802 0
 3224 010a 02F10B0C 		add	ip, r2, #11
 3225 010e C8EB0C0C 		rsb	ip, r8, ip
 3226 0112 364B     		ldr	r3, .L200+4
 3227 0114 83FB0C39 		smull	r3, r9, r3, ip
 3228 0118 4FEAEC73 		asr	r3, ip, #31
 3229 011c C3EB6903 		rsb	r3, r3, r9, asr #1
 3230 0120 03EB4303 		add	r3, r3, r3, lsl #1
 3231 0124 4FEA8309 		lsl	r9, r3, #2
 3232 0128 C9EB0C03 		rsb	r3, r9, ip
 3233 012c 04EB880C 		add	ip, r4, r8, lsl #2
ARM GAS  C:\Users\rdn\AppData\Local\Temp\cc5zc0m9.s 			page 78


 3234 0130 DCED007A 		vldr.32	s15, [ip]
 3235 0134 26EE277A 		vmul.f32	s14, s12, s15
 3236 0138 0DF1600C 		add	ip, sp, #96
 3237 013c 0CEB8303 		add	r3, ip, r3, lsl #2
 3238 0140 53ED187A 		vldr.32	s15, [r3, #-96]
 3239 0144 77EEC77A 		vsub.f32	s15, s15, s14
 3240 0148 43ED187A 		vstr.32	s15, [r3, #-96]
 801:..\..\..\liblc3\src/ltpf.c ****                 u[(j+(w-1)-k)%w] -= yi * c[k];
 3241              		.loc 1 801 0
 3242 014c 08F10108 		add	r8, r8, #1
 3243              	.LVL558:
 3244              	.L189:
 3245 0150 B8F10B0F 		cmp	r8, #11
 3246 0154 D9DD     		ble	.L190
 3247 0156 4FF00008 		mov	r8, #0
 3248              	.LVL559:
 3249 015a 24E0     		b	.L191
 3250              	.LVL560:
 3251              	.L192:
 3252              	.LBE251:
 3253              	.LBB252:
 805:..\..\..\liblc3\src/ltpf.c **** 
 3254              		.loc 1 805 0
 3255 015c 02F10B0C 		add	ip, r2, #11
 3256 0160 C8EB0C0C 		rsb	ip, r8, ip
 3257 0164 214B     		ldr	r3, .L200+4
 3258 0166 83FB0C39 		smull	r3, r9, r3, ip
 3259 016a 4FEAEC73 		asr	r3, ip, #31
 3260 016e C3EB6903 		rsb	r3, r3, r9, asr #1
 3261 0172 03EB4303 		add	r3, r3, r3, lsl #1
 3262 0176 4FEA8309 		lsl	r9, r3, #2
 3263 017a C9EB0C03 		rsb	r3, r9, ip
 3264 017e 08F10C0C 		add	ip, r8, #12
 3265 0182 04EB8C0C 		add	ip, r4, ip, lsl #2
 3266 0186 DCED007A 		vldr.32	s15, [ip]
 3267 018a 26EEA77A 		vmul.f32	s14, s13, s15
 3268 018e 0DF1600C 		add	ip, sp, #96
 3269 0192 0CEB8303 		add	r3, ip, r3, lsl #2
 3270 0196 53ED187A 		vldr.32	s15, [r3, #-96]
 3271 019a 77EE877A 		vadd.f32	s15, s15, s14
 3272 019e 43ED187A 		vstr.32	s15, [r3, #-96]
 804:..\..\..\liblc3\src/ltpf.c ****                 u[(j+(w-1)-k)%w] += xi * c[w+k];
 3273              		.loc 1 804 0
 3274 01a2 08F10108 		add	r8, r8, #1
 3275              	.LVL561:
 3276              	.L191:
 3277 01a6 B8F10B0F 		cmp	r8, #11
 3278 01aa D7DD     		ble	.L192
 3279              	.LVL562:
 3280              	.LBE252:
 807:..\..\..\liblc3\src/ltpf.c ****             u[j] = 0;
 3281              		.loc 1 807 0
 3282 01ac 18AB     		add	r3, sp, #96
 3283 01ae 03EB8203 		add	r3, r3, r2, lsl #2
 3284 01b2 53ED187A 		vldr.32	s15, [r3, #-96]
 3285 01b6 67EEA57A 		vmul.f32	s15, s15, s11
 3286 01ba 76EEE76A 		vsub.f32	s13, s13, s15
ARM GAS  C:\Users\rdn\AppData\Local\Temp\cc5zc0m9.s 			page 79


 3287              	.LVL563:
 3288 01be C5ED006A 		vstr.32	s13, [r5]
 3289              	.LVL564:
 808:..\..\..\liblc3\src/ltpf.c ****         }
 3290              		.loc 1 808 0
 3291 01c2 4FF0000C 		mov	ip, #0
 3292 01c6 43F860CC 		str	ip, [r3, #-96]	@ float
 3293              	.LBE250:
 796:..\..\..\liblc3\src/ltpf.c **** 
 3294              		.loc 1 796 0
 3295 01ca 0132     		adds	r2, r2, #1
 3296              	.LVL565:
 3297 01cc 75EE855A 		vadd.f32	s11, s11, s10
 3298              	.LVL566:
 3299              	.LBB253:
 807:..\..\..\liblc3\src/ltpf.c ****             u[j] = 0;
 3300              		.loc 1 807 0
 3301 01d0 0435     		adds	r5, r5, #4
 3302              	.LVL567:
 3303 01d2 00E0     		b	.L194
 3304              	.LVL568:
 3305              	.L198:
 3306              	.LBE253:
 3307              	.LBE249:
 795:..\..\..\liblc3\src/ltpf.c ****         for (int j = 0; j < w; j++, g += g_incr) {
 3308              		.loc 1 795 0
 3309 01d4 0022     		movs	r2, #0
 3310              	.L194:
 3311              	.LVL569:
 3312              	.LBB254:
 796:..\..\..\liblc3\src/ltpf.c **** 
 3313              		.loc 1 796 0
 3314 01d6 0B2A     		cmp	r2, #11
 3315 01d8 8BDD     		ble	.L193
 3316              	.LBE254:
 795:..\..\..\liblc3\src/ltpf.c ****         for (int j = 0; j < w; j++, g += g_incr) {
 3317              		.loc 1 795 0
 3318 01da 0C37     		adds	r7, r7, #12
 3319              	.LVL570:
 3320              	.L187:
 3321 01dc BE45     		cmp	lr, r7
 3322 01de F9DC     		bgt	.L198
 3323              	.LBE248:
 3324              	.LBE242:
 3325              	.LBE241:
 838:..\..\..\liblc3\src/ltpf.c ****     synthesize_template(xh, nh, lag, x0, x, n, c, 12, fade);
 839:..\..\..\liblc3\src/ltpf.c **** }
 3326              		.loc 1 839 0
 3327 01e0 19B0     		add	sp, sp, #100
 3328              		.cfi_def_cfa_offset 28
 3329              		@ sp needed
 3330 01e2 BDE8F083 		pop	{r4, r5, r6, r7, r8, r9, pc}
 3331              	.LVL571:
 3332              	.L201:
 3333 01e6 00BF     		.align	2
 3334              	.L200:
 3335 01e8 00000000 		.word	0
ARM GAS  C:\Users\rdn\AppData\Local\Temp\cc5zc0m9.s 			page 80


 3336 01ec ABAAAA2A 		.word	715827883
 3337              		.cfi_endproc
 3338              	.LFE43:
 3339              		.size	synthesize_12, .-synthesize_12
 3340              		.section	.text.synthesize_4,"ax",%progbits
 3341              		.align	2
 3342              		.thumb
 3343              		.thumb_func
 3344              		.type	synthesize_4, %function
 3345              	synthesize_4:
 3346              	.LFB40:
 819:..\..\..\liblc3\src/ltpf.c ****     synthesize_template(xh, nh, lag, x0, x, n, c, 4, fade);
 3347              		.loc 1 819 0
 3348              		.cfi_startproc
 3349              		@ args = 16, pretend = 0, frame = 96
 3350              		@ frame_needed = 0, uses_anonymous_args = 0
 3351              	.LVL572:
 3352 0000 2DE9F043 		push	{r4, r5, r6, r7, r8, r9, lr}
 3353              		.cfi_def_cfa_offset 28
 3354              		.cfi_offset 4, -28
 3355              		.cfi_offset 5, -24
 3356              		.cfi_offset 6, -20
 3357              		.cfi_offset 7, -16
 3358              		.cfi_offset 8, -12
 3359              		.cfi_offset 9, -8
 3360              		.cfi_offset 14, -4
 3361 0004 99B0     		sub	sp, sp, #100
 3362              		.cfi_def_cfa_offset 128
 3363 0006 8146     		mov	r9, r0
 3364 0008 209D     		ldr	r5, [sp, #128]
 3365 000a DDF884E0 		ldr	lr, [sp, #132]
 3366 000e 229C     		ldr	r4, [sp, #136]
 3367 0010 239F     		ldr	r7, [sp, #140]
 3368              	.LVL573:
 3369              	.LBB266:
 3370              	.LBB267:
 766:..\..\..\liblc3\src/ltpf.c ****     float g_incr = (float)((fade > 0) - (fade < 0)) / n;
 3371              		.loc 1 766 0
 3372 0012 002F     		cmp	r7, #0
 3373 0014 02DC     		bgt	.L223
 3374 0016 F7EE005A 		vmov.f32	s11, #1.0e+0
 3375 001a 01E0     		b	.L203
 3376              	.L223:
 3377 001c DFED6A5A 		vldr.32	s11, .L228
 3378              	.L203:
 3379              	.LVL574:
 767:..\..\..\liblc3\src/ltpf.c ****     float u[MAX_FILTER_WIDTH];
 3380              		.loc 1 767 0
 3381 0020 FE0F     		lsrs	r6, r7, #31
 3382 0022 002F     		cmp	r7, #0
 3383 0024 D4BF     		ite	le
 3384 0026 7642     		rsble	r6, r6, #0
 3385 0028 C6F10106 		rsbgt	r6, r6, #1
 3386 002c 07EE906A 		vmov	s15, r6	@ int
 3387 0030 F8EEE77A 		vcvt.f32.s32	s15, s15
 3388 0034 07EE10EA 		vmov	s14, lr	@ int
 3389 0038 B8EEC77A 		vcvt.f32.s32	s14, s14
ARM GAS  C:\Users\rdn\AppData\Local\Temp\cc5zc0m9.s 			page 81


 3390 003c 87EE875A 		vdiv.f32	s10, s15, s14
 3391              	.LVL575:
 772:..\..\..\liblc3\src/ltpf.c **** 
 3392              		.loc 1 772 0
 3393 0040 961C     		adds	r6, r2, #2
 3394              	.LVL576:
 774:..\..\..\liblc3\src/ltpf.c ****     const float *y_end = xh + nh - 1;
 3395              		.loc 1 774 0
 3396 0042 C9EB0502 		rsb	r2, r9, r5
 3397              	.LVL577:
 3398 0046 B6EBA20F 		cmp	r6, r2, asr #2
 3399 004a 03DD     		ble	.L204
 3400 004c 8E1B     		subs	r6, r1, r6
 3401              	.LVL578:
 3402 004e 05EB8606 		add	r6, r5, r6, lsl #2
 3403 0052 01E0     		b	.L205
 3404              	.LVL579:
 3405              	.L204:
 3406 0054 A5EB8606 		sub	r6, r5, r6, lsl #2
 3407              	.LVL580:
 3408              	.L205:
 775:..\..\..\liblc3\src/ltpf.c **** 
 3409              		.loc 1 775 0
 3410 0058 01F18041 		add	r1, r1, #1073741824
 3411              	.LVL581:
 3412 005c 0139     		subs	r1, r1, #1
 3413              	.LVL582:
 3414 005e 09EB8101 		add	r1, r9, r1, lsl #2
 3415              	.LVL583:
 3416              	.LBB268:
 777:..\..\..\liblc3\src/ltpf.c **** 
 3417              		.loc 1 777 0
 3418 0062 0027     		movs	r7, #0
 3419              	.LVL584:
 3420 0064 3FE0     		b	.L206
 3421              	.LVL585:
 3422              	.L212:
 3423              	.LBB269:
 779:..\..\..\liblc3\src/ltpf.c **** 
 3424              		.loc 1 779 0
 3425 0066 4FF0000C 		mov	ip, #0
 3426 006a 18AA     		add	r2, sp, #96
 3427 006c 02EB8702 		add	r2, r2, r7, lsl #2
 3428 0070 42F860CC 		str	ip, [r2, #-96]	@ float
 781:..\..\..\liblc3\src/ltpf.c ****         y = y < y_end ? y + 1 : xh;
 3429              		.loc 1 781 0
 3430 0074 96ED006A 		vldr.32	s12, [r6]
 3431              	.LVL586:
 3432 0078 03F1040C 		add	ip, r3, #4
 3433              	.LVL587:
 3434 007c D3ED006A 		vldr.32	s13, [r3]
 3435              	.LVL588:
 782:..\..\..\liblc3\src/ltpf.c **** 
 3436              		.loc 1 782 0
 3437 0080 B142     		cmp	r1, r6
 3438 0082 01D9     		bls	.L224
 3439 0084 0436     		adds	r6, r6, #4
ARM GAS  C:\Users\rdn\AppData\Local\Temp\cc5zc0m9.s 			page 82


 3440              	.LVL589:
 3441 0086 00E0     		b	.L207
 3442              	.LVL590:
 3443              	.L224:
 3444 0088 4E46     		mov	r6, r9
 3445              	.LVL591:
 3446              	.L207:
 3447              	.LBB270:
 784:..\..\..\liblc3\src/ltpf.c ****             u[j-k] -= yi * c[k];
 3448              		.loc 1 784 0
 3449 008a 0023     		movs	r3, #0
 3450 008c 10E0     		b	.L208
 3451              	.LVL592:
 3452              	.L209:
 785:..\..\..\liblc3\src/ltpf.c **** 
 3453              		.loc 1 785 0
 3454 008e FA1A     		subs	r2, r7, r3
 3455 0090 04EB8308 		add	r8, r4, r3, lsl #2
 3456 0094 D8ED007A 		vldr.32	s15, [r8]
 3457 0098 26EE277A 		vmul.f32	s14, s12, s15
 3458 009c 18A8     		add	r0, sp, #96
 3459 009e 00EB8202 		add	r2, r0, r2, lsl #2
 3460 00a2 52ED187A 		vldr.32	s15, [r2, #-96]
 3461 00a6 77EEC77A 		vsub.f32	s15, s15, s14
 3462 00aa 42ED187A 		vstr.32	s15, [r2, #-96]
 784:..\..\..\liblc3\src/ltpf.c ****             u[j-k] -= yi * c[k];
 3463              		.loc 1 784 0
 3464 00ae 0133     		adds	r3, r3, #1
 3465              	.LVL593:
 3466              	.L208:
 3467 00b0 9F42     		cmp	r7, r3
 3468 00b2 ECDA     		bge	.L209
 3469 00b4 0023     		movs	r3, #0
 3470              	.LVL594:
 3471 00b6 12E0     		b	.L210
 3472              	.LVL595:
 3473              	.L211:
 3474              	.LBE270:
 3475              	.LBB271:
 788:..\..\..\liblc3\src/ltpf.c ****     }
 3476              		.loc 1 788 0
 3477 00b8 FA1A     		subs	r2, r7, r3
 3478 00ba 03F10408 		add	r8, r3, #4
 3479 00be 04EB8808 		add	r8, r4, r8, lsl #2
 3480 00c2 D8ED007A 		vldr.32	s15, [r8]
 3481 00c6 26EEA77A 		vmul.f32	s14, s13, s15
 3482 00ca 18A8     		add	r0, sp, #96
 3483 00cc 00EB8202 		add	r2, r0, r2, lsl #2
 3484 00d0 52ED187A 		vldr.32	s15, [r2, #-96]
 3485 00d4 77EE877A 		vadd.f32	s15, s15, s14
 3486 00d8 42ED187A 		vstr.32	s15, [r2, #-96]
 787:..\..\..\liblc3\src/ltpf.c ****             u[j-k] += xi * c[w+k];
 3487              		.loc 1 787 0
 3488 00dc 0133     		adds	r3, r3, #1
 3489              	.LVL596:
 3490              	.L210:
 3491 00de 9F42     		cmp	r7, r3
ARM GAS  C:\Users\rdn\AppData\Local\Temp\cc5zc0m9.s 			page 83


 3492 00e0 EADA     		bge	.L211
 3493              	.LBE271:
 3494              	.LBE269:
 777:..\..\..\liblc3\src/ltpf.c **** 
 3495              		.loc 1 777 0
 3496 00e2 0137     		adds	r7, r7, #1
 3497              	.LVL597:
 3498              	.LBB272:
 781:..\..\..\liblc3\src/ltpf.c ****         y = y < y_end ? y + 1 : xh;
 3499              		.loc 1 781 0
 3500 00e4 6346     		mov	r3, ip
 3501              	.LVL598:
 3502              	.L206:
 3503              	.LBE272:
 777:..\..\..\liblc3\src/ltpf.c **** 
 3504              		.loc 1 777 0
 3505 00e6 022F     		cmp	r7, #2
 3506 00e8 BDDD     		ble	.L212
 3507              	.LBE268:
 791:..\..\..\liblc3\src/ltpf.c **** 
 3508              		.loc 1 791 0
 3509 00ea 0023     		movs	r3, #0
 3510              	.LVL599:
 3511 00ec 0393     		str	r3, [sp, #12]	@ float
 3512              	.LVL600:
 3513              	.LBB273:
 795:..\..\..\liblc3\src/ltpf.c ****         for (int j = 0; j < w; j++, g += g_incr) {
 3514              		.loc 1 795 0
 3515 00ee 0027     		movs	r7, #0
 3516              	.LVL601:
 3517 00f0 64E0     		b	.L213
 3518              	.LVL602:
 3519              	.L221:
 3520              	.LBB274:
 3521              	.LBB275:
 798:..\..\..\liblc3\src/ltpf.c ****             y = y < y_end ? y + 1 : xh;
 3522              		.loc 1 798 0
 3523 00f2 96ED006A 		vldr.32	s12, [r6]
 3524              	.LVL603:
 3525 00f6 D5ED006A 		vldr.32	s13, [r5]
 3526              	.LVL604:
 799:..\..\..\liblc3\src/ltpf.c **** 
 3527              		.loc 1 799 0
 3528 00fa B142     		cmp	r1, r6
 3529 00fc 01D9     		bls	.L225
 3530 00fe 0436     		adds	r6, r6, #4
 3531              	.LVL605:
 3532 0100 00E0     		b	.L214
 3533              	.LVL606:
 3534              	.L225:
 3535 0102 4E46     		mov	r6, r9
 3536              	.LVL607:
 3537              	.L214:
 3538              	.LBB276:
 801:..\..\..\liblc3\src/ltpf.c ****                 u[(j+(w-1)-k)%w] -= yi * c[k];
 3539              		.loc 1 801 0
 3540 0104 4FF0000C 		mov	ip, #0
ARM GAS  C:\Users\rdn\AppData\Local\Temp\cc5zc0m9.s 			page 84


 3541 0108 1AE0     		b	.L215
 3542              	.LVL608:
 3543              	.L217:
 802:..\..\..\liblc3\src/ltpf.c **** 
 3544              		.loc 1 802 0
 3545 010a D31C     		adds	r3, r2, #3
 3546 010c CCEB0303 		rsb	r3, ip, r3
 3547 0110 2E48     		ldr	r0, .L228+4
 3548 0112 0340     		ands	r3, r3, r0
 3549 0114 03D5     		bpl	.L216
 3550 0116 013B     		subs	r3, r3, #1
 3551 0118 63F00303 		orn	r3, r3, #3
 3552 011c 0133     		adds	r3, r3, #1
 3553              	.L216:
 3554 011e 04EB8C08 		add	r8, r4, ip, lsl #2
 3555 0122 D8ED007A 		vldr.32	s15, [r8]
 3556 0126 26EE277A 		vmul.f32	s14, s12, s15
 3557 012a 18A8     		add	r0, sp, #96
 3558 012c 00EB8303 		add	r3, r0, r3, lsl #2
 3559 0130 53ED187A 		vldr.32	s15, [r3, #-96]
 3560 0134 77EEC77A 		vsub.f32	s15, s15, s14
 3561 0138 43ED187A 		vstr.32	s15, [r3, #-96]
 801:..\..\..\liblc3\src/ltpf.c ****                 u[(j+(w-1)-k)%w] -= yi * c[k];
 3562              		.loc 1 801 0
 3563 013c 0CF1010C 		add	ip, ip, #1
 3564              	.LVL609:
 3565              	.L215:
 3566 0140 BCF1030F 		cmp	ip, #3
 3567 0144 E1DD     		ble	.L217
 3568 0146 4FF0000C 		mov	ip, #0
 3569              	.LVL610:
 3570 014a 1CE0     		b	.L218
 3571              	.LVL611:
 3572              	.L220:
 3573              	.LBE276:
 3574              	.LBB277:
 805:..\..\..\liblc3\src/ltpf.c **** 
 3575              		.loc 1 805 0
 3576 014c D31C     		adds	r3, r2, #3
 3577 014e CCEB0303 		rsb	r3, ip, r3
 3578 0152 1E48     		ldr	r0, .L228+4
 3579 0154 0340     		ands	r3, r3, r0
 3580 0156 03D5     		bpl	.L219
 3581 0158 013B     		subs	r3, r3, #1
 3582 015a 63F00303 		orn	r3, r3, #3
 3583 015e 0133     		adds	r3, r3, #1
 3584              	.L219:
 3585 0160 0CF10408 		add	r8, ip, #4
 3586 0164 04EB8808 		add	r8, r4, r8, lsl #2
 3587 0168 D8ED007A 		vldr.32	s15, [r8]
 3588 016c 26EEA77A 		vmul.f32	s14, s13, s15
 3589 0170 18A8     		add	r0, sp, #96
 3590 0172 00EB8303 		add	r3, r0, r3, lsl #2
 3591 0176 53ED187A 		vldr.32	s15, [r3, #-96]
 3592 017a 77EE877A 		vadd.f32	s15, s15, s14
 3593 017e 43ED187A 		vstr.32	s15, [r3, #-96]
 804:..\..\..\liblc3\src/ltpf.c ****                 u[(j+(w-1)-k)%w] += xi * c[w+k];
ARM GAS  C:\Users\rdn\AppData\Local\Temp\cc5zc0m9.s 			page 85


 3594              		.loc 1 804 0
 3595 0182 0CF1010C 		add	ip, ip, #1
 3596              	.LVL612:
 3597              	.L218:
 3598 0186 BCF1030F 		cmp	ip, #3
 3599 018a DFDD     		ble	.L220
 3600              	.LVL613:
 3601              	.LBE277:
 807:..\..\..\liblc3\src/ltpf.c ****             u[j] = 0;
 3602              		.loc 1 807 0
 3603 018c 18AB     		add	r3, sp, #96
 3604 018e 03EB8203 		add	r3, r3, r2, lsl #2
 3605 0192 53ED187A 		vldr.32	s15, [r3, #-96]
 3606 0196 67EEA57A 		vmul.f32	s15, s15, s11
 3607 019a 76EEE76A 		vsub.f32	s13, s13, s15
 3608              	.LVL614:
 3609 019e C5ED006A 		vstr.32	s13, [r5]
 3610              	.LVL615:
 808:..\..\..\liblc3\src/ltpf.c ****         }
 3611              		.loc 1 808 0
 3612 01a2 4FF0000C 		mov	ip, #0
 3613              	.LVL616:
 3614 01a6 43F860CC 		str	ip, [r3, #-96]	@ float
 3615              	.LBE275:
 796:..\..\..\liblc3\src/ltpf.c **** 
 3616              		.loc 1 796 0
 3617 01aa 0132     		adds	r2, r2, #1
 3618              	.LVL617:
 3619 01ac 75EE855A 		vadd.f32	s11, s11, s10
 3620              	.LVL618:
 3621              	.LBB278:
 807:..\..\..\liblc3\src/ltpf.c ****             u[j] = 0;
 3622              		.loc 1 807 0
 3623 01b0 0435     		adds	r5, r5, #4
 3624              	.LVL619:
 3625 01b2 00E0     		b	.L222
 3626              	.LVL620:
 3627              	.L226:
 3628              	.LBE278:
 3629              	.LBE274:
 795:..\..\..\liblc3\src/ltpf.c ****         for (int j = 0; j < w; j++, g += g_incr) {
 3630              		.loc 1 795 0
 3631 01b4 0022     		movs	r2, #0
 3632              	.L222:
 3633              	.LVL621:
 3634              	.LBB279:
 796:..\..\..\liblc3\src/ltpf.c **** 
 3635              		.loc 1 796 0
 3636 01b6 032A     		cmp	r2, #3
 3637 01b8 9BDD     		ble	.L221
 3638              	.LBE279:
 795:..\..\..\liblc3\src/ltpf.c ****         for (int j = 0; j < w; j++, g += g_incr) {
 3639              		.loc 1 795 0
 3640 01ba 0437     		adds	r7, r7, #4
 3641              	.LVL622:
 3642              	.L213:
 3643 01bc BE45     		cmp	lr, r7
ARM GAS  C:\Users\rdn\AppData\Local\Temp\cc5zc0m9.s 			page 86


 3644 01be F9DC     		bgt	.L226
 3645              	.LBE273:
 3646              	.LBE267:
 3647              	.LBE266:
 821:..\..\..\liblc3\src/ltpf.c **** 
 3648              		.loc 1 821 0
 3649 01c0 19B0     		add	sp, sp, #100
 3650              		.cfi_def_cfa_offset 28
 3651              		@ sp needed
 3652 01c2 BDE8F083 		pop	{r4, r5, r6, r7, r8, r9, pc}
 3653              	.LVL623:
 3654              	.L229:
 3655 01c6 00BF     		.align	2
 3656              	.L228:
 3657 01c8 00000000 		.word	0
 3658 01cc 03000080 		.word	-2147483645
 3659              		.cfi_endproc
 3660              	.LFE40:
 3661              		.size	synthesize_4, .-synthesize_4
 3662              		.section	.text.synthesize_6,"ax",%progbits
 3663              		.align	2
 3664              		.thumb
 3665              		.thumb_func
 3666              		.type	synthesize_6, %function
 3667              	synthesize_6:
 3668              	.LFB41:
 825:..\..\..\liblc3\src/ltpf.c ****     synthesize_template(xh, nh, lag, x0, x, n, c, 6, fade);
 3669              		.loc 1 825 0
 3670              		.cfi_startproc
 3671              		@ args = 16, pretend = 0, frame = 96
 3672              		@ frame_needed = 0, uses_anonymous_args = 0
 3673              	.LVL624:
 3674 0000 2DE9F043 		push	{r4, r5, r6, r7, r8, r9, lr}
 3675              		.cfi_def_cfa_offset 28
 3676              		.cfi_offset 4, -28
 3677              		.cfi_offset 5, -24
 3678              		.cfi_offset 6, -20
 3679              		.cfi_offset 7, -16
 3680              		.cfi_offset 8, -12
 3681              		.cfi_offset 9, -8
 3682              		.cfi_offset 14, -4
 3683 0004 99B0     		sub	sp, sp, #100
 3684              		.cfi_def_cfa_offset 128
 3685 0006 209D     		ldr	r5, [sp, #128]
 3686 0008 DDF884E0 		ldr	lr, [sp, #132]
 3687 000c 229C     		ldr	r4, [sp, #136]
 3688 000e 239F     		ldr	r7, [sp, #140]
 3689              	.LVL625:
 3690              	.LBB291:
 3691              	.LBB292:
 766:..\..\..\liblc3\src/ltpf.c ****     float g_incr = (float)((fade > 0) - (fade < 0)) / n;
 3692              		.loc 1 766 0
 3693 0010 002F     		cmp	r7, #0
 3694 0012 02DC     		bgt	.L249
 3695 0014 F7EE005A 		vmov.f32	s11, #1.0e+0
 3696 0018 01E0     		b	.L231
 3697              	.L249:
ARM GAS  C:\Users\rdn\AppData\Local\Temp\cc5zc0m9.s 			page 87


 3698 001a DFED715A 		vldr.32	s11, .L254
 3699              	.L231:
 3700              	.LVL626:
 767:..\..\..\liblc3\src/ltpf.c ****     float u[MAX_FILTER_WIDTH];
 3701              		.loc 1 767 0
 3702 001e FE0F     		lsrs	r6, r7, #31
 3703 0020 002F     		cmp	r7, #0
 3704 0022 D4BF     		ite	le
 3705 0024 7642     		rsble	r6, r6, #0
 3706 0026 C6F10106 		rsbgt	r6, r6, #1
 3707 002a 07EE906A 		vmov	s15, r6	@ int
 3708 002e F8EEE77A 		vcvt.f32.s32	s15, s15
 3709 0032 07EE10EA 		vmov	s14, lr	@ int
 3710 0036 B8EEC77A 		vcvt.f32.s32	s14, s14
 3711 003a 87EE875A 		vdiv.f32	s10, s15, s14
 3712              	.LVL627:
 772:..\..\..\liblc3\src/ltpf.c **** 
 3713              		.loc 1 772 0
 3714 003e D61C     		adds	r6, r2, #3
 3715              	.LVL628:
 774:..\..\..\liblc3\src/ltpf.c ****     const float *y_end = xh + nh - 1;
 3716              		.loc 1 774 0
 3717 0040 2A1A     		subs	r2, r5, r0
 3718              	.LVL629:
 3719 0042 B6EBA20F 		cmp	r6, r2, asr #2
 3720 0046 03DD     		ble	.L232
 3721 0048 8E1B     		subs	r6, r1, r6
 3722              	.LVL630:
 3723 004a 05EB8606 		add	r6, r5, r6, lsl #2
 3724 004e 01E0     		b	.L233
 3725              	.LVL631:
 3726              	.L232:
 3727 0050 A5EB8606 		sub	r6, r5, r6, lsl #2
 3728              	.LVL632:
 3729              	.L233:
 775:..\..\..\liblc3\src/ltpf.c **** 
 3730              		.loc 1 775 0
 3731 0054 01F18041 		add	r1, r1, #1073741824
 3732              	.LVL633:
 3733 0058 0139     		subs	r1, r1, #1
 3734              	.LVL634:
 3735 005a 00EB8101 		add	r1, r0, r1, lsl #2
 3736              	.LVL635:
 3737              	.LBB293:
 777:..\..\..\liblc3\src/ltpf.c **** 
 3738              		.loc 1 777 0
 3739 005e 0027     		movs	r7, #0
 3740              	.LVL636:
 3741 0060 41E0     		b	.L234
 3742              	.LVL637:
 3743              	.L240:
 3744              	.LBB294:
 779:..\..\..\liblc3\src/ltpf.c **** 
 3745              		.loc 1 779 0
 3746 0062 4FF0000C 		mov	ip, #0
 3747 0066 18AA     		add	r2, sp, #96
 3748 0068 02EB8702 		add	r2, r2, r7, lsl #2
ARM GAS  C:\Users\rdn\AppData\Local\Temp\cc5zc0m9.s 			page 88


 3749 006c 42F860CC 		str	ip, [r2, #-96]	@ float
 781:..\..\..\liblc3\src/ltpf.c ****         y = y < y_end ? y + 1 : xh;
 3750              		.loc 1 781 0
 3751 0070 96ED006A 		vldr.32	s12, [r6]
 3752              	.LVL638:
 3753 0074 03F1040C 		add	ip, r3, #4
 3754              	.LVL639:
 3755 0078 D3ED006A 		vldr.32	s13, [r3]
 3756              	.LVL640:
 782:..\..\..\liblc3\src/ltpf.c **** 
 3757              		.loc 1 782 0
 3758 007c B142     		cmp	r1, r6
 3759 007e 01D9     		bls	.L250
 3760 0080 0436     		adds	r6, r6, #4
 3761              	.LVL641:
 3762 0082 00E0     		b	.L235
 3763              	.LVL642:
 3764              	.L250:
 3765 0084 0646     		mov	r6, r0
 3766              	.LVL643:
 3767              	.L235:
 3768              	.LBB295:
 784:..\..\..\liblc3\src/ltpf.c ****             u[j-k] -= yi * c[k];
 3769              		.loc 1 784 0
 3770 0086 0023     		movs	r3, #0
 3771 0088 11E0     		b	.L236
 3772              	.LVL644:
 3773              	.L237:
 785:..\..\..\liblc3\src/ltpf.c **** 
 3774              		.loc 1 785 0
 3775 008a FA1A     		subs	r2, r7, r3
 3776 008c 04EB8308 		add	r8, r4, r3, lsl #2
 3777 0090 D8ED007A 		vldr.32	s15, [r8]
 3778 0094 26EE277A 		vmul.f32	s14, s12, s15
 3779 0098 0DF16008 		add	r8, sp, #96
 3780 009c 08EB8202 		add	r2, r8, r2, lsl #2
 3781 00a0 52ED187A 		vldr.32	s15, [r2, #-96]
 3782 00a4 77EEC77A 		vsub.f32	s15, s15, s14
 3783 00a8 42ED187A 		vstr.32	s15, [r2, #-96]
 784:..\..\..\liblc3\src/ltpf.c ****             u[j-k] -= yi * c[k];
 3784              		.loc 1 784 0
 3785 00ac 0133     		adds	r3, r3, #1
 3786              	.LVL645:
 3787              	.L236:
 3788 00ae 9F42     		cmp	r7, r3
 3789 00b0 EBDA     		bge	.L237
 3790 00b2 0023     		movs	r3, #0
 3791              	.LVL646:
 3792 00b4 13E0     		b	.L238
 3793              	.LVL647:
 3794              	.L239:
 3795              	.LBE295:
 3796              	.LBB296:
 788:..\..\..\liblc3\src/ltpf.c ****     }
 3797              		.loc 1 788 0
 3798 00b6 FA1A     		subs	r2, r7, r3
 3799 00b8 03F10608 		add	r8, r3, #6
ARM GAS  C:\Users\rdn\AppData\Local\Temp\cc5zc0m9.s 			page 89


 3800 00bc 04EB8808 		add	r8, r4, r8, lsl #2
 3801 00c0 D8ED007A 		vldr.32	s15, [r8]
 3802 00c4 26EEA77A 		vmul.f32	s14, s13, s15
 3803 00c8 0DF16008 		add	r8, sp, #96
 3804 00cc 08EB8202 		add	r2, r8, r2, lsl #2
 3805 00d0 52ED187A 		vldr.32	s15, [r2, #-96]
 3806 00d4 77EE877A 		vadd.f32	s15, s15, s14
 3807 00d8 42ED187A 		vstr.32	s15, [r2, #-96]
 787:..\..\..\liblc3\src/ltpf.c ****             u[j-k] += xi * c[w+k];
 3808              		.loc 1 787 0
 3809 00dc 0133     		adds	r3, r3, #1
 3810              	.LVL648:
 3811              	.L238:
 3812 00de 9F42     		cmp	r7, r3
 3813 00e0 E9DA     		bge	.L239
 3814              	.LBE296:
 3815              	.LBE294:
 777:..\..\..\liblc3\src/ltpf.c **** 
 3816              		.loc 1 777 0
 3817 00e2 0137     		adds	r7, r7, #1
 3818              	.LVL649:
 3819              	.LBB297:
 781:..\..\..\liblc3\src/ltpf.c ****         y = y < y_end ? y + 1 : xh;
 3820              		.loc 1 781 0
 3821 00e4 6346     		mov	r3, ip
 3822              	.LVL650:
 3823              	.L234:
 3824              	.LBE297:
 777:..\..\..\liblc3\src/ltpf.c **** 
 3825              		.loc 1 777 0
 3826 00e6 042F     		cmp	r7, #4
 3827 00e8 BBDD     		ble	.L240
 3828              	.LBE293:
 791:..\..\..\liblc3\src/ltpf.c **** 
 3829              		.loc 1 791 0
 3830 00ea 0023     		movs	r3, #0
 3831              	.LVL651:
 3832 00ec 0593     		str	r3, [sp, #20]	@ float
 3833              	.LVL652:
 3834              	.LBB298:
 795:..\..\..\liblc3\src/ltpf.c ****         for (int j = 0; j < w; j++, g += g_incr) {
 3835              		.loc 1 795 0
 3836 00ee 0027     		movs	r7, #0
 3837              	.LVL653:
 3838 00f0 70E0     		b	.L241
 3839              	.LVL654:
 3840              	.L247:
 3841              	.LBB299:
 3842              	.LBB300:
 798:..\..\..\liblc3\src/ltpf.c ****             y = y < y_end ? y + 1 : xh;
 3843              		.loc 1 798 0
 3844 00f2 96ED006A 		vldr.32	s12, [r6]
 3845              	.LVL655:
 3846 00f6 D5ED006A 		vldr.32	s13, [r5]
 3847              	.LVL656:
 799:..\..\..\liblc3\src/ltpf.c **** 
 3848              		.loc 1 799 0
ARM GAS  C:\Users\rdn\AppData\Local\Temp\cc5zc0m9.s 			page 90


 3849 00fa B142     		cmp	r1, r6
 3850 00fc 01D9     		bls	.L251
 3851 00fe 0436     		adds	r6, r6, #4
 3852              	.LVL657:
 3853 0100 00E0     		b	.L242
 3854              	.LVL658:
 3855              	.L251:
 3856 0102 0646     		mov	r6, r0
 3857              	.LVL659:
 3858              	.L242:
 3859              	.LBB301:
 801:..\..\..\liblc3\src/ltpf.c ****                 u[(j+(w-1)-k)%w] -= yi * c[k];
 3860              		.loc 1 801 0
 3861 0104 4FF0000C 		mov	ip, #0
 3862 0108 20E0     		b	.L243
 3863              	.LVL660:
 3864              	.L244:
 802:..\..\..\liblc3\src/ltpf.c **** 
 3865              		.loc 1 802 0
 3866 010a 02F10508 		add	r8, r2, #5
 3867 010e CCEB0808 		rsb	r8, ip, r8
 3868 0112 344B     		ldr	r3, .L254+4
 3869 0114 83FB0893 		smull	r9, r3, r3, r8
 3870 0118 A3EBE873 		sub	r3, r3, r8, asr #31
 3871 011c 03EB4303 		add	r3, r3, r3, lsl #1
 3872 0120 4FEA4309 		lsl	r9, r3, #1
 3873 0124 C9EB0803 		rsb	r3, r9, r8
 3874 0128 04EB8C08 		add	r8, r4, ip, lsl #2
 3875 012c D8ED007A 		vldr.32	s15, [r8]
 3876 0130 26EE277A 		vmul.f32	s14, s12, s15
 3877 0134 0DF16008 		add	r8, sp, #96
 3878 0138 08EB8303 		add	r3, r8, r3, lsl #2
 3879 013c 53ED187A 		vldr.32	s15, [r3, #-96]
 3880 0140 77EEC77A 		vsub.f32	s15, s15, s14
 3881 0144 43ED187A 		vstr.32	s15, [r3, #-96]
 801:..\..\..\liblc3\src/ltpf.c ****                 u[(j+(w-1)-k)%w] -= yi * c[k];
 3882              		.loc 1 801 0
 3883 0148 0CF1010C 		add	ip, ip, #1
 3884              	.LVL661:
 3885              	.L243:
 3886 014c BCF1050F 		cmp	ip, #5
 3887 0150 DBDD     		ble	.L244
 3888 0152 4FF0000C 		mov	ip, #0
 3889              	.LVL662:
 3890 0156 22E0     		b	.L245
 3891              	.LVL663:
 3892              	.L246:
 3893              	.LBE301:
 3894              	.LBB302:
 805:..\..\..\liblc3\src/ltpf.c **** 
 3895              		.loc 1 805 0
 3896 0158 02F10508 		add	r8, r2, #5
 3897 015c CCEB0808 		rsb	r8, ip, r8
 3898 0160 204B     		ldr	r3, .L254+4
 3899 0162 83FB0893 		smull	r9, r3, r3, r8
 3900 0166 A3EBE873 		sub	r3, r3, r8, asr #31
 3901 016a 03EB4303 		add	r3, r3, r3, lsl #1
ARM GAS  C:\Users\rdn\AppData\Local\Temp\cc5zc0m9.s 			page 91


 3902 016e 4FEA4309 		lsl	r9, r3, #1
 3903 0172 C9EB0803 		rsb	r3, r9, r8
 3904 0176 0CF10608 		add	r8, ip, #6
 3905 017a 04EB8808 		add	r8, r4, r8, lsl #2
 3906 017e D8ED007A 		vldr.32	s15, [r8]
 3907 0182 26EEA77A 		vmul.f32	s14, s13, s15
 3908 0186 0DF16008 		add	r8, sp, #96
 3909 018a 08EB8303 		add	r3, r8, r3, lsl #2
 3910 018e 53ED187A 		vldr.32	s15, [r3, #-96]
 3911 0192 77EE877A 		vadd.f32	s15, s15, s14
 3912 0196 43ED187A 		vstr.32	s15, [r3, #-96]
 804:..\..\..\liblc3\src/ltpf.c ****                 u[(j+(w-1)-k)%w] += xi * c[w+k];
 3913              		.loc 1 804 0
 3914 019a 0CF1010C 		add	ip, ip, #1
 3915              	.LVL664:
 3916              	.L245:
 3917 019e BCF1050F 		cmp	ip, #5
 3918 01a2 D9DD     		ble	.L246
 3919              	.LVL665:
 3920              	.LBE302:
 807:..\..\..\liblc3\src/ltpf.c ****             u[j] = 0;
 3921              		.loc 1 807 0
 3922 01a4 18AB     		add	r3, sp, #96
 3923 01a6 03EB8203 		add	r3, r3, r2, lsl #2
 3924 01aa 53ED187A 		vldr.32	s15, [r3, #-96]
 3925 01ae 67EEA57A 		vmul.f32	s15, s15, s11
 3926 01b2 76EEE76A 		vsub.f32	s13, s13, s15
 3927              	.LVL666:
 3928 01b6 C5ED006A 		vstr.32	s13, [r5]
 3929              	.LVL667:
 808:..\..\..\liblc3\src/ltpf.c ****         }
 3930              		.loc 1 808 0
 3931 01ba 4FF0000C 		mov	ip, #0
 3932              	.LVL668:
 3933 01be 43F860CC 		str	ip, [r3, #-96]	@ float
 3934              	.LBE300:
 796:..\..\..\liblc3\src/ltpf.c **** 
 3935              		.loc 1 796 0
 3936 01c2 0132     		adds	r2, r2, #1
 3937              	.LVL669:
 3938 01c4 75EE855A 		vadd.f32	s11, s11, s10
 3939              	.LVL670:
 3940              	.LBB303:
 807:..\..\..\liblc3\src/ltpf.c ****             u[j] = 0;
 3941              		.loc 1 807 0
 3942 01c8 0435     		adds	r5, r5, #4
 3943              	.LVL671:
 3944 01ca 00E0     		b	.L248
 3945              	.LVL672:
 3946              	.L252:
 3947              	.LBE303:
 3948              	.LBE299:
 795:..\..\..\liblc3\src/ltpf.c ****         for (int j = 0; j < w; j++, g += g_incr) {
 3949              		.loc 1 795 0
 3950 01cc 0022     		movs	r2, #0
 3951              	.L248:
 3952              	.LVL673:
ARM GAS  C:\Users\rdn\AppData\Local\Temp\cc5zc0m9.s 			page 92


 3953              	.LBB304:
 796:..\..\..\liblc3\src/ltpf.c **** 
 3954              		.loc 1 796 0
 3955 01ce 052A     		cmp	r2, #5
 3956 01d0 8FDD     		ble	.L247
 3957              	.LBE304:
 795:..\..\..\liblc3\src/ltpf.c ****         for (int j = 0; j < w; j++, g += g_incr) {
 3958              		.loc 1 795 0
 3959 01d2 0637     		adds	r7, r7, #6
 3960              	.LVL674:
 3961              	.L241:
 3962 01d4 BE45     		cmp	lr, r7
 3963 01d6 F9DC     		bgt	.L252
 3964              	.LBE298:
 3965              	.LBE292:
 3966              	.LBE291:
 827:..\..\..\liblc3\src/ltpf.c **** 
 3967              		.loc 1 827 0
 3968 01d8 19B0     		add	sp, sp, #100
 3969              		.cfi_def_cfa_offset 28
 3970              		@ sp needed
 3971 01da BDE8F083 		pop	{r4, r5, r6, r7, r8, r9, pc}
 3972              	.LVL675:
 3973              	.L255:
 3974 01de 00BF     		.align	2
 3975              	.L254:
 3976 01e0 00000000 		.word	0
 3977 01e4 ABAAAA2A 		.word	715827883
 3978              		.cfi_endproc
 3979              	.LFE41:
 3980              		.size	synthesize_6, .-synthesize_6
 3981              		.section	.text.lc3_ltpf_analyse,"ax",%progbits
 3982              		.align	2
 3983              		.global	lc3_ltpf_analyse
 3984              		.thumb
 3985              		.thumb_func
 3986              		.type	lc3_ltpf_analyse, %function
 3987              	lc3_ltpf_analyse:
 3988              	.LFB38:
 663:..\..\..\liblc3\src/ltpf.c ****     /* --- Resampling to 12.8 KHz --- */
 3989              		.loc 1 663 0
 3990              		.cfi_startproc
 3991              		@ args = 4, pretend = 0, frame = 528
 3992              		@ frame_needed = 0, uses_anonymous_args = 0
 3993              	.LVL676:
 3994 0000 2DE9F04F 		push	{r4, r5, r6, r7, r8, r9, r10, fp, lr}
 3995              		.cfi_def_cfa_offset 36
 3996              		.cfi_offset 4, -36
 3997              		.cfi_offset 5, -32
 3998              		.cfi_offset 6, -28
 3999              		.cfi_offset 7, -24
 4000              		.cfi_offset 8, -20
 4001              		.cfi_offset 9, -16
 4002              		.cfi_offset 10, -12
 4003              		.cfi_offset 11, -8
 4004              		.cfi_offset 14, -4
 4005 0004 2DED028B 		vpush.64	{d8}
ARM GAS  C:\Users\rdn\AppData\Local\Temp\cc5zc0m9.s 			page 93


 4006              		.cfi_def_cfa_offset 44
 4007              		.cfi_offset 80, -44
 4008              		.cfi_offset 81, -40
 4009 0008 ADF5057D 		sub	sp, sp, #532
 4010              		.cfi_def_cfa_offset 576
 4011 000c 8346     		mov	fp, r0
 4012 000e 8846     		mov	r8, r1
 4013 0010 0191     		str	r1, [sp, #4]
 4014 0012 1446     		mov	r4, r2
 4015 0014 1F46     		mov	r7, r3
 4016              	.LVL677:
 667:..\..\..\liblc3\src/ltpf.c **** 
 4017              		.loc 1 667 0
 4018 0016 00F1010A 		add	r10, r0, #1
 4019 001a 4FEA4A16 		lsl	r6, r10, #5
 4020              	.LVL678:
 669:..\..\..\liblc3\src/ltpf.c ****         (z_12k8 - n_12k8) * sizeof(*ltpf->x_12k8));
 4021              		.loc 1 669 0
 4022 001e 02F12009 		add	r9, r2, #32
 4023 0022 4FEA8A1A 		lsl	r10, r10, #6
 670:..\..\..\liblc3\src/ltpf.c **** 
 4024              		.loc 1 670 0
 4025 0026 C6F5C075 		rsb	r5, r6, #384
 669:..\..\..\liblc3\src/ltpf.c ****         (z_12k8 - n_12k8) * sizeof(*ltpf->x_12k8));
 4026              		.loc 1 669 0
 4027 002a 6D00     		lsls	r5, r5, #1
 4028 002c 2A46     		mov	r2, r5
 4029              	.LVL679:
 4030 002e 09EB0A01 		add	r1, r9, r10
 4031              	.LVL680:
 4032 0032 4846     		mov	r0, r9
 4033              	.LVL681:
 4034 0034 FFF7FEFF 		bl	memmove
 4035              	.LVL682:
 672:..\..\..\liblc3\src/ltpf.c **** 
 4036              		.loc 1 672 0
 4037 0038 4D44     		add	r5, r5, r9
 4038              	.LVL683:
 674:..\..\..\liblc3\src/ltpf.c **** 
 4039              		.loc 1 674 0
 4040 003a AD4B     		ldr	r3, .L300
 4041 003c 03EB8803 		add	r3, r3, r8, lsl #2
 4042 0040 D3F82088 		ldr	r8, [r3, #2080]
 4043 0044 3346     		mov	r3, r6
 4044 0046 2A46     		mov	r2, r5
 4045 0048 3946     		mov	r1, r7
 4046 004a 04F11000 		add	r0, r4, #16
 4047 004e C047     		blx	r8
 4048              	.LVL684:
 676:..\..\..\liblc3\src/ltpf.c **** 
 4049              		.loc 1 676 0
 4050 0050 BBF1020F 		cmp	fp, #2
 4051 0054 02D1     		bne	.L278
 4052 0056 6FF05709 		mvn	r9, #87
 4053 005a 01E0     		b	.L257
 4054              	.L278:
 4055 005c 6FF02F09 		mvn	r9, #47
ARM GAS  C:\Users\rdn\AppData\Local\Temp\cc5zc0m9.s 			page 94


 4056              	.L257:
 676:..\..\..\liblc3\src/ltpf.c **** 
 4057              		.loc 1 676 0 is_stmt 0 discriminator 4
 4058 0060 05EB0903 		add	r3, r5, r9
 4059 0064 0093     		str	r3, [sp]
 4060              	.LVL685:
 681:..\..\..\liblc3\src/ltpf.c **** 
 4061              		.loc 1 681 0 is_stmt 1 discriminator 4
 4062 0066 7710     		asrs	r7, r6, #1
 4063              	.LVL686:
 683:..\..\..\liblc3\src/ltpf.c ****         (z_6k4 - n_6k4) * sizeof(*ltpf->x_6k4));
 4064              		.loc 1 683 0 discriminator 4
 4065 0068 04F54878 		add	r8, r4, #800
 4066 006c 4FEA4709 		lsl	r9, r7, #1
 684:..\..\..\liblc3\src/ltpf.c **** 
 4067              		.loc 1 684 0 discriminator 4
 4068 0070 C7F1B205 		rsb	r5, r7, #178
 683:..\..\..\liblc3\src/ltpf.c ****         (z_6k4 - n_6k4) * sizeof(*ltpf->x_6k4));
 4069              		.loc 1 683 0 discriminator 4
 4070 0074 6D00     		lsls	r5, r5, #1
 4071 0076 2A46     		mov	r2, r5
 4072 0078 08EB0901 		add	r1, r8, r9
 4073 007c 4046     		mov	r0, r8
 4074 007e FFF7FEFF 		bl	memmove
 4075              	.LVL687:
 686:..\..\..\liblc3\src/ltpf.c **** 
 4076              		.loc 1 686 0 discriminator 4
 4077 0082 4544     		add	r5, r5, r8
 4078              	.LVL688:
 688:..\..\..\liblc3\src/ltpf.c **** 
 4079              		.loc 1 688 0 discriminator 4
 4080 0084 3A46     		mov	r2, r7
 4081 0086 2946     		mov	r1, r5
 4082 0088 DDF80080 		ldr	r8, [sp]
 4083 008c 4046     		mov	r0, r8
 4084 008e FFF7FEFF 		bl	resample_6k4
 4085              	.LVL689:
 692:..\..\..\liblc3\src/ltpf.c ****         x_12k8 -= n_12k8, x_6k4 -= n_6k4;
 4086              		.loc 1 692 0 discriminator 4
 4087 0092 BBF1000F 		cmp	fp, #0
 4088 0096 06D1     		bne	.L258
 693:..\..\..\liblc3\src/ltpf.c ****         n_12k8 += n_12k8; n_6k4 += n_6k4;
 4089              		.loc 1 693 0
 4090 0098 CAEB0803 		rsb	r3, r10, r8
 4091 009c 0093     		str	r3, [sp]
 4092              	.LVL690:
 4093 009e C9EB0505 		rsb	r5, r9, r5
 4094              	.LVL691:
 694:..\..\..\liblc3\src/ltpf.c ****     }
 4095              		.loc 1 694 0
 4096 00a2 7600     		lsls	r6, r6, #1
 4097              	.LVL692:
 4098 00a4 4F46     		mov	r7, r9
 4099              	.LVL693:
 4100              	.L258:
 699:..\..\..\liblc3\src/ltpf.c ****     float nc = 0;
 4101              		.loc 1 699 0
ARM GAS  C:\Users\rdn\AppData\Local\Temp\cc5zc0m9.s 			page 95


 4102 00a6 0023     		movs	r3, #0
 4103 00a8 8293     		str	r3, [sp, #520]
 4104              	.LVL694:
 702:..\..\..\liblc3\src/ltpf.c **** 
 4105              		.loc 1 702 0
 4106 00aa 83AB     		add	r3, sp, #524
 4107 00ac 3A46     		mov	r2, r7
 4108 00ae 2946     		mov	r1, r5
 4109 00b0 2046     		mov	r0, r4
 4110 00b2 FFF7FEFF 		bl	detect_pitch
 4111              	.LVL695:
 704:..\..\..\liblc3\src/ltpf.c ****         int16_t u[128], v[128];
 4112              		.loc 1 704 0
 4113 00b6 0546     		mov	r5, r0
 4114              	.LVL696:
 4115 00b8 0028     		cmp	r0, #0
 4116 00ba 00F09F80 		beq	.L279
 4117              	.LBB305:
 707:..\..\..\liblc3\src/ltpf.c **** 
 4118              		.loc 1 707 0
 4119 00be 82AB     		add	r3, sp, #520
 4120 00c0 839A     		ldr	r2, [sp, #524]
 4121 00c2 3146     		mov	r1, r6
 4122 00c4 009F     		ldr	r7, [sp]
 4123              	.LVL697:
 4124 00c6 3846     		mov	r0, r7
 4125              	.LVL698:
 4126 00c8 FFF7FEFF 		bl	refine_pitch
 4127              	.LVL699:
 4128 00cc 909B     		ldr	r3, [sp, #576]
 4129 00ce 5860     		str	r0, [r3, #4]
 709:..\..\..\liblc3\src/ltpf.c ****         interpolate(x_12k8 - (pitch >> 2), n_12k8, pitch & 3, v);
 4130              		.loc 1 709 0
 4131 00d0 02AB     		add	r3, sp, #8
 4132 00d2 0022     		movs	r2, #0
 4133 00d4 3146     		mov	r1, r6
 4134 00d6 3846     		mov	r0, r7
 4135 00d8 FFF7FEFF 		bl	interpolate
 4136              	.LVL700:
 710:..\..\..\liblc3\src/ltpf.c **** 
 4137              		.loc 1 710 0
 4138 00dc 829A     		ldr	r2, [sp, #520]
 4139 00de 9010     		asrs	r0, r2, #2
 4140 00e0 42AB     		add	r3, sp, #264
 4141 00e2 02F00302 		and	r2, r2, #3
 4142 00e6 3146     		mov	r1, r6
 4143 00e8 A7EB4000 		sub	r0, r7, r0, lsl #1
 4144 00ec FFF7FEFF 		bl	interpolate
 4145              	.LVL701:
 4146              	.LBB306:
 4147              	.LBB307:
 4148              	.LBB308:
 442:..\..\..\liblc3\src/ltpf.c ****         for (int j = 0; j < 16; j++)
 4149              		.loc 1 442 0
 4150 00f0 4FF0000C 		mov	ip, #0
 4151              	.LBE308:
 440:..\..\..\liblc3\src/ltpf.c **** 
ARM GAS  C:\Users\rdn\AppData\Local\Temp\cc5zc0m9.s 			page 96


 4152              		.loc 1 440 0
 4153 00f4 0022     		movs	r2, #0
 4154 00f6 0023     		movs	r3, #0
 4155              	.LBE307:
 4156              	.LBE306:
 710:..\..\..\liblc3\src/ltpf.c **** 
 4157              		.loc 1 710 0
 4158 00f8 42AF     		add	r7, sp, #264
 4159              	.LVL702:
 4160 00fa 02A8     		add	r0, sp, #8
 4161              	.LVL703:
 4162 00fc 14E0     		b	.L260
 4163              	.LVL704:
 4164              	.L261:
 4165              	.LBB314:
 4166              	.LBB312:
 4167              	.LBB311:
 4168              	.LBB309:
 444:..\..\..\liblc3\src/ltpf.c **** 
 4169              		.loc 1 444 0
 4170 00fe B0F90080 		ldrsh	r8, [r0]
 4171              	.LVL705:
 4172 0102 B7F90010 		ldrsh	r1, [r7]
 4173 0106 01FB08F1 		mul	r1, r1, r8
 4174 010a 5218     		adds	r2, r2, r1
 4175              	.LVL706:
 4176 010c 43EBE173 		adc	r3, r3, r1, asr #31
 4177              	.LVL707:
 443:..\..\..\liblc3\src/ltpf.c ****             v += *(a++) * *(b++);
 4178              		.loc 1 443 0
 4179 0110 0EF1010E 		add	lr, lr, #1
 4180              	.LVL708:
 444:..\..\..\liblc3\src/ltpf.c **** 
 4181              		.loc 1 444 0
 4182 0114 0237     		adds	r7, r7, #2
 4183              	.LVL709:
 4184 0116 0230     		adds	r0, r0, #2
 4185              	.LVL710:
 4186 0118 01E0     		b	.L262
 4187              	.LVL711:
 4188              	.L280:
 4189              	.LBE309:
 442:..\..\..\liblc3\src/ltpf.c ****         for (int j = 0; j < 16; j++)
 4190              		.loc 1 442 0
 4191 011a 4FF0000E 		mov	lr, #0
 4192              	.L262:
 4193              	.LVL712:
 4194              	.LBB310:
 443:..\..\..\liblc3\src/ltpf.c ****             v += *(a++) * *(b++);
 4195              		.loc 1 443 0
 4196 011e BEF10F0F 		cmp	lr, #15
 4197 0122 ECDD     		ble	.L261
 4198              	.LBE310:
 442:..\..\..\liblc3\src/ltpf.c ****         for (int j = 0; j < 16; j++)
 4199              		.loc 1 442 0
 4200 0124 0CF1010C 		add	ip, ip, #1
 4201              	.LVL713:
ARM GAS  C:\Users\rdn\AppData\Local\Temp\cc5zc0m9.s 			page 97


 4202              	.L260:
 4203 0128 4FEA261E 		asr	lr, r6, #4
 4204 012c F445     		cmp	ip, lr
 4205 012e F4DB     		blt	.L280
 4206              	.LBE311:
 446:..\..\..\liblc3\src/ltpf.c ****     return (float)v32;
 4207              		.loc 1 446 0
 4208 0130 2032     		adds	r2, r2, #32
 4209              	.LVL714:
 4210 0132 43F10003 		adc	r3, r3, #0
 4211 0136 9209     		lsrs	r2, r2, #6
 4212 0138 42EA8362 		orr	r2, r2, r3, lsl #26
 4213              	.LVL715:
 447:..\..\..\liblc3\src/ltpf.c **** }
 4214              		.loc 1 447 0
 4215 013c 07EE902A 		vmov	s15, r2	@ int
 4216 0140 B8EEE78A 		vcvt.f32.s32	s16, s15
 4217              	.LVL716:
 4218              	.LBE312:
 4219              	.LBE314:
 4220              	.LBB315:
 4221              	.LBB316:
 4222              	.LBB317:
 442:..\..\..\liblc3\src/ltpf.c ****         for (int j = 0; j < 16; j++)
 4223              		.loc 1 442 0
 4224 0144 4FF0000C 		mov	ip, #0
 4225              	.LBE317:
 440:..\..\..\liblc3\src/ltpf.c **** 
 4226              		.loc 1 440 0
 4227 0148 0022     		movs	r2, #0
 4228 014a 0023     		movs	r3, #0
 4229              	.LBE316:
 4230              	.LBE315:
 4231              	.LBB323:
 4232              	.LBB313:
 447:..\..\..\liblc3\src/ltpf.c **** }
 4233              		.loc 1 447 0
 4234 014c 02AE     		add	r6, sp, #8
 4235              	.LVL717:
 4236 014e 3746     		mov	r7, r6
 4237 0150 11E0     		b	.L263
 4238              	.LVL718:
 4239              	.L264:
 4240              	.LBE313:
 4241              	.LBE323:
 4242              	.LBB324:
 4243              	.LBB321:
 4244              	.LBB320:
 4245              	.LBB318:
 444:..\..\..\liblc3\src/ltpf.c **** 
 4246              		.loc 1 444 0
 4247 0152 B7F90080 		ldrsh	r8, [r7]
 4248              	.LVL719:
 4249 0156 B6F90010 		ldrsh	r1, [r6]
 4250 015a 01FB08F1 		mul	r1, r1, r8
 4251 015e 5218     		adds	r2, r2, r1
 4252              	.LVL720:
ARM GAS  C:\Users\rdn\AppData\Local\Temp\cc5zc0m9.s 			page 98


 4253 0160 43EBE173 		adc	r3, r3, r1, asr #31
 4254              	.LVL721:
 443:..\..\..\liblc3\src/ltpf.c ****             v += *(a++) * *(b++);
 4255              		.loc 1 443 0
 4256 0164 0130     		adds	r0, r0, #1
 4257              	.LVL722:
 444:..\..\..\liblc3\src/ltpf.c **** 
 4258              		.loc 1 444 0
 4259 0166 0236     		adds	r6, r6, #2
 4260              	.LVL723:
 4261 0168 0237     		adds	r7, r7, #2
 4262              	.LVL724:
 4263 016a 00E0     		b	.L265
 4264              	.LVL725:
 4265              	.L281:
 4266              	.LBE318:
 442:..\..\..\liblc3\src/ltpf.c ****         for (int j = 0; j < 16; j++)
 4267              		.loc 1 442 0
 4268 016c 0020     		movs	r0, #0
 4269              	.L265:
 4270              	.LVL726:
 4271              	.LBB319:
 443:..\..\..\liblc3\src/ltpf.c ****             v += *(a++) * *(b++);
 4272              		.loc 1 443 0
 4273 016e 0F28     		cmp	r0, #15
 4274 0170 EFDD     		ble	.L264
 4275              	.LBE319:
 442:..\..\..\liblc3\src/ltpf.c ****         for (int j = 0; j < 16; j++)
 4276              		.loc 1 442 0
 4277 0172 0CF1010C 		add	ip, ip, #1
 4278              	.LVL727:
 4279              	.L263:
 4280 0176 F445     		cmp	ip, lr
 4281 0178 F8DB     		blt	.L281
 4282              	.LBE320:
 446:..\..\..\liblc3\src/ltpf.c ****     return (float)v32;
 4283              		.loc 1 446 0
 4284 017a 2032     		adds	r2, r2, #32
 4285              	.LVL728:
 4286 017c 43F10003 		adc	r3, r3, #0
 4287 0180 9209     		lsrs	r2, r2, #6
 4288 0182 42EA8362 		orr	r2, r2, r3, lsl #26
 4289              	.LVL729:
 447:..\..\..\liblc3\src/ltpf.c **** }
 4290              		.loc 1 447 0
 4291 0186 07EE902A 		vmov	s15, r2	@ int
 4292 018a F8EEE77A 		vcvt.f32.s32	s15, s15
 4293              	.LVL730:
 4294              	.LBE321:
 4295              	.LBE324:
 4296              	.LBB325:
 4297              	.LBB326:
 4298              	.LBB327:
 442:..\..\..\liblc3\src/ltpf.c ****         for (int j = 0; j < 16; j++)
 4299              		.loc 1 442 0
 4300 018e 4FF0000C 		mov	ip, #0
 4301              	.LBE327:
ARM GAS  C:\Users\rdn\AppData\Local\Temp\cc5zc0m9.s 			page 99


 440:..\..\..\liblc3\src/ltpf.c **** 
 4302              		.loc 1 440 0
 4303 0192 0020     		movs	r0, #0
 4304 0194 0021     		movs	r1, #0
 4305              	.LBE326:
 4306              	.LBE325:
 4307              	.LBB332:
 4308              	.LBB322:
 447:..\..\..\liblc3\src/ltpf.c **** }
 4309              		.loc 1 447 0
 4310 0196 42AE     		add	r6, sp, #264
 4311              	.LVL731:
 4312 0198 3746     		mov	r7, r6
 4313 019a 11E0     		b	.L266
 4314              	.LVL732:
 4315              	.L267:
 4316              	.LBE322:
 4317              	.LBE332:
 4318              	.LBB333:
 4319              	.LBB331:
 4320              	.LBB330:
 4321              	.LBB328:
 444:..\..\..\liblc3\src/ltpf.c **** 
 4322              		.loc 1 444 0
 4323 019c B7F90080 		ldrsh	r8, [r7]
 4324              	.LVL733:
 4325 01a0 B6F90030 		ldrsh	r3, [r6]
 4326 01a4 03FB08F3 		mul	r3, r3, r8
 4327 01a8 C018     		adds	r0, r0, r3
 4328              	.LVL734:
 4329 01aa 41EBE371 		adc	r1, r1, r3, asr #31
 4330              	.LVL735:
 443:..\..\..\liblc3\src/ltpf.c ****             v += *(a++) * *(b++);
 4331              		.loc 1 443 0
 4332 01ae 0132     		adds	r2, r2, #1
 4333              	.LVL736:
 444:..\..\..\liblc3\src/ltpf.c **** 
 4334              		.loc 1 444 0
 4335 01b0 0236     		adds	r6, r6, #2
 4336              	.LVL737:
 4337 01b2 0237     		adds	r7, r7, #2
 4338              	.LVL738:
 4339 01b4 00E0     		b	.L268
 4340              	.LVL739:
 4341              	.L282:
 4342              	.LBE328:
 442:..\..\..\liblc3\src/ltpf.c ****         for (int j = 0; j < 16; j++)
 4343              		.loc 1 442 0
 4344 01b6 0022     		movs	r2, #0
 4345              	.L268:
 4346              	.LVL740:
 4347              	.LBB329:
 443:..\..\..\liblc3\src/ltpf.c ****             v += *(a++) * *(b++);
 4348              		.loc 1 443 0
 4349 01b8 0F2A     		cmp	r2, #15
 4350 01ba EFDD     		ble	.L267
 4351              	.LBE329:
ARM GAS  C:\Users\rdn\AppData\Local\Temp\cc5zc0m9.s 			page 100


 442:..\..\..\liblc3\src/ltpf.c ****         for (int j = 0; j < 16; j++)
 4352              		.loc 1 442 0
 4353 01bc 0CF1010C 		add	ip, ip, #1
 4354              	.LVL741:
 4355              	.L266:
 4356 01c0 F445     		cmp	ip, lr
 4357 01c2 F8DB     		blt	.L282
 4358              	.LBE330:
 446:..\..\..\liblc3\src/ltpf.c ****     return (float)v32;
 4359              		.loc 1 446 0
 4360 01c4 2030     		adds	r0, r0, #32
 4361              	.LVL742:
 4362 01c6 41F10001 		adc	r1, r1, #0
 4363 01ca 8309     		lsrs	r3, r0, #6
 4364 01cc 43EA8163 		orr	r3, r3, r1, lsl #26
 4365              	.LVL743:
 447:..\..\..\liblc3\src/ltpf.c **** }
 4366              		.loc 1 447 0
 4367 01d0 07EE103A 		vmov	s14, r3	@ int
 4368 01d4 B8EEC77A 		vcvt.f32.s32	s14, s14
 4369              	.LVL744:
 4370              	.LBE331:
 4371              	.LBE333:
 712:..\..\..\liblc3\src/ltpf.c ****     }
 4372              		.loc 1 712 0
 4373 01d8 27EE276A 		vmul.f32	s12, s14, s15
 4374 01dc F1EEC66A 		vsqrt.f32	s13, s12
 4375 01e0 F4EE666A 		vcmp.f32	s13, s13
 4376 01e4 F1EE10FA 		vmrs	APSR_nzcv, FPSCR
 4377 01e8 05D0     		beq	.L269
 4378 01ea 16EE100A 		vmov	r0, s12
 4379 01ee FFF7FEFF 		bl	sqrtf
 4380              	.LVL745:
 4381 01f2 06EE900A 		vmov	s13, r0
 4382              	.L269:
 4383 01f6 C8EE267A 		vdiv.f32	s15, s16, s13
 4384              	.LVL746:
 4385 01fa 01E0     		b	.L259
 4386              	.LVL747:
 4387              	.L279:
 4388              	.LBE305:
 700:..\..\..\liblc3\src/ltpf.c **** 
 4389              		.loc 1 700 0
 4390 01fc DFED3D7A 		vldr.32	s15, .L300+4
 4391              	.LVL748:
 4392              	.L259:
 717:..\..\..\liblc3\src/ltpf.c ****         int pitch_diff =
 4393              		.loc 1 717 0
 4394 0200 2378     		ldrb	r3, [r4]	@ zero_extendqisi2
 4395 0202 D3B3     		cbz	r3, .L270
 4396              	.LBB334:
 719:..\..\..\liblc3\src/ltpf.c ****         float nc_diff = nc - ltpf->nc[0];
 4397              		.loc 1 719 0
 4398 0204 6168     		ldr	r1, [r4, #4]
 4399 0206 829A     		ldr	r2, [sp, #520]
 4400 0208 0B46     		mov	r3, r1
 4401 020a 9142     		cmp	r1, r2
ARM GAS  C:\Users\rdn\AppData\Local\Temp\cc5zc0m9.s 			page 101


 4402 020c A8BF     		it	ge
 4403 020e 1346     		movge	r3, r2
 718:..\..\..\liblc3\src/ltpf.c ****             LC3_MAX(pitch, ltpf->pitch) - LC3_MIN(pitch, ltpf->pitch);
 4404              		.loc 1 718 0
 4405 0210 9142     		cmp	r1, r2
 4406 0212 ACBF     		ite	ge
 4407 0214 C3EB0103 		rsbge	r3, r3, r1
 4408 0218 C3EB0203 		rsblt	r3, r3, r2
 4409              	.LVL749:
 720:..\..\..\liblc3\src/ltpf.c **** 
 4410              		.loc 1 720 0
 4411 021c 94ED027A 		vldr.32	s14, [r4, #8]
 4412 0220 37EEC77A 		vsub.f32	s14, s15, s14
 4413              	.LVL750:
 722:..\..\..\liblc3\src/ltpf.c ****             ((nc > 0.9f) || (nc > 0.84f && pitch_diff < 8 && nc_diff > -0.1f));
 4414              		.loc 1 722 0
 4415 0224 019A     		ldr	r2, [sp, #4]
 4416 0226 042A     		cmp	r2, #4
 4417 0228 19D8     		bhi	.L283
 722:..\..\..\liblc3\src/ltpf.c ****             ((nc > 0.9f) || (nc > 0.84f && pitch_diff < 8 && nc_diff > -0.1f));
 4418              		.loc 1 722 0 is_stmt 0 discriminator 1
 4419 022a D5B1     		cbz	r5, .L284
 722:..\..\..\liblc3\src/ltpf.c ****             ((nc > 0.9f) || (nc > 0.84f && pitch_diff < 8 && nc_diff > -0.1f));
 4420              		.loc 1 722 0 discriminator 3
 4421 022c DFED326A 		vldr.32	s13, .L300+8
 4422 0230 F4EEE67A 		vcmpe.f32	s15, s13
 4423 0234 F1EE10FA 		vmrs	APSR_nzcv, FPSCR
 4424 0238 15DC     		bgt	.L285
 723:..\..\..\liblc3\src/ltpf.c **** 
 4425              		.loc 1 723 0 is_stmt 1
 4426 023a DFED306A 		vldr.32	s13, .L300+12
 4427 023e F4EEE67A 		vcmpe.f32	s15, s13
 4428 0242 F1EE10FA 		vmrs	APSR_nzcv, FPSCR
 4429 0246 10DD     		ble	.L296
 723:..\..\..\liblc3\src/ltpf.c **** 
 4430              		.loc 1 723 0 is_stmt 0 discriminator 1
 4431 0248 072B     		cmp	r3, #7
 4432 024a 10DC     		bgt	.L287
 723:..\..\..\liblc3\src/ltpf.c **** 
 4433              		.loc 1 723 0 discriminator 2
 4434 024c DFED2C6A 		vldr.32	s13, .L300+16
 4435 0250 B4EEE67A 		vcmpe.f32	s14, s13
 4436 0254 F1EE10FA 		vmrs	APSR_nzcv, FPSCR
 4437 0258 0BDC     		bgt	.L288
 722:..\..\..\liblc3\src/ltpf.c ****             ((nc > 0.9f) || (nc > 0.84f && pitch_diff < 8 && nc_diff > -0.1f));
 4438              		.loc 1 722 0 is_stmt 1
 4439 025a 0023     		movs	r3, #0
 4440              	.LVL751:
 4441 025c 0AE0     		b	.L271
 4442              	.LVL752:
 4443              	.L283:
 4444 025e 0023     		movs	r3, #0
 4445              	.LVL753:
 4446 0260 08E0     		b	.L271
 4447              	.LVL754:
 4448              	.L284:
 4449 0262 0023     		movs	r3, #0
ARM GAS  C:\Users\rdn\AppData\Local\Temp\cc5zc0m9.s 			page 102


 4450              	.LVL755:
 4451 0264 06E0     		b	.L271
 4452              	.LVL756:
 4453              	.L285:
 4454 0266 0123     		movs	r3, #1
 4455              	.LVL757:
 4456 0268 04E0     		b	.L271
 4457              	.LVL758:
 4458              	.L296:
 4459 026a 0023     		movs	r3, #0
 4460              	.LVL759:
 4461 026c 02E0     		b	.L271
 4462              	.LVL760:
 4463              	.L287:
 4464 026e 0023     		movs	r3, #0
 4465              	.LVL761:
 4466 0270 00E0     		b	.L271
 4467              	.LVL762:
 4468              	.L288:
 4469 0272 0123     		movs	r3, #1
 4470              	.LVL763:
 4471              	.L271:
 722:..\..\..\liblc3\src/ltpf.c ****             ((nc > 0.9f) || (nc > 0.84f && pitch_diff < 8 && nc_diff > -0.1f));
 4472              		.loc 1 722 0 is_stmt 0 discriminator 7
 4473 0274 909A     		ldr	r2, [sp, #576]
 4474 0276 1370     		strb	r3, [r2]
 4475              	.LVL764:
 4476              	.LBE334:
 4477 0278 2AE0     		b	.L273
 4478              	.LVL765:
 4479              	.L270:
 726:..\..\..\liblc3\src/ltpf.c ****             ( (dt == LC3_DT_10M || ltpf->nc[1] > 0.94f) &&
 4480              		.loc 1 726 0 is_stmt 1
 4481 027a 019B     		ldr	r3, [sp, #4]
 4482 027c 042B     		cmp	r3, #4
 4483 027e 1CD8     		bhi	.L289
 726:..\..\..\liblc3\src/ltpf.c ****             ( (dt == LC3_DT_10M || ltpf->nc[1] > 0.94f) &&
 4484              		.loc 1 726 0 is_stmt 0 discriminator 1
 4485 0280 EDB1     		cbz	r5, .L290
 726:..\..\..\liblc3\src/ltpf.c ****             ( (dt == LC3_DT_10M || ltpf->nc[1] > 0.94f) &&
 4486              		.loc 1 726 0 discriminator 3
 4487 0282 BBF1030F 		cmp	fp, #3
 4488 0286 08D0     		beq	.L275
 727:..\..\..\liblc3\src/ltpf.c ****               (ltpf->nc[0] > 0.94f && nc > 0.94f) );
 4489              		.loc 1 727 0 is_stmt 1
 4490 0288 D4ED036A 		vldr.32	s13, [r4, #12]
 4491 028c 9FED1D7A 		vldr.32	s14, .L300+20
 4492 0290 F4EEC76A 		vcmpe.f32	s13, s14
 4493 0294 F1EE10FA 		vmrs	APSR_nzcv, FPSCR
 4494 0298 13DD     		ble	.L297
 4495              	.L275:
 728:..\..\..\liblc3\src/ltpf.c ****      }
 4496              		.loc 1 728 0 discriminator 1
 4497 029a D4ED026A 		vldr.32	s13, [r4, #8]
 727:..\..\..\liblc3\src/ltpf.c ****               (ltpf->nc[0] > 0.94f && nc > 0.94f) );
 4498              		.loc 1 727 0 discriminator 1
 4499 029e 9FED197A 		vldr.32	s14, .L300+20
ARM GAS  C:\Users\rdn\AppData\Local\Temp\cc5zc0m9.s 			page 103


 4500 02a2 F4EEC76A 		vcmpe.f32	s13, s14
 4501 02a6 F1EE10FA 		vmrs	APSR_nzcv, FPSCR
 4502 02aa 0CDD     		ble	.L298
 728:..\..\..\liblc3\src/ltpf.c ****      }
 4503              		.loc 1 728 0
 4504 02ac F4EEC77A 		vcmpe.f32	s15, s14
 4505 02b0 F1EE10FA 		vmrs	APSR_nzcv, FPSCR
 4506 02b4 09DC     		bgt	.L293
 726:..\..\..\liblc3\src/ltpf.c ****             ( (dt == LC3_DT_10M || ltpf->nc[1] > 0.94f) &&
 4507              		.loc 1 726 0
 4508 02b6 0023     		movs	r3, #0
 4509 02b8 08E0     		b	.L274
 4510              	.L289:
 4511 02ba 0023     		movs	r3, #0
 4512 02bc 06E0     		b	.L274
 4513              	.L290:
 4514 02be 0023     		movs	r3, #0
 4515 02c0 04E0     		b	.L274
 4516              	.L297:
 4517 02c2 0023     		movs	r3, #0
 4518 02c4 02E0     		b	.L274
 4519              	.L298:
 4520 02c6 0023     		movs	r3, #0
 4521 02c8 00E0     		b	.L274
 4522              	.L293:
 4523 02ca 0123     		movs	r3, #1
 4524              	.L274:
 726:..\..\..\liblc3\src/ltpf.c ****             ( (dt == LC3_DT_10M || ltpf->nc[1] > 0.94f) &&
 4525              		.loc 1 726 0 is_stmt 0 discriminator 6
 4526 02cc 909A     		ldr	r2, [sp, #576]
 4527 02ce 1370     		strb	r3, [r2]
 4528              	.L273:
 731:..\..\..\liblc3\src/ltpf.c ****      ltpf->pitch = pitch;
 4529              		.loc 1 731 0 is_stmt 1
 4530 02d0 909B     		ldr	r3, [sp, #576]
 4531 02d2 1B78     		ldrb	r3, [r3]	@ zero_extendqisi2
 4532 02d4 2370     		strb	r3, [r4]
 732:..\..\..\liblc3\src/ltpf.c ****      ltpf->nc[1] = ltpf->nc[0];
 4533              		.loc 1 732 0
 4534 02d6 829B     		ldr	r3, [sp, #520]
 4535 02d8 6360     		str	r3, [r4, #4]
 733:..\..\..\liblc3\src/ltpf.c ****      ltpf->nc[0] = nc;
 4536              		.loc 1 733 0
 4537 02da A368     		ldr	r3, [r4, #8]	@ float
 4538 02dc E360     		str	r3, [r4, #12]	@ float
 734:..\..\..\liblc3\src/ltpf.c **** 
 4539              		.loc 1 734 0
 4540 02de C4ED027A 		vstr.32	s15, [r4, #8]
 737:..\..\..\liblc3\src/ltpf.c **** 
 4541              		.loc 1 737 0
 4542 02e2 2846     		mov	r0, r5
 4543 02e4 0DF5057D 		add	sp, sp, #532
 4544              		.cfi_def_cfa_offset 44
 4545              	.LVL766:
 4546              		@ sp needed
 4547 02e8 BDEC028B 		vldm	sp!, {d8}
 4548              		.cfi_restore 80
ARM GAS  C:\Users\rdn\AppData\Local\Temp\cc5zc0m9.s 			page 104


 4549              		.cfi_restore 81
 4550              		.cfi_def_cfa_offset 36
 4551 02ec BDE8F08F 		pop	{r4, r5, r6, r7, r8, r9, r10, fp, pc}
 4552              	.LVL767:
 4553              	.L301:
 4554              		.align	2
 4555              	.L300:
 4556 02f0 00000000 		.word	.LANCHOR0
 4557 02f4 00000000 		.word	0
 4558 02f8 6666663F 		.word	1063675494
 4559 02fc 3D0A573F 		.word	1062668861
 4560 0300 CDCCCCBD 		.word	-1110651699
 4561 0304 D7A3703F 		.word	1064346583
 4562              		.cfi_endproc
 4563              	.LFE38:
 4564              		.size	lc3_ltpf_analyse, .-lc3_ltpf_analyse
 4565              		.section	.text.lc3_ltpf_synthesize,"ax",%progbits
 4566              		.align	2
 4567              		.global	lc3_ltpf_synthesize
 4568              		.thumb
 4569              		.thumb_func
 4570              		.type	lc3_ltpf_synthesize, %function
 4571              	lc3_ltpf_synthesize:
 4572              	.LFB44:
 840:..\..\..\liblc3\src/ltpf.c **** 
 841:..\..\..\liblc3\src/ltpf.c **** static void (* const synthesize[])(const float *, int, int,
 842:..\..\..\liblc3\src/ltpf.c ****     const float *, float *, int, const float *, int) =
 843:..\..\..\liblc3\src/ltpf.c **** {
 844:..\..\..\liblc3\src/ltpf.c ****     [LC3_SRATE_8K ] = synthesize_4,
 845:..\..\..\liblc3\src/ltpf.c ****     [LC3_SRATE_16K] = synthesize_4,
 846:..\..\..\liblc3\src/ltpf.c ****     [LC3_SRATE_24K] = synthesize_6,
 847:..\..\..\liblc3\src/ltpf.c ****     [LC3_SRATE_32K] = synthesize_8,
 848:..\..\..\liblc3\src/ltpf.c ****     [LC3_SRATE_48K] = synthesize_12,
 849:..\..\..\liblc3\src/ltpf.c **** };
 850:..\..\..\liblc3\src/ltpf.c **** 
 851:..\..\..\liblc3\src/ltpf.c **** 
 852:..\..\..\liblc3\src/ltpf.c **** /**
 853:..\..\..\liblc3\src/ltpf.c ****  * LTPF Synthesis
 854:..\..\..\liblc3\src/ltpf.c ****  */
 855:..\..\..\liblc3\src/ltpf.c **** void lc3_ltpf_synthesize(enum lc3_dt dt, enum lc3_srate sr, int nbytes,
 856:..\..\..\liblc3\src/ltpf.c ****     lc3_ltpf_synthesis_t *ltpf, const lc3_ltpf_data_t *data,
 857:..\..\..\liblc3\src/ltpf.c ****     const float *xh, float *x)
 858:..\..\..\liblc3\src/ltpf.c **** {
 4573              		.loc 1 858 0
 4574              		.cfi_startproc
 4575              		@ args = 12, pretend = 0, frame = 400
 4576              		@ frame_needed = 0, uses_anonymous_args = 0
 4577              	.LVL768:
 4578 0000 2DE9F04F 		push	{r4, r5, r6, r7, r8, r9, r10, fp, lr}
 4579              		.cfi_def_cfa_offset 36
 4580              		.cfi_offset 4, -36
 4581              		.cfi_offset 5, -32
 4582              		.cfi_offset 6, -28
 4583              		.cfi_offset 7, -24
 4584              		.cfi_offset 8, -20
 4585              		.cfi_offset 9, -16
 4586              		.cfi_offset 10, -12
ARM GAS  C:\Users\rdn\AppData\Local\Temp\cc5zc0m9.s 			page 105


 4587              		.cfi_offset 11, -8
 4588              		.cfi_offset 14, -4
 4589 0004 E9B0     		sub	sp, sp, #420
 4590              		.cfi_def_cfa_offset 456
 4591 0006 8846     		mov	r8, r1
 4592 0008 9946     		mov	r9, r3
 4593 000a 7299     		ldr	r1, [sp, #456]
 4594              	.LVL769:
 4595              	.LBB335:
 4596              	.LBB336:
 4597              		.file 2 "..\\..\\..\\liblc3\\src\\tables.h"
   1:..\..\..\liblc3\src/tables.h **** /******************************************************************************
   2:..\..\..\liblc3\src/tables.h ****  *
   3:..\..\..\liblc3\src/tables.h ****  *  Copyright 2022 Google LLC
   4:..\..\..\liblc3\src/tables.h ****  *
   5:..\..\..\liblc3\src/tables.h ****  *  Licensed under the Apache License, Version 2.0 (the "License");
   6:..\..\..\liblc3\src/tables.h ****  *  you may not use this file except in compliance with the License.
   7:..\..\..\liblc3\src/tables.h ****  *  You may obtain a copy of the License at:
   8:..\..\..\liblc3\src/tables.h ****  *
   9:..\..\..\liblc3\src/tables.h ****  *  http://www.apache.org/licenses/LICENSE-2.0
  10:..\..\..\liblc3\src/tables.h ****  *
  11:..\..\..\liblc3\src/tables.h ****  *  Unless required by applicable law or agreed to in writing, software
  12:..\..\..\liblc3\src/tables.h ****  *  distributed under the License is distributed on an "AS IS" BASIS,
  13:..\..\..\liblc3\src/tables.h ****  *  WITHOUT WARRANTIES OR CONDITIONS OF ANY KIND, either express or implied.
  14:..\..\..\liblc3\src/tables.h ****  *  See the License for the specific language governing permissions and
  15:..\..\..\liblc3\src/tables.h ****  *  limitations under the License.
  16:..\..\..\liblc3\src/tables.h ****  *
  17:..\..\..\liblc3\src/tables.h ****  ******************************************************************************/
  18:..\..\..\liblc3\src/tables.h **** 
  19:..\..\..\liblc3\src/tables.h **** #ifndef __LC3_TABLES_H
  20:..\..\..\liblc3\src/tables.h **** #define __LC3_TABLES_H
  21:..\..\..\liblc3\src/tables.h **** 
  22:..\..\..\liblc3\src/tables.h **** #include "common.h"
  23:..\..\..\liblc3\src/tables.h **** #include "bits.h"
  24:..\..\..\liblc3\src/tables.h **** 
  25:..\..\..\liblc3\src/tables.h **** 
  26:..\..\..\liblc3\src/tables.h **** /**
  27:..\..\..\liblc3\src/tables.h ****  * Characteristics
  28:..\..\..\liblc3\src/tables.h ****  *
  29:..\..\..\liblc3\src/tables.h ****  *   ns   Number of temporal samples / frequency coefficients within a frame
  30:..\..\..\liblc3\src/tables.h ****  *
  31:..\..\..\liblc3\src/tables.h ****  *   ne   Number of encoded frequency coefficients
  32:..\..\..\liblc3\src/tables.h ****  *
  33:..\..\..\liblc3\src/tables.h ****  *   nd   Number of MDCT delayed samples, sum of half a frame and an ovelap
  34:..\..\..\liblc3\src/tables.h ****  *        of future by 1.25 ms (2.5ms, 5ms and 10ms frame durations),
  35:..\..\..\liblc3\src/tables.h ****  *        or 2 ms (7.5ms frame duration).
  36:..\..\..\liblc3\src/tables.h ****  *
  37:..\..\..\liblc3\src/tables.h ****  *   nh   Number of 18 ms samples of the history buffer, aligned on a frame
  38:..\..\..\liblc3\src/tables.h ****  *
  39:..\..\..\liblc3\src/tables.h ****  *   nt   Number of 1.25 ms previous samples
  40:..\..\..\liblc3\src/tables.h ****  */
  41:..\..\..\liblc3\src/tables.h **** 
  42:..\..\..\liblc3\src/tables.h **** extern const int lc3_ns_2m5[LC3_NUM_SRATE];
  43:..\..\..\liblc3\src/tables.h **** extern const int lc3_ne_2m5[LC3_NUM_SRATE];
  44:..\..\..\liblc3\src/tables.h **** extern const int lc3_ns_4m [LC3_NUM_SRATE];
  45:..\..\..\liblc3\src/tables.h **** 
  46:..\..\..\liblc3\src/tables.h **** static inline int lc3_ns(enum lc3_dt dt, enum lc3_srate sr) {
ARM GAS  C:\Users\rdn\AppData\Local\Temp\cc5zc0m9.s 			page 106


  47:..\..\..\liblc3\src/tables.h ****     return lc3_ns_2m5[sr] * (1 + dt);
 4598              		.loc 2 47 0
 4599 000c C446     		mov	ip, r8
 4600 000e AB4B     		ldr	r3, .L338
 4601              	.LVL770:
 4602 0010 53F82840 		ldr	r4, [r3, r8, lsl #2]
 4603 0014 00F1010A 		add	r10, r0, #1
 4604 0018 0AFB04FB 		mul	fp, r10, r4
 4605              	.LVL771:
 4606              	.LBE336:
 4607              	.LBE335:
 4608              	.LBB337:
 4609              	.LBB338:
  48:..\..\..\liblc3\src/tables.h **** }
  49:..\..\..\liblc3\src/tables.h **** 
  50:..\..\..\liblc3\src/tables.h **** static inline int lc3_ne(enum lc3_dt dt, enum lc3_srate sr) {
  51:..\..\..\liblc3\src/tables.h ****     return lc3_ne_2m5[sr] * (1 + dt);
  52:..\..\..\liblc3\src/tables.h **** }
  53:..\..\..\liblc3\src/tables.h **** 
  54:..\..\..\liblc3\src/tables.h **** static inline int lc3_nd(enum lc3_dt dt, enum lc3_srate sr) {
  55:..\..\..\liblc3\src/tables.h ****     return ( lc3_ns(dt, sr) +
  56:..\..\..\liblc3\src/tables.h ****         (dt == LC3_DT_7M5 ? lc3_ns_4m[sr] : lc3_ns_2m5[sr]) ) >> 1;
  57:..\..\..\liblc3\src/tables.h **** }
  58:..\..\..\liblc3\src/tables.h **** 
  59:..\..\..\liblc3\src/tables.h **** static inline int lc3_nh(enum lc3_dt dt, enum lc3_srate sr) {
  60:..\..\..\liblc3\src/tables.h ****     return sr > LC3_SRATE_48K_HR ? 0 :
 4610              		.loc 2 60 0
 4611 001c B8F1050F 		cmp	r8, #5
 4612 0020 07D8     		bhi	.L330
  61:..\..\..\liblc3\src/tables.h ****         (8 + (dt == LC3_DT_7M5)) * lc3_ns_2m5[sr];
 4613              		.loc 2 61 0
 4614 0022 0228     		cmp	r0, #2
 4615 0024 01D1     		bne	.L331
 4616 0026 0923     		movs	r3, #9
 4617 0028 00E0     		b	.L304
 4618              	.L331:
 4619 002a 0823     		movs	r3, #8
 4620              	.L304:
  60:..\..\..\liblc3\src/tables.h ****         (8 + (dt == LC3_DT_7M5)) * lc3_ns_2m5[sr];
 4621              		.loc 2 60 0
 4622 002c 04FB03F3 		mul	r3, r4, r3
 4623 0030 00E0     		b	.L303
 4624              	.L330:
 4625 0032 0023     		movs	r3, #0
 4626              	.L303:
 4627              	.LVL772:
 4628              	.LBE338:
 4629              	.LBE337:
 859:..\..\..\liblc3\src/ltpf.c ****     int nh = lc3_ns(dt, sr) + lc3_nh(dt, sr);
 4630              		.loc 1 859 0
 4631 0034 5B44     		add	r3, r3, fp
 4632 0036 0793     		str	r3, [sp, #28]
 4633              	.LVL773:
 860:..\..\..\liblc3\src/ltpf.c **** 
 861:..\..\..\liblc3\src/ltpf.c ****     /* --- Filter parameters --- */
 862:..\..\..\liblc3\src/ltpf.c **** 
 863:..\..\..\liblc3\src/ltpf.c ****     int p_idx = data ? data->pitch_index : 0;
ARM GAS  C:\Users\rdn\AppData\Local\Temp\cc5zc0m9.s 			page 107


 4634              		.loc 1 863 0
 4635 0038 09B1     		cbz	r1, .L332
 4636              		.loc 1 863 0 is_stmt 0 discriminator 1
 4637 003a 4B68     		ldr	r3, [r1, #4]
 4638              	.LVL774:
 4639 003c 00E0     		b	.L305
 4640              	.LVL775:
 4641              	.L332:
 4642              		.loc 1 863 0
 4643 003e 0023     		movs	r3, #0
 4644              	.LVL776:
 4645              	.L305:
 864:..\..\..\liblc3\src/ltpf.c ****     int pitch =
 865:..\..\..\liblc3\src/ltpf.c ****         p_idx >= 440 ? (((p_idx     ) - 283) << 2)  :
 4646              		.loc 1 865 0 is_stmt 1 discriminator 4
 4647 0040 B3F5DC7F 		cmp	r3, #440
 4648 0044 03DB     		blt	.L306
 4649              		.loc 1 865 0 is_stmt 0 discriminator 1
 4650 0046 A3F21B13 		subw	r3, r3, #283
 4651              	.LVL777:
 4652 004a 9B00     		lsls	r3, r3, #2
 4653              	.LVL778:
 4654 004c 10E0     		b	.L307
 4655              	.LVL779:
 4656              	.L306:
 866:..\..\..\liblc3\src/ltpf.c ****         p_idx >= 380 ? (((p_idx >> 1) -  63) << 2) + (((p_idx & 1)) << 1) :
 4657              		.loc 1 866 0 is_stmt 1
 4658 004e B3F5BE7F 		cmp	r3, #380
 4659 0052 07DB     		blt	.L308
 4660              		.loc 1 866 0 is_stmt 0 discriminator 1
 4661 0054 5D10     		asrs	r5, r3, #1
 4662 0056 3F3D     		subs	r5, r5, #63
 4663 0058 5B00     		lsls	r3, r3, #1
 4664              	.LVL780:
 4665 005a 03F00203 		and	r3, r3, #2
 4666 005e 03EB8503 		add	r3, r3, r5, lsl #2
 4667 0062 05E0     		b	.L307
 4668              	.LVL781:
 4669              	.L308:
 867:..\..\..\liblc3\src/ltpf.c ****                        (((p_idx >> 2) +  32) << 2) + (((p_idx & 3)) << 0)  ;
 4670              		.loc 1 867 0 is_stmt 1 discriminator 2
 4671 0064 9D10     		asrs	r5, r3, #2
 4672 0066 2035     		adds	r5, r5, #32
 4673 0068 03F00303 		and	r3, r3, #3
 4674              	.LVL782:
 866:..\..\..\liblc3\src/ltpf.c ****         p_idx >= 380 ? (((p_idx >> 1) -  63) << 2) + (((p_idx & 1)) << 1) :
 4675              		.loc 1 866 0 discriminator 2
 4676 006c 03EB8503 		add	r3, r3, r5, lsl #2
 4677              	.L307:
 4678              	.LVL783:
 4679              	.LBB339:
 4680              	.LBB340:
  47:..\..\..\liblc3\src/tables.h **** }
 4681              		.loc 2 47 0
 4682 0070 A400     		lsls	r4, r4, #2
 4683              	.LVL784:
 4684              	.LBE340:
ARM GAS  C:\Users\rdn\AppData\Local\Temp\cc5zc0m9.s 			page 108


 4685              	.LBE339:
 868:..\..\..\liblc3\src/ltpf.c **** 
 869:..\..\..\liblc3\src/ltpf.c ****     pitch = (pitch * lc3_ns(LC3_DT_10M, sr) + 64) / 128;
 4686              		.loc 1 869 0
 4687 0072 04FB03F3 		mul	r3, r4, r3
 4688              	.LVL785:
 4689 0076 4033     		adds	r3, r3, #64
 4690 0078 0693     		str	r3, [sp, #24]
 4691 007a 1E46     		mov	r6, r3
 4692 007c 002B     		cmp	r3, #0
 4693 007e 01DA     		bge	.L309
 4694 0080 03F17F06 		add	r6, r3, #127
 4695              	.L309:
 4696 0084 F611     		asrs	r6, r6, #7
 4697              	.LVL786:
 870:..\..\..\liblc3\src/ltpf.c **** 
 871:..\..\..\liblc3\src/ltpf.c ****     int nbits = (nbytes*8 * (1 + LC3_DT_10M)) / (1 + dt);
 4698              		.loc 1 871 0
 4699 0086 5301     		lsls	r3, r2, #5
 4700 0088 93FBFAF3 		sdiv	r3, r3, r10
 4701              	.LVL787:
 872:..\..\..\liblc3\src/ltpf.c ****     if (dt == LC3_DT_2M5)
 4702              		.loc 1 872 0
 4703 008c 48B9     		cbnz	r0, .L310
 873:..\..\..\liblc3\src/ltpf.c ****       nbits = (6 * nbits + 5) / 10;
 4704              		.loc 1 873 0
 4705 008e 03EB4303 		add	r3, r3, r3, lsl #1
 4706              	.LVL788:
 4707 0092 5A00     		lsls	r2, r3, #1
 4708              	.LVL789:
 4709 0094 0532     		adds	r2, r2, #5
 4710 0096 8A4B     		ldr	r3, .L338+4
 4711 0098 83FB0243 		smull	r4, r3, r3, r2
 4712 009c D217     		asrs	r2, r2, #31
 4713 009e C2EBA303 		rsb	r3, r2, r3, asr #2
 4714              	.LVL790:
 4715              	.L310:
 874:..\..\..\liblc3\src/ltpf.c ****     if (dt == LC3_DT_5M)
 4716              		.loc 1 874 0
 4717 00a2 0128     		cmp	r0, #1
 4718 00a4 00D1     		bne	.L311
 875:..\..\..\liblc3\src/ltpf.c ****       nbits -= 160;
 4719              		.loc 1 875 0
 4720 00a6 A03B     		subs	r3, r3, #160
 4721              	.LVL791:
 4722              	.L311:
 876:..\..\..\liblc3\src/ltpf.c **** 
 877:..\..\..\liblc3\src/ltpf.c ****     int g_idx = LC3_MAX(nbits / 80, (int)(3 + sr)) - (3 + sr);
 4723              		.loc 1 877 0
 4724 00a8 08F1030E 		add	lr, r8, #3
 4725 00ac 844A     		ldr	r2, .L338+4
 4726 00ae 82FB0302 		smull	r0, r2, r2, r3
 4727              	.LVL792:
 4728 00b2 DB17     		asrs	r3, r3, #31
 4729              	.LVL793:
 4730 00b4 C3EB6213 		rsb	r3, r3, r2, asr #5
 4731 00b8 9E45     		cmp	lr, r3
ARM GAS  C:\Users\rdn\AppData\Local\Temp\cc5zc0m9.s 			page 109


 4732 00ba ACBF     		ite	ge
 4733 00bc CEEB0E0E 		rsbge	lr, lr, lr
 4734 00c0 CEEB030E 		rsblt	lr, lr, r3
 4735              	.LVL794:
 878:..\..\..\liblc3\src/ltpf.c ****     bool active = data && data->active && g_idx < 4;
 4736              		.loc 1 878 0
 4737 00c4 31B1     		cbz	r1, .L333
 4738              		.loc 1 878 0 is_stmt 0 discriminator 1
 4739 00c6 0B78     		ldrb	r3, [r1]	@ zero_extendqisi2
 4740 00c8 33B1     		cbz	r3, .L334
 4741              		.loc 1 878 0 discriminator 3
 4742 00ca BEF1030F 		cmp	lr, #3
 4743 00ce 05DD     		ble	.L335
 4744              		.loc 1 878 0
 4745 00d0 0025     		movs	r5, #0
 4746 00d2 04E0     		b	.L312
 4747              	.L333:
 4748 00d4 0025     		movs	r5, #0
 4749 00d6 02E0     		b	.L312
 4750              	.L334:
 4751 00d8 0025     		movs	r5, #0
 4752 00da 00E0     		b	.L312
 4753              	.L335:
 4754 00dc 0125     		movs	r5, #1
 4755              	.L312:
 4756              	.LVL795:
 879:..\..\..\liblc3\src/ltpf.c **** 
 880:..\..\..\liblc3\src/ltpf.c ****     int w = LC3_MAX(4, lc3_ns_4m[sr] >> 4);
 4757              		.loc 1 880 0 is_stmt 1 discriminator 8
 4758 00de 794B     		ldr	r3, .L338+8
 4759 00e0 53F82840 		ldr	r4, [r3, r8, lsl #2]
 4760 00e4 2411     		asrs	r4, r4, #4
 4761 00e6 042C     		cmp	r4, #4
 4762 00e8 B8BF     		it	lt
 4763 00ea 0424     		movlt	r4, #4
 4764              	.LVL796:
 4765              	.LBB341:
 881:..\..\..\liblc3\src/ltpf.c ****     float c[2 * MAX_FILTER_WIDTH];
 882:..\..\..\liblc3\src/ltpf.c **** 
 883:..\..\..\liblc3\src/ltpf.c ****     for (int i = 0; i < w; i++) {
 4766              		.loc 1 883 0 discriminator 8
 4767 00ec 0022     		movs	r2, #0
 4768 00ee 3CE0     		b	.L313
 4769              	.LVL797:
 4770              	.L315:
 4771              	.LBB342:
 884:..\..\..\liblc3\src/ltpf.c ****         float g = active ? 0.4f - 0.05f * g_idx : 0;
 4772              		.loc 1 884 0
 4773 00f0 65B1     		cbz	r5, .L336
 4774              		.loc 1 884 0 is_stmt 0 discriminator 1
 4775 00f2 07EE90EA 		vmov	s15, lr	@ int
 4776 00f6 B8EEE77A 		vcvt.f32.s32	s14, s15
 4777 00fa DFED737A 		vldr.32	s15, .L338+12
 4778 00fe 67EE277A 		vmul.f32	s15, s14, s15
 4779 0102 9FED727A 		vldr.32	s14, .L338+16
 4780 0106 77EE677A 		vsub.f32	s15, s14, s15
 4781 010a 01E0     		b	.L314
ARM GAS  C:\Users\rdn\AppData\Local\Temp\cc5zc0m9.s 			page 110


 4782              	.L336:
 4783              		.loc 1 884 0
 4784 010c DFED707A 		vldr.32	s15, .L338+20
 4785              	.L314:
 4786              	.LVL798:
 885:..\..\..\liblc3\src/ltpf.c ****         c[  i] = g * lc3_ltpf_cden[sr][pitch & 3][(w-1)-i];
 4787              		.loc 1 885 0 is_stmt 1 discriminator 4
 4788 0110 06F00303 		and	r3, r6, #3
 4789 0114 4FEA8C01 		lsl	r1, ip, #2
 4790 0118 0B44     		add	r3, r3, r1
 4791 011a 6E48     		ldr	r0, .L338+24
 4792 011c 50F82300 		ldr	r0, [r0, r3, lsl #2]
 4793 0120 631E     		subs	r3, r4, #1
 4794 0122 9B1A     		subs	r3, r3, r2
 4795 0124 9B00     		lsls	r3, r3, #2
 4796 0126 1844     		add	r0, r0, r3
 4797 0128 90ED007A 		vldr.32	s14, [r0]
 4798 012c 27EE877A 		vmul.f32	s14, s15, s14
 4799 0130 68A8     		add	r0, sp, #416
 4800 0132 00EB8200 		add	r0, r0, r2, lsl #2
 4801 0136 00ED307A 		vstr.32	s14, [r0, #-192]
 886:..\..\..\liblc3\src/ltpf.c ****         c[w+i] = 0.85f * g * lc3_ltpf_cnum[sr][LC3_MIN(g_idx, 3)][(w-1)-i];
 4802              		.loc 1 886 0 discriminator 4
 4803 013a 1019     		adds	r0, r2, r4
 4804 013c 9FED667A 		vldr.32	s14, .L338+28
 4805 0140 67EE877A 		vmul.f32	s15, s15, s14
 4806              	.LVL799:
 4807 0144 BEF1030F 		cmp	lr, #3
 4808 0148 D4BF     		ite	le
 4809 014a 7144     		addle	r1, r1, lr
 4810 014c 0331     		addgt	r1, r1, #3
 4811 014e 634F     		ldr	r7, .L338+32
 4812 0150 57F82110 		ldr	r1, [r7, r1, lsl #2]
 4813 0154 0B44     		add	r3, r3, r1
 4814 0156 93ED007A 		vldr.32	s14, [r3]
 4815 015a 67EE877A 		vmul.f32	s15, s15, s14
 4816 015e 68AB     		add	r3, sp, #416
 4817 0160 03EB8000 		add	r0, r3, r0, lsl #2
 4818 0164 40ED307A 		vstr.32	s15, [r0, #-192]
 4819              	.LBE342:
 883:..\..\..\liblc3\src/ltpf.c ****         float g = active ? 0.4f - 0.05f * g_idx : 0;
 4820              		.loc 1 883 0 discriminator 4
 4821 0168 0132     		adds	r2, r2, #1
 4822              	.LVL800:
 4823              	.L313:
 883:..\..\..\liblc3\src/ltpf.c ****         float g = active ? 0.4f - 0.05f * g_idx : 0;
 4824              		.loc 1 883 0 is_stmt 0 discriminator 2
 4825 016a A242     		cmp	r2, r4
 4826 016c C0DB     		blt	.L315
 4827              	.LBE341:
 887:..\..\..\liblc3\src/ltpf.c ****     }
 888:..\..\..\liblc3\src/ltpf.c **** 
 889:..\..\..\liblc3\src/ltpf.c ****     /* --- Transition handling --- */
 890:..\..\..\liblc3\src/ltpf.c **** 
 891:..\..\..\liblc3\src/ltpf.c ****     int ns = lc3_ns(dt, sr);
 892:..\..\..\liblc3\src/ltpf.c ****     int nt = ns / (1 + dt);
 4828              		.loc 1 892 0 is_stmt 1
ARM GAS  C:\Users\rdn\AppData\Local\Temp\cc5zc0m9.s 			page 111


 4829 016e 9BFBFAF7 		sdiv	r7, fp, r10
 4830              	.LVL801:
 893:..\..\..\liblc3\src/ltpf.c ****     float x0[2][MAX_FILTER_WIDTH];
 894:..\..\..\liblc3\src/ltpf.c **** 
 895:..\..\..\liblc3\src/ltpf.c ****     memcpy(x0[0], ltpf->x, (w-1) * sizeof(float));
 4831              		.loc 1 895 0
 4832 0172 09F16803 		add	r3, r9, #104
 4833 0176 04F1FF3A 		add	r10, r4, #-1
 4834 017a 4FEA8A0A 		lsl	r10, r10, #2
 4835 017e 5246     		mov	r2, r10
 4836              	.LVL802:
 4837 0180 0593     		str	r3, [sp, #20]
 4838 0182 1946     		mov	r1, r3
 4839 0184 08A8     		add	r0, sp, #32
 4840 0186 FFF7FEFF 		bl	memcpy
 4841              	.LVL803:
 896:..\..\..\liblc3\src/ltpf.c ****     memcpy(ltpf->x, x + ns - (w-1), (w-1) * sizeof(float));
 4842              		.loc 1 896 0
 4843 018a C4EB0B01 		rsb	r1, r4, fp
 4844 018e 0131     		adds	r1, r1, #1
 4845 0190 5246     		mov	r2, r10
 4846 0192 749B     		ldr	r3, [sp, #464]
 4847 0194 03EB8101 		add	r1, r3, r1, lsl #2
 4848 0198 0598     		ldr	r0, [sp, #20]
 4849 019a FFF7FEFF 		bl	memcpy
 4850              	.LVL804:
 897:..\..\..\liblc3\src/ltpf.c **** 
 898:..\..\..\liblc3\src/ltpf.c ****     if (active)
 4851              		.loc 1 898 0
 4852 019e 45B1     		cbz	r5, .L316
 899:..\..\..\liblc3\src/ltpf.c ****         memcpy(x0[1], x + nt-(w-1), (w-1) * sizeof(float));
 4853              		.loc 1 899 0
 4854 01a0 391B     		subs	r1, r7, r4
 4855 01a2 0131     		adds	r1, r1, #1
 4856 01a4 5246     		mov	r2, r10
 4857 01a6 749B     		ldr	r3, [sp, #464]
 4858 01a8 03EB8101 		add	r1, r3, r1, lsl #2
 4859 01ac 20A8     		add	r0, sp, #128
 4860 01ae FFF7FEFF 		bl	memcpy
 4861              	.LVL805:
 4862              	.L316:
 900:..\..\..\liblc3\src/ltpf.c **** 
 901:..\..\..\liblc3\src/ltpf.c ****     if (!ltpf->active && active)
 4863              		.loc 1 901 0
 4864 01b2 99F80030 		ldrb	r3, [r9]	@ zero_extendqisi2
 4865 01b6 C3B9     		cbnz	r3, .L317
 4866              		.loc 1 901 0 is_stmt 0 discriminator 1
 4867 01b8 BDB1     		cbz	r5, .L317
 902:..\..\..\liblc3\src/ltpf.c ****         synthesize[sr](xh, nh, pitch/4, x0[0], x, nt, c, 1);
 4868              		.loc 1 902 0 is_stmt 1
 4869 01ba 494B     		ldr	r3, .L338+36
 4870 01bc 03EB8803 		add	r3, r3, r8, lsl #2
 4871 01c0 D3F83CA8 		ldr	r10, [r3, #2108]
 4872 01c4 069B     		ldr	r3, [sp, #24]
 4873 01c6 1A46     		mov	r2, r3
 4874 01c8 002B     		cmp	r3, #0
 4875 01ca 01DA     		bge	.L318
ARM GAS  C:\Users\rdn\AppData\Local\Temp\cc5zc0m9.s 			page 112


 4876 01cc 03F2FF12 		addw	r2, r3, #511
 4877              	.L318:
 4878 01d0 0123     		movs	r3, #1
 4879 01d2 0393     		str	r3, [sp, #12]
 4880 01d4 38AB     		add	r3, sp, #224
 4881 01d6 0293     		str	r3, [sp, #8]
 4882 01d8 0197     		str	r7, [sp, #4]
 4883 01da 749B     		ldr	r3, [sp, #464]
 4884 01dc 0093     		str	r3, [sp]
 4885 01de 08AB     		add	r3, sp, #32
 4886 01e0 5212     		asrs	r2, r2, #9
 4887 01e2 0799     		ldr	r1, [sp, #28]
 4888 01e4 7398     		ldr	r0, [sp, #460]
 4889 01e6 D047     		blx	r10
 4890              	.LVL806:
 4891 01e8 8AE0     		b	.L319
 4892              	.L317:
 903:..\..\..\liblc3\src/ltpf.c ****     else if (ltpf->active && !active)
 4893              		.loc 1 903 0
 4894 01ea D3B1     		cbz	r3, .L320
 4895              		.loc 1 903 0 is_stmt 0 discriminator 1
 4896 01ec CDB9     		cbnz	r5, .L320
 904:..\..\..\liblc3\src/ltpf.c ****         synthesize[sr](xh, nh, ltpf->pitch/4, x0[0], x, nt, ltpf->c, -1);
 4897              		.loc 1 904 0 is_stmt 1
 4898 01ee 3C4B     		ldr	r3, .L338+36
 4899 01f0 03EB8803 		add	r3, r3, r8, lsl #2
 4900 01f4 D3F83CA8 		ldr	r10, [r3, #2108]
 4901 01f8 D9F80430 		ldr	r3, [r9, #4]
 4902 01fc 09F10801 		add	r1, r9, #8
 4903 0200 1A46     		mov	r2, r3
 4904 0202 002B     		cmp	r3, #0
 4905 0204 00DA     		bge	.L321
 4906 0206 DA1C     		adds	r2, r3, #3
 4907              	.L321:
 4908 0208 4FF0FF33 		mov	r3, #-1
 4909 020c 0393     		str	r3, [sp, #12]
 4910 020e 0291     		str	r1, [sp, #8]
 4911 0210 0197     		str	r7, [sp, #4]
 4912 0212 749B     		ldr	r3, [sp, #464]
 4913 0214 0093     		str	r3, [sp]
 4914 0216 08AB     		add	r3, sp, #32
 4915 0218 9210     		asrs	r2, r2, #2
 4916 021a 0799     		ldr	r1, [sp, #28]
 4917 021c 7398     		ldr	r0, [sp, #460]
 4918 021e D047     		blx	r10
 4919              	.LVL807:
 4920 0220 6EE0     		b	.L319
 4921              	.L320:
 905:..\..\..\liblc3\src/ltpf.c ****     else if (ltpf->active && active && ltpf->pitch == pitch)
 4922              		.loc 1 905 0
 4923 0222 E3B1     		cbz	r3, .L322
 4924              		.loc 1 905 0 is_stmt 0 discriminator 1
 4925 0224 DDB1     		cbz	r5, .L322
 4926              		.loc 1 905 0 discriminator 2
 4927 0226 D9F80420 		ldr	r2, [r9, #4]
 4928 022a 9642     		cmp	r6, r2
 4929 022c 17D1     		bne	.L322
ARM GAS  C:\Users\rdn\AppData\Local\Temp\cc5zc0m9.s 			page 113


 906:..\..\..\liblc3\src/ltpf.c ****         synthesize[sr](xh, nh, pitch/4, x0[0], x, nt, c, 0);
 4930              		.loc 1 906 0 is_stmt 1
 4931 022e 2C4B     		ldr	r3, .L338+36
 4932 0230 03EB8803 		add	r3, r3, r8, lsl #2
 4933 0234 D3F83CA8 		ldr	r10, [r3, #2108]
 4934 0238 069B     		ldr	r3, [sp, #24]
 4935 023a 1A46     		mov	r2, r3
 4936 023c 002B     		cmp	r3, #0
 4937 023e 01DA     		bge	.L323
 4938 0240 03F2FF12 		addw	r2, r3, #511
 4939              	.L323:
 4940 0244 0023     		movs	r3, #0
 4941 0246 0393     		str	r3, [sp, #12]
 4942 0248 38AB     		add	r3, sp, #224
 4943 024a 0293     		str	r3, [sp, #8]
 4944 024c 0197     		str	r7, [sp, #4]
 4945 024e 749B     		ldr	r3, [sp, #464]
 4946 0250 0093     		str	r3, [sp]
 4947 0252 08AB     		add	r3, sp, #32
 4948 0254 5212     		asrs	r2, r2, #9
 4949 0256 0799     		ldr	r1, [sp, #28]
 4950 0258 7398     		ldr	r0, [sp, #460]
 4951 025a D047     		blx	r10
 4952              	.LVL808:
 4953 025c 50E0     		b	.L319
 4954              	.L322:
 907:..\..\..\liblc3\src/ltpf.c ****     else if (ltpf->active && active) {
 4955              		.loc 1 907 0
 4956 025e 002B     		cmp	r3, #0
 4957 0260 4ED0     		beq	.L319
 4958              		.loc 1 907 0 is_stmt 0 discriminator 1
 4959 0262 002D     		cmp	r5, #0
 4960 0264 4CD0     		beq	.L319
 908:..\..\..\liblc3\src/ltpf.c ****         synthesize[sr](xh, nh, ltpf->pitch/4, x0[0], x, nt, ltpf->c, -1);
 4961              		.loc 1 908 0 is_stmt 1
 4962 0266 1E4B     		ldr	r3, .L338+36
 4963 0268 03EB8803 		add	r3, r3, r8, lsl #2
 4964 026c D3F83CA8 		ldr	r10, [r3, #2108]
 4965 0270 D9F80430 		ldr	r3, [r9, #4]
 4966 0274 09F10801 		add	r1, r9, #8
 4967 0278 1A46     		mov	r2, r3
 4968 027a 002B     		cmp	r3, #0
 4969 027c 00DA     		bge	.L324
 4970 027e DA1C     		adds	r2, r3, #3
 4971              	.L324:
 4972 0280 4FF0FF33 		mov	r3, #-1
 4973 0284 0393     		str	r3, [sp, #12]
 4974 0286 0291     		str	r1, [sp, #8]
 4975 0288 0197     		str	r7, [sp, #4]
 4976 028a 749B     		ldr	r3, [sp, #464]
 4977 028c 0093     		str	r3, [sp]
 4978 028e 08AB     		add	r3, sp, #32
 4979 0290 9210     		asrs	r2, r2, #2
 4980 0292 0799     		ldr	r1, [sp, #28]
 4981 0294 7398     		ldr	r0, [sp, #460]
 4982 0296 D047     		blx	r10
 4983              	.LVL809:
ARM GAS  C:\Users\rdn\AppData\Local\Temp\cc5zc0m9.s 			page 114


 909:..\..\..\liblc3\src/ltpf.c ****         synthesize[sr](xh, nh, pitch/4,
 4984              		.loc 1 909 0
 4985 0298 069A     		ldr	r2, [sp, #24]
 4986 029a 1346     		mov	r3, r2
 4987 029c 002A     		cmp	r2, #0
 4988 029e 01DA     		bge	.L325
 4989 02a0 02F2FF13 		addw	r3, r2, #511
 4990              	.L325:
 4991 02a4 5A12     		asrs	r2, r3, #9
 910:..\..\..\liblc3\src/ltpf.c ****             (x <= xh ? x + nh : x) - (w-1), x, nt, c, 1);
 4992              		.loc 1 910 0
 4993 02a6 749B     		ldr	r3, [sp, #464]
 4994 02a8 7399     		ldr	r1, [sp, #460]
 4995 02aa 8B42     		cmp	r3, r1
 4996 02ac 1AD8     		bhi	.L326
 4997              		.loc 1 910 0 is_stmt 0 discriminator 1
 4998 02ae 079B     		ldr	r3, [sp, #28]
 4999 02b0 0133     		adds	r3, r3, #1
 5000 02b2 7499     		ldr	r1, [sp, #464]
 5001 02b4 01EB8303 		add	r3, r1, r3, lsl #2
 5002 02b8 16E0     		b	.L327
 5003              	.L339:
 5004 02ba 00BF     		.align	2
 5005              	.L338:
 5006 02bc 00000000 		.word	lc3_ns_2m5
 5007 02c0 67666666 		.word	1717986919
 5008 02c4 00000000 		.word	lc3_ns_4m
 5009 02c8 CDCC4C3D 		.word	1028443341
 5010 02cc CDCCCC3E 		.word	1053609165
 5011 02d0 00000000 		.word	0
 5012 02d4 00000000 		.word	lc3_ltpf_cden
 5013 02d8 9A99593F 		.word	1062836634
 5014 02dc 00000000 		.word	lc3_ltpf_cnum
 5015 02e0 00000000 		.word	.LANCHOR0
 5016              	.L326:
 5017              		.loc 1 910 0 discriminator 2
 5018 02e4 749B     		ldr	r3, [sp, #464]
 5019 02e6 0433     		adds	r3, r3, #4
 5020              	.L327:
 909:..\..\..\liblc3\src/ltpf.c ****         synthesize[sr](xh, nh, pitch/4,
 5021              		.loc 1 909 0 is_stmt 1 discriminator 4
 5022 02e8 0121     		movs	r1, #1
 5023 02ea 0391     		str	r1, [sp, #12]
 5024 02ec 38A9     		add	r1, sp, #224
 5025 02ee 0291     		str	r1, [sp, #8]
 5026 02f0 0197     		str	r7, [sp, #4]
 5027 02f2 7499     		ldr	r1, [sp, #464]
 5028 02f4 0091     		str	r1, [sp]
 5029 02f6 A3EB8403 		sub	r3, r3, r4, lsl #2
 5030 02fa 0799     		ldr	r1, [sp, #28]
 5031 02fc 7398     		ldr	r0, [sp, #460]
 5032 02fe D047     		blx	r10
 5033              	.LVL810:
 5034              	.L319:
 911:..\..\..\liblc3\src/ltpf.c ****     }
 912:..\..\..\liblc3\src/ltpf.c **** 
 913:..\..\..\liblc3\src/ltpf.c ****     /* --- Remainder --- */
ARM GAS  C:\Users\rdn\AppData\Local\Temp\cc5zc0m9.s 			page 115


 914:..\..\..\liblc3\src/ltpf.c **** 
 915:..\..\..\liblc3\src/ltpf.c ****     if (active && ns > nt)
 5035              		.loc 1 915 0
 5036 0300 E5B1     		cbz	r5, .L328
 5037              		.loc 1 915 0 is_stmt 0 discriminator 1
 5038 0302 5F45     		cmp	r7, fp
 5039 0304 1ADA     		bge	.L328
 916:..\..\..\liblc3\src/ltpf.c ****         synthesize[sr](xh, nh, pitch/4, x0[1], x + nt, ns-nt, c, 0);
 5040              		.loc 1 916 0 is_stmt 1
 5041 0306 144B     		ldr	r3, .L340
 5042 0308 03EB8808 		add	r8, r3, r8, lsl #2
 5043 030c D8F83C88 		ldr	r8, [r8, #2108]
 5044 0310 BB00     		lsls	r3, r7, #2
 5045 0312 0699     		ldr	r1, [sp, #24]
 5046 0314 0A46     		mov	r2, r1
 5047 0316 0029     		cmp	r1, #0
 5048 0318 01DA     		bge	.L329
 5049 031a 01F2FF12 		addw	r2, r1, #511
 5050              	.L329:
 5051 031e 0021     		movs	r1, #0
 5052 0320 0391     		str	r1, [sp, #12]
 5053 0322 38A9     		add	r1, sp, #224
 5054 0324 0291     		str	r1, [sp, #8]
 5055 0326 C7EB0B07 		rsb	r7, r7, fp
 5056              	.LVL811:
 5057 032a 0197     		str	r7, [sp, #4]
 5058 032c 7499     		ldr	r1, [sp, #464]
 5059 032e 0B44     		add	r3, r3, r1
 5060 0330 0093     		str	r3, [sp]
 5061 0332 20AB     		add	r3, sp, #128
 5062 0334 5212     		asrs	r2, r2, #9
 5063 0336 0799     		ldr	r1, [sp, #28]
 5064 0338 7398     		ldr	r0, [sp, #460]
 5065 033a C047     		blx	r8
 5066              	.LVL812:
 5067              	.L328:
 917:..\..\..\liblc3\src/ltpf.c **** 
 918:..\..\..\liblc3\src/ltpf.c ****     /* --- Update state --- */
 919:..\..\..\liblc3\src/ltpf.c **** 
 920:..\..\..\liblc3\src/ltpf.c ****     ltpf->active = active;
 5068              		.loc 1 920 0
 5069 033c 89F80050 		strb	r5, [r9]
 921:..\..\..\liblc3\src/ltpf.c ****     ltpf->pitch = pitch;
 5070              		.loc 1 921 0
 5071 0340 C9F80460 		str	r6, [r9, #4]
 922:..\..\..\liblc3\src/ltpf.c ****     memcpy(ltpf->c, c, 2*w * sizeof(*ltpf->c));
 5072              		.loc 1 922 0
 5073 0344 E200     		lsls	r2, r4, #3
 5074 0346 38A9     		add	r1, sp, #224
 5075 0348 09F10800 		add	r0, r9, #8
 5076 034c FFF7FEFF 		bl	memcpy
 5077              	.LVL813:
 923:..\..\..\liblc3\src/ltpf.c **** }
 5078              		.loc 1 923 0
 5079 0350 69B0     		add	sp, sp, #420
 5080              		.cfi_def_cfa_offset 36
 5081              		@ sp needed
ARM GAS  C:\Users\rdn\AppData\Local\Temp\cc5zc0m9.s 			page 116


 5082 0352 BDE8F08F 		pop	{r4, r5, r6, r7, r8, r9, r10, fp, pc}
 5083              	.LVL814:
 5084              	.L341:
 5085 0356 00BF     		.align	2
 5086              	.L340:
 5087 0358 00000000 		.word	.LANCHOR0
 5088              		.cfi_endproc
 5089              	.LFE44:
 5090              		.size	lc3_ltpf_synthesize, .-lc3_ltpf_synthesize
 5091              		.section	.text.lc3_ltpf_disable,"ax",%progbits
 5092              		.align	2
 5093              		.global	lc3_ltpf_disable
 5094              		.thumb
 5095              		.thumb_func
 5096              		.type	lc3_ltpf_disable, %function
 5097              	lc3_ltpf_disable:
 5098              	.LFB45:
 924:..\..\..\liblc3\src/ltpf.c **** 
 925:..\..\..\liblc3\src/ltpf.c **** 
 926:..\..\..\liblc3\src/ltpf.c **** /* ----------------------------------------------------------------------------
 927:..\..\..\liblc3\src/ltpf.c ****  *  Bitstream data
 928:..\..\..\liblc3\src/ltpf.c ****  * -------------------------------------------------------------------------- */
 929:..\..\..\liblc3\src/ltpf.c **** 
 930:..\..\..\liblc3\src/ltpf.c **** /**
 931:..\..\..\liblc3\src/ltpf.c ****  * LTPF disable
 932:..\..\..\liblc3\src/ltpf.c ****  */
 933:..\..\..\liblc3\src/ltpf.c **** void lc3_ltpf_disable(struct lc3_ltpf_data *data)
 934:..\..\..\liblc3\src/ltpf.c **** {
 5099              		.loc 1 934 0
 5100              		.cfi_startproc
 5101              		@ args = 0, pretend = 0, frame = 0
 5102              		@ frame_needed = 0, uses_anonymous_args = 0
 5103              		@ link register save eliminated.
 5104              	.LVL815:
 935:..\..\..\liblc3\src/ltpf.c ****     data->active = false;
 5105              		.loc 1 935 0
 5106 0000 0023     		movs	r3, #0
 5107 0002 0370     		strb	r3, [r0]
 5108 0004 7047     		bx	lr
 5109              		.cfi_endproc
 5110              	.LFE45:
 5111              		.size	lc3_ltpf_disable, .-lc3_ltpf_disable
 5112 0006 00BF     		.section	.text.lc3_ltpf_get_nbits,"ax",%progbits
 5113              		.align	2
 5114              		.global	lc3_ltpf_get_nbits
 5115              		.thumb
 5116              		.thumb_func
 5117              		.type	lc3_ltpf_get_nbits, %function
 5118              	lc3_ltpf_get_nbits:
 5119              	.LFB46:
 936:..\..\..\liblc3\src/ltpf.c **** }
 937:..\..\..\liblc3\src/ltpf.c **** 
 938:..\..\..\liblc3\src/ltpf.c **** /**
 939:..\..\..\liblc3\src/ltpf.c ****  * Return number of bits coding the bitstream data
 940:..\..\..\liblc3\src/ltpf.c ****  */
 941:..\..\..\liblc3\src/ltpf.c **** int lc3_ltpf_get_nbits(bool pitch)
 942:..\..\..\liblc3\src/ltpf.c **** {
ARM GAS  C:\Users\rdn\AppData\Local\Temp\cc5zc0m9.s 			page 117


 5120              		.loc 1 942 0
 5121              		.cfi_startproc
 5122              		@ args = 0, pretend = 0, frame = 0
 5123              		@ frame_needed = 0, uses_anonymous_args = 0
 5124              		@ link register save eliminated.
 5125              	.LVL816:
 943:..\..\..\liblc3\src/ltpf.c ****     return 1 + 10 * pitch;
 5126              		.loc 1 943 0
 5127 0000 00EB8000 		add	r0, r0, r0, lsl #2
 5128              	.LVL817:
 5129 0004 4300     		lsls	r3, r0, #1
 944:..\..\..\liblc3\src/ltpf.c **** }
 5130              		.loc 1 944 0
 5131 0006 581C     		adds	r0, r3, #1
 5132 0008 7047     		bx	lr
 5133              		.cfi_endproc
 5134              	.LFE46:
 5135              		.size	lc3_ltpf_get_nbits, .-lc3_ltpf_get_nbits
 5136 000a 00BF     		.section	.text.lc3_ltpf_put_data,"ax",%progbits
 5137              		.align	2
 5138              		.global	lc3_ltpf_put_data
 5139              		.thumb
 5140              		.thumb_func
 5141              		.type	lc3_ltpf_put_data, %function
 5142              	lc3_ltpf_put_data:
 5143              	.LFB47:
 945:..\..\..\liblc3\src/ltpf.c **** 
 946:..\..\..\liblc3\src/ltpf.c **** /**
 947:..\..\..\liblc3\src/ltpf.c ****  * Put bitstream data
 948:..\..\..\liblc3\src/ltpf.c ****  */
 949:..\..\..\liblc3\src/ltpf.c **** void lc3_ltpf_put_data(lc3_bits_t *bits,
 950:..\..\..\liblc3\src/ltpf.c ****     const struct lc3_ltpf_data *data)
 951:..\..\..\liblc3\src/ltpf.c **** {
 5144              		.loc 1 951 0
 5145              		.cfi_startproc
 5146              		@ args = 0, pretend = 0, frame = 0
 5147              		@ frame_needed = 0, uses_anonymous_args = 0
 5148              	.LVL818:
 5149 0000 38B5     		push	{r3, r4, r5, lr}
 5150              		.cfi_def_cfa_offset 16
 5151              		.cfi_offset 3, -16
 5152              		.cfi_offset 4, -12
 5153              		.cfi_offset 5, -8
 5154              		.cfi_offset 14, -4
 5155 0002 0446     		mov	r4, r0
 5156 0004 0D46     		mov	r5, r1
 952:..\..\..\liblc3\src/ltpf.c ****     lc3_put_bit(bits, data->active);
 5157              		.loc 1 952 0
 5158 0006 0978     		ldrb	r1, [r1]	@ zero_extendqisi2
 5159              	.LVL819:
 5160              	.LBB349:
 5161              	.LBB350:
 5162              	.LBB351:
 5163              	.LBB352:
 5164              		.file 3 "..\\..\\..\\liblc3\\src\\bits.h"
   1:..\..\..\liblc3\src/bits.h **** /******************************************************************************
   2:..\..\..\liblc3\src/bits.h ****  *
ARM GAS  C:\Users\rdn\AppData\Local\Temp\cc5zc0m9.s 			page 118


   3:..\..\..\liblc3\src/bits.h ****  *  Copyright 2022 Google LLC
   4:..\..\..\liblc3\src/bits.h ****  *
   5:..\..\..\liblc3\src/bits.h ****  *  Licensed under the Apache License, Version 2.0 (the "License");
   6:..\..\..\liblc3\src/bits.h ****  *  you may not use this file except in compliance with the License.
   7:..\..\..\liblc3\src/bits.h ****  *  You may obtain a copy of the License at:
   8:..\..\..\liblc3\src/bits.h ****  *
   9:..\..\..\liblc3\src/bits.h ****  *  http://www.apache.org/licenses/LICENSE-2.0
  10:..\..\..\liblc3\src/bits.h ****  *
  11:..\..\..\liblc3\src/bits.h ****  *  Unless required by applicable law or agreed to in writing, software
  12:..\..\..\liblc3\src/bits.h ****  *  distributed under the License is distributed on an "AS IS" BASIS,
  13:..\..\..\liblc3\src/bits.h ****  *  WITHOUT WARRANTIES OR CONDITIONS OF ANY KIND, either express or implied.
  14:..\..\..\liblc3\src/bits.h ****  *  See the License for the specific language governing permissions and
  15:..\..\..\liblc3\src/bits.h ****  *  limitations under the License.
  16:..\..\..\liblc3\src/bits.h ****  *
  17:..\..\..\liblc3\src/bits.h ****  ******************************************************************************/
  18:..\..\..\liblc3\src/bits.h **** 
  19:..\..\..\liblc3\src/bits.h **** /**
  20:..\..\..\liblc3\src/bits.h ****  * The bitstream is written by the 2 ends of the buffer :
  21:..\..\..\liblc3\src/bits.h ****  *
  22:..\..\..\liblc3\src/bits.h ****  * - Arthmetic coder put bits while increasing memory addresses
  23:..\..\..\liblc3\src/bits.h ****  *   in the buffer (forward)
  24:..\..\..\liblc3\src/bits.h ****  *
  25:..\..\..\liblc3\src/bits.h ****  * - Plain bits are puts starting the end of the buffer, with memeory
  26:..\..\..\liblc3\src/bits.h ****  *   addresses decreasing (backward)
  27:..\..\..\liblc3\src/bits.h ****  *
  28:..\..\..\liblc3\src/bits.h ****  *       .---------------------------------------------------.
  29:..\..\..\liblc3\src/bits.h ****  *       | > > > > > > > > > > :         : < < < < < < < < < |
  30:..\..\..\liblc3\src/bits.h ****  *       '---------------------------------------------------'
  31:..\..\..\liblc3\src/bits.h ****  *       |---------------------> - - - - - - - - - - - - - ->|
  32:..\..\..\liblc3\src/bits.h ****  *                              |< - - - <-------------------|
  33:..\..\..\liblc3\src/bits.h ****  *          Arithmetic coding                  Plain bits
  34:..\..\..\liblc3\src/bits.h ****  *          `lc3_put_symbol()`               `lc3_put_bits()`
  35:..\..\..\liblc3\src/bits.h ****  *
  36:..\..\..\liblc3\src/bits.h ****  * - The forward writing is protected against buffer overflow, it cannot
  37:..\..\..\liblc3\src/bits.h ****  *   write after the buffer, but can overwrite plain bits previously
  38:..\..\..\liblc3\src/bits.h ****  *   written in the buffer.
  39:..\..\..\liblc3\src/bits.h ****  *
  40:..\..\..\liblc3\src/bits.h ****  * - The backward writing is protected against overwrite of the arithmetic
  41:..\..\..\liblc3\src/bits.h ****  *   coder bitstream. In such way, the backward bitstream is always limited
  42:..\..\..\liblc3\src/bits.h ****  *   by the aritmetic coder bitstream, and can be overwritten by him.
  43:..\..\..\liblc3\src/bits.h ****  *
  44:..\..\..\liblc3\src/bits.h ****  *       .---------------------------------------------------.
  45:..\..\..\liblc3\src/bits.h ****  *       | > > > > > > > > > > :         : < < < < < < < < < |
  46:..\..\..\liblc3\src/bits.h ****  *       '---------------------------------------------------'
  47:..\..\..\liblc3\src/bits.h ****  *       |---------------------> - - - - - - - - - - - - - ->|
  48:..\..\..\liblc3\src/bits.h ****  *       |< - - - - - - - - - - -  - - - <-------------------|
  49:..\..\..\liblc3\src/bits.h ****  *          Arithmetic coding                  Plain bits
  50:..\..\..\liblc3\src/bits.h ****  *          `lc3_get_symbol()`               `lc3_get_bits()`
  51:..\..\..\liblc3\src/bits.h ****  *
  52:..\..\..\liblc3\src/bits.h ****  * - Reading is limited to read of the complementary end of the buffer.
  53:..\..\..\liblc3\src/bits.h ****  *
  54:..\..\..\liblc3\src/bits.h ****  * - The procedure `lc3_check_bits()` returns indication that read has been
  55:..\..\..\liblc3\src/bits.h ****  *   made crossing the other bit plane.
  56:..\..\..\liblc3\src/bits.h ****  *
  57:..\..\..\liblc3\src/bits.h ****  */
  58:..\..\..\liblc3\src/bits.h **** 
  59:..\..\..\liblc3\src/bits.h **** #ifndef __LC3_BITS_H
ARM GAS  C:\Users\rdn\AppData\Local\Temp\cc5zc0m9.s 			page 119


  60:..\..\..\liblc3\src/bits.h **** #define __LC3_BITS_H
  61:..\..\..\liblc3\src/bits.h **** 
  62:..\..\..\liblc3\src/bits.h **** #include "common.h"
  63:..\..\..\liblc3\src/bits.h **** 
  64:..\..\..\liblc3\src/bits.h **** 
  65:..\..\..\liblc3\src/bits.h **** /**
  66:..\..\..\liblc3\src/bits.h ****  * Bitstream mode
  67:..\..\..\liblc3\src/bits.h ****  */
  68:..\..\..\liblc3\src/bits.h **** 
  69:..\..\..\liblc3\src/bits.h **** enum lc3_bits_mode {
  70:..\..\..\liblc3\src/bits.h ****     LC3_BITS_MODE_READ,
  71:..\..\..\liblc3\src/bits.h ****     LC3_BITS_MODE_WRITE,
  72:..\..\..\liblc3\src/bits.h **** };
  73:..\..\..\liblc3\src/bits.h **** 
  74:..\..\..\liblc3\src/bits.h **** /**
  75:..\..\..\liblc3\src/bits.h ****  * Arithmetic coder symbol interval
  76:..\..\..\liblc3\src/bits.h ****  * The model split the interval in 17 symbols
  77:..\..\..\liblc3\src/bits.h ****  */
  78:..\..\..\liblc3\src/bits.h **** 
  79:..\..\..\liblc3\src/bits.h **** struct lc3_ac_symbol {
  80:..\..\..\liblc3\src/bits.h ****     uint16_t low   : 16;
  81:..\..\..\liblc3\src/bits.h ****     uint16_t range : 16;
  82:..\..\..\liblc3\src/bits.h **** };
  83:..\..\..\liblc3\src/bits.h **** 
  84:..\..\..\liblc3\src/bits.h **** struct lc3_ac_model {
  85:..\..\..\liblc3\src/bits.h ****     struct lc3_ac_symbol s[17];
  86:..\..\..\liblc3\src/bits.h **** };
  87:..\..\..\liblc3\src/bits.h **** 
  88:..\..\..\liblc3\src/bits.h **** /**
  89:..\..\..\liblc3\src/bits.h ****  * Bitstream context
  90:..\..\..\liblc3\src/bits.h ****  */
  91:..\..\..\liblc3\src/bits.h **** 
  92:..\..\..\liblc3\src/bits.h **** #define LC3_ACCU_BITS (int)(8 * sizeof(unsigned))
  93:..\..\..\liblc3\src/bits.h **** 
  94:..\..\..\liblc3\src/bits.h **** struct lc3_bits_accu {
  95:..\..\..\liblc3\src/bits.h ****     unsigned v;
  96:..\..\..\liblc3\src/bits.h ****     int n, nover;
  97:..\..\..\liblc3\src/bits.h **** };
  98:..\..\..\liblc3\src/bits.h **** 
  99:..\..\..\liblc3\src/bits.h **** #define LC3_AC_BITS (int)(24)
 100:..\..\..\liblc3\src/bits.h **** 
 101:..\..\..\liblc3\src/bits.h **** struct lc3_bits_ac {
 102:..\..\..\liblc3\src/bits.h ****     unsigned low, range;
 103:..\..\..\liblc3\src/bits.h ****     int cache, carry, carry_count;
 104:..\..\..\liblc3\src/bits.h ****     bool error;
 105:..\..\..\liblc3\src/bits.h **** };
 106:..\..\..\liblc3\src/bits.h **** 
 107:..\..\..\liblc3\src/bits.h **** struct lc3_bits_buffer {
 108:..\..\..\liblc3\src/bits.h ****     const uint8_t *start, *end;
 109:..\..\..\liblc3\src/bits.h ****     uint8_t *p_fw, *p_bw;
 110:..\..\..\liblc3\src/bits.h **** };
 111:..\..\..\liblc3\src/bits.h **** 
 112:..\..\..\liblc3\src/bits.h **** typedef struct lc3_bits {
 113:..\..\..\liblc3\src/bits.h ****     enum lc3_bits_mode mode;
 114:..\..\..\liblc3\src/bits.h ****     struct lc3_bits_ac ac;
 115:..\..\..\liblc3\src/bits.h ****     struct lc3_bits_accu accu;
 116:..\..\..\liblc3\src/bits.h ****     struct lc3_bits_buffer buffer;
ARM GAS  C:\Users\rdn\AppData\Local\Temp\cc5zc0m9.s 			page 120


 117:..\..\..\liblc3\src/bits.h **** } lc3_bits_t;
 118:..\..\..\liblc3\src/bits.h **** 
 119:..\..\..\liblc3\src/bits.h **** 
 120:..\..\..\liblc3\src/bits.h **** /**
 121:..\..\..\liblc3\src/bits.h ****  * Setup bitstream reading/writing
 122:..\..\..\liblc3\src/bits.h ****  * bits            Bitstream context
 123:..\..\..\liblc3\src/bits.h ****  * mode            Either READ or WRITE mode
 124:..\..\..\liblc3\src/bits.h ****  * buffer, len     Output buffer and length (in bytes)
 125:..\..\..\liblc3\src/bits.h ****  */
 126:..\..\..\liblc3\src/bits.h **** void lc3_setup_bits(lc3_bits_t *bits,
 127:..\..\..\liblc3\src/bits.h ****     enum lc3_bits_mode mode, void *buffer, int len);
 128:..\..\..\liblc3\src/bits.h **** 
 129:..\..\..\liblc3\src/bits.h **** /**
 130:..\..\..\liblc3\src/bits.h ****  * Return number of bits left in the bitstream
 131:..\..\..\liblc3\src/bits.h ****  * bits            Bitstream context
 132:..\..\..\liblc3\src/bits.h ****  * return          Number of bits left
 133:..\..\..\liblc3\src/bits.h ****  */
 134:..\..\..\liblc3\src/bits.h **** int lc3_get_bits_left(const lc3_bits_t *bits);
 135:..\..\..\liblc3\src/bits.h **** 
 136:..\..\..\liblc3\src/bits.h **** /**
 137:..\..\..\liblc3\src/bits.h ****  * Check if error occured on bitstream reading/writing
 138:..\..\..\liblc3\src/bits.h ****  * bits            Bitstream context
 139:..\..\..\liblc3\src/bits.h ****  * return          0: Ok  -1: Bitstream overflow or AC reading error
 140:..\..\..\liblc3\src/bits.h ****  */
 141:..\..\..\liblc3\src/bits.h **** int lc3_check_bits(const lc3_bits_t *bits);
 142:..\..\..\liblc3\src/bits.h **** 
 143:..\..\..\liblc3\src/bits.h **** /**
 144:..\..\..\liblc3\src/bits.h ****  * Put a bit
 145:..\..\..\liblc3\src/bits.h ****  * bits            Bitstream context
 146:..\..\..\liblc3\src/bits.h ****  * v               Bit value, 0 or 1
 147:..\..\..\liblc3\src/bits.h ****  */
 148:..\..\..\liblc3\src/bits.h **** static inline void lc3_put_bit(lc3_bits_t *bits, int v);
 149:..\..\..\liblc3\src/bits.h **** 
 150:..\..\..\liblc3\src/bits.h **** /**
 151:..\..\..\liblc3\src/bits.h ****  * Put from 1 to 32 bits
 152:..\..\..\liblc3\src/bits.h ****  * bits            Bitstream context
 153:..\..\..\liblc3\src/bits.h ****  * v, n            Value, in range 0 to 2^n - 1, and bits count (1 to 32)
 154:..\..\..\liblc3\src/bits.h ****  */
 155:..\..\..\liblc3\src/bits.h **** static inline void lc3_put_bits(lc3_bits_t *bits, unsigned v, int n);
 156:..\..\..\liblc3\src/bits.h **** 
 157:..\..\..\liblc3\src/bits.h **** /**
 158:..\..\..\liblc3\src/bits.h ****  * Put arithmetic coder symbol
 159:..\..\..\liblc3\src/bits.h ****  * bits            Bitstream context
 160:..\..\..\liblc3\src/bits.h ****  * model, s        Model distribution and symbol value
 161:..\..\..\liblc3\src/bits.h ****  */
 162:..\..\..\liblc3\src/bits.h **** static inline void lc3_put_symbol(lc3_bits_t *bits,
 163:..\..\..\liblc3\src/bits.h ****     const struct lc3_ac_model *model, unsigned s);
 164:..\..\..\liblc3\src/bits.h **** 
 165:..\..\..\liblc3\src/bits.h **** /**
 166:..\..\..\liblc3\src/bits.h ****  * Flush and terminate bitstream writing
 167:..\..\..\liblc3\src/bits.h ****  * bits            Bitstream context
 168:..\..\..\liblc3\src/bits.h ****  */
 169:..\..\..\liblc3\src/bits.h **** void lc3_flush_bits(lc3_bits_t *bits);
 170:..\..\..\liblc3\src/bits.h **** 
 171:..\..\..\liblc3\src/bits.h **** /**
 172:..\..\..\liblc3\src/bits.h ****  * Get a bit
 173:..\..\..\liblc3\src/bits.h ****  * bits            Bitstream context
ARM GAS  C:\Users\rdn\AppData\Local\Temp\cc5zc0m9.s 			page 121


 174:..\..\..\liblc3\src/bits.h ****  */
 175:..\..\..\liblc3\src/bits.h **** static inline int lc3_get_bit(lc3_bits_t *bits);
 176:..\..\..\liblc3\src/bits.h **** 
 177:..\..\..\liblc3\src/bits.h **** /**
 178:..\..\..\liblc3\src/bits.h ****  * Get from 1 to 32 bits
 179:..\..\..\liblc3\src/bits.h ****  * bits            Bitstream context
 180:..\..\..\liblc3\src/bits.h ****  * n               Number of bits to read (1 to 32)
 181:..\..\..\liblc3\src/bits.h ****  * return          The value read
 182:..\..\..\liblc3\src/bits.h ****  */
 183:..\..\..\liblc3\src/bits.h **** static inline unsigned lc3_get_bits(lc3_bits_t *bits,  int n);
 184:..\..\..\liblc3\src/bits.h **** 
 185:..\..\..\liblc3\src/bits.h **** /**
 186:..\..\..\liblc3\src/bits.h ****  * Get arithmetic coder symbol
 187:..\..\..\liblc3\src/bits.h ****  * bits            Bitstream context
 188:..\..\..\liblc3\src/bits.h ****  * model           Model distribution
 189:..\..\..\liblc3\src/bits.h ****  * return          The value read
 190:..\..\..\liblc3\src/bits.h ****  */
 191:..\..\..\liblc3\src/bits.h **** static inline unsigned lc3_get_symbol(lc3_bits_t *bits,
 192:..\..\..\liblc3\src/bits.h ****     const struct lc3_ac_model *model);
 193:..\..\..\liblc3\src/bits.h **** 
 194:..\..\..\liblc3\src/bits.h **** 
 195:..\..\..\liblc3\src/bits.h **** 
 196:..\..\..\liblc3\src/bits.h **** /* ----------------------------------------------------------------------------
 197:..\..\..\liblc3\src/bits.h ****  *  Inline implementations
 198:..\..\..\liblc3\src/bits.h ****  * -------------------------------------------------------------------------- */
 199:..\..\..\liblc3\src/bits.h **** 
 200:..\..\..\liblc3\src/bits.h **** void lc3_put_bits_generic(lc3_bits_t *bits, unsigned v, int n);
 201:..\..\..\liblc3\src/bits.h **** unsigned lc3_get_bits_generic(struct lc3_bits *bits, int n);
 202:..\..\..\liblc3\src/bits.h **** 
 203:..\..\..\liblc3\src/bits.h **** void lc3_ac_read_renorm(lc3_bits_t *bits);
 204:..\..\..\liblc3\src/bits.h **** void lc3_ac_write_renorm(lc3_bits_t *bits);
 205:..\..\..\liblc3\src/bits.h **** 
 206:..\..\..\liblc3\src/bits.h **** 
 207:..\..\..\liblc3\src/bits.h **** /**
 208:..\..\..\liblc3\src/bits.h ****  * Put a bit
 209:..\..\..\liblc3\src/bits.h ****  */
 210:..\..\..\liblc3\src/bits.h **** LC3_HOT static inline void lc3_put_bit(lc3_bits_t *bits, int v)
 211:..\..\..\liblc3\src/bits.h **** {
 212:..\..\..\liblc3\src/bits.h ****     lc3_put_bits(bits, v, 1);
 213:..\..\..\liblc3\src/bits.h **** }
 214:..\..\..\liblc3\src/bits.h **** 
 215:..\..\..\liblc3\src/bits.h **** /**
 216:..\..\..\liblc3\src/bits.h ****  * Put from 1 to 32 bits
 217:..\..\..\liblc3\src/bits.h ****  */
 218:..\..\..\liblc3\src/bits.h **** LC3_HOT static inline void lc3_put_bits(
 219:..\..\..\liblc3\src/bits.h ****     struct lc3_bits *bits, unsigned v, int n)
 220:..\..\..\liblc3\src/bits.h **** {
 221:..\..\..\liblc3\src/bits.h ****     struct lc3_bits_accu *accu = &bits->accu;
 222:..\..\..\liblc3\src/bits.h **** 
 223:..\..\..\liblc3\src/bits.h ****     if (accu->n + n <= LC3_ACCU_BITS) {
 5165              		.loc 3 223 0
 5166 0008 026A     		ldr	r2, [r0, #32]
 5167 000a 531C     		adds	r3, r2, #1
 5168 000c 202B     		cmp	r3, #32
 5169 000e 05DC     		bgt	.L345
 224:..\..\..\liblc3\src/bits.h ****         accu->v |= v << accu->n;
 5170              		.loc 3 224 0
ARM GAS  C:\Users\rdn\AppData\Local\Temp\cc5zc0m9.s 			page 122


 5171 0010 9140     		lsls	r1, r1, r2
 5172              	.LVL820:
 5173 0012 C269     		ldr	r2, [r0, #28]
 5174 0014 1143     		orrs	r1, r1, r2
 5175 0016 C161     		str	r1, [r0, #28]
 5176              	.LVL821:
 225:..\..\..\liblc3\src/bits.h ****         accu->n += n;
 5177              		.loc 3 225 0
 5178 0018 0362     		str	r3, [r0, #32]
 5179 001a 02E0     		b	.L346
 5180              	.LVL822:
 5181              	.L345:
 226:..\..\..\liblc3\src/bits.h ****     } else {
 227:..\..\..\liblc3\src/bits.h ****         lc3_put_bits_generic(bits, v, n);
 5182              		.loc 3 227 0
 5183 001c 0122     		movs	r2, #1
 5184 001e FFF7FEFF 		bl	lc3_put_bits_generic
 5185              	.LVL823:
 5186              	.L346:
 5187              	.LBE352:
 5188              	.LBE351:
 5189              	.LBE350:
 5190              	.LBE349:
 953:..\..\..\liblc3\src/ltpf.c ****     lc3_put_bits(bits, data->pitch_index, 9);
 5191              		.loc 1 953 0
 5192 0022 6968     		ldr	r1, [r5, #4]
 5193              	.LVL824:
 5194              	.LBB353:
 5195              	.LBB354:
 223:..\..\..\liblc3\src/bits.h ****         accu->v |= v << accu->n;
 5196              		.loc 3 223 0
 5197 0024 226A     		ldr	r2, [r4, #32]
 5198 0026 02F10903 		add	r3, r2, #9
 5199 002a 202B     		cmp	r3, #32
 5200 002c 05DC     		bgt	.L347
 224:..\..\..\liblc3\src/bits.h ****         accu->n += n;
 5201              		.loc 3 224 0
 5202 002e 9140     		lsls	r1, r1, r2
 5203              	.LVL825:
 5204 0030 E269     		ldr	r2, [r4, #28]
 5205 0032 1143     		orrs	r1, r1, r2
 5206 0034 E161     		str	r1, [r4, #28]
 5207              	.LVL826:
 225:..\..\..\liblc3\src/bits.h ****     } else {
 5208              		.loc 3 225 0
 5209 0036 2362     		str	r3, [r4, #32]
 5210 0038 38BD     		pop	{r3, r4, r5, pc}
 5211              	.LVL827:
 5212              	.L347:
 5213              		.loc 3 227 0
 5214 003a 0922     		movs	r2, #9
 5215 003c 2046     		mov	r0, r4
 5216 003e FFF7FEFF 		bl	lc3_put_bits_generic
 5217              	.LVL828:
 5218 0042 38BD     		pop	{r3, r4, r5, pc}
 5219              	.LBE354:
 5220              	.LBE353:
ARM GAS  C:\Users\rdn\AppData\Local\Temp\cc5zc0m9.s 			page 123


 5221              		.cfi_endproc
 5222              	.LFE47:
 5223              		.size	lc3_ltpf_put_data, .-lc3_ltpf_put_data
 5224              		.section	.text.lc3_ltpf_get_data,"ax",%progbits
 5225              		.align	2
 5226              		.global	lc3_ltpf_get_data
 5227              		.thumb
 5228              		.thumb_func
 5229              		.type	lc3_ltpf_get_data, %function
 5230              	lc3_ltpf_get_data:
 5231              	.LFB48:
 954:..\..\..\liblc3\src/ltpf.c **** }
 955:..\..\..\liblc3\src/ltpf.c **** 
 956:..\..\..\liblc3\src/ltpf.c **** /**
 957:..\..\..\liblc3\src/ltpf.c ****  * Get bitstream data
 958:..\..\..\liblc3\src/ltpf.c ****  */
 959:..\..\..\liblc3\src/ltpf.c **** void lc3_ltpf_get_data(lc3_bits_t *bits,
 960:..\..\..\liblc3\src/ltpf.c ****     struct lc3_ltpf_data *data)
 961:..\..\..\liblc3\src/ltpf.c **** {
 5232              		.loc 1 961 0
 5233              		.cfi_startproc
 5234              		@ args = 0, pretend = 0, frame = 0
 5235              		@ frame_needed = 0, uses_anonymous_args = 0
 5236              	.LVL829:
 5237 0000 38B5     		push	{r3, r4, r5, lr}
 5238              		.cfi_def_cfa_offset 16
 5239              		.cfi_offset 3, -16
 5240              		.cfi_offset 4, -12
 5241              		.cfi_offset 5, -8
 5242              		.cfi_offset 14, -4
 5243 0002 0446     		mov	r4, r0
 5244 0004 0D46     		mov	r5, r1
 5245              	.LVL830:
 5246              	.LBB363:
 5247              	.LBB364:
 5248              	.LBB365:
 5249              	.LBB366:
 228:..\..\..\liblc3\src/bits.h ****     }
 229:..\..\..\liblc3\src/bits.h **** }
 230:..\..\..\liblc3\src/bits.h **** 
 231:..\..\..\liblc3\src/bits.h **** /**
 232:..\..\..\liblc3\src/bits.h ****  * Get a bit
 233:..\..\..\liblc3\src/bits.h ****  */
 234:..\..\..\liblc3\src/bits.h **** LC3_HOT static inline int lc3_get_bit(lc3_bits_t *bits)
 235:..\..\..\liblc3\src/bits.h **** {
 236:..\..\..\liblc3\src/bits.h ****     return lc3_get_bits(bits, 1);
 237:..\..\..\liblc3\src/bits.h **** }
 238:..\..\..\liblc3\src/bits.h **** 
 239:..\..\..\liblc3\src/bits.h **** /**
 240:..\..\..\liblc3\src/bits.h ****  * Get from 1 to 32 bits
 241:..\..\..\liblc3\src/bits.h ****  */
 242:..\..\..\liblc3\src/bits.h **** LC3_HOT static inline unsigned lc3_get_bits(struct lc3_bits *bits, int n)
 243:..\..\..\liblc3\src/bits.h **** {
 244:..\..\..\liblc3\src/bits.h ****     struct lc3_bits_accu *accu = &bits->accu;
 245:..\..\..\liblc3\src/bits.h **** 
 246:..\..\..\liblc3\src/bits.h ****     if (accu->n + n <= LC3_ACCU_BITS) {
 5250              		.loc 3 246 0
ARM GAS  C:\Users\rdn\AppData\Local\Temp\cc5zc0m9.s 			page 124


 5251 0006 006A     		ldr	r0, [r0, #32]
 5252              	.LVL831:
 5253 0008 421C     		adds	r2, r0, #1
 5254 000a 202A     		cmp	r2, #32
 5255 000c 06DC     		bgt	.L351
 5256              	.LBB367:
 247:..\..\..\liblc3\src/bits.h ****         int v = (accu->v >> accu->n) & ((1u << n) - 1);
 5257              		.loc 3 247 0
 5258 000e E369     		ldr	r3, [r4, #28]
 5259 0010 23FA00F0 		lsr	r0, r3, r0
 5260 0014 00F00100 		and	r0, r0, #1
 5261              	.LVL832:
 248:..\..\..\liblc3\src/bits.h ****         return (accu->n += n), v;
 5262              		.loc 3 248 0
 5263 0018 2262     		str	r2, [r4, #32]
 5264 001a 03E0     		b	.L352
 5265              	.LVL833:
 5266              	.L351:
 5267              	.LBE367:
 249:..\..\..\liblc3\src/bits.h ****     }
 250:..\..\..\liblc3\src/bits.h ****     else {
 251:..\..\..\liblc3\src/bits.h ****         return lc3_get_bits_generic(bits, n);
 5268              		.loc 3 251 0
 5269 001c 0121     		movs	r1, #1
 5270              	.LVL834:
 5271 001e 2046     		mov	r0, r4
 5272 0020 FFF7FEFF 		bl	lc3_get_bits_generic
 5273              	.LVL835:
 5274              	.L352:
 5275              	.LBE366:
 5276              	.LBE365:
 5277              	.LBE364:
 5278              	.LBE363:
 962:..\..\..\liblc3\src/ltpf.c ****     data->active = lc3_get_bit(bits);
 5279              		.loc 1 962 0
 5280 0024 0030     		adds	r0, r0, #0
 5281 0026 18BF     		it	ne
 5282 0028 0120     		movne	r0, #1
 5283 002a 2870     		strb	r0, [r5]
 5284              	.LVL836:
 5285              	.LBB368:
 5286              	.LBB369:
 246:..\..\..\liblc3\src/bits.h ****         int v = (accu->v >> accu->n) & ((1u << n) - 1);
 5287              		.loc 3 246 0
 5288 002c 206A     		ldr	r0, [r4, #32]
 5289 002e 00F10902 		add	r2, r0, #9
 5290 0032 202A     		cmp	r2, #32
 5291 0034 06DC     		bgt	.L353
 5292              	.LBB370:
 247:..\..\..\liblc3\src/bits.h ****         return (accu->n += n), v;
 5293              		.loc 3 247 0
 5294 0036 E369     		ldr	r3, [r4, #28]
 5295 0038 23FA00F0 		lsr	r0, r3, r0
 5296 003c C0F30800 		ubfx	r0, r0, #0, #9
 5297              	.LVL837:
 248:..\..\..\liblc3\src/bits.h ****     }
 5298              		.loc 3 248 0
ARM GAS  C:\Users\rdn\AppData\Local\Temp\cc5zc0m9.s 			page 125


 5299 0040 2262     		str	r2, [r4, #32]
 5300 0042 03E0     		b	.L354
 5301              	.LVL838:
 5302              	.L353:
 5303              	.LBE370:
 5304              		.loc 3 251 0
 5305 0044 0921     		movs	r1, #9
 5306 0046 2046     		mov	r0, r4
 5307 0048 FFF7FEFF 		bl	lc3_get_bits_generic
 5308              	.LVL839:
 5309              	.L354:
 5310              	.LBE369:
 5311              	.LBE368:
 963:..\..\..\liblc3\src/ltpf.c ****     data->pitch_index = lc3_get_bits(bits, 9);
 5312              		.loc 1 963 0
 5313 004c 6860     		str	r0, [r5, #4]
 5314 004e 38BD     		pop	{r3, r4, r5, pc}
 5315              		.cfi_endproc
 5316              	.LFE48:
 5317              		.size	lc3_ltpf_get_data, .-lc3_ltpf_get_data
 5318              		.section	.rodata
 5319              		.align	2
 5320              		.set	.LANCHOR0,. + 0
 5321              		.type	h_8k_12k8_q15, %object
 5322              		.size	h_8k_12k8_q15, 160
 5323              	h_8k_12k8_q15:
 5324 0000 D600     		.short	214
 5325 0002 A101     		.short	417
 5326 0004 E4FB     		.short	-1052
 5327 0006 4FEE     		.short	-4529
 5328 0008 7966     		.short	26233
 5329 000a 4FEE     		.short	-4529
 5330 000c E4FB     		.short	-1052
 5331 000e A101     		.short	417
 5332 0010 D600     		.short	214
 5333 0012 0000     		.short	0
 5334 0014 B400     		.short	180
 5335 0016 0000     		.short	0
 5336 0018 0EFA     		.short	-1522
 5337 001a 85F6     		.short	-2427
 5338 001c BA5F     		.short	24506
 5339 001e 57EB     		.short	-5289
 5340 0020 0000     		.short	0
 5341 0022 FB02     		.short	763
 5342 0024 9C00     		.short	156
 5343 0026 E4FF     		.short	-28
 5344 0028 5C00     		.short	92
 5345 002a BDFE     		.short	-323
 5346 002c AFFA     		.short	-1361
 5347 002e 0000     		.short	0
 5348 0030 1D4D     		.short	19741
 5349 0032 D3F0     		.short	-3885
 5350 0034 2505     		.short	1317
 5351 0036 5D03     		.short	861
 5352 0038 0000     		.short	0
 5353 003a C3FF     		.short	-61
 5354 003c 0000     		.short	0
ARM GAS  C:\Users\rdn\AppData\Local\Temp\cc5zc0m9.s 			page 126


 5355 003e 37FE     		.short	-457
 5356 0040 10FD     		.short	-752
 5357 0042 5107     		.short	1873
 5358 0044 0C33     		.short	13068
 5359 0046 0000     		.short	0
 5360 0048 5509     		.short	2389
 5361 004a 5602     		.short	598
 5362 004c 2BFF     		.short	-213
 5363 004e B1FF     		.short	-79
 5364 0050 C3FF     		.short	-61
 5365 0052 72FE     		.short	-398
 5366 0054 0000     		.short	0
 5367 0056 7E0A     		.short	2686
 5368 0058 6D17     		.short	5997
 5369 005a 6D17     		.short	5997
 5370 005c 7E0A     		.short	2686
 5371 005e 0000     		.short	0
 5372 0060 72FE     		.short	-398
 5373 0062 C3FF     		.short	-61
 5374 0064 B1FF     		.short	-79
 5375 0066 2BFF     		.short	-213
 5376 0068 5602     		.short	598
 5377 006a 5509     		.short	2389
 5378 006c 0000     		.short	0
 5379 006e 0C33     		.short	13068
 5380 0070 5107     		.short	1873
 5381 0072 10FD     		.short	-752
 5382 0074 37FE     		.short	-457
 5383 0076 0000     		.short	0
 5384 0078 C3FF     		.short	-61
 5385 007a 0000     		.short	0
 5386 007c 5D03     		.short	861
 5387 007e 2505     		.short	1317
 5388 0080 D3F0     		.short	-3885
 5389 0082 1D4D     		.short	19741
 5390 0084 0000     		.short	0
 5391 0086 AFFA     		.short	-1361
 5392 0088 BDFE     		.short	-323
 5393 008a 5C00     		.short	92
 5394 008c E4FF     		.short	-28
 5395 008e 9C00     		.short	156
 5396 0090 FB02     		.short	763
 5397 0092 0000     		.short	0
 5398 0094 57EB     		.short	-5289
 5399 0096 BA5F     		.short	24506
 5400 0098 85F6     		.short	-2427
 5401 009a 0EFA     		.short	-1522
 5402 009c 0000     		.short	0
 5403 009e B400     		.short	180
 5404              		.type	h_96k_12k8_q15, %object
 5405              		.size	h_96k_12k8_q15, 480
 5406              	h_96k_12k8_q15:
 5407 00a0 FDFF     		.short	-3
 5408 00a2 F9FF     		.short	-7
 5409 00a4 F6FF     		.short	-10
 5410 00a6 F3FF     		.short	-13
 5411 00a8 F3FF     		.short	-13
ARM GAS  C:\Users\rdn\AppData\Local\Temp\cc5zc0m9.s 			page 127


 5412 00aa F6FF     		.short	-10
 5413 00ac FCFF     		.short	-4
 5414 00ae 0500     		.short	5
 5415 00b0 0F00     		.short	15
 5416 00b2 1A00     		.short	26
 5417 00b4 2100     		.short	33
 5418 00b6 2400     		.short	36
 5419 00b8 1F00     		.short	31
 5420 00ba 1300     		.short	19
 5421 00bc 0000     		.short	0
 5422 00be E9FF     		.short	-23
 5423 00c0 D1FF     		.short	-47
 5424 00c2 BEFF     		.short	-66
 5425 00c4 B4FF     		.short	-76
 5426 00c6 B7FF     		.short	-73
 5427 00c8 CAFF     		.short	-54
 5428 00ca EBFF     		.short	-21
 5429 00cc 1700     		.short	23
 5430 00ce 4600     		.short	70
 5431 00d0 6F00     		.short	111
 5432 00d2 8B00     		.short	139
 5433 00d4 8F00     		.short	143
 5434 00d6 7900     		.short	121
 5435 00d8 4800     		.short	72
 5436 00da 0000     		.short	0
 5437 00dc ACFF     		.short	-84
 5438 00de 5BFF     		.short	-165
 5439 00e0 1DFF     		.short	-227
 5440 00e2 00FF     		.short	-256
 5441 00e4 10FF     		.short	-240
 5442 00e6 51FF     		.short	-175
 5443 00e8 BDFF     		.short	-67
 5444 00ea 4800     		.short	72
 5445 00ec DB00     		.short	219
 5446 00ee 5D01     		.short	349
 5447 00f0 B101     		.short	433
 5448 00f2 C001     		.short	448
 5449 00f4 7B01     		.short	379
 5450 00f6 E100     		.short	225
 5451 00f8 0000     		.short	0
 5452 00fa F4FE     		.short	-268
 5453 00fc E8FD     		.short	-536
 5454 00fe 0DFD     		.short	-755
 5455 0100 96FC     		.short	-874
 5456 0102 B0FC     		.short	-848
 5457 0104 78FD     		.short	-648
 5458 0106 FCFE     		.short	-260
 5459 0108 2D01     		.short	301
 5460 010a E803     		.short	1000
 5461 010c F406     		.short	1780
 5462 010e 090A     		.short	2569
 5463 0110 DA0C     		.short	3290
 5464 0112 1D0F     		.short	3869
 5465 0114 9310     		.short	4243
 5466 0116 1411     		.short	4372
 5467 0118 9310     		.short	4243
 5468 011a 1D0F     		.short	3869
ARM GAS  C:\Users\rdn\AppData\Local\Temp\cc5zc0m9.s 			page 128


 5469 011c DA0C     		.short	3290
 5470 011e 090A     		.short	2569
 5471 0120 F406     		.short	1780
 5472 0122 E803     		.short	1000
 5473 0124 2D01     		.short	301
 5474 0126 FCFE     		.short	-260
 5475 0128 78FD     		.short	-648
 5476 012a B0FC     		.short	-848
 5477 012c 96FC     		.short	-874
 5478 012e 0DFD     		.short	-755
 5479 0130 E8FD     		.short	-536
 5480 0132 F4FE     		.short	-268
 5481 0134 0000     		.short	0
 5482 0136 E100     		.short	225
 5483 0138 7B01     		.short	379
 5484 013a C001     		.short	448
 5485 013c B101     		.short	433
 5486 013e 5D01     		.short	349
 5487 0140 DB00     		.short	219
 5488 0142 4800     		.short	72
 5489 0144 BDFF     		.short	-67
 5490 0146 51FF     		.short	-175
 5491 0148 10FF     		.short	-240
 5492 014a 00FF     		.short	-256
 5493 014c 1DFF     		.short	-227
 5494 014e 5BFF     		.short	-165
 5495 0150 ACFF     		.short	-84
 5496 0152 0000     		.short	0
 5497 0154 4800     		.short	72
 5498 0156 7900     		.short	121
 5499 0158 8F00     		.short	143
 5500 015a 8B00     		.short	139
 5501 015c 6F00     		.short	111
 5502 015e 4600     		.short	70
 5503 0160 1700     		.short	23
 5504 0162 EBFF     		.short	-21
 5505 0164 CAFF     		.short	-54
 5506 0166 B7FF     		.short	-73
 5507 0168 B4FF     		.short	-76
 5508 016a BEFF     		.short	-66
 5509 016c D1FF     		.short	-47
 5510 016e E9FF     		.short	-23
 5511 0170 0000     		.short	0
 5512 0172 1300     		.short	19
 5513 0174 1F00     		.short	31
 5514 0176 2400     		.short	36
 5515 0178 2100     		.short	33
 5516 017a 1A00     		.short	26
 5517 017c 0F00     		.short	15
 5518 017e 0500     		.short	5
 5519 0180 FCFF     		.short	-4
 5520 0182 F6FF     		.short	-10
 5521 0184 F3FF     		.short	-13
 5522 0186 F3FF     		.short	-13
 5523 0188 F6FF     		.short	-10
 5524 018a F9FF     		.short	-7
 5525 018c FDFF     		.short	-3
ARM GAS  C:\Users\rdn\AppData\Local\Temp\cc5zc0m9.s 			page 129


 5526 018e 0000     		.short	0
 5527 0190 FFFF     		.short	-1
 5528 0192 FBFF     		.short	-5
 5529 0194 F8FF     		.short	-8
 5530 0196 F4FF     		.short	-12
 5531 0198 F3FF     		.short	-13
 5532 019a F4FF     		.short	-12
 5533 019c F8FF     		.short	-8
 5534 019e 0000     		.short	0
 5535 01a0 0A00     		.short	10
 5536 01a2 1500     		.short	21
 5537 01a4 1E00     		.short	30
 5538 01a6 2300     		.short	35
 5539 01a8 2200     		.short	34
 5540 01aa 1A00     		.short	26
 5541 01ac 0A00     		.short	10
 5542 01ae F5FF     		.short	-11
 5543 01b0 DDFF     		.short	-35
 5544 01b2 C6FF     		.short	-58
 5545 01b4 B7FF     		.short	-73
 5546 01b6 B4FF     		.short	-76
 5547 01b8 BFFF     		.short	-65
 5548 01ba D9FF     		.short	-39
 5549 01bc 0000     		.short	0
 5550 01be 2E00     		.short	46
 5551 01c0 5C00     		.short	92
 5552 01c2 7F00     		.short	127
 5553 01c4 9000     		.short	144
 5554 01c6 8800     		.short	136
 5555 01c8 6400     		.short	100
 5556 01ca 2600     		.short	38
 5557 01cc D7FF     		.short	-41
 5558 01ce 83FF     		.short	-125
 5559 01d0 39FF     		.short	-199
 5560 01d2 0AFF     		.short	-246
 5561 01d4 02FF     		.short	-254
 5562 01d6 2AFF     		.short	-214
 5563 01d8 82FF     		.short	-126
 5564 01da 0000     		.short	0
 5565 01dc 9200     		.short	146
 5566 01de 2001     		.short	288
 5567 01e0 8E01     		.short	398
 5568 01e2 C201     		.short	450
 5569 01e4 A801     		.short	424
 5570 01e6 3801     		.short	312
 5571 01e8 7800     		.short	120
 5572 01ea 7DFF     		.short	-131
 5573 01ec 6BFE     		.short	-405
 5574 01ee 71FD     		.short	-655
 5575 01f0 C2FC     		.short	-830
 5576 01f2 8FFC     		.short	-881
 5577 01f4 FDFC     		.short	-771
 5578 01f6 23FE     		.short	-477
 5579 01f8 0000     		.short	0
 5580 01fa 7C02     		.short	636
 5581 01fc 6805     		.short	1384
 5582 01fe 8208     		.short	2178
ARM GAS  C:\Users\rdn\AppData\Local\Temp\cc5zc0m9.s 			page 130


 5583 0200 7F0B     		.short	2943
 5584 0202 110E     		.short	3601
 5585 0204 F40F     		.short	4084
 5586 0206 F410     		.short	4340
 5587 0208 F410     		.short	4340
 5588 020a F40F     		.short	4084
 5589 020c 110E     		.short	3601
 5590 020e 7F0B     		.short	2943
 5591 0210 8208     		.short	2178
 5592 0212 6805     		.short	1384
 5593 0214 7C02     		.short	636
 5594 0216 0000     		.short	0
 5595 0218 23FE     		.short	-477
 5596 021a FDFC     		.short	-771
 5597 021c 8FFC     		.short	-881
 5598 021e C2FC     		.short	-830
 5599 0220 71FD     		.short	-655
 5600 0222 6BFE     		.short	-405
 5601 0224 7DFF     		.short	-131
 5602 0226 7800     		.short	120
 5603 0228 3801     		.short	312
 5604 022a A801     		.short	424
 5605 022c C201     		.short	450
 5606 022e 8E01     		.short	398
 5607 0230 2001     		.short	288
 5608 0232 9200     		.short	146
 5609 0234 0000     		.short	0
 5610 0236 82FF     		.short	-126
 5611 0238 2AFF     		.short	-214
 5612 023a 02FF     		.short	-254
 5613 023c 0AFF     		.short	-246
 5614 023e 39FF     		.short	-199
 5615 0240 83FF     		.short	-125
 5616 0242 D7FF     		.short	-41
 5617 0244 2600     		.short	38
 5618 0246 6400     		.short	100
 5619 0248 8800     		.short	136
 5620 024a 9000     		.short	144
 5621 024c 7F00     		.short	127
 5622 024e 5C00     		.short	92
 5623 0250 2E00     		.short	46
 5624 0252 0000     		.short	0
 5625 0254 D9FF     		.short	-39
 5626 0256 BFFF     		.short	-65
 5627 0258 B4FF     		.short	-76
 5628 025a B7FF     		.short	-73
 5629 025c C6FF     		.short	-58
 5630 025e DDFF     		.short	-35
 5631 0260 F5FF     		.short	-11
 5632 0262 0A00     		.short	10
 5633 0264 1A00     		.short	26
 5634 0266 2200     		.short	34
 5635 0268 2300     		.short	35
 5636 026a 1E00     		.short	30
 5637 026c 1500     		.short	21
 5638 026e 0A00     		.short	10
 5639 0270 0000     		.short	0
ARM GAS  C:\Users\rdn\AppData\Local\Temp\cc5zc0m9.s 			page 131


 5640 0272 F8FF     		.short	-8
 5641 0274 F4FF     		.short	-12
 5642 0276 F3FF     		.short	-13
 5643 0278 F4FF     		.short	-12
 5644 027a F8FF     		.short	-8
 5645 027c FBFF     		.short	-5
 5646 027e FFFF     		.short	-1
 5647              		.type	h4_q15.5684, %object
 5648              		.size	h4_q15.5684, 32
 5649              	h4_q15.5684:
 5650 0280 DD1A     		.short	6877
 5651 0282 B14A     		.short	19121
 5652 0284 DD1A     		.short	6877
 5653 0286 0000     		.short	0
 5654 0288 B20D     		.short	3506
 5655 028a 6946     		.short	18025
 5656 028c F82A     		.short	11000
 5657 028e DC00     		.short	220
 5658 0290 1405     		.short	1300
 5659 0292 C83A     		.short	15048
 5660 0294 C83A     		.short	15048
 5661 0296 1405     		.short	1300
 5662 0298 DC00     		.short	220
 5663 029a F82A     		.short	11000
 5664 029c 6946     		.short	18025
 5665 029e B20D     		.short	3506
 5666              		.type	h4.5699, %object
 5667              		.size	h4.5699, 128
 5668              	h4.5699:
 5669 02a0 179D7B3C 		.word	1014734103
 5670 02a4 CAB941BD 		.word	-1119766070
 5671 02a8 642BAB3D 		.word	1034627940
 5672 02ac 290D663F 		.word	1063652649
 5673 02b0 642BAB3D 		.word	1034627940
 5674 02b4 CAB941BD 		.word	-1119766070
 5675 02b8 179D7B3C 		.word	1014734103
 5676 02bc 00000000 		.space	4
 5677 02c0 5FED333B 		.word	993258847
 5678 02c4 A0AD963B 		.word	999730592
 5679 02c8 88809ABD 		.word	-1113948024
 5680 02cc F046513F 		.word	1062291184
 5681 02d0 B10DA93E 		.word	1051266481
 5682 02d4 80C0D8BD 		.word	-1109868416
 5683 02d8 3AF7EA3C 		.word	1022031674
 5684 02dc 22633CBB 		.word	-1153670366
 5685 02e0 A3B044BB 		.word	-1153126237
 5686 02e4 0FB2F13C 		.word	1022472719
 5687 02e8 AE6E05BE 		.word	-1106940242
 5688 02ec AC711A3F 		.word	1058697644
 5689 02f0 AC711A3F 		.word	1058697644
 5690 02f4 AE6E05BE 		.word	-1106940242
 5691 02f8 0FB2F13C 		.word	1022472719
 5692 02fc A3B044BB 		.word	-1153126237
 5693 0300 22633CBB 		.word	-1153670366
 5694 0304 3AF7EA3C 		.word	1022031674
 5695 0308 80C0D8BD 		.word	-1109868416
 5696 030c B10DA93E 		.word	1051266481
ARM GAS  C:\Users\rdn\AppData\Local\Temp\cc5zc0m9.s 			page 132


 5697 0310 F046513F 		.word	1062291184
 5698 0314 88809ABD 		.word	-1113948024
 5699 0318 A0AD963B 		.word	999730592
 5700 031c 5FED333B 		.word	993258847
 5701              		.type	h_16k_12k8_q15, %object
 5702              		.size	h_16k_12k8_q15, 160
 5703              	h_16k_12k8_q15:
 5704 0320 C3FF     		.short	-61
 5705 0322 D600     		.short	214
 5706 0324 72FE     		.short	-398
 5707 0326 A101     		.short	417
 5708 0328 0000     		.short	0
 5709 032a E4FB     		.short	-1052
 5710 032c 7E0A     		.short	2686
 5711 032e 4FEE     		.short	-4529
 5712 0330 6D17     		.short	5997
 5713 0332 7966     		.short	26233
 5714 0334 6D17     		.short	5997
 5715 0336 4FEE     		.short	-4529
 5716 0338 7E0A     		.short	2686
 5717 033a E4FB     		.short	-1052
 5718 033c 0000     		.short	0
 5719 033e A101     		.short	417
 5720 0340 72FE     		.short	-398
 5721 0342 D600     		.short	214
 5722 0344 C3FF     		.short	-61
 5723 0346 0000     		.short	0
 5724 0348 B1FF     		.short	-79
 5725 034a B400     		.short	180
 5726 034c 2BFF     		.short	-213
 5727 034e 0000     		.short	0
 5728 0350 5602     		.short	598
 5729 0352 0EFA     		.short	-1522
 5730 0354 5509     		.short	2389
 5731 0356 85F6     		.short	-2427
 5732 0358 0000     		.short	0
 5733 035a BA5F     		.short	24506
 5734 035c 0C33     		.short	13068
 5735 035e 57EB     		.short	-5289
 5736 0360 5107     		.short	1873
 5737 0362 0000     		.short	0
 5738 0364 10FD     		.short	-752
 5739 0366 FB02     		.short	763
 5740 0368 37FE     		.short	-457
 5741 036a 9C00     		.short	156
 5742 036c 0000     		.short	0
 5743 036e E4FF     		.short	-28
 5744 0370 C3FF     		.short	-61
 5745 0372 5C00     		.short	92
 5746 0374 0000     		.short	0
 5747 0376 BDFE     		.short	-323
 5748 0378 5D03     		.short	861
 5749 037a AFFA     		.short	-1361
 5750 037c 2505     		.short	1317
 5751 037e 0000     		.short	0
 5752 0380 D3F0     		.short	-3885
 5753 0382 1D4D     		.short	19741
ARM GAS  C:\Users\rdn\AppData\Local\Temp\cc5zc0m9.s 			page 133


 5754 0384 1D4D     		.short	19741
 5755 0386 D3F0     		.short	-3885
 5756 0388 0000     		.short	0
 5757 038a 2505     		.short	1317
 5758 038c AFFA     		.short	-1361
 5759 038e 5D03     		.short	861
 5760 0390 BDFE     		.short	-323
 5761 0392 0000     		.short	0
 5762 0394 5C00     		.short	92
 5763 0396 C3FF     		.short	-61
 5764 0398 E4FF     		.short	-28
 5765 039a 0000     		.short	0
 5766 039c 9C00     		.short	156
 5767 039e 37FE     		.short	-457
 5768 03a0 FB02     		.short	763
 5769 03a2 10FD     		.short	-752
 5770 03a4 0000     		.short	0
 5771 03a6 5107     		.short	1873
 5772 03a8 57EB     		.short	-5289
 5773 03aa 0C33     		.short	13068
 5774 03ac BA5F     		.short	24506
 5775 03ae 0000     		.short	0
 5776 03b0 85F6     		.short	-2427
 5777 03b2 5509     		.short	2389
 5778 03b4 0EFA     		.short	-1522
 5779 03b6 5602     		.short	598
 5780 03b8 0000     		.short	0
 5781 03ba 2BFF     		.short	-213
 5782 03bc B400     		.short	180
 5783 03be B1FF     		.short	-79
 5784              		.type	h_32k_12k8_q15, %object
 5785              		.size	h_32k_12k8_q15, 160
 5786              	h_32k_12k8_q15:
 5787 03c0 E2FF     		.short	-30
 5788 03c2 E1FF     		.short	-31
 5789 03c4 2E00     		.short	46
 5790 03c6 6B00     		.short	107
 5791 03c8 0000     		.short	0
 5792 03ca 39FF     		.short	-199
 5793 03cc 5EFF     		.short	-162
 5794 03ce D100     		.short	209
 5795 03d0 AE01     		.short	430
 5796 03d2 0000     		.short	0
 5797 03d4 57FD     		.short	-681
 5798 03d6 F2FD     		.short	-526
 5799 03d8 9202     		.short	658
 5800 03da 3F05     		.short	1343
 5801 03dc 0000     		.short	0
 5802 03de 28F7     		.short	-2264
 5803 03e0 69F8     		.short	-1943
 5804 03e2 B70B     		.short	2999
 5805 03e4 8F26     		.short	9871
 5806 03e6 3C33     		.short	13116
 5807 03e8 8F26     		.short	9871
 5808 03ea B70B     		.short	2999
 5809 03ec 69F8     		.short	-1943
 5810 03ee 28F7     		.short	-2264
ARM GAS  C:\Users\rdn\AppData\Local\Temp\cc5zc0m9.s 			page 134


 5811 03f0 0000     		.short	0
 5812 03f2 3F05     		.short	1343
 5813 03f4 9202     		.short	658
 5814 03f6 F2FD     		.short	-526
 5815 03f8 57FD     		.short	-681
 5816 03fa 0000     		.short	0
 5817 03fc AE01     		.short	430
 5818 03fe D100     		.short	209
 5819 0400 5EFF     		.short	-162
 5820 0402 39FF     		.short	-199
 5821 0404 0000     		.short	0
 5822 0406 6B00     		.short	107
 5823 0408 2E00     		.short	46
 5824 040a E1FF     		.short	-31
 5825 040c E2FF     		.short	-30
 5826 040e 0000     		.short	0
 5827 0410 F2FF     		.short	-14
 5828 0412 D9FF     		.short	-39
 5829 0414 0000     		.short	0
 5830 0416 5A00     		.short	90
 5831 0418 4E00     		.short	78
 5832 041a 96FF     		.short	-106
 5833 041c 1BFF     		.short	-229
 5834 041e 0000     		.short	0
 5835 0420 7E01     		.short	382
 5836 0422 2B01     		.short	299
 5837 0424 88FE     		.short	-376
 5838 0426 07FD     		.short	-761
 5839 0428 0000     		.short	0
 5840 042a AA04     		.short	1194
 5841 042c A903     		.short	937
 5842 042e 42FB     		.short	-1214
 5843 0430 ACF5     		.short	-2644
 5844 0432 0000     		.short	0
 5845 0434 8619     		.short	6534
 5846 0436 DD2F     		.short	12253
 5847 0438 DD2F     		.short	12253
 5848 043a 8619     		.short	6534
 5849 043c 0000     		.short	0
 5850 043e ACF5     		.short	-2644
 5851 0440 42FB     		.short	-1214
 5852 0442 A903     		.short	937
 5853 0444 AA04     		.short	1194
 5854 0446 0000     		.short	0
 5855 0448 07FD     		.short	-761
 5856 044a 88FE     		.short	-376
 5857 044c 2B01     		.short	299
 5858 044e 7E01     		.short	382
 5859 0450 0000     		.short	0
 5860 0452 1BFF     		.short	-229
 5861 0454 96FF     		.short	-106
 5862 0456 4E00     		.short	78
 5863 0458 5A00     		.short	90
 5864 045a 0000     		.short	0
 5865 045c D9FF     		.short	-39
 5866 045e F2FF     		.short	-14
 5867              		.type	h_24k_12k8_q15, %object
ARM GAS  C:\Users\rdn\AppData\Local\Temp\cc5zc0m9.s 			page 135


 5868              		.size	h_24k_12k8_q15, 480
 5869              	h_24k_12k8_q15:
 5870 0460 CEFF     		.short	-50
 5871 0462 1300     		.short	19
 5872 0464 8F00     		.short	143
 5873 0466 A3FF     		.short	-93
 5874 0468 DEFE     		.short	-290
 5875 046a 1601     		.short	278
 5876 046c E501     		.short	485
 5877 046e 6EFD     		.short	-658
 5878 0470 43FD     		.short	-701
 5879 0472 7405     		.short	1396
 5880 0474 8503     		.short	901
 5881 0476 35F4     		.short	-3019
 5882 0478 EEFB     		.short	-1042
 5883 047a 2428     		.short	10276
 5884 047c 5044     		.short	17488
 5885 047e 2428     		.short	10276
 5886 0480 EEFB     		.short	-1042
 5887 0482 35F4     		.short	-3019
 5888 0484 8503     		.short	901
 5889 0486 7405     		.short	1396
 5890 0488 43FD     		.short	-701
 5891 048a 6EFD     		.short	-658
 5892 048c E501     		.short	485
 5893 048e 1601     		.short	278
 5894 0490 DEFE     		.short	-290
 5895 0492 A3FF     		.short	-93
 5896 0494 8F00     		.short	143
 5897 0496 1300     		.short	19
 5898 0498 CEFF     		.short	-50
 5899 049a 0000     		.short	0
 5900 049c D2FF     		.short	-46
 5901 049e 0000     		.short	0
 5902 04a0 8D00     		.short	141
 5903 04a2 D3FF     		.short	-45
 5904 04a4 CFFE     		.short	-305
 5905 04a6 B900     		.short	185
 5906 04a8 1F02     		.short	543
 5907 04aa 0BFE     		.short	-501
 5908 04ac AAFC     		.short	-854
 5909 04ae 8104     		.short	1153
 5910 04b0 E104     		.short	1249
 5911 04b2 C5F5     		.short	-2619
 5912 04b4 8CF8     		.short	-1908
 5913 04b6 0822     		.short	8712
 5914 04b8 CE43     		.short	17358
 5915 04ba FC2D     		.short	11772
 5916 04bc 0000     		.short	0
 5917 04be 09F3     		.short	-3319
 5918 04c0 E001     		.short	480
 5919 04c2 3906     		.short	1593
 5920 04c4 08FE     		.short	-504
 5921 04c6 E4FC     		.short	-796
 5922 04c8 8F01     		.short	399
 5923 04ca 6F01     		.short	367
 5924 04cc FBFE     		.short	-261
ARM GAS  C:\Users\rdn\AppData\Local\Temp\cc5zc0m9.s 			page 136


 5925 04ce 72FF     		.short	-142
 5926 04d0 8A00     		.short	138
 5927 04d2 2800     		.short	40
 5928 04d4 CCFF     		.short	-52
 5929 04d6 FBFF     		.short	-5
 5930 04d8 D7FF     		.short	-41
 5931 04da EFFF     		.short	-17
 5932 04dc 8500     		.short	133
 5933 04de 0000     		.short	0
 5934 04e0 D0FE     		.short	-304
 5935 04e2 5B00     		.short	91
 5936 04e4 3E02     		.short	574
 5937 04e6 B2FE     		.short	-334
 5938 04e8 41FC     		.short	-959
 5939 04ea 6E03     		.short	878
 5940 04ec EC05     		.short	1516
 5941 04ee A1F7     		.short	-2143
 5942 04f0 E2F5     		.short	-2590
 5943 04f2 CE1B     		.short	7118
 5944 04f4 4B42     		.short	16971
 5945 04f6 6933     		.short	13161
 5946 04f8 B204     		.short	1202
 5947 04fa 59F2     		.short	-3495
 5948 04fc 0000     		.short	0
 5949 04fe C306     		.short	1731
 5950 0500 F5FE     		.short	-267
 5951 0502 74FC     		.short	-908
 5952 0504 1F01     		.short	287
 5953 0506 BD01     		.short	445
 5954 0508 29FF     		.short	-215
 5955 050a 44FF     		.short	-188
 5956 050c 7D00     		.short	125
 5957 050e 3E00     		.short	62
 5958 0510 CCFF     		.short	-52
 5959 0512 F4FF     		.short	-12
 5960 0514 DEFF     		.short	-34
 5961 0516 E2FF     		.short	-30
 5962 0518 7800     		.short	120
 5963 051a 2900     		.short	41
 5964 051c DDFE     		.short	-291
 5965 051e 0000     		.short	0
 5966 0520 4102     		.short	577
 5967 0522 5CFF     		.short	-164
 5968 0524 09FC     		.short	-1015
 5969 0526 4902     		.short	585
 5970 0528 A106     		.short	1697
 5971 052a AEF9     		.short	-1618
 5972 052c F4F3     		.short	-3084
 5973 052e 9E15     		.short	5534
 5974 0530 D13F     		.short	16337
 5975 0532 4638     		.short	14406
 5976 0534 F009     		.short	2544
 5977 0536 3AF2     		.short	-3526
 5978 0538 F5FD     		.short	-523
 5979 053a 0807     		.short	1800
 5980 053c 0000     		.short	0
 5981 053e 27FC     		.short	-985
ARM GAS  C:\Users\rdn\AppData\Local\Temp\cc5zc0m9.s 			page 137


 5982 0540 9800     		.short	152
 5983 0542 FD01     		.short	509
 5984 0544 64FF     		.short	-156
 5985 0546 1AFF     		.short	-230
 5986 0548 6800     		.short	104
 5987 054a 5300     		.short	83
 5988 054c D0FF     		.short	-48
 5989 054e EDFF     		.short	-19
 5990 0550 E6FF     		.short	-26
 5991 0552 D7FF     		.short	-41
 5992 0554 6700     		.short	103
 5993 0556 4C00     		.short	76
 5994 0558 F7FE     		.short	-265
 5995 055a ADFF     		.short	-83
 5996 055c 2A02     		.short	554
 5997 055e 0000     		.short	0
 5998 0560 01FC     		.short	-1023
 5999 0562 2001     		.short	288
 6000 0564 FF06     		.short	1791
 6001 0566 D2FB     		.short	-1070
 6002 0568 BFF2     		.short	-3393
 6003 056a 9E0F     		.short	3998
 6004 056c 723C     		.short	15474
 6005 056e 723C     		.short	15474
 6006 0570 9E0F     		.short	3998
 6007 0572 BFF2     		.short	-3393
 6008 0574 D2FB     		.short	-1070
 6009 0576 FF06     		.short	1791
 6010 0578 2001     		.short	288
 6011 057a 01FC     		.short	-1023
 6012 057c 0000     		.short	0
 6013 057e 2A02     		.short	554
 6014 0580 ADFF     		.short	-83
 6015 0582 F7FE     		.short	-265
 6016 0584 4C00     		.short	76
 6017 0586 6700     		.short	103
 6018 0588 D7FF     		.short	-41
 6019 058a E6FF     		.short	-26
 6020 058c EDFF     		.short	-19
 6021 058e D0FF     		.short	-48
 6022 0590 5300     		.short	83
 6023 0592 6800     		.short	104
 6024 0594 1AFF     		.short	-230
 6025 0596 64FF     		.short	-156
 6026 0598 FD01     		.short	509
 6027 059a 9800     		.short	152
 6028 059c 27FC     		.short	-985
 6029 059e 0000     		.short	0
 6030 05a0 0807     		.short	1800
 6031 05a2 F5FD     		.short	-523
 6032 05a4 3AF2     		.short	-3526
 6033 05a6 F009     		.short	2544
 6034 05a8 4638     		.short	14406
 6035 05aa D13F     		.short	16337
 6036 05ac 9E15     		.short	5534
 6037 05ae F4F3     		.short	-3084
 6038 05b0 AEF9     		.short	-1618
ARM GAS  C:\Users\rdn\AppData\Local\Temp\cc5zc0m9.s 			page 138


 6039 05b2 A106     		.short	1697
 6040 05b4 4902     		.short	585
 6041 05b6 09FC     		.short	-1015
 6042 05b8 5CFF     		.short	-164
 6043 05ba 4102     		.short	577
 6044 05bc 0000     		.short	0
 6045 05be DDFE     		.short	-291
 6046 05c0 2900     		.short	41
 6047 05c2 7800     		.short	120
 6048 05c4 E2FF     		.short	-30
 6049 05c6 DEFF     		.short	-34
 6050 05c8 F4FF     		.short	-12
 6051 05ca CCFF     		.short	-52
 6052 05cc 3E00     		.short	62
 6053 05ce 7D00     		.short	125
 6054 05d0 44FF     		.short	-188
 6055 05d2 29FF     		.short	-215
 6056 05d4 BD01     		.short	445
 6057 05d6 1F01     		.short	287
 6058 05d8 74FC     		.short	-908
 6059 05da F5FE     		.short	-267
 6060 05dc C306     		.short	1731
 6061 05de 0000     		.short	0
 6062 05e0 59F2     		.short	-3495
 6063 05e2 B204     		.short	1202
 6064 05e4 6933     		.short	13161
 6065 05e6 4B42     		.short	16971
 6066 05e8 CE1B     		.short	7118
 6067 05ea E2F5     		.short	-2590
 6068 05ec A1F7     		.short	-2143
 6069 05ee EC05     		.short	1516
 6070 05f0 6E03     		.short	878
 6071 05f2 41FC     		.short	-959
 6072 05f4 B2FE     		.short	-334
 6073 05f6 3E02     		.short	574
 6074 05f8 5B00     		.short	91
 6075 05fa D0FE     		.short	-304
 6076 05fc 0000     		.short	0
 6077 05fe 8500     		.short	133
 6078 0600 EFFF     		.short	-17
 6079 0602 D7FF     		.short	-41
 6080 0604 FBFF     		.short	-5
 6081 0606 CCFF     		.short	-52
 6082 0608 2800     		.short	40
 6083 060a 8A00     		.short	138
 6084 060c 72FF     		.short	-142
 6085 060e FBFE     		.short	-261
 6086 0610 6F01     		.short	367
 6087 0612 8F01     		.short	399
 6088 0614 E4FC     		.short	-796
 6089 0616 08FE     		.short	-504
 6090 0618 3906     		.short	1593
 6091 061a E001     		.short	480
 6092 061c 09F3     		.short	-3319
 6093 061e 0000     		.short	0
 6094 0620 FC2D     		.short	11772
 6095 0622 CE43     		.short	17358
ARM GAS  C:\Users\rdn\AppData\Local\Temp\cc5zc0m9.s 			page 139


 6096 0624 0822     		.short	8712
 6097 0626 8CF8     		.short	-1908
 6098 0628 C5F5     		.short	-2619
 6099 062a E104     		.short	1249
 6100 062c 8104     		.short	1153
 6101 062e AAFC     		.short	-854
 6102 0630 0BFE     		.short	-501
 6103 0632 1F02     		.short	543
 6104 0634 B900     		.short	185
 6105 0636 CFFE     		.short	-305
 6106 0638 D3FF     		.short	-45
 6107 063a 8D00     		.short	141
 6108 063c 0000     		.short	0
 6109 063e D2FF     		.short	-46
 6110              		.type	h_48k_12k8_q15, %object
 6111              		.size	h_48k_12k8_q15, 480
 6112              	h_48k_12k8_q15:
 6113 0640 F3FF     		.short	-13
 6114 0642 E7FF     		.short	-25
 6115 0644 ECFF     		.short	-20
 6116 0646 0A00     		.short	10
 6117 0648 3300     		.short	51
 6118 064a 4700     		.short	71
 6119 064c 2600     		.short	38
 6120 064e D1FF     		.short	-47
 6121 0650 7BFF     		.short	-133
 6122 0652 6FFF     		.short	-145
 6123 0654 D6FF     		.short	-42
 6124 0656 8B00     		.short	139
 6125 0658 1501     		.short	277
 6126 065a F200     		.short	242
 6127 065c 0000     		.short	0
 6128 065e B7FE     		.short	-329
 6129 0660 01FE     		.short	-511
 6130 0662 A1FE     		.short	-351
 6131 0664 9000     		.short	144
 6132 0666 BA02     		.short	698
 6133 0668 7F03     		.short	895
 6134 066a C201     		.short	450
 6135 066c E9FD     		.short	-535
 6136 066e 1AFA     		.short	-1510
 6137 0670 5FF9     		.short	-1697
 6138 0672 F7FD     		.short	-521
 6139 0674 CF07     		.short	1999
 6140 0676 1214     		.short	5138
 6141 0678 391E     		.short	7737
 6142 067a 2822     		.short	8744
 6143 067c 391E     		.short	7737
 6144 067e 1214     		.short	5138
 6145 0680 CF07     		.short	1999
 6146 0682 F7FD     		.short	-521
 6147 0684 5FF9     		.short	-1697
 6148 0686 1AFA     		.short	-1510
 6149 0688 E9FD     		.short	-535
 6150 068a C201     		.short	450
 6151 068c 7F03     		.short	895
 6152 068e BA02     		.short	698
ARM GAS  C:\Users\rdn\AppData\Local\Temp\cc5zc0m9.s 			page 140


 6153 0690 9000     		.short	144
 6154 0692 A1FE     		.short	-351
 6155 0694 01FE     		.short	-511
 6156 0696 B7FE     		.short	-329
 6157 0698 0000     		.short	0
 6158 069a F200     		.short	242
 6159 069c 1501     		.short	277
 6160 069e 8B00     		.short	139
 6161 06a0 D6FF     		.short	-42
 6162 06a2 6FFF     		.short	-145
 6163 06a4 7BFF     		.short	-133
 6164 06a6 D1FF     		.short	-47
 6165 06a8 2600     		.short	38
 6166 06aa 4700     		.short	71
 6167 06ac 3300     		.short	51
 6168 06ae 0A00     		.short	10
 6169 06b0 ECFF     		.short	-20
 6170 06b2 E7FF     		.short	-25
 6171 06b4 F3FF     		.short	-13
 6172 06b6 0000     		.short	0
 6173 06b8 F7FF     		.short	-9
 6174 06ba E9FF     		.short	-23
 6175 06bc E8FF     		.short	-24
 6176 06be 0000     		.short	0
 6177 06c0 2900     		.short	41
 6178 06c2 4700     		.short	71
 6179 06c4 3400     		.short	52
 6180 06c6 E9FF     		.short	-23
 6181 06c8 8DFF     		.short	-115
 6182 06ca 68FF     		.short	-152
 6183 06cc B2FF     		.short	-78
 6184 06ce 5C00     		.short	92
 6185 06d0 FE00     		.short	254
 6186 06d2 1001     		.short	272
 6187 06d4 4C00     		.short	76
 6188 06d6 05FF     		.short	-251
 6189 06d8 13FE     		.short	-493
 6190 06da 55FE     		.short	-427
 6191 06dc 0000     		.short	0
 6192 06de 4002     		.short	576
 6193 06e0 8403     		.short	900
 6194 06e2 7002     		.short	624
 6195 06e4 FAFE     		.short	-262
 6196 06e6 E3FA     		.short	-1309
 6197 06e8 1DF9     		.short	-1763
 6198 06ea 46FC     		.short	-954
 6199 06ec F804     		.short	1272
 6200 06ee 0411     		.short	4356
 6201 06f0 231C     		.short	7203
 6202 06f2 E721     		.short	8679
 6203 06f4 E91F     		.short	8169
 6204 06f6 FE16     		.short	5886
 6205 06f8 CF0A     		.short	2767
 6206 06fa 0000     		.short	0
 6207 06fc FAF9     		.short	-1542
 6208 06fe 84F9     		.short	-1660
 6209 0700 D7FC     		.short	-809
ARM GAS  C:\Users\rdn\AppData\Local\Temp\cc5zc0m9.s 			page 141


 6210 0702 F000     		.short	240
 6211 0704 5003     		.short	848
 6212 0706 1C03     		.short	796
 6213 0708 2401     		.short	292
 6214 070a 04FF     		.short	-252
 6215 070c 05FE     		.short	-507
 6216 070e 72FE     		.short	-398
 6217 0710 AEFF     		.short	-82
 6218 0712 C700     		.short	199
 6219 0714 2001     		.short	288
 6220 0716 B700     		.short	183
 6221 0718 0000     		.short	0
 6222 071a 7EFF     		.short	-130
 6223 071c 6FFF     		.short	-145
 6224 071e B9FF     		.short	-71
 6225 0720 1400     		.short	20
 6226 0722 4500     		.short	69
 6227 0724 3C00     		.short	60
 6228 0726 1400     		.short	20
 6229 0728 F1FF     		.short	-15
 6230 072a E6FF     		.short	-26
 6231 072c EFFF     		.short	-17
 6232 072e FDFF     		.short	-3
 6233 0730 FAFF     		.short	-6
 6234 0732 ECFF     		.short	-20
 6235 0734 E6FF     		.short	-26
 6236 0736 F8FF     		.short	-8
 6237 0738 1F00     		.short	31
 6238 073a 4300     		.short	67
 6239 073c 3E00     		.short	62
 6240 073e 0000     		.short	0
 6241 0740 A2FF     		.short	-94
 6242 0742 68FF     		.short	-152
 6243 0744 94FF     		.short	-108
 6244 0746 2D00     		.short	45
 6245 0748 DF00     		.short	223
 6246 074a 1F01     		.short	287
 6247 074c 8F00     		.short	143
 6248 074e 59FF     		.short	-167
 6249 0750 3AFE     		.short	-454
 6250 0752 20FE     		.short	-480
 6251 0754 7AFF     		.short	-134
 6252 0756 B701     		.short	439
 6253 0758 6203     		.short	866
 6254 075a F602     		.short	758
 6255 075c 0000     		.short	0
 6256 075e D1FB     		.short	-1071
 6257 0760 2CF9     		.short	-1748
 6258 0762 F1FA     		.short	-1295
 6259 0764 5902     		.short	601
 6260 0766 E70D     		.short	3559
 6261 0768 B419     		.short	6580
 6262 076a 2521     		.short	8485
 6263 076c 2521     		.short	8485
 6264 076e B419     		.short	6580
 6265 0770 E70D     		.short	3559
 6266 0772 5902     		.short	601
ARM GAS  C:\Users\rdn\AppData\Local\Temp\cc5zc0m9.s 			page 142


 6267 0774 F1FA     		.short	-1295
 6268 0776 2CF9     		.short	-1748
 6269 0778 D1FB     		.short	-1071
 6270 077a 0000     		.short	0
 6271 077c F602     		.short	758
 6272 077e 6203     		.short	866
 6273 0780 B701     		.short	439
 6274 0782 7AFF     		.short	-134
 6275 0784 20FE     		.short	-480
 6276 0786 3AFE     		.short	-454
 6277 0788 59FF     		.short	-167
 6278 078a 8F00     		.short	143
 6279 078c 1F01     		.short	287
 6280 078e DF00     		.short	223
 6281 0790 2D00     		.short	45
 6282 0792 94FF     		.short	-108
 6283 0794 68FF     		.short	-152
 6284 0796 A2FF     		.short	-94
 6285 0798 0000     		.short	0
 6286 079a 3E00     		.short	62
 6287 079c 4300     		.short	67
 6288 079e 1F00     		.short	31
 6289 07a0 F8FF     		.short	-8
 6290 07a2 E6FF     		.short	-26
 6291 07a4 ECFF     		.short	-20
 6292 07a6 FAFF     		.short	-6
 6293 07a8 FDFF     		.short	-3
 6294 07aa EFFF     		.short	-17
 6295 07ac E6FF     		.short	-26
 6296 07ae F1FF     		.short	-15
 6297 07b0 1400     		.short	20
 6298 07b2 3C00     		.short	60
 6299 07b4 4500     		.short	69
 6300 07b6 1400     		.short	20
 6301 07b8 B9FF     		.short	-71
 6302 07ba 6FFF     		.short	-145
 6303 07bc 7EFF     		.short	-130
 6304 07be 0000     		.short	0
 6305 07c0 B700     		.short	183
 6306 07c2 2001     		.short	288
 6307 07c4 C700     		.short	199
 6308 07c6 AEFF     		.short	-82
 6309 07c8 72FE     		.short	-398
 6310 07ca 05FE     		.short	-507
 6311 07cc 04FF     		.short	-252
 6312 07ce 2401     		.short	292
 6313 07d0 1C03     		.short	796
 6314 07d2 5003     		.short	848
 6315 07d4 F000     		.short	240
 6316 07d6 D7FC     		.short	-809
 6317 07d8 84F9     		.short	-1660
 6318 07da FAF9     		.short	-1542
 6319 07dc 0000     		.short	0
 6320 07de CF0A     		.short	2767
 6321 07e0 FE16     		.short	5886
 6322 07e2 E91F     		.short	8169
 6323 07e4 E721     		.short	8679
ARM GAS  C:\Users\rdn\AppData\Local\Temp\cc5zc0m9.s 			page 143


 6324 07e6 231C     		.short	7203
 6325 07e8 0411     		.short	4356
 6326 07ea F804     		.short	1272
 6327 07ec 46FC     		.short	-954
 6328 07ee 1DF9     		.short	-1763
 6329 07f0 E3FA     		.short	-1309
 6330 07f2 FAFE     		.short	-262
 6331 07f4 7002     		.short	624
 6332 07f6 8403     		.short	900
 6333 07f8 4002     		.short	576
 6334 07fa 0000     		.short	0
 6335 07fc 55FE     		.short	-427
 6336 07fe 13FE     		.short	-493
 6337 0800 05FF     		.short	-251
 6338 0802 4C00     		.short	76
 6339 0804 1001     		.short	272
 6340 0806 FE00     		.short	254
 6341 0808 5C00     		.short	92
 6342 080a B2FF     		.short	-78
 6343 080c 68FF     		.short	-152
 6344 080e 8DFF     		.short	-115
 6345 0810 E9FF     		.short	-23
 6346 0812 3400     		.short	52
 6347 0814 4700     		.short	71
 6348 0816 2900     		.short	41
 6349 0818 0000     		.short	0
 6350 081a E8FF     		.short	-24
 6351 081c E9FF     		.short	-23
 6352 081e F7FF     		.short	-9
 6353              		.type	resample_12k8, %object
 6354              		.size	resample_12k8, 28
 6355              	resample_12k8:
 6356 0820 00000000 		.word	resample_8k_12k8
 6357 0824 00000000 		.word	resample_16k_12k8
 6358 0828 00000000 		.word	resample_24k_12k8
 6359 082c 00000000 		.word	resample_32k_12k8
 6360 0830 00000000 		.word	resample_48k_12k8
 6361 0834 00000000 		.word	resample_48k_12k8
 6362 0838 00000000 		.word	resample_96k_12k8
 6363              		.type	synthesize, %object
 6364              		.size	synthesize, 20
 6365              	synthesize:
 6366 083c 00000000 		.word	synthesize_4
 6367 0840 00000000 		.word	synthesize_4
 6368 0844 00000000 		.word	synthesize_6
 6369 0848 00000000 		.word	synthesize_8
 6370 084c 00000000 		.word	synthesize_12
 6371              		.text
 6372              	.Letext0:
 6373              		.file 4 "c:\\program files (x86)\\cypress\\psoc creator\\4.4\\psoc creator\\import\\gnu\\arm\\5.4.
 6374              		.file 5 "c:\\program files (x86)\\cypress\\psoc creator\\4.4\\psoc creator\\import\\gnu\\arm\\5.4.
 6375              		.file 6 ".\\liblc3\\include/lc3_private.h"
 6376              		.file 7 "..\\..\\..\\liblc3\\src\\ltpf.h"
 6377              		.file 8 "..\\..\\..\\liblc3\\src\\common.h"
 6378              		.file 9 "c:\\program files (x86)\\cypress\\psoc creator\\4.4\\psoc creator\\import\\gnu\\arm\\5.4.
 6379              		.file 10 "c:\\program files (x86)\\cypress\\psoc creator\\4.4\\psoc creator\\import\\gnu\\arm\\5.4
 6380              		.section	.debug_info,"",%progbits
ARM GAS  C:\Users\rdn\AppData\Local\Temp\cc5zc0m9.s 			page 144


 6381              	.Ldebug_info0:
 6382 0000 6A2C0000 		.4byte	0x2c6a
 6383 0004 0400     		.2byte	0x4
 6384 0006 00000000 		.4byte	.Ldebug_abbrev0
 6385 000a 04       		.byte	0x4
 6386 000b 01       		.uleb128 0x1
 6387 000c E2000000 		.4byte	.LASF145
 6388 0010 0C       		.byte	0xc
 6389 0011 8D020000 		.4byte	.LASF146
 6390 0015 B4030000 		.4byte	.LASF147
 6391 0019 30040000 		.4byte	.Ldebug_ranges0+0x430
 6392 001d 00000000 		.4byte	0
 6393 0021 00000000 		.4byte	.Ldebug_line0
 6394 0025 02       		.uleb128 0x2
 6395 0026 04       		.byte	0x4
 6396 0027 04       		.byte	0x4
 6397 0028 04020000 		.4byte	.LASF0
 6398 002c 02       		.uleb128 0x2
 6399 002d 01       		.byte	0x1
 6400 002e 06       		.byte	0x6
 6401 002f F8060000 		.4byte	.LASF1
 6402 0033 03       		.uleb128 0x3
 6403 0034 E2050000 		.4byte	.LASF3
 6404 0038 04       		.byte	0x4
 6405 0039 1D       		.byte	0x1d
 6406 003a 3E000000 		.4byte	0x3e
 6407 003e 02       		.uleb128 0x2
 6408 003f 01       		.byte	0x1
 6409 0040 08       		.byte	0x8
 6410 0041 7B060000 		.4byte	.LASF2
 6411 0045 03       		.uleb128 0x3
 6412 0046 53040000 		.4byte	.LASF4
 6413 004a 04       		.byte	0x4
 6414 004b 29       		.byte	0x29
 6415 004c 50000000 		.4byte	0x50
 6416 0050 02       		.uleb128 0x2
 6417 0051 02       		.byte	0x2
 6418 0052 05       		.byte	0x5
 6419 0053 43050000 		.4byte	.LASF5
 6420 0057 02       		.uleb128 0x2
 6421 0058 02       		.byte	0x2
 6422 0059 07       		.byte	0x7
 6423 005a 1D070000 		.4byte	.LASF6
 6424 005e 03       		.uleb128 0x3
 6425 005f 86000000 		.4byte	.LASF7
 6426 0063 04       		.byte	0x4
 6427 0064 3F       		.byte	0x3f
 6428 0065 69000000 		.4byte	0x69
 6429 0069 02       		.uleb128 0x2
 6430 006a 04       		.byte	0x4
 6431 006b 05       		.byte	0x5
 6432 006c 64050000 		.4byte	.LASF8
 6433 0070 02       		.uleb128 0x2
 6434 0071 04       		.byte	0x4
 6435 0072 07       		.byte	0x7
 6436 0073 22060000 		.4byte	.LASF9
 6437 0077 03       		.uleb128 0x3
ARM GAS  C:\Users\rdn\AppData\Local\Temp\cc5zc0m9.s 			page 145


 6438 0078 D8040000 		.4byte	.LASF10
 6439 007c 04       		.byte	0x4
 6440 007d 59       		.byte	0x59
 6441 007e 82000000 		.4byte	0x82
 6442 0082 02       		.uleb128 0x2
 6443 0083 08       		.byte	0x8
 6444 0084 05       		.byte	0x5
 6445 0085 16040000 		.4byte	.LASF11
 6446 0089 02       		.uleb128 0x2
 6447 008a 08       		.byte	0x8
 6448 008b 07       		.byte	0x7
 6449 008c 2E020000 		.4byte	.LASF12
 6450 0090 04       		.uleb128 0x4
 6451 0091 04       		.byte	0x4
 6452 0092 05       		.byte	0x5
 6453 0093 696E7400 		.ascii	"int\000"
 6454 0097 02       		.uleb128 0x2
 6455 0098 04       		.byte	0x4
 6456 0099 07       		.byte	0x7
 6457 009a 60000000 		.4byte	.LASF13
 6458 009e 03       		.uleb128 0x3
 6459 009f F2030000 		.4byte	.LASF14
 6460 00a3 05       		.byte	0x5
 6461 00a4 18       		.byte	0x18
 6462 00a5 33000000 		.4byte	0x33
 6463 00a9 03       		.uleb128 0x3
 6464 00aa 26020000 		.4byte	.LASF15
 6465 00ae 05       		.byte	0x5
 6466 00af 20       		.byte	0x20
 6467 00b0 45000000 		.4byte	0x45
 6468 00b4 03       		.uleb128 0x3
 6469 00b5 3B060000 		.4byte	.LASF16
 6470 00b9 05       		.byte	0x5
 6471 00ba 2C       		.byte	0x2c
 6472 00bb 5E000000 		.4byte	0x5e
 6473 00bf 03       		.uleb128 0x3
 6474 00c0 08030000 		.4byte	.LASF17
 6475 00c4 05       		.byte	0x5
 6476 00c5 38       		.byte	0x38
 6477 00c6 77000000 		.4byte	0x77
 6478 00ca 05       		.uleb128 0x5
 6479 00cb D4000000 		.4byte	.LASF23
 6480 00cf 01       		.byte	0x1
 6481 00d0 3E000000 		.4byte	0x3e
 6482 00d4 06       		.byte	0x6
 6483 00d5 3B       		.byte	0x3b
 6484 00d6 F9000000 		.4byte	0xf9
 6485 00da 06       		.uleb128 0x6
 6486 00db 4D050000 		.4byte	.LASF18
 6487 00df 00       		.byte	0
 6488 00e0 06       		.uleb128 0x6
 6489 00e1 E2010000 		.4byte	.LASF19
 6490 00e5 01       		.byte	0x1
 6491 00e6 06       		.uleb128 0x6
 6492 00e7 26050000 		.4byte	.LASF20
 6493 00eb 02       		.byte	0x2
 6494 00ec 06       		.uleb128 0x6
ARM GAS  C:\Users\rdn\AppData\Local\Temp\cc5zc0m9.s 			page 146


 6495 00ed 72030000 		.4byte	.LASF21
 6496 00f1 03       		.byte	0x3
 6497 00f2 06       		.uleb128 0x6
 6498 00f3 C2020000 		.4byte	.LASF22
 6499 00f7 04       		.byte	0x4
 6500 00f8 00       		.byte	0
 6501 00f9 05       		.uleb128 0x5
 6502 00fa 71060000 		.4byte	.LASF24
 6503 00fe 01       		.byte	0x1
 6504 00ff 3E000000 		.4byte	0x3e
 6505 0103 06       		.byte	0x6
 6506 0104 49       		.byte	0x49
 6507 0105 3A010000 		.4byte	0x13a
 6508 0109 06       		.uleb128 0x6
 6509 010a EB060000 		.4byte	.LASF25
 6510 010e 00       		.byte	0
 6511 010f 06       		.uleb128 0x6
 6512 0110 F2050000 		.4byte	.LASF26
 6513 0114 01       		.byte	0x1
 6514 0115 06       		.uleb128 0x6
 6515 0116 11000000 		.4byte	.LASF27
 6516 011a 02       		.byte	0x2
 6517 011b 06       		.uleb128 0x6
 6518 011c A8020000 		.4byte	.LASF28
 6519 0120 03       		.byte	0x3
 6520 0121 06       		.uleb128 0x6
 6521 0122 6D000000 		.4byte	.LASF29
 6522 0126 04       		.byte	0x4
 6523 0127 06       		.uleb128 0x6
 6524 0128 95010000 		.4byte	.LASF30
 6525 012c 05       		.byte	0x5
 6526 012d 06       		.uleb128 0x6
 6527 012e 51070000 		.4byte	.LASF31
 6528 0132 06       		.byte	0x6
 6529 0133 06       		.uleb128 0x6
 6530 0134 09050000 		.4byte	.LASF32
 6531 0138 07       		.byte	0x7
 6532 0139 00       		.byte	0
 6533 013a 07       		.uleb128 0x7
 6534 013b A3000000 		.4byte	.LASF33
 6535 013f 10       		.byte	0x10
 6536 0140 06       		.byte	0x6
 6537 0141 5F       		.byte	0x5f
 6538 0142 5D010000 		.4byte	0x15d
 6539 0146 08       		.uleb128 0x8
 6540 0147 733100   		.ascii	"s1\000"
 6541 014a 06       		.byte	0x6
 6542 014b 60       		.byte	0x60
 6543 014c BF000000 		.4byte	0xbf
 6544 0150 00       		.byte	0
 6545 0151 08       		.uleb128 0x8
 6546 0152 733200   		.ascii	"s2\000"
 6547 0155 06       		.byte	0x6
 6548 0156 60       		.byte	0x60
 6549 0157 BF000000 		.4byte	0xbf
 6550 015b 08       		.byte	0x8
 6551 015c 00       		.byte	0
ARM GAS  C:\Users\rdn\AppData\Local\Temp\cc5zc0m9.s 			page 147


 6552 015d 09       		.uleb128 0x9
 6553 015e 93070000 		.4byte	.LASF34
 6554 0162 8804     		.2byte	0x488
 6555 0164 06       		.byte	0x6
 6556 0165 63       		.byte	0x63
 6557 0166 BF010000 		.4byte	0x1bf
 6558 016a 0A       		.uleb128 0xa
 6559 016b BE010000 		.4byte	.LASF35
 6560 016f 06       		.byte	0x6
 6561 0170 64       		.byte	0x64
 6562 0171 BF010000 		.4byte	0x1bf
 6563 0175 00       		.byte	0
 6564 0176 0A       		.uleb128 0xa
 6565 0177 90000000 		.4byte	.LASF36
 6566 017b 06       		.byte	0x6
 6567 017c 65       		.byte	0x65
 6568 017d 90000000 		.4byte	0x90
 6569 0181 04       		.byte	0x4
 6570 0182 08       		.uleb128 0x8
 6571 0183 6E6300   		.ascii	"nc\000"
 6572 0186 06       		.byte	0x6
 6573 0187 66       		.byte	0x66
 6574 0188 C6010000 		.4byte	0x1c6
 6575 018c 08       		.byte	0x8
 6576 018d 0A       		.uleb128 0xa
 6577 018e 36040000 		.4byte	.LASF37
 6578 0192 06       		.byte	0x6
 6579 0193 68       		.byte	0x68
 6580 0194 3A010000 		.4byte	0x13a
 6581 0198 10       		.byte	0x10
 6582 0199 0A       		.uleb128 0xa
 6583 019a C5010000 		.4byte	.LASF38
 6584 019e 06       		.byte	0x6
 6585 019f 69       		.byte	0x69
 6586 01a0 DD010000 		.4byte	0x1dd
 6587 01a4 20       		.byte	0x20
 6588 01a5 0B       		.uleb128 0xb
 6589 01a6 02030000 		.4byte	.LASF39
 6590 01aa 06       		.byte	0x6
 6591 01ab 6A       		.byte	0x6a
 6592 01ac EE010000 		.4byte	0x1ee
 6593 01b0 2003     		.2byte	0x320
 6594 01b2 0C       		.uleb128 0xc
 6595 01b3 746300   		.ascii	"tc\000"
 6596 01b6 06       		.byte	0x6
 6597 01b7 6B       		.byte	0x6b
 6598 01b8 90000000 		.4byte	0x90
 6599 01bc 8404     		.2byte	0x484
 6600 01be 00       		.byte	0
 6601 01bf 02       		.uleb128 0x2
 6602 01c0 01       		.byte	0x1
 6603 01c1 02       		.byte	0x2
 6604 01c2 48030000 		.4byte	.LASF40
 6605 01c6 0D       		.uleb128 0xd
 6606 01c7 25000000 		.4byte	0x25
 6607 01cb D6010000 		.4byte	0x1d6
 6608 01cf 0E       		.uleb128 0xe
ARM GAS  C:\Users\rdn\AppData\Local\Temp\cc5zc0m9.s 			page 148


 6609 01d0 D6010000 		.4byte	0x1d6
 6610 01d4 01       		.byte	0x1
 6611 01d5 00       		.byte	0
 6612 01d6 02       		.uleb128 0x2
 6613 01d7 04       		.byte	0x4
 6614 01d8 07       		.byte	0x7
 6615 01d9 19060000 		.4byte	.LASF41
 6616 01dd 0D       		.uleb128 0xd
 6617 01de A9000000 		.4byte	0xa9
 6618 01e2 EE010000 		.4byte	0x1ee
 6619 01e6 0F       		.uleb128 0xf
 6620 01e7 D6010000 		.4byte	0x1d6
 6621 01eb 7F01     		.2byte	0x17f
 6622 01ed 00       		.byte	0
 6623 01ee 0D       		.uleb128 0xd
 6624 01ef A9000000 		.4byte	0xa9
 6625 01f3 FE010000 		.4byte	0x1fe
 6626 01f7 0E       		.uleb128 0xe
 6627 01f8 D6010000 		.4byte	0x1d6
 6628 01fc B1       		.byte	0xb1
 6629 01fd 00       		.byte	0
 6630 01fe 07       		.uleb128 0x7
 6631 01ff 8E030000 		.4byte	.LASF42
 6632 0203 98       		.byte	0x98
 6633 0204 06       		.byte	0x6
 6634 0205 8E       		.byte	0x8e
 6635 0206 37020000 		.4byte	0x237
 6636 020a 0A       		.uleb128 0xa
 6637 020b BE010000 		.4byte	.LASF35
 6638 020f 06       		.byte	0x6
 6639 0210 8F       		.byte	0x8f
 6640 0211 BF010000 		.4byte	0x1bf
 6641 0215 00       		.byte	0
 6642 0216 0A       		.uleb128 0xa
 6643 0217 90000000 		.4byte	.LASF36
 6644 021b 06       		.byte	0x6
 6645 021c 90       		.byte	0x90
 6646 021d 90000000 		.4byte	0x90
 6647 0221 04       		.byte	0x4
 6648 0222 08       		.uleb128 0x8
 6649 0223 6300     		.ascii	"c\000"
 6650 0225 06       		.byte	0x6
 6651 0226 91       		.byte	0x91
 6652 0227 37020000 		.4byte	0x237
 6653 022b 08       		.byte	0x8
 6654 022c 08       		.uleb128 0x8
 6655 022d 7800     		.ascii	"x\000"
 6656 022f 06       		.byte	0x6
 6657 0230 91       		.byte	0x91
 6658 0231 47020000 		.4byte	0x247
 6659 0235 68       		.byte	0x68
 6660 0236 00       		.byte	0
 6661 0237 0D       		.uleb128 0xd
 6662 0238 25000000 		.4byte	0x25
 6663 023c 47020000 		.4byte	0x247
 6664 0240 0E       		.uleb128 0xe
 6665 0241 D6010000 		.4byte	0x1d6
ARM GAS  C:\Users\rdn\AppData\Local\Temp\cc5zc0m9.s 			page 149


 6666 0245 17       		.byte	0x17
 6667 0246 00       		.byte	0
 6668 0247 0D       		.uleb128 0xd
 6669 0248 25000000 		.4byte	0x25
 6670 024c 57020000 		.4byte	0x257
 6671 0250 0E       		.uleb128 0xe
 6672 0251 D6010000 		.4byte	0x1d6
 6673 0255 0B       		.byte	0xb
 6674 0256 00       		.byte	0
 6675 0257 03       		.uleb128 0x3
 6676 0258 E2040000 		.4byte	.LASF43
 6677 025c 06       		.byte	0x6
 6678 025d 92       		.byte	0x92
 6679 025e FE010000 		.4byte	0x1fe
 6680 0262 02       		.uleb128 0x2
 6681 0263 08       		.byte	0x8
 6682 0264 04       		.byte	0x4
 6683 0265 FD040000 		.4byte	.LASF44
 6684 0269 02       		.uleb128 0x2
 6685 026a 01       		.byte	0x1
 6686 026b 08       		.byte	0x8
 6687 026c 89030000 		.4byte	.LASF45
 6688 0270 02       		.uleb128 0x2
 6689 0271 08       		.byte	0x8
 6690 0272 04       		.byte	0x4
 6691 0273 4A070000 		.4byte	.LASF46
 6692 0277 05       		.uleb128 0x5
 6693 0278 B0010000 		.4byte	.LASF47
 6694 027c 01       		.byte	0x1
 6695 027d 3E000000 		.4byte	0x3e
 6696 0281 03       		.byte	0x3
 6697 0282 45       		.byte	0x45
 6698 0283 94020000 		.4byte	0x294
 6699 0287 06       		.uleb128 0x6
 6700 0288 37070000 		.4byte	.LASF48
 6701 028c 00       		.byte	0
 6702 028d 06       		.uleb128 0x6
 6703 028e A8050000 		.4byte	.LASF49
 6704 0292 01       		.byte	0x1
 6705 0293 00       		.byte	0
 6706 0294 07       		.uleb128 0x7
 6707 0295 A1030000 		.4byte	.LASF50
 6708 0299 0C       		.byte	0xc
 6709 029a 03       		.byte	0x3
 6710 029b 5E       		.byte	0x5e
 6711 029c C1020000 		.4byte	0x2c1
 6712 02a0 08       		.uleb128 0x8
 6713 02a1 7600     		.ascii	"v\000"
 6714 02a3 03       		.byte	0x3
 6715 02a4 5F       		.byte	0x5f
 6716 02a5 97000000 		.4byte	0x97
 6717 02a9 00       		.byte	0
 6718 02aa 08       		.uleb128 0x8
 6719 02ab 6E00     		.ascii	"n\000"
 6720 02ad 03       		.byte	0x3
 6721 02ae 60       		.byte	0x60
 6722 02af 90000000 		.4byte	0x90
ARM GAS  C:\Users\rdn\AppData\Local\Temp\cc5zc0m9.s 			page 150


 6723 02b3 04       		.byte	0x4
 6724 02b4 0A       		.uleb128 0xa
 6725 02b5 EC030000 		.4byte	.LASF51
 6726 02b9 03       		.byte	0x3
 6727 02ba 60       		.byte	0x60
 6728 02bb 90000000 		.4byte	0x90
 6729 02bf 08       		.byte	0x8
 6730 02c0 00       		.byte	0
 6731 02c1 07       		.uleb128 0x7
 6732 02c2 62070000 		.4byte	.LASF52
 6733 02c6 18       		.byte	0x18
 6734 02c7 03       		.byte	0x3
 6735 02c8 65       		.byte	0x65
 6736 02c9 16030000 		.4byte	0x316
 6737 02cd 08       		.uleb128 0x8
 6738 02ce 6C6F7700 		.ascii	"low\000"
 6739 02d2 03       		.byte	0x3
 6740 02d3 66       		.byte	0x66
 6741 02d4 97000000 		.4byte	0x97
 6742 02d8 00       		.byte	0
 6743 02d9 0A       		.uleb128 0xa
 6744 02da 8F040000 		.4byte	.LASF53
 6745 02de 03       		.byte	0x3
 6746 02df 66       		.byte	0x66
 6747 02e0 97000000 		.4byte	0x97
 6748 02e4 04       		.byte	0x4
 6749 02e5 0A       		.uleb128 0xa
 6750 02e6 C9040000 		.4byte	.LASF54
 6751 02ea 03       		.byte	0x3
 6752 02eb 67       		.byte	0x67
 6753 02ec 90000000 		.4byte	0x90
 6754 02f0 08       		.byte	0x8
 6755 02f1 0A       		.uleb128 0xa
 6756 02f2 20020000 		.4byte	.LASF55
 6757 02f6 03       		.byte	0x3
 6758 02f7 67       		.byte	0x67
 6759 02f8 90000000 		.4byte	0x90
 6760 02fc 0C       		.byte	0xc
 6761 02fd 0A       		.uleb128 0xa
 6762 02fe 62020000 		.4byte	.LASF56
 6763 0302 03       		.byte	0x3
 6764 0303 67       		.byte	0x67
 6765 0304 90000000 		.4byte	0x90
 6766 0308 10       		.byte	0x10
 6767 0309 0A       		.uleb128 0xa
 6768 030a B7000000 		.4byte	.LASF57
 6769 030e 03       		.byte	0x3
 6770 030f 68       		.byte	0x68
 6771 0310 BF010000 		.4byte	0x1bf
 6772 0314 14       		.byte	0x14
 6773 0315 00       		.byte	0
 6774 0316 07       		.uleb128 0x7
 6775 0317 3E000000 		.4byte	.LASF58
 6776 031b 10       		.byte	0x10
 6777 031c 03       		.byte	0x3
 6778 031d 6B       		.byte	0x6b
 6779 031e 53030000 		.4byte	0x353
ARM GAS  C:\Users\rdn\AppData\Local\Temp\cc5zc0m9.s 			page 151


 6780 0322 0A       		.uleb128 0xa
 6781 0323 EC050000 		.4byte	.LASF59
 6782 0327 03       		.byte	0x3
 6783 0328 6C       		.byte	0x6c
 6784 0329 53030000 		.4byte	0x353
 6785 032d 00       		.byte	0
 6786 032e 08       		.uleb128 0x8
 6787 032f 656E6400 		.ascii	"end\000"
 6788 0333 03       		.byte	0x3
 6789 0334 6C       		.byte	0x6c
 6790 0335 53030000 		.4byte	0x353
 6791 0339 04       		.byte	0x4
 6792 033a 0A       		.uleb128 0xa
 6793 033b A5070000 		.4byte	.LASF60
 6794 033f 03       		.byte	0x3
 6795 0340 6D       		.byte	0x6d
 6796 0341 5E030000 		.4byte	0x35e
 6797 0345 08       		.byte	0x8
 6798 0346 0A       		.uleb128 0xa
 6799 0347 FA030000 		.4byte	.LASF61
 6800 034b 03       		.byte	0x3
 6801 034c 6D       		.byte	0x6d
 6802 034d 5E030000 		.4byte	0x35e
 6803 0351 0C       		.byte	0xc
 6804 0352 00       		.byte	0
 6805 0353 10       		.uleb128 0x10
 6806 0354 04       		.byte	0x4
 6807 0355 59030000 		.4byte	0x359
 6808 0359 11       		.uleb128 0x11
 6809 035a 9E000000 		.4byte	0x9e
 6810 035e 10       		.uleb128 0x10
 6811 035f 04       		.byte	0x4
 6812 0360 9E000000 		.4byte	0x9e
 6813 0364 07       		.uleb128 0x7
 6814 0365 CF040000 		.4byte	.LASF62
 6815 0369 38       		.byte	0x38
 6816 036a 03       		.byte	0x3
 6817 036b 70       		.byte	0x70
 6818 036c A0030000 		.4byte	0x3a0
 6819 0370 0A       		.uleb128 0xa
 6820 0371 CF000000 		.4byte	.LASF63
 6821 0375 03       		.byte	0x3
 6822 0376 71       		.byte	0x71
 6823 0377 77020000 		.4byte	0x277
 6824 037b 00       		.byte	0
 6825 037c 08       		.uleb128 0x8
 6826 037d 616300   		.ascii	"ac\000"
 6827 0380 03       		.byte	0x3
 6828 0381 72       		.byte	0x72
 6829 0382 C1020000 		.4byte	0x2c1
 6830 0386 04       		.byte	0x4
 6831 0387 0A       		.uleb128 0xa
 6832 0388 84030000 		.4byte	.LASF64
 6833 038c 03       		.byte	0x3
 6834 038d 73       		.byte	0x73
 6835 038e 94020000 		.4byte	0x294
 6836 0392 1C       		.byte	0x1c
ARM GAS  C:\Users\rdn\AppData\Local\Temp\cc5zc0m9.s 			page 152


 6837 0393 0A       		.uleb128 0xa
 6838 0394 4E000000 		.4byte	.LASF65
 6839 0398 03       		.byte	0x3
 6840 0399 74       		.byte	0x74
 6841 039a 16030000 		.4byte	0x316
 6842 039e 28       		.byte	0x28
 6843 039f 00       		.byte	0
 6844 03a0 03       		.uleb128 0x3
 6845 03a1 55030000 		.4byte	.LASF66
 6846 03a5 03       		.byte	0x3
 6847 03a6 75       		.byte	0x75
 6848 03a7 64030000 		.4byte	0x364
 6849 03ab 07       		.uleb128 0x7
 6850 03ac 12020000 		.4byte	.LASF67
 6851 03b0 08       		.byte	0x8
 6852 03b1 07       		.byte	0x7
 6853 03b2 1E       		.byte	0x1e
 6854 03b3 D0030000 		.4byte	0x3d0
 6855 03b7 0A       		.uleb128 0xa
 6856 03b8 BE010000 		.4byte	.LASF35
 6857 03bc 07       		.byte	0x7
 6858 03bd 1F       		.byte	0x1f
 6859 03be BF010000 		.4byte	0x1bf
 6860 03c2 00       		.byte	0
 6861 03c3 0A       		.uleb128 0xa
 6862 03c4 22030000 		.4byte	.LASF68
 6863 03c8 07       		.byte	0x7
 6864 03c9 20       		.byte	0x20
 6865 03ca 90000000 		.4byte	0x90
 6866 03ce 04       		.byte	0x4
 6867 03cf 00       		.byte	0
 6868 03d0 03       		.uleb128 0x3
 6869 03d1 8F060000 		.4byte	.LASF69
 6870 03d5 07       		.byte	0x7
 6871 03d6 21       		.byte	0x21
 6872 03d7 AB030000 		.4byte	0x3ab
 6873 03db 10       		.uleb128 0x10
 6874 03dc 04       		.byte	0x4
 6875 03dd E1030000 		.4byte	0x3e1
 6876 03e1 11       		.uleb128 0x11
 6877 03e2 25000000 		.4byte	0x25
 6878 03e6 12       		.uleb128 0x12
 6879 03e7 B6020000 		.4byte	.LASF70
 6880 03eb 01       		.byte	0x1
 6881 03ec B8       		.byte	0xb8
 6882 03ed B4000000 		.4byte	0xb4
 6883 03f1 03       		.byte	0x3
 6884 03f2 3E040000 		.4byte	0x43e
 6885 03f6 13       		.uleb128 0x13
 6886 03f7 36040000 		.4byte	.LASF37
 6887 03fb 01       		.byte	0x1
 6888 03fc B9       		.byte	0xb9
 6889 03fd 3E040000 		.4byte	0x43e
 6890 0401 14       		.uleb128 0x14
 6891 0402 786E00   		.ascii	"xn\000"
 6892 0405 01       		.byte	0x1
 6893 0406 B9       		.byte	0xb9
ARM GAS  C:\Users\rdn\AppData\Local\Temp\cc5zc0m9.s 			page 153


 6894 0407 B4000000 		.4byte	0xb4
 6895 040b 15       		.uleb128 0x15
 6896 040c 796E00   		.ascii	"yn\000"
 6897 040f 01       		.byte	0x1
 6898 0410 BB       		.byte	0xbb
 6899 0411 B4000000 		.4byte	0xb4
 6900 0415 15       		.uleb128 0x15
 6901 0416 613100   		.ascii	"a1\000"
 6902 0419 01       		.byte	0x1
 6903 041a BD       		.byte	0xbd
 6904 041b 44040000 		.4byte	0x444
 6905 041f 15       		.uleb128 0x15
 6906 0420 613200   		.ascii	"a2\000"
 6907 0423 01       		.byte	0x1
 6908 0424 BD       		.byte	0xbd
 6909 0425 44040000 		.4byte	0x444
 6910 0429 15       		.uleb128 0x15
 6911 042a 623100   		.ascii	"b1\000"
 6912 042d 01       		.byte	0x1
 6913 042e BE       		.byte	0xbe
 6914 042f 44040000 		.4byte	0x444
 6915 0433 15       		.uleb128 0x15
 6916 0434 623200   		.ascii	"b2\000"
 6917 0437 01       		.byte	0x1
 6918 0438 BE       		.byte	0xbe
 6919 0439 44040000 		.4byte	0x444
 6920 043d 00       		.byte	0
 6921 043e 10       		.uleb128 0x10
 6922 043f 04       		.byte	0x4
 6923 0440 3A010000 		.4byte	0x13a
 6924 0444 11       		.uleb128 0x11
 6925 0445 B4000000 		.4byte	0xb4
 6926 0449 16       		.uleb128 0x16
 6927 044a 646F7400 		.ascii	"dot\000"
 6928 044e 01       		.byte	0x1
 6929 044f B601     		.2byte	0x1b6
 6930 0451 25000000 		.4byte	0x25
 6931 0455 03       		.byte	0x3
 6932 0456 A7040000 		.4byte	0x4a7
 6933 045a 17       		.uleb128 0x17
 6934 045b 6100     		.ascii	"a\000"
 6935 045d 01       		.byte	0x1
 6936 045e B601     		.2byte	0x1b6
 6937 0460 A7040000 		.4byte	0x4a7
 6938 0464 17       		.uleb128 0x17
 6939 0465 6200     		.ascii	"b\000"
 6940 0467 01       		.byte	0x1
 6941 0468 B601     		.2byte	0x1b6
 6942 046a A7040000 		.4byte	0x4a7
 6943 046e 17       		.uleb128 0x17
 6944 046f 6E00     		.ascii	"n\000"
 6945 0471 01       		.byte	0x1
 6946 0472 B601     		.2byte	0x1b6
 6947 0474 90000000 		.4byte	0x90
 6948 0478 18       		.uleb128 0x18
 6949 0479 7600     		.ascii	"v\000"
 6950 047b 01       		.byte	0x1
ARM GAS  C:\Users\rdn\AppData\Local\Temp\cc5zc0m9.s 			page 154


 6951 047c B801     		.2byte	0x1b8
 6952 047e BF000000 		.4byte	0xbf
 6953 0482 18       		.uleb128 0x18
 6954 0483 76333200 		.ascii	"v32\000"
 6955 0487 01       		.byte	0x1
 6956 0488 BE01     		.2byte	0x1be
 6957 048a B4000000 		.4byte	0xb4
 6958 048e 19       		.uleb128 0x19
 6959 048f 18       		.uleb128 0x18
 6960 0490 6900     		.ascii	"i\000"
 6961 0492 01       		.byte	0x1
 6962 0493 BA01     		.2byte	0x1ba
 6963 0495 90000000 		.4byte	0x90
 6964 0499 19       		.uleb128 0x19
 6965 049a 18       		.uleb128 0x18
 6966 049b 6A00     		.ascii	"j\000"
 6967 049d 01       		.byte	0x1
 6968 049e BB01     		.2byte	0x1bb
 6969 04a0 90000000 		.4byte	0x90
 6970 04a4 00       		.byte	0
 6971 04a5 00       		.byte	0
 6972 04a6 00       		.byte	0
 6973 04a7 10       		.uleb128 0x10
 6974 04a8 04       		.byte	0x4
 6975 04a9 AD040000 		.4byte	0x4ad
 6976 04ad 11       		.uleb128 0x11
 6977 04ae A9000000 		.4byte	0xa9
 6978 04b2 1A       		.uleb128 0x1a
 6979 04b3 E8020000 		.4byte	.LASF76
 6980 04b7 03       		.byte	0x3
 6981 04b8 DA       		.byte	0xda
 6982 04b9 03       		.byte	0x3
 6983 04ba E7040000 		.4byte	0x4e7
 6984 04be 13       		.uleb128 0x13
 6985 04bf FF030000 		.4byte	.LASF71
 6986 04c3 03       		.byte	0x3
 6987 04c4 DB       		.byte	0xdb
 6988 04c5 E7040000 		.4byte	0x4e7
 6989 04c9 14       		.uleb128 0x14
 6990 04ca 7600     		.ascii	"v\000"
 6991 04cc 03       		.byte	0x3
 6992 04cd DB       		.byte	0xdb
 6993 04ce 97000000 		.4byte	0x97
 6994 04d2 14       		.uleb128 0x14
 6995 04d3 6E00     		.ascii	"n\000"
 6996 04d5 03       		.byte	0x3
 6997 04d6 DB       		.byte	0xdb
 6998 04d7 90000000 		.4byte	0x90
 6999 04db 1B       		.uleb128 0x1b
 7000 04dc 84030000 		.4byte	.LASF64
 7001 04e0 03       		.byte	0x3
 7002 04e1 DD       		.byte	0xdd
 7003 04e2 ED040000 		.4byte	0x4ed
 7004 04e6 00       		.byte	0
 7005 04e7 10       		.uleb128 0x10
 7006 04e8 04       		.byte	0x4
 7007 04e9 64030000 		.4byte	0x364
ARM GAS  C:\Users\rdn\AppData\Local\Temp\cc5zc0m9.s 			page 155


 7008 04ed 10       		.uleb128 0x10
 7009 04ee 04       		.byte	0x4
 7010 04ef 94020000 		.4byte	0x294
 7011 04f3 12       		.uleb128 0x12
 7012 04f4 96000000 		.4byte	.LASF72
 7013 04f8 03       		.byte	0x3
 7014 04f9 F2       		.byte	0xf2
 7015 04fa 97000000 		.4byte	0x97
 7016 04fe 03       		.byte	0x3
 7017 04ff 2E050000 		.4byte	0x52e
 7018 0503 13       		.uleb128 0x13
 7019 0504 FF030000 		.4byte	.LASF71
 7020 0508 03       		.byte	0x3
 7021 0509 F2       		.byte	0xf2
 7022 050a E7040000 		.4byte	0x4e7
 7023 050e 14       		.uleb128 0x14
 7024 050f 6E00     		.ascii	"n\000"
 7025 0511 03       		.byte	0x3
 7026 0512 F2       		.byte	0xf2
 7027 0513 90000000 		.4byte	0x90
 7028 0517 1B       		.uleb128 0x1b
 7029 0518 84030000 		.4byte	.LASF64
 7030 051c 03       		.byte	0x3
 7031 051d F4       		.byte	0xf4
 7032 051e ED040000 		.4byte	0x4ed
 7033 0522 19       		.uleb128 0x19
 7034 0523 15       		.uleb128 0x15
 7035 0524 7600     		.ascii	"v\000"
 7036 0526 03       		.byte	0x3
 7037 0527 F7       		.byte	0xf7
 7038 0528 90000000 		.4byte	0x90
 7039 052c 00       		.byte	0
 7040 052d 00       		.byte	0
 7041 052e 12       		.uleb128 0x12
 7042 052f 7D030000 		.4byte	.LASF73
 7043 0533 08       		.byte	0x8
 7044 0534 6D       		.byte	0x6d
 7045 0535 BF010000 		.4byte	0x1bf
 7046 0539 03       		.byte	0x3
 7047 053a 49050000 		.4byte	0x549
 7048 053e 14       		.uleb128 0x14
 7049 053f 737200   		.ascii	"sr\000"
 7050 0542 08       		.byte	0x8
 7051 0543 6D       		.byte	0x6d
 7052 0544 F9000000 		.4byte	0xf9
 7053 0548 00       		.byte	0
 7054 0549 12       		.uleb128 0x12
 7055 054a 2B000000 		.4byte	.LASF74
 7056 054e 02       		.byte	0x2
 7057 054f 3B       		.byte	0x3b
 7058 0550 90000000 		.4byte	0x90
 7059 0554 03       		.byte	0x3
 7060 0555 6E050000 		.4byte	0x56e
 7061 0559 14       		.uleb128 0x14
 7062 055a 647400   		.ascii	"dt\000"
 7063 055d 02       		.byte	0x2
 7064 055e 3B       		.byte	0x3b
ARM GAS  C:\Users\rdn\AppData\Local\Temp\cc5zc0m9.s 			page 156


 7065 055f CA000000 		.4byte	0xca
 7066 0563 14       		.uleb128 0x14
 7067 0564 737200   		.ascii	"sr\000"
 7068 0567 02       		.byte	0x2
 7069 0568 3B       		.byte	0x3b
 7070 0569 F9000000 		.4byte	0xf9
 7071 056d 00       		.byte	0
 7072 056e 12       		.uleb128 0x12
 7073 056f 34060000 		.4byte	.LASF75
 7074 0573 02       		.byte	0x2
 7075 0574 2E       		.byte	0x2e
 7076 0575 90000000 		.4byte	0x90
 7077 0579 03       		.byte	0x3
 7078 057a 93050000 		.4byte	0x593
 7079 057e 14       		.uleb128 0x14
 7080 057f 647400   		.ascii	"dt\000"
 7081 0582 02       		.byte	0x2
 7082 0583 2E       		.byte	0x2e
 7083 0584 CA000000 		.4byte	0xca
 7084 0588 14       		.uleb128 0x14
 7085 0589 737200   		.ascii	"sr\000"
 7086 058c 02       		.byte	0x2
 7087 058d 2E       		.byte	0x2e
 7088 058e F9000000 		.4byte	0xf9
 7089 0592 00       		.byte	0
 7090 0593 1A       		.uleb128 0x1a
 7091 0594 5E060000 		.4byte	.LASF77
 7092 0598 01       		.byte	0x1
 7093 0599 D5       		.byte	0xd5
 7094 059a 03       		.byte	0x3
 7095 059b 21060000 		.4byte	0x621
 7096 059f 14       		.uleb128 0x14
 7097 05a0 7000     		.ascii	"p\000"
 7098 05a2 01       		.byte	0x1
 7099 05a3 D5       		.byte	0xd5
 7100 05a4 21060000 		.4byte	0x621
 7101 05a8 14       		.uleb128 0x14
 7102 05a9 6800     		.ascii	"h\000"
 7103 05ab 01       		.byte	0x1
 7104 05ac D5       		.byte	0xd5
 7105 05ad A7040000 		.4byte	0x4a7
 7106 05b1 13       		.uleb128 0x13
 7107 05b2 36040000 		.4byte	.LASF37
 7108 05b6 01       		.byte	0x1
 7109 05b7 D6       		.byte	0xd6
 7110 05b8 3E040000 		.4byte	0x43e
 7111 05bc 14       		.uleb128 0x14
 7112 05bd 7800     		.ascii	"x\000"
 7113 05bf 01       		.byte	0x1
 7114 05c0 D6       		.byte	0xd6
 7115 05c1 A7040000 		.4byte	0x4a7
 7116 05c5 14       		.uleb128 0x14
 7117 05c6 7900     		.ascii	"y\000"
 7118 05c8 01       		.byte	0x1
 7119 05c9 D6       		.byte	0xd6
 7120 05ca 26060000 		.4byte	0x626
 7121 05ce 14       		.uleb128 0x14
ARM GAS  C:\Users\rdn\AppData\Local\Temp\cc5zc0m9.s 			page 157


 7122 05cf 6E00     		.ascii	"n\000"
 7123 05d1 01       		.byte	0x1
 7124 05d2 D6       		.byte	0xd6
 7125 05d3 90000000 		.4byte	0x90
 7126 05d7 15       		.uleb128 0x15
 7127 05d8 7700     		.ascii	"w\000"
 7128 05da 01       		.byte	0x1
 7129 05db D8       		.byte	0xd8
 7130 05dc 21060000 		.4byte	0x621
 7131 05e0 19       		.uleb128 0x19
 7132 05e1 15       		.uleb128 0x15
 7133 05e2 6900     		.ascii	"i\000"
 7134 05e4 01       		.byte	0x1
 7135 05e5 DC       		.byte	0xdc
 7136 05e6 90000000 		.4byte	0x90
 7137 05ea 19       		.uleb128 0x19
 7138 05eb 15       		.uleb128 0x15
 7139 05ec 686E00   		.ascii	"hn\000"
 7140 05ef 01       		.byte	0x1
 7141 05f0 DD       		.byte	0xdd
 7142 05f1 A7040000 		.4byte	0x4a7
 7143 05f5 15       		.uleb128 0x15
 7144 05f6 786E00   		.ascii	"xn\000"
 7145 05f9 01       		.byte	0x1
 7146 05fa DE       		.byte	0xde
 7147 05fb A7040000 		.4byte	0x4a7
 7148 05ff 15       		.uleb128 0x15
 7149 0600 756E00   		.ascii	"un\000"
 7150 0603 01       		.byte	0x1
 7151 0604 DF       		.byte	0xdf
 7152 0605 B4000000 		.4byte	0xb4
 7153 0609 15       		.uleb128 0x15
 7154 060a 796E00   		.ascii	"yn\000"
 7155 060d 01       		.byte	0x1
 7156 060e EE       		.byte	0xee
 7157 060f B4000000 		.4byte	0xb4
 7158 0613 19       		.uleb128 0x19
 7159 0614 15       		.uleb128 0x15
 7160 0615 6B00     		.ascii	"k\000"
 7161 0617 01       		.byte	0x1
 7162 0618 E1       		.byte	0xe1
 7163 0619 90000000 		.4byte	0x90
 7164 061d 00       		.byte	0
 7165 061e 00       		.byte	0
 7166 061f 00       		.byte	0
 7167 0620 00       		.byte	0
 7168 0621 11       		.uleb128 0x11
 7169 0622 90000000 		.4byte	0x90
 7170 0626 10       		.uleb128 0x10
 7171 0627 04       		.byte	0x4
 7172 0628 A9000000 		.4byte	0xa9
 7173 062c 1C       		.uleb128 0x1c
 7174 062d F3010000 		.4byte	.LASF79
 7175 0631 01       		.byte	0x1
 7176 0632 2F01     		.2byte	0x12f
 7177 0634 00000000 		.4byte	.LFB23
 7178 0638 70010000 		.4byte	.LFE23-.LFB23
ARM GAS  C:\Users\rdn\AppData\Local\Temp\cc5zc0m9.s 			page 158


 7179 063c 01       		.uleb128 0x1
 7180 063d 9C       		.byte	0x9c
 7181 063e 75070000 		.4byte	0x775
 7182 0642 1D       		.uleb128 0x1d
 7183 0643 36040000 		.4byte	.LASF37
 7184 0647 01       		.byte	0x1
 7185 0648 3001     		.2byte	0x130
 7186 064a 3E040000 		.4byte	0x43e
 7187 064e 01       		.uleb128 0x1
 7188 064f 50       		.byte	0x50
 7189 0650 1E       		.uleb128 0x1e
 7190 0651 7800     		.ascii	"x\000"
 7191 0653 01       		.byte	0x1
 7192 0654 3001     		.2byte	0x130
 7193 0656 A7040000 		.4byte	0x4a7
 7194 065a 00000000 		.4byte	.LLST0
 7195 065e 1E       		.uleb128 0x1e
 7196 065f 7900     		.ascii	"y\000"
 7197 0661 01       		.byte	0x1
 7198 0662 3001     		.2byte	0x130
 7199 0664 26060000 		.4byte	0x626
 7200 0668 2B000000 		.4byte	.LLST1
 7201 066c 1E       		.uleb128 0x1e
 7202 066d 6E00     		.ascii	"n\000"
 7203 066f 01       		.byte	0x1
 7204 0670 3001     		.2byte	0x130
 7205 0672 90000000 		.4byte	0x90
 7206 0676 4C000000 		.4byte	.LLST2
 7207 067a 1F       		.uleb128 0x1f
 7208 067b 93050000 		.4byte	0x593
 7209 067f 0A000000 		.4byte	.LBB78
 7210 0683 46010000 		.4byte	.LBE78-.LBB78
 7211 0687 01       		.byte	0x1
 7212 0688 3201     		.2byte	0x132
 7213 068a 20       		.uleb128 0x20
 7214 068b CE050000 		.4byte	0x5ce
 7215 068f 6A000000 		.4byte	.LLST3
 7216 0693 20       		.uleb128 0x20
 7217 0694 C5050000 		.4byte	0x5c5
 7218 0698 88000000 		.4byte	.LLST4
 7219 069c 20       		.uleb128 0x20
 7220 069d BC050000 		.4byte	0x5bc
 7221 06a1 B3000000 		.4byte	.LLST5
 7222 06a5 21       		.uleb128 0x21
 7223 06a6 B1050000 		.4byte	0x5b1
 7224 06aa 01       		.uleb128 0x1
 7225 06ab 50       		.byte	0x50
 7226 06ac 21       		.uleb128 0x21
 7227 06ad A8050000 		.4byte	0x5a8
 7228 06b1 06       		.uleb128 0x6
 7229 06b2 03       		.byte	0x3
 7230 06b3 00000000 		.4byte	h_8k_12k8_q15
 7231 06b7 9F       		.byte	0x9f
 7232 06b8 22       		.uleb128 0x22
 7233 06b9 9F050000 		.4byte	0x59f
 7234 06bd 08       		.byte	0x8
 7235 06be 23       		.uleb128 0x23
ARM GAS  C:\Users\rdn\AppData\Local\Temp\cc5zc0m9.s 			page 159


 7236 06bf 0A000000 		.4byte	.LBB79
 7237 06c3 46010000 		.4byte	.LBE79-.LBB79
 7238 06c7 24       		.uleb128 0x24
 7239 06c8 D7050000 		.4byte	0x5d7
 7240 06cc 0A       		.byte	0xa
 7241 06cd 23       		.uleb128 0x23
 7242 06ce 0E000000 		.4byte	.LBB80
 7243 06d2 42010000 		.4byte	.LBE80-.LBB80
 7244 06d6 25       		.uleb128 0x25
 7245 06d7 E1050000 		.4byte	0x5e1
 7246 06db F3000000 		.4byte	.LLST6
 7247 06df 26       		.uleb128 0x26
 7248 06e0 00000000 		.4byte	.Ldebug_ranges0+0
 7249 06e4 25       		.uleb128 0x25
 7250 06e5 EB050000 		.4byte	0x5eb
 7251 06e9 12010000 		.4byte	.LLST7
 7252 06ed 25       		.uleb128 0x25
 7253 06ee F5050000 		.4byte	0x5f5
 7254 06f2 B2010000 		.4byte	.LLST8
 7255 06f6 25       		.uleb128 0x25
 7256 06f7 FF050000 		.4byte	0x5ff
 7257 06fb 52020000 		.4byte	.LLST9
 7258 06ff 27       		.uleb128 0x27
 7259 0700 09060000 		.4byte	0x609
 7260 0704 28       		.uleb128 0x28
 7261 0705 18000000 		.4byte	.Ldebug_ranges0+0x18
 7262 0709 17070000 		.4byte	0x717
 7263 070d 25       		.uleb128 0x25
 7264 070e 14060000 		.4byte	0x614
 7265 0712 9D020000 		.4byte	.LLST10
 7266 0716 00       		.byte	0
 7267 0717 29       		.uleb128 0x29
 7268 0718 E6030000 		.4byte	0x3e6
 7269 071c CE000000 		.4byte	.LBB84
 7270 0720 6C000000 		.4byte	.LBE84-.LBB84
 7271 0724 01       		.byte	0x1
 7272 0725 EE       		.byte	0xee
 7273 0726 20       		.uleb128 0x20
 7274 0727 01040000 		.4byte	0x401
 7275 072b BC020000 		.4byte	.LLST11
 7276 072f 20       		.uleb128 0x20
 7277 0730 F6030000 		.4byte	0x3f6
 7278 0734 CF020000 		.4byte	.LLST12
 7279 0738 23       		.uleb128 0x23
 7280 0739 CE000000 		.4byte	.LBB85
 7281 073d 6C000000 		.4byte	.LBE85-.LBB85
 7282 0741 25       		.uleb128 0x25
 7283 0742 0B040000 		.4byte	0x40b
 7284 0746 E2020000 		.4byte	.LLST13
 7285 074a 25       		.uleb128 0x25
 7286 074b 15040000 		.4byte	0x415
 7287 074f F5020000 		.4byte	.LLST14
 7288 0753 25       		.uleb128 0x25
 7289 0754 1F040000 		.4byte	0x41f
 7290 0758 0D030000 		.4byte	.LLST15
 7291 075c 25       		.uleb128 0x25
 7292 075d 29040000 		.4byte	0x429
ARM GAS  C:\Users\rdn\AppData\Local\Temp\cc5zc0m9.s 			page 160


 7293 0761 25030000 		.4byte	.LLST16
 7294 0765 25       		.uleb128 0x25
 7295 0766 33040000 		.4byte	0x433
 7296 076a 3D030000 		.4byte	.LLST17
 7297 076e 00       		.byte	0
 7298 076f 00       		.byte	0
 7299 0770 00       		.byte	0
 7300 0771 00       		.byte	0
 7301 0772 00       		.byte	0
 7302 0773 00       		.byte	0
 7303 0774 00       		.byte	0
 7304 0775 2A       		.uleb128 0x2a
 7305 0776 6D050000 		.4byte	.LASF78
 7306 077a 01       		.byte	0x1
 7307 077b 0201     		.2byte	0x102
 7308 077d 03       		.byte	0x3
 7309 077e 11080000 		.4byte	0x811
 7310 0782 17       		.uleb128 0x17
 7311 0783 7000     		.ascii	"p\000"
 7312 0785 01       		.byte	0x1
 7313 0786 0201     		.2byte	0x102
 7314 0788 21060000 		.4byte	0x621
 7315 078c 17       		.uleb128 0x17
 7316 078d 6800     		.ascii	"h\000"
 7317 078f 01       		.byte	0x1
 7318 0790 0201     		.2byte	0x102
 7319 0792 A7040000 		.4byte	0x4a7
 7320 0796 2B       		.uleb128 0x2b
 7321 0797 36040000 		.4byte	.LASF37
 7322 079b 01       		.byte	0x1
 7323 079c 0301     		.2byte	0x103
 7324 079e 3E040000 		.4byte	0x43e
 7325 07a2 17       		.uleb128 0x17
 7326 07a3 7800     		.ascii	"x\000"
 7327 07a5 01       		.byte	0x1
 7328 07a6 0301     		.2byte	0x103
 7329 07a8 A7040000 		.4byte	0x4a7
 7330 07ac 17       		.uleb128 0x17
 7331 07ad 7900     		.ascii	"y\000"
 7332 07af 01       		.byte	0x1
 7333 07b0 0301     		.2byte	0x103
 7334 07b2 26060000 		.4byte	0x626
 7335 07b6 17       		.uleb128 0x17
 7336 07b7 6E00     		.ascii	"n\000"
 7337 07b9 01       		.byte	0x1
 7338 07ba 0301     		.2byte	0x103
 7339 07bc 90000000 		.4byte	0x90
 7340 07c0 18       		.uleb128 0x18
 7341 07c1 7700     		.ascii	"w\000"
 7342 07c3 01       		.byte	0x1
 7343 07c4 0501     		.2byte	0x105
 7344 07c6 21060000 		.4byte	0x621
 7345 07ca 19       		.uleb128 0x19
 7346 07cb 18       		.uleb128 0x18
 7347 07cc 6900     		.ascii	"i\000"
 7348 07ce 01       		.byte	0x1
 7349 07cf 0901     		.2byte	0x109
ARM GAS  C:\Users\rdn\AppData\Local\Temp\cc5zc0m9.s 			page 161


 7350 07d1 90000000 		.4byte	0x90
 7351 07d5 19       		.uleb128 0x19
 7352 07d6 18       		.uleb128 0x18
 7353 07d7 686E00   		.ascii	"hn\000"
 7354 07da 01       		.byte	0x1
 7355 07db 0A01     		.2byte	0x10a
 7356 07dd A7040000 		.4byte	0x4a7
 7357 07e1 18       		.uleb128 0x18
 7358 07e2 786E00   		.ascii	"xn\000"
 7359 07e5 01       		.byte	0x1
 7360 07e6 0B01     		.2byte	0x10b
 7361 07e8 A7040000 		.4byte	0x4a7
 7362 07ec 18       		.uleb128 0x18
 7363 07ed 756E00   		.ascii	"un\000"
 7364 07f0 01       		.byte	0x1
 7365 07f1 0C01     		.2byte	0x10c
 7366 07f3 B4000000 		.4byte	0xb4
 7367 07f7 18       		.uleb128 0x18
 7368 07f8 796E00   		.ascii	"yn\000"
 7369 07fb 01       		.byte	0x1
 7370 07fc 2001     		.2byte	0x120
 7371 07fe B4000000 		.4byte	0xb4
 7372 0802 19       		.uleb128 0x19
 7373 0803 18       		.uleb128 0x18
 7374 0804 6B00     		.ascii	"k\000"
 7375 0806 01       		.byte	0x1
 7376 0807 0E01     		.2byte	0x10e
 7377 0809 90000000 		.4byte	0x90
 7378 080d 00       		.byte	0
 7379 080e 00       		.byte	0
 7380 080f 00       		.byte	0
 7381 0810 00       		.byte	0
 7382 0811 1C       		.uleb128 0x1c
 7383 0812 BD000000 		.4byte	.LASF80
 7384 0816 01       		.byte	0x1
 7385 0817 7F01     		.2byte	0x17f
 7386 0819 00000000 		.4byte	.LFB28
 7387 081d A8010000 		.4byte	.LFE28-.LFB28
 7388 0821 01       		.uleb128 0x1
 7389 0822 9C       		.byte	0x9c
 7390 0823 5B090000 		.4byte	0x95b
 7391 0827 1D       		.uleb128 0x1d
 7392 0828 36040000 		.4byte	.LASF37
 7393 082c 01       		.byte	0x1
 7394 082d 8001     		.2byte	0x180
 7395 082f 3E040000 		.4byte	0x43e
 7396 0833 01       		.uleb128 0x1
 7397 0834 50       		.byte	0x50
 7398 0835 1E       		.uleb128 0x1e
 7399 0836 7800     		.ascii	"x\000"
 7400 0838 01       		.byte	0x1
 7401 0839 8001     		.2byte	0x180
 7402 083b A7040000 		.4byte	0x4a7
 7403 083f 55030000 		.4byte	.LLST18
 7404 0843 1E       		.uleb128 0x1e
 7405 0844 7900     		.ascii	"y\000"
 7406 0846 01       		.byte	0x1
ARM GAS  C:\Users\rdn\AppData\Local\Temp\cc5zc0m9.s 			page 162


 7407 0847 8001     		.2byte	0x180
 7408 0849 26060000 		.4byte	0x626
 7409 084d 80030000 		.4byte	.LLST19
 7410 0851 1E       		.uleb128 0x1e
 7411 0852 6E00     		.ascii	"n\000"
 7412 0854 01       		.byte	0x1
 7413 0855 8001     		.2byte	0x180
 7414 0857 90000000 		.4byte	0x90
 7415 085b A1030000 		.4byte	.LLST20
 7416 085f 1F       		.uleb128 0x1f
 7417 0860 75070000 		.4byte	0x775
 7418 0864 0A000000 		.4byte	.LBB94
 7419 0868 7E010000 		.4byte	.LBE94-.LBB94
 7420 086c 01       		.byte	0x1
 7421 086d 8201     		.2byte	0x182
 7422 086f 20       		.uleb128 0x20
 7423 0870 B6070000 		.4byte	0x7b6
 7424 0874 BF030000 		.4byte	.LLST21
 7425 0878 20       		.uleb128 0x20
 7426 0879 AC070000 		.4byte	0x7ac
 7427 087d DD030000 		.4byte	.LLST22
 7428 0881 20       		.uleb128 0x20
 7429 0882 A2070000 		.4byte	0x7a2
 7430 0886 08040000 		.4byte	.LLST23
 7431 088a 21       		.uleb128 0x21
 7432 088b 96070000 		.4byte	0x796
 7433 088f 01       		.uleb128 0x1
 7434 0890 50       		.byte	0x50
 7435 0891 21       		.uleb128 0x21
 7436 0892 8C070000 		.4byte	0x78c
 7437 0896 06       		.uleb128 0x6
 7438 0897 03       		.byte	0x3
 7439 0898 A0000000 		.4byte	h_96k_12k8_q15
 7440 089c 9F       		.byte	0x9f
 7441 089d 22       		.uleb128 0x22
 7442 089e 82070000 		.4byte	0x782
 7443 08a2 02       		.byte	0x2
 7444 08a3 23       		.uleb128 0x23
 7445 08a4 0A000000 		.4byte	.LBB95
 7446 08a8 7E010000 		.4byte	.LBE95-.LBB95
 7447 08ac 24       		.uleb128 0x24
 7448 08ad C0070000 		.4byte	0x7c0
 7449 08b1 78       		.byte	0x78
 7450 08b2 23       		.uleb128 0x23
 7451 08b3 0E000000 		.4byte	.LBB96
 7452 08b7 7A010000 		.4byte	.LBE96-.LBB96
 7453 08bb 25       		.uleb128 0x25
 7454 08bc CB070000 		.4byte	0x7cb
 7455 08c0 4B040000 		.4byte	.LLST24
 7456 08c4 26       		.uleb128 0x26
 7457 08c5 30000000 		.4byte	.Ldebug_ranges0+0x30
 7458 08c9 25       		.uleb128 0x25
 7459 08ca D6070000 		.4byte	0x7d6
 7460 08ce 6A040000 		.4byte	.LLST25
 7461 08d2 25       		.uleb128 0x25
 7462 08d3 E1070000 		.4byte	0x7e1
 7463 08d7 4B050000 		.4byte	.LLST26
ARM GAS  C:\Users\rdn\AppData\Local\Temp\cc5zc0m9.s 			page 163


 7464 08db 25       		.uleb128 0x25
 7465 08dc EC070000 		.4byte	0x7ec
 7466 08e0 2C060000 		.4byte	.LLST27
 7467 08e4 27       		.uleb128 0x27
 7468 08e5 F7070000 		.4byte	0x7f7
 7469 08e9 28       		.uleb128 0x28
 7470 08ea 48000000 		.4byte	.Ldebug_ranges0+0x48
 7471 08ee FC080000 		.4byte	0x8fc
 7472 08f2 25       		.uleb128 0x25
 7473 08f3 03080000 		.4byte	0x803
 7474 08f7 77060000 		.4byte	.LLST28
 7475 08fb 00       		.byte	0
 7476 08fc 1F       		.uleb128 0x1f
 7477 08fd E6030000 		.4byte	0x3e6
 7478 0901 06010000 		.4byte	.LBB100
 7479 0905 6C000000 		.4byte	.LBE100-.LBB100
 7480 0909 01       		.byte	0x1
 7481 090a 2001     		.2byte	0x120
 7482 090c 20       		.uleb128 0x20
 7483 090d 01040000 		.4byte	0x401
 7484 0911 96060000 		.4byte	.LLST29
 7485 0915 20       		.uleb128 0x20
 7486 0916 F6030000 		.4byte	0x3f6
 7487 091a A9060000 		.4byte	.LLST30
 7488 091e 23       		.uleb128 0x23
 7489 091f 06010000 		.4byte	.LBB101
 7490 0923 6C000000 		.4byte	.LBE101-.LBB101
 7491 0927 25       		.uleb128 0x25
 7492 0928 0B040000 		.4byte	0x40b
 7493 092c BC060000 		.4byte	.LLST31
 7494 0930 25       		.uleb128 0x25
 7495 0931 15040000 		.4byte	0x415
 7496 0935 CF060000 		.4byte	.LLST32
 7497 0939 25       		.uleb128 0x25
 7498 093a 1F040000 		.4byte	0x41f
 7499 093e E7060000 		.4byte	.LLST33
 7500 0942 25       		.uleb128 0x25
 7501 0943 29040000 		.4byte	0x429
 7502 0947 FF060000 		.4byte	.LLST34
 7503 094b 25       		.uleb128 0x25
 7504 094c 33040000 		.4byte	0x433
 7505 0950 17070000 		.4byte	.LLST35
 7506 0954 00       		.byte	0
 7507 0955 00       		.byte	0
 7508 0956 00       		.byte	0
 7509 0957 00       		.byte	0
 7510 0958 00       		.byte	0
 7511 0959 00       		.byte	0
 7512 095a 00       		.byte	0
 7513 095b 1C       		.uleb128 0x1c
 7514 095c F5020000 		.4byte	.LASF81
 7515 0960 01       		.byte	0x1
 7516 0961 8E01     		.2byte	0x18e
 7517 0963 00000000 		.4byte	.LFB29
 7518 0967 48000000 		.4byte	.LFE29-.LFB29
 7519 096b 01       		.uleb128 0x1
 7520 096c 9C       		.byte	0x9c
ARM GAS  C:\Users\rdn\AppData\Local\Temp\cc5zc0m9.s 			page 164


 7521 096d BA090000 		.4byte	0x9ba
 7522 0971 1E       		.uleb128 0x1e
 7523 0972 7800     		.ascii	"x\000"
 7524 0974 01       		.byte	0x1
 7525 0975 8E01     		.2byte	0x18e
 7526 0977 A7040000 		.4byte	0x4a7
 7527 097b 2F070000 		.4byte	.LLST36
 7528 097f 1E       		.uleb128 0x1e
 7529 0980 7900     		.ascii	"y\000"
 7530 0982 01       		.byte	0x1
 7531 0983 8E01     		.2byte	0x18e
 7532 0985 26060000 		.4byte	0x626
 7533 0989 65070000 		.4byte	.LLST37
 7534 098d 1E       		.uleb128 0x1e
 7535 098e 6E00     		.ascii	"n\000"
 7536 0990 01       		.byte	0x1
 7537 0991 8E01     		.2byte	0x18e
 7538 0993 90000000 		.4byte	0x90
 7539 0997 90070000 		.4byte	.LLST38
 7540 099b 2C       		.uleb128 0x2c
 7541 099c 6800     		.ascii	"h\000"
 7542 099e 01       		.byte	0x1
 7543 099f 9001     		.2byte	0x190
 7544 09a1 CA090000 		.4byte	0x9ca
 7545 09a5 06       		.byte	0x6
 7546 09a6 2D       		.byte	0x2d
 7547 09a7 48       		.byte	0x48
 7548 09a8 40       		.byte	0x40
 7549 09a9 3C       		.byte	0x3c
 7550 09aa A9       		.byte	0xa9
 7551 09ab 1F       		.byte	0x1f
 7552 09ac 2D       		.uleb128 0x2d
 7553 09ad 796500   		.ascii	"ye\000"
 7554 09b0 01       		.byte	0x1
 7555 09b1 9101     		.2byte	0x191
 7556 09b3 A7040000 		.4byte	0x4a7
 7557 09b7 01       		.uleb128 0x1
 7558 09b8 52       		.byte	0x52
 7559 09b9 00       		.byte	0
 7560 09ba 0D       		.uleb128 0xd
 7561 09bb AD040000 		.4byte	0x4ad
 7562 09bf CA090000 		.4byte	0x9ca
 7563 09c3 0E       		.uleb128 0xe
 7564 09c4 D6010000 		.4byte	0x1d6
 7565 09c8 02       		.byte	0x2
 7566 09c9 00       		.byte	0
 7567 09ca 11       		.uleb128 0x11
 7568 09cb BA090000 		.4byte	0x9ba
 7569 09cf 1C       		.uleb128 0x1c
 7570 09d0 A3040000 		.4byte	.LASF82
 7571 09d4 01       		.byte	0x1
 7572 09d5 CC01     		.2byte	0x1cc
 7573 09d7 00000000 		.4byte	.LFB31
 7574 09db 70000000 		.4byte	.LFE31-.LFB31
 7575 09df 01       		.uleb128 0x1
 7576 09e0 9C       		.byte	0x9c
 7577 09e1 A50A0000 		.4byte	0xaa5
ARM GAS  C:\Users\rdn\AppData\Local\Temp\cc5zc0m9.s 			page 165


 7578 09e5 2E       		.uleb128 0x2e
 7579 09e6 6100     		.ascii	"a\000"
 7580 09e8 01       		.byte	0x1
 7581 09e9 CD01     		.2byte	0x1cd
 7582 09eb A7040000 		.4byte	0x4a7
 7583 09ef 01       		.uleb128 0x1
 7584 09f0 50       		.byte	0x50
 7585 09f1 1E       		.uleb128 0x1e
 7586 09f2 6200     		.ascii	"b\000"
 7587 09f4 01       		.byte	0x1
 7588 09f5 CD01     		.2byte	0x1cd
 7589 09f7 A7040000 		.4byte	0x4a7
 7590 09fb B1070000 		.4byte	.LLST39
 7591 09ff 2E       		.uleb128 0x2e
 7592 0a00 6E00     		.ascii	"n\000"
 7593 0a02 01       		.byte	0x1
 7594 0a03 CD01     		.2byte	0x1cd
 7595 0a05 90000000 		.4byte	0x90
 7596 0a09 01       		.uleb128 0x1
 7597 0a0a 52       		.byte	0x52
 7598 0a0b 1E       		.uleb128 0x1e
 7599 0a0c 7900     		.ascii	"y\000"
 7600 0a0e 01       		.byte	0x1
 7601 0a0f CD01     		.2byte	0x1cd
 7602 0a11 A50A0000 		.4byte	0xaa5
 7603 0a15 DA070000 		.4byte	.LLST40
 7604 0a19 2E       		.uleb128 0x2e
 7605 0a1a 6E6300   		.ascii	"nc\000"
 7606 0a1d 01       		.byte	0x1
 7607 0a1e CD01     		.2byte	0x1cd
 7608 0a20 90000000 		.4byte	0x90
 7609 0a24 02       		.uleb128 0x2
 7610 0a25 91       		.byte	0x91
 7611 0a26 00       		.sleb128 0
 7612 0a27 23       		.uleb128 0x23
 7613 0a28 04000000 		.4byte	.LBB103
 7614 0a2c 68000000 		.4byte	.LBE103-.LBB103
 7615 0a30 2D       		.uleb128 0x2d
 7616 0a31 796500   		.ascii	"ye\000"
 7617 0a34 01       		.byte	0x1
 7618 0a35 CF01     		.2byte	0x1cf
 7619 0a37 DB030000 		.4byte	0x3db
 7620 0a3b 01       		.uleb128 0x1
 7621 0a3c 58       		.byte	0x58
 7622 0a3d 1F       		.uleb128 0x1f
 7623 0a3e 49040000 		.4byte	0x449
 7624 0a42 16000000 		.4byte	.LBB104
 7625 0a46 4A000000 		.4byte	.LBE104-.LBB104
 7626 0a4a 01       		.byte	0x1
 7627 0a4b D001     		.2byte	0x1d0
 7628 0a4d 20       		.uleb128 0x20
 7629 0a4e 6E040000 		.4byte	0x46e
 7630 0a52 03080000 		.4byte	.LLST41
 7631 0a56 20       		.uleb128 0x20
 7632 0a57 64040000 		.4byte	0x464
 7633 0a5b 16080000 		.4byte	.LLST42
 7634 0a5f 20       		.uleb128 0x20
ARM GAS  C:\Users\rdn\AppData\Local\Temp\cc5zc0m9.s 			page 166


 7635 0a60 5A040000 		.4byte	0x45a
 7636 0a64 41080000 		.4byte	.LLST43
 7637 0a68 23       		.uleb128 0x23
 7638 0a69 16000000 		.4byte	.LBB105
 7639 0a6d 4A000000 		.4byte	.LBE105-.LBB105
 7640 0a71 25       		.uleb128 0x25
 7641 0a72 78040000 		.4byte	0x478
 7642 0a76 6C080000 		.4byte	.LLST44
 7643 0a7a 25       		.uleb128 0x25
 7644 0a7b 82040000 		.4byte	0x482
 7645 0a7f A8080000 		.4byte	.LLST45
 7646 0a83 26       		.uleb128 0x26
 7647 0a84 60000000 		.4byte	.Ldebug_ranges0+0x60
 7648 0a88 25       		.uleb128 0x25
 7649 0a89 8F040000 		.4byte	0x48f
 7650 0a8d BB080000 		.4byte	.LLST46
 7651 0a91 26       		.uleb128 0x26
 7652 0a92 78000000 		.4byte	.Ldebug_ranges0+0x78
 7653 0a96 25       		.uleb128 0x25
 7654 0a97 9A040000 		.4byte	0x49a
 7655 0a9b DA080000 		.4byte	.LLST47
 7656 0a9f 00       		.byte	0
 7657 0aa0 00       		.byte	0
 7658 0aa1 00       		.byte	0
 7659 0aa2 00       		.byte	0
 7660 0aa3 00       		.byte	0
 7661 0aa4 00       		.byte	0
 7662 0aa5 10       		.uleb128 0x10
 7663 0aa6 04       		.byte	0x4
 7664 0aa7 25000000 		.4byte	0x25
 7665 0aab 2F       		.uleb128 0x2f
 7666 0aac 3C050000 		.4byte	.LASF84
 7667 0ab0 01       		.byte	0x1
 7668 0ab1 DA01     		.2byte	0x1da
 7669 0ab3 90000000 		.4byte	0x90
 7670 0ab7 00000000 		.4byte	.LFB32
 7671 0abb 34000000 		.4byte	.LFE32-.LFB32
 7672 0abf 01       		.uleb128 0x1
 7673 0ac0 9C       		.byte	0x9c
 7674 0ac1 120B0000 		.4byte	0xb12
 7675 0ac5 1E       		.uleb128 0x1e
 7676 0ac6 7800     		.ascii	"x\000"
 7677 0ac8 01       		.byte	0x1
 7678 0ac9 DA01     		.2byte	0x1da
 7679 0acb DB030000 		.4byte	0x3db
 7680 0acf F8080000 		.4byte	.LLST48
 7681 0ad3 2E       		.uleb128 0x2e
 7682 0ad4 6E00     		.ascii	"n\000"
 7683 0ad6 01       		.byte	0x1
 7684 0ad7 DA01     		.2byte	0x1da
 7685 0ad9 90000000 		.4byte	0x90
 7686 0add 01       		.uleb128 0x1
 7687 0ade 51       		.byte	0x51
 7688 0adf 1D       		.uleb128 0x1d
 7689 0ae0 77040000 		.4byte	.LASF83
 7690 0ae4 01       		.byte	0x1
 7691 0ae5 DA01     		.2byte	0x1da
ARM GAS  C:\Users\rdn\AppData\Local\Temp\cc5zc0m9.s 			page 167


 7692 0ae7 A50A0000 		.4byte	0xaa5
 7693 0aeb 01       		.uleb128 0x1
 7694 0aec 52       		.byte	0x52
 7695 0aed 30       		.uleb128 0x30
 7696 0aee 61726700 		.ascii	"arg\000"
 7697 0af2 01       		.byte	0x1
 7698 0af3 DC01     		.2byte	0x1dc
 7699 0af5 90000000 		.4byte	0x90
 7700 0af9 19090000 		.4byte	.LLST49
 7701 0afd 26       		.uleb128 0x26
 7702 0afe 90000000 		.4byte	.Ldebug_ranges0+0x90
 7703 0b02 30       		.uleb128 0x30
 7704 0b03 6900     		.ascii	"i\000"
 7705 0b05 01       		.byte	0x1
 7706 0b06 DF01     		.2byte	0x1df
 7707 0b08 90000000 		.4byte	0x90
 7708 0b0c 59090000 		.4byte	.LLST50
 7709 0b10 00       		.byte	0
 7710 0b11 00       		.byte	0
 7711 0b12 2F       		.uleb128 0x2f
 7712 0b13 D2010000 		.4byte	.LASF85
 7713 0b17 01       		.byte	0x1
 7714 0b18 ED01     		.2byte	0x1ed
 7715 0b1a 90000000 		.4byte	0x90
 7716 0b1e 00000000 		.4byte	.LFB33
 7717 0b22 48000000 		.4byte	.LFE33-.LFB33
 7718 0b26 01       		.uleb128 0x1
 7719 0b27 9C       		.byte	0x9c
 7720 0b28 A50B0000 		.4byte	0xba5
 7721 0b2c 1E       		.uleb128 0x1e
 7722 0b2d 7800     		.ascii	"x\000"
 7723 0b2f 01       		.byte	0x1
 7724 0b30 EE01     		.2byte	0x1ee
 7725 0b32 DB030000 		.4byte	0x3db
 7726 0b36 78090000 		.4byte	.LLST51
 7727 0b3a 2E       		.uleb128 0x2e
 7728 0b3b 6E00     		.ascii	"n\000"
 7729 0b3d 01       		.byte	0x1
 7730 0b3e EE01     		.2byte	0x1ee
 7731 0b40 90000000 		.4byte	0x90
 7732 0b44 01       		.uleb128 0x1
 7733 0b45 51       		.byte	0x51
 7734 0b46 1D       		.uleb128 0x1d
 7735 0b47 86020000 		.4byte	.LASF86
 7736 0b4b 01       		.byte	0x1
 7737 0b4c EE01     		.2byte	0x1ee
 7738 0b4e 25000000 		.4byte	0x25
 7739 0b52 02       		.uleb128 0x2
 7740 0b53 90       		.byte	0x90
 7741 0b54 40       		.uleb128 0x40
 7742 0b55 1D       		.uleb128 0x1d
 7743 0b56 77040000 		.4byte	.LASF83
 7744 0b5a 01       		.byte	0x1
 7745 0b5b EE01     		.2byte	0x1ee
 7746 0b5d A50A0000 		.4byte	0xaa5
 7747 0b61 01       		.uleb128 0x1
 7748 0b62 52       		.byte	0x52
ARM GAS  C:\Users\rdn\AppData\Local\Temp\cc5zc0m9.s 			page 168


 7749 0b63 30       		.uleb128 0x30
 7750 0b64 61726700 		.ascii	"arg\000"
 7751 0b68 01       		.byte	0x1
 7752 0b69 F001     		.2byte	0x1f0
 7753 0b6b 90000000 		.4byte	0x90
 7754 0b6f 99090000 		.4byte	.LLST52
 7755 0b73 31       		.uleb128 0x31
 7756 0b74 DB000000 		.4byte	.LASF87
 7757 0b78 01       		.byte	0x1
 7758 0b79 F201     		.2byte	0x1f2
 7759 0b7b 25000000 		.4byte	0x25
 7760 0b7f D9090000 		.4byte	.LLST53
 7761 0b83 2D       		.uleb128 0x2d
 7762 0b84 7700     		.ascii	"w\000"
 7763 0b86 01       		.byte	0x1
 7764 0b87 F301     		.2byte	0x1f3
 7765 0b89 25000000 		.4byte	0x25
 7766 0b8d 02       		.uleb128 0x2
 7767 0b8e 90       		.byte	0x90
 7768 0b8f 4F       		.uleb128 0x4f
 7769 0b90 26       		.uleb128 0x26
 7770 0b91 A8000000 		.4byte	.Ldebug_ranges0+0xa8
 7771 0b95 30       		.uleb128 0x30
 7772 0b96 6900     		.ascii	"i\000"
 7773 0b98 01       		.byte	0x1
 7774 0b99 F501     		.2byte	0x1f5
 7775 0b9b 90000000 		.4byte	0x90
 7776 0b9f 050A0000 		.4byte	.LLST54
 7777 0ba3 00       		.byte	0
 7778 0ba4 00       		.byte	0
 7779 0ba5 1C       		.uleb128 0x1c
 7780 0ba6 43060000 		.4byte	.LASF88
 7781 0baa 01       		.byte	0x1
 7782 0bab 0402     		.2byte	0x204
 7783 0bad 00000000 		.4byte	.LFB34
 7784 0bb1 D4000000 		.4byte	.LFE34-.LFB34
 7785 0bb5 01       		.uleb128 0x1
 7786 0bb6 9C       		.byte	0x9c
 7787 0bb7 7C0C0000 		.4byte	0xc7c
 7788 0bbb 1E       		.uleb128 0x1e
 7789 0bbc 7800     		.ascii	"x\000"
 7790 0bbe 01       		.byte	0x1
 7791 0bbf 0402     		.2byte	0x204
 7792 0bc1 A7040000 		.4byte	0x4a7
 7793 0bc5 240A0000 		.4byte	.LLST55
 7794 0bc9 1E       		.uleb128 0x1e
 7795 0bca 6E00     		.ascii	"n\000"
 7796 0bcc 01       		.byte	0x1
 7797 0bcd 0402     		.2byte	0x204
 7798 0bcf 90000000 		.4byte	0x90
 7799 0bd3 810A0000 		.4byte	.LLST56
 7800 0bd7 1E       		.uleb128 0x1e
 7801 0bd8 6400     		.ascii	"d\000"
 7802 0bda 01       		.byte	0x1
 7803 0bdb 0402     		.2byte	0x204
 7804 0bdd 90000000 		.4byte	0x90
 7805 0be1 A20A0000 		.4byte	.LLST57
ARM GAS  C:\Users\rdn\AppData\Local\Temp\cc5zc0m9.s 			page 169


 7806 0be5 1E       		.uleb128 0x1e
 7807 0be6 7900     		.ascii	"y\000"
 7808 0be8 01       		.byte	0x1
 7809 0be9 0402     		.2byte	0x204
 7810 0beb 26060000 		.4byte	0x626
 7811 0bef C30A0000 		.4byte	.LLST58
 7812 0bf3 32       		.uleb128 0x32
 7813 0bf4 CD020000 		.4byte	.LASF89
 7814 0bf8 01       		.byte	0x1
 7815 0bf9 0602     		.2byte	0x206
 7816 0bfb 920C0000 		.4byte	0xc92
 7817 0bff 05       		.uleb128 0x5
 7818 0c00 03       		.byte	0x3
 7819 0c01 80020000 		.4byte	h4_q15.5684
 7820 0c05 2D       		.uleb128 0x2d
 7821 0c06 6800     		.ascii	"h\000"
 7822 0c08 01       		.byte	0x1
 7823 0c09 0A02     		.2byte	0x20a
 7824 0c0b A7040000 		.4byte	0x4a7
 7825 0c0f 01       		.uleb128 0x1
 7826 0c10 52       		.byte	0x52
 7827 0c11 30       		.uleb128 0x30
 7828 0c12 783300   		.ascii	"x3\000"
 7829 0c15 01       		.byte	0x1
 7830 0c16 0B02     		.2byte	0x20b
 7831 0c18 A9000000 		.4byte	0xa9
 7832 0c1c 150B0000 		.4byte	.LLST59
 7833 0c20 2D       		.uleb128 0x2d
 7834 0c21 783200   		.ascii	"x2\000"
 7835 0c24 01       		.byte	0x1
 7836 0c25 0B02     		.2byte	0x20b
 7837 0c27 A9000000 		.4byte	0xa9
 7838 0c2b 01       		.uleb128 0x1
 7839 0c2c 5C       		.byte	0x5c
 7840 0c2d 30       		.uleb128 0x30
 7841 0c2e 783100   		.ascii	"x1\000"
 7842 0c31 01       		.byte	0x1
 7843 0c32 0B02     		.2byte	0x20b
 7844 0c34 A9000000 		.4byte	0xa9
 7845 0c38 330B0000 		.4byte	.LLST60
 7846 0c3c 30       		.uleb128 0x30
 7847 0c3d 783000   		.ascii	"x0\000"
 7848 0c40 01       		.byte	0x1
 7849 0c41 0B02     		.2byte	0x20b
 7850 0c43 A9000000 		.4byte	0xa9
 7851 0c47 460B0000 		.4byte	.LLST61
 7852 0c4b 23       		.uleb128 0x23
 7853 0c4c 18000000 		.4byte	.LBB114
 7854 0c50 B2000000 		.4byte	.LBE114-.LBB114
 7855 0c54 2D       		.uleb128 0x2d
 7856 0c55 796500   		.ascii	"ye\000"
 7857 0c58 01       		.byte	0x1
 7858 0c59 0E02     		.2byte	0x20e
 7859 0c5b A7040000 		.4byte	0x4a7
 7860 0c5f 01       		.uleb128 0x1
 7861 0c60 51       		.byte	0x51
 7862 0c61 23       		.uleb128 0x23
ARM GAS  C:\Users\rdn\AppData\Local\Temp\cc5zc0m9.s 			page 170


 7863 0c62 1E000000 		.4byte	.LBB115
 7864 0c66 A8000000 		.4byte	.LBE115-.LBB115
 7865 0c6a 30       		.uleb128 0x30
 7866 0c6b 796E00   		.ascii	"yn\000"
 7867 0c6e 01       		.byte	0x1
 7868 0c6f 0F02     		.2byte	0x20f
 7869 0c71 B4000000 		.4byte	0xb4
 7870 0c75 590B0000 		.4byte	.LLST62
 7871 0c79 00       		.byte	0
 7872 0c7a 00       		.byte	0
 7873 0c7b 00       		.byte	0
 7874 0c7c 0D       		.uleb128 0xd
 7875 0c7d AD040000 		.4byte	0x4ad
 7876 0c81 920C0000 		.4byte	0xc92
 7877 0c85 0E       		.uleb128 0xe
 7878 0c86 D6010000 		.4byte	0x1d6
 7879 0c8a 03       		.byte	0x3
 7880 0c8b 0E       		.uleb128 0xe
 7881 0c8c D6010000 		.4byte	0x1d6
 7882 0c90 03       		.byte	0x3
 7883 0c91 00       		.byte	0
 7884 0c92 11       		.uleb128 0x11
 7885 0c93 7C0C0000 		.4byte	0xc7c
 7886 0c97 2F       		.uleb128 0x2f
 7887 0c98 00000000 		.4byte	.LASF90
 7888 0c9c 01       		.byte	0x1
 7889 0c9d 2502     		.2byte	0x225
 7890 0c9f 25000000 		.4byte	0x25
 7891 0ca3 00000000 		.4byte	.LFB35
 7892 0ca7 C0000000 		.4byte	.LFE35-.LFB35
 7893 0cab 01       		.uleb128 0x1
 7894 0cac 9C       		.byte	0x9c
 7895 0cad F70C0000 		.4byte	0xcf7
 7896 0cb1 2E       		.uleb128 0x2e
 7897 0cb2 7800     		.ascii	"x\000"
 7898 0cb4 01       		.byte	0x1
 7899 0cb5 2502     		.2byte	0x225
 7900 0cb7 DB030000 		.4byte	0x3db
 7901 0cbb 01       		.uleb128 0x1
 7902 0cbc 50       		.byte	0x50
 7903 0cbd 2E       		.uleb128 0x2e
 7904 0cbe 6400     		.ascii	"d\000"
 7905 0cc0 01       		.byte	0x1
 7906 0cc1 2502     		.2byte	0x225
 7907 0cc3 90000000 		.4byte	0x90
 7908 0cc7 01       		.uleb128 0x1
 7909 0cc8 51       		.byte	0x51
 7910 0cc9 2D       		.uleb128 0x2d
 7911 0cca 683400   		.ascii	"h4\000"
 7912 0ccd 01       		.byte	0x1
 7913 0cce 2702     		.2byte	0x227
 7914 0cd0 0D0D0000 		.4byte	0xd0d
 7915 0cd4 05       		.uleb128 0x5
 7916 0cd5 03       		.byte	0x3
 7917 0cd6 A0020000 		.4byte	h4.5699
 7918 0cda 30       		.uleb128 0x30
 7919 0cdb 6800     		.ascii	"h\000"
ARM GAS  C:\Users\rdn\AppData\Local\Temp\cc5zc0m9.s 			page 171


 7920 0cdd 01       		.byte	0x1
 7921 0cde 3202     		.2byte	0x232
 7922 0ce0 DB030000 		.4byte	0x3db
 7923 0ce4 230C0000 		.4byte	.LLST63
 7924 0ce8 30       		.uleb128 0x30
 7925 0ce9 7900     		.ascii	"y\000"
 7926 0ceb 01       		.byte	0x1
 7927 0cec 3402     		.2byte	0x234
 7928 0cee 25000000 		.4byte	0x25
 7929 0cf2 4E0C0000 		.4byte	.LLST64
 7930 0cf6 00       		.byte	0
 7931 0cf7 0D       		.uleb128 0xd
 7932 0cf8 E1030000 		.4byte	0x3e1
 7933 0cfc 0D0D0000 		.4byte	0xd0d
 7934 0d00 0E       		.uleb128 0xe
 7935 0d01 D6010000 		.4byte	0x1d6
 7936 0d05 03       		.byte	0x3
 7937 0d06 0E       		.uleb128 0xe
 7938 0d07 D6010000 		.4byte	0x1d6
 7939 0d0b 07       		.byte	0x7
 7940 0d0c 00       		.byte	0
 7941 0d0d 11       		.uleb128 0x11
 7942 0d0e F70C0000 		.4byte	0xcf7
 7943 0d12 2F       		.uleb128 0x2f
 7944 0d13 D0060000 		.4byte	.LASF91
 7945 0d17 01       		.byte	0x1
 7946 0d18 6E02     		.2byte	0x26e
 7947 0d1a 90000000 		.4byte	0x90
 7948 0d1e 00000000 		.4byte	.LFB37
 7949 0d22 F8000000 		.4byte	.LFE37-.LFB37
 7950 0d26 01       		.uleb128 0x1
 7951 0d27 9C       		.byte	0x9c
 7952 0d28 A60E0000 		.4byte	0xea6
 7953 0d2c 1E       		.uleb128 0x1e
 7954 0d2d 7800     		.ascii	"x\000"
 7955 0d2f 01       		.byte	0x1
 7956 0d30 6E02     		.2byte	0x26e
 7957 0d32 A7040000 		.4byte	0x4a7
 7958 0d36 800C0000 		.4byte	.LLST65
 7959 0d3a 1E       		.uleb128 0x1e
 7960 0d3b 6E00     		.ascii	"n\000"
 7961 0d3d 01       		.byte	0x1
 7962 0d3e 6E02     		.2byte	0x26e
 7963 0d40 90000000 		.4byte	0x90
 7964 0d44 A10C0000 		.4byte	.LLST66
 7965 0d48 1E       		.uleb128 0x1e
 7966 0d49 746300   		.ascii	"tc\000"
 7967 0d4c 01       		.byte	0x1
 7968 0d4d 6E02     		.2byte	0x26e
 7969 0d4f 90000000 		.4byte	0x90
 7970 0d53 CD0C0000 		.4byte	.LLST67
 7971 0d57 33       		.uleb128 0x33
 7972 0d58 90000000 		.4byte	.LASF36
 7973 0d5c 01       		.byte	0x1
 7974 0d5d 6E02     		.2byte	0x26e
 7975 0d5f A60E0000 		.4byte	0xea6
 7976 0d63 FB0C0000 		.4byte	.LLST68
ARM GAS  C:\Users\rdn\AppData\Local\Temp\cc5zc0m9.s 			page 172


 7977 0d67 2D       		.uleb128 0x2d
 7978 0d68 7200     		.ascii	"r\000"
 7979 0d6a 01       		.byte	0x1
 7980 0d6b 7002     		.2byte	0x270
 7981 0d6d AC0E0000 		.4byte	0xeac
 7982 0d71 03       		.uleb128 0x3
 7983 0d72 91       		.byte	0x91
 7984 0d73 947F     		.sleb128 -108
 7985 0d75 2D       		.uleb128 0x2d
 7986 0d76 726D00   		.ascii	"rm\000"
 7987 0d79 01       		.byte	0x1
 7988 0d7a 7002     		.2byte	0x270
 7989 0d7c 25000000 		.4byte	0x25
 7990 0d80 03       		.uleb128 0x3
 7991 0d81 91       		.byte	0x91
 7992 0d82 907F     		.sleb128 -112
 7993 0d84 30       		.uleb128 0x30
 7994 0d85 6500     		.ascii	"e\000"
 7995 0d87 01       		.byte	0x1
 7996 0d88 7102     		.2byte	0x271
 7997 0d8a 90000000 		.4byte	0x90
 7998 0d8e 190D0000 		.4byte	.LLST69
 7999 0d92 30       		.uleb128 0x30
 8000 0d93 6600     		.ascii	"f\000"
 8001 0d95 01       		.byte	0x1
 8002 0d96 7102     		.2byte	0x271
 8003 0d98 90000000 		.4byte	0x90
 8004 0d9c 370D0000 		.4byte	.LLST70
 8005 0da0 30       		.uleb128 0x30
 8006 0da1 723000   		.ascii	"r0\000"
 8007 0da4 01       		.byte	0x1
 8008 0da5 7302     		.2byte	0x273
 8009 0da7 90000000 		.4byte	0x90
 8010 0dab 610D0000 		.4byte	.LLST71
 8011 0daf 30       		.uleb128 0x30
 8012 0db0 6E7200   		.ascii	"nr\000"
 8013 0db3 01       		.byte	0x1
 8014 0db4 7402     		.2byte	0x274
 8015 0db6 90000000 		.4byte	0x90
 8016 0dba A40D0000 		.4byte	.LLST72
 8017 0dbe 2D       		.uleb128 0x2d
 8018 0dbf 726500   		.ascii	"re\000"
 8019 0dc2 01       		.byte	0x1
 8020 0dc3 7902     		.2byte	0x279
 8021 0dc5 DB030000 		.4byte	0x3db
 8022 0dc9 01       		.uleb128 0x1
 8023 0dca 57       		.byte	0x57
 8024 0dcb 30       		.uleb128 0x30
 8025 0dcc 646D00   		.ascii	"dm\000"
 8026 0dcf 01       		.byte	0x1
 8027 0dd0 7B02     		.2byte	0x27b
 8028 0dd2 25000000 		.4byte	0x25
 8029 0dd6 EF0D0000 		.4byte	.LLST73
 8030 0dda 28       		.uleb128 0x28
 8031 0ddb C0000000 		.4byte	.Ldebug_ranges0+0xc0
 8032 0ddf 3A0E0000 		.4byte	0xe3a
 8033 0de3 30       		.uleb128 0x30
ARM GAS  C:\Users\rdn\AppData\Local\Temp\cc5zc0m9.s 			page 173


 8034 0de4 6900     		.ascii	"i\000"
 8035 0de6 01       		.byte	0x1
 8036 0de7 7C02     		.2byte	0x27c
 8037 0de9 90000000 		.4byte	0x90
 8038 0ded 270E0000 		.4byte	.LLST74
 8039 0df1 23       		.uleb128 0x23
 8040 0df2 68000000 		.4byte	.LBB117
 8041 0df6 4A000000 		.4byte	.LBE117-.LBB117
 8042 0dfa 30       		.uleb128 0x30
 8043 0dfb 6400     		.ascii	"d\000"
 8044 0dfd 01       		.byte	0x1
 8045 0dfe 7D02     		.2byte	0x27d
 8046 0e00 25000000 		.4byte	0x25
 8047 0e04 460E0000 		.4byte	.LLST75
 8048 0e08 34       		.uleb128 0x34
 8049 0e09 82000000 		.4byte	.LVL189
 8050 0e0d 970C0000 		.4byte	0xc97
 8051 0e11 220E0000 		.4byte	0xe22
 8052 0e15 35       		.uleb128 0x35
 8053 0e16 01       		.uleb128 0x1
 8054 0e17 50       		.byte	0x50
 8055 0e18 02       		.uleb128 0x2
 8056 0e19 77       		.byte	0x77
 8057 0e1a 00       		.sleb128 0
 8058 0e1b 35       		.uleb128 0x35
 8059 0e1c 01       		.uleb128 0x1
 8060 0e1d 51       		.byte	0x51
 8061 0e1e 02       		.uleb128 0x2
 8062 0e1f 74       		.byte	0x74
 8063 0e20 00       		.sleb128 0
 8064 0e21 00       		.byte	0
 8065 0e22 36       		.uleb128 0x36
 8066 0e23 A2000000 		.4byte	.LVL192
 8067 0e27 970C0000 		.4byte	0xc97
 8068 0e2b 35       		.uleb128 0x35
 8069 0e2c 01       		.uleb128 0x1
 8070 0e2d 50       		.byte	0x50
 8071 0e2e 02       		.uleb128 0x2
 8072 0e2f 77       		.byte	0x77
 8073 0e30 00       		.sleb128 0
 8074 0e31 35       		.uleb128 0x35
 8075 0e32 01       		.uleb128 0x1
 8076 0e33 51       		.byte	0x51
 8077 0e34 02       		.uleb128 0x2
 8078 0e35 79       		.byte	0x79
 8079 0e36 00       		.sleb128 0
 8080 0e37 00       		.byte	0
 8081 0e38 00       		.byte	0
 8082 0e39 00       		.byte	0
 8083 0e3a 34       		.uleb128 0x34
 8084 0e3b 3E000000 		.4byte	.LVL180
 8085 0e3f CF090000 		.4byte	0x9cf
 8086 0e43 6E0E0000 		.4byte	0xe6e
 8087 0e47 35       		.uleb128 0x35
 8088 0e48 01       		.uleb128 0x1
 8089 0e49 50       		.byte	0x50
 8090 0e4a 03       		.uleb128 0x3
ARM GAS  C:\Users\rdn\AppData\Local\Temp\cc5zc0m9.s 			page 174


 8091 0e4b F3       		.byte	0xf3
 8092 0e4c 01       		.uleb128 0x1
 8093 0e4d 50       		.byte	0x50
 8094 0e4e 35       		.uleb128 0x35
 8095 0e4f 01       		.uleb128 0x1
 8096 0e50 51       		.byte	0x51
 8097 0e51 06       		.uleb128 0x6
 8098 0e52 F3       		.byte	0xf3
 8099 0e53 01       		.uleb128 0x1
 8100 0e54 50       		.byte	0x50
 8101 0e55 75       		.byte	0x75
 8102 0e56 00       		.sleb128 0
 8103 0e57 22       		.byte	0x22
 8104 0e58 35       		.uleb128 0x35
 8105 0e59 01       		.uleb128 0x1
 8106 0e5a 52       		.byte	0x52
 8107 0e5b 03       		.uleb128 0x3
 8108 0e5c F3       		.byte	0xf3
 8109 0e5d 01       		.uleb128 0x1
 8110 0e5e 51       		.byte	0x51
 8111 0e5f 35       		.uleb128 0x35
 8112 0e60 01       		.uleb128 0x1
 8113 0e61 53       		.byte	0x53
 8114 0e62 03       		.uleb128 0x3
 8115 0e63 91       		.byte	0x91
 8116 0e64 947F     		.sleb128 -108
 8117 0e66 35       		.uleb128 0x35
 8118 0e67 02       		.uleb128 0x2
 8119 0e68 7D       		.byte	0x7d
 8120 0e69 00       		.sleb128 0
 8121 0e6a 02       		.uleb128 0x2
 8122 0e6b 77       		.byte	0x77
 8123 0e6c 08       		.sleb128 8
 8124 0e6d 00       		.byte	0
 8125 0e6e 34       		.uleb128 0x34
 8126 0e6f 48000000 		.4byte	.LVL181
 8127 0e73 AB0A0000 		.4byte	0xaab
 8128 0e77 900E0000 		.4byte	0xe90
 8129 0e7b 35       		.uleb128 0x35
 8130 0e7c 01       		.uleb128 0x1
 8131 0e7d 50       		.byte	0x50
 8132 0e7e 03       		.uleb128 0x3
 8133 0e7f 91       		.byte	0x91
 8134 0e80 A47F     		.sleb128 -92
 8135 0e82 35       		.uleb128 0x35
 8136 0e83 01       		.uleb128 0x1
 8137 0e84 51       		.byte	0x51
 8138 0e85 02       		.uleb128 0x2
 8139 0e86 77       		.byte	0x77
 8140 0e87 00       		.sleb128 0
 8141 0e88 35       		.uleb128 0x35
 8142 0e89 01       		.uleb128 0x1
 8143 0e8a 52       		.byte	0x52
 8144 0e8b 03       		.uleb128 0x3
 8145 0e8c 91       		.byte	0x91
 8146 0e8d 907F     		.sleb128 -112
 8147 0e8f 00       		.byte	0
ARM GAS  C:\Users\rdn\AppData\Local\Temp\cc5zc0m9.s 			page 175


 8148 0e90 36       		.uleb128 0x36
 8149 0e91 5C000000 		.4byte	.LVL186
 8150 0e95 970C0000 		.4byte	0xc97
 8151 0e99 35       		.uleb128 0x35
 8152 0e9a 01       		.uleb128 0x1
 8153 0e9b 50       		.byte	0x50
 8154 0e9c 02       		.uleb128 0x2
 8155 0e9d 77       		.byte	0x77
 8156 0e9e 00       		.sleb128 0
 8157 0e9f 35       		.uleb128 0x35
 8158 0ea0 01       		.uleb128 0x1
 8159 0ea1 51       		.byte	0x51
 8160 0ea2 01       		.uleb128 0x1
 8161 0ea3 30       		.byte	0x30
 8162 0ea4 00       		.byte	0
 8163 0ea5 00       		.byte	0
 8164 0ea6 10       		.uleb128 0x10
 8165 0ea7 04       		.byte	0x4
 8166 0ea8 90000000 		.4byte	0x90
 8167 0eac 0D       		.uleb128 0xd
 8168 0ead 25000000 		.4byte	0x25
 8169 0eb1 BC0E0000 		.4byte	0xebc
 8170 0eb5 0E       		.uleb128 0xe
 8171 0eb6 D6010000 		.4byte	0x1d6
 8172 0eba 10       		.byte	0x10
 8173 0ebb 00       		.byte	0
 8174 0ebc 2A       		.uleb128 0x2a
 8175 0ebd CE050000 		.4byte	.LASF92
 8176 0ec1 01       		.byte	0x1
 8177 0ec2 F902     		.2byte	0x2f9
 8178 0ec4 03       		.byte	0x3
 8179 0ec5 F10F0000 		.4byte	0xff1
 8180 0ec9 17       		.uleb128 0x17
 8181 0eca 786800   		.ascii	"xh\000"
 8182 0ecd 01       		.byte	0x1
 8183 0ece FA02     		.2byte	0x2fa
 8184 0ed0 DB030000 		.4byte	0x3db
 8185 0ed4 17       		.uleb128 0x17
 8186 0ed5 6E6800   		.ascii	"nh\000"
 8187 0ed8 01       		.byte	0x1
 8188 0ed9 FA02     		.2byte	0x2fa
 8189 0edb 90000000 		.4byte	0x90
 8190 0edf 17       		.uleb128 0x17
 8191 0ee0 6C616700 		.ascii	"lag\000"
 8192 0ee4 01       		.byte	0x1
 8193 0ee5 FA02     		.2byte	0x2fa
 8194 0ee7 90000000 		.4byte	0x90
 8195 0eeb 17       		.uleb128 0x17
 8196 0eec 783000   		.ascii	"x0\000"
 8197 0eef 01       		.byte	0x1
 8198 0ef0 FB02     		.2byte	0x2fb
 8199 0ef2 DB030000 		.4byte	0x3db
 8200 0ef6 17       		.uleb128 0x17
 8201 0ef7 7800     		.ascii	"x\000"
 8202 0ef9 01       		.byte	0x1
 8203 0efa FB02     		.2byte	0x2fb
 8204 0efc A50A0000 		.4byte	0xaa5
ARM GAS  C:\Users\rdn\AppData\Local\Temp\cc5zc0m9.s 			page 176


 8205 0f00 17       		.uleb128 0x17
 8206 0f01 6E00     		.ascii	"n\000"
 8207 0f03 01       		.byte	0x1
 8208 0f04 FB02     		.2byte	0x2fb
 8209 0f06 90000000 		.4byte	0x90
 8210 0f0a 17       		.uleb128 0x17
 8211 0f0b 6300     		.ascii	"c\000"
 8212 0f0d 01       		.byte	0x1
 8213 0f0e FC02     		.2byte	0x2fc
 8214 0f10 DB030000 		.4byte	0x3db
 8215 0f14 17       		.uleb128 0x17
 8216 0f15 7700     		.ascii	"w\000"
 8217 0f17 01       		.byte	0x1
 8218 0f18 FC02     		.2byte	0x2fc
 8219 0f1a 21060000 		.4byte	0x621
 8220 0f1e 2B       		.uleb128 0x2b
 8221 0f1f 8A040000 		.4byte	.LASF93
 8222 0f23 01       		.byte	0x1
 8223 0f24 FC02     		.2byte	0x2fc
 8224 0f26 90000000 		.4byte	0x90
 8225 0f2a 18       		.uleb128 0x18
 8226 0f2b 6700     		.ascii	"g\000"
 8227 0f2d 01       		.byte	0x1
 8228 0f2e FE02     		.2byte	0x2fe
 8229 0f30 25000000 		.4byte	0x25
 8230 0f34 37       		.uleb128 0x37
 8231 0f35 C2040000 		.4byte	.LASF94
 8232 0f39 01       		.byte	0x1
 8233 0f3a FF02     		.2byte	0x2ff
 8234 0f3c 25000000 		.4byte	0x25
 8235 0f40 18       		.uleb128 0x18
 8236 0f41 7500     		.ascii	"u\000"
 8237 0f43 01       		.byte	0x1
 8238 0f44 0003     		.2byte	0x300
 8239 0f46 37020000 		.4byte	0x237
 8240 0f4a 18       		.uleb128 0x18
 8241 0f4b 7900     		.ascii	"y\000"
 8242 0f4d 01       		.byte	0x1
 8243 0f4e 0603     		.2byte	0x306
 8244 0f50 DB030000 		.4byte	0x3db
 8245 0f54 37       		.uleb128 0x37
 8246 0f55 89060000 		.4byte	.LASF95
 8247 0f59 01       		.byte	0x1
 8248 0f5a 0703     		.2byte	0x307
 8249 0f5c DB030000 		.4byte	0x3db
 8250 0f60 38       		.uleb128 0x38
 8251 0f61 A40F0000 		.4byte	0xfa4
 8252 0f65 18       		.uleb128 0x18
 8253 0f66 6A00     		.ascii	"j\000"
 8254 0f68 01       		.byte	0x1
 8255 0f69 0903     		.2byte	0x309
 8256 0f6b 90000000 		.4byte	0x90
 8257 0f6f 19       		.uleb128 0x19
 8258 0f70 18       		.uleb128 0x18
 8259 0f71 796900   		.ascii	"yi\000"
 8260 0f74 01       		.byte	0x1
 8261 0f75 0D03     		.2byte	0x30d
ARM GAS  C:\Users\rdn\AppData\Local\Temp\cc5zc0m9.s 			page 177


 8262 0f77 25000000 		.4byte	0x25
 8263 0f7b 18       		.uleb128 0x18
 8264 0f7c 786900   		.ascii	"xi\000"
 8265 0f7f 01       		.byte	0x1
 8266 0f80 0D03     		.2byte	0x30d
 8267 0f82 25000000 		.4byte	0x25
 8268 0f86 38       		.uleb128 0x38
 8269 0f87 960F0000 		.4byte	0xf96
 8270 0f8b 18       		.uleb128 0x18
 8271 0f8c 6B00     		.ascii	"k\000"
 8272 0f8e 01       		.byte	0x1
 8273 0f8f 1003     		.2byte	0x310
 8274 0f91 90000000 		.4byte	0x90
 8275 0f95 00       		.byte	0
 8276 0f96 19       		.uleb128 0x19
 8277 0f97 18       		.uleb128 0x18
 8278 0f98 6B00     		.ascii	"k\000"
 8279 0f9a 01       		.byte	0x1
 8280 0f9b 1303     		.2byte	0x313
 8281 0f9d 90000000 		.4byte	0x90
 8282 0fa1 00       		.byte	0
 8283 0fa2 00       		.byte	0
 8284 0fa3 00       		.byte	0
 8285 0fa4 19       		.uleb128 0x19
 8286 0fa5 18       		.uleb128 0x18
 8287 0fa6 6900     		.ascii	"i\000"
 8288 0fa8 01       		.byte	0x1
 8289 0fa9 1B03     		.2byte	0x31b
 8290 0fab 90000000 		.4byte	0x90
 8291 0faf 19       		.uleb128 0x19
 8292 0fb0 18       		.uleb128 0x18
 8293 0fb1 6A00     		.ascii	"j\000"
 8294 0fb3 01       		.byte	0x1
 8295 0fb4 1C03     		.2byte	0x31c
 8296 0fb6 90000000 		.4byte	0x90
 8297 0fba 19       		.uleb128 0x19
 8298 0fbb 18       		.uleb128 0x18
 8299 0fbc 796900   		.ascii	"yi\000"
 8300 0fbf 01       		.byte	0x1
 8301 0fc0 1E03     		.2byte	0x31e
 8302 0fc2 25000000 		.4byte	0x25
 8303 0fc6 18       		.uleb128 0x18
 8304 0fc7 786900   		.ascii	"xi\000"
 8305 0fca 01       		.byte	0x1
 8306 0fcb 1E03     		.2byte	0x31e
 8307 0fcd 25000000 		.4byte	0x25
 8308 0fd1 38       		.uleb128 0x38
 8309 0fd2 E10F0000 		.4byte	0xfe1
 8310 0fd6 18       		.uleb128 0x18
 8311 0fd7 6B00     		.ascii	"k\000"
 8312 0fd9 01       		.byte	0x1
 8313 0fda 2103     		.2byte	0x321
 8314 0fdc 90000000 		.4byte	0x90
 8315 0fe0 00       		.byte	0
 8316 0fe1 19       		.uleb128 0x19
 8317 0fe2 18       		.uleb128 0x18
 8318 0fe3 6B00     		.ascii	"k\000"
ARM GAS  C:\Users\rdn\AppData\Local\Temp\cc5zc0m9.s 			page 178


 8319 0fe5 01       		.byte	0x1
 8320 0fe6 2403     		.2byte	0x324
 8321 0fe8 90000000 		.4byte	0x90
 8322 0fec 00       		.byte	0
 8323 0fed 00       		.byte	0
 8324 0fee 00       		.byte	0
 8325 0fef 00       		.byte	0
 8326 0ff0 00       		.byte	0
 8327 0ff1 1C       		.uleb128 0x1c
 8328 0ff2 9B050000 		.4byte	.LASF96
 8329 0ff6 01       		.byte	0x1
 8330 0ff7 3D03     		.2byte	0x33d
 8331 0ff9 00000000 		.4byte	.LFB42
 8332 0ffd D0010000 		.4byte	.LFE42-.LFB42
 8333 1001 01       		.uleb128 0x1
 8334 1002 9C       		.byte	0x9c
 8335 1003 CC110000 		.4byte	0x11cc
 8336 1007 1E       		.uleb128 0x1e
 8337 1008 786800   		.ascii	"xh\000"
 8338 100b 01       		.byte	0x1
 8339 100c 3D03     		.2byte	0x33d
 8340 100e DB030000 		.4byte	0x3db
 8341 1012 660E0000 		.4byte	.LLST76
 8342 1016 1E       		.uleb128 0x1e
 8343 1017 6E6800   		.ascii	"nh\000"
 8344 101a 01       		.byte	0x1
 8345 101b 3D03     		.2byte	0x33d
 8346 101d 90000000 		.4byte	0x90
 8347 1021 920E0000 		.4byte	.LLST77
 8348 1025 1E       		.uleb128 0x1e
 8349 1026 6C616700 		.ascii	"lag\000"
 8350 102a 01       		.byte	0x1
 8351 102b 3D03     		.2byte	0x33d
 8352 102d 90000000 		.4byte	0x90
 8353 1031 D50E0000 		.4byte	.LLST78
 8354 1035 1E       		.uleb128 0x1e
 8355 1036 783000   		.ascii	"x0\000"
 8356 1039 01       		.byte	0x1
 8357 103a 3E03     		.2byte	0x33e
 8358 103c DB030000 		.4byte	0x3db
 8359 1040 030F0000 		.4byte	.LLST79
 8360 1044 1E       		.uleb128 0x1e
 8361 1045 7800     		.ascii	"x\000"
 8362 1047 01       		.byte	0x1
 8363 1048 3E03     		.2byte	0x33e
 8364 104a A50A0000 		.4byte	0xaa5
 8365 104e 240F0000 		.4byte	.LLST80
 8366 1052 1E       		.uleb128 0x1e
 8367 1053 6E00     		.ascii	"n\000"
 8368 1055 01       		.byte	0x1
 8369 1056 3E03     		.2byte	0x33e
 8370 1058 90000000 		.4byte	0x90
 8371 105c 440F0000 		.4byte	.LLST81
 8372 1060 1E       		.uleb128 0x1e
 8373 1061 6300     		.ascii	"c\000"
 8374 1063 01       		.byte	0x1
 8375 1064 3E03     		.2byte	0x33e
ARM GAS  C:\Users\rdn\AppData\Local\Temp\cc5zc0m9.s 			page 179


 8376 1066 DB030000 		.4byte	0x3db
 8377 106a 640F0000 		.4byte	.LLST82
 8378 106e 33       		.uleb128 0x33
 8379 106f 8A040000 		.4byte	.LASF93
 8380 1073 01       		.byte	0x1
 8381 1074 3E03     		.2byte	0x33e
 8382 1076 90000000 		.4byte	0x90
 8383 107a 840F0000 		.4byte	.LLST83
 8384 107e 1F       		.uleb128 0x1f
 8385 107f BC0E0000 		.4byte	0xebc
 8386 1083 12000000 		.4byte	.LBB130
 8387 1087 AE010000 		.4byte	.LBE130-.LBB130
 8388 108b 01       		.byte	0x1
 8389 108c 4003     		.2byte	0x340
 8390 108e 20       		.uleb128 0x20
 8391 108f 1E0F0000 		.4byte	0xf1e
 8392 1093 A40F0000 		.4byte	.LLST84
 8393 1097 22       		.uleb128 0x22
 8394 1098 140F0000 		.4byte	0xf14
 8395 109c 08       		.byte	0x8
 8396 109d 20       		.uleb128 0x20
 8397 109e 0A0F0000 		.4byte	0xf0a
 8398 10a2 CF0F0000 		.4byte	.LLST85
 8399 10a6 21       		.uleb128 0x21
 8400 10a7 000F0000 		.4byte	0xf00
 8401 10ab 01       		.uleb128 0x1
 8402 10ac 5E       		.byte	0x5e
 8403 10ad 20       		.uleb128 0x20
 8404 10ae F60E0000 		.4byte	0xef6
 8405 10b2 EE0F0000 		.4byte	.LLST86
 8406 10b6 20       		.uleb128 0x20
 8407 10b7 EB0E0000 		.4byte	0xeeb
 8408 10bb 19100000 		.4byte	.LLST87
 8409 10bf 20       		.uleb128 0x20
 8410 10c0 DF0E0000 		.4byte	0xedf
 8411 10c4 42100000 		.4byte	.LLST88
 8412 10c8 20       		.uleb128 0x20
 8413 10c9 D40E0000 		.4byte	0xed4
 8414 10cd 8B100000 		.4byte	.LLST89
 8415 10d1 20       		.uleb128 0x20
 8416 10d2 C90E0000 		.4byte	0xec9
 8417 10d6 CE100000 		.4byte	.LLST90
 8418 10da 23       		.uleb128 0x23
 8419 10db 12000000 		.4byte	.LBB131
 8420 10df AE010000 		.4byte	.LBE131-.LBB131
 8421 10e3 39       		.uleb128 0x39
 8422 10e4 2A0F0000 		.4byte	0xf2a
 8423 10e8 02       		.uleb128 0x2
 8424 10e9 90       		.byte	0x90
 8425 10ea 4B       		.uleb128 0x4b
 8426 10eb 39       		.uleb128 0x39
 8427 10ec 340F0000 		.4byte	0xf34
 8428 10f0 02       		.uleb128 0x2
 8429 10f1 90       		.byte	0x90
 8430 10f2 4A       		.uleb128 0x4a
 8431 10f3 39       		.uleb128 0x39
 8432 10f4 400F0000 		.4byte	0xf40
ARM GAS  C:\Users\rdn\AppData\Local\Temp\cc5zc0m9.s 			page 180


 8433 10f8 03       		.uleb128 0x3
 8434 10f9 91       		.byte	0x91
 8435 10fa 807F     		.sleb128 -128
 8436 10fc 25       		.uleb128 0x25
 8437 10fd 4A0F0000 		.4byte	0xf4a
 8438 1101 FA100000 		.4byte	.LLST91
 8439 1105 39       		.uleb128 0x39
 8440 1106 540F0000 		.4byte	0xf54
 8441 110a 01       		.uleb128 0x1
 8442 110b 51       		.byte	0x51
 8443 110c 3A       		.uleb128 0x3a
 8444 110d 62000000 		.4byte	.LBB132
 8445 1111 88000000 		.4byte	.LBE132-.LBB132
 8446 1115 65110000 		.4byte	0x1165
 8447 1119 25       		.uleb128 0x25
 8448 111a 650F0000 		.4byte	0xf65
 8449 111e 3D110000 		.4byte	.LLST92
 8450 1122 26       		.uleb128 0x26
 8451 1123 D8000000 		.4byte	.Ldebug_ranges0+0xd8
 8452 1127 25       		.uleb128 0x25
 8453 1128 700F0000 		.4byte	0xf70
 8454 112c 5C110000 		.4byte	.LLST93
 8455 1130 25       		.uleb128 0x25
 8456 1131 7B0F0000 		.4byte	0xf7b
 8457 1135 70110000 		.4byte	.LLST94
 8458 1139 3A       		.uleb128 0x3a
 8459 113a 8A000000 		.4byte	.LBB134
 8460 113e 2E000000 		.4byte	.LBE134-.LBB134
 8461 1142 50110000 		.4byte	0x1150
 8462 1146 25       		.uleb128 0x25
 8463 1147 8B0F0000 		.4byte	0xf8b
 8464 114b 84110000 		.4byte	.LLST95
 8465 114f 00       		.byte	0
 8466 1150 23       		.uleb128 0x23
 8467 1151 B8000000 		.4byte	.LBB135
 8468 1155 2A000000 		.4byte	.LBE135-.LBB135
 8469 1159 25       		.uleb128 0x25
 8470 115a 970F0000 		.4byte	0xf97
 8471 115e A3110000 		.4byte	.LLST96
 8472 1162 00       		.byte	0
 8473 1163 00       		.byte	0
 8474 1164 00       		.byte	0
 8475 1165 23       		.uleb128 0x23
 8476 1166 EE000000 		.4byte	.LBB137
 8477 116a D2000000 		.4byte	.LBE137-.LBB137
 8478 116e 25       		.uleb128 0x25
 8479 116f A50F0000 		.4byte	0xfa5
 8480 1173 B6110000 		.4byte	.LLST97
 8481 1177 26       		.uleb128 0x26
 8482 1178 F0000000 		.4byte	.Ldebug_ranges0+0xf0
 8483 117c 25       		.uleb128 0x25
 8484 117d B00F0000 		.4byte	0xfb0
 8485 1181 D5110000 		.4byte	.LLST98
 8486 1185 26       		.uleb128 0x26
 8487 1186 08010000 		.4byte	.Ldebug_ranges0+0x108
 8488 118a 25       		.uleb128 0x25
 8489 118b BB0F0000 		.4byte	0xfbb
ARM GAS  C:\Users\rdn\AppData\Local\Temp\cc5zc0m9.s 			page 181


 8490 118f F3110000 		.4byte	.LLST99
 8491 1193 25       		.uleb128 0x25
 8492 1194 C60F0000 		.4byte	0xfc6
 8493 1198 07120000 		.4byte	.LLST100
 8494 119c 3A       		.uleb128 0x3a
 8495 119d 04010000 		.4byte	.LBB140
 8496 11a1 48000000 		.4byte	.LBE140-.LBB140
 8497 11a5 B3110000 		.4byte	0x11b3
 8498 11a9 25       		.uleb128 0x25
 8499 11aa D60F0000 		.4byte	0xfd6
 8500 11ae 27120000 		.4byte	.LLST101
 8501 11b2 00       		.byte	0
 8502 11b3 23       		.uleb128 0x23
 8503 11b4 4C010000 		.4byte	.LBB141
 8504 11b8 40000000 		.4byte	.LBE141-.LBB141
 8505 11bc 25       		.uleb128 0x25
 8506 11bd E20F0000 		.4byte	0xfe2
 8507 11c1 46120000 		.4byte	.LLST102
 8508 11c5 00       		.byte	0
 8509 11c6 00       		.byte	0
 8510 11c7 00       		.byte	0
 8511 11c8 00       		.byte	0
 8512 11c9 00       		.byte	0
 8513 11ca 00       		.byte	0
 8514 11cb 00       		.byte	0
 8515 11cc 2F       		.uleb128 0x2f
 8516 11cd 7D040000 		.4byte	.LASF97
 8517 11d1 01       		.byte	0x1
 8518 11d2 4602     		.2byte	0x246
 8519 11d4 BF010000 		.4byte	0x1bf
 8520 11d8 00000000 		.4byte	.LFB36
 8521 11dc 88020000 		.4byte	.LFE36-.LFB36
 8522 11e0 01       		.uleb128 0x1
 8523 11e1 9C       		.byte	0x9c
 8524 11e2 2C150000 		.4byte	0x152c
 8525 11e6 33       		.uleb128 0x33
 8526 11e7 2E030000 		.4byte	.LASF98
 8527 11eb 01       		.byte	0x1
 8528 11ec 4602     		.2byte	0x246
 8529 11ee 2C150000 		.4byte	0x152c
 8530 11f2 59120000 		.4byte	.LLST103
 8531 11f6 1E       		.uleb128 0x1e
 8532 11f7 7800     		.ascii	"x\000"
 8533 11f9 01       		.byte	0x1
 8534 11fa 4702     		.2byte	0x247
 8535 11fc A7040000 		.4byte	0x4a7
 8536 1200 85120000 		.4byte	.LLST104
 8537 1204 1E       		.uleb128 0x1e
 8538 1205 6E00     		.ascii	"n\000"
 8539 1207 01       		.byte	0x1
 8540 1208 4702     		.2byte	0x247
 8541 120a 90000000 		.4byte	0x90
 8542 120e CA120000 		.4byte	.LLST105
 8543 1212 1E       		.uleb128 0x1e
 8544 1213 746300   		.ascii	"tc\000"
 8545 1216 01       		.byte	0x1
 8546 1217 4702     		.2byte	0x247
ARM GAS  C:\Users\rdn\AppData\Local\Temp\cc5zc0m9.s 			page 182


 8547 1219 A60E0000 		.4byte	0xea6
 8548 121d 0F130000 		.4byte	.LLST106
 8549 1221 2D       		.uleb128 0x2d
 8550 1222 726D3100 		.ascii	"rm1\000"
 8551 1226 01       		.byte	0x1
 8552 1227 4902     		.2byte	0x249
 8553 1229 25000000 		.4byte	0x25
 8554 122d 02       		.uleb128 0x2
 8555 122e 91       		.byte	0x91
 8556 122f 4C       		.sleb128 -52
 8557 1230 2D       		.uleb128 0x2d
 8558 1231 726D3200 		.ascii	"rm2\000"
 8559 1235 01       		.byte	0x1
 8560 1236 4902     		.2byte	0x249
 8561 1238 25000000 		.4byte	0x25
 8562 123c 02       		.uleb128 0x2
 8563 123d 91       		.byte	0x91
 8564 123e 48       		.sleb128 -56
 8565 123f 2D       		.uleb128 0x2d
 8566 1240 7200     		.ascii	"r\000"
 8567 1242 01       		.byte	0x1
 8568 1243 4A02     		.2byte	0x24a
 8569 1245 32150000 		.4byte	0x1532
 8570 1249 03       		.uleb128 0x3
 8571 124a 91       		.byte	0x91
 8572 124b C07C     		.sleb128 -448
 8573 124d 3B       		.uleb128 0x3b
 8574 124e 723000   		.ascii	"r0\000"
 8575 1251 01       		.byte	0x1
 8576 1252 4C02     		.2byte	0x24c
 8577 1254 21060000 		.4byte	0x621
 8578 1258 11       		.byte	0x11
 8579 1259 3B       		.uleb128 0x3b
 8580 125a 6E7200   		.ascii	"nr\000"
 8581 125d 01       		.byte	0x1
 8582 125e 4C02     		.2byte	0x24c
 8583 1260 21060000 		.4byte	0x621
 8584 1264 62       		.byte	0x62
 8585 1265 30       		.uleb128 0x30
 8586 1266 6B3000   		.ascii	"k0\000"
 8587 1269 01       		.byte	0x1
 8588 126a 4D02     		.2byte	0x24d
 8589 126c 90000000 		.4byte	0x90
 8590 1270 3C130000 		.4byte	.LLST107
 8591 1274 30       		.uleb128 0x30
 8592 1275 6E6B00   		.ascii	"nk\000"
 8593 1278 01       		.byte	0x1
 8594 1279 4E02     		.2byte	0x24e
 8595 127b 90000000 		.4byte	0x90
 8596 127f 4F130000 		.4byte	.LLST108
 8597 1283 30       		.uleb128 0x30
 8598 1284 743100   		.ascii	"t1\000"
 8599 1287 01       		.byte	0x1
 8600 1288 5202     		.2byte	0x252
 8601 128a 90000000 		.4byte	0x90
 8602 128e 62130000 		.4byte	.LLST109
 8603 1292 30       		.uleb128 0x30
ARM GAS  C:\Users\rdn\AppData\Local\Temp\cc5zc0m9.s 			page 183


 8604 1293 743200   		.ascii	"t2\000"
 8605 1296 01       		.byte	0x1
 8606 1297 5302     		.2byte	0x253
 8607 1299 90000000 		.4byte	0x90
 8608 129d B2130000 		.4byte	.LLST110
 8609 12a1 30       		.uleb128 0x30
 8610 12a2 783100   		.ascii	"x1\000"
 8611 12a5 01       		.byte	0x1
 8612 12a6 5502     		.2byte	0x255
 8613 12a8 A7040000 		.4byte	0x4a7
 8614 12ac C5130000 		.4byte	.LLST111
 8615 12b0 30       		.uleb128 0x30
 8616 12b1 783200   		.ascii	"x2\000"
 8617 12b4 01       		.byte	0x1
 8618 12b5 5602     		.2byte	0x256
 8619 12b7 A7040000 		.4byte	0x4a7
 8620 12bb 6A140000 		.4byte	.LLST112
 8621 12bf 2D       		.uleb128 0x2d
 8622 12c0 6E633100 		.ascii	"nc1\000"
 8623 12c4 01       		.byte	0x1
 8624 12c5 5802     		.2byte	0x258
 8625 12c7 25000000 		.4byte	0x25
 8626 12cb 02       		.uleb128 0x2
 8627 12cc 90       		.byte	0x90
 8628 12cd 51       		.uleb128 0x51
 8629 12ce 2D       		.uleb128 0x2d
 8630 12cf 6E633200 		.ascii	"nc2\000"
 8631 12d3 01       		.byte	0x1
 8632 12d4 5B02     		.2byte	0x25b
 8633 12d6 25000000 		.4byte	0x25
 8634 12da 02       		.uleb128 0x2
 8635 12db 90       		.byte	0x90
 8636 12dc 4E       		.uleb128 0x4e
 8637 12dd 31       		.uleb128 0x31
 8638 12de 32000000 		.4byte	.LASF99
 8639 12e2 01       		.byte	0x1
 8640 12e3 5E02     		.2byte	0x25e
 8641 12e5 90000000 		.4byte	0x90
 8642 12e9 AE140000 		.4byte	.LLST113
 8643 12ed 3C       		.uleb128 0x3c
 8644 12ee 49040000 		.4byte	0x449
 8645 12f2 8C000000 		.4byte	.LBB144
 8646 12f6 4C000000 		.4byte	.LBE144-.LBB144
 8647 12fa 01       		.byte	0x1
 8648 12fb 5902     		.2byte	0x259
 8649 12fd 57130000 		.4byte	0x1357
 8650 1301 3D       		.uleb128 0x3d
 8651 1302 6E040000 		.4byte	0x46e
 8652 1306 20       		.uleb128 0x20
 8653 1307 64040000 		.4byte	0x464
 8654 130b 1A150000 		.4byte	.LLST114
 8655 130f 20       		.uleb128 0x20
 8656 1310 5A040000 		.4byte	0x45a
 8657 1314 45150000 		.4byte	.LLST115
 8658 1318 23       		.uleb128 0x23
 8659 1319 8C000000 		.4byte	.LBB145
 8660 131d 4C000000 		.4byte	.LBE145-.LBB145
ARM GAS  C:\Users\rdn\AppData\Local\Temp\cc5zc0m9.s 			page 184


 8661 1321 25       		.uleb128 0x25
 8662 1322 78040000 		.4byte	0x478
 8663 1326 65150000 		.4byte	.LLST116
 8664 132a 25       		.uleb128 0x25
 8665 132b 82040000 		.4byte	0x482
 8666 132f 8D150000 		.4byte	.LLST117
 8667 1333 23       		.uleb128 0x23
 8668 1334 8C000000 		.4byte	.LBB146
 8669 1338 36000000 		.4byte	.LBE146-.LBB146
 8670 133c 25       		.uleb128 0x25
 8671 133d 8F040000 		.4byte	0x48f
 8672 1341 A0150000 		.4byte	.LLST118
 8673 1345 26       		.uleb128 0x26
 8674 1346 20010000 		.4byte	.Ldebug_ranges0+0x120
 8675 134a 25       		.uleb128 0x25
 8676 134b 9A040000 		.4byte	0x49a
 8677 134f B3150000 		.4byte	.LLST119
 8678 1353 00       		.byte	0
 8679 1354 00       		.byte	0
 8680 1355 00       		.byte	0
 8681 1356 00       		.byte	0
 8682 1357 3C       		.uleb128 0x3c
 8683 1358 49040000 		.4byte	0x449
 8684 135c D8000000 		.4byte	.LBB149
 8685 1360 4E000000 		.4byte	.LBE149-.LBB149
 8686 1364 01       		.byte	0x1
 8687 1365 5902     		.2byte	0x259
 8688 1367 C1130000 		.4byte	0x13c1
 8689 136b 20       		.uleb128 0x20
 8690 136c 6E040000 		.4byte	0x46e
 8691 1370 D1150000 		.4byte	.LLST120
 8692 1374 20       		.uleb128 0x20
 8693 1375 64040000 		.4byte	0x464
 8694 1379 E4150000 		.4byte	.LLST121
 8695 137d 20       		.uleb128 0x20
 8696 137e 5A040000 		.4byte	0x45a
 8697 1382 1A160000 		.4byte	.LLST122
 8698 1386 23       		.uleb128 0x23
 8699 1387 D8000000 		.4byte	.LBB150
 8700 138b 4E000000 		.4byte	.LBE150-.LBB150
 8701 138f 25       		.uleb128 0x25
 8702 1390 78040000 		.4byte	0x478
 8703 1394 45160000 		.4byte	.LLST123
 8704 1398 25       		.uleb128 0x25
 8705 1399 82040000 		.4byte	0x482
 8706 139d 6D160000 		.4byte	.LLST124
 8707 13a1 26       		.uleb128 0x26
 8708 13a2 38010000 		.4byte	.Ldebug_ranges0+0x138
 8709 13a6 25       		.uleb128 0x25
 8710 13a7 8F040000 		.4byte	0x48f
 8711 13ab 80160000 		.4byte	.LLST125
 8712 13af 26       		.uleb128 0x26
 8713 13b0 50010000 		.4byte	.Ldebug_ranges0+0x150
 8714 13b4 25       		.uleb128 0x25
 8715 13b5 9A040000 		.4byte	0x49a
 8716 13b9 93160000 		.4byte	.LLST126
 8717 13bd 00       		.byte	0
ARM GAS  C:\Users\rdn\AppData\Local\Temp\cc5zc0m9.s 			page 185


 8718 13be 00       		.byte	0
 8719 13bf 00       		.byte	0
 8720 13c0 00       		.byte	0
 8721 13c1 3C       		.uleb128 0x3c
 8722 13c2 49040000 		.4byte	0x449
 8723 13c6 68010000 		.4byte	.LBB155
 8724 13ca 48000000 		.4byte	.LBE155-.LBB155
 8725 13ce 01       		.byte	0x1
 8726 13cf 5C02     		.2byte	0x25c
 8727 13d1 2B140000 		.4byte	0x142b
 8728 13d5 3D       		.uleb128 0x3d
 8729 13d6 6E040000 		.4byte	0x46e
 8730 13da 20       		.uleb128 0x20
 8731 13db 64040000 		.4byte	0x464
 8732 13df B1160000 		.4byte	.LLST127
 8733 13e3 20       		.uleb128 0x20
 8734 13e4 5A040000 		.4byte	0x45a
 8735 13e8 DC160000 		.4byte	.LLST128
 8736 13ec 23       		.uleb128 0x23
 8737 13ed 68010000 		.4byte	.LBB156
 8738 13f1 48000000 		.4byte	.LBE156-.LBB156
 8739 13f5 25       		.uleb128 0x25
 8740 13f6 78040000 		.4byte	0x478
 8741 13fa FC160000 		.4byte	.LLST129
 8742 13fe 25       		.uleb128 0x25
 8743 13ff 82040000 		.4byte	0x482
 8744 1403 24170000 		.4byte	.LLST130
 8745 1407 23       		.uleb128 0x23
 8746 1408 68010000 		.4byte	.LBB157
 8747 140c 32000000 		.4byte	.LBE157-.LBB157
 8748 1410 25       		.uleb128 0x25
 8749 1411 8F040000 		.4byte	0x48f
 8750 1415 37170000 		.4byte	.LLST131
 8751 1419 26       		.uleb128 0x26
 8752 141a 68010000 		.4byte	.Ldebug_ranges0+0x168
 8753 141e 25       		.uleb128 0x25
 8754 141f 9A040000 		.4byte	0x49a
 8755 1423 4A170000 		.4byte	.LLST132
 8756 1427 00       		.byte	0
 8757 1428 00       		.byte	0
 8758 1429 00       		.byte	0
 8759 142a 00       		.byte	0
 8760 142b 3C       		.uleb128 0x3c
 8761 142c 49040000 		.4byte	0x449
 8762 1430 B0010000 		.4byte	.LBB160
 8763 1434 46000000 		.4byte	.LBE160-.LBB160
 8764 1438 01       		.byte	0x1
 8765 1439 5C02     		.2byte	0x25c
 8766 143b 95140000 		.4byte	0x1495
 8767 143f 20       		.uleb128 0x20
 8768 1440 6E040000 		.4byte	0x46e
 8769 1444 68170000 		.4byte	.LLST133
 8770 1448 20       		.uleb128 0x20
 8771 1449 64040000 		.4byte	0x464
 8772 144d 89170000 		.4byte	.LLST134
 8773 1451 20       		.uleb128 0x20
 8774 1452 5A040000 		.4byte	0x45a
ARM GAS  C:\Users\rdn\AppData\Local\Temp\cc5zc0m9.s 			page 186


 8775 1456 BF170000 		.4byte	.LLST135
 8776 145a 23       		.uleb128 0x23
 8777 145b B0010000 		.4byte	.LBB161
 8778 145f 46000000 		.4byte	.LBE161-.LBB161
 8779 1463 25       		.uleb128 0x25
 8780 1464 78040000 		.4byte	0x478
 8781 1468 EA170000 		.4byte	.LLST136
 8782 146c 25       		.uleb128 0x25
 8783 146d 82040000 		.4byte	0x482
 8784 1471 12180000 		.4byte	.LLST137
 8785 1475 26       		.uleb128 0x26
 8786 1476 80010000 		.4byte	.Ldebug_ranges0+0x180
 8787 147a 25       		.uleb128 0x25
 8788 147b 8F040000 		.4byte	0x48f
 8789 147f 25180000 		.4byte	.LLST138
 8790 1483 26       		.uleb128 0x26
 8791 1484 98010000 		.4byte	.Ldebug_ranges0+0x198
 8792 1488 25       		.uleb128 0x25
 8793 1489 9A040000 		.4byte	0x49a
 8794 148d 38180000 		.4byte	.LLST139
 8795 1491 00       		.byte	0
 8796 1492 00       		.byte	0
 8797 1493 00       		.byte	0
 8798 1494 00       		.byte	0
 8799 1495 34       		.uleb128 0x34
 8800 1496 3E000000 		.4byte	.LVL262
 8801 149a CF090000 		.4byte	0x9cf
 8802 149e C3140000 		.4byte	0x14c3
 8803 14a2 35       		.uleb128 0x35
 8804 14a3 01       		.uleb128 0x1
 8805 14a4 50       		.byte	0x50
 8806 14a5 02       		.uleb128 0x2
 8807 14a6 74       		.byte	0x74
 8808 14a7 00       		.sleb128 0
 8809 14a8 35       		.uleb128 0x35
 8810 14a9 01       		.uleb128 0x1
 8811 14aa 51       		.byte	0x51
 8812 14ab 02       		.uleb128 0x2
 8813 14ac 74       		.byte	0x74
 8814 14ad 5E       		.sleb128 -34
 8815 14ae 35       		.uleb128 0x35
 8816 14af 01       		.uleb128 0x1
 8817 14b0 52       		.byte	0x52
 8818 14b1 02       		.uleb128 0x2
 8819 14b2 76       		.byte	0x76
 8820 14b3 00       		.sleb128 0
 8821 14b4 35       		.uleb128 0x35
 8822 14b5 01       		.uleb128 0x1
 8823 14b6 53       		.byte	0x53
 8824 14b7 03       		.uleb128 0x3
 8825 14b8 91       		.byte	0x91
 8826 14b9 C07C     		.sleb128 -448
 8827 14bb 35       		.uleb128 0x35
 8828 14bc 02       		.uleb128 0x2
 8829 14bd 7D       		.byte	0x7d
 8830 14be 00       		.sleb128 0
 8831 14bf 02       		.uleb128 0x2
ARM GAS  C:\Users\rdn\AppData\Local\Temp\cc5zc0m9.s 			page 187


 8832 14c0 79       		.byte	0x79
 8833 14c1 00       		.sleb128 0
 8834 14c2 00       		.byte	0
 8835 14c3 34       		.uleb128 0x34
 8836 14c4 4C000000 		.4byte	.LVL263
 8837 14c8 120B0000 		.4byte	0xb12
 8838 14cc F0140000 		.4byte	0x14f0
 8839 14d0 35       		.uleb128 0x35
 8840 14d1 01       		.uleb128 0x1
 8841 14d2 50       		.byte	0x50
 8842 14d3 03       		.uleb128 0x3
 8843 14d4 91       		.byte	0x91
 8844 14d5 C07C     		.sleb128 -448
 8845 14d7 35       		.uleb128 0x35
 8846 14d8 01       		.uleb128 0x1
 8847 14d9 51       		.byte	0x51
 8848 14da 02       		.uleb128 0x2
 8849 14db 79       		.byte	0x79
 8850 14dc 00       		.sleb128 0
 8851 14dd 35       		.uleb128 0x35
 8852 14de 02       		.uleb128 0x2
 8853 14df 90       		.byte	0x90
 8854 14e0 40       		.uleb128 0x40
 8855 14e1 07       		.uleb128 0x7
 8856 14e2 F4       		.byte	0xf4
 8857 14e3 25       		.uleb128 0x25
 8858 14e4 04       		.byte	0x4
 8859 14e5 3FE8A8BB 		.4byte	0xbba8e83f
 8860 14e9 35       		.uleb128 0x35
 8861 14ea 01       		.uleb128 0x1
 8862 14eb 52       		.byte	0x52
 8863 14ec 02       		.uleb128 0x2
 8864 14ed 91       		.byte	0x91
 8865 14ee 4C       		.sleb128 -52
 8866 14ef 00       		.byte	0
 8867 14f0 34       		.uleb128 0x34
 8868 14f1 5E000000 		.4byte	.LVL266
 8869 14f5 AB0A0000 		.4byte	0xaab
 8870 14f9 19150000 		.4byte	0x1519
 8871 14fd 35       		.uleb128 0x35
 8872 14fe 01       		.uleb128 0x1
 8873 14ff 50       		.byte	0x50
 8874 1500 0B       		.uleb128 0xb
 8875 1501 77       		.byte	0x77
 8876 1502 00       		.sleb128 0
 8877 1503 32       		.byte	0x32
 8878 1504 24       		.byte	0x24
 8879 1505 91       		.byte	0x91
 8880 1506 00       		.sleb128 0
 8881 1507 22       		.byte	0x22
 8882 1508 0A       		.byte	0xa
 8883 1509 C001     		.2byte	0x1c0
 8884 150b 1C       		.byte	0x1c
 8885 150c 35       		.uleb128 0x35
 8886 150d 01       		.uleb128 0x1
 8887 150e 51       		.byte	0x51
 8888 150f 02       		.uleb128 0x2
ARM GAS  C:\Users\rdn\AppData\Local\Temp\cc5zc0m9.s 			page 188


 8889 1510 75       		.byte	0x75
 8890 1511 00       		.sleb128 0
 8891 1512 35       		.uleb128 0x35
 8892 1513 01       		.uleb128 0x1
 8893 1514 52       		.byte	0x52
 8894 1515 02       		.uleb128 0x2
 8895 1516 91       		.byte	0x91
 8896 1517 48       		.sleb128 -56
 8897 1518 00       		.byte	0
 8898 1519 3E       		.uleb128 0x3e
 8899 151a 40010000 		.4byte	.LVL298
 8900 151e 372C0000 		.4byte	0x2c37
 8901 1522 3E       		.uleb128 0x3e
 8902 1523 10020000 		.4byte	.LVL328
 8903 1527 372C0000 		.4byte	0x2c37
 8904 152b 00       		.byte	0
 8905 152c 10       		.uleb128 0x10
 8906 152d 04       		.byte	0x4
 8907 152e 5D010000 		.4byte	0x15d
 8908 1532 0D       		.uleb128 0xd
 8909 1533 25000000 		.4byte	0x25
 8910 1537 42150000 		.4byte	0x1542
 8911 153b 0E       		.uleb128 0xe
 8912 153c D6010000 		.4byte	0x1d6
 8913 1540 61       		.byte	0x61
 8914 1541 00       		.byte	0
 8915 1542 1C       		.uleb128 0x1c
 8916 1543 60030000 		.4byte	.LASF100
 8917 1547 01       		.byte	0x1
 8918 1548 3F01     		.2byte	0x13f
 8919 154a 00000000 		.4byte	.LFB24
 8920 154e 70010000 		.4byte	.LFE24-.LFB24
 8921 1552 01       		.uleb128 0x1
 8922 1553 9C       		.byte	0x9c
 8923 1554 8B160000 		.4byte	0x168b
 8924 1558 1D       		.uleb128 0x1d
 8925 1559 36040000 		.4byte	.LASF37
 8926 155d 01       		.byte	0x1
 8927 155e 4001     		.2byte	0x140
 8928 1560 3E040000 		.4byte	0x43e
 8929 1564 01       		.uleb128 0x1
 8930 1565 50       		.byte	0x50
 8931 1566 1E       		.uleb128 0x1e
 8932 1567 7800     		.ascii	"x\000"
 8933 1569 01       		.byte	0x1
 8934 156a 4001     		.2byte	0x140
 8935 156c A7040000 		.4byte	0x4a7
 8936 1570 56180000 		.4byte	.LLST140
 8937 1574 1E       		.uleb128 0x1e
 8938 1575 7900     		.ascii	"y\000"
 8939 1577 01       		.byte	0x1
 8940 1578 4001     		.2byte	0x140
 8941 157a 26060000 		.4byte	0x626
 8942 157e 81180000 		.4byte	.LLST141
 8943 1582 1E       		.uleb128 0x1e
 8944 1583 6E00     		.ascii	"n\000"
 8945 1585 01       		.byte	0x1
ARM GAS  C:\Users\rdn\AppData\Local\Temp\cc5zc0m9.s 			page 189


 8946 1586 4001     		.2byte	0x140
 8947 1588 90000000 		.4byte	0x90
 8948 158c A2180000 		.4byte	.LLST142
 8949 1590 1F       		.uleb128 0x1f
 8950 1591 93050000 		.4byte	0x593
 8951 1595 0A000000 		.4byte	.LBB173
 8952 1599 46010000 		.4byte	.LBE173-.LBB173
 8953 159d 01       		.byte	0x1
 8954 159e 4201     		.2byte	0x142
 8955 15a0 20       		.uleb128 0x20
 8956 15a1 CE050000 		.4byte	0x5ce
 8957 15a5 C0180000 		.4byte	.LLST143
 8958 15a9 20       		.uleb128 0x20
 8959 15aa C5050000 		.4byte	0x5c5
 8960 15ae DE180000 		.4byte	.LLST144
 8961 15b2 20       		.uleb128 0x20
 8962 15b3 BC050000 		.4byte	0x5bc
 8963 15b7 09190000 		.4byte	.LLST145
 8964 15bb 21       		.uleb128 0x21
 8965 15bc B1050000 		.4byte	0x5b1
 8966 15c0 01       		.uleb128 0x1
 8967 15c1 50       		.byte	0x50
 8968 15c2 21       		.uleb128 0x21
 8969 15c3 A8050000 		.4byte	0x5a8
 8970 15c7 06       		.uleb128 0x6
 8971 15c8 03       		.byte	0x3
 8972 15c9 20030000 		.4byte	h_16k_12k8_q15
 8973 15cd 9F       		.byte	0x9f
 8974 15ce 22       		.uleb128 0x22
 8975 15cf 9F050000 		.4byte	0x59f
 8976 15d3 04       		.byte	0x4
 8977 15d4 23       		.uleb128 0x23
 8978 15d5 0A000000 		.4byte	.LBB174
 8979 15d9 46010000 		.4byte	.LBE174-.LBB174
 8980 15dd 24       		.uleb128 0x24
 8981 15de D7050000 		.4byte	0x5d7
 8982 15e2 14       		.byte	0x14
 8983 15e3 23       		.uleb128 0x23
 8984 15e4 0E000000 		.4byte	.LBB175
 8985 15e8 42010000 		.4byte	.LBE175-.LBB175
 8986 15ec 25       		.uleb128 0x25
 8987 15ed E1050000 		.4byte	0x5e1
 8988 15f1 4B190000 		.4byte	.LLST146
 8989 15f5 26       		.uleb128 0x26
 8990 15f6 B0010000 		.4byte	.Ldebug_ranges0+0x1b0
 8991 15fa 25       		.uleb128 0x25
 8992 15fb EB050000 		.4byte	0x5eb
 8993 15ff 6A190000 		.4byte	.LLST147
 8994 1603 25       		.uleb128 0x25
 8995 1604 F5050000 		.4byte	0x5f5
 8996 1608 0A1A0000 		.4byte	.LLST148
 8997 160c 25       		.uleb128 0x25
 8998 160d FF050000 		.4byte	0x5ff
 8999 1611 AA1A0000 		.4byte	.LLST149
 9000 1615 27       		.uleb128 0x27
 9001 1616 09060000 		.4byte	0x609
 9002 161a 28       		.uleb128 0x28
ARM GAS  C:\Users\rdn\AppData\Local\Temp\cc5zc0m9.s 			page 190


 9003 161b C8010000 		.4byte	.Ldebug_ranges0+0x1c8
 9004 161f 2D160000 		.4byte	0x162d
 9005 1623 25       		.uleb128 0x25
 9006 1624 14060000 		.4byte	0x614
 9007 1628 F51A0000 		.4byte	.LLST150
 9008 162c 00       		.byte	0
 9009 162d 29       		.uleb128 0x29
 9010 162e E6030000 		.4byte	0x3e6
 9011 1632 CE000000 		.4byte	.LBB179
 9012 1636 6C000000 		.4byte	.LBE179-.LBB179
 9013 163a 01       		.byte	0x1
 9014 163b EE       		.byte	0xee
 9015 163c 20       		.uleb128 0x20
 9016 163d 01040000 		.4byte	0x401
 9017 1641 141B0000 		.4byte	.LLST151
 9018 1645 20       		.uleb128 0x20
 9019 1646 F6030000 		.4byte	0x3f6
 9020 164a 271B0000 		.4byte	.LLST152
 9021 164e 23       		.uleb128 0x23
 9022 164f CE000000 		.4byte	.LBB180
 9023 1653 6C000000 		.4byte	.LBE180-.LBB180
 9024 1657 25       		.uleb128 0x25
 9025 1658 0B040000 		.4byte	0x40b
 9026 165c 3A1B0000 		.4byte	.LLST153
 9027 1660 25       		.uleb128 0x25
 9028 1661 15040000 		.4byte	0x415
 9029 1665 4D1B0000 		.4byte	.LLST154
 9030 1669 25       		.uleb128 0x25
 9031 166a 1F040000 		.4byte	0x41f
 9032 166e 651B0000 		.4byte	.LLST155
 9033 1672 25       		.uleb128 0x25
 9034 1673 29040000 		.4byte	0x429
 9035 1677 7D1B0000 		.4byte	.LLST156
 9036 167b 25       		.uleb128 0x25
 9037 167c 33040000 		.4byte	0x433
 9038 1680 951B0000 		.4byte	.LLST157
 9039 1684 00       		.byte	0
 9040 1685 00       		.byte	0
 9041 1686 00       		.byte	0
 9042 1687 00       		.byte	0
 9043 1688 00       		.byte	0
 9044 1689 00       		.byte	0
 9045 168a 00       		.byte	0
 9046 168b 1C       		.uleb128 0x1c
 9047 168c BC050000 		.4byte	.LASF101
 9048 1690 01       		.byte	0x1
 9049 1691 4F01     		.2byte	0x14f
 9050 1693 00000000 		.4byte	.LFB25
 9051 1697 6C010000 		.4byte	.LFE25-.LFB25
 9052 169b 01       		.uleb128 0x1
 9053 169c 9C       		.byte	0x9c
 9054 169d D4170000 		.4byte	0x17d4
 9055 16a1 1D       		.uleb128 0x1d
 9056 16a2 36040000 		.4byte	.LASF37
 9057 16a6 01       		.byte	0x1
 9058 16a7 5001     		.2byte	0x150
 9059 16a9 3E040000 		.4byte	0x43e
ARM GAS  C:\Users\rdn\AppData\Local\Temp\cc5zc0m9.s 			page 191


 9060 16ad 01       		.uleb128 0x1
 9061 16ae 50       		.byte	0x50
 9062 16af 1E       		.uleb128 0x1e
 9063 16b0 7800     		.ascii	"x\000"
 9064 16b2 01       		.byte	0x1
 9065 16b3 5001     		.2byte	0x150
 9066 16b5 A7040000 		.4byte	0x4a7
 9067 16b9 AD1B0000 		.4byte	.LLST158
 9068 16bd 1E       		.uleb128 0x1e
 9069 16be 7900     		.ascii	"y\000"
 9070 16c0 01       		.byte	0x1
 9071 16c1 5001     		.2byte	0x150
 9072 16c3 26060000 		.4byte	0x626
 9073 16c7 D81B0000 		.4byte	.LLST159
 9074 16cb 1E       		.uleb128 0x1e
 9075 16cc 6E00     		.ascii	"n\000"
 9076 16ce 01       		.byte	0x1
 9077 16cf 5001     		.2byte	0x150
 9078 16d1 90000000 		.4byte	0x90
 9079 16d5 F91B0000 		.4byte	.LLST160
 9080 16d9 1F       		.uleb128 0x1f
 9081 16da 93050000 		.4byte	0x593
 9082 16de 0A000000 		.4byte	.LBB189
 9083 16e2 42010000 		.4byte	.LBE189-.LBB189
 9084 16e6 01       		.byte	0x1
 9085 16e7 5201     		.2byte	0x152
 9086 16e9 20       		.uleb128 0x20
 9087 16ea CE050000 		.4byte	0x5ce
 9088 16ee 171C0000 		.4byte	.LLST161
 9089 16f2 20       		.uleb128 0x20
 9090 16f3 C5050000 		.4byte	0x5c5
 9091 16f7 351C0000 		.4byte	.LLST162
 9092 16fb 20       		.uleb128 0x20
 9093 16fc BC050000 		.4byte	0x5bc
 9094 1700 601C0000 		.4byte	.LLST163
 9095 1704 21       		.uleb128 0x21
 9096 1705 B1050000 		.4byte	0x5b1
 9097 1709 01       		.uleb128 0x1
 9098 170a 50       		.byte	0x50
 9099 170b 21       		.uleb128 0x21
 9100 170c A8050000 		.4byte	0x5a8
 9101 1710 06       		.uleb128 0x6
 9102 1711 03       		.byte	0x3
 9103 1712 C0030000 		.4byte	h_32k_12k8_q15
 9104 1716 9F       		.byte	0x9f
 9105 1717 22       		.uleb128 0x22
 9106 1718 9F050000 		.4byte	0x59f
 9107 171c 02       		.byte	0x2
 9108 171d 23       		.uleb128 0x23
 9109 171e 0A000000 		.4byte	.LBB190
 9110 1722 42010000 		.4byte	.LBE190-.LBB190
 9111 1726 24       		.uleb128 0x24
 9112 1727 D7050000 		.4byte	0x5d7
 9113 172b 28       		.byte	0x28
 9114 172c 23       		.uleb128 0x23
 9115 172d 0E000000 		.4byte	.LBB191
 9116 1731 3E010000 		.4byte	.LBE191-.LBB191
ARM GAS  C:\Users\rdn\AppData\Local\Temp\cc5zc0m9.s 			page 192


 9117 1735 25       		.uleb128 0x25
 9118 1736 E1050000 		.4byte	0x5e1
 9119 173a A31C0000 		.4byte	.LLST164
 9120 173e 26       		.uleb128 0x26
 9121 173f E0010000 		.4byte	.Ldebug_ranges0+0x1e0
 9122 1743 25       		.uleb128 0x25
 9123 1744 EB050000 		.4byte	0x5eb
 9124 1748 C21C0000 		.4byte	.LLST165
 9125 174c 25       		.uleb128 0x25
 9126 174d F5050000 		.4byte	0x5f5
 9127 1751 621D0000 		.4byte	.LLST166
 9128 1755 25       		.uleb128 0x25
 9129 1756 FF050000 		.4byte	0x5ff
 9130 175a 021E0000 		.4byte	.LLST167
 9131 175e 27       		.uleb128 0x27
 9132 175f 09060000 		.4byte	0x609
 9133 1763 28       		.uleb128 0x28
 9134 1764 F8010000 		.4byte	.Ldebug_ranges0+0x1f8
 9135 1768 76170000 		.4byte	0x1776
 9136 176c 25       		.uleb128 0x25
 9137 176d 14060000 		.4byte	0x614
 9138 1771 4D1E0000 		.4byte	.LLST168
 9139 1775 00       		.byte	0
 9140 1776 29       		.uleb128 0x29
 9141 1777 E6030000 		.4byte	0x3e6
 9142 177b CA000000 		.4byte	.LBB195
 9143 177f 6C000000 		.4byte	.LBE195-.LBB195
 9144 1783 01       		.byte	0x1
 9145 1784 EE       		.byte	0xee
 9146 1785 20       		.uleb128 0x20
 9147 1786 01040000 		.4byte	0x401
 9148 178a 6C1E0000 		.4byte	.LLST169
 9149 178e 20       		.uleb128 0x20
 9150 178f F6030000 		.4byte	0x3f6
 9151 1793 7F1E0000 		.4byte	.LLST170
 9152 1797 23       		.uleb128 0x23
 9153 1798 CA000000 		.4byte	.LBB196
 9154 179c 6C000000 		.4byte	.LBE196-.LBB196
 9155 17a0 25       		.uleb128 0x25
 9156 17a1 0B040000 		.4byte	0x40b
 9157 17a5 921E0000 		.4byte	.LLST171
 9158 17a9 25       		.uleb128 0x25
 9159 17aa 15040000 		.4byte	0x415
 9160 17ae A51E0000 		.4byte	.LLST172
 9161 17b2 25       		.uleb128 0x25
 9162 17b3 1F040000 		.4byte	0x41f
 9163 17b7 BD1E0000 		.4byte	.LLST173
 9164 17bb 25       		.uleb128 0x25
 9165 17bc 29040000 		.4byte	0x429
 9166 17c0 D51E0000 		.4byte	.LLST174
 9167 17c4 25       		.uleb128 0x25
 9168 17c5 33040000 		.4byte	0x433
 9169 17c9 ED1E0000 		.4byte	.LLST175
 9170 17cd 00       		.byte	0
 9171 17ce 00       		.byte	0
 9172 17cf 00       		.byte	0
 9173 17d0 00       		.byte	0
ARM GAS  C:\Users\rdn\AppData\Local\Temp\cc5zc0m9.s 			page 193


 9174 17d1 00       		.byte	0
 9175 17d2 00       		.byte	0
 9176 17d3 00       		.byte	0
 9177 17d4 1C       		.uleb128 0x1c
 9178 17d5 04040000 		.4byte	.LASF102
 9179 17d9 01       		.byte	0x1
 9180 17da 5F01     		.2byte	0x15f
 9181 17dc 00000000 		.4byte	.LFB26
 9182 17e0 AC010000 		.4byte	.LFE26-.LFB26
 9183 17e4 01       		.uleb128 0x1
 9184 17e5 9C       		.byte	0x9c
 9185 17e6 1E190000 		.4byte	0x191e
 9186 17ea 1D       		.uleb128 0x1d
 9187 17eb 36040000 		.4byte	.LASF37
 9188 17ef 01       		.byte	0x1
 9189 17f0 6001     		.2byte	0x160
 9190 17f2 3E040000 		.4byte	0x43e
 9191 17f6 01       		.uleb128 0x1
 9192 17f7 50       		.byte	0x50
 9193 17f8 1E       		.uleb128 0x1e
 9194 17f9 7800     		.ascii	"x\000"
 9195 17fb 01       		.byte	0x1
 9196 17fc 6001     		.2byte	0x160
 9197 17fe A7040000 		.4byte	0x4a7
 9198 1802 051F0000 		.4byte	.LLST176
 9199 1806 1E       		.uleb128 0x1e
 9200 1807 7900     		.ascii	"y\000"
 9201 1809 01       		.byte	0x1
 9202 180a 6001     		.2byte	0x160
 9203 180c 26060000 		.4byte	0x626
 9204 1810 301F0000 		.4byte	.LLST177
 9205 1814 1E       		.uleb128 0x1e
 9206 1815 6E00     		.ascii	"n\000"
 9207 1817 01       		.byte	0x1
 9208 1818 6001     		.2byte	0x160
 9209 181a 90000000 		.4byte	0x90
 9210 181e 511F0000 		.4byte	.LLST178
 9211 1822 1F       		.uleb128 0x1f
 9212 1823 75070000 		.4byte	0x775
 9213 1827 0A000000 		.4byte	.LBB205
 9214 182b 82010000 		.4byte	.LBE205-.LBB205
 9215 182f 01       		.byte	0x1
 9216 1830 6201     		.2byte	0x162
 9217 1832 20       		.uleb128 0x20
 9218 1833 B6070000 		.4byte	0x7b6
 9219 1837 6F1F0000 		.4byte	.LLST179
 9220 183b 20       		.uleb128 0x20
 9221 183c AC070000 		.4byte	0x7ac
 9222 1840 8D1F0000 		.4byte	.LLST180
 9223 1844 20       		.uleb128 0x20
 9224 1845 A2070000 		.4byte	0x7a2
 9225 1849 B81F0000 		.4byte	.LLST181
 9226 184d 21       		.uleb128 0x21
 9227 184e 96070000 		.4byte	0x796
 9228 1852 01       		.uleb128 0x1
 9229 1853 50       		.byte	0x50
 9230 1854 21       		.uleb128 0x21
ARM GAS  C:\Users\rdn\AppData\Local\Temp\cc5zc0m9.s 			page 194


 9231 1855 8C070000 		.4byte	0x78c
 9232 1859 06       		.uleb128 0x6
 9233 185a 03       		.byte	0x3
 9234 185b 60040000 		.4byte	h_24k_12k8_q15
 9235 185f 9F       		.byte	0x9f
 9236 1860 22       		.uleb128 0x22
 9237 1861 82070000 		.4byte	0x782
 9238 1865 08       		.byte	0x8
 9239 1866 23       		.uleb128 0x23
 9240 1867 0A000000 		.4byte	.LBB206
 9241 186b 82010000 		.4byte	.LBE206-.LBB206
 9242 186f 24       		.uleb128 0x24
 9243 1870 C0070000 		.4byte	0x7c0
 9244 1874 1E       		.byte	0x1e
 9245 1875 23       		.uleb128 0x23
 9246 1876 0E000000 		.4byte	.LBB207
 9247 187a 7E010000 		.4byte	.LBE207-.LBB207
 9248 187e 25       		.uleb128 0x25
 9249 187f CB070000 		.4byte	0x7cb
 9250 1883 FA1F0000 		.4byte	.LLST182
 9251 1887 26       		.uleb128 0x26
 9252 1888 10020000 		.4byte	.Ldebug_ranges0+0x210
 9253 188c 25       		.uleb128 0x25
 9254 188d D6070000 		.4byte	0x7d6
 9255 1891 19200000 		.4byte	.LLST183
 9256 1895 25       		.uleb128 0x25
 9257 1896 E1070000 		.4byte	0x7e1
 9258 189a FA200000 		.4byte	.LLST184
 9259 189e 25       		.uleb128 0x25
 9260 189f EC070000 		.4byte	0x7ec
 9261 18a3 DB210000 		.4byte	.LLST185
 9262 18a7 27       		.uleb128 0x27
 9263 18a8 F7070000 		.4byte	0x7f7
 9264 18ac 28       		.uleb128 0x28
 9265 18ad 28020000 		.4byte	.Ldebug_ranges0+0x228
 9266 18b1 BF180000 		.4byte	0x18bf
 9267 18b5 25       		.uleb128 0x25
 9268 18b6 03080000 		.4byte	0x803
 9269 18ba 26220000 		.4byte	.LLST186
 9270 18be 00       		.byte	0
 9271 18bf 1F       		.uleb128 0x1f
 9272 18c0 E6030000 		.4byte	0x3e6
 9273 18c4 0A010000 		.4byte	.LBB211
 9274 18c8 6C000000 		.4byte	.LBE211-.LBB211
 9275 18cc 01       		.byte	0x1
 9276 18cd 2001     		.2byte	0x120
 9277 18cf 20       		.uleb128 0x20
 9278 18d0 01040000 		.4byte	0x401
 9279 18d4 45220000 		.4byte	.LLST187
 9280 18d8 20       		.uleb128 0x20
 9281 18d9 F6030000 		.4byte	0x3f6
 9282 18dd 58220000 		.4byte	.LLST188
 9283 18e1 23       		.uleb128 0x23
 9284 18e2 0A010000 		.4byte	.LBB212
 9285 18e6 6C000000 		.4byte	.LBE212-.LBB212
 9286 18ea 25       		.uleb128 0x25
 9287 18eb 0B040000 		.4byte	0x40b
ARM GAS  C:\Users\rdn\AppData\Local\Temp\cc5zc0m9.s 			page 195


 9288 18ef 6B220000 		.4byte	.LLST189
 9289 18f3 25       		.uleb128 0x25
 9290 18f4 15040000 		.4byte	0x415
 9291 18f8 7E220000 		.4byte	.LLST190
 9292 18fc 25       		.uleb128 0x25
 9293 18fd 1F040000 		.4byte	0x41f
 9294 1901 96220000 		.4byte	.LLST191
 9295 1905 25       		.uleb128 0x25
 9296 1906 29040000 		.4byte	0x429
 9297 190a AE220000 		.4byte	.LLST192
 9298 190e 25       		.uleb128 0x25
 9299 190f 33040000 		.4byte	0x433
 9300 1913 C6220000 		.4byte	.LLST193
 9301 1917 00       		.byte	0
 9302 1918 00       		.byte	0
 9303 1919 00       		.byte	0
 9304 191a 00       		.byte	0
 9305 191b 00       		.byte	0
 9306 191c 00       		.byte	0
 9307 191d 00       		.byte	0
 9308 191e 1C       		.uleb128 0x1c
 9309 191f 24040000 		.4byte	.LASF103
 9310 1923 01       		.byte	0x1
 9311 1924 6F01     		.2byte	0x16f
 9312 1926 00000000 		.4byte	.LFB27
 9313 192a AC010000 		.4byte	.LFE27-.LFB27
 9314 192e 01       		.uleb128 0x1
 9315 192f 9C       		.byte	0x9c
 9316 1930 681A0000 		.4byte	0x1a68
 9317 1934 1D       		.uleb128 0x1d
 9318 1935 36040000 		.4byte	.LASF37
 9319 1939 01       		.byte	0x1
 9320 193a 7001     		.2byte	0x170
 9321 193c 3E040000 		.4byte	0x43e
 9322 1940 01       		.uleb128 0x1
 9323 1941 50       		.byte	0x50
 9324 1942 1E       		.uleb128 0x1e
 9325 1943 7800     		.ascii	"x\000"
 9326 1945 01       		.byte	0x1
 9327 1946 7001     		.2byte	0x170
 9328 1948 A7040000 		.4byte	0x4a7
 9329 194c DE220000 		.4byte	.LLST194
 9330 1950 1E       		.uleb128 0x1e
 9331 1951 7900     		.ascii	"y\000"
 9332 1953 01       		.byte	0x1
 9333 1954 7001     		.2byte	0x170
 9334 1956 26060000 		.4byte	0x626
 9335 195a 09230000 		.4byte	.LLST195
 9336 195e 1E       		.uleb128 0x1e
 9337 195f 6E00     		.ascii	"n\000"
 9338 1961 01       		.byte	0x1
 9339 1962 7001     		.2byte	0x170
 9340 1964 90000000 		.4byte	0x90
 9341 1968 2A230000 		.4byte	.LLST196
 9342 196c 1F       		.uleb128 0x1f
 9343 196d 75070000 		.4byte	0x775
 9344 1971 0A000000 		.4byte	.LBB221
ARM GAS  C:\Users\rdn\AppData\Local\Temp\cc5zc0m9.s 			page 196


 9345 1975 82010000 		.4byte	.LBE221-.LBB221
 9346 1979 01       		.byte	0x1
 9347 197a 7201     		.2byte	0x172
 9348 197c 20       		.uleb128 0x20
 9349 197d B6070000 		.4byte	0x7b6
 9350 1981 48230000 		.4byte	.LLST197
 9351 1985 20       		.uleb128 0x20
 9352 1986 AC070000 		.4byte	0x7ac
 9353 198a 66230000 		.4byte	.LLST198
 9354 198e 20       		.uleb128 0x20
 9355 198f A2070000 		.4byte	0x7a2
 9356 1993 91230000 		.4byte	.LLST199
 9357 1997 21       		.uleb128 0x21
 9358 1998 96070000 		.4byte	0x796
 9359 199c 01       		.uleb128 0x1
 9360 199d 50       		.byte	0x50
 9361 199e 21       		.uleb128 0x21
 9362 199f 8C070000 		.4byte	0x78c
 9363 19a3 06       		.uleb128 0x6
 9364 19a4 03       		.byte	0x3
 9365 19a5 40060000 		.4byte	h_48k_12k8_q15
 9366 19a9 9F       		.byte	0x9f
 9367 19aa 22       		.uleb128 0x22
 9368 19ab 82070000 		.4byte	0x782
 9369 19af 04       		.byte	0x4
 9370 19b0 23       		.uleb128 0x23
 9371 19b1 0A000000 		.4byte	.LBB222
 9372 19b5 82010000 		.4byte	.LBE222-.LBB222
 9373 19b9 24       		.uleb128 0x24
 9374 19ba C0070000 		.4byte	0x7c0
 9375 19be 3C       		.byte	0x3c
 9376 19bf 23       		.uleb128 0x23
 9377 19c0 0E000000 		.4byte	.LBB223
 9378 19c4 7E010000 		.4byte	.LBE223-.LBB223
 9379 19c8 25       		.uleb128 0x25
 9380 19c9 CB070000 		.4byte	0x7cb
 9381 19cd D4230000 		.4byte	.LLST200
 9382 19d1 26       		.uleb128 0x26
 9383 19d2 40020000 		.4byte	.Ldebug_ranges0+0x240
 9384 19d6 25       		.uleb128 0x25
 9385 19d7 D6070000 		.4byte	0x7d6
 9386 19db F3230000 		.4byte	.LLST201
 9387 19df 25       		.uleb128 0x25
 9388 19e0 E1070000 		.4byte	0x7e1
 9389 19e4 D4240000 		.4byte	.LLST202
 9390 19e8 25       		.uleb128 0x25
 9391 19e9 EC070000 		.4byte	0x7ec
 9392 19ed B5250000 		.4byte	.LLST203
 9393 19f1 27       		.uleb128 0x27
 9394 19f2 F7070000 		.4byte	0x7f7
 9395 19f6 28       		.uleb128 0x28
 9396 19f7 58020000 		.4byte	.Ldebug_ranges0+0x258
 9397 19fb 091A0000 		.4byte	0x1a09
 9398 19ff 25       		.uleb128 0x25
 9399 1a00 03080000 		.4byte	0x803
 9400 1a04 00260000 		.4byte	.LLST204
 9401 1a08 00       		.byte	0
ARM GAS  C:\Users\rdn\AppData\Local\Temp\cc5zc0m9.s 			page 197


 9402 1a09 1F       		.uleb128 0x1f
 9403 1a0a E6030000 		.4byte	0x3e6
 9404 1a0e 0A010000 		.4byte	.LBB227
 9405 1a12 6C000000 		.4byte	.LBE227-.LBB227
 9406 1a16 01       		.byte	0x1
 9407 1a17 2001     		.2byte	0x120
 9408 1a19 20       		.uleb128 0x20
 9409 1a1a 01040000 		.4byte	0x401
 9410 1a1e 1F260000 		.4byte	.LLST205
 9411 1a22 20       		.uleb128 0x20
 9412 1a23 F6030000 		.4byte	0x3f6
 9413 1a27 32260000 		.4byte	.LLST206
 9414 1a2b 23       		.uleb128 0x23
 9415 1a2c 0A010000 		.4byte	.LBB228
 9416 1a30 6C000000 		.4byte	.LBE228-.LBB228
 9417 1a34 25       		.uleb128 0x25
 9418 1a35 0B040000 		.4byte	0x40b
 9419 1a39 45260000 		.4byte	.LLST207
 9420 1a3d 25       		.uleb128 0x25
 9421 1a3e 15040000 		.4byte	0x415
 9422 1a42 58260000 		.4byte	.LLST208
 9423 1a46 25       		.uleb128 0x25
 9424 1a47 1F040000 		.4byte	0x41f
 9425 1a4b 70260000 		.4byte	.LLST209
 9426 1a4f 25       		.uleb128 0x25
 9427 1a50 29040000 		.4byte	0x429
 9428 1a54 88260000 		.4byte	.LLST210
 9429 1a58 25       		.uleb128 0x25
 9430 1a59 33040000 		.4byte	0x433
 9431 1a5d A0260000 		.4byte	.LLST211
 9432 1a61 00       		.byte	0
 9433 1a62 00       		.byte	0
 9434 1a63 00       		.byte	0
 9435 1a64 00       		.byte	0
 9436 1a65 00       		.byte	0
 9437 1a66 00       		.byte	0
 9438 1a67 00       		.byte	0
 9439 1a68 1C       		.uleb128 0x1c
 9440 1a69 DD060000 		.4byte	.LASF104
 9441 1a6d 01       		.byte	0x1
 9442 1a6e 4303     		.2byte	0x343
 9443 1a70 00000000 		.4byte	.LFB43
 9444 1a74 F0010000 		.4byte	.LFE43-.LFB43
 9445 1a78 01       		.uleb128 0x1
 9446 1a79 9C       		.byte	0x9c
 9447 1a7a 3F1C0000 		.4byte	0x1c3f
 9448 1a7e 2E       		.uleb128 0x2e
 9449 1a7f 786800   		.ascii	"xh\000"
 9450 1a82 01       		.byte	0x1
 9451 1a83 4303     		.2byte	0x343
 9452 1a85 DB030000 		.4byte	0x3db
 9453 1a89 01       		.uleb128 0x1
 9454 1a8a 50       		.byte	0x50
 9455 1a8b 1E       		.uleb128 0x1e
 9456 1a8c 6E6800   		.ascii	"nh\000"
 9457 1a8f 01       		.byte	0x1
 9458 1a90 4303     		.2byte	0x343
ARM GAS  C:\Users\rdn\AppData\Local\Temp\cc5zc0m9.s 			page 198


 9459 1a92 90000000 		.4byte	0x90
 9460 1a96 B8260000 		.4byte	.LLST212
 9461 1a9a 1E       		.uleb128 0x1e
 9462 1a9b 6C616700 		.ascii	"lag\000"
 9463 1a9f 01       		.byte	0x1
 9464 1aa0 4303     		.2byte	0x343
 9465 1aa2 90000000 		.4byte	0x90
 9466 1aa6 FB260000 		.4byte	.LLST213
 9467 1aaa 1E       		.uleb128 0x1e
 9468 1aab 783000   		.ascii	"x0\000"
 9469 1aae 01       		.byte	0x1
 9470 1aaf 4403     		.2byte	0x344
 9471 1ab1 DB030000 		.4byte	0x3db
 9472 1ab5 29270000 		.4byte	.LLST214
 9473 1ab9 1E       		.uleb128 0x1e
 9474 1aba 7800     		.ascii	"x\000"
 9475 1abc 01       		.byte	0x1
 9476 1abd 4403     		.2byte	0x344
 9477 1abf A50A0000 		.4byte	0xaa5
 9478 1ac3 4A270000 		.4byte	.LLST215
 9479 1ac7 1E       		.uleb128 0x1e
 9480 1ac8 6E00     		.ascii	"n\000"
 9481 1aca 01       		.byte	0x1
 9482 1acb 4403     		.2byte	0x344
 9483 1acd 90000000 		.4byte	0x90
 9484 1ad1 6A270000 		.4byte	.LLST216
 9485 1ad5 1E       		.uleb128 0x1e
 9486 1ad6 6300     		.ascii	"c\000"
 9487 1ad8 01       		.byte	0x1
 9488 1ad9 4403     		.2byte	0x344
 9489 1adb DB030000 		.4byte	0x3db
 9490 1adf 8A270000 		.4byte	.LLST217
 9491 1ae3 33       		.uleb128 0x33
 9492 1ae4 8A040000 		.4byte	.LASF93
 9493 1ae8 01       		.byte	0x1
 9494 1ae9 4403     		.2byte	0x344
 9495 1aeb 90000000 		.4byte	0x90
 9496 1aef AA270000 		.4byte	.LLST218
 9497 1af3 1F       		.uleb128 0x1f
 9498 1af4 BC0E0000 		.4byte	0xebc
 9499 1af8 10000000 		.4byte	.LBB241
 9500 1afc D0010000 		.4byte	.LBE241-.LBB241
 9501 1b00 01       		.byte	0x1
 9502 1b01 4603     		.2byte	0x346
 9503 1b03 20       		.uleb128 0x20
 9504 1b04 1E0F0000 		.4byte	0xf1e
 9505 1b08 CA270000 		.4byte	.LLST219
 9506 1b0c 22       		.uleb128 0x22
 9507 1b0d 140F0000 		.4byte	0xf14
 9508 1b11 0C       		.byte	0xc
 9509 1b12 20       		.uleb128 0x20
 9510 1b13 0A0F0000 		.4byte	0xf0a
 9511 1b17 F5270000 		.4byte	.LLST220
 9512 1b1b 21       		.uleb128 0x21
 9513 1b1c 000F0000 		.4byte	0xf00
 9514 1b20 01       		.uleb128 0x1
 9515 1b21 5E       		.byte	0x5e
ARM GAS  C:\Users\rdn\AppData\Local\Temp\cc5zc0m9.s 			page 199


 9516 1b22 20       		.uleb128 0x20
 9517 1b23 F60E0000 		.4byte	0xef6
 9518 1b27 14280000 		.4byte	.LLST221
 9519 1b2b 20       		.uleb128 0x20
 9520 1b2c EB0E0000 		.4byte	0xeeb
 9521 1b30 3F280000 		.4byte	.LLST222
 9522 1b34 20       		.uleb128 0x20
 9523 1b35 DF0E0000 		.4byte	0xedf
 9524 1b39 68280000 		.4byte	.LLST223
 9525 1b3d 20       		.uleb128 0x20
 9526 1b3e D40E0000 		.4byte	0xed4
 9527 1b42 B1280000 		.4byte	.LLST224
 9528 1b46 21       		.uleb128 0x21
 9529 1b47 C90E0000 		.4byte	0xec9
 9530 1b4b 01       		.uleb128 0x1
 9531 1b4c 50       		.byte	0x50
 9532 1b4d 23       		.uleb128 0x23
 9533 1b4e 10000000 		.4byte	.LBB242
 9534 1b52 D0010000 		.4byte	.LBE242-.LBB242
 9535 1b56 39       		.uleb128 0x39
 9536 1b57 2A0F0000 		.4byte	0xf2a
 9537 1b5b 02       		.uleb128 0x2
 9538 1b5c 90       		.byte	0x90
 9539 1b5d 4B       		.uleb128 0x4b
 9540 1b5e 39       		.uleb128 0x39
 9541 1b5f 340F0000 		.4byte	0xf34
 9542 1b63 02       		.uleb128 0x2
 9543 1b64 90       		.byte	0x90
 9544 1b65 4A       		.uleb128 0x4a
 9545 1b66 39       		.uleb128 0x39
 9546 1b67 400F0000 		.4byte	0xf40
 9547 1b6b 03       		.uleb128 0x3
 9548 1b6c 91       		.byte	0x91
 9549 1b6d 807F     		.sleb128 -128
 9550 1b6f 25       		.uleb128 0x25
 9551 1b70 4A0F0000 		.4byte	0xf4a
 9552 1b74 F4280000 		.4byte	.LLST225
 9553 1b78 39       		.uleb128 0x39
 9554 1b79 540F0000 		.4byte	0xf54
 9555 1b7d 01       		.uleb128 0x1
 9556 1b7e 51       		.byte	0x51
 9557 1b7f 3A       		.uleb128 0x3a
 9558 1b80 5E000000 		.4byte	.LBB243
 9559 1b84 8C000000 		.4byte	.LBE243-.LBB243
 9560 1b88 D81B0000 		.4byte	0x1bd8
 9561 1b8c 25       		.uleb128 0x25
 9562 1b8d 650F0000 		.4byte	0xf65
 9563 1b91 37290000 		.4byte	.LLST226
 9564 1b95 26       		.uleb128 0x26
 9565 1b96 70020000 		.4byte	.Ldebug_ranges0+0x270
 9566 1b9a 25       		.uleb128 0x25
 9567 1b9b 700F0000 		.4byte	0xf70
 9568 1b9f 56290000 		.4byte	.LLST227
 9569 1ba3 25       		.uleb128 0x25
 9570 1ba4 7B0F0000 		.4byte	0xf7b
 9571 1ba8 6A290000 		.4byte	.LLST228
 9572 1bac 3A       		.uleb128 0x3a
ARM GAS  C:\Users\rdn\AppData\Local\Temp\cc5zc0m9.s 			page 200


 9573 1bad 86000000 		.4byte	.LBB245
 9574 1bb1 30000000 		.4byte	.LBE245-.LBB245
 9575 1bb5 C31B0000 		.4byte	0x1bc3
 9576 1bb9 25       		.uleb128 0x25
 9577 1bba 8B0F0000 		.4byte	0xf8b
 9578 1bbe 7E290000 		.4byte	.LLST229
 9579 1bc2 00       		.byte	0
 9580 1bc3 23       		.uleb128 0x23
 9581 1bc4 B6000000 		.4byte	.LBB246
 9582 1bc8 2C000000 		.4byte	.LBE246-.LBB246
 9583 1bcc 25       		.uleb128 0x25
 9584 1bcd 970F0000 		.4byte	0xf97
 9585 1bd1 9D290000 		.4byte	.LLST230
 9586 1bd5 00       		.byte	0
 9587 1bd6 00       		.byte	0
 9588 1bd7 00       		.byte	0
 9589 1bd8 23       		.uleb128 0x23
 9590 1bd9 EE000000 		.4byte	.LBB248
 9591 1bdd F2000000 		.4byte	.LBE248-.LBB248
 9592 1be1 25       		.uleb128 0x25
 9593 1be2 A50F0000 		.4byte	0xfa5
 9594 1be6 B0290000 		.4byte	.LLST231
 9595 1bea 26       		.uleb128 0x26
 9596 1beb 88020000 		.4byte	.Ldebug_ranges0+0x288
 9597 1bef 25       		.uleb128 0x25
 9598 1bf0 B00F0000 		.4byte	0xfb0
 9599 1bf4 CF290000 		.4byte	.LLST232
 9600 1bf8 26       		.uleb128 0x26
 9601 1bf9 A0020000 		.4byte	.Ldebug_ranges0+0x2a0
 9602 1bfd 25       		.uleb128 0x25
 9603 1bfe BB0F0000 		.4byte	0xfbb
 9604 1c02 ED290000 		.4byte	.LLST233
 9605 1c06 25       		.uleb128 0x25
 9606 1c07 C60F0000 		.4byte	0xfc6
 9607 1c0b 012A0000 		.4byte	.LLST234
 9608 1c0f 3A       		.uleb128 0x3a
 9609 1c10 04010000 		.4byte	.LBB251
 9610 1c14 58000000 		.4byte	.LBE251-.LBB251
 9611 1c18 261C0000 		.4byte	0x1c26
 9612 1c1c 25       		.uleb128 0x25
 9613 1c1d D60F0000 		.4byte	0xfd6
 9614 1c21 212A0000 		.4byte	.LLST235
 9615 1c25 00       		.byte	0
 9616 1c26 23       		.uleb128 0x23
 9617 1c27 5C010000 		.4byte	.LBB252
 9618 1c2b 50000000 		.4byte	.LBE252-.LBB252
 9619 1c2f 25       		.uleb128 0x25
 9620 1c30 E20F0000 		.4byte	0xfe2
 9621 1c34 402A0000 		.4byte	.LLST236
 9622 1c38 00       		.byte	0
 9623 1c39 00       		.byte	0
 9624 1c3a 00       		.byte	0
 9625 1c3b 00       		.byte	0
 9626 1c3c 00       		.byte	0
 9627 1c3d 00       		.byte	0
 9628 1c3e 00       		.byte	0
 9629 1c3f 1C       		.uleb128 0x1c
ARM GAS  C:\Users\rdn\AppData\Local\Temp\cc5zc0m9.s 			page 201


 9630 1c40 81050000 		.4byte	.LASF105
 9631 1c44 01       		.byte	0x1
 9632 1c45 3103     		.2byte	0x331
 9633 1c47 00000000 		.4byte	.LFB40
 9634 1c4b D0010000 		.4byte	.LFE40-.LFB40
 9635 1c4f 01       		.uleb128 0x1
 9636 1c50 9C       		.byte	0x9c
 9637 1c51 1A1E0000 		.4byte	0x1e1a
 9638 1c55 1E       		.uleb128 0x1e
 9639 1c56 786800   		.ascii	"xh\000"
 9640 1c59 01       		.byte	0x1
 9641 1c5a 3103     		.2byte	0x331
 9642 1c5c DB030000 		.4byte	0x3db
 9643 1c60 532A0000 		.4byte	.LLST237
 9644 1c64 1E       		.uleb128 0x1e
 9645 1c65 6E6800   		.ascii	"nh\000"
 9646 1c68 01       		.byte	0x1
 9647 1c69 3103     		.2byte	0x331
 9648 1c6b 90000000 		.4byte	0x90
 9649 1c6f 7F2A0000 		.4byte	.LLST238
 9650 1c73 1E       		.uleb128 0x1e
 9651 1c74 6C616700 		.ascii	"lag\000"
 9652 1c78 01       		.byte	0x1
 9653 1c79 3103     		.2byte	0x331
 9654 1c7b 90000000 		.4byte	0x90
 9655 1c7f C22A0000 		.4byte	.LLST239
 9656 1c83 1E       		.uleb128 0x1e
 9657 1c84 783000   		.ascii	"x0\000"
 9658 1c87 01       		.byte	0x1
 9659 1c88 3203     		.2byte	0x332
 9660 1c8a DB030000 		.4byte	0x3db
 9661 1c8e F02A0000 		.4byte	.LLST240
 9662 1c92 1E       		.uleb128 0x1e
 9663 1c93 7800     		.ascii	"x\000"
 9664 1c95 01       		.byte	0x1
 9665 1c96 3203     		.2byte	0x332
 9666 1c98 A50A0000 		.4byte	0xaa5
 9667 1c9c 112B0000 		.4byte	.LLST241
 9668 1ca0 1E       		.uleb128 0x1e
 9669 1ca1 6E00     		.ascii	"n\000"
 9670 1ca3 01       		.byte	0x1
 9671 1ca4 3203     		.2byte	0x332
 9672 1ca6 90000000 		.4byte	0x90
 9673 1caa 312B0000 		.4byte	.LLST242
 9674 1cae 1E       		.uleb128 0x1e
 9675 1caf 6300     		.ascii	"c\000"
 9676 1cb1 01       		.byte	0x1
 9677 1cb2 3203     		.2byte	0x332
 9678 1cb4 DB030000 		.4byte	0x3db
 9679 1cb8 512B0000 		.4byte	.LLST243
 9680 1cbc 33       		.uleb128 0x33
 9681 1cbd 8A040000 		.4byte	.LASF93
 9682 1cc1 01       		.byte	0x1
 9683 1cc2 3203     		.2byte	0x332
 9684 1cc4 90000000 		.4byte	0x90
 9685 1cc8 712B0000 		.4byte	.LLST244
 9686 1ccc 1F       		.uleb128 0x1f
ARM GAS  C:\Users\rdn\AppData\Local\Temp\cc5zc0m9.s 			page 202


 9687 1ccd BC0E0000 		.4byte	0xebc
 9688 1cd1 12000000 		.4byte	.LBB266
 9689 1cd5 AE010000 		.4byte	.LBE266-.LBB266
 9690 1cd9 01       		.byte	0x1
 9691 1cda 3403     		.2byte	0x334
 9692 1cdc 20       		.uleb128 0x20
 9693 1cdd 1E0F0000 		.4byte	0xf1e
 9694 1ce1 912B0000 		.4byte	.LLST245
 9695 1ce5 22       		.uleb128 0x22
 9696 1ce6 140F0000 		.4byte	0xf14
 9697 1cea 04       		.byte	0x4
 9698 1ceb 20       		.uleb128 0x20
 9699 1cec 0A0F0000 		.4byte	0xf0a
 9700 1cf0 BC2B0000 		.4byte	.LLST246
 9701 1cf4 21       		.uleb128 0x21
 9702 1cf5 000F0000 		.4byte	0xf00
 9703 1cf9 01       		.uleb128 0x1
 9704 1cfa 5E       		.byte	0x5e
 9705 1cfb 20       		.uleb128 0x20
 9706 1cfc F60E0000 		.4byte	0xef6
 9707 1d00 DB2B0000 		.4byte	.LLST247
 9708 1d04 20       		.uleb128 0x20
 9709 1d05 EB0E0000 		.4byte	0xeeb
 9710 1d09 062C0000 		.4byte	.LLST248
 9711 1d0d 20       		.uleb128 0x20
 9712 1d0e DF0E0000 		.4byte	0xedf
 9713 1d12 2F2C0000 		.4byte	.LLST249
 9714 1d16 20       		.uleb128 0x20
 9715 1d17 D40E0000 		.4byte	0xed4
 9716 1d1b 782C0000 		.4byte	.LLST250
 9717 1d1f 20       		.uleb128 0x20
 9718 1d20 C90E0000 		.4byte	0xec9
 9719 1d24 BB2C0000 		.4byte	.LLST251
 9720 1d28 23       		.uleb128 0x23
 9721 1d29 12000000 		.4byte	.LBB267
 9722 1d2d AE010000 		.4byte	.LBE267-.LBB267
 9723 1d31 39       		.uleb128 0x39
 9724 1d32 2A0F0000 		.4byte	0xf2a
 9725 1d36 02       		.uleb128 0x2
 9726 1d37 90       		.byte	0x90
 9727 1d38 4B       		.uleb128 0x4b
 9728 1d39 39       		.uleb128 0x39
 9729 1d3a 340F0000 		.4byte	0xf34
 9730 1d3e 02       		.uleb128 0x2
 9731 1d3f 90       		.byte	0x90
 9732 1d40 4A       		.uleb128 0x4a
 9733 1d41 39       		.uleb128 0x39
 9734 1d42 400F0000 		.4byte	0xf40
 9735 1d46 03       		.uleb128 0x3
 9736 1d47 91       		.byte	0x91
 9737 1d48 807F     		.sleb128 -128
 9738 1d4a 25       		.uleb128 0x25
 9739 1d4b 4A0F0000 		.4byte	0xf4a
 9740 1d4f E72C0000 		.4byte	.LLST252
 9741 1d53 39       		.uleb128 0x39
 9742 1d54 540F0000 		.4byte	0xf54
 9743 1d58 01       		.uleb128 0x1
ARM GAS  C:\Users\rdn\AppData\Local\Temp\cc5zc0m9.s 			page 203


 9744 1d59 51       		.byte	0x51
 9745 1d5a 3A       		.uleb128 0x3a
 9746 1d5b 62000000 		.4byte	.LBB268
 9747 1d5f 88000000 		.4byte	.LBE268-.LBB268
 9748 1d63 B31D0000 		.4byte	0x1db3
 9749 1d67 25       		.uleb128 0x25
 9750 1d68 650F0000 		.4byte	0xf65
 9751 1d6c 2A2D0000 		.4byte	.LLST253
 9752 1d70 26       		.uleb128 0x26
 9753 1d71 B8020000 		.4byte	.Ldebug_ranges0+0x2b8
 9754 1d75 25       		.uleb128 0x25
 9755 1d76 700F0000 		.4byte	0xf70
 9756 1d7a 492D0000 		.4byte	.LLST254
 9757 1d7e 25       		.uleb128 0x25
 9758 1d7f 7B0F0000 		.4byte	0xf7b
 9759 1d83 5D2D0000 		.4byte	.LLST255
 9760 1d87 3A       		.uleb128 0x3a
 9761 1d88 8A000000 		.4byte	.LBB270
 9762 1d8c 2E000000 		.4byte	.LBE270-.LBB270
 9763 1d90 9E1D0000 		.4byte	0x1d9e
 9764 1d94 25       		.uleb128 0x25
 9765 1d95 8B0F0000 		.4byte	0xf8b
 9766 1d99 712D0000 		.4byte	.LLST256
 9767 1d9d 00       		.byte	0
 9768 1d9e 23       		.uleb128 0x23
 9769 1d9f B8000000 		.4byte	.LBB271
 9770 1da3 2A000000 		.4byte	.LBE271-.LBB271
 9771 1da7 25       		.uleb128 0x25
 9772 1da8 970F0000 		.4byte	0xf97
 9773 1dac 902D0000 		.4byte	.LLST257
 9774 1db0 00       		.byte	0
 9775 1db1 00       		.byte	0
 9776 1db2 00       		.byte	0
 9777 1db3 23       		.uleb128 0x23
 9778 1db4 EE000000 		.4byte	.LBB273
 9779 1db8 D2000000 		.4byte	.LBE273-.LBB273
 9780 1dbc 25       		.uleb128 0x25
 9781 1dbd A50F0000 		.4byte	0xfa5
 9782 1dc1 A32D0000 		.4byte	.LLST258
 9783 1dc5 26       		.uleb128 0x26
 9784 1dc6 D0020000 		.4byte	.Ldebug_ranges0+0x2d0
 9785 1dca 25       		.uleb128 0x25
 9786 1dcb B00F0000 		.4byte	0xfb0
 9787 1dcf C22D0000 		.4byte	.LLST259
 9788 1dd3 26       		.uleb128 0x26
 9789 1dd4 E8020000 		.4byte	.Ldebug_ranges0+0x2e8
 9790 1dd8 25       		.uleb128 0x25
 9791 1dd9 BB0F0000 		.4byte	0xfbb
 9792 1ddd E02D0000 		.4byte	.LLST260
 9793 1de1 25       		.uleb128 0x25
 9794 1de2 C60F0000 		.4byte	0xfc6
 9795 1de6 F42D0000 		.4byte	.LLST261
 9796 1dea 3A       		.uleb128 0x3a
 9797 1deb 04010000 		.4byte	.LBB276
 9798 1def 48000000 		.4byte	.LBE276-.LBB276
 9799 1df3 011E0000 		.4byte	0x1e01
 9800 1df7 25       		.uleb128 0x25
ARM GAS  C:\Users\rdn\AppData\Local\Temp\cc5zc0m9.s 			page 204


 9801 1df8 D60F0000 		.4byte	0xfd6
 9802 1dfc 142E0000 		.4byte	.LLST262
 9803 1e00 00       		.byte	0
 9804 1e01 23       		.uleb128 0x23
 9805 1e02 4C010000 		.4byte	.LBB277
 9806 1e06 40000000 		.4byte	.LBE277-.LBB277
 9807 1e0a 25       		.uleb128 0x25
 9808 1e0b E20F0000 		.4byte	0xfe2
 9809 1e0f 332E0000 		.4byte	.LLST263
 9810 1e13 00       		.byte	0
 9811 1e14 00       		.byte	0
 9812 1e15 00       		.byte	0
 9813 1e16 00       		.byte	0
 9814 1e17 00       		.byte	0
 9815 1e18 00       		.byte	0
 9816 1e19 00       		.byte	0
 9817 1e1a 1C       		.uleb128 0x1c
 9818 1e1b 8E050000 		.4byte	.LASF106
 9819 1e1f 01       		.byte	0x1
 9820 1e20 3703     		.2byte	0x337
 9821 1e22 00000000 		.4byte	.LFB41
 9822 1e26 E8010000 		.4byte	.LFE41-.LFB41
 9823 1e2a 01       		.uleb128 0x1
 9824 1e2b 9C       		.byte	0x9c
 9825 1e2c F11F0000 		.4byte	0x1ff1
 9826 1e30 2E       		.uleb128 0x2e
 9827 1e31 786800   		.ascii	"xh\000"
 9828 1e34 01       		.byte	0x1
 9829 1e35 3703     		.2byte	0x337
 9830 1e37 DB030000 		.4byte	0x3db
 9831 1e3b 01       		.uleb128 0x1
 9832 1e3c 50       		.byte	0x50
 9833 1e3d 1E       		.uleb128 0x1e
 9834 1e3e 6E6800   		.ascii	"nh\000"
 9835 1e41 01       		.byte	0x1
 9836 1e42 3703     		.2byte	0x337
 9837 1e44 90000000 		.4byte	0x90
 9838 1e48 462E0000 		.4byte	.LLST264
 9839 1e4c 1E       		.uleb128 0x1e
 9840 1e4d 6C616700 		.ascii	"lag\000"
 9841 1e51 01       		.byte	0x1
 9842 1e52 3703     		.2byte	0x337
 9843 1e54 90000000 		.4byte	0x90
 9844 1e58 892E0000 		.4byte	.LLST265
 9845 1e5c 1E       		.uleb128 0x1e
 9846 1e5d 783000   		.ascii	"x0\000"
 9847 1e60 01       		.byte	0x1
 9848 1e61 3803     		.2byte	0x338
 9849 1e63 DB030000 		.4byte	0x3db
 9850 1e67 B72E0000 		.4byte	.LLST266
 9851 1e6b 1E       		.uleb128 0x1e
 9852 1e6c 7800     		.ascii	"x\000"
 9853 1e6e 01       		.byte	0x1
 9854 1e6f 3803     		.2byte	0x338
 9855 1e71 A50A0000 		.4byte	0xaa5
 9856 1e75 D82E0000 		.4byte	.LLST267
 9857 1e79 1E       		.uleb128 0x1e
ARM GAS  C:\Users\rdn\AppData\Local\Temp\cc5zc0m9.s 			page 205


 9858 1e7a 6E00     		.ascii	"n\000"
 9859 1e7c 01       		.byte	0x1
 9860 1e7d 3803     		.2byte	0x338
 9861 1e7f 90000000 		.4byte	0x90
 9862 1e83 F82E0000 		.4byte	.LLST268
 9863 1e87 1E       		.uleb128 0x1e
 9864 1e88 6300     		.ascii	"c\000"
 9865 1e8a 01       		.byte	0x1
 9866 1e8b 3803     		.2byte	0x338
 9867 1e8d DB030000 		.4byte	0x3db
 9868 1e91 182F0000 		.4byte	.LLST269
 9869 1e95 33       		.uleb128 0x33
 9870 1e96 8A040000 		.4byte	.LASF93
 9871 1e9a 01       		.byte	0x1
 9872 1e9b 3803     		.2byte	0x338
 9873 1e9d 90000000 		.4byte	0x90
 9874 1ea1 382F0000 		.4byte	.LLST270
 9875 1ea5 1F       		.uleb128 0x1f
 9876 1ea6 BC0E0000 		.4byte	0xebc
 9877 1eaa 10000000 		.4byte	.LBB291
 9878 1eae C8010000 		.4byte	.LBE291-.LBB291
 9879 1eb2 01       		.byte	0x1
 9880 1eb3 3A03     		.2byte	0x33a
 9881 1eb5 20       		.uleb128 0x20
 9882 1eb6 1E0F0000 		.4byte	0xf1e
 9883 1eba 582F0000 		.4byte	.LLST271
 9884 1ebe 22       		.uleb128 0x22
 9885 1ebf 140F0000 		.4byte	0xf14
 9886 1ec3 06       		.byte	0x6
 9887 1ec4 20       		.uleb128 0x20
 9888 1ec5 0A0F0000 		.4byte	0xf0a
 9889 1ec9 832F0000 		.4byte	.LLST272
 9890 1ecd 21       		.uleb128 0x21
 9891 1ece 000F0000 		.4byte	0xf00
 9892 1ed2 01       		.uleb128 0x1
 9893 1ed3 5E       		.byte	0x5e
 9894 1ed4 20       		.uleb128 0x20
 9895 1ed5 F60E0000 		.4byte	0xef6
 9896 1ed9 A22F0000 		.4byte	.LLST273
 9897 1edd 20       		.uleb128 0x20
 9898 1ede EB0E0000 		.4byte	0xeeb
 9899 1ee2 CD2F0000 		.4byte	.LLST274
 9900 1ee6 20       		.uleb128 0x20
 9901 1ee7 DF0E0000 		.4byte	0xedf
 9902 1eeb F62F0000 		.4byte	.LLST275
 9903 1eef 20       		.uleb128 0x20
 9904 1ef0 D40E0000 		.4byte	0xed4
 9905 1ef4 3F300000 		.4byte	.LLST276
 9906 1ef8 21       		.uleb128 0x21
 9907 1ef9 C90E0000 		.4byte	0xec9
 9908 1efd 01       		.uleb128 0x1
 9909 1efe 50       		.byte	0x50
 9910 1eff 23       		.uleb128 0x23
 9911 1f00 10000000 		.4byte	.LBB292
 9912 1f04 C8010000 		.4byte	.LBE292-.LBB292
 9913 1f08 39       		.uleb128 0x39
 9914 1f09 2A0F0000 		.4byte	0xf2a
ARM GAS  C:\Users\rdn\AppData\Local\Temp\cc5zc0m9.s 			page 206


 9915 1f0d 02       		.uleb128 0x2
 9916 1f0e 90       		.byte	0x90
 9917 1f0f 4B       		.uleb128 0x4b
 9918 1f10 39       		.uleb128 0x39
 9919 1f11 340F0000 		.4byte	0xf34
 9920 1f15 02       		.uleb128 0x2
 9921 1f16 90       		.byte	0x90
 9922 1f17 4A       		.uleb128 0x4a
 9923 1f18 39       		.uleb128 0x39
 9924 1f19 400F0000 		.4byte	0xf40
 9925 1f1d 03       		.uleb128 0x3
 9926 1f1e 91       		.byte	0x91
 9927 1f1f 807F     		.sleb128 -128
 9928 1f21 25       		.uleb128 0x25
 9929 1f22 4A0F0000 		.4byte	0xf4a
 9930 1f26 82300000 		.4byte	.LLST277
 9931 1f2a 39       		.uleb128 0x39
 9932 1f2b 540F0000 		.4byte	0xf54
 9933 1f2f 01       		.uleb128 0x1
 9934 1f30 51       		.byte	0x51
 9935 1f31 3A       		.uleb128 0x3a
 9936 1f32 5E000000 		.4byte	.LBB293
 9937 1f36 8C000000 		.4byte	.LBE293-.LBB293
 9938 1f3a 8A1F0000 		.4byte	0x1f8a
 9939 1f3e 25       		.uleb128 0x25
 9940 1f3f 650F0000 		.4byte	0xf65
 9941 1f43 C5300000 		.4byte	.LLST278
 9942 1f47 26       		.uleb128 0x26
 9943 1f48 00030000 		.4byte	.Ldebug_ranges0+0x300
 9944 1f4c 25       		.uleb128 0x25
 9945 1f4d 700F0000 		.4byte	0xf70
 9946 1f51 E4300000 		.4byte	.LLST279
 9947 1f55 25       		.uleb128 0x25
 9948 1f56 7B0F0000 		.4byte	0xf7b
 9949 1f5a F8300000 		.4byte	.LLST280
 9950 1f5e 3A       		.uleb128 0x3a
 9951 1f5f 86000000 		.4byte	.LBB295
 9952 1f63 30000000 		.4byte	.LBE295-.LBB295
 9953 1f67 751F0000 		.4byte	0x1f75
 9954 1f6b 25       		.uleb128 0x25
 9955 1f6c 8B0F0000 		.4byte	0xf8b
 9956 1f70 0C310000 		.4byte	.LLST281
 9957 1f74 00       		.byte	0
 9958 1f75 23       		.uleb128 0x23
 9959 1f76 B6000000 		.4byte	.LBB296
 9960 1f7a 2C000000 		.4byte	.LBE296-.LBB296
 9961 1f7e 25       		.uleb128 0x25
 9962 1f7f 970F0000 		.4byte	0xf97
 9963 1f83 2B310000 		.4byte	.LLST282
 9964 1f87 00       		.byte	0
 9965 1f88 00       		.byte	0
 9966 1f89 00       		.byte	0
 9967 1f8a 23       		.uleb128 0x23
 9968 1f8b EE000000 		.4byte	.LBB298
 9969 1f8f EA000000 		.4byte	.LBE298-.LBB298
 9970 1f93 25       		.uleb128 0x25
 9971 1f94 A50F0000 		.4byte	0xfa5
ARM GAS  C:\Users\rdn\AppData\Local\Temp\cc5zc0m9.s 			page 207


 9972 1f98 3E310000 		.4byte	.LLST283
 9973 1f9c 26       		.uleb128 0x26
 9974 1f9d 18030000 		.4byte	.Ldebug_ranges0+0x318
 9975 1fa1 25       		.uleb128 0x25
 9976 1fa2 B00F0000 		.4byte	0xfb0
 9977 1fa6 5D310000 		.4byte	.LLST284
 9978 1faa 26       		.uleb128 0x26
 9979 1fab 30030000 		.4byte	.Ldebug_ranges0+0x330
 9980 1faf 25       		.uleb128 0x25
 9981 1fb0 BB0F0000 		.4byte	0xfbb
 9982 1fb4 7B310000 		.4byte	.LLST285
 9983 1fb8 25       		.uleb128 0x25
 9984 1fb9 C60F0000 		.4byte	0xfc6
 9985 1fbd 8F310000 		.4byte	.LLST286
 9986 1fc1 3A       		.uleb128 0x3a
 9987 1fc2 04010000 		.4byte	.LBB301
 9988 1fc6 54000000 		.4byte	.LBE301-.LBB301
 9989 1fca D81F0000 		.4byte	0x1fd8
 9990 1fce 25       		.uleb128 0x25
 9991 1fcf D60F0000 		.4byte	0xfd6
 9992 1fd3 AF310000 		.4byte	.LLST287
 9993 1fd7 00       		.byte	0
 9994 1fd8 23       		.uleb128 0x23
 9995 1fd9 58010000 		.4byte	.LBB302
 9996 1fdd 4C000000 		.4byte	.LBE302-.LBB302
 9997 1fe1 25       		.uleb128 0x25
 9998 1fe2 E20F0000 		.4byte	0xfe2
 9999 1fe6 CE310000 		.4byte	.LLST288
 10000 1fea 00       		.byte	0
 10001 1feb 00       		.byte	0
 10002 1fec 00       		.byte	0
 10003 1fed 00       		.byte	0
 10004 1fee 00       		.byte	0
 10005 1fef 00       		.byte	0
 10006 1ff0 00       		.byte	0
 10007 1ff1 3F       		.uleb128 0x3f
 10008 1ff2 00060000 		.4byte	.LASF121
 10009 1ff6 01       		.byte	0x1
 10010 1ff7 9402     		.2byte	0x294
 10011 1ff9 BF010000 		.4byte	0x1bf
 10012 1ffd 00000000 		.4byte	.LFB38
 10013 2001 08030000 		.4byte	.LFE38-.LFB38
 10014 2005 01       		.uleb128 0x1
 10015 2006 9C       		.byte	0x9c
 10016 2007 84230000 		.4byte	0x2384
 10017 200b 1E       		.uleb128 0x1e
 10018 200c 647400   		.ascii	"dt\000"
 10019 200f 01       		.byte	0x1
 10020 2010 9502     		.2byte	0x295
 10021 2012 CA000000 		.4byte	0xca
 10022 2016 E1310000 		.4byte	.LLST289
 10023 201a 1E       		.uleb128 0x1e
 10024 201b 737200   		.ascii	"sr\000"
 10025 201e 01       		.byte	0x1
 10026 201f 9502     		.2byte	0x295
 10027 2021 F9000000 		.4byte	0xf9
 10028 2025 02320000 		.4byte	.LLST290
ARM GAS  C:\Users\rdn\AppData\Local\Temp\cc5zc0m9.s 			page 208


 10029 2029 33       		.uleb128 0x33
 10030 202a 2E030000 		.4byte	.LASF98
 10031 202e 01       		.byte	0x1
 10032 202f 9502     		.2byte	0x295
 10033 2031 2C150000 		.4byte	0x152c
 10034 2035 23320000 		.4byte	.LLST291
 10035 2039 1E       		.uleb128 0x1e
 10036 203a 7800     		.ascii	"x\000"
 10037 203c 01       		.byte	0x1
 10038 203d 9602     		.2byte	0x296
 10039 203f A7040000 		.4byte	0x4a7
 10040 2043 4F320000 		.4byte	.LLST292
 10041 2047 33       		.uleb128 0x33
 10042 2048 AF030000 		.4byte	.LASF107
 10043 204c 01       		.byte	0x1
 10044 204d 9602     		.2byte	0x296
 10045 204f 84230000 		.4byte	0x2384
 10046 2053 7B320000 		.4byte	.LLST293
 10047 2057 40       		.uleb128 0x40
 10048 2058 4E030000 		.4byte	.LASF108
 10049 205c 01       		.byte	0x1
 10050 205d 9A02     		.2byte	0x29a
 10051 205f 90000000 		.4byte	0x90
 10052 2063 8001     		.2byte	0x180
 10053 2065 31       		.uleb128 0x31
 10054 2066 EC010000 		.4byte	.LASF109
 10055 206a 01       		.byte	0x1
 10056 206b 9B02     		.2byte	0x29b
 10057 206d 90000000 		.4byte	0x90
 10058 2071 9B320000 		.4byte	.LLST294
 10059 2075 31       		.uleb128 0x31
 10060 2076 C5010000 		.4byte	.LASF38
 10061 207a 01       		.byte	0x1
 10062 207b A002     		.2byte	0x2a0
 10063 207d 26060000 		.4byte	0x626
 10064 2081 CC320000 		.4byte	.LLST295
 10065 2085 41       		.uleb128 0x41
 10066 2086 F7040000 		.4byte	.LASF110
 10067 208a 01       		.byte	0x1
 10068 208b A802     		.2byte	0x2a8
 10069 208d 90000000 		.4byte	0x90
 10070 2091 B2       		.byte	0xb2
 10071 2092 31       		.uleb128 0x31
 10072 2093 04070000 		.4byte	.LASF111
 10073 2097 01       		.byte	0x1
 10074 2098 A902     		.2byte	0x2a9
 10075 209a 90000000 		.4byte	0x90
 10076 209e 27330000 		.4byte	.LLST296
 10077 20a2 31       		.uleb128 0x31
 10078 20a3 02030000 		.4byte	.LASF39
 10079 20a7 01       		.byte	0x1
 10080 20a8 AE02     		.2byte	0x2ae
 10081 20aa 26060000 		.4byte	0x626
 10082 20ae 45330000 		.4byte	.LLST297
 10083 20b2 2D       		.uleb128 0x2d
 10084 20b3 746300   		.ascii	"tc\000"
 10085 20b6 01       		.byte	0x1
ARM GAS  C:\Users\rdn\AppData\Local\Temp\cc5zc0m9.s 			page 209


 10086 20b7 BB02     		.2byte	0x2bb
 10087 20b9 90000000 		.4byte	0x90
 10088 20bd 02       		.uleb128 0x2
 10089 20be 91       		.byte	0x91
 10090 20bf 4C       		.sleb128 -52
 10091 20c0 32       		.uleb128 0x32
 10092 20c1 90000000 		.4byte	.LASF36
 10093 20c5 01       		.byte	0x1
 10094 20c6 BB02     		.2byte	0x2bb
 10095 20c8 90000000 		.4byte	0x90
 10096 20cc 02       		.uleb128 0x2
 10097 20cd 91       		.byte	0x91
 10098 20ce 48       		.sleb128 -56
 10099 20cf 30       		.uleb128 0x30
 10100 20d0 6E6300   		.ascii	"nc\000"
 10101 20d3 01       		.byte	0x1
 10102 20d4 BC02     		.2byte	0x2bc
 10103 20d6 25000000 		.4byte	0x25
 10104 20da 58330000 		.4byte	.LLST298
 10105 20de 31       		.uleb128 0x31
 10106 20df 54020000 		.4byte	.LASF112
 10107 20e3 01       		.byte	0x1
 10108 20e4 BE02     		.2byte	0x2be
 10109 20e6 BF010000 		.4byte	0x1bf
 10110 20ea 98330000 		.4byte	.LLST299
 10111 20ee 3A       		.uleb128 0x3a
 10112 20ef BE000000 		.4byte	.LBB305
 10113 20f3 3E010000 		.4byte	.LBE305-.LBB305
 10114 20f7 A8220000 		.4byte	0x22a8
 10115 20fb 2D       		.uleb128 0x2d
 10116 20fc 7500     		.ascii	"u\000"
 10117 20fe 01       		.byte	0x1
 10118 20ff C102     		.2byte	0x2c1
 10119 2101 8A230000 		.4byte	0x238a
 10120 2105 03       		.uleb128 0x3
 10121 2106 91       		.byte	0x91
 10122 2107 C87B     		.sleb128 -568
 10123 2109 2D       		.uleb128 0x2d
 10124 210a 7600     		.ascii	"v\000"
 10125 210c 01       		.byte	0x1
 10126 210d C102     		.2byte	0x2c1
 10127 210f 8A230000 		.4byte	0x238a
 10128 2113 03       		.uleb128 0x3
 10129 2114 91       		.byte	0x91
 10130 2115 C87D     		.sleb128 -312
 10131 2117 42       		.uleb128 0x42
 10132 2118 49040000 		.4byte	0x449
 10133 211c F0000000 		.4byte	.LBB306
 10134 2120 48030000 		.4byte	.Ldebug_ranges0+0x348
 10135 2124 01       		.byte	0x1
 10136 2125 C802     		.2byte	0x2c8
 10137 2127 79210000 		.4byte	0x2179
 10138 212b 3D       		.uleb128 0x3d
 10139 212c 6E040000 		.4byte	0x46e
 10140 2130 20       		.uleb128 0x20
 10141 2131 64040000 		.4byte	0x464
 10142 2135 B6330000 		.4byte	.LLST300
ARM GAS  C:\Users\rdn\AppData\Local\Temp\cc5zc0m9.s 			page 210


 10143 2139 20       		.uleb128 0x20
 10144 213a 5A040000 		.4byte	0x45a
 10145 213e EF330000 		.4byte	.LLST301
 10146 2142 26       		.uleb128 0x26
 10147 2143 48030000 		.4byte	.Ldebug_ranges0+0x348
 10148 2147 25       		.uleb128 0x25
 10149 2148 78040000 		.4byte	0x478
 10150 214c 28340000 		.4byte	.LLST302
 10151 2150 25       		.uleb128 0x25
 10152 2151 82040000 		.4byte	0x482
 10153 2155 64340000 		.4byte	.LLST303
 10154 2159 26       		.uleb128 0x26
 10155 215a 68030000 		.4byte	.Ldebug_ranges0+0x368
 10156 215e 25       		.uleb128 0x25
 10157 215f 8F040000 		.4byte	0x48f
 10158 2163 77340000 		.4byte	.LLST304
 10159 2167 26       		.uleb128 0x26
 10160 2168 80030000 		.4byte	.Ldebug_ranges0+0x380
 10161 216c 25       		.uleb128 0x25
 10162 216d 9A040000 		.4byte	0x49a
 10163 2171 96340000 		.4byte	.LLST305
 10164 2175 00       		.byte	0
 10165 2176 00       		.byte	0
 10166 2177 00       		.byte	0
 10167 2178 00       		.byte	0
 10168 2179 42       		.uleb128 0x42
 10169 217a 49040000 		.4byte	0x449
 10170 217e 44010000 		.4byte	.LBB315
 10171 2182 98030000 		.4byte	.Ldebug_ranges0+0x398
 10172 2186 01       		.byte	0x1
 10173 2187 C802     		.2byte	0x2c8
 10174 2189 DB210000 		.4byte	0x21db
 10175 218d 3D       		.uleb128 0x3d
 10176 218e 6E040000 		.4byte	0x46e
 10177 2192 20       		.uleb128 0x20
 10178 2193 64040000 		.4byte	0x464
 10179 2197 B4340000 		.4byte	.LLST306
 10180 219b 20       		.uleb128 0x20
 10181 219c 5A040000 		.4byte	0x45a
 10182 21a0 ED340000 		.4byte	.LLST307
 10183 21a4 26       		.uleb128 0x26
 10184 21a5 98030000 		.4byte	.Ldebug_ranges0+0x398
 10185 21a9 25       		.uleb128 0x25
 10186 21aa 78040000 		.4byte	0x478
 10187 21ae 26350000 		.4byte	.LLST308
 10188 21b2 25       		.uleb128 0x25
 10189 21b3 82040000 		.4byte	0x482
 10190 21b7 4E350000 		.4byte	.LLST309
 10191 21bb 26       		.uleb128 0x26
 10192 21bc B8030000 		.4byte	.Ldebug_ranges0+0x3b8
 10193 21c0 25       		.uleb128 0x25
 10194 21c1 8F040000 		.4byte	0x48f
 10195 21c5 61350000 		.4byte	.LLST310
 10196 21c9 26       		.uleb128 0x26
 10197 21ca D0030000 		.4byte	.Ldebug_ranges0+0x3d0
 10198 21ce 25       		.uleb128 0x25
 10199 21cf 9A040000 		.4byte	0x49a
ARM GAS  C:\Users\rdn\AppData\Local\Temp\cc5zc0m9.s 			page 211


 10200 21d3 74350000 		.4byte	.LLST311
 10201 21d7 00       		.byte	0
 10202 21d8 00       		.byte	0
 10203 21d9 00       		.byte	0
 10204 21da 00       		.byte	0
 10205 21db 42       		.uleb128 0x42
 10206 21dc 49040000 		.4byte	0x449
 10207 21e0 8E010000 		.4byte	.LBB325
 10208 21e4 E8030000 		.4byte	.Ldebug_ranges0+0x3e8
 10209 21e8 01       		.byte	0x1
 10210 21e9 C802     		.2byte	0x2c8
 10211 21eb 3D220000 		.4byte	0x223d
 10212 21ef 3D       		.uleb128 0x3d
 10213 21f0 6E040000 		.4byte	0x46e
 10214 21f4 20       		.uleb128 0x20
 10215 21f5 64040000 		.4byte	0x464
 10216 21f9 92350000 		.4byte	.LLST312
 10217 21fd 20       		.uleb128 0x20
 10218 21fe 5A040000 		.4byte	0x45a
 10219 2202 CB350000 		.4byte	.LLST313
 10220 2206 26       		.uleb128 0x26
 10221 2207 E8030000 		.4byte	.Ldebug_ranges0+0x3e8
 10222 220b 25       		.uleb128 0x25
 10223 220c 78040000 		.4byte	0x478
 10224 2210 04360000 		.4byte	.LLST314
 10225 2214 25       		.uleb128 0x25
 10226 2215 82040000 		.4byte	0x482
 10227 2219 2C360000 		.4byte	.LLST315
 10228 221d 26       		.uleb128 0x26
 10229 221e 00040000 		.4byte	.Ldebug_ranges0+0x400
 10230 2222 25       		.uleb128 0x25
 10231 2223 8F040000 		.4byte	0x48f
 10232 2227 3F360000 		.4byte	.LLST316
 10233 222b 26       		.uleb128 0x26
 10234 222c 18040000 		.4byte	.Ldebug_ranges0+0x418
 10235 2230 25       		.uleb128 0x25
 10236 2231 9A040000 		.4byte	0x49a
 10237 2235 52360000 		.4byte	.LLST317
 10238 2239 00       		.byte	0
 10239 223a 00       		.byte	0
 10240 223b 00       		.byte	0
 10241 223c 00       		.byte	0
 10242 223d 34       		.uleb128 0x34
 10243 223e CC000000 		.4byte	.LVL699
 10244 2242 120D0000 		.4byte	0xd12
 10245 2246 5D220000 		.4byte	0x225d
 10246 224a 35       		.uleb128 0x35
 10247 224b 01       		.uleb128 0x1
 10248 224c 50       		.byte	0x50
 10249 224d 02       		.uleb128 0x2
 10250 224e 77       		.byte	0x77
 10251 224f 00       		.sleb128 0
 10252 2250 35       		.uleb128 0x35
 10253 2251 01       		.uleb128 0x1
 10254 2252 51       		.byte	0x51
 10255 2253 02       		.uleb128 0x2
 10256 2254 76       		.byte	0x76
ARM GAS  C:\Users\rdn\AppData\Local\Temp\cc5zc0m9.s 			page 212


 10257 2255 00       		.sleb128 0
 10258 2256 35       		.uleb128 0x35
 10259 2257 01       		.uleb128 0x1
 10260 2258 53       		.byte	0x53
 10261 2259 02       		.uleb128 0x2
 10262 225a 91       		.byte	0x91
 10263 225b 48       		.sleb128 -56
 10264 225c 00       		.byte	0
 10265 225d 34       		.uleb128 0x34
 10266 225e DC000000 		.4byte	.LVL700
 10267 2262 A50B0000 		.4byte	0xba5
 10268 2266 83220000 		.4byte	0x2283
 10269 226a 35       		.uleb128 0x35
 10270 226b 01       		.uleb128 0x1
 10271 226c 50       		.byte	0x50
 10272 226d 02       		.uleb128 0x2
 10273 226e 77       		.byte	0x77
 10274 226f 00       		.sleb128 0
 10275 2270 35       		.uleb128 0x35
 10276 2271 01       		.uleb128 0x1
 10277 2272 51       		.byte	0x51
 10278 2273 02       		.uleb128 0x2
 10279 2274 76       		.byte	0x76
 10280 2275 00       		.sleb128 0
 10281 2276 35       		.uleb128 0x35
 10282 2277 01       		.uleb128 0x1
 10283 2278 52       		.byte	0x52
 10284 2279 01       		.uleb128 0x1
 10285 227a 30       		.byte	0x30
 10286 227b 35       		.uleb128 0x35
 10287 227c 01       		.uleb128 0x1
 10288 227d 53       		.byte	0x53
 10289 227e 03       		.uleb128 0x3
 10290 227f 91       		.byte	0x91
 10291 2280 C87B     		.sleb128 -568
 10292 2282 00       		.byte	0
 10293 2283 34       		.uleb128 0x34
 10294 2284 F0000000 		.4byte	.LVL701
 10295 2288 A50B0000 		.4byte	0xba5
 10296 228c 9E220000 		.4byte	0x229e
 10297 2290 35       		.uleb128 0x35
 10298 2291 01       		.uleb128 0x1
 10299 2292 51       		.byte	0x51
 10300 2293 02       		.uleb128 0x2
 10301 2294 76       		.byte	0x76
 10302 2295 00       		.sleb128 0
 10303 2296 35       		.uleb128 0x35
 10304 2297 01       		.uleb128 0x1
 10305 2298 53       		.byte	0x53
 10306 2299 03       		.uleb128 0x3
 10307 229a 91       		.byte	0x91
 10308 229b C87D     		.sleb128 -312
 10309 229d 00       		.byte	0
 10310 229e 3E       		.uleb128 0x3e
 10311 229f F2010000 		.4byte	.LVL745
 10312 22a3 372C0000 		.4byte	0x2c37
 10313 22a7 00       		.byte	0
ARM GAS  C:\Users\rdn\AppData\Local\Temp\cc5zc0m9.s 			page 213


 10314 22a8 3A       		.uleb128 0x3a
 10315 22a9 04020000 		.4byte	.LBB334
 10316 22ad 74000000 		.4byte	.LBE334-.LBB334
 10317 22b1 D6220000 		.4byte	0x22d6
 10318 22b5 31       		.uleb128 0x31
 10319 22b6 31050000 		.4byte	.LASF113
 10320 22ba 01       		.byte	0x1
 10321 22bb CE02     		.2byte	0x2ce
 10322 22bd 90000000 		.4byte	0x90
 10323 22c1 70360000 		.4byte	.LLST318
 10324 22c5 31       		.uleb128 0x31
 10325 22c6 11060000 		.4byte	.LASF114
 10326 22ca 01       		.byte	0x1
 10327 22cb D002     		.2byte	0x2d0
 10328 22cd 25000000 		.4byte	0x25
 10329 22d1 EB370000 		.4byte	.LLST319
 10330 22d5 00       		.byte	0
 10331 22d6 34       		.uleb128 0x34
 10332 22d7 38000000 		.4byte	.LVL682
 10333 22db 432C0000 		.4byte	0x2c43
 10334 22df F9220000 		.4byte	0x22f9
 10335 22e3 35       		.uleb128 0x35
 10336 22e4 01       		.uleb128 0x1
 10337 22e5 50       		.byte	0x50
 10338 22e6 02       		.uleb128 0x2
 10339 22e7 79       		.byte	0x79
 10340 22e8 00       		.sleb128 0
 10341 22e9 35       		.uleb128 0x35
 10342 22ea 01       		.uleb128 0x1
 10343 22eb 51       		.byte	0x51
 10344 22ec 05       		.uleb128 0x5
 10345 22ed 79       		.byte	0x79
 10346 22ee 00       		.sleb128 0
 10347 22ef 7A       		.byte	0x7a
 10348 22f0 00       		.sleb128 0
 10349 22f1 22       		.byte	0x22
 10350 22f2 35       		.uleb128 0x35
 10351 22f3 01       		.uleb128 0x1
 10352 22f4 52       		.byte	0x52
 10353 22f5 02       		.uleb128 0x2
 10354 22f6 75       		.byte	0x75
 10355 22f7 00       		.sleb128 0
 10356 22f8 00       		.byte	0
 10357 22f9 43       		.uleb128 0x43
 10358 22fa 50000000 		.4byte	.LVL684
 10359 22fe 02       		.uleb128 0x2
 10360 22ff 78       		.byte	0x78
 10361 2300 00       		.sleb128 0
 10362 2301 1E230000 		.4byte	0x231e
 10363 2305 35       		.uleb128 0x35
 10364 2306 01       		.uleb128 0x1
 10365 2307 50       		.byte	0x50
 10366 2308 02       		.uleb128 0x2
 10367 2309 74       		.byte	0x74
 10368 230a 10       		.sleb128 16
 10369 230b 35       		.uleb128 0x35
 10370 230c 01       		.uleb128 0x1
ARM GAS  C:\Users\rdn\AppData\Local\Temp\cc5zc0m9.s 			page 214


 10371 230d 51       		.byte	0x51
 10372 230e 02       		.uleb128 0x2
 10373 230f 77       		.byte	0x77
 10374 2310 00       		.sleb128 0
 10375 2311 35       		.uleb128 0x35
 10376 2312 01       		.uleb128 0x1
 10377 2313 52       		.byte	0x52
 10378 2314 02       		.uleb128 0x2
 10379 2315 75       		.byte	0x75
 10380 2316 00       		.sleb128 0
 10381 2317 35       		.uleb128 0x35
 10382 2318 01       		.uleb128 0x1
 10383 2319 53       		.byte	0x53
 10384 231a 02       		.uleb128 0x2
 10385 231b 76       		.byte	0x76
 10386 231c 00       		.sleb128 0
 10387 231d 00       		.byte	0
 10388 231e 34       		.uleb128 0x34
 10389 231f 82000000 		.4byte	.LVL687
 10390 2323 432C0000 		.4byte	0x2c43
 10391 2327 41230000 		.4byte	0x2341
 10392 232b 35       		.uleb128 0x35
 10393 232c 01       		.uleb128 0x1
 10394 232d 50       		.byte	0x50
 10395 232e 02       		.uleb128 0x2
 10396 232f 78       		.byte	0x78
 10397 2330 00       		.sleb128 0
 10398 2331 35       		.uleb128 0x35
 10399 2332 01       		.uleb128 0x1
 10400 2333 51       		.byte	0x51
 10401 2334 05       		.uleb128 0x5
 10402 2335 78       		.byte	0x78
 10403 2336 00       		.sleb128 0
 10404 2337 79       		.byte	0x79
 10405 2338 00       		.sleb128 0
 10406 2339 22       		.byte	0x22
 10407 233a 35       		.uleb128 0x35
 10408 233b 01       		.uleb128 0x1
 10409 233c 52       		.byte	0x52
 10410 233d 02       		.uleb128 0x2
 10411 233e 75       		.byte	0x75
 10412 233f 00       		.sleb128 0
 10413 2340 00       		.byte	0
 10414 2341 34       		.uleb128 0x34
 10415 2342 92000000 		.4byte	.LVL689
 10416 2346 5B090000 		.4byte	0x95b
 10417 234a 61230000 		.4byte	0x2361
 10418 234e 35       		.uleb128 0x35
 10419 234f 01       		.uleb128 0x1
 10420 2350 50       		.byte	0x50
 10421 2351 02       		.uleb128 0x2
 10422 2352 78       		.byte	0x78
 10423 2353 00       		.sleb128 0
 10424 2354 35       		.uleb128 0x35
 10425 2355 01       		.uleb128 0x1
 10426 2356 51       		.byte	0x51
 10427 2357 02       		.uleb128 0x2
ARM GAS  C:\Users\rdn\AppData\Local\Temp\cc5zc0m9.s 			page 215


 10428 2358 75       		.byte	0x75
 10429 2359 00       		.sleb128 0
 10430 235a 35       		.uleb128 0x35
 10431 235b 01       		.uleb128 0x1
 10432 235c 52       		.byte	0x52
 10433 235d 02       		.uleb128 0x2
 10434 235e 77       		.byte	0x77
 10435 235f 00       		.sleb128 0
 10436 2360 00       		.byte	0
 10437 2361 36       		.uleb128 0x36
 10438 2362 B6000000 		.4byte	.LVL695
 10439 2366 CC110000 		.4byte	0x11cc
 10440 236a 35       		.uleb128 0x35
 10441 236b 01       		.uleb128 0x1
 10442 236c 50       		.byte	0x50
 10443 236d 02       		.uleb128 0x2
 10444 236e 74       		.byte	0x74
 10445 236f 00       		.sleb128 0
 10446 2370 35       		.uleb128 0x35
 10447 2371 01       		.uleb128 0x1
 10448 2372 51       		.byte	0x51
 10449 2373 02       		.uleb128 0x2
 10450 2374 75       		.byte	0x75
 10451 2375 00       		.sleb128 0
 10452 2376 35       		.uleb128 0x35
 10453 2377 01       		.uleb128 0x1
 10454 2378 52       		.byte	0x52
 10455 2379 02       		.uleb128 0x2
 10456 237a 77       		.byte	0x77
 10457 237b 00       		.sleb128 0
 10458 237c 35       		.uleb128 0x35
 10459 237d 01       		.uleb128 0x1
 10460 237e 53       		.byte	0x53
 10461 237f 02       		.uleb128 0x2
 10462 2380 91       		.byte	0x91
 10463 2381 4C       		.sleb128 -52
 10464 2382 00       		.byte	0
 10465 2383 00       		.byte	0
 10466 2384 10       		.uleb128 0x10
 10467 2385 04       		.byte	0x4
 10468 2386 AB030000 		.4byte	0x3ab
 10469 238a 0D       		.uleb128 0xd
 10470 238b A9000000 		.4byte	0xa9
 10471 238f 9A230000 		.4byte	0x239a
 10472 2393 0E       		.uleb128 0xe
 10473 2394 D6010000 		.4byte	0x1d6
 10474 2398 7F       		.byte	0x7f
 10475 2399 00       		.byte	0
 10476 239a 44       		.uleb128 0x44
 10477 239b D4020000 		.4byte	.LASF119
 10478 239f 01       		.byte	0x1
 10479 23a0 5703     		.2byte	0x357
 10480 23a2 00000000 		.4byte	.LFB44
 10481 23a6 5C030000 		.4byte	.LFE44-.LFB44
 10482 23aa 01       		.uleb128 0x1
 10483 23ab 9C       		.byte	0x9c
 10484 23ac 63270000 		.4byte	0x2763
ARM GAS  C:\Users\rdn\AppData\Local\Temp\cc5zc0m9.s 			page 216


 10485 23b0 1E       		.uleb128 0x1e
 10486 23b1 647400   		.ascii	"dt\000"
 10487 23b4 01       		.byte	0x1
 10488 23b5 5703     		.2byte	0x357
 10489 23b7 CA000000 		.4byte	0xca
 10490 23bb FF370000 		.4byte	.LLST320
 10491 23bf 1E       		.uleb128 0x1e
 10492 23c0 737200   		.ascii	"sr\000"
 10493 23c3 01       		.byte	0x1
 10494 23c4 5703     		.2byte	0x357
 10495 23c6 F9000000 		.4byte	0xf9
 10496 23ca 20380000 		.4byte	.LLST321
 10497 23ce 33       		.uleb128 0x33
 10498 23cf 6E020000 		.4byte	.LASF115
 10499 23d3 01       		.byte	0x1
 10500 23d4 5703     		.2byte	0x357
 10501 23d6 90000000 		.4byte	0x90
 10502 23da 41380000 		.4byte	.LLST322
 10503 23de 33       		.uleb128 0x33
 10504 23df 2E030000 		.4byte	.LASF98
 10505 23e3 01       		.byte	0x1
 10506 23e4 5803     		.2byte	0x358
 10507 23e6 63270000 		.4byte	0x2763
 10508 23ea 62380000 		.4byte	.LLST323
 10509 23ee 33       		.uleb128 0x33
 10510 23ef AF030000 		.4byte	.LASF107
 10511 23f3 01       		.byte	0x1
 10512 23f4 5803     		.2byte	0x358
 10513 23f6 69270000 		.4byte	0x2769
 10514 23fa 92380000 		.4byte	.LLST324
 10515 23fe 1E       		.uleb128 0x1e
 10516 23ff 786800   		.ascii	"xh\000"
 10517 2402 01       		.byte	0x1
 10518 2403 5903     		.2byte	0x359
 10519 2405 DB030000 		.4byte	0x3db
 10520 2409 B2380000 		.4byte	.LLST325
 10521 240d 1E       		.uleb128 0x1e
 10522 240e 7800     		.ascii	"x\000"
 10523 2410 01       		.byte	0x1
 10524 2411 5903     		.2byte	0x359
 10525 2413 A50A0000 		.4byte	0xaa5
 10526 2417 D2380000 		.4byte	.LLST326
 10527 241b 30       		.uleb128 0x30
 10528 241c 6E6800   		.ascii	"nh\000"
 10529 241f 01       		.byte	0x1
 10530 2420 5B03     		.2byte	0x35b
 10531 2422 90000000 		.4byte	0x90
 10532 2426 F2380000 		.4byte	.LLST327
 10533 242a 31       		.uleb128 0x31
 10534 242b 38000000 		.4byte	.LASF116
 10535 242f 01       		.byte	0x1
 10536 2430 5F03     		.2byte	0x35f
 10537 2432 90000000 		.4byte	0x90
 10538 2436 37390000 		.4byte	.LLST328
 10539 243a 31       		.uleb128 0x31
 10540 243b 90000000 		.4byte	.LASF36
 10541 243f 01       		.byte	0x1
ARM GAS  C:\Users\rdn\AppData\Local\Temp\cc5zc0m9.s 			page 217


 10542 2440 6003     		.2byte	0x360
 10543 2442 90000000 		.4byte	0x90
 10544 2446 6E390000 		.4byte	.LLST329
 10545 244a 31       		.uleb128 0x31
 10546 244b 4D040000 		.4byte	.LASF117
 10547 244f 01       		.byte	0x1
 10548 2450 6703     		.2byte	0x367
 10549 2452 90000000 		.4byte	0x90
 10550 2456 8C390000 		.4byte	.LLST330
 10551 245a 31       		.uleb128 0x31
 10552 245b CC010000 		.4byte	.LASF118
 10553 245f 01       		.byte	0x1
 10554 2460 6D03     		.2byte	0x36d
 10555 2462 90000000 		.4byte	0x90
 10556 2466 CF390000 		.4byte	.LLST331
 10557 246a 31       		.uleb128 0x31
 10558 246b BE010000 		.4byte	.LASF35
 10559 246f 01       		.byte	0x1
 10560 2470 6E03     		.2byte	0x36e
 10561 2472 BF010000 		.4byte	0x1bf
 10562 2476 E2390000 		.4byte	.LLST332
 10563 247a 30       		.uleb128 0x30
 10564 247b 7700     		.ascii	"w\000"
 10565 247d 01       		.byte	0x1
 10566 247e 7003     		.2byte	0x370
 10567 2480 90000000 		.4byte	0x90
 10568 2484 F5390000 		.4byte	.LLST333
 10569 2488 2D       		.uleb128 0x2d
 10570 2489 6300     		.ascii	"c\000"
 10571 248b 01       		.byte	0x1
 10572 248c 7103     		.2byte	0x371
 10573 248e 74270000 		.4byte	0x2774
 10574 2492 03       		.uleb128 0x3
 10575 2493 91       		.byte	0x91
 10576 2494 987E     		.sleb128 -232
 10577 2496 18       		.uleb128 0x18
 10578 2497 6E7300   		.ascii	"ns\000"
 10579 249a 01       		.byte	0x1
 10580 249b 7B03     		.2byte	0x37b
 10581 249d 90000000 		.4byte	0x90
 10582 24a1 30       		.uleb128 0x30
 10583 24a2 6E7400   		.ascii	"nt\000"
 10584 24a5 01       		.byte	0x1
 10585 24a6 7C03     		.2byte	0x37c
 10586 24a8 90000000 		.4byte	0x90
 10587 24ac 083A0000 		.4byte	.LLST334
 10588 24b0 2D       		.uleb128 0x2d
 10589 24b1 783000   		.ascii	"x0\000"
 10590 24b4 01       		.byte	0x1
 10591 24b5 7D03     		.2byte	0x37d
 10592 24b7 84270000 		.4byte	0x2784
 10593 24bb 03       		.uleb128 0x3
 10594 24bc 91       		.byte	0x91
 10595 24bd D87C     		.sleb128 -424
 10596 24bf 3C       		.uleb128 0x3c
 10597 24c0 6E050000 		.4byte	0x56e
 10598 24c4 0C000000 		.4byte	.LBB335
ARM GAS  C:\Users\rdn\AppData\Local\Temp\cc5zc0m9.s 			page 218


 10599 24c8 10000000 		.4byte	.LBE335-.LBB335
 10600 24cc 01       		.byte	0x1
 10601 24cd 5B03     		.2byte	0x35b
 10602 24cf E6240000 		.4byte	0x24e6
 10603 24d3 20       		.uleb128 0x20
 10604 24d4 88050000 		.4byte	0x588
 10605 24d8 1B3A0000 		.4byte	.LLST335
 10606 24dc 20       		.uleb128 0x20
 10607 24dd 7E050000 		.4byte	0x57e
 10608 24e1 2E3A0000 		.4byte	.LLST336
 10609 24e5 00       		.byte	0
 10610 24e6 3C       		.uleb128 0x3c
 10611 24e7 49050000 		.4byte	0x549
 10612 24eb 1C000000 		.4byte	.LBB337
 10613 24ef 18000000 		.4byte	.LBE337-.LBB337
 10614 24f3 01       		.byte	0x1
 10615 24f4 5B03     		.2byte	0x35b
 10616 24f6 0D250000 		.4byte	0x250d
 10617 24fa 20       		.uleb128 0x20
 10618 24fb 63050000 		.4byte	0x563
 10619 24ff 413A0000 		.4byte	.LLST337
 10620 2503 20       		.uleb128 0x20
 10621 2504 59050000 		.4byte	0x559
 10622 2508 543A0000 		.4byte	.LLST338
 10623 250c 00       		.byte	0
 10624 250d 3C       		.uleb128 0x3c
 10625 250e 6E050000 		.4byte	0x56e
 10626 2512 70000000 		.4byte	.LBB339
 10627 2516 02000000 		.4byte	.LBE339-.LBB339
 10628 251a 01       		.byte	0x1
 10629 251b 6503     		.2byte	0x365
 10630 251d 34250000 		.4byte	0x2534
 10631 2521 20       		.uleb128 0x20
 10632 2522 88050000 		.4byte	0x588
 10633 2526 673A0000 		.4byte	.LLST339
 10634 252a 20       		.uleb128 0x20
 10635 252b 7E050000 		.4byte	0x57e
 10636 252f 7A3A0000 		.4byte	.LLST340
 10637 2533 00       		.byte	0
 10638 2534 3A       		.uleb128 0x3a
 10639 2535 EC000000 		.4byte	.LBB341
 10640 2539 82000000 		.4byte	.LBE341-.LBB341
 10641 253d 68250000 		.4byte	0x2568
 10642 2541 30       		.uleb128 0x30
 10643 2542 6900     		.ascii	"i\000"
 10644 2544 01       		.byte	0x1
 10645 2545 7303     		.2byte	0x373
 10646 2547 90000000 		.4byte	0x90
 10647 254b 8E3A0000 		.4byte	.LLST341
 10648 254f 23       		.uleb128 0x23
 10649 2550 F0000000 		.4byte	.LBB342
 10650 2554 78000000 		.4byte	.LBE342-.LBB342
 10651 2558 30       		.uleb128 0x30
 10652 2559 6700     		.ascii	"g\000"
 10653 255b 01       		.byte	0x1
 10654 255c 7403     		.2byte	0x374
 10655 255e 25000000 		.4byte	0x25
ARM GAS  C:\Users\rdn\AppData\Local\Temp\cc5zc0m9.s 			page 219


 10656 2562 AD3A0000 		.4byte	.LLST342
 10657 2566 00       		.byte	0
 10658 2567 00       		.byte	0
 10659 2568 34       		.uleb128 0x34
 10660 2569 8A010000 		.4byte	.LVL803
 10661 256d 4E2C0000 		.4byte	0x2c4e
 10662 2571 8B250000 		.4byte	0x258b
 10663 2575 35       		.uleb128 0x35
 10664 2576 01       		.uleb128 0x1
 10665 2577 50       		.byte	0x50
 10666 2578 03       		.uleb128 0x3
 10667 2579 91       		.byte	0x91
 10668 257a D87C     		.sleb128 -424
 10669 257c 35       		.uleb128 0x35
 10670 257d 01       		.uleb128 0x1
 10671 257e 51       		.byte	0x51
 10672 257f 04       		.uleb128 0x4
 10673 2580 91       		.byte	0x91
 10674 2581 CC7C     		.sleb128 -436
 10675 2583 06       		.byte	0x6
 10676 2584 35       		.uleb128 0x35
 10677 2585 01       		.uleb128 0x1
 10678 2586 52       		.byte	0x52
 10679 2587 02       		.uleb128 0x2
 10680 2588 7A       		.byte	0x7a
 10681 2589 00       		.sleb128 0
 10682 258a 00       		.byte	0
 10683 258b 34       		.uleb128 0x34
 10684 258c 9E010000 		.4byte	.LVL804
 10685 2590 4E2C0000 		.4byte	0x2c4e
 10686 2594 B8250000 		.4byte	0x25b8
 10687 2598 35       		.uleb128 0x35
 10688 2599 01       		.uleb128 0x1
 10689 259a 50       		.byte	0x50
 10690 259b 04       		.uleb128 0x4
 10691 259c 91       		.byte	0x91
 10692 259d CC7C     		.sleb128 -436
 10693 259f 06       		.byte	0x6
 10694 25a0 35       		.uleb128 0x35
 10695 25a1 01       		.uleb128 0x1
 10696 25a2 51       		.byte	0x51
 10697 25a3 0D       		.uleb128 0xd
 10698 25a4 7B       		.byte	0x7b
 10699 25a5 00       		.sleb128 0
 10700 25a6 74       		.byte	0x74
 10701 25a7 00       		.sleb128 0
 10702 25a8 1C       		.byte	0x1c
 10703 25a9 23       		.byte	0x23
 10704 25aa 01       		.uleb128 0x1
 10705 25ab 32       		.byte	0x32
 10706 25ac 24       		.byte	0x24
 10707 25ad 91       		.byte	0x91
 10708 25ae 08       		.sleb128 8
 10709 25af 06       		.byte	0x6
 10710 25b0 22       		.byte	0x22
 10711 25b1 35       		.uleb128 0x35
 10712 25b2 01       		.uleb128 0x1
ARM GAS  C:\Users\rdn\AppData\Local\Temp\cc5zc0m9.s 			page 220


 10713 25b3 52       		.byte	0x52
 10714 25b4 02       		.uleb128 0x2
 10715 25b5 7A       		.byte	0x7a
 10716 25b6 00       		.sleb128 0
 10717 25b7 00       		.byte	0
 10718 25b8 34       		.uleb128 0x34
 10719 25b9 B2010000 		.4byte	.LVL805
 10720 25bd 4E2C0000 		.4byte	0x2c4e
 10721 25c1 E4250000 		.4byte	0x25e4
 10722 25c5 35       		.uleb128 0x35
 10723 25c6 01       		.uleb128 0x1
 10724 25c7 50       		.byte	0x50
 10725 25c8 03       		.uleb128 0x3
 10726 25c9 91       		.byte	0x91
 10727 25ca B87D     		.sleb128 -328
 10728 25cc 35       		.uleb128 0x35
 10729 25cd 01       		.uleb128 0x1
 10730 25ce 51       		.byte	0x51
 10731 25cf 0D       		.uleb128 0xd
 10732 25d0 77       		.byte	0x77
 10733 25d1 00       		.sleb128 0
 10734 25d2 74       		.byte	0x74
 10735 25d3 00       		.sleb128 0
 10736 25d4 1C       		.byte	0x1c
 10737 25d5 23       		.byte	0x23
 10738 25d6 01       		.uleb128 0x1
 10739 25d7 32       		.byte	0x32
 10740 25d8 24       		.byte	0x24
 10741 25d9 91       		.byte	0x91
 10742 25da 08       		.sleb128 8
 10743 25db 06       		.byte	0x6
 10744 25dc 22       		.byte	0x22
 10745 25dd 35       		.uleb128 0x35
 10746 25de 01       		.uleb128 0x1
 10747 25df 52       		.byte	0x52
 10748 25e0 02       		.uleb128 0x2
 10749 25e1 7A       		.byte	0x7a
 10750 25e2 00       		.sleb128 0
 10751 25e3 00       		.byte	0
 10752 25e4 45       		.uleb128 0x45
 10753 25e5 E8010000 		.4byte	.LVL806
 10754 25e9 21260000 		.4byte	0x2621
 10755 25ed 35       		.uleb128 0x35
 10756 25ee 01       		.uleb128 0x1
 10757 25ef 50       		.byte	0x50
 10758 25f0 03       		.uleb128 0x3
 10759 25f1 91       		.byte	0x91
 10760 25f2 04       		.sleb128 4
 10761 25f3 06       		.byte	0x6
 10762 25f4 35       		.uleb128 0x35
 10763 25f5 01       		.uleb128 0x1
 10764 25f6 51       		.byte	0x51
 10765 25f7 04       		.uleb128 0x4
 10766 25f8 91       		.byte	0x91
 10767 25f9 D47C     		.sleb128 -428
 10768 25fb 06       		.byte	0x6
 10769 25fc 35       		.uleb128 0x35
ARM GAS  C:\Users\rdn\AppData\Local\Temp\cc5zc0m9.s 			page 221


 10770 25fd 01       		.uleb128 0x1
 10771 25fe 53       		.byte	0x53
 10772 25ff 03       		.uleb128 0x3
 10773 2600 91       		.byte	0x91
 10774 2601 D87C     		.sleb128 -424
 10775 2603 35       		.uleb128 0x35
 10776 2604 02       		.uleb128 0x2
 10777 2605 7D       		.byte	0x7d
 10778 2606 00       		.sleb128 0
 10779 2607 03       		.uleb128 0x3
 10780 2608 91       		.byte	0x91
 10781 2609 08       		.sleb128 8
 10782 260a 06       		.byte	0x6
 10783 260b 35       		.uleb128 0x35
 10784 260c 02       		.uleb128 0x2
 10785 260d 7D       		.byte	0x7d
 10786 260e 04       		.sleb128 4
 10787 260f 02       		.uleb128 0x2
 10788 2610 77       		.byte	0x77
 10789 2611 00       		.sleb128 0
 10790 2612 35       		.uleb128 0x35
 10791 2613 02       		.uleb128 0x2
 10792 2614 7D       		.byte	0x7d
 10793 2615 08       		.sleb128 8
 10794 2616 03       		.uleb128 0x3
 10795 2617 91       		.byte	0x91
 10796 2618 987E     		.sleb128 -232
 10797 261a 35       		.uleb128 0x35
 10798 261b 02       		.uleb128 0x2
 10799 261c 7D       		.byte	0x7d
 10800 261d 0C       		.sleb128 12
 10801 261e 01       		.uleb128 0x1
 10802 261f 31       		.byte	0x31
 10803 2620 00       		.byte	0
 10804 2621 45       		.uleb128 0x45
 10805 2622 20020000 		.4byte	.LVL807
 10806 2626 5E260000 		.4byte	0x265e
 10807 262a 35       		.uleb128 0x35
 10808 262b 01       		.uleb128 0x1
 10809 262c 50       		.byte	0x50
 10810 262d 03       		.uleb128 0x3
 10811 262e 91       		.byte	0x91
 10812 262f 04       		.sleb128 4
 10813 2630 06       		.byte	0x6
 10814 2631 35       		.uleb128 0x35
 10815 2632 01       		.uleb128 0x1
 10816 2633 51       		.byte	0x51
 10817 2634 04       		.uleb128 0x4
 10818 2635 91       		.byte	0x91
 10819 2636 D47C     		.sleb128 -428
 10820 2638 06       		.byte	0x6
 10821 2639 35       		.uleb128 0x35
 10822 263a 01       		.uleb128 0x1
 10823 263b 53       		.byte	0x53
 10824 263c 03       		.uleb128 0x3
 10825 263d 91       		.byte	0x91
 10826 263e D87C     		.sleb128 -424
ARM GAS  C:\Users\rdn\AppData\Local\Temp\cc5zc0m9.s 			page 222


 10827 2640 35       		.uleb128 0x35
 10828 2641 02       		.uleb128 0x2
 10829 2642 7D       		.byte	0x7d
 10830 2643 00       		.sleb128 0
 10831 2644 03       		.uleb128 0x3
 10832 2645 91       		.byte	0x91
 10833 2646 08       		.sleb128 8
 10834 2647 06       		.byte	0x6
 10835 2648 35       		.uleb128 0x35
 10836 2649 02       		.uleb128 0x2
 10837 264a 7D       		.byte	0x7d
 10838 264b 04       		.sleb128 4
 10839 264c 02       		.uleb128 0x2
 10840 264d 77       		.byte	0x77
 10841 264e 00       		.sleb128 0
 10842 264f 35       		.uleb128 0x35
 10843 2650 02       		.uleb128 0x2
 10844 2651 7D       		.byte	0x7d
 10845 2652 08       		.sleb128 8
 10846 2653 02       		.uleb128 0x2
 10847 2654 79       		.byte	0x79
 10848 2655 08       		.sleb128 8
 10849 2656 35       		.uleb128 0x35
 10850 2657 02       		.uleb128 0x2
 10851 2658 7D       		.byte	0x7d
 10852 2659 0C       		.sleb128 12
 10853 265a 02       		.uleb128 0x2
 10854 265b 09       		.byte	0x9
 10855 265c FF       		.byte	0xff
 10856 265d 00       		.byte	0
 10857 265e 45       		.uleb128 0x45
 10858 265f 5C020000 		.4byte	.LVL808
 10859 2663 9B260000 		.4byte	0x269b
 10860 2667 35       		.uleb128 0x35
 10861 2668 01       		.uleb128 0x1
 10862 2669 50       		.byte	0x50
 10863 266a 03       		.uleb128 0x3
 10864 266b 91       		.byte	0x91
 10865 266c 04       		.sleb128 4
 10866 266d 06       		.byte	0x6
 10867 266e 35       		.uleb128 0x35
 10868 266f 01       		.uleb128 0x1
 10869 2670 51       		.byte	0x51
 10870 2671 04       		.uleb128 0x4
 10871 2672 91       		.byte	0x91
 10872 2673 D47C     		.sleb128 -428
 10873 2675 06       		.byte	0x6
 10874 2676 35       		.uleb128 0x35
 10875 2677 01       		.uleb128 0x1
 10876 2678 53       		.byte	0x53
 10877 2679 03       		.uleb128 0x3
 10878 267a 91       		.byte	0x91
 10879 267b D87C     		.sleb128 -424
 10880 267d 35       		.uleb128 0x35
 10881 267e 02       		.uleb128 0x2
 10882 267f 7D       		.byte	0x7d
 10883 2680 00       		.sleb128 0
ARM GAS  C:\Users\rdn\AppData\Local\Temp\cc5zc0m9.s 			page 223


 10884 2681 03       		.uleb128 0x3
 10885 2682 91       		.byte	0x91
 10886 2683 08       		.sleb128 8
 10887 2684 06       		.byte	0x6
 10888 2685 35       		.uleb128 0x35
 10889 2686 02       		.uleb128 0x2
 10890 2687 7D       		.byte	0x7d
 10891 2688 04       		.sleb128 4
 10892 2689 02       		.uleb128 0x2
 10893 268a 77       		.byte	0x77
 10894 268b 00       		.sleb128 0
 10895 268c 35       		.uleb128 0x35
 10896 268d 02       		.uleb128 0x2
 10897 268e 7D       		.byte	0x7d
 10898 268f 08       		.sleb128 8
 10899 2690 03       		.uleb128 0x3
 10900 2691 91       		.byte	0x91
 10901 2692 987E     		.sleb128 -232
 10902 2694 35       		.uleb128 0x35
 10903 2695 02       		.uleb128 0x2
 10904 2696 7D       		.byte	0x7d
 10905 2697 0C       		.sleb128 12
 10906 2698 01       		.uleb128 0x1
 10907 2699 30       		.byte	0x30
 10908 269a 00       		.byte	0
 10909 269b 45       		.uleb128 0x45
 10910 269c 98020000 		.4byte	.LVL809
 10911 26a0 D8260000 		.4byte	0x26d8
 10912 26a4 35       		.uleb128 0x35
 10913 26a5 01       		.uleb128 0x1
 10914 26a6 50       		.byte	0x50
 10915 26a7 03       		.uleb128 0x3
 10916 26a8 91       		.byte	0x91
 10917 26a9 04       		.sleb128 4
 10918 26aa 06       		.byte	0x6
 10919 26ab 35       		.uleb128 0x35
 10920 26ac 01       		.uleb128 0x1
 10921 26ad 51       		.byte	0x51
 10922 26ae 04       		.uleb128 0x4
 10923 26af 91       		.byte	0x91
 10924 26b0 D47C     		.sleb128 -428
 10925 26b2 06       		.byte	0x6
 10926 26b3 35       		.uleb128 0x35
 10927 26b4 01       		.uleb128 0x1
 10928 26b5 53       		.byte	0x53
 10929 26b6 03       		.uleb128 0x3
 10930 26b7 91       		.byte	0x91
 10931 26b8 D87C     		.sleb128 -424
 10932 26ba 35       		.uleb128 0x35
 10933 26bb 02       		.uleb128 0x2
 10934 26bc 7D       		.byte	0x7d
 10935 26bd 00       		.sleb128 0
 10936 26be 03       		.uleb128 0x3
 10937 26bf 91       		.byte	0x91
 10938 26c0 08       		.sleb128 8
 10939 26c1 06       		.byte	0x6
 10940 26c2 35       		.uleb128 0x35
ARM GAS  C:\Users\rdn\AppData\Local\Temp\cc5zc0m9.s 			page 224


 10941 26c3 02       		.uleb128 0x2
 10942 26c4 7D       		.byte	0x7d
 10943 26c5 04       		.sleb128 4
 10944 26c6 02       		.uleb128 0x2
 10945 26c7 77       		.byte	0x77
 10946 26c8 00       		.sleb128 0
 10947 26c9 35       		.uleb128 0x35
 10948 26ca 02       		.uleb128 0x2
 10949 26cb 7D       		.byte	0x7d
 10950 26cc 08       		.sleb128 8
 10951 26cd 02       		.uleb128 0x2
 10952 26ce 79       		.byte	0x79
 10953 26cf 08       		.sleb128 8
 10954 26d0 35       		.uleb128 0x35
 10955 26d1 02       		.uleb128 0x2
 10956 26d2 7D       		.byte	0x7d
 10957 26d3 0C       		.sleb128 12
 10958 26d4 02       		.uleb128 0x2
 10959 26d5 09       		.byte	0x9
 10960 26d6 FF       		.byte	0xff
 10961 26d7 00       		.byte	0
 10962 26d8 45       		.uleb128 0x45
 10963 26d9 00030000 		.4byte	.LVL810
 10964 26dd 0E270000 		.4byte	0x270e
 10965 26e1 35       		.uleb128 0x35
 10966 26e2 01       		.uleb128 0x1
 10967 26e3 50       		.byte	0x50
 10968 26e4 03       		.uleb128 0x3
 10969 26e5 91       		.byte	0x91
 10970 26e6 04       		.sleb128 4
 10971 26e7 06       		.byte	0x6
 10972 26e8 35       		.uleb128 0x35
 10973 26e9 01       		.uleb128 0x1
 10974 26ea 51       		.byte	0x51
 10975 26eb 04       		.uleb128 0x4
 10976 26ec 91       		.byte	0x91
 10977 26ed D47C     		.sleb128 -428
 10978 26ef 06       		.byte	0x6
 10979 26f0 35       		.uleb128 0x35
 10980 26f1 02       		.uleb128 0x2
 10981 26f2 7D       		.byte	0x7d
 10982 26f3 00       		.sleb128 0
 10983 26f4 03       		.uleb128 0x3
 10984 26f5 91       		.byte	0x91
 10985 26f6 08       		.sleb128 8
 10986 26f7 06       		.byte	0x6
 10987 26f8 35       		.uleb128 0x35
 10988 26f9 02       		.uleb128 0x2
 10989 26fa 7D       		.byte	0x7d
 10990 26fb 04       		.sleb128 4
 10991 26fc 02       		.uleb128 0x2
 10992 26fd 77       		.byte	0x77
 10993 26fe 00       		.sleb128 0
 10994 26ff 35       		.uleb128 0x35
 10995 2700 02       		.uleb128 0x2
 10996 2701 7D       		.byte	0x7d
 10997 2702 08       		.sleb128 8
ARM GAS  C:\Users\rdn\AppData\Local\Temp\cc5zc0m9.s 			page 225


 10998 2703 03       		.uleb128 0x3
 10999 2704 91       		.byte	0x91
 11000 2705 987E     		.sleb128 -232
 11001 2707 35       		.uleb128 0x35
 11002 2708 02       		.uleb128 0x2
 11003 2709 7D       		.byte	0x7d
 11004 270a 0C       		.sleb128 12
 11005 270b 01       		.uleb128 0x1
 11006 270c 31       		.byte	0x31
 11007 270d 00       		.byte	0
 11008 270e 45       		.uleb128 0x45
 11009 270f 3C030000 		.4byte	.LVL812
 11010 2713 43270000 		.4byte	0x2743
 11011 2717 35       		.uleb128 0x35
 11012 2718 01       		.uleb128 0x1
 11013 2719 50       		.byte	0x50
 11014 271a 03       		.uleb128 0x3
 11015 271b 91       		.byte	0x91
 11016 271c 04       		.sleb128 4
 11017 271d 06       		.byte	0x6
 11018 271e 35       		.uleb128 0x35
 11019 271f 01       		.uleb128 0x1
 11020 2720 51       		.byte	0x51
 11021 2721 04       		.uleb128 0x4
 11022 2722 91       		.byte	0x91
 11023 2723 D47C     		.sleb128 -428
 11024 2725 06       		.byte	0x6
 11025 2726 35       		.uleb128 0x35
 11026 2727 01       		.uleb128 0x1
 11027 2728 53       		.byte	0x53
 11028 2729 03       		.uleb128 0x3
 11029 272a 91       		.byte	0x91
 11030 272b B87D     		.sleb128 -328
 11031 272d 35       		.uleb128 0x35
 11032 272e 02       		.uleb128 0x2
 11033 272f 7D       		.byte	0x7d
 11034 2730 04       		.sleb128 4
 11035 2731 02       		.uleb128 0x2
 11036 2732 77       		.byte	0x77
 11037 2733 00       		.sleb128 0
 11038 2734 35       		.uleb128 0x35
 11039 2735 02       		.uleb128 0x2
 11040 2736 7D       		.byte	0x7d
 11041 2737 08       		.sleb128 8
 11042 2738 03       		.uleb128 0x3
 11043 2739 91       		.byte	0x91
 11044 273a 987E     		.sleb128 -232
 11045 273c 35       		.uleb128 0x35
 11046 273d 02       		.uleb128 0x2
 11047 273e 7D       		.byte	0x7d
 11048 273f 0C       		.sleb128 12
 11049 2740 01       		.uleb128 0x1
 11050 2741 30       		.byte	0x30
 11051 2742 00       		.byte	0
 11052 2743 36       		.uleb128 0x36
 11053 2744 50030000 		.4byte	.LVL813
 11054 2748 4E2C0000 		.4byte	0x2c4e
ARM GAS  C:\Users\rdn\AppData\Local\Temp\cc5zc0m9.s 			page 226


 11055 274c 35       		.uleb128 0x35
 11056 274d 01       		.uleb128 0x1
 11057 274e 50       		.byte	0x50
 11058 274f 02       		.uleb128 0x2
 11059 2750 79       		.byte	0x79
 11060 2751 08       		.sleb128 8
 11061 2752 35       		.uleb128 0x35
 11062 2753 01       		.uleb128 0x1
 11063 2754 51       		.byte	0x51
 11064 2755 03       		.uleb128 0x3
 11065 2756 91       		.byte	0x91
 11066 2757 987E     		.sleb128 -232
 11067 2759 35       		.uleb128 0x35
 11068 275a 01       		.uleb128 0x1
 11069 275b 52       		.byte	0x52
 11070 275c 04       		.uleb128 0x4
 11071 275d 74       		.byte	0x74
 11072 275e 00       		.sleb128 0
 11073 275f 33       		.byte	0x33
 11074 2760 24       		.byte	0x24
 11075 2761 00       		.byte	0
 11076 2762 00       		.byte	0
 11077 2763 10       		.uleb128 0x10
 11078 2764 04       		.byte	0x4
 11079 2765 57020000 		.4byte	0x257
 11080 2769 10       		.uleb128 0x10
 11081 276a 04       		.byte	0x4
 11082 276b 6F270000 		.4byte	0x276f
 11083 276f 11       		.uleb128 0x11
 11084 2770 D0030000 		.4byte	0x3d0
 11085 2774 0D       		.uleb128 0xd
 11086 2775 25000000 		.4byte	0x25
 11087 2779 84270000 		.4byte	0x2784
 11088 277d 0E       		.uleb128 0xe
 11089 277e D6010000 		.4byte	0x1d6
 11090 2782 2F       		.byte	0x2f
 11091 2783 00       		.byte	0
 11092 2784 0D       		.uleb128 0xd
 11093 2785 25000000 		.4byte	0x25
 11094 2789 9A270000 		.4byte	0x279a
 11095 278d 0E       		.uleb128 0xe
 11096 278e D6010000 		.4byte	0x1d6
 11097 2792 01       		.byte	0x1
 11098 2793 0E       		.uleb128 0xe
 11099 2794 D6010000 		.4byte	0x1d6
 11100 2798 17       		.byte	0x17
 11101 2799 00       		.byte	0
 11102 279a 44       		.uleb128 0x44
 11103 279b 75020000 		.4byte	.LASF120
 11104 279f 01       		.byte	0x1
 11105 27a0 A503     		.2byte	0x3a5
 11106 27a2 00000000 		.4byte	.LFB45
 11107 27a6 06000000 		.4byte	.LFE45-.LFB45
 11108 27aa 01       		.uleb128 0x1
 11109 27ab 9C       		.byte	0x9c
 11110 27ac BF270000 		.4byte	0x27bf
 11111 27b0 1D       		.uleb128 0x1d
ARM GAS  C:\Users\rdn\AppData\Local\Temp\cc5zc0m9.s 			page 227


 11112 27b1 AF030000 		.4byte	.LASF107
 11113 27b5 01       		.byte	0x1
 11114 27b6 A503     		.2byte	0x3a5
 11115 27b8 84230000 		.4byte	0x2384
 11116 27bc 01       		.uleb128 0x1
 11117 27bd 50       		.byte	0x50
 11118 27be 00       		.byte	0
 11119 27bf 3F       		.uleb128 0x3f
 11120 27c0 0A070000 		.4byte	.LASF122
 11121 27c4 01       		.byte	0x1
 11122 27c5 AD03     		.2byte	0x3ad
 11123 27c7 90000000 		.4byte	0x90
 11124 27cb 00000000 		.4byte	.LFB46
 11125 27cf 0A000000 		.4byte	.LFE46-.LFB46
 11126 27d3 01       		.uleb128 0x1
 11127 27d4 9C       		.byte	0x9c
 11128 27d5 EA270000 		.4byte	0x27ea
 11129 27d9 33       		.uleb128 0x33
 11130 27da 90000000 		.4byte	.LASF36
 11131 27de 01       		.byte	0x1
 11132 27df AD03     		.2byte	0x3ad
 11133 27e1 BF010000 		.4byte	0x1bf
 11134 27e5 C13A0000 		.4byte	.LLST343
 11135 27e9 00       		.byte	0
 11136 27ea 1A       		.uleb128 0x1a
 11137 27eb 58050000 		.4byte	.LASF123
 11138 27ef 03       		.byte	0x3
 11139 27f0 D2       		.byte	0xd2
 11140 27f1 03       		.byte	0x3
 11141 27f2 0B280000 		.4byte	0x280b
 11142 27f6 13       		.uleb128 0x13
 11143 27f7 FF030000 		.4byte	.LASF71
 11144 27fb 03       		.byte	0x3
 11145 27fc D2       		.byte	0xd2
 11146 27fd 0B280000 		.4byte	0x280b
 11147 2801 14       		.uleb128 0x14
 11148 2802 7600     		.ascii	"v\000"
 11149 2804 03       		.byte	0x3
 11150 2805 D2       		.byte	0xd2
 11151 2806 90000000 		.4byte	0x90
 11152 280a 00       		.byte	0
 11153 280b 10       		.uleb128 0x10
 11154 280c 04       		.byte	0x4
 11155 280d A0030000 		.4byte	0x3a0
 11156 2811 44       		.uleb128 0x44
 11157 2812 3B040000 		.4byte	.LASF124
 11158 2816 01       		.byte	0x1
 11159 2817 B503     		.2byte	0x3b5
 11160 2819 00000000 		.4byte	.LFB47
 11161 281d 44000000 		.4byte	.LFE47-.LFB47
 11162 2821 01       		.uleb128 0x1
 11163 2822 9C       		.byte	0x9c
 11164 2823 10290000 		.4byte	0x2910
 11165 2827 33       		.uleb128 0x33
 11166 2828 FF030000 		.4byte	.LASF71
 11167 282c 01       		.byte	0x1
 11168 282d B503     		.2byte	0x3b5
ARM GAS  C:\Users\rdn\AppData\Local\Temp\cc5zc0m9.s 			page 228


 11169 282f 0B280000 		.4byte	0x280b
 11170 2833 E23A0000 		.4byte	.LLST344
 11171 2837 33       		.uleb128 0x33
 11172 2838 AF030000 		.4byte	.LASF107
 11173 283c 01       		.byte	0x1
 11174 283d B603     		.2byte	0x3b6
 11175 283f 10290000 		.4byte	0x2910
 11176 2843 003B0000 		.4byte	.LLST345
 11177 2847 3C       		.uleb128 0x3c
 11178 2848 EA270000 		.4byte	0x27ea
 11179 284c 08000000 		.4byte	.LBB349
 11180 2850 1A000000 		.4byte	.LBE349-.LBB349
 11181 2854 01       		.byte	0x1
 11182 2855 B803     		.2byte	0x3b8
 11183 2857 BB280000 		.4byte	0x28bb
 11184 285b 20       		.uleb128 0x20
 11185 285c 01280000 		.4byte	0x2801
 11186 2860 1E3B0000 		.4byte	.LLST346
 11187 2864 20       		.uleb128 0x20
 11188 2865 F6270000 		.4byte	0x27f6
 11189 2869 4E3B0000 		.4byte	.LLST347
 11190 286d 29       		.uleb128 0x29
 11191 286e B2040000 		.4byte	0x4b2
 11192 2872 08000000 		.4byte	.LBB351
 11193 2876 1A000000 		.4byte	.LBE351-.LBB351
 11194 287a 03       		.byte	0x3
 11195 287b D4       		.byte	0xd4
 11196 287c 20       		.uleb128 0x20
 11197 287d D2040000 		.4byte	0x4d2
 11198 2881 6C3B0000 		.4byte	.LLST348
 11199 2885 20       		.uleb128 0x20
 11200 2886 C9040000 		.4byte	0x4c9
 11201 288a 1E3B0000 		.4byte	.LLST346
 11202 288e 20       		.uleb128 0x20
 11203 288f BE040000 		.4byte	0x4be
 11204 2893 4E3B0000 		.4byte	.LLST347
 11205 2897 23       		.uleb128 0x23
 11206 2898 08000000 		.4byte	.LBB352
 11207 289c 1A000000 		.4byte	.LBE352-.LBB352
 11208 28a0 25       		.uleb128 0x25
 11209 28a1 DB040000 		.4byte	0x4db
 11210 28a5 803B0000 		.4byte	.LLST351
 11211 28a9 36       		.uleb128 0x36
 11212 28aa 22000000 		.4byte	.LVL823
 11213 28ae 572C0000 		.4byte	0x2c57
 11214 28b2 35       		.uleb128 0x35
 11215 28b3 01       		.uleb128 0x1
 11216 28b4 52       		.byte	0x52
 11217 28b5 01       		.uleb128 0x1
 11218 28b6 31       		.byte	0x31
 11219 28b7 00       		.byte	0
 11220 28b8 00       		.byte	0
 11221 28b9 00       		.byte	0
 11222 28ba 00       		.byte	0
 11223 28bb 1F       		.uleb128 0x1f
 11224 28bc B2040000 		.4byte	0x4b2
 11225 28c0 24000000 		.4byte	.LBB353
ARM GAS  C:\Users\rdn\AppData\Local\Temp\cc5zc0m9.s 			page 229


 11226 28c4 20000000 		.4byte	.LBE353-.LBB353
 11227 28c8 01       		.byte	0x1
 11228 28c9 B903     		.2byte	0x3b9
 11229 28cb 20       		.uleb128 0x20
 11230 28cc D2040000 		.4byte	0x4d2
 11231 28d0 A23B0000 		.4byte	.LLST352
 11232 28d4 20       		.uleb128 0x20
 11233 28d5 C9040000 		.4byte	0x4c9
 11234 28d9 B63B0000 		.4byte	.LLST353
 11235 28dd 20       		.uleb128 0x20
 11236 28de BE040000 		.4byte	0x4be
 11237 28e2 E03B0000 		.4byte	.LLST354
 11238 28e6 23       		.uleb128 0x23
 11239 28e7 24000000 		.4byte	.LBB354
 11240 28eb 20000000 		.4byte	.LBE354-.LBB354
 11241 28ef 39       		.uleb128 0x39
 11242 28f0 DB040000 		.4byte	0x4db
 11243 28f4 03       		.uleb128 0x3
 11244 28f5 74       		.byte	0x74
 11245 28f6 1C       		.sleb128 28
 11246 28f7 9F       		.byte	0x9f
 11247 28f8 36       		.uleb128 0x36
 11248 28f9 42000000 		.4byte	.LVL828
 11249 28fd 572C0000 		.4byte	0x2c57
 11250 2901 35       		.uleb128 0x35
 11251 2902 01       		.uleb128 0x1
 11252 2903 50       		.byte	0x50
 11253 2904 02       		.uleb128 0x2
 11254 2905 74       		.byte	0x74
 11255 2906 00       		.sleb128 0
 11256 2907 35       		.uleb128 0x35
 11257 2908 01       		.uleb128 0x1
 11258 2909 52       		.byte	0x52
 11259 290a 01       		.uleb128 0x1
 11260 290b 39       		.byte	0x39
 11261 290c 00       		.byte	0
 11262 290d 00       		.byte	0
 11263 290e 00       		.byte	0
 11264 290f 00       		.byte	0
 11265 2910 10       		.uleb128 0x10
 11266 2911 04       		.byte	0x4
 11267 2912 16290000 		.4byte	0x2916
 11268 2916 11       		.uleb128 0x11
 11269 2917 AB030000 		.4byte	0x3ab
 11270 291b 12       		.uleb128 0x12
 11271 291c 1F000000 		.4byte	.LASF125
 11272 2920 03       		.byte	0x3
 11273 2921 EA       		.byte	0xea
 11274 2922 90000000 		.4byte	0x90
 11275 2926 03       		.byte	0x3
 11276 2927 37290000 		.4byte	0x2937
 11277 292b 13       		.uleb128 0x13
 11278 292c FF030000 		.4byte	.LASF71
 11279 2930 03       		.byte	0x3
 11280 2931 EA       		.byte	0xea
 11281 2932 0B280000 		.4byte	0x280b
 11282 2936 00       		.byte	0
ARM GAS  C:\Users\rdn\AppData\Local\Temp\cc5zc0m9.s 			page 230


 11283 2937 44       		.uleb128 0x44
 11284 2938 10030000 		.4byte	.LASF126
 11285 293c 01       		.byte	0x1
 11286 293d BF03     		.2byte	0x3bf
 11287 293f 00000000 		.4byte	.LFB48
 11288 2943 50000000 		.4byte	.LFE48-.LFB48
 11289 2947 01       		.uleb128 0x1
 11290 2948 9C       		.byte	0x9c
 11291 2949 4F2A0000 		.4byte	0x2a4f
 11292 294d 33       		.uleb128 0x33
 11293 294e FF030000 		.4byte	.LASF71
 11294 2952 01       		.byte	0x1
 11295 2953 BF03     		.2byte	0x3bf
 11296 2955 0B280000 		.4byte	0x280b
 11297 2959 F33B0000 		.4byte	.LLST355
 11298 295d 33       		.uleb128 0x33
 11299 295e AF030000 		.4byte	.LASF107
 11300 2962 01       		.byte	0x1
 11301 2963 C003     		.2byte	0x3c0
 11302 2965 84230000 		.4byte	0x2384
 11303 2969 113C0000 		.4byte	.LLST356
 11304 296d 3C       		.uleb128 0x3c
 11305 296e 1B290000 		.4byte	0x291b
 11306 2972 06000000 		.4byte	.LBB363
 11307 2976 1E000000 		.4byte	.LBE363-.LBB363
 11308 297a 01       		.byte	0x1
 11309 297b C203     		.2byte	0x3c2
 11310 297d EC290000 		.4byte	0x29ec
 11311 2981 20       		.uleb128 0x20
 11312 2982 2B290000 		.4byte	0x292b
 11313 2986 2F3C0000 		.4byte	.LLST357
 11314 298a 29       		.uleb128 0x29
 11315 298b F3040000 		.4byte	0x4f3
 11316 298f 06000000 		.4byte	.LBB365
 11317 2993 1E000000 		.4byte	.LBE365-.LBB365
 11318 2997 03       		.byte	0x3
 11319 2998 EC       		.byte	0xec
 11320 2999 20       		.uleb128 0x20
 11321 299a 0E050000 		.4byte	0x50e
 11322 299e 4D3C0000 		.4byte	.LLST358
 11323 29a2 20       		.uleb128 0x20
 11324 29a3 03050000 		.4byte	0x503
 11325 29a7 2F3C0000 		.4byte	.LLST357
 11326 29ab 23       		.uleb128 0x23
 11327 29ac 06000000 		.4byte	.LBB366
 11328 29b0 1E000000 		.4byte	.LBE366-.LBB366
 11329 29b4 25       		.uleb128 0x25
 11330 29b5 17050000 		.4byte	0x517
 11331 29b9 613C0000 		.4byte	.LLST360
 11332 29bd 3A       		.uleb128 0x3a
 11333 29be 0E000000 		.4byte	.LBB367
 11334 29c2 0E000000 		.4byte	.LBE367-.LBB367
 11335 29c6 D4290000 		.4byte	0x29d4
 11336 29ca 25       		.uleb128 0x25
 11337 29cb 23050000 		.4byte	0x523
 11338 29cf 833C0000 		.4byte	.LLST361
 11339 29d3 00       		.byte	0
ARM GAS  C:\Users\rdn\AppData\Local\Temp\cc5zc0m9.s 			page 231


 11340 29d4 36       		.uleb128 0x36
 11341 29d5 24000000 		.4byte	.LVL835
 11342 29d9 622C0000 		.4byte	0x2c62
 11343 29dd 35       		.uleb128 0x35
 11344 29de 01       		.uleb128 0x1
 11345 29df 50       		.byte	0x50
 11346 29e0 02       		.uleb128 0x2
 11347 29e1 74       		.byte	0x74
 11348 29e2 00       		.sleb128 0
 11349 29e3 35       		.uleb128 0x35
 11350 29e4 01       		.uleb128 0x1
 11351 29e5 51       		.byte	0x51
 11352 29e6 01       		.uleb128 0x1
 11353 29e7 31       		.byte	0x31
 11354 29e8 00       		.byte	0
 11355 29e9 00       		.byte	0
 11356 29ea 00       		.byte	0
 11357 29eb 00       		.byte	0
 11358 29ec 1F       		.uleb128 0x1f
 11359 29ed F3040000 		.4byte	0x4f3
 11360 29f1 2C000000 		.4byte	.LBB368
 11361 29f5 20000000 		.4byte	.LBE368-.LBB368
 11362 29f9 01       		.byte	0x1
 11363 29fa C303     		.2byte	0x3c3
 11364 29fc 20       		.uleb128 0x20
 11365 29fd 0E050000 		.4byte	0x50e
 11366 2a01 963C0000 		.4byte	.LLST362
 11367 2a05 20       		.uleb128 0x20
 11368 2a06 03050000 		.4byte	0x503
 11369 2a0a AA3C0000 		.4byte	.LLST363
 11370 2a0e 23       		.uleb128 0x23
 11371 2a0f 2C000000 		.4byte	.LBB369
 11372 2a13 20000000 		.4byte	.LBE369-.LBB369
 11373 2a17 39       		.uleb128 0x39
 11374 2a18 17050000 		.4byte	0x517
 11375 2a1c 03       		.uleb128 0x3
 11376 2a1d 74       		.byte	0x74
 11377 2a1e 1C       		.sleb128 28
 11378 2a1f 9F       		.byte	0x9f
 11379 2a20 3A       		.uleb128 0x3a
 11380 2a21 36000000 		.4byte	.LBB370
 11381 2a25 0E000000 		.4byte	.LBE370-.LBB370
 11382 2a29 372A0000 		.4byte	0x2a37
 11383 2a2d 25       		.uleb128 0x25
 11384 2a2e 23050000 		.4byte	0x523
 11385 2a32 BD3C0000 		.4byte	.LLST364
 11386 2a36 00       		.byte	0
 11387 2a37 36       		.uleb128 0x36
 11388 2a38 4C000000 		.4byte	.LVL839
 11389 2a3c 622C0000 		.4byte	0x2c62
 11390 2a40 35       		.uleb128 0x35
 11391 2a41 01       		.uleb128 0x1
 11392 2a42 50       		.byte	0x50
 11393 2a43 02       		.uleb128 0x2
 11394 2a44 74       		.byte	0x74
 11395 2a45 00       		.sleb128 0
 11396 2a46 35       		.uleb128 0x35
ARM GAS  C:\Users\rdn\AppData\Local\Temp\cc5zc0m9.s 			page 232


 11397 2a47 01       		.uleb128 0x1
 11398 2a48 51       		.byte	0x51
 11399 2a49 01       		.uleb128 0x1
 11400 2a4a 39       		.byte	0x39
 11401 2a4b 00       		.byte	0
 11402 2a4c 00       		.byte	0
 11403 2a4d 00       		.byte	0
 11404 2a4e 00       		.byte	0
 11405 2a4f 0D       		.uleb128 0xd
 11406 2a50 AD040000 		.4byte	0x4ad
 11407 2a54 5F2A0000 		.4byte	0x2a5f
 11408 2a58 0E       		.uleb128 0xe
 11409 2a59 D6010000 		.4byte	0x1d6
 11410 2a5d 4F       		.byte	0x4f
 11411 2a5e 00       		.byte	0
 11412 2a5f 46       		.uleb128 0x46
 11413 2a60 6E070000 		.4byte	.LASF127
 11414 2a64 01       		.byte	0x1
 11415 2a65 25       		.byte	0x25
 11416 2a66 702A0000 		.4byte	0x2a70
 11417 2a6a 05       		.uleb128 0x5
 11418 2a6b 03       		.byte	0x3
 11419 2a6c 00000000 		.4byte	h_8k_12k8_q15
 11420 2a70 11       		.uleb128 0x11
 11421 2a71 4F2A0000 		.4byte	0x2a4f
 11422 2a75 46       		.uleb128 0x46
 11423 2a76 4F060000 		.4byte	.LASF128
 11424 2a7a 01       		.byte	0x1
 11425 2a7b 32       		.byte	0x32
 11426 2a7c 862A0000 		.4byte	0x2a86
 11427 2a80 05       		.uleb128 0x5
 11428 2a81 03       		.byte	0x3
 11429 2a82 20030000 		.4byte	h_16k_12k8_q15
 11430 2a86 11       		.uleb128 0x11
 11431 2a87 4F2A0000 		.4byte	0x2a4f
 11432 2a8b 46       		.uleb128 0x46
 11433 2a8c 45020000 		.4byte	.LASF129
 11434 2a90 01       		.byte	0x1
 11435 2a91 42       		.byte	0x42
 11436 2a92 9C2A0000 		.4byte	0x2a9c
 11437 2a96 05       		.uleb128 0x5
 11438 2a97 03       		.byte	0x3
 11439 2a98 C0030000 		.4byte	h_32k_12k8_q15
 11440 2a9c 11       		.uleb128 0x11
 11441 2a9d 4F2A0000 		.4byte	0x2a4f
 11442 2aa1 0D       		.uleb128 0xd
 11443 2aa2 AD040000 		.4byte	0x4ad
 11444 2aa6 B12A0000 		.4byte	0x2ab1
 11445 2aaa 0E       		.uleb128 0xe
 11446 2aab D6010000 		.4byte	0x1d6
 11447 2aaf EF       		.byte	0xef
 11448 2ab0 00       		.byte	0
 11449 2ab1 46       		.uleb128 0x46
 11450 2ab2 5D040000 		.4byte	.LASF130
 11451 2ab6 01       		.byte	0x1
 11452 2ab7 50       		.byte	0x50
 11453 2ab8 C22A0000 		.4byte	0x2ac2
ARM GAS  C:\Users\rdn\AppData\Local\Temp\cc5zc0m9.s 			page 233


 11454 2abc 05       		.uleb128 0x5
 11455 2abd 03       		.byte	0x3
 11456 2abe 60040000 		.4byte	h_24k_12k8_q15
 11457 2ac2 11       		.uleb128 0x11
 11458 2ac3 A12A0000 		.4byte	0x2aa1
 11459 2ac7 46       		.uleb128 0x46
 11460 2ac8 C1060000 		.4byte	.LASF131
 11461 2acc 01       		.byte	0x1
 11462 2acd 74       		.byte	0x74
 11463 2ace D82A0000 		.4byte	0x2ad8
 11464 2ad2 05       		.uleb128 0x5
 11465 2ad3 03       		.byte	0x3
 11466 2ad4 40060000 		.4byte	h_48k_12k8_q15
 11467 2ad8 11       		.uleb128 0x11
 11468 2ad9 A12A0000 		.4byte	0x2aa1
 11469 2add 46       		.uleb128 0x46
 11470 2ade 17050000 		.4byte	.LASF132
 11471 2ae2 01       		.byte	0x1
 11472 2ae3 94       		.byte	0x94
 11473 2ae4 EE2A0000 		.4byte	0x2aee
 11474 2ae8 05       		.uleb128 0x5
 11475 2ae9 03       		.byte	0x3
 11476 2aea A0000000 		.4byte	h_96k_12k8_q15
 11477 2aee 11       		.uleb128 0x11
 11478 2aef A12A0000 		.4byte	0x2aa1
 11479 2af3 0D       		.uleb128 0xd
 11480 2af4 232B0000 		.4byte	0x2b23
 11481 2af8 032B0000 		.4byte	0x2b03
 11482 2afc 0E       		.uleb128 0xe
 11483 2afd D6010000 		.4byte	0x1d6
 11484 2b01 06       		.byte	0x6
 11485 2b02 00       		.byte	0
 11486 2b03 10       		.uleb128 0x10
 11487 2b04 04       		.byte	0x4
 11488 2b05 092B0000 		.4byte	0x2b09
 11489 2b09 47       		.uleb128 0x47
 11490 2b0a 232B0000 		.4byte	0x2b23
 11491 2b0e 48       		.uleb128 0x48
 11492 2b0f 3E040000 		.4byte	0x43e
 11493 2b13 48       		.uleb128 0x48
 11494 2b14 A7040000 		.4byte	0x4a7
 11495 2b18 48       		.uleb128 0x48
 11496 2b19 26060000 		.4byte	0x626
 11497 2b1d 48       		.uleb128 0x48
 11498 2b1e 90000000 		.4byte	0x90
 11499 2b22 00       		.byte	0
 11500 2b23 11       		.uleb128 0x11
 11501 2b24 032B0000 		.4byte	0x2b03
 11502 2b28 32       		.uleb128 0x32
 11503 2b29 95040000 		.4byte	.LASF133
 11504 2b2d 01       		.byte	0x1
 11505 2b2e 9D01     		.2byte	0x19d
 11506 2b30 3A2B0000 		.4byte	0x2b3a
 11507 2b34 05       		.uleb128 0x5
 11508 2b35 03       		.byte	0x3
 11509 2b36 20080000 		.4byte	resample_12k8
 11510 2b3a 11       		.uleb128 0x11
ARM GAS  C:\Users\rdn\AppData\Local\Temp\cc5zc0m9.s 			page 234


 11511 2b3b F32A0000 		.4byte	0x2af3
 11512 2b3f 0D       		.uleb128 0xd
 11513 2b40 832B0000 		.4byte	0x2b83
 11514 2b44 4F2B0000 		.4byte	0x2b4f
 11515 2b48 0E       		.uleb128 0xe
 11516 2b49 D6010000 		.4byte	0x1d6
 11517 2b4d 04       		.byte	0x4
 11518 2b4e 00       		.byte	0
 11519 2b4f 10       		.uleb128 0x10
 11520 2b50 04       		.byte	0x4
 11521 2b51 552B0000 		.4byte	0x2b55
 11522 2b55 47       		.uleb128 0x47
 11523 2b56 832B0000 		.4byte	0x2b83
 11524 2b5a 48       		.uleb128 0x48
 11525 2b5b DB030000 		.4byte	0x3db
 11526 2b5f 48       		.uleb128 0x48
 11527 2b60 90000000 		.4byte	0x90
 11528 2b64 48       		.uleb128 0x48
 11529 2b65 90000000 		.4byte	0x90
 11530 2b69 48       		.uleb128 0x48
 11531 2b6a DB030000 		.4byte	0x3db
 11532 2b6e 48       		.uleb128 0x48
 11533 2b6f A50A0000 		.4byte	0xaa5
 11534 2b73 48       		.uleb128 0x48
 11535 2b74 90000000 		.4byte	0x90
 11536 2b78 48       		.uleb128 0x48
 11537 2b79 DB030000 		.4byte	0x3db
 11538 2b7d 48       		.uleb128 0x48
 11539 2b7e 90000000 		.4byte	0x90
 11540 2b82 00       		.byte	0
 11541 2b83 11       		.uleb128 0x11
 11542 2b84 4F2B0000 		.4byte	0x2b4f
 11543 2b88 32       		.uleb128 0x32
 11544 2b89 6C040000 		.4byte	.LASF134
 11545 2b8d 01       		.byte	0x1
 11546 2b8e 4903     		.2byte	0x349
 11547 2b90 9A2B0000 		.4byte	0x2b9a
 11548 2b94 05       		.uleb128 0x5
 11549 2b95 03       		.byte	0x3
 11550 2b96 3C080000 		.4byte	synthesize
 11551 2b9a 11       		.uleb128 0x11
 11552 2b9b 3F2B0000 		.4byte	0x2b3f
 11553 2b9f 0D       		.uleb128 0xd
 11554 2ba0 21060000 		.4byte	0x621
 11555 2ba4 AF2B0000 		.4byte	0x2baf
 11556 2ba8 0E       		.uleb128 0xe
 11557 2ba9 D6010000 		.4byte	0x1d6
 11558 2bad 06       		.byte	0x6
 11559 2bae 00       		.byte	0
 11560 2baf 49       		.uleb128 0x49
 11561 2bb0 7B000000 		.4byte	.LASF135
 11562 2bb4 02       		.byte	0x2
 11563 2bb5 2A       		.byte	0x2a
 11564 2bb6 BA2B0000 		.4byte	0x2bba
 11565 2bba 11       		.uleb128 0x11
 11566 2bbb 9F2B0000 		.4byte	0x2b9f
 11567 2bbf 49       		.uleb128 0x49
ARM GAS  C:\Users\rdn\AppData\Local\Temp\cc5zc0m9.s 			page 235


 11568 2bc0 55000000 		.4byte	.LASF136
 11569 2bc4 02       		.byte	0x2
 11570 2bc5 2B       		.byte	0x2b
 11571 2bc6 CA2B0000 		.4byte	0x2bca
 11572 2bca 11       		.uleb128 0x11
 11573 2bcb 9F2B0000 		.4byte	0x2b9f
 11574 2bcf 49       		.uleb128 0x49
 11575 2bd0 A6010000 		.4byte	.LASF137
 11576 2bd4 02       		.byte	0x2
 11577 2bd5 2C       		.byte	0x2c
 11578 2bd6 DA2B0000 		.4byte	0x2bda
 11579 2bda 11       		.uleb128 0x11
 11580 2bdb 9F2B0000 		.4byte	0x2b9f
 11581 2bdf 0D       		.uleb128 0xd
 11582 2be0 21060000 		.4byte	0x621
 11583 2be4 FB2B0000 		.4byte	0x2bfb
 11584 2be8 0E       		.uleb128 0xe
 11585 2be9 D6010000 		.4byte	0x1d6
 11586 2bed 03       		.byte	0x3
 11587 2bee 0E       		.uleb128 0xe
 11588 2bef D6010000 		.4byte	0x1d6
 11589 2bf3 01       		.byte	0x1
 11590 2bf4 0E       		.uleb128 0xe
 11591 2bf5 D6010000 		.4byte	0x1d6
 11592 2bf9 01       		.byte	0x1
 11593 2bfa 00       		.byte	0
 11594 2bfb 49       		.uleb128 0x49
 11595 2bfc 7C070000 		.4byte	.LASF138
 11596 2c00 02       		.byte	0x2
 11597 2c01 4E       		.byte	0x4e
 11598 2c02 062C0000 		.4byte	0x2c06
 11599 2c06 11       		.uleb128 0x11
 11600 2c07 DF2B0000 		.4byte	0x2bdf
 11601 2c0b 0D       		.uleb128 0xd
 11602 2c0c DB030000 		.4byte	0x3db
 11603 2c10 212C0000 		.4byte	0x2c21
 11604 2c14 0E       		.uleb128 0xe
 11605 2c15 D6010000 		.4byte	0x1d6
 11606 2c19 06       		.byte	0x6
 11607 2c1a 0E       		.uleb128 0xe
 11608 2c1b D6010000 		.4byte	0x1d6
 11609 2c1f 03       		.byte	0x3
 11610 2c20 00       		.byte	0
 11611 2c21 49       		.uleb128 0x49
 11612 2c22 AD060000 		.4byte	.LASF139
 11613 2c26 02       		.byte	0x2
 11614 2c27 94       		.byte	0x94
 11615 2c28 0B2C0000 		.4byte	0x2c0b
 11616 2c2c 49       		.uleb128 0x49
 11617 2c2d 9F060000 		.4byte	.LASF140
 11618 2c31 02       		.byte	0x2
 11619 2c32 95       		.byte	0x95
 11620 2c33 0B2C0000 		.4byte	0x2c0b
 11621 2c37 4A       		.uleb128 0x4a
 11622 2c38 BB060000 		.4byte	.LASF141
 11623 2c3c BB060000 		.4byte	.LASF141
 11624 2c40 09       		.byte	0x9
ARM GAS  C:\Users\rdn\AppData\Local\Temp\cc5zc0m9.s 			page 236


 11625 2c41 8501     		.2byte	0x185
 11626 2c43 4B       		.uleb128 0x4b
 11627 2c44 0A020000 		.4byte	.LASF142
 11628 2c48 0A020000 		.4byte	.LASF142
 11629 2c4c 0A       		.byte	0xa
 11630 2c4d 18       		.byte	0x18
 11631 2c4e 4C       		.uleb128 0x4c
 11632 2c4f 30070000 		.4byte	.LASF148
 11633 2c53 30070000 		.4byte	.LASF148
 11634 2c57 4B       		.uleb128 0x4b
 11635 2c58 AD040000 		.4byte	.LASF143
 11636 2c5c AD040000 		.4byte	.LASF143
 11637 2c60 03       		.byte	0x3
 11638 2c61 C8       		.byte	0xc8
 11639 2c62 4B       		.uleb128 0x4b
 11640 2c63 33030000 		.4byte	.LASF144
 11641 2c67 33030000 		.4byte	.LASF144
 11642 2c6b 03       		.byte	0x3
 11643 2c6c C9       		.byte	0xc9
 11644 2c6d 00       		.byte	0
 11645              		.section	.debug_abbrev,"",%progbits
 11646              	.Ldebug_abbrev0:
 11647 0000 01       		.uleb128 0x1
 11648 0001 11       		.uleb128 0x11
 11649 0002 01       		.byte	0x1
 11650 0003 25       		.uleb128 0x25
 11651 0004 0E       		.uleb128 0xe
 11652 0005 13       		.uleb128 0x13
 11653 0006 0B       		.uleb128 0xb
 11654 0007 03       		.uleb128 0x3
 11655 0008 0E       		.uleb128 0xe
 11656 0009 1B       		.uleb128 0x1b
 11657 000a 0E       		.uleb128 0xe
 11658 000b 55       		.uleb128 0x55
 11659 000c 17       		.uleb128 0x17
 11660 000d 11       		.uleb128 0x11
 11661 000e 01       		.uleb128 0x1
 11662 000f 10       		.uleb128 0x10
 11663 0010 17       		.uleb128 0x17
 11664 0011 00       		.byte	0
 11665 0012 00       		.byte	0
 11666 0013 02       		.uleb128 0x2
 11667 0014 24       		.uleb128 0x24
 11668 0015 00       		.byte	0
 11669 0016 0B       		.uleb128 0xb
 11670 0017 0B       		.uleb128 0xb
 11671 0018 3E       		.uleb128 0x3e
 11672 0019 0B       		.uleb128 0xb
 11673 001a 03       		.uleb128 0x3
 11674 001b 0E       		.uleb128 0xe
 11675 001c 00       		.byte	0
 11676 001d 00       		.byte	0
 11677 001e 03       		.uleb128 0x3
 11678 001f 16       		.uleb128 0x16
 11679 0020 00       		.byte	0
 11680 0021 03       		.uleb128 0x3
 11681 0022 0E       		.uleb128 0xe
ARM GAS  C:\Users\rdn\AppData\Local\Temp\cc5zc0m9.s 			page 237


 11682 0023 3A       		.uleb128 0x3a
 11683 0024 0B       		.uleb128 0xb
 11684 0025 3B       		.uleb128 0x3b
 11685 0026 0B       		.uleb128 0xb
 11686 0027 49       		.uleb128 0x49
 11687 0028 13       		.uleb128 0x13
 11688 0029 00       		.byte	0
 11689 002a 00       		.byte	0
 11690 002b 04       		.uleb128 0x4
 11691 002c 24       		.uleb128 0x24
 11692 002d 00       		.byte	0
 11693 002e 0B       		.uleb128 0xb
 11694 002f 0B       		.uleb128 0xb
 11695 0030 3E       		.uleb128 0x3e
 11696 0031 0B       		.uleb128 0xb
 11697 0032 03       		.uleb128 0x3
 11698 0033 08       		.uleb128 0x8
 11699 0034 00       		.byte	0
 11700 0035 00       		.byte	0
 11701 0036 05       		.uleb128 0x5
 11702 0037 04       		.uleb128 0x4
 11703 0038 01       		.byte	0x1
 11704 0039 03       		.uleb128 0x3
 11705 003a 0E       		.uleb128 0xe
 11706 003b 0B       		.uleb128 0xb
 11707 003c 0B       		.uleb128 0xb
 11708 003d 49       		.uleb128 0x49
 11709 003e 13       		.uleb128 0x13
 11710 003f 3A       		.uleb128 0x3a
 11711 0040 0B       		.uleb128 0xb
 11712 0041 3B       		.uleb128 0x3b
 11713 0042 0B       		.uleb128 0xb
 11714 0043 01       		.uleb128 0x1
 11715 0044 13       		.uleb128 0x13
 11716 0045 00       		.byte	0
 11717 0046 00       		.byte	0
 11718 0047 06       		.uleb128 0x6
 11719 0048 28       		.uleb128 0x28
 11720 0049 00       		.byte	0
 11721 004a 03       		.uleb128 0x3
 11722 004b 0E       		.uleb128 0xe
 11723 004c 1C       		.uleb128 0x1c
 11724 004d 0B       		.uleb128 0xb
 11725 004e 00       		.byte	0
 11726 004f 00       		.byte	0
 11727 0050 07       		.uleb128 0x7
 11728 0051 13       		.uleb128 0x13
 11729 0052 01       		.byte	0x1
 11730 0053 03       		.uleb128 0x3
 11731 0054 0E       		.uleb128 0xe
 11732 0055 0B       		.uleb128 0xb
 11733 0056 0B       		.uleb128 0xb
 11734 0057 3A       		.uleb128 0x3a
 11735 0058 0B       		.uleb128 0xb
 11736 0059 3B       		.uleb128 0x3b
 11737 005a 0B       		.uleb128 0xb
 11738 005b 01       		.uleb128 0x1
ARM GAS  C:\Users\rdn\AppData\Local\Temp\cc5zc0m9.s 			page 238


 11739 005c 13       		.uleb128 0x13
 11740 005d 00       		.byte	0
 11741 005e 00       		.byte	0
 11742 005f 08       		.uleb128 0x8
 11743 0060 0D       		.uleb128 0xd
 11744 0061 00       		.byte	0
 11745 0062 03       		.uleb128 0x3
 11746 0063 08       		.uleb128 0x8
 11747 0064 3A       		.uleb128 0x3a
 11748 0065 0B       		.uleb128 0xb
 11749 0066 3B       		.uleb128 0x3b
 11750 0067 0B       		.uleb128 0xb
 11751 0068 49       		.uleb128 0x49
 11752 0069 13       		.uleb128 0x13
 11753 006a 38       		.uleb128 0x38
 11754 006b 0B       		.uleb128 0xb
 11755 006c 00       		.byte	0
 11756 006d 00       		.byte	0
 11757 006e 09       		.uleb128 0x9
 11758 006f 13       		.uleb128 0x13
 11759 0070 01       		.byte	0x1
 11760 0071 03       		.uleb128 0x3
 11761 0072 0E       		.uleb128 0xe
 11762 0073 0B       		.uleb128 0xb
 11763 0074 05       		.uleb128 0x5
 11764 0075 3A       		.uleb128 0x3a
 11765 0076 0B       		.uleb128 0xb
 11766 0077 3B       		.uleb128 0x3b
 11767 0078 0B       		.uleb128 0xb
 11768 0079 01       		.uleb128 0x1
 11769 007a 13       		.uleb128 0x13
 11770 007b 00       		.byte	0
 11771 007c 00       		.byte	0
 11772 007d 0A       		.uleb128 0xa
 11773 007e 0D       		.uleb128 0xd
 11774 007f 00       		.byte	0
 11775 0080 03       		.uleb128 0x3
 11776 0081 0E       		.uleb128 0xe
 11777 0082 3A       		.uleb128 0x3a
 11778 0083 0B       		.uleb128 0xb
 11779 0084 3B       		.uleb128 0x3b
 11780 0085 0B       		.uleb128 0xb
 11781 0086 49       		.uleb128 0x49
 11782 0087 13       		.uleb128 0x13
 11783 0088 38       		.uleb128 0x38
 11784 0089 0B       		.uleb128 0xb
 11785 008a 00       		.byte	0
 11786 008b 00       		.byte	0
 11787 008c 0B       		.uleb128 0xb
 11788 008d 0D       		.uleb128 0xd
 11789 008e 00       		.byte	0
 11790 008f 03       		.uleb128 0x3
 11791 0090 0E       		.uleb128 0xe
 11792 0091 3A       		.uleb128 0x3a
 11793 0092 0B       		.uleb128 0xb
 11794 0093 3B       		.uleb128 0x3b
 11795 0094 0B       		.uleb128 0xb
ARM GAS  C:\Users\rdn\AppData\Local\Temp\cc5zc0m9.s 			page 239


 11796 0095 49       		.uleb128 0x49
 11797 0096 13       		.uleb128 0x13
 11798 0097 38       		.uleb128 0x38
 11799 0098 05       		.uleb128 0x5
 11800 0099 00       		.byte	0
 11801 009a 00       		.byte	0
 11802 009b 0C       		.uleb128 0xc
 11803 009c 0D       		.uleb128 0xd
 11804 009d 00       		.byte	0
 11805 009e 03       		.uleb128 0x3
 11806 009f 08       		.uleb128 0x8
 11807 00a0 3A       		.uleb128 0x3a
 11808 00a1 0B       		.uleb128 0xb
 11809 00a2 3B       		.uleb128 0x3b
 11810 00a3 0B       		.uleb128 0xb
 11811 00a4 49       		.uleb128 0x49
 11812 00a5 13       		.uleb128 0x13
 11813 00a6 38       		.uleb128 0x38
 11814 00a7 05       		.uleb128 0x5
 11815 00a8 00       		.byte	0
 11816 00a9 00       		.byte	0
 11817 00aa 0D       		.uleb128 0xd
 11818 00ab 01       		.uleb128 0x1
 11819 00ac 01       		.byte	0x1
 11820 00ad 49       		.uleb128 0x49
 11821 00ae 13       		.uleb128 0x13
 11822 00af 01       		.uleb128 0x1
 11823 00b0 13       		.uleb128 0x13
 11824 00b1 00       		.byte	0
 11825 00b2 00       		.byte	0
 11826 00b3 0E       		.uleb128 0xe
 11827 00b4 21       		.uleb128 0x21
 11828 00b5 00       		.byte	0
 11829 00b6 49       		.uleb128 0x49
 11830 00b7 13       		.uleb128 0x13
 11831 00b8 2F       		.uleb128 0x2f
 11832 00b9 0B       		.uleb128 0xb
 11833 00ba 00       		.byte	0
 11834 00bb 00       		.byte	0
 11835 00bc 0F       		.uleb128 0xf
 11836 00bd 21       		.uleb128 0x21
 11837 00be 00       		.byte	0
 11838 00bf 49       		.uleb128 0x49
 11839 00c0 13       		.uleb128 0x13
 11840 00c1 2F       		.uleb128 0x2f
 11841 00c2 05       		.uleb128 0x5
 11842 00c3 00       		.byte	0
 11843 00c4 00       		.byte	0
 11844 00c5 10       		.uleb128 0x10
 11845 00c6 0F       		.uleb128 0xf
 11846 00c7 00       		.byte	0
 11847 00c8 0B       		.uleb128 0xb
 11848 00c9 0B       		.uleb128 0xb
 11849 00ca 49       		.uleb128 0x49
 11850 00cb 13       		.uleb128 0x13
 11851 00cc 00       		.byte	0
 11852 00cd 00       		.byte	0
ARM GAS  C:\Users\rdn\AppData\Local\Temp\cc5zc0m9.s 			page 240


 11853 00ce 11       		.uleb128 0x11
 11854 00cf 26       		.uleb128 0x26
 11855 00d0 00       		.byte	0
 11856 00d1 49       		.uleb128 0x49
 11857 00d2 13       		.uleb128 0x13
 11858 00d3 00       		.byte	0
 11859 00d4 00       		.byte	0
 11860 00d5 12       		.uleb128 0x12
 11861 00d6 2E       		.uleb128 0x2e
 11862 00d7 01       		.byte	0x1
 11863 00d8 03       		.uleb128 0x3
 11864 00d9 0E       		.uleb128 0xe
 11865 00da 3A       		.uleb128 0x3a
 11866 00db 0B       		.uleb128 0xb
 11867 00dc 3B       		.uleb128 0x3b
 11868 00dd 0B       		.uleb128 0xb
 11869 00de 27       		.uleb128 0x27
 11870 00df 19       		.uleb128 0x19
 11871 00e0 49       		.uleb128 0x49
 11872 00e1 13       		.uleb128 0x13
 11873 00e2 20       		.uleb128 0x20
 11874 00e3 0B       		.uleb128 0xb
 11875 00e4 01       		.uleb128 0x1
 11876 00e5 13       		.uleb128 0x13
 11877 00e6 00       		.byte	0
 11878 00e7 00       		.byte	0
 11879 00e8 13       		.uleb128 0x13
 11880 00e9 05       		.uleb128 0x5
 11881 00ea 00       		.byte	0
 11882 00eb 03       		.uleb128 0x3
 11883 00ec 0E       		.uleb128 0xe
 11884 00ed 3A       		.uleb128 0x3a
 11885 00ee 0B       		.uleb128 0xb
 11886 00ef 3B       		.uleb128 0x3b
 11887 00f0 0B       		.uleb128 0xb
 11888 00f1 49       		.uleb128 0x49
 11889 00f2 13       		.uleb128 0x13
 11890 00f3 00       		.byte	0
 11891 00f4 00       		.byte	0
 11892 00f5 14       		.uleb128 0x14
 11893 00f6 05       		.uleb128 0x5
 11894 00f7 00       		.byte	0
 11895 00f8 03       		.uleb128 0x3
 11896 00f9 08       		.uleb128 0x8
 11897 00fa 3A       		.uleb128 0x3a
 11898 00fb 0B       		.uleb128 0xb
 11899 00fc 3B       		.uleb128 0x3b
 11900 00fd 0B       		.uleb128 0xb
 11901 00fe 49       		.uleb128 0x49
 11902 00ff 13       		.uleb128 0x13
 11903 0100 00       		.byte	0
 11904 0101 00       		.byte	0
 11905 0102 15       		.uleb128 0x15
 11906 0103 34       		.uleb128 0x34
 11907 0104 00       		.byte	0
 11908 0105 03       		.uleb128 0x3
 11909 0106 08       		.uleb128 0x8
ARM GAS  C:\Users\rdn\AppData\Local\Temp\cc5zc0m9.s 			page 241


 11910 0107 3A       		.uleb128 0x3a
 11911 0108 0B       		.uleb128 0xb
 11912 0109 3B       		.uleb128 0x3b
 11913 010a 0B       		.uleb128 0xb
 11914 010b 49       		.uleb128 0x49
 11915 010c 13       		.uleb128 0x13
 11916 010d 00       		.byte	0
 11917 010e 00       		.byte	0
 11918 010f 16       		.uleb128 0x16
 11919 0110 2E       		.uleb128 0x2e
 11920 0111 01       		.byte	0x1
 11921 0112 03       		.uleb128 0x3
 11922 0113 08       		.uleb128 0x8
 11923 0114 3A       		.uleb128 0x3a
 11924 0115 0B       		.uleb128 0xb
 11925 0116 3B       		.uleb128 0x3b
 11926 0117 05       		.uleb128 0x5
 11927 0118 27       		.uleb128 0x27
 11928 0119 19       		.uleb128 0x19
 11929 011a 49       		.uleb128 0x49
 11930 011b 13       		.uleb128 0x13
 11931 011c 20       		.uleb128 0x20
 11932 011d 0B       		.uleb128 0xb
 11933 011e 01       		.uleb128 0x1
 11934 011f 13       		.uleb128 0x13
 11935 0120 00       		.byte	0
 11936 0121 00       		.byte	0
 11937 0122 17       		.uleb128 0x17
 11938 0123 05       		.uleb128 0x5
 11939 0124 00       		.byte	0
 11940 0125 03       		.uleb128 0x3
 11941 0126 08       		.uleb128 0x8
 11942 0127 3A       		.uleb128 0x3a
 11943 0128 0B       		.uleb128 0xb
 11944 0129 3B       		.uleb128 0x3b
 11945 012a 05       		.uleb128 0x5
 11946 012b 49       		.uleb128 0x49
 11947 012c 13       		.uleb128 0x13
 11948 012d 00       		.byte	0
 11949 012e 00       		.byte	0
 11950 012f 18       		.uleb128 0x18
 11951 0130 34       		.uleb128 0x34
 11952 0131 00       		.byte	0
 11953 0132 03       		.uleb128 0x3
 11954 0133 08       		.uleb128 0x8
 11955 0134 3A       		.uleb128 0x3a
 11956 0135 0B       		.uleb128 0xb
 11957 0136 3B       		.uleb128 0x3b
 11958 0137 05       		.uleb128 0x5
 11959 0138 49       		.uleb128 0x49
 11960 0139 13       		.uleb128 0x13
 11961 013a 00       		.byte	0
 11962 013b 00       		.byte	0
 11963 013c 19       		.uleb128 0x19
 11964 013d 0B       		.uleb128 0xb
 11965 013e 01       		.byte	0x1
 11966 013f 00       		.byte	0
ARM GAS  C:\Users\rdn\AppData\Local\Temp\cc5zc0m9.s 			page 242


 11967 0140 00       		.byte	0
 11968 0141 1A       		.uleb128 0x1a
 11969 0142 2E       		.uleb128 0x2e
 11970 0143 01       		.byte	0x1
 11971 0144 03       		.uleb128 0x3
 11972 0145 0E       		.uleb128 0xe
 11973 0146 3A       		.uleb128 0x3a
 11974 0147 0B       		.uleb128 0xb
 11975 0148 3B       		.uleb128 0x3b
 11976 0149 0B       		.uleb128 0xb
 11977 014a 27       		.uleb128 0x27
 11978 014b 19       		.uleb128 0x19
 11979 014c 20       		.uleb128 0x20
 11980 014d 0B       		.uleb128 0xb
 11981 014e 01       		.uleb128 0x1
 11982 014f 13       		.uleb128 0x13
 11983 0150 00       		.byte	0
 11984 0151 00       		.byte	0
 11985 0152 1B       		.uleb128 0x1b
 11986 0153 34       		.uleb128 0x34
 11987 0154 00       		.byte	0
 11988 0155 03       		.uleb128 0x3
 11989 0156 0E       		.uleb128 0xe
 11990 0157 3A       		.uleb128 0x3a
 11991 0158 0B       		.uleb128 0xb
 11992 0159 3B       		.uleb128 0x3b
 11993 015a 0B       		.uleb128 0xb
 11994 015b 49       		.uleb128 0x49
 11995 015c 13       		.uleb128 0x13
 11996 015d 00       		.byte	0
 11997 015e 00       		.byte	0
 11998 015f 1C       		.uleb128 0x1c
 11999 0160 2E       		.uleb128 0x2e
 12000 0161 01       		.byte	0x1
 12001 0162 03       		.uleb128 0x3
 12002 0163 0E       		.uleb128 0xe
 12003 0164 3A       		.uleb128 0x3a
 12004 0165 0B       		.uleb128 0xb
 12005 0166 3B       		.uleb128 0x3b
 12006 0167 05       		.uleb128 0x5
 12007 0168 27       		.uleb128 0x27
 12008 0169 19       		.uleb128 0x19
 12009 016a 11       		.uleb128 0x11
 12010 016b 01       		.uleb128 0x1
 12011 016c 12       		.uleb128 0x12
 12012 016d 06       		.uleb128 0x6
 12013 016e 40       		.uleb128 0x40
 12014 016f 18       		.uleb128 0x18
 12015 0170 9742     		.uleb128 0x2117
 12016 0172 19       		.uleb128 0x19
 12017 0173 01       		.uleb128 0x1
 12018 0174 13       		.uleb128 0x13
 12019 0175 00       		.byte	0
 12020 0176 00       		.byte	0
 12021 0177 1D       		.uleb128 0x1d
 12022 0178 05       		.uleb128 0x5
 12023 0179 00       		.byte	0
ARM GAS  C:\Users\rdn\AppData\Local\Temp\cc5zc0m9.s 			page 243


 12024 017a 03       		.uleb128 0x3
 12025 017b 0E       		.uleb128 0xe
 12026 017c 3A       		.uleb128 0x3a
 12027 017d 0B       		.uleb128 0xb
 12028 017e 3B       		.uleb128 0x3b
 12029 017f 05       		.uleb128 0x5
 12030 0180 49       		.uleb128 0x49
 12031 0181 13       		.uleb128 0x13
 12032 0182 02       		.uleb128 0x2
 12033 0183 18       		.uleb128 0x18
 12034 0184 00       		.byte	0
 12035 0185 00       		.byte	0
 12036 0186 1E       		.uleb128 0x1e
 12037 0187 05       		.uleb128 0x5
 12038 0188 00       		.byte	0
 12039 0189 03       		.uleb128 0x3
 12040 018a 08       		.uleb128 0x8
 12041 018b 3A       		.uleb128 0x3a
 12042 018c 0B       		.uleb128 0xb
 12043 018d 3B       		.uleb128 0x3b
 12044 018e 05       		.uleb128 0x5
 12045 018f 49       		.uleb128 0x49
 12046 0190 13       		.uleb128 0x13
 12047 0191 02       		.uleb128 0x2
 12048 0192 17       		.uleb128 0x17
 12049 0193 00       		.byte	0
 12050 0194 00       		.byte	0
 12051 0195 1F       		.uleb128 0x1f
 12052 0196 1D       		.uleb128 0x1d
 12053 0197 01       		.byte	0x1
 12054 0198 31       		.uleb128 0x31
 12055 0199 13       		.uleb128 0x13
 12056 019a 11       		.uleb128 0x11
 12057 019b 01       		.uleb128 0x1
 12058 019c 12       		.uleb128 0x12
 12059 019d 06       		.uleb128 0x6
 12060 019e 58       		.uleb128 0x58
 12061 019f 0B       		.uleb128 0xb
 12062 01a0 59       		.uleb128 0x59
 12063 01a1 05       		.uleb128 0x5
 12064 01a2 00       		.byte	0
 12065 01a3 00       		.byte	0
 12066 01a4 20       		.uleb128 0x20
 12067 01a5 05       		.uleb128 0x5
 12068 01a6 00       		.byte	0
 12069 01a7 31       		.uleb128 0x31
 12070 01a8 13       		.uleb128 0x13
 12071 01a9 02       		.uleb128 0x2
 12072 01aa 17       		.uleb128 0x17
 12073 01ab 00       		.byte	0
 12074 01ac 00       		.byte	0
 12075 01ad 21       		.uleb128 0x21
 12076 01ae 05       		.uleb128 0x5
 12077 01af 00       		.byte	0
 12078 01b0 31       		.uleb128 0x31
 12079 01b1 13       		.uleb128 0x13
 12080 01b2 02       		.uleb128 0x2
ARM GAS  C:\Users\rdn\AppData\Local\Temp\cc5zc0m9.s 			page 244


 12081 01b3 18       		.uleb128 0x18
 12082 01b4 00       		.byte	0
 12083 01b5 00       		.byte	0
 12084 01b6 22       		.uleb128 0x22
 12085 01b7 05       		.uleb128 0x5
 12086 01b8 00       		.byte	0
 12087 01b9 31       		.uleb128 0x31
 12088 01ba 13       		.uleb128 0x13
 12089 01bb 1C       		.uleb128 0x1c
 12090 01bc 0B       		.uleb128 0xb
 12091 01bd 00       		.byte	0
 12092 01be 00       		.byte	0
 12093 01bf 23       		.uleb128 0x23
 12094 01c0 0B       		.uleb128 0xb
 12095 01c1 01       		.byte	0x1
 12096 01c2 11       		.uleb128 0x11
 12097 01c3 01       		.uleb128 0x1
 12098 01c4 12       		.uleb128 0x12
 12099 01c5 06       		.uleb128 0x6
 12100 01c6 00       		.byte	0
 12101 01c7 00       		.byte	0
 12102 01c8 24       		.uleb128 0x24
 12103 01c9 34       		.uleb128 0x34
 12104 01ca 00       		.byte	0
 12105 01cb 31       		.uleb128 0x31
 12106 01cc 13       		.uleb128 0x13
 12107 01cd 1C       		.uleb128 0x1c
 12108 01ce 0B       		.uleb128 0xb
 12109 01cf 00       		.byte	0
 12110 01d0 00       		.byte	0
 12111 01d1 25       		.uleb128 0x25
 12112 01d2 34       		.uleb128 0x34
 12113 01d3 00       		.byte	0
 12114 01d4 31       		.uleb128 0x31
 12115 01d5 13       		.uleb128 0x13
 12116 01d6 02       		.uleb128 0x2
 12117 01d7 17       		.uleb128 0x17
 12118 01d8 00       		.byte	0
 12119 01d9 00       		.byte	0
 12120 01da 26       		.uleb128 0x26
 12121 01db 0B       		.uleb128 0xb
 12122 01dc 01       		.byte	0x1
 12123 01dd 55       		.uleb128 0x55
 12124 01de 17       		.uleb128 0x17
 12125 01df 00       		.byte	0
 12126 01e0 00       		.byte	0
 12127 01e1 27       		.uleb128 0x27
 12128 01e2 34       		.uleb128 0x34
 12129 01e3 00       		.byte	0
 12130 01e4 31       		.uleb128 0x31
 12131 01e5 13       		.uleb128 0x13
 12132 01e6 00       		.byte	0
 12133 01e7 00       		.byte	0
 12134 01e8 28       		.uleb128 0x28
 12135 01e9 0B       		.uleb128 0xb
 12136 01ea 01       		.byte	0x1
 12137 01eb 55       		.uleb128 0x55
ARM GAS  C:\Users\rdn\AppData\Local\Temp\cc5zc0m9.s 			page 245


 12138 01ec 17       		.uleb128 0x17
 12139 01ed 01       		.uleb128 0x1
 12140 01ee 13       		.uleb128 0x13
 12141 01ef 00       		.byte	0
 12142 01f0 00       		.byte	0
 12143 01f1 29       		.uleb128 0x29
 12144 01f2 1D       		.uleb128 0x1d
 12145 01f3 01       		.byte	0x1
 12146 01f4 31       		.uleb128 0x31
 12147 01f5 13       		.uleb128 0x13
 12148 01f6 11       		.uleb128 0x11
 12149 01f7 01       		.uleb128 0x1
 12150 01f8 12       		.uleb128 0x12
 12151 01f9 06       		.uleb128 0x6
 12152 01fa 58       		.uleb128 0x58
 12153 01fb 0B       		.uleb128 0xb
 12154 01fc 59       		.uleb128 0x59
 12155 01fd 0B       		.uleb128 0xb
 12156 01fe 00       		.byte	0
 12157 01ff 00       		.byte	0
 12158 0200 2A       		.uleb128 0x2a
 12159 0201 2E       		.uleb128 0x2e
 12160 0202 01       		.byte	0x1
 12161 0203 03       		.uleb128 0x3
 12162 0204 0E       		.uleb128 0xe
 12163 0205 3A       		.uleb128 0x3a
 12164 0206 0B       		.uleb128 0xb
 12165 0207 3B       		.uleb128 0x3b
 12166 0208 05       		.uleb128 0x5
 12167 0209 27       		.uleb128 0x27
 12168 020a 19       		.uleb128 0x19
 12169 020b 20       		.uleb128 0x20
 12170 020c 0B       		.uleb128 0xb
 12171 020d 01       		.uleb128 0x1
 12172 020e 13       		.uleb128 0x13
 12173 020f 00       		.byte	0
 12174 0210 00       		.byte	0
 12175 0211 2B       		.uleb128 0x2b
 12176 0212 05       		.uleb128 0x5
 12177 0213 00       		.byte	0
 12178 0214 03       		.uleb128 0x3
 12179 0215 0E       		.uleb128 0xe
 12180 0216 3A       		.uleb128 0x3a
 12181 0217 0B       		.uleb128 0xb
 12182 0218 3B       		.uleb128 0x3b
 12183 0219 05       		.uleb128 0x5
 12184 021a 49       		.uleb128 0x49
 12185 021b 13       		.uleb128 0x13
 12186 021c 00       		.byte	0
 12187 021d 00       		.byte	0
 12188 021e 2C       		.uleb128 0x2c
 12189 021f 34       		.uleb128 0x34
 12190 0220 00       		.byte	0
 12191 0221 03       		.uleb128 0x3
 12192 0222 08       		.uleb128 0x8
 12193 0223 3A       		.uleb128 0x3a
 12194 0224 0B       		.uleb128 0xb
ARM GAS  C:\Users\rdn\AppData\Local\Temp\cc5zc0m9.s 			page 246


 12195 0225 3B       		.uleb128 0x3b
 12196 0226 05       		.uleb128 0x5
 12197 0227 49       		.uleb128 0x49
 12198 0228 13       		.uleb128 0x13
 12199 0229 1C       		.uleb128 0x1c
 12200 022a 0A       		.uleb128 0xa
 12201 022b 00       		.byte	0
 12202 022c 00       		.byte	0
 12203 022d 2D       		.uleb128 0x2d
 12204 022e 34       		.uleb128 0x34
 12205 022f 00       		.byte	0
 12206 0230 03       		.uleb128 0x3
 12207 0231 08       		.uleb128 0x8
 12208 0232 3A       		.uleb128 0x3a
 12209 0233 0B       		.uleb128 0xb
 12210 0234 3B       		.uleb128 0x3b
 12211 0235 05       		.uleb128 0x5
 12212 0236 49       		.uleb128 0x49
 12213 0237 13       		.uleb128 0x13
 12214 0238 02       		.uleb128 0x2
 12215 0239 18       		.uleb128 0x18
 12216 023a 00       		.byte	0
 12217 023b 00       		.byte	0
 12218 023c 2E       		.uleb128 0x2e
 12219 023d 05       		.uleb128 0x5
 12220 023e 00       		.byte	0
 12221 023f 03       		.uleb128 0x3
 12222 0240 08       		.uleb128 0x8
 12223 0241 3A       		.uleb128 0x3a
 12224 0242 0B       		.uleb128 0xb
 12225 0243 3B       		.uleb128 0x3b
 12226 0244 05       		.uleb128 0x5
 12227 0245 49       		.uleb128 0x49
 12228 0246 13       		.uleb128 0x13
 12229 0247 02       		.uleb128 0x2
 12230 0248 18       		.uleb128 0x18
 12231 0249 00       		.byte	0
 12232 024a 00       		.byte	0
 12233 024b 2F       		.uleb128 0x2f
 12234 024c 2E       		.uleb128 0x2e
 12235 024d 01       		.byte	0x1
 12236 024e 03       		.uleb128 0x3
 12237 024f 0E       		.uleb128 0xe
 12238 0250 3A       		.uleb128 0x3a
 12239 0251 0B       		.uleb128 0xb
 12240 0252 3B       		.uleb128 0x3b
 12241 0253 05       		.uleb128 0x5
 12242 0254 27       		.uleb128 0x27
 12243 0255 19       		.uleb128 0x19
 12244 0256 49       		.uleb128 0x49
 12245 0257 13       		.uleb128 0x13
 12246 0258 11       		.uleb128 0x11
 12247 0259 01       		.uleb128 0x1
 12248 025a 12       		.uleb128 0x12
 12249 025b 06       		.uleb128 0x6
 12250 025c 40       		.uleb128 0x40
 12251 025d 18       		.uleb128 0x18
ARM GAS  C:\Users\rdn\AppData\Local\Temp\cc5zc0m9.s 			page 247


 12252 025e 9742     		.uleb128 0x2117
 12253 0260 19       		.uleb128 0x19
 12254 0261 01       		.uleb128 0x1
 12255 0262 13       		.uleb128 0x13
 12256 0263 00       		.byte	0
 12257 0264 00       		.byte	0
 12258 0265 30       		.uleb128 0x30
 12259 0266 34       		.uleb128 0x34
 12260 0267 00       		.byte	0
 12261 0268 03       		.uleb128 0x3
 12262 0269 08       		.uleb128 0x8
 12263 026a 3A       		.uleb128 0x3a
 12264 026b 0B       		.uleb128 0xb
 12265 026c 3B       		.uleb128 0x3b
 12266 026d 05       		.uleb128 0x5
 12267 026e 49       		.uleb128 0x49
 12268 026f 13       		.uleb128 0x13
 12269 0270 02       		.uleb128 0x2
 12270 0271 17       		.uleb128 0x17
 12271 0272 00       		.byte	0
 12272 0273 00       		.byte	0
 12273 0274 31       		.uleb128 0x31
 12274 0275 34       		.uleb128 0x34
 12275 0276 00       		.byte	0
 12276 0277 03       		.uleb128 0x3
 12277 0278 0E       		.uleb128 0xe
 12278 0279 3A       		.uleb128 0x3a
 12279 027a 0B       		.uleb128 0xb
 12280 027b 3B       		.uleb128 0x3b
 12281 027c 05       		.uleb128 0x5
 12282 027d 49       		.uleb128 0x49
 12283 027e 13       		.uleb128 0x13
 12284 027f 02       		.uleb128 0x2
 12285 0280 17       		.uleb128 0x17
 12286 0281 00       		.byte	0
 12287 0282 00       		.byte	0
 12288 0283 32       		.uleb128 0x32
 12289 0284 34       		.uleb128 0x34
 12290 0285 00       		.byte	0
 12291 0286 03       		.uleb128 0x3
 12292 0287 0E       		.uleb128 0xe
 12293 0288 3A       		.uleb128 0x3a
 12294 0289 0B       		.uleb128 0xb
 12295 028a 3B       		.uleb128 0x3b
 12296 028b 05       		.uleb128 0x5
 12297 028c 49       		.uleb128 0x49
 12298 028d 13       		.uleb128 0x13
 12299 028e 02       		.uleb128 0x2
 12300 028f 18       		.uleb128 0x18
 12301 0290 00       		.byte	0
 12302 0291 00       		.byte	0
 12303 0292 33       		.uleb128 0x33
 12304 0293 05       		.uleb128 0x5
 12305 0294 00       		.byte	0
 12306 0295 03       		.uleb128 0x3
 12307 0296 0E       		.uleb128 0xe
 12308 0297 3A       		.uleb128 0x3a
ARM GAS  C:\Users\rdn\AppData\Local\Temp\cc5zc0m9.s 			page 248


 12309 0298 0B       		.uleb128 0xb
 12310 0299 3B       		.uleb128 0x3b
 12311 029a 05       		.uleb128 0x5
 12312 029b 49       		.uleb128 0x49
 12313 029c 13       		.uleb128 0x13
 12314 029d 02       		.uleb128 0x2
 12315 029e 17       		.uleb128 0x17
 12316 029f 00       		.byte	0
 12317 02a0 00       		.byte	0
 12318 02a1 34       		.uleb128 0x34
 12319 02a2 898201   		.uleb128 0x4109
 12320 02a5 01       		.byte	0x1
 12321 02a6 11       		.uleb128 0x11
 12322 02a7 01       		.uleb128 0x1
 12323 02a8 31       		.uleb128 0x31
 12324 02a9 13       		.uleb128 0x13
 12325 02aa 01       		.uleb128 0x1
 12326 02ab 13       		.uleb128 0x13
 12327 02ac 00       		.byte	0
 12328 02ad 00       		.byte	0
 12329 02ae 35       		.uleb128 0x35
 12330 02af 8A8201   		.uleb128 0x410a
 12331 02b2 00       		.byte	0
 12332 02b3 02       		.uleb128 0x2
 12333 02b4 18       		.uleb128 0x18
 12334 02b5 9142     		.uleb128 0x2111
 12335 02b7 18       		.uleb128 0x18
 12336 02b8 00       		.byte	0
 12337 02b9 00       		.byte	0
 12338 02ba 36       		.uleb128 0x36
 12339 02bb 898201   		.uleb128 0x4109
 12340 02be 01       		.byte	0x1
 12341 02bf 11       		.uleb128 0x11
 12342 02c0 01       		.uleb128 0x1
 12343 02c1 31       		.uleb128 0x31
 12344 02c2 13       		.uleb128 0x13
 12345 02c3 00       		.byte	0
 12346 02c4 00       		.byte	0
 12347 02c5 37       		.uleb128 0x37
 12348 02c6 34       		.uleb128 0x34
 12349 02c7 00       		.byte	0
 12350 02c8 03       		.uleb128 0x3
 12351 02c9 0E       		.uleb128 0xe
 12352 02ca 3A       		.uleb128 0x3a
 12353 02cb 0B       		.uleb128 0xb
 12354 02cc 3B       		.uleb128 0x3b
 12355 02cd 05       		.uleb128 0x5
 12356 02ce 49       		.uleb128 0x49
 12357 02cf 13       		.uleb128 0x13
 12358 02d0 00       		.byte	0
 12359 02d1 00       		.byte	0
 12360 02d2 38       		.uleb128 0x38
 12361 02d3 0B       		.uleb128 0xb
 12362 02d4 01       		.byte	0x1
 12363 02d5 01       		.uleb128 0x1
 12364 02d6 13       		.uleb128 0x13
 12365 02d7 00       		.byte	0
ARM GAS  C:\Users\rdn\AppData\Local\Temp\cc5zc0m9.s 			page 249


 12366 02d8 00       		.byte	0
 12367 02d9 39       		.uleb128 0x39
 12368 02da 34       		.uleb128 0x34
 12369 02db 00       		.byte	0
 12370 02dc 31       		.uleb128 0x31
 12371 02dd 13       		.uleb128 0x13
 12372 02de 02       		.uleb128 0x2
 12373 02df 18       		.uleb128 0x18
 12374 02e0 00       		.byte	0
 12375 02e1 00       		.byte	0
 12376 02e2 3A       		.uleb128 0x3a
 12377 02e3 0B       		.uleb128 0xb
 12378 02e4 01       		.byte	0x1
 12379 02e5 11       		.uleb128 0x11
 12380 02e6 01       		.uleb128 0x1
 12381 02e7 12       		.uleb128 0x12
 12382 02e8 06       		.uleb128 0x6
 12383 02e9 01       		.uleb128 0x1
 12384 02ea 13       		.uleb128 0x13
 12385 02eb 00       		.byte	0
 12386 02ec 00       		.byte	0
 12387 02ed 3B       		.uleb128 0x3b
 12388 02ee 34       		.uleb128 0x34
 12389 02ef 00       		.byte	0
 12390 02f0 03       		.uleb128 0x3
 12391 02f1 08       		.uleb128 0x8
 12392 02f2 3A       		.uleb128 0x3a
 12393 02f3 0B       		.uleb128 0xb
 12394 02f4 3B       		.uleb128 0x3b
 12395 02f5 05       		.uleb128 0x5
 12396 02f6 49       		.uleb128 0x49
 12397 02f7 13       		.uleb128 0x13
 12398 02f8 1C       		.uleb128 0x1c
 12399 02f9 0B       		.uleb128 0xb
 12400 02fa 00       		.byte	0
 12401 02fb 00       		.byte	0
 12402 02fc 3C       		.uleb128 0x3c
 12403 02fd 1D       		.uleb128 0x1d
 12404 02fe 01       		.byte	0x1
 12405 02ff 31       		.uleb128 0x31
 12406 0300 13       		.uleb128 0x13
 12407 0301 11       		.uleb128 0x11
 12408 0302 01       		.uleb128 0x1
 12409 0303 12       		.uleb128 0x12
 12410 0304 06       		.uleb128 0x6
 12411 0305 58       		.uleb128 0x58
 12412 0306 0B       		.uleb128 0xb
 12413 0307 59       		.uleb128 0x59
 12414 0308 05       		.uleb128 0x5
 12415 0309 01       		.uleb128 0x1
 12416 030a 13       		.uleb128 0x13
 12417 030b 00       		.byte	0
 12418 030c 00       		.byte	0
 12419 030d 3D       		.uleb128 0x3d
 12420 030e 05       		.uleb128 0x5
 12421 030f 00       		.byte	0
 12422 0310 31       		.uleb128 0x31
ARM GAS  C:\Users\rdn\AppData\Local\Temp\cc5zc0m9.s 			page 250


 12423 0311 13       		.uleb128 0x13
 12424 0312 00       		.byte	0
 12425 0313 00       		.byte	0
 12426 0314 3E       		.uleb128 0x3e
 12427 0315 898201   		.uleb128 0x4109
 12428 0318 00       		.byte	0
 12429 0319 11       		.uleb128 0x11
 12430 031a 01       		.uleb128 0x1
 12431 031b 31       		.uleb128 0x31
 12432 031c 13       		.uleb128 0x13
 12433 031d 00       		.byte	0
 12434 031e 00       		.byte	0
 12435 031f 3F       		.uleb128 0x3f
 12436 0320 2E       		.uleb128 0x2e
 12437 0321 01       		.byte	0x1
 12438 0322 3F       		.uleb128 0x3f
 12439 0323 19       		.uleb128 0x19
 12440 0324 03       		.uleb128 0x3
 12441 0325 0E       		.uleb128 0xe
 12442 0326 3A       		.uleb128 0x3a
 12443 0327 0B       		.uleb128 0xb
 12444 0328 3B       		.uleb128 0x3b
 12445 0329 05       		.uleb128 0x5
 12446 032a 27       		.uleb128 0x27
 12447 032b 19       		.uleb128 0x19
 12448 032c 49       		.uleb128 0x49
 12449 032d 13       		.uleb128 0x13
 12450 032e 11       		.uleb128 0x11
 12451 032f 01       		.uleb128 0x1
 12452 0330 12       		.uleb128 0x12
 12453 0331 06       		.uleb128 0x6
 12454 0332 40       		.uleb128 0x40
 12455 0333 18       		.uleb128 0x18
 12456 0334 9742     		.uleb128 0x2117
 12457 0336 19       		.uleb128 0x19
 12458 0337 01       		.uleb128 0x1
 12459 0338 13       		.uleb128 0x13
 12460 0339 00       		.byte	0
 12461 033a 00       		.byte	0
 12462 033b 40       		.uleb128 0x40
 12463 033c 34       		.uleb128 0x34
 12464 033d 00       		.byte	0
 12465 033e 03       		.uleb128 0x3
 12466 033f 0E       		.uleb128 0xe
 12467 0340 3A       		.uleb128 0x3a
 12468 0341 0B       		.uleb128 0xb
 12469 0342 3B       		.uleb128 0x3b
 12470 0343 05       		.uleb128 0x5
 12471 0344 49       		.uleb128 0x49
 12472 0345 13       		.uleb128 0x13
 12473 0346 1C       		.uleb128 0x1c
 12474 0347 05       		.uleb128 0x5
 12475 0348 00       		.byte	0
 12476 0349 00       		.byte	0
 12477 034a 41       		.uleb128 0x41
 12478 034b 34       		.uleb128 0x34
 12479 034c 00       		.byte	0
ARM GAS  C:\Users\rdn\AppData\Local\Temp\cc5zc0m9.s 			page 251


 12480 034d 03       		.uleb128 0x3
 12481 034e 0E       		.uleb128 0xe
 12482 034f 3A       		.uleb128 0x3a
 12483 0350 0B       		.uleb128 0xb
 12484 0351 3B       		.uleb128 0x3b
 12485 0352 05       		.uleb128 0x5
 12486 0353 49       		.uleb128 0x49
 12487 0354 13       		.uleb128 0x13
 12488 0355 1C       		.uleb128 0x1c
 12489 0356 0B       		.uleb128 0xb
 12490 0357 00       		.byte	0
 12491 0358 00       		.byte	0
 12492 0359 42       		.uleb128 0x42
 12493 035a 1D       		.uleb128 0x1d
 12494 035b 01       		.byte	0x1
 12495 035c 31       		.uleb128 0x31
 12496 035d 13       		.uleb128 0x13
 12497 035e 52       		.uleb128 0x52
 12498 035f 01       		.uleb128 0x1
 12499 0360 55       		.uleb128 0x55
 12500 0361 17       		.uleb128 0x17
 12501 0362 58       		.uleb128 0x58
 12502 0363 0B       		.uleb128 0xb
 12503 0364 59       		.uleb128 0x59
 12504 0365 05       		.uleb128 0x5
 12505 0366 01       		.uleb128 0x1
 12506 0367 13       		.uleb128 0x13
 12507 0368 00       		.byte	0
 12508 0369 00       		.byte	0
 12509 036a 43       		.uleb128 0x43
 12510 036b 898201   		.uleb128 0x4109
 12511 036e 01       		.byte	0x1
 12512 036f 11       		.uleb128 0x11
 12513 0370 01       		.uleb128 0x1
 12514 0371 9342     		.uleb128 0x2113
 12515 0373 18       		.uleb128 0x18
 12516 0374 01       		.uleb128 0x1
 12517 0375 13       		.uleb128 0x13
 12518 0376 00       		.byte	0
 12519 0377 00       		.byte	0
 12520 0378 44       		.uleb128 0x44
 12521 0379 2E       		.uleb128 0x2e
 12522 037a 01       		.byte	0x1
 12523 037b 3F       		.uleb128 0x3f
 12524 037c 19       		.uleb128 0x19
 12525 037d 03       		.uleb128 0x3
 12526 037e 0E       		.uleb128 0xe
 12527 037f 3A       		.uleb128 0x3a
 12528 0380 0B       		.uleb128 0xb
 12529 0381 3B       		.uleb128 0x3b
 12530 0382 05       		.uleb128 0x5
 12531 0383 27       		.uleb128 0x27
 12532 0384 19       		.uleb128 0x19
 12533 0385 11       		.uleb128 0x11
 12534 0386 01       		.uleb128 0x1
 12535 0387 12       		.uleb128 0x12
 12536 0388 06       		.uleb128 0x6
ARM GAS  C:\Users\rdn\AppData\Local\Temp\cc5zc0m9.s 			page 252


 12537 0389 40       		.uleb128 0x40
 12538 038a 18       		.uleb128 0x18
 12539 038b 9742     		.uleb128 0x2117
 12540 038d 19       		.uleb128 0x19
 12541 038e 01       		.uleb128 0x1
 12542 038f 13       		.uleb128 0x13
 12543 0390 00       		.byte	0
 12544 0391 00       		.byte	0
 12545 0392 45       		.uleb128 0x45
 12546 0393 898201   		.uleb128 0x4109
 12547 0396 01       		.byte	0x1
 12548 0397 11       		.uleb128 0x11
 12549 0398 01       		.uleb128 0x1
 12550 0399 01       		.uleb128 0x1
 12551 039a 13       		.uleb128 0x13
 12552 039b 00       		.byte	0
 12553 039c 00       		.byte	0
 12554 039d 46       		.uleb128 0x46
 12555 039e 34       		.uleb128 0x34
 12556 039f 00       		.byte	0
 12557 03a0 03       		.uleb128 0x3
 12558 03a1 0E       		.uleb128 0xe
 12559 03a2 3A       		.uleb128 0x3a
 12560 03a3 0B       		.uleb128 0xb
 12561 03a4 3B       		.uleb128 0x3b
 12562 03a5 0B       		.uleb128 0xb
 12563 03a6 49       		.uleb128 0x49
 12564 03a7 13       		.uleb128 0x13
 12565 03a8 02       		.uleb128 0x2
 12566 03a9 18       		.uleb128 0x18
 12567 03aa 00       		.byte	0
 12568 03ab 00       		.byte	0
 12569 03ac 47       		.uleb128 0x47
 12570 03ad 15       		.uleb128 0x15
 12571 03ae 01       		.byte	0x1
 12572 03af 27       		.uleb128 0x27
 12573 03b0 19       		.uleb128 0x19
 12574 03b1 01       		.uleb128 0x1
 12575 03b2 13       		.uleb128 0x13
 12576 03b3 00       		.byte	0
 12577 03b4 00       		.byte	0
 12578 03b5 48       		.uleb128 0x48
 12579 03b6 05       		.uleb128 0x5
 12580 03b7 00       		.byte	0
 12581 03b8 49       		.uleb128 0x49
 12582 03b9 13       		.uleb128 0x13
 12583 03ba 00       		.byte	0
 12584 03bb 00       		.byte	0
 12585 03bc 49       		.uleb128 0x49
 12586 03bd 34       		.uleb128 0x34
 12587 03be 00       		.byte	0
 12588 03bf 03       		.uleb128 0x3
 12589 03c0 0E       		.uleb128 0xe
 12590 03c1 3A       		.uleb128 0x3a
 12591 03c2 0B       		.uleb128 0xb
 12592 03c3 3B       		.uleb128 0x3b
 12593 03c4 0B       		.uleb128 0xb
ARM GAS  C:\Users\rdn\AppData\Local\Temp\cc5zc0m9.s 			page 253


 12594 03c5 49       		.uleb128 0x49
 12595 03c6 13       		.uleb128 0x13
 12596 03c7 3F       		.uleb128 0x3f
 12597 03c8 19       		.uleb128 0x19
 12598 03c9 3C       		.uleb128 0x3c
 12599 03ca 19       		.uleb128 0x19
 12600 03cb 00       		.byte	0
 12601 03cc 00       		.byte	0
 12602 03cd 4A       		.uleb128 0x4a
 12603 03ce 2E       		.uleb128 0x2e
 12604 03cf 00       		.byte	0
 12605 03d0 3F       		.uleb128 0x3f
 12606 03d1 19       		.uleb128 0x19
 12607 03d2 3C       		.uleb128 0x3c
 12608 03d3 19       		.uleb128 0x19
 12609 03d4 6E       		.uleb128 0x6e
 12610 03d5 0E       		.uleb128 0xe
 12611 03d6 03       		.uleb128 0x3
 12612 03d7 0E       		.uleb128 0xe
 12613 03d8 3A       		.uleb128 0x3a
 12614 03d9 0B       		.uleb128 0xb
 12615 03da 3B       		.uleb128 0x3b
 12616 03db 05       		.uleb128 0x5
 12617 03dc 00       		.byte	0
 12618 03dd 00       		.byte	0
 12619 03de 4B       		.uleb128 0x4b
 12620 03df 2E       		.uleb128 0x2e
 12621 03e0 00       		.byte	0
 12622 03e1 3F       		.uleb128 0x3f
 12623 03e2 19       		.uleb128 0x19
 12624 03e3 3C       		.uleb128 0x3c
 12625 03e4 19       		.uleb128 0x19
 12626 03e5 6E       		.uleb128 0x6e
 12627 03e6 0E       		.uleb128 0xe
 12628 03e7 03       		.uleb128 0x3
 12629 03e8 0E       		.uleb128 0xe
 12630 03e9 3A       		.uleb128 0x3a
 12631 03ea 0B       		.uleb128 0xb
 12632 03eb 3B       		.uleb128 0x3b
 12633 03ec 0B       		.uleb128 0xb
 12634 03ed 00       		.byte	0
 12635 03ee 00       		.byte	0
 12636 03ef 4C       		.uleb128 0x4c
 12637 03f0 2E       		.uleb128 0x2e
 12638 03f1 00       		.byte	0
 12639 03f2 3F       		.uleb128 0x3f
 12640 03f3 19       		.uleb128 0x19
 12641 03f4 3C       		.uleb128 0x3c
 12642 03f5 19       		.uleb128 0x19
 12643 03f6 6E       		.uleb128 0x6e
 12644 03f7 0E       		.uleb128 0xe
 12645 03f8 03       		.uleb128 0x3
 12646 03f9 0E       		.uleb128 0xe
 12647 03fa 00       		.byte	0
 12648 03fb 00       		.byte	0
 12649 03fc 00       		.byte	0
 12650              		.section	.debug_loc,"",%progbits
ARM GAS  C:\Users\rdn\AppData\Local\Temp\cc5zc0m9.s 			page 254


 12651              	.Ldebug_loc0:
 12652              	.LLST0:
 12653 0000 00000000 		.4byte	.LVL0
 12654 0004 10000000 		.4byte	.LVL3
 12655 0008 0100     		.2byte	0x1
 12656 000a 51       		.byte	0x51
 12657 000b 10000000 		.4byte	.LVL3
 12658 000f 56010000 		.4byte	.LVL40
 12659 0013 0200     		.2byte	0x2
 12660 0015 91       		.byte	0x91
 12661 0016 54       		.sleb128 -44
 12662 0017 56010000 		.4byte	.LVL40
 12663 001b 70010000 		.4byte	.LFE23
 12664 001f 0200     		.2byte	0x2
 12665 0021 7D       		.byte	0x7d
 12666 0022 54       		.sleb128 -44
 12667 0023 00000000 		.4byte	0
 12668 0027 00000000 		.4byte	0
 12669              	.LLST1:
 12670 002b 00000000 		.4byte	.LVL0
 12671 002f 12000000 		.4byte	.LVL4
 12672 0033 0100     		.2byte	0x1
 12673 0035 52       		.byte	0x52
 12674 0036 12000000 		.4byte	.LVL4
 12675 003a 70010000 		.4byte	.LFE23
 12676 003e 0400     		.2byte	0x4
 12677 0040 F3       		.byte	0xf3
 12678 0041 01       		.uleb128 0x1
 12679 0042 52       		.byte	0x52
 12680 0043 9F       		.byte	0x9f
 12681 0044 00000000 		.4byte	0
 12682 0048 00000000 		.4byte	0
 12683              	.LLST2:
 12684 004c 00000000 		.4byte	.LVL0
 12685 0050 12000000 		.4byte	.LVL4
 12686 0054 0100     		.2byte	0x1
 12687 0056 53       		.byte	0x53
 12688 0057 12000000 		.4byte	.LVL4
 12689 005b 70010000 		.4byte	.LFE23
 12690 005f 0100     		.2byte	0x1
 12691 0061 5E       		.byte	0x5e
 12692 0062 00000000 		.4byte	0
 12693 0066 00000000 		.4byte	0
 12694              	.LLST3:
 12695 006a 0A000000 		.4byte	.LVL1
 12696 006e 12000000 		.4byte	.LVL4
 12697 0072 0100     		.2byte	0x1
 12698 0074 53       		.byte	0x53
 12699 0075 12000000 		.4byte	.LVL4
 12700 0079 70010000 		.4byte	.LFE23
 12701 007d 0100     		.2byte	0x1
 12702 007f 5E       		.byte	0x5e
 12703 0080 00000000 		.4byte	0
 12704 0084 00000000 		.4byte	0
 12705              	.LLST4:
 12706 0088 0A000000 		.4byte	.LVL1
 12707 008c 3A010000 		.4byte	.LVL37
ARM GAS  C:\Users\rdn\AppData\Local\Temp\cc5zc0m9.s 			page 255


 12708 0090 0100     		.2byte	0x1
 12709 0092 52       		.byte	0x52
 12710 0093 3A010000 		.4byte	.LVL37
 12711 0097 46010000 		.4byte	.LVL39
 12712 009b 0300     		.2byte	0x3
 12713 009d 72       		.byte	0x72
 12714 009e 02       		.sleb128 2
 12715 009f 9F       		.byte	0x9f
 12716 00a0 46010000 		.4byte	.LVL39
 12717 00a4 70010000 		.4byte	.LFE23
 12718 00a8 0100     		.2byte	0x1
 12719 00aa 52       		.byte	0x52
 12720 00ab 00000000 		.4byte	0
 12721 00af 00000000 		.4byte	0
 12722              	.LLST5:
 12723 00b3 0A000000 		.4byte	.LVL1
 12724 00b7 0E000000 		.4byte	.LVL2
 12725 00bb 0100     		.2byte	0x1
 12726 00bd 51       		.byte	0x51
 12727 00be 0E000000 		.4byte	.LVL2
 12728 00c2 10000000 		.4byte	.LVL3
 12729 00c6 0300     		.2byte	0x3
 12730 00c8 71       		.byte	0x71
 12731 00c9 6E       		.sleb128 -18
 12732 00ca 9F       		.byte	0x9f
 12733 00cb 10000000 		.4byte	.LVL3
 12734 00cf 56010000 		.4byte	.LVL40
 12735 00d3 0600     		.2byte	0x6
 12736 00d5 91       		.byte	0x91
 12737 00d6 54       		.sleb128 -44
 12738 00d7 06       		.byte	0x6
 12739 00d8 42       		.byte	0x42
 12740 00d9 1C       		.byte	0x1c
 12741 00da 9F       		.byte	0x9f
 12742 00db 56010000 		.4byte	.LVL40
 12743 00df 70010000 		.4byte	.LFE23
 12744 00e3 0600     		.2byte	0x6
 12745 00e5 7D       		.byte	0x7d
 12746 00e6 54       		.sleb128 -44
 12747 00e7 06       		.byte	0x6
 12748 00e8 42       		.byte	0x42
 12749 00e9 1C       		.byte	0x1c
 12750 00ea 9F       		.byte	0x9f
 12751 00eb 00000000 		.4byte	0
 12752 00ef 00000000 		.4byte	0
 12753              	.LLST6:
 12754 00f3 0E000000 		.4byte	.LVL2
 12755 00f7 12000000 		.4byte	.LVL4
 12756 00fb 0200     		.2byte	0x2
 12757 00fd 30       		.byte	0x30
 12758 00fe 9F       		.byte	0x9f
 12759 00ff 12000000 		.4byte	.LVL4
 12760 0103 70010000 		.4byte	.LFE23
 12761 0107 0100     		.2byte	0x1
 12762 0109 51       		.byte	0x51
 12763 010a 00000000 		.4byte	0
 12764 010e 00000000 		.4byte	0
ARM GAS  C:\Users\rdn\AppData\Local\Temp\cc5zc0m9.s 			page 256


 12765              	.LLST7:
 12766 0112 2C000000 		.4byte	.LVL5
 12767 0116 4A000000 		.4byte	.LVL8
 12768 011a 0100     		.2byte	0x1
 12769 011c 58       		.byte	0x58
 12770 011d 4A000000 		.4byte	.LVL8
 12771 0121 56000000 		.4byte	.LVL10
 12772 0125 0300     		.2byte	0x3
 12773 0127 78       		.byte	0x78
 12774 0128 02       		.sleb128 2
 12775 0129 9F       		.byte	0x9f
 12776 012a 56000000 		.4byte	.LVL10
 12777 012e 62000000 		.4byte	.LVL12
 12778 0132 0300     		.2byte	0x3
 12779 0134 78       		.byte	0x78
 12780 0135 04       		.sleb128 4
 12781 0136 9F       		.byte	0x9f
 12782 0137 62000000 		.4byte	.LVL12
 12783 013b 6E000000 		.4byte	.LVL14
 12784 013f 0300     		.2byte	0x3
 12785 0141 78       		.byte	0x78
 12786 0142 06       		.sleb128 6
 12787 0143 9F       		.byte	0x9f
 12788 0144 6E000000 		.4byte	.LVL14
 12789 0148 7A000000 		.4byte	.LVL16
 12790 014c 0300     		.2byte	0x3
 12791 014e 78       		.byte	0x78
 12792 014f 08       		.sleb128 8
 12793 0150 9F       		.byte	0x9f
 12794 0151 7A000000 		.4byte	.LVL16
 12795 0155 86000000 		.4byte	.LVL18
 12796 0159 0300     		.2byte	0x3
 12797 015b 78       		.byte	0x78
 12798 015c 0A       		.sleb128 10
 12799 015d 9F       		.byte	0x9f
 12800 015e 86000000 		.4byte	.LVL18
 12801 0162 92000000 		.4byte	.LVL20
 12802 0166 0300     		.2byte	0x3
 12803 0168 78       		.byte	0x78
 12804 0169 0C       		.sleb128 12
 12805 016a 9F       		.byte	0x9f
 12806 016b 92000000 		.4byte	.LVL20
 12807 016f 9E000000 		.4byte	.LVL22
 12808 0173 0300     		.2byte	0x3
 12809 0175 78       		.byte	0x78
 12810 0176 0E       		.sleb128 14
 12811 0177 9F       		.byte	0x9f
 12812 0178 9E000000 		.4byte	.LVL22
 12813 017c AA000000 		.4byte	.LVL24
 12814 0180 0300     		.2byte	0x3
 12815 0182 78       		.byte	0x78
 12816 0183 10       		.sleb128 16
 12817 0184 9F       		.byte	0x9f
 12818 0185 AA000000 		.4byte	.LVL24
 12819 0189 B6000000 		.4byte	.LVL26
 12820 018d 0300     		.2byte	0x3
 12821 018f 78       		.byte	0x78
ARM GAS  C:\Users\rdn\AppData\Local\Temp\cc5zc0m9.s 			page 257


 12822 0190 12       		.sleb128 18
 12823 0191 9F       		.byte	0x9f
 12824 0192 B6000000 		.4byte	.LVL26
 12825 0196 C8000000 		.4byte	.LVL30
 12826 019a 0300     		.2byte	0x3
 12827 019c 78       		.byte	0x78
 12828 019d 14       		.sleb128 20
 12829 019e 9F       		.byte	0x9f
 12830 019f C8000000 		.4byte	.LVL30
 12831 01a3 D2000000 		.4byte	.LVL32
 12832 01a7 0100     		.2byte	0x1
 12833 01a9 58       		.byte	0x58
 12834 01aa 00000000 		.4byte	0
 12835 01ae 00000000 		.4byte	0
 12836              	.LLST8:
 12837 01b2 3E000000 		.4byte	.LVL6
 12838 01b6 46000000 		.4byte	.LVL7
 12839 01ba 0100     		.2byte	0x1
 12840 01bc 57       		.byte	0x57
 12841 01bd 46000000 		.4byte	.LVL7
 12842 01c1 52000000 		.4byte	.LVL9
 12843 01c5 0300     		.2byte	0x3
 12844 01c7 77       		.byte	0x77
 12845 01c8 02       		.sleb128 2
 12846 01c9 9F       		.byte	0x9f
 12847 01ca 52000000 		.4byte	.LVL9
 12848 01ce 5E000000 		.4byte	.LVL11
 12849 01d2 0300     		.2byte	0x3
 12850 01d4 77       		.byte	0x77
 12851 01d5 04       		.sleb128 4
 12852 01d6 9F       		.byte	0x9f
 12853 01d7 5E000000 		.4byte	.LVL11
 12854 01db 6A000000 		.4byte	.LVL13
 12855 01df 0300     		.2byte	0x3
 12856 01e1 77       		.byte	0x77
 12857 01e2 06       		.sleb128 6
 12858 01e3 9F       		.byte	0x9f
 12859 01e4 6A000000 		.4byte	.LVL13
 12860 01e8 76000000 		.4byte	.LVL15
 12861 01ec 0300     		.2byte	0x3
 12862 01ee 77       		.byte	0x77
 12863 01ef 08       		.sleb128 8
 12864 01f0 9F       		.byte	0x9f
 12865 01f1 76000000 		.4byte	.LVL15
 12866 01f5 82000000 		.4byte	.LVL17
 12867 01f9 0300     		.2byte	0x3
 12868 01fb 77       		.byte	0x77
 12869 01fc 0A       		.sleb128 10
 12870 01fd 9F       		.byte	0x9f
 12871 01fe 82000000 		.4byte	.LVL17
 12872 0202 8E000000 		.4byte	.LVL19
 12873 0206 0300     		.2byte	0x3
 12874 0208 77       		.byte	0x77
 12875 0209 0C       		.sleb128 12
 12876 020a 9F       		.byte	0x9f
 12877 020b 8E000000 		.4byte	.LVL19
 12878 020f 9A000000 		.4byte	.LVL21
ARM GAS  C:\Users\rdn\AppData\Local\Temp\cc5zc0m9.s 			page 258


 12879 0213 0300     		.2byte	0x3
 12880 0215 77       		.byte	0x77
 12881 0216 0E       		.sleb128 14
 12882 0217 9F       		.byte	0x9f
 12883 0218 9A000000 		.4byte	.LVL21
 12884 021c A6000000 		.4byte	.LVL23
 12885 0220 0300     		.2byte	0x3
 12886 0222 77       		.byte	0x77
 12887 0223 10       		.sleb128 16
 12888 0224 9F       		.byte	0x9f
 12889 0225 A6000000 		.4byte	.LVL23
 12890 0229 B2000000 		.4byte	.LVL25
 12891 022d 0300     		.2byte	0x3
 12892 022f 77       		.byte	0x77
 12893 0230 12       		.sleb128 18
 12894 0231 9F       		.byte	0x9f
 12895 0232 B2000000 		.4byte	.LVL25
 12896 0236 C4000000 		.4byte	.LVL29
 12897 023a 0300     		.2byte	0x3
 12898 023c 77       		.byte	0x77
 12899 023d 14       		.sleb128 20
 12900 023e 9F       		.byte	0x9f
 12901 023f C4000000 		.4byte	.LVL29
 12902 0243 D4000000 		.4byte	.LVL33
 12903 0247 0100     		.2byte	0x1
 12904 0249 57       		.byte	0x57
 12905 024a 00000000 		.4byte	0
 12906 024e 00000000 		.4byte	0
 12907              	.LLST9:
 12908 0252 3E000000 		.4byte	.LVL6
 12909 0256 46000000 		.4byte	.LVL7
 12910 025a 0200     		.2byte	0x2
 12911 025c 30       		.byte	0x30
 12912 025d 9F       		.byte	0x9f
 12913 025e 46000000 		.4byte	.LVL7
 12914 0262 76000000 		.4byte	.LVL15
 12915 0266 0100     		.2byte	0x1
 12916 0268 55       		.byte	0x55
 12917 0269 76000000 		.4byte	.LVL15
 12918 026d A6000000 		.4byte	.LVL23
 12919 0271 0100     		.2byte	0x1
 12920 0273 54       		.byte	0x54
 12921 0274 A6000000 		.4byte	.LVL23
 12922 0278 B2000000 		.4byte	.LVL25
 12923 027c 0100     		.2byte	0x1
 12924 027e 55       		.byte	0x55
 12925 027f B2000000 		.4byte	.LVL25
 12926 0283 BE000000 		.4byte	.LVL27
 12927 0287 0100     		.2byte	0x1
 12928 0289 54       		.byte	0x54
 12929 028a BE000000 		.4byte	.LVL27
 12930 028e 00010000 		.4byte	.LVL36
 12931 0292 0100     		.2byte	0x1
 12932 0294 55       		.byte	0x55
 12933 0295 00000000 		.4byte	0
 12934 0299 00000000 		.4byte	0
 12935              	.LLST10:
ARM GAS  C:\Users\rdn\AppData\Local\Temp\cc5zc0m9.s 			page 259


 12936 029d 3E000000 		.4byte	.LVL6
 12937 02a1 46000000 		.4byte	.LVL7
 12938 02a5 0200     		.2byte	0x2
 12939 02a7 30       		.byte	0x30
 12940 02a8 9F       		.byte	0x9f
 12941 02a9 46000000 		.4byte	.LVL7
 12942 02ad E6000000 		.4byte	.LVL34
 12943 02b1 0100     		.2byte	0x1
 12944 02b3 59       		.byte	0x59
 12945 02b4 00000000 		.4byte	0
 12946 02b8 00000000 		.4byte	0
 12947              	.LLST11:
 12948 02bc CE000000 		.4byte	.LVL31
 12949 02c0 00010000 		.4byte	.LVL36
 12950 02c4 0100     		.2byte	0x1
 12951 02c6 55       		.byte	0x55
 12952 02c7 00000000 		.4byte	0
 12953 02cb 00000000 		.4byte	0
 12954              	.LLST12:
 12955 02cf CE000000 		.4byte	.LVL31
 12956 02d3 3A010000 		.4byte	.LVL37
 12957 02d7 0100     		.2byte	0x1
 12958 02d9 50       		.byte	0x50
 12959 02da 00000000 		.4byte	0
 12960 02de 00000000 		.4byte	0
 12961              	.LLST13:
 12962 02e2 EE000000 		.4byte	.LVL35
 12963 02e6 3A010000 		.4byte	.LVL37
 12964 02ea 0100     		.2byte	0x1
 12965 02ec 53       		.byte	0x53
 12966 02ed 00000000 		.4byte	0
 12967 02f1 00000000 		.4byte	0
 12968              	.LLST14:
 12969 02f5 CE000000 		.4byte	.LVL31
 12970 02f9 46010000 		.4byte	.LVL39
 12971 02fd 0600     		.2byte	0x6
 12972 02ff 9E       		.byte	0x9e
 12973 0300 04       		.uleb128 0x4
 12974 0301 25A23882 		.4byte	0x8238a225
 12975 0305 00000000 		.4byte	0
 12976 0309 00000000 		.4byte	0
 12977              	.LLST15:
 12978 030d CE000000 		.4byte	.LVL31
 12979 0311 46010000 		.4byte	.LVL39
 12980 0315 0600     		.2byte	0x6
 12981 0317 0C       		.byte	0xc
 12982 0318 4111D13D 		.4byte	0x3dd11141
 12983 031c 9F       		.byte	0x9f
 12984 031d 00000000 		.4byte	0
 12985 0321 00000000 		.4byte	0
 12986              	.LLST16:
 12987 0325 CE000000 		.4byte	.LVL31
 12988 0329 46010000 		.4byte	.LVL39
 12989 032d 0600     		.2byte	0x6
 12990 032f 9E       		.byte	0x9e
 12991 0330 04       		.uleb128 0x4
 12992 0331 72C83382 		.4byte	0x8233c872
ARM GAS  C:\Users\rdn\AppData\Local\Temp\cc5zc0m9.s 			page 260


 12993 0335 00000000 		.4byte	0
 12994 0339 00000000 		.4byte	0
 12995              	.LLST17:
 12996 033d CE000000 		.4byte	.LVL31
 12997 0341 46010000 		.4byte	.LVL39
 12998 0345 0600     		.2byte	0x6
 12999 0347 0C       		.byte	0xc
 13000 0348 C61BE63E 		.4byte	0x3ee61bc6
 13001 034c 9F       		.byte	0x9f
 13002 034d 00000000 		.4byte	0
 13003 0351 00000000 		.4byte	0
 13004              	.LLST18:
 13005 0355 00000000 		.4byte	.LVL41
 13006 0359 10000000 		.4byte	.LVL44
 13007 035d 0100     		.2byte	0x1
 13008 035f 51       		.byte	0x51
 13009 0360 10000000 		.4byte	.LVL44
 13010 0364 8E010000 		.4byte	.LVL91
 13011 0368 0200     		.2byte	0x2
 13012 036a 91       		.byte	0x91
 13013 036b 54       		.sleb128 -44
 13014 036c 8E010000 		.4byte	.LVL91
 13015 0370 A8010000 		.4byte	.LFE28
 13016 0374 0200     		.2byte	0x2
 13017 0376 7D       		.byte	0x7d
 13018 0377 54       		.sleb128 -44
 13019 0378 00000000 		.4byte	0
 13020 037c 00000000 		.4byte	0
 13021              	.LLST19:
 13022 0380 00000000 		.4byte	.LVL41
 13023 0384 12000000 		.4byte	.LVL45
 13024 0388 0100     		.2byte	0x1
 13025 038a 52       		.byte	0x52
 13026 038b 12000000 		.4byte	.LVL45
 13027 038f A8010000 		.4byte	.LFE28
 13028 0393 0400     		.2byte	0x4
 13029 0395 F3       		.byte	0xf3
 13030 0396 01       		.uleb128 0x1
 13031 0397 52       		.byte	0x52
 13032 0398 9F       		.byte	0x9f
 13033 0399 00000000 		.4byte	0
 13034 039d 00000000 		.4byte	0
 13035              	.LLST20:
 13036 03a1 00000000 		.4byte	.LVL41
 13037 03a5 12000000 		.4byte	.LVL45
 13038 03a9 0100     		.2byte	0x1
 13039 03ab 53       		.byte	0x53
 13040 03ac 12000000 		.4byte	.LVL45
 13041 03b0 A8010000 		.4byte	.LFE28
 13042 03b4 0100     		.2byte	0x1
 13043 03b6 5E       		.byte	0x5e
 13044 03b7 00000000 		.4byte	0
 13045 03bb 00000000 		.4byte	0
 13046              	.LLST21:
 13047 03bf 0A000000 		.4byte	.LVL42
 13048 03c3 12000000 		.4byte	.LVL45
 13049 03c7 0100     		.2byte	0x1
ARM GAS  C:\Users\rdn\AppData\Local\Temp\cc5zc0m9.s 			page 261


 13050 03c9 53       		.byte	0x53
 13051 03ca 12000000 		.4byte	.LVL45
 13052 03ce A8010000 		.4byte	.LFE28
 13053 03d2 0100     		.2byte	0x1
 13054 03d4 5E       		.byte	0x5e
 13055 03d5 00000000 		.4byte	0
 13056 03d9 00000000 		.4byte	0
 13057              	.LLST22:
 13058 03dd 0A000000 		.4byte	.LVL42
 13059 03e1 72010000 		.4byte	.LVL88
 13060 03e5 0100     		.2byte	0x1
 13061 03e7 52       		.byte	0x52
 13062 03e8 72010000 		.4byte	.LVL88
 13063 03ec 7E010000 		.4byte	.LVL90
 13064 03f0 0300     		.2byte	0x3
 13065 03f2 72       		.byte	0x72
 13066 03f3 02       		.sleb128 2
 13067 03f4 9F       		.byte	0x9f
 13068 03f5 7E010000 		.4byte	.LVL90
 13069 03f9 A8010000 		.4byte	.LFE28
 13070 03fd 0100     		.2byte	0x1
 13071 03ff 52       		.byte	0x52
 13072 0400 00000000 		.4byte	0
 13073 0404 00000000 		.4byte	0
 13074              	.LLST23:
 13075 0408 0A000000 		.4byte	.LVL42
 13076 040c 0E000000 		.4byte	.LVL43
 13077 0410 0100     		.2byte	0x1
 13078 0412 51       		.byte	0x51
 13079 0413 0E000000 		.4byte	.LVL43
 13080 0417 10000000 		.4byte	.LVL44
 13081 041b 0400     		.2byte	0x4
 13082 041d 71       		.byte	0x71
 13083 041e 927E     		.sleb128 -238
 13084 0420 9F       		.byte	0x9f
 13085 0421 10000000 		.4byte	.LVL44
 13086 0425 8E010000 		.4byte	.LVL91
 13087 0429 0700     		.2byte	0x7
 13088 042b 91       		.byte	0x91
 13089 042c 54       		.sleb128 -44
 13090 042d 06       		.byte	0x6
 13091 042e 08       		.byte	0x8
 13092 042f EE       		.byte	0xee
 13093 0430 1C       		.byte	0x1c
 13094 0431 9F       		.byte	0x9f
 13095 0432 8E010000 		.4byte	.LVL91
 13096 0436 A8010000 		.4byte	.LFE28
 13097 043a 0700     		.2byte	0x7
 13098 043c 7D       		.byte	0x7d
 13099 043d 54       		.sleb128 -44
 13100 043e 06       		.byte	0x6
 13101 043f 08       		.byte	0x8
 13102 0440 EE       		.byte	0xee
 13103 0441 1C       		.byte	0x1c
 13104 0442 9F       		.byte	0x9f
 13105 0443 00000000 		.4byte	0
 13106 0447 00000000 		.4byte	0
ARM GAS  C:\Users\rdn\AppData\Local\Temp\cc5zc0m9.s 			page 262


 13107              	.LLST24:
 13108 044b 0E000000 		.4byte	.LVL43
 13109 044f 12000000 		.4byte	.LVL45
 13110 0453 0200     		.2byte	0x2
 13111 0455 30       		.byte	0x30
 13112 0456 9F       		.byte	0x9f
 13113 0457 12000000 		.4byte	.LVL45
 13114 045b A8010000 		.4byte	.LFE28
 13115 045f 0100     		.2byte	0x1
 13116 0461 51       		.byte	0x51
 13117 0462 00000000 		.4byte	0
 13118 0466 00000000 		.4byte	0
 13119              	.LLST25:
 13120 046a 2C000000 		.4byte	.LVL46
 13121 046e 46000000 		.4byte	.LVL49
 13122 0472 0100     		.2byte	0x1
 13123 0474 58       		.byte	0x58
 13124 0475 46000000 		.4byte	.LVL49
 13125 0479 52000000 		.4byte	.LVL51
 13126 047d 0300     		.2byte	0x3
 13127 047f 78       		.byte	0x78
 13128 0480 02       		.sleb128 2
 13129 0481 9F       		.byte	0x9f
 13130 0482 52000000 		.4byte	.LVL51
 13131 0486 5E000000 		.4byte	.LVL53
 13132 048a 0300     		.2byte	0x3
 13133 048c 78       		.byte	0x78
 13134 048d 04       		.sleb128 4
 13135 048e 9F       		.byte	0x9f
 13136 048f 5E000000 		.4byte	.LVL53
 13137 0493 6A000000 		.4byte	.LVL55
 13138 0497 0300     		.2byte	0x3
 13139 0499 78       		.byte	0x78
 13140 049a 06       		.sleb128 6
 13141 049b 9F       		.byte	0x9f
 13142 049c 6A000000 		.4byte	.LVL55
 13143 04a0 76000000 		.4byte	.LVL57
 13144 04a4 0300     		.2byte	0x3
 13145 04a6 78       		.byte	0x78
 13146 04a7 08       		.sleb128 8
 13147 04a8 9F       		.byte	0x9f
 13148 04a9 76000000 		.4byte	.LVL57
 13149 04ad 82000000 		.4byte	.LVL59
 13150 04b1 0300     		.2byte	0x3
 13151 04b3 78       		.byte	0x78
 13152 04b4 0A       		.sleb128 10
 13153 04b5 9F       		.byte	0x9f
 13154 04b6 82000000 		.4byte	.LVL59
 13155 04ba 8E000000 		.4byte	.LVL61
 13156 04be 0300     		.2byte	0x3
 13157 04c0 78       		.byte	0x78
 13158 04c1 0C       		.sleb128 12
 13159 04c2 9F       		.byte	0x9f
 13160 04c3 8E000000 		.4byte	.LVL61
 13161 04c7 9A000000 		.4byte	.LVL63
 13162 04cb 0300     		.2byte	0x3
 13163 04cd 78       		.byte	0x78
ARM GAS  C:\Users\rdn\AppData\Local\Temp\cc5zc0m9.s 			page 263


 13164 04ce 0E       		.sleb128 14
 13165 04cf 9F       		.byte	0x9f
 13166 04d0 9A000000 		.4byte	.LVL63
 13167 04d4 A6000000 		.4byte	.LVL65
 13168 04d8 0300     		.2byte	0x3
 13169 04da 78       		.byte	0x78
 13170 04db 10       		.sleb128 16
 13171 04dc 9F       		.byte	0x9f
 13172 04dd A6000000 		.4byte	.LVL65
 13173 04e1 B2000000 		.4byte	.LVL67
 13174 04e5 0300     		.2byte	0x3
 13175 04e7 78       		.byte	0x78
 13176 04e8 12       		.sleb128 18
 13177 04e9 9F       		.byte	0x9f
 13178 04ea B2000000 		.4byte	.LVL67
 13179 04ee BE000000 		.4byte	.LVL69
 13180 04f2 0300     		.2byte	0x3
 13181 04f4 78       		.byte	0x78
 13182 04f5 14       		.sleb128 20
 13183 04f6 9F       		.byte	0x9f
 13184 04f7 BE000000 		.4byte	.LVL69
 13185 04fb CA000000 		.4byte	.LVL71
 13186 04ff 0300     		.2byte	0x3
 13187 0501 78       		.byte	0x78
 13188 0502 16       		.sleb128 22
 13189 0503 9F       		.byte	0x9f
 13190 0504 CA000000 		.4byte	.LVL71
 13191 0508 D6000000 		.4byte	.LVL73
 13192 050c 0300     		.2byte	0x3
 13193 050e 78       		.byte	0x78
 13194 050f 18       		.sleb128 24
 13195 0510 9F       		.byte	0x9f
 13196 0511 D6000000 		.4byte	.LVL73
 13197 0515 E2000000 		.4byte	.LVL75
 13198 0519 0300     		.2byte	0x3
 13199 051b 78       		.byte	0x78
 13200 051c 1A       		.sleb128 26
 13201 051d 9F       		.byte	0x9f
 13202 051e E2000000 		.4byte	.LVL75
 13203 0522 EE000000 		.4byte	.LVL77
 13204 0526 0300     		.2byte	0x3
 13205 0528 78       		.byte	0x78
 13206 0529 1C       		.sleb128 28
 13207 052a 9F       		.byte	0x9f
 13208 052b EE000000 		.4byte	.LVL77
 13209 052f 00010000 		.4byte	.LVL81
 13210 0533 0300     		.2byte	0x3
 13211 0535 78       		.byte	0x78
 13212 0536 1E       		.sleb128 30
 13213 0537 9F       		.byte	0x9f
 13214 0538 00010000 		.4byte	.LVL81
 13215 053c 0A010000 		.4byte	.LVL83
 13216 0540 0100     		.2byte	0x1
 13217 0542 58       		.byte	0x58
 13218 0543 00000000 		.4byte	0
 13219 0547 00000000 		.4byte	0
 13220              	.LLST26:
ARM GAS  C:\Users\rdn\AppData\Local\Temp\cc5zc0m9.s 			page 264


 13221 054b 3A000000 		.4byte	.LVL47
 13222 054f 42000000 		.4byte	.LVL48
 13223 0553 0100     		.2byte	0x1
 13224 0555 57       		.byte	0x57
 13225 0556 42000000 		.4byte	.LVL48
 13226 055a 4E000000 		.4byte	.LVL50
 13227 055e 0300     		.2byte	0x3
 13228 0560 77       		.byte	0x77
 13229 0561 02       		.sleb128 2
 13230 0562 9F       		.byte	0x9f
 13231 0563 4E000000 		.4byte	.LVL50
 13232 0567 5A000000 		.4byte	.LVL52
 13233 056b 0300     		.2byte	0x3
 13234 056d 77       		.byte	0x77
 13235 056e 04       		.sleb128 4
 13236 056f 9F       		.byte	0x9f
 13237 0570 5A000000 		.4byte	.LVL52
 13238 0574 66000000 		.4byte	.LVL54
 13239 0578 0300     		.2byte	0x3
 13240 057a 77       		.byte	0x77
 13241 057b 06       		.sleb128 6
 13242 057c 9F       		.byte	0x9f
 13243 057d 66000000 		.4byte	.LVL54
 13244 0581 72000000 		.4byte	.LVL56
 13245 0585 0300     		.2byte	0x3
 13246 0587 77       		.byte	0x77
 13247 0588 08       		.sleb128 8
 13248 0589 9F       		.byte	0x9f
 13249 058a 72000000 		.4byte	.LVL56
 13250 058e 7E000000 		.4byte	.LVL58
 13251 0592 0300     		.2byte	0x3
 13252 0594 77       		.byte	0x77
 13253 0595 0A       		.sleb128 10
 13254 0596 9F       		.byte	0x9f
 13255 0597 7E000000 		.4byte	.LVL58
 13256 059b 8A000000 		.4byte	.LVL60
 13257 059f 0300     		.2byte	0x3
 13258 05a1 77       		.byte	0x77
 13259 05a2 0C       		.sleb128 12
 13260 05a3 9F       		.byte	0x9f
 13261 05a4 8A000000 		.4byte	.LVL60
 13262 05a8 96000000 		.4byte	.LVL62
 13263 05ac 0300     		.2byte	0x3
 13264 05ae 77       		.byte	0x77
 13265 05af 0E       		.sleb128 14
 13266 05b0 9F       		.byte	0x9f
 13267 05b1 96000000 		.4byte	.LVL62
 13268 05b5 A2000000 		.4byte	.LVL64
 13269 05b9 0300     		.2byte	0x3
 13270 05bb 77       		.byte	0x77
 13271 05bc 10       		.sleb128 16
 13272 05bd 9F       		.byte	0x9f
 13273 05be A2000000 		.4byte	.LVL64
 13274 05c2 AE000000 		.4byte	.LVL66
 13275 05c6 0300     		.2byte	0x3
 13276 05c8 77       		.byte	0x77
 13277 05c9 12       		.sleb128 18
ARM GAS  C:\Users\rdn\AppData\Local\Temp\cc5zc0m9.s 			page 265


 13278 05ca 9F       		.byte	0x9f
 13279 05cb AE000000 		.4byte	.LVL66
 13280 05cf BA000000 		.4byte	.LVL68
 13281 05d3 0300     		.2byte	0x3
 13282 05d5 77       		.byte	0x77
 13283 05d6 14       		.sleb128 20
 13284 05d7 9F       		.byte	0x9f
 13285 05d8 BA000000 		.4byte	.LVL68
 13286 05dc C6000000 		.4byte	.LVL70
 13287 05e0 0300     		.2byte	0x3
 13288 05e2 77       		.byte	0x77
 13289 05e3 16       		.sleb128 22
 13290 05e4 9F       		.byte	0x9f
 13291 05e5 C6000000 		.4byte	.LVL70
 13292 05e9 D2000000 		.4byte	.LVL72
 13293 05ed 0300     		.2byte	0x3
 13294 05ef 77       		.byte	0x77
 13295 05f0 18       		.sleb128 24
 13296 05f1 9F       		.byte	0x9f
 13297 05f2 D2000000 		.4byte	.LVL72
 13298 05f6 DE000000 		.4byte	.LVL74
 13299 05fa 0300     		.2byte	0x3
 13300 05fc 77       		.byte	0x77
 13301 05fd 1A       		.sleb128 26
 13302 05fe 9F       		.byte	0x9f
 13303 05ff DE000000 		.4byte	.LVL74
 13304 0603 EA000000 		.4byte	.LVL76
 13305 0607 0300     		.2byte	0x3
 13306 0609 77       		.byte	0x77
 13307 060a 1C       		.sleb128 28
 13308 060b 9F       		.byte	0x9f
 13309 060c EA000000 		.4byte	.LVL76
 13310 0610 FC000000 		.4byte	.LVL80
 13311 0614 0300     		.2byte	0x3
 13312 0616 77       		.byte	0x77
 13313 0617 1E       		.sleb128 30
 13314 0618 9F       		.byte	0x9f
 13315 0619 FC000000 		.4byte	.LVL80
 13316 061d 0C010000 		.4byte	.LVL84
 13317 0621 0100     		.2byte	0x1
 13318 0623 57       		.byte	0x57
 13319 0624 00000000 		.4byte	0
 13320 0628 00000000 		.4byte	0
 13321              	.LLST27:
 13322 062c 3A000000 		.4byte	.LVL47
 13323 0630 42000000 		.4byte	.LVL48
 13324 0634 0200     		.2byte	0x2
 13325 0636 30       		.byte	0x30
 13326 0637 9F       		.byte	0x9f
 13327 0638 42000000 		.4byte	.LVL48
 13328 063c 72000000 		.4byte	.LVL56
 13329 0640 0100     		.2byte	0x1
 13330 0642 55       		.byte	0x55
 13331 0643 72000000 		.4byte	.LVL56
 13332 0647 DE000000 		.4byte	.LVL74
 13333 064b 0100     		.2byte	0x1
 13334 064d 54       		.byte	0x54
ARM GAS  C:\Users\rdn\AppData\Local\Temp\cc5zc0m9.s 			page 266


 13335 064e DE000000 		.4byte	.LVL74
 13336 0652 EA000000 		.4byte	.LVL76
 13337 0656 0100     		.2byte	0x1
 13338 0658 55       		.byte	0x55
 13339 0659 EA000000 		.4byte	.LVL76
 13340 065d F6000000 		.4byte	.LVL78
 13341 0661 0100     		.2byte	0x1
 13342 0663 54       		.byte	0x54
 13343 0664 F6000000 		.4byte	.LVL78
 13344 0668 38010000 		.4byte	.LVL87
 13345 066c 0100     		.2byte	0x1
 13346 066e 55       		.byte	0x55
 13347 066f 00000000 		.4byte	0
 13348 0673 00000000 		.4byte	0
 13349              	.LLST28:
 13350 0677 3A000000 		.4byte	.LVL47
 13351 067b 42000000 		.4byte	.LVL48
 13352 067f 0200     		.2byte	0x2
 13353 0681 30       		.byte	0x30
 13354 0682 9F       		.byte	0x9f
 13355 0683 42000000 		.4byte	.LVL48
 13356 0687 1E010000 		.4byte	.LVL85
 13357 068b 0100     		.2byte	0x1
 13358 068d 59       		.byte	0x59
 13359 068e 00000000 		.4byte	0
 13360 0692 00000000 		.4byte	0
 13361              	.LLST29:
 13362 0696 06010000 		.4byte	.LVL82
 13363 069a 38010000 		.4byte	.LVL87
 13364 069e 0100     		.2byte	0x1
 13365 06a0 55       		.byte	0x55
 13366 06a1 00000000 		.4byte	0
 13367 06a5 00000000 		.4byte	0
 13368              	.LLST30:
 13369 06a9 06010000 		.4byte	.LVL82
 13370 06ad 72010000 		.4byte	.LVL88
 13371 06b1 0100     		.2byte	0x1
 13372 06b3 50       		.byte	0x50
 13373 06b4 00000000 		.4byte	0
 13374 06b8 00000000 		.4byte	0
 13375              	.LLST31:
 13376 06bc 26010000 		.4byte	.LVL86
 13377 06c0 72010000 		.4byte	.LVL88
 13378 06c4 0100     		.2byte	0x1
 13379 06c6 53       		.byte	0x53
 13380 06c7 00000000 		.4byte	0
 13381 06cb 00000000 		.4byte	0
 13382              	.LLST32:
 13383 06cf 06010000 		.4byte	.LVL82
 13384 06d3 7E010000 		.4byte	.LVL90
 13385 06d7 0600     		.2byte	0x6
 13386 06d9 9E       		.byte	0x9e
 13387 06da 04       		.uleb128 0x4
 13388 06db 25A23882 		.4byte	0x8238a225
 13389 06df 00000000 		.4byte	0
 13390 06e3 00000000 		.4byte	0
 13391              	.LLST33:
ARM GAS  C:\Users\rdn\AppData\Local\Temp\cc5zc0m9.s 			page 267


 13392 06e7 06010000 		.4byte	.LVL82
 13393 06eb 7E010000 		.4byte	.LVL90
 13394 06ef 0600     		.2byte	0x6
 13395 06f1 0C       		.byte	0xc
 13396 06f2 4111D13D 		.4byte	0x3dd11141
 13397 06f6 9F       		.byte	0x9f
 13398 06f7 00000000 		.4byte	0
 13399 06fb 00000000 		.4byte	0
 13400              	.LLST34:
 13401 06ff 06010000 		.4byte	.LVL82
 13402 0703 7E010000 		.4byte	.LVL90
 13403 0707 0600     		.2byte	0x6
 13404 0709 9E       		.byte	0x9e
 13405 070a 04       		.uleb128 0x4
 13406 070b 72C83382 		.4byte	0x8233c872
 13407 070f 00000000 		.4byte	0
 13408 0713 00000000 		.4byte	0
 13409              	.LLST35:
 13410 0717 06010000 		.4byte	.LVL82
 13411 071b 7E010000 		.4byte	.LVL90
 13412 071f 0600     		.2byte	0x6
 13413 0721 0C       		.byte	0xc
 13414 0722 C61BE63E 		.4byte	0x3ee61bc6
 13415 0726 9F       		.byte	0x9f
 13416 0727 00000000 		.4byte	0
 13417 072b 00000000 		.4byte	0
 13418              	.LLST36:
 13419 072f 00000000 		.4byte	.LVL92
 13420 0733 08000000 		.4byte	.LVL94
 13421 0737 0100     		.2byte	0x1
 13422 0739 50       		.byte	0x50
 13423 073a 08000000 		.4byte	.LVL94
 13424 073e 30000000 		.4byte	.LVL96
 13425 0742 0100     		.2byte	0x1
 13426 0744 50       		.byte	0x50
 13427 0745 30000000 		.4byte	.LVL96
 13428 0749 3E000000 		.4byte	.LVL97
 13429 074d 0300     		.2byte	0x3
 13430 074f 70       		.byte	0x70
 13431 0750 7C       		.sleb128 -4
 13432 0751 9F       		.byte	0x9f
 13433 0752 3E000000 		.4byte	.LVL97
 13434 0756 48000000 		.4byte	.LFE29
 13435 075a 0100     		.2byte	0x1
 13436 075c 50       		.byte	0x50
 13437 075d 00000000 		.4byte	0
 13438 0761 00000000 		.4byte	0
 13439              	.LLST37:
 13440 0765 00000000 		.4byte	.LVL92
 13441 0769 0A000000 		.4byte	.LVL95
 13442 076d 0100     		.2byte	0x1
 13443 076f 51       		.byte	0x51
 13444 0770 0A000000 		.4byte	.LVL95
 13445 0774 40000000 		.4byte	.LVL98
 13446 0778 0300     		.2byte	0x3
 13447 077a 71       		.byte	0x71
 13448 077b 02       		.sleb128 2
ARM GAS  C:\Users\rdn\AppData\Local\Temp\cc5zc0m9.s 			page 268


 13449 077c 9F       		.byte	0x9f
 13450 077d 40000000 		.4byte	.LVL98
 13451 0781 48000000 		.4byte	.LFE29
 13452 0785 0100     		.2byte	0x1
 13453 0787 51       		.byte	0x51
 13454 0788 00000000 		.4byte	0
 13455 078c 00000000 		.4byte	0
 13456              	.LLST38:
 13457 0790 00000000 		.4byte	.LVL92
 13458 0794 06000000 		.4byte	.LVL93
 13459 0798 0100     		.2byte	0x1
 13460 079a 52       		.byte	0x52
 13461 079b 06000000 		.4byte	.LVL93
 13462 079f 48000000 		.4byte	.LFE29
 13463 07a3 0400     		.2byte	0x4
 13464 07a5 F3       		.byte	0xf3
 13465 07a6 01       		.uleb128 0x1
 13466 07a7 52       		.byte	0x52
 13467 07a8 9F       		.byte	0x9f
 13468 07a9 00000000 		.4byte	0
 13469 07ad 00000000 		.4byte	0
 13470              	.LLST39:
 13471 07b1 00000000 		.4byte	.LVL99
 13472 07b5 14000000 		.4byte	.LVL102
 13473 07b9 0100     		.2byte	0x1
 13474 07bb 51       		.byte	0x51
 13475 07bc 14000000 		.4byte	.LVL102
 13476 07c0 68000000 		.4byte	.LVL117
 13477 07c4 0100     		.2byte	0x1
 13478 07c6 5E       		.byte	0x5e
 13479 07c7 68000000 		.4byte	.LVL117
 13480 07cb 70000000 		.4byte	.LFE31
 13481 07cf 0100     		.2byte	0x1
 13482 07d1 51       		.byte	0x51
 13483 07d2 00000000 		.4byte	0
 13484 07d6 00000000 		.4byte	0
 13485              	.LLST40:
 13486 07da 00000000 		.4byte	.LVL99
 13487 07de 10000000 		.4byte	.LVL101
 13488 07e2 0100     		.2byte	0x1
 13489 07e4 53       		.byte	0x53
 13490 07e5 10000000 		.4byte	.LVL101
 13491 07e9 68000000 		.4byte	.LVL117
 13492 07ed 0100     		.2byte	0x1
 13493 07ef 5C       		.byte	0x5c
 13494 07f0 68000000 		.4byte	.LVL117
 13495 07f4 70000000 		.4byte	.LFE31
 13496 07f8 0100     		.2byte	0x1
 13497 07fa 53       		.byte	0x53
 13498 07fb 00000000 		.4byte	0
 13499 07ff 00000000 		.4byte	0
 13500              	.LLST41:
 13501 0803 14000000 		.4byte	.LVL102
 13502 0807 60000000 		.4byte	.LVL116
 13503 080b 0100     		.2byte	0x1
 13504 080d 52       		.byte	0x52
 13505 080e 00000000 		.4byte	0
ARM GAS  C:\Users\rdn\AppData\Local\Temp\cc5zc0m9.s 			page 269


 13506 0812 00000000 		.4byte	0
 13507              	.LLST42:
 13508 0816 14000000 		.4byte	.LVL102
 13509 081a 24000000 		.4byte	.LVL104
 13510 081e 0100     		.2byte	0x1
 13511 0820 51       		.byte	0x51
 13512 0821 24000000 		.4byte	.LVL104
 13513 0825 36000000 		.4byte	.LVL108
 13514 0829 0300     		.2byte	0x3
 13515 082b 71       		.byte	0x71
 13516 082c 02       		.sleb128 2
 13517 082d 9F       		.byte	0x9f
 13518 082e 36000000 		.4byte	.LVL108
 13519 0832 54000000 		.4byte	.LVL114
 13520 0836 0100     		.2byte	0x1
 13521 0838 51       		.byte	0x51
 13522 0839 00000000 		.4byte	0
 13523 083d 00000000 		.4byte	0
 13524              	.LLST43:
 13525 0841 14000000 		.4byte	.LVL102
 13526 0845 20000000 		.4byte	.LVL103
 13527 0849 0100     		.2byte	0x1
 13528 084b 50       		.byte	0x50
 13529 084c 20000000 		.4byte	.LVL103
 13530 0850 3A000000 		.4byte	.LVL109
 13531 0854 0300     		.2byte	0x3
 13532 0856 79       		.byte	0x79
 13533 0857 02       		.sleb128 2
 13534 0858 9F       		.byte	0x9f
 13535 0859 3A000000 		.4byte	.LVL109
 13536 085d 60000000 		.4byte	.LVL116
 13537 0861 0100     		.2byte	0x1
 13538 0863 59       		.byte	0x59
 13539 0864 00000000 		.4byte	0
 13540 0868 00000000 		.4byte	0
 13541              	.LLST44:
 13542 086c 14000000 		.4byte	.LVL102
 13543 0870 20000000 		.4byte	.LVL103
 13544 0874 0A00     		.2byte	0xa
 13545 0876 9E       		.byte	0x9e
 13546 0877 08       		.uleb128 0x8
 13547 0878 00000000 		.8byte	0
 13547      00000000 
 13548 0880 20000000 		.4byte	.LVL103
 13549 0884 2E000000 		.4byte	.LVL105
 13550 0888 0600     		.2byte	0x6
 13551 088a 56       		.byte	0x56
 13552 088b 93       		.byte	0x93
 13553 088c 04       		.uleb128 0x4
 13554 088d 57       		.byte	0x57
 13555 088e 93       		.byte	0x93
 13556 088f 04       		.uleb128 0x4
 13557 0890 32000000 		.4byte	.LVL106
 13558 0894 4E000000 		.4byte	.LVL113
 13559 0898 0600     		.2byte	0x6
 13560 089a 56       		.byte	0x56
 13561 089b 93       		.byte	0x93
ARM GAS  C:\Users\rdn\AppData\Local\Temp\cc5zc0m9.s 			page 270


 13562 089c 04       		.uleb128 0x4
 13563 089d 57       		.byte	0x57
 13564 089e 93       		.byte	0x93
 13565 089f 04       		.uleb128 0x4
 13566 08a0 00000000 		.4byte	0
 13567 08a4 00000000 		.4byte	0
 13568              	.LLST45:
 13569 08a8 58000000 		.4byte	.LVL115
 13570 08ac 60000000 		.4byte	.LVL116
 13571 08b0 0100     		.2byte	0x1
 13572 08b2 51       		.byte	0x51
 13573 08b3 00000000 		.4byte	0
 13574 08b7 00000000 		.4byte	0
 13575              	.LLST46:
 13576 08bb 14000000 		.4byte	.LVL102
 13577 08bf 20000000 		.4byte	.LVL103
 13578 08c3 0200     		.2byte	0x2
 13579 08c5 30       		.byte	0x30
 13580 08c6 9F       		.byte	0x9f
 13581 08c7 20000000 		.4byte	.LVL103
 13582 08cb 60000000 		.4byte	.LVL116
 13583 08cf 0100     		.2byte	0x1
 13584 08d1 5A       		.byte	0x5a
 13585 08d2 00000000 		.4byte	0
 13586 08d6 00000000 		.4byte	0
 13587              	.LLST47:
 13588 08da 20000000 		.4byte	.LVL103
 13589 08de 3C000000 		.4byte	.LVL110
 13590 08e2 0100     		.2byte	0x1
 13591 08e4 55       		.byte	0x55
 13592 08e5 3E000000 		.4byte	.LVL111
 13593 08e9 46000000 		.4byte	.LVL112
 13594 08ed 0100     		.2byte	0x1
 13595 08ef 55       		.byte	0x55
 13596 08f0 00000000 		.4byte	0
 13597 08f4 00000000 		.4byte	0
 13598              	.LLST48:
 13599 08f8 00000000 		.4byte	.LVL118
 13600 08fc 30000000 		.4byte	.LVL125
 13601 0900 0100     		.2byte	0x1
 13602 0902 50       		.byte	0x50
 13603 0903 30000000 		.4byte	.LVL125
 13604 0907 34000000 		.4byte	.LFE32
 13605 090b 0400     		.2byte	0x4
 13606 090d F3       		.byte	0xf3
 13607 090e 01       		.uleb128 0x1
 13608 090f 50       		.byte	0x50
 13609 0910 9F       		.byte	0x9f
 13610 0911 00000000 		.4byte	0
 13611 0915 00000000 		.4byte	0
 13612              	.LLST49:
 13613 0919 02000000 		.4byte	.LVL119
 13614 091d 0C000000 		.4byte	.LVL121
 13615 0921 0200     		.2byte	0x2
 13616 0923 30       		.byte	0x30
 13617 0924 9F       		.byte	0x9f
 13618 0925 0C000000 		.4byte	.LVL121
ARM GAS  C:\Users\rdn\AppData\Local\Temp\cc5zc0m9.s 			page 271


 13619 0929 22000000 		.4byte	.LVL122
 13620 092d 0100     		.2byte	0x1
 13621 092f 55       		.byte	0x55
 13622 0930 22000000 		.4byte	.LVL122
 13623 0934 28000000 		.4byte	.LVL123
 13624 0938 0100     		.2byte	0x1
 13625 093a 53       		.byte	0x53
 13626 093b 28000000 		.4byte	.LVL123
 13627 093f 32000000 		.4byte	.LVL126
 13628 0943 0100     		.2byte	0x1
 13629 0945 55       		.byte	0x55
 13630 0946 32000000 		.4byte	.LVL126
 13631 094a 34000000 		.4byte	.LFE32
 13632 094e 0100     		.2byte	0x1
 13633 0950 50       		.byte	0x50
 13634 0951 00000000 		.4byte	0
 13635 0955 00000000 		.4byte	0
 13636              	.LLST50:
 13637 0959 06000000 		.4byte	.LVL120
 13638 095d 0C000000 		.4byte	.LVL121
 13639 0961 0200     		.2byte	0x2
 13640 0963 31       		.byte	0x31
 13641 0964 9F       		.byte	0x9f
 13642 0965 0C000000 		.4byte	.LVL121
 13643 0969 34000000 		.4byte	.LFE32
 13644 096d 0100     		.2byte	0x1
 13645 096f 53       		.byte	0x53
 13646 0970 00000000 		.4byte	0
 13647 0974 00000000 		.4byte	0
 13648              	.LLST51:
 13649 0978 00000000 		.4byte	.LVL127
 13650 097c 44000000 		.4byte	.LVL137
 13651 0980 0100     		.2byte	0x1
 13652 0982 50       		.byte	0x50
 13653 0983 44000000 		.4byte	.LVL137
 13654 0987 48000000 		.4byte	.LFE33
 13655 098b 0400     		.2byte	0x4
 13656 098d F3       		.byte	0xf3
 13657 098e 01       		.uleb128 0x1
 13658 098f 50       		.byte	0x50
 13659 0990 9F       		.byte	0x9f
 13660 0991 00000000 		.4byte	0
 13661 0995 00000000 		.4byte	0
 13662              	.LLST52:
 13663 0999 02000000 		.4byte	.LVL128
 13664 099d 18000000 		.4byte	.LVL131
 13665 09a1 0200     		.2byte	0x2
 13666 09a3 30       		.byte	0x30
 13667 09a4 9F       		.byte	0x9f
 13668 09a5 18000000 		.4byte	.LVL131
 13669 09a9 2E000000 		.4byte	.LVL132
 13670 09ad 0100     		.2byte	0x1
 13671 09af 55       		.byte	0x55
 13672 09b0 2E000000 		.4byte	.LVL132
 13673 09b4 38000000 		.4byte	.LVL134
 13674 09b8 0100     		.2byte	0x1
 13675 09ba 53       		.byte	0x53
ARM GAS  C:\Users\rdn\AppData\Local\Temp\cc5zc0m9.s 			page 272


 13676 09bb 38000000 		.4byte	.LVL134
 13677 09bf 46000000 		.4byte	.LVL138
 13678 09c3 0100     		.2byte	0x1
 13679 09c5 55       		.byte	0x55
 13680 09c6 46000000 		.4byte	.LVL138
 13681 09ca 48000000 		.4byte	.LFE33
 13682 09ce 0100     		.2byte	0x1
 13683 09d0 50       		.byte	0x50
 13684 09d1 00000000 		.4byte	0
 13685 09d5 00000000 		.4byte	0
 13686              	.LLST53:
 13687 09d9 0A000000 		.4byte	.LVL129
 13688 09dd 32000000 		.4byte	.LVL133
 13689 09e1 0200     		.2byte	0x2
 13690 09e3 90       		.byte	0x90
 13691 09e4 4C       		.uleb128 0x4c
 13692 09e5 32000000 		.4byte	.LVL133
 13693 09e9 38000000 		.4byte	.LVL134
 13694 09ed 0200     		.2byte	0x2
 13695 09ef 90       		.byte	0x90
 13696 09f0 4E       		.uleb128 0x4e
 13697 09f1 38000000 		.4byte	.LVL134
 13698 09f5 48000000 		.4byte	.LFE33
 13699 09f9 0200     		.2byte	0x2
 13700 09fb 90       		.byte	0x90
 13701 09fc 4C       		.uleb128 0x4c
 13702 09fd 00000000 		.4byte	0
 13703 0a01 00000000 		.4byte	0
 13704              	.LLST54:
 13705 0a05 12000000 		.4byte	.LVL130
 13706 0a09 18000000 		.4byte	.LVL131
 13707 0a0d 0200     		.2byte	0x2
 13708 0a0f 31       		.byte	0x31
 13709 0a10 9F       		.byte	0x9f
 13710 0a11 18000000 		.4byte	.LVL131
 13711 0a15 48000000 		.4byte	.LFE33
 13712 0a19 0100     		.2byte	0x1
 13713 0a1b 53       		.byte	0x53
 13714 0a1c 00000000 		.4byte	0
 13715 0a20 00000000 		.4byte	0
 13716              	.LLST55:
 13717 0a24 00000000 		.4byte	.LVL139
 13718 0a28 14000000 		.4byte	.LVL143
 13719 0a2c 0100     		.2byte	0x1
 13720 0a2e 50       		.byte	0x50
 13721 0a2f 14000000 		.4byte	.LVL143
 13722 0a33 1E000000 		.4byte	.LVL146
 13723 0a37 0100     		.2byte	0x1
 13724 0a39 54       		.byte	0x54
 13725 0a3a 1E000000 		.4byte	.LVL146
 13726 0a3e 4A000000 		.4byte	.LVL150
 13727 0a42 0300     		.2byte	0x3
 13728 0a44 74       		.byte	0x74
 13729 0a45 02       		.sleb128 2
 13730 0a46 9F       		.byte	0x9f
 13731 0a47 4A000000 		.4byte	.LVL150
 13732 0a4b 72000000 		.4byte	.LVL154
ARM GAS  C:\Users\rdn\AppData\Local\Temp\cc5zc0m9.s 			page 273


 13733 0a4f 0300     		.2byte	0x3
 13734 0a51 74       		.byte	0x74
 13735 0a52 04       		.sleb128 4
 13736 0a53 9F       		.byte	0x9f
 13737 0a54 72000000 		.4byte	.LVL154
 13738 0a58 9A000000 		.4byte	.LVL158
 13739 0a5c 0300     		.2byte	0x3
 13740 0a5e 74       		.byte	0x74
 13741 0a5f 06       		.sleb128 6
 13742 0a60 9F       		.byte	0x9f
 13743 0a61 9A000000 		.4byte	.LVL158
 13744 0a65 C6000000 		.4byte	.LVL164
 13745 0a69 0300     		.2byte	0x3
 13746 0a6b 74       		.byte	0x74
 13747 0a6c 08       		.sleb128 8
 13748 0a6d 9F       		.byte	0x9f
 13749 0a6e C6000000 		.4byte	.LVL164
 13750 0a72 CE000000 		.4byte	.LVL165
 13751 0a76 0100     		.2byte	0x1
 13752 0a78 54       		.byte	0x54
 13753 0a79 00000000 		.4byte	0
 13754 0a7d 00000000 		.4byte	0
 13755              	.LLST56:
 13756 0a81 00000000 		.4byte	.LVL139
 13757 0a85 1C000000 		.4byte	.LVL145
 13758 0a89 0100     		.2byte	0x1
 13759 0a8b 51       		.byte	0x51
 13760 0a8c 1C000000 		.4byte	.LVL145
 13761 0a90 D4000000 		.4byte	.LFE34
 13762 0a94 0400     		.2byte	0x4
 13763 0a96 F3       		.byte	0xf3
 13764 0a97 01       		.uleb128 0x1
 13765 0a98 51       		.byte	0x51
 13766 0a99 9F       		.byte	0x9f
 13767 0a9a 00000000 		.4byte	0
 13768 0a9e 00000000 		.4byte	0
 13769              	.LLST57:
 13770 0aa2 00000000 		.4byte	.LVL139
 13771 0aa6 0A000000 		.4byte	.LVL140
 13772 0aaa 0100     		.2byte	0x1
 13773 0aac 52       		.byte	0x52
 13774 0aad 0A000000 		.4byte	.LVL140
 13775 0ab1 D4000000 		.4byte	.LFE34
 13776 0ab5 0400     		.2byte	0x4
 13777 0ab7 F3       		.byte	0xf3
 13778 0ab8 01       		.uleb128 0x1
 13779 0ab9 52       		.byte	0x52
 13780 0aba 9F       		.byte	0x9f
 13781 0abb 00000000 		.4byte	0
 13782 0abf 00000000 		.4byte	0
 13783              	.LLST58:
 13784 0ac3 00000000 		.4byte	.LVL139
 13785 0ac7 42000000 		.4byte	.LVL148
 13786 0acb 0100     		.2byte	0x1
 13787 0acd 53       		.byte	0x53
 13788 0ace 42000000 		.4byte	.LVL148
 13789 0ad2 6E000000 		.4byte	.LVL152
ARM GAS  C:\Users\rdn\AppData\Local\Temp\cc5zc0m9.s 			page 274


 13790 0ad6 0300     		.2byte	0x3
 13791 0ad8 73       		.byte	0x73
 13792 0ad9 02       		.sleb128 2
 13793 0ada 9F       		.byte	0x9f
 13794 0adb 6E000000 		.4byte	.LVL152
 13795 0adf 96000000 		.4byte	.LVL156
 13796 0ae3 0300     		.2byte	0x3
 13797 0ae5 73       		.byte	0x73
 13798 0ae6 04       		.sleb128 4
 13799 0ae7 9F       		.byte	0x9f
 13800 0ae8 96000000 		.4byte	.LVL156
 13801 0aec BE000000 		.4byte	.LVL160
 13802 0af0 0300     		.2byte	0x3
 13803 0af2 73       		.byte	0x73
 13804 0af3 06       		.sleb128 6
 13805 0af4 9F       		.byte	0x9f
 13806 0af5 BE000000 		.4byte	.LVL160
 13807 0af9 C4000000 		.4byte	.LVL163
 13808 0afd 0300     		.2byte	0x3
 13809 0aff 73       		.byte	0x73
 13810 0b00 08       		.sleb128 8
 13811 0b01 9F       		.byte	0x9f
 13812 0b02 C4000000 		.4byte	.LVL163
 13813 0b06 D4000000 		.4byte	.LFE34
 13814 0b0a 0100     		.2byte	0x1
 13815 0b0c 53       		.byte	0x53
 13816 0b0d 00000000 		.4byte	0
 13817 0b11 00000000 		.4byte	0
 13818              	.LLST59:
 13819 0b15 0E000000 		.4byte	.LVL141
 13820 0b19 42000000 		.4byte	.LVL148
 13821 0b1d 0100     		.2byte	0x1
 13822 0b1f 5E       		.byte	0x5e
 13823 0b20 4E000000 		.4byte	.LVL151
 13824 0b24 D4000000 		.4byte	.LFE34
 13825 0b28 0100     		.2byte	0x1
 13826 0b2a 5E       		.byte	0x5e
 13827 0b2b 00000000 		.4byte	0
 13828 0b2f 00000000 		.4byte	0
 13829              	.LLST60:
 13830 0b33 18000000 		.4byte	.LVL144
 13831 0b37 CE000000 		.4byte	.LVL165
 13832 0b3b 0100     		.2byte	0x1
 13833 0b3d 57       		.byte	0x57
 13834 0b3e 00000000 		.4byte	0
 13835 0b42 00000000 		.4byte	0
 13836              	.LLST61:
 13837 0b46 22000000 		.4byte	.LVL147
 13838 0b4a C6000000 		.4byte	.LVL164
 13839 0b4e 0100     		.2byte	0x1
 13840 0b50 58       		.byte	0x58
 13841 0b51 00000000 		.4byte	0
 13842 0b55 00000000 		.4byte	0
 13843              	.LLST62:
 13844 0b59 42000000 		.4byte	.LVL148
 13845 0b5d 46000000 		.4byte	.LVL149
 13846 0b61 0100     		.2byte	0x1
ARM GAS  C:\Users\rdn\AppData\Local\Temp\cc5zc0m9.s 			page 275


 13847 0b63 5E       		.byte	0x5e
 13848 0b64 6E000000 		.4byte	.LVL152
 13849 0b68 70000000 		.4byte	.LVL153
 13850 0b6c 0100     		.2byte	0x1
 13851 0b6e 56       		.byte	0x56
 13852 0b6f 70000000 		.4byte	.LVL153
 13853 0b73 72000000 		.4byte	.LVL154
 13854 0b77 2A00     		.2byte	0x2a
 13855 0b79 7C       		.byte	0x7c
 13856 0b7a 00       		.sleb128 0
 13857 0b7b 70       		.byte	0x70
 13858 0b7c 00       		.sleb128 0
 13859 0b7d 1E       		.byte	0x1e
 13860 0b7e 72       		.byte	0x72
 13861 0b7f 04       		.sleb128 4
 13862 0b80 94       		.byte	0x94
 13863 0b81 02       		.byte	0x2
 13864 0b82 40       		.byte	0x40
 13865 0b83 24       		.byte	0x24
 13866 0b84 40       		.byte	0x40
 13867 0b85 26       		.byte	0x26
 13868 0b86 77       		.byte	0x77
 13869 0b87 00       		.sleb128 0
 13870 0b88 1E       		.byte	0x1e
 13871 0b89 72       		.byte	0x72
 13872 0b8a 00       		.sleb128 0
 13873 0b8b 94       		.byte	0x94
 13874 0b8c 02       		.byte	0x2
 13875 0b8d 40       		.byte	0x40
 13876 0b8e 24       		.byte	0x24
 13877 0b8f 40       		.byte	0x40
 13878 0b90 26       		.byte	0x26
 13879 0b91 7E       		.byte	0x7e
 13880 0b92 00       		.sleb128 0
 13881 0b93 1E       		.byte	0x1e
 13882 0b94 72       		.byte	0x72
 13883 0b95 02       		.sleb128 2
 13884 0b96 94       		.byte	0x94
 13885 0b97 02       		.byte	0x2
 13886 0b98 40       		.byte	0x40
 13887 0b99 24       		.byte	0x24
 13888 0b9a 40       		.byte	0x40
 13889 0b9b 26       		.byte	0x26
 13890 0b9c 78       		.byte	0x78
 13891 0b9d 00       		.sleb128 0
 13892 0b9e 1E       		.byte	0x1e
 13893 0b9f 22       		.byte	0x22
 13894 0ba0 22       		.byte	0x22
 13895 0ba1 22       		.byte	0x22
 13896 0ba2 9F       		.byte	0x9f
 13897 0ba3 96000000 		.4byte	.LVL156
 13898 0ba7 98000000 		.4byte	.LVL157
 13899 0bab 0100     		.2byte	0x1
 13900 0bad 55       		.byte	0x55
 13901 0bae 98000000 		.4byte	.LVL157
 13902 0bb2 9A000000 		.4byte	.LVL158
 13903 0bb6 2400     		.2byte	0x24
ARM GAS  C:\Users\rdn\AppData\Local\Temp\cc5zc0m9.s 			page 276


 13904 0bb8 77       		.byte	0x77
 13905 0bb9 00       		.sleb128 0
 13906 0bba 76       		.byte	0x76
 13907 0bbb 00       		.sleb128 0
 13908 0bbc 1E       		.byte	0x1e
 13909 0bbd 78       		.byte	0x78
 13910 0bbe 00       		.sleb128 0
 13911 0bbf 70       		.byte	0x70
 13912 0bc0 00       		.sleb128 0
 13913 0bc1 1E       		.byte	0x1e
 13914 0bc2 72       		.byte	0x72
 13915 0bc3 00       		.sleb128 0
 13916 0bc4 94       		.byte	0x94
 13917 0bc5 02       		.byte	0x2
 13918 0bc6 40       		.byte	0x40
 13919 0bc7 24       		.byte	0x24
 13920 0bc8 40       		.byte	0x40
 13921 0bc9 26       		.byte	0x26
 13922 0bca 7C       		.byte	0x7c
 13923 0bcb 00       		.sleb128 0
 13924 0bcc 1E       		.byte	0x1e
 13925 0bcd 72       		.byte	0x72
 13926 0bce 02       		.sleb128 2
 13927 0bcf 94       		.byte	0x94
 13928 0bd0 02       		.byte	0x2
 13929 0bd1 40       		.byte	0x40
 13930 0bd2 24       		.byte	0x24
 13931 0bd3 40       		.byte	0x40
 13932 0bd4 26       		.byte	0x26
 13933 0bd5 7E       		.byte	0x7e
 13934 0bd6 00       		.sleb128 0
 13935 0bd7 1E       		.byte	0x1e
 13936 0bd8 22       		.byte	0x22
 13937 0bd9 22       		.byte	0x22
 13938 0bda 22       		.byte	0x22
 13939 0bdb 9F       		.byte	0x9f
 13940 0bdc BE000000 		.4byte	.LVL160
 13941 0be0 C0000000 		.4byte	.LVL161
 13942 0be4 0100     		.2byte	0x1
 13943 0be6 50       		.byte	0x50
 13944 0be7 C0000000 		.4byte	.LVL161
 13945 0beb C2000000 		.4byte	.LVL162
 13946 0bef 2A00     		.2byte	0x2a
 13947 0bf1 78       		.byte	0x78
 13948 0bf2 00       		.sleb128 0
 13949 0bf3 75       		.byte	0x75
 13950 0bf4 00       		.sleb128 0
 13951 0bf5 1E       		.byte	0x1e
 13952 0bf6 72       		.byte	0x72
 13953 0bf7 04       		.sleb128 4
 13954 0bf8 94       		.byte	0x94
 13955 0bf9 02       		.byte	0x2
 13956 0bfa 40       		.byte	0x40
 13957 0bfb 24       		.byte	0x24
 13958 0bfc 40       		.byte	0x40
 13959 0bfd 26       		.byte	0x26
 13960 0bfe 7E       		.byte	0x7e
ARM GAS  C:\Users\rdn\AppData\Local\Temp\cc5zc0m9.s 			page 277


 13961 0bff 00       		.sleb128 0
 13962 0c00 1E       		.byte	0x1e
 13963 0c01 72       		.byte	0x72
 13964 0c02 00       		.sleb128 0
 13965 0c03 94       		.byte	0x94
 13966 0c04 02       		.byte	0x2
 13967 0c05 40       		.byte	0x40
 13968 0c06 24       		.byte	0x24
 13969 0c07 40       		.byte	0x40
 13970 0c08 26       		.byte	0x26
 13971 0c09 77       		.byte	0x77
 13972 0c0a 00       		.sleb128 0
 13973 0c0b 1E       		.byte	0x1e
 13974 0c0c 72       		.byte	0x72
 13975 0c0d 02       		.sleb128 2
 13976 0c0e 94       		.byte	0x94
 13977 0c0f 02       		.byte	0x2
 13978 0c10 40       		.byte	0x40
 13979 0c11 24       		.byte	0x24
 13980 0c12 40       		.byte	0x40
 13981 0c13 26       		.byte	0x26
 13982 0c14 7C       		.byte	0x7c
 13983 0c15 00       		.sleb128 0
 13984 0c16 1E       		.byte	0x1e
 13985 0c17 22       		.byte	0x22
 13986 0c18 22       		.byte	0x22
 13987 0c19 22       		.byte	0x22
 13988 0c1a 9F       		.byte	0x9f
 13989 0c1b 00000000 		.4byte	0
 13990 0c1f 00000000 		.4byte	0
 13991              	.LLST63:
 13992 0c23 16000000 		.4byte	.LVL167
 13993 0c27 1E000000 		.4byte	.LVL168
 13994 0c2b 0100     		.2byte	0x1
 13995 0c2d 53       		.byte	0x53
 13996 0c2e 1E000000 		.4byte	.LVL168
 13997 0c32 28000000 		.4byte	.LVL169
 13998 0c36 0300     		.2byte	0x3
 13999 0c38 73       		.byte	0x73
 14000 0c39 04       		.sleb128 4
 14001 0c3a 9F       		.byte	0x9f
 14002 0c3b 28000000 		.4byte	.LVL169
 14003 0c3f C0000000 		.4byte	.LFE35
 14004 0c43 0100     		.2byte	0x1
 14005 0c45 53       		.byte	0x53
 14006 0c46 00000000 		.4byte	0
 14007 0c4a 00000000 		.4byte	0
 14008              	.LLST64:
 14009 0c4e 40000000 		.4byte	.LVL170
 14010 0c52 AC000000 		.4byte	.LVL171
 14011 0c56 0200     		.2byte	0x2
 14012 0c58 90       		.byte	0x90
 14013 0c59 40       		.uleb128 0x40
 14014 0c5a AC000000 		.4byte	.LVL171
 14015 0c5e B0000000 		.4byte	.LVL172
 14016 0c62 0800     		.2byte	0x8
 14017 0c64 F5       		.byte	0xf5
ARM GAS  C:\Users\rdn\AppData\Local\Temp\cc5zc0m9.s 			page 278


 14018 0c65 40       		.uleb128 0x40
 14019 0c66 25       		.uleb128 0x25
 14020 0c67 F5       		.byte	0xf5
 14021 0c68 4F       		.uleb128 0x4f
 14022 0c69 25       		.uleb128 0x25
 14023 0c6a 22       		.byte	0x22
 14024 0c6b 9F       		.byte	0x9f
 14025 0c6c B0000000 		.4byte	.LVL172
 14026 0c70 C0000000 		.4byte	.LFE35
 14027 0c74 0200     		.2byte	0x2
 14028 0c76 90       		.byte	0x90
 14029 0c77 40       		.uleb128 0x40
 14030 0c78 00000000 		.4byte	0
 14031 0c7c 00000000 		.4byte	0
 14032              	.LLST65:
 14033 0c80 00000000 		.4byte	.LVL173
 14034 0c84 3D000000 		.4byte	.LVL180-1
 14035 0c88 0100     		.2byte	0x1
 14036 0c8a 50       		.byte	0x50
 14037 0c8b 3D000000 		.4byte	.LVL180-1
 14038 0c8f F8000000 		.4byte	.LFE37
 14039 0c93 0400     		.2byte	0x4
 14040 0c95 F3       		.byte	0xf3
 14041 0c96 01       		.uleb128 0x1
 14042 0c97 50       		.byte	0x50
 14043 0c98 9F       		.byte	0x9f
 14044 0c99 00000000 		.4byte	0
 14045 0c9d 00000000 		.4byte	0
 14046              	.LLST66:
 14047 0ca1 00000000 		.4byte	.LVL173
 14048 0ca5 3A000000 		.4byte	.LVL179
 14049 0ca9 0100     		.2byte	0x1
 14050 0cab 51       		.byte	0x51
 14051 0cac 3A000000 		.4byte	.LVL179
 14052 0cb0 3D000000 		.4byte	.LVL180-1
 14053 0cb4 0100     		.2byte	0x1
 14054 0cb6 52       		.byte	0x52
 14055 0cb7 3D000000 		.4byte	.LVL180-1
 14056 0cbb F8000000 		.4byte	.LFE37
 14057 0cbf 0400     		.2byte	0x4
 14058 0cc1 F3       		.byte	0xf3
 14059 0cc2 01       		.uleb128 0x1
 14060 0cc3 51       		.byte	0x51
 14061 0cc4 9F       		.byte	0x9f
 14062 0cc5 00000000 		.4byte	0
 14063 0cc9 00000000 		.4byte	0
 14064              	.LLST67:
 14065 0ccd 00000000 		.4byte	.LVL173
 14066 0cd1 18000000 		.4byte	.LVL175
 14067 0cd5 0100     		.2byte	0x1
 14068 0cd7 52       		.byte	0x52
 14069 0cd8 18000000 		.4byte	.LVL175
 14070 0cdc 1A000000 		.4byte	.LVL176
 14071 0ce0 0300     		.2byte	0x3
 14072 0ce2 72       		.byte	0x72
 14073 0ce3 7E       		.sleb128 -2
 14074 0ce4 9F       		.byte	0x9f
ARM GAS  C:\Users\rdn\AppData\Local\Temp\cc5zc0m9.s 			page 279


 14075 0ce5 1A000000 		.4byte	.LVL176
 14076 0ce9 F8000000 		.4byte	.LFE37
 14077 0ced 0400     		.2byte	0x4
 14078 0cef F3       		.byte	0xf3
 14079 0cf0 01       		.uleb128 0x1
 14080 0cf1 52       		.byte	0x52
 14081 0cf2 9F       		.byte	0x9f
 14082 0cf3 00000000 		.4byte	0
 14083 0cf7 00000000 		.4byte	0
 14084              	.LLST68:
 14085 0cfb 00000000 		.4byte	.LVL173
 14086 0cff 2C000000 		.4byte	.LVL178
 14087 0d03 0100     		.2byte	0x1
 14088 0d05 53       		.byte	0x53
 14089 0d06 2C000000 		.4byte	.LVL178
 14090 0d0a F8000000 		.4byte	.LFE37
 14091 0d0e 0100     		.2byte	0x1
 14092 0d10 56       		.byte	0x56
 14093 0d11 00000000 		.4byte	0
 14094 0d15 00000000 		.4byte	0
 14095              	.LLST69:
 14096 0d19 4A000000 		.4byte	.LVL182
 14097 0d1d E4000000 		.4byte	.LVL199
 14098 0d21 0100     		.2byte	0x1
 14099 0d23 55       		.byte	0x55
 14100 0d24 EA000000 		.4byte	.LVL200
 14101 0d28 EE000000 		.4byte	.LVL201
 14102 0d2c 0100     		.2byte	0x1
 14103 0d2e 55       		.byte	0x55
 14104 0d2f 00000000 		.4byte	0
 14105 0d33 00000000 		.4byte	0
 14106              	.LLST70:
 14107 0d37 54000000 		.4byte	.LVL185
 14108 0d3b 68000000 		.4byte	.LVL188
 14109 0d3f 0200     		.2byte	0x2
 14110 0d41 30       		.byte	0x30
 14111 0d42 9F       		.byte	0x9f
 14112 0d43 68000000 		.4byte	.LVL188
 14113 0d47 E0000000 		.4byte	.LVL198
 14114 0d4b 0100     		.2byte	0x1
 14115 0d4d 58       		.byte	0x58
 14116 0d4e EA000000 		.4byte	.LVL200
 14117 0d52 EE000000 		.4byte	.LVL201
 14118 0d56 0100     		.2byte	0x1
 14119 0d58 58       		.byte	0x58
 14120 0d59 00000000 		.4byte	0
 14121 0d5d 00000000 		.4byte	0
 14122              	.LLST71:
 14123 0d61 16000000 		.4byte	.LVL174
 14124 0d65 4C000000 		.4byte	.LVL183
 14125 0d69 0100     		.2byte	0x1
 14126 0d6b 54       		.byte	0x54
 14127 0d6c 4C000000 		.4byte	.LVL183
 14128 0d70 4E000000 		.4byte	.LVL184
 14129 0d74 0300     		.2byte	0x3
 14130 0d76 74       		.byte	0x74
 14131 0d77 04       		.sleb128 4
ARM GAS  C:\Users\rdn\AppData\Local\Temp\cc5zc0m9.s 			page 280


 14132 0d78 9F       		.byte	0x9f
 14133 0d79 4E000000 		.4byte	.LVL184
 14134 0d7d F8000000 		.4byte	.LFE37
 14135 0d81 1900     		.2byte	0x19
 14136 0d83 08       		.byte	0x8
 14137 0d84 20       		.byte	0x20
 14138 0d85 F3       		.byte	0xf3
 14139 0d86 01       		.uleb128 0x1
 14140 0d87 52       		.byte	0x52
 14141 0d88 32       		.byte	0x32
 14142 0d89 1C       		.byte	0x1c
 14143 0d8a 31       		.byte	0x31
 14144 0d8b 24       		.byte	0x24
 14145 0d8c F3       		.byte	0xf3
 14146 0d8d 01       		.uleb128 0x1
 14147 0d8e 52       		.byte	0x52
 14148 0d8f 32       		.byte	0x32
 14149 0d90 1C       		.byte	0x1c
 14150 0d91 31       		.byte	0x31
 14151 0d92 24       		.byte	0x24
 14152 0d93 08       		.byte	0x8
 14153 0d94 20       		.byte	0x20
 14154 0d95 2D       		.byte	0x2d
 14155 0d96 28       		.byte	0x28
 14156 0d97 0100     		.2byte	0x1
 14157 0d99 16       		.byte	0x16
 14158 0d9a 13       		.byte	0x13
 14159 0d9b 9F       		.byte	0x9f
 14160 0d9c 00000000 		.4byte	0
 14161 0da0 00000000 		.4byte	0
 14162              	.LLST72:
 14163 0da4 28000000 		.4byte	.LVL177
 14164 0da8 54000000 		.4byte	.LVL185
 14165 0dac 0100     		.2byte	0x1
 14166 0dae 57       		.byte	0x57
 14167 0daf 54000000 		.4byte	.LVL185
 14168 0db3 F8000000 		.4byte	.LFE37
 14169 0db7 2E00     		.2byte	0x2e
 14170 0db9 F3       		.byte	0xf3
 14171 0dba 01       		.uleb128 0x1
 14172 0dbb 52       		.byte	0x52
 14173 0dbc 23       		.byte	0x23
 14174 0dbd 02       		.uleb128 0x2
 14175 0dbe 31       		.byte	0x31
 14176 0dbf 24       		.byte	0x24
 14177 0dc0 12       		.byte	0x12
 14178 0dc1 08       		.byte	0x8
 14179 0dc2 E4       		.byte	0xe4
 14180 0dc3 16       		.byte	0x16
 14181 0dc4 14       		.byte	0x14
 14182 0dc5 2D       		.byte	0x2d
 14183 0dc6 28       		.byte	0x28
 14184 0dc7 0100     		.2byte	0x1
 14185 0dc9 16       		.byte	0x16
 14186 0dca 13       		.byte	0x13
 14187 0dcb 08       		.byte	0x8
 14188 0dcc 20       		.byte	0x20
ARM GAS  C:\Users\rdn\AppData\Local\Temp\cc5zc0m9.s 			page 281


 14189 0dcd F3       		.byte	0xf3
 14190 0dce 01       		.uleb128 0x1
 14191 0dcf 52       		.byte	0x52
 14192 0dd0 32       		.byte	0x32
 14193 0dd1 1C       		.byte	0x1c
 14194 0dd2 31       		.byte	0x31
 14195 0dd3 24       		.byte	0x24
 14196 0dd4 F3       		.byte	0xf3
 14197 0dd5 01       		.uleb128 0x1
 14198 0dd6 52       		.byte	0x52
 14199 0dd7 32       		.byte	0x32
 14200 0dd8 1C       		.byte	0x1c
 14201 0dd9 31       		.byte	0x31
 14202 0dda 24       		.byte	0x24
 14203 0ddb 08       		.byte	0x8
 14204 0ddc 20       		.byte	0x20
 14205 0ddd 2D       		.byte	0x2d
 14206 0dde 28       		.byte	0x28
 14207 0ddf 0100     		.2byte	0x1
 14208 0de1 16       		.byte	0x16
 14209 0de2 13       		.byte	0x13
 14210 0de3 1C       		.byte	0x1c
 14211 0de4 23       		.byte	0x23
 14212 0de5 01       		.uleb128 0x1
 14213 0de6 9F       		.byte	0x9f
 14214 0de7 00000000 		.4byte	0
 14215 0deb 00000000 		.4byte	0
 14216              	.LLST73:
 14217 0def 60000000 		.4byte	.LVL187
 14218 0df3 68000000 		.4byte	.LVL188
 14219 0df7 0200     		.2byte	0x2
 14220 0df9 90       		.byte	0x90
 14221 0dfa 40       		.uleb128 0x40
 14222 0dfb 68000000 		.4byte	.LVL188
 14223 0dff 90000000 		.4byte	.LVL190
 14224 0e03 0200     		.2byte	0x2
 14225 0e05 90       		.byte	0x90
 14226 0e06 50       		.uleb128 0x50
 14227 0e07 92000000 		.4byte	.LVL191
 14228 0e0b B0000000 		.4byte	.LVL193
 14229 0e0f 0200     		.2byte	0x2
 14230 0e11 90       		.byte	0x90
 14231 0e12 50       		.uleb128 0x50
 14232 0e13 B2000000 		.4byte	.LVL194
 14233 0e17 F4000000 		.4byte	.LVL202
 14234 0e1b 0200     		.2byte	0x2
 14235 0e1d 90       		.byte	0x90
 14236 0e1e 50       		.uleb128 0x50
 14237 0e1f 00000000 		.4byte	0
 14238 0e23 00000000 		.4byte	0
 14239              	.LLST74:
 14240 0e27 60000000 		.4byte	.LVL187
 14241 0e2b 68000000 		.4byte	.LVL188
 14242 0e2f 0200     		.2byte	0x2
 14243 0e31 31       		.byte	0x31
 14244 0e32 9F       		.byte	0x9f
 14245 0e33 68000000 		.4byte	.LVL188
ARM GAS  C:\Users\rdn\AppData\Local\Temp\cc5zc0m9.s 			page 282


 14246 0e37 F8000000 		.4byte	.LFE37
 14247 0e3b 0100     		.2byte	0x1
 14248 0e3d 54       		.byte	0x54
 14249 0e3e 00000000 		.4byte	0
 14250 0e42 00000000 		.4byte	0
 14251              	.LLST75:
 14252 0e46 82000000 		.4byte	.LVL189
 14253 0e4a A1000000 		.4byte	.LVL192-1
 14254 0e4e 0200     		.2byte	0x2
 14255 0e50 90       		.byte	0x90
 14256 0e51 40       		.uleb128 0x40
 14257 0e52 A2000000 		.4byte	.LVL192
 14258 0e56 B2000000 		.4byte	.LVL194
 14259 0e5a 0200     		.2byte	0x2
 14260 0e5c 90       		.byte	0x90
 14261 0e5d 40       		.uleb128 0x40
 14262 0e5e 00000000 		.4byte	0
 14263 0e62 00000000 		.4byte	0
 14264              	.LLST76:
 14265 0e66 00000000 		.4byte	.LVL203
 14266 0e6a 66000000 		.4byte	.LVL216
 14267 0e6e 0100     		.2byte	0x1
 14268 0e70 50       		.byte	0x50
 14269 0e71 66000000 		.4byte	.LVL216
 14270 0e75 C6010000 		.4byte	.LVL254
 14271 0e79 0100     		.2byte	0x1
 14272 0e7b 59       		.byte	0x59
 14273 0e7c C6010000 		.4byte	.LVL254
 14274 0e80 D0010000 		.4byte	.LFE42
 14275 0e84 0400     		.2byte	0x4
 14276 0e86 F3       		.byte	0xf3
 14277 0e87 01       		.uleb128 0x1
 14278 0e88 50       		.byte	0x50
 14279 0e89 9F       		.byte	0x9f
 14280 0e8a 00000000 		.4byte	0
 14281 0e8e 00000000 		.4byte	0
 14282              	.LLST77:
 14283 0e92 00000000 		.4byte	.LVL203
 14284 0e96 5C000000 		.4byte	.LVL212
 14285 0e9a 0100     		.2byte	0x1
 14286 0e9c 51       		.byte	0x51
 14287 0e9d 5C000000 		.4byte	.LVL212
 14288 0ea1 5E000000 		.4byte	.LVL213
 14289 0ea5 0700     		.2byte	0x7
 14290 0ea7 71       		.byte	0x71
 14291 0ea8 80808080 		.sleb128 -1073741824
 14291      7C
 14292 0ead 9F       		.byte	0x9f
 14293 0eae 5E000000 		.4byte	.LVL213
 14294 0eb2 62000000 		.4byte	.LVL214
 14295 0eb6 0700     		.2byte	0x7
 14296 0eb8 71       		.byte	0x71
 14297 0eb9 81808080 		.sleb128 -1073741823
 14297      7C
 14298 0ebe 9F       		.byte	0x9f
 14299 0ebf 62000000 		.4byte	.LVL214
 14300 0ec3 D0010000 		.4byte	.LFE42
ARM GAS  C:\Users\rdn\AppData\Local\Temp\cc5zc0m9.s 			page 283


 14301 0ec7 0400     		.2byte	0x4
 14302 0ec9 F3       		.byte	0xf3
 14303 0eca 01       		.uleb128 0x1
 14304 0ecb 51       		.byte	0x51
 14305 0ecc 9F       		.byte	0x9f
 14306 0ecd 00000000 		.4byte	0
 14307 0ed1 00000000 		.4byte	0
 14308              	.LLST78:
 14309 0ed5 00000000 		.4byte	.LVL203
 14310 0ed9 46000000 		.4byte	.LVL208
 14311 0edd 0100     		.2byte	0x1
 14312 0edf 52       		.byte	0x52
 14313 0ee0 46000000 		.4byte	.LVL208
 14314 0ee4 4E000000 		.4byte	.LVL209
 14315 0ee8 0300     		.2byte	0x3
 14316 0eea 76       		.byte	0x76
 14317 0eeb 7C       		.sleb128 -4
 14318 0eec 9F       		.byte	0x9f
 14319 0eed 4E000000 		.4byte	.LVL209
 14320 0ef1 D0010000 		.4byte	.LFE42
 14321 0ef5 0400     		.2byte	0x4
 14322 0ef7 F3       		.byte	0xf3
 14323 0ef8 01       		.uleb128 0x1
 14324 0ef9 52       		.byte	0x52
 14325 0efa 9F       		.byte	0x9f
 14326 0efb 00000000 		.4byte	0
 14327 0eff 00000000 		.4byte	0
 14328              	.LLST79:
 14329 0f03 00000000 		.4byte	.LVL203
 14330 0f07 66000000 		.4byte	.LVL216
 14331 0f0b 0100     		.2byte	0x1
 14332 0f0d 53       		.byte	0x53
 14333 0f0e 66000000 		.4byte	.LVL216
 14334 0f12 D0010000 		.4byte	.LFE42
 14335 0f16 0400     		.2byte	0x4
 14336 0f18 F3       		.byte	0xf3
 14337 0f19 01       		.uleb128 0x1
 14338 0f1a 53       		.byte	0x53
 14339 0f1b 9F       		.byte	0x9f
 14340 0f1c 00000000 		.4byte	0
 14341 0f20 00000000 		.4byte	0
 14342              	.LLST80:
 14343 0f24 00000000 		.4byte	.LVL203
 14344 0f28 C6010000 		.4byte	.LVL254
 14345 0f2c 0200     		.2byte	0x2
 14346 0f2e 91       		.byte	0x91
 14347 0f2f 00       		.sleb128 0
 14348 0f30 C6010000 		.4byte	.LVL254
 14349 0f34 D0010000 		.4byte	.LFE42
 14350 0f38 0200     		.2byte	0x2
 14351 0f3a 7D       		.byte	0x7d
 14352 0f3b 00       		.sleb128 0
 14353 0f3c 00000000 		.4byte	0
 14354 0f40 00000000 		.4byte	0
 14355              	.LLST81:
 14356 0f44 00000000 		.4byte	.LVL203
 14357 0f48 C6010000 		.4byte	.LVL254
ARM GAS  C:\Users\rdn\AppData\Local\Temp\cc5zc0m9.s 			page 284


 14358 0f4c 0200     		.2byte	0x2
 14359 0f4e 91       		.byte	0x91
 14360 0f4f 04       		.sleb128 4
 14361 0f50 C6010000 		.4byte	.LVL254
 14362 0f54 D0010000 		.4byte	.LFE42
 14363 0f58 0200     		.2byte	0x2
 14364 0f5a 7D       		.byte	0x7d
 14365 0f5b 04       		.sleb128 4
 14366 0f5c 00000000 		.4byte	0
 14367 0f60 00000000 		.4byte	0
 14368              	.LLST82:
 14369 0f64 00000000 		.4byte	.LVL203
 14370 0f68 C6010000 		.4byte	.LVL254
 14371 0f6c 0200     		.2byte	0x2
 14372 0f6e 91       		.byte	0x91
 14373 0f6f 08       		.sleb128 8
 14374 0f70 C6010000 		.4byte	.LVL254
 14375 0f74 D0010000 		.4byte	.LFE42
 14376 0f78 0200     		.2byte	0x2
 14377 0f7a 7D       		.byte	0x7d
 14378 0f7b 08       		.sleb128 8
 14379 0f7c 00000000 		.4byte	0
 14380 0f80 00000000 		.4byte	0
 14381              	.LLST83:
 14382 0f84 00000000 		.4byte	.LVL203
 14383 0f88 C6010000 		.4byte	.LVL254
 14384 0f8c 0200     		.2byte	0x2
 14385 0f8e 91       		.byte	0x91
 14386 0f8f 0C       		.sleb128 12
 14387 0f90 C6010000 		.4byte	.LVL254
 14388 0f94 D0010000 		.4byte	.LFE42
 14389 0f98 0200     		.2byte	0x2
 14390 0f9a 7D       		.byte	0x7d
 14391 0f9b 0C       		.sleb128 12
 14392 0f9c 00000000 		.4byte	0
 14393 0fa0 00000000 		.4byte	0
 14394              	.LLST84:
 14395 0fa4 12000000 		.4byte	.LVL204
 14396 0fa8 64000000 		.4byte	.LVL215
 14397 0fac 0100     		.2byte	0x1
 14398 0fae 57       		.byte	0x57
 14399 0faf 64000000 		.4byte	.LVL215
 14400 0fb3 C6010000 		.4byte	.LVL254
 14401 0fb7 0200     		.2byte	0x2
 14402 0fb9 91       		.byte	0x91
 14403 0fba 0C       		.sleb128 12
 14404 0fbb C6010000 		.4byte	.LVL254
 14405 0fbf D0010000 		.4byte	.LFE42
 14406 0fc3 0200     		.2byte	0x2
 14407 0fc5 7D       		.byte	0x7d
 14408 0fc6 0C       		.sleb128 12
 14409 0fc7 00000000 		.4byte	0
 14410 0fcb 00000000 		.4byte	0
 14411              	.LLST85:
 14412 0fcf 12000000 		.4byte	.LVL204
 14413 0fd3 C6010000 		.4byte	.LVL254
 14414 0fd7 0100     		.2byte	0x1
ARM GAS  C:\Users\rdn\AppData\Local\Temp\cc5zc0m9.s 			page 285


 14415 0fd9 54       		.byte	0x54
 14416 0fda C6010000 		.4byte	.LVL254
 14417 0fde D0010000 		.4byte	.LFE42
 14418 0fe2 0200     		.2byte	0x2
 14419 0fe4 7D       		.byte	0x7d
 14420 0fe5 08       		.sleb128 8
 14421 0fe6 00000000 		.4byte	0
 14422 0fea 00000000 		.4byte	0
 14423              	.LLST86:
 14424 0fee 12000000 		.4byte	.LVL204
 14425 0ff2 8C010000 		.4byte	.LVL244
 14426 0ff6 0100     		.2byte	0x1
 14427 0ff8 55       		.byte	0x55
 14428 0ff9 8C010000 		.4byte	.LVL244
 14429 0ffd B2010000 		.4byte	.LVL250
 14430 1001 0300     		.2byte	0x3
 14431 1003 75       		.byte	0x75
 14432 1004 04       		.sleb128 4
 14433 1005 9F       		.byte	0x9f
 14434 1006 B2010000 		.4byte	.LVL250
 14435 100a C6010000 		.4byte	.LVL254
 14436 100e 0100     		.2byte	0x1
 14437 1010 55       		.byte	0x55
 14438 1011 00000000 		.4byte	0
 14439 1015 00000000 		.4byte	0
 14440              	.LLST87:
 14441 1019 12000000 		.4byte	.LVL204
 14442 101d 7C000000 		.4byte	.LVL218
 14443 1021 0100     		.2byte	0x1
 14444 1023 53       		.byte	0x53
 14445 1024 7C000000 		.4byte	.LVL218
 14446 1028 E6000000 		.4byte	.LVL229
 14447 102c 0100     		.2byte	0x1
 14448 102e 5C       		.byte	0x5c
 14449 102f E6000000 		.4byte	.LVL229
 14450 1033 EC000000 		.4byte	.LVL230
 14451 1037 0100     		.2byte	0x1
 14452 1039 53       		.byte	0x53
 14453 103a 00000000 		.4byte	0
 14454 103e 00000000 		.4byte	0
 14455              	.LLST88:
 14456 1042 12000000 		.4byte	.LVL204
 14457 1046 42000000 		.4byte	.LVL207
 14458 104a 0100     		.2byte	0x1
 14459 104c 52       		.byte	0x52
 14460 104d 42000000 		.4byte	.LVL207
 14461 1051 4E000000 		.4byte	.LVL209
 14462 1055 0100     		.2byte	0x1
 14463 1057 56       		.byte	0x56
 14464 1058 4E000000 		.4byte	.LVL209
 14465 105c 54000000 		.4byte	.LVL210
 14466 1060 0600     		.2byte	0x6
 14467 1062 F3       		.byte	0xf3
 14468 1063 01       		.uleb128 0x1
 14469 1064 52       		.byte	0x52
 14470 1065 23       		.byte	0x23
 14471 1066 04       		.uleb128 0x4
ARM GAS  C:\Users\rdn\AppData\Local\Temp\cc5zc0m9.s 			page 286


 14472 1067 9F       		.byte	0x9f
 14473 1068 54000000 		.4byte	.LVL210
 14474 106c 58000000 		.4byte	.LVL211
 14475 1070 0100     		.2byte	0x1
 14476 1072 56       		.byte	0x56
 14477 1073 58000000 		.4byte	.LVL211
 14478 1077 D0010000 		.4byte	.LFE42
 14479 107b 0600     		.2byte	0x6
 14480 107d F3       		.byte	0xf3
 14481 107e 01       		.uleb128 0x1
 14482 107f 52       		.byte	0x52
 14483 1080 23       		.byte	0x23
 14484 1081 04       		.uleb128 0x4
 14485 1082 9F       		.byte	0x9f
 14486 1083 00000000 		.4byte	0
 14487 1087 00000000 		.4byte	0
 14488              	.LLST89:
 14489 108b 12000000 		.4byte	.LVL204
 14490 108f 5C000000 		.4byte	.LVL212
 14491 1093 0100     		.2byte	0x1
 14492 1095 51       		.byte	0x51
 14493 1096 5C000000 		.4byte	.LVL212
 14494 109a 5E000000 		.4byte	.LVL213
 14495 109e 0700     		.2byte	0x7
 14496 10a0 71       		.byte	0x71
 14497 10a1 80808080 		.sleb128 -1073741824
 14497      7C
 14498 10a6 9F       		.byte	0x9f
 14499 10a7 5E000000 		.4byte	.LVL213
 14500 10ab 62000000 		.4byte	.LVL214
 14501 10af 0700     		.2byte	0x7
 14502 10b1 71       		.byte	0x71
 14503 10b2 81808080 		.sleb128 -1073741823
 14503      7C
 14504 10b7 9F       		.byte	0x9f
 14505 10b8 62000000 		.4byte	.LVL214
 14506 10bc D0010000 		.4byte	.LFE42
 14507 10c0 0400     		.2byte	0x4
 14508 10c2 F3       		.byte	0xf3
 14509 10c3 01       		.uleb128 0x1
 14510 10c4 51       		.byte	0x51
 14511 10c5 9F       		.byte	0x9f
 14512 10c6 00000000 		.4byte	0
 14513 10ca 00000000 		.4byte	0
 14514              	.LLST90:
 14515 10ce 12000000 		.4byte	.LVL204
 14516 10d2 66000000 		.4byte	.LVL216
 14517 10d6 0100     		.2byte	0x1
 14518 10d8 50       		.byte	0x50
 14519 10d9 66000000 		.4byte	.LVL216
 14520 10dd C6010000 		.4byte	.LVL254
 14521 10e1 0100     		.2byte	0x1
 14522 10e3 59       		.byte	0x59
 14523 10e4 C6010000 		.4byte	.LVL254
 14524 10e8 D0010000 		.4byte	.LFE42
 14525 10ec 0400     		.2byte	0x4
 14526 10ee F3       		.byte	0xf3
ARM GAS  C:\Users\rdn\AppData\Local\Temp\cc5zc0m9.s 			page 287


 14527 10ef 01       		.uleb128 0x1
 14528 10f0 50       		.byte	0x50
 14529 10f1 9F       		.byte	0x9f
 14530 10f2 00000000 		.4byte	0
 14531 10f6 00000000 		.4byte	0
 14532              	.LLST91:
 14533 10fa 58000000 		.4byte	.LVL211
 14534 10fe 86000000 		.4byte	.LVL220
 14535 1102 0100     		.2byte	0x1
 14536 1104 56       		.byte	0x56
 14537 1105 86000000 		.4byte	.LVL220
 14538 1109 88000000 		.4byte	.LVL221
 14539 110d 0300     		.2byte	0x3
 14540 110f 76       		.byte	0x76
 14541 1110 7C       		.sleb128 -4
 14542 1111 9F       		.byte	0x9f
 14543 1112 88000000 		.4byte	.LVL221
 14544 1116 00010000 		.4byte	.LVL236
 14545 111a 0100     		.2byte	0x1
 14546 111c 56       		.byte	0x56
 14547 111d 00010000 		.4byte	.LVL236
 14548 1121 02010000 		.4byte	.LVL237
 14549 1125 0300     		.2byte	0x3
 14550 1127 76       		.byte	0x76
 14551 1128 7C       		.sleb128 -4
 14552 1129 9F       		.byte	0x9f
 14553 112a 02010000 		.4byte	.LVL237
 14554 112e C6010000 		.4byte	.LVL254
 14555 1132 0100     		.2byte	0x1
 14556 1134 56       		.byte	0x56
 14557 1135 00000000 		.4byte	0
 14558 1139 00000000 		.4byte	0
 14559              	.LLST92:
 14560 113d 62000000 		.4byte	.LVL214
 14561 1141 66000000 		.4byte	.LVL216
 14562 1145 0200     		.2byte	0x2
 14563 1147 30       		.byte	0x30
 14564 1148 9F       		.byte	0x9f
 14565 1149 66000000 		.4byte	.LVL216
 14566 114d F0000000 		.4byte	.LVL232
 14567 1151 0100     		.2byte	0x1
 14568 1153 57       		.byte	0x57
 14569 1154 00000000 		.4byte	0
 14570 1158 00000000 		.4byte	0
 14571              	.LLST93:
 14572 115c 78000000 		.4byte	.LVL217
 14573 1160 E6000000 		.4byte	.LVL229
 14574 1164 0200     		.2byte	0x2
 14575 1166 90       		.byte	0x90
 14576 1167 4C       		.uleb128 0x4c
 14577 1168 00000000 		.4byte	0
 14578 116c 00000000 		.4byte	0
 14579              	.LLST94:
 14580 1170 80000000 		.4byte	.LVL219
 14581 1174 E6000000 		.4byte	.LVL229
 14582 1178 0200     		.2byte	0x2
 14583 117a 90       		.byte	0x90
ARM GAS  C:\Users\rdn\AppData\Local\Temp\cc5zc0m9.s 			page 288


 14584 117b 4D       		.uleb128 0x4d
 14585 117c 00000000 		.4byte	0
 14586 1180 00000000 		.4byte	0
 14587              	.LLST95:
 14588 1184 8A000000 		.4byte	.LVL222
 14589 1188 8E000000 		.4byte	.LVL223
 14590 118c 0200     		.2byte	0x2
 14591 118e 30       		.byte	0x30
 14592 118f 9F       		.byte	0x9f
 14593 1190 8E000000 		.4byte	.LVL223
 14594 1194 B6000000 		.4byte	.LVL225
 14595 1198 0100     		.2byte	0x1
 14596 119a 53       		.byte	0x53
 14597 119b 00000000 		.4byte	0
 14598 119f 00000000 		.4byte	0
 14599              	.LLST96:
 14600 11a3 B8000000 		.4byte	.LVL226
 14601 11a7 E6000000 		.4byte	.LVL229
 14602 11ab 0100     		.2byte	0x1
 14603 11ad 53       		.byte	0x53
 14604 11ae 00000000 		.4byte	0
 14605 11b2 00000000 		.4byte	0
 14606              	.LLST97:
 14607 11b6 EE000000 		.4byte	.LVL231
 14608 11ba F2000000 		.4byte	.LVL233
 14609 11be 0200     		.2byte	0x2
 14610 11c0 30       		.byte	0x30
 14611 11c1 9F       		.byte	0x9f
 14612 11c2 F2000000 		.4byte	.LVL233
 14613 11c6 C6010000 		.4byte	.LVL254
 14614 11ca 0100     		.2byte	0x1
 14615 11cc 57       		.byte	0x57
 14616 11cd 00000000 		.4byte	0
 14617 11d1 00000000 		.4byte	0
 14618              	.LLST98:
 14619 11d5 F2000000 		.4byte	.LVL233
 14620 11d9 B4010000 		.4byte	.LVL251
 14621 11dd 0100     		.2byte	0x1
 14622 11df 52       		.byte	0x52
 14623 11e0 B6010000 		.4byte	.LVL252
 14624 11e4 BC010000 		.4byte	.LVL253
 14625 11e8 0100     		.2byte	0x1
 14626 11ea 52       		.byte	0x52
 14627 11eb 00000000 		.4byte	0
 14628 11ef 00000000 		.4byte	0
 14629              	.LLST99:
 14630 11f3 F6000000 		.4byte	.LVL234
 14631 11f7 B4010000 		.4byte	.LVL251
 14632 11fb 0200     		.2byte	0x2
 14633 11fd 90       		.byte	0x90
 14634 11fe 4C       		.uleb128 0x4c
 14635 11ff 00000000 		.4byte	0
 14636 1203 00000000 		.4byte	0
 14637              	.LLST100:
 14638 1207 FA000000 		.4byte	.LVL235
 14639 120b 9E010000 		.4byte	.LVL245
 14640 120f 0200     		.2byte	0x2
ARM GAS  C:\Users\rdn\AppData\Local\Temp\cc5zc0m9.s 			page 289


 14641 1211 90       		.byte	0x90
 14642 1212 4D       		.uleb128 0x4d
 14643 1213 9E010000 		.4byte	.LVL245
 14644 1217 A2010000 		.4byte	.LVL246
 14645 121b 0200     		.2byte	0x2
 14646 121d 75       		.byte	0x75
 14647 121e 00       		.sleb128 0
 14648 121f 00000000 		.4byte	0
 14649 1223 00000000 		.4byte	0
 14650              	.LLST101:
 14651 1227 04010000 		.4byte	.LVL238
 14652 122b 0A010000 		.4byte	.LVL239
 14653 122f 0200     		.2byte	0x2
 14654 1231 30       		.byte	0x30
 14655 1232 9F       		.byte	0x9f
 14656 1233 0A010000 		.4byte	.LVL239
 14657 1237 4A010000 		.4byte	.LVL241
 14658 123b 0100     		.2byte	0x1
 14659 123d 5C       		.byte	0x5c
 14660 123e 00000000 		.4byte	0
 14661 1242 00000000 		.4byte	0
 14662              	.LLST102:
 14663 1246 4C010000 		.4byte	.LVL242
 14664 124a A6010000 		.4byte	.LVL247
 14665 124e 0100     		.2byte	0x1
 14666 1250 5C       		.byte	0x5c
 14667 1251 00000000 		.4byte	0
 14668 1255 00000000 		.4byte	0
 14669              	.LLST103:
 14670 1259 00000000 		.4byte	.LVL255
 14671 125d 3A000000 		.4byte	.LVL261
 14672 1261 0100     		.2byte	0x1
 14673 1263 50       		.byte	0x50
 14674 1264 3A000000 		.4byte	.LVL261
 14675 1268 76020000 		.4byte	.LVL336
 14676 126c 0100     		.2byte	0x1
 14677 126e 58       		.byte	0x58
 14678 126f 76020000 		.4byte	.LVL336
 14679 1273 88020000 		.4byte	.LFE36
 14680 1277 0400     		.2byte	0x4
 14681 1279 F3       		.byte	0xf3
 14682 127a 01       		.uleb128 0x1
 14683 127b 50       		.byte	0x50
 14684 127c 9F       		.byte	0x9f
 14685 127d 00000000 		.4byte	0
 14686 1281 00000000 		.4byte	0
 14687              	.LLST104:
 14688 1285 00000000 		.4byte	.LVL255
 14689 1289 38000000 		.4byte	.LVL260
 14690 128d 0100     		.2byte	0x1
 14691 128f 51       		.byte	0x51
 14692 1290 38000000 		.4byte	.LVL260
 14693 1294 68010000 		.4byte	.LVL301
 14694 1298 0100     		.2byte	0x1
 14695 129a 54       		.byte	0x54
 14696 129b 68010000 		.4byte	.LVL301
 14697 129f 1A020000 		.4byte	.LVL329
ARM GAS  C:\Users\rdn\AppData\Local\Temp\cc5zc0m9.s 			page 290


 14698 12a3 0400     		.2byte	0x4
 14699 12a5 F3       		.byte	0xf3
 14700 12a6 01       		.uleb128 0x1
 14701 12a7 51       		.byte	0x51
 14702 12a8 9F       		.byte	0x9f
 14703 12a9 1A020000 		.4byte	.LVL329
 14704 12ad 1E020000 		.4byte	.LVL330
 14705 12b1 0100     		.2byte	0x1
 14706 12b3 54       		.byte	0x54
 14707 12b4 1E020000 		.4byte	.LVL330
 14708 12b8 88020000 		.4byte	.LFE36
 14709 12bc 0400     		.2byte	0x4
 14710 12be F3       		.byte	0xf3
 14711 12bf 01       		.uleb128 0x1
 14712 12c0 51       		.byte	0x51
 14713 12c1 9F       		.byte	0x9f
 14714 12c2 00000000 		.4byte	0
 14715 12c6 00000000 		.4byte	0
 14716              	.LLST105:
 14717 12ca 00000000 		.4byte	.LVL255
 14718 12ce 3D000000 		.4byte	.LVL262-1
 14719 12d2 0100     		.2byte	0x1
 14720 12d4 52       		.byte	0x52
 14721 12d5 3D000000 		.4byte	.LVL262-1
 14722 12d9 B0010000 		.4byte	.LVL314
 14723 12dd 0100     		.2byte	0x1
 14724 12df 56       		.byte	0x56
 14725 12e0 B0010000 		.4byte	.LVL314
 14726 12e4 1A020000 		.4byte	.LVL329
 14727 12e8 0400     		.2byte	0x4
 14728 12ea F3       		.byte	0xf3
 14729 12eb 01       		.uleb128 0x1
 14730 12ec 52       		.byte	0x52
 14731 12ed 9F       		.byte	0x9f
 14732 12ee 1A020000 		.4byte	.LVL329
 14733 12f2 1E020000 		.4byte	.LVL330
 14734 12f6 0100     		.2byte	0x1
 14735 12f8 56       		.byte	0x56
 14736 12f9 1E020000 		.4byte	.LVL330
 14737 12fd 88020000 		.4byte	.LFE36
 14738 1301 0400     		.2byte	0x4
 14739 1303 F3       		.byte	0xf3
 14740 1304 01       		.uleb128 0x1
 14741 1305 52       		.byte	0x52
 14742 1306 9F       		.byte	0x9f
 14743 1307 00000000 		.4byte	0
 14744 130b 00000000 		.4byte	0
 14745              	.LLST106:
 14746 130f 00000000 		.4byte	.LVL255
 14747 1313 16000000 		.4byte	.LVL257
 14748 1317 0100     		.2byte	0x1
 14749 1319 53       		.byte	0x53
 14750 131a 16000000 		.4byte	.LVL257
 14751 131e 76020000 		.4byte	.LVL336
 14752 1322 0300     		.2byte	0x3
 14753 1324 91       		.byte	0x91
 14754 1325 B87C     		.sleb128 -456
ARM GAS  C:\Users\rdn\AppData\Local\Temp\cc5zc0m9.s 			page 291


 14755 1327 76020000 		.4byte	.LVL336
 14756 132b 88020000 		.4byte	.LFE36
 14757 132f 0300     		.2byte	0x3
 14758 1331 7D       		.byte	0x7d
 14759 1332 B87C     		.sleb128 -456
 14760 1334 00000000 		.4byte	0
 14761 1338 00000000 		.4byte	0
 14762              	.LLST107:
 14763 133c 1C000000 		.4byte	.LVL258
 14764 1340 60000000 		.4byte	.LVL267
 14765 1344 0100     		.2byte	0x1
 14766 1346 57       		.byte	0x57
 14767 1347 00000000 		.4byte	0
 14768 134b 00000000 		.4byte	0
 14769              	.LLST108:
 14770 134f 2C000000 		.4byte	.LVL259
 14771 1353 6C000000 		.4byte	.LVL269
 14772 1357 0100     		.2byte	0x1
 14773 1359 55       		.byte	0x55
 14774 135a 00000000 		.4byte	0
 14775 135e 00000000 		.4byte	0
 14776              	.LLST109:
 14777 1362 50000000 		.4byte	.LVL264
 14778 1366 5A000000 		.4byte	.LVL265
 14779 136a 0100     		.2byte	0x1
 14780 136c 50       		.byte	0x50
 14781 136d 5A000000 		.4byte	.LVL265
 14782 1371 80000000 		.4byte	.LVL271
 14783 1375 0100     		.2byte	0x1
 14784 1377 59       		.byte	0x59
 14785 1378 80000000 		.4byte	.LVL271
 14786 137c 4A010000 		.4byte	.LVL299
 14787 1380 0300     		.2byte	0x3
 14788 1382 91       		.byte	0x91
 14789 1383 BC7C     		.sleb128 -452
 14790 1385 4A010000 		.4byte	.LVL299
 14791 1389 4E010000 		.4byte	.LVL300
 14792 138d 0100     		.2byte	0x1
 14793 138f 59       		.byte	0x59
 14794 1390 4E010000 		.4byte	.LVL300
 14795 1394 76020000 		.4byte	.LVL336
 14796 1398 0300     		.2byte	0x3
 14797 139a 91       		.byte	0x91
 14798 139b BC7C     		.sleb128 -452
 14799 139d 76020000 		.4byte	.LVL336
 14800 13a1 88020000 		.4byte	.LFE36
 14801 13a5 0300     		.2byte	0x3
 14802 13a7 7D       		.byte	0x7d
 14803 13a8 BC7C     		.sleb128 -452
 14804 13aa 00000000 		.4byte	0
 14805 13ae 00000000 		.4byte	0
 14806              	.LLST110:
 14807 13b2 60000000 		.4byte	.LVL267
 14808 13b6 32020000 		.4byte	.LVL332
 14809 13ba 0100     		.2byte	0x1
 14810 13bc 57       		.byte	0x57
 14811 13bd 00000000 		.4byte	0
ARM GAS  C:\Users\rdn\AppData\Local\Temp\cc5zc0m9.s 			page 292


 14812 13c1 00000000 		.4byte	0
 14813              	.LLST111:
 14814 13c5 68000000 		.4byte	.LVL268
 14815 13c9 E2000000 		.4byte	.LVL285
 14816 13cd 0100     		.2byte	0x1
 14817 13cf 52       		.byte	0x52
 14818 13d0 E2000000 		.4byte	.LVL285
 14819 13d4 4A010000 		.4byte	.LVL299
 14820 13d8 0C00     		.2byte	0xc
 14821 13da 74       		.byte	0x74
 14822 13db 00       		.sleb128 0
 14823 13dc 91       		.byte	0x91
 14824 13dd BC7C     		.sleb128 -452
 14825 13df 06       		.byte	0x6
 14826 13e0 23       		.byte	0x23
 14827 13e1 11       		.uleb128 0x11
 14828 13e2 31       		.byte	0x31
 14829 13e3 24       		.byte	0x24
 14830 13e4 1C       		.byte	0x1c
 14831 13e5 9F       		.byte	0x9f
 14832 13e6 4A010000 		.4byte	.LVL299
 14833 13ea 4E010000 		.4byte	.LVL300
 14834 13ee 0100     		.2byte	0x1
 14835 13f0 52       		.byte	0x52
 14836 13f1 4E010000 		.4byte	.LVL300
 14837 13f5 68010000 		.4byte	.LVL301
 14838 13f9 0C00     		.2byte	0xc
 14839 13fb 74       		.byte	0x74
 14840 13fc 00       		.sleb128 0
 14841 13fd 91       		.byte	0x91
 14842 13fe BC7C     		.sleb128 -452
 14843 1400 06       		.byte	0x6
 14844 1401 23       		.byte	0x23
 14845 1402 11       		.uleb128 0x11
 14846 1403 31       		.byte	0x31
 14847 1404 24       		.byte	0x24
 14848 1405 1C       		.byte	0x1c
 14849 1406 9F       		.byte	0x9f
 14850 1407 68010000 		.4byte	.LVL301
 14851 140b 1A020000 		.4byte	.LVL329
 14852 140f 0D00     		.2byte	0xd
 14853 1411 F3       		.byte	0xf3
 14854 1412 01       		.uleb128 0x1
 14855 1413 51       		.byte	0x51
 14856 1414 91       		.byte	0x91
 14857 1415 BC7C     		.sleb128 -452
 14858 1417 06       		.byte	0x6
 14859 1418 23       		.byte	0x23
 14860 1419 11       		.uleb128 0x11
 14861 141a 31       		.byte	0x31
 14862 141b 24       		.byte	0x24
 14863 141c 1C       		.byte	0x1c
 14864 141d 9F       		.byte	0x9f
 14865 141e 1A020000 		.4byte	.LVL329
 14866 1422 1E020000 		.4byte	.LVL330
 14867 1426 0C00     		.2byte	0xc
 14868 1428 74       		.byte	0x74
ARM GAS  C:\Users\rdn\AppData\Local\Temp\cc5zc0m9.s 			page 293


 14869 1429 00       		.sleb128 0
 14870 142a 91       		.byte	0x91
 14871 142b BC7C     		.sleb128 -452
 14872 142d 06       		.byte	0x6
 14873 142e 23       		.byte	0x23
 14874 142f 11       		.uleb128 0x11
 14875 1430 31       		.byte	0x31
 14876 1431 24       		.byte	0x24
 14877 1432 1C       		.byte	0x1c
 14878 1433 9F       		.byte	0x9f
 14879 1434 1E020000 		.4byte	.LVL330
 14880 1438 76020000 		.4byte	.LVL336
 14881 143c 0D00     		.2byte	0xd
 14882 143e F3       		.byte	0xf3
 14883 143f 01       		.uleb128 0x1
 14884 1440 51       		.byte	0x51
 14885 1441 91       		.byte	0x91
 14886 1442 BC7C     		.sleb128 -452
 14887 1444 06       		.byte	0x6
 14888 1445 23       		.byte	0x23
 14889 1446 11       		.uleb128 0x11
 14890 1447 31       		.byte	0x31
 14891 1448 24       		.byte	0x24
 14892 1449 1C       		.byte	0x1c
 14893 144a 9F       		.byte	0x9f
 14894 144b 76020000 		.4byte	.LVL336
 14895 144f 88020000 		.4byte	.LFE36
 14896 1453 0D00     		.2byte	0xd
 14897 1455 F3       		.byte	0xf3
 14898 1456 01       		.uleb128 0x1
 14899 1457 51       		.byte	0x51
 14900 1458 7D       		.byte	0x7d
 14901 1459 BC7C     		.sleb128 -452
 14902 145b 06       		.byte	0x6
 14903 145c 23       		.byte	0x23
 14904 145d 11       		.uleb128 0x11
 14905 145e 31       		.byte	0x31
 14906 145f 24       		.byte	0x24
 14907 1460 1C       		.byte	0x1c
 14908 1461 9F       		.byte	0x9f
 14909 1462 00000000 		.4byte	0
 14910 1466 00000000 		.4byte	0
 14911              	.LLST112:
 14912 146a 70000000 		.4byte	.LVL270
 14913 146e BA010000 		.4byte	.LVL315
 14914 1472 0100     		.2byte	0x1
 14915 1474 55       		.byte	0x55
 14916 1475 BA010000 		.4byte	.LVL315
 14917 1479 1A020000 		.4byte	.LVL329
 14918 147d 0900     		.2byte	0x9
 14919 147f F3       		.byte	0xf3
 14920 1480 01       		.uleb128 0x1
 14921 1481 51       		.byte	0x51
 14922 1482 77       		.byte	0x77
 14923 1483 11       		.sleb128 17
 14924 1484 31       		.byte	0x31
 14925 1485 24       		.byte	0x24
ARM GAS  C:\Users\rdn\AppData\Local\Temp\cc5zc0m9.s 			page 294


 14926 1486 1C       		.byte	0x1c
 14927 1487 9F       		.byte	0x9f
 14928 1488 1A020000 		.4byte	.LVL329
 14929 148c 1E020000 		.4byte	.LVL330
 14930 1490 0100     		.2byte	0x1
 14931 1492 55       		.byte	0x55
 14932 1493 1E020000 		.4byte	.LVL330
 14933 1497 32020000 		.4byte	.LVL332
 14934 149b 0900     		.2byte	0x9
 14935 149d F3       		.byte	0xf3
 14936 149e 01       		.uleb128 0x1
 14937 149f 51       		.byte	0x51
 14938 14a0 77       		.byte	0x77
 14939 14a1 11       		.sleb128 17
 14940 14a2 31       		.byte	0x31
 14941 14a3 24       		.byte	0x24
 14942 14a4 1C       		.byte	0x1c
 14943 14a5 9F       		.byte	0x9f
 14944 14a6 00000000 		.4byte	0
 14945 14aa 00000000 		.4byte	0
 14946              	.LLST113:
 14947 14ae 26020000 		.4byte	.LVL331
 14948 14b2 4A020000 		.4byte	.LVL333
 14949 14b6 0B00     		.2byte	0xb
 14950 14b8 F5       		.byte	0xf5
 14951 14b9 4E       		.uleb128 0x4e
 14952 14ba 25       		.uleb128 0x25
 14953 14bb F5       		.byte	0xf5
 14954 14bc 4F       		.uleb128 0x4f
 14955 14bd 25       		.uleb128 0x25
 14956 14be 2C       		.byte	0x2c
 14957 14bf 08       		.byte	0x8
 14958 14c0 FF       		.byte	0xff
 14959 14c1 1A       		.byte	0x1a
 14960 14c2 9F       		.byte	0x9f
 14961 14c3 4A020000 		.4byte	.LVL333
 14962 14c7 5A020000 		.4byte	.LVL334
 14963 14cb 1300     		.2byte	0x13
 14964 14cd F5       		.byte	0xf5
 14965 14ce 4E       		.uleb128 0x4e
 14966 14cf 25       		.uleb128 0x25
 14967 14d0 F5       		.byte	0xf5
 14968 14d1 51       		.uleb128 0x51
 14969 14d2 25       		.uleb128 0x25
 14970 14d3 F4       		.byte	0xf4
 14971 14d4 25       		.uleb128 0x25
 14972 14d5 04       		.byte	0x4
 14973 14d6 9A99593F 		.4byte	0x3f59999a
 14974 14da 1E       		.byte	0x1e
 14975 14db 2C       		.byte	0x2c
 14976 14dc 08       		.byte	0x8
 14977 14dd FF       		.byte	0xff
 14978 14de 1A       		.byte	0x1a
 14979 14df 9F       		.byte	0x9f
 14980 14e0 5A020000 		.4byte	.LVL334
 14981 14e4 5E020000 		.4byte	.LVL335
 14982 14e8 0B00     		.2byte	0xb
ARM GAS  C:\Users\rdn\AppData\Local\Temp\cc5zc0m9.s 			page 295


 14983 14ea F5       		.byte	0xf5
 14984 14eb 4E       		.uleb128 0x4e
 14985 14ec 25       		.uleb128 0x25
 14986 14ed F5       		.byte	0xf5
 14987 14ee 4F       		.uleb128 0x4f
 14988 14ef 25       		.uleb128 0x25
 14989 14f0 2C       		.byte	0x2c
 14990 14f1 08       		.byte	0x8
 14991 14f2 FF       		.byte	0xff
 14992 14f3 1A       		.byte	0x1a
 14993 14f4 9F       		.byte	0x9f
 14994 14f5 5E020000 		.4byte	.LVL335
 14995 14f9 88020000 		.4byte	.LFE36
 14996 14fd 1300     		.2byte	0x13
 14997 14ff F5       		.byte	0xf5
 14998 1500 4E       		.uleb128 0x4e
 14999 1501 25       		.uleb128 0x25
 15000 1502 F5       		.byte	0xf5
 15001 1503 51       		.uleb128 0x51
 15002 1504 25       		.uleb128 0x25
 15003 1505 F4       		.byte	0xf4
 15004 1506 25       		.uleb128 0x25
 15005 1507 04       		.byte	0x4
 15006 1508 9A99593F 		.4byte	0x3f59999a
 15007 150c 1E       		.byte	0x1e
 15008 150d 2C       		.byte	0x2c
 15009 150e 08       		.byte	0x8
 15010 150f FF       		.byte	0xff
 15011 1510 1A       		.byte	0x1a
 15012 1511 9F       		.byte	0x9f
 15013 1512 00000000 		.4byte	0
 15014 1516 00000000 		.4byte	0
 15015              	.LLST114:
 15016 151a 8C000000 		.4byte	.LVL272
 15017 151e 90000000 		.4byte	.LVL273
 15018 1522 0100     		.2byte	0x1
 15019 1524 59       		.byte	0x59
 15020 1525 90000000 		.4byte	.LVL273
 15021 1529 A6000000 		.4byte	.LVL277
 15022 152d 0300     		.2byte	0x3
 15023 152f 79       		.byte	0x79
 15024 1530 02       		.sleb128 2
 15025 1531 9F       		.byte	0x9f
 15026 1532 A6000000 		.4byte	.LVL277
 15027 1536 D6000000 		.4byte	.LVL284
 15028 153a 0100     		.2byte	0x1
 15029 153c 59       		.byte	0x59
 15030 153d 00000000 		.4byte	0
 15031 1541 00000000 		.4byte	0
 15032              	.LLST115:
 15033 1545 8C000000 		.4byte	.LVL272
 15034 1549 AA000000 		.4byte	.LVL278
 15035 154d 0300     		.2byte	0x3
 15036 154f 7C       		.byte	0x7c
 15037 1550 02       		.sleb128 2
 15038 1551 9F       		.byte	0x9f
 15039 1552 AA000000 		.4byte	.LVL278
ARM GAS  C:\Users\rdn\AppData\Local\Temp\cc5zc0m9.s 			page 296


 15040 1556 D6000000 		.4byte	.LVL284
 15041 155a 0100     		.2byte	0x1
 15042 155c 5C       		.byte	0x5c
 15043 155d 00000000 		.4byte	0
 15044 1561 00000000 		.4byte	0
 15045              	.LLST116:
 15046 1565 8C000000 		.4byte	.LVL272
 15047 1569 9A000000 		.4byte	.LVL274
 15048 156d 0600     		.2byte	0x6
 15049 156f 50       		.byte	0x50
 15050 1570 93       		.byte	0x93
 15051 1571 04       		.uleb128 0x4
 15052 1572 51       		.byte	0x51
 15053 1573 93       		.byte	0x93
 15054 1574 04       		.uleb128 0x4
 15055 1575 9E000000 		.4byte	.LVL275
 15056 1579 C4000000 		.4byte	.LVL282
 15057 157d 0600     		.2byte	0x6
 15058 157f 50       		.byte	0x50
 15059 1580 93       		.byte	0x93
 15060 1581 04       		.uleb128 0x4
 15061 1582 51       		.byte	0x51
 15062 1583 93       		.byte	0x93
 15063 1584 04       		.uleb128 0x4
 15064 1585 00000000 		.4byte	0
 15065 1589 00000000 		.4byte	0
 15066              	.LLST117:
 15067 158d CE000000 		.4byte	.LVL283
 15068 1591 D6000000 		.4byte	.LVL284
 15069 1595 0100     		.2byte	0x1
 15070 1597 53       		.byte	0x53
 15071 1598 00000000 		.4byte	0
 15072 159c 00000000 		.4byte	0
 15073              	.LLST118:
 15074 15a0 8C000000 		.4byte	.LVL272
 15075 15a4 D6000000 		.4byte	.LVL284
 15076 15a8 0100     		.2byte	0x1
 15077 15aa 5A       		.byte	0x5a
 15078 15ab 00000000 		.4byte	0
 15079 15af 00000000 		.4byte	0
 15080              	.LLST119:
 15081 15b3 8C000000 		.4byte	.LVL272
 15082 15b7 AC000000 		.4byte	.LVL279
 15083 15bb 0100     		.2byte	0x1
 15084 15bd 5B       		.byte	0x5b
 15085 15be B0000000 		.4byte	.LVL280
 15086 15c2 BA000000 		.4byte	.LVL281
 15087 15c6 0100     		.2byte	0x1
 15088 15c8 5B       		.byte	0x5b
 15089 15c9 00000000 		.4byte	0
 15090 15cd 00000000 		.4byte	0
 15091              	.LLST120:
 15092 15d1 D6000000 		.4byte	.LVL284
 15093 15d5 26010000 		.4byte	.LVL297
 15094 15d9 0100     		.2byte	0x1
 15095 15db 56       		.byte	0x56
 15096 15dc 00000000 		.4byte	0
ARM GAS  C:\Users\rdn\AppData\Local\Temp\cc5zc0m9.s 			page 297


 15097 15e0 00000000 		.4byte	0
 15098              	.LLST121:
 15099 15e4 D6000000 		.4byte	.LVL284
 15100 15e8 E2000000 		.4byte	.LVL285
 15101 15ec 0100     		.2byte	0x1
 15102 15ee 52       		.byte	0x52
 15103 15ef E2000000 		.4byte	.LVL285
 15104 15f3 E6000000 		.4byte	.LVL286
 15105 15f7 0100     		.2byte	0x1
 15106 15f9 5A       		.byte	0x5a
 15107 15fa E6000000 		.4byte	.LVL286
 15108 15fe FC000000 		.4byte	.LVL290
 15109 1602 0300     		.2byte	0x3
 15110 1604 7A       		.byte	0x7a
 15111 1605 02       		.sleb128 2
 15112 1606 9F       		.byte	0x9f
 15113 1607 FC000000 		.4byte	.LVL290
 15114 160b 26010000 		.4byte	.LVL297
 15115 160f 0100     		.2byte	0x1
 15116 1611 5A       		.byte	0x5a
 15117 1612 00000000 		.4byte	0
 15118 1616 00000000 		.4byte	0
 15119              	.LLST122:
 15120 161a D6000000 		.4byte	.LVL284
 15121 161e E2000000 		.4byte	.LVL285
 15122 1622 0100     		.2byte	0x1
 15123 1624 52       		.byte	0x52
 15124 1625 E2000000 		.4byte	.LVL285
 15125 1629 FE000000 		.4byte	.LVL291
 15126 162d 0300     		.2byte	0x3
 15127 162f 72       		.byte	0x72
 15128 1630 02       		.sleb128 2
 15129 1631 9F       		.byte	0x9f
 15130 1632 FE000000 		.4byte	.LVL291
 15131 1636 26010000 		.4byte	.LVL297
 15132 163a 0100     		.2byte	0x1
 15133 163c 52       		.byte	0x52
 15134 163d 00000000 		.4byte	0
 15135 1641 00000000 		.4byte	0
 15136              	.LLST123:
 15137 1645 E2000000 		.4byte	.LVL285
 15138 1649 F0000000 		.4byte	.LVL287
 15139 164d 0600     		.2byte	0x6
 15140 164f 50       		.byte	0x50
 15141 1650 93       		.byte	0x93
 15142 1651 04       		.uleb128 0x4
 15143 1652 51       		.byte	0x51
 15144 1653 93       		.byte	0x93
 15145 1654 04       		.uleb128 0x4
 15146 1655 F4000000 		.4byte	.LVL288
 15147 1659 14010000 		.4byte	.LVL295
 15148 165d 0600     		.2byte	0x6
 15149 165f 50       		.byte	0x50
 15150 1660 93       		.byte	0x93
 15151 1661 04       		.uleb128 0x4
 15152 1662 51       		.byte	0x51
 15153 1663 93       		.byte	0x93
ARM GAS  C:\Users\rdn\AppData\Local\Temp\cc5zc0m9.s 			page 298


 15154 1664 04       		.uleb128 0x4
 15155 1665 00000000 		.4byte	0
 15156 1669 00000000 		.4byte	0
 15157              	.LLST124:
 15158 166d 1E010000 		.4byte	.LVL296
 15159 1671 26010000 		.4byte	.LVL297
 15160 1675 0100     		.2byte	0x1
 15161 1677 53       		.byte	0x53
 15162 1678 00000000 		.4byte	0
 15163 167c 00000000 		.4byte	0
 15164              	.LLST125:
 15165 1680 E2000000 		.4byte	.LVL285
 15166 1684 26010000 		.4byte	.LVL297
 15167 1688 0100     		.2byte	0x1
 15168 168a 5B       		.byte	0x5b
 15169 168b 00000000 		.4byte	0
 15170 168f 00000000 		.4byte	0
 15171              	.LLST126:
 15172 1693 E2000000 		.4byte	.LVL285
 15173 1697 00010000 		.4byte	.LVL292
 15174 169b 0100     		.2byte	0x1
 15175 169d 59       		.byte	0x59
 15176 169e 04010000 		.4byte	.LVL293
 15177 16a2 0E010000 		.4byte	.LVL294
 15178 16a6 0100     		.2byte	0x1
 15179 16a8 59       		.byte	0x59
 15180 16a9 00000000 		.4byte	0
 15181 16ad 00000000 		.4byte	0
 15182              	.LLST127:
 15183 16b1 68010000 		.4byte	.LVL301
 15184 16b5 6C010000 		.4byte	.LVL302
 15185 16b9 0100     		.2byte	0x1
 15186 16bb 50       		.byte	0x50
 15187 16bc 6C010000 		.4byte	.LVL302
 15188 16c0 80010000 		.4byte	.LVL306
 15189 16c4 0300     		.2byte	0x3
 15190 16c6 70       		.byte	0x70
 15191 16c7 02       		.sleb128 2
 15192 16c8 9F       		.byte	0x9f
 15193 16c9 80010000 		.4byte	.LVL306
 15194 16cd AE010000 		.4byte	.LVL313
 15195 16d1 0100     		.2byte	0x1
 15196 16d3 50       		.byte	0x50
 15197 16d4 00000000 		.4byte	0
 15198 16d8 00000000 		.4byte	0
 15199              	.LLST128:
 15200 16dc 68010000 		.4byte	.LVL301
 15201 16e0 82010000 		.4byte	.LVL307
 15202 16e4 0300     		.2byte	0x3
 15203 16e6 74       		.byte	0x74
 15204 16e7 02       		.sleb128 2
 15205 16e8 9F       		.byte	0x9f
 15206 16e9 82010000 		.4byte	.LVL307
 15207 16ed AE010000 		.4byte	.LVL313
 15208 16f1 0100     		.2byte	0x1
 15209 16f3 54       		.byte	0x54
 15210 16f4 00000000 		.4byte	0
ARM GAS  C:\Users\rdn\AppData\Local\Temp\cc5zc0m9.s 			page 299


 15211 16f8 00000000 		.4byte	0
 15212              	.LLST129:
 15213 16fc 68010000 		.4byte	.LVL301
 15214 1700 76010000 		.4byte	.LVL303
 15215 1704 0600     		.2byte	0x6
 15216 1706 52       		.byte	0x52
 15217 1707 93       		.byte	0x93
 15218 1708 04       		.uleb128 0x4
 15219 1709 53       		.byte	0x53
 15220 170a 93       		.byte	0x93
 15221 170b 04       		.uleb128 0x4
 15222 170c 7A010000 		.4byte	.LVL304
 15223 1710 9C010000 		.4byte	.LVL311
 15224 1714 0600     		.2byte	0x6
 15225 1716 52       		.byte	0x52
 15226 1717 93       		.byte	0x93
 15227 1718 04       		.uleb128 0x4
 15228 1719 53       		.byte	0x53
 15229 171a 93       		.byte	0x93
 15230 171b 04       		.uleb128 0x4
 15231 171c 00000000 		.4byte	0
 15232 1720 00000000 		.4byte	0
 15233              	.LLST130:
 15234 1724 A6010000 		.4byte	.LVL312
 15235 1728 AE010000 		.4byte	.LVL313
 15236 172c 0100     		.2byte	0x1
 15237 172e 52       		.byte	0x52
 15238 172f 00000000 		.4byte	0
 15239 1733 00000000 		.4byte	0
 15240              	.LLST131:
 15241 1737 68010000 		.4byte	.LVL301
 15242 173b AE010000 		.4byte	.LVL313
 15243 173f 0100     		.2byte	0x1
 15244 1741 5C       		.byte	0x5c
 15245 1742 00000000 		.4byte	0
 15246 1746 00000000 		.4byte	0
 15247              	.LLST132:
 15248 174a 68010000 		.4byte	.LVL301
 15249 174e 84010000 		.4byte	.LVL308
 15250 1752 0100     		.2byte	0x1
 15251 1754 5E       		.byte	0x5e
 15252 1755 88010000 		.4byte	.LVL309
 15253 1759 92010000 		.4byte	.LVL310
 15254 175d 0100     		.2byte	0x1
 15255 175f 5E       		.byte	0x5e
 15256 1760 00000000 		.4byte	0
 15257 1764 00000000 		.4byte	0
 15258              	.LLST133:
 15259 1768 AE010000 		.4byte	.LVL313
 15260 176c B0010000 		.4byte	.LVL314
 15261 1770 0100     		.2byte	0x1
 15262 1772 56       		.byte	0x56
 15263 1773 B0010000 		.4byte	.LVL314
 15264 1777 F6010000 		.4byte	.LVL327
 15265 177b 0400     		.2byte	0x4
 15266 177d F3       		.byte	0xf3
 15267 177e 01       		.uleb128 0x1
ARM GAS  C:\Users\rdn\AppData\Local\Temp\cc5zc0m9.s 			page 300


 15268 177f 52       		.byte	0x52
 15269 1780 9F       		.byte	0x9f
 15270 1781 00000000 		.4byte	0
 15271 1785 00000000 		.4byte	0
 15272              	.LLST134:
 15273 1789 AE010000 		.4byte	.LVL313
 15274 178d BA010000 		.4byte	.LVL315
 15275 1791 0100     		.2byte	0x1
 15276 1793 55       		.byte	0x55
 15277 1794 BA010000 		.4byte	.LVL315
 15278 1798 BE010000 		.4byte	.LVL316
 15279 179c 0100     		.2byte	0x1
 15280 179e 56       		.byte	0x56
 15281 179f BE010000 		.4byte	.LVL316
 15282 17a3 D0010000 		.4byte	.LVL320
 15283 17a7 0300     		.2byte	0x3
 15284 17a9 76       		.byte	0x76
 15285 17aa 02       		.sleb128 2
 15286 17ab 9F       		.byte	0x9f
 15287 17ac D0010000 		.4byte	.LVL320
 15288 17b0 F6010000 		.4byte	.LVL327
 15289 17b4 0100     		.2byte	0x1
 15290 17b6 56       		.byte	0x56
 15291 17b7 00000000 		.4byte	0
 15292 17bb 00000000 		.4byte	0
 15293              	.LLST135:
 15294 17bf AE010000 		.4byte	.LVL313
 15295 17c3 BA010000 		.4byte	.LVL315
 15296 17c7 0100     		.2byte	0x1
 15297 17c9 55       		.byte	0x55
 15298 17ca BA010000 		.4byte	.LVL315
 15299 17ce D2010000 		.4byte	.LVL321
 15300 17d2 0300     		.2byte	0x3
 15301 17d4 75       		.byte	0x75
 15302 17d5 02       		.sleb128 2
 15303 17d6 9F       		.byte	0x9f
 15304 17d7 D2010000 		.4byte	.LVL321
 15305 17db F6010000 		.4byte	.LVL327
 15306 17df 0100     		.2byte	0x1
 15307 17e1 55       		.byte	0x55
 15308 17e2 00000000 		.4byte	0
 15309 17e6 00000000 		.4byte	0
 15310              	.LLST136:
 15311 17ea BA010000 		.4byte	.LVL315
 15312 17ee C8010000 		.4byte	.LVL317
 15313 17f2 0600     		.2byte	0x6
 15314 17f4 50       		.byte	0x50
 15315 17f5 93       		.byte	0x93
 15316 17f6 04       		.uleb128 0x4
 15317 17f7 51       		.byte	0x51
 15318 17f8 93       		.byte	0x93
 15319 17f9 04       		.uleb128 0x4
 15320 17fa CC010000 		.4byte	.LVL318
 15321 17fe E4010000 		.4byte	.LVL325
 15322 1802 0600     		.2byte	0x6
 15323 1804 50       		.byte	0x50
 15324 1805 93       		.byte	0x93
ARM GAS  C:\Users\rdn\AppData\Local\Temp\cc5zc0m9.s 			page 301


 15325 1806 04       		.uleb128 0x4
 15326 1807 51       		.byte	0x51
 15327 1808 93       		.byte	0x93
 15328 1809 04       		.uleb128 0x4
 15329 180a 00000000 		.4byte	0
 15330 180e 00000000 		.4byte	0
 15331              	.LLST137:
 15332 1812 EE010000 		.4byte	.LVL326
 15333 1816 F6010000 		.4byte	.LVL327
 15334 181a 0100     		.2byte	0x1
 15335 181c 53       		.byte	0x53
 15336 181d 00000000 		.4byte	0
 15337 1821 00000000 		.4byte	0
 15338              	.LLST138:
 15339 1825 BA010000 		.4byte	.LVL315
 15340 1829 F6010000 		.4byte	.LVL327
 15341 182d 0100     		.2byte	0x1
 15342 182f 5C       		.byte	0x5c
 15343 1830 00000000 		.4byte	0
 15344 1834 00000000 		.4byte	0
 15345              	.LLST139:
 15346 1838 BA010000 		.4byte	.LVL315
 15347 183c D4010000 		.4byte	.LVL322
 15348 1840 0100     		.2byte	0x1
 15349 1842 52       		.byte	0x52
 15350 1843 D6010000 		.4byte	.LVL323
 15351 1847 DE010000 		.4byte	.LVL324
 15352 184b 0100     		.2byte	0x1
 15353 184d 52       		.byte	0x52
 15354 184e 00000000 		.4byte	0
 15355 1852 00000000 		.4byte	0
 15356              	.LLST140:
 15357 1856 00000000 		.4byte	.LVL337
 15358 185a 10000000 		.4byte	.LVL340
 15359 185e 0100     		.2byte	0x1
 15360 1860 51       		.byte	0x51
 15361 1861 10000000 		.4byte	.LVL340
 15362 1865 56010000 		.4byte	.LVL377
 15363 1869 0200     		.2byte	0x2
 15364 186b 91       		.byte	0x91
 15365 186c 54       		.sleb128 -44
 15366 186d 56010000 		.4byte	.LVL377
 15367 1871 70010000 		.4byte	.LFE24
 15368 1875 0200     		.2byte	0x2
 15369 1877 7D       		.byte	0x7d
 15370 1878 54       		.sleb128 -44
 15371 1879 00000000 		.4byte	0
 15372 187d 00000000 		.4byte	0
 15373              	.LLST141:
 15374 1881 00000000 		.4byte	.LVL337
 15375 1885 12000000 		.4byte	.LVL341
 15376 1889 0100     		.2byte	0x1
 15377 188b 52       		.byte	0x52
 15378 188c 12000000 		.4byte	.LVL341
 15379 1890 70010000 		.4byte	.LFE24
 15380 1894 0400     		.2byte	0x4
 15381 1896 F3       		.byte	0xf3
ARM GAS  C:\Users\rdn\AppData\Local\Temp\cc5zc0m9.s 			page 302


 15382 1897 01       		.uleb128 0x1
 15383 1898 52       		.byte	0x52
 15384 1899 9F       		.byte	0x9f
 15385 189a 00000000 		.4byte	0
 15386 189e 00000000 		.4byte	0
 15387              	.LLST142:
 15388 18a2 00000000 		.4byte	.LVL337
 15389 18a6 12000000 		.4byte	.LVL341
 15390 18aa 0100     		.2byte	0x1
 15391 18ac 53       		.byte	0x53
 15392 18ad 12000000 		.4byte	.LVL341
 15393 18b1 70010000 		.4byte	.LFE24
 15394 18b5 0100     		.2byte	0x1
 15395 18b7 5E       		.byte	0x5e
 15396 18b8 00000000 		.4byte	0
 15397 18bc 00000000 		.4byte	0
 15398              	.LLST143:
 15399 18c0 0A000000 		.4byte	.LVL338
 15400 18c4 12000000 		.4byte	.LVL341
 15401 18c8 0100     		.2byte	0x1
 15402 18ca 53       		.byte	0x53
 15403 18cb 12000000 		.4byte	.LVL341
 15404 18cf 70010000 		.4byte	.LFE24
 15405 18d3 0100     		.2byte	0x1
 15406 18d5 5E       		.byte	0x5e
 15407 18d6 00000000 		.4byte	0
 15408 18da 00000000 		.4byte	0
 15409              	.LLST144:
 15410 18de 0A000000 		.4byte	.LVL338
 15411 18e2 3A010000 		.4byte	.LVL374
 15412 18e6 0100     		.2byte	0x1
 15413 18e8 52       		.byte	0x52
 15414 18e9 3A010000 		.4byte	.LVL374
 15415 18ed 46010000 		.4byte	.LVL376
 15416 18f1 0300     		.2byte	0x3
 15417 18f3 72       		.byte	0x72
 15418 18f4 02       		.sleb128 2
 15419 18f5 9F       		.byte	0x9f
 15420 18f6 46010000 		.4byte	.LVL376
 15421 18fa 70010000 		.4byte	.LFE24
 15422 18fe 0100     		.2byte	0x1
 15423 1900 52       		.byte	0x52
 15424 1901 00000000 		.4byte	0
 15425 1905 00000000 		.4byte	0
 15426              	.LLST145:
 15427 1909 0A000000 		.4byte	.LVL338
 15428 190d 0E000000 		.4byte	.LVL339
 15429 1911 0100     		.2byte	0x1
 15430 1913 51       		.byte	0x51
 15431 1914 0E000000 		.4byte	.LVL339
 15432 1918 10000000 		.4byte	.LVL340
 15433 191c 0300     		.2byte	0x3
 15434 191e 71       		.byte	0x71
 15435 191f 5A       		.sleb128 -38
 15436 1920 9F       		.byte	0x9f
 15437 1921 10000000 		.4byte	.LVL340
 15438 1925 56010000 		.4byte	.LVL377
ARM GAS  C:\Users\rdn\AppData\Local\Temp\cc5zc0m9.s 			page 303


 15439 1929 0700     		.2byte	0x7
 15440 192b 91       		.byte	0x91
 15441 192c 54       		.sleb128 -44
 15442 192d 06       		.byte	0x6
 15443 192e 08       		.byte	0x8
 15444 192f 26       		.byte	0x26
 15445 1930 1C       		.byte	0x1c
 15446 1931 9F       		.byte	0x9f
 15447 1932 56010000 		.4byte	.LVL377
 15448 1936 70010000 		.4byte	.LFE24
 15449 193a 0700     		.2byte	0x7
 15450 193c 7D       		.byte	0x7d
 15451 193d 54       		.sleb128 -44
 15452 193e 06       		.byte	0x6
 15453 193f 08       		.byte	0x8
 15454 1940 26       		.byte	0x26
 15455 1941 1C       		.byte	0x1c
 15456 1942 9F       		.byte	0x9f
 15457 1943 00000000 		.4byte	0
 15458 1947 00000000 		.4byte	0
 15459              	.LLST146:
 15460 194b 0E000000 		.4byte	.LVL339
 15461 194f 12000000 		.4byte	.LVL341
 15462 1953 0200     		.2byte	0x2
 15463 1955 30       		.byte	0x30
 15464 1956 9F       		.byte	0x9f
 15465 1957 12000000 		.4byte	.LVL341
 15466 195b 70010000 		.4byte	.LFE24
 15467 195f 0100     		.2byte	0x1
 15468 1961 51       		.byte	0x51
 15469 1962 00000000 		.4byte	0
 15470 1966 00000000 		.4byte	0
 15471              	.LLST147:
 15472 196a 2C000000 		.4byte	.LVL342
 15473 196e 4A000000 		.4byte	.LVL345
 15474 1972 0100     		.2byte	0x1
 15475 1974 58       		.byte	0x58
 15476 1975 4A000000 		.4byte	.LVL345
 15477 1979 56000000 		.4byte	.LVL347
 15478 197d 0300     		.2byte	0x3
 15479 197f 78       		.byte	0x78
 15480 1980 02       		.sleb128 2
 15481 1981 9F       		.byte	0x9f
 15482 1982 56000000 		.4byte	.LVL347
 15483 1986 62000000 		.4byte	.LVL349
 15484 198a 0300     		.2byte	0x3
 15485 198c 78       		.byte	0x78
 15486 198d 04       		.sleb128 4
 15487 198e 9F       		.byte	0x9f
 15488 198f 62000000 		.4byte	.LVL349
 15489 1993 6E000000 		.4byte	.LVL351
 15490 1997 0300     		.2byte	0x3
 15491 1999 78       		.byte	0x78
 15492 199a 06       		.sleb128 6
 15493 199b 9F       		.byte	0x9f
 15494 199c 6E000000 		.4byte	.LVL351
 15495 19a0 7A000000 		.4byte	.LVL353
ARM GAS  C:\Users\rdn\AppData\Local\Temp\cc5zc0m9.s 			page 304


 15496 19a4 0300     		.2byte	0x3
 15497 19a6 78       		.byte	0x78
 15498 19a7 08       		.sleb128 8
 15499 19a8 9F       		.byte	0x9f
 15500 19a9 7A000000 		.4byte	.LVL353
 15501 19ad 86000000 		.4byte	.LVL355
 15502 19b1 0300     		.2byte	0x3
 15503 19b3 78       		.byte	0x78
 15504 19b4 0A       		.sleb128 10
 15505 19b5 9F       		.byte	0x9f
 15506 19b6 86000000 		.4byte	.LVL355
 15507 19ba 92000000 		.4byte	.LVL357
 15508 19be 0300     		.2byte	0x3
 15509 19c0 78       		.byte	0x78
 15510 19c1 0C       		.sleb128 12
 15511 19c2 9F       		.byte	0x9f
 15512 19c3 92000000 		.4byte	.LVL357
 15513 19c7 9E000000 		.4byte	.LVL359
 15514 19cb 0300     		.2byte	0x3
 15515 19cd 78       		.byte	0x78
 15516 19ce 0E       		.sleb128 14
 15517 19cf 9F       		.byte	0x9f
 15518 19d0 9E000000 		.4byte	.LVL359
 15519 19d4 AA000000 		.4byte	.LVL361
 15520 19d8 0300     		.2byte	0x3
 15521 19da 78       		.byte	0x78
 15522 19db 10       		.sleb128 16
 15523 19dc 9F       		.byte	0x9f
 15524 19dd AA000000 		.4byte	.LVL361
 15525 19e1 B6000000 		.4byte	.LVL363
 15526 19e5 0300     		.2byte	0x3
 15527 19e7 78       		.byte	0x78
 15528 19e8 12       		.sleb128 18
 15529 19e9 9F       		.byte	0x9f
 15530 19ea B6000000 		.4byte	.LVL363
 15531 19ee C8000000 		.4byte	.LVL367
 15532 19f2 0300     		.2byte	0x3
 15533 19f4 78       		.byte	0x78
 15534 19f5 14       		.sleb128 20
 15535 19f6 9F       		.byte	0x9f
 15536 19f7 C8000000 		.4byte	.LVL367
 15537 19fb D2000000 		.4byte	.LVL369
 15538 19ff 0100     		.2byte	0x1
 15539 1a01 58       		.byte	0x58
 15540 1a02 00000000 		.4byte	0
 15541 1a06 00000000 		.4byte	0
 15542              	.LLST148:
 15543 1a0a 3E000000 		.4byte	.LVL343
 15544 1a0e 46000000 		.4byte	.LVL344
 15545 1a12 0100     		.2byte	0x1
 15546 1a14 57       		.byte	0x57
 15547 1a15 46000000 		.4byte	.LVL344
 15548 1a19 52000000 		.4byte	.LVL346
 15549 1a1d 0300     		.2byte	0x3
 15550 1a1f 77       		.byte	0x77
 15551 1a20 02       		.sleb128 2
 15552 1a21 9F       		.byte	0x9f
ARM GAS  C:\Users\rdn\AppData\Local\Temp\cc5zc0m9.s 			page 305


 15553 1a22 52000000 		.4byte	.LVL346
 15554 1a26 5E000000 		.4byte	.LVL348
 15555 1a2a 0300     		.2byte	0x3
 15556 1a2c 77       		.byte	0x77
 15557 1a2d 04       		.sleb128 4
 15558 1a2e 9F       		.byte	0x9f
 15559 1a2f 5E000000 		.4byte	.LVL348
 15560 1a33 6A000000 		.4byte	.LVL350
 15561 1a37 0300     		.2byte	0x3
 15562 1a39 77       		.byte	0x77
 15563 1a3a 06       		.sleb128 6
 15564 1a3b 9F       		.byte	0x9f
 15565 1a3c 6A000000 		.4byte	.LVL350
 15566 1a40 76000000 		.4byte	.LVL352
 15567 1a44 0300     		.2byte	0x3
 15568 1a46 77       		.byte	0x77
 15569 1a47 08       		.sleb128 8
 15570 1a48 9F       		.byte	0x9f
 15571 1a49 76000000 		.4byte	.LVL352
 15572 1a4d 82000000 		.4byte	.LVL354
 15573 1a51 0300     		.2byte	0x3
 15574 1a53 77       		.byte	0x77
 15575 1a54 0A       		.sleb128 10
 15576 1a55 9F       		.byte	0x9f
 15577 1a56 82000000 		.4byte	.LVL354
 15578 1a5a 8E000000 		.4byte	.LVL356
 15579 1a5e 0300     		.2byte	0x3
 15580 1a60 77       		.byte	0x77
 15581 1a61 0C       		.sleb128 12
 15582 1a62 9F       		.byte	0x9f
 15583 1a63 8E000000 		.4byte	.LVL356
 15584 1a67 9A000000 		.4byte	.LVL358
 15585 1a6b 0300     		.2byte	0x3
 15586 1a6d 77       		.byte	0x77
 15587 1a6e 0E       		.sleb128 14
 15588 1a6f 9F       		.byte	0x9f
 15589 1a70 9A000000 		.4byte	.LVL358
 15590 1a74 A6000000 		.4byte	.LVL360
 15591 1a78 0300     		.2byte	0x3
 15592 1a7a 77       		.byte	0x77
 15593 1a7b 10       		.sleb128 16
 15594 1a7c 9F       		.byte	0x9f
 15595 1a7d A6000000 		.4byte	.LVL360
 15596 1a81 B2000000 		.4byte	.LVL362
 15597 1a85 0300     		.2byte	0x3
 15598 1a87 77       		.byte	0x77
 15599 1a88 12       		.sleb128 18
 15600 1a89 9F       		.byte	0x9f
 15601 1a8a B2000000 		.4byte	.LVL362
 15602 1a8e C4000000 		.4byte	.LVL366
 15603 1a92 0300     		.2byte	0x3
 15604 1a94 77       		.byte	0x77
 15605 1a95 14       		.sleb128 20
 15606 1a96 9F       		.byte	0x9f
 15607 1a97 C4000000 		.4byte	.LVL366
 15608 1a9b D4000000 		.4byte	.LVL370
 15609 1a9f 0100     		.2byte	0x1
ARM GAS  C:\Users\rdn\AppData\Local\Temp\cc5zc0m9.s 			page 306


 15610 1aa1 57       		.byte	0x57
 15611 1aa2 00000000 		.4byte	0
 15612 1aa6 00000000 		.4byte	0
 15613              	.LLST149:
 15614 1aaa 3E000000 		.4byte	.LVL343
 15615 1aae 46000000 		.4byte	.LVL344
 15616 1ab2 0200     		.2byte	0x2
 15617 1ab4 30       		.byte	0x30
 15618 1ab5 9F       		.byte	0x9f
 15619 1ab6 46000000 		.4byte	.LVL344
 15620 1aba 76000000 		.4byte	.LVL352
 15621 1abe 0100     		.2byte	0x1
 15622 1ac0 55       		.byte	0x55
 15623 1ac1 76000000 		.4byte	.LVL352
 15624 1ac5 A6000000 		.4byte	.LVL360
 15625 1ac9 0100     		.2byte	0x1
 15626 1acb 54       		.byte	0x54
 15627 1acc A6000000 		.4byte	.LVL360
 15628 1ad0 B2000000 		.4byte	.LVL362
 15629 1ad4 0100     		.2byte	0x1
 15630 1ad6 55       		.byte	0x55
 15631 1ad7 B2000000 		.4byte	.LVL362
 15632 1adb BE000000 		.4byte	.LVL364
 15633 1adf 0100     		.2byte	0x1
 15634 1ae1 54       		.byte	0x54
 15635 1ae2 BE000000 		.4byte	.LVL364
 15636 1ae6 00010000 		.4byte	.LVL373
 15637 1aea 0100     		.2byte	0x1
 15638 1aec 55       		.byte	0x55
 15639 1aed 00000000 		.4byte	0
 15640 1af1 00000000 		.4byte	0
 15641              	.LLST150:
 15642 1af5 3E000000 		.4byte	.LVL343
 15643 1af9 46000000 		.4byte	.LVL344
 15644 1afd 0200     		.2byte	0x2
 15645 1aff 30       		.byte	0x30
 15646 1b00 9F       		.byte	0x9f
 15647 1b01 46000000 		.4byte	.LVL344
 15648 1b05 E6000000 		.4byte	.LVL371
 15649 1b09 0100     		.2byte	0x1
 15650 1b0b 59       		.byte	0x59
 15651 1b0c 00000000 		.4byte	0
 15652 1b10 00000000 		.4byte	0
 15653              	.LLST151:
 15654 1b14 CE000000 		.4byte	.LVL368
 15655 1b18 00010000 		.4byte	.LVL373
 15656 1b1c 0100     		.2byte	0x1
 15657 1b1e 55       		.byte	0x55
 15658 1b1f 00000000 		.4byte	0
 15659 1b23 00000000 		.4byte	0
 15660              	.LLST152:
 15661 1b27 CE000000 		.4byte	.LVL368
 15662 1b2b 3A010000 		.4byte	.LVL374
 15663 1b2f 0100     		.2byte	0x1
 15664 1b31 50       		.byte	0x50
 15665 1b32 00000000 		.4byte	0
 15666 1b36 00000000 		.4byte	0
ARM GAS  C:\Users\rdn\AppData\Local\Temp\cc5zc0m9.s 			page 307


 15667              	.LLST153:
 15668 1b3a EE000000 		.4byte	.LVL372
 15669 1b3e 3A010000 		.4byte	.LVL374
 15670 1b42 0100     		.2byte	0x1
 15671 1b44 53       		.byte	0x53
 15672 1b45 00000000 		.4byte	0
 15673 1b49 00000000 		.4byte	0
 15674              	.LLST154:
 15675 1b4d CE000000 		.4byte	.LVL368
 15676 1b51 46010000 		.4byte	.LVL376
 15677 1b55 0600     		.2byte	0x6
 15678 1b57 9E       		.byte	0x9e
 15679 1b58 04       		.uleb128 0x4
 15680 1b59 25A23882 		.4byte	0x8238a225
 15681 1b5d 00000000 		.4byte	0
 15682 1b61 00000000 		.4byte	0
 15683              	.LLST155:
 15684 1b65 CE000000 		.4byte	.LVL368
 15685 1b69 46010000 		.4byte	.LVL376
 15686 1b6d 0600     		.2byte	0x6
 15687 1b6f 0C       		.byte	0xc
 15688 1b70 4111D13D 		.4byte	0x3dd11141
 15689 1b74 9F       		.byte	0x9f
 15690 1b75 00000000 		.4byte	0
 15691 1b79 00000000 		.4byte	0
 15692              	.LLST156:
 15693 1b7d CE000000 		.4byte	.LVL368
 15694 1b81 46010000 		.4byte	.LVL376
 15695 1b85 0600     		.2byte	0x6
 15696 1b87 9E       		.byte	0x9e
 15697 1b88 04       		.uleb128 0x4
 15698 1b89 72C83382 		.4byte	0x8233c872
 15699 1b8d 00000000 		.4byte	0
 15700 1b91 00000000 		.4byte	0
 15701              	.LLST157:
 15702 1b95 CE000000 		.4byte	.LVL368
 15703 1b99 46010000 		.4byte	.LVL376
 15704 1b9d 0600     		.2byte	0x6
 15705 1b9f 0C       		.byte	0xc
 15706 1ba0 C61BE63E 		.4byte	0x3ee61bc6
 15707 1ba4 9F       		.byte	0x9f
 15708 1ba5 00000000 		.4byte	0
 15709 1ba9 00000000 		.4byte	0
 15710              	.LLST158:
 15711 1bad 00000000 		.4byte	.LVL378
 15712 1bb1 10000000 		.4byte	.LVL381
 15713 1bb5 0100     		.2byte	0x1
 15714 1bb7 51       		.byte	0x51
 15715 1bb8 10000000 		.4byte	.LVL381
 15716 1bbc 52010000 		.4byte	.LVL418
 15717 1bc0 0200     		.2byte	0x2
 15718 1bc2 91       		.byte	0x91
 15719 1bc3 54       		.sleb128 -44
 15720 1bc4 52010000 		.4byte	.LVL418
 15721 1bc8 6C010000 		.4byte	.LFE25
 15722 1bcc 0200     		.2byte	0x2
 15723 1bce 7D       		.byte	0x7d
ARM GAS  C:\Users\rdn\AppData\Local\Temp\cc5zc0m9.s 			page 308


 15724 1bcf 54       		.sleb128 -44
 15725 1bd0 00000000 		.4byte	0
 15726 1bd4 00000000 		.4byte	0
 15727              	.LLST159:
 15728 1bd8 00000000 		.4byte	.LVL378
 15729 1bdc 12000000 		.4byte	.LVL382
 15730 1be0 0100     		.2byte	0x1
 15731 1be2 52       		.byte	0x52
 15732 1be3 12000000 		.4byte	.LVL382
 15733 1be7 6C010000 		.4byte	.LFE25
 15734 1beb 0400     		.2byte	0x4
 15735 1bed F3       		.byte	0xf3
 15736 1bee 01       		.uleb128 0x1
 15737 1bef 52       		.byte	0x52
 15738 1bf0 9F       		.byte	0x9f
 15739 1bf1 00000000 		.4byte	0
 15740 1bf5 00000000 		.4byte	0
 15741              	.LLST160:
 15742 1bf9 00000000 		.4byte	.LVL378
 15743 1bfd 12000000 		.4byte	.LVL382
 15744 1c01 0100     		.2byte	0x1
 15745 1c03 53       		.byte	0x53
 15746 1c04 12000000 		.4byte	.LVL382
 15747 1c08 6C010000 		.4byte	.LFE25
 15748 1c0c 0100     		.2byte	0x1
 15749 1c0e 5E       		.byte	0x5e
 15750 1c0f 00000000 		.4byte	0
 15751 1c13 00000000 		.4byte	0
 15752              	.LLST161:
 15753 1c17 0A000000 		.4byte	.LVL379
 15754 1c1b 12000000 		.4byte	.LVL382
 15755 1c1f 0100     		.2byte	0x1
 15756 1c21 53       		.byte	0x53
 15757 1c22 12000000 		.4byte	.LVL382
 15758 1c26 6C010000 		.4byte	.LFE25
 15759 1c2a 0100     		.2byte	0x1
 15760 1c2c 5E       		.byte	0x5e
 15761 1c2d 00000000 		.4byte	0
 15762 1c31 00000000 		.4byte	0
 15763              	.LLST162:
 15764 1c35 0A000000 		.4byte	.LVL379
 15765 1c39 36010000 		.4byte	.LVL415
 15766 1c3d 0100     		.2byte	0x1
 15767 1c3f 52       		.byte	0x52
 15768 1c40 36010000 		.4byte	.LVL415
 15769 1c44 42010000 		.4byte	.LVL417
 15770 1c48 0300     		.2byte	0x3
 15771 1c4a 72       		.byte	0x72
 15772 1c4b 02       		.sleb128 2
 15773 1c4c 9F       		.byte	0x9f
 15774 1c4d 42010000 		.4byte	.LVL417
 15775 1c51 6C010000 		.4byte	.LFE25
 15776 1c55 0100     		.2byte	0x1
 15777 1c57 52       		.byte	0x52
 15778 1c58 00000000 		.4byte	0
 15779 1c5c 00000000 		.4byte	0
 15780              	.LLST163:
ARM GAS  C:\Users\rdn\AppData\Local\Temp\cc5zc0m9.s 			page 309


 15781 1c60 0A000000 		.4byte	.LVL379
 15782 1c64 0E000000 		.4byte	.LVL380
 15783 1c68 0100     		.2byte	0x1
 15784 1c6a 51       		.byte	0x51
 15785 1c6b 0E000000 		.4byte	.LVL380
 15786 1c6f 10000000 		.4byte	.LVL381
 15787 1c73 0400     		.2byte	0x4
 15788 1c75 71       		.byte	0x71
 15789 1c76 B27F     		.sleb128 -78
 15790 1c78 9F       		.byte	0x9f
 15791 1c79 10000000 		.4byte	.LVL381
 15792 1c7d 52010000 		.4byte	.LVL418
 15793 1c81 0700     		.2byte	0x7
 15794 1c83 91       		.byte	0x91
 15795 1c84 54       		.sleb128 -44
 15796 1c85 06       		.byte	0x6
 15797 1c86 08       		.byte	0x8
 15798 1c87 4E       		.byte	0x4e
 15799 1c88 1C       		.byte	0x1c
 15800 1c89 9F       		.byte	0x9f
 15801 1c8a 52010000 		.4byte	.LVL418
 15802 1c8e 6C010000 		.4byte	.LFE25
 15803 1c92 0700     		.2byte	0x7
 15804 1c94 7D       		.byte	0x7d
 15805 1c95 54       		.sleb128 -44
 15806 1c96 06       		.byte	0x6
 15807 1c97 08       		.byte	0x8
 15808 1c98 4E       		.byte	0x4e
 15809 1c99 1C       		.byte	0x1c
 15810 1c9a 9F       		.byte	0x9f
 15811 1c9b 00000000 		.4byte	0
 15812 1c9f 00000000 		.4byte	0
 15813              	.LLST164:
 15814 1ca3 0E000000 		.4byte	.LVL380
 15815 1ca7 12000000 		.4byte	.LVL382
 15816 1cab 0200     		.2byte	0x2
 15817 1cad 30       		.byte	0x30
 15818 1cae 9F       		.byte	0x9f
 15819 1caf 12000000 		.4byte	.LVL382
 15820 1cb3 6C010000 		.4byte	.LFE25
 15821 1cb7 0100     		.2byte	0x1
 15822 1cb9 51       		.byte	0x51
 15823 1cba 00000000 		.4byte	0
 15824 1cbe 00000000 		.4byte	0
 15825              	.LLST165:
 15826 1cc2 2C000000 		.4byte	.LVL383
 15827 1cc6 46000000 		.4byte	.LVL386
 15828 1cca 0100     		.2byte	0x1
 15829 1ccc 58       		.byte	0x58
 15830 1ccd 46000000 		.4byte	.LVL386
 15831 1cd1 52000000 		.4byte	.LVL388
 15832 1cd5 0300     		.2byte	0x3
 15833 1cd7 78       		.byte	0x78
 15834 1cd8 02       		.sleb128 2
 15835 1cd9 9F       		.byte	0x9f
 15836 1cda 52000000 		.4byte	.LVL388
 15837 1cde 5E000000 		.4byte	.LVL390
ARM GAS  C:\Users\rdn\AppData\Local\Temp\cc5zc0m9.s 			page 310


 15838 1ce2 0300     		.2byte	0x3
 15839 1ce4 78       		.byte	0x78
 15840 1ce5 04       		.sleb128 4
 15841 1ce6 9F       		.byte	0x9f
 15842 1ce7 5E000000 		.4byte	.LVL390
 15843 1ceb 6A000000 		.4byte	.LVL392
 15844 1cef 0300     		.2byte	0x3
 15845 1cf1 78       		.byte	0x78
 15846 1cf2 06       		.sleb128 6
 15847 1cf3 9F       		.byte	0x9f
 15848 1cf4 6A000000 		.4byte	.LVL392
 15849 1cf8 76000000 		.4byte	.LVL394
 15850 1cfc 0300     		.2byte	0x3
 15851 1cfe 78       		.byte	0x78
 15852 1cff 08       		.sleb128 8
 15853 1d00 9F       		.byte	0x9f
 15854 1d01 76000000 		.4byte	.LVL394
 15855 1d05 82000000 		.4byte	.LVL396
 15856 1d09 0300     		.2byte	0x3
 15857 1d0b 78       		.byte	0x78
 15858 1d0c 0A       		.sleb128 10
 15859 1d0d 9F       		.byte	0x9f
 15860 1d0e 82000000 		.4byte	.LVL396
 15861 1d12 8E000000 		.4byte	.LVL398
 15862 1d16 0300     		.2byte	0x3
 15863 1d18 78       		.byte	0x78
 15864 1d19 0C       		.sleb128 12
 15865 1d1a 9F       		.byte	0x9f
 15866 1d1b 8E000000 		.4byte	.LVL398
 15867 1d1f 9A000000 		.4byte	.LVL400
 15868 1d23 0300     		.2byte	0x3
 15869 1d25 78       		.byte	0x78
 15870 1d26 0E       		.sleb128 14
 15871 1d27 9F       		.byte	0x9f
 15872 1d28 9A000000 		.4byte	.LVL400
 15873 1d2c A6000000 		.4byte	.LVL402
 15874 1d30 0300     		.2byte	0x3
 15875 1d32 78       		.byte	0x78
 15876 1d33 10       		.sleb128 16
 15877 1d34 9F       		.byte	0x9f
 15878 1d35 A6000000 		.4byte	.LVL402
 15879 1d39 B2000000 		.4byte	.LVL404
 15880 1d3d 0300     		.2byte	0x3
 15881 1d3f 78       		.byte	0x78
 15882 1d40 12       		.sleb128 18
 15883 1d41 9F       		.byte	0x9f
 15884 1d42 B2000000 		.4byte	.LVL404
 15885 1d46 C4000000 		.4byte	.LVL408
 15886 1d4a 0300     		.2byte	0x3
 15887 1d4c 78       		.byte	0x78
 15888 1d4d 14       		.sleb128 20
 15889 1d4e 9F       		.byte	0x9f
 15890 1d4f C4000000 		.4byte	.LVL408
 15891 1d53 CE000000 		.4byte	.LVL410
 15892 1d57 0100     		.2byte	0x1
 15893 1d59 58       		.byte	0x58
 15894 1d5a 00000000 		.4byte	0
ARM GAS  C:\Users\rdn\AppData\Local\Temp\cc5zc0m9.s 			page 311


 15895 1d5e 00000000 		.4byte	0
 15896              	.LLST166:
 15897 1d62 3A000000 		.4byte	.LVL384
 15898 1d66 42000000 		.4byte	.LVL385
 15899 1d6a 0100     		.2byte	0x1
 15900 1d6c 57       		.byte	0x57
 15901 1d6d 42000000 		.4byte	.LVL385
 15902 1d71 4E000000 		.4byte	.LVL387
 15903 1d75 0300     		.2byte	0x3
 15904 1d77 77       		.byte	0x77
 15905 1d78 02       		.sleb128 2
 15906 1d79 9F       		.byte	0x9f
 15907 1d7a 4E000000 		.4byte	.LVL387
 15908 1d7e 5A000000 		.4byte	.LVL389
 15909 1d82 0300     		.2byte	0x3
 15910 1d84 77       		.byte	0x77
 15911 1d85 04       		.sleb128 4
 15912 1d86 9F       		.byte	0x9f
 15913 1d87 5A000000 		.4byte	.LVL389
 15914 1d8b 66000000 		.4byte	.LVL391
 15915 1d8f 0300     		.2byte	0x3
 15916 1d91 77       		.byte	0x77
 15917 1d92 06       		.sleb128 6
 15918 1d93 9F       		.byte	0x9f
 15919 1d94 66000000 		.4byte	.LVL391
 15920 1d98 72000000 		.4byte	.LVL393
 15921 1d9c 0300     		.2byte	0x3
 15922 1d9e 77       		.byte	0x77
 15923 1d9f 08       		.sleb128 8
 15924 1da0 9F       		.byte	0x9f
 15925 1da1 72000000 		.4byte	.LVL393
 15926 1da5 7E000000 		.4byte	.LVL395
 15927 1da9 0300     		.2byte	0x3
 15928 1dab 77       		.byte	0x77
 15929 1dac 0A       		.sleb128 10
 15930 1dad 9F       		.byte	0x9f
 15931 1dae 7E000000 		.4byte	.LVL395
 15932 1db2 8A000000 		.4byte	.LVL397
 15933 1db6 0300     		.2byte	0x3
 15934 1db8 77       		.byte	0x77
 15935 1db9 0C       		.sleb128 12
 15936 1dba 9F       		.byte	0x9f
 15937 1dbb 8A000000 		.4byte	.LVL397
 15938 1dbf 96000000 		.4byte	.LVL399
 15939 1dc3 0300     		.2byte	0x3
 15940 1dc5 77       		.byte	0x77
 15941 1dc6 0E       		.sleb128 14
 15942 1dc7 9F       		.byte	0x9f
 15943 1dc8 96000000 		.4byte	.LVL399
 15944 1dcc A2000000 		.4byte	.LVL401
 15945 1dd0 0300     		.2byte	0x3
 15946 1dd2 77       		.byte	0x77
 15947 1dd3 10       		.sleb128 16
 15948 1dd4 9F       		.byte	0x9f
 15949 1dd5 A2000000 		.4byte	.LVL401
 15950 1dd9 AE000000 		.4byte	.LVL403
 15951 1ddd 0300     		.2byte	0x3
ARM GAS  C:\Users\rdn\AppData\Local\Temp\cc5zc0m9.s 			page 312


 15952 1ddf 77       		.byte	0x77
 15953 1de0 12       		.sleb128 18
 15954 1de1 9F       		.byte	0x9f
 15955 1de2 AE000000 		.4byte	.LVL403
 15956 1de6 C0000000 		.4byte	.LVL407
 15957 1dea 0300     		.2byte	0x3
 15958 1dec 77       		.byte	0x77
 15959 1ded 14       		.sleb128 20
 15960 1dee 9F       		.byte	0x9f
 15961 1def C0000000 		.4byte	.LVL407
 15962 1df3 D0000000 		.4byte	.LVL411
 15963 1df7 0100     		.2byte	0x1
 15964 1df9 57       		.byte	0x57
 15965 1dfa 00000000 		.4byte	0
 15966 1dfe 00000000 		.4byte	0
 15967              	.LLST167:
 15968 1e02 3A000000 		.4byte	.LVL384
 15969 1e06 42000000 		.4byte	.LVL385
 15970 1e0a 0200     		.2byte	0x2
 15971 1e0c 30       		.byte	0x30
 15972 1e0d 9F       		.byte	0x9f
 15973 1e0e 42000000 		.4byte	.LVL385
 15974 1e12 72000000 		.4byte	.LVL393
 15975 1e16 0100     		.2byte	0x1
 15976 1e18 55       		.byte	0x55
 15977 1e19 72000000 		.4byte	.LVL393
 15978 1e1d A2000000 		.4byte	.LVL401
 15979 1e21 0100     		.2byte	0x1
 15980 1e23 54       		.byte	0x54
 15981 1e24 A2000000 		.4byte	.LVL401
 15982 1e28 AE000000 		.4byte	.LVL403
 15983 1e2c 0100     		.2byte	0x1
 15984 1e2e 55       		.byte	0x55
 15985 1e2f AE000000 		.4byte	.LVL403
 15986 1e33 BA000000 		.4byte	.LVL405
 15987 1e37 0100     		.2byte	0x1
 15988 1e39 54       		.byte	0x54
 15989 1e3a BA000000 		.4byte	.LVL405
 15990 1e3e FC000000 		.4byte	.LVL414
 15991 1e42 0100     		.2byte	0x1
 15992 1e44 55       		.byte	0x55
 15993 1e45 00000000 		.4byte	0
 15994 1e49 00000000 		.4byte	0
 15995              	.LLST168:
 15996 1e4d 3A000000 		.4byte	.LVL384
 15997 1e51 42000000 		.4byte	.LVL385
 15998 1e55 0200     		.2byte	0x2
 15999 1e57 30       		.byte	0x30
 16000 1e58 9F       		.byte	0x9f
 16001 1e59 42000000 		.4byte	.LVL385
 16002 1e5d E2000000 		.4byte	.LVL412
 16003 1e61 0100     		.2byte	0x1
 16004 1e63 59       		.byte	0x59
 16005 1e64 00000000 		.4byte	0
 16006 1e68 00000000 		.4byte	0
 16007              	.LLST169:
 16008 1e6c CA000000 		.4byte	.LVL409
ARM GAS  C:\Users\rdn\AppData\Local\Temp\cc5zc0m9.s 			page 313


 16009 1e70 FC000000 		.4byte	.LVL414
 16010 1e74 0100     		.2byte	0x1
 16011 1e76 55       		.byte	0x55
 16012 1e77 00000000 		.4byte	0
 16013 1e7b 00000000 		.4byte	0
 16014              	.LLST170:
 16015 1e7f CA000000 		.4byte	.LVL409
 16016 1e83 36010000 		.4byte	.LVL415
 16017 1e87 0100     		.2byte	0x1
 16018 1e89 50       		.byte	0x50
 16019 1e8a 00000000 		.4byte	0
 16020 1e8e 00000000 		.4byte	0
 16021              	.LLST171:
 16022 1e92 EA000000 		.4byte	.LVL413
 16023 1e96 36010000 		.4byte	.LVL415
 16024 1e9a 0100     		.2byte	0x1
 16025 1e9c 53       		.byte	0x53
 16026 1e9d 00000000 		.4byte	0
 16027 1ea1 00000000 		.4byte	0
 16028              	.LLST172:
 16029 1ea5 CA000000 		.4byte	.LVL409
 16030 1ea9 42010000 		.4byte	.LVL417
 16031 1ead 0600     		.2byte	0x6
 16032 1eaf 9E       		.byte	0x9e
 16033 1eb0 04       		.uleb128 0x4
 16034 1eb1 25A23882 		.4byte	0x8238a225
 16035 1eb5 00000000 		.4byte	0
 16036 1eb9 00000000 		.4byte	0
 16037              	.LLST173:
 16038 1ebd CA000000 		.4byte	.LVL409
 16039 1ec1 42010000 		.4byte	.LVL417
 16040 1ec5 0600     		.2byte	0x6
 16041 1ec7 0C       		.byte	0xc
 16042 1ec8 4111D13D 		.4byte	0x3dd11141
 16043 1ecc 9F       		.byte	0x9f
 16044 1ecd 00000000 		.4byte	0
 16045 1ed1 00000000 		.4byte	0
 16046              	.LLST174:
 16047 1ed5 CA000000 		.4byte	.LVL409
 16048 1ed9 42010000 		.4byte	.LVL417
 16049 1edd 0600     		.2byte	0x6
 16050 1edf 9E       		.byte	0x9e
 16051 1ee0 04       		.uleb128 0x4
 16052 1ee1 72C83382 		.4byte	0x8233c872
 16053 1ee5 00000000 		.4byte	0
 16054 1ee9 00000000 		.4byte	0
 16055              	.LLST175:
 16056 1eed CA000000 		.4byte	.LVL409
 16057 1ef1 42010000 		.4byte	.LVL417
 16058 1ef5 0600     		.2byte	0x6
 16059 1ef7 0C       		.byte	0xc
 16060 1ef8 C61BE63E 		.4byte	0x3ee61bc6
 16061 1efc 9F       		.byte	0x9f
 16062 1efd 00000000 		.4byte	0
 16063 1f01 00000000 		.4byte	0
 16064              	.LLST176:
 16065 1f05 00000000 		.4byte	.LVL419
ARM GAS  C:\Users\rdn\AppData\Local\Temp\cc5zc0m9.s 			page 314


 16066 1f09 10000000 		.4byte	.LVL422
 16067 1f0d 0100     		.2byte	0x1
 16068 1f0f 51       		.byte	0x51
 16069 1f10 10000000 		.4byte	.LVL422
 16070 1f14 92010000 		.4byte	.LVL469
 16071 1f18 0200     		.2byte	0x2
 16072 1f1a 91       		.byte	0x91
 16073 1f1b 54       		.sleb128 -44
 16074 1f1c 92010000 		.4byte	.LVL469
 16075 1f20 AC010000 		.4byte	.LFE26
 16076 1f24 0200     		.2byte	0x2
 16077 1f26 7D       		.byte	0x7d
 16078 1f27 54       		.sleb128 -44
 16079 1f28 00000000 		.4byte	0
 16080 1f2c 00000000 		.4byte	0
 16081              	.LLST177:
 16082 1f30 00000000 		.4byte	.LVL419
 16083 1f34 12000000 		.4byte	.LVL423
 16084 1f38 0100     		.2byte	0x1
 16085 1f3a 52       		.byte	0x52
 16086 1f3b 12000000 		.4byte	.LVL423
 16087 1f3f AC010000 		.4byte	.LFE26
 16088 1f43 0400     		.2byte	0x4
 16089 1f45 F3       		.byte	0xf3
 16090 1f46 01       		.uleb128 0x1
 16091 1f47 52       		.byte	0x52
 16092 1f48 9F       		.byte	0x9f
 16093 1f49 00000000 		.4byte	0
 16094 1f4d 00000000 		.4byte	0
 16095              	.LLST178:
 16096 1f51 00000000 		.4byte	.LVL419
 16097 1f55 12000000 		.4byte	.LVL423
 16098 1f59 0100     		.2byte	0x1
 16099 1f5b 53       		.byte	0x53
 16100 1f5c 12000000 		.4byte	.LVL423
 16101 1f60 AC010000 		.4byte	.LFE26
 16102 1f64 0100     		.2byte	0x1
 16103 1f66 5E       		.byte	0x5e
 16104 1f67 00000000 		.4byte	0
 16105 1f6b 00000000 		.4byte	0
 16106              	.LLST179:
 16107 1f6f 0A000000 		.4byte	.LVL420
 16108 1f73 12000000 		.4byte	.LVL423
 16109 1f77 0100     		.2byte	0x1
 16110 1f79 53       		.byte	0x53
 16111 1f7a 12000000 		.4byte	.LVL423
 16112 1f7e AC010000 		.4byte	.LFE26
 16113 1f82 0100     		.2byte	0x1
 16114 1f84 5E       		.byte	0x5e
 16115 1f85 00000000 		.4byte	0
 16116 1f89 00000000 		.4byte	0
 16117              	.LLST180:
 16118 1f8d 0A000000 		.4byte	.LVL420
 16119 1f91 76010000 		.4byte	.LVL466
 16120 1f95 0100     		.2byte	0x1
 16121 1f97 52       		.byte	0x52
 16122 1f98 76010000 		.4byte	.LVL466
ARM GAS  C:\Users\rdn\AppData\Local\Temp\cc5zc0m9.s 			page 315


 16123 1f9c 82010000 		.4byte	.LVL468
 16124 1fa0 0300     		.2byte	0x3
 16125 1fa2 72       		.byte	0x72
 16126 1fa3 02       		.sleb128 2
 16127 1fa4 9F       		.byte	0x9f
 16128 1fa5 82010000 		.4byte	.LVL468
 16129 1fa9 AC010000 		.4byte	.LFE26
 16130 1fad 0100     		.2byte	0x1
 16131 1faf 52       		.byte	0x52
 16132 1fb0 00000000 		.4byte	0
 16133 1fb4 00000000 		.4byte	0
 16134              	.LLST181:
 16135 1fb8 0A000000 		.4byte	.LVL420
 16136 1fbc 0E000000 		.4byte	.LVL421
 16137 1fc0 0100     		.2byte	0x1
 16138 1fc2 51       		.byte	0x51
 16139 1fc3 0E000000 		.4byte	.LVL421
 16140 1fc7 10000000 		.4byte	.LVL422
 16141 1fcb 0300     		.2byte	0x3
 16142 1fcd 71       		.byte	0x71
 16143 1fce 46       		.sleb128 -58
 16144 1fcf 9F       		.byte	0x9f
 16145 1fd0 10000000 		.4byte	.LVL422
 16146 1fd4 92010000 		.4byte	.LVL469
 16147 1fd8 0700     		.2byte	0x7
 16148 1fda 91       		.byte	0x91
 16149 1fdb 54       		.sleb128 -44
 16150 1fdc 06       		.byte	0x6
 16151 1fdd 08       		.byte	0x8
 16152 1fde 3A       		.byte	0x3a
 16153 1fdf 1C       		.byte	0x1c
 16154 1fe0 9F       		.byte	0x9f
 16155 1fe1 92010000 		.4byte	.LVL469
 16156 1fe5 AC010000 		.4byte	.LFE26
 16157 1fe9 0700     		.2byte	0x7
 16158 1feb 7D       		.byte	0x7d
 16159 1fec 54       		.sleb128 -44
 16160 1fed 06       		.byte	0x6
 16161 1fee 08       		.byte	0x8
 16162 1fef 3A       		.byte	0x3a
 16163 1ff0 1C       		.byte	0x1c
 16164 1ff1 9F       		.byte	0x9f
 16165 1ff2 00000000 		.4byte	0
 16166 1ff6 00000000 		.4byte	0
 16167              	.LLST182:
 16168 1ffa 0E000000 		.4byte	.LVL421
 16169 1ffe 12000000 		.4byte	.LVL423
 16170 2002 0200     		.2byte	0x2
 16171 2004 30       		.byte	0x30
 16172 2005 9F       		.byte	0x9f
 16173 2006 12000000 		.4byte	.LVL423
 16174 200a AC010000 		.4byte	.LFE26
 16175 200e 0100     		.2byte	0x1
 16176 2010 51       		.byte	0x51
 16177 2011 00000000 		.4byte	0
 16178 2015 00000000 		.4byte	0
 16179              	.LLST183:
ARM GAS  C:\Users\rdn\AppData\Local\Temp\cc5zc0m9.s 			page 316


 16180 2019 2C000000 		.4byte	.LVL424
 16181 201d 4A000000 		.4byte	.LVL427
 16182 2021 0100     		.2byte	0x1
 16183 2023 58       		.byte	0x58
 16184 2024 4A000000 		.4byte	.LVL427
 16185 2028 56000000 		.4byte	.LVL429
 16186 202c 0300     		.2byte	0x3
 16187 202e 78       		.byte	0x78
 16188 202f 02       		.sleb128 2
 16189 2030 9F       		.byte	0x9f
 16190 2031 56000000 		.4byte	.LVL429
 16191 2035 62000000 		.4byte	.LVL431
 16192 2039 0300     		.2byte	0x3
 16193 203b 78       		.byte	0x78
 16194 203c 04       		.sleb128 4
 16195 203d 9F       		.byte	0x9f
 16196 203e 62000000 		.4byte	.LVL431
 16197 2042 6E000000 		.4byte	.LVL433
 16198 2046 0300     		.2byte	0x3
 16199 2048 78       		.byte	0x78
 16200 2049 06       		.sleb128 6
 16201 204a 9F       		.byte	0x9f
 16202 204b 6E000000 		.4byte	.LVL433
 16203 204f 7A000000 		.4byte	.LVL435
 16204 2053 0300     		.2byte	0x3
 16205 2055 78       		.byte	0x78
 16206 2056 08       		.sleb128 8
 16207 2057 9F       		.byte	0x9f
 16208 2058 7A000000 		.4byte	.LVL435
 16209 205c 86000000 		.4byte	.LVL437
 16210 2060 0300     		.2byte	0x3
 16211 2062 78       		.byte	0x78
 16212 2063 0A       		.sleb128 10
 16213 2064 9F       		.byte	0x9f
 16214 2065 86000000 		.4byte	.LVL437
 16215 2069 92000000 		.4byte	.LVL439
 16216 206d 0300     		.2byte	0x3
 16217 206f 78       		.byte	0x78
 16218 2070 0C       		.sleb128 12
 16219 2071 9F       		.byte	0x9f
 16220 2072 92000000 		.4byte	.LVL439
 16221 2076 9E000000 		.4byte	.LVL441
 16222 207a 0300     		.2byte	0x3
 16223 207c 78       		.byte	0x78
 16224 207d 0E       		.sleb128 14
 16225 207e 9F       		.byte	0x9f
 16226 207f 9E000000 		.4byte	.LVL441
 16227 2083 AA000000 		.4byte	.LVL443
 16228 2087 0300     		.2byte	0x3
 16229 2089 78       		.byte	0x78
 16230 208a 10       		.sleb128 16
 16231 208b 9F       		.byte	0x9f
 16232 208c AA000000 		.4byte	.LVL443
 16233 2090 B6000000 		.4byte	.LVL445
 16234 2094 0300     		.2byte	0x3
 16235 2096 78       		.byte	0x78
 16236 2097 12       		.sleb128 18
ARM GAS  C:\Users\rdn\AppData\Local\Temp\cc5zc0m9.s 			page 317


 16237 2098 9F       		.byte	0x9f
 16238 2099 B6000000 		.4byte	.LVL445
 16239 209d C2000000 		.4byte	.LVL447
 16240 20a1 0300     		.2byte	0x3
 16241 20a3 78       		.byte	0x78
 16242 20a4 14       		.sleb128 20
 16243 20a5 9F       		.byte	0x9f
 16244 20a6 C2000000 		.4byte	.LVL447
 16245 20aa CE000000 		.4byte	.LVL449
 16246 20ae 0300     		.2byte	0x3
 16247 20b0 78       		.byte	0x78
 16248 20b1 16       		.sleb128 22
 16249 20b2 9F       		.byte	0x9f
 16250 20b3 CE000000 		.4byte	.LVL449
 16251 20b7 DA000000 		.4byte	.LVL451
 16252 20bb 0300     		.2byte	0x3
 16253 20bd 78       		.byte	0x78
 16254 20be 18       		.sleb128 24
 16255 20bf 9F       		.byte	0x9f
 16256 20c0 DA000000 		.4byte	.LVL451
 16257 20c4 E6000000 		.4byte	.LVL453
 16258 20c8 0300     		.2byte	0x3
 16259 20ca 78       		.byte	0x78
 16260 20cb 1A       		.sleb128 26
 16261 20cc 9F       		.byte	0x9f
 16262 20cd E6000000 		.4byte	.LVL453
 16263 20d1 F2000000 		.4byte	.LVL455
 16264 20d5 0300     		.2byte	0x3
 16265 20d7 78       		.byte	0x78
 16266 20d8 1C       		.sleb128 28
 16267 20d9 9F       		.byte	0x9f
 16268 20da F2000000 		.4byte	.LVL455
 16269 20de 04010000 		.4byte	.LVL459
 16270 20e2 0300     		.2byte	0x3
 16271 20e4 78       		.byte	0x78
 16272 20e5 1E       		.sleb128 30
 16273 20e6 9F       		.byte	0x9f
 16274 20e7 04010000 		.4byte	.LVL459
 16275 20eb 0E010000 		.4byte	.LVL461
 16276 20ef 0100     		.2byte	0x1
 16277 20f1 58       		.byte	0x58
 16278 20f2 00000000 		.4byte	0
 16279 20f6 00000000 		.4byte	0
 16280              	.LLST184:
 16281 20fa 3E000000 		.4byte	.LVL425
 16282 20fe 46000000 		.4byte	.LVL426
 16283 2102 0100     		.2byte	0x1
 16284 2104 57       		.byte	0x57
 16285 2105 46000000 		.4byte	.LVL426
 16286 2109 52000000 		.4byte	.LVL428
 16287 210d 0300     		.2byte	0x3
 16288 210f 77       		.byte	0x77
 16289 2110 02       		.sleb128 2
 16290 2111 9F       		.byte	0x9f
 16291 2112 52000000 		.4byte	.LVL428
 16292 2116 5E000000 		.4byte	.LVL430
 16293 211a 0300     		.2byte	0x3
ARM GAS  C:\Users\rdn\AppData\Local\Temp\cc5zc0m9.s 			page 318


 16294 211c 77       		.byte	0x77
 16295 211d 04       		.sleb128 4
 16296 211e 9F       		.byte	0x9f
 16297 211f 5E000000 		.4byte	.LVL430
 16298 2123 6A000000 		.4byte	.LVL432
 16299 2127 0300     		.2byte	0x3
 16300 2129 77       		.byte	0x77
 16301 212a 06       		.sleb128 6
 16302 212b 9F       		.byte	0x9f
 16303 212c 6A000000 		.4byte	.LVL432
 16304 2130 76000000 		.4byte	.LVL434
 16305 2134 0300     		.2byte	0x3
 16306 2136 77       		.byte	0x77
 16307 2137 08       		.sleb128 8
 16308 2138 9F       		.byte	0x9f
 16309 2139 76000000 		.4byte	.LVL434
 16310 213d 82000000 		.4byte	.LVL436
 16311 2141 0300     		.2byte	0x3
 16312 2143 77       		.byte	0x77
 16313 2144 0A       		.sleb128 10
 16314 2145 9F       		.byte	0x9f
 16315 2146 82000000 		.4byte	.LVL436
 16316 214a 8E000000 		.4byte	.LVL438
 16317 214e 0300     		.2byte	0x3
 16318 2150 77       		.byte	0x77
 16319 2151 0C       		.sleb128 12
 16320 2152 9F       		.byte	0x9f
 16321 2153 8E000000 		.4byte	.LVL438
 16322 2157 9A000000 		.4byte	.LVL440
 16323 215b 0300     		.2byte	0x3
 16324 215d 77       		.byte	0x77
 16325 215e 0E       		.sleb128 14
 16326 215f 9F       		.byte	0x9f
 16327 2160 9A000000 		.4byte	.LVL440
 16328 2164 A6000000 		.4byte	.LVL442
 16329 2168 0300     		.2byte	0x3
 16330 216a 77       		.byte	0x77
 16331 216b 10       		.sleb128 16
 16332 216c 9F       		.byte	0x9f
 16333 216d A6000000 		.4byte	.LVL442
 16334 2171 B2000000 		.4byte	.LVL444
 16335 2175 0300     		.2byte	0x3
 16336 2177 77       		.byte	0x77
 16337 2178 12       		.sleb128 18
 16338 2179 9F       		.byte	0x9f
 16339 217a B2000000 		.4byte	.LVL444
 16340 217e BE000000 		.4byte	.LVL446
 16341 2182 0300     		.2byte	0x3
 16342 2184 77       		.byte	0x77
 16343 2185 14       		.sleb128 20
 16344 2186 9F       		.byte	0x9f
 16345 2187 BE000000 		.4byte	.LVL446
 16346 218b CA000000 		.4byte	.LVL448
 16347 218f 0300     		.2byte	0x3
 16348 2191 77       		.byte	0x77
 16349 2192 16       		.sleb128 22
 16350 2193 9F       		.byte	0x9f
ARM GAS  C:\Users\rdn\AppData\Local\Temp\cc5zc0m9.s 			page 319


 16351 2194 CA000000 		.4byte	.LVL448
 16352 2198 D6000000 		.4byte	.LVL450
 16353 219c 0300     		.2byte	0x3
 16354 219e 77       		.byte	0x77
 16355 219f 18       		.sleb128 24
 16356 21a0 9F       		.byte	0x9f
 16357 21a1 D6000000 		.4byte	.LVL450
 16358 21a5 E2000000 		.4byte	.LVL452
 16359 21a9 0300     		.2byte	0x3
 16360 21ab 77       		.byte	0x77
 16361 21ac 1A       		.sleb128 26
 16362 21ad 9F       		.byte	0x9f
 16363 21ae E2000000 		.4byte	.LVL452
 16364 21b2 EE000000 		.4byte	.LVL454
 16365 21b6 0300     		.2byte	0x3
 16366 21b8 77       		.byte	0x77
 16367 21b9 1C       		.sleb128 28
 16368 21ba 9F       		.byte	0x9f
 16369 21bb EE000000 		.4byte	.LVL454
 16370 21bf 00010000 		.4byte	.LVL458
 16371 21c3 0300     		.2byte	0x3
 16372 21c5 77       		.byte	0x77
 16373 21c6 1E       		.sleb128 30
 16374 21c7 9F       		.byte	0x9f
 16375 21c8 00010000 		.4byte	.LVL458
 16376 21cc 10010000 		.4byte	.LVL462
 16377 21d0 0100     		.2byte	0x1
 16378 21d2 57       		.byte	0x57
 16379 21d3 00000000 		.4byte	0
 16380 21d7 00000000 		.4byte	0
 16381              	.LLST185:
 16382 21db 3E000000 		.4byte	.LVL425
 16383 21df 46000000 		.4byte	.LVL426
 16384 21e3 0200     		.2byte	0x2
 16385 21e5 30       		.byte	0x30
 16386 21e6 9F       		.byte	0x9f
 16387 21e7 46000000 		.4byte	.LVL426
 16388 21eb 76000000 		.4byte	.LVL434
 16389 21ef 0100     		.2byte	0x1
 16390 21f1 55       		.byte	0x55
 16391 21f2 76000000 		.4byte	.LVL434
 16392 21f6 E2000000 		.4byte	.LVL452
 16393 21fa 0100     		.2byte	0x1
 16394 21fc 54       		.byte	0x54
 16395 21fd E2000000 		.4byte	.LVL452
 16396 2201 EE000000 		.4byte	.LVL454
 16397 2205 0100     		.2byte	0x1
 16398 2207 55       		.byte	0x55
 16399 2208 EE000000 		.4byte	.LVL454
 16400 220c FA000000 		.4byte	.LVL456
 16401 2210 0100     		.2byte	0x1
 16402 2212 54       		.byte	0x54
 16403 2213 FA000000 		.4byte	.LVL456
 16404 2217 3C010000 		.4byte	.LVL465
 16405 221b 0100     		.2byte	0x1
 16406 221d 55       		.byte	0x55
 16407 221e 00000000 		.4byte	0
ARM GAS  C:\Users\rdn\AppData\Local\Temp\cc5zc0m9.s 			page 320


 16408 2222 00000000 		.4byte	0
 16409              	.LLST186:
 16410 2226 3E000000 		.4byte	.LVL425
 16411 222a 46000000 		.4byte	.LVL426
 16412 222e 0200     		.2byte	0x2
 16413 2230 30       		.byte	0x30
 16414 2231 9F       		.byte	0x9f
 16415 2232 46000000 		.4byte	.LVL426
 16416 2236 22010000 		.4byte	.LVL463
 16417 223a 0100     		.2byte	0x1
 16418 223c 59       		.byte	0x59
 16419 223d 00000000 		.4byte	0
 16420 2241 00000000 		.4byte	0
 16421              	.LLST187:
 16422 2245 0A010000 		.4byte	.LVL460
 16423 2249 3C010000 		.4byte	.LVL465
 16424 224d 0100     		.2byte	0x1
 16425 224f 55       		.byte	0x55
 16426 2250 00000000 		.4byte	0
 16427 2254 00000000 		.4byte	0
 16428              	.LLST188:
 16429 2258 0A010000 		.4byte	.LVL460
 16430 225c 76010000 		.4byte	.LVL466
 16431 2260 0100     		.2byte	0x1
 16432 2262 50       		.byte	0x50
 16433 2263 00000000 		.4byte	0
 16434 2267 00000000 		.4byte	0
 16435              	.LLST189:
 16436 226b 2A010000 		.4byte	.LVL464
 16437 226f 76010000 		.4byte	.LVL466
 16438 2273 0100     		.2byte	0x1
 16439 2275 53       		.byte	0x53
 16440 2276 00000000 		.4byte	0
 16441 227a 00000000 		.4byte	0
 16442              	.LLST190:
 16443 227e 0A010000 		.4byte	.LVL460
 16444 2282 82010000 		.4byte	.LVL468
 16445 2286 0600     		.2byte	0x6
 16446 2288 9E       		.byte	0x9e
 16447 2289 04       		.uleb128 0x4
 16448 228a 25A23882 		.4byte	0x8238a225
 16449 228e 00000000 		.4byte	0
 16450 2292 00000000 		.4byte	0
 16451              	.LLST191:
 16452 2296 0A010000 		.4byte	.LVL460
 16453 229a 82010000 		.4byte	.LVL468
 16454 229e 0600     		.2byte	0x6
 16455 22a0 0C       		.byte	0xc
 16456 22a1 4111D13D 		.4byte	0x3dd11141
 16457 22a5 9F       		.byte	0x9f
 16458 22a6 00000000 		.4byte	0
 16459 22aa 00000000 		.4byte	0
 16460              	.LLST192:
 16461 22ae 0A010000 		.4byte	.LVL460
 16462 22b2 82010000 		.4byte	.LVL468
 16463 22b6 0600     		.2byte	0x6
 16464 22b8 9E       		.byte	0x9e
ARM GAS  C:\Users\rdn\AppData\Local\Temp\cc5zc0m9.s 			page 321


 16465 22b9 04       		.uleb128 0x4
 16466 22ba 72C83382 		.4byte	0x8233c872
 16467 22be 00000000 		.4byte	0
 16468 22c2 00000000 		.4byte	0
 16469              	.LLST193:
 16470 22c6 0A010000 		.4byte	.LVL460
 16471 22ca 82010000 		.4byte	.LVL468
 16472 22ce 0600     		.2byte	0x6
 16473 22d0 0C       		.byte	0xc
 16474 22d1 C61BE63E 		.4byte	0x3ee61bc6
 16475 22d5 9F       		.byte	0x9f
 16476 22d6 00000000 		.4byte	0
 16477 22da 00000000 		.4byte	0
 16478              	.LLST194:
 16479 22de 00000000 		.4byte	.LVL470
 16480 22e2 10000000 		.4byte	.LVL473
 16481 22e6 0100     		.2byte	0x1
 16482 22e8 51       		.byte	0x51
 16483 22e9 10000000 		.4byte	.LVL473
 16484 22ed 92010000 		.4byte	.LVL520
 16485 22f1 0200     		.2byte	0x2
 16486 22f3 91       		.byte	0x91
 16487 22f4 54       		.sleb128 -44
 16488 22f5 92010000 		.4byte	.LVL520
 16489 22f9 AC010000 		.4byte	.LFE27
 16490 22fd 0200     		.2byte	0x2
 16491 22ff 7D       		.byte	0x7d
 16492 2300 54       		.sleb128 -44
 16493 2301 00000000 		.4byte	0
 16494 2305 00000000 		.4byte	0
 16495              	.LLST195:
 16496 2309 00000000 		.4byte	.LVL470
 16497 230d 12000000 		.4byte	.LVL474
 16498 2311 0100     		.2byte	0x1
 16499 2313 52       		.byte	0x52
 16500 2314 12000000 		.4byte	.LVL474
 16501 2318 AC010000 		.4byte	.LFE27
 16502 231c 0400     		.2byte	0x4
 16503 231e F3       		.byte	0xf3
 16504 231f 01       		.uleb128 0x1
 16505 2320 52       		.byte	0x52
 16506 2321 9F       		.byte	0x9f
 16507 2322 00000000 		.4byte	0
 16508 2326 00000000 		.4byte	0
 16509              	.LLST196:
 16510 232a 00000000 		.4byte	.LVL470
 16511 232e 12000000 		.4byte	.LVL474
 16512 2332 0100     		.2byte	0x1
 16513 2334 53       		.byte	0x53
 16514 2335 12000000 		.4byte	.LVL474
 16515 2339 AC010000 		.4byte	.LFE27
 16516 233d 0100     		.2byte	0x1
 16517 233f 5E       		.byte	0x5e
 16518 2340 00000000 		.4byte	0
 16519 2344 00000000 		.4byte	0
 16520              	.LLST197:
 16521 2348 0A000000 		.4byte	.LVL471
ARM GAS  C:\Users\rdn\AppData\Local\Temp\cc5zc0m9.s 			page 322


 16522 234c 12000000 		.4byte	.LVL474
 16523 2350 0100     		.2byte	0x1
 16524 2352 53       		.byte	0x53
 16525 2353 12000000 		.4byte	.LVL474
 16526 2357 AC010000 		.4byte	.LFE27
 16527 235b 0100     		.2byte	0x1
 16528 235d 5E       		.byte	0x5e
 16529 235e 00000000 		.4byte	0
 16530 2362 00000000 		.4byte	0
 16531              	.LLST198:
 16532 2366 0A000000 		.4byte	.LVL471
 16533 236a 76010000 		.4byte	.LVL517
 16534 236e 0100     		.2byte	0x1
 16535 2370 52       		.byte	0x52
 16536 2371 76010000 		.4byte	.LVL517
 16537 2375 82010000 		.4byte	.LVL519
 16538 2379 0300     		.2byte	0x3
 16539 237b 72       		.byte	0x72
 16540 237c 02       		.sleb128 2
 16541 237d 9F       		.byte	0x9f
 16542 237e 82010000 		.4byte	.LVL519
 16543 2382 AC010000 		.4byte	.LFE27
 16544 2386 0100     		.2byte	0x1
 16545 2388 52       		.byte	0x52
 16546 2389 00000000 		.4byte	0
 16547 238d 00000000 		.4byte	0
 16548              	.LLST199:
 16549 2391 0A000000 		.4byte	.LVL471
 16550 2395 0E000000 		.4byte	.LVL472
 16551 2399 0100     		.2byte	0x1
 16552 239b 51       		.byte	0x51
 16553 239c 0E000000 		.4byte	.LVL472
 16554 23a0 10000000 		.4byte	.LVL473
 16555 23a4 0400     		.2byte	0x4
 16556 23a6 71       		.byte	0x71
 16557 23a7 8A7F     		.sleb128 -118
 16558 23a9 9F       		.byte	0x9f
 16559 23aa 10000000 		.4byte	.LVL473
 16560 23ae 92010000 		.4byte	.LVL520
 16561 23b2 0700     		.2byte	0x7
 16562 23b4 91       		.byte	0x91
 16563 23b5 54       		.sleb128 -44
 16564 23b6 06       		.byte	0x6
 16565 23b7 08       		.byte	0x8
 16566 23b8 76       		.byte	0x76
 16567 23b9 1C       		.byte	0x1c
 16568 23ba 9F       		.byte	0x9f
 16569 23bb 92010000 		.4byte	.LVL520
 16570 23bf AC010000 		.4byte	.LFE27
 16571 23c3 0700     		.2byte	0x7
 16572 23c5 7D       		.byte	0x7d
 16573 23c6 54       		.sleb128 -44
 16574 23c7 06       		.byte	0x6
 16575 23c8 08       		.byte	0x8
 16576 23c9 76       		.byte	0x76
 16577 23ca 1C       		.byte	0x1c
 16578 23cb 9F       		.byte	0x9f
ARM GAS  C:\Users\rdn\AppData\Local\Temp\cc5zc0m9.s 			page 323


 16579 23cc 00000000 		.4byte	0
 16580 23d0 00000000 		.4byte	0
 16581              	.LLST200:
 16582 23d4 0E000000 		.4byte	.LVL472
 16583 23d8 12000000 		.4byte	.LVL474
 16584 23dc 0200     		.2byte	0x2
 16585 23de 30       		.byte	0x30
 16586 23df 9F       		.byte	0x9f
 16587 23e0 12000000 		.4byte	.LVL474
 16588 23e4 AC010000 		.4byte	.LFE27
 16589 23e8 0100     		.2byte	0x1
 16590 23ea 51       		.byte	0x51
 16591 23eb 00000000 		.4byte	0
 16592 23ef 00000000 		.4byte	0
 16593              	.LLST201:
 16594 23f3 2C000000 		.4byte	.LVL475
 16595 23f7 4A000000 		.4byte	.LVL478
 16596 23fb 0100     		.2byte	0x1
 16597 23fd 58       		.byte	0x58
 16598 23fe 4A000000 		.4byte	.LVL478
 16599 2402 56000000 		.4byte	.LVL480
 16600 2406 0300     		.2byte	0x3
 16601 2408 78       		.byte	0x78
 16602 2409 02       		.sleb128 2
 16603 240a 9F       		.byte	0x9f
 16604 240b 56000000 		.4byte	.LVL480
 16605 240f 62000000 		.4byte	.LVL482
 16606 2413 0300     		.2byte	0x3
 16607 2415 78       		.byte	0x78
 16608 2416 04       		.sleb128 4
 16609 2417 9F       		.byte	0x9f
 16610 2418 62000000 		.4byte	.LVL482
 16611 241c 6E000000 		.4byte	.LVL484
 16612 2420 0300     		.2byte	0x3
 16613 2422 78       		.byte	0x78
 16614 2423 06       		.sleb128 6
 16615 2424 9F       		.byte	0x9f
 16616 2425 6E000000 		.4byte	.LVL484
 16617 2429 7A000000 		.4byte	.LVL486
 16618 242d 0300     		.2byte	0x3
 16619 242f 78       		.byte	0x78
 16620 2430 08       		.sleb128 8
 16621 2431 9F       		.byte	0x9f
 16622 2432 7A000000 		.4byte	.LVL486
 16623 2436 86000000 		.4byte	.LVL488
 16624 243a 0300     		.2byte	0x3
 16625 243c 78       		.byte	0x78
 16626 243d 0A       		.sleb128 10
 16627 243e 9F       		.byte	0x9f
 16628 243f 86000000 		.4byte	.LVL488
 16629 2443 92000000 		.4byte	.LVL490
 16630 2447 0300     		.2byte	0x3
 16631 2449 78       		.byte	0x78
 16632 244a 0C       		.sleb128 12
 16633 244b 9F       		.byte	0x9f
 16634 244c 92000000 		.4byte	.LVL490
 16635 2450 9E000000 		.4byte	.LVL492
ARM GAS  C:\Users\rdn\AppData\Local\Temp\cc5zc0m9.s 			page 324


 16636 2454 0300     		.2byte	0x3
 16637 2456 78       		.byte	0x78
 16638 2457 0E       		.sleb128 14
 16639 2458 9F       		.byte	0x9f
 16640 2459 9E000000 		.4byte	.LVL492
 16641 245d AA000000 		.4byte	.LVL494
 16642 2461 0300     		.2byte	0x3
 16643 2463 78       		.byte	0x78
 16644 2464 10       		.sleb128 16
 16645 2465 9F       		.byte	0x9f
 16646 2466 AA000000 		.4byte	.LVL494
 16647 246a B6000000 		.4byte	.LVL496
 16648 246e 0300     		.2byte	0x3
 16649 2470 78       		.byte	0x78
 16650 2471 12       		.sleb128 18
 16651 2472 9F       		.byte	0x9f
 16652 2473 B6000000 		.4byte	.LVL496
 16653 2477 C2000000 		.4byte	.LVL498
 16654 247b 0300     		.2byte	0x3
 16655 247d 78       		.byte	0x78
 16656 247e 14       		.sleb128 20
 16657 247f 9F       		.byte	0x9f
 16658 2480 C2000000 		.4byte	.LVL498
 16659 2484 CE000000 		.4byte	.LVL500
 16660 2488 0300     		.2byte	0x3
 16661 248a 78       		.byte	0x78
 16662 248b 16       		.sleb128 22
 16663 248c 9F       		.byte	0x9f
 16664 248d CE000000 		.4byte	.LVL500
 16665 2491 DA000000 		.4byte	.LVL502
 16666 2495 0300     		.2byte	0x3
 16667 2497 78       		.byte	0x78
 16668 2498 18       		.sleb128 24
 16669 2499 9F       		.byte	0x9f
 16670 249a DA000000 		.4byte	.LVL502
 16671 249e E6000000 		.4byte	.LVL504
 16672 24a2 0300     		.2byte	0x3
 16673 24a4 78       		.byte	0x78
 16674 24a5 1A       		.sleb128 26
 16675 24a6 9F       		.byte	0x9f
 16676 24a7 E6000000 		.4byte	.LVL504
 16677 24ab F2000000 		.4byte	.LVL506
 16678 24af 0300     		.2byte	0x3
 16679 24b1 78       		.byte	0x78
 16680 24b2 1C       		.sleb128 28
 16681 24b3 9F       		.byte	0x9f
 16682 24b4 F2000000 		.4byte	.LVL506
 16683 24b8 04010000 		.4byte	.LVL510
 16684 24bc 0300     		.2byte	0x3
 16685 24be 78       		.byte	0x78
 16686 24bf 1E       		.sleb128 30
 16687 24c0 9F       		.byte	0x9f
 16688 24c1 04010000 		.4byte	.LVL510
 16689 24c5 0E010000 		.4byte	.LVL512
 16690 24c9 0100     		.2byte	0x1
 16691 24cb 58       		.byte	0x58
 16692 24cc 00000000 		.4byte	0
ARM GAS  C:\Users\rdn\AppData\Local\Temp\cc5zc0m9.s 			page 325


 16693 24d0 00000000 		.4byte	0
 16694              	.LLST202:
 16695 24d4 3E000000 		.4byte	.LVL476
 16696 24d8 46000000 		.4byte	.LVL477
 16697 24dc 0100     		.2byte	0x1
 16698 24de 57       		.byte	0x57
 16699 24df 46000000 		.4byte	.LVL477
 16700 24e3 52000000 		.4byte	.LVL479
 16701 24e7 0300     		.2byte	0x3
 16702 24e9 77       		.byte	0x77
 16703 24ea 02       		.sleb128 2
 16704 24eb 9F       		.byte	0x9f
 16705 24ec 52000000 		.4byte	.LVL479
 16706 24f0 5E000000 		.4byte	.LVL481
 16707 24f4 0300     		.2byte	0x3
 16708 24f6 77       		.byte	0x77
 16709 24f7 04       		.sleb128 4
 16710 24f8 9F       		.byte	0x9f
 16711 24f9 5E000000 		.4byte	.LVL481
 16712 24fd 6A000000 		.4byte	.LVL483
 16713 2501 0300     		.2byte	0x3
 16714 2503 77       		.byte	0x77
 16715 2504 06       		.sleb128 6
 16716 2505 9F       		.byte	0x9f
 16717 2506 6A000000 		.4byte	.LVL483
 16718 250a 76000000 		.4byte	.LVL485
 16719 250e 0300     		.2byte	0x3
 16720 2510 77       		.byte	0x77
 16721 2511 08       		.sleb128 8
 16722 2512 9F       		.byte	0x9f
 16723 2513 76000000 		.4byte	.LVL485
 16724 2517 82000000 		.4byte	.LVL487
 16725 251b 0300     		.2byte	0x3
 16726 251d 77       		.byte	0x77
 16727 251e 0A       		.sleb128 10
 16728 251f 9F       		.byte	0x9f
 16729 2520 82000000 		.4byte	.LVL487
 16730 2524 8E000000 		.4byte	.LVL489
 16731 2528 0300     		.2byte	0x3
 16732 252a 77       		.byte	0x77
 16733 252b 0C       		.sleb128 12
 16734 252c 9F       		.byte	0x9f
 16735 252d 8E000000 		.4byte	.LVL489
 16736 2531 9A000000 		.4byte	.LVL491
 16737 2535 0300     		.2byte	0x3
 16738 2537 77       		.byte	0x77
 16739 2538 0E       		.sleb128 14
 16740 2539 9F       		.byte	0x9f
 16741 253a 9A000000 		.4byte	.LVL491
 16742 253e A6000000 		.4byte	.LVL493
 16743 2542 0300     		.2byte	0x3
 16744 2544 77       		.byte	0x77
 16745 2545 10       		.sleb128 16
 16746 2546 9F       		.byte	0x9f
 16747 2547 A6000000 		.4byte	.LVL493
 16748 254b B2000000 		.4byte	.LVL495
 16749 254f 0300     		.2byte	0x3
ARM GAS  C:\Users\rdn\AppData\Local\Temp\cc5zc0m9.s 			page 326


 16750 2551 77       		.byte	0x77
 16751 2552 12       		.sleb128 18
 16752 2553 9F       		.byte	0x9f
 16753 2554 B2000000 		.4byte	.LVL495
 16754 2558 BE000000 		.4byte	.LVL497
 16755 255c 0300     		.2byte	0x3
 16756 255e 77       		.byte	0x77
 16757 255f 14       		.sleb128 20
 16758 2560 9F       		.byte	0x9f
 16759 2561 BE000000 		.4byte	.LVL497
 16760 2565 CA000000 		.4byte	.LVL499
 16761 2569 0300     		.2byte	0x3
 16762 256b 77       		.byte	0x77
 16763 256c 16       		.sleb128 22
 16764 256d 9F       		.byte	0x9f
 16765 256e CA000000 		.4byte	.LVL499
 16766 2572 D6000000 		.4byte	.LVL501
 16767 2576 0300     		.2byte	0x3
 16768 2578 77       		.byte	0x77
 16769 2579 18       		.sleb128 24
 16770 257a 9F       		.byte	0x9f
 16771 257b D6000000 		.4byte	.LVL501
 16772 257f E2000000 		.4byte	.LVL503
 16773 2583 0300     		.2byte	0x3
 16774 2585 77       		.byte	0x77
 16775 2586 1A       		.sleb128 26
 16776 2587 9F       		.byte	0x9f
 16777 2588 E2000000 		.4byte	.LVL503
 16778 258c EE000000 		.4byte	.LVL505
 16779 2590 0300     		.2byte	0x3
 16780 2592 77       		.byte	0x77
 16781 2593 1C       		.sleb128 28
 16782 2594 9F       		.byte	0x9f
 16783 2595 EE000000 		.4byte	.LVL505
 16784 2599 00010000 		.4byte	.LVL509
 16785 259d 0300     		.2byte	0x3
 16786 259f 77       		.byte	0x77
 16787 25a0 1E       		.sleb128 30
 16788 25a1 9F       		.byte	0x9f
 16789 25a2 00010000 		.4byte	.LVL509
 16790 25a6 10010000 		.4byte	.LVL513
 16791 25aa 0100     		.2byte	0x1
 16792 25ac 57       		.byte	0x57
 16793 25ad 00000000 		.4byte	0
 16794 25b1 00000000 		.4byte	0
 16795              	.LLST203:
 16796 25b5 3E000000 		.4byte	.LVL476
 16797 25b9 46000000 		.4byte	.LVL477
 16798 25bd 0200     		.2byte	0x2
 16799 25bf 30       		.byte	0x30
 16800 25c0 9F       		.byte	0x9f
 16801 25c1 46000000 		.4byte	.LVL477
 16802 25c5 76000000 		.4byte	.LVL485
 16803 25c9 0100     		.2byte	0x1
 16804 25cb 55       		.byte	0x55
 16805 25cc 76000000 		.4byte	.LVL485
 16806 25d0 E2000000 		.4byte	.LVL503
ARM GAS  C:\Users\rdn\AppData\Local\Temp\cc5zc0m9.s 			page 327


 16807 25d4 0100     		.2byte	0x1
 16808 25d6 54       		.byte	0x54
 16809 25d7 E2000000 		.4byte	.LVL503
 16810 25db EE000000 		.4byte	.LVL505
 16811 25df 0100     		.2byte	0x1
 16812 25e1 55       		.byte	0x55
 16813 25e2 EE000000 		.4byte	.LVL505
 16814 25e6 FA000000 		.4byte	.LVL507
 16815 25ea 0100     		.2byte	0x1
 16816 25ec 54       		.byte	0x54
 16817 25ed FA000000 		.4byte	.LVL507
 16818 25f1 3C010000 		.4byte	.LVL516
 16819 25f5 0100     		.2byte	0x1
 16820 25f7 55       		.byte	0x55
 16821 25f8 00000000 		.4byte	0
 16822 25fc 00000000 		.4byte	0
 16823              	.LLST204:
 16824 2600 3E000000 		.4byte	.LVL476
 16825 2604 46000000 		.4byte	.LVL477
 16826 2608 0200     		.2byte	0x2
 16827 260a 30       		.byte	0x30
 16828 260b 9F       		.byte	0x9f
 16829 260c 46000000 		.4byte	.LVL477
 16830 2610 22010000 		.4byte	.LVL514
 16831 2614 0100     		.2byte	0x1
 16832 2616 59       		.byte	0x59
 16833 2617 00000000 		.4byte	0
 16834 261b 00000000 		.4byte	0
 16835              	.LLST205:
 16836 261f 0A010000 		.4byte	.LVL511
 16837 2623 3C010000 		.4byte	.LVL516
 16838 2627 0100     		.2byte	0x1
 16839 2629 55       		.byte	0x55
 16840 262a 00000000 		.4byte	0
 16841 262e 00000000 		.4byte	0
 16842              	.LLST206:
 16843 2632 0A010000 		.4byte	.LVL511
 16844 2636 76010000 		.4byte	.LVL517
 16845 263a 0100     		.2byte	0x1
 16846 263c 50       		.byte	0x50
 16847 263d 00000000 		.4byte	0
 16848 2641 00000000 		.4byte	0
 16849              	.LLST207:
 16850 2645 2A010000 		.4byte	.LVL515
 16851 2649 76010000 		.4byte	.LVL517
 16852 264d 0100     		.2byte	0x1
 16853 264f 53       		.byte	0x53
 16854 2650 00000000 		.4byte	0
 16855 2654 00000000 		.4byte	0
 16856              	.LLST208:
 16857 2658 0A010000 		.4byte	.LVL511
 16858 265c 82010000 		.4byte	.LVL519
 16859 2660 0600     		.2byte	0x6
 16860 2662 9E       		.byte	0x9e
 16861 2663 04       		.uleb128 0x4
 16862 2664 25A23882 		.4byte	0x8238a225
 16863 2668 00000000 		.4byte	0
ARM GAS  C:\Users\rdn\AppData\Local\Temp\cc5zc0m9.s 			page 328


 16864 266c 00000000 		.4byte	0
 16865              	.LLST209:
 16866 2670 0A010000 		.4byte	.LVL511
 16867 2674 82010000 		.4byte	.LVL519
 16868 2678 0600     		.2byte	0x6
 16869 267a 0C       		.byte	0xc
 16870 267b 4111D13D 		.4byte	0x3dd11141
 16871 267f 9F       		.byte	0x9f
 16872 2680 00000000 		.4byte	0
 16873 2684 00000000 		.4byte	0
 16874              	.LLST210:
 16875 2688 0A010000 		.4byte	.LVL511
 16876 268c 82010000 		.4byte	.LVL519
 16877 2690 0600     		.2byte	0x6
 16878 2692 9E       		.byte	0x9e
 16879 2693 04       		.uleb128 0x4
 16880 2694 72C83382 		.4byte	0x8233c872
 16881 2698 00000000 		.4byte	0
 16882 269c 00000000 		.4byte	0
 16883              	.LLST211:
 16884 26a0 0A010000 		.4byte	.LVL511
 16885 26a4 82010000 		.4byte	.LVL519
 16886 26a8 0600     		.2byte	0x6
 16887 26aa 0C       		.byte	0xc
 16888 26ab C61BE63E 		.4byte	0x3ee61bc6
 16889 26af 9F       		.byte	0x9f
 16890 26b0 00000000 		.4byte	0
 16891 26b4 00000000 		.4byte	0
 16892              	.LLST212:
 16893 26b8 00000000 		.4byte	.LVL521
 16894 26bc 58000000 		.4byte	.LVL530
 16895 26c0 0100     		.2byte	0x1
 16896 26c2 51       		.byte	0x51
 16897 26c3 58000000 		.4byte	.LVL530
 16898 26c7 5A000000 		.4byte	.LVL531
 16899 26cb 0700     		.2byte	0x7
 16900 26cd 71       		.byte	0x71
 16901 26ce 80808080 		.sleb128 -1073741824
 16901      7C
 16902 26d3 9F       		.byte	0x9f
 16903 26d4 5A000000 		.4byte	.LVL531
 16904 26d8 5E000000 		.4byte	.LVL532
 16905 26dc 0700     		.2byte	0x7
 16906 26de 71       		.byte	0x71
 16907 26df 81808080 		.sleb128 -1073741823
 16907      7C
 16908 26e4 9F       		.byte	0x9f
 16909 26e5 5E000000 		.4byte	.LVL532
 16910 26e9 F0010000 		.4byte	.LFE43
 16911 26ed 0400     		.2byte	0x4
 16912 26ef F3       		.byte	0xf3
 16913 26f0 01       		.uleb128 0x1
 16914 26f1 51       		.byte	0x51
 16915 26f2 9F       		.byte	0x9f
 16916 26f3 00000000 		.4byte	0
 16917 26f7 00000000 		.4byte	0
 16918              	.LLST213:
ARM GAS  C:\Users\rdn\AppData\Local\Temp\cc5zc0m9.s 			page 329


 16919 26fb 00000000 		.4byte	.LVL521
 16920 26ff 42000000 		.4byte	.LVL526
 16921 2703 0100     		.2byte	0x1
 16922 2705 52       		.byte	0x52
 16923 2706 42000000 		.4byte	.LVL526
 16924 270a 4A000000 		.4byte	.LVL527
 16925 270e 0300     		.2byte	0x3
 16926 2710 76       		.byte	0x76
 16927 2711 7A       		.sleb128 -6
 16928 2712 9F       		.byte	0x9f
 16929 2713 4A000000 		.4byte	.LVL527
 16930 2717 F0010000 		.4byte	.LFE43
 16931 271b 0400     		.2byte	0x4
 16932 271d F3       		.byte	0xf3
 16933 271e 01       		.uleb128 0x1
 16934 271f 52       		.byte	0x52
 16935 2720 9F       		.byte	0x9f
 16936 2721 00000000 		.4byte	0
 16937 2725 00000000 		.4byte	0
 16938              	.LLST214:
 16939 2729 00000000 		.4byte	.LVL521
 16940 272d 62000000 		.4byte	.LVL534
 16941 2731 0100     		.2byte	0x1
 16942 2733 53       		.byte	0x53
 16943 2734 62000000 		.4byte	.LVL534
 16944 2738 F0010000 		.4byte	.LFE43
 16945 273c 0400     		.2byte	0x4
 16946 273e F3       		.byte	0xf3
 16947 273f 01       		.uleb128 0x1
 16948 2740 53       		.byte	0x53
 16949 2741 9F       		.byte	0x9f
 16950 2742 00000000 		.4byte	0
 16951 2746 00000000 		.4byte	0
 16952              	.LLST215:
 16953 274a 00000000 		.4byte	.LVL521
 16954 274e E6010000 		.4byte	.LVL571
 16955 2752 0200     		.2byte	0x2
 16956 2754 91       		.byte	0x91
 16957 2755 00       		.sleb128 0
 16958 2756 E6010000 		.4byte	.LVL571
 16959 275a F0010000 		.4byte	.LFE43
 16960 275e 0200     		.2byte	0x2
 16961 2760 7D       		.byte	0x7d
 16962 2761 00       		.sleb128 0
 16963 2762 00000000 		.4byte	0
 16964 2766 00000000 		.4byte	0
 16965              	.LLST216:
 16966 276a 00000000 		.4byte	.LVL521
 16967 276e E6010000 		.4byte	.LVL571
 16968 2772 0200     		.2byte	0x2
 16969 2774 91       		.byte	0x91
 16970 2775 04       		.sleb128 4
 16971 2776 E6010000 		.4byte	.LVL571
 16972 277a F0010000 		.4byte	.LFE43
 16973 277e 0200     		.2byte	0x2
 16974 2780 7D       		.byte	0x7d
 16975 2781 04       		.sleb128 4
ARM GAS  C:\Users\rdn\AppData\Local\Temp\cc5zc0m9.s 			page 330


 16976 2782 00000000 		.4byte	0
 16977 2786 00000000 		.4byte	0
 16978              	.LLST217:
 16979 278a 00000000 		.4byte	.LVL521
 16980 278e E6010000 		.4byte	.LVL571
 16981 2792 0200     		.2byte	0x2
 16982 2794 91       		.byte	0x91
 16983 2795 08       		.sleb128 8
 16984 2796 E6010000 		.4byte	.LVL571
 16985 279a F0010000 		.4byte	.LFE43
 16986 279e 0200     		.2byte	0x2
 16987 27a0 7D       		.byte	0x7d
 16988 27a1 08       		.sleb128 8
 16989 27a2 00000000 		.4byte	0
 16990 27a6 00000000 		.4byte	0
 16991              	.LLST218:
 16992 27aa 00000000 		.4byte	.LVL521
 16993 27ae E6010000 		.4byte	.LVL571
 16994 27b2 0200     		.2byte	0x2
 16995 27b4 91       		.byte	0x91
 16996 27b5 0C       		.sleb128 12
 16997 27b6 E6010000 		.4byte	.LVL571
 16998 27ba F0010000 		.4byte	.LFE43
 16999 27be 0200     		.2byte	0x2
 17000 27c0 7D       		.byte	0x7d
 17001 27c1 0C       		.sleb128 12
 17002 27c2 00000000 		.4byte	0
 17003 27c6 00000000 		.4byte	0
 17004              	.LLST219:
 17005 27ca 10000000 		.4byte	.LVL522
 17006 27ce 60000000 		.4byte	.LVL533
 17007 27d2 0100     		.2byte	0x1
 17008 27d4 57       		.byte	0x57
 17009 27d5 60000000 		.4byte	.LVL533
 17010 27d9 E6010000 		.4byte	.LVL571
 17011 27dd 0200     		.2byte	0x2
 17012 27df 91       		.byte	0x91
 17013 27e0 0C       		.sleb128 12
 17014 27e1 E6010000 		.4byte	.LVL571
 17015 27e5 F0010000 		.4byte	.LFE43
 17016 27e9 0200     		.2byte	0x2
 17017 27eb 7D       		.byte	0x7d
 17018 27ec 0C       		.sleb128 12
 17019 27ed 00000000 		.4byte	0
 17020 27f1 00000000 		.4byte	0
 17021              	.LLST220:
 17022 27f5 10000000 		.4byte	.LVL522
 17023 27f9 E6010000 		.4byte	.LVL571
 17024 27fd 0100     		.2byte	0x1
 17025 27ff 54       		.byte	0x54
 17026 2800 E6010000 		.4byte	.LVL571
 17027 2804 F0010000 		.4byte	.LFE43
 17028 2808 0200     		.2byte	0x2
 17029 280a 7D       		.byte	0x7d
 17030 280b 08       		.sleb128 8
 17031 280c 00000000 		.4byte	0
 17032 2810 00000000 		.4byte	0
ARM GAS  C:\Users\rdn\AppData\Local\Temp\cc5zc0m9.s 			page 331


 17033              	.LLST221:
 17034 2814 10000000 		.4byte	.LVL522
 17035 2818 AC010000 		.4byte	.LVL562
 17036 281c 0100     		.2byte	0x1
 17037 281e 55       		.byte	0x55
 17038 281f AC010000 		.4byte	.LVL562
 17039 2823 D2010000 		.4byte	.LVL567
 17040 2827 0300     		.2byte	0x3
 17041 2829 75       		.byte	0x75
 17042 282a 04       		.sleb128 4
 17043 282b 9F       		.byte	0x9f
 17044 282c D2010000 		.4byte	.LVL567
 17045 2830 E6010000 		.4byte	.LVL571
 17046 2834 0100     		.2byte	0x1
 17047 2836 55       		.byte	0x55
 17048 2837 00000000 		.4byte	0
 17049 283b 00000000 		.4byte	0
 17050              	.LLST222:
 17051 283f 10000000 		.4byte	.LVL522
 17052 2843 78000000 		.4byte	.LVL536
 17053 2847 0100     		.2byte	0x1
 17054 2849 53       		.byte	0x53
 17055 284a 78000000 		.4byte	.LVL536
 17056 284e E6000000 		.4byte	.LVL547
 17057 2852 0100     		.2byte	0x1
 17058 2854 5C       		.byte	0x5c
 17059 2855 E6000000 		.4byte	.LVL547
 17060 2859 EC000000 		.4byte	.LVL548
 17061 285d 0100     		.2byte	0x1
 17062 285f 53       		.byte	0x53
 17063 2860 00000000 		.4byte	0
 17064 2864 00000000 		.4byte	0
 17065              	.LLST223:
 17066 2868 10000000 		.4byte	.LVL522
 17067 286c 40000000 		.4byte	.LVL525
 17068 2870 0100     		.2byte	0x1
 17069 2872 52       		.byte	0x52
 17070 2873 40000000 		.4byte	.LVL525
 17071 2877 4A000000 		.4byte	.LVL527
 17072 287b 0100     		.2byte	0x1
 17073 287d 56       		.byte	0x56
 17074 287e 4A000000 		.4byte	.LVL527
 17075 2882 50000000 		.4byte	.LVL528
 17076 2886 0600     		.2byte	0x6
 17077 2888 F3       		.byte	0xf3
 17078 2889 01       		.uleb128 0x1
 17079 288a 52       		.byte	0x52
 17080 288b 23       		.byte	0x23
 17081 288c 06       		.uleb128 0x6
 17082 288d 9F       		.byte	0x9f
 17083 288e 50000000 		.4byte	.LVL528
 17084 2892 54000000 		.4byte	.LVL529
 17085 2896 0100     		.2byte	0x1
 17086 2898 56       		.byte	0x56
 17087 2899 54000000 		.4byte	.LVL529
 17088 289d F0010000 		.4byte	.LFE43
 17089 28a1 0600     		.2byte	0x6
ARM GAS  C:\Users\rdn\AppData\Local\Temp\cc5zc0m9.s 			page 332


 17090 28a3 F3       		.byte	0xf3
 17091 28a4 01       		.uleb128 0x1
 17092 28a5 52       		.byte	0x52
 17093 28a6 23       		.byte	0x23
 17094 28a7 06       		.uleb128 0x6
 17095 28a8 9F       		.byte	0x9f
 17096 28a9 00000000 		.4byte	0
 17097 28ad 00000000 		.4byte	0
 17098              	.LLST224:
 17099 28b1 10000000 		.4byte	.LVL522
 17100 28b5 58000000 		.4byte	.LVL530
 17101 28b9 0100     		.2byte	0x1
 17102 28bb 51       		.byte	0x51
 17103 28bc 58000000 		.4byte	.LVL530
 17104 28c0 5A000000 		.4byte	.LVL531
 17105 28c4 0700     		.2byte	0x7
 17106 28c6 71       		.byte	0x71
 17107 28c7 80808080 		.sleb128 -1073741824
 17107      7C
 17108 28cc 9F       		.byte	0x9f
 17109 28cd 5A000000 		.4byte	.LVL531
 17110 28d1 5E000000 		.4byte	.LVL532
 17111 28d5 0700     		.2byte	0x7
 17112 28d7 71       		.byte	0x71
 17113 28d8 81808080 		.sleb128 -1073741823
 17113      7C
 17114 28dd 9F       		.byte	0x9f
 17115 28de 5E000000 		.4byte	.LVL532
 17116 28e2 F0010000 		.4byte	.LFE43
 17117 28e6 0400     		.2byte	0x4
 17118 28e8 F3       		.byte	0xf3
 17119 28e9 01       		.uleb128 0x1
 17120 28ea 51       		.byte	0x51
 17121 28eb 9F       		.byte	0x9f
 17122 28ec 00000000 		.4byte	0
 17123 28f0 00000000 		.4byte	0
 17124              	.LLST225:
 17125 28f4 54000000 		.4byte	.LVL529
 17126 28f8 82000000 		.4byte	.LVL538
 17127 28fc 0100     		.2byte	0x1
 17128 28fe 56       		.byte	0x56
 17129 28ff 82000000 		.4byte	.LVL538
 17130 2903 84000000 		.4byte	.LVL539
 17131 2907 0300     		.2byte	0x3
 17132 2909 76       		.byte	0x76
 17133 290a 7C       		.sleb128 -4
 17134 290b 9F       		.byte	0x9f
 17135 290c 84000000 		.4byte	.LVL539
 17136 2910 00010000 		.4byte	.LVL554
 17137 2914 0100     		.2byte	0x1
 17138 2916 56       		.byte	0x56
 17139 2917 00010000 		.4byte	.LVL554
 17140 291b 02010000 		.4byte	.LVL555
 17141 291f 0300     		.2byte	0x3
 17142 2921 76       		.byte	0x76
 17143 2922 7C       		.sleb128 -4
 17144 2923 9F       		.byte	0x9f
ARM GAS  C:\Users\rdn\AppData\Local\Temp\cc5zc0m9.s 			page 333


 17145 2924 02010000 		.4byte	.LVL555
 17146 2928 E6010000 		.4byte	.LVL571
 17147 292c 0100     		.2byte	0x1
 17148 292e 56       		.byte	0x56
 17149 292f 00000000 		.4byte	0
 17150 2933 00000000 		.4byte	0
 17151              	.LLST226:
 17152 2937 5E000000 		.4byte	.LVL532
 17153 293b 62000000 		.4byte	.LVL534
 17154 293f 0200     		.2byte	0x2
 17155 2941 30       		.byte	0x30
 17156 2942 9F       		.byte	0x9f
 17157 2943 62000000 		.4byte	.LVL534
 17158 2947 F0000000 		.4byte	.LVL550
 17159 294b 0100     		.2byte	0x1
 17160 294d 57       		.byte	0x57
 17161 294e 00000000 		.4byte	0
 17162 2952 00000000 		.4byte	0
 17163              	.LLST227:
 17164 2956 74000000 		.4byte	.LVL535
 17165 295a E6000000 		.4byte	.LVL547
 17166 295e 0200     		.2byte	0x2
 17167 2960 90       		.byte	0x90
 17168 2961 4C       		.uleb128 0x4c
 17169 2962 00000000 		.4byte	0
 17170 2966 00000000 		.4byte	0
 17171              	.LLST228:
 17172 296a 7C000000 		.4byte	.LVL537
 17173 296e E6000000 		.4byte	.LVL547
 17174 2972 0200     		.2byte	0x2
 17175 2974 90       		.byte	0x90
 17176 2975 4D       		.uleb128 0x4d
 17177 2976 00000000 		.4byte	0
 17178 297a 00000000 		.4byte	0
 17179              	.LLST229:
 17180 297e 86000000 		.4byte	.LVL540
 17181 2982 8A000000 		.4byte	.LVL541
 17182 2986 0200     		.2byte	0x2
 17183 2988 30       		.byte	0x30
 17184 2989 9F       		.byte	0x9f
 17185 298a 8A000000 		.4byte	.LVL541
 17186 298e B4000000 		.4byte	.LVL543
 17187 2992 0100     		.2byte	0x1
 17188 2994 53       		.byte	0x53
 17189 2995 00000000 		.4byte	0
 17190 2999 00000000 		.4byte	0
 17191              	.LLST230:
 17192 299d B6000000 		.4byte	.LVL544
 17193 29a1 E6000000 		.4byte	.LVL547
 17194 29a5 0100     		.2byte	0x1
 17195 29a7 53       		.byte	0x53
 17196 29a8 00000000 		.4byte	0
 17197 29ac 00000000 		.4byte	0
 17198              	.LLST231:
 17199 29b0 EE000000 		.4byte	.LVL549
 17200 29b4 F2000000 		.4byte	.LVL551
 17201 29b8 0200     		.2byte	0x2
ARM GAS  C:\Users\rdn\AppData\Local\Temp\cc5zc0m9.s 			page 334


 17202 29ba 30       		.byte	0x30
 17203 29bb 9F       		.byte	0x9f
 17204 29bc F2000000 		.4byte	.LVL551
 17205 29c0 E6010000 		.4byte	.LVL571
 17206 29c4 0100     		.2byte	0x1
 17207 29c6 57       		.byte	0x57
 17208 29c7 00000000 		.4byte	0
 17209 29cb 00000000 		.4byte	0
 17210              	.LLST232:
 17211 29cf F2000000 		.4byte	.LVL551
 17212 29d3 D4010000 		.4byte	.LVL568
 17213 29d7 0100     		.2byte	0x1
 17214 29d9 52       		.byte	0x52
 17215 29da D6010000 		.4byte	.LVL569
 17216 29de DC010000 		.4byte	.LVL570
 17217 29e2 0100     		.2byte	0x1
 17218 29e4 52       		.byte	0x52
 17219 29e5 00000000 		.4byte	0
 17220 29e9 00000000 		.4byte	0
 17221              	.LLST233:
 17222 29ed F6000000 		.4byte	.LVL552
 17223 29f1 D4010000 		.4byte	.LVL568
 17224 29f5 0200     		.2byte	0x2
 17225 29f7 90       		.byte	0x90
 17226 29f8 4C       		.uleb128 0x4c
 17227 29f9 00000000 		.4byte	0
 17228 29fd 00000000 		.4byte	0
 17229              	.LLST234:
 17230 2a01 FA000000 		.4byte	.LVL553
 17231 2a05 BE010000 		.4byte	.LVL563
 17232 2a09 0200     		.2byte	0x2
 17233 2a0b 90       		.byte	0x90
 17234 2a0c 4D       		.uleb128 0x4d
 17235 2a0d BE010000 		.4byte	.LVL563
 17236 2a11 C2010000 		.4byte	.LVL564
 17237 2a15 0200     		.2byte	0x2
 17238 2a17 75       		.byte	0x75
 17239 2a18 00       		.sleb128 0
 17240 2a19 00000000 		.4byte	0
 17241 2a1d 00000000 		.4byte	0
 17242              	.LLST235:
 17243 2a21 04010000 		.4byte	.LVL556
 17244 2a25 0A010000 		.4byte	.LVL557
 17245 2a29 0200     		.2byte	0x2
 17246 2a2b 30       		.byte	0x30
 17247 2a2c 9F       		.byte	0x9f
 17248 2a2d 0A010000 		.4byte	.LVL557
 17249 2a31 5A010000 		.4byte	.LVL559
 17250 2a35 0100     		.2byte	0x1
 17251 2a37 58       		.byte	0x58
 17252 2a38 00000000 		.4byte	0
 17253 2a3c 00000000 		.4byte	0
 17254              	.LLST236:
 17255 2a40 5C010000 		.4byte	.LVL560
 17256 2a44 D4010000 		.4byte	.LVL568
 17257 2a48 0100     		.2byte	0x1
 17258 2a4a 58       		.byte	0x58
ARM GAS  C:\Users\rdn\AppData\Local\Temp\cc5zc0m9.s 			page 335


 17259 2a4b 00000000 		.4byte	0
 17260 2a4f 00000000 		.4byte	0
 17261              	.LLST237:
 17262 2a53 00000000 		.4byte	.LVL572
 17263 2a57 66000000 		.4byte	.LVL585
 17264 2a5b 0100     		.2byte	0x1
 17265 2a5d 50       		.byte	0x50
 17266 2a5e 66000000 		.4byte	.LVL585
 17267 2a62 C6010000 		.4byte	.LVL623
 17268 2a66 0100     		.2byte	0x1
 17269 2a68 59       		.byte	0x59
 17270 2a69 C6010000 		.4byte	.LVL623
 17271 2a6d D0010000 		.4byte	.LFE40
 17272 2a71 0400     		.2byte	0x4
 17273 2a73 F3       		.byte	0xf3
 17274 2a74 01       		.uleb128 0x1
 17275 2a75 50       		.byte	0x50
 17276 2a76 9F       		.byte	0x9f
 17277 2a77 00000000 		.4byte	0
 17278 2a7b 00000000 		.4byte	0
 17279              	.LLST238:
 17280 2a7f 00000000 		.4byte	.LVL572
 17281 2a83 5C000000 		.4byte	.LVL581
 17282 2a87 0100     		.2byte	0x1
 17283 2a89 51       		.byte	0x51
 17284 2a8a 5C000000 		.4byte	.LVL581
 17285 2a8e 5E000000 		.4byte	.LVL582
 17286 2a92 0700     		.2byte	0x7
 17287 2a94 71       		.byte	0x71
 17288 2a95 80808080 		.sleb128 -1073741824
 17288      7C
 17289 2a9a 9F       		.byte	0x9f
 17290 2a9b 5E000000 		.4byte	.LVL582
 17291 2a9f 62000000 		.4byte	.LVL583
 17292 2aa3 0700     		.2byte	0x7
 17293 2aa5 71       		.byte	0x71
 17294 2aa6 81808080 		.sleb128 -1073741823
 17294      7C
 17295 2aab 9F       		.byte	0x9f
 17296 2aac 62000000 		.4byte	.LVL583
 17297 2ab0 D0010000 		.4byte	.LFE40
 17298 2ab4 0400     		.2byte	0x4
 17299 2ab6 F3       		.byte	0xf3
 17300 2ab7 01       		.uleb128 0x1
 17301 2ab8 51       		.byte	0x51
 17302 2ab9 9F       		.byte	0x9f
 17303 2aba 00000000 		.4byte	0
 17304 2abe 00000000 		.4byte	0
 17305              	.LLST239:
 17306 2ac2 00000000 		.4byte	.LVL572
 17307 2ac6 46000000 		.4byte	.LVL577
 17308 2aca 0100     		.2byte	0x1
 17309 2acc 52       		.byte	0x52
 17310 2acd 46000000 		.4byte	.LVL577
 17311 2ad1 4E000000 		.4byte	.LVL578
 17312 2ad5 0300     		.2byte	0x3
 17313 2ad7 76       		.byte	0x76
ARM GAS  C:\Users\rdn\AppData\Local\Temp\cc5zc0m9.s 			page 336


 17314 2ad8 7E       		.sleb128 -2
 17315 2ad9 9F       		.byte	0x9f
 17316 2ada 4E000000 		.4byte	.LVL578
 17317 2ade D0010000 		.4byte	.LFE40
 17318 2ae2 0400     		.2byte	0x4
 17319 2ae4 F3       		.byte	0xf3
 17320 2ae5 01       		.uleb128 0x1
 17321 2ae6 52       		.byte	0x52
 17322 2ae7 9F       		.byte	0x9f
 17323 2ae8 00000000 		.4byte	0
 17324 2aec 00000000 		.4byte	0
 17325              	.LLST240:
 17326 2af0 00000000 		.4byte	.LVL572
 17327 2af4 66000000 		.4byte	.LVL585
 17328 2af8 0100     		.2byte	0x1
 17329 2afa 53       		.byte	0x53
 17330 2afb 66000000 		.4byte	.LVL585
 17331 2aff D0010000 		.4byte	.LFE40
 17332 2b03 0400     		.2byte	0x4
 17333 2b05 F3       		.byte	0xf3
 17334 2b06 01       		.uleb128 0x1
 17335 2b07 53       		.byte	0x53
 17336 2b08 9F       		.byte	0x9f
 17337 2b09 00000000 		.4byte	0
 17338 2b0d 00000000 		.4byte	0
 17339              	.LLST241:
 17340 2b11 00000000 		.4byte	.LVL572
 17341 2b15 C6010000 		.4byte	.LVL623
 17342 2b19 0200     		.2byte	0x2
 17343 2b1b 91       		.byte	0x91
 17344 2b1c 00       		.sleb128 0
 17345 2b1d C6010000 		.4byte	.LVL623
 17346 2b21 D0010000 		.4byte	.LFE40
 17347 2b25 0200     		.2byte	0x2
 17348 2b27 7D       		.byte	0x7d
 17349 2b28 00       		.sleb128 0
 17350 2b29 00000000 		.4byte	0
 17351 2b2d 00000000 		.4byte	0
 17352              	.LLST242:
 17353 2b31 00000000 		.4byte	.LVL572
 17354 2b35 C6010000 		.4byte	.LVL623
 17355 2b39 0200     		.2byte	0x2
 17356 2b3b 91       		.byte	0x91
 17357 2b3c 04       		.sleb128 4
 17358 2b3d C6010000 		.4byte	.LVL623
 17359 2b41 D0010000 		.4byte	.LFE40
 17360 2b45 0200     		.2byte	0x2
 17361 2b47 7D       		.byte	0x7d
 17362 2b48 04       		.sleb128 4
 17363 2b49 00000000 		.4byte	0
 17364 2b4d 00000000 		.4byte	0
 17365              	.LLST243:
 17366 2b51 00000000 		.4byte	.LVL572
 17367 2b55 C6010000 		.4byte	.LVL623
 17368 2b59 0200     		.2byte	0x2
 17369 2b5b 91       		.byte	0x91
 17370 2b5c 08       		.sleb128 8
ARM GAS  C:\Users\rdn\AppData\Local\Temp\cc5zc0m9.s 			page 337


 17371 2b5d C6010000 		.4byte	.LVL623
 17372 2b61 D0010000 		.4byte	.LFE40
 17373 2b65 0200     		.2byte	0x2
 17374 2b67 7D       		.byte	0x7d
 17375 2b68 08       		.sleb128 8
 17376 2b69 00000000 		.4byte	0
 17377 2b6d 00000000 		.4byte	0
 17378              	.LLST244:
 17379 2b71 00000000 		.4byte	.LVL572
 17380 2b75 C6010000 		.4byte	.LVL623
 17381 2b79 0200     		.2byte	0x2
 17382 2b7b 91       		.byte	0x91
 17383 2b7c 0C       		.sleb128 12
 17384 2b7d C6010000 		.4byte	.LVL623
 17385 2b81 D0010000 		.4byte	.LFE40
 17386 2b85 0200     		.2byte	0x2
 17387 2b87 7D       		.byte	0x7d
 17388 2b88 0C       		.sleb128 12
 17389 2b89 00000000 		.4byte	0
 17390 2b8d 00000000 		.4byte	0
 17391              	.LLST245:
 17392 2b91 12000000 		.4byte	.LVL573
 17393 2b95 64000000 		.4byte	.LVL584
 17394 2b99 0100     		.2byte	0x1
 17395 2b9b 57       		.byte	0x57
 17396 2b9c 64000000 		.4byte	.LVL584
 17397 2ba0 C6010000 		.4byte	.LVL623
 17398 2ba4 0200     		.2byte	0x2
 17399 2ba6 91       		.byte	0x91
 17400 2ba7 0C       		.sleb128 12
 17401 2ba8 C6010000 		.4byte	.LVL623
 17402 2bac D0010000 		.4byte	.LFE40
 17403 2bb0 0200     		.2byte	0x2
 17404 2bb2 7D       		.byte	0x7d
 17405 2bb3 0C       		.sleb128 12
 17406 2bb4 00000000 		.4byte	0
 17407 2bb8 00000000 		.4byte	0
 17408              	.LLST246:
 17409 2bbc 12000000 		.4byte	.LVL573
 17410 2bc0 C6010000 		.4byte	.LVL623
 17411 2bc4 0100     		.2byte	0x1
 17412 2bc6 54       		.byte	0x54
 17413 2bc7 C6010000 		.4byte	.LVL623
 17414 2bcb D0010000 		.4byte	.LFE40
 17415 2bcf 0200     		.2byte	0x2
 17416 2bd1 7D       		.byte	0x7d
 17417 2bd2 08       		.sleb128 8
 17418 2bd3 00000000 		.4byte	0
 17419 2bd7 00000000 		.4byte	0
 17420              	.LLST247:
 17421 2bdb 12000000 		.4byte	.LVL573
 17422 2bdf 8C010000 		.4byte	.LVL613
 17423 2be3 0100     		.2byte	0x1
 17424 2be5 55       		.byte	0x55
 17425 2be6 8C010000 		.4byte	.LVL613
 17426 2bea B2010000 		.4byte	.LVL619
 17427 2bee 0300     		.2byte	0x3
ARM GAS  C:\Users\rdn\AppData\Local\Temp\cc5zc0m9.s 			page 338


 17428 2bf0 75       		.byte	0x75
 17429 2bf1 04       		.sleb128 4
 17430 2bf2 9F       		.byte	0x9f
 17431 2bf3 B2010000 		.4byte	.LVL619
 17432 2bf7 C6010000 		.4byte	.LVL623
 17433 2bfb 0100     		.2byte	0x1
 17434 2bfd 55       		.byte	0x55
 17435 2bfe 00000000 		.4byte	0
 17436 2c02 00000000 		.4byte	0
 17437              	.LLST248:
 17438 2c06 12000000 		.4byte	.LVL573
 17439 2c0a 7C000000 		.4byte	.LVL587
 17440 2c0e 0100     		.2byte	0x1
 17441 2c10 53       		.byte	0x53
 17442 2c11 7C000000 		.4byte	.LVL587
 17443 2c15 E6000000 		.4byte	.LVL598
 17444 2c19 0100     		.2byte	0x1
 17445 2c1b 5C       		.byte	0x5c
 17446 2c1c E6000000 		.4byte	.LVL598
 17447 2c20 EC000000 		.4byte	.LVL599
 17448 2c24 0100     		.2byte	0x1
 17449 2c26 53       		.byte	0x53
 17450 2c27 00000000 		.4byte	0
 17451 2c2b 00000000 		.4byte	0
 17452              	.LLST249:
 17453 2c2f 12000000 		.4byte	.LVL573
 17454 2c33 42000000 		.4byte	.LVL576
 17455 2c37 0100     		.2byte	0x1
 17456 2c39 52       		.byte	0x52
 17457 2c3a 42000000 		.4byte	.LVL576
 17458 2c3e 4E000000 		.4byte	.LVL578
 17459 2c42 0100     		.2byte	0x1
 17460 2c44 56       		.byte	0x56
 17461 2c45 4E000000 		.4byte	.LVL578
 17462 2c49 54000000 		.4byte	.LVL579
 17463 2c4d 0600     		.2byte	0x6
 17464 2c4f F3       		.byte	0xf3
 17465 2c50 01       		.uleb128 0x1
 17466 2c51 52       		.byte	0x52
 17467 2c52 23       		.byte	0x23
 17468 2c53 02       		.uleb128 0x2
 17469 2c54 9F       		.byte	0x9f
 17470 2c55 54000000 		.4byte	.LVL579
 17471 2c59 58000000 		.4byte	.LVL580
 17472 2c5d 0100     		.2byte	0x1
 17473 2c5f 56       		.byte	0x56
 17474 2c60 58000000 		.4byte	.LVL580
 17475 2c64 D0010000 		.4byte	.LFE40
 17476 2c68 0600     		.2byte	0x6
 17477 2c6a F3       		.byte	0xf3
 17478 2c6b 01       		.uleb128 0x1
 17479 2c6c 52       		.byte	0x52
 17480 2c6d 23       		.byte	0x23
 17481 2c6e 02       		.uleb128 0x2
 17482 2c6f 9F       		.byte	0x9f
 17483 2c70 00000000 		.4byte	0
 17484 2c74 00000000 		.4byte	0
ARM GAS  C:\Users\rdn\AppData\Local\Temp\cc5zc0m9.s 			page 339


 17485              	.LLST250:
 17486 2c78 12000000 		.4byte	.LVL573
 17487 2c7c 5C000000 		.4byte	.LVL581
 17488 2c80 0100     		.2byte	0x1
 17489 2c82 51       		.byte	0x51
 17490 2c83 5C000000 		.4byte	.LVL581
 17491 2c87 5E000000 		.4byte	.LVL582
 17492 2c8b 0700     		.2byte	0x7
 17493 2c8d 71       		.byte	0x71
 17494 2c8e 80808080 		.sleb128 -1073741824
 17494      7C
 17495 2c93 9F       		.byte	0x9f
 17496 2c94 5E000000 		.4byte	.LVL582
 17497 2c98 62000000 		.4byte	.LVL583
 17498 2c9c 0700     		.2byte	0x7
 17499 2c9e 71       		.byte	0x71
 17500 2c9f 81808080 		.sleb128 -1073741823
 17500      7C
 17501 2ca4 9F       		.byte	0x9f
 17502 2ca5 62000000 		.4byte	.LVL583
 17503 2ca9 D0010000 		.4byte	.LFE40
 17504 2cad 0400     		.2byte	0x4
 17505 2caf F3       		.byte	0xf3
 17506 2cb0 01       		.uleb128 0x1
 17507 2cb1 51       		.byte	0x51
 17508 2cb2 9F       		.byte	0x9f
 17509 2cb3 00000000 		.4byte	0
 17510 2cb7 00000000 		.4byte	0
 17511              	.LLST251:
 17512 2cbb 12000000 		.4byte	.LVL573
 17513 2cbf 66000000 		.4byte	.LVL585
 17514 2cc3 0100     		.2byte	0x1
 17515 2cc5 50       		.byte	0x50
 17516 2cc6 66000000 		.4byte	.LVL585
 17517 2cca C6010000 		.4byte	.LVL623
 17518 2cce 0100     		.2byte	0x1
 17519 2cd0 59       		.byte	0x59
 17520 2cd1 C6010000 		.4byte	.LVL623
 17521 2cd5 D0010000 		.4byte	.LFE40
 17522 2cd9 0400     		.2byte	0x4
 17523 2cdb F3       		.byte	0xf3
 17524 2cdc 01       		.uleb128 0x1
 17525 2cdd 50       		.byte	0x50
 17526 2cde 9F       		.byte	0x9f
 17527 2cdf 00000000 		.4byte	0
 17528 2ce3 00000000 		.4byte	0
 17529              	.LLST252:
 17530 2ce7 58000000 		.4byte	.LVL580
 17531 2ceb 86000000 		.4byte	.LVL589
 17532 2cef 0100     		.2byte	0x1
 17533 2cf1 56       		.byte	0x56
 17534 2cf2 86000000 		.4byte	.LVL589
 17535 2cf6 88000000 		.4byte	.LVL590
 17536 2cfa 0300     		.2byte	0x3
 17537 2cfc 76       		.byte	0x76
 17538 2cfd 7C       		.sleb128 -4
 17539 2cfe 9F       		.byte	0x9f
ARM GAS  C:\Users\rdn\AppData\Local\Temp\cc5zc0m9.s 			page 340


 17540 2cff 88000000 		.4byte	.LVL590
 17541 2d03 00010000 		.4byte	.LVL605
 17542 2d07 0100     		.2byte	0x1
 17543 2d09 56       		.byte	0x56
 17544 2d0a 00010000 		.4byte	.LVL605
 17545 2d0e 02010000 		.4byte	.LVL606
 17546 2d12 0300     		.2byte	0x3
 17547 2d14 76       		.byte	0x76
 17548 2d15 7C       		.sleb128 -4
 17549 2d16 9F       		.byte	0x9f
 17550 2d17 02010000 		.4byte	.LVL606
 17551 2d1b C6010000 		.4byte	.LVL623
 17552 2d1f 0100     		.2byte	0x1
 17553 2d21 56       		.byte	0x56
 17554 2d22 00000000 		.4byte	0
 17555 2d26 00000000 		.4byte	0
 17556              	.LLST253:
 17557 2d2a 62000000 		.4byte	.LVL583
 17558 2d2e 66000000 		.4byte	.LVL585
 17559 2d32 0200     		.2byte	0x2
 17560 2d34 30       		.byte	0x30
 17561 2d35 9F       		.byte	0x9f
 17562 2d36 66000000 		.4byte	.LVL585
 17563 2d3a F0000000 		.4byte	.LVL601
 17564 2d3e 0100     		.2byte	0x1
 17565 2d40 57       		.byte	0x57
 17566 2d41 00000000 		.4byte	0
 17567 2d45 00000000 		.4byte	0
 17568              	.LLST254:
 17569 2d49 78000000 		.4byte	.LVL586
 17570 2d4d E6000000 		.4byte	.LVL598
 17571 2d51 0200     		.2byte	0x2
 17572 2d53 90       		.byte	0x90
 17573 2d54 4C       		.uleb128 0x4c
 17574 2d55 00000000 		.4byte	0
 17575 2d59 00000000 		.4byte	0
 17576              	.LLST255:
 17577 2d5d 80000000 		.4byte	.LVL588
 17578 2d61 E6000000 		.4byte	.LVL598
 17579 2d65 0200     		.2byte	0x2
 17580 2d67 90       		.byte	0x90
 17581 2d68 4D       		.uleb128 0x4d
 17582 2d69 00000000 		.4byte	0
 17583 2d6d 00000000 		.4byte	0
 17584              	.LLST256:
 17585 2d71 8A000000 		.4byte	.LVL591
 17586 2d75 8E000000 		.4byte	.LVL592
 17587 2d79 0200     		.2byte	0x2
 17588 2d7b 30       		.byte	0x30
 17589 2d7c 9F       		.byte	0x9f
 17590 2d7d 8E000000 		.4byte	.LVL592
 17591 2d81 B6000000 		.4byte	.LVL594
 17592 2d85 0100     		.2byte	0x1
 17593 2d87 53       		.byte	0x53
 17594 2d88 00000000 		.4byte	0
 17595 2d8c 00000000 		.4byte	0
 17596              	.LLST257:
ARM GAS  C:\Users\rdn\AppData\Local\Temp\cc5zc0m9.s 			page 341


 17597 2d90 B8000000 		.4byte	.LVL595
 17598 2d94 E6000000 		.4byte	.LVL598
 17599 2d98 0100     		.2byte	0x1
 17600 2d9a 53       		.byte	0x53
 17601 2d9b 00000000 		.4byte	0
 17602 2d9f 00000000 		.4byte	0
 17603              	.LLST258:
 17604 2da3 EE000000 		.4byte	.LVL600
 17605 2da7 F2000000 		.4byte	.LVL602
 17606 2dab 0200     		.2byte	0x2
 17607 2dad 30       		.byte	0x30
 17608 2dae 9F       		.byte	0x9f
 17609 2daf F2000000 		.4byte	.LVL602
 17610 2db3 C6010000 		.4byte	.LVL623
 17611 2db7 0100     		.2byte	0x1
 17612 2db9 57       		.byte	0x57
 17613 2dba 00000000 		.4byte	0
 17614 2dbe 00000000 		.4byte	0
 17615              	.LLST259:
 17616 2dc2 F2000000 		.4byte	.LVL602
 17617 2dc6 B4010000 		.4byte	.LVL620
 17618 2dca 0100     		.2byte	0x1
 17619 2dcc 52       		.byte	0x52
 17620 2dcd B6010000 		.4byte	.LVL621
 17621 2dd1 BC010000 		.4byte	.LVL622
 17622 2dd5 0100     		.2byte	0x1
 17623 2dd7 52       		.byte	0x52
 17624 2dd8 00000000 		.4byte	0
 17625 2ddc 00000000 		.4byte	0
 17626              	.LLST260:
 17627 2de0 F6000000 		.4byte	.LVL603
 17628 2de4 B4010000 		.4byte	.LVL620
 17629 2de8 0200     		.2byte	0x2
 17630 2dea 90       		.byte	0x90
 17631 2deb 4C       		.uleb128 0x4c
 17632 2dec 00000000 		.4byte	0
 17633 2df0 00000000 		.4byte	0
 17634              	.LLST261:
 17635 2df4 FA000000 		.4byte	.LVL604
 17636 2df8 9E010000 		.4byte	.LVL614
 17637 2dfc 0200     		.2byte	0x2
 17638 2dfe 90       		.byte	0x90
 17639 2dff 4D       		.uleb128 0x4d
 17640 2e00 9E010000 		.4byte	.LVL614
 17641 2e04 A2010000 		.4byte	.LVL615
 17642 2e08 0200     		.2byte	0x2
 17643 2e0a 75       		.byte	0x75
 17644 2e0b 00       		.sleb128 0
 17645 2e0c 00000000 		.4byte	0
 17646 2e10 00000000 		.4byte	0
 17647              	.LLST262:
 17648 2e14 04010000 		.4byte	.LVL607
 17649 2e18 0A010000 		.4byte	.LVL608
 17650 2e1c 0200     		.2byte	0x2
 17651 2e1e 30       		.byte	0x30
 17652 2e1f 9F       		.byte	0x9f
 17653 2e20 0A010000 		.4byte	.LVL608
ARM GAS  C:\Users\rdn\AppData\Local\Temp\cc5zc0m9.s 			page 342


 17654 2e24 4A010000 		.4byte	.LVL610
 17655 2e28 0100     		.2byte	0x1
 17656 2e2a 5C       		.byte	0x5c
 17657 2e2b 00000000 		.4byte	0
 17658 2e2f 00000000 		.4byte	0
 17659              	.LLST263:
 17660 2e33 4C010000 		.4byte	.LVL611
 17661 2e37 A6010000 		.4byte	.LVL616
 17662 2e3b 0100     		.2byte	0x1
 17663 2e3d 5C       		.byte	0x5c
 17664 2e3e 00000000 		.4byte	0
 17665 2e42 00000000 		.4byte	0
 17666              	.LLST264:
 17667 2e46 00000000 		.4byte	.LVL624
 17668 2e4a 58000000 		.4byte	.LVL633
 17669 2e4e 0100     		.2byte	0x1
 17670 2e50 51       		.byte	0x51
 17671 2e51 58000000 		.4byte	.LVL633
 17672 2e55 5A000000 		.4byte	.LVL634
 17673 2e59 0700     		.2byte	0x7
 17674 2e5b 71       		.byte	0x71
 17675 2e5c 80808080 		.sleb128 -1073741824
 17675      7C
 17676 2e61 9F       		.byte	0x9f
 17677 2e62 5A000000 		.4byte	.LVL634
 17678 2e66 5E000000 		.4byte	.LVL635
 17679 2e6a 0700     		.2byte	0x7
 17680 2e6c 71       		.byte	0x71
 17681 2e6d 81808080 		.sleb128 -1073741823
 17681      7C
 17682 2e72 9F       		.byte	0x9f
 17683 2e73 5E000000 		.4byte	.LVL635
 17684 2e77 E8010000 		.4byte	.LFE41
 17685 2e7b 0400     		.2byte	0x4
 17686 2e7d F3       		.byte	0xf3
 17687 2e7e 01       		.uleb128 0x1
 17688 2e7f 51       		.byte	0x51
 17689 2e80 9F       		.byte	0x9f
 17690 2e81 00000000 		.4byte	0
 17691 2e85 00000000 		.4byte	0
 17692              	.LLST265:
 17693 2e89 00000000 		.4byte	.LVL624
 17694 2e8d 42000000 		.4byte	.LVL629
 17695 2e91 0100     		.2byte	0x1
 17696 2e93 52       		.byte	0x52
 17697 2e94 42000000 		.4byte	.LVL629
 17698 2e98 4A000000 		.4byte	.LVL630
 17699 2e9c 0300     		.2byte	0x3
 17700 2e9e 76       		.byte	0x76
 17701 2e9f 7D       		.sleb128 -3
 17702 2ea0 9F       		.byte	0x9f
 17703 2ea1 4A000000 		.4byte	.LVL630
 17704 2ea5 E8010000 		.4byte	.LFE41
 17705 2ea9 0400     		.2byte	0x4
 17706 2eab F3       		.byte	0xf3
 17707 2eac 01       		.uleb128 0x1
 17708 2ead 52       		.byte	0x52
ARM GAS  C:\Users\rdn\AppData\Local\Temp\cc5zc0m9.s 			page 343


 17709 2eae 9F       		.byte	0x9f
 17710 2eaf 00000000 		.4byte	0
 17711 2eb3 00000000 		.4byte	0
 17712              	.LLST266:
 17713 2eb7 00000000 		.4byte	.LVL624
 17714 2ebb 62000000 		.4byte	.LVL637
 17715 2ebf 0100     		.2byte	0x1
 17716 2ec1 53       		.byte	0x53
 17717 2ec2 62000000 		.4byte	.LVL637
 17718 2ec6 E8010000 		.4byte	.LFE41
 17719 2eca 0400     		.2byte	0x4
 17720 2ecc F3       		.byte	0xf3
 17721 2ecd 01       		.uleb128 0x1
 17722 2ece 53       		.byte	0x53
 17723 2ecf 9F       		.byte	0x9f
 17724 2ed0 00000000 		.4byte	0
 17725 2ed4 00000000 		.4byte	0
 17726              	.LLST267:
 17727 2ed8 00000000 		.4byte	.LVL624
 17728 2edc DE010000 		.4byte	.LVL675
 17729 2ee0 0200     		.2byte	0x2
 17730 2ee2 91       		.byte	0x91
 17731 2ee3 00       		.sleb128 0
 17732 2ee4 DE010000 		.4byte	.LVL675
 17733 2ee8 E8010000 		.4byte	.LFE41
 17734 2eec 0200     		.2byte	0x2
 17735 2eee 7D       		.byte	0x7d
 17736 2eef 00       		.sleb128 0
 17737 2ef0 00000000 		.4byte	0
 17738 2ef4 00000000 		.4byte	0
 17739              	.LLST268:
 17740 2ef8 00000000 		.4byte	.LVL624
 17741 2efc DE010000 		.4byte	.LVL675
 17742 2f00 0200     		.2byte	0x2
 17743 2f02 91       		.byte	0x91
 17744 2f03 04       		.sleb128 4
 17745 2f04 DE010000 		.4byte	.LVL675
 17746 2f08 E8010000 		.4byte	.LFE41
 17747 2f0c 0200     		.2byte	0x2
 17748 2f0e 7D       		.byte	0x7d
 17749 2f0f 04       		.sleb128 4
 17750 2f10 00000000 		.4byte	0
 17751 2f14 00000000 		.4byte	0
 17752              	.LLST269:
 17753 2f18 00000000 		.4byte	.LVL624
 17754 2f1c DE010000 		.4byte	.LVL675
 17755 2f20 0200     		.2byte	0x2
 17756 2f22 91       		.byte	0x91
 17757 2f23 08       		.sleb128 8
 17758 2f24 DE010000 		.4byte	.LVL675
 17759 2f28 E8010000 		.4byte	.LFE41
 17760 2f2c 0200     		.2byte	0x2
 17761 2f2e 7D       		.byte	0x7d
 17762 2f2f 08       		.sleb128 8
 17763 2f30 00000000 		.4byte	0
 17764 2f34 00000000 		.4byte	0
 17765              	.LLST270:
ARM GAS  C:\Users\rdn\AppData\Local\Temp\cc5zc0m9.s 			page 344


 17766 2f38 00000000 		.4byte	.LVL624
 17767 2f3c DE010000 		.4byte	.LVL675
 17768 2f40 0200     		.2byte	0x2
 17769 2f42 91       		.byte	0x91
 17770 2f43 0C       		.sleb128 12
 17771 2f44 DE010000 		.4byte	.LVL675
 17772 2f48 E8010000 		.4byte	.LFE41
 17773 2f4c 0200     		.2byte	0x2
 17774 2f4e 7D       		.byte	0x7d
 17775 2f4f 0C       		.sleb128 12
 17776 2f50 00000000 		.4byte	0
 17777 2f54 00000000 		.4byte	0
 17778              	.LLST271:
 17779 2f58 10000000 		.4byte	.LVL625
 17780 2f5c 60000000 		.4byte	.LVL636
 17781 2f60 0100     		.2byte	0x1
 17782 2f62 57       		.byte	0x57
 17783 2f63 60000000 		.4byte	.LVL636
 17784 2f67 DE010000 		.4byte	.LVL675
 17785 2f6b 0200     		.2byte	0x2
 17786 2f6d 91       		.byte	0x91
 17787 2f6e 0C       		.sleb128 12
 17788 2f6f DE010000 		.4byte	.LVL675
 17789 2f73 E8010000 		.4byte	.LFE41
 17790 2f77 0200     		.2byte	0x2
 17791 2f79 7D       		.byte	0x7d
 17792 2f7a 0C       		.sleb128 12
 17793 2f7b 00000000 		.4byte	0
 17794 2f7f 00000000 		.4byte	0
 17795              	.LLST272:
 17796 2f83 10000000 		.4byte	.LVL625
 17797 2f87 DE010000 		.4byte	.LVL675
 17798 2f8b 0100     		.2byte	0x1
 17799 2f8d 54       		.byte	0x54
 17800 2f8e DE010000 		.4byte	.LVL675
 17801 2f92 E8010000 		.4byte	.LFE41
 17802 2f96 0200     		.2byte	0x2
 17803 2f98 7D       		.byte	0x7d
 17804 2f99 08       		.sleb128 8
 17805 2f9a 00000000 		.4byte	0
 17806 2f9e 00000000 		.4byte	0
 17807              	.LLST273:
 17808 2fa2 10000000 		.4byte	.LVL625
 17809 2fa6 A4010000 		.4byte	.LVL665
 17810 2faa 0100     		.2byte	0x1
 17811 2fac 55       		.byte	0x55
 17812 2fad A4010000 		.4byte	.LVL665
 17813 2fb1 CA010000 		.4byte	.LVL671
 17814 2fb5 0300     		.2byte	0x3
 17815 2fb7 75       		.byte	0x75
 17816 2fb8 04       		.sleb128 4
 17817 2fb9 9F       		.byte	0x9f
 17818 2fba CA010000 		.4byte	.LVL671
 17819 2fbe DE010000 		.4byte	.LVL675
 17820 2fc2 0100     		.2byte	0x1
 17821 2fc4 55       		.byte	0x55
 17822 2fc5 00000000 		.4byte	0
ARM GAS  C:\Users\rdn\AppData\Local\Temp\cc5zc0m9.s 			page 345


 17823 2fc9 00000000 		.4byte	0
 17824              	.LLST274:
 17825 2fcd 10000000 		.4byte	.LVL625
 17826 2fd1 78000000 		.4byte	.LVL639
 17827 2fd5 0100     		.2byte	0x1
 17828 2fd7 53       		.byte	0x53
 17829 2fd8 78000000 		.4byte	.LVL639
 17830 2fdc E6000000 		.4byte	.LVL650
 17831 2fe0 0100     		.2byte	0x1
 17832 2fe2 5C       		.byte	0x5c
 17833 2fe3 E6000000 		.4byte	.LVL650
 17834 2fe7 EC000000 		.4byte	.LVL651
 17835 2feb 0100     		.2byte	0x1
 17836 2fed 53       		.byte	0x53
 17837 2fee 00000000 		.4byte	0
 17838 2ff2 00000000 		.4byte	0
 17839              	.LLST275:
 17840 2ff6 10000000 		.4byte	.LVL625
 17841 2ffa 40000000 		.4byte	.LVL628
 17842 2ffe 0100     		.2byte	0x1
 17843 3000 52       		.byte	0x52
 17844 3001 40000000 		.4byte	.LVL628
 17845 3005 4A000000 		.4byte	.LVL630
 17846 3009 0100     		.2byte	0x1
 17847 300b 56       		.byte	0x56
 17848 300c 4A000000 		.4byte	.LVL630
 17849 3010 50000000 		.4byte	.LVL631
 17850 3014 0600     		.2byte	0x6
 17851 3016 F3       		.byte	0xf3
 17852 3017 01       		.uleb128 0x1
 17853 3018 52       		.byte	0x52
 17854 3019 23       		.byte	0x23
 17855 301a 03       		.uleb128 0x3
 17856 301b 9F       		.byte	0x9f
 17857 301c 50000000 		.4byte	.LVL631
 17858 3020 54000000 		.4byte	.LVL632
 17859 3024 0100     		.2byte	0x1
 17860 3026 56       		.byte	0x56
 17861 3027 54000000 		.4byte	.LVL632
 17862 302b E8010000 		.4byte	.LFE41
 17863 302f 0600     		.2byte	0x6
 17864 3031 F3       		.byte	0xf3
 17865 3032 01       		.uleb128 0x1
 17866 3033 52       		.byte	0x52
 17867 3034 23       		.byte	0x23
 17868 3035 03       		.uleb128 0x3
 17869 3036 9F       		.byte	0x9f
 17870 3037 00000000 		.4byte	0
 17871 303b 00000000 		.4byte	0
 17872              	.LLST276:
 17873 303f 10000000 		.4byte	.LVL625
 17874 3043 58000000 		.4byte	.LVL633
 17875 3047 0100     		.2byte	0x1
 17876 3049 51       		.byte	0x51
 17877 304a 58000000 		.4byte	.LVL633
 17878 304e 5A000000 		.4byte	.LVL634
 17879 3052 0700     		.2byte	0x7
ARM GAS  C:\Users\rdn\AppData\Local\Temp\cc5zc0m9.s 			page 346


 17880 3054 71       		.byte	0x71
 17881 3055 80808080 		.sleb128 -1073741824
 17881      7C
 17882 305a 9F       		.byte	0x9f
 17883 305b 5A000000 		.4byte	.LVL634
 17884 305f 5E000000 		.4byte	.LVL635
 17885 3063 0700     		.2byte	0x7
 17886 3065 71       		.byte	0x71
 17887 3066 81808080 		.sleb128 -1073741823
 17887      7C
 17888 306b 9F       		.byte	0x9f
 17889 306c 5E000000 		.4byte	.LVL635
 17890 3070 E8010000 		.4byte	.LFE41
 17891 3074 0400     		.2byte	0x4
 17892 3076 F3       		.byte	0xf3
 17893 3077 01       		.uleb128 0x1
 17894 3078 51       		.byte	0x51
 17895 3079 9F       		.byte	0x9f
 17896 307a 00000000 		.4byte	0
 17897 307e 00000000 		.4byte	0
 17898              	.LLST277:
 17899 3082 54000000 		.4byte	.LVL632
 17900 3086 82000000 		.4byte	.LVL641
 17901 308a 0100     		.2byte	0x1
 17902 308c 56       		.byte	0x56
 17903 308d 82000000 		.4byte	.LVL641
 17904 3091 84000000 		.4byte	.LVL642
 17905 3095 0300     		.2byte	0x3
 17906 3097 76       		.byte	0x76
 17907 3098 7C       		.sleb128 -4
 17908 3099 9F       		.byte	0x9f
 17909 309a 84000000 		.4byte	.LVL642
 17910 309e 00010000 		.4byte	.LVL657
 17911 30a2 0100     		.2byte	0x1
 17912 30a4 56       		.byte	0x56
 17913 30a5 00010000 		.4byte	.LVL657
 17914 30a9 02010000 		.4byte	.LVL658
 17915 30ad 0300     		.2byte	0x3
 17916 30af 76       		.byte	0x76
 17917 30b0 7C       		.sleb128 -4
 17918 30b1 9F       		.byte	0x9f
 17919 30b2 02010000 		.4byte	.LVL658
 17920 30b6 DE010000 		.4byte	.LVL675
 17921 30ba 0100     		.2byte	0x1
 17922 30bc 56       		.byte	0x56
 17923 30bd 00000000 		.4byte	0
 17924 30c1 00000000 		.4byte	0
 17925              	.LLST278:
 17926 30c5 5E000000 		.4byte	.LVL635
 17927 30c9 62000000 		.4byte	.LVL637
 17928 30cd 0200     		.2byte	0x2
 17929 30cf 30       		.byte	0x30
 17930 30d0 9F       		.byte	0x9f
 17931 30d1 62000000 		.4byte	.LVL637
 17932 30d5 F0000000 		.4byte	.LVL653
 17933 30d9 0100     		.2byte	0x1
 17934 30db 57       		.byte	0x57
ARM GAS  C:\Users\rdn\AppData\Local\Temp\cc5zc0m9.s 			page 347


 17935 30dc 00000000 		.4byte	0
 17936 30e0 00000000 		.4byte	0
 17937              	.LLST279:
 17938 30e4 74000000 		.4byte	.LVL638
 17939 30e8 E6000000 		.4byte	.LVL650
 17940 30ec 0200     		.2byte	0x2
 17941 30ee 90       		.byte	0x90
 17942 30ef 4C       		.uleb128 0x4c
 17943 30f0 00000000 		.4byte	0
 17944 30f4 00000000 		.4byte	0
 17945              	.LLST280:
 17946 30f8 7C000000 		.4byte	.LVL640
 17947 30fc E6000000 		.4byte	.LVL650
 17948 3100 0200     		.2byte	0x2
 17949 3102 90       		.byte	0x90
 17950 3103 4D       		.uleb128 0x4d
 17951 3104 00000000 		.4byte	0
 17952 3108 00000000 		.4byte	0
 17953              	.LLST281:
 17954 310c 86000000 		.4byte	.LVL643
 17955 3110 8A000000 		.4byte	.LVL644
 17956 3114 0200     		.2byte	0x2
 17957 3116 30       		.byte	0x30
 17958 3117 9F       		.byte	0x9f
 17959 3118 8A000000 		.4byte	.LVL644
 17960 311c B4000000 		.4byte	.LVL646
 17961 3120 0100     		.2byte	0x1
 17962 3122 53       		.byte	0x53
 17963 3123 00000000 		.4byte	0
 17964 3127 00000000 		.4byte	0
 17965              	.LLST282:
 17966 312b B6000000 		.4byte	.LVL647
 17967 312f E6000000 		.4byte	.LVL650
 17968 3133 0100     		.2byte	0x1
 17969 3135 53       		.byte	0x53
 17970 3136 00000000 		.4byte	0
 17971 313a 00000000 		.4byte	0
 17972              	.LLST283:
 17973 313e EE000000 		.4byte	.LVL652
 17974 3142 F2000000 		.4byte	.LVL654
 17975 3146 0200     		.2byte	0x2
 17976 3148 30       		.byte	0x30
 17977 3149 9F       		.byte	0x9f
 17978 314a F2000000 		.4byte	.LVL654
 17979 314e DE010000 		.4byte	.LVL675
 17980 3152 0100     		.2byte	0x1
 17981 3154 57       		.byte	0x57
 17982 3155 00000000 		.4byte	0
 17983 3159 00000000 		.4byte	0
 17984              	.LLST284:
 17985 315d F2000000 		.4byte	.LVL654
 17986 3161 CC010000 		.4byte	.LVL672
 17987 3165 0100     		.2byte	0x1
 17988 3167 52       		.byte	0x52
 17989 3168 CE010000 		.4byte	.LVL673
 17990 316c D4010000 		.4byte	.LVL674
 17991 3170 0100     		.2byte	0x1
ARM GAS  C:\Users\rdn\AppData\Local\Temp\cc5zc0m9.s 			page 348


 17992 3172 52       		.byte	0x52
 17993 3173 00000000 		.4byte	0
 17994 3177 00000000 		.4byte	0
 17995              	.LLST285:
 17996 317b F6000000 		.4byte	.LVL655
 17997 317f CC010000 		.4byte	.LVL672
 17998 3183 0200     		.2byte	0x2
 17999 3185 90       		.byte	0x90
 18000 3186 4C       		.uleb128 0x4c
 18001 3187 00000000 		.4byte	0
 18002 318b 00000000 		.4byte	0
 18003              	.LLST286:
 18004 318f FA000000 		.4byte	.LVL656
 18005 3193 B6010000 		.4byte	.LVL666
 18006 3197 0200     		.2byte	0x2
 18007 3199 90       		.byte	0x90
 18008 319a 4D       		.uleb128 0x4d
 18009 319b B6010000 		.4byte	.LVL666
 18010 319f BA010000 		.4byte	.LVL667
 18011 31a3 0200     		.2byte	0x2
 18012 31a5 75       		.byte	0x75
 18013 31a6 00       		.sleb128 0
 18014 31a7 00000000 		.4byte	0
 18015 31ab 00000000 		.4byte	0
 18016              	.LLST287:
 18017 31af 04010000 		.4byte	.LVL659
 18018 31b3 0A010000 		.4byte	.LVL660
 18019 31b7 0200     		.2byte	0x2
 18020 31b9 30       		.byte	0x30
 18021 31ba 9F       		.byte	0x9f
 18022 31bb 0A010000 		.4byte	.LVL660
 18023 31bf 56010000 		.4byte	.LVL662
 18024 31c3 0100     		.2byte	0x1
 18025 31c5 5C       		.byte	0x5c
 18026 31c6 00000000 		.4byte	0
 18027 31ca 00000000 		.4byte	0
 18028              	.LLST288:
 18029 31ce 58010000 		.4byte	.LVL663
 18030 31d2 BE010000 		.4byte	.LVL668
 18031 31d6 0100     		.2byte	0x1
 18032 31d8 5C       		.byte	0x5c
 18033 31d9 00000000 		.4byte	0
 18034 31dd 00000000 		.4byte	0
 18035              	.LLST289:
 18036 31e1 00000000 		.4byte	.LVL676
 18037 31e5 34000000 		.4byte	.LVL681
 18038 31e9 0100     		.2byte	0x1
 18039 31eb 50       		.byte	0x50
 18040 31ec 34000000 		.4byte	.LVL681
 18041 31f0 08030000 		.4byte	.LFE38
 18042 31f4 0400     		.2byte	0x4
 18043 31f6 F3       		.byte	0xf3
 18044 31f7 01       		.uleb128 0x1
 18045 31f8 50       		.byte	0x50
 18046 31f9 9F       		.byte	0x9f
 18047 31fa 00000000 		.4byte	0
 18048 31fe 00000000 		.4byte	0
ARM GAS  C:\Users\rdn\AppData\Local\Temp\cc5zc0m9.s 			page 349


 18049              	.LLST290:
 18050 3202 00000000 		.4byte	.LVL676
 18051 3206 32000000 		.4byte	.LVL680
 18052 320a 0100     		.2byte	0x1
 18053 320c 51       		.byte	0x51
 18054 320d 32000000 		.4byte	.LVL680
 18055 3211 08030000 		.4byte	.LFE38
 18056 3215 0400     		.2byte	0x4
 18057 3217 F3       		.byte	0xf3
 18058 3218 01       		.uleb128 0x1
 18059 3219 51       		.byte	0x51
 18060 321a 9F       		.byte	0x9f
 18061 321b 00000000 		.4byte	0
 18062 321f 00000000 		.4byte	0
 18063              	.LLST291:
 18064 3223 00000000 		.4byte	.LVL676
 18065 3227 2E000000 		.4byte	.LVL679
 18066 322b 0100     		.2byte	0x1
 18067 322d 52       		.byte	0x52
 18068 322e 2E000000 		.4byte	.LVL679
 18069 3232 F0020000 		.4byte	.LVL767
 18070 3236 0100     		.2byte	0x1
 18071 3238 54       		.byte	0x54
 18072 3239 F0020000 		.4byte	.LVL767
 18073 323d 08030000 		.4byte	.LFE38
 18074 3241 0400     		.2byte	0x4
 18075 3243 F3       		.byte	0xf3
 18076 3244 01       		.uleb128 0x1
 18077 3245 52       		.byte	0x52
 18078 3246 9F       		.byte	0x9f
 18079 3247 00000000 		.4byte	0
 18080 324b 00000000 		.4byte	0
 18081              	.LLST292:
 18082 324f 00000000 		.4byte	.LVL676
 18083 3253 37000000 		.4byte	.LVL682-1
 18084 3257 0100     		.2byte	0x1
 18085 3259 53       		.byte	0x53
 18086 325a 37000000 		.4byte	.LVL682-1
 18087 325e 68000000 		.4byte	.LVL686
 18088 3262 0100     		.2byte	0x1
 18089 3264 57       		.byte	0x57
 18090 3265 68000000 		.4byte	.LVL686
 18091 3269 08030000 		.4byte	.LFE38
 18092 326d 0400     		.2byte	0x4
 18093 326f F3       		.byte	0xf3
 18094 3270 01       		.uleb128 0x1
 18095 3271 53       		.byte	0x53
 18096 3272 9F       		.byte	0x9f
 18097 3273 00000000 		.4byte	0
 18098 3277 00000000 		.4byte	0
 18099              	.LLST293:
 18100 327b 00000000 		.4byte	.LVL676
 18101 327f F0020000 		.4byte	.LVL767
 18102 3283 0200     		.2byte	0x2
 18103 3285 91       		.byte	0x91
 18104 3286 00       		.sleb128 0
 18105 3287 F0020000 		.4byte	.LVL767
ARM GAS  C:\Users\rdn\AppData\Local\Temp\cc5zc0m9.s 			page 350


 18106 328b 08030000 		.4byte	.LFE38
 18107 328f 0200     		.2byte	0x2
 18108 3291 7D       		.byte	0x7d
 18109 3292 00       		.sleb128 0
 18110 3293 00000000 		.4byte	0
 18111 3297 00000000 		.4byte	0
 18112              	.LLST294:
 18113 329b 1E000000 		.4byte	.LVL678
 18114 329f A2000000 		.4byte	.LVL691
 18115 32a3 0100     		.2byte	0x1
 18116 32a5 56       		.byte	0x56
 18117 32a6 A2000000 		.4byte	.LVL691
 18118 32aa A4000000 		.4byte	.LVL692
 18119 32ae 0500     		.2byte	0x5
 18120 32b0 76       		.byte	0x76
 18121 32b1 00       		.sleb128 0
 18122 32b2 31       		.byte	0x31
 18123 32b3 24       		.byte	0x24
 18124 32b4 9F       		.byte	0x9f
 18125 32b5 A4000000 		.4byte	.LVL692
 18126 32b9 A6000000 		.4byte	.LVL693
 18127 32bd 0500     		.2byte	0x5
 18128 32bf 7B       		.byte	0x7b
 18129 32c0 01       		.sleb128 1
 18130 32c1 36       		.byte	0x36
 18131 32c2 24       		.byte	0x24
 18132 32c3 9F       		.byte	0x9f
 18133 32c4 00000000 		.4byte	0
 18134 32c8 00000000 		.4byte	0
 18135              	.LLST295:
 18136 32cc 3A000000 		.4byte	.LVL683
 18137 32d0 66000000 		.4byte	.LVL685
 18138 32d4 0100     		.2byte	0x1
 18139 32d6 55       		.byte	0x55
 18140 32d7 66000000 		.4byte	.LVL685
 18141 32db 81000000 		.4byte	.LVL687-1
 18142 32df 0100     		.2byte	0x1
 18143 32e1 53       		.byte	0x53
 18144 32e2 81000000 		.4byte	.LVL687-1
 18145 32e6 9E000000 		.4byte	.LVL690
 18146 32ea 0200     		.2byte	0x2
 18147 32ec 7D       		.byte	0x7d
 18148 32ed 00       		.sleb128 0
 18149 32ee 9E000000 		.4byte	.LVL690
 18150 32f2 A6000000 		.4byte	.LVL693
 18151 32f6 0100     		.2byte	0x1
 18152 32f8 53       		.byte	0x53
 18153 32f9 A6000000 		.4byte	.LVL693
 18154 32fd E8020000 		.4byte	.LVL766
 18155 3301 0200     		.2byte	0x2
 18156 3303 7D       		.byte	0x7d
 18157 3304 00       		.sleb128 0
 18158 3305 E8020000 		.4byte	.LVL766
 18159 3309 F0020000 		.4byte	.LVL767
 18160 330d 0300     		.2byte	0x3
 18161 330f 91       		.byte	0x91
 18162 3310 C07B     		.sleb128 -576
ARM GAS  C:\Users\rdn\AppData\Local\Temp\cc5zc0m9.s 			page 351


 18163 3312 F0020000 		.4byte	.LVL767
 18164 3316 08030000 		.4byte	.LFE38
 18165 331a 0300     		.2byte	0x3
 18166 331c 7D       		.byte	0x7d
 18167 331d C07B     		.sleb128 -576
 18168 331f 00000000 		.4byte	0
 18169 3323 00000000 		.4byte	0
 18170              	.LLST296:
 18171 3327 68000000 		.4byte	.LVL686
 18172 332b C6000000 		.4byte	.LVL697
 18173 332f 0100     		.2byte	0x1
 18174 3331 57       		.byte	0x57
 18175 3332 FC010000 		.4byte	.LVL747
 18176 3336 00020000 		.4byte	.LVL748
 18177 333a 0100     		.2byte	0x1
 18178 333c 57       		.byte	0x57
 18179 333d 00000000 		.4byte	0
 18180 3341 00000000 		.4byte	0
 18181              	.LLST297:
 18182 3345 84000000 		.4byte	.LVL688
 18183 3349 B8000000 		.4byte	.LVL696
 18184 334d 0100     		.2byte	0x1
 18185 334f 55       		.byte	0x55
 18186 3350 00000000 		.4byte	0
 18187 3354 00000000 		.4byte	0
 18188              	.LLST298:
 18189 3358 AA000000 		.4byte	.LVL694
 18190 335c FA010000 		.4byte	.LVL746
 18191 3360 0600     		.2byte	0x6
 18192 3362 9E       		.byte	0x9e
 18193 3363 04       		.uleb128 0x4
 18194 3364 00000000 		.4byte	0
 18195 3368 FA010000 		.4byte	.LVL746
 18196 336c FC010000 		.4byte	.LVL747
 18197 3370 0200     		.2byte	0x2
 18198 3372 90       		.byte	0x90
 18199 3373 4F       		.uleb128 0x4f
 18200 3374 FC010000 		.4byte	.LVL747
 18201 3378 00020000 		.4byte	.LVL748
 18202 337c 0600     		.2byte	0x6
 18203 337e 9E       		.byte	0x9e
 18204 337f 04       		.uleb128 0x4
 18205 3380 00000000 		.4byte	0
 18206 3384 00020000 		.4byte	.LVL748
 18207 3388 08030000 		.4byte	.LFE38
 18208 338c 0200     		.2byte	0x2
 18209 338e 90       		.byte	0x90
 18210 338f 4F       		.uleb128 0x4f
 18211 3390 00000000 		.4byte	0
 18212 3394 00000000 		.4byte	0
 18213              	.LLST299:
 18214 3398 B6000000 		.4byte	.LVL695
 18215 339c C8000000 		.4byte	.LVL698
 18216 33a0 0100     		.2byte	0x1
 18217 33a2 50       		.byte	0x50
 18218 33a3 FC010000 		.4byte	.LVL747
 18219 33a7 00020000 		.4byte	.LVL748
ARM GAS  C:\Users\rdn\AppData\Local\Temp\cc5zc0m9.s 			page 352


 18220 33ab 0100     		.2byte	0x1
 18221 33ad 50       		.byte	0x50
 18222 33ae 00000000 		.4byte	0
 18223 33b2 00000000 		.4byte	0
 18224              	.LLST300:
 18225 33b6 F0000000 		.4byte	.LVL701
 18226 33ba FA000000 		.4byte	.LVL702
 18227 33be 0400     		.2byte	0x4
 18228 33c0 91       		.byte	0x91
 18229 33c1 C87D     		.sleb128 -312
 18230 33c3 9F       		.byte	0x9f
 18231 33c4 FA000000 		.4byte	.LVL702
 18232 33c8 02010000 		.4byte	.LVL705
 18233 33cc 0100     		.2byte	0x1
 18234 33ce 57       		.byte	0x57
 18235 33cf 02010000 		.4byte	.LVL705
 18236 33d3 16010000 		.4byte	.LVL709
 18237 33d7 0300     		.2byte	0x3
 18238 33d9 77       		.byte	0x77
 18239 33da 02       		.sleb128 2
 18240 33db 9F       		.byte	0x9f
 18241 33dc 16010000 		.4byte	.LVL709
 18242 33e0 44010000 		.4byte	.LVL716
 18243 33e4 0100     		.2byte	0x1
 18244 33e6 57       		.byte	0x57
 18245 33e7 00000000 		.4byte	0
 18246 33eb 00000000 		.4byte	0
 18247              	.LLST301:
 18248 33ef F0000000 		.4byte	.LVL701
 18249 33f3 FC000000 		.4byte	.LVL703
 18250 33f7 0400     		.2byte	0x4
 18251 33f9 91       		.byte	0x91
 18252 33fa C87B     		.sleb128 -568
 18253 33fc 9F       		.byte	0x9f
 18254 33fd FC000000 		.4byte	.LVL703
 18255 3401 FE000000 		.4byte	.LVL704
 18256 3405 0100     		.2byte	0x1
 18257 3407 50       		.byte	0x50
 18258 3408 FE000000 		.4byte	.LVL704
 18259 340c 18010000 		.4byte	.LVL710
 18260 3410 0300     		.2byte	0x3
 18261 3412 70       		.byte	0x70
 18262 3413 02       		.sleb128 2
 18263 3414 9F       		.byte	0x9f
 18264 3415 18010000 		.4byte	.LVL710
 18265 3419 44010000 		.4byte	.LVL716
 18266 341d 0100     		.2byte	0x1
 18267 341f 50       		.byte	0x50
 18268 3420 00000000 		.4byte	0
 18269 3424 00000000 		.4byte	0
 18270              	.LLST302:
 18271 3428 F0000000 		.4byte	.LVL701
 18272 342c FE000000 		.4byte	.LVL704
 18273 3430 0A00     		.2byte	0xa
 18274 3432 9E       		.byte	0x9e
 18275 3433 08       		.uleb128 0x8
 18276 3434 00000000 		.8byte	0
ARM GAS  C:\Users\rdn\AppData\Local\Temp\cc5zc0m9.s 			page 353


 18276      00000000 
 18277 343c FE000000 		.4byte	.LVL704
 18278 3440 0C010000 		.4byte	.LVL706
 18279 3444 0600     		.2byte	0x6
 18280 3446 52       		.byte	0x52
 18281 3447 93       		.byte	0x93
 18282 3448 04       		.uleb128 0x4
 18283 3449 53       		.byte	0x53
 18284 344a 93       		.byte	0x93
 18285 344b 04       		.uleb128 0x4
 18286 344c 10010000 		.4byte	.LVL707
 18287 3450 32010000 		.4byte	.LVL714
 18288 3454 0600     		.2byte	0x6
 18289 3456 52       		.byte	0x52
 18290 3457 93       		.byte	0x93
 18291 3458 04       		.uleb128 0x4
 18292 3459 53       		.byte	0x53
 18293 345a 93       		.byte	0x93
 18294 345b 04       		.uleb128 0x4
 18295 345c 00000000 		.4byte	0
 18296 3460 00000000 		.4byte	0
 18297              	.LLST303:
 18298 3464 3C010000 		.4byte	.LVL715
 18299 3468 44010000 		.4byte	.LVL716
 18300 346c 0100     		.2byte	0x1
 18301 346e 52       		.byte	0x52
 18302 346f 00000000 		.4byte	0
 18303 3473 00000000 		.4byte	0
 18304              	.LLST304:
 18305 3477 F0000000 		.4byte	.LVL701
 18306 347b FE000000 		.4byte	.LVL704
 18307 347f 0200     		.2byte	0x2
 18308 3481 30       		.byte	0x30
 18309 3482 9F       		.byte	0x9f
 18310 3483 FE000000 		.4byte	.LVL704
 18311 3487 44010000 		.4byte	.LVL716
 18312 348b 0100     		.2byte	0x1
 18313 348d 5C       		.byte	0x5c
 18314 348e 00000000 		.4byte	0
 18315 3492 00000000 		.4byte	0
 18316              	.LLST305:
 18317 3496 FE000000 		.4byte	.LVL704
 18318 349a 1A010000 		.4byte	.LVL711
 18319 349e 0100     		.2byte	0x1
 18320 34a0 5E       		.byte	0x5e
 18321 34a1 1E010000 		.4byte	.LVL712
 18322 34a5 28010000 		.4byte	.LVL713
 18323 34a9 0100     		.2byte	0x1
 18324 34ab 5E       		.byte	0x5e
 18325 34ac 00000000 		.4byte	0
 18326 34b0 00000000 		.4byte	0
 18327              	.LLST306:
 18328 34b4 44010000 		.4byte	.LVL716
 18329 34b8 4E010000 		.4byte	.LVL717
 18330 34bc 0400     		.2byte	0x4
 18331 34be 91       		.byte	0x91
 18332 34bf C87B     		.sleb128 -568
ARM GAS  C:\Users\rdn\AppData\Local\Temp\cc5zc0m9.s 			page 354


 18333 34c1 9F       		.byte	0x9f
 18334 34c2 4E010000 		.4byte	.LVL717
 18335 34c6 56010000 		.4byte	.LVL719
 18336 34ca 0100     		.2byte	0x1
 18337 34cc 56       		.byte	0x56
 18338 34cd 56010000 		.4byte	.LVL719
 18339 34d1 68010000 		.4byte	.LVL723
 18340 34d5 0300     		.2byte	0x3
 18341 34d7 76       		.byte	0x76
 18342 34d8 02       		.sleb128 2
 18343 34d9 9F       		.byte	0x9f
 18344 34da 68010000 		.4byte	.LVL723
 18345 34de 8E010000 		.4byte	.LVL730
 18346 34e2 0100     		.2byte	0x1
 18347 34e4 56       		.byte	0x56
 18348 34e5 00000000 		.4byte	0
 18349 34e9 00000000 		.4byte	0
 18350              	.LLST307:
 18351 34ed 44010000 		.4byte	.LVL716
 18352 34f1 4E010000 		.4byte	.LVL717
 18353 34f5 0400     		.2byte	0x4
 18354 34f7 91       		.byte	0x91
 18355 34f8 C87B     		.sleb128 -568
 18356 34fa 9F       		.byte	0x9f
 18357 34fb 4E010000 		.4byte	.LVL717
 18358 34ff 52010000 		.4byte	.LVL718
 18359 3503 0100     		.2byte	0x1
 18360 3505 56       		.byte	0x56
 18361 3506 52010000 		.4byte	.LVL718
 18362 350a 6A010000 		.4byte	.LVL724
 18363 350e 0300     		.2byte	0x3
 18364 3510 77       		.byte	0x77
 18365 3511 02       		.sleb128 2
 18366 3512 9F       		.byte	0x9f
 18367 3513 6A010000 		.4byte	.LVL724
 18368 3517 8E010000 		.4byte	.LVL730
 18369 351b 0100     		.2byte	0x1
 18370 351d 57       		.byte	0x57
 18371 351e 00000000 		.4byte	0
 18372 3522 00000000 		.4byte	0
 18373              	.LLST308:
 18374 3526 52010000 		.4byte	.LVL718
 18375 352a 60010000 		.4byte	.LVL720
 18376 352e 0600     		.2byte	0x6
 18377 3530 52       		.byte	0x52
 18378 3531 93       		.byte	0x93
 18379 3532 04       		.uleb128 0x4
 18380 3533 53       		.byte	0x53
 18381 3534 93       		.byte	0x93
 18382 3535 04       		.uleb128 0x4
 18383 3536 64010000 		.4byte	.LVL721
 18384 353a 7C010000 		.4byte	.LVL728
 18385 353e 0600     		.2byte	0x6
 18386 3540 52       		.byte	0x52
 18387 3541 93       		.byte	0x93
 18388 3542 04       		.uleb128 0x4
 18389 3543 53       		.byte	0x53
ARM GAS  C:\Users\rdn\AppData\Local\Temp\cc5zc0m9.s 			page 355


 18390 3544 93       		.byte	0x93
 18391 3545 04       		.uleb128 0x4
 18392 3546 00000000 		.4byte	0
 18393 354a 00000000 		.4byte	0
 18394              	.LLST309:
 18395 354e 86010000 		.4byte	.LVL729
 18396 3552 8E010000 		.4byte	.LVL730
 18397 3556 0100     		.2byte	0x1
 18398 3558 52       		.byte	0x52
 18399 3559 00000000 		.4byte	0
 18400 355d 00000000 		.4byte	0
 18401              	.LLST310:
 18402 3561 52010000 		.4byte	.LVL718
 18403 3565 8E010000 		.4byte	.LVL730
 18404 3569 0100     		.2byte	0x1
 18405 356b 5C       		.byte	0x5c
 18406 356c 00000000 		.4byte	0
 18407 3570 00000000 		.4byte	0
 18408              	.LLST311:
 18409 3574 52010000 		.4byte	.LVL718
 18410 3578 6C010000 		.4byte	.LVL725
 18411 357c 0100     		.2byte	0x1
 18412 357e 50       		.byte	0x50
 18413 357f 6E010000 		.4byte	.LVL726
 18414 3583 76010000 		.4byte	.LVL727
 18415 3587 0100     		.2byte	0x1
 18416 3589 50       		.byte	0x50
 18417 358a 00000000 		.4byte	0
 18418 358e 00000000 		.4byte	0
 18419              	.LLST312:
 18420 3592 8E010000 		.4byte	.LVL730
 18421 3596 98010000 		.4byte	.LVL731
 18422 359a 0400     		.2byte	0x4
 18423 359c 91       		.byte	0x91
 18424 359d C87D     		.sleb128 -312
 18425 359f 9F       		.byte	0x9f
 18426 35a0 98010000 		.4byte	.LVL731
 18427 35a4 A0010000 		.4byte	.LVL733
 18428 35a8 0100     		.2byte	0x1
 18429 35aa 56       		.byte	0x56
 18430 35ab A0010000 		.4byte	.LVL733
 18431 35af B2010000 		.4byte	.LVL737
 18432 35b3 0300     		.2byte	0x3
 18433 35b5 76       		.byte	0x76
 18434 35b6 02       		.sleb128 2
 18435 35b7 9F       		.byte	0x9f
 18436 35b8 B2010000 		.4byte	.LVL737
 18437 35bc D8010000 		.4byte	.LVL744
 18438 35c0 0100     		.2byte	0x1
 18439 35c2 56       		.byte	0x56
 18440 35c3 00000000 		.4byte	0
 18441 35c7 00000000 		.4byte	0
 18442              	.LLST313:
 18443 35cb 8E010000 		.4byte	.LVL730
 18444 35cf 98010000 		.4byte	.LVL731
 18445 35d3 0400     		.2byte	0x4
 18446 35d5 91       		.byte	0x91
ARM GAS  C:\Users\rdn\AppData\Local\Temp\cc5zc0m9.s 			page 356


 18447 35d6 C87D     		.sleb128 -312
 18448 35d8 9F       		.byte	0x9f
 18449 35d9 98010000 		.4byte	.LVL731
 18450 35dd 9C010000 		.4byte	.LVL732
 18451 35e1 0100     		.2byte	0x1
 18452 35e3 56       		.byte	0x56
 18453 35e4 9C010000 		.4byte	.LVL732
 18454 35e8 B4010000 		.4byte	.LVL738
 18455 35ec 0300     		.2byte	0x3
 18456 35ee 77       		.byte	0x77
 18457 35ef 02       		.sleb128 2
 18458 35f0 9F       		.byte	0x9f
 18459 35f1 B4010000 		.4byte	.LVL738
 18460 35f5 D8010000 		.4byte	.LVL744
 18461 35f9 0100     		.2byte	0x1
 18462 35fb 57       		.byte	0x57
 18463 35fc 00000000 		.4byte	0
 18464 3600 00000000 		.4byte	0
 18465              	.LLST314:
 18466 3604 9C010000 		.4byte	.LVL732
 18467 3608 AA010000 		.4byte	.LVL734
 18468 360c 0600     		.2byte	0x6
 18469 360e 50       		.byte	0x50
 18470 360f 93       		.byte	0x93
 18471 3610 04       		.uleb128 0x4
 18472 3611 51       		.byte	0x51
 18473 3612 93       		.byte	0x93
 18474 3613 04       		.uleb128 0x4
 18475 3614 AE010000 		.4byte	.LVL735
 18476 3618 C6010000 		.4byte	.LVL742
 18477 361c 0600     		.2byte	0x6
 18478 361e 50       		.byte	0x50
 18479 361f 93       		.byte	0x93
 18480 3620 04       		.uleb128 0x4
 18481 3621 51       		.byte	0x51
 18482 3622 93       		.byte	0x93
 18483 3623 04       		.uleb128 0x4
 18484 3624 00000000 		.4byte	0
 18485 3628 00000000 		.4byte	0
 18486              	.LLST315:
 18487 362c D0010000 		.4byte	.LVL743
 18488 3630 D8010000 		.4byte	.LVL744
 18489 3634 0100     		.2byte	0x1
 18490 3636 53       		.byte	0x53
 18491 3637 00000000 		.4byte	0
 18492 363b 00000000 		.4byte	0
 18493              	.LLST316:
 18494 363f 9C010000 		.4byte	.LVL732
 18495 3643 D8010000 		.4byte	.LVL744
 18496 3647 0100     		.2byte	0x1
 18497 3649 5C       		.byte	0x5c
 18498 364a 00000000 		.4byte	0
 18499 364e 00000000 		.4byte	0
 18500              	.LLST317:
 18501 3652 9C010000 		.4byte	.LVL732
 18502 3656 B6010000 		.4byte	.LVL739
 18503 365a 0100     		.2byte	0x1
ARM GAS  C:\Users\rdn\AppData\Local\Temp\cc5zc0m9.s 			page 357


 18504 365c 52       		.byte	0x52
 18505 365d B8010000 		.4byte	.LVL740
 18506 3661 C0010000 		.4byte	.LVL741
 18507 3665 0100     		.2byte	0x1
 18508 3667 52       		.byte	0x52
 18509 3668 00000000 		.4byte	0
 18510 366c 00000000 		.4byte	0
 18511              	.LLST318:
 18512 3670 1C020000 		.4byte	.LVL749
 18513 3674 5C020000 		.4byte	.LVL751
 18514 3678 0100     		.2byte	0x1
 18515 367a 53       		.byte	0x53
 18516 367b 5C020000 		.4byte	.LVL751
 18517 367f 5E020000 		.4byte	.LVL752
 18518 3683 2000     		.2byte	0x20
 18519 3685 71       		.byte	0x71
 18520 3686 00       		.sleb128 0
 18521 3687 12       		.byte	0x12
 18522 3688 91       		.byte	0x91
 18523 3689 48       		.sleb128 -56
 18524 368a 06       		.byte	0x6
 18525 368b 16       		.byte	0x16
 18526 368c 14       		.byte	0x14
 18527 368d 2B       		.byte	0x2b
 18528 368e 28       		.byte	0x28
 18529 368f 0100     		.2byte	0x1
 18530 3691 16       		.byte	0x16
 18531 3692 13       		.byte	0x13
 18532 3693 91       		.byte	0x91
 18533 3694 48       		.sleb128 -56
 18534 3695 06       		.byte	0x6
 18535 3696 71       		.byte	0x71
 18536 3697 00       		.sleb128 0
 18537 3698 71       		.byte	0x71
 18538 3699 00       		.sleb128 0
 18539 369a 91       		.byte	0x91
 18540 369b 48       		.sleb128 -56
 18541 369c 06       		.byte	0x6
 18542 369d 2A       		.byte	0x2a
 18543 369e 28       		.byte	0x28
 18544 369f 0100     		.2byte	0x1
 18545 36a1 16       		.byte	0x16
 18546 36a2 13       		.byte	0x13
 18547 36a3 1C       		.byte	0x1c
 18548 36a4 9F       		.byte	0x9f
 18549 36a5 5E020000 		.4byte	.LVL752
 18550 36a9 60020000 		.4byte	.LVL753
 18551 36ad 0100     		.2byte	0x1
 18552 36af 53       		.byte	0x53
 18553 36b0 60020000 		.4byte	.LVL753
 18554 36b4 62020000 		.4byte	.LVL754
 18555 36b8 2000     		.2byte	0x20
 18556 36ba 71       		.byte	0x71
 18557 36bb 00       		.sleb128 0
 18558 36bc 12       		.byte	0x12
 18559 36bd 91       		.byte	0x91
 18560 36be 48       		.sleb128 -56
ARM GAS  C:\Users\rdn\AppData\Local\Temp\cc5zc0m9.s 			page 358


 18561 36bf 06       		.byte	0x6
 18562 36c0 16       		.byte	0x16
 18563 36c1 14       		.byte	0x14
 18564 36c2 2B       		.byte	0x2b
 18565 36c3 28       		.byte	0x28
 18566 36c4 0100     		.2byte	0x1
 18567 36c6 16       		.byte	0x16
 18568 36c7 13       		.byte	0x13
 18569 36c8 91       		.byte	0x91
 18570 36c9 48       		.sleb128 -56
 18571 36ca 06       		.byte	0x6
 18572 36cb 71       		.byte	0x71
 18573 36cc 00       		.sleb128 0
 18574 36cd 71       		.byte	0x71
 18575 36ce 00       		.sleb128 0
 18576 36cf 91       		.byte	0x91
 18577 36d0 48       		.sleb128 -56
 18578 36d1 06       		.byte	0x6
 18579 36d2 2A       		.byte	0x2a
 18580 36d3 28       		.byte	0x28
 18581 36d4 0100     		.2byte	0x1
 18582 36d6 16       		.byte	0x16
 18583 36d7 13       		.byte	0x13
 18584 36d8 1C       		.byte	0x1c
 18585 36d9 9F       		.byte	0x9f
 18586 36da 62020000 		.4byte	.LVL754
 18587 36de 64020000 		.4byte	.LVL755
 18588 36e2 0100     		.2byte	0x1
 18589 36e4 53       		.byte	0x53
 18590 36e5 64020000 		.4byte	.LVL755
 18591 36e9 66020000 		.4byte	.LVL756
 18592 36ed 2000     		.2byte	0x20
 18593 36ef 71       		.byte	0x71
 18594 36f0 00       		.sleb128 0
 18595 36f1 12       		.byte	0x12
 18596 36f2 91       		.byte	0x91
 18597 36f3 48       		.sleb128 -56
 18598 36f4 06       		.byte	0x6
 18599 36f5 16       		.byte	0x16
 18600 36f6 14       		.byte	0x14
 18601 36f7 2B       		.byte	0x2b
 18602 36f8 28       		.byte	0x28
 18603 36f9 0100     		.2byte	0x1
 18604 36fb 16       		.byte	0x16
 18605 36fc 13       		.byte	0x13
 18606 36fd 91       		.byte	0x91
 18607 36fe 48       		.sleb128 -56
 18608 36ff 06       		.byte	0x6
 18609 3700 71       		.byte	0x71
 18610 3701 00       		.sleb128 0
 18611 3702 71       		.byte	0x71
 18612 3703 00       		.sleb128 0
 18613 3704 91       		.byte	0x91
 18614 3705 48       		.sleb128 -56
 18615 3706 06       		.byte	0x6
 18616 3707 2A       		.byte	0x2a
 18617 3708 28       		.byte	0x28
ARM GAS  C:\Users\rdn\AppData\Local\Temp\cc5zc0m9.s 			page 359


 18618 3709 0100     		.2byte	0x1
 18619 370b 16       		.byte	0x16
 18620 370c 13       		.byte	0x13
 18621 370d 1C       		.byte	0x1c
 18622 370e 9F       		.byte	0x9f
 18623 370f 66020000 		.4byte	.LVL756
 18624 3713 68020000 		.4byte	.LVL757
 18625 3717 0100     		.2byte	0x1
 18626 3719 53       		.byte	0x53
 18627 371a 68020000 		.4byte	.LVL757
 18628 371e 6A020000 		.4byte	.LVL758
 18629 3722 2000     		.2byte	0x20
 18630 3724 71       		.byte	0x71
 18631 3725 00       		.sleb128 0
 18632 3726 12       		.byte	0x12
 18633 3727 91       		.byte	0x91
 18634 3728 48       		.sleb128 -56
 18635 3729 06       		.byte	0x6
 18636 372a 16       		.byte	0x16
 18637 372b 14       		.byte	0x14
 18638 372c 2B       		.byte	0x2b
 18639 372d 28       		.byte	0x28
 18640 372e 0100     		.2byte	0x1
 18641 3730 16       		.byte	0x16
 18642 3731 13       		.byte	0x13
 18643 3732 91       		.byte	0x91
 18644 3733 48       		.sleb128 -56
 18645 3734 06       		.byte	0x6
 18646 3735 71       		.byte	0x71
 18647 3736 00       		.sleb128 0
 18648 3737 71       		.byte	0x71
 18649 3738 00       		.sleb128 0
 18650 3739 91       		.byte	0x91
 18651 373a 48       		.sleb128 -56
 18652 373b 06       		.byte	0x6
 18653 373c 2A       		.byte	0x2a
 18654 373d 28       		.byte	0x28
 18655 373e 0100     		.2byte	0x1
 18656 3740 16       		.byte	0x16
 18657 3741 13       		.byte	0x13
 18658 3742 1C       		.byte	0x1c
 18659 3743 9F       		.byte	0x9f
 18660 3744 6A020000 		.4byte	.LVL758
 18661 3748 6C020000 		.4byte	.LVL759
 18662 374c 0100     		.2byte	0x1
 18663 374e 53       		.byte	0x53
 18664 374f 6C020000 		.4byte	.LVL759
 18665 3753 6E020000 		.4byte	.LVL760
 18666 3757 2000     		.2byte	0x20
 18667 3759 71       		.byte	0x71
 18668 375a 00       		.sleb128 0
 18669 375b 12       		.byte	0x12
 18670 375c 91       		.byte	0x91
 18671 375d 48       		.sleb128 -56
 18672 375e 06       		.byte	0x6
 18673 375f 16       		.byte	0x16
 18674 3760 14       		.byte	0x14
ARM GAS  C:\Users\rdn\AppData\Local\Temp\cc5zc0m9.s 			page 360


 18675 3761 2B       		.byte	0x2b
 18676 3762 28       		.byte	0x28
 18677 3763 0100     		.2byte	0x1
 18678 3765 16       		.byte	0x16
 18679 3766 13       		.byte	0x13
 18680 3767 91       		.byte	0x91
 18681 3768 48       		.sleb128 -56
 18682 3769 06       		.byte	0x6
 18683 376a 71       		.byte	0x71
 18684 376b 00       		.sleb128 0
 18685 376c 71       		.byte	0x71
 18686 376d 00       		.sleb128 0
 18687 376e 91       		.byte	0x91
 18688 376f 48       		.sleb128 -56
 18689 3770 06       		.byte	0x6
 18690 3771 2A       		.byte	0x2a
 18691 3772 28       		.byte	0x28
 18692 3773 0100     		.2byte	0x1
 18693 3775 16       		.byte	0x16
 18694 3776 13       		.byte	0x13
 18695 3777 1C       		.byte	0x1c
 18696 3778 9F       		.byte	0x9f
 18697 3779 6E020000 		.4byte	.LVL760
 18698 377d 70020000 		.4byte	.LVL761
 18699 3781 0100     		.2byte	0x1
 18700 3783 53       		.byte	0x53
 18701 3784 70020000 		.4byte	.LVL761
 18702 3788 72020000 		.4byte	.LVL762
 18703 378c 2000     		.2byte	0x20
 18704 378e 71       		.byte	0x71
 18705 378f 00       		.sleb128 0
 18706 3790 12       		.byte	0x12
 18707 3791 91       		.byte	0x91
 18708 3792 48       		.sleb128 -56
 18709 3793 06       		.byte	0x6
 18710 3794 16       		.byte	0x16
 18711 3795 14       		.byte	0x14
 18712 3796 2B       		.byte	0x2b
 18713 3797 28       		.byte	0x28
 18714 3798 0100     		.2byte	0x1
 18715 379a 16       		.byte	0x16
 18716 379b 13       		.byte	0x13
 18717 379c 91       		.byte	0x91
 18718 379d 48       		.sleb128 -56
 18719 379e 06       		.byte	0x6
 18720 379f 71       		.byte	0x71
 18721 37a0 00       		.sleb128 0
 18722 37a1 71       		.byte	0x71
 18723 37a2 00       		.sleb128 0
 18724 37a3 91       		.byte	0x91
 18725 37a4 48       		.sleb128 -56
 18726 37a5 06       		.byte	0x6
 18727 37a6 2A       		.byte	0x2a
 18728 37a7 28       		.byte	0x28
 18729 37a8 0100     		.2byte	0x1
 18730 37aa 16       		.byte	0x16
 18731 37ab 13       		.byte	0x13
ARM GAS  C:\Users\rdn\AppData\Local\Temp\cc5zc0m9.s 			page 361


 18732 37ac 1C       		.byte	0x1c
 18733 37ad 9F       		.byte	0x9f
 18734 37ae 72020000 		.4byte	.LVL762
 18735 37b2 74020000 		.4byte	.LVL763
 18736 37b6 0100     		.2byte	0x1
 18737 37b8 53       		.byte	0x53
 18738 37b9 74020000 		.4byte	.LVL763
 18739 37bd 78020000 		.4byte	.LVL764
 18740 37c1 2000     		.2byte	0x20
 18741 37c3 71       		.byte	0x71
 18742 37c4 00       		.sleb128 0
 18743 37c5 12       		.byte	0x12
 18744 37c6 91       		.byte	0x91
 18745 37c7 48       		.sleb128 -56
 18746 37c8 06       		.byte	0x6
 18747 37c9 16       		.byte	0x16
 18748 37ca 14       		.byte	0x14
 18749 37cb 2B       		.byte	0x2b
 18750 37cc 28       		.byte	0x28
 18751 37cd 0100     		.2byte	0x1
 18752 37cf 16       		.byte	0x16
 18753 37d0 13       		.byte	0x13
 18754 37d1 91       		.byte	0x91
 18755 37d2 48       		.sleb128 -56
 18756 37d3 06       		.byte	0x6
 18757 37d4 71       		.byte	0x71
 18758 37d5 00       		.sleb128 0
 18759 37d6 71       		.byte	0x71
 18760 37d7 00       		.sleb128 0
 18761 37d8 91       		.byte	0x91
 18762 37d9 48       		.sleb128 -56
 18763 37da 06       		.byte	0x6
 18764 37db 2A       		.byte	0x2a
 18765 37dc 28       		.byte	0x28
 18766 37dd 0100     		.2byte	0x1
 18767 37df 16       		.byte	0x16
 18768 37e0 13       		.byte	0x13
 18769 37e1 1C       		.byte	0x1c
 18770 37e2 9F       		.byte	0x9f
 18771 37e3 00000000 		.4byte	0
 18772 37e7 00000000 		.4byte	0
 18773              	.LLST319:
 18774 37eb 24020000 		.4byte	.LVL750
 18775 37ef 7A020000 		.4byte	.LVL765
 18776 37f3 0200     		.2byte	0x2
 18777 37f5 90       		.byte	0x90
 18778 37f6 4E       		.uleb128 0x4e
 18779 37f7 00000000 		.4byte	0
 18780 37fb 00000000 		.4byte	0
 18781              	.LLST320:
 18782 37ff 00000000 		.4byte	.LVL768
 18783 3803 B2000000 		.4byte	.LVL792
 18784 3807 0100     		.2byte	0x1
 18785 3809 50       		.byte	0x50
 18786 380a B2000000 		.4byte	.LVL792
 18787 380e 5C030000 		.4byte	.LFE44
 18788 3812 0400     		.2byte	0x4
ARM GAS  C:\Users\rdn\AppData\Local\Temp\cc5zc0m9.s 			page 362


 18789 3814 F3       		.byte	0xf3
 18790 3815 01       		.uleb128 0x1
 18791 3816 50       		.byte	0x50
 18792 3817 9F       		.byte	0x9f
 18793 3818 00000000 		.4byte	0
 18794 381c 00000000 		.4byte	0
 18795              	.LLST321:
 18796 3820 00000000 		.4byte	.LVL768
 18797 3824 0C000000 		.4byte	.LVL769
 18798 3828 0100     		.2byte	0x1
 18799 382a 51       		.byte	0x51
 18800 382b 0C000000 		.4byte	.LVL769
 18801 382f 5C030000 		.4byte	.LFE44
 18802 3833 0400     		.2byte	0x4
 18803 3835 F3       		.byte	0xf3
 18804 3836 01       		.uleb128 0x1
 18805 3837 51       		.byte	0x51
 18806 3838 9F       		.byte	0x9f
 18807 3839 00000000 		.4byte	0
 18808 383d 00000000 		.4byte	0
 18809              	.LLST322:
 18810 3841 00000000 		.4byte	.LVL768
 18811 3845 94000000 		.4byte	.LVL789
 18812 3849 0100     		.2byte	0x1
 18813 384b 52       		.byte	0x52
 18814 384c 94000000 		.4byte	.LVL789
 18815 3850 5C030000 		.4byte	.LFE44
 18816 3854 0400     		.2byte	0x4
 18817 3856 F3       		.byte	0xf3
 18818 3857 01       		.uleb128 0x1
 18819 3858 52       		.byte	0x52
 18820 3859 9F       		.byte	0x9f
 18821 385a 00000000 		.4byte	0
 18822 385e 00000000 		.4byte	0
 18823              	.LLST323:
 18824 3862 00000000 		.4byte	.LVL768
 18825 3866 10000000 		.4byte	.LVL770
 18826 386a 0100     		.2byte	0x1
 18827 386c 53       		.byte	0x53
 18828 386d 10000000 		.4byte	.LVL770
 18829 3871 56030000 		.4byte	.LVL814
 18830 3875 0100     		.2byte	0x1
 18831 3877 59       		.byte	0x59
 18832 3878 56030000 		.4byte	.LVL814
 18833 387c 5C030000 		.4byte	.LFE44
 18834 3880 0800     		.2byte	0x8
 18835 3882 7D       		.byte	0x7d
 18836 3883 CC7C     		.sleb128 -436
 18837 3885 06       		.byte	0x6
 18838 3886 08       		.byte	0x8
 18839 3887 68       		.byte	0x68
 18840 3888 1C       		.byte	0x1c
 18841 3889 9F       		.byte	0x9f
 18842 388a 00000000 		.4byte	0
 18843 388e 00000000 		.4byte	0
 18844              	.LLST324:
 18845 3892 00000000 		.4byte	.LVL768
ARM GAS  C:\Users\rdn\AppData\Local\Temp\cc5zc0m9.s 			page 363


 18846 3896 56030000 		.4byte	.LVL814
 18847 389a 0200     		.2byte	0x2
 18848 389c 91       		.byte	0x91
 18849 389d 00       		.sleb128 0
 18850 389e 56030000 		.4byte	.LVL814
 18851 38a2 5C030000 		.4byte	.LFE44
 18852 38a6 0200     		.2byte	0x2
 18853 38a8 7D       		.byte	0x7d
 18854 38a9 00       		.sleb128 0
 18855 38aa 00000000 		.4byte	0
 18856 38ae 00000000 		.4byte	0
 18857              	.LLST325:
 18858 38b2 00000000 		.4byte	.LVL768
 18859 38b6 56030000 		.4byte	.LVL814
 18860 38ba 0200     		.2byte	0x2
 18861 38bc 91       		.byte	0x91
 18862 38bd 04       		.sleb128 4
 18863 38be 56030000 		.4byte	.LVL814
 18864 38c2 5C030000 		.4byte	.LFE44
 18865 38c6 0200     		.2byte	0x2
 18866 38c8 7D       		.byte	0x7d
 18867 38c9 04       		.sleb128 4
 18868 38ca 00000000 		.4byte	0
 18869 38ce 00000000 		.4byte	0
 18870              	.LLST326:
 18871 38d2 00000000 		.4byte	.LVL768
 18872 38d6 56030000 		.4byte	.LVL814
 18873 38da 0200     		.2byte	0x2
 18874 38dc 91       		.byte	0x91
 18875 38dd 08       		.sleb128 8
 18876 38de 56030000 		.4byte	.LVL814
 18877 38e2 5C030000 		.4byte	.LFE44
 18878 38e6 0200     		.2byte	0x2
 18879 38e8 7D       		.byte	0x7d
 18880 38e9 08       		.sleb128 8
 18881 38ea 00000000 		.4byte	0
 18882 38ee 00000000 		.4byte	0
 18883              	.LLST327:
 18884 38f2 38000000 		.4byte	.LVL773
 18885 38f6 3C000000 		.4byte	.LVL774
 18886 38fa 0100     		.2byte	0x1
 18887 38fc 53       		.byte	0x53
 18888 38fd 3C000000 		.4byte	.LVL774
 18889 3901 3E000000 		.4byte	.LVL775
 18890 3905 0300     		.2byte	0x3
 18891 3907 91       		.byte	0x91
 18892 3908 D47C     		.sleb128 -428
 18893 390a 3E000000 		.4byte	.LVL775
 18894 390e 40000000 		.4byte	.LVL776
 18895 3912 0100     		.2byte	0x1
 18896 3914 53       		.byte	0x53
 18897 3915 40000000 		.4byte	.LVL776
 18898 3919 56030000 		.4byte	.LVL814
 18899 391d 0300     		.2byte	0x3
 18900 391f 91       		.byte	0x91
 18901 3920 D47C     		.sleb128 -428
 18902 3922 56030000 		.4byte	.LVL814
ARM GAS  C:\Users\rdn\AppData\Local\Temp\cc5zc0m9.s 			page 364


 18903 3926 5C030000 		.4byte	.LFE44
 18904 392a 0300     		.2byte	0x3
 18905 392c 7D       		.byte	0x7d
 18906 392d D47C     		.sleb128 -428
 18907 392f 00000000 		.4byte	0
 18908 3933 00000000 		.4byte	0
 18909              	.LLST328:
 18910 3937 40000000 		.4byte	.LVL776
 18911 393b 4A000000 		.4byte	.LVL777
 18912 393f 0100     		.2byte	0x1
 18913 3941 53       		.byte	0x53
 18914 3942 4A000000 		.4byte	.LVL777
 18915 3946 4C000000 		.4byte	.LVL778
 18916 394a 0400     		.2byte	0x4
 18917 394c 73       		.byte	0x73
 18918 394d 9B02     		.sleb128 283
 18919 394f 9F       		.byte	0x9f
 18920 3950 4E000000 		.4byte	.LVL779
 18921 3954 5A000000 		.4byte	.LVL780
 18922 3958 0100     		.2byte	0x1
 18923 395a 53       		.byte	0x53
 18924 395b 64000000 		.4byte	.LVL781
 18925 395f 6C000000 		.4byte	.LVL782
 18926 3963 0100     		.2byte	0x1
 18927 3965 53       		.byte	0x53
 18928 3966 00000000 		.4byte	0
 18929 396a 00000000 		.4byte	0
 18930              	.LLST329:
 18931 396e 70000000 		.4byte	.LVL783
 18932 3972 76000000 		.4byte	.LVL785
 18933 3976 0100     		.2byte	0x1
 18934 3978 53       		.byte	0x53
 18935 3979 86000000 		.4byte	.LVL786
 18936 397d 56030000 		.4byte	.LVL814
 18937 3981 0100     		.2byte	0x1
 18938 3983 56       		.byte	0x56
 18939 3984 00000000 		.4byte	0
 18940 3988 00000000 		.4byte	0
 18941              	.LLST330:
 18942 398c 8C000000 		.4byte	.LVL787
 18943 3990 92000000 		.4byte	.LVL788
 18944 3994 0100     		.2byte	0x1
 18945 3996 53       		.byte	0x53
 18946 3997 92000000 		.4byte	.LVL788
 18947 399b 94000000 		.4byte	.LVL789
 18948 399f 0800     		.2byte	0x8
 18949 39a1 72       		.byte	0x72
 18950 39a2 00       		.sleb128 0
 18951 39a3 35       		.byte	0x35
 18952 39a4 24       		.byte	0x24
 18953 39a5 7A       		.byte	0x7a
 18954 39a6 00       		.sleb128 0
 18955 39a7 1B       		.byte	0x1b
 18956 39a8 9F       		.byte	0x9f
 18957 39a9 94000000 		.4byte	.LVL789
 18958 39ad A2000000 		.4byte	.LVL790
 18959 39b1 0900     		.2byte	0x9
ARM GAS  C:\Users\rdn\AppData\Local\Temp\cc5zc0m9.s 			page 365


 18960 39b3 F3       		.byte	0xf3
 18961 39b4 01       		.uleb128 0x1
 18962 39b5 52       		.byte	0x52
 18963 39b6 35       		.byte	0x35
 18964 39b7 24       		.byte	0x24
 18965 39b8 7A       		.byte	0x7a
 18966 39b9 00       		.sleb128 0
 18967 39ba 1B       		.byte	0x1b
 18968 39bb 9F       		.byte	0x9f
 18969 39bc A2000000 		.4byte	.LVL790
 18970 39c0 B4000000 		.4byte	.LVL793
 18971 39c4 0100     		.2byte	0x1
 18972 39c6 53       		.byte	0x53
 18973 39c7 00000000 		.4byte	0
 18974 39cb 00000000 		.4byte	0
 18975              	.LLST331:
 18976 39cf C4000000 		.4byte	.LVL794
 18977 39d3 89010000 		.4byte	.LVL803-1
 18978 39d7 0100     		.2byte	0x1
 18979 39d9 5E       		.byte	0x5e
 18980 39da 00000000 		.4byte	0
 18981 39de 00000000 		.4byte	0
 18982              	.LLST332:
 18983 39e2 DE000000 		.4byte	.LVL795
 18984 39e6 56030000 		.4byte	.LVL814
 18985 39ea 0100     		.2byte	0x1
 18986 39ec 55       		.byte	0x55
 18987 39ed 00000000 		.4byte	0
 18988 39f1 00000000 		.4byte	0
 18989              	.LLST333:
 18990 39f5 EC000000 		.4byte	.LVL796
 18991 39f9 56030000 		.4byte	.LVL814
 18992 39fd 0100     		.2byte	0x1
 18993 39ff 54       		.byte	0x54
 18994 3a00 00000000 		.4byte	0
 18995 3a04 00000000 		.4byte	0
 18996              	.LLST334:
 18997 3a08 72010000 		.4byte	.LVL801
 18998 3a0c 2A030000 		.4byte	.LVL811
 18999 3a10 0100     		.2byte	0x1
 19000 3a12 57       		.byte	0x57
 19001 3a13 00000000 		.4byte	0
 19002 3a17 00000000 		.4byte	0
 19003              	.LLST335:
 19004 3a1b 0C000000 		.4byte	.LVL769
 19005 3a1f 1C000000 		.4byte	.LVL771
 19006 3a23 0100     		.2byte	0x1
 19007 3a25 58       		.byte	0x58
 19008 3a26 00000000 		.4byte	0
 19009 3a2a 00000000 		.4byte	0
 19010              	.LLST336:
 19011 3a2e 0C000000 		.4byte	.LVL769
 19012 3a32 1C000000 		.4byte	.LVL771
 19013 3a36 0100     		.2byte	0x1
 19014 3a38 50       		.byte	0x50
 19015 3a39 00000000 		.4byte	0
 19016 3a3d 00000000 		.4byte	0
ARM GAS  C:\Users\rdn\AppData\Local\Temp\cc5zc0m9.s 			page 366


 19017              	.LLST337:
 19018 3a41 1C000000 		.4byte	.LVL771
 19019 3a45 34000000 		.4byte	.LVL772
 19020 3a49 0100     		.2byte	0x1
 19021 3a4b 58       		.byte	0x58
 19022 3a4c 00000000 		.4byte	0
 19023 3a50 00000000 		.4byte	0
 19024              	.LLST338:
 19025 3a54 1C000000 		.4byte	.LVL771
 19026 3a58 34000000 		.4byte	.LVL772
 19027 3a5c 0100     		.2byte	0x1
 19028 3a5e 50       		.byte	0x50
 19029 3a5f 00000000 		.4byte	0
 19030 3a63 00000000 		.4byte	0
 19031              	.LLST339:
 19032 3a67 70000000 		.4byte	.LVL783
 19033 3a6b 72000000 		.4byte	.LVL784
 19034 3a6f 0100     		.2byte	0x1
 19035 3a71 58       		.byte	0x58
 19036 3a72 00000000 		.4byte	0
 19037 3a76 00000000 		.4byte	0
 19038              	.LLST340:
 19039 3a7a 70000000 		.4byte	.LVL783
 19040 3a7e 72000000 		.4byte	.LVL784
 19041 3a82 0200     		.2byte	0x2
 19042 3a84 33       		.byte	0x33
 19043 3a85 9F       		.byte	0x9f
 19044 3a86 00000000 		.4byte	0
 19045 3a8a 00000000 		.4byte	0
 19046              	.LLST341:
 19047 3a8e EC000000 		.4byte	.LVL796
 19048 3a92 F0000000 		.4byte	.LVL797
 19049 3a96 0200     		.2byte	0x2
 19050 3a98 30       		.byte	0x30
 19051 3a99 9F       		.byte	0x9f
 19052 3a9a F0000000 		.4byte	.LVL797
 19053 3a9e 80010000 		.4byte	.LVL802
 19054 3aa2 0100     		.2byte	0x1
 19055 3aa4 52       		.byte	0x52
 19056 3aa5 00000000 		.4byte	0
 19057 3aa9 00000000 		.4byte	0
 19058              	.LLST342:
 19059 3aad 10010000 		.4byte	.LVL798
 19060 3ab1 44010000 		.4byte	.LVL799
 19061 3ab5 0200     		.2byte	0x2
 19062 3ab7 90       		.byte	0x90
 19063 3ab8 4F       		.uleb128 0x4f
 19064 3ab9 00000000 		.4byte	0
 19065 3abd 00000000 		.4byte	0
 19066              	.LLST343:
 19067 3ac1 00000000 		.4byte	.LVL816
 19068 3ac5 04000000 		.4byte	.LVL817
 19069 3ac9 0100     		.2byte	0x1
 19070 3acb 50       		.byte	0x50
 19071 3acc 04000000 		.4byte	.LVL817
 19072 3ad0 0A000000 		.4byte	.LFE46
 19073 3ad4 0400     		.2byte	0x4
ARM GAS  C:\Users\rdn\AppData\Local\Temp\cc5zc0m9.s 			page 367


 19074 3ad6 F3       		.byte	0xf3
 19075 3ad7 01       		.uleb128 0x1
 19076 3ad8 50       		.byte	0x50
 19077 3ad9 9F       		.byte	0x9f
 19078 3ada 00000000 		.4byte	0
 19079 3ade 00000000 		.4byte	0
 19080              	.LLST344:
 19081 3ae2 00000000 		.4byte	.LVL818
 19082 3ae6 21000000 		.4byte	.LVL823-1
 19083 3aea 0100     		.2byte	0x1
 19084 3aec 50       		.byte	0x50
 19085 3aed 21000000 		.4byte	.LVL823-1
 19086 3af1 44000000 		.4byte	.LFE47
 19087 3af5 0100     		.2byte	0x1
 19088 3af7 54       		.byte	0x54
 19089 3af8 00000000 		.4byte	0
 19090 3afc 00000000 		.4byte	0
 19091              	.LLST345:
 19092 3b00 00000000 		.4byte	.LVL818
 19093 3b04 08000000 		.4byte	.LVL819
 19094 3b08 0100     		.2byte	0x1
 19095 3b0a 51       		.byte	0x51
 19096 3b0b 08000000 		.4byte	.LVL819
 19097 3b0f 44000000 		.4byte	.LFE47
 19098 3b13 0100     		.2byte	0x1
 19099 3b15 55       		.byte	0x55
 19100 3b16 00000000 		.4byte	0
 19101 3b1a 00000000 		.4byte	0
 19102              	.LLST346:
 19103 3b1e 08000000 		.4byte	.LVL819
 19104 3b22 12000000 		.4byte	.LVL820
 19105 3b26 0100     		.2byte	0x1
 19106 3b28 51       		.byte	0x51
 19107 3b29 12000000 		.4byte	.LVL820
 19108 3b2d 18000000 		.4byte	.LVL821
 19109 3b31 0800     		.2byte	0x8
 19110 3b33 75       		.byte	0x75
 19111 3b34 00       		.sleb128 0
 19112 3b35 94       		.byte	0x94
 19113 3b36 01       		.byte	0x1
 19114 3b37 08       		.byte	0x8
 19115 3b38 FF       		.byte	0xff
 19116 3b39 1A       		.byte	0x1a
 19117 3b3a 9F       		.byte	0x9f
 19118 3b3b 1C000000 		.4byte	.LVL822
 19119 3b3f 21000000 		.4byte	.LVL823-1
 19120 3b43 0100     		.2byte	0x1
 19121 3b45 51       		.byte	0x51
 19122 3b46 00000000 		.4byte	0
 19123 3b4a 00000000 		.4byte	0
 19124              	.LLST347:
 19125 3b4e 08000000 		.4byte	.LVL819
 19126 3b52 21000000 		.4byte	.LVL823-1
 19127 3b56 0100     		.2byte	0x1
 19128 3b58 50       		.byte	0x50
 19129 3b59 21000000 		.4byte	.LVL823-1
 19130 3b5d 22000000 		.4byte	.LVL823
ARM GAS  C:\Users\rdn\AppData\Local\Temp\cc5zc0m9.s 			page 368


 19131 3b61 0100     		.2byte	0x1
 19132 3b63 54       		.byte	0x54
 19133 3b64 00000000 		.4byte	0
 19134 3b68 00000000 		.4byte	0
 19135              	.LLST348:
 19136 3b6c 08000000 		.4byte	.LVL819
 19137 3b70 22000000 		.4byte	.LVL823
 19138 3b74 0200     		.2byte	0x2
 19139 3b76 31       		.byte	0x31
 19140 3b77 9F       		.byte	0x9f
 19141 3b78 00000000 		.4byte	0
 19142 3b7c 00000000 		.4byte	0
 19143              	.LLST351:
 19144 3b80 08000000 		.4byte	.LVL819
 19145 3b84 21000000 		.4byte	.LVL823-1
 19146 3b88 0300     		.2byte	0x3
 19147 3b8a 70       		.byte	0x70
 19148 3b8b 1C       		.sleb128 28
 19149 3b8c 9F       		.byte	0x9f
 19150 3b8d 21000000 		.4byte	.LVL823-1
 19151 3b91 44000000 		.4byte	.LFE47
 19152 3b95 0300     		.2byte	0x3
 19153 3b97 74       		.byte	0x74
 19154 3b98 1C       		.sleb128 28
 19155 3b99 9F       		.byte	0x9f
 19156 3b9a 00000000 		.4byte	0
 19157 3b9e 00000000 		.4byte	0
 19158              	.LLST352:
 19159 3ba2 24000000 		.4byte	.LVL824
 19160 3ba6 42000000 		.4byte	.LVL828
 19161 3baa 0200     		.2byte	0x2
 19162 3bac 39       		.byte	0x39
 19163 3bad 9F       		.byte	0x9f
 19164 3bae 00000000 		.4byte	0
 19165 3bb2 00000000 		.4byte	0
 19166              	.LLST353:
 19167 3bb6 24000000 		.4byte	.LVL824
 19168 3bba 30000000 		.4byte	.LVL825
 19169 3bbe 0100     		.2byte	0x1
 19170 3bc0 51       		.byte	0x51
 19171 3bc1 30000000 		.4byte	.LVL825
 19172 3bc5 36000000 		.4byte	.LVL826
 19173 3bc9 0200     		.2byte	0x2
 19174 3bcb 75       		.byte	0x75
 19175 3bcc 04       		.sleb128 4
 19176 3bcd 3A000000 		.4byte	.LVL827
 19177 3bd1 41000000 		.4byte	.LVL828-1
 19178 3bd5 0100     		.2byte	0x1
 19179 3bd7 51       		.byte	0x51
 19180 3bd8 00000000 		.4byte	0
 19181 3bdc 00000000 		.4byte	0
 19182              	.LLST354:
 19183 3be0 24000000 		.4byte	.LVL824
 19184 3be4 42000000 		.4byte	.LVL828
 19185 3be8 0100     		.2byte	0x1
 19186 3bea 54       		.byte	0x54
 19187 3beb 00000000 		.4byte	0
ARM GAS  C:\Users\rdn\AppData\Local\Temp\cc5zc0m9.s 			page 369


 19188 3bef 00000000 		.4byte	0
 19189              	.LLST355:
 19190 3bf3 00000000 		.4byte	.LVL829
 19191 3bf7 08000000 		.4byte	.LVL831
 19192 3bfb 0100     		.2byte	0x1
 19193 3bfd 50       		.byte	0x50
 19194 3bfe 08000000 		.4byte	.LVL831
 19195 3c02 50000000 		.4byte	.LFE48
 19196 3c06 0100     		.2byte	0x1
 19197 3c08 54       		.byte	0x54
 19198 3c09 00000000 		.4byte	0
 19199 3c0d 00000000 		.4byte	0
 19200              	.LLST356:
 19201 3c11 00000000 		.4byte	.LVL829
 19202 3c15 1E000000 		.4byte	.LVL834
 19203 3c19 0100     		.2byte	0x1
 19204 3c1b 51       		.byte	0x51
 19205 3c1c 1E000000 		.4byte	.LVL834
 19206 3c20 50000000 		.4byte	.LFE48
 19207 3c24 0100     		.2byte	0x1
 19208 3c26 55       		.byte	0x55
 19209 3c27 00000000 		.4byte	0
 19210 3c2b 00000000 		.4byte	0
 19211              	.LLST357:
 19212 3c2f 06000000 		.4byte	.LVL830
 19213 3c33 08000000 		.4byte	.LVL831
 19214 3c37 0100     		.2byte	0x1
 19215 3c39 50       		.byte	0x50
 19216 3c3a 08000000 		.4byte	.LVL831
 19217 3c3e 24000000 		.4byte	.LVL835
 19218 3c42 0100     		.2byte	0x1
 19219 3c44 54       		.byte	0x54
 19220 3c45 00000000 		.4byte	0
 19221 3c49 00000000 		.4byte	0
 19222              	.LLST358:
 19223 3c4d 06000000 		.4byte	.LVL830
 19224 3c51 24000000 		.4byte	.LVL835
 19225 3c55 0200     		.2byte	0x2
 19226 3c57 31       		.byte	0x31
 19227 3c58 9F       		.byte	0x9f
 19228 3c59 00000000 		.4byte	0
 19229 3c5d 00000000 		.4byte	0
 19230              	.LLST360:
 19231 3c61 06000000 		.4byte	.LVL830
 19232 3c65 08000000 		.4byte	.LVL831
 19233 3c69 0300     		.2byte	0x3
 19234 3c6b 70       		.byte	0x70
 19235 3c6c 1C       		.sleb128 28
 19236 3c6d 9F       		.byte	0x9f
 19237 3c6e 08000000 		.4byte	.LVL831
 19238 3c72 50000000 		.4byte	.LFE48
 19239 3c76 0300     		.2byte	0x3
 19240 3c78 74       		.byte	0x74
 19241 3c79 1C       		.sleb128 28
 19242 3c7a 9F       		.byte	0x9f
 19243 3c7b 00000000 		.4byte	0
 19244 3c7f 00000000 		.4byte	0
ARM GAS  C:\Users\rdn\AppData\Local\Temp\cc5zc0m9.s 			page 370


 19245              	.LLST361:
 19246 3c83 18000000 		.4byte	.LVL832
 19247 3c87 1C000000 		.4byte	.LVL833
 19248 3c8b 0100     		.2byte	0x1
 19249 3c8d 50       		.byte	0x50
 19250 3c8e 00000000 		.4byte	0
 19251 3c92 00000000 		.4byte	0
 19252              	.LLST362:
 19253 3c96 2C000000 		.4byte	.LVL836
 19254 3c9a 4C000000 		.4byte	.LVL839
 19255 3c9e 0200     		.2byte	0x2
 19256 3ca0 39       		.byte	0x39
 19257 3ca1 9F       		.byte	0x9f
 19258 3ca2 00000000 		.4byte	0
 19259 3ca6 00000000 		.4byte	0
 19260              	.LLST363:
 19261 3caa 2C000000 		.4byte	.LVL836
 19262 3cae 4C000000 		.4byte	.LVL839
 19263 3cb2 0100     		.2byte	0x1
 19264 3cb4 54       		.byte	0x54
 19265 3cb5 00000000 		.4byte	0
 19266 3cb9 00000000 		.4byte	0
 19267              	.LLST364:
 19268 3cbd 40000000 		.4byte	.LVL837
 19269 3cc1 44000000 		.4byte	.LVL838
 19270 3cc5 0100     		.2byte	0x1
 19271 3cc7 50       		.byte	0x50
 19272 3cc8 00000000 		.4byte	0
 19273 3ccc 00000000 		.4byte	0
 19274              		.section	.debug_aranges,"",%progbits
 19275 0000 D4000000 		.4byte	0xd4
 19276 0004 0200     		.2byte	0x2
 19277 0006 00000000 		.4byte	.Ldebug_info0
 19278 000a 04       		.byte	0x4
 19279 000b 00       		.byte	0
 19280 000c 0000     		.2byte	0
 19281 000e 0000     		.2byte	0
 19282 0010 00000000 		.4byte	.LFB23
 19283 0014 70010000 		.4byte	.LFE23-.LFB23
 19284 0018 00000000 		.4byte	.LFB28
 19285 001c A8010000 		.4byte	.LFE28-.LFB28
 19286 0020 00000000 		.4byte	.LFB29
 19287 0024 48000000 		.4byte	.LFE29-.LFB29
 19288 0028 00000000 		.4byte	.LFB31
 19289 002c 70000000 		.4byte	.LFE31-.LFB31
 19290 0030 00000000 		.4byte	.LFB32
 19291 0034 34000000 		.4byte	.LFE32-.LFB32
 19292 0038 00000000 		.4byte	.LFB33
 19293 003c 48000000 		.4byte	.LFE33-.LFB33
 19294 0040 00000000 		.4byte	.LFB34
 19295 0044 D4000000 		.4byte	.LFE34-.LFB34
 19296 0048 00000000 		.4byte	.LFB35
 19297 004c C0000000 		.4byte	.LFE35-.LFB35
 19298 0050 00000000 		.4byte	.LFB37
 19299 0054 F8000000 		.4byte	.LFE37-.LFB37
 19300 0058 00000000 		.4byte	.LFB42
 19301 005c D0010000 		.4byte	.LFE42-.LFB42
ARM GAS  C:\Users\rdn\AppData\Local\Temp\cc5zc0m9.s 			page 371


 19302 0060 00000000 		.4byte	.LFB36
 19303 0064 88020000 		.4byte	.LFE36-.LFB36
 19304 0068 00000000 		.4byte	.LFB24
 19305 006c 70010000 		.4byte	.LFE24-.LFB24
 19306 0070 00000000 		.4byte	.LFB25
 19307 0074 6C010000 		.4byte	.LFE25-.LFB25
 19308 0078 00000000 		.4byte	.LFB26
 19309 007c AC010000 		.4byte	.LFE26-.LFB26
 19310 0080 00000000 		.4byte	.LFB27
 19311 0084 AC010000 		.4byte	.LFE27-.LFB27
 19312 0088 00000000 		.4byte	.LFB43
 19313 008c F0010000 		.4byte	.LFE43-.LFB43
 19314 0090 00000000 		.4byte	.LFB40
 19315 0094 D0010000 		.4byte	.LFE40-.LFB40
 19316 0098 00000000 		.4byte	.LFB41
 19317 009c E8010000 		.4byte	.LFE41-.LFB41
 19318 00a0 00000000 		.4byte	.LFB38
 19319 00a4 08030000 		.4byte	.LFE38-.LFB38
 19320 00a8 00000000 		.4byte	.LFB44
 19321 00ac 5C030000 		.4byte	.LFE44-.LFB44
 19322 00b0 00000000 		.4byte	.LFB45
 19323 00b4 06000000 		.4byte	.LFE45-.LFB45
 19324 00b8 00000000 		.4byte	.LFB46
 19325 00bc 0A000000 		.4byte	.LFE46-.LFB46
 19326 00c0 00000000 		.4byte	.LFB47
 19327 00c4 44000000 		.4byte	.LFE47-.LFB47
 19328 00c8 00000000 		.4byte	.LFB48
 19329 00cc 50000000 		.4byte	.LFE48-.LFB48
 19330 00d0 00000000 		.4byte	0
 19331 00d4 00000000 		.4byte	0
 19332              		.section	.debug_ranges,"",%progbits
 19333              	.Ldebug_ranges0:
 19334 0000 12000000 		.4byte	.LBB81
 19335 0004 42010000 		.4byte	.LBE81
 19336 0008 44010000 		.4byte	.LBB86
 19337 000c 46010000 		.4byte	.LBE86
 19338 0010 00000000 		.4byte	0
 19339 0014 00000000 		.4byte	0
 19340 0018 3E000000 		.4byte	.LBB82
 19341 001c 42000000 		.4byte	.LBE82
 19342 0020 46000000 		.4byte	.LBB83
 19343 0024 CE000000 		.4byte	.LBE83
 19344 0028 00000000 		.4byte	0
 19345 002c 00000000 		.4byte	0
 19346 0030 12000000 		.4byte	.LBB97
 19347 0034 7A010000 		.4byte	.LBE97
 19348 0038 7C010000 		.4byte	.LBB102
 19349 003c 7E010000 		.4byte	.LBE102
 19350 0040 00000000 		.4byte	0
 19351 0044 00000000 		.4byte	0
 19352 0048 3A000000 		.4byte	.LBB98
 19353 004c 3E000000 		.4byte	.LBE98
 19354 0050 42000000 		.4byte	.LBB99
 19355 0054 06010000 		.4byte	.LBE99
 19356 0058 00000000 		.4byte	0
 19357 005c 00000000 		.4byte	0
 19358 0060 16000000 		.4byte	.LBB106
ARM GAS  C:\Users\rdn\AppData\Local\Temp\cc5zc0m9.s 			page 372


 19359 0064 1A000000 		.4byte	.LBE106
 19360 0068 20000000 		.4byte	.LBB109
 19361 006c 4C000000 		.4byte	.LBE109
 19362 0070 00000000 		.4byte	0
 19363 0074 00000000 		.4byte	0
 19364 0078 20000000 		.4byte	.LBB107
 19365 007c 3C000000 		.4byte	.LBE107
 19366 0080 3E000000 		.4byte	.LBB108
 19367 0084 42000000 		.4byte	.LBE108
 19368 0088 00000000 		.4byte	0
 19369 008c 00000000 		.4byte	0
 19370 0090 06000000 		.4byte	.LBB110
 19371 0094 08000000 		.4byte	.LBE110
 19372 0098 0A000000 		.4byte	.LBB111
 19373 009c 2E000000 		.4byte	.LBE111
 19374 00a0 00000000 		.4byte	0
 19375 00a4 00000000 		.4byte	0
 19376 00a8 12000000 		.4byte	.LBB112
 19377 00ac 14000000 		.4byte	.LBE112
 19378 00b0 16000000 		.4byte	.LBB113
 19379 00b4 42000000 		.4byte	.LBE113
 19380 00b8 00000000 		.4byte	0
 19381 00bc 00000000 		.4byte	0
 19382 00c0 60000000 		.4byte	.LBB116
 19383 00c4 62000000 		.4byte	.LBE116
 19384 00c8 66000000 		.4byte	.LBB118
 19385 00cc B8000000 		.4byte	.LBE118
 19386 00d0 00000000 		.4byte	0
 19387 00d4 00000000 		.4byte	0
 19388 00d8 66000000 		.4byte	.LBB133
 19389 00dc E2000000 		.4byte	.LBE133
 19390 00e0 E4000000 		.4byte	.LBB136
 19391 00e4 E6000000 		.4byte	.LBE136
 19392 00e8 00000000 		.4byte	0
 19393 00ec 00000000 		.4byte	0
 19394 00f0 F2000000 		.4byte	.LBB138
 19395 00f4 B4010000 		.4byte	.LBE138
 19396 00f8 B6010000 		.4byte	.LBB143
 19397 00fc BA010000 		.4byte	.LBE143
 19398 0100 00000000 		.4byte	0
 19399 0104 00000000 		.4byte	0
 19400 0108 F2000000 		.4byte	.LBB139
 19401 010c AA010000 		.4byte	.LBE139
 19402 0110 B0010000 		.4byte	.LBB142
 19403 0114 B4010000 		.4byte	.LBE142
 19404 0118 00000000 		.4byte	0
 19405 011c 00000000 		.4byte	0
 19406 0120 8C000000 		.4byte	.LBB147
 19407 0124 AC000000 		.4byte	.LBE147
 19408 0128 B0000000 		.4byte	.LBB148
 19409 012c B6000000 		.4byte	.LBE148
 19410 0130 00000000 		.4byte	0
 19411 0134 00000000 		.4byte	0
 19412 0138 D8000000 		.4byte	.LBB151
 19413 013c DC000000 		.4byte	.LBE151
 19414 0140 E2000000 		.4byte	.LBB154
 19415 0144 12010000 		.4byte	.LBE154
ARM GAS  C:\Users\rdn\AppData\Local\Temp\cc5zc0m9.s 			page 373


 19416 0148 00000000 		.4byte	0
 19417 014c 00000000 		.4byte	0
 19418 0150 E2000000 		.4byte	.LBB152
 19419 0154 00010000 		.4byte	.LBE152
 19420 0158 04010000 		.4byte	.LBB153
 19421 015c 0A010000 		.4byte	.LBE153
 19422 0160 00000000 		.4byte	0
 19423 0164 00000000 		.4byte	0
 19424 0168 68010000 		.4byte	.LBB158
 19425 016c 84010000 		.4byte	.LBE158
 19426 0170 88010000 		.4byte	.LBB159
 19427 0174 8E010000 		.4byte	.LBE159
 19428 0178 00000000 		.4byte	0
 19429 017c 00000000 		.4byte	0
 19430 0180 B0010000 		.4byte	.LBB162
 19431 0184 B4010000 		.4byte	.LBE162
 19432 0188 BA010000 		.4byte	.LBB165
 19433 018c E2010000 		.4byte	.LBE165
 19434 0190 00000000 		.4byte	0
 19435 0194 00000000 		.4byte	0
 19436 0198 BA010000 		.4byte	.LBB163
 19437 019c D4010000 		.4byte	.LBE163
 19438 01a0 D6010000 		.4byte	.LBB164
 19439 01a4 DA010000 		.4byte	.LBE164
 19440 01a8 00000000 		.4byte	0
 19441 01ac 00000000 		.4byte	0
 19442 01b0 12000000 		.4byte	.LBB176
 19443 01b4 42010000 		.4byte	.LBE176
 19444 01b8 44010000 		.4byte	.LBB181
 19445 01bc 46010000 		.4byte	.LBE181
 19446 01c0 00000000 		.4byte	0
 19447 01c4 00000000 		.4byte	0
 19448 01c8 3E000000 		.4byte	.LBB177
 19449 01cc 42000000 		.4byte	.LBE177
 19450 01d0 46000000 		.4byte	.LBB178
 19451 01d4 CE000000 		.4byte	.LBE178
 19452 01d8 00000000 		.4byte	0
 19453 01dc 00000000 		.4byte	0
 19454 01e0 12000000 		.4byte	.LBB192
 19455 01e4 3E010000 		.4byte	.LBE192
 19456 01e8 40010000 		.4byte	.LBB197
 19457 01ec 42010000 		.4byte	.LBE197
 19458 01f0 00000000 		.4byte	0
 19459 01f4 00000000 		.4byte	0
 19460 01f8 3A000000 		.4byte	.LBB193
 19461 01fc 3E000000 		.4byte	.LBE193
 19462 0200 42000000 		.4byte	.LBB194
 19463 0204 CA000000 		.4byte	.LBE194
 19464 0208 00000000 		.4byte	0
 19465 020c 00000000 		.4byte	0
 19466 0210 12000000 		.4byte	.LBB208
 19467 0214 7E010000 		.4byte	.LBE208
 19468 0218 80010000 		.4byte	.LBB213
 19469 021c 82010000 		.4byte	.LBE213
 19470 0220 00000000 		.4byte	0
 19471 0224 00000000 		.4byte	0
 19472 0228 3E000000 		.4byte	.LBB209
ARM GAS  C:\Users\rdn\AppData\Local\Temp\cc5zc0m9.s 			page 374


 19473 022c 42000000 		.4byte	.LBE209
 19474 0230 46000000 		.4byte	.LBB210
 19475 0234 0A010000 		.4byte	.LBE210
 19476 0238 00000000 		.4byte	0
 19477 023c 00000000 		.4byte	0
 19478 0240 12000000 		.4byte	.LBB224
 19479 0244 7E010000 		.4byte	.LBE224
 19480 0248 80010000 		.4byte	.LBB229
 19481 024c 82010000 		.4byte	.LBE229
 19482 0250 00000000 		.4byte	0
 19483 0254 00000000 		.4byte	0
 19484 0258 3E000000 		.4byte	.LBB225
 19485 025c 42000000 		.4byte	.LBE225
 19486 0260 46000000 		.4byte	.LBB226
 19487 0264 0A010000 		.4byte	.LBE226
 19488 0268 00000000 		.4byte	0
 19489 026c 00000000 		.4byte	0
 19490 0270 62000000 		.4byte	.LBB244
 19491 0274 E2000000 		.4byte	.LBE244
 19492 0278 E4000000 		.4byte	.LBB247
 19493 027c E6000000 		.4byte	.LBE247
 19494 0280 00000000 		.4byte	0
 19495 0284 00000000 		.4byte	0
 19496 0288 F2000000 		.4byte	.LBB249
 19497 028c D4010000 		.4byte	.LBE249
 19498 0290 D6010000 		.4byte	.LBB254
 19499 0294 DA010000 		.4byte	.LBE254
 19500 0298 00000000 		.4byte	0
 19501 029c 00000000 		.4byte	0
 19502 02a0 F2000000 		.4byte	.LBB250
 19503 02a4 CA010000 		.4byte	.LBE250
 19504 02a8 D0010000 		.4byte	.LBB253
 19505 02ac D4010000 		.4byte	.LBE253
 19506 02b0 00000000 		.4byte	0
 19507 02b4 00000000 		.4byte	0
 19508 02b8 66000000 		.4byte	.LBB269
 19509 02bc E2000000 		.4byte	.LBE269
 19510 02c0 E4000000 		.4byte	.LBB272
 19511 02c4 E6000000 		.4byte	.LBE272
 19512 02c8 00000000 		.4byte	0
 19513 02cc 00000000 		.4byte	0
 19514 02d0 F2000000 		.4byte	.LBB274
 19515 02d4 B4010000 		.4byte	.LBE274
 19516 02d8 B6010000 		.4byte	.LBB279
 19517 02dc BA010000 		.4byte	.LBE279
 19518 02e0 00000000 		.4byte	0
 19519 02e4 00000000 		.4byte	0
 19520 02e8 F2000000 		.4byte	.LBB275
 19521 02ec AA010000 		.4byte	.LBE275
 19522 02f0 B0010000 		.4byte	.LBB278
 19523 02f4 B4010000 		.4byte	.LBE278
 19524 02f8 00000000 		.4byte	0
 19525 02fc 00000000 		.4byte	0
 19526 0300 62000000 		.4byte	.LBB294
 19527 0304 E2000000 		.4byte	.LBE294
 19528 0308 E4000000 		.4byte	.LBB297
 19529 030c E6000000 		.4byte	.LBE297
ARM GAS  C:\Users\rdn\AppData\Local\Temp\cc5zc0m9.s 			page 375


 19530 0310 00000000 		.4byte	0
 19531 0314 00000000 		.4byte	0
 19532 0318 F2000000 		.4byte	.LBB299
 19533 031c CC010000 		.4byte	.LBE299
 19534 0320 CE010000 		.4byte	.LBB304
 19535 0324 D2010000 		.4byte	.LBE304
 19536 0328 00000000 		.4byte	0
 19537 032c 00000000 		.4byte	0
 19538 0330 F2000000 		.4byte	.LBB300
 19539 0334 C2010000 		.4byte	.LBE300
 19540 0338 C8010000 		.4byte	.LBB303
 19541 033c CC010000 		.4byte	.LBE303
 19542 0340 00000000 		.4byte	0
 19543 0344 00000000 		.4byte	0
 19544 0348 F0000000 		.4byte	.LBB306
 19545 034c F8000000 		.4byte	.LBE306
 19546 0350 FE000000 		.4byte	.LBB314
 19547 0354 44010000 		.4byte	.LBE314
 19548 0358 4C010000 		.4byte	.LBB323
 19549 035c 52010000 		.4byte	.LBE323
 19550 0360 00000000 		.4byte	0
 19551 0364 00000000 		.4byte	0
 19552 0368 F0000000 		.4byte	.LBB308
 19553 036c F4000000 		.4byte	.LBE308
 19554 0370 FE000000 		.4byte	.LBB311
 19555 0374 30010000 		.4byte	.LBE311
 19556 0378 00000000 		.4byte	0
 19557 037c 00000000 		.4byte	0
 19558 0380 FE000000 		.4byte	.LBB309
 19559 0384 1A010000 		.4byte	.LBE309
 19560 0388 1E010000 		.4byte	.LBB310
 19561 038c 24010000 		.4byte	.LBE310
 19562 0390 00000000 		.4byte	0
 19563 0394 00000000 		.4byte	0
 19564 0398 44010000 		.4byte	.LBB315
 19565 039c 4C010000 		.4byte	.LBE315
 19566 03a0 52010000 		.4byte	.LBB324
 19567 03a4 8E010000 		.4byte	.LBE324
 19568 03a8 96010000 		.4byte	.LBB332
 19569 03ac 9C010000 		.4byte	.LBE332
 19570 03b0 00000000 		.4byte	0
 19571 03b4 00000000 		.4byte	0
 19572 03b8 44010000 		.4byte	.LBB317
 19573 03bc 48010000 		.4byte	.LBE317
 19574 03c0 52010000 		.4byte	.LBB320
 19575 03c4 7A010000 		.4byte	.LBE320
 19576 03c8 00000000 		.4byte	0
 19577 03cc 00000000 		.4byte	0
 19578 03d0 52010000 		.4byte	.LBB318
 19579 03d4 6C010000 		.4byte	.LBE318
 19580 03d8 6E010000 		.4byte	.LBB319
 19581 03dc 72010000 		.4byte	.LBE319
 19582 03e0 00000000 		.4byte	0
 19583 03e4 00000000 		.4byte	0
 19584 03e8 8E010000 		.4byte	.LBB325
 19585 03ec 96010000 		.4byte	.LBE325
 19586 03f0 9C010000 		.4byte	.LBB333
ARM GAS  C:\Users\rdn\AppData\Local\Temp\cc5zc0m9.s 			page 376


 19587 03f4 D8010000 		.4byte	.LBE333
 19588 03f8 00000000 		.4byte	0
 19589 03fc 00000000 		.4byte	0
 19590 0400 8E010000 		.4byte	.LBB327
 19591 0404 92010000 		.4byte	.LBE327
 19592 0408 9C010000 		.4byte	.LBB330
 19593 040c C4010000 		.4byte	.LBE330
 19594 0410 00000000 		.4byte	0
 19595 0414 00000000 		.4byte	0
 19596 0418 9C010000 		.4byte	.LBB328
 19597 041c B6010000 		.4byte	.LBE328
 19598 0420 B8010000 		.4byte	.LBB329
 19599 0424 BC010000 		.4byte	.LBE329
 19600 0428 00000000 		.4byte	0
 19601 042c 00000000 		.4byte	0
 19602 0430 00000000 		.4byte	.LFB23
 19603 0434 70010000 		.4byte	.LFE23
 19604 0438 00000000 		.4byte	.LFB28
 19605 043c A8010000 		.4byte	.LFE28
 19606 0440 00000000 		.4byte	.LFB29
 19607 0444 48000000 		.4byte	.LFE29
 19608 0448 00000000 		.4byte	.LFB31
 19609 044c 70000000 		.4byte	.LFE31
 19610 0450 00000000 		.4byte	.LFB32
 19611 0454 34000000 		.4byte	.LFE32
 19612 0458 00000000 		.4byte	.LFB33
 19613 045c 48000000 		.4byte	.LFE33
 19614 0460 00000000 		.4byte	.LFB34
 19615 0464 D4000000 		.4byte	.LFE34
 19616 0468 00000000 		.4byte	.LFB35
 19617 046c C0000000 		.4byte	.LFE35
 19618 0470 00000000 		.4byte	.LFB37
 19619 0474 F8000000 		.4byte	.LFE37
 19620 0478 00000000 		.4byte	.LFB42
 19621 047c D0010000 		.4byte	.LFE42
 19622 0480 00000000 		.4byte	.LFB36
 19623 0484 88020000 		.4byte	.LFE36
 19624 0488 00000000 		.4byte	.LFB24
 19625 048c 70010000 		.4byte	.LFE24
 19626 0490 00000000 		.4byte	.LFB25
 19627 0494 6C010000 		.4byte	.LFE25
 19628 0498 00000000 		.4byte	.LFB26
 19629 049c AC010000 		.4byte	.LFE26
 19630 04a0 00000000 		.4byte	.LFB27
 19631 04a4 AC010000 		.4byte	.LFE27
 19632 04a8 00000000 		.4byte	.LFB43
 19633 04ac F0010000 		.4byte	.LFE43
 19634 04b0 00000000 		.4byte	.LFB40
 19635 04b4 D0010000 		.4byte	.LFE40
 19636 04b8 00000000 		.4byte	.LFB41
 19637 04bc E8010000 		.4byte	.LFE41
 19638 04c0 00000000 		.4byte	.LFB38
 19639 04c4 08030000 		.4byte	.LFE38
 19640 04c8 00000000 		.4byte	.LFB44
 19641 04cc 5C030000 		.4byte	.LFE44
 19642 04d0 00000000 		.4byte	.LFB45
 19643 04d4 06000000 		.4byte	.LFE45
ARM GAS  C:\Users\rdn\AppData\Local\Temp\cc5zc0m9.s 			page 377


 19644 04d8 00000000 		.4byte	.LFB46
 19645 04dc 0A000000 		.4byte	.LFE46
 19646 04e0 00000000 		.4byte	.LFB47
 19647 04e4 44000000 		.4byte	.LFE47
 19648 04e8 00000000 		.4byte	.LFB48
 19649 04ec 50000000 		.4byte	.LFE48
 19650 04f0 00000000 		.4byte	0
 19651 04f4 00000000 		.4byte	0
 19652              		.section	.debug_line,"",%progbits
 19653              	.Ldebug_line0:
 19654 0000 C0080000 		.section	.debug_str,"MS",%progbits,1
 19654      0200FA01 
 19654      00000201 
 19654      FB0E0D00 
 19654      01010101 
 19655              	.LASF90:
 19656 0000 696E7465 		.ascii	"interpolate_corr\000"
 19656      72706F6C 
 19656      6174655F 
 19656      636F7272 
 19656      00
 19657              	.LASF27:
 19658 0011 4C43335F 		.ascii	"LC3_SRATE_24K\000"
 19658      53524154 
 19658      455F3234 
 19658      4B00
 19659              	.LASF125:
 19660 001f 6C63335F 		.ascii	"lc3_get_bit\000"
 19660      6765745F 
 19660      62697400 
 19661              	.LASF74:
 19662 002b 6C63335F 		.ascii	"lc3_nh\000"
 19662      6E6800
 19663              	.LASF99:
 19664 0032 74317365 		.ascii	"t1sel\000"
 19664      6C00
 19665              	.LASF116:
 19666 0038 705F6964 		.ascii	"p_idx\000"
 19666      7800
 19667              	.LASF58:
 19668 003e 6C63335F 		.ascii	"lc3_bits_buffer\000"
 19668      62697473 
 19668      5F627566 
 19668      66657200 
 19669              	.LASF65:
 19670 004e 62756666 		.ascii	"buffer\000"
 19670      657200
 19671              	.LASF136:
 19672 0055 6C63335F 		.ascii	"lc3_ne_2m5\000"
 19672      6E655F32 
 19672      6D3500
 19673              	.LASF13:
 19674 0060 756E7369 		.ascii	"unsigned int\000"
 19674      676E6564 
 19674      20696E74 
 19674      00
 19675              	.LASF29:
ARM GAS  C:\Users\rdn\AppData\Local\Temp\cc5zc0m9.s 			page 378


 19676 006d 4C43335F 		.ascii	"LC3_SRATE_48K\000"
 19676      53524154 
 19676      455F3438 
 19676      4B00
 19677              	.LASF135:
 19678 007b 6C63335F 		.ascii	"lc3_ns_2m5\000"
 19678      6E735F32 
 19678      6D3500
 19679              	.LASF7:
 19680 0086 5F5F696E 		.ascii	"__int32_t\000"
 19680      7433325F 
 19680      7400
 19681              	.LASF36:
 19682 0090 70697463 		.ascii	"pitch\000"
 19682      6800
 19683              	.LASF72:
 19684 0096 6C63335F 		.ascii	"lc3_get_bits\000"
 19684      6765745F 
 19684      62697473 
 19684      00
 19685              	.LASF33:
 19686 00a3 6C63335F 		.ascii	"lc3_ltpf_hp50_state\000"
 19686      6C747066 
 19686      5F687035 
 19686      305F7374 
 19686      61746500 
 19687              	.LASF57:
 19688 00b7 6572726F 		.ascii	"error\000"
 19688      7200
 19689              	.LASF80:
 19690 00bd 72657361 		.ascii	"resample_96k_12k8\000"
 19690      6D706C65 
 19690      5F39366B 
 19690      5F31326B 
 19690      3800
 19691              	.LASF63:
 19692 00cf 6D6F6465 		.ascii	"mode\000"
 19692      00
 19693              	.LASF23:
 19694 00d4 6C63335F 		.ascii	"lc3_dt\000"
 19694      647400
 19695              	.LASF87:
 19696 00db 78775F6D 		.ascii	"xw_max\000"
 19696      617800
 19697              	.LASF145:
 19698 00e2 474E5520 		.ascii	"GNU C11 5.4.1 20160609 (release) [ARM/embedded-5-br"
 19698      43313120 
 19698      352E342E 
 19698      31203230 
 19698      31363036 
 19699 0115 616E6368 		.ascii	"anch revision 237715] -mcpu=cortex-m4 -mfloat-abi=s"
 19699      20726576 
 19699      6973696F 
 19699      6E203233 
 19699      37373135 
 19700 0148 6F667466 		.ascii	"oftfp -mfpu=fpv4-sp-d16 -mthumb -g -Og -ffunction-s"
 19700      70202D6D 
ARM GAS  C:\Users\rdn\AppData\Local\Temp\cc5zc0m9.s 			page 379


 19700      6670753D 
 19700      66707634 
 19700      2D73702D 
 19701 017b 65637469 		.ascii	"ections -ffat-lto-objects\000"
 19701      6F6E7320 
 19701      2D666661 
 19701      742D6C74 
 19701      6F2D6F62 
 19702              	.LASF30:
 19703 0195 4C43335F 		.ascii	"LC3_SRATE_48K_HR\000"
 19703      53524154 
 19703      455F3438 
 19703      4B5F4852 
 19703      00
 19704              	.LASF137:
 19705 01a6 6C63335F 		.ascii	"lc3_ns_4m\000"
 19705      6E735F34 
 19705      6D00
 19706              	.LASF47:
 19707 01b0 6C63335F 		.ascii	"lc3_bits_mode\000"
 19707      62697473 
 19707      5F6D6F64 
 19707      6500
 19708              	.LASF35:
 19709 01be 61637469 		.ascii	"active\000"
 19709      766500
 19710              	.LASF38:
 19711 01c5 785F3132 		.ascii	"x_12k8\000"
 19711      6B3800
 19712              	.LASF118:
 19713 01cc 675F6964 		.ascii	"g_idx\000"
 19713      7800
 19714              	.LASF85:
 19715 01d2 6172676D 		.ascii	"argmax_weighted\000"
 19715      61785F77 
 19715      65696768 
 19715      74656400 
 19716              	.LASF19:
 19717 01e2 4C43335F 		.ascii	"LC3_DT_5M\000"
 19717      44545F35 
 19717      4D00
 19718              	.LASF109:
 19719 01ec 6E5F3132 		.ascii	"n_12k8\000"
 19719      6B3800
 19720              	.LASF79:
 19721 01f3 72657361 		.ascii	"resample_8k_12k8\000"
 19721      6D706C65 
 19721      5F386B5F 
 19721      31326B38 
 19721      00
 19722              	.LASF0:
 19723 0204 666C6F61 		.ascii	"float\000"
 19723      7400
 19724              	.LASF142:
 19725 020a 6D656D6D 		.ascii	"memmove\000"
 19725      6F766500 
 19726              	.LASF67:
ARM GAS  C:\Users\rdn\AppData\Local\Temp\cc5zc0m9.s 			page 380


 19727 0212 6C63335F 		.ascii	"lc3_ltpf_data\000"
 19727      6C747066 
 19727      5F646174 
 19727      6100
 19728              	.LASF55:
 19729 0220 63617272 		.ascii	"carry\000"
 19729      7900
 19730              	.LASF15:
 19731 0226 696E7431 		.ascii	"int16_t\000"
 19731      365F7400 
 19732              	.LASF12:
 19733 022e 6C6F6E67 		.ascii	"long long unsigned int\000"
 19733      206C6F6E 
 19733      6720756E 
 19733      7369676E 
 19733      65642069 
 19734              	.LASF129:
 19735 0245 685F3332 		.ascii	"h_32k_12k8_q15\000"
 19735      6B5F3132 
 19735      6B385F71 
 19735      313500
 19736              	.LASF112:
 19737 0254 70697463 		.ascii	"pitch_present\000"
 19737      685F7072 
 19737      6573656E 
 19737      7400
 19738              	.LASF56:
 19739 0262 63617272 		.ascii	"carry_count\000"
 19739      795F636F 
 19739      756E7400 
 19740              	.LASF115:
 19741 026e 6E627974 		.ascii	"nbytes\000"
 19741      657300
 19742              	.LASF120:
 19743 0275 6C63335F 		.ascii	"lc3_ltpf_disable\000"
 19743      6C747066 
 19743      5F646973 
 19743      61626C65 
 19743      00
 19744              	.LASF86:
 19745 0286 775F696E 		.ascii	"w_incr\000"
 19745      637200
 19746              	.LASF146:
 19747 028d 2E2E5C2E 		.ascii	"..\\..\\..\\liblc3\\src\\ltpf.c\000"
 19747      2E5C2E2E 
 19747      5C6C6962 
 19747      6C63335C 
 19747      7372635C 
 19748              	.LASF28:
 19749 02a8 4C43335F 		.ascii	"LC3_SRATE_32K\000"
 19749      53524154 
 19749      455F3332 
 19749      4B00
 19750              	.LASF70:
 19751 02b6 66696C74 		.ascii	"filter_hp50\000"
 19751      65725F68 
 19751      70353000 
ARM GAS  C:\Users\rdn\AppData\Local\Temp\cc5zc0m9.s 			page 381


 19752              	.LASF22:
 19753 02c2 4C43335F 		.ascii	"LC3_NUM_DT\000"
 19753      4E554D5F 
 19753      445400
 19754              	.LASF89:
 19755 02cd 68345F71 		.ascii	"h4_q15\000"
 19755      313500
 19756              	.LASF119:
 19757 02d4 6C63335F 		.ascii	"lc3_ltpf_synthesize\000"
 19757      6C747066 
 19757      5F73796E 
 19757      74686573 
 19757      697A6500 
 19758              	.LASF76:
 19759 02e8 6C63335F 		.ascii	"lc3_put_bits\000"
 19759      7075745F 
 19759      62697473 
 19759      00
 19760              	.LASF81:
 19761 02f5 72657361 		.ascii	"resample_6k4\000"
 19761      6D706C65 
 19761      5F366B34 
 19761      00
 19762              	.LASF39:
 19763 0302 785F366B 		.ascii	"x_6k4\000"
 19763      3400
 19764              	.LASF17:
 19765 0308 696E7436 		.ascii	"int64_t\000"
 19765      345F7400 
 19766              	.LASF126:
 19767 0310 6C63335F 		.ascii	"lc3_ltpf_get_data\000"
 19767      6C747066 
 19767      5F676574 
 19767      5F646174 
 19767      6100
 19768              	.LASF68:
 19769 0322 70697463 		.ascii	"pitch_index\000"
 19769      685F696E 
 19769      64657800 
 19770              	.LASF98:
 19771 032e 6C747066 		.ascii	"ltpf\000"
 19771      00
 19772              	.LASF144:
 19773 0333 6C63335F 		.ascii	"lc3_get_bits_generic\000"
 19773      6765745F 
 19773      62697473 
 19773      5F67656E 
 19773      65726963 
 19774              	.LASF40:
 19775 0348 5F426F6F 		.ascii	"_Bool\000"
 19775      6C00
 19776              	.LASF108:
 19777 034e 7A5F3132 		.ascii	"z_12k8\000"
 19777      6B3800
 19778              	.LASF66:
 19779 0355 6C63335F 		.ascii	"lc3_bits_t\000"
 19779      62697473 
ARM GAS  C:\Users\rdn\AppData\Local\Temp\cc5zc0m9.s 			page 382


 19779      5F7400
 19780              	.LASF100:
 19781 0360 72657361 		.ascii	"resample_16k_12k8\000"
 19781      6D706C65 
 19781      5F31366B 
 19781      5F31326B 
 19781      3800
 19782              	.LASF21:
 19783 0372 4C43335F 		.ascii	"LC3_DT_10M\000"
 19783      44545F31 
 19783      304D00
 19784              	.LASF73:
 19785 037d 6C63335F 		.ascii	"lc3_hr\000"
 19785      687200
 19786              	.LASF64:
 19787 0384 61636375 		.ascii	"accu\000"
 19787      00
 19788              	.LASF45:
 19789 0389 63686172 		.ascii	"char\000"
 19789      00
 19790              	.LASF42:
 19791 038e 6C63335F 		.ascii	"lc3_ltpf_synthesis\000"
 19791      6C747066 
 19791      5F73796E 
 19791      74686573 
 19791      697300
 19792              	.LASF50:
 19793 03a1 6C63335F 		.ascii	"lc3_bits_accu\000"
 19793      62697473 
 19793      5F616363 
 19793      7500
 19794              	.LASF107:
 19795 03af 64617461 		.ascii	"data\000"
 19795      00
 19796              	.LASF147:
 19797 03b4 433A5C55 		.ascii	"C:\\Users\\rdn\\Documents\\PSoC Creator\\SEES\\ble_"
 19797      73657273 
 19797      5C72646E 
 19797      5C446F63 
 19797      756D656E 
 19798 03e1 74657374 		.ascii	"test.cydsn\000"
 19798      2E637964 
 19798      736E00
 19799              	.LASF51:
 19800 03ec 6E6F7665 		.ascii	"nover\000"
 19800      7200
 19801              	.LASF14:
 19802 03f2 75696E74 		.ascii	"uint8_t\000"
 19802      385F7400 
 19803              	.LASF61:
 19804 03fa 705F6277 		.ascii	"p_bw\000"
 19804      00
 19805              	.LASF71:
 19806 03ff 62697473 		.ascii	"bits\000"
 19806      00
 19807              	.LASF102:
 19808 0404 72657361 		.ascii	"resample_24k_12k8\000"
ARM GAS  C:\Users\rdn\AppData\Local\Temp\cc5zc0m9.s 			page 383


 19808      6D706C65 
 19808      5F32346B 
 19808      5F31326B 
 19808      3800
 19809              	.LASF11:
 19810 0416 6C6F6E67 		.ascii	"long long int\000"
 19810      206C6F6E 
 19810      6720696E 
 19810      7400
 19811              	.LASF103:
 19812 0424 72657361 		.ascii	"resample_48k_12k8\000"
 19812      6D706C65 
 19812      5F34386B 
 19812      5F31326B 
 19812      3800
 19813              	.LASF37:
 19814 0436 68703530 		.ascii	"hp50\000"
 19814      00
 19815              	.LASF124:
 19816 043b 6C63335F 		.ascii	"lc3_ltpf_put_data\000"
 19816      6C747066 
 19816      5F707574 
 19816      5F646174 
 19816      6100
 19817              	.LASF117:
 19818 044d 6E626974 		.ascii	"nbits\000"
 19818      7300
 19819              	.LASF4:
 19820 0453 5F5F696E 		.ascii	"__int16_t\000"
 19820      7431365F 
 19820      7400
 19821              	.LASF130:
 19822 045d 685F3234 		.ascii	"h_24k_12k8_q15\000"
 19822      6B5F3132 
 19822      6B385F71 
 19822      313500
 19823              	.LASF134:
 19824 046c 73796E74 		.ascii	"synthesize\000"
 19824      68657369 
 19824      7A6500
 19825              	.LASF83:
 19826 0477 785F6D61 		.ascii	"x_max\000"
 19826      7800
 19827              	.LASF97:
 19828 047d 64657465 		.ascii	"detect_pitch\000"
 19828      63745F70 
 19828      69746368 
 19828      00
 19829              	.LASF93:
 19830 048a 66616465 		.ascii	"fade\000"
 19830      00
 19831              	.LASF53:
 19832 048f 72616E67 		.ascii	"range\000"
 19832      6500
 19833              	.LASF133:
 19834 0495 72657361 		.ascii	"resample_12k8\000"
 19834      6D706C65 
ARM GAS  C:\Users\rdn\AppData\Local\Temp\cc5zc0m9.s 			page 384


 19834      5F31326B 
 19834      3800
 19835              	.LASF82:
 19836 04a3 636F7272 		.ascii	"correlate\000"
 19836      656C6174 
 19836      6500
 19837              	.LASF143:
 19838 04ad 6C63335F 		.ascii	"lc3_put_bits_generic\000"
 19838      7075745F 
 19838      62697473 
 19838      5F67656E 
 19838      65726963 
 19839              	.LASF94:
 19840 04c2 675F696E 		.ascii	"g_incr\000"
 19840      637200
 19841              	.LASF54:
 19842 04c9 63616368 		.ascii	"cache\000"
 19842      6500
 19843              	.LASF62:
 19844 04cf 6C63335F 		.ascii	"lc3_bits\000"
 19844      62697473 
 19844      00
 19845              	.LASF10:
 19846 04d8 5F5F696E 		.ascii	"__int64_t\000"
 19846      7436345F 
 19846      7400
 19847              	.LASF43:
 19848 04e2 6C63335F 		.ascii	"lc3_ltpf_synthesis_t\000"
 19848      6C747066 
 19848      5F73796E 
 19848      74686573 
 19848      69735F74 
 19849              	.LASF110:
 19850 04f7 7A5F366B 		.ascii	"z_6k4\000"
 19850      3400
 19851              	.LASF44:
 19852 04fd 6C6F6E67 		.ascii	"long double\000"
 19852      20646F75 
 19852      626C6500 
 19853              	.LASF32:
 19854 0509 4C43335F 		.ascii	"LC3_NUM_SRATE\000"
 19854      4E554D5F 
 19854      53524154 
 19854      4500
 19855              	.LASF132:
 19856 0517 685F3936 		.ascii	"h_96k_12k8_q15\000"
 19856      6B5F3132 
 19856      6B385F71 
 19856      313500
 19857              	.LASF20:
 19858 0526 4C43335F 		.ascii	"LC3_DT_7M5\000"
 19858      44545F37 
 19858      4D3500
 19859              	.LASF113:
 19860 0531 70697463 		.ascii	"pitch_diff\000"
 19860      685F6469 
 19860      666600
ARM GAS  C:\Users\rdn\AppData\Local\Temp\cc5zc0m9.s 			page 385


 19861              	.LASF84:
 19862 053c 6172676D 		.ascii	"argmax\000"
 19862      617800
 19863              	.LASF5:
 19864 0543 73686F72 		.ascii	"short int\000"
 19864      7420696E 
 19864      7400
 19865              	.LASF18:
 19866 054d 4C43335F 		.ascii	"LC3_DT_2M5\000"
 19866      44545F32 
 19866      4D3500
 19867              	.LASF123:
 19868 0558 6C63335F 		.ascii	"lc3_put_bit\000"
 19868      7075745F 
 19868      62697400 
 19869              	.LASF8:
 19870 0564 6C6F6E67 		.ascii	"long int\000"
 19870      20696E74 
 19870      00
 19871              	.LASF78:
 19872 056d 72657361 		.ascii	"resample_x192k_12k8\000"
 19872      6D706C65 
 19872      5F783139 
 19872      326B5F31 
 19872      326B3800 
 19873              	.LASF105:
 19874 0581 73796E74 		.ascii	"synthesize_4\000"
 19874      68657369 
 19874      7A655F34 
 19874      00
 19875              	.LASF106:
 19876 058e 73796E74 		.ascii	"synthesize_6\000"
 19876      68657369 
 19876      7A655F36 
 19876      00
 19877              	.LASF96:
 19878 059b 73796E74 		.ascii	"synthesize_8\000"
 19878      68657369 
 19878      7A655F38 
 19878      00
 19879              	.LASF49:
 19880 05a8 4C43335F 		.ascii	"LC3_BITS_MODE_WRITE\000"
 19880      42495453 
 19880      5F4D4F44 
 19880      455F5752 
 19880      49544500 
 19881              	.LASF101:
 19882 05bc 72657361 		.ascii	"resample_32k_12k8\000"
 19882      6D706C65 
 19882      5F33326B 
 19882      5F31326B 
 19882      3800
 19883              	.LASF92:
 19884 05ce 73796E74 		.ascii	"synthesize_template\000"
 19884      68657369 
 19884      7A655F74 
 19884      656D706C 
ARM GAS  C:\Users\rdn\AppData\Local\Temp\cc5zc0m9.s 			page 386


 19884      61746500 
 19885              	.LASF3:
 19886 05e2 5F5F7569 		.ascii	"__uint8_t\000"
 19886      6E74385F 
 19886      7400
 19887              	.LASF59:
 19888 05ec 73746172 		.ascii	"start\000"
 19888      7400
 19889              	.LASF26:
 19890 05f2 4C43335F 		.ascii	"LC3_SRATE_16K\000"
 19890      53524154 
 19890      455F3136 
 19890      4B00
 19891              	.LASF121:
 19892 0600 6C63335F 		.ascii	"lc3_ltpf_analyse\000"
 19892      6C747066 
 19892      5F616E61 
 19892      6C797365 
 19892      00
 19893              	.LASF114:
 19894 0611 6E635F64 		.ascii	"nc_diff\000"
 19894      69666600 
 19895              	.LASF41:
 19896 0619 73697A65 		.ascii	"sizetype\000"
 19896      74797065 
 19896      00
 19897              	.LASF9:
 19898 0622 6C6F6E67 		.ascii	"long unsigned int\000"
 19898      20756E73 
 19898      69676E65 
 19898      6420696E 
 19898      7400
 19899              	.LASF75:
 19900 0634 6C63335F 		.ascii	"lc3_ns\000"
 19900      6E7300
 19901              	.LASF16:
 19902 063b 696E7433 		.ascii	"int32_t\000"
 19902      325F7400 
 19903              	.LASF88:
 19904 0643 696E7465 		.ascii	"interpolate\000"
 19904      72706F6C 
 19904      61746500 
 19905              	.LASF128:
 19906 064f 685F3136 		.ascii	"h_16k_12k8_q15\000"
 19906      6B5F3132 
 19906      6B385F71 
 19906      313500
 19907              	.LASF77:
 19908 065e 72657361 		.ascii	"resample_x64k_12k8\000"
 19908      6D706C65 
 19908      5F783634 
 19908      6B5F3132 
 19908      6B3800
 19909              	.LASF24:
 19910 0671 6C63335F 		.ascii	"lc3_srate\000"
 19910      73726174 
 19910      6500
ARM GAS  C:\Users\rdn\AppData\Local\Temp\cc5zc0m9.s 			page 387


 19911              	.LASF2:
 19912 067b 756E7369 		.ascii	"unsigned char\000"
 19912      676E6564 
 19912      20636861 
 19912      7200
 19913              	.LASF95:
 19914 0689 795F656E 		.ascii	"y_end\000"
 19914      6400
 19915              	.LASF69:
 19916 068f 6C63335F 		.ascii	"lc3_ltpf_data_t\000"
 19916      6C747066 
 19916      5F646174 
 19916      615F7400 
 19917              	.LASF140:
 19918 069f 6C63335F 		.ascii	"lc3_ltpf_cden\000"
 19918      6C747066 
 19918      5F636465 
 19918      6E00
 19919              	.LASF139:
 19920 06ad 6C63335F 		.ascii	"lc3_ltpf_cnum\000"
 19920      6C747066 
 19920      5F636E75 
 19920      6D00
 19921              	.LASF141:
 19922 06bb 73717274 		.ascii	"sqrtf\000"
 19922      6600
 19923              	.LASF131:
 19924 06c1 685F3438 		.ascii	"h_48k_12k8_q15\000"
 19924      6B5F3132 
 19924      6B385F71 
 19924      313500
 19925              	.LASF91:
 19926 06d0 72656669 		.ascii	"refine_pitch\000"
 19926      6E655F70 
 19926      69746368 
 19926      00
 19927              	.LASF104:
 19928 06dd 73796E74 		.ascii	"synthesize_12\000"
 19928      68657369 
 19928      7A655F31 
 19928      3200
 19929              	.LASF25:
 19930 06eb 4C43335F 		.ascii	"LC3_SRATE_8K\000"
 19930      53524154 
 19930      455F384B 
 19930      00
 19931              	.LASF1:
 19932 06f8 7369676E 		.ascii	"signed char\000"
 19932      65642063 
 19932      68617200 
 19933              	.LASF111:
 19934 0704 6E5F366B 		.ascii	"n_6k4\000"
 19934      3400
 19935              	.LASF122:
 19936 070a 6C63335F 		.ascii	"lc3_ltpf_get_nbits\000"
 19936      6C747066 
 19936      5F676574 
ARM GAS  C:\Users\rdn\AppData\Local\Temp\cc5zc0m9.s 			page 388


 19936      5F6E6269 
 19936      747300
 19937              	.LASF6:
 19938 071d 73686F72 		.ascii	"short unsigned int\000"
 19938      7420756E 
 19938      7369676E 
 19938      65642069 
 19938      6E7400
 19939              	.LASF148:
 19940 0730 6D656D63 		.ascii	"memcpy\000"
 19940      707900
 19941              	.LASF48:
 19942 0737 4C43335F 		.ascii	"LC3_BITS_MODE_READ\000"
 19942      42495453 
 19942      5F4D4F44 
 19942      455F5245 
 19942      414400
 19943              	.LASF46:
 19944 074a 646F7562 		.ascii	"double\000"
 19944      6C6500
 19945              	.LASF31:
 19946 0751 4C43335F 		.ascii	"LC3_SRATE_96K_HR\000"
 19946      53524154 
 19946      455F3936 
 19946      4B5F4852 
 19946      00
 19947              	.LASF52:
 19948 0762 6C63335F 		.ascii	"lc3_bits_ac\000"
 19948      62697473 
 19948      5F616300 
 19949              	.LASF127:
 19950 076e 685F386B 		.ascii	"h_8k_12k8_q15\000"
 19950      5F31326B 
 19950      385F7131 
 19950      3500
 19951              	.LASF138:
 19952 077c 6C63335F 		.ascii	"lc3_frame_bytes_hr_lim\000"
 19952      6672616D 
 19952      655F6279 
 19952      7465735F 
 19952      68725F6C 
 19953              	.LASF34:
 19954 0793 6C63335F 		.ascii	"lc3_ltpf_analysis\000"
 19954      6C747066 
 19954      5F616E61 
 19954      6C797369 
 19954      7300
 19955              	.LASF60:
 19956 07a5 705F6677 		.ascii	"p_fw\000"
 19956      00
 19957              		.ident	"GCC: (GNU Tools for ARM Embedded Processors) 5.4.1 20160609 (release) [ARM/embedded-5-bran
