ARM GAS  C:\Users\rdn\AppData\Local\Temp\ccidoW8j.s 			page 1


   1              		.syntax unified
   2              		.cpu cortex-m4
   3              		.eabi_attribute 27, 1
   4              		.fpu fpv4-sp-d16
   5              		.eabi_attribute 20, 1
   6              		.eabi_attribute 21, 1
   7              		.eabi_attribute 23, 3
   8              		.eabi_attribute 24, 1
   9              		.eabi_attribute 25, 1
  10              		.eabi_attribute 26, 1
  11              		.eabi_attribute 30, 1
  12              		.eabi_attribute 34, 1
  13              		.eabi_attribute 18, 4
  14              		.thumb
  15              		.syntax unified
  16              		.file	"main_cm4.c"
  17              		.text
  18              	.Ltext0:
  19              		.cfi_sections	.debug_frame
  20              		.section	.text.main,"ax",%progbits
  21              		.align	2
  22              		.global	main
  23              		.thumb
  24              		.thumb_func
  25              		.type	main, %function
  26              	main:
  27              	.LFB556:
  28              		.file 1 "main_cm4.c"
   1:main_cm4.c    **** /* ========================================
   2:main_cm4.c    ****  *
   3:main_cm4.c    ****  * Copyright YOUR COMPANY, THE YEAR
   4:main_cm4.c    ****  * All Rights Reserved
   5:main_cm4.c    ****  * UNPUBLISHED, LICENSED SOFTWARE.
   6:main_cm4.c    ****  *
   7:main_cm4.c    ****  * CONFIDENTIAL AND PROPRIETARY INFORMATION
   8:main_cm4.c    ****  * WHICH IS THE PROPERTY OF your company.
   9:main_cm4.c    ****  *
  10:main_cm4.c    ****  * ========================================
  11:main_cm4.c    **** */
  12:main_cm4.c    **** 
  13:main_cm4.c    **** #include "shared.h"
  14:main_cm4.c    **** 
  15:main_cm4.c    **** int main(void)
  16:main_cm4.c    **** {
  29              		.loc 1 16 0
  30              		.cfi_startproc
  31              		@ args = 0, pretend = 0, frame = 56
  32              		@ frame_needed = 0, uses_anonymous_args = 0
  33 0000 70B5     		push	{r4, r5, r6, lr}
  34              		.cfi_def_cfa_offset 16
  35              		.cfi_offset 4, -16
  36              		.cfi_offset 5, -12
  37              		.cfi_offset 6, -8
  38              		.cfi_offset 14, -4
  39 0002 90B0     		sub	sp, sp, #64
  40              		.cfi_def_cfa_offset 80
  41              	.LBB6:
ARM GAS  C:\Users\rdn\AppData\Local\Temp\ccidoW8j.s 			page 2


  42              	.LBB7:
  43              		.file 2 "Generated_Source\\PSoC6\\pdl\\cmsis/include/cmsis_gcc.h"
   1:Generated_Source\PSoC6\pdl\cmsis/include/cmsis_gcc.h **** /**************************************************************************//**
   2:Generated_Source\PSoC6\pdl\cmsis/include/cmsis_gcc.h ****  * @file     cmsis_gcc.h
   3:Generated_Source\PSoC6\pdl\cmsis/include/cmsis_gcc.h ****  * @brief    CMSIS compiler GCC header file
   4:Generated_Source\PSoC6\pdl\cmsis/include/cmsis_gcc.h ****  * @version  V5.0.3
   5:Generated_Source\PSoC6\pdl\cmsis/include/cmsis_gcc.h ****  * @date     16. January 2018
   6:Generated_Source\PSoC6\pdl\cmsis/include/cmsis_gcc.h ****  ******************************************************************************/
   7:Generated_Source\PSoC6\pdl\cmsis/include/cmsis_gcc.h **** /*
   8:Generated_Source\PSoC6\pdl\cmsis/include/cmsis_gcc.h ****  * Copyright (c) 2009-2017 ARM Limited. All rights reserved.
   9:Generated_Source\PSoC6\pdl\cmsis/include/cmsis_gcc.h ****  *
  10:Generated_Source\PSoC6\pdl\cmsis/include/cmsis_gcc.h ****  * SPDX-License-Identifier: Apache-2.0
  11:Generated_Source\PSoC6\pdl\cmsis/include/cmsis_gcc.h ****  *
  12:Generated_Source\PSoC6\pdl\cmsis/include/cmsis_gcc.h ****  * Licensed under the Apache License, Version 2.0 (the License); you may
  13:Generated_Source\PSoC6\pdl\cmsis/include/cmsis_gcc.h ****  * not use this file except in compliance with the License.
  14:Generated_Source\PSoC6\pdl\cmsis/include/cmsis_gcc.h ****  * You may obtain a copy of the License at
  15:Generated_Source\PSoC6\pdl\cmsis/include/cmsis_gcc.h ****  *
  16:Generated_Source\PSoC6\pdl\cmsis/include/cmsis_gcc.h ****  * www.apache.org/licenses/LICENSE-2.0
  17:Generated_Source\PSoC6\pdl\cmsis/include/cmsis_gcc.h ****  *
  18:Generated_Source\PSoC6\pdl\cmsis/include/cmsis_gcc.h ****  * Unless required by applicable law or agreed to in writing, software
  19:Generated_Source\PSoC6\pdl\cmsis/include/cmsis_gcc.h ****  * distributed under the License is distributed on an AS IS BASIS, WITHOUT
  20:Generated_Source\PSoC6\pdl\cmsis/include/cmsis_gcc.h ****  * WARRANTIES OR CONDITIONS OF ANY KIND, either express or implied.
  21:Generated_Source\PSoC6\pdl\cmsis/include/cmsis_gcc.h ****  * See the License for the specific language governing permissions and
  22:Generated_Source\PSoC6\pdl\cmsis/include/cmsis_gcc.h ****  * limitations under the License.
  23:Generated_Source\PSoC6\pdl\cmsis/include/cmsis_gcc.h ****  */
  24:Generated_Source\PSoC6\pdl\cmsis/include/cmsis_gcc.h **** 
  25:Generated_Source\PSoC6\pdl\cmsis/include/cmsis_gcc.h **** #ifndef __CMSIS_GCC_H
  26:Generated_Source\PSoC6\pdl\cmsis/include/cmsis_gcc.h **** #define __CMSIS_GCC_H
  27:Generated_Source\PSoC6\pdl\cmsis/include/cmsis_gcc.h **** 
  28:Generated_Source\PSoC6\pdl\cmsis/include/cmsis_gcc.h **** /* ignore some GCC warnings */
  29:Generated_Source\PSoC6\pdl\cmsis/include/cmsis_gcc.h **** #pragma GCC diagnostic push
  30:Generated_Source\PSoC6\pdl\cmsis/include/cmsis_gcc.h **** #pragma GCC diagnostic ignored "-Wsign-conversion"
  31:Generated_Source\PSoC6\pdl\cmsis/include/cmsis_gcc.h **** #pragma GCC diagnostic ignored "-Wconversion"
  32:Generated_Source\PSoC6\pdl\cmsis/include/cmsis_gcc.h **** #pragma GCC diagnostic ignored "-Wunused-parameter"
  33:Generated_Source\PSoC6\pdl\cmsis/include/cmsis_gcc.h **** 
  34:Generated_Source\PSoC6\pdl\cmsis/include/cmsis_gcc.h **** /* Fallback for __has_builtin */
  35:Generated_Source\PSoC6\pdl\cmsis/include/cmsis_gcc.h **** #ifndef __has_builtin
  36:Generated_Source\PSoC6\pdl\cmsis/include/cmsis_gcc.h ****   #define __has_builtin(x) (0)
  37:Generated_Source\PSoC6\pdl\cmsis/include/cmsis_gcc.h **** #endif
  38:Generated_Source\PSoC6\pdl\cmsis/include/cmsis_gcc.h **** 
  39:Generated_Source\PSoC6\pdl\cmsis/include/cmsis_gcc.h **** /* CMSIS compiler specific defines */
  40:Generated_Source\PSoC6\pdl\cmsis/include/cmsis_gcc.h **** #ifndef   __ASM
  41:Generated_Source\PSoC6\pdl\cmsis/include/cmsis_gcc.h ****   #define __ASM                                  __asm
  42:Generated_Source\PSoC6\pdl\cmsis/include/cmsis_gcc.h **** #endif
  43:Generated_Source\PSoC6\pdl\cmsis/include/cmsis_gcc.h **** #ifndef   __INLINE
  44:Generated_Source\PSoC6\pdl\cmsis/include/cmsis_gcc.h ****   #define __INLINE                               inline
  45:Generated_Source\PSoC6\pdl\cmsis/include/cmsis_gcc.h **** #endif
  46:Generated_Source\PSoC6\pdl\cmsis/include/cmsis_gcc.h **** #ifndef   __STATIC_INLINE
  47:Generated_Source\PSoC6\pdl\cmsis/include/cmsis_gcc.h ****   #define __STATIC_INLINE                        static inline
  48:Generated_Source\PSoC6\pdl\cmsis/include/cmsis_gcc.h **** #endif
  49:Generated_Source\PSoC6\pdl\cmsis/include/cmsis_gcc.h **** #ifndef   __STATIC_FORCEINLINE                 
  50:Generated_Source\PSoC6\pdl\cmsis/include/cmsis_gcc.h ****   #define __STATIC_FORCEINLINE                   __attribute__((always_inline)) static inline
  51:Generated_Source\PSoC6\pdl\cmsis/include/cmsis_gcc.h **** #endif                                           
  52:Generated_Source\PSoC6\pdl\cmsis/include/cmsis_gcc.h **** #ifndef   __NO_RETURN
  53:Generated_Source\PSoC6\pdl\cmsis/include/cmsis_gcc.h ****   #define __NO_RETURN                            __attribute__((__noreturn__))
  54:Generated_Source\PSoC6\pdl\cmsis/include/cmsis_gcc.h **** #endif
  55:Generated_Source\PSoC6\pdl\cmsis/include/cmsis_gcc.h **** #ifndef   __USED
ARM GAS  C:\Users\rdn\AppData\Local\Temp\ccidoW8j.s 			page 3


  56:Generated_Source\PSoC6\pdl\cmsis/include/cmsis_gcc.h ****   #define __USED                                 __attribute__((used))
  57:Generated_Source\PSoC6\pdl\cmsis/include/cmsis_gcc.h **** #endif
  58:Generated_Source\PSoC6\pdl\cmsis/include/cmsis_gcc.h **** #ifndef   __WEAK
  59:Generated_Source\PSoC6\pdl\cmsis/include/cmsis_gcc.h ****   #define __WEAK                                 __attribute__((weak))
  60:Generated_Source\PSoC6\pdl\cmsis/include/cmsis_gcc.h **** #endif
  61:Generated_Source\PSoC6\pdl\cmsis/include/cmsis_gcc.h **** #ifndef   __PACKED
  62:Generated_Source\PSoC6\pdl\cmsis/include/cmsis_gcc.h ****   #define __PACKED                               __attribute__((packed, aligned(1)))
  63:Generated_Source\PSoC6\pdl\cmsis/include/cmsis_gcc.h **** #endif
  64:Generated_Source\PSoC6\pdl\cmsis/include/cmsis_gcc.h **** #ifndef   __PACKED_STRUCT
  65:Generated_Source\PSoC6\pdl\cmsis/include/cmsis_gcc.h ****   #define __PACKED_STRUCT                        struct __attribute__((packed, aligned(1)))
  66:Generated_Source\PSoC6\pdl\cmsis/include/cmsis_gcc.h **** #endif
  67:Generated_Source\PSoC6\pdl\cmsis/include/cmsis_gcc.h **** #ifndef   __PACKED_UNION
  68:Generated_Source\PSoC6\pdl\cmsis/include/cmsis_gcc.h ****   #define __PACKED_UNION                         union __attribute__((packed, aligned(1)))
  69:Generated_Source\PSoC6\pdl\cmsis/include/cmsis_gcc.h **** #endif
  70:Generated_Source\PSoC6\pdl\cmsis/include/cmsis_gcc.h **** #ifndef   __UNALIGNED_UINT32        /* deprecated */
  71:Generated_Source\PSoC6\pdl\cmsis/include/cmsis_gcc.h ****   #pragma GCC diagnostic push
  72:Generated_Source\PSoC6\pdl\cmsis/include/cmsis_gcc.h ****   #pragma GCC diagnostic ignored "-Wpacked"
  73:Generated_Source\PSoC6\pdl\cmsis/include/cmsis_gcc.h ****   #pragma GCC diagnostic ignored "-Wattributes"
  74:Generated_Source\PSoC6\pdl\cmsis/include/cmsis_gcc.h ****   struct __attribute__((packed)) T_UINT32 { uint32_t v; };
  75:Generated_Source\PSoC6\pdl\cmsis/include/cmsis_gcc.h ****   #pragma GCC diagnostic pop
  76:Generated_Source\PSoC6\pdl\cmsis/include/cmsis_gcc.h ****   #define __UNALIGNED_UINT32(x)                  (((struct T_UINT32 *)(x))->v)
  77:Generated_Source\PSoC6\pdl\cmsis/include/cmsis_gcc.h **** #endif
  78:Generated_Source\PSoC6\pdl\cmsis/include/cmsis_gcc.h **** #ifndef   __UNALIGNED_UINT16_WRITE
  79:Generated_Source\PSoC6\pdl\cmsis/include/cmsis_gcc.h ****   #pragma GCC diagnostic push
  80:Generated_Source\PSoC6\pdl\cmsis/include/cmsis_gcc.h ****   #pragma GCC diagnostic ignored "-Wpacked"
  81:Generated_Source\PSoC6\pdl\cmsis/include/cmsis_gcc.h ****   #pragma GCC diagnostic ignored "-Wattributes"
  82:Generated_Source\PSoC6\pdl\cmsis/include/cmsis_gcc.h ****   __PACKED_STRUCT T_UINT16_WRITE { uint16_t v; };
  83:Generated_Source\PSoC6\pdl\cmsis/include/cmsis_gcc.h ****   #pragma GCC diagnostic pop
  84:Generated_Source\PSoC6\pdl\cmsis/include/cmsis_gcc.h ****   #define __UNALIGNED_UINT16_WRITE(addr, val)    (void)((((struct T_UINT16_WRITE *)(void *)(addr))-
  85:Generated_Source\PSoC6\pdl\cmsis/include/cmsis_gcc.h **** #endif
  86:Generated_Source\PSoC6\pdl\cmsis/include/cmsis_gcc.h **** #ifndef   __UNALIGNED_UINT16_READ
  87:Generated_Source\PSoC6\pdl\cmsis/include/cmsis_gcc.h ****   #pragma GCC diagnostic push
  88:Generated_Source\PSoC6\pdl\cmsis/include/cmsis_gcc.h ****   #pragma GCC diagnostic ignored "-Wpacked"
  89:Generated_Source\PSoC6\pdl\cmsis/include/cmsis_gcc.h ****   #pragma GCC diagnostic ignored "-Wattributes"
  90:Generated_Source\PSoC6\pdl\cmsis/include/cmsis_gcc.h ****   __PACKED_STRUCT T_UINT16_READ { uint16_t v; };
  91:Generated_Source\PSoC6\pdl\cmsis/include/cmsis_gcc.h ****   #pragma GCC diagnostic pop
  92:Generated_Source\PSoC6\pdl\cmsis/include/cmsis_gcc.h ****   #define __UNALIGNED_UINT16_READ(addr)          (((const struct T_UINT16_READ *)(const void *)(add
  93:Generated_Source\PSoC6\pdl\cmsis/include/cmsis_gcc.h **** #endif
  94:Generated_Source\PSoC6\pdl\cmsis/include/cmsis_gcc.h **** #ifndef   __UNALIGNED_UINT32_WRITE
  95:Generated_Source\PSoC6\pdl\cmsis/include/cmsis_gcc.h ****   #pragma GCC diagnostic push
  96:Generated_Source\PSoC6\pdl\cmsis/include/cmsis_gcc.h ****   #pragma GCC diagnostic ignored "-Wpacked"
  97:Generated_Source\PSoC6\pdl\cmsis/include/cmsis_gcc.h ****   #pragma GCC diagnostic ignored "-Wattributes"
  98:Generated_Source\PSoC6\pdl\cmsis/include/cmsis_gcc.h ****   __PACKED_STRUCT T_UINT32_WRITE { uint32_t v; };
  99:Generated_Source\PSoC6\pdl\cmsis/include/cmsis_gcc.h ****   #pragma GCC diagnostic pop
 100:Generated_Source\PSoC6\pdl\cmsis/include/cmsis_gcc.h ****   #define __UNALIGNED_UINT32_WRITE(addr, val)    (void)((((struct T_UINT32_WRITE *)(void *)(addr))-
 101:Generated_Source\PSoC6\pdl\cmsis/include/cmsis_gcc.h **** #endif
 102:Generated_Source\PSoC6\pdl\cmsis/include/cmsis_gcc.h **** #ifndef   __UNALIGNED_UINT32_READ
 103:Generated_Source\PSoC6\pdl\cmsis/include/cmsis_gcc.h ****   #pragma GCC diagnostic push
 104:Generated_Source\PSoC6\pdl\cmsis/include/cmsis_gcc.h ****   #pragma GCC diagnostic ignored "-Wpacked"
 105:Generated_Source\PSoC6\pdl\cmsis/include/cmsis_gcc.h ****   #pragma GCC diagnostic ignored "-Wattributes"
 106:Generated_Source\PSoC6\pdl\cmsis/include/cmsis_gcc.h ****   __PACKED_STRUCT T_UINT32_READ { uint32_t v; };
 107:Generated_Source\PSoC6\pdl\cmsis/include/cmsis_gcc.h ****   #pragma GCC diagnostic pop
 108:Generated_Source\PSoC6\pdl\cmsis/include/cmsis_gcc.h ****   #define __UNALIGNED_UINT32_READ(addr)          (((const struct T_UINT32_READ *)(const void *)(add
 109:Generated_Source\PSoC6\pdl\cmsis/include/cmsis_gcc.h **** #endif
 110:Generated_Source\PSoC6\pdl\cmsis/include/cmsis_gcc.h **** #ifndef   __ALIGNED
 111:Generated_Source\PSoC6\pdl\cmsis/include/cmsis_gcc.h ****   #define __ALIGNED(x)                           __attribute__((aligned(x)))
 112:Generated_Source\PSoC6\pdl\cmsis/include/cmsis_gcc.h **** #endif
ARM GAS  C:\Users\rdn\AppData\Local\Temp\ccidoW8j.s 			page 4


 113:Generated_Source\PSoC6\pdl\cmsis/include/cmsis_gcc.h **** #ifndef   __RESTRICT
 114:Generated_Source\PSoC6\pdl\cmsis/include/cmsis_gcc.h ****   #define __RESTRICT                             __restrict
 115:Generated_Source\PSoC6\pdl\cmsis/include/cmsis_gcc.h **** #endif
 116:Generated_Source\PSoC6\pdl\cmsis/include/cmsis_gcc.h **** 
 117:Generated_Source\PSoC6\pdl\cmsis/include/cmsis_gcc.h **** 
 118:Generated_Source\PSoC6\pdl\cmsis/include/cmsis_gcc.h **** /* ###########################  Core Function Access  ########################### */
 119:Generated_Source\PSoC6\pdl\cmsis/include/cmsis_gcc.h **** /** \ingroup  CMSIS_Core_FunctionInterface
 120:Generated_Source\PSoC6\pdl\cmsis/include/cmsis_gcc.h ****     \defgroup CMSIS_Core_RegAccFunctions CMSIS Core Register Access Functions
 121:Generated_Source\PSoC6\pdl\cmsis/include/cmsis_gcc.h ****   @{
 122:Generated_Source\PSoC6\pdl\cmsis/include/cmsis_gcc.h ****  */
 123:Generated_Source\PSoC6\pdl\cmsis/include/cmsis_gcc.h **** 
 124:Generated_Source\PSoC6\pdl\cmsis/include/cmsis_gcc.h **** /**
 125:Generated_Source\PSoC6\pdl\cmsis/include/cmsis_gcc.h ****   \brief   Enable IRQ Interrupts
 126:Generated_Source\PSoC6\pdl\cmsis/include/cmsis_gcc.h ****   \details Enables IRQ interrupts by clearing the I-bit in the CPSR.
 127:Generated_Source\PSoC6\pdl\cmsis/include/cmsis_gcc.h ****            Can only be executed in Privileged modes.
 128:Generated_Source\PSoC6\pdl\cmsis/include/cmsis_gcc.h ****  */
 129:Generated_Source\PSoC6\pdl\cmsis/include/cmsis_gcc.h **** __STATIC_FORCEINLINE void __enable_irq(void)
 130:Generated_Source\PSoC6\pdl\cmsis/include/cmsis_gcc.h **** {
 131:Generated_Source\PSoC6\pdl\cmsis/include/cmsis_gcc.h ****   __ASM volatile ("cpsie i" : : : "memory");
  44              		.loc 2 131 0
  45              		.syntax unified
  46              	@ 131 "Generated_Source\PSoC6\pdl\cmsis/include/cmsis_gcc.h" 1
  47 0004 62B6     		cpsie i
  48              	@ 0 "" 2
  49              		.thumb
  50              		.syntax unified
  51              	.LBE7:
  52              	.LBE6:
  17:main_cm4.c    ****     __enable_irq(); /* Enable global interrupts. */
  18:main_cm4.c    **** 	
  19:main_cm4.c    **** 	memset(shared_buffer, 0, sizeof(shared_buffer));
  53              		.loc 1 19 0
  54 0006 4FF47062 		mov	r2, #3840
  55 000a 0021     		movs	r1, #0
  56 000c 2348     		ldr	r0, .L13
  57 000e FFF7FEFF 		bl	memset
  58              	.LVL0:
  20:main_cm4.c    **** 	
  21:main_cm4.c    **** 	current_frame_written = 0;
  59              		.loc 1 21 0
  60 0012 0022     		movs	r2, #0
  61 0014 224B     		ldr	r3, .L13+4
  62 0016 1A60     		str	r2, [r3]
  63              	.LVL1:
  64              	.L3:
  22:main_cm4.c    **** 	
  23:main_cm4.c    **** 	uint16_t counter = 0;
  24:main_cm4.c    **** 	
  25:main_cm4.c    **** 	do {
  26:main_cm4.c    **** 		__WFE();
  65              		.loc 1 26 0 discriminator 1
  66              		.syntax unified
  67              	@ 26 "main_cm4.c" 1
  68 0018 20BF     		wfe
  69              	@ 0 "" 2
  27:main_cm4.c    **** 	} while (!ble_connected);
  70              		.loc 1 27 0 discriminator 1
ARM GAS  C:\Users\rdn\AppData\Local\Temp\ccidoW8j.s 			page 5


  71              		.thumb
  72              		.syntax unified
  73 001a 224B     		ldr	r3, .L13+8
  74 001c 1B78     		ldrb	r3, [r3]	@ zero_extendqisi2
  75 001e 002B     		cmp	r3, #0
  76 0020 FAD0     		beq	.L3
  77 0022 0024     		movs	r4, #0
  78              	.LVL2:
  79              	.L2:
  80              	.LBB8:
  28:main_cm4.c    **** 	printf("cm4 woken up!\n");
  29:main_cm4.c    **** 		
  30:main_cm4.c    ****     for(;;) {
  31:main_cm4.c    **** 		// only start writing the next frame if that frame is not being read by cm0p
  32:main_cm4.c    **** 		if (!ble_connected || current_frame_reading == (current_frame_written+1) % S_FRAMES) {
  81              		.loc 1 32 0
  82 0024 1F4B     		ldr	r3, .L13+8
  83 0026 1B78     		ldrb	r3, [r3]	@ zero_extendqisi2
  84 0028 002B     		cmp	r3, #0
  85 002a FBD0     		beq	.L2
  86              		.loc 1 32 0 is_stmt 0 discriminator 1
  87 002c 1C4B     		ldr	r3, .L13+4
  88 002e 1968     		ldr	r1, [r3]
  89 0030 4B1C     		adds	r3, r1, #1
  90 0032 1D4A     		ldr	r2, .L13+12
  91 0034 1A40     		ands	r2, r3, r2
  92 0036 03D5     		bpl	.L5
  93 0038 013A     		subs	r2, r2, #1
  94 003a 62F00302 		orn	r2, r2, #3
  95 003e 0132     		adds	r2, r2, #1
  96              	.L5:
  97 0040 1A4B     		ldr	r3, .L13+16
  98 0042 1B68     		ldr	r3, [r3]
  99 0044 9A42     		cmp	r2, r3
 100 0046 EDD0     		beq	.L2
  33:main_cm4.c    **** 			continue;
  34:main_cm4.c    **** 		}
  35:main_cm4.c    **** //		printf("started writing\n");
  36:main_cm4.c    **** 		
  37:main_cm4.c    **** 		char str[50];
  38:main_cm4.c    ****             snprintf(str, 50, "cur_fr_r: %d, written: %d \n", current_frame_reading, current_frame_
 101              		.loc 1 38 0 is_stmt 1
 102 0048 0091     		str	r1, [sp]
 103 004a 194A     		ldr	r2, .L13+20
 104 004c 3221     		movs	r1, #50
 105 004e 03A8     		add	r0, sp, #12
 106 0050 FFF7FEFF 		bl	snprintf
 107              	.LVL3:
  39:main_cm4.c    **** //			printf(str);
  40:main_cm4.c    **** 		
  41:main_cm4.c    **** 		int current_frame_writing = (current_frame_written+1) % S_FRAMES;
 108              		.loc 1 41 0
 109 0054 124B     		ldr	r3, .L13+4
 110 0056 1B68     		ldr	r3, [r3]
 111 0058 0133     		adds	r3, r3, #1
 112 005a 134D     		ldr	r5, .L13+12
 113 005c 1D40     		ands	r5, r3, r5
ARM GAS  C:\Users\rdn\AppData\Local\Temp\ccidoW8j.s 			page 6


 114 005e 03D5     		bpl	.L8
 115 0060 013D     		subs	r5, r5, #1
 116 0062 65F00305 		orn	r5, r5, #3
 117 0066 0135     		adds	r5, r5, #1
 118              	.L8:
 119              	.LVL4:
 120              	.LBB9:
  42:main_cm4.c    **** 		
  43:main_cm4.c    **** 		// fill with random stuff for testing
  44:main_cm4.c    **** 		for (uint16_t i = 0; i < FRAME_SAMPLES; i++) {
 121              		.loc 1 44 0
 122 0068 0023     		movs	r3, #0
 123 006a 0FE0     		b	.L9
 124              	.LVL5:
 125              	.L10:
  45:main_cm4.c    **** 			shared_buffer[2*i + FRAME_SAMPLES*PCM_SBYTES*current_frame_writing] = counter & 0xFF;
 126              		.loc 1 45 0 discriminator 3
 127 006c 2A01     		lsls	r2, r5, #4
 128 006e 501B     		subs	r0, r2, r5
 129 0070 4101     		lsls	r1, r0, #5
 130 0072 1944     		add	r1, r1, r3
 131 0074 094E     		ldr	r6, .L13
 132 0076 06F81140 		strb	r4, [r6, r1, lsl #1]
  46:main_cm4.c    **** 			shared_buffer[2*i+1 + FRAME_SAMPLES*PCM_SBYTES*current_frame_writing] = counter >> 8;
 133              		.loc 1 46 0 discriminator 3
 134 007a 5900     		lsls	r1, r3, #1
 135 007c 481C     		adds	r0, r1, #1
 136 007e 521B     		subs	r2, r2, r5
 137 0080 9101     		lsls	r1, r2, #6
 138 0082 0144     		add	r1, r1, r0
 139 0084 220A     		lsrs	r2, r4, #8
 140 0086 7254     		strb	r2, [r6, r1]
  44:main_cm4.c    **** 			shared_buffer[2*i + FRAME_SAMPLES*PCM_SBYTES*current_frame_writing] = counter & 0xFF;
 141              		.loc 1 44 0 discriminator 3
 142 0088 0133     		adds	r3, r3, #1
 143              	.LVL6:
 144 008a 9BB2     		uxth	r3, r3
 145              	.LVL7:
 146              	.L9:
  44:main_cm4.c    **** 			shared_buffer[2*i + FRAME_SAMPLES*PCM_SBYTES*current_frame_writing] = counter & 0xFF;
 147              		.loc 1 44 0 is_stmt 0 discriminator 1
 148 008c B3F5F07F 		cmp	r3, #480
 149 0090 ECD3     		bcc	.L10
 150              	.LBE9:
  47:main_cm4.c    **** 		}
  48:main_cm4.c    **** 		counter++;
 151              		.loc 1 48 0 is_stmt 1
 152 0092 0134     		adds	r4, r4, #1
 153              	.LVL8:
 154 0094 A4B2     		uxth	r4, r4
 155              	.LVL9:
  49:main_cm4.c    **** 		
  50:main_cm4.c    **** 		current_frame_written = current_frame_writing;
 156              		.loc 1 50 0
 157 0096 024B     		ldr	r3, .L13+4
 158              	.LVL10:
 159 0098 1D60     		str	r5, [r3]
ARM GAS  C:\Users\rdn\AppData\Local\Temp\ccidoW8j.s 			page 7


 160 009a C3E7     		b	.L2
 161              	.L14:
 162              		.align	2
 163              	.L13:
 164 009c 00000000 		.word	.LANCHOR0
 165 00a0 00000000 		.word	.LANCHOR1
 166 00a4 00000000 		.word	.LANCHOR2
 167 00a8 03000080 		.word	-2147483645
 168 00ac 00000000 		.word	.LANCHOR3
 169 00b0 00000000 		.word	.LC0
 170              	.LBE8:
 171              		.cfi_endproc
 172              	.LFE556:
 173              		.size	main, .-main
 174              		.global	current_frame_reading
 175              		.global	current_frame_written
 176              		.global	shared_buffer
 177              		.global	ble_connected
 178              		.section	.ble_connected,"aw",%progbits
 179              		.set	.LANCHOR2,. + 0
 180              		.type	ble_connected, %object
 181              		.size	ble_connected, 1
 182              	ble_connected:
 183 0000 00       		.space	1
 184              		.section	.current_frame_written,"aw",%progbits
 185              		.align	2
 186              		.set	.LANCHOR1,. + 0
 187              		.type	current_frame_written, %object
 188              		.size	current_frame_written, 4
 189              	current_frame_written:
 190 0000 00000000 		.space	4
 191              		.section	.current_frame_reading,"aw",%progbits
 192              		.align	2
 193              		.set	.LANCHOR3,. + 0
 194              		.type	current_frame_reading, %object
 195              		.size	current_frame_reading, 4
 196              	current_frame_reading:
 197 0000 00000000 		.space	4
 198              		.section	.rodata.str1.4,"aMS",%progbits,1
 199              		.align	2
 200              	.LC0:
 201 0000 6375725F 		.ascii	"cur_fr_r: %d, written: %d \012\000"
 201      66725F72 
 201      3A202564 
 201      2C207772 
 201      69747465 
 202              		.section	.shared_buffer,"aw",%progbits
 203              		.align	2
 204              		.set	.LANCHOR0,. + 0
 205              		.type	shared_buffer, %object
 206              		.size	shared_buffer, 3840
 207              	shared_buffer:
 208 0000 00000000 		.space	3840
 208      00000000 
 208      00000000 
 208      00000000 
 208      00000000 
ARM GAS  C:\Users\rdn\AppData\Local\Temp\ccidoW8j.s 			page 8


 209              		.text
 210              	.Letext0:
 211              		.file 3 "c:\\program files (x86)\\cypress\\psoc creator\\4.4\\psoc creator\\import\\gnu\\arm\\5.4.
 212              		.file 4 "c:\\program files (x86)\\cypress\\psoc creator\\4.4\\psoc creator\\import\\gnu\\arm\\5.4.
 213              		.file 5 "Generated_Source\\PSoC6\\pdl\\drivers/peripheral/device/cy_device.h"
 214              		.file 6 "Generated_Source\\PSoC6\\pdl\\drivers/peripheral/scb/cy_scb_uart.h"
 215              		.file 7 "Generated_Source\\PSoC6\\pdl\\drivers/peripheral/tcpwm/cy_tcpwm_counter.h"
 216              		.file 8 "Generated_Source\\PSoC6\\pdl\\cmsis/include/core_cm4.h"
 217              		.file 9 "Generated_Source\\PSoC6/UART_DEBUG.h"
 218              		.file 10 "Generated_Source\\PSoC6/TX_COUNTER.h"
 219              		.file 11 "shared.h"
 220              		.file 12 "c:\\program files (x86)\\cypress\\psoc creator\\4.4\\psoc creator\\import\\gnu\\arm\\5.4