ARM GAS  C:\Users\rdn\AppData\Local\Temp\ccsZKcok.s 			page 1


   1              		.syntax unified
   2              		.cpu cortex-m4
   3              		.eabi_attribute 27, 1
   4              		.fpu fpv4-sp-d16
   5              		.eabi_attribute 20, 1
   6              		.eabi_attribute 21, 1
   7              		.eabi_attribute 23, 3
   8              		.eabi_attribute 24, 1
   9              		.eabi_attribute 25, 1
  10              		.eabi_attribute 26, 1
  11              		.eabi_attribute 30, 1
  12              		.eabi_attribute 34, 1
  13              		.eabi_attribute 18, 4
  14              		.thumb
  15              		.syntax unified
  16              		.file	"mdct.c"
  17              		.text
  18              	.Ltext0:
  19              		.cfi_sections	.debug_frame
  20              		.section	.text.fft,"ax",%progbits
  21              		.align	2
  22              		.thumb
  23              		.thumb_func
  24              		.type	fft, %function
  25              	fft:
  26              	.LFB23:
  27              		.file 1 "..\\..\\..\\liblc3\\src\\mdct.c"
   1:..\..\..\liblc3\src/mdct.c **** /******************************************************************************
   2:..\..\..\liblc3\src/mdct.c ****  *
   3:..\..\..\liblc3\src/mdct.c ****  *  Copyright 2022 Google LLC
   4:..\..\..\liblc3\src/mdct.c ****  *
   5:..\..\..\liblc3\src/mdct.c ****  *  Licensed under the Apache License, Version 2.0 (the "License");
   6:..\..\..\liblc3\src/mdct.c ****  *  you may not use this file except in compliance with the License.
   7:..\..\..\liblc3\src/mdct.c ****  *  You may obtain a copy of the License at:
   8:..\..\..\liblc3\src/mdct.c ****  *
   9:..\..\..\liblc3\src/mdct.c ****  *  http://www.apache.org/licenses/LICENSE-2.0
  10:..\..\..\liblc3\src/mdct.c ****  *
  11:..\..\..\liblc3\src/mdct.c ****  *  Unless required by applicable law or agreed to in writing, software
  12:..\..\..\liblc3\src/mdct.c ****  *  distributed under the License is distributed on an "AS IS" BASIS,
  13:..\..\..\liblc3\src/mdct.c ****  *  WITHOUT WARRANTIES OR CONDITIONS OF ANY KIND, either express or implied.
  14:..\..\..\liblc3\src/mdct.c ****  *  See the License for the specific language governing permissions and
  15:..\..\..\liblc3\src/mdct.c ****  *  limitations under the License.
  16:..\..\..\liblc3\src/mdct.c ****  *
  17:..\..\..\liblc3\src/mdct.c ****  ******************************************************************************/
  18:..\..\..\liblc3\src/mdct.c **** 
  19:..\..\..\liblc3\src/mdct.c **** #include "mdct.h"
  20:..\..\..\liblc3\src/mdct.c **** #include "tables.h"
  21:..\..\..\liblc3\src/mdct.c **** 
  22:..\..\..\liblc3\src/mdct.c **** #include "mdct_neon.h"
  23:..\..\..\liblc3\src/mdct.c **** 
  24:..\..\..\liblc3\src/mdct.c **** 
  25:..\..\..\liblc3\src/mdct.c **** /* ----------------------------------------------------------------------------
  26:..\..\..\liblc3\src/mdct.c ****  *  FFT processing
  27:..\..\..\liblc3\src/mdct.c ****  * -------------------------------------------------------------------------- */
  28:..\..\..\liblc3\src/mdct.c **** 
  29:..\..\..\liblc3\src/mdct.c **** /**
  30:..\..\..\liblc3\src/mdct.c ****  * FFT 5 Points
ARM GAS  C:\Users\rdn\AppData\Local\Temp\ccsZKcok.s 			page 2


  31:..\..\..\liblc3\src/mdct.c ****  * x, y            Input and output coefficients, of size 5xn
  32:..\..\..\liblc3\src/mdct.c ****  * n               Number of interleaved transform to perform (n % 2 = 0)
  33:..\..\..\liblc3\src/mdct.c ****  */
  34:..\..\..\liblc3\src/mdct.c **** #ifndef fft_5
  35:..\..\..\liblc3\src/mdct.c **** LC3_HOT static inline void fft_5(
  36:..\..\..\liblc3\src/mdct.c ****     const struct lc3_complex *x, struct lc3_complex *y, int n)
  37:..\..\..\liblc3\src/mdct.c **** {
  38:..\..\..\liblc3\src/mdct.c ****     static const float cos1 =  0.3090169944;  /* cos(-2Pi 1/5) */
  39:..\..\..\liblc3\src/mdct.c ****     static const float cos2 = -0.8090169944;  /* cos(-2Pi 2/5) */
  40:..\..\..\liblc3\src/mdct.c **** 
  41:..\..\..\liblc3\src/mdct.c ****     static const float sin1 = -0.9510565163;  /* sin(-2Pi 1/5) */
  42:..\..\..\liblc3\src/mdct.c ****     static const float sin2 = -0.5877852523;  /* sin(-2Pi 2/5) */
  43:..\..\..\liblc3\src/mdct.c **** 
  44:..\..\..\liblc3\src/mdct.c ****     for (int i = 0; i < n; i++, x++, y+= 5) {
  45:..\..\..\liblc3\src/mdct.c **** 
  46:..\..\..\liblc3\src/mdct.c ****         struct lc3_complex s14 =
  47:..\..\..\liblc3\src/mdct.c ****             { x[1*n].re + x[4*n].re, x[1*n].im + x[4*n].im };
  48:..\..\..\liblc3\src/mdct.c ****         struct lc3_complex d14 =
  49:..\..\..\liblc3\src/mdct.c ****             { x[1*n].re - x[4*n].re, x[1*n].im - x[4*n].im };
  50:..\..\..\liblc3\src/mdct.c **** 
  51:..\..\..\liblc3\src/mdct.c ****         struct lc3_complex s23 =
  52:..\..\..\liblc3\src/mdct.c ****             { x[2*n].re + x[3*n].re, x[2*n].im + x[3*n].im };
  53:..\..\..\liblc3\src/mdct.c ****         struct lc3_complex d23 =
  54:..\..\..\liblc3\src/mdct.c ****             { x[2*n].re - x[3*n].re, x[2*n].im - x[3*n].im };
  55:..\..\..\liblc3\src/mdct.c **** 
  56:..\..\..\liblc3\src/mdct.c ****         y[0].re = x[0].re + s14.re + s23.re;
  57:..\..\..\liblc3\src/mdct.c **** 
  58:..\..\..\liblc3\src/mdct.c ****         y[0].im = x[0].im + s14.im + s23.im;
  59:..\..\..\liblc3\src/mdct.c **** 
  60:..\..\..\liblc3\src/mdct.c ****         y[1].re = x[0].re + s14.re * cos1 - d14.im * sin1
  61:..\..\..\liblc3\src/mdct.c ****                           + s23.re * cos2 - d23.im * sin2;
  62:..\..\..\liblc3\src/mdct.c **** 
  63:..\..\..\liblc3\src/mdct.c ****         y[1].im = x[0].im + s14.im * cos1 + d14.re * sin1
  64:..\..\..\liblc3\src/mdct.c ****                           + s23.im * cos2 + d23.re * sin2;
  65:..\..\..\liblc3\src/mdct.c **** 
  66:..\..\..\liblc3\src/mdct.c ****         y[2].re = x[0].re + s14.re * cos2 - d14.im * sin2
  67:..\..\..\liblc3\src/mdct.c ****                           + s23.re * cos1 + d23.im * sin1;
  68:..\..\..\liblc3\src/mdct.c **** 
  69:..\..\..\liblc3\src/mdct.c ****         y[2].im = x[0].im + s14.im * cos2 + d14.re * sin2
  70:..\..\..\liblc3\src/mdct.c ****                           + s23.im * cos1 - d23.re * sin1;
  71:..\..\..\liblc3\src/mdct.c **** 
  72:..\..\..\liblc3\src/mdct.c ****         y[3].re = x[0].re + s14.re * cos2 + d14.im * sin2
  73:..\..\..\liblc3\src/mdct.c ****                           + s23.re * cos1 - d23.im * sin1;
  74:..\..\..\liblc3\src/mdct.c **** 
  75:..\..\..\liblc3\src/mdct.c ****         y[3].im = x[0].im + s14.im * cos2 - d14.re * sin2
  76:..\..\..\liblc3\src/mdct.c ****                           + s23.im * cos1 + d23.re * sin1;
  77:..\..\..\liblc3\src/mdct.c **** 
  78:..\..\..\liblc3\src/mdct.c ****         y[4].re = x[0].re + s14.re * cos1 + d14.im * sin1
  79:..\..\..\liblc3\src/mdct.c ****                           + s23.re * cos2 + d23.im * sin2;
  80:..\..\..\liblc3\src/mdct.c **** 
  81:..\..\..\liblc3\src/mdct.c ****         y[4].im = x[0].im + s14.im * cos1 - d14.re * sin1
  82:..\..\..\liblc3\src/mdct.c ****                           + s23.im * cos2 - d23.re * sin2;
  83:..\..\..\liblc3\src/mdct.c ****     }
  84:..\..\..\liblc3\src/mdct.c **** }
  85:..\..\..\liblc3\src/mdct.c **** #endif /* fft_5 */
  86:..\..\..\liblc3\src/mdct.c **** 
  87:..\..\..\liblc3\src/mdct.c **** /**
ARM GAS  C:\Users\rdn\AppData\Local\Temp\ccsZKcok.s 			page 3


  88:..\..\..\liblc3\src/mdct.c ****  * FFT Butterfly 3 Points
  89:..\..\..\liblc3\src/mdct.c ****  * x, y            Input and output coefficients
  90:..\..\..\liblc3\src/mdct.c ****  * twiddles        Twiddles factors, determine size of transform
  91:..\..\..\liblc3\src/mdct.c ****  * n               Number of interleaved transforms
  92:..\..\..\liblc3\src/mdct.c ****  */
  93:..\..\..\liblc3\src/mdct.c **** #ifndef fft_bf3
  94:..\..\..\liblc3\src/mdct.c **** LC3_HOT static inline void fft_bf3(
  95:..\..\..\liblc3\src/mdct.c ****     const struct lc3_fft_bf3_twiddles *twiddles,
  96:..\..\..\liblc3\src/mdct.c ****     const struct lc3_complex *x, struct lc3_complex *y, int n)
  97:..\..\..\liblc3\src/mdct.c **** {
  98:..\..\..\liblc3\src/mdct.c ****     int n3 = twiddles->n3;
  99:..\..\..\liblc3\src/mdct.c ****     const struct lc3_complex (*w0)[2] = twiddles->t;
 100:..\..\..\liblc3\src/mdct.c ****     const struct lc3_complex (*w1)[2] = w0 + n3, (*w2)[2] = w1 + n3;
 101:..\..\..\liblc3\src/mdct.c **** 
 102:..\..\..\liblc3\src/mdct.c ****     const struct lc3_complex *x0 = x, *x1 = x0 + n*n3, *x2 = x1 + n*n3;
 103:..\..\..\liblc3\src/mdct.c ****     struct lc3_complex *y0 = y, *y1 = y0 + n3, *y2 = y1 + n3;
 104:..\..\..\liblc3\src/mdct.c **** 
 105:..\..\..\liblc3\src/mdct.c ****     for (int i = 0; i < n; i++, y0 += 3*n3, y1 += 3*n3, y2 += 3*n3)
 106:..\..\..\liblc3\src/mdct.c ****         for (int j = 0; j < n3; j++, x0++, x1++, x2++) {
 107:..\..\..\liblc3\src/mdct.c **** 
 108:..\..\..\liblc3\src/mdct.c ****             y0[j].re = x0->re + x1->re * w0[j][0].re - x1->im * w0[j][0].im
 109:..\..\..\liblc3\src/mdct.c ****                               + x2->re * w0[j][1].re - x2->im * w0[j][1].im;
 110:..\..\..\liblc3\src/mdct.c **** 
 111:..\..\..\liblc3\src/mdct.c ****             y0[j].im = x0->im + x1->im * w0[j][0].re + x1->re * w0[j][0].im
 112:..\..\..\liblc3\src/mdct.c ****                               + x2->im * w0[j][1].re + x2->re * w0[j][1].im;
 113:..\..\..\liblc3\src/mdct.c **** 
 114:..\..\..\liblc3\src/mdct.c ****             y1[j].re = x0->re + x1->re * w1[j][0].re - x1->im * w1[j][0].im
 115:..\..\..\liblc3\src/mdct.c ****                               + x2->re * w1[j][1].re - x2->im * w1[j][1].im;
 116:..\..\..\liblc3\src/mdct.c **** 
 117:..\..\..\liblc3\src/mdct.c ****             y1[j].im = x0->im + x1->im * w1[j][0].re + x1->re * w1[j][0].im
 118:..\..\..\liblc3\src/mdct.c ****                               + x2->im * w1[j][1].re + x2->re * w1[j][1].im;
 119:..\..\..\liblc3\src/mdct.c **** 
 120:..\..\..\liblc3\src/mdct.c ****             y2[j].re = x0->re + x1->re * w2[j][0].re - x1->im * w2[j][0].im
 121:..\..\..\liblc3\src/mdct.c ****                               + x2->re * w2[j][1].re - x2->im * w2[j][1].im;
 122:..\..\..\liblc3\src/mdct.c **** 
 123:..\..\..\liblc3\src/mdct.c ****             y2[j].im = x0->im + x1->im * w2[j][0].re + x1->re * w2[j][0].im
 124:..\..\..\liblc3\src/mdct.c ****                               + x2->im * w2[j][1].re + x2->re * w2[j][1].im;
 125:..\..\..\liblc3\src/mdct.c ****         }
 126:..\..\..\liblc3\src/mdct.c **** }
 127:..\..\..\liblc3\src/mdct.c **** #endif /* fft_bf3 */
 128:..\..\..\liblc3\src/mdct.c **** 
 129:..\..\..\liblc3\src/mdct.c **** /**
 130:..\..\..\liblc3\src/mdct.c ****  * FFT Butterfly 2 Points
 131:..\..\..\liblc3\src/mdct.c ****  * twiddles        Twiddles factors, determine size of transform
 132:..\..\..\liblc3\src/mdct.c ****  * x, y            Input and output coefficients
 133:..\..\..\liblc3\src/mdct.c ****  * n               Number of interleaved transforms
 134:..\..\..\liblc3\src/mdct.c ****  */
 135:..\..\..\liblc3\src/mdct.c **** #ifndef fft_bf2
 136:..\..\..\liblc3\src/mdct.c **** LC3_HOT static inline void fft_bf2(
 137:..\..\..\liblc3\src/mdct.c ****     const struct lc3_fft_bf2_twiddles *twiddles,
 138:..\..\..\liblc3\src/mdct.c ****     const struct lc3_complex *x, struct lc3_complex *y, int n)
 139:..\..\..\liblc3\src/mdct.c **** {
 140:..\..\..\liblc3\src/mdct.c ****     int n2 = twiddles->n2;
 141:..\..\..\liblc3\src/mdct.c ****     const struct lc3_complex *w = twiddles->t;
 142:..\..\..\liblc3\src/mdct.c **** 
 143:..\..\..\liblc3\src/mdct.c ****     const struct lc3_complex *x0 = x, *x1 = x0 + n*n2;
 144:..\..\..\liblc3\src/mdct.c ****     struct lc3_complex *y0 = y, *y1 = y0 + n2;
ARM GAS  C:\Users\rdn\AppData\Local\Temp\ccsZKcok.s 			page 4


 145:..\..\..\liblc3\src/mdct.c **** 
 146:..\..\..\liblc3\src/mdct.c ****     for (int i = 0; i < n; i++, y0 += 2*n2, y1 += 2*n2) {
 147:..\..\..\liblc3\src/mdct.c **** 
 148:..\..\..\liblc3\src/mdct.c ****         for (int j = 0; j < n2; j++, x0++, x1++) {
 149:..\..\..\liblc3\src/mdct.c **** 
 150:..\..\..\liblc3\src/mdct.c ****             y0[j].re = x0->re + x1->re * w[j].re - x1->im * w[j].im;
 151:..\..\..\liblc3\src/mdct.c ****             y0[j].im = x0->im + x1->im * w[j].re + x1->re * w[j].im;
 152:..\..\..\liblc3\src/mdct.c **** 
 153:..\..\..\liblc3\src/mdct.c ****             y1[j].re = x0->re - x1->re * w[j].re + x1->im * w[j].im;
 154:..\..\..\liblc3\src/mdct.c ****             y1[j].im = x0->im - x1->im * w[j].re - x1->re * w[j].im;
 155:..\..\..\liblc3\src/mdct.c ****         }
 156:..\..\..\liblc3\src/mdct.c ****     }
 157:..\..\..\liblc3\src/mdct.c **** }
 158:..\..\..\liblc3\src/mdct.c **** #endif /* fft_bf2 */
 159:..\..\..\liblc3\src/mdct.c **** 
 160:..\..\..\liblc3\src/mdct.c **** /**
 161:..\..\..\liblc3\src/mdct.c ****  * Perform FFT
 162:..\..\..\liblc3\src/mdct.c ****  * x, y0, y1       Input, and 2 scratch buffers of size `n`
 163:..\..\..\liblc3\src/mdct.c ****  * n               Number of points 30, 40, 60, 80, 90, 120, 160, 180, 240, 480
 164:..\..\..\liblc3\src/mdct.c ****  * return          The buffer `y0` or `y1` that hold the result
 165:..\..\..\liblc3\src/mdct.c ****  *
 166:..\..\..\liblc3\src/mdct.c ****  * Input `x` can be the same as the `y0` second scratch buffer
 167:..\..\..\liblc3\src/mdct.c ****  */
 168:..\..\..\liblc3\src/mdct.c **** static struct lc3_complex *fft(const struct lc3_complex *x, int n,
 169:..\..\..\liblc3\src/mdct.c ****     struct lc3_complex *y0, struct lc3_complex *y1)
 170:..\..\..\liblc3\src/mdct.c **** {
  28              		.loc 1 170 0
  29              		.cfi_startproc
  30              		@ args = 0, pretend = 0, frame = 32
  31              		@ frame_needed = 0, uses_anonymous_args = 0
  32              	.LVL0:
  33 0000 2DE9F04F 		push	{r4, r5, r6, r7, r8, r9, r10, fp, lr}
  34              		.cfi_def_cfa_offset 36
  35              		.cfi_offset 4, -36
  36              		.cfi_offset 5, -32
  37              		.cfi_offset 6, -28
  38              		.cfi_offset 7, -24
  39              		.cfi_offset 8, -20
  40              		.cfi_offset 9, -16
  41              		.cfi_offset 10, -12
  42              		.cfi_offset 11, -8
  43              		.cfi_offset 14, -4
  44 0004 2DED048B 		vpush.64	{d8, d9}
  45              		.cfi_def_cfa_offset 52
  46              		.cfi_offset 80, -52
  47              		.cfi_offset 81, -48
  48              		.cfi_offset 82, -44
  49              		.cfi_offset 83, -40
  50 0008 89B0     		sub	sp, sp, #36
  51              		.cfi_def_cfa_offset 88
 171:..\..\..\liblc3\src/mdct.c ****     struct lc3_complex *y[2] = { y1, y0 };
  52              		.loc 1 171 0
  53 000a 0693     		str	r3, [sp, #24]
  54 000c 0792     		str	r2, [sp, #28]
  55              	.LVL1:
 172:..\..\..\liblc3\src/mdct.c ****     int i2, i3, is = 0;
 173:..\..\..\liblc3\src/mdct.c **** 
ARM GAS  C:\Users\rdn\AppData\Local\Temp\ccsZKcok.s 			page 5


 174:..\..\..\liblc3\src/mdct.c ****     /* The number of points `n` can be decomposed as :
 175:..\..\..\liblc3\src/mdct.c ****      *
 176:..\..\..\liblc3\src/mdct.c ****      *   n = 5^1 * 3^n3 * 2^n2
 177:..\..\..\liblc3\src/mdct.c ****      *
 178:..\..\..\liblc3\src/mdct.c ****      *   for n = 10, 20, 40, 80, 160    n3 = 0, n2 = [1..5]
 179:..\..\..\liblc3\src/mdct.c ****      *       n = 30, 60, 120, 240, 480  n3 = 1, n2 = [1..5]
 180:..\..\..\liblc3\src/mdct.c ****      *       n = 90, 180                n3 = 2, n2 = [1..2]
 181:..\..\..\liblc3\src/mdct.c ****      *
 182:..\..\..\liblc3\src/mdct.c ****      * Note that the expression `n & (n-1) == 0` is equivalent
 183:..\..\..\liblc3\src/mdct.c ****      * to the check that `n` is a power of 2. */
 184:..\..\..\liblc3\src/mdct.c **** 
 185:..\..\..\liblc3\src/mdct.c ****     fft_5(x, y[is], n /= 5);
  56              		.loc 1 185 0
  57 000e 8C4A     		ldr	r2, .L17
  58              	.LVL2:
  59 0010 82FB0142 		smull	r4, r2, r2, r1
  60 0014 C917     		asrs	r1, r1, #31
  61              	.LVL3:
  62 0016 C1EB6202 		rsb	r2, r1, r2, asr #1
  63 001a 0392     		str	r2, [sp, #12]
  64              	.LVL4:
  65              	.LBB36:
  66              	.LBB37:
  67              	.LBB38:
  44:..\..\..\liblc3\src/mdct.c **** 
  68              		.loc 1 44 0
  69 001c 0021     		movs	r1, #0
  70 001e D8E0     		b	.L2
  71              	.LVL5:
  72              	.L3:
  73              	.LBB39:
  47:..\..\..\liblc3\src/mdct.c ****         struct lc3_complex d14 =
  74              		.loc 1 47 0
  75 0020 00EBC205 		add	r5, r0, r2, lsl #3
  76 0024 D5ED006A 		vldr.32	s13, [r5]
  77 0028 00EB4214 		add	r4, r0, r2, lsl #5
  78 002c 94ED007A 		vldr.32	s14, [r4]
  79 0030 36EE878A 		vadd.f32	s16, s13, s14
  80 0034 95ED015A 		vldr.32	s10, [r5, #4]
  81 0038 D4ED017A 		vldr.32	s15, [r4, #4]
  82 003c 75EE279A 		vadd.f32	s19, s10, s15
  49:..\..\..\liblc3\src/mdct.c **** 
  83              		.loc 1 49 0
  84 0040 36EEC72A 		vsub.f32	s4, s13, s14
  85 0044 35EE675A 		vsub.f32	s10, s10, s15
  52:..\..\..\liblc3\src/mdct.c ****         struct lc3_complex d23 =
  86              		.loc 1 52 0
  87 0048 00EB0215 		add	r5, r0, r2, lsl #4
  88 004c D5ED002A 		vldr.32	s5, [r5]
  89 0050 02EB4206 		add	r6, r2, r2, lsl #1
  90 0054 F400     		lsls	r4, r6, #3
  91 0056 0444     		add	r4, r4, r0
  92 0058 D4ED007A 		vldr.32	s15, [r4]
  93 005c 32EEA70A 		vadd.f32	s0, s5, s15
  94 0060 D5ED016A 		vldr.32	s13, [r5, #4]
  95 0064 94ED017A 		vldr.32	s14, [r4, #4]
  96 0068 76EE873A 		vadd.f32	s7, s13, s14
ARM GAS  C:\Users\rdn\AppData\Local\Temp\ccsZKcok.s 			page 6


  54:..\..\..\liblc3\src/mdct.c **** 
  97              		.loc 1 54 0
  98 006c 72EEE72A 		vsub.f32	s5, s5, s15
  99 0070 36EEC77A 		vsub.f32	s14, s13, s14
  56:..\..\..\liblc3\src/mdct.c **** 
 100              		.loc 1 56 0
 101 0074 D0ED007A 		vldr.32	s15, [r0]
 102 0078 78EE277A 		vadd.f32	s15, s16, s15
 103 007c 70EE277A 		vadd.f32	s15, s0, s15
 104 0080 C3ED007A 		vstr.32	s15, [r3]
  58:..\..\..\liblc3\src/mdct.c **** 
 105              		.loc 1 58 0
 106 0084 D0ED017A 		vldr.32	s15, [r0, #4]
 107 0088 79EEA77A 		vadd.f32	s15, s19, s15
 108 008c 73EEA77A 		vadd.f32	s15, s7, s15
 109 0090 C3ED017A 		vstr.32	s15, [r3, #4]
  60:..\..\..\liblc3\src/mdct.c ****                           + s23.re * cos2 - d23.im * sin2;
 110              		.loc 1 60 0
 111 0094 D0ED007A 		vldr.32	s15, [r0]
 112 0098 9FED6A6A 		vldr.32	s12, .L17+4
 113 009c 28EE064A 		vmul.f32	s8, s16, s12
 114 00a0 77EE845A 		vadd.f32	s11, s15, s8
 115 00a4 DFED686A 		vldr.32	s13, .L17+8
 116 00a8 65EE267A 		vmul.f32	s15, s10, s13
 117 00ac 75EEA77A 		vadd.f32	s15, s11, s15
  61:..\..\..\liblc3\src/mdct.c **** 
 118              		.loc 1 61 0
 119 00b0 DFED660A 		vldr.32	s1, .L17+12
 120 00b4 60EE204A 		vmul.f32	s9, s0, s1
 121 00b8 77EEA45A 		vadd.f32	s11, s15, s9
 122 00bc 9FED643A 		vldr.32	s6, .L17+16
 123 00c0 67EE037A 		vmul.f32	s15, s14, s6
 124 00c4 75EEA77A 		vadd.f32	s15, s11, s15
  60:..\..\..\liblc3\src/mdct.c ****                           + s23.re * cos2 - d23.im * sin2;
 125              		.loc 1 60 0
 126 00c8 C3ED027A 		vstr.32	s15, [r3, #8]
  63:..\..\..\liblc3\src/mdct.c ****                           + s23.im * cos2 + d23.re * sin2;
 127              		.loc 1 63 0
 128 00cc D0ED018A 		vldr.32	s17, [r0, #4]
 129 00d0 29EE861A 		vmul.f32	s2, s19, s12
 130 00d4 78EE818A 		vadd.f32	s17, s17, s2
 131 00d8 DFED5E5A 		vldr.32	s11, .L17+20
 132 00dc 62EE257A 		vmul.f32	s15, s4, s11
 133 00e0 78EEA78A 		vadd.f32	s17, s17, s15
  64:..\..\..\liblc3\src/mdct.c **** 
 134              		.loc 1 64 0
 135 00e4 63EEA01A 		vmul.f32	s3, s7, s1
 136 00e8 38EEA19A 		vadd.f32	s18, s17, s3
 137 00ec DFED5A7A 		vldr.32	s15, .L17+24
 138 00f0 62EEA78A 		vmul.f32	s17, s5, s15
 139 00f4 79EE288A 		vadd.f32	s17, s18, s17
  63:..\..\..\liblc3\src/mdct.c ****                           + s23.im * cos2 + d23.re * sin2;
 140              		.loc 1 63 0
 141 00f8 C3ED038A 		vstr.32	s17, [r3, #12]
  66:..\..\..\liblc3\src/mdct.c ****                           + s23.re * cos1 + d23.im * sin1;
 142              		.loc 1 66 0
 143 00fc D0ED008A 		vldr.32	s17, [r0]
ARM GAS  C:\Users\rdn\AppData\Local\Temp\ccsZKcok.s 			page 7


 144 0100 28EE208A 		vmul.f32	s16, s16, s1
 145 0104 38EE889A 		vadd.f32	s18, s17, s16
 146 0108 65EE038A 		vmul.f32	s17, s10, s6
 147 010c 79EE288A 		vadd.f32	s17, s18, s17
  67:..\..\..\liblc3\src/mdct.c **** 
 148              		.loc 1 67 0
 149 0110 20EE060A 		vmul.f32	s0, s0, s12
 150 0114 38EE809A 		vadd.f32	s18, s17, s0
 151 0118 67EE258A 		vmul.f32	s17, s14, s11
 152 011c 79EE288A 		vadd.f32	s17, s18, s17
  66:..\..\..\liblc3\src/mdct.c ****                           + s23.re * cos1 + d23.im * sin1;
 153              		.loc 1 66 0
 154 0120 C3ED048A 		vstr.32	s17, [r3, #16]
  69:..\..\..\liblc3\src/mdct.c ****                           + s23.im * cos1 - d23.re * sin1;
 155              		.loc 1 69 0
 156 0124 D0ED018A 		vldr.32	s17, [r0, #4]
 157 0128 69EEA00A 		vmul.f32	s1, s19, s1
 158 012c 38EEA09A 		vadd.f32	s18, s17, s1
 159 0130 62EE278A 		vmul.f32	s17, s4, s15
 160 0134 79EE288A 		vadd.f32	s17, s18, s17
  70:..\..\..\liblc3\src/mdct.c **** 
 161              		.loc 1 70 0
 162 0138 23EE866A 		vmul.f32	s12, s7, s12
 163 013c 78EE868A 		vadd.f32	s17, s17, s12
 164 0140 62EEA63A 		vmul.f32	s7, s5, s13
 165 0144 78EEA33A 		vadd.f32	s7, s17, s7
  69:..\..\..\liblc3\src/mdct.c ****                           + s23.im * cos1 - d23.re * sin1;
 166              		.loc 1 69 0
 167 0148 C3ED053A 		vstr.32	s7, [r3, #20]
  72:..\..\..\liblc3\src/mdct.c ****                           + s23.re * cos1 - d23.im * sin1;
 168              		.loc 1 72 0
 169 014c D0ED003A 		vldr.32	s7, [r0]
 170 0150 38EE238A 		vadd.f32	s16, s16, s7
 171 0154 65EE273A 		vmul.f32	s7, s10, s15
 172 0158 78EE233A 		vadd.f32	s7, s16, s7
  73:..\..\..\liblc3\src/mdct.c **** 
 173              		.loc 1 73 0
 174 015c 30EE230A 		vadd.f32	s0, s0, s7
 175 0160 67EE263A 		vmul.f32	s7, s14, s13
 176 0164 70EE233A 		vadd.f32	s7, s0, s7
  72:..\..\..\liblc3\src/mdct.c ****                           + s23.re * cos1 - d23.im * sin1;
 177              		.loc 1 72 0
 178 0168 C3ED063A 		vstr.32	s7, [r3, #24]
  75:..\..\..\liblc3\src/mdct.c ****                           + s23.im * cos1 + d23.re * sin1;
 179              		.loc 1 75 0
 180 016c D0ED013A 		vldr.32	s7, [r0, #4]
 181 0170 70EEA30A 		vadd.f32	s1, s1, s7
 182 0174 62EE033A 		vmul.f32	s7, s4, s6
 183 0178 70EEA33A 		vadd.f32	s7, s1, s7
  76:..\..\..\liblc3\src/mdct.c **** 
 184              		.loc 1 76 0
 185 017c 36EE236A 		vadd.f32	s12, s12, s7
 186 0180 62EEA50A 		vmul.f32	s1, s5, s11
 187 0184 36EE206A 		vadd.f32	s12, s12, s1
  75:..\..\..\liblc3\src/mdct.c ****                           + s23.im * cos1 + d23.re * sin1;
 188              		.loc 1 75 0
 189 0188 83ED076A 		vstr.32	s12, [r3, #28]
ARM GAS  C:\Users\rdn\AppData\Local\Temp\ccsZKcok.s 			page 8


  78:..\..\..\liblc3\src/mdct.c ****                           + s23.re * cos2 + d23.im * sin2;
 190              		.loc 1 78 0
 191 018c D0ED003A 		vldr.32	s7, [r0]
 192 0190 34EE234A 		vadd.f32	s8, s8, s7
 193 0194 65EE255A 		vmul.f32	s11, s10, s11
 194 0198 74EE255A 		vadd.f32	s11, s8, s11
  79:..\..\..\liblc3\src/mdct.c **** 
 195              		.loc 1 79 0
 196 019c 74EEA54A 		vadd.f32	s9, s9, s11
 197 01a0 67EE275A 		vmul.f32	s11, s14, s15
 198 01a4 74EEA55A 		vadd.f32	s11, s9, s11
  78:..\..\..\liblc3\src/mdct.c ****                           + s23.re * cos2 + d23.im * sin2;
 199              		.loc 1 78 0
 200 01a8 C3ED085A 		vstr.32	s11, [r3, #32]
  81:..\..\..\liblc3\src/mdct.c ****                           + s23.im * cos2 - d23.re * sin2;
 201              		.loc 1 81 0
 202 01ac 90ED016A 		vldr.32	s12, [r0, #4]
 203 01b0 31EE066A 		vadd.f32	s12, s2, s12
 204 01b4 62EE266A 		vmul.f32	s13, s4, s13
 205 01b8 36EE267A 		vadd.f32	s14, s12, s13
  82:..\..\..\liblc3\src/mdct.c ****     }
 206              		.loc 1 82 0
 207 01bc 31EE877A 		vadd.f32	s14, s3, s14
 208 01c0 62EE837A 		vmul.f32	s15, s5, s6
 209 01c4 77EE277A 		vadd.f32	s15, s14, s15
  81:..\..\..\liblc3\src/mdct.c ****                           + s23.im * cos2 - d23.re * sin2;
 210              		.loc 1 81 0
 211 01c8 C3ED097A 		vstr.32	s15, [r3, #36]
 212              	.LBE39:
  44:..\..\..\liblc3\src/mdct.c **** 
 213              		.loc 1 44 0
 214 01cc 0131     		adds	r1, r1, #1
 215              	.LVL6:
 216 01ce 0830     		adds	r0, r0, #8
 217              	.LVL7:
 218 01d0 2833     		adds	r3, r3, #40
 219              	.LVL8:
 220              	.L2:
 221 01d2 8A42     		cmp	r2, r1
 222 01d4 3FF724AF 		bgt	.L3
 223              	.LBE38:
 224              	.LBE37:
 225              	.LBE36:
 172:..\..\..\liblc3\src/mdct.c **** 
 226              		.loc 1 172 0
 227 01d8 0023     		movs	r3, #0
 228              	.LVL9:
 229 01da 0593     		str	r3, [sp, #20]
 186:..\..\..\liblc3\src/mdct.c **** 
 187:..\..\..\liblc3\src/mdct.c ****     for (i3 = 0; n & (n-1); i3++, is ^= 1)
 230              		.loc 1 187 0
 231 01dc 0493     		str	r3, [sp, #16]
 232 01de 41E1     		b	.L4
 233              	.LVL10:
 234              	.L8:
 188:..\..\..\liblc3\src/mdct.c ****         fft_bf3(lc3_fft_twiddles_bf3[i3], y[is], y[is ^ 1], n /= 3);
 235              		.loc 1 188 0 discriminator 3
ARM GAS  C:\Users\rdn\AppData\Local\Temp\ccsZKcok.s 			page 9


 236 01e0 1E4B     		ldr	r3, .L17+28
 237 01e2 049A     		ldr	r2, [sp, #16]
 238              	.LVL11:
 239 01e4 53F82220 		ldr	r2, [r3, r2, lsl #2]
 240 01e8 08A8     		add	r0, sp, #32
 241 01ea 0599     		ldr	r1, [sp, #20]
 242 01ec 00EB8103 		add	r3, r0, r1, lsl #2
 243 01f0 53F8084C 		ldr	r4, [r3, #-8]
 244 01f4 81F00103 		eor	r3, r1, #1
 245 01f8 0593     		str	r3, [sp, #20]
 246              	.LVL12:
 247 01fa 00EB8303 		add	r3, r0, r3, lsl #2
 248 01fe 53F8088C 		ldr	r8, [r3, #-8]
 249 0202 174B     		ldr	r3, .L17+32
 250 0204 0398     		ldr	r0, [sp, #12]
 251 0206 0146     		mov	r1, r0
 252 0208 83FB0113 		smull	r1, r3, r3, r1
 253 020c A3EBE073 		sub	r3, r3, r0, asr #31
 254 0210 1946     		mov	r1, r3
 255 0212 0393     		str	r3, [sp, #12]
 256              	.LVL13:
 257              	.LBB40:
 258              	.LBB41:
  98:..\..\..\liblc3\src/mdct.c ****     const struct lc3_complex (*w0)[2] = twiddles->t;
 259              		.loc 1 98 0 discriminator 3
 260 0214 1768     		ldr	r7, [r2]
 261              	.LVL14:
  99:..\..\..\liblc3\src/mdct.c ****     const struct lc3_complex (*w1)[2] = w0 + n3, (*w2)[2] = w1 + n3;
 262              		.loc 1 99 0 discriminator 3
 263 0216 D2F804A0 		ldr	r10, [r2, #4]
 264              	.LVL15:
 100:..\..\..\liblc3\src/mdct.c **** 
 265              		.loc 1 100 0 discriminator 3
 266 021a 3B01     		lsls	r3, r7, #4
 267 021c 0AEB0309 		add	r9, r10, r3
 268              	.LVL16:
 269 0220 4B44     		add	r3, r9, r3
 270 0222 0193     		str	r3, [sp, #4]
 271              	.LVL17:
 102:..\..\..\liblc3\src/mdct.c ****     struct lc3_complex *y0 = y, *y1 = y0 + n3, *y2 = y1 + n3;
 272              		.loc 1 102 0 discriminator 3
 273 0224 0B46     		mov	r3, r1
 274              	.LVL18:
 275 0226 03FB07F3 		mul	r3, r3, r7
 276 022a DB00     		lsls	r3, r3, #3
 277 022c E218     		adds	r2, r4, r3
 278              	.LVL19:
 279 022e 1344     		add	r3, r3, r2
 280              	.LVL20:
 103:..\..\..\liblc3\src/mdct.c **** 
 281              		.loc 1 103 0 discriminator 3
 282 0230 4FEAC70E 		lsl	lr, r7, #3
 283 0234 08EB0E0C 		add	ip, r8, lr
 284              	.LVL21:
 285 0238 E644     		add	lr, lr, ip
 286              	.LVL22:
 287              	.LBB42:
ARM GAS  C:\Users\rdn\AppData\Local\Temp\ccsZKcok.s 			page 10


 105:..\..\..\liblc3\src/mdct.c ****         for (int j = 0; j < n3; j++, x0++, x1++, x2++) {
 288              		.loc 1 105 0 discriminator 3
 289 023a 0021     		movs	r1, #0
 290              	.LVL23:
 291 023c 0291     		str	r1, [sp, #8]
 292 023e 0AE1     		b	.L5
 293              	.L18:
 294              		.align	2
 295              	.L17:
 296 0240 67666666 		.word	1717986919
 297 0244 7A379E3E 		.word	1050556282
 298 0248 7178733F 		.word	1064532081
 299 024c BD1B4FBF 		.word	-1085334595
 300 0250 1879163F 		.word	1058437400
 301 0254 717873BF 		.word	-1082951567
 302 0258 187916BF 		.word	-1089046248
 303 025c 00000000 		.word	lc3_fft_twiddles_bf3
 304 0260 56555555 		.word	1431655766
 305              	.LVL24:
 306              	.L6:
 307              	.LBB43:
 108:..\..\..\liblc3\src/mdct.c ****                               + x2->re * w0[j][1].re - x2->im * w0[j][1].im;
 308              		.loc 1 108 0
 309 0264 F500     		lsls	r5, r6, #3
 310 0266 08EB050B 		add	fp, r8, r5
 311 026a D4ED006A 		vldr.32	s13, [r4]
 312 026e 92ED007A 		vldr.32	s14, [r2]
 313 0272 3101     		lsls	r1, r6, #4
 314 0274 0AEB0100 		add	r0, r10, r1
 315 0278 D0ED007A 		vldr.32	s15, [r0]
 316 027c 27EE277A 		vmul.f32	s14, s14, s15
 317 0280 36EE877A 		vadd.f32	s14, s13, s14
 318 0284 D2ED016A 		vldr.32	s13, [r2, #4]
 319 0288 D0ED017A 		vldr.32	s15, [r0, #4]
 320 028c 66EEA77A 		vmul.f32	s15, s13, s15
 321 0290 77EE676A 		vsub.f32	s13, s14, s15
 109:..\..\..\liblc3\src/mdct.c **** 
 322              		.loc 1 109 0
 323 0294 93ED007A 		vldr.32	s14, [r3]
 324 0298 D0ED027A 		vldr.32	s15, [r0, #8]
 325 029c 67EE277A 		vmul.f32	s15, s14, s15
 326 02a0 36EEA77A 		vadd.f32	s14, s13, s15
 327 02a4 D3ED016A 		vldr.32	s13, [r3, #4]
 328 02a8 D0ED037A 		vldr.32	s15, [r0, #12]
 329 02ac 66EEA77A 		vmul.f32	s15, s13, s15
 330 02b0 77EE677A 		vsub.f32	s15, s14, s15
 108:..\..\..\liblc3\src/mdct.c ****                               + x2->re * w0[j][1].re - x2->im * w0[j][1].im;
 331              		.loc 1 108 0
 332 02b4 CBED007A 		vstr.32	s15, [fp]
 111:..\..\..\liblc3\src/mdct.c ****                               + x2->im * w0[j][1].re + x2->re * w0[j][1].im;
 333              		.loc 1 111 0
 334 02b8 D4ED016A 		vldr.32	s13, [r4, #4]
 335 02bc 92ED017A 		vldr.32	s14, [r2, #4]
 336 02c0 D0ED007A 		vldr.32	s15, [r0]
 337 02c4 27EE277A 		vmul.f32	s14, s14, s15
 338 02c8 36EE877A 		vadd.f32	s14, s13, s14
 339 02cc D2ED006A 		vldr.32	s13, [r2]
ARM GAS  C:\Users\rdn\AppData\Local\Temp\ccsZKcok.s 			page 11


 340 02d0 D0ED017A 		vldr.32	s15, [r0, #4]
 341 02d4 66EEA77A 		vmul.f32	s15, s13, s15
 342 02d8 77EE276A 		vadd.f32	s13, s14, s15
 112:..\..\..\liblc3\src/mdct.c **** 
 343              		.loc 1 112 0
 344 02dc 93ED017A 		vldr.32	s14, [r3, #4]
 345 02e0 D0ED027A 		vldr.32	s15, [r0, #8]
 346 02e4 67EE277A 		vmul.f32	s15, s14, s15
 347 02e8 36EEA77A 		vadd.f32	s14, s13, s15
 348 02ec D3ED006A 		vldr.32	s13, [r3]
 349 02f0 D0ED037A 		vldr.32	s15, [r0, #12]
 350 02f4 66EEA77A 		vmul.f32	s15, s13, s15
 351 02f8 77EE277A 		vadd.f32	s15, s14, s15
 111:..\..\..\liblc3\src/mdct.c ****                               + x2->im * w0[j][1].re + x2->re * w0[j][1].im;
 352              		.loc 1 111 0
 353 02fc CBED017A 		vstr.32	s15, [fp, #4]
 114:..\..\..\liblc3\src/mdct.c ****                               + x2->re * w1[j][1].re - x2->im * w1[j][1].im;
 354              		.loc 1 114 0
 355 0300 0CEB050B 		add	fp, ip, r5
 356 0304 D4ED006A 		vldr.32	s13, [r4]
 357 0308 92ED007A 		vldr.32	s14, [r2]
 358 030c 09EB0100 		add	r0, r9, r1
 359 0310 D0ED007A 		vldr.32	s15, [r0]
 360 0314 27EE277A 		vmul.f32	s14, s14, s15
 361 0318 36EE877A 		vadd.f32	s14, s13, s14
 362 031c D2ED016A 		vldr.32	s13, [r2, #4]
 363 0320 D0ED017A 		vldr.32	s15, [r0, #4]
 364 0324 66EEA77A 		vmul.f32	s15, s13, s15
 365 0328 77EE676A 		vsub.f32	s13, s14, s15
 115:..\..\..\liblc3\src/mdct.c **** 
 366              		.loc 1 115 0
 367 032c 93ED007A 		vldr.32	s14, [r3]
 368 0330 D0ED027A 		vldr.32	s15, [r0, #8]
 369 0334 67EE277A 		vmul.f32	s15, s14, s15
 370 0338 36EEA77A 		vadd.f32	s14, s13, s15
 371 033c D3ED016A 		vldr.32	s13, [r3, #4]
 372 0340 D0ED037A 		vldr.32	s15, [r0, #12]
 373 0344 66EEA77A 		vmul.f32	s15, s13, s15
 374 0348 77EE677A 		vsub.f32	s15, s14, s15
 114:..\..\..\liblc3\src/mdct.c ****                               + x2->re * w1[j][1].re - x2->im * w1[j][1].im;
 375              		.loc 1 114 0
 376 034c CBED007A 		vstr.32	s15, [fp]
 117:..\..\..\liblc3\src/mdct.c ****                               + x2->im * w1[j][1].re + x2->re * w1[j][1].im;
 377              		.loc 1 117 0
 378 0350 D4ED016A 		vldr.32	s13, [r4, #4]
 379 0354 92ED017A 		vldr.32	s14, [r2, #4]
 380 0358 D0ED007A 		vldr.32	s15, [r0]
 381 035c 27EE277A 		vmul.f32	s14, s14, s15
 382 0360 36EE877A 		vadd.f32	s14, s13, s14
 383 0364 D2ED006A 		vldr.32	s13, [r2]
 384 0368 D0ED017A 		vldr.32	s15, [r0, #4]
 385 036c 66EEA77A 		vmul.f32	s15, s13, s15
 386 0370 77EE276A 		vadd.f32	s13, s14, s15
 118:..\..\..\liblc3\src/mdct.c **** 
 387              		.loc 1 118 0
 388 0374 93ED017A 		vldr.32	s14, [r3, #4]
 389 0378 D0ED027A 		vldr.32	s15, [r0, #8]
ARM GAS  C:\Users\rdn\AppData\Local\Temp\ccsZKcok.s 			page 12


 390 037c 67EE277A 		vmul.f32	s15, s14, s15
 391 0380 36EEA77A 		vadd.f32	s14, s13, s15
 392 0384 D3ED006A 		vldr.32	s13, [r3]
 393 0388 D0ED037A 		vldr.32	s15, [r0, #12]
 394 038c 66EEA77A 		vmul.f32	s15, s13, s15
 395 0390 77EE277A 		vadd.f32	s15, s14, s15
 117:..\..\..\liblc3\src/mdct.c ****                               + x2->im * w1[j][1].re + x2->re * w1[j][1].im;
 396              		.loc 1 117 0
 397 0394 CBED017A 		vstr.32	s15, [fp, #4]
 120:..\..\..\liblc3\src/mdct.c ****                               + x2->re * w2[j][1].re - x2->im * w2[j][1].im;
 398              		.loc 1 120 0
 399 0398 7544     		add	r5, r5, lr
 400 039a D4ED006A 		vldr.32	s13, [r4]
 401 039e 92ED007A 		vldr.32	s14, [r2]
 402 03a2 0198     		ldr	r0, [sp, #4]
 403 03a4 0144     		add	r1, r1, r0
 404 03a6 D1ED007A 		vldr.32	s15, [r1]
 405 03aa 27EE277A 		vmul.f32	s14, s14, s15
 406 03ae 36EE877A 		vadd.f32	s14, s13, s14
 407 03b2 D2ED016A 		vldr.32	s13, [r2, #4]
 408 03b6 D1ED017A 		vldr.32	s15, [r1, #4]
 409 03ba 66EEA77A 		vmul.f32	s15, s13, s15
 410 03be 77EE676A 		vsub.f32	s13, s14, s15
 121:..\..\..\liblc3\src/mdct.c **** 
 411              		.loc 1 121 0
 412 03c2 93ED007A 		vldr.32	s14, [r3]
 413 03c6 D1ED027A 		vldr.32	s15, [r1, #8]
 414 03ca 67EE277A 		vmul.f32	s15, s14, s15
 415 03ce 36EEA77A 		vadd.f32	s14, s13, s15
 416 03d2 D3ED016A 		vldr.32	s13, [r3, #4]
 417 03d6 D1ED037A 		vldr.32	s15, [r1, #12]
 418 03da 66EEA77A 		vmul.f32	s15, s13, s15
 419 03de 77EE677A 		vsub.f32	s15, s14, s15
 120:..\..\..\liblc3\src/mdct.c ****                               + x2->re * w2[j][1].re - x2->im * w2[j][1].im;
 420              		.loc 1 120 0
 421 03e2 C5ED007A 		vstr.32	s15, [r5]
 123:..\..\..\liblc3\src/mdct.c ****                               + x2->im * w2[j][1].re + x2->re * w2[j][1].im;
 422              		.loc 1 123 0
 423 03e6 D4ED016A 		vldr.32	s13, [r4, #4]
 424 03ea 92ED017A 		vldr.32	s14, [r2, #4]
 425 03ee D1ED007A 		vldr.32	s15, [r1]
 426 03f2 27EE277A 		vmul.f32	s14, s14, s15
 427 03f6 36EE877A 		vadd.f32	s14, s13, s14
 428 03fa 1046     		mov	r0, r2
 429 03fc 0832     		adds	r2, r2, #8
 430              	.LVL25:
 431 03fe D0ED006A 		vldr.32	s13, [r0]
 432 0402 D1ED017A 		vldr.32	s15, [r1, #4]
 433 0406 66EEA77A 		vmul.f32	s15, s13, s15
 434 040a 77EE276A 		vadd.f32	s13, s14, s15
 124:..\..\..\liblc3\src/mdct.c ****         }
 435              		.loc 1 124 0
 436 040e 93ED017A 		vldr.32	s14, [r3, #4]
 437 0412 D1ED027A 		vldr.32	s15, [r1, #8]
 438 0416 67EE277A 		vmul.f32	s15, s14, s15
 439 041a 36EEA77A 		vadd.f32	s14, s13, s15
 440 041e 1846     		mov	r0, r3
ARM GAS  C:\Users\rdn\AppData\Local\Temp\ccsZKcok.s 			page 13


 441              	.LVL26:
 442 0420 0833     		adds	r3, r3, #8
 443              	.LVL27:
 444 0422 D0ED006A 		vldr.32	s13, [r0]
 445 0426 D1ED037A 		vldr.32	s15, [r1, #12]
 446 042a 66EEA77A 		vmul.f32	s15, s13, s15
 447 042e 77EE277A 		vadd.f32	s15, s14, s15
 123:..\..\..\liblc3\src/mdct.c ****                               + x2->im * w2[j][1].re + x2->re * w2[j][1].im;
 448              		.loc 1 123 0
 449 0432 C5ED017A 		vstr.32	s15, [r5, #4]
 106:..\..\..\liblc3\src/mdct.c **** 
 450              		.loc 1 106 0
 451 0436 0136     		adds	r6, r6, #1
 452              	.LVL28:
 453 0438 0834     		adds	r4, r4, #8
 454              	.LVL29:
 455 043a 00E0     		b	.L7
 456              	.LVL30:
 457              	.L14:
 458              	.LBE43:
 105:..\..\..\liblc3\src/mdct.c ****         for (int j = 0; j < n3; j++, x0++, x1++, x2++) {
 459              		.loc 1 105 0
 460 043c 0026     		movs	r6, #0
 461              	.LVL31:
 462              	.L7:
 463              	.LBB44:
 106:..\..\..\liblc3\src/mdct.c **** 
 464              		.loc 1 106 0
 465 043e B742     		cmp	r7, r6
 466 0440 3FF710AF 		bgt	.L6
 467              	.LBE44:
 105:..\..\..\liblc3\src/mdct.c ****         for (int j = 0; j < n3; j++, x0++, x1++, x2++) {
 468              		.loc 1 105 0
 469 0444 0299     		ldr	r1, [sp, #8]
 470 0446 0131     		adds	r1, r1, #1
 471 0448 0291     		str	r1, [sp, #8]
 472              	.LVL32:
 473 044a 07EB4700 		add	r0, r7, r7, lsl #1
 474 044e C100     		lsls	r1, r0, #3
 475              	.LVL33:
 476 0450 8844     		add	r8, r8, r1
 477              	.LVL34:
 478 0452 8C44     		add	ip, ip, r1
 479              	.LVL35:
 480 0454 8E44     		add	lr, lr, r1
 481              	.LVL36:
 482              	.L5:
 483 0456 0399     		ldr	r1, [sp, #12]
 484 0458 0298     		ldr	r0, [sp, #8]
 485 045a 8142     		cmp	r1, r0
 486 045c EEDC     		bgt	.L14
 487              	.LVL37:
 488              	.LBE42:
 489              	.LBE41:
 490              	.LBE40:
 187:..\..\..\liblc3\src/mdct.c ****         fft_bf3(lc3_fft_twiddles_bf3[i3], y[is], y[is ^ 1], n /= 3);
 491              		.loc 1 187 0 discriminator 3
ARM GAS  C:\Users\rdn\AppData\Local\Temp\ccsZKcok.s 			page 14


 492 045e 049B     		ldr	r3, [sp, #16]
 493 0460 0133     		adds	r3, r3, #1
 494 0462 0493     		str	r3, [sp, #16]
 495              	.LVL38:
 496              	.L4:
 187:..\..\..\liblc3\src/mdct.c ****         fft_bf3(lc3_fft_twiddles_bf3[i3], y[is], y[is ^ 1], n /= 3);
 497              		.loc 1 187 0 is_stmt 0 discriminator 1
 498 0464 039A     		ldr	r2, [sp, #12]
 499 0466 531E     		subs	r3, r2, #1
 500 0468 1A42     		tst	r2, r3
 501 046a 7FF4B9AE 		bne	.L8
 502 046e 4FF00009 		mov	r9, #0
 503 0472 9246     		mov	r10, r2
 504 0474 DDF814B0 		ldr	fp, [sp, #20]
 505 0478 86E0     		b	.L9
 506              	.LVL39:
 507              	.L13:
 189:..\..\..\liblc3\src/mdct.c **** 
 190:..\..\..\liblc3\src/mdct.c ****     for (i2 = 0; n > 1; i2++, is ^= 1)
 191:..\..\..\liblc3\src/mdct.c ****         fft_bf2(lc3_fft_twiddles_bf2[i2][i3], y[is], y[is ^ 1], n >>= 1);
 508              		.loc 1 191 0 is_stmt 1 discriminator 3
 509 047a 09EB4903 		add	r3, r9, r9, lsl #1
 510 047e 049A     		ldr	r2, [sp, #16]
 511 0480 1344     		add	r3, r3, r2
 512 0482 484A     		ldr	r2, .L19
 513 0484 52F82330 		ldr	r3, [r2, r3, lsl #2]
 514 0488 08AA     		add	r2, sp, #32
 515 048a 02EB8B02 		add	r2, r2, fp, lsl #2
 516 048e 52F8080C 		ldr	r0, [r2, #-8]
 517 0492 8BF0010B 		eor	fp, fp, #1
 518              	.LVL40:
 519 0496 08AA     		add	r2, sp, #32
 520 0498 02EB8B02 		add	r2, r2, fp, lsl #2
 521 049c 52F8087C 		ldr	r7, [r2, #-8]
 522 04a0 4FEA6A0A 		asr	r10, r10, #1
 523              	.LVL41:
 524              	.LBB45:
 525              	.LBB46:
 140:..\..\..\liblc3\src/mdct.c ****     const struct lc3_complex *w = twiddles->t;
 526              		.loc 1 140 0 discriminator 3
 527 04a4 1E68     		ldr	r6, [r3]
 528              	.LVL42:
 141:..\..\..\liblc3\src/mdct.c **** 
 529              		.loc 1 141 0 discriminator 3
 530 04a6 D3F804C0 		ldr	ip, [r3, #4]
 531              	.LVL43:
 143:..\..\..\liblc3\src/mdct.c ****     struct lc3_complex *y0 = y, *y1 = y0 + n2;
 532              		.loc 1 143 0 discriminator 3
 533 04aa 0AFB06F3 		mul	r3, r10, r6
 534              	.LVL44:
 535 04ae 00EBC303 		add	r3, r0, r3, lsl #3
 536              	.LVL45:
 144:..\..\..\liblc3\src/mdct.c **** 
 537              		.loc 1 144 0 discriminator 3
 538 04b2 07EBC60E 		add	lr, r7, r6, lsl #3
 539              	.LVL46:
 540              	.LBB47:
ARM GAS  C:\Users\rdn\AppData\Local\Temp\ccsZKcok.s 			page 15


 146:..\..\..\liblc3\src/mdct.c **** 
 541              		.loc 1 146 0 discriminator 3
 542 04b6 4FF00008 		mov	r8, #0
 543 04ba 61E0     		b	.L10
 544              	.LVL47:
 545              	.L11:
 546              	.LBB48:
 150:..\..\..\liblc3\src/mdct.c ****             y0[j].im = x0->im + x1->im * w[j].re + x1->re * w[j].im;
 547              		.loc 1 150 0
 548 04bc E100     		lsls	r1, r4, #3
 549 04be 7D18     		adds	r5, r7, r1
 550 04c0 D0ED006A 		vldr.32	s13, [r0]
 551 04c4 93ED007A 		vldr.32	s14, [r3]
 552 04c8 0CEB0102 		add	r2, ip, r1
 553 04cc D2ED007A 		vldr.32	s15, [r2]
 554 04d0 67EE277A 		vmul.f32	s15, s14, s15
 555 04d4 36EEA77A 		vadd.f32	s14, s13, s15
 556 04d8 D3ED016A 		vldr.32	s13, [r3, #4]
 557 04dc D2ED017A 		vldr.32	s15, [r2, #4]
 558 04e0 66EEA77A 		vmul.f32	s15, s13, s15
 559 04e4 77EE677A 		vsub.f32	s15, s14, s15
 560 04e8 C5ED007A 		vstr.32	s15, [r5]
 151:..\..\..\liblc3\src/mdct.c **** 
 561              		.loc 1 151 0
 562 04ec D0ED016A 		vldr.32	s13, [r0, #4]
 563 04f0 93ED017A 		vldr.32	s14, [r3, #4]
 564 04f4 D2ED007A 		vldr.32	s15, [r2]
 565 04f8 67EE277A 		vmul.f32	s15, s14, s15
 566 04fc 36EEA77A 		vadd.f32	s14, s13, s15
 567 0500 D3ED006A 		vldr.32	s13, [r3]
 568 0504 D2ED017A 		vldr.32	s15, [r2, #4]
 569 0508 66EEA77A 		vmul.f32	s15, s13, s15
 570 050c 77EE277A 		vadd.f32	s15, s14, s15
 571 0510 C5ED017A 		vstr.32	s15, [r5, #4]
 153:..\..\..\liblc3\src/mdct.c ****             y1[j].im = x0->im - x1->im * w[j].re - x1->re * w[j].im;
 572              		.loc 1 153 0
 573 0514 7144     		add	r1, r1, lr
 574 0516 D0ED006A 		vldr.32	s13, [r0]
 575 051a 93ED007A 		vldr.32	s14, [r3]
 576 051e D2ED007A 		vldr.32	s15, [r2]
 577 0522 67EE277A 		vmul.f32	s15, s14, s15
 578 0526 36EEE77A 		vsub.f32	s14, s13, s15
 579 052a D3ED016A 		vldr.32	s13, [r3, #4]
 580 052e D2ED017A 		vldr.32	s15, [r2, #4]
 581 0532 66EEA77A 		vmul.f32	s15, s13, s15
 582 0536 77EE277A 		vadd.f32	s15, s14, s15
 583 053a C1ED007A 		vstr.32	s15, [r1]
 154:..\..\..\liblc3\src/mdct.c ****         }
 584              		.loc 1 154 0
 585 053e D0ED016A 		vldr.32	s13, [r0, #4]
 586 0542 93ED017A 		vldr.32	s14, [r3, #4]
 587 0546 D2ED007A 		vldr.32	s15, [r2]
 588 054a 67EE277A 		vmul.f32	s15, s14, s15
 589 054e 36EEE77A 		vsub.f32	s14, s13, s15
 590 0552 1D46     		mov	r5, r3
 591 0554 0833     		adds	r3, r3, #8
 592              	.LVL48:
ARM GAS  C:\Users\rdn\AppData\Local\Temp\ccsZKcok.s 			page 16


 593 0556 D5ED006A 		vldr.32	s13, [r5]
 594 055a D2ED017A 		vldr.32	s15, [r2, #4]
 595 055e 66EEA77A 		vmul.f32	s15, s13, s15
 596 0562 77EE677A 		vsub.f32	s15, s14, s15
 597 0566 C1ED017A 		vstr.32	s15, [r1, #4]
 148:..\..\..\liblc3\src/mdct.c **** 
 598              		.loc 1 148 0
 599 056a 0134     		adds	r4, r4, #1
 600              	.LVL49:
 601 056c 0830     		adds	r0, r0, #8
 602              	.LVL50:
 603 056e 00E0     		b	.L12
 604              	.LVL51:
 605              	.L15:
 606              	.LBE48:
 146:..\..\..\liblc3\src/mdct.c **** 
 607              		.loc 1 146 0
 608 0570 0024     		movs	r4, #0
 609              	.L12:
 610              	.LVL52:
 611              	.LBB49:
 148:..\..\..\liblc3\src/mdct.c **** 
 612              		.loc 1 148 0
 613 0572 A642     		cmp	r6, r4
 614 0574 A2DC     		bgt	.L11
 615              	.LBE49:
 146:..\..\..\liblc3\src/mdct.c **** 
 616              		.loc 1 146 0
 617 0576 08F10108 		add	r8, r8, #1
 618              	.LVL53:
 619 057a 3201     		lsls	r2, r6, #4
 620 057c 1744     		add	r7, r7, r2
 621              	.LVL54:
 622 057e 9644     		add	lr, lr, r2
 623              	.LVL55:
 624              	.L10:
 625 0580 C245     		cmp	r10, r8
 626 0582 F5DC     		bgt	.L15
 627              	.LVL56:
 628              	.LBE47:
 629              	.LBE46:
 630              	.LBE45:
 190:..\..\..\liblc3\src/mdct.c ****         fft_bf2(lc3_fft_twiddles_bf2[i2][i3], y[is], y[is ^ 1], n >>= 1);
 631              		.loc 1 190 0 discriminator 3
 632 0584 09F10109 		add	r9, r9, #1
 633              	.LVL57:
 634              	.L9:
 190:..\..\..\liblc3\src/mdct.c ****         fft_bf2(lc3_fft_twiddles_bf2[i2][i3], y[is], y[is ^ 1], n >>= 1);
 635              		.loc 1 190 0 is_stmt 0 discriminator 1
 636 0588 BAF1010F 		cmp	r10, #1
 637 058c 3FF775AF 		bgt	.L13
 192:..\..\..\liblc3\src/mdct.c **** 
 193:..\..\..\liblc3\src/mdct.c ****     return y[is];
 638              		.loc 1 193 0 is_stmt 1
 639 0590 08AA     		add	r2, sp, #32
 640 0592 02EB8B03 		add	r3, r2, fp, lsl #2
 194:..\..\..\liblc3\src/mdct.c **** }
ARM GAS  C:\Users\rdn\AppData\Local\Temp\ccsZKcok.s 			page 17


 641              		.loc 1 194 0
 642 0596 53F8080C 		ldr	r0, [r3, #-8]
 643 059a 09B0     		add	sp, sp, #36
 644              		.cfi_def_cfa_offset 52
 645              		@ sp needed
 646 059c BDEC048B 		vldm	sp!, {d8-d9}
 647              		.cfi_restore 82
 648              		.cfi_restore 83
 649              		.cfi_restore 80
 650              		.cfi_restore 81
 651              		.cfi_def_cfa_offset 36
 652 05a0 BDE8F08F 		pop	{r4, r5, r6, r7, r8, r9, r10, fp, pc}
 653              	.LVL58:
 654              	.L20:
 655              		.align	2
 656              	.L19:
 657 05a4 00000000 		.word	lc3_fft_twiddles_bf2
 658              		.cfi_endproc
 659              	.LFE23:
 660              		.size	fft, .-fft
 661              		.section	.text.mdct_window,"ax",%progbits
 662              		.align	2
 663              		.thumb
 664              		.thumb_func
 665              		.type	mdct_window, %function
 666              	mdct_window:
 667              	.LFB24:
 195:..\..\..\liblc3\src/mdct.c **** 
 196:..\..\..\liblc3\src/mdct.c **** 
 197:..\..\..\liblc3\src/mdct.c **** /* ----------------------------------------------------------------------------
 198:..\..\..\liblc3\src/mdct.c ****  *  MDCT processing
 199:..\..\..\liblc3\src/mdct.c ****  * -------------------------------------------------------------------------- */
 200:..\..\..\liblc3\src/mdct.c **** 
 201:..\..\..\liblc3\src/mdct.c **** /**
 202:..\..\..\liblc3\src/mdct.c ****  * Windowing of samples before MDCT
 203:..\..\..\liblc3\src/mdct.c ****  * dt, sr          Duration and samplerate
 204:..\..\..\liblc3\src/mdct.c ****  * x, y            Input current and delayed samples
 205:..\..\..\liblc3\src/mdct.c ****  * y, d            Output windowed samples, and delayed ones
 206:..\..\..\liblc3\src/mdct.c ****  */
 207:..\..\..\liblc3\src/mdct.c **** LC3_HOT static void mdct_window(
 208:..\..\..\liblc3\src/mdct.c ****     enum lc3_dt dt, enum lc3_srate sr,
 209:..\..\..\liblc3\src/mdct.c ****     const float *x, float *d, float *y)
 210:..\..\..\liblc3\src/mdct.c **** {
 668              		.loc 1 210 0
 669              		.cfi_startproc
 670              		@ args = 4, pretend = 0, frame = 16
 671              		@ frame_needed = 0, uses_anonymous_args = 0
 672              	.LVL59:
 673 0000 2DE9F04F 		push	{r4, r5, r6, r7, r8, r9, r10, fp, lr}
 674              		.cfi_def_cfa_offset 36
 675              		.cfi_offset 4, -36
 676              		.cfi_offset 5, -32
 677              		.cfi_offset 6, -28
 678              		.cfi_offset 7, -24
 679              		.cfi_offset 8, -20
 680              		.cfi_offset 9, -16
 681              		.cfi_offset 10, -12
ARM GAS  C:\Users\rdn\AppData\Local\Temp\ccsZKcok.s 			page 18


 682              		.cfi_offset 11, -8
 683              		.cfi_offset 14, -4
 684 0004 85B0     		sub	sp, sp, #20
 685              		.cfi_def_cfa_offset 56
 686 0006 1746     		mov	r7, r2
 687 0008 9846     		mov	r8, r3
 211:..\..\..\liblc3\src/mdct.c ****     const float *win = lc3_mdct_win[dt][sr];
 688              		.loc 1 211 0
 689 000a C0EBC002 		rsb	r2, r0, r0, lsl #3
 690              	.LVL60:
 691 000e 0A44     		add	r2, r2, r1
 692 0010 6F4C     		ldr	r4, .L28
 693 0012 54F82250 		ldr	r5, [r4, r2, lsl #2]
 694              	.LVL61:
 695              	.LBB50:
 696              	.LBB51:
 697              		.file 2 "..\\..\\..\\liblc3\\src\\tables.h"
   1:..\..\..\liblc3\src/tables.h **** /******************************************************************************
   2:..\..\..\liblc3\src/tables.h ****  *
   3:..\..\..\liblc3\src/tables.h ****  *  Copyright 2022 Google LLC
   4:..\..\..\liblc3\src/tables.h ****  *
   5:..\..\..\liblc3\src/tables.h ****  *  Licensed under the Apache License, Version 2.0 (the "License");
   6:..\..\..\liblc3\src/tables.h ****  *  you may not use this file except in compliance with the License.
   7:..\..\..\liblc3\src/tables.h ****  *  You may obtain a copy of the License at:
   8:..\..\..\liblc3\src/tables.h ****  *
   9:..\..\..\liblc3\src/tables.h ****  *  http://www.apache.org/licenses/LICENSE-2.0
  10:..\..\..\liblc3\src/tables.h ****  *
  11:..\..\..\liblc3\src/tables.h ****  *  Unless required by applicable law or agreed to in writing, software
  12:..\..\..\liblc3\src/tables.h ****  *  distributed under the License is distributed on an "AS IS" BASIS,
  13:..\..\..\liblc3\src/tables.h ****  *  WITHOUT WARRANTIES OR CONDITIONS OF ANY KIND, either express or implied.
  14:..\..\..\liblc3\src/tables.h ****  *  See the License for the specific language governing permissions and
  15:..\..\..\liblc3\src/tables.h ****  *  limitations under the License.
  16:..\..\..\liblc3\src/tables.h ****  *
  17:..\..\..\liblc3\src/tables.h ****  ******************************************************************************/
  18:..\..\..\liblc3\src/tables.h **** 
  19:..\..\..\liblc3\src/tables.h **** #ifndef __LC3_TABLES_H
  20:..\..\..\liblc3\src/tables.h **** #define __LC3_TABLES_H
  21:..\..\..\liblc3\src/tables.h **** 
  22:..\..\..\liblc3\src/tables.h **** #include "common.h"
  23:..\..\..\liblc3\src/tables.h **** #include "bits.h"
  24:..\..\..\liblc3\src/tables.h **** 
  25:..\..\..\liblc3\src/tables.h **** 
  26:..\..\..\liblc3\src/tables.h **** /**
  27:..\..\..\liblc3\src/tables.h ****  * Characteristics
  28:..\..\..\liblc3\src/tables.h ****  *
  29:..\..\..\liblc3\src/tables.h ****  *   ns   Number of temporal samples / frequency coefficients within a frame
  30:..\..\..\liblc3\src/tables.h ****  *
  31:..\..\..\liblc3\src/tables.h ****  *   ne   Number of encoded frequency coefficients
  32:..\..\..\liblc3\src/tables.h ****  *
  33:..\..\..\liblc3\src/tables.h ****  *   nd   Number of MDCT delayed samples, sum of half a frame and an ovelap
  34:..\..\..\liblc3\src/tables.h ****  *        of future by 1.25 ms (2.5ms, 5ms and 10ms frame durations),
  35:..\..\..\liblc3\src/tables.h ****  *        or 2 ms (7.5ms frame duration).
  36:..\..\..\liblc3\src/tables.h ****  *
  37:..\..\..\liblc3\src/tables.h ****  *   nh   Number of 18 ms samples of the history buffer, aligned on a frame
  38:..\..\..\liblc3\src/tables.h ****  *
  39:..\..\..\liblc3\src/tables.h ****  *   nt   Number of 1.25 ms previous samples
  40:..\..\..\liblc3\src/tables.h ****  */
ARM GAS  C:\Users\rdn\AppData\Local\Temp\ccsZKcok.s 			page 19


  41:..\..\..\liblc3\src/tables.h **** 
  42:..\..\..\liblc3\src/tables.h **** extern const int lc3_ns_2m5[LC3_NUM_SRATE];
  43:..\..\..\liblc3\src/tables.h **** extern const int lc3_ne_2m5[LC3_NUM_SRATE];
  44:..\..\..\liblc3\src/tables.h **** extern const int lc3_ns_4m [LC3_NUM_SRATE];
  45:..\..\..\liblc3\src/tables.h **** 
  46:..\..\..\liblc3\src/tables.h **** static inline int lc3_ns(enum lc3_dt dt, enum lc3_srate sr) {
  47:..\..\..\liblc3\src/tables.h ****     return lc3_ns_2m5[sr] * (1 + dt);
 698              		.loc 2 47 0
 699 0016 6F4A     		ldr	r2, .L28+4
 700 0018 52F82120 		ldr	r2, [r2, r1, lsl #2]
 701 001c 00FB0226 		mla	r6, r0, r2, r2
 702              	.LVL62:
 703              	.LBE51:
 704              	.LBE50:
 705              	.LBB52:
 706              	.LBB53:
  48:..\..\..\liblc3\src/tables.h **** }
  49:..\..\..\liblc3\src/tables.h **** 
  50:..\..\..\liblc3\src/tables.h **** static inline int lc3_ne(enum lc3_dt dt, enum lc3_srate sr) {
  51:..\..\..\liblc3\src/tables.h ****     return lc3_ne_2m5[sr] * (1 + dt);
  52:..\..\..\liblc3\src/tables.h **** }
  53:..\..\..\liblc3\src/tables.h **** 
  54:..\..\..\liblc3\src/tables.h **** static inline int lc3_nd(enum lc3_dt dt, enum lc3_srate sr) {
  55:..\..\..\liblc3\src/tables.h ****     return ( lc3_ns(dt, sr) +
  56:..\..\..\liblc3\src/tables.h ****         (dt == LC3_DT_7M5 ? lc3_ns_4m[sr] : lc3_ns_2m5[sr]) ) >> 1;
 707              		.loc 2 56 0
 708 0020 0228     		cmp	r0, #2
 709 0022 02D1     		bne	.L22
 710 0024 6C4A     		ldr	r2, .L28+8
 711 0026 52F82120 		ldr	r2, [r2, r1, lsl #2]
 712              	.L22:
  55:..\..\..\liblc3\src/tables.h ****         (dt == LC3_DT_7M5 ? lc3_ns_4m[sr] : lc3_ns_2m5[sr]) ) >> 1;
 713              		.loc 2 55 0
 714 002a 3244     		add	r2, r2, r6
 715 002c 5210     		asrs	r2, r2, #1
 716              	.LVL63:
 717              	.LBE53:
 718              	.LBE52:
 212:..\..\..\liblc3\src/mdct.c ****     int ns = lc3_ns(dt, sr), nd = lc3_nd(dt, sr);
 213:..\..\..\liblc3\src/mdct.c **** 
 214:..\..\..\liblc3\src/mdct.c ****     const float *w0 = win, *w1 = w0 + ns;
 719              		.loc 1 214 0
 720 002e B100     		lsls	r1, r6, #2
 721              	.LVL64:
 722 0030 0191     		str	r1, [sp, #4]
 723 0032 6818     		adds	r0, r5, r1
 724              	.LVL65:
 215:..\..\..\liblc3\src/mdct.c ****     const float *w2 = w1, *w3 = w2 + nd;
 725              		.loc 1 215 0
 726 0034 9400     		lsls	r4, r2, #2
 727 0036 00EB040C 		add	ip, r0, r4
 728              	.LVL66:
 216:..\..\..\liblc3\src/mdct.c **** 
 217:..\..\..\liblc3\src/mdct.c ****     const float *x0 = x + ns-nd, *x1 = x0;
 729              		.loc 1 217 0
 730 003a B21A     		subs	r2, r6, r2
 731 003c 3B46     		mov	r3, r7
ARM GAS  C:\Users\rdn\AppData\Local\Temp\ccsZKcok.s 			page 20


 732              	.LVL67:
 733 003e 07EB8202 		add	r2, r7, r2, lsl #2
 734              	.LVL68:
 218:..\..\..\liblc3\src/mdct.c ****     float *y0 = y + ns/2, *y1 = y0;
 735              		.loc 1 218 0
 736 0042 06EBD676 		add	r6, r6, r6, lsr #31
 737 0046 7610     		asrs	r6, r6, #1
 738 0048 0E99     		ldr	r1, [sp, #56]
 739 004a 01EB8601 		add	r1, r1, r6, lsl #2
 740              	.LVL69:
 219:..\..\..\liblc3\src/mdct.c ****     float *d0 = d, *d1 = d + nd;
 741              		.loc 1 219 0
 742 004e 4444     		add	r4, r4, r8
 743              	.LVL70:
 218:..\..\..\liblc3\src/mdct.c ****     float *y0 = y + ns/2, *y1 = y0;
 744              		.loc 1 218 0
 745 0050 0F46     		mov	r7, r1
 746              	.LVL71:
 217:..\..\..\liblc3\src/mdct.c ****     float *y0 = y + ns/2, *y1 = y0;
 747              		.loc 1 217 0
 748 0052 9646     		mov	lr, r2
 215:..\..\..\liblc3\src/mdct.c **** 
 749              		.loc 1 215 0
 750 0054 0646     		mov	r6, r0
 751 0056 CDF808C0 		str	ip, [sp, #8]
 752 005a 0394     		str	r4, [sp, #12]
 753 005c 9B46     		mov	fp, r3
 754 005e 4346     		mov	r3, r8
 755              	.LVL72:
 220:..\..\..\liblc3\src/mdct.c **** 
 221:..\..\..\liblc3\src/mdct.c ****     while (x1 > x) {
 756              		.loc 1 221 0
 757 0060 45E0     		b	.L23
 758              	.LVL73:
 759              	.L24:
 222:..\..\..\liblc3\src/mdct.c ****         *(--y0) = *d0 * *(w0++) - *(--x1) * *(--w1);
 760              		.loc 1 222 0
 761 0062 93ED007A 		vldr.32	s14, [r3]
 762              	.LVL74:
 763 0066 05F1080C 		add	ip, r5, #8
 764 006a D5ED007A 		vldr.32	s15, [r5]
 765 006e 27EE277A 		vmul.f32	s14, s14, s15
 766              	.LVL75:
 767 0072 5EED016A 		vldr.32	s13, [lr, #-4]
 768              	.LVL76:
 769 0076 50ED017A 		vldr.32	s15, [r0, #-4]
 770 007a 66EEA77A 		vmul.f32	s15, s13, s15
 771 007e 77EE677A 		vsub.f32	s15, s14, s15
 772 0082 41ED017A 		vstr.32	s15, [r1, #-4]
 773              	.LVL77:
 223:..\..\..\liblc3\src/mdct.c ****         *(y1++) = (*(d0++) = *(x0++)) * *(w2++);
 774              		.loc 1 223 0
 775 0086 02F10809 		add	r9, r2, #8
 776 008a D2ED007A 		vldr.32	s15, [r2]
 777 008e C3ED007A 		vstr.32	s15, [r3]
 778              	.LVL78:
 779 0092 06F10808 		add	r8, r6, #8
ARM GAS  C:\Users\rdn\AppData\Local\Temp\ccsZKcok.s 			page 21


 780 0096 96ED007A 		vldr.32	s14, [r6]
 781 009a 67EE877A 		vmul.f32	s15, s15, s14
 782 009e BA46     		mov	r10, r7
 783 00a0 17EE904A 		vmov	r4, s15
 784 00a4 4AF8084B 		str	r4, [r10], #8	@ float
 785              	.LVL79:
 224:..\..\..\liblc3\src/mdct.c **** 
 225:..\..\..\liblc3\src/mdct.c ****         *(--y0) = *d0 * *(w0++) - *(--x1) * *(--w1);
 786              		.loc 1 225 0
 787 00a8 93ED017A 		vldr.32	s14, [r3, #4]
 788              	.LVL80:
 789 00ac D5ED017A 		vldr.32	s15, [r5, #4]
 790 00b0 27EE277A 		vmul.f32	s14, s14, s15
 791              	.LVL81:
 792 00b4 5EED026A 		vldr.32	s13, [lr, #-8]
 793              	.LVL82:
 794 00b8 50ED027A 		vldr.32	s15, [r0, #-8]
 795 00bc 66EEA77A 		vmul.f32	s15, s13, s15
 796 00c0 77EE677A 		vsub.f32	s15, s14, s15
 797 00c4 41ED027A 		vstr.32	s15, [r1, #-8]
 798              	.LVL83:
 226:..\..\..\liblc3\src/mdct.c ****         *(y1++) = (*(d0++) = *(x0++)) * *(w2++);
 799              		.loc 1 226 0
 800 00c8 D2ED017A 		vldr.32	s15, [r2, #4]
 801 00cc C3ED017A 		vstr.32	s15, [r3, #4]
 802              	.LVL84:
 803 00d0 96ED017A 		vldr.32	s14, [r6, #4]
 804 00d4 67EE877A 		vmul.f32	s15, s15, s14
 805 00d8 C7ED017A 		vstr.32	s15, [r7, #4]
 806 00dc 0833     		adds	r3, r3, #8
 807              	.LVL85:
 808 00de 5746     		mov	r7, r10
 225:..\..\..\liblc3\src/mdct.c ****         *(y1++) = (*(d0++) = *(x0++)) * *(w2++);
 809              		.loc 1 225 0
 810 00e0 0839     		subs	r1, r1, #8
 811              	.LVL86:
 812 00e2 AEF1080E 		sub	lr, lr, #8
 813              	.LVL87:
 814              		.loc 1 226 0
 815 00e6 4A46     		mov	r2, r9
 816 00e8 4646     		mov	r6, r8
 225:..\..\..\liblc3\src/mdct.c ****         *(y1++) = (*(d0++) = *(x0++)) * *(w2++);
 817              		.loc 1 225 0
 818 00ea 0838     		subs	r0, r0, #8
 819              	.LVL88:
 820 00ec 6546     		mov	r5, ip
 821              	.LVL89:
 822              	.L23:
 221:..\..\..\liblc3\src/mdct.c ****         *(--y0) = *d0 * *(w0++) - *(--x1) * *(--w1);
 823              		.loc 1 221 0
 824 00ee DE45     		cmp	lr, fp
 825 00f0 B7D8     		bhi	.L24
 826 00f2 DDF808C0 		ldr	ip, [sp, #8]
 827 00f6 039C     		ldr	r4, [sp, #12]
 828 00f8 9846     		mov	r8, r3
 227:..\..\..\liblc3\src/mdct.c ****     }
 228:..\..\..\liblc3\src/mdct.c **** 
ARM GAS  C:\Users\rdn\AppData\Local\Temp\ccsZKcok.s 			page 22


 229:..\..\..\liblc3\src/mdct.c ****     for (x1 += ns; x0 < x1; ) {
 829              		.loc 1 229 0
 830 00fa 019B     		ldr	r3, [sp, #4]
 831              	.LVL90:
 832 00fc 9E44     		add	lr, lr, r3
 833              	.LVL91:
 834 00fe 0191     		str	r1, [sp, #4]
 835 0100 4346     		mov	r3, r8
 836 0102 60E0     		b	.L25
 837              	.LVL92:
 838              	.L26:
 230:..\..\..\liblc3\src/mdct.c ****         *(--y0) = *d0 * *(w0++) - *(--d1) * *(--w1);
 839              		.loc 1 230 0
 840 0104 93ED007A 		vldr.32	s14, [r3]
 841              	.LVL93:
 842 0108 05F10808 		add	r8, r5, #8
 843 010c D5ED007A 		vldr.32	s15, [r5]
 844 0110 27EE277A 		vmul.f32	s14, s14, s15
 845              	.LVL94:
 846 0114 54ED016A 		vldr.32	s13, [r4, #-4]
 847              	.LVL95:
 848 0118 50ED017A 		vldr.32	s15, [r0, #-4]
 849 011c 66EEA77A 		vmul.f32	s15, s13, s15
 850 0120 77EE677A 		vsub.f32	s15, s14, s15
 851 0124 0199     		ldr	r1, [sp, #4]
 852 0126 41ED017A 		vstr.32	s15, [r1, #-4]
 853              	.LVL96:
 231:..\..\..\liblc3\src/mdct.c ****         *(y1++) = (*(d0++) = *(x0++)) * *(w2++) + (*d1 = *(--x1)) * *(--w3);
 854              		.loc 1 231 0
 855 012a 02F1080A 		add	r10, r2, #8
 856 012e D2ED007A 		vldr.32	s15, [r2]
 857 0132 C3ED007A 		vstr.32	s15, [r3]
 858              	.LVL97:
 859 0136 06F10809 		add	r9, r6, #8
 860 013a D6ED006A 		vldr.32	s13, [r6]
 861 013e 67EEA66A 		vmul.f32	s13, s15, s13
 862              	.LVL98:
 863 0142 5EED017A 		vldr.32	s15, [lr, #-4]
 864 0146 44ED017A 		vstr.32	s15, [r4, #-4]
 865              	.LVL99:
 866 014a 1CED017A 		vldr.32	s14, [ip, #-4]
 867 014e 27EE877A 		vmul.f32	s14, s15, s14
 868 0152 76EE877A 		vadd.f32	s15, s13, s14
 869 0156 BB46     		mov	fp, r7
 870 0158 17EE901A 		vmov	r1, s15
 871 015c 4BF8081B 		str	r1, [fp], #8	@ float
 872              	.LVL100:
 232:..\..\..\liblc3\src/mdct.c **** 
 233:..\..\..\liblc3\src/mdct.c ****         *(--y0) = *d0 * *(w0++) - *(--d1) * *(--w1);
 873              		.loc 1 233 0
 874 0160 93ED017A 		vldr.32	s14, [r3, #4]
 875              	.LVL101:
 876 0164 D5ED017A 		vldr.32	s15, [r5, #4]
 877 0168 27EE277A 		vmul.f32	s14, s14, s15
 878              	.LVL102:
 879 016c 54ED026A 		vldr.32	s13, [r4, #-8]
 880              	.LVL103:
ARM GAS  C:\Users\rdn\AppData\Local\Temp\ccsZKcok.s 			page 23


 881 0170 50ED027A 		vldr.32	s15, [r0, #-8]
 882 0174 66EEA77A 		vmul.f32	s15, s13, s15
 883 0178 77EE677A 		vsub.f32	s15, s14, s15
 884 017c 019D     		ldr	r5, [sp, #4]
 885 017e 45ED027A 		vstr.32	s15, [r5, #-8]
 886              	.LVL104:
 234:..\..\..\liblc3\src/mdct.c ****         *(y1++) = (*(d0++) = *(x0++)) * *(w2++) + (*d1 = *(--x1)) * *(--w3);
 887              		.loc 1 234 0
 888 0182 D2ED017A 		vldr.32	s15, [r2, #4]
 889 0186 C3ED017A 		vstr.32	s15, [r3, #4]
 890              	.LVL105:
 891 018a D6ED016A 		vldr.32	s13, [r6, #4]
 892 018e 67EEA66A 		vmul.f32	s13, s15, s13
 893              	.LVL106:
 894 0192 5EED027A 		vldr.32	s15, [lr, #-8]
 895 0196 44ED027A 		vstr.32	s15, [r4, #-8]
 896              	.LVL107:
 897 019a 1CED027A 		vldr.32	s14, [ip, #-8]
 898 019e 27EE877A 		vmul.f32	s14, s15, s14
 899 01a2 76EE877A 		vadd.f32	s15, s13, s14
 900 01a6 C7ED017A 		vstr.32	s15, [r7, #4]
 233:..\..\..\liblc3\src/mdct.c ****         *(y1++) = (*(d0++) = *(x0++)) * *(w2++) + (*d1 = *(--x1)) * *(--w3);
 901              		.loc 1 233 0
 902 01aa 083C     		subs	r4, r4, #8
 903              	.LVL108:
 904              		.loc 1 234 0
 905 01ac 0833     		adds	r3, r3, #8
 906              	.LVL109:
 907 01ae 5F46     		mov	r7, fp
 233:..\..\..\liblc3\src/mdct.c ****         *(y1++) = (*(d0++) = *(x0++)) * *(w2++) + (*d1 = *(--x1)) * *(--w3);
 908              		.loc 1 233 0
 909 01b0 A5F10802 		sub	r2, r5, #8
 910              	.LVL110:
 911 01b4 0192     		str	r2, [sp, #4]
 912              		.loc 1 234 0
 913 01b6 AEF1080E 		sub	lr, lr, #8
 914              	.LVL111:
 915 01ba 5246     		mov	r2, r10
 916              	.LVL112:
 917 01bc ACF1080C 		sub	ip, ip, #8
 918              	.LVL113:
 919 01c0 4E46     		mov	r6, r9
 233:..\..\..\liblc3\src/mdct.c ****         *(y1++) = (*(d0++) = *(x0++)) * *(w2++) + (*d1 = *(--x1)) * *(--w3);
 920              		.loc 1 233 0
 921 01c2 0838     		subs	r0, r0, #8
 922              	.LVL114:
 923 01c4 4546     		mov	r5, r8
 924              	.LVL115:
 925              	.L25:
 229:..\..\..\liblc3\src/mdct.c ****         *(--y0) = *d0 * *(w0++) - *(--d1) * *(--w1);
 926              		.loc 1 229 0 discriminator 1
 927 01c6 7245     		cmp	r2, lr
 928 01c8 9CD3     		bcc	.L26
 235:..\..\..\liblc3\src/mdct.c ****     }
 236:..\..\..\liblc3\src/mdct.c **** }
 929              		.loc 1 236 0
 930 01ca 05B0     		add	sp, sp, #20
ARM GAS  C:\Users\rdn\AppData\Local\Temp\ccsZKcok.s 			page 24


 931              		.cfi_def_cfa_offset 36
 932              		@ sp needed
 933 01cc BDE8F08F 		pop	{r4, r5, r6, r7, r8, r9, r10, fp, pc}
 934              	.LVL116:
 935              	.L29:
 936              		.align	2
 937              	.L28:
 938 01d0 00000000 		.word	lc3_mdct_win
 939 01d4 00000000 		.word	lc3_ns_2m5
 940 01d8 00000000 		.word	lc3_ns_4m
 941              		.cfi_endproc
 942              	.LFE24:
 943              		.size	mdct_window, .-mdct_window
 944              		.section	.text.mdct_pre_fft,"ax",%progbits
 945              		.align	2
 946              		.thumb
 947              		.thumb_func
 948              		.type	mdct_pre_fft, %function
 949              	mdct_pre_fft:
 950              	.LFB25:
 237:..\..\..\liblc3\src/mdct.c **** 
 238:..\..\..\liblc3\src/mdct.c **** /**
 239:..\..\..\liblc3\src/mdct.c ****  * Pre-rotate MDCT coefficients of N/2 points, before FFT N/4 points FFT
 240:..\..\..\liblc3\src/mdct.c ****  * def             Size and twiddles factors
 241:..\..\..\liblc3\src/mdct.c ****  * x, y            Input and output coefficients
 242:..\..\..\liblc3\src/mdct.c ****  *
 243:..\..\..\liblc3\src/mdct.c ****  * `x` and y` can be the same buffer
 244:..\..\..\liblc3\src/mdct.c ****  */
 245:..\..\..\liblc3\src/mdct.c **** LC3_HOT static void mdct_pre_fft(const struct lc3_mdct_rot_def *def,
 246:..\..\..\liblc3\src/mdct.c ****     const float *x, struct lc3_complex *y)
 247:..\..\..\liblc3\src/mdct.c **** {
 951              		.loc 1 247 0
 952              		.cfi_startproc
 953              		@ args = 0, pretend = 0, frame = 32
 954              		@ frame_needed = 0, uses_anonymous_args = 0
 955              	.LVL117:
 956 0000 F0B5     		push	{r4, r5, r6, r7, lr}
 957              		.cfi_def_cfa_offset 20
 958              		.cfi_offset 4, -20
 959              		.cfi_offset 5, -16
 960              		.cfi_offset 6, -12
 961              		.cfi_offset 7, -8
 962              		.cfi_offset 14, -4
 963 0002 89B0     		sub	sp, sp, #36
 964              		.cfi_def_cfa_offset 56
 965 0004 0B46     		mov	r3, r1
 248:..\..\..\liblc3\src/mdct.c ****     int n4 = def->n4;
 966              		.loc 1 248 0
 967 0006 0568     		ldr	r5, [r0]
 968              	.LVL118:
 249:..\..\..\liblc3\src/mdct.c **** 
 250:..\..\..\liblc3\src/mdct.c ****     const float *x0 = x, *x1 = x0 + 2*n4;
 969              		.loc 1 250 0
 970 0008 ED00     		lsls	r5, r5, #3
 971              	.LVL119:
 972 000a 4C19     		adds	r4, r1, r5
 973              	.LVL120:
ARM GAS  C:\Users\rdn\AppData\Local\Temp\ccsZKcok.s 			page 25


 251:..\..\..\liblc3\src/mdct.c ****     const struct lc3_complex *w0 = def->w, *w1 = w0 + n4;
 974              		.loc 1 251 0
 975 000c 4668     		ldr	r6, [r0, #4]
 976              	.LVL121:
 977 000e 7719     		adds	r7, r6, r5
 978              	.LVL122:
 252:..\..\..\liblc3\src/mdct.c ****     struct lc3_complex *y0 = y, *y1 = y0 + n4;
 979              		.loc 1 252 0
 980 0010 1544     		add	r5, r5, r2
 981              	.LVL123:
 253:..\..\..\liblc3\src/mdct.c **** 
 254:..\..\..\liblc3\src/mdct.c ****     while (x0 < x1) {
 982              		.loc 1 254 0
 983 0012 49E0     		b	.L31
 984              	.LVL124:
 985              	.L32:
 986              	.LBB54:
 255:..\..\..\liblc3\src/mdct.c ****         struct lc3_complex u, uw = *(w0++);
 987              		.loc 1 255 0
 988 0014 0DF1080E 		add	lr, sp, #8
 989 0018 96E80300 		ldmia	r6, {r0, r1}
 990 001c 8EE80300 		stmia	lr, {r0, r1}
 991              	.LVL125:
 256:..\..\..\liblc3\src/mdct.c ****         u.re = - *(--x1) * uw.re + *x0 * uw.im;
 992              		.loc 1 256 0
 993 0020 14ED017A 		vldr.32	s14, [r4, #-4]
 994 0024 DDED027A 		vldr.32	s15, [sp, #8]
 995 0028 67EE676A 		vnmul.f32	s13, s14, s15
 996 002c D3ED005A 		vldr.32	s11, [r3]
 997 0030 9DED036A 		vldr.32	s12, [sp, #12]
 998 0034 25EE865A 		vmul.f32	s10, s11, s12
 999 0038 76EE856A 		vadd.f32	s13, s13, s10
 1000 003c CDED006A 		vstr.32	s13, [sp]
 1001              	.LVL126:
 257:..\..\..\liblc3\src/mdct.c ****         u.im =   *(x0++) * uw.re + *x1 * uw.im;
 1002              		.loc 1 257 0
 1003 0040 67EEA57A 		vmul.f32	s15, s15, s11
 1004 0044 27EE067A 		vmul.f32	s14, s14, s12
 1005 0048 77EE877A 		vadd.f32	s15, s15, s14
 1006 004c CDED017A 		vstr.32	s15, [sp, #4]
 258:..\..\..\liblc3\src/mdct.c **** 
 259:..\..\..\liblc3\src/mdct.c ****         struct lc3_complex v, vw = *(--w1);
 1007              		.loc 1 259 0
 1008 0050 083F     		subs	r7, r7, #8
 1009              	.LVL127:
 1010 0052 97E80300 		ldmia	r7, {r0, r1}
 1011 0056 0DF1200E 		add	lr, sp, #32
 1012 005a 0EE90300 		stmdb	lr, {r0, r1}
 1013              	.LVL128:
 260:..\..\..\liblc3\src/mdct.c ****         v.re = - *(--x1) * vw.im + *x0 * vw.re;
 1014              		.loc 1 260 0
 1015 005e 14ED027A 		vldr.32	s14, [r4, #-8]
 1016 0062 DDED075A 		vldr.32	s11, [sp, #28]
 1017 0066 67EE656A 		vnmul.f32	s13, s14, s11
 1018 006a D3ED017A 		vldr.32	s15, [r3, #4]
 1019 006e 9DED066A 		vldr.32	s12, [sp, #24]
 1020 0072 27EE865A 		vmul.f32	s10, s15, s12
ARM GAS  C:\Users\rdn\AppData\Local\Temp\ccsZKcok.s 			page 26


 1021 0076 76EE856A 		vadd.f32	s13, s13, s10
 1022 007a CDED046A 		vstr.32	s13, [sp, #16]
 261:..\..\..\liblc3\src/mdct.c ****         v.im = - *(x0++) * vw.im - *x1 * vw.re;
 1023              		.loc 1 261 0
 1024 007e 0833     		adds	r3, r3, #8
 1025              	.LVL129:
 1026 0080 67EEE57A 		vnmul.f32	s15, s15, s11
 1027 0084 27EE067A 		vmul.f32	s14, s14, s12
 1028 0088 77EEC77A 		vsub.f32	s15, s15, s14
 1029 008c CDED057A 		vstr.32	s15, [sp, #20]
 1030              	.LVL130:
 262:..\..\..\liblc3\src/mdct.c **** 
 263:..\..\..\liblc3\src/mdct.c ****         *(y0++) = u;
 1031              		.loc 1 263 0
 1032 0090 9DE80300 		ldmia	sp, {r0, r1}
 1033 0094 82E80300 		stmia	r2, {r0, r1}
 264:..\..\..\liblc3\src/mdct.c ****         *(--y1) = v;
 1034              		.loc 1 264 0
 1035 0098 083D     		subs	r5, r5, #8
 1036              	.LVL131:
 1037 009a 04A9     		add	r1, sp, #16
 1038 009c 03C9     		ldmia	r1, {r0, r1}
 1039 009e 85E80300 		stmia	r5, {r0, r1}
 263:..\..\..\liblc3\src/mdct.c ****         *(--y1) = v;
 1040              		.loc 1 263 0
 1041 00a2 0832     		adds	r2, r2, #8
 1042              	.LVL132:
 255:..\..\..\liblc3\src/mdct.c ****         u.re = - *(--x1) * uw.re + *x0 * uw.im;
 1043              		.loc 1 255 0
 1044 00a4 0836     		adds	r6, r6, #8
 1045              	.LVL133:
 260:..\..\..\liblc3\src/mdct.c ****         v.im = - *(x0++) * vw.im - *x1 * vw.re;
 1046              		.loc 1 260 0
 1047 00a6 083C     		subs	r4, r4, #8
 1048              	.LVL134:
 1049              	.L31:
 1050              	.LBE54:
 254:..\..\..\liblc3\src/mdct.c ****         struct lc3_complex u, uw = *(w0++);
 1051              		.loc 1 254 0
 1052 00a8 A342     		cmp	r3, r4
 1053 00aa B3D3     		bcc	.L32
 265:..\..\..\liblc3\src/mdct.c ****     }
 266:..\..\..\liblc3\src/mdct.c **** }
 1054              		.loc 1 266 0
 1055 00ac 09B0     		add	sp, sp, #36
 1056              		.cfi_def_cfa_offset 20
 1057              		@ sp needed
 1058 00ae F0BD     		pop	{r4, r5, r6, r7, pc}
 1059              		.cfi_endproc
 1060              	.LFE25:
 1061              		.size	mdct_pre_fft, .-mdct_pre_fft
 1062              		.section	.text.mdct_post_fft,"ax",%progbits
 1063              		.align	2
 1064              		.thumb
 1065              		.thumb_func
 1066              		.type	mdct_post_fft, %function
 1067              	mdct_post_fft:
ARM GAS  C:\Users\rdn\AppData\Local\Temp\ccsZKcok.s 			page 27


 1068              	.LFB26:
 267:..\..\..\liblc3\src/mdct.c **** 
 268:..\..\..\liblc3\src/mdct.c **** /**
 269:..\..\..\liblc3\src/mdct.c ****  * Post-rotate FFT N/4 points coefficients, resulting MDCT N points
 270:..\..\..\liblc3\src/mdct.c ****  * def             Size and twiddles factors
 271:..\..\..\liblc3\src/mdct.c ****  * x, y            Input and output coefficients
 272:..\..\..\liblc3\src/mdct.c ****  *
 273:..\..\..\liblc3\src/mdct.c ****  * `x` and y` can be the same buffer
 274:..\..\..\liblc3\src/mdct.c ****  */
 275:..\..\..\liblc3\src/mdct.c **** LC3_HOT static void mdct_post_fft(const struct lc3_mdct_rot_def *def,
 276:..\..\..\liblc3\src/mdct.c ****     const struct lc3_complex *x, float *y)
 277:..\..\..\liblc3\src/mdct.c **** {
 1069              		.loc 1 277 0
 1070              		.cfi_startproc
 1071              		@ args = 0, pretend = 0, frame = 0
 1072              		@ frame_needed = 0, uses_anonymous_args = 0
 1073              	.LVL135:
 1074 0000 F0B5     		push	{r4, r5, r6, r7, lr}
 1075              		.cfi_def_cfa_offset 20
 1076              		.cfi_offset 4, -20
 1077              		.cfi_offset 5, -16
 1078              		.cfi_offset 6, -12
 1079              		.cfi_offset 7, -8
 1080              		.cfi_offset 14, -4
 278:..\..\..\liblc3\src/mdct.c ****     int n4 = def->n4, n8 = n4 >> 1;
 1081              		.loc 1 278 0
 1082 0002 0568     		ldr	r5, [r0]
 1083              	.LVL136:
 1084 0004 6B10     		asrs	r3, r5, #1
 1085              	.LVL137:
 279:..\..\..\liblc3\src/mdct.c **** 
 280:..\..\..\liblc3\src/mdct.c ****     const struct lc3_complex *w0 = def->w + n8, *w1 = w0 - 1;
 1086              		.loc 1 280 0
 1087 0006 4668     		ldr	r6, [r0, #4]
 1088 0008 DB00     		lsls	r3, r3, #3
 1089              	.LVL138:
 1090 000a 1E44     		add	r6, r6, r3
 1091              	.LVL139:
 1092 000c A6F10807 		sub	r7, r6, #8
 1093              	.LVL140:
 281:..\..\..\liblc3\src/mdct.c ****     const struct lc3_complex *x0 = x + n8, *x1 = x0 - 1;
 1094              		.loc 1 281 0
 1095 0010 1944     		add	r1, r1, r3
 1096              	.LVL141:
 1097 0012 A1F10800 		sub	r0, r1, #8
 1098              	.LVL142:
 282:..\..\..\liblc3\src/mdct.c **** 
 283:..\..\..\liblc3\src/mdct.c ****     float *y0 = y + n4, *y1 = y0;
 1099              		.loc 1 283 0
 1100 0016 02EB8505 		add	r5, r2, r5, lsl #2
 1101              	.LVL143:
 1102 001a 2B46     		mov	r3, r5
 284:..\..\..\liblc3\src/mdct.c **** 
 285:..\..\..\liblc3\src/mdct.c ****     for ( ; y1 > y; x0++, x1--, w0++, w1--) {
 1103              		.loc 1 285 0
 1104 001c 3BE0     		b	.L35
 1105              	.LVL144:
ARM GAS  C:\Users\rdn\AppData\Local\Temp\ccsZKcok.s 			page 28


 1106              	.L36:
 1107              	.LBB55:
 286:..\..\..\liblc3\src/mdct.c **** 
 287:..\..\..\liblc3\src/mdct.c ****         float u0 = x0->im * w0->im + x0->re * w0->re;
 1108              		.loc 1 287 0 discriminator 2
 1109 001e 91ED016A 		vldr.32	s12, [r1, #4]
 1110 0022 96ED017A 		vldr.32	s14, [r6, #4]
 1111 0026 66EE077A 		vmul.f32	s15, s12, s14
 1112 002a 0C46     		mov	r4, r1
 1113 002c 0831     		adds	r1, r1, #8
 1114              	.LVL145:
 1115 002e 94ED003A 		vldr.32	s6, [r4]
 1116 0032 3446     		mov	r4, r6
 1117              	.LVL146:
 1118 0034 0836     		adds	r6, r6, #8
 1119              	.LVL147:
 1120 0036 D4ED003A 		vldr.32	s7, [r4]
 1121 003a 23EE235A 		vmul.f32	s10, s6, s7
 1122 003e 37EE855A 		vadd.f32	s10, s15, s10
 1123              	.LVL148:
 288:..\..\..\liblc3\src/mdct.c ****         float u1 = x1->re * w1->im - x1->im * w1->re;
 1124              		.loc 1 288 0 discriminator 2
 1125 0042 D0ED006A 		vldr.32	s13, [r0]
 1126 0046 D7ED017A 		vldr.32	s15, [r7, #4]
 1127 004a 66EEA75A 		vmul.f32	s11, s13, s15
 1128 004e 90ED014A 		vldr.32	s8, [r0, #4]
 1129 0052 3C46     		mov	r4, r7
 1130              	.LVL149:
 1131 0054 083F     		subs	r7, r7, #8
 1132              	.LVL150:
 1133 0056 D4ED004A 		vldr.32	s9, [r4]
 1134 005a 64EE242A 		vmul.f32	s5, s8, s9
 1135 005e 75EEE25A 		vsub.f32	s11, s11, s5
 1136              	.LVL151:
 289:..\..\..\liblc3\src/mdct.c **** 
 290:..\..\..\liblc3\src/mdct.c ****         float v0 = x0->re * w0->im - x0->im * w0->re;
 1137              		.loc 1 290 0 discriminator 2
 1138 0062 27EE037A 		vmul.f32	s14, s14, s6
 1139 0066 26EE236A 		vmul.f32	s12, s12, s7
 1140 006a 37EE467A 		vsub.f32	s14, s14, s12
 1141              	.LVL152:
 291:..\..\..\liblc3\src/mdct.c ****         float v1 = x1->im * w1->im + x1->re * w1->re;
 1142              		.loc 1 291 0 discriminator 2
 1143 006e 67EE847A 		vmul.f32	s15, s15, s8
 1144 0072 66EEA46A 		vmul.f32	s13, s13, s9
 1145 0076 77EEA67A 		vadd.f32	s15, s15, s13
 1146              	.LVL153:
 292:..\..\..\liblc3\src/mdct.c **** 
 293:..\..\..\liblc3\src/mdct.c ****         *(y0++) = u0;  *(y0++) = u1;
 1147              		.loc 1 293 0 discriminator 2
 1148 007a 2C46     		mov	r4, r5
 1149              	.LVL154:
 1150 007c 15EE10EA 		vmov	lr, s10
 1151 0080 44F808EB 		str	lr, [r4], #8	@ float
 1152              	.LVL155:
 1153 0084 C5ED015A 		vstr.32	s11, [r5, #4]
 1154              	.LVL156:
ARM GAS  C:\Users\rdn\AppData\Local\Temp\ccsZKcok.s 			page 29


 294:..\..\..\liblc3\src/mdct.c ****         *(--y1) = v0;  *(--y1) = v1;
 1155              		.loc 1 294 0 discriminator 2
 1156 0088 03ED017A 		vstr.32	s14, [r3, #-4]
 1157              	.LVL157:
 1158 008c 43ED027A 		vstr.32	s15, [r3, #-8]
 1159              	.LVL158:
 1160              	.LBE55:
 285:..\..\..\liblc3\src/mdct.c **** 
 1161              		.loc 1 285 0 discriminator 2
 1162 0090 0838     		subs	r0, r0, #8
 1163              	.LVL159:
 1164              	.LBB56:
 1165              		.loc 1 294 0 discriminator 2
 1166 0092 083B     		subs	r3, r3, #8
 1167              	.LVL160:
 293:..\..\..\liblc3\src/mdct.c ****         *(--y1) = v0;  *(--y1) = v1;
 1168              		.loc 1 293 0 discriminator 2
 1169 0094 2546     		mov	r5, r4
 1170              	.LVL161:
 1171              	.L35:
 1172              	.LBE56:
 285:..\..\..\liblc3\src/mdct.c **** 
 1173              		.loc 1 285 0 discriminator 1
 1174 0096 9342     		cmp	r3, r2
 1175 0098 C1D8     		bhi	.L36
 295:..\..\..\liblc3\src/mdct.c ****     }
 296:..\..\..\liblc3\src/mdct.c **** }
 1176              		.loc 1 296 0
 1177 009a F0BD     		pop	{r4, r5, r6, r7, pc}
 1178              		.cfi_endproc
 1179              	.LFE26:
 1180              		.size	mdct_post_fft, .-mdct_post_fft
 1181              		.section	.text.imdct_pre_fft,"ax",%progbits
 1182              		.align	2
 1183              		.thumb
 1184              		.thumb_func
 1185              		.type	imdct_pre_fft, %function
 1186              	imdct_pre_fft:
 1187              	.LFB27:
 297:..\..\..\liblc3\src/mdct.c **** 
 298:..\..\..\liblc3\src/mdct.c **** /**
 299:..\..\..\liblc3\src/mdct.c ****  * Pre-rotate IMDCT coefficients of N points, before FFT N/4 points FFT
 300:..\..\..\liblc3\src/mdct.c ****  * def             Size and twiddles factors
 301:..\..\..\liblc3\src/mdct.c ****  * x, y            Input and output coefficients
 302:..\..\..\liblc3\src/mdct.c ****  *
 303:..\..\..\liblc3\src/mdct.c ****  * `x` and `y` can be the same buffer
 304:..\..\..\liblc3\src/mdct.c ****  * The real and imaginary parts of `y` are swapped,
 305:..\..\..\liblc3\src/mdct.c ****  * to operate on FFT instead of IFFT
 306:..\..\..\liblc3\src/mdct.c ****  */
 307:..\..\..\liblc3\src/mdct.c **** LC3_HOT static void imdct_pre_fft(const struct lc3_mdct_rot_def *def,
 308:..\..\..\liblc3\src/mdct.c ****     const float *x, struct lc3_complex *y)
 309:..\..\..\liblc3\src/mdct.c **** {
 1188              		.loc 1 309 0
 1189              		.cfi_startproc
 1190              		@ args = 0, pretend = 0, frame = 16
 1191              		@ frame_needed = 0, uses_anonymous_args = 0
 1192              	.LVL162:
ARM GAS  C:\Users\rdn\AppData\Local\Temp\ccsZKcok.s 			page 30


 1193 0000 F0B5     		push	{r4, r5, r6, r7, lr}
 1194              		.cfi_def_cfa_offset 20
 1195              		.cfi_offset 4, -20
 1196              		.cfi_offset 5, -16
 1197              		.cfi_offset 6, -12
 1198              		.cfi_offset 7, -8
 1199              		.cfi_offset 14, -4
 1200 0002 85B0     		sub	sp, sp, #20
 1201              		.cfi_def_cfa_offset 40
 310:..\..\..\liblc3\src/mdct.c ****     int n4 = def->n4;
 1202              		.loc 1 310 0
 1203 0004 0768     		ldr	r7, [r0]
 1204              	.LVL163:
 311:..\..\..\liblc3\src/mdct.c **** 
 312:..\..\..\liblc3\src/mdct.c ****     const float *x0 = x, *x1 = x0 + 2*n4;
 1205              		.loc 1 312 0
 1206 0006 FF00     		lsls	r7, r7, #3
 1207              	.LVL164:
 1208 0008 CB19     		adds	r3, r1, r7
 1209              	.LVL165:
 313:..\..\..\liblc3\src/mdct.c **** 
 314:..\..\..\liblc3\src/mdct.c ****     const struct lc3_complex *w0 = def->w, *w1 = w0 + n4;
 1210              		.loc 1 314 0
 1211 000a 4468     		ldr	r4, [r0, #4]
 1212              	.LVL166:
 1213 000c E519     		adds	r5, r4, r7
 1214              	.LVL167:
 315:..\..\..\liblc3\src/mdct.c ****     struct lc3_complex *y0 = y, *y1 = y0 + n4;
 1215              		.loc 1 315 0
 1216 000e 1744     		add	r7, r7, r2
 1217              	.LVL168:
 316:..\..\..\liblc3\src/mdct.c **** 
 317:..\..\..\liblc3\src/mdct.c ****     while (x0 < x1) {
 1218              		.loc 1 317 0
 1219 0010 45E0     		b	.L39
 1220              	.LVL169:
 1221              	.L40:
 1222              	.LBB57:
 318:..\..\..\liblc3\src/mdct.c ****         float u0 = *(x0++), u1 = *(--x1);
 1223              		.loc 1 318 0
 1224 0012 0E46     		mov	r6, r1
 1225 0014 0836     		adds	r6, r6, #8
 1226 0016 91ED006A 		vldr.32	s12, [r1]
 1227              	.LVL170:
 1228 001a 13ED017A 		vldr.32	s14, [r3, #-4]
 1229              	.LVL171:
 319:..\..\..\liblc3\src/mdct.c ****         float v0 = *(x0++), v1 = *(--x1);
 1230              		.loc 1 319 0
 1231 001e D1ED017A 		vldr.32	s15, [r1, #4]
 1232              	.LVL172:
 1233 0022 53ED026A 		vldr.32	s13, [r3, #-8]
 1234              	.LVL173:
 320:..\..\..\liblc3\src/mdct.c ****         struct lc3_complex uw = *(w0++), vw = *(--w1);
 1235              		.loc 1 320 0
 1236 0026 94E80300 		ldmia	r4, {r0, r1}
 1237 002a 8DE80300 		stmia	sp, {r0, r1}
 1238 002e 083D     		subs	r5, r5, #8
ARM GAS  C:\Users\rdn\AppData\Local\Temp\ccsZKcok.s 			page 31


 1239              	.LVL174:
 1240 0030 95E80300 		ldmia	r5, {r0, r1}
 1241 0034 0DF1100E 		add	lr, sp, #16
 1242 0038 0EE90300 		stmdb	lr, {r0, r1}
 321:..\..\..\liblc3\src/mdct.c **** 
 322:..\..\..\liblc3\src/mdct.c ****         (y0  )->re = - u0 * uw.re - u1 * uw.im;
 1243              		.loc 1 322 0
 1244 003c DDED004A 		vldr.32	s9, [sp]
 1245 0040 66EE645A 		vnmul.f32	s11, s12, s9
 1246 0044 9DED015A 		vldr.32	s10, [sp, #4]
 1247 0048 27EE054A 		vmul.f32	s8, s14, s10
 1248 004c 75EEC45A 		vsub.f32	s11, s11, s8
 1249 0050 1146     		mov	r1, r2
 1250 0052 15EE900A 		vmov	r0, s11
 1251 0056 41F8080B 		str	r0, [r1], #8	@ float
 1252              	.LVL175:
 323:..\..\..\liblc3\src/mdct.c ****         (y0++)->im = - u1 * uw.re + u0 * uw.im;
 1253              		.loc 1 323 0
 1254 005a 27EE647A 		vnmul.f32	s14, s14, s9
 1255              	.LVL176:
 1256 005e 26EE056A 		vmul.f32	s12, s12, s10
 1257              	.LVL177:
 1258 0062 37EE067A 		vadd.f32	s14, s14, s12
 1259 0066 82ED017A 		vstr.32	s14, [r2, #4]
 324:..\..\..\liblc3\src/mdct.c **** 
 325:..\..\..\liblc3\src/mdct.c ****         (--y1)->re = - v1 * vw.re - v0 * vw.im;
 1260              		.loc 1 325 0
 1261 006a DDED025A 		vldr.32	s11, [sp, #8]
 1262 006e 26EEE57A 		vnmul.f32	s14, s13, s11
 1263 0072 9DED036A 		vldr.32	s12, [sp, #12]
 1264 0076 27EE865A 		vmul.f32	s10, s15, s12
 1265 007a 37EE457A 		vsub.f32	s14, s14, s10
 1266 007e 17EE102A 		vmov	r2, s14
 1267 0082 47F8082D 		str	r2, [r7, #-8]!	@ float
 1268              	.LVL178:
 326:..\..\..\liblc3\src/mdct.c ****         (  y1)->im = - v0 * vw.re + v1 * vw.im;
 1269              		.loc 1 326 0
 1270 0086 67EEE57A 		vnmul.f32	s15, s15, s11
 1271              	.LVL179:
 1272 008a 66EE866A 		vmul.f32	s13, s13, s12
 1273              	.LVL180:
 1274 008e 77EEA67A 		vadd.f32	s15, s15, s13
 1275 0092 C7ED017A 		vstr.32	s15, [r7, #4]
 323:..\..\..\liblc3\src/mdct.c ****         (y0++)->im = - u1 * uw.re + u0 * uw.im;
 1276              		.loc 1 323 0
 1277 0096 0A46     		mov	r2, r1
 320:..\..\..\liblc3\src/mdct.c **** 
 1278              		.loc 1 320 0
 1279 0098 0834     		adds	r4, r4, #8
 1280              	.LVL181:
 319:..\..\..\liblc3\src/mdct.c ****         struct lc3_complex uw = *(w0++), vw = *(--w1);
 1281              		.loc 1 319 0
 1282 009a 083B     		subs	r3, r3, #8
 1283              	.LVL182:
 1284 009c 3146     		mov	r1, r6
 1285              	.LVL183:
 1286              	.L39:
ARM GAS  C:\Users\rdn\AppData\Local\Temp\ccsZKcok.s 			page 32


 1287              	.LBE57:
 317:..\..\..\liblc3\src/mdct.c ****         float u0 = *(x0++), u1 = *(--x1);
 1288              		.loc 1 317 0
 1289 009e 9942     		cmp	r1, r3
 1290 00a0 B7D3     		bcc	.L40
 327:..\..\..\liblc3\src/mdct.c ****     }
 328:..\..\..\liblc3\src/mdct.c **** }
 1291              		.loc 1 328 0
 1292 00a2 05B0     		add	sp, sp, #20
 1293              		.cfi_def_cfa_offset 20
 1294              		@ sp needed
 1295 00a4 F0BD     		pop	{r4, r5, r6, r7, pc}
 1296              		.cfi_endproc
 1297              	.LFE27:
 1298              		.size	imdct_pre_fft, .-imdct_pre_fft
 1299 00a6 00BF     		.section	.text.imdct_post_fft,"ax",%progbits
 1300              		.align	2
 1301              		.thumb
 1302              		.thumb_func
 1303              		.type	imdct_post_fft, %function
 1304              	imdct_post_fft:
 1305              	.LFB28:
 329:..\..\..\liblc3\src/mdct.c **** 
 330:..\..\..\liblc3\src/mdct.c **** /**
 331:..\..\..\liblc3\src/mdct.c ****  * Post-rotate FFT N/4 points coefficients, resulting IMDCT N points
 332:..\..\..\liblc3\src/mdct.c ****  * def             Size and twiddles factors
 333:..\..\..\liblc3\src/mdct.c ****  * x, y            Input and output coefficients
 334:..\..\..\liblc3\src/mdct.c ****  *
 335:..\..\..\liblc3\src/mdct.c ****  * `x` and y` can be the same buffer
 336:..\..\..\liblc3\src/mdct.c ****  * The real and imaginary parts of `x` are swapped,
 337:..\..\..\liblc3\src/mdct.c ****  * to operate on FFT instead of IFFT
 338:..\..\..\liblc3\src/mdct.c ****  */
 339:..\..\..\liblc3\src/mdct.c **** LC3_HOT static void imdct_post_fft(const struct lc3_mdct_rot_def *def,
 340:..\..\..\liblc3\src/mdct.c ****     const struct lc3_complex *x, float *y)
 341:..\..\..\liblc3\src/mdct.c **** {
 1306              		.loc 1 341 0
 1307              		.cfi_startproc
 1308              		@ args = 0, pretend = 0, frame = 32
 1309              		@ frame_needed = 0, uses_anonymous_args = 0
 1310              	.LVL184:
 1311 0000 F0B5     		push	{r4, r5, r6, r7, lr}
 1312              		.cfi_def_cfa_offset 20
 1313              		.cfi_offset 4, -20
 1314              		.cfi_offset 5, -16
 1315              		.cfi_offset 6, -12
 1316              		.cfi_offset 7, -8
 1317              		.cfi_offset 14, -4
 1318 0002 89B0     		sub	sp, sp, #36
 1319              		.cfi_def_cfa_offset 56
 1320 0004 0B46     		mov	r3, r1
 342:..\..\..\liblc3\src/mdct.c ****     int n4 = def->n4;
 1321              		.loc 1 342 0
 1322 0006 0568     		ldr	r5, [r0]
 1323              	.LVL185:
 343:..\..\..\liblc3\src/mdct.c **** 
 344:..\..\..\liblc3\src/mdct.c ****     const struct lc3_complex *w0 = def->w, *w1 = w0 + n4;
 1324              		.loc 1 344 0
ARM GAS  C:\Users\rdn\AppData\Local\Temp\ccsZKcok.s 			page 33


 1325 0008 4668     		ldr	r6, [r0, #4]
 1326              	.LVL186:
 1327 000a ED00     		lsls	r5, r5, #3
 1328              	.LVL187:
 1329 000c 7719     		adds	r7, r6, r5
 1330              	.LVL188:
 345:..\..\..\liblc3\src/mdct.c ****     const struct lc3_complex *x0 = x, *x1 = x0 + n4;
 1331              		.loc 1 345 0
 1332 000e 4C19     		adds	r4, r1, r5
 1333              	.LVL189:
 346:..\..\..\liblc3\src/mdct.c **** 
 347:..\..\..\liblc3\src/mdct.c ****     float *y0 = y, *y1 = y0 + 2*n4;
 1334              		.loc 1 347 0
 1335 0010 1544     		add	r5, r5, r2
 1336              	.LVL190:
 348:..\..\..\liblc3\src/mdct.c **** 
 349:..\..\..\liblc3\src/mdct.c ****     while (x0 < x1) {
 1337              		.loc 1 349 0
 1338 0012 4EE0     		b	.L43
 1339              	.LVL191:
 1340              	.L44:
 1341              	.LBB58:
 350:..\..\..\liblc3\src/mdct.c ****         struct lc3_complex uz = *(x0++), vz = *(--x1);
 1342              		.loc 1 350 0
 1343 0014 93E80300 		ldmia	r3, {r0, r1}
 1344 0018 8DE80300 		stmia	sp, {r0, r1}
 1345 001c 083C     		subs	r4, r4, #8
 1346              	.LVL192:
 1347 001e 0DF1080E 		add	lr, sp, #8
 1348 0022 94E80300 		ldmia	r4, {r0, r1}
 1349 0026 8EE80300 		stmia	lr, {r0, r1}
 1350              	.LVL193:
 351:..\..\..\liblc3\src/mdct.c ****         struct lc3_complex uw = *(w0++), vw = *(--w1);
 1351              		.loc 1 351 0
 1352 002a 0DF1100E 		add	lr, sp, #16
 1353 002e 96E80300 		ldmia	r6, {r0, r1}
 1354 0032 8EE80300 		stmia	lr, {r0, r1}
 1355 0036 083F     		subs	r7, r7, #8
 1356              	.LVL194:
 1357 0038 97E80300 		ldmia	r7, {r0, r1}
 1358 003c 0DF1200E 		add	lr, sp, #32
 1359 0040 0EE90300 		stmdb	lr, {r0, r1}
 1360              	.LVL195:
 352:..\..\..\liblc3\src/mdct.c **** 
 353:..\..\..\liblc3\src/mdct.c ****         *(y0++) = uz.re * uw.im - uz.im * uw.re;
 1361              		.loc 1 353 0
 1362 0044 DDED007A 		vldr.32	s15, [sp]
 1363 0048 9DED057A 		vldr.32	s14, [sp, #20]
 1364 004c 67EE876A 		vmul.f32	s13, s15, s14
 1365 0050 9DED016A 		vldr.32	s12, [sp, #4]
 1366 0054 DDED045A 		vldr.32	s11, [sp, #16]
 1367 0058 26EE255A 		vmul.f32	s10, s12, s11
 1368 005c 76EEC56A 		vsub.f32	s13, s13, s10
 1369 0060 1146     		mov	r1, r2
 1370 0062 16EE900A 		vmov	r0, s13
 1371 0066 41F8080B 		str	r0, [r1], #8	@ float
 1372              	.LVL196:
ARM GAS  C:\Users\rdn\AppData\Local\Temp\ccsZKcok.s 			page 34


 354:..\..\..\liblc3\src/mdct.c ****         *(--y1) = uz.re * uw.re + uz.im * uw.im;
 1373              		.loc 1 354 0
 1374 006a 67EEA57A 		vmul.f32	s15, s15, s11
 1375 006e 27EE067A 		vmul.f32	s14, s14, s12
 1376 0072 77EE877A 		vadd.f32	s15, s15, s14
 1377 0076 45ED017A 		vstr.32	s15, [r5, #-4]
 1378              	.LVL197:
 355:..\..\..\liblc3\src/mdct.c **** 
 356:..\..\..\liblc3\src/mdct.c ****         *(--y1) = vz.re * vw.im - vz.im * vw.re;
 1379              		.loc 1 356 0
 1380 007a DDED027A 		vldr.32	s15, [sp, #8]
 1381 007e 9DED077A 		vldr.32	s14, [sp, #28]
 1382 0082 67EE876A 		vmul.f32	s13, s15, s14
 1383 0086 9DED036A 		vldr.32	s12, [sp, #12]
 1384 008a DDED065A 		vldr.32	s11, [sp, #24]
 1385 008e 26EE255A 		vmul.f32	s10, s12, s11
 1386 0092 76EEC56A 		vsub.f32	s13, s13, s10
 1387 0096 45ED026A 		vstr.32	s13, [r5, #-8]
 1388              	.LVL198:
 357:..\..\..\liblc3\src/mdct.c ****         *(y0++) = vz.re * vw.re + vz.im * vw.im;
 1389              		.loc 1 357 0
 1390 009a 67EEA57A 		vmul.f32	s15, s15, s11
 1391 009e 27EE067A 		vmul.f32	s14, s14, s12
 1392 00a2 77EE877A 		vadd.f32	s15, s15, s14
 1393 00a6 C2ED017A 		vstr.32	s15, [r2, #4]
 356:..\..\..\liblc3\src/mdct.c ****         *(y0++) = vz.re * vw.re + vz.im * vw.im;
 1394              		.loc 1 356 0
 1395 00aa 083D     		subs	r5, r5, #8
 1396              	.LVL199:
 1397              		.loc 1 357 0
 1398 00ac 0A46     		mov	r2, r1
 350:..\..\..\liblc3\src/mdct.c ****         struct lc3_complex uw = *(w0++), vw = *(--w1);
 1399              		.loc 1 350 0
 1400 00ae 0833     		adds	r3, r3, #8
 1401              	.LVL200:
 351:..\..\..\liblc3\src/mdct.c **** 
 1402              		.loc 1 351 0
 1403 00b0 0836     		adds	r6, r6, #8
 1404              	.LVL201:
 1405              	.L43:
 1406              	.LBE58:
 349:..\..\..\liblc3\src/mdct.c ****         struct lc3_complex uz = *(x0++), vz = *(--x1);
 1407              		.loc 1 349 0
 1408 00b2 A342     		cmp	r3, r4
 1409 00b4 AED3     		bcc	.L44
 358:..\..\..\liblc3\src/mdct.c ****     }
 359:..\..\..\liblc3\src/mdct.c **** }
 1410              		.loc 1 359 0
 1411 00b6 09B0     		add	sp, sp, #36
 1412              		.cfi_def_cfa_offset 20
 1413              		@ sp needed
 1414 00b8 F0BD     		pop	{r4, r5, r6, r7, pc}
 1415              		.cfi_endproc
 1416              	.LFE28:
 1417              		.size	imdct_post_fft, .-imdct_post_fft
 1418 00ba 00BF     		.section	.text.imdct_window,"ax",%progbits
 1419              		.align	2
ARM GAS  C:\Users\rdn\AppData\Local\Temp\ccsZKcok.s 			page 35


 1420              		.thumb
 1421              		.thumb_func
 1422              		.type	imdct_window, %function
 1423              	imdct_window:
 1424              	.LFB29:
 360:..\..\..\liblc3\src/mdct.c **** 
 361:..\..\..\liblc3\src/mdct.c **** /**
 362:..\..\..\liblc3\src/mdct.c ****  * Apply windowing of samples
 363:..\..\..\liblc3\src/mdct.c ****  * dt, sr          Duration and samplerate
 364:..\..\..\liblc3\src/mdct.c ****  * x, d            Middle half of IMDCT coefficients and delayed samples
 365:..\..\..\liblc3\src/mdct.c ****  * y, d            Output samples and delayed ones
 366:..\..\..\liblc3\src/mdct.c ****  */
 367:..\..\..\liblc3\src/mdct.c **** LC3_HOT static void imdct_window(
 368:..\..\..\liblc3\src/mdct.c ****     enum lc3_dt dt, enum lc3_srate sr,
 369:..\..\..\liblc3\src/mdct.c ****     const float *x, float *d, float *y)
 370:..\..\..\liblc3\src/mdct.c **** {
 1425              		.loc 1 370 0
 1426              		.cfi_startproc
 1427              		@ args = 4, pretend = 0, frame = 16
 1428              		@ frame_needed = 0, uses_anonymous_args = 0
 1429              	.LVL202:
 1430 0000 2DE9F04F 		push	{r4, r5, r6, r7, r8, r9, r10, fp, lr}
 1431              		.cfi_def_cfa_offset 36
 1432              		.cfi_offset 4, -36
 1433              		.cfi_offset 5, -32
 1434              		.cfi_offset 6, -28
 1435              		.cfi_offset 7, -24
 1436              		.cfi_offset 8, -20
 1437              		.cfi_offset 9, -16
 1438              		.cfi_offset 10, -12
 1439              		.cfi_offset 11, -8
 1440              		.cfi_offset 14, -4
 1441 0004 85B0     		sub	sp, sp, #20
 1442              		.cfi_def_cfa_offset 56
 1443 0006 DDF838A0 		ldr	r10, [sp, #56]
 371:..\..\..\liblc3\src/mdct.c ****     /* The full MDCT coefficients is given by symmetry :
 372:..\..\..\liblc3\src/mdct.c ****      *   T[   0 ..  n/4-1] = -half[n/4-1 .. 0    ]
 373:..\..\..\liblc3\src/mdct.c ****      *   T[ n/4 ..  n/2-1] =  half[0     .. n/4-1]
 374:..\..\..\liblc3\src/mdct.c ****      *   T[ n/2 .. 3n/4-1] =  half[n/4   .. n/2-1]
 375:..\..\..\liblc3\src/mdct.c ****      *   T[3n/4 ..    n-1] =  half[n/2-1 .. n/4  ]  */
 376:..\..\..\liblc3\src/mdct.c **** 
 377:..\..\..\liblc3\src/mdct.c ****     const float *win = lc3_mdct_win[dt][sr];
 1444              		.loc 1 377 0
 1445 000a C0EBC004 		rsb	r4, r0, r0, lsl #3
 1446 000e 0C44     		add	r4, r4, r1
 1447 0010 784D     		ldr	r5, .L57
 1448 0012 55F82450 		ldr	r5, [r5, r4, lsl #2]
 1449              	.LVL203:
 1450              	.LBB59:
 1451              	.LBB60:
  47:..\..\..\liblc3\src/tables.h **** }
 1452              		.loc 2 47 0
 1453 0016 784C     		ldr	r4, .L57+4
 1454 0018 54F82160 		ldr	r6, [r4, r1, lsl #2]
 1455 001c 00FB0664 		mla	r4, r0, r6, r6
 1456              	.LVL204:
 1457              	.LBE60:
ARM GAS  C:\Users\rdn\AppData\Local\Temp\ccsZKcok.s 			page 36


 1458              	.LBE59:
 378:..\..\..\liblc3\src/mdct.c ****     int n4 = lc3_ns(dt, sr) >> 1, nd = lc3_nd(dt, sr);
 1459              		.loc 1 378 0
 1460 0020 4FEA640B 		asr	fp, r4, #1
 1461              	.LVL205:
 1462              	.LBB61:
 1463              	.LBB62:
 1464              		.loc 2 56 0
 1465 0024 0228     		cmp	r0, #2
 1466 0026 02D1     		bne	.L47
 1467 0028 7448     		ldr	r0, .L57+8
 1468              	.LVL206:
 1469 002a 50F82160 		ldr	r6, [r0, r1, lsl #2]
 1470              	.L47:
  55:..\..\..\liblc3\src/tables.h ****         (dt == LC3_DT_7M5 ? lc3_ns_4m[sr] : lc3_ns_2m5[sr]) ) >> 1;
 1471              		.loc 2 55 0
 1472 002e 3019     		adds	r0, r6, r4
 1473 0030 4010     		asrs	r0, r0, #1
 1474              	.LVL207:
 1475              	.LBE62:
 1476              	.LBE61:
 379:..\..\..\liblc3\src/mdct.c ****     const float *w2 = win, *w0 = w2 + 3*n4, *w1 = w0;
 1477              		.loc 1 379 0
 1478 0032 0BEB4B04 		add	r4, fp, fp, lsl #1
 1479 0036 A100     		lsls	r1, r4, #2
 1480              	.LVL208:
 1481 0038 2944     		add	r1, r1, r5
 1482              	.LVL209:
 380:..\..\..\liblc3\src/mdct.c **** 
 381:..\..\..\liblc3\src/mdct.c ****     const float *x0 = d + nd-n4, *x1 = x0;
 1483              		.loc 1 381 0
 1484 003a CBEB0007 		rsb	r7, fp, r0
 1485 003e BF00     		lsls	r7, r7, #2
 1486 0040 03EB070E 		add	lr, r3, r7
 1487              	.LVL210:
 382:..\..\..\liblc3\src/mdct.c ****     float *y0 = y + nd-n4, *y1 = y0, *y2 = d + nd, *y3 = d;
 1488              		.loc 1 382 0
 1489 0044 5744     		add	r7, r7, r10
 1490              	.LVL211:
 1491 0046 8000     		lsls	r0, r0, #2
 1492 0048 0190     		str	r0, [sp, #4]
 1493 004a 1C18     		adds	r4, r3, r0
 1494              	.LVL212:
 1495 004c 3846     		mov	r0, r7
 381:..\..\..\liblc3\src/mdct.c ****     float *y0 = y + nd-n4, *y1 = y0, *y2 = d + nd, *y3 = d;
 1496              		.loc 1 381 0
 1497 004e 7646     		mov	r6, lr
 379:..\..\..\liblc3\src/mdct.c **** 
 1498              		.loc 1 379 0
 1499 0050 8946     		mov	r9, r1
 1500 0052 0295     		str	r5, [sp, #8]
 1501 0054 0393     		str	r3, [sp, #12]
 383:..\..\..\liblc3\src/mdct.c **** 
 384:..\..\..\liblc3\src/mdct.c ****     while (y0 > y) {
 1502              		.loc 1 384 0
 1503 0056 3EE0     		b	.L48
 1504              	.LVL213:
ARM GAS  C:\Users\rdn\AppData\Local\Temp\ccsZKcok.s 			page 37


 1505              	.L49:
 385:..\..\..\liblc3\src/mdct.c ****         *(--y0) = *(--x0) - *(x  ) * *(w1++);
 1506              		.loc 1 385 0
 1507 0058 1EED017A 		vldr.32	s14, [lr, #-4]
 1508 005c D2ED006A 		vldr.32	s13, [r2]
 1509              	.LVL214:
 1510 0060 4D46     		mov	r5, r9
 1511 0062 0835     		adds	r5, r5, #8
 1512 0064 D9ED007A 		vldr.32	s15, [r9]
 1513 0068 66EEA77A 		vmul.f32	s15, s13, s15
 1514 006c 77EE677A 		vsub.f32	s15, s14, s15
 1515 0070 47ED017A 		vstr.32	s15, [r7, #-4]
 1516              	.LVL215:
 386:..\..\..\liblc3\src/mdct.c ****         *(y1++) = *(x1++) + *(x++) * *(--w0);
 1517              		.loc 1 386 0
 1518 0074 06F1080C 		add	ip, r6, #8
 1519 0078 96ED007A 		vldr.32	s14, [r6]
 1520              	.LVL216:
 1521 007c D2ED006A 		vldr.32	s13, [r2]
 1522              	.LVL217:
 1523 0080 51ED017A 		vldr.32	s15, [r1, #-4]
 1524 0084 66EEA77A 		vmul.f32	s15, s13, s15
 1525 0088 77EE277A 		vadd.f32	s15, s14, s15
 1526 008c 8046     		mov	r8, r0
 1527 008e 17EE903A 		vmov	r3, s15
 1528 0092 48F8083B 		str	r3, [r8], #8	@ float
 1529              	.LVL218:
 387:..\..\..\liblc3\src/mdct.c **** 
 388:..\..\..\liblc3\src/mdct.c ****         *(--y0) = *(--x0) - *(x  ) * *(w1++);
 1530              		.loc 1 388 0
 1531 0096 1EED027A 		vldr.32	s14, [lr, #-8]
 1532 009a D2ED016A 		vldr.32	s13, [r2, #4]
 1533              	.LVL219:
 1534 009e D9ED017A 		vldr.32	s15, [r9, #4]
 1535 00a2 66EEA77A 		vmul.f32	s15, s13, s15
 1536 00a6 77EE677A 		vsub.f32	s15, s14, s15
 1537 00aa 47ED027A 		vstr.32	s15, [r7, #-8]
 1538              	.LVL220:
 389:..\..\..\liblc3\src/mdct.c ****         *(y1++) = *(x1++) + *(x++) * *(--w0);
 1539              		.loc 1 389 0
 1540 00ae 96ED017A 		vldr.32	s14, [r6, #4]
 1541              	.LVL221:
 1542 00b2 D2ED016A 		vldr.32	s13, [r2, #4]
 1543              	.LVL222:
 1544 00b6 51ED027A 		vldr.32	s15, [r1, #-8]
 1545 00ba 66EEA77A 		vmul.f32	s15, s13, s15
 1546 00be 77EE277A 		vadd.f32	s15, s14, s15
 1547 00c2 C0ED017A 		vstr.32	s15, [r0, #4]
 1548 00c6 4046     		mov	r0, r8
 388:..\..\..\liblc3\src/mdct.c ****         *(y1++) = *(x1++) + *(x++) * *(--w0);
 1549              		.loc 1 388 0
 1550 00c8 083F     		subs	r7, r7, #8
 1551              	.LVL223:
 1552              		.loc 1 389 0
 1553 00ca 6646     		mov	r6, ip
 388:..\..\..\liblc3\src/mdct.c ****         *(y1++) = *(x1++) + *(x++) * *(--w0);
 1554              		.loc 1 388 0
ARM GAS  C:\Users\rdn\AppData\Local\Temp\ccsZKcok.s 			page 38


 1555 00cc AEF1080E 		sub	lr, lr, #8
 1556              	.LVL224:
 1557 00d0 A946     		mov	r9, r5
 1558              		.loc 1 389 0
 1559 00d2 0839     		subs	r1, r1, #8
 1560              	.LVL225:
 1561 00d4 0832     		adds	r2, r2, #8
 1562              	.LVL226:
 1563              	.L48:
 384:..\..\..\liblc3\src/mdct.c ****         *(--y0) = *(--x0) - *(x  ) * *(w1++);
 1564              		.loc 1 384 0
 1565 00d6 5745     		cmp	r7, r10
 1566 00d8 BED8     		bhi	.L49
 1567 00da 029D     		ldr	r5, [sp, #8]
 1568 00dc 039B     		ldr	r3, [sp, #12]
 1569 00de DDF80480 		ldr	r8, [sp, #4]
 1570 00e2 22E0     		b	.L50
 1571              	.LVL227:
 1572              	.L51:
 390:..\..\..\liblc3\src/mdct.c ****     }
 391:..\..\..\liblc3\src/mdct.c **** 
 392:..\..\..\liblc3\src/mdct.c ****     while (y1 < y + nd) {
 393:..\..\..\liblc3\src/mdct.c ****         *(y1++) = *(x1++) + *(x++) * *(--w0);
 1573              		.loc 1 393 0
 1574 00e4 06F1080E 		add	lr, r6, #8
 1575 00e8 96ED007A 		vldr.32	s14, [r6]
 1576              	.LVL228:
 1577 00ec 1746     		mov	r7, r2
 1578 00ee 0837     		adds	r7, r7, #8
 1579 00f0 D2ED006A 		vldr.32	s13, [r2]
 1580              	.LVL229:
 1581 00f4 51ED017A 		vldr.32	s15, [r1, #-4]
 1582 00f8 66EEA77A 		vmul.f32	s15, s13, s15
 1583 00fc 77EE277A 		vadd.f32	s15, s14, s15
 1584 0100 8446     		mov	ip, r0
 1585 0102 17EE909A 		vmov	r9, s15
 1586 0106 4CF8089B 		str	r9, [ip], #8	@ float
 1587              	.LVL230:
 394:..\..\..\liblc3\src/mdct.c ****         *(y1++) = *(x1++) + *(x++) * *(--w0);
 1588              		.loc 1 394 0
 1589 010a 96ED017A 		vldr.32	s14, [r6, #4]
 1590              	.LVL231:
 1591 010e D2ED016A 		vldr.32	s13, [r2, #4]
 1592              	.LVL232:
 1593 0112 51ED027A 		vldr.32	s15, [r1, #-8]
 1594 0116 66EEA77A 		vmul.f32	s15, s13, s15
 1595 011a 77EE277A 		vadd.f32	s15, s14, s15
 1596 011e C0ED017A 		vstr.32	s15, [r0, #4]
 1597 0122 6046     		mov	r0, ip
 1598 0124 7646     		mov	r6, lr
 1599 0126 0839     		subs	r1, r1, #8
 1600              	.LVL233:
 1601 0128 3A46     		mov	r2, r7
 1602              	.LVL234:
 1603              	.L50:
 392:..\..\..\liblc3\src/mdct.c ****         *(y1++) = *(x1++) + *(x++) * *(--w0);
 1604              		.loc 1 392 0
ARM GAS  C:\Users\rdn\AppData\Local\Temp\ccsZKcok.s 			page 39


 1605 012a 0AEB0807 		add	r7, r10, r8
 1606 012e B842     		cmp	r0, r7
 1607 0130 D8D3     		bcc	.L51
 1608 0132 2AE0     		b	.L52
 1609              	.LVL235:
 1610              	.L53:
 395:..\..\..\liblc3\src/mdct.c ****     }
 396:..\..\..\liblc3\src/mdct.c **** 
 397:..\..\..\liblc3\src/mdct.c ****     while (y1 < y + 2*n4) {
 398:..\..\..\liblc3\src/mdct.c ****         *(y1++) = *(x  ) * *(--w0);
 1611              		.loc 1 398 0
 1612 0134 92ED007A 		vldr.32	s14, [r2]
 1613              	.LVL236:
 1614 0138 51ED017A 		vldr.32	s15, [r1, #-4]
 1615 013c 67EE277A 		vmul.f32	s15, s14, s15
 1616 0140 0746     		mov	r7, r0
 1617 0142 17EE906A 		vmov	r6, s15
 1618 0146 47F8086B 		str	r6, [r7], #8	@ float
 1619              	.LVL237:
 399:..\..\..\liblc3\src/mdct.c ****         *(--y2) = *(x++) * *(w2++);
 1620              		.loc 1 399 0
 1621 014a 92ED007A 		vldr.32	s14, [r2]
 1622              	.LVL238:
 1623 014e 2E46     		mov	r6, r5
 1624 0150 AE46     		mov	lr, r5
 1625 0152 0836     		adds	r6, r6, #8
 1626 0154 D5ED007A 		vldr.32	s15, [r5]
 1627 0158 67EE277A 		vmul.f32	s15, s14, s15
 1628 015c 44ED017A 		vstr.32	s15, [r4, #-4]
 1629              	.LVL239:
 400:..\..\..\liblc3\src/mdct.c **** 
 401:..\..\..\liblc3\src/mdct.c ****         *(y1++) = *(x  ) * *(--w0);
 1630              		.loc 1 401 0
 1631 0160 92ED017A 		vldr.32	s14, [r2, #4]
 1632              	.LVL240:
 1633 0164 51ED027A 		vldr.32	s15, [r1, #-8]
 1634 0168 67EE277A 		vmul.f32	s15, s14, s15
 1635 016c C0ED017A 		vstr.32	s15, [r0, #4]
 1636              	.LVL241:
 402:..\..\..\liblc3\src/mdct.c ****         *(--y2) = *(x++) * *(w2++);
 1637              		.loc 1 402 0
 1638 0170 92ED017A 		vldr.32	s14, [r2, #4]
 1639              	.LVL242:
 1640 0174 D5ED017A 		vldr.32	s15, [r5, #4]
 1641 0178 67EE277A 		vmul.f32	s15, s14, s15
 1642 017c 44ED027A 		vstr.32	s15, [r4, #-8]
 1643 0180 083C     		subs	r4, r4, #8
 1644              	.LVL243:
 401:..\..\..\liblc3\src/mdct.c ****         *(--y2) = *(x++) * *(w2++);
 1645              		.loc 1 401 0
 1646 0182 3846     		mov	r0, r7
 1647 0184 0839     		subs	r1, r1, #8
 1648              	.LVL244:
 1649              		.loc 1 402 0
 1650 0186 3546     		mov	r5, r6
 1651 0188 0832     		adds	r2, r2, #8
 1652              	.LVL245:
ARM GAS  C:\Users\rdn\AppData\Local\Temp\ccsZKcok.s 			page 40


 1653              	.L52:
 397:..\..\..\liblc3\src/mdct.c ****         *(y1++) = *(x  ) * *(--w0);
 1654              		.loc 1 397 0
 1655 018a 0AEBCB06 		add	r6, r10, fp, lsl #3
 1656 018e B042     		cmp	r0, r6
 1657 0190 D0D3     		bcc	.L53
 1658 0192 29E0     		b	.L54
 1659              	.LVL246:
 1660              	.L55:
 403:..\..\..\liblc3\src/mdct.c ****     }
 404:..\..\..\liblc3\src/mdct.c **** 
 405:..\..\..\liblc3\src/mdct.c ****     while (y2 > y3) {
 406:..\..\..\liblc3\src/mdct.c ****         *(y3++) = *(x  ) * *(--w0);
 1661              		.loc 1 406 0
 1662 0194 92ED007A 		vldr.32	s14, [r2]
 1663              	.LVL247:
 1664 0198 51ED017A 		vldr.32	s15, [r1, #-4]
 1665 019c 67EE277A 		vmul.f32	s15, s14, s15
 1666 01a0 1E46     		mov	r6, r3
 1667 01a2 17EE900A 		vmov	r0, s15
 1668 01a6 46F8080B 		str	r0, [r6], #8	@ float
 1669              	.LVL248:
 407:..\..\..\liblc3\src/mdct.c ****         *(--y2) = *(x++) * *(w2++);
 1670              		.loc 1 407 0
 1671 01aa 92ED007A 		vldr.32	s14, [r2]
 1672              	.LVL249:
 1673 01ae 2846     		mov	r0, r5
 1674 01b0 0830     		adds	r0, r0, #8
 1675 01b2 D5ED007A 		vldr.32	s15, [r5]
 1676 01b6 67EE277A 		vmul.f32	s15, s14, s15
 1677 01ba 44ED017A 		vstr.32	s15, [r4, #-4]
 1678              	.LVL250:
 408:..\..\..\liblc3\src/mdct.c **** 
 409:..\..\..\liblc3\src/mdct.c ****         *(y3++) = *(x  ) * *(--w0);
 1679              		.loc 1 409 0
 1680 01be 92ED017A 		vldr.32	s14, [r2, #4]
 1681              	.LVL251:
 1682 01c2 51ED027A 		vldr.32	s15, [r1, #-8]
 1683 01c6 67EE277A 		vmul.f32	s15, s14, s15
 1684 01ca C3ED017A 		vstr.32	s15, [r3, #4]
 1685              	.LVL252:
 410:..\..\..\liblc3\src/mdct.c ****         *(--y2) = *(x++) * *(w2++);
 1686              		.loc 1 410 0
 1687 01ce 92ED017A 		vldr.32	s14, [r2, #4]
 1688              	.LVL253:
 1689 01d2 D5ED017A 		vldr.32	s15, [r5, #4]
 1690 01d6 67EE277A 		vmul.f32	s15, s14, s15
 1691 01da 44ED027A 		vstr.32	s15, [r4, #-8]
 409:..\..\..\liblc3\src/mdct.c ****         *(--y2) = *(x++) * *(w2++);
 1692              		.loc 1 409 0
 1693 01de 3346     		mov	r3, r6
 1694              		.loc 1 410 0
 1695 01e0 083C     		subs	r4, r4, #8
 1696              	.LVL254:
 409:..\..\..\liblc3\src/mdct.c ****         *(--y2) = *(x++) * *(w2++);
 1697              		.loc 1 409 0
 1698 01e2 0839     		subs	r1, r1, #8
ARM GAS  C:\Users\rdn\AppData\Local\Temp\ccsZKcok.s 			page 41


 1699              	.LVL255:
 1700              		.loc 1 410 0
 1701 01e4 0546     		mov	r5, r0
 1702 01e6 0832     		adds	r2, r2, #8
 1703              	.LVL256:
 1704              	.L54:
 405:..\..\..\liblc3\src/mdct.c ****         *(y3++) = *(x  ) * *(--w0);
 1705              		.loc 1 405 0
 1706 01e8 9C42     		cmp	r4, r3
 1707 01ea D3D8     		bhi	.L55
 411:..\..\..\liblc3\src/mdct.c ****     }
 412:..\..\..\liblc3\src/mdct.c **** }
 1708              		.loc 1 412 0
 1709 01ec 05B0     		add	sp, sp, #20
 1710              		.cfi_def_cfa_offset 36
 1711              		@ sp needed
 1712 01ee BDE8F08F 		pop	{r4, r5, r6, r7, r8, r9, r10, fp, pc}
 1713              	.LVL257:
 1714              	.L58:
 1715 01f2 00BF     		.align	2
 1716              	.L57:
 1717 01f4 00000000 		.word	lc3_mdct_win
 1718 01f8 00000000 		.word	lc3_ns_2m5
 1719 01fc 00000000 		.word	lc3_ns_4m
 1720              		.cfi_endproc
 1721              	.LFE29:
 1722              		.size	imdct_window, .-imdct_window
 1723              		.section	.text.rescale,"ax",%progbits
 1724              		.align	2
 1725              		.thumb
 1726              		.thumb_func
 1727              		.type	rescale, %function
 1728              	rescale:
 1729              	.LFB30:
 413:..\..\..\liblc3\src/mdct.c **** 
 414:..\..\..\liblc3\src/mdct.c **** /**
 415:..\..\..\liblc3\src/mdct.c ****  * Rescale samples
 416:..\..\..\liblc3\src/mdct.c ****  * x, n            Input and count of samples, scaled as output
 417:..\..\..\liblc3\src/mdct.c ****  * scale           Scale factor
 418:..\..\..\liblc3\src/mdct.c ****  */
 419:..\..\..\liblc3\src/mdct.c **** LC3_HOT static void rescale(float *x, int n, float f)
 420:..\..\..\liblc3\src/mdct.c **** {
 1730              		.loc 1 420 0
 1731              		.cfi_startproc
 1732              		@ args = 0, pretend = 0, frame = 0
 1733              		@ frame_needed = 0, uses_anonymous_args = 0
 1734              		@ link register save eliminated.
 1735              	.LVL258:
 1736              	.LBB63:
 421:..\..\..\liblc3\src/mdct.c ****     for (int i = 0; i < (n >> 2); i++) {
 1737              		.loc 1 421 0
 1738 0000 0023     		movs	r3, #0
 1739 0002 19E0     		b	.L60
 1740              	.LVL259:
 1741              	.L61:
 422:..\..\..\liblc3\src/mdct.c ****         *(x++) *= f; *(x++) *= f;
 1742              		.loc 1 422 0 discriminator 3
ARM GAS  C:\Users\rdn\AppData\Local\Temp\ccsZKcok.s 			page 42


 1743 0004 D0ED007A 		vldr.32	s15, [r0]
 1744 0008 67EE807A 		vmul.f32	s15, s15, s0
 1745 000c C0ED007A 		vstr.32	s15, [r0]
 1746              	.LVL260:
 1747 0010 D0ED017A 		vldr.32	s15, [r0, #4]
 1748 0014 67EE807A 		vmul.f32	s15, s15, s0
 1749 0018 C0ED017A 		vstr.32	s15, [r0, #4]
 1750              	.LVL261:
 423:..\..\..\liblc3\src/mdct.c ****         *(x++) *= f; *(x++) *= f;
 1751              		.loc 1 423 0 discriminator 3
 1752 001c D0ED027A 		vldr.32	s15, [r0, #8]
 1753 0020 67EE807A 		vmul.f32	s15, s15, s0
 1754 0024 C0ED027A 		vstr.32	s15, [r0, #8]
 1755              	.LVL262:
 1756 0028 D0ED037A 		vldr.32	s15, [r0, #12]
 1757 002c 67EE807A 		vmul.f32	s15, s15, s0
 1758 0030 C0ED037A 		vstr.32	s15, [r0, #12]
 421:..\..\..\liblc3\src/mdct.c ****     for (int i = 0; i < (n >> 2); i++) {
 1759              		.loc 1 421 0 discriminator 3
 1760 0034 0133     		adds	r3, r3, #1
 1761              	.LVL263:
 1762              		.loc 1 423 0 discriminator 3
 1763 0036 1030     		adds	r0, r0, #16
 1764              	.LVL264:
 1765              	.L60:
 421:..\..\..\liblc3\src/mdct.c ****     for (int i = 0; i < (n >> 2); i++) {
 1766              		.loc 1 421 0 discriminator 1
 1767 0038 B3EBA10F 		cmp	r3, r1, asr #2
 1768 003c E2DB     		blt	.L61
 1769              	.LBE63:
 424:..\..\..\liblc3\src/mdct.c ****     }
 425:..\..\..\liblc3\src/mdct.c **** }
 1770              		.loc 1 425 0
 1771 003e 7047     		bx	lr
 1772              		.cfi_endproc
 1773              	.LFE30:
 1774              		.size	rescale, .-rescale
 1775              		.section	.text.lc3_mdct_forward,"ax",%progbits
 1776              		.align	2
 1777              		.global	lc3_mdct_forward
 1778              		.thumb
 1779              		.thumb_func
 1780              		.type	lc3_mdct_forward, %function
 1781              	lc3_mdct_forward:
 1782              	.LFB31:
 426:..\..\..\liblc3\src/mdct.c **** 
 427:..\..\..\liblc3\src/mdct.c **** /**
 428:..\..\..\liblc3\src/mdct.c ****  * Forward MDCT transformation
 429:..\..\..\liblc3\src/mdct.c ****  */
 430:..\..\..\liblc3\src/mdct.c **** void lc3_mdct_forward(
 431:..\..\..\liblc3\src/mdct.c ****     enum lc3_dt dt, enum lc3_srate sr, enum lc3_srate sr_dst,
 432:..\..\..\liblc3\src/mdct.c ****     const float *x, float *d, float *y)
 433:..\..\..\liblc3\src/mdct.c **** {
 1783              		.loc 1 433 0
 1784              		.cfi_startproc
 1785              		@ args = 8, pretend = 0, frame = 3840
 1786              		@ frame_needed = 0, uses_anonymous_args = 0
ARM GAS  C:\Users\rdn\AppData\Local\Temp\ccsZKcok.s 			page 43


 1787              	.LVL265:
 1788 0000 F0B5     		push	{r4, r5, r6, r7, lr}
 1789              		.cfi_def_cfa_offset 20
 1790              		.cfi_offset 4, -20
 1791              		.cfi_offset 5, -16
 1792              		.cfi_offset 6, -12
 1793              		.cfi_offset 7, -8
 1794              		.cfi_offset 14, -4
 1795 0002 ADF60C7D 		subw	sp, sp, #3852
 1796              		.cfi_def_cfa_offset 3872
 1797 0006 0446     		mov	r4, r0
 1798 0008 9E46     		mov	lr, r3
 434:..\..\..\liblc3\src/mdct.c ****     const struct lc3_mdct_rot_def *rot = lc3_mdct_rot[dt][sr];
 1799              		.loc 1 434 0
 1800 000a C0EBC003 		rsb	r3, r0, r0, lsl #3
 1801              	.LVL266:
 1802 000e 0B44     		add	r3, r3, r1
 1803 0010 264E     		ldr	r6, .L66
 1804 0012 56F82370 		ldr	r7, [r6, r3, lsl #2]
 1805              	.LVL267:
 1806              	.LBB64:
 1807              	.LBB65:
  47:..\..\..\liblc3\src/tables.h **** }
 1808              		.loc 2 47 0
 1809 0016 264B     		ldr	r3, .L66+4
 1810 0018 53F82260 		ldr	r6, [r3, r2, lsl #2]
 1811 001c 0134     		adds	r4, r4, #1
 1812              	.LVL268:
 1813 001e 04FB06F6 		mul	r6, r4, r6
 1814              	.LVL269:
 1815              	.LBE65:
 1816              	.LBE64:
 1817              	.LBB66:
 1818              	.LBB67:
 1819 0022 53F82130 		ldr	r3, [r3, r1, lsl #2]
 1820 0026 04FB03F4 		mul	r4, r4, r3
 1821              	.LVL270:
 1822              	.LBE67:
 1823              	.LBE66:
 435:..\..\..\liblc3\src/mdct.c ****     int ns_dst = lc3_ns(dt, sr_dst);
 436:..\..\..\liblc3\src/mdct.c ****     int ns = lc3_ns(dt, sr);
 437:..\..\..\liblc3\src/mdct.c **** 
 438:..\..\..\liblc3\src/mdct.c ****     struct lc3_complex buffer[LC3_MAX_NS / 2];
 439:..\..\..\liblc3\src/mdct.c ****     struct lc3_complex *z = (struct lc3_complex *)y;
 440:..\..\..\liblc3\src/mdct.c ****     union { float *f; struct lc3_complex *z; } u = { .z = buffer };
 441:..\..\..\liblc3\src/mdct.c **** 
 442:..\..\..\liblc3\src/mdct.c ****     mdct_window(dt, sr, x, d, u.f);
 1824              		.loc 1 442 0
 1825 002a 02AD     		add	r5, sp, #8
 1826 002c 0095     		str	r5, [sp]
 1827 002e DDF8203F 		ldr	r3, [sp, #3872]
 1828 0032 7246     		mov	r2, lr
 1829              	.LVL271:
 1830 0034 FFF7FEFF 		bl	mdct_window
 1831              	.LVL272:
 443:..\..\..\liblc3\src/mdct.c **** 
 444:..\..\..\liblc3\src/mdct.c ****     mdct_pre_fft(rot, u.f, u.z);
ARM GAS  C:\Users\rdn\AppData\Local\Temp\ccsZKcok.s 			page 44


 1832              		.loc 1 444 0
 1833 0038 2A46     		mov	r2, r5
 1834 003a 2946     		mov	r1, r5
 1835 003c 3846     		mov	r0, r7
 1836 003e FFF7FEFF 		bl	mdct_pre_fft
 1837              	.LVL273:
 445:..\..\..\liblc3\src/mdct.c ****     u.z = fft(u.z, ns/2, u.z, z);
 1838              		.loc 1 445 0
 1839 0042 04EBD471 		add	r1, r4, r4, lsr #31
 1840 0046 DDF8243F 		ldr	r3, [sp, #3876]
 1841 004a 2A46     		mov	r2, r5
 1842 004c 4910     		asrs	r1, r1, #1
 1843 004e 2846     		mov	r0, r5
 1844 0050 FFF7FEFF 		bl	fft
 1845              	.LVL274:
 446:..\..\..\liblc3\src/mdct.c ****     mdct_post_fft(rot, u.z, y);
 1846              		.loc 1 446 0
 1847 0054 DDF8242F 		ldr	r2, [sp, #3876]
 1848 0058 0146     		mov	r1, r0
 1849 005a 3846     		mov	r0, r7
 1850 005c FFF7FEFF 		bl	mdct_post_fft
 1851              	.LVL275:
 447:..\..\..\liblc3\src/mdct.c **** 
 448:..\..\..\liblc3\src/mdct.c ****     if (ns != ns_dst)
 1852              		.loc 1 448 0
 1853 0060 B442     		cmp	r4, r6
 1854 0062 1FD0     		beq	.L62
 449:..\..\..\liblc3\src/mdct.c ****         rescale(y, ns_dst, sqrtf((float)ns_dst / ns));
 1855              		.loc 1 449 0
 1856 0064 07EE906A 		vmov	s15, r6	@ int
 1857 0068 B8EEE77A 		vcvt.f32.s32	s14, s15
 1858 006c 07EE904A 		vmov	s15, r4	@ int
 1859 0070 F8EEE76A 		vcvt.f32.s32	s13, s15
 1860 0074 C7EE267A 		vdiv.f32	s15, s14, s13
 1861 0078 B1EEE70A 		vsqrt.f32	s0, s15
 1862 007c B4EE400A 		vcmp.f32	s0, s0
 1863 0080 F1EE10FA 		vmrs	APSR_nzcv, FPSCR
 1864 0084 09D0     		beq	.L64
 1865 0086 F0EE667A 		vmov.f32	s15, s13
 1866 008a C7EE276A 		vdiv.f32	s13, s14, s15
 1867 008e 16EE900A 		vmov	r0, s13
 1868 0092 FFF7FEFF 		bl	sqrtf
 1869              	.LVL276:
 1870 0096 00EE100A 		vmov	s0, r0
 1871              	.L64:
 1872 009a 3146     		mov	r1, r6
 1873 009c DDF8240F 		ldr	r0, [sp, #3876]
 1874 00a0 FFF7FEFF 		bl	rescale
 1875              	.LVL277:
 1876              	.L62:
 450:..\..\..\liblc3\src/mdct.c **** }
 1877              		.loc 1 450 0
 1878 00a4 0DF60C7D 		addw	sp, sp, #3852
 1879              		.cfi_def_cfa_offset 20
 1880              		@ sp needed
 1881 00a8 F0BD     		pop	{r4, r5, r6, r7, pc}
 1882              	.LVL278:
ARM GAS  C:\Users\rdn\AppData\Local\Temp\ccsZKcok.s 			page 45


 1883              	.L67:
 1884 00aa 00BF     		.align	2
 1885              	.L66:
 1886 00ac 00000000 		.word	lc3_mdct_rot
 1887 00b0 00000000 		.word	lc3_ns_2m5
 1888              		.cfi_endproc
 1889              	.LFE31:
 1890              		.size	lc3_mdct_forward, .-lc3_mdct_forward
 1891              		.section	.text.lc3_mdct_inverse,"ax",%progbits
 1892              		.align	2
 1893              		.global	lc3_mdct_inverse
 1894              		.thumb
 1895              		.thumb_func
 1896              		.type	lc3_mdct_inverse, %function
 1897              	lc3_mdct_inverse:
 1898              	.LFB32:
 451:..\..\..\liblc3\src/mdct.c **** 
 452:..\..\..\liblc3\src/mdct.c **** /**
 453:..\..\..\liblc3\src/mdct.c ****  * Inverse MDCT transformation
 454:..\..\..\liblc3\src/mdct.c ****  */
 455:..\..\..\liblc3\src/mdct.c **** void lc3_mdct_inverse(
 456:..\..\..\liblc3\src/mdct.c ****     enum lc3_dt dt, enum lc3_srate sr, enum lc3_srate sr_src,
 457:..\..\..\liblc3\src/mdct.c ****     const float *x, float *d, float *y)
 458:..\..\..\liblc3\src/mdct.c **** {
 1899              		.loc 1 458 0
 1900              		.cfi_startproc
 1901              		@ args = 8, pretend = 0, frame = 3840
 1902              		@ frame_needed = 0, uses_anonymous_args = 0
 1903              	.LVL279:
 1904 0000 2DE9F043 		push	{r4, r5, r6, r7, r8, r9, lr}
 1905              		.cfi_def_cfa_offset 28
 1906              		.cfi_offset 4, -28
 1907              		.cfi_offset 5, -24
 1908              		.cfi_offset 6, -20
 1909              		.cfi_offset 7, -16
 1910              		.cfi_offset 8, -12
 1911              		.cfi_offset 9, -8
 1912              		.cfi_offset 14, -4
 1913 0004 ADF60C7D 		subw	sp, sp, #3852
 1914              		.cfi_def_cfa_offset 3880
 1915 0008 0546     		mov	r5, r0
 1916 000a 8846     		mov	r8, r1
 1917 000c DDF82C6F 		ldr	r6, [sp, #3884]
 459:..\..\..\liblc3\src/mdct.c ****     const struct lc3_mdct_rot_def *rot = lc3_mdct_rot[dt][sr];
 1918              		.loc 1 459 0
 1919 0010 C0EBC001 		rsb	r1, r0, r0, lsl #3
 1920              	.LVL280:
 1921 0014 4144     		add	r1, r1, r8
 1922 0016 2648     		ldr	r0, .L72
 1923              	.LVL281:
 1924 0018 50F82190 		ldr	r9, [r0, r1, lsl #2]
 1925              	.LVL282:
 1926              	.LBB68:
 1927              	.LBB69:
  47:..\..\..\liblc3\src/tables.h **** }
 1928              		.loc 2 47 0
 1929 001c 2549     		ldr	r1, .L72+4
ARM GAS  C:\Users\rdn\AppData\Local\Temp\ccsZKcok.s 			page 46


 1930 001e 51F82270 		ldr	r7, [r1, r2, lsl #2]
 1931 0022 6A1C     		adds	r2, r5, #1
 1932              	.LVL283:
 1933 0024 02FB07F7 		mul	r7, r2, r7
 1934              	.LVL284:
 1935              	.LBE69:
 1936              	.LBE68:
 1937              	.LBB70:
 1938              	.LBB71:
 1939 0028 51F82840 		ldr	r4, [r1, r8, lsl #2]
 1940 002c 02FB04F4 		mul	r4, r2, r4
 1941              	.LVL285:
 1942              	.LBE71:
 1943              	.LBE70:
 460:..\..\..\liblc3\src/mdct.c ****     int ns_src = lc3_ns(dt, sr_src);
 461:..\..\..\liblc3\src/mdct.c ****     int ns = lc3_ns(dt, sr);
 462:..\..\..\liblc3\src/mdct.c **** 
 463:..\..\..\liblc3\src/mdct.c ****     struct lc3_complex buffer[LC3_MAX_NS / 2];
 464:..\..\..\liblc3\src/mdct.c ****     struct lc3_complex *z = (struct lc3_complex *)y;
 465:..\..\..\liblc3\src/mdct.c ****     union { float *f; struct lc3_complex *z; } u = { .z = buffer };
 466:..\..\..\liblc3\src/mdct.c **** 
 467:..\..\..\liblc3\src/mdct.c ****     imdct_pre_fft(rot, x, z);
 1944              		.loc 1 467 0
 1945 0030 3246     		mov	r2, r6
 1946 0032 1946     		mov	r1, r3
 1947 0034 4846     		mov	r0, r9
 1948 0036 FFF7FEFF 		bl	imdct_pre_fft
 1949              	.LVL286:
 468:..\..\..\liblc3\src/mdct.c ****     z = fft(z, ns/2, z, u.z);
 1950              		.loc 1 468 0
 1951 003a 04EBD471 		add	r1, r4, r4, lsr #31
 1952 003e 02AB     		add	r3, sp, #8
 1953 0040 3246     		mov	r2, r6
 1954 0042 4910     		asrs	r1, r1, #1
 1955 0044 3046     		mov	r0, r6
 1956 0046 FFF7FEFF 		bl	fft
 1957              	.LVL287:
 469:..\..\..\liblc3\src/mdct.c ****     imdct_post_fft(rot, z, u.f);
 1958              		.loc 1 469 0
 1959 004a 02AA     		add	r2, sp, #8
 1960 004c 0146     		mov	r1, r0
 1961 004e 4846     		mov	r0, r9
 1962              	.LVL288:
 1963 0050 FFF7FEFF 		bl	imdct_post_fft
 1964              	.LVL289:
 470:..\..\..\liblc3\src/mdct.c **** 
 471:..\..\..\liblc3\src/mdct.c ****     if (ns != ns_src)
 1965              		.loc 1 471 0
 1966 0054 BC42     		cmp	r4, r7
 1967 0056 1ED0     		beq	.L69
 472:..\..\..\liblc3\src/mdct.c ****         rescale(u.f, ns, sqrtf((float)ns / ns_src));
 1968              		.loc 1 472 0
 1969 0058 07EE904A 		vmov	s15, r4	@ int
 1970 005c B8EEE77A 		vcvt.f32.s32	s14, s15
 1971 0060 07EE907A 		vmov	s15, r7	@ int
 1972 0064 F8EEE76A 		vcvt.f32.s32	s13, s15
 1973 0068 C7EE267A 		vdiv.f32	s15, s14, s13
ARM GAS  C:\Users\rdn\AppData\Local\Temp\ccsZKcok.s 			page 47


 1974 006c B1EEE70A 		vsqrt.f32	s0, s15
 1975 0070 B4EE400A 		vcmp.f32	s0, s0
 1976 0074 F1EE10FA 		vmrs	APSR_nzcv, FPSCR
 1977 0078 09D0     		beq	.L70
 1978 007a F0EE667A 		vmov.f32	s15, s13
 1979 007e C7EE276A 		vdiv.f32	s13, s14, s15
 1980 0082 16EE900A 		vmov	r0, s13
 1981 0086 FFF7FEFF 		bl	sqrtf
 1982              	.LVL290:
 1983 008a 00EE100A 		vmov	s0, r0
 1984              	.L70:
 1985 008e 2146     		mov	r1, r4
 1986 0090 02A8     		add	r0, sp, #8
 1987 0092 FFF7FEFF 		bl	rescale
 1988              	.LVL291:
 1989              	.L69:
 473:..\..\..\liblc3\src/mdct.c **** 
 474:..\..\..\liblc3\src/mdct.c ****     imdct_window(dt, sr, u.f, d, y);
 1990              		.loc 1 474 0
 1991 0096 0096     		str	r6, [sp]
 1992 0098 DDF8283F 		ldr	r3, [sp, #3880]
 1993 009c 02AA     		add	r2, sp, #8
 1994 009e 4146     		mov	r1, r8
 1995 00a0 2846     		mov	r0, r5
 1996 00a2 FFF7FEFF 		bl	imdct_window
 1997              	.LVL292:
 475:..\..\..\liblc3\src/mdct.c **** }
 1998              		.loc 1 475 0
 1999 00a6 0DF60C7D 		addw	sp, sp, #3852
 2000              		.cfi_def_cfa_offset 28
 2001              		@ sp needed
 2002 00aa BDE8F083 		pop	{r4, r5, r6, r7, r8, r9, pc}
 2003              	.LVL293:
 2004              	.L73:
 2005 00ae 00BF     		.align	2
 2006              	.L72:
 2007 00b0 00000000 		.word	lc3_mdct_rot
 2008 00b4 00000000 		.word	lc3_ns_2m5
 2009              		.cfi_endproc
 2010              	.LFE32:
 2011              		.size	lc3_mdct_inverse, .-lc3_mdct_inverse
 2012              		.text
 2013              	.Letext0:
 2014              		.file 3 ".\\liblc3\\include/lc3_private.h"
 2015              		.file 4 "..\\..\\..\\liblc3\\src\\common.h"
 2016              		.file 5 "c:\\program files (x86)\\cypress\\psoc creator\\4.4\\psoc creator\\import\\gnu\\arm\\5.4.