ARM GAS  C:\Users\rdn\AppData\Local\Temp\ccTglAuh.s 			page 1


   1              		.syntax unified
   2              		.cpu cortex-m4
   3              		.eabi_attribute 27, 1
   4              		.fpu fpv4-sp-d16
   5              		.eabi_attribute 20, 1
   6              		.eabi_attribute 21, 1
   7              		.eabi_attribute 23, 3
   8              		.eabi_attribute 24, 1
   9              		.eabi_attribute 25, 1
  10              		.eabi_attribute 26, 1
  11              		.eabi_attribute 30, 1
  12              		.eabi_attribute 34, 1
  13              		.eabi_attribute 18, 4
  14              		.thumb
  15              		.syntax unified
  16              		.file	"pitch_shift.c"
  17              		.text
  18              	.Ltext0:
  19              		.cfi_sections	.debug_frame
  20              		.global	__aeabi_f2d
  21              		.global	__aeabi_d2f
  22              		.section	.text.detect_period,"ax",%progbits
  23              		.align	2
  24              		.global	detect_period
  25              		.thumb
  26              		.thumb_func
  27              		.type	detect_period, %function
  28              	detect_period:
  29              	.LFB555:
  30              		.file 1 "pitch_shift.c"
   1:pitch_shift.c **** /* ========================================
   2:pitch_shift.c ****  *
   3:pitch_shift.c ****  * Copyright YOUR COMPANY, THE YEAR
   4:pitch_shift.c ****  * All Rights Reserved
   5:pitch_shift.c ****  * UNPUBLISHED, LICENSED SOFTWARE.
   6:pitch_shift.c ****  *
   7:pitch_shift.c ****  * CONFIDENTIAL AND PROPRIETARY INFORMATION
   8:pitch_shift.c ****  * WHICH IS THE PROPERTY OF your company.
   9:pitch_shift.c ****  *
  10:pitch_shift.c ****  * ========================================
  11:pitch_shift.c **** */
  12:pitch_shift.c **** 
  13:pitch_shift.c **** #include <math.h>
  14:pitch_shift.c **** #include "pitch_shift.h"
  15:pitch_shift.c **** //#include "project.h"
  16:pitch_shift.c **** 
  17:pitch_shift.c **** float detect_period(int16_t data[], int length) {
  31              		.loc 1 17 0
  32              		.cfi_startproc
  33              		@ args = 0, pretend = 0, frame = 0
  34              		@ frame_needed = 0, uses_anonymous_args = 0
  35              	.LVL0:
  36 0000 2DE9F047 		push	{r4, r5, r6, r7, r8, r9, r10, lr}
  37              		.cfi_def_cfa_offset 32
  38              		.cfi_offset 4, -32
  39              		.cfi_offset 5, -28
  40              		.cfi_offset 6, -24
ARM GAS  C:\Users\rdn\AppData\Local\Temp\ccTglAuh.s 			page 2


  41              		.cfi_offset 7, -20
  42              		.cfi_offset 8, -16
  43              		.cfi_offset 9, -12
  44              		.cfi_offset 10, -8
  45              		.cfi_offset 14, -4
  46              	.LVL1:
  47              	.LBB2:
  18:pitch_shift.c **** 	// source: https://github.com/akellyirl/AutoCorr_Freq_detect
  19:pitch_shift.c **** 	int sum = 0;
  20:pitch_shift.c **** 	int sum_old = 0;
  21:pitch_shift.c **** 	int sum_very_old = 0;
  22:pitch_shift.c **** 	int thresh = 0;
  23:pitch_shift.c **** 	int pd_state = 0;
  24:pitch_shift.c **** 	
  25:pitch_shift.c **** 	sum = 0;
  26:pitch_shift.c **** 	pd_state = 0;
  27:pitch_shift.c **** 	double period = 0;
  28:pitch_shift.c **** 	
  29:pitch_shift.c **** 	for (int i=0; i < length; i++) {
  48              		.loc 1 29 0
  49 0004 0026     		movs	r6, #0
  50              	.LBE2:
  26:pitch_shift.c **** 	double period = 0;
  51              		.loc 1 26 0
  52 0006 B446     		mov	ip, r6
  22:pitch_shift.c **** 	int pd_state = 0;
  53              		.loc 1 22 0
  54 0008 B146     		mov	r9, r6
  20:pitch_shift.c **** 	int sum_very_old = 0;
  55              		.loc 1 20 0
  56 000a B046     		mov	r8, r6
  25:pitch_shift.c **** 	pd_state = 0;
  57              		.loc 1 25 0
  58 000c B646     		mov	lr, r6
  59              	.LBB6:
  60              		.loc 1 29 0
  61 000e 4BE0     		b	.L2
  62              	.LVL2:
  63              	.L3:
  64              	.LBB3:
  30:pitch_shift.c **** 		sum_very_old = sum_old;
  31:pitch_shift.c **** 		sum_old = sum;
  32:pitch_shift.c **** 		sum = 0;
  33:pitch_shift.c **** 		for (int k=0; k < length-i; k++) {
  34:pitch_shift.c **** 			sum += (data[k])*(data[(k+i) % length]) >> 8;
  65              		.loc 1 34 0 discriminator 3
  66 0010 30F913A0 		ldrsh	r10, [r0, r3, lsl #1]
  67 0014 F518     		adds	r5, r6, r3
  68 0016 95FBF1F4 		sdiv	r4, r5, r1
  69 001a 01FB1454 		mls	r4, r1, r4, r5
  70 001e 30F91420 		ldrsh	r2, [r0, r4, lsl #1]
  71 0022 02FB0AF2 		mul	r2, r2, r10
  72 0026 07EB2227 		add	r7, r7, r2, asr #8
  73              	.LVL3:
  33:pitch_shift.c **** 			sum += (data[k])*(data[(k+i) % length]) >> 8;
  74              		.loc 1 33 0 discriminator 3
  75 002a 0133     		adds	r3, r3, #1
ARM GAS  C:\Users\rdn\AppData\Local\Temp\ccTglAuh.s 			page 3


  76              	.LVL4:
  77 002c 01E0     		b	.L8
  78              	.LVL5:
  79              	.L10:
  80              	.LBE3:
  81 002e 0023     		movs	r3, #0
  82 0030 1F46     		mov	r7, r3
  83              	.LVL6:
  84              	.L8:
  85              	.LBB4:
  33:pitch_shift.c **** 			sum += (data[k])*(data[(k+i) % length]) >> 8;
  86              		.loc 1 33 0 is_stmt 0 discriminator 1
  87 0032 8A1B     		subs	r2, r1, r6
  88 0034 9342     		cmp	r3, r2
  89 0036 EBDB     		blt	.L3
  90              	.LBE4:
  35:pitch_shift.c **** 		}
  36:pitch_shift.c **** 		
  37:pitch_shift.c **** 		// Peak Detect State Machine
  38:pitch_shift.c **** 		if (pd_state == 2 && (sum-sum_old) <=0) {
  91              		.loc 1 38 0 is_stmt 1
  92 0038 BCF1020F 		cmp	ip, #2
  93 003c 1FD1     		bne	.L4
  94              		.loc 1 38 0 is_stmt 0 discriminator 1
  95 003e CEEB0703 		rsb	r3, lr, r7
  96              	.LVL7:
  97 0042 002B     		cmp	r3, #0
  98 0044 1BDC     		bgt	.L4
  99              	.LVL8:
 100              	.LBB5:
  39:pitch_shift.c **** 			pd_state = 3;
  40:pitch_shift.c **** 			
  41:pitch_shift.c **** 			// quadratic interpolation
  42:pitch_shift.c **** 			// https://ccrma.stanford.edu/~jos/sasp/Quadratic_Interpolation_Spectral_Peaks.html
  43:pitch_shift.c **** 			float period_shift = ((float) (sum_very_old - sum))/(2*(sum_very_old - 2*sum_old + sum));
 101              		.loc 1 43 0 is_stmt 1
 102 0046 C7EB0803 		rsb	r3, r7, r8
 103 004a 07EE103A 		vmov	s14, r3	@ int
 104 004e B8EEC77A 		vcvt.f32.s32	s14, s14
 105 0052 A8EB4E0E 		sub	lr, r8, lr, lsl #1
 106 0056 7744     		add	r7, r7, lr
 107              	.LVL9:
 108 0058 7F00     		lsls	r7, r7, #1
 109 005a 07EE907A 		vmov	s15, r7	@ int
 110 005e F8EEE77A 		vcvt.f32.s32	s15, s15
 111 0062 C7EE276A 		vdiv.f32	s13, s14, s15
 112              	.LVL10:
  44:pitch_shift.c **** 			period = (float) (i-1) + period_shift;
 113              		.loc 1 44 0
 114 0066 013E     		subs	r6, r6, #1
 115              	.LVL11:
 116 0068 07EE906A 		vmov	s15, r6	@ int
 117 006c F8EEE77A 		vcvt.f32.s32	s15, s15
 118 0070 76EEA77A 		vadd.f32	s15, s13, s15
 119 0074 17EE900A 		vmov	r0, s15
 120              	.LVL12:
 121 0078 FFF7FEFF 		bl	__aeabi_f2d
ARM GAS  C:\Users\rdn\AppData\Local\Temp\ccTglAuh.s 			page 4


 122              	.LVL13:
  45:pitch_shift.c **** 			break;
 123              		.loc 1 45 0
 124 007c 18E0     		b	.L5
 125              	.LVL14:
 126              	.L4:
 127              	.LBE5:
  46:pitch_shift.c **** 		}
  47:pitch_shift.c **** 		if (pd_state == 1 && (sum > thresh) && (sum-sum_old) > 0) {
 128              		.loc 1 47 0
 129 007e BCF1010F 		cmp	ip, #1
 130 0082 07D1     		bne	.L6
 131              		.loc 1 47 0 is_stmt 0 discriminator 1
 132 0084 4F45     		cmp	r7, r9
 133 0086 05DD     		ble	.L6
 134              		.loc 1 47 0 discriminator 2
 135 0088 CEEB0703 		rsb	r3, lr, r7
 136 008c 002B     		cmp	r3, #0
 137 008e 01DD     		ble	.L6
  48:pitch_shift.c **** 			pd_state = 2;
 138              		.loc 1 48 0 is_stmt 1
 139 0090 4FF0020C 		mov	ip, #2
 140              	.LVL15:
 141              	.L6:
  49:pitch_shift.c **** 		}
  50:pitch_shift.c **** 		if (!i) {
 142              		.loc 1 50 0
 143 0094 2EB9     		cbnz	r6, .L7
  51:pitch_shift.c **** 			thresh = sum/2;
 144              		.loc 1 51 0
 145 0096 07EBD779 		add	r9, r7, r7, lsr #31
 146              	.LVL16:
 147 009a 4FEA6909 		asr	r9, r9, #1
 148              	.LVL17:
  52:pitch_shift.c **** 			pd_state = 1;
 149              		.loc 1 52 0
 150 009e 4FF0010C 		mov	ip, #1
 151              	.LVL18:
 152              	.L7:
  29:pitch_shift.c **** 		sum_very_old = sum_old;
 153              		.loc 1 29 0 discriminator 2
 154 00a2 0136     		adds	r6, r6, #1
 155              	.LVL19:
  31:pitch_shift.c **** 		sum = 0;
 156              		.loc 1 31 0 discriminator 2
 157 00a4 F046     		mov	r8, lr
 158              	.LVL20:
 159 00a6 BE46     		mov	lr, r7
 160              	.LVL21:
 161              	.L2:
  29:pitch_shift.c **** 		sum_very_old = sum_old;
 162              		.loc 1 29 0 discriminator 1
 163 00a8 8E42     		cmp	r6, r1
 164 00aa C0DB     		blt	.L10
 165              	.LBE6:
  27:pitch_shift.c **** 	
 166              		.loc 1 27 0
ARM GAS  C:\Users\rdn\AppData\Local\Temp\ccTglAuh.s 			page 5


 167 00ac 0020     		movs	r0, #0
 168              	.LVL22:
 169 00ae 0021     		movs	r1, #0
 170              	.LVL23:
 171              	.L5:
  53:pitch_shift.c **** 		}
  54:pitch_shift.c **** 	}
  55:pitch_shift.c **** 	
  56:pitch_shift.c **** 	return period;
 172              		.loc 1 56 0
 173 00b0 FFF7FEFF 		bl	__aeabi_d2f
 174              	.LVL24:
  57:pitch_shift.c **** }
 175              		.loc 1 57 0
 176 00b4 BDE8F087 		pop	{r4, r5, r6, r7, r8, r9, r10, pc}
 177              		.cfi_endproc
 178              	.LFE555:
 179              		.size	detect_period, .-detect_period
 180              		.global	__aeabi_ddiv
 181              		.global	__aeabi_dmul
 182              		.global	__aeabi_d2iz
 183              		.section	.text.approx_semitones,"ax",%progbits
 184              		.align	2
 185              		.global	approx_semitones
 186              		.thumb
 187              		.thumb_func
 188              		.type	approx_semitones, %function
 189              	approx_semitones:
 190              	.LFB556:
  58:pitch_shift.c **** 
  59:pitch_shift.c **** int approx_semitones(float freq_hz) {
 191              		.loc 1 59 0
 192              		.cfi_startproc
 193              		@ args = 0, pretend = 0, frame = 0
 194              		@ frame_needed = 0, uses_anonymous_args = 0
 195              	.LVL25:
 196 0000 08B5     		push	{r3, lr}
 197              		.cfi_def_cfa_offset 8
 198              		.cfi_offset 3, -8
 199              		.cfi_offset 14, -4
 200              	.LVL26:
  60:pitch_shift.c **** 	// a pitch s semitones away from a4 has frequency 440*2^(s/12) Hz
  61:pitch_shift.c **** 	float r_in = freq_hz/440;
  62:pitch_shift.c **** 	float s_in = 12*log2(r_in);
 201              		.loc 1 62 0
 202 0002 DFED117A 		vldr.32	s15, .L14+8
 203 0006 06EE900A 		vmov	s13, r0
 204 000a 86EEA77A 		vdiv.f32	s14, s13, s15
 205              	.LVL27:
 206 000e 17EE100A 		vmov	r0, s14
 207              	.LVL28:
 208 0012 FFF7FEFF 		bl	__aeabi_f2d
 209              	.LVL29:
 210 0016 FFF7FEFF 		bl	log
 211              	.LVL30:
 212 001a 09A3     		adr	r3, .L14
 213 001c D3E90023 		ldrd	r2, [r3]
ARM GAS  C:\Users\rdn\AppData\Local\Temp\ccTglAuh.s 			page 6


 214 0020 FFF7FEFF 		bl	__aeabi_ddiv
 215              	.LVL31:
 216 0024 0022     		movs	r2, #0
 217 0026 094B     		ldr	r3, .L14+12
 218 0028 FFF7FEFF 		bl	__aeabi_dmul
 219              	.LVL32:
 220 002c FFF7FEFF 		bl	__aeabi_d2f
 221              	.LVL33:
  63:pitch_shift.c **** 	
  64:pitch_shift.c **** 	return round(s_in);
 222              		.loc 1 64 0
 223 0030 FFF7FEFF 		bl	__aeabi_f2d
 224              	.LVL34:
 225 0034 FFF7FEFF 		bl	round
 226              	.LVL35:
 227 0038 FFF7FEFF 		bl	__aeabi_d2iz
 228              	.LVL36:
  65:pitch_shift.c **** }
 229              		.loc 1 65 0
 230 003c 08BD     		pop	{r3, pc}
 231              	.L15:
 232 003e 00BF     		.align	3
 233              	.L14:
 234 0040 EF39FAFE 		.word	-17155601
 235 0044 422EE63F 		.word	1072049730
 236 0048 0000DC43 		.word	1138491392
 237 004c 00002840 		.word	1076363264
 238              		.cfi_endproc
 239              	.LFE556:
 240              		.size	approx_semitones, .-approx_semitones
 241              		.section	.text.freq_hz,"ax",%progbits
 242              		.align	2
 243              		.global	freq_hz
 244              		.thumb
 245              		.thumb_func
 246              		.type	freq_hz, %function
 247              	freq_hz:
 248              	.LFB557:
  66:pitch_shift.c **** 
  67:pitch_shift.c **** float freq_hz(int semitones) {
 249              		.loc 1 67 0
 250              		.cfi_startproc
 251              		@ args = 0, pretend = 0, frame = 0
 252              		@ frame_needed = 0, uses_anonymous_args = 0
 253              	.LVL37:
 254 0000 08B5     		push	{r3, lr}
 255              		.cfi_def_cfa_offset 8
 256              		.cfi_offset 3, -8
 257              		.cfi_offset 14, -4
  68:pitch_shift.c **** 	float r_rounded = exp2((float) semitones/12);
 258              		.loc 1 68 0
 259 0002 07EE900A 		vmov	s15, r0	@ int
 260 0006 B8EEE77A 		vcvt.f32.s32	s14, s15
 261 000a F2EE087A 		vmov.f32	s15, #1.2e+1
 262 000e C7EE276A 		vdiv.f32	s13, s14, s15
 263 0012 16EE900A 		vmov	r0, s13
 264              	.LVL38:
ARM GAS  C:\Users\rdn\AppData\Local\Temp\ccTglAuh.s 			page 7


 265 0016 FFF7FEFF 		bl	__aeabi_f2d
 266              	.LVL39:
 267 001a FFF7FEFF 		bl	exp2
 268              	.LVL40:
 269 001e FFF7FEFF 		bl	__aeabi_d2f
 270              	.LVL41:
  69:pitch_shift.c **** 	return 440*r_rounded;
  70:pitch_shift.c **** }
 271              		.loc 1 70 0
 272 0022 DFED047A 		vldr.32	s15, .L18
 273 0026 07EE100A 		vmov	s14, r0
 274 002a 67EE277A 		vmul.f32	s15, s14, s15
 275 002e 17EE900A 		vmov	r0, s15
 276              	.LVL42:
 277 0032 08BD     		pop	{r3, pc}
 278              	.L19:
 279              		.align	2
 280              	.L18:
 281 0034 0000DC43 		.word	1138491392
 282              		.cfi_endproc
 283              	.LFE557:
 284              		.size	freq_hz, .-freq_hz
 285              		.text
 286              	.Letext0:
 287              		.file 2 "c:\\program files (x86)\\cypress\\psoc creator\\4.4\\psoc creator\\import\\gnu\\arm\\5.4.
 288              		.file 3 "c:\\program files (x86)\\cypress\\psoc creator\\4.4\\psoc creator\\import\\gnu\\arm\\5.4.
 289              		.file 4 "Generated_Source\\PSoC6\\pdl\\drivers/peripheral/device/cy_device.h"
 290              		.file 5 "Generated_Source\\PSoC6\\pdl\\drivers/peripheral/scb/cy_scb_uart.h"
 291              		.file 6 "Generated_Source\\PSoC6\\pdl\\drivers/peripheral/tcpwm/cy_tcpwm_counter.h"
 292              		.file 7 "Generated_Source\\PSoC6\\pdl\\cmsis/include/core_cm4.h"
 293              		.file 8 "Generated_Source\\PSoC6/UART_DEBUG.h"
 294              		.file 9 "Generated_Source\\PSoC6/TX_COUNTER.h"
 295              		.file 10 "c:\\program files (x86)\\cypress\\psoc creator\\4.4\\psoc creator\\import\\gnu\\arm\\5.4