ARM GAS  C:\Users\rdn\AppData\Local\Temp\ccfqZhUG.s 			page 1


   1              		.syntax unified
   2              		.cpu cortex-m4
   3              		.eabi_attribute 27, 1
   4              		.fpu fpv4-sp-d16
   5              		.eabi_attribute 20, 1
   6              		.eabi_attribute 21, 1
   7              		.eabi_attribute 23, 3
   8              		.eabi_attribute 24, 1
   9              		.eabi_attribute 25, 1
  10              		.eabi_attribute 26, 1
  11              		.eabi_attribute 30, 1
  12              		.eabi_attribute 34, 1
  13              		.eabi_attribute 18, 4
  14              		.thumb
  15              		.syntax unified
  16              		.file	"plc.c"
  17              		.text
  18              	.Ltext0:
  19              		.cfi_sections	.debug_frame
  20              		.section	.text.lc3_plc_suspend,"ax",%progbits
  21              		.align	2
  22              		.global	lc3_plc_suspend
  23              		.thumb
  24              		.thumb_func
  25              		.type	lc3_plc_suspend, %function
  26              	lc3_plc_suspend:
  27              	.LFB21:
  28              		.file 1 "..\\..\\..\\liblc3\\src\\plc.c"
   1:..\..\..\liblc3\src/plc.c **** /******************************************************************************
   2:..\..\..\liblc3\src/plc.c ****  *
   3:..\..\..\liblc3\src/plc.c ****  *  Copyright 2022 Google LLC
   4:..\..\..\liblc3\src/plc.c ****  *
   5:..\..\..\liblc3\src/plc.c ****  *  Licensed under the Apache License, Version 2.0 (the "License");
   6:..\..\..\liblc3\src/plc.c ****  *  you may not use this file except in compliance with the License.
   7:..\..\..\liblc3\src/plc.c ****  *  You may obtain a copy of the License at:
   8:..\..\..\liblc3\src/plc.c ****  *
   9:..\..\..\liblc3\src/plc.c ****  *  http://www.apache.org/licenses/LICENSE-2.0
  10:..\..\..\liblc3\src/plc.c ****  *
  11:..\..\..\liblc3\src/plc.c ****  *  Unless required by applicable law or agreed to in writing, software
  12:..\..\..\liblc3\src/plc.c ****  *  distributed under the License is distributed on an "AS IS" BASIS,
  13:..\..\..\liblc3\src/plc.c ****  *  WITHOUT WARRANTIES OR CONDITIONS OF ANY KIND, either express or implied.
  14:..\..\..\liblc3\src/plc.c ****  *  See the License for the specific language governing permissions and
  15:..\..\..\liblc3\src/plc.c ****  *  limitations under the License.
  16:..\..\..\liblc3\src/plc.c ****  *
  17:..\..\..\liblc3\src/plc.c ****  ******************************************************************************/
  18:..\..\..\liblc3\src/plc.c **** 
  19:..\..\..\liblc3\src/plc.c **** #include "plc.h"
  20:..\..\..\liblc3\src/plc.c **** #include "tables.h"
  21:..\..\..\liblc3\src/plc.c **** 
  22:..\..\..\liblc3\src/plc.c **** 
  23:..\..\..\liblc3\src/plc.c **** /**
  24:..\..\..\liblc3\src/plc.c ****  * Reset Packet Loss Concealment state
  25:..\..\..\liblc3\src/plc.c ****  */
  26:..\..\..\liblc3\src/plc.c **** void lc3_plc_reset(struct lc3_plc_state *plc)
  27:..\..\..\liblc3\src/plc.c **** {
  28:..\..\..\liblc3\src/plc.c ****     plc->seed = 24607;
  29:..\..\..\liblc3\src/plc.c ****     lc3_plc_suspend(plc);
ARM GAS  C:\Users\rdn\AppData\Local\Temp\ccfqZhUG.s 			page 2


  30:..\..\..\liblc3\src/plc.c **** }
  31:..\..\..\liblc3\src/plc.c **** 
  32:..\..\..\liblc3\src/plc.c **** /**
  33:..\..\..\liblc3\src/plc.c ****  * Suspend PLC execution (Good frame received)
  34:..\..\..\liblc3\src/plc.c ****  */
  35:..\..\..\liblc3\src/plc.c **** void lc3_plc_suspend(struct lc3_plc_state *plc)
  36:..\..\..\liblc3\src/plc.c **** {
  29              		.loc 1 36 0
  30              		.cfi_startproc
  31              		@ args = 0, pretend = 0, frame = 0
  32              		@ frame_needed = 0, uses_anonymous_args = 0
  33              		@ link register save eliminated.
  34              	.LVL0:
  37:..\..\..\liblc3\src/plc.c ****     plc->count = 1;
  35              		.loc 1 37 0
  36 0000 0123     		movs	r3, #1
  37 0002 4360     		str	r3, [r0, #4]
  38:..\..\..\liblc3\src/plc.c ****     plc->alpha = 1.0f;
  38              		.loc 1 38 0
  39 0004 4FF07E53 		mov	r3, #1065353216
  40 0008 8360     		str	r3, [r0, #8]	@ float
  41 000a 7047     		bx	lr
  42              		.cfi_endproc
  43              	.LFE21:
  44              		.size	lc3_plc_suspend, .-lc3_plc_suspend
  45              		.section	.text.lc3_plc_reset,"ax",%progbits
  46              		.align	2
  47              		.global	lc3_plc_reset
  48              		.thumb
  49              		.thumb_func
  50              		.type	lc3_plc_reset, %function
  51              	lc3_plc_reset:
  52              	.LFB20:
  27:..\..\..\liblc3\src/plc.c ****     plc->seed = 24607;
  53              		.loc 1 27 0
  54              		.cfi_startproc
  55              		@ args = 0, pretend = 0, frame = 0
  56              		@ frame_needed = 0, uses_anonymous_args = 0
  57              	.LVL1:
  58 0000 08B5     		push	{r3, lr}
  59              		.cfi_def_cfa_offset 8
  60              		.cfi_offset 3, -8
  61              		.cfi_offset 14, -4
  28:..\..\..\liblc3\src/plc.c ****     lc3_plc_suspend(plc);
  62              		.loc 1 28 0
  63 0002 46F21F03 		movw	r3, #24607
  64 0006 0380     		strh	r3, [r0]	@ movhi
  29:..\..\..\liblc3\src/plc.c **** }
  65              		.loc 1 29 0
  66 0008 FFF7FEFF 		bl	lc3_plc_suspend
  67              	.LVL2:
  68 000c 08BD     		pop	{r3, pc}
  69              		.cfi_endproc
  70              	.LFE20:
  71              		.size	lc3_plc_reset, .-lc3_plc_reset
  72 000e 00BF     		.section	.text.lc3_plc_synthesize,"ax",%progbits
  73              		.align	2
ARM GAS  C:\Users\rdn\AppData\Local\Temp\ccfqZhUG.s 			page 3


  74              		.global	lc3_plc_synthesize
  75              		.thumb
  76              		.thumb_func
  77              		.type	lc3_plc_synthesize, %function
  78              	lc3_plc_synthesize:
  79              	.LFB22:
  39:..\..\..\liblc3\src/plc.c **** }
  40:..\..\..\liblc3\src/plc.c **** 
  41:..\..\..\liblc3\src/plc.c **** /**
  42:..\..\..\liblc3\src/plc.c ****  * Synthesis of a PLC frame
  43:..\..\..\liblc3\src/plc.c ****  */
  44:..\..\..\liblc3\src/plc.c **** void lc3_plc_synthesize(enum lc3_dt dt, enum lc3_srate sr,
  45:..\..\..\liblc3\src/plc.c ****     struct lc3_plc_state *plc, const float *x, float *y)
  46:..\..\..\liblc3\src/plc.c **** {
  80              		.loc 1 46 0
  81              		.cfi_startproc
  82              		@ args = 4, pretend = 0, frame = 0
  83              		@ frame_needed = 0, uses_anonymous_args = 0
  84              		@ link register save eliminated.
  85              	.LVL3:
  86 0000 F0B4     		push	{r4, r5, r6, r7}
  87              		.cfi_def_cfa_offset 16
  88              		.cfi_offset 4, -16
  89              		.cfi_offset 5, -12
  90              		.cfi_offset 6, -8
  91              		.cfi_offset 7, -4
  92 0002 049D     		ldr	r5, [sp, #16]
  47:..\..\..\liblc3\src/plc.c ****     uint16_t seed = plc->seed;
  93              		.loc 1 47 0
  94 0004 1488     		ldrh	r4, [r2]
  95              	.LVL4:
  48:..\..\..\liblc3\src/plc.c ****     float alpha = plc->alpha;
  96              		.loc 1 48 0
  97 0006 92ED027A 		vldr.32	s14, [r2, #8]
  98              	.LVL5:
  99              	.LBB5:
 100              	.LBB6:
 101              		.file 2 "..\\..\\..\\liblc3\\src\\tables.h"
   1:..\..\..\liblc3\src/tables.h **** /******************************************************************************
   2:..\..\..\liblc3\src/tables.h ****  *
   3:..\..\..\liblc3\src/tables.h ****  *  Copyright 2022 Google LLC
   4:..\..\..\liblc3\src/tables.h ****  *
   5:..\..\..\liblc3\src/tables.h ****  *  Licensed under the Apache License, Version 2.0 (the "License");
   6:..\..\..\liblc3\src/tables.h ****  *  you may not use this file except in compliance with the License.
   7:..\..\..\liblc3\src/tables.h ****  *  You may obtain a copy of the License at:
   8:..\..\..\liblc3\src/tables.h ****  *
   9:..\..\..\liblc3\src/tables.h ****  *  http://www.apache.org/licenses/LICENSE-2.0
  10:..\..\..\liblc3\src/tables.h ****  *
  11:..\..\..\liblc3\src/tables.h ****  *  Unless required by applicable law or agreed to in writing, software
  12:..\..\..\liblc3\src/tables.h ****  *  distributed under the License is distributed on an "AS IS" BASIS,
  13:..\..\..\liblc3\src/tables.h ****  *  WITHOUT WARRANTIES OR CONDITIONS OF ANY KIND, either express or implied.
  14:..\..\..\liblc3\src/tables.h ****  *  See the License for the specific language governing permissions and
  15:..\..\..\liblc3\src/tables.h ****  *  limitations under the License.
  16:..\..\..\liblc3\src/tables.h ****  *
  17:..\..\..\liblc3\src/tables.h ****  ******************************************************************************/
  18:..\..\..\liblc3\src/tables.h **** 
  19:..\..\..\liblc3\src/tables.h **** #ifndef __LC3_TABLES_H
ARM GAS  C:\Users\rdn\AppData\Local\Temp\ccfqZhUG.s 			page 4


  20:..\..\..\liblc3\src/tables.h **** #define __LC3_TABLES_H
  21:..\..\..\liblc3\src/tables.h **** 
  22:..\..\..\liblc3\src/tables.h **** #include "common.h"
  23:..\..\..\liblc3\src/tables.h **** #include "bits.h"
  24:..\..\..\liblc3\src/tables.h **** 
  25:..\..\..\liblc3\src/tables.h **** 
  26:..\..\..\liblc3\src/tables.h **** /**
  27:..\..\..\liblc3\src/tables.h ****  * Characteristics
  28:..\..\..\liblc3\src/tables.h ****  *
  29:..\..\..\liblc3\src/tables.h ****  *   ns   Number of temporal samples / frequency coefficients within a frame
  30:..\..\..\liblc3\src/tables.h ****  *
  31:..\..\..\liblc3\src/tables.h ****  *   ne   Number of encoded frequency coefficients
  32:..\..\..\liblc3\src/tables.h ****  *
  33:..\..\..\liblc3\src/tables.h ****  *   nd   Number of MDCT delayed samples, sum of half a frame and an ovelap
  34:..\..\..\liblc3\src/tables.h ****  *        of future by 1.25 ms (2.5ms, 5ms and 10ms frame durations),
  35:..\..\..\liblc3\src/tables.h ****  *        or 2 ms (7.5ms frame duration).
  36:..\..\..\liblc3\src/tables.h ****  *
  37:..\..\..\liblc3\src/tables.h ****  *   nh   Number of 18 ms samples of the history buffer, aligned on a frame
  38:..\..\..\liblc3\src/tables.h ****  *
  39:..\..\..\liblc3\src/tables.h ****  *   nt   Number of 1.25 ms previous samples
  40:..\..\..\liblc3\src/tables.h ****  */
  41:..\..\..\liblc3\src/tables.h **** 
  42:..\..\..\liblc3\src/tables.h **** extern const int lc3_ns_2m5[LC3_NUM_SRATE];
  43:..\..\..\liblc3\src/tables.h **** extern const int lc3_ne_2m5[LC3_NUM_SRATE];
  44:..\..\..\liblc3\src/tables.h **** extern const int lc3_ns_4m [LC3_NUM_SRATE];
  45:..\..\..\liblc3\src/tables.h **** 
  46:..\..\..\liblc3\src/tables.h **** static inline int lc3_ns(enum lc3_dt dt, enum lc3_srate sr) {
  47:..\..\..\liblc3\src/tables.h ****     return lc3_ns_2m5[sr] * (1 + dt);
  48:..\..\..\liblc3\src/tables.h **** }
  49:..\..\..\liblc3\src/tables.h **** 
  50:..\..\..\liblc3\src/tables.h **** static inline int lc3_ne(enum lc3_dt dt, enum lc3_srate sr) {
  51:..\..\..\liblc3\src/tables.h ****     return lc3_ne_2m5[sr] * (1 + dt);
 102              		.loc 2 51 0
 103 000a 204E     		ldr	r6, .L13
 104 000c 56F82110 		ldr	r1, [r6, r1, lsl #2]
 105              	.LVL6:
 106 0010 00FB0110 		mla	r0, r0, r1, r1
 107              	.LVL7:
 108              	.LBE6:
 109              	.LBE5:
  49:..\..\..\liblc3\src/plc.c ****     int ne = lc3_ne(dt, sr);
  50:..\..\..\liblc3\src/plc.c **** 
  51:..\..\..\liblc3\src/plc.c ****     alpha *= (plc->count < 4 ? 1.0f :
 110              		.loc 1 51 0
 111 0014 5168     		ldr	r1, [r2, #4]
 112 0016 0329     		cmp	r1, #3
 113 0018 04DD     		ble	.L10
  52:..\..\..\liblc3\src/plc.c ****               plc->count < 8 ? 0.9f : 0.85f);
 114              		.loc 1 52 0
 115 001a 0729     		cmp	r1, #7
 116 001c 05DC     		bgt	.L11
 117 001e DFED1C7A 		vldr.32	s15, .L13+4
 118 0022 04E0     		b	.L5
 119              	.L10:
  51:..\..\..\liblc3\src/plc.c ****               plc->count < 8 ? 0.9f : 0.85f);
 120              		.loc 1 51 0
 121 0024 F7EE007A 		vmov.f32	s15, #1.0e+0
ARM GAS  C:\Users\rdn\AppData\Local\Temp\ccfqZhUG.s 			page 5


 122 0028 01E0     		b	.L5
 123              	.L11:
 124              		.loc 1 52 0
 125 002a DFED1A7A 		vldr.32	s15, .L13+8
 126              	.L5:
  51:..\..\..\liblc3\src/plc.c ****               plc->count < 8 ? 0.9f : 0.85f);
 127              		.loc 1 51 0 discriminator 3
 128 002e 27EE877A 		vmul.f32	s14, s15, s14
 129              	.LVL8:
 130              	.LBB7:
  53:..\..\..\liblc3\src/plc.c **** 
  54:..\..\..\liblc3\src/plc.c ****     for (int i = 0; i < ne; i++) {
 131              		.loc 1 54 0 discriminator 3
 132 0032 0026     		movs	r6, #0
 133 0034 1FE0     		b	.L6
 134              	.LVL9:
 135              	.L9:
  55:..\..\..\liblc3\src/plc.c ****         seed = (16831 + seed * 12821) & 0xffff;
 136              		.loc 1 55 0
 137 0036 04EB8401 		add	r1, r4, r4, lsl #2
 138 003a 04EBC111 		add	r1, r4, r1, lsl #7
 139 003e 01EB8101 		add	r1, r1, r1, lsl #2
 140 0042 04EB8101 		add	r1, r4, r1, lsl #2
 141 0046 44F2BF14 		movw	r4, #16831
 142              	.LVL10:
 143 004a 14FA81F1 		uxtah	r1, r4, r1
 144 004e 8CB2     		uxth	r4, r1
 145              	.LVL11:
  56:..\..\..\liblc3\src/plc.c ****         y[i] = alpha * (seed & 0x8000 ? -x[i] : x[i]);
 146              		.loc 1 56 0
 147 0050 B100     		lsls	r1, r6, #2
 148 0052 6F18     		adds	r7, r5, r1
 149 0054 14F4004F 		tst	r4, #32768
 150 0058 05D0     		beq	.L7
 151              		.loc 1 56 0 is_stmt 0 discriminator 1
 152 005a 1944     		add	r1, r1, r3
 153 005c D1ED007A 		vldr.32	s15, [r1]
 154 0060 F1EE677A 		vneg.f32	s15, s15
 155 0064 02E0     		b	.L8
 156              	.L7:
 157              		.loc 1 56 0 discriminator 2
 158 0066 1944     		add	r1, r1, r3
 159 0068 D1ED007A 		vldr.32	s15, [r1]
 160              	.L8:
 161              		.loc 1 56 0 discriminator 4
 162 006c 67EE877A 		vmul.f32	s15, s15, s14
 163 0070 C7ED007A 		vstr.32	s15, [r7]
  54:..\..\..\liblc3\src/plc.c ****         seed = (16831 + seed * 12821) & 0xffff;
 164              		.loc 1 54 0 is_stmt 1 discriminator 4
 165 0074 0136     		adds	r6, r6, #1
 166              	.LVL12:
 167              	.L6:
  54:..\..\..\liblc3\src/plc.c ****         seed = (16831 + seed * 12821) & 0xffff;
 168              		.loc 1 54 0 is_stmt 0 discriminator 2
 169 0076 8642     		cmp	r6, r0
 170 0078 DDDB     		blt	.L9
 171              	.LBE7:
ARM GAS  C:\Users\rdn\AppData\Local\Temp\ccfqZhUG.s 			page 6


  57:..\..\..\liblc3\src/plc.c ****     }
  58:..\..\..\liblc3\src/plc.c **** 
  59:..\..\..\liblc3\src/plc.c ****     plc->seed = seed;
 172              		.loc 1 59 0 is_stmt 1
 173 007a 1480     		strh	r4, [r2]	@ movhi
  60:..\..\..\liblc3\src/plc.c ****     plc->alpha = alpha;
 174              		.loc 1 60 0
 175 007c 82ED027A 		vstr.32	s14, [r2, #8]
  61:..\..\..\liblc3\src/plc.c ****     plc->count++;
 176              		.loc 1 61 0
 177 0080 5368     		ldr	r3, [r2, #4]
 178              	.LVL13:
 179 0082 0133     		adds	r3, r3, #1
 180 0084 5360     		str	r3, [r2, #4]
  62:..\..\..\liblc3\src/plc.c **** }
 181              		.loc 1 62 0
 182 0086 F0BC     		pop	{r4, r5, r6, r7}
 183              		.cfi_restore 7
 184              		.cfi_restore 6
 185              		.cfi_restore 5
 186              		.cfi_restore 4
 187              		.cfi_def_cfa_offset 0
 188              	.LVL14:
 189 0088 7047     		bx	lr
 190              	.L14:
 191 008a 00BF     		.align	2
 192              	.L13:
 193 008c 00000000 		.word	lc3_ne_2m5
 194 0090 6666663F 		.word	1063675494
 195 0094 9A99593F 		.word	1062836634
 196              		.cfi_endproc
 197              	.LFE22:
 198              		.size	lc3_plc_synthesize, .-lc3_plc_synthesize
 199              		.text
 200              	.Letext0:
 201              		.file 3 "c:\\program files (x86)\\cypress\\psoc creator\\4.4\\psoc creator\\import\\gnu\\arm\\5.4.
 202              		.file 4 "c:\\program files (x86)\\cypress\\psoc creator\\4.4\\psoc creator\\import\\gnu\\arm\\5.4.
 203              		.file 5 ".\\liblc3\\include/lc3_private.h"