ARM GAS  C:\Users\rdn\AppData\Local\Temp\ccMcSjbj.s 			page 1


   1              		.syntax unified
   2              		.cpu cortex-m0plus
   3              		.fpu softvfp
   4              		.eabi_attribute 20, 1
   5              		.eabi_attribute 21, 1
   6              		.eabi_attribute 23, 3
   7              		.eabi_attribute 24, 1
   8              		.eabi_attribute 25, 1
   9              		.eabi_attribute 26, 1
  10              		.eabi_attribute 30, 1
  11              		.eabi_attribute 34, 0
  12              		.eabi_attribute 18, 4
  13              		.thumb
  14              		.syntax unified
  15              		.file	"attdet.c"
  16              		.text
  17              	.Ltext0:
  18              		.cfi_sections	.debug_frame
  19              		.section	.text.lc3_attdet_run,"ax",%progbits
  20              		.align	2
  21              		.global	lc3_attdet_run
  22              		.code	16
  23              		.thumb_func
  24              		.type	lc3_attdet_run, %function
  25              	lc3_attdet_run:
  26              	.LFB7:
  27              		.file 1 "..\\..\\..\\liblc3\\src\\attdet.c"
   1:..\..\..\liblc3\src/attdet.c **** /******************************************************************************
   2:..\..\..\liblc3\src/attdet.c ****  *
   3:..\..\..\liblc3\src/attdet.c ****  *  Copyright 2022 Google LLC
   4:..\..\..\liblc3\src/attdet.c ****  *
   5:..\..\..\liblc3\src/attdet.c ****  *  Licensed under the Apache License, Version 2.0 (the "License");
   6:..\..\..\liblc3\src/attdet.c ****  *  you may not use this file except in compliance with the License.
   7:..\..\..\liblc3\src/attdet.c ****  *  You may obtain a copy of the License at:
   8:..\..\..\liblc3\src/attdet.c ****  *
   9:..\..\..\liblc3\src/attdet.c ****  *  http://www.apache.org/licenses/LICENSE-2.0
  10:..\..\..\liblc3\src/attdet.c ****  *
  11:..\..\..\liblc3\src/attdet.c ****  *  Unless required by applicable law or agreed to in writing, software
  12:..\..\..\liblc3\src/attdet.c ****  *  distributed under the License is distributed on an "AS IS" BASIS,
  13:..\..\..\liblc3\src/attdet.c ****  *  WITHOUT WARRANTIES OR CONDITIONS OF ANY KIND, either express or implied.
  14:..\..\..\liblc3\src/attdet.c ****  *  See the License for the specific language governing permissions and
  15:..\..\..\liblc3\src/attdet.c ****  *  limitations under the License.
  16:..\..\..\liblc3\src/attdet.c ****  *
  17:..\..\..\liblc3\src/attdet.c ****  ******************************************************************************/
  18:..\..\..\liblc3\src/attdet.c **** 
  19:..\..\..\liblc3\src/attdet.c **** #include "attdet.h"
  20:..\..\..\liblc3\src/attdet.c **** 
  21:..\..\..\liblc3\src/attdet.c **** 
  22:..\..\..\liblc3\src/attdet.c **** /**
  23:..\..\..\liblc3\src/attdet.c ****  * Time domain attack detector
  24:..\..\..\liblc3\src/attdet.c ****  */
  25:..\..\..\liblc3\src/attdet.c **** bool lc3_attdet_run(enum lc3_dt dt, enum lc3_srate sr,
  26:..\..\..\liblc3\src/attdet.c ****     int nbytes, struct lc3_attdet_analysis *attdet, const int16_t *x)
  27:..\..\..\liblc3\src/attdet.c **** {
  28              		.loc 1 27 0
  29              		.cfi_startproc
  30              		@ args = 4, pretend = 0, frame = 88
ARM GAS  C:\Users\rdn\AppData\Local\Temp\ccMcSjbj.s 			page 2


  31              		@ frame_needed = 0, uses_anonymous_args = 0
  32              	.LVL0:
  33 0000 F0B5     		push	{r4, r5, r6, r7, lr}
  34              		.cfi_def_cfa_offset 20
  35              		.cfi_offset 4, -20
  36              		.cfi_offset 5, -16
  37              		.cfi_offset 6, -12
  38              		.cfi_offset 7, -8
  39              		.cfi_offset 14, -4
  40 0002 5746     		mov	r7, r10
  41 0004 4E46     		mov	r6, r9
  42 0006 4546     		mov	r5, r8
  43 0008 E0B4     		push	{r5, r6, r7}
  44              		.cfi_def_cfa_offset 32
  45              		.cfi_offset 8, -32
  46              		.cfi_offset 9, -28
  47              		.cfi_offset 10, -24
  48 000a 96B0     		sub	sp, sp, #88
  49              		.cfi_def_cfa_offset 120
  50 000c 0700     		movs	r7, r0
  51 000e 8846     		mov	r8, r1
  52 0010 1500     		movs	r5, r2
  53 0012 9946     		mov	r9, r3
  54 0014 1E9C     		ldr	r4, [sp, #120]
  28:..\..\..\liblc3\src/attdet.c ****     /* --- Check enabling --- */
  29:..\..\..\liblc3\src/attdet.c **** 
  30:..\..\..\liblc3\src/attdet.c ****     const int nbytes_ranges[][LC3_NUM_SRATE - LC3_SRATE_32K][2] = {
  55              		.loc 1 30 0
  56 0016 4022     		movs	r2, #64
  57              	.LVL1:
  58 0018 0021     		movs	r1, #0
  59              	.LVL2:
  60 001a 06A8     		add	r0, sp, #24
  61              	.LVL3:
  62 001c FFF7FEFF 		bl	memset
  63              	.LVL4:
  64 0020 3D23     		movs	r3, #61
  65 0022 0693     		str	r3, [sp, #24]
  66 0024 5833     		adds	r3, r3, #88
  67 0026 0793     		str	r3, [sp, #28]
  68 0028 4B22     		movs	r2, #75
  69 002a 0892     		str	r2, [sp, #32]
  70 002c 0993     		str	r3, [sp, #36]
  71 002e 443B     		subs	r3, r3, #68
  72 0030 0E93     		str	r3, [sp, #56]
  73 0032 6E4B     		ldr	r3, .L25
  74 0034 0F93     		str	r3, [sp, #60]
  75 0036 1932     		adds	r2, r2, #25
  76 0038 1092     		str	r2, [sp, #64]
  77 003a 1193     		str	r3, [sp, #68]
  31:..\..\..\liblc3\src/attdet.c ****         [LC3_DT_7M5 - LC3_DT_7M5] = { { 61,     149 }, {  75,     149 } },
  32:..\..\..\liblc3\src/attdet.c ****         [LC3_DT_10M - LC3_DT_7M5] = { { 81, INT_MAX }, { 100, INT_MAX } },
  33:..\..\..\liblc3\src/attdet.c ****     };
  34:..\..\..\liblc3\src/attdet.c **** 
  35:..\..\..\liblc3\src/attdet.c ****     if (dt < LC3_DT_7M5 || sr < LC3_SRATE_32K || lc3_hr(sr) ||
  78              		.loc 1 35 0
  79 003c 012F     		cmp	r7, #1
ARM GAS  C:\Users\rdn\AppData\Local\Temp\ccMcSjbj.s 			page 3


  80 003e 00D8     		bhi	.LCB56
  81 0040 C5E0     		b	.L17	@long jump
  82              	.LCB56:
  83              		.loc 1 35 0 is_stmt 0 discriminator 1
  84 0042 4346     		mov	r3, r8
  85 0044 022B     		cmp	r3, #2
  86 0046 00D8     		bhi	.LCB59
  87 0048 C3E0     		b	.L18	@long jump
  88              	.LCB59:
  89              		.loc 1 35 0
  90 004a 042B     		cmp	r3, #4
  91 004c 00D9     		bls	.LCB61
  92 004e C2E0     		b	.L19	@long jump
  93              	.LCB61:
  36:..\..\..\liblc3\src/attdet.c ****             nbytes < nbytes_ranges[dt - LC3_DT_7M5][sr - LC3_SRATE_32K][0] ||
  94              		.loc 1 36 0 is_stmt 1 discriminator 3
  95 0050 B91E     		subs	r1, r7, #2
  96 0052 033B     		subs	r3, r3, #3
  97 0054 8A00     		lsls	r2, r1, #2
  98 0056 D218     		adds	r2, r2, r3
  99 0058 D200     		lsls	r2, r2, #3
 100 005a 06A8     		add	r0, sp, #24
 101 005c 1258     		ldr	r2, [r2, r0]
  35:..\..\..\liblc3\src/attdet.c ****             nbytes < nbytes_ranges[dt - LC3_DT_7M5][sr - LC3_SRATE_32K][0] ||
 102              		.loc 1 35 0 discriminator 3
 103 005e AA42     		cmp	r2, r5
 104 0060 00DD     		ble	.LCB70
 105 0062 BAE0     		b	.L20	@long jump
 106              	.LCB70:
  37:..\..\..\liblc3\src/attdet.c ****             nbytes > nbytes_ranges[dt - LC3_DT_7M5][sr - LC3_SRATE_32K][1]   )
 107              		.loc 1 37 0
 108 0064 8900     		lsls	r1, r1, #2
 109 0066 CB18     		adds	r3, r1, r3
 110 0068 DB00     		lsls	r3, r3, #3
 111 006a 8446     		mov	ip, r0
 112 006c 6344     		add	r3, r3, ip
 113 006e 5B68     		ldr	r3, [r3, #4]
  36:..\..\..\liblc3\src/attdet.c ****             nbytes < nbytes_ranges[dt - LC3_DT_7M5][sr - LC3_SRATE_32K][0] ||
 114              		.loc 1 36 0
 115 0070 9D42     		cmp	r5, r3
 116 0072 00DD     		ble	.LCB79
 117 0074 B3E0     		b	.L21	@long jump
 118              	.LCB79:
  38:..\..\..\liblc3\src/attdet.c ****         return 0;
  39:..\..\..\liblc3\src/attdet.c **** 
  40:..\..\..\liblc3\src/attdet.c ****     /* --- Filtering & Energy calculation --- */
  41:..\..\..\liblc3\src/attdet.c **** 
  42:..\..\..\liblc3\src/attdet.c ****     int nblk = 4 - (dt == LC3_DT_7M5);
 119              		.loc 1 42 0
 120 0076 022F     		cmp	r7, #2
 121 0078 02D1     		bne	.L22
 122 007a 0323     		movs	r3, #3
 123 007c 9C46     		mov	ip, r3
 124 007e 01E0     		b	.L3
 125              	.L22:
 126 0080 0423     		movs	r3, #4
 127 0082 9C46     		mov	ip, r3
ARM GAS  C:\Users\rdn\AppData\Local\Temp\ccMcSjbj.s 			page 4


 128              	.L3:
 129              	.LVL5:
 130              	.LBB10:
  43:..\..\..\liblc3\src/attdet.c ****     int32_t e[4];
  44:..\..\..\liblc3\src/attdet.c **** 
  45:..\..\..\liblc3\src/attdet.c ****     for (int i = 0; i < nblk; i++) {
 131              		.loc 1 45 0 discriminator 4
 132 0084 0027     		movs	r7, #0
 133 0086 75E0     		b	.L4
 134              	.LVL6:
 135              	.L11:
  46:..\..\..\liblc3\src/attdet.c ****         e[i] = 0;
 136              		.loc 1 46 0
 137 0088 BB00     		lsls	r3, r7, #2
 138 008a 0022     		movs	r2, #0
 139 008c 02A9     		add	r1, sp, #8
 140 008e 5A50     		str	r2, [r3, r1]
  47:..\..\..\liblc3\src/attdet.c **** 
  48:..\..\..\liblc3\src/attdet.c ****         if (sr == LC3_SRATE_32K) {
 141              		.loc 1 48 0
 142 0090 4346     		mov	r3, r8
 143 0092 032B     		cmp	r3, #3
 144 0094 30D1     		bne	.L5
 145              	.LBB11:
  49:..\..\..\liblc3\src/attdet.c ****             int16_t xn2 = (x[-4] + x[-3]) >> 1;
 146              		.loc 1 49 0
 147 0096 2300     		movs	r3, r4
 148 0098 083B     		subs	r3, r3, #8
 149 009a 0022     		movs	r2, #0
 150 009c 9A5E     		ldrsh	r2, [r3, r2]
 151 009e A31F     		subs	r3, r4, #6
 152 00a0 0021     		movs	r1, #0
 153 00a2 5B5E     		ldrsh	r3, [r3, r1]
 154 00a4 D318     		adds	r3, r2, r3
 155 00a6 5D10     		asrs	r5, r3, #1
 156              	.LVL7:
  50:..\..\..\liblc3\src/attdet.c ****             int16_t xn1 = (x[-2] + x[-1]) >> 1;
 157              		.loc 1 50 0
 158 00a8 231F     		subs	r3, r4, #4
 159 00aa 0022     		movs	r2, #0
 160 00ac 9A5E     		ldrsh	r2, [r3, r2]
 161 00ae A31E     		subs	r3, r4, #2
 162 00b0 0021     		movs	r1, #0
 163 00b2 5B5E     		ldrsh	r3, [r3, r1]
 164 00b4 D218     		adds	r2, r2, r3
 165 00b6 5210     		asrs	r2, r2, #1
 166              	.LVL8:
 167              	.LBB12:
  51:..\..\..\liblc3\src/attdet.c ****             int16_t xn, xf;
  52:..\..\..\liblc3\src/attdet.c **** 
  53:..\..\..\liblc3\src/attdet.c ****             for (int j = 0; j < 40; j++, x += 2, xn2 = xn1, xn1 = xn) {
 168              		.loc 1 53 0
 169 00b8 0020     		movs	r0, #0
 170 00ba 1AE0     		b	.L6
 171              	.LVL9:
 172              	.L7:
  54:..\..\..\liblc3\src/attdet.c ****                 xn = (x[0] + x[1]) >> 1;
ARM GAS  C:\Users\rdn\AppData\Local\Temp\ccMcSjbj.s 			page 5


 173              		.loc 1 54 0 discriminator 3
 174 00bc 0023     		movs	r3, #0
 175 00be E15E     		ldrsh	r1, [r4, r3]
 176 00c0 0226     		movs	r6, #2
 177 00c2 A35F     		ldrsh	r3, [r4, r6]
 178 00c4 C918     		adds	r1, r1, r3
 179 00c6 4910     		asrs	r1, r1, #1
 180              	.LVL10:
  55:..\..\..\liblc3\src/attdet.c ****                 xf = (3 * xn - 4 * xn1 + 1 * xn2) >> 3;
 181              		.loc 1 55 0 discriminator 3
 182 00c8 4B00     		lsls	r3, r1, #1
 183 00ca 5E18     		adds	r6, r3, r1
 184 00cc 9300     		lsls	r3, r2, #2
 185 00ce F31A     		subs	r3, r6, r3
 186 00d0 5B19     		adds	r3, r3, r5
 187 00d2 DB10     		asrs	r3, r3, #3
 188 00d4 1BB2     		sxth	r3, r3
 189              	.LVL11:
  56:..\..\..\liblc3\src/attdet.c ****                 e[i] += (xf * xf) >> 5;
 190              		.loc 1 56 0 discriminator 3
 191 00d6 5B43     		muls	r3, r3
 192              	.LVL12:
 193 00d8 5B11     		asrs	r3, r3, #5
 194 00da BD00     		lsls	r5, r7, #2
 195              	.LVL13:
 196 00dc 02AE     		add	r6, sp, #8
 197 00de AE59     		ldr	r6, [r5, r6]
 198 00e0 0196     		str	r6, [sp, #4]
 199 00e2 B246     		mov	r10, r6
 200 00e4 5344     		add	r3, r3, r10
 201 00e6 02AE     		add	r6, sp, #8
 202 00e8 AB51     		str	r3, [r5, r6]
  53:..\..\..\liblc3\src/attdet.c ****                 xn = (x[0] + x[1]) >> 1;
 203              		.loc 1 53 0 discriminator 3
 204 00ea 0130     		adds	r0, r0, #1
 205              	.LVL14:
 206 00ec 0434     		adds	r4, r4, #4
 207              	.LVL15:
 208 00ee 1500     		movs	r5, r2
 209 00f0 0A00     		movs	r2, r1
 210              	.LVL16:
 211              	.L6:
  53:..\..\..\liblc3\src/attdet.c ****                 xn = (x[0] + x[1]) >> 1;
 212              		.loc 1 53 0 is_stmt 0 discriminator 1
 213 00f2 2728     		cmp	r0, #39
 214 00f4 E2DD     		ble	.L7
 215 00f6 3CE0     		b	.L8
 216              	.LVL17:
 217              	.L5:
 218              	.LBE12:
 219              	.LBE11:
 220              	.LBB13:
  57:..\..\..\liblc3\src/attdet.c ****             }
  58:..\..\..\liblc3\src/attdet.c ****         }
  59:..\..\..\liblc3\src/attdet.c **** 
  60:..\..\..\liblc3\src/attdet.c ****         else {
  61:..\..\..\liblc3\src/attdet.c ****             int16_t xn2 = (x[-6] + x[-5] + x[-4]) >> 2;
ARM GAS  C:\Users\rdn\AppData\Local\Temp\ccMcSjbj.s 			page 6


 221              		.loc 1 61 0 is_stmt 1
 222 00f8 2300     		movs	r3, r4
 223 00fa 0C3B     		subs	r3, r3, #12
 224 00fc 0022     		movs	r2, #0
 225 00fe 9A5E     		ldrsh	r2, [r3, r2]
 226 0100 2300     		movs	r3, r4
 227 0102 0A3B     		subs	r3, r3, #10
 228 0104 0021     		movs	r1, #0
 229 0106 5B5E     		ldrsh	r3, [r3, r1]
 230 0108 D318     		adds	r3, r2, r3
 231 010a 2200     		movs	r2, r4
 232 010c 083A     		subs	r2, r2, #8
 233 010e 0021     		movs	r1, #0
 234 0110 525E     		ldrsh	r2, [r2, r1]
 235 0112 D318     		adds	r3, r2, r3
 236 0114 9D10     		asrs	r5, r3, #2
 237              	.LVL18:
  62:..\..\..\liblc3\src/attdet.c ****             int16_t xn1 = (x[-3] + x[-2] + x[-1]) >> 2;
 238              		.loc 1 62 0
 239 0116 A31F     		subs	r3, r4, #6
 240 0118 0022     		movs	r2, #0
 241 011a 9A5E     		ldrsh	r2, [r3, r2]
 242 011c 231F     		subs	r3, r4, #4
 243 011e 0021     		movs	r1, #0
 244 0120 5B5E     		ldrsh	r3, [r3, r1]
 245 0122 D218     		adds	r2, r2, r3
 246 0124 A31E     		subs	r3, r4, #2
 247 0126 0021     		movs	r1, #0
 248 0128 5B5E     		ldrsh	r3, [r3, r1]
 249 012a 9A18     		adds	r2, r3, r2
 250 012c 9210     		asrs	r2, r2, #2
 251              	.LVL19:
 252              	.LBB14:
  63:..\..\..\liblc3\src/attdet.c ****             int16_t xn, xf;
  64:..\..\..\liblc3\src/attdet.c **** 
  65:..\..\..\liblc3\src/attdet.c ****             for (int j = 0; j < 40; j++, x += 3, xn2 = xn1, xn1 = xn) {
 253              		.loc 1 65 0
 254 012e 0020     		movs	r0, #0
 255 0130 1DE0     		b	.L9
 256              	.LVL20:
 257              	.L10:
  66:..\..\..\liblc3\src/attdet.c ****                 xn = (x[0] + x[1] + x[2]) >> 2;
 258              		.loc 1 66 0 discriminator 3
 259 0132 0023     		movs	r3, #0
 260 0134 E15E     		ldrsh	r1, [r4, r3]
 261 0136 0226     		movs	r6, #2
 262 0138 A35F     		ldrsh	r3, [r4, r6]
 263 013a C918     		adds	r1, r1, r3
 264 013c 0426     		movs	r6, #4
 265 013e A35F     		ldrsh	r3, [r4, r6]
 266 0140 5918     		adds	r1, r3, r1
 267 0142 8910     		asrs	r1, r1, #2
 268              	.LVL21:
  67:..\..\..\liblc3\src/attdet.c ****                 xf = (3 * xn - 4 * xn1 + 1 * xn2) >> 3;
 269              		.loc 1 67 0 discriminator 3
 270 0144 4B00     		lsls	r3, r1, #1
 271 0146 5E18     		adds	r6, r3, r1
ARM GAS  C:\Users\rdn\AppData\Local\Temp\ccMcSjbj.s 			page 7


 272 0148 9300     		lsls	r3, r2, #2
 273 014a F31A     		subs	r3, r6, r3
 274 014c 5B19     		adds	r3, r3, r5
 275 014e DB10     		asrs	r3, r3, #3
 276 0150 1BB2     		sxth	r3, r3
 277              	.LVL22:
  68:..\..\..\liblc3\src/attdet.c ****                 e[i] += (xf * xf) >> 5;
 278              		.loc 1 68 0 discriminator 3
 279 0152 5B43     		muls	r3, r3
 280              	.LVL23:
 281 0154 5B11     		asrs	r3, r3, #5
 282 0156 BD00     		lsls	r5, r7, #2
 283              	.LVL24:
 284 0158 02AE     		add	r6, sp, #8
 285 015a AE59     		ldr	r6, [r5, r6]
 286 015c 0196     		str	r6, [sp, #4]
 287 015e B246     		mov	r10, r6
 288 0160 5344     		add	r3, r3, r10
 289 0162 02AE     		add	r6, sp, #8
 290 0164 AB51     		str	r3, [r5, r6]
  65:..\..\..\liblc3\src/attdet.c ****                 xn = (x[0] + x[1] + x[2]) >> 2;
 291              		.loc 1 65 0 discriminator 3
 292 0166 0130     		adds	r0, r0, #1
 293              	.LVL25:
 294 0168 0634     		adds	r4, r4, #6
 295              	.LVL26:
 296 016a 1500     		movs	r5, r2
 297 016c 0A00     		movs	r2, r1
 298              	.LVL27:
 299              	.L9:
  65:..\..\..\liblc3\src/attdet.c ****                 xn = (x[0] + x[1] + x[2]) >> 2;
 300              		.loc 1 65 0 is_stmt 0 discriminator 1
 301 016e 2728     		cmp	r0, #39
 302 0170 DFDD     		ble	.L10
 303              	.LVL28:
 304              	.L8:
 305              	.LBE14:
 306              	.LBE13:
  45:..\..\..\liblc3\src/attdet.c ****         e[i] = 0;
 307              		.loc 1 45 0 is_stmt 1 discriminator 2
 308 0172 0137     		adds	r7, r7, #1
 309              	.LVL29:
 310              	.L4:
  45:..\..\..\liblc3\src/attdet.c ****         e[i] = 0;
 311              		.loc 1 45 0 is_stmt 0 discriminator 1
 312 0174 6745     		cmp	r7, ip
 313 0176 87DB     		blt	.L11
 314 0178 0021     		movs	r1, #0
 315 017a 0024     		movs	r4, #0
 316              	.LVL30:
 317 017c 14E0     		b	.L12
 318              	.LVL31:
 319              	.L15:
 320              	.LBE10:
 321              	.LBB15:
  69:..\..\..\liblc3\src/attdet.c ****             }
  70:..\..\..\liblc3\src/attdet.c ****         }
ARM GAS  C:\Users\rdn\AppData\Local\Temp\ccMcSjbj.s 			page 8


  71:..\..\..\liblc3\src/attdet.c ****     }
  72:..\..\..\liblc3\src/attdet.c **** 
  73:..\..\..\liblc3\src/attdet.c ****     /* --- Attack detection ---
  74:..\..\..\liblc3\src/attdet.c ****      * The attack block `p_att` is defined as the normative value + 1,
  75:..\..\..\liblc3\src/attdet.c ****      * in such way, it will be initialized to 0 */
  76:..\..\..\liblc3\src/attdet.c **** 
  77:..\..\..\liblc3\src/attdet.c ****     int p_att = 0;
  78:..\..\..\liblc3\src/attdet.c ****     int32_t a[4];
  79:..\..\..\liblc3\src/attdet.c **** 
  80:..\..\..\liblc3\src/attdet.c ****     for (int i = 0; i < nblk; i++) {
  81:..\..\..\liblc3\src/attdet.c ****         a[i] = LC3_MAX(attdet->an1 >> 2, attdet->en1);
 322              		.loc 1 81 0 is_stmt 1
 323 017e 4B46     		mov	r3, r9
 324 0180 5B68     		ldr	r3, [r3, #4]
 325 0182 9A10     		asrs	r2, r3, #2
 326 0184 4B46     		mov	r3, r9
 327 0186 1B68     		ldr	r3, [r3]
 328 0188 9342     		cmp	r3, r2
 329 018a 00DA     		bge	.L13
 330 018c 1300     		movs	r3, r2
 331              	.L13:
  82:..\..\..\liblc3\src/attdet.c ****         attdet->en1 = e[i], attdet->an1 = a[i];
 332              		.loc 1 82 0
 333 018e 8A00     		lsls	r2, r1, #2
 334 0190 02A8     		add	r0, sp, #8
 335 0192 1258     		ldr	r2, [r2, r0]
 336 0194 4846     		mov	r0, r9
 337 0196 0260     		str	r2, [r0]
 338 0198 4360     		str	r3, [r0, #4]
  83:..\..\..\liblc3\src/attdet.c **** 
  84:..\..\..\liblc3\src/attdet.c ****         if ((e[i] >> 3) > a[i] + (a[i] >> 4))
 339              		.loc 1 84 0
 340 019a D210     		asrs	r2, r2, #3
 341 019c 1811     		asrs	r0, r3, #4
 342 019e 1B18     		adds	r3, r3, r0
 343 01a0 9A42     		cmp	r2, r3
 344 01a2 00DD     		ble	.L14
  85:..\..\..\liblc3\src/attdet.c ****             p_att = i + 1;
 345              		.loc 1 85 0
 346 01a4 4C1C     		adds	r4, r1, #1
 347              	.LVL32:
 348              	.L14:
  80:..\..\..\liblc3\src/attdet.c ****         a[i] = LC3_MAX(attdet->an1 >> 2, attdet->en1);
 349              		.loc 1 80 0 discriminator 2
 350 01a6 0131     		adds	r1, r1, #1
 351              	.LVL33:
 352              	.L12:
  80:..\..\..\liblc3\src/attdet.c ****         a[i] = LC3_MAX(attdet->an1 >> 2, attdet->en1);
 353              		.loc 1 80 0 is_stmt 0 discriminator 1
 354 01a8 6145     		cmp	r1, ip
 355 01aa E8DB     		blt	.L15
 356              	.LBE15:
  86:..\..\..\liblc3\src/attdet.c ****     }
  87:..\..\..\liblc3\src/attdet.c **** 
  88:..\..\..\liblc3\src/attdet.c ****     int att = attdet->p_att >= 1 + (nblk >> 1) || p_att > 0;
 357              		.loc 1 88 0 is_stmt 1
 358 01ac 6346     		mov	r3, ip
ARM GAS  C:\Users\rdn\AppData\Local\Temp\ccMcSjbj.s 			page 9


 359 01ae 5B10     		asrs	r3, r3, #1
 360 01b0 0133     		adds	r3, r3, #1
 361 01b2 4A46     		mov	r2, r9
 362 01b4 9268     		ldr	r2, [r2, #8]
 363 01b6 9A42     		cmp	r2, r3
 364 01b8 03DA     		bge	.L23
 365              		.loc 1 88 0 is_stmt 0 discriminator 2
 366 01ba 002C     		cmp	r4, #0
 367 01bc 03DD     		ble	.L24
 368              		.loc 1 88 0
 369 01be 0120     		movs	r0, #1
 370 01c0 02E0     		b	.L16
 371              	.L23:
 372 01c2 0120     		movs	r0, #1
 373 01c4 00E0     		b	.L16
 374              	.L24:
 375 01c6 0020     		movs	r0, #0
 376              	.L16:
 377              	.LVL34:
  89:..\..\..\liblc3\src/attdet.c ****     attdet->p_att = p_att;
 378              		.loc 1 89 0 is_stmt 1 discriminator 6
 379 01c8 4B46     		mov	r3, r9
 380 01ca 9C60     		str	r4, [r3, #8]
  90:..\..\..\liblc3\src/attdet.c **** 
  91:..\..\..\liblc3\src/attdet.c ****     return att;
 381              		.loc 1 91 0 discriminator 6
 382 01cc 08E0     		b	.L2
 383              	.LVL35:
 384              	.L17:
  38:..\..\..\liblc3\src/attdet.c **** 
 385              		.loc 1 38 0
 386 01ce 0020     		movs	r0, #0
 387 01d0 06E0     		b	.L2
 388              	.L18:
 389 01d2 0020     		movs	r0, #0
 390 01d4 04E0     		b	.L2
 391              	.L19:
 392 01d6 0020     		movs	r0, #0
 393 01d8 02E0     		b	.L2
 394              	.L20:
 395 01da 0020     		movs	r0, #0
 396 01dc 00E0     		b	.L2
 397              	.L21:
 398 01de 0020     		movs	r0, #0
 399              	.LVL36:
 400              	.L2:
  92:..\..\..\liblc3\src/attdet.c **** }
 401              		.loc 1 92 0
 402 01e0 16B0     		add	sp, sp, #88
 403              		@ sp needed
 404              	.LVL37:
 405 01e2 1CBC     		pop	{r2, r3, r4}
 406 01e4 9046     		mov	r8, r2
 407 01e6 9946     		mov	r9, r3
 408 01e8 A246     		mov	r10, r4
 409 01ea F0BD     		pop	{r4, r5, r6, r7, pc}
 410              	.L26:
ARM GAS  C:\Users\rdn\AppData\Local\Temp\ccMcSjbj.s 			page 10


 411              		.align	2
 412              	.L25:
 413 01ec FFFFFF7F 		.word	2147483647
 414              		.cfi_endproc
 415              	.LFE7:
 416              		.size	lc3_attdet_run, .-lc3_attdet_run
 417              		.text
 418              	.Letext0:
 419              		.file 2 "c:\\program files (x86)\\cypress\\psoc creator\\4.4\\psoc creator\\import\\gnu\\arm\\5.4.
 420              		.file 3 "c:\\program files (x86)\\cypress\\psoc creator\\4.4\\psoc creator\\import\\gnu\\arm\\5.4.
 421              		.file 4 ".\\liblc3\\include/lc3_private.h"
 422              		.file 5 "..\\..\\..\\liblc3\\src\\common.h"