ARM GAS  C:\Users\rdn\AppData\Local\Temp\ccR84x99.s 			page 1


   1              		.syntax unified
   2              		.cpu cortex-m0plus
   3              		.fpu softvfp
   4              		.eabi_attribute 20, 1
   5              		.eabi_attribute 21, 1
   6              		.eabi_attribute 23, 3
   7              		.eabi_attribute 24, 1
   8              		.eabi_attribute 25, 1
   9              		.eabi_attribute 26, 1
  10              		.eabi_attribute 30, 1
  11              		.eabi_attribute 34, 0
  12              		.eabi_attribute 18, 4
  13              		.thumb
  14              		.syntax unified
  15              		.file	"bwdet.c"
  16              		.text
  17              	.Ltext0:
  18              		.cfi_sections	.debug_frame
  19              		.global	__aeabi_fadd
  20              		.global	__aeabi_i2f
  21              		.global	__aeabi_fcmpge
  22              		.global	__aeabi_fmul
  23              		.global	__aeabi_fcmpgt
  24              		.section	.text.lc3_bwdet_run,"ax",%progbits
  25              		.align	2
  26              		.global	lc3_bwdet_run
  27              		.code	16
  28              		.thumb_func
  29              		.type	lc3_bwdet_run, %function
  30              	lc3_bwdet_run:
  31              	.LFB13:
  32              		.file 1 "..\\..\\..\\liblc3\\src\\bwdet.c"
   1:..\..\..\liblc3\src/bwdet.c **** /******************************************************************************
   2:..\..\..\liblc3\src/bwdet.c ****  *
   3:..\..\..\liblc3\src/bwdet.c ****  *  Copyright 2022 Google LLC
   4:..\..\..\liblc3\src/bwdet.c ****  *
   5:..\..\..\liblc3\src/bwdet.c ****  *  Licensed under the Apache License, Version 2.0 (the "License");
   6:..\..\..\liblc3\src/bwdet.c ****  *  you may not use this file except in compliance with the License.
   7:..\..\..\liblc3\src/bwdet.c ****  *  You may obtain a copy of the License at:
   8:..\..\..\liblc3\src/bwdet.c ****  *
   9:..\..\..\liblc3\src/bwdet.c ****  *  http://www.apache.org/licenses/LICENSE-2.0
  10:..\..\..\liblc3\src/bwdet.c ****  *
  11:..\..\..\liblc3\src/bwdet.c ****  *  Unless required by applicable law or agreed to in writing, software
  12:..\..\..\liblc3\src/bwdet.c ****  *  distributed under the License is distributed on an "AS IS" BASIS,
  13:..\..\..\liblc3\src/bwdet.c ****  *  WITHOUT WARRANTIES OR CONDITIONS OF ANY KIND, either express or implied.
  14:..\..\..\liblc3\src/bwdet.c ****  *  See the License for the specific language governing permissions and
  15:..\..\..\liblc3\src/bwdet.c ****  *  limitations under the License.
  16:..\..\..\liblc3\src/bwdet.c ****  *
  17:..\..\..\liblc3\src/bwdet.c ****  ******************************************************************************/
  18:..\..\..\liblc3\src/bwdet.c **** 
  19:..\..\..\liblc3\src/bwdet.c **** #include "bwdet.h"
  20:..\..\..\liblc3\src/bwdet.c **** 
  21:..\..\..\liblc3\src/bwdet.c **** 
  22:..\..\..\liblc3\src/bwdet.c **** /**
  23:..\..\..\liblc3\src/bwdet.c ****  * Bandwidth detector
  24:..\..\..\liblc3\src/bwdet.c ****  */
  25:..\..\..\liblc3\src/bwdet.c **** enum lc3_bandwidth lc3_bwdet_run(
ARM GAS  C:\Users\rdn\AppData\Local\Temp\ccR84x99.s 			page 2


  26:..\..\..\liblc3\src/bwdet.c ****     enum lc3_dt dt, enum lc3_srate sr, const float *e)
  27:..\..\..\liblc3\src/bwdet.c **** {
  33              		.loc 1 27 0
  34              		.cfi_startproc
  35              		@ args = 0, pretend = 0, frame = 32
  36              		@ frame_needed = 0, uses_anonymous_args = 0
  37              	.LVL0:
  38 0000 F0B5     		push	{r4, r5, r6, r7, lr}
  39              		.cfi_def_cfa_offset 20
  40              		.cfi_offset 4, -20
  41              		.cfi_offset 5, -16
  42              		.cfi_offset 6, -12
  43              		.cfi_offset 7, -8
  44              		.cfi_offset 14, -4
  45 0002 5F46     		mov	r7, fp
  46 0004 5646     		mov	r6, r10
  47 0006 4D46     		mov	r5, r9
  48 0008 4446     		mov	r4, r8
  49 000a F0B4     		push	{r4, r5, r6, r7}
  50              		.cfi_def_cfa_offset 36
  51              		.cfi_offset 8, -36
  52              		.cfi_offset 9, -32
  53              		.cfi_offset 10, -28
  54              		.cfi_offset 11, -24
  55 000c 89B0     		sub	sp, sp, #36
  56              		.cfi_def_cfa_offset 72
  57 000e 0290     		str	r0, [sp, #8]
  58 0010 8A46     		mov	r10, r1
  59 0012 1700     		movs	r7, r2
  60              	.LVL1:
  28:..\..\..\liblc3\src/bwdet.c ****     /* Bandwidth regions */
  29:..\..\..\liblc3\src/bwdet.c **** 
  30:..\..\..\liblc3\src/bwdet.c ****     struct region { int is : 8; int ie : 8; };
  31:..\..\..\liblc3\src/bwdet.c **** 
  32:..\..\..\liblc3\src/bwdet.c **** #if LC3_PLUS
  33:..\..\..\liblc3\src/bwdet.c **** 
  34:..\..\..\liblc3\src/bwdet.c ****     static const struct region bws_table_2m5[][LC3_BANDWIDTH_SWB+1] = {
  35:..\..\..\liblc3\src/bwdet.c ****         { { 24, 34+1 } },
  36:..\..\..\liblc3\src/bwdet.c ****         { { 24, 32+1 }, { 35, 39+1 } },
  37:..\..\..\liblc3\src/bwdet.c ****         { { 24, 31+1 }, { 33, 38+1 }, { 39, 42+1 } },
  38:..\..\..\liblc3\src/bwdet.c ****         { { 22, 29+1 }, { 31, 35+1 }, { 37, 40+1 }, { 41, 43+1 } },
  39:..\..\..\liblc3\src/bwdet.c ****     };
  40:..\..\..\liblc3\src/bwdet.c **** 
  41:..\..\..\liblc3\src/bwdet.c ****     static const struct region bws_table_5m[][LC3_BANDWIDTH_SWB+1] = {
  42:..\..\..\liblc3\src/bwdet.c ****         { { 39, 49+1 } },
  43:..\..\..\liblc3\src/bwdet.c ****         { { 35, 44+1 }, { 47, 51+1 } },
  44:..\..\..\liblc3\src/bwdet.c ****         { { 34, 42+1 }, { 44, 49+1 }, { 50, 53+1 } },
  45:..\..\..\liblc3\src/bwdet.c ****         { { 32, 40+1 }, { 42, 46+1 }, { 48, 51+1 }, { 52, 54+1 } },
  46:..\..\..\liblc3\src/bwdet.c ****     };
  47:..\..\..\liblc3\src/bwdet.c **** 
  48:..\..\..\liblc3\src/bwdet.c **** #endif /* LC3_PLUS */
  49:..\..\..\liblc3\src/bwdet.c **** 
  50:..\..\..\liblc3\src/bwdet.c ****     static const struct region bws_table_7m5[][LC3_BANDWIDTH_SWB+1] = {
  51:..\..\..\liblc3\src/bwdet.c ****         { { 51, 63+1 } },
  52:..\..\..\liblc3\src/bwdet.c ****         { { 45, 55+1 }, { 58, 63+1 } },
  53:..\..\..\liblc3\src/bwdet.c ****         { { 42, 51+1 }, { 53, 58+1 }, { 60, 63+1 } },
  54:..\..\..\liblc3\src/bwdet.c ****         { { 40, 48+1 }, { 51, 55+1 }, { 57, 60+1 }, { 61, 63+1 } },
ARM GAS  C:\Users\rdn\AppData\Local\Temp\ccR84x99.s 			page 3


  55:..\..\..\liblc3\src/bwdet.c ****     };
  56:..\..\..\liblc3\src/bwdet.c **** 
  57:..\..\..\liblc3\src/bwdet.c ****     static const struct region bws_table_10m[][LC3_BANDWIDTH_SWB+1] = {
  58:..\..\..\liblc3\src/bwdet.c ****         { { 53, 63+1 } },
  59:..\..\..\liblc3\src/bwdet.c ****         { { 47, 56+1 }, { 59, 63+1 } },
  60:..\..\..\liblc3\src/bwdet.c ****         { { 44, 52+1 }, { 54, 59+1 }, { 60, 63+1 } },
  61:..\..\..\liblc3\src/bwdet.c ****         { { 41, 49+1 }, { 51, 55+1 }, { 57, 60+1 }, { 61, 63+1 } },
  62:..\..\..\liblc3\src/bwdet.c ****     };
  63:..\..\..\liblc3\src/bwdet.c **** 
  64:..\..\..\liblc3\src/bwdet.c ****     static const struct region (*bws_table[])[LC3_BANDWIDTH_SWB+1] = {
  65:..\..\..\liblc3\src/bwdet.c ****         [LC3_DT_2M5] = LC3_IF_PLUS(bws_table_2m5,  NULL),
  66:..\..\..\liblc3\src/bwdet.c ****         [LC3_DT_5M ] = LC3_IF_PLUS(bws_table_5m ,  NULL),
  67:..\..\..\liblc3\src/bwdet.c ****         [LC3_DT_7M5] = bws_table_7m5,
  68:..\..\..\liblc3\src/bwdet.c ****         [LC3_DT_10M] = bws_table_10m,
  69:..\..\..\liblc3\src/bwdet.c ****     };
  70:..\..\..\liblc3\src/bwdet.c **** 
  71:..\..\..\liblc3\src/bwdet.c ****     static const int l_table[LC3_NUM_DT][LC3_BANDWIDTH_SWB+1] = {
  72:..\..\..\liblc3\src/bwdet.c ****         [LC3_DT_2M5] = { 4, 4, 3, 1 },
  73:..\..\..\liblc3\src/bwdet.c ****         [LC3_DT_5M ] = { 4, 4, 3, 1 },
  74:..\..\..\liblc3\src/bwdet.c ****         [LC3_DT_7M5] = { 4, 4, 3, 2 },
  75:..\..\..\liblc3\src/bwdet.c ****         [LC3_DT_10M] = { 4, 4, 3, 1 },
  76:..\..\..\liblc3\src/bwdet.c ****     };
  77:..\..\..\liblc3\src/bwdet.c **** 
  78:..\..\..\liblc3\src/bwdet.c ****     /* --- Stage 1 ---
  79:..\..\..\liblc3\src/bwdet.c ****      * Determine bw0 candidate */
  80:..\..\..\liblc3\src/bwdet.c **** 
  81:..\..\..\liblc3\src/bwdet.c ****     enum lc3_bandwidth bw0 = LC3_BANDWIDTH_NB;
  82:..\..\..\liblc3\src/bwdet.c ****     enum lc3_bandwidth bwn = (enum lc3_bandwidth)sr;
  83:..\..\..\liblc3\src/bwdet.c **** 
  84:..\..\..\liblc3\src/bwdet.c ****     if (bwn <= bw0 || lc3_hr(sr))
  61              		.loc 1 84 0
  62 0014 0029     		cmp	r1, #0
  63 0016 00D1     		bne	.LCB32
  64 0018 84E0     		b	.L14	@long jump
  65              	.LCB32:
  66 001a 0429     		cmp	r1, #4
  67 001c 00D9     		bls	.LCB34
  68 001e 83E0     		b	.L15	@long jump
  69              	.LCB34:
  85:..\..\..\liblc3\src/bwdet.c ****         return bwn;
  86:..\..\..\liblc3\src/bwdet.c **** 
  87:..\..\..\liblc3\src/bwdet.c ****     const struct region *bwr = bws_table[dt][bwn-1];
  70              		.loc 1 87 0
  71 0020 8300     		lsls	r3, r0, #2
  72 0022 464A     		ldr	r2, .L19
  73              	.LVL2:
  74 0024 9A58     		ldr	r2, [r3, r2]
  75 0026 464B     		ldr	r3, .L19+4
  76 0028 5344     		add	r3, r3, r10
  77 002a 1B01     		lsls	r3, r3, #4
  78 002c 9346     		mov	fp, r2
  79 002e 9B44     		add	fp, fp, r3
  80              	.LVL3:
  81              	.LBB12:
  88:..\..\..\liblc3\src/bwdet.c **** 
  89:..\..\..\liblc3\src/bwdet.c ****     for (enum lc3_bandwidth bw = bw0; bw < bwn; bw++) {
  82              		.loc 1 89 0
ARM GAS  C:\Users\rdn\AppData\Local\Temp\ccR84x99.s 			page 4


  83 0030 0023     		movs	r3, #0
  84 0032 9846     		mov	r8, r3
  85              	.LBE12:
  81:..\..\..\liblc3\src/bwdet.c ****     enum lc3_bandwidth bwn = (enum lc3_bandwidth)sr;
  86              		.loc 1 81 0
  87 0034 0193     		str	r3, [sp, #4]
  88              	.LBB14:
  89              		.loc 1 89 0
  90 0036 2EE0     		b	.L3
  91              	.LVL4:
  92              	.L9:
  93              	.LBB13:
  90:..\..\..\liblc3\src/bwdet.c ****         int i = bwr[bw].is, ie = bwr[bw].ie;
  94              		.loc 1 90 0
  95 0038 4346     		mov	r3, r8
  96 003a 9B00     		lsls	r3, r3, #2
  97 003c 5B44     		add	r3, r3, fp
  98 003e 0024     		movs	r4, #0
  99 0040 1C57     		ldrsb	r4, [r3, r4]
 100              	.LVL5:
 101 0042 0126     		movs	r6, #1
 102 0044 9E57     		ldrsb	r6, [r3, r6]
 103              	.LVL6:
  91:..\..\..\liblc3\src/bwdet.c ****         int n = ie - i;
 104              		.loc 1 91 0
 105 0046 331B     		subs	r3, r6, r4
 106 0048 9946     		mov	r9, r3
 107              	.LVL7:
  92:..\..\..\liblc3\src/bwdet.c **** 
  93:..\..\..\liblc3\src/bwdet.c ****         float se = e[i];
 108              		.loc 1 93 0
 109 004a A300     		lsls	r3, r4, #2
 110              	.LVL8:
 111 004c FD58     		ldr	r5, [r7, r3]
 112              	.LVL9:
  94:..\..\..\liblc3\src/bwdet.c ****         for (i++; i < ie; i++)
 113              		.loc 1 94 0
 114 004e 0134     		adds	r4, r4, #1
 115              	.LVL10:
 116 0050 06E0     		b	.L4
 117              	.L5:
  95:..\..\..\liblc3\src/bwdet.c ****             se += e[i];
 118              		.loc 1 95 0 discriminator 3
 119 0052 A300     		lsls	r3, r4, #2
 120 0054 D959     		ldr	r1, [r3, r7]
 121 0056 281C     		adds	r0, r5, #0
 122 0058 FFF7FEFF 		bl	__aeabi_fadd
 123              	.LVL11:
 124 005c 051C     		adds	r5, r0, #0
 125              	.LVL12:
  94:..\..\..\liblc3\src/bwdet.c ****         for (i++; i < ie; i++)
 126              		.loc 1 94 0 discriminator 3
 127 005e 0134     		adds	r4, r4, #1
 128              	.LVL13:
 129              	.L4:
  94:..\..\..\liblc3\src/bwdet.c ****         for (i++; i < ie; i++)
 130              		.loc 1 94 0 is_stmt 0 discriminator 1
ARM GAS  C:\Users\rdn\AppData\Local\Temp\ccR84x99.s 			page 5


 131 0060 B442     		cmp	r4, r6
 132 0062 F6DB     		blt	.L5
  96:..\..\..\liblc3\src/bwdet.c **** 
  97:..\..\..\liblc3\src/bwdet.c ****         if (se >= (10 << (bw == LC3_BANDWIDTH_NB)) * n)
 133              		.loc 1 97 0 is_stmt 1
 134 0064 4346     		mov	r3, r8
 135 0066 002B     		cmp	r3, #0
 136 0068 01D1     		bne	.L16
 137 006a 1420     		movs	r0, #20
 138 006c 00E0     		b	.L6
 139              	.L16:
 140 006e 0A20     		movs	r0, #10
 141              	.L6:
 142              		.loc 1 97 0 is_stmt 0 discriminator 4
 143 0070 4B46     		mov	r3, r9
 144 0072 4343     		muls	r3, r0
 145 0074 1800     		movs	r0, r3
 146 0076 FFF7FEFF 		bl	__aeabi_i2f
 147              	.LVL14:
 148 007a 011C     		adds	r1, r0, #0
 149 007c 281C     		adds	r0, r5, #0
 150 007e FFF7FEFF 		bl	__aeabi_fcmpge
 151              	.LVL15:
 152 0082 0028     		cmp	r0, #0
 153 0084 03D0     		beq	.L7
  98:..\..\..\liblc3\src/bwdet.c ****             bw0 = bw + 1;
 154              		.loc 1 98 0 is_stmt 1
 155 0086 4346     		mov	r3, r8
 156 0088 581C     		adds	r0, r3, #1
 157 008a C3B2     		uxtb	r3, r0
 158 008c 0193     		str	r3, [sp, #4]
 159              	.LVL16:
 160              	.L7:
 161              	.LBE13:
  89:..\..\..\liblc3\src/bwdet.c ****         int i = bwr[bw].is, ie = bwr[bw].ie;
 162              		.loc 1 89 0 discriminator 2
 163 008e 4346     		mov	r3, r8
 164 0090 0133     		adds	r3, r3, #1
 165 0092 DBB2     		uxtb	r3, r3
 166 0094 9846     		mov	r8, r3
 167              	.LVL17:
 168              	.L3:
  89:..\..\..\liblc3\src/bwdet.c ****         int i = bwr[bw].is, ie = bwr[bw].ie;
 169              		.loc 1 89 0 is_stmt 0 discriminator 1
 170 0096 D045     		cmp	r8, r10
 171 0098 CED3     		bcc	.L9
 172              	.LBE14:
  99:..\..\..\liblc3\src/bwdet.c ****     }
 100:..\..\..\liblc3\src/bwdet.c **** 
 101:..\..\..\liblc3\src/bwdet.c ****     /* --- Stage 2 ---
 102:..\..\..\liblc3\src/bwdet.c ****      * Detect drop above cut-off frequency.
 103:..\..\..\liblc3\src/bwdet.c ****      * The Tc condition (13) is precalculated, as
 104:..\..\..\liblc3\src/bwdet.c ****      * Tc[] = 10 ^ (n / 10) , n = { 15, 23, 20, 20 } */
 105:..\..\..\liblc3\src/bwdet.c **** 
 106:..\..\..\liblc3\src/bwdet.c ****     int hold = bw0 >= bwn;
 173              		.loc 1 106 0 is_stmt 1
 174 009a 0024     		movs	r4, #0
ARM GAS  C:\Users\rdn\AppData\Local\Temp\ccR84x99.s 			page 6


 175 009c 019B     		ldr	r3, [sp, #4]
 176 009e 5246     		mov	r2, r10
 177 00a0 9342     		cmp	r3, r2
 178 00a2 6441     		adcs	r4, r4, r4
 179 00a4 E4B2     		uxtb	r4, r4
 180              	.LVL18:
 107:..\..\..\liblc3\src/bwdet.c **** 
 108:..\..\..\liblc3\src/bwdet.c ****     if (!hold) {
 181              		.loc 1 108 0
 182 00a6 1800     		movs	r0, r3
 183 00a8 5345     		cmp	r3, r10
 184 00aa 37D2     		bcs	.L10
 185              	.LBB15:
 109:..\..\..\liblc3\src/bwdet.c ****         int i0 = bwr[bw0].is, l = l_table[dt][bw0];
 186              		.loc 1 109 0
 187 00ac 9B00     		lsls	r3, r3, #2
 188 00ae 1A00     		movs	r2, r3
 189 00b0 5B46     		mov	r3, fp
 190 00b2 0392     		str	r2, [sp, #12]
 191 00b4 9B56     		ldrsb	r3, [r3, r2]
 192 00b6 9846     		mov	r8, r3
 193              	.LVL19:
 194 00b8 2049     		ldr	r1, .L19
 195 00ba 029B     		ldr	r3, [sp, #8]
 196              	.LVL20:
 197 00bc 9B00     		lsls	r3, r3, #2
 198 00be 8446     		mov	ip, r0
 199 00c0 6344     		add	r3, r3, ip
 200 00c2 9B00     		lsls	r3, r3, #2
 201 00c4 CB18     		adds	r3, r1, r3
 202 00c6 1B69     		ldr	r3, [r3, #16]
 203 00c8 9946     		mov	r9, r3
 204              	.LVL21:
 110:..\..\..\liblc3\src/bwdet.c ****         float tc = (const float []){
 205              		.loc 1 110 0
 206 00ca 04A8     		add	r0, sp, #16
 207 00cc 0B00     		movs	r3, r1
 208              	.LVL22:
 209 00ce 5033     		adds	r3, r3, #80
 210 00d0 0500     		movs	r5, r0
 211 00d2 46CB     		ldmia	r3!, {r1, r2, r6}
 212 00d4 46C5     		stmia	r5!, {r1, r2, r6}
 213 00d6 1B68     		ldr	r3, [r3]
 214 00d8 2B60     		str	r3, [r5]
 215 00da 039B     		ldr	r3, [sp, #12]
 216 00dc 1B58     		ldr	r3, [r3, r0]
 217 00de 0293     		str	r3, [sp, #8]
 218              	.LVL23:
 219              	.LBB16:
 111:..\..\..\liblc3\src/bwdet.c ****              31.62277660, 199.52623150, 100, 100 }[bw0];
 112:..\..\..\liblc3\src/bwdet.c **** 
 113:..\..\..\liblc3\src/bwdet.c ****         for (int i = i0 - l + 1; !hold && i <= i0 + 1; i++) {
 220              		.loc 1 113 0
 221 00e0 4346     		mov	r3, r8
 222              	.LVL24:
 223 00e2 4A46     		mov	r2, r9
 224 00e4 9D1A     		subs	r5, r3, r2
ARM GAS  C:\Users\rdn\AppData\Local\Temp\ccR84x99.s 			page 7


 225 00e6 0135     		adds	r5, r5, #1
 226              	.LVL25:
 227 00e8 12E0     		b	.L11
 228              	.L13:
 114:..\..\..\liblc3\src/bwdet.c ****             hold = e[i-l] > tc * e[i];
 229              		.loc 1 114 0 discriminator 4
 230 00ea 4B46     		mov	r3, r9
 231 00ec EB1A     		subs	r3, r5, r3
 232 00ee 9B00     		lsls	r3, r3, #2
 233 00f0 DE59     		ldr	r6, [r3, r7]
 234 00f2 AB00     		lsls	r3, r5, #2
 235 00f4 D959     		ldr	r1, [r3, r7]
 236 00f6 0298     		ldr	r0, [sp, #8]
 237 00f8 FFF7FEFF 		bl	__aeabi_fmul
 238              	.LVL26:
 239 00fc 011C     		adds	r1, r0, #0
 240 00fe 0124     		movs	r4, #1
 241              	.LVL27:
 242 0100 301C     		adds	r0, r6, #0
 243 0102 FFF7FEFF 		bl	__aeabi_fcmpgt
 244              	.LVL28:
 245 0106 0028     		cmp	r0, #0
 246 0108 00D1     		bne	.L12
 247 010a 0024     		movs	r4, #0
 248              	.L12:
 249 010c E4B2     		uxtb	r4, r4
 250              	.LVL29:
 113:..\..\..\liblc3\src/bwdet.c ****             hold = e[i-l] > tc * e[i];
 251              		.loc 1 113 0 discriminator 4
 252 010e 0135     		adds	r5, r5, #1
 253              	.LVL30:
 254              	.L11:
 113:..\..\..\liblc3\src/bwdet.c ****             hold = e[i-l] > tc * e[i];
 255              		.loc 1 113 0 is_stmt 0 discriminator 1
 256 0110 002C     		cmp	r4, #0
 257 0112 03D1     		bne	.L10
 113:..\..\..\liblc3\src/bwdet.c ****             hold = e[i-l] > tc * e[i];
 258              		.loc 1 113 0 discriminator 3
 259 0114 4346     		mov	r3, r8
 260 0116 0133     		adds	r3, r3, #1
 261 0118 9D42     		cmp	r5, r3
 262 011a E6DD     		ble	.L13
 263              	.LVL31:
 264              	.L10:
 265              	.LBE16:
 266              	.LBE15:
 115:..\..\..\liblc3\src/bwdet.c ****         }
 116:..\..\..\liblc3\src/bwdet.c **** 
 117:..\..\..\liblc3\src/bwdet.c ****     }
 118:..\..\..\liblc3\src/bwdet.c **** 
 119:..\..\..\liblc3\src/bwdet.c ****     return hold ? bw0 : bwn;
 267              		.loc 1 119 0 is_stmt 1
 268 011c 002C     		cmp	r4, #0
 269 011e 05D0     		beq	.L17
 270 0120 0198     		ldr	r0, [sp, #4]
 271 0122 04E0     		b	.L2
 272              	.LVL32:
ARM GAS  C:\Users\rdn\AppData\Local\Temp\ccR84x99.s 			page 8


 273              	.L14:
  85:..\..\..\liblc3\src/bwdet.c **** 
 274              		.loc 1 85 0
 275 0124 0800     		movs	r0, r1
 276              	.LVL33:
 277 0126 02E0     		b	.L2
 278              	.LVL34:
 279              	.L15:
 280 0128 0800     		movs	r0, r1
 281              	.LVL35:
 282 012a 00E0     		b	.L2
 283              	.LVL36:
 284              	.L17:
 285              		.loc 1 119 0
 286 012c 5046     		mov	r0, r10
 287              	.LVL37:
 288              	.L2:
 120:..\..\..\liblc3\src/bwdet.c **** }
 289              		.loc 1 120 0
 290 012e 09B0     		add	sp, sp, #36
 291              		@ sp needed
 292              	.LVL38:
 293 0130 3CBC     		pop	{r2, r3, r4, r5}
 294 0132 9046     		mov	r8, r2
 295 0134 9946     		mov	r9, r3
 296 0136 A246     		mov	r10, r4
 297 0138 AB46     		mov	fp, r5
 298 013a F0BD     		pop	{r4, r5, r6, r7, pc}
 299              	.L20:
 300              		.align	2
 301              	.L19:
 302 013c 00000000 		.word	.LANCHOR0
 303 0140 FFFFFF0F 		.word	268435455
 304              		.cfi_endproc
 305              	.LFE13:
 306              		.size	lc3_bwdet_run, .-lc3_bwdet_run
 307              		.section	.text.lc3_bwdet_get_nbits,"ax",%progbits
 308              		.align	2
 309              		.global	lc3_bwdet_get_nbits
 310              		.code	16
 311              		.thumb_func
 312              		.type	lc3_bwdet_get_nbits, %function
 313              	lc3_bwdet_get_nbits:
 314              	.LFB14:
 121:..\..\..\liblc3\src/bwdet.c **** 
 122:..\..\..\liblc3\src/bwdet.c **** /**
 123:..\..\..\liblc3\src/bwdet.c ****  * Return number of bits coding the bandwidth value
 124:..\..\..\liblc3\src/bwdet.c ****  */
 125:..\..\..\liblc3\src/bwdet.c **** int lc3_bwdet_get_nbits(enum lc3_srate sr)
 126:..\..\..\liblc3\src/bwdet.c **** {
 315              		.loc 1 126 0
 316              		.cfi_startproc
 317              		@ args = 0, pretend = 0, frame = 0
 318              		@ frame_needed = 0, uses_anonymous_args = 0
 319              		@ link register save eliminated.
 320              	.LVL39:
 127:..\..\..\liblc3\src/bwdet.c ****     return lc3_hr(sr) ? 0 : (sr > 0) + (sr > 1) + (sr > 3);
ARM GAS  C:\Users\rdn\AppData\Local\Temp\ccR84x99.s 			page 9


 321              		.loc 1 127 0
 322 0000 0428     		cmp	r0, #4
 323 0002 0DD8     		bhi	.L23
 324              		.loc 1 127 0 is_stmt 0 discriminator 2
 325 0004 0300     		movs	r3, r0
 326 0006 5A1E     		subs	r2, r3, #1
 327 0008 9341     		sbcs	r3, r3, r2
 328 000a 0121     		movs	r1, #1
 329 000c 8142     		cmp	r1, r0
 330 000e 8941     		sbcs	r1, r1, r1
 331 0010 4A42     		rsbs	r2, r1, #0
 332 0012 9A18     		adds	r2, r3, r2
 333 0014 0323     		movs	r3, #3
 334 0016 8342     		cmp	r3, r0
 335 0018 9B41     		sbcs	r3, r3, r3
 336 001a 5B42     		rsbs	r3, r3, #0
 337 001c D018     		adds	r0, r2, r3
 338              	.LVL40:
 339 001e 00E0     		b	.L22
 340              	.LVL41:
 341              	.L23:
 342              		.loc 1 127 0
 343 0020 0020     		movs	r0, #0
 344              	.LVL42:
 345              	.L22:
 128:..\..\..\liblc3\src/bwdet.c **** }
 346              		.loc 1 128 0 is_stmt 1 discriminator 4
 347              		@ sp needed
 348 0022 7047     		bx	lr
 349              		.cfi_endproc
 350              	.LFE14:
 351              		.size	lc3_bwdet_get_nbits, .-lc3_bwdet_get_nbits
 352              		.section	.text.lc3_bwdet_put_bw,"ax",%progbits
 353              		.align	2
 354              		.global	lc3_bwdet_put_bw
 355              		.code	16
 356              		.thumb_func
 357              		.type	lc3_bwdet_put_bw, %function
 358              	lc3_bwdet_put_bw:
 359              	.LFB15:
 129:..\..\..\liblc3\src/bwdet.c **** 
 130:..\..\..\liblc3\src/bwdet.c **** /**
 131:..\..\..\liblc3\src/bwdet.c ****  * Put bandwidth indication
 132:..\..\..\liblc3\src/bwdet.c ****  */
 133:..\..\..\liblc3\src/bwdet.c **** void lc3_bwdet_put_bw(lc3_bits_t *bits,
 134:..\..\..\liblc3\src/bwdet.c ****     enum lc3_srate sr, enum lc3_bandwidth bw)
 135:..\..\..\liblc3\src/bwdet.c **** {
 360              		.loc 1 135 0
 361              		.cfi_startproc
 362              		@ args = 0, pretend = 0, frame = 0
 363              		@ frame_needed = 0, uses_anonymous_args = 0
 364              	.LVL43:
 365 0000 70B5     		push	{r4, r5, r6, lr}
 366              		.cfi_def_cfa_offset 16
 367              		.cfi_offset 4, -16
 368              		.cfi_offset 5, -12
 369              		.cfi_offset 6, -8
ARM GAS  C:\Users\rdn\AppData\Local\Temp\ccR84x99.s 			page 10


 370              		.cfi_offset 14, -4
 371 0002 0500     		movs	r5, r0
 372 0004 1400     		movs	r4, r2
 136:..\..\..\liblc3\src/bwdet.c ****     int nbits_bw = lc3_bwdet_get_nbits(sr);
 373              		.loc 1 136 0
 374 0006 0800     		movs	r0, r1
 375              	.LVL44:
 376 0008 FFF7FEFF 		bl	lc3_bwdet_get_nbits
 377              	.LVL45:
 137:..\..\..\liblc3\src/bwdet.c ****     if (nbits_bw > 0)
 378              		.loc 1 137 0
 379 000c 0028     		cmp	r0, #0
 380 000e 0EDD     		ble	.L24
 381              	.LVL46:
 382              	.LBB17:
 383              	.LBB18:
 384              		.file 2 "..\\..\\..\\liblc3\\src\\bits.h"
   1:..\..\..\liblc3\src/bits.h **** /******************************************************************************
   2:..\..\..\liblc3\src/bits.h ****  *
   3:..\..\..\liblc3\src/bits.h ****  *  Copyright 2022 Google LLC
   4:..\..\..\liblc3\src/bits.h ****  *
   5:..\..\..\liblc3\src/bits.h ****  *  Licensed under the Apache License, Version 2.0 (the "License");
   6:..\..\..\liblc3\src/bits.h ****  *  you may not use this file except in compliance with the License.
   7:..\..\..\liblc3\src/bits.h ****  *  You may obtain a copy of the License at:
   8:..\..\..\liblc3\src/bits.h ****  *
   9:..\..\..\liblc3\src/bits.h ****  *  http://www.apache.org/licenses/LICENSE-2.0
  10:..\..\..\liblc3\src/bits.h ****  *
  11:..\..\..\liblc3\src/bits.h ****  *  Unless required by applicable law or agreed to in writing, software
  12:..\..\..\liblc3\src/bits.h ****  *  distributed under the License is distributed on an "AS IS" BASIS,
  13:..\..\..\liblc3\src/bits.h ****  *  WITHOUT WARRANTIES OR CONDITIONS OF ANY KIND, either express or implied.
  14:..\..\..\liblc3\src/bits.h ****  *  See the License for the specific language governing permissions and
  15:..\..\..\liblc3\src/bits.h ****  *  limitations under the License.
  16:..\..\..\liblc3\src/bits.h ****  *
  17:..\..\..\liblc3\src/bits.h ****  ******************************************************************************/
  18:..\..\..\liblc3\src/bits.h **** 
  19:..\..\..\liblc3\src/bits.h **** /**
  20:..\..\..\liblc3\src/bits.h ****  * The bitstream is written by the 2 ends of the buffer :
  21:..\..\..\liblc3\src/bits.h ****  *
  22:..\..\..\liblc3\src/bits.h ****  * - Arthmetic coder put bits while increasing memory addresses
  23:..\..\..\liblc3\src/bits.h ****  *   in the buffer (forward)
  24:..\..\..\liblc3\src/bits.h ****  *
  25:..\..\..\liblc3\src/bits.h ****  * - Plain bits are puts starting the end of the buffer, with memeory
  26:..\..\..\liblc3\src/bits.h ****  *   addresses decreasing (backward)
  27:..\..\..\liblc3\src/bits.h ****  *
  28:..\..\..\liblc3\src/bits.h ****  *       .---------------------------------------------------.
  29:..\..\..\liblc3\src/bits.h ****  *       | > > > > > > > > > > :         : < < < < < < < < < |
  30:..\..\..\liblc3\src/bits.h ****  *       '---------------------------------------------------'
  31:..\..\..\liblc3\src/bits.h ****  *       |---------------------> - - - - - - - - - - - - - ->|
  32:..\..\..\liblc3\src/bits.h ****  *                              |< - - - <-------------------|
  33:..\..\..\liblc3\src/bits.h ****  *          Arithmetic coding                  Plain bits
  34:..\..\..\liblc3\src/bits.h ****  *          `lc3_put_symbol()`               `lc3_put_bits()`
  35:..\..\..\liblc3\src/bits.h ****  *
  36:..\..\..\liblc3\src/bits.h ****  * - The forward writing is protected against buffer overflow, it cannot
  37:..\..\..\liblc3\src/bits.h ****  *   write after the buffer, but can overwrite plain bits previously
  38:..\..\..\liblc3\src/bits.h ****  *   written in the buffer.
  39:..\..\..\liblc3\src/bits.h ****  *
  40:..\..\..\liblc3\src/bits.h ****  * - The backward writing is protected against overwrite of the arithmetic
ARM GAS  C:\Users\rdn\AppData\Local\Temp\ccR84x99.s 			page 11


  41:..\..\..\liblc3\src/bits.h ****  *   coder bitstream. In such way, the backward bitstream is always limited
  42:..\..\..\liblc3\src/bits.h ****  *   by the aritmetic coder bitstream, and can be overwritten by him.
  43:..\..\..\liblc3\src/bits.h ****  *
  44:..\..\..\liblc3\src/bits.h ****  *       .---------------------------------------------------.
  45:..\..\..\liblc3\src/bits.h ****  *       | > > > > > > > > > > :         : < < < < < < < < < |
  46:..\..\..\liblc3\src/bits.h ****  *       '---------------------------------------------------'
  47:..\..\..\liblc3\src/bits.h ****  *       |---------------------> - - - - - - - - - - - - - ->|
  48:..\..\..\liblc3\src/bits.h ****  *       |< - - - - - - - - - - -  - - - <-------------------|
  49:..\..\..\liblc3\src/bits.h ****  *          Arithmetic coding                  Plain bits
  50:..\..\..\liblc3\src/bits.h ****  *          `lc3_get_symbol()`               `lc3_get_bits()`
  51:..\..\..\liblc3\src/bits.h ****  *
  52:..\..\..\liblc3\src/bits.h ****  * - Reading is limited to read of the complementary end of the buffer.
  53:..\..\..\liblc3\src/bits.h ****  *
  54:..\..\..\liblc3\src/bits.h ****  * - The procedure `lc3_check_bits()` returns indication that read has been
  55:..\..\..\liblc3\src/bits.h ****  *   made crossing the other bit plane.
  56:..\..\..\liblc3\src/bits.h ****  *
  57:..\..\..\liblc3\src/bits.h ****  */
  58:..\..\..\liblc3\src/bits.h **** 
  59:..\..\..\liblc3\src/bits.h **** #ifndef __LC3_BITS_H
  60:..\..\..\liblc3\src/bits.h **** #define __LC3_BITS_H
  61:..\..\..\liblc3\src/bits.h **** 
  62:..\..\..\liblc3\src/bits.h **** #include "common.h"
  63:..\..\..\liblc3\src/bits.h **** 
  64:..\..\..\liblc3\src/bits.h **** 
  65:..\..\..\liblc3\src/bits.h **** /**
  66:..\..\..\liblc3\src/bits.h ****  * Bitstream mode
  67:..\..\..\liblc3\src/bits.h ****  */
  68:..\..\..\liblc3\src/bits.h **** 
  69:..\..\..\liblc3\src/bits.h **** enum lc3_bits_mode {
  70:..\..\..\liblc3\src/bits.h ****     LC3_BITS_MODE_READ,
  71:..\..\..\liblc3\src/bits.h ****     LC3_BITS_MODE_WRITE,
  72:..\..\..\liblc3\src/bits.h **** };
  73:..\..\..\liblc3\src/bits.h **** 
  74:..\..\..\liblc3\src/bits.h **** /**
  75:..\..\..\liblc3\src/bits.h ****  * Arithmetic coder symbol interval
  76:..\..\..\liblc3\src/bits.h ****  * The model split the interval in 17 symbols
  77:..\..\..\liblc3\src/bits.h ****  */
  78:..\..\..\liblc3\src/bits.h **** 
  79:..\..\..\liblc3\src/bits.h **** struct lc3_ac_symbol {
  80:..\..\..\liblc3\src/bits.h ****     uint16_t low   : 16;
  81:..\..\..\liblc3\src/bits.h ****     uint16_t range : 16;
  82:..\..\..\liblc3\src/bits.h **** };
  83:..\..\..\liblc3\src/bits.h **** 
  84:..\..\..\liblc3\src/bits.h **** struct lc3_ac_model {
  85:..\..\..\liblc3\src/bits.h ****     struct lc3_ac_symbol s[17];
  86:..\..\..\liblc3\src/bits.h **** };
  87:..\..\..\liblc3\src/bits.h **** 
  88:..\..\..\liblc3\src/bits.h **** /**
  89:..\..\..\liblc3\src/bits.h ****  * Bitstream context
  90:..\..\..\liblc3\src/bits.h ****  */
  91:..\..\..\liblc3\src/bits.h **** 
  92:..\..\..\liblc3\src/bits.h **** #define LC3_ACCU_BITS (int)(8 * sizeof(unsigned))
  93:..\..\..\liblc3\src/bits.h **** 
  94:..\..\..\liblc3\src/bits.h **** struct lc3_bits_accu {
  95:..\..\..\liblc3\src/bits.h ****     unsigned v;
  96:..\..\..\liblc3\src/bits.h ****     int n, nover;
  97:..\..\..\liblc3\src/bits.h **** };
ARM GAS  C:\Users\rdn\AppData\Local\Temp\ccR84x99.s 			page 12


  98:..\..\..\liblc3\src/bits.h **** 
  99:..\..\..\liblc3\src/bits.h **** #define LC3_AC_BITS (int)(24)
 100:..\..\..\liblc3\src/bits.h **** 
 101:..\..\..\liblc3\src/bits.h **** struct lc3_bits_ac {
 102:..\..\..\liblc3\src/bits.h ****     unsigned low, range;
 103:..\..\..\liblc3\src/bits.h ****     int cache, carry, carry_count;
 104:..\..\..\liblc3\src/bits.h ****     bool error;
 105:..\..\..\liblc3\src/bits.h **** };
 106:..\..\..\liblc3\src/bits.h **** 
 107:..\..\..\liblc3\src/bits.h **** struct lc3_bits_buffer {
 108:..\..\..\liblc3\src/bits.h ****     const uint8_t *start, *end;
 109:..\..\..\liblc3\src/bits.h ****     uint8_t *p_fw, *p_bw;
 110:..\..\..\liblc3\src/bits.h **** };
 111:..\..\..\liblc3\src/bits.h **** 
 112:..\..\..\liblc3\src/bits.h **** typedef struct lc3_bits {
 113:..\..\..\liblc3\src/bits.h ****     enum lc3_bits_mode mode;
 114:..\..\..\liblc3\src/bits.h ****     struct lc3_bits_ac ac;
 115:..\..\..\liblc3\src/bits.h ****     struct lc3_bits_accu accu;
 116:..\..\..\liblc3\src/bits.h ****     struct lc3_bits_buffer buffer;
 117:..\..\..\liblc3\src/bits.h **** } lc3_bits_t;
 118:..\..\..\liblc3\src/bits.h **** 
 119:..\..\..\liblc3\src/bits.h **** 
 120:..\..\..\liblc3\src/bits.h **** /**
 121:..\..\..\liblc3\src/bits.h ****  * Setup bitstream reading/writing
 122:..\..\..\liblc3\src/bits.h ****  * bits            Bitstream context
 123:..\..\..\liblc3\src/bits.h ****  * mode            Either READ or WRITE mode
 124:..\..\..\liblc3\src/bits.h ****  * buffer, len     Output buffer and length (in bytes)
 125:..\..\..\liblc3\src/bits.h ****  */
 126:..\..\..\liblc3\src/bits.h **** void lc3_setup_bits(lc3_bits_t *bits,
 127:..\..\..\liblc3\src/bits.h ****     enum lc3_bits_mode mode, void *buffer, int len);
 128:..\..\..\liblc3\src/bits.h **** 
 129:..\..\..\liblc3\src/bits.h **** /**
 130:..\..\..\liblc3\src/bits.h ****  * Return number of bits left in the bitstream
 131:..\..\..\liblc3\src/bits.h ****  * bits            Bitstream context
 132:..\..\..\liblc3\src/bits.h ****  * return          Number of bits left
 133:..\..\..\liblc3\src/bits.h ****  */
 134:..\..\..\liblc3\src/bits.h **** int lc3_get_bits_left(const lc3_bits_t *bits);
 135:..\..\..\liblc3\src/bits.h **** 
 136:..\..\..\liblc3\src/bits.h **** /**
 137:..\..\..\liblc3\src/bits.h ****  * Check if error occured on bitstream reading/writing
 138:..\..\..\liblc3\src/bits.h ****  * bits            Bitstream context
 139:..\..\..\liblc3\src/bits.h ****  * return          0: Ok  -1: Bitstream overflow or AC reading error
 140:..\..\..\liblc3\src/bits.h ****  */
 141:..\..\..\liblc3\src/bits.h **** int lc3_check_bits(const lc3_bits_t *bits);
 142:..\..\..\liblc3\src/bits.h **** 
 143:..\..\..\liblc3\src/bits.h **** /**
 144:..\..\..\liblc3\src/bits.h ****  * Put a bit
 145:..\..\..\liblc3\src/bits.h ****  * bits            Bitstream context
 146:..\..\..\liblc3\src/bits.h ****  * v               Bit value, 0 or 1
 147:..\..\..\liblc3\src/bits.h ****  */
 148:..\..\..\liblc3\src/bits.h **** static inline void lc3_put_bit(lc3_bits_t *bits, int v);
 149:..\..\..\liblc3\src/bits.h **** 
 150:..\..\..\liblc3\src/bits.h **** /**
 151:..\..\..\liblc3\src/bits.h ****  * Put from 1 to 32 bits
 152:..\..\..\liblc3\src/bits.h ****  * bits            Bitstream context
 153:..\..\..\liblc3\src/bits.h ****  * v, n            Value, in range 0 to 2^n - 1, and bits count (1 to 32)
 154:..\..\..\liblc3\src/bits.h ****  */
ARM GAS  C:\Users\rdn\AppData\Local\Temp\ccR84x99.s 			page 13


 155:..\..\..\liblc3\src/bits.h **** static inline void lc3_put_bits(lc3_bits_t *bits, unsigned v, int n);
 156:..\..\..\liblc3\src/bits.h **** 
 157:..\..\..\liblc3\src/bits.h **** /**
 158:..\..\..\liblc3\src/bits.h ****  * Put arithmetic coder symbol
 159:..\..\..\liblc3\src/bits.h ****  * bits            Bitstream context
 160:..\..\..\liblc3\src/bits.h ****  * model, s        Model distribution and symbol value
 161:..\..\..\liblc3\src/bits.h ****  */
 162:..\..\..\liblc3\src/bits.h **** static inline void lc3_put_symbol(lc3_bits_t *bits,
 163:..\..\..\liblc3\src/bits.h ****     const struct lc3_ac_model *model, unsigned s);
 164:..\..\..\liblc3\src/bits.h **** 
 165:..\..\..\liblc3\src/bits.h **** /**
 166:..\..\..\liblc3\src/bits.h ****  * Flush and terminate bitstream writing
 167:..\..\..\liblc3\src/bits.h ****  * bits            Bitstream context
 168:..\..\..\liblc3\src/bits.h ****  */
 169:..\..\..\liblc3\src/bits.h **** void lc3_flush_bits(lc3_bits_t *bits);
 170:..\..\..\liblc3\src/bits.h **** 
 171:..\..\..\liblc3\src/bits.h **** /**
 172:..\..\..\liblc3\src/bits.h ****  * Get a bit
 173:..\..\..\liblc3\src/bits.h ****  * bits            Bitstream context
 174:..\..\..\liblc3\src/bits.h ****  */
 175:..\..\..\liblc3\src/bits.h **** static inline int lc3_get_bit(lc3_bits_t *bits);
 176:..\..\..\liblc3\src/bits.h **** 
 177:..\..\..\liblc3\src/bits.h **** /**
 178:..\..\..\liblc3\src/bits.h ****  * Get from 1 to 32 bits
 179:..\..\..\liblc3\src/bits.h ****  * bits            Bitstream context
 180:..\..\..\liblc3\src/bits.h ****  * n               Number of bits to read (1 to 32)
 181:..\..\..\liblc3\src/bits.h ****  * return          The value read
 182:..\..\..\liblc3\src/bits.h ****  */
 183:..\..\..\liblc3\src/bits.h **** static inline unsigned lc3_get_bits(lc3_bits_t *bits,  int n);
 184:..\..\..\liblc3\src/bits.h **** 
 185:..\..\..\liblc3\src/bits.h **** /**
 186:..\..\..\liblc3\src/bits.h ****  * Get arithmetic coder symbol
 187:..\..\..\liblc3\src/bits.h ****  * bits            Bitstream context
 188:..\..\..\liblc3\src/bits.h ****  * model           Model distribution
 189:..\..\..\liblc3\src/bits.h ****  * return          The value read
 190:..\..\..\liblc3\src/bits.h ****  */
 191:..\..\..\liblc3\src/bits.h **** static inline unsigned lc3_get_symbol(lc3_bits_t *bits,
 192:..\..\..\liblc3\src/bits.h ****     const struct lc3_ac_model *model);
 193:..\..\..\liblc3\src/bits.h **** 
 194:..\..\..\liblc3\src/bits.h **** 
 195:..\..\..\liblc3\src/bits.h **** 
 196:..\..\..\liblc3\src/bits.h **** /* ----------------------------------------------------------------------------
 197:..\..\..\liblc3\src/bits.h ****  *  Inline implementations
 198:..\..\..\liblc3\src/bits.h ****  * -------------------------------------------------------------------------- */
 199:..\..\..\liblc3\src/bits.h **** 
 200:..\..\..\liblc3\src/bits.h **** void lc3_put_bits_generic(lc3_bits_t *bits, unsigned v, int n);
 201:..\..\..\liblc3\src/bits.h **** unsigned lc3_get_bits_generic(struct lc3_bits *bits, int n);
 202:..\..\..\liblc3\src/bits.h **** 
 203:..\..\..\liblc3\src/bits.h **** void lc3_ac_read_renorm(lc3_bits_t *bits);
 204:..\..\..\liblc3\src/bits.h **** void lc3_ac_write_renorm(lc3_bits_t *bits);
 205:..\..\..\liblc3\src/bits.h **** 
 206:..\..\..\liblc3\src/bits.h **** 
 207:..\..\..\liblc3\src/bits.h **** /**
 208:..\..\..\liblc3\src/bits.h ****  * Put a bit
 209:..\..\..\liblc3\src/bits.h ****  */
 210:..\..\..\liblc3\src/bits.h **** LC3_HOT static inline void lc3_put_bit(lc3_bits_t *bits, int v)
 211:..\..\..\liblc3\src/bits.h **** {
ARM GAS  C:\Users\rdn\AppData\Local\Temp\ccR84x99.s 			page 14


 212:..\..\..\liblc3\src/bits.h ****     lc3_put_bits(bits, v, 1);
 213:..\..\..\liblc3\src/bits.h **** }
 214:..\..\..\liblc3\src/bits.h **** 
 215:..\..\..\liblc3\src/bits.h **** /**
 216:..\..\..\liblc3\src/bits.h ****  * Put from 1 to 32 bits
 217:..\..\..\liblc3\src/bits.h ****  */
 218:..\..\..\liblc3\src/bits.h **** LC3_HOT static inline void lc3_put_bits(
 219:..\..\..\liblc3\src/bits.h ****     struct lc3_bits *bits, unsigned v, int n)
 220:..\..\..\liblc3\src/bits.h **** {
 221:..\..\..\liblc3\src/bits.h ****     struct lc3_bits_accu *accu = &bits->accu;
 222:..\..\..\liblc3\src/bits.h **** 
 223:..\..\..\liblc3\src/bits.h ****     if (accu->n + n <= LC3_ACCU_BITS) {
 385              		.loc 2 223 0
 386 0010 2A6A     		ldr	r2, [r5, #32]
 387 0012 1318     		adds	r3, r2, r0
 388 0014 202B     		cmp	r3, #32
 389 0016 05DC     		bgt	.L26
 224:..\..\..\liblc3\src/bits.h ****         accu->v |= v << accu->n;
 390              		.loc 2 224 0
 391 0018 9440     		lsls	r4, r4, r2
 392              	.LVL47:
 393 001a EA69     		ldr	r2, [r5, #28]
 394 001c 1443     		orrs	r4, r2
 395 001e EC61     		str	r4, [r5, #28]
 225:..\..\..\liblc3\src/bits.h ****         accu->n += n;
 396              		.loc 2 225 0
 397 0020 2B62     		str	r3, [r5, #32]
 398 0022 04E0     		b	.L24
 399              	.LVL48:
 400              	.L26:
 226:..\..\..\liblc3\src/bits.h ****     } else {
 227:..\..\..\liblc3\src/bits.h ****         lc3_put_bits_generic(bits, v, n);
 401              		.loc 2 227 0
 402 0024 0200     		movs	r2, r0
 403 0026 2100     		movs	r1, r4
 404 0028 2800     		movs	r0, r5
 405              	.LVL49:
 406 002a FFF7FEFF 		bl	lc3_put_bits_generic
 407              	.LVL50:
 408              	.L24:
 409              	.LBE18:
 410              	.LBE17:
 138:..\..\..\liblc3\src/bwdet.c ****         lc3_put_bits(bits, bw, nbits_bw);
 139:..\..\..\liblc3\src/bwdet.c **** }
 411              		.loc 1 139 0
 412              		@ sp needed
 413              	.LVL51:
 414 002e 70BD     		pop	{r4, r5, r6, pc}
 415              		.cfi_endproc
 416              	.LFE15:
 417              		.size	lc3_bwdet_put_bw, .-lc3_bwdet_put_bw
 418              		.section	.text.lc3_bwdet_get_bw,"ax",%progbits
 419              		.align	2
 420              		.global	lc3_bwdet_get_bw
 421              		.code	16
 422              		.thumb_func
 423              		.type	lc3_bwdet_get_bw, %function
ARM GAS  C:\Users\rdn\AppData\Local\Temp\ccR84x99.s 			page 15


 424              	lc3_bwdet_get_bw:
 425              	.LFB16:
 140:..\..\..\liblc3\src/bwdet.c **** 
 141:..\..\..\liblc3\src/bwdet.c **** /**
 142:..\..\..\liblc3\src/bwdet.c ****  * Get bandwidth indication
 143:..\..\..\liblc3\src/bwdet.c ****  */
 144:..\..\..\liblc3\src/bwdet.c **** int lc3_bwdet_get_bw(lc3_bits_t *bits,
 145:..\..\..\liblc3\src/bwdet.c ****     enum lc3_srate sr, enum lc3_bandwidth *bw)
 146:..\..\..\liblc3\src/bwdet.c **** {
 426              		.loc 1 146 0
 427              		.cfi_startproc
 428              		@ args = 0, pretend = 0, frame = 0
 429              		@ frame_needed = 0, uses_anonymous_args = 0
 430              	.LVL52:
 431 0000 70B5     		push	{r4, r5, r6, lr}
 432              		.cfi_def_cfa_offset 16
 433              		.cfi_offset 4, -16
 434              		.cfi_offset 5, -12
 435              		.cfi_offset 6, -8
 436              		.cfi_offset 14, -4
 437 0002 0500     		movs	r5, r0
 438 0004 0C00     		movs	r4, r1
 439 0006 1600     		movs	r6, r2
 440              	.LVL53:
 147:..\..\..\liblc3\src/bwdet.c ****     enum lc3_bandwidth max_bw = (enum lc3_bandwidth)sr;
 148:..\..\..\liblc3\src/bwdet.c ****     int nbits_bw = lc3_bwdet_get_nbits(sr);
 441              		.loc 1 148 0
 442 0008 0800     		movs	r0, r1
 443              	.LVL54:
 444 000a FFF7FEFF 		bl	lc3_bwdet_get_nbits
 445              	.LVL55:
 149:..\..\..\liblc3\src/bwdet.c **** 
 150:..\..\..\liblc3\src/bwdet.c ****     *bw = nbits_bw <= 0 ? max_bw :
 446              		.loc 1 150 0
 447 000e 0028     		cmp	r0, #0
 448 0010 13DD     		ble	.L32
 449              	.LVL56:
 450              	.LBB22:
 451              	.LBB23:
 228:..\..\..\liblc3\src/bits.h ****     }
 229:..\..\..\liblc3\src/bits.h **** }
 230:..\..\..\liblc3\src/bits.h **** 
 231:..\..\..\liblc3\src/bits.h **** /**
 232:..\..\..\liblc3\src/bits.h ****  * Get a bit
 233:..\..\..\liblc3\src/bits.h ****  */
 234:..\..\..\liblc3\src/bits.h **** LC3_HOT static inline int lc3_get_bit(lc3_bits_t *bits)
 235:..\..\..\liblc3\src/bits.h **** {
 236:..\..\..\liblc3\src/bits.h ****     return lc3_get_bits(bits, 1);
 237:..\..\..\liblc3\src/bits.h **** }
 238:..\..\..\liblc3\src/bits.h **** 
 239:..\..\..\liblc3\src/bits.h **** /**
 240:..\..\..\liblc3\src/bits.h ****  * Get from 1 to 32 bits
 241:..\..\..\liblc3\src/bits.h ****  */
 242:..\..\..\liblc3\src/bits.h **** LC3_HOT static inline unsigned lc3_get_bits(struct lc3_bits *bits, int n)
 243:..\..\..\liblc3\src/bits.h **** {
 244:..\..\..\liblc3\src/bits.h ****     struct lc3_bits_accu *accu = &bits->accu;
 245:..\..\..\liblc3\src/bits.h **** 
ARM GAS  C:\Users\rdn\AppData\Local\Temp\ccR84x99.s 			page 16


 246:..\..\..\liblc3\src/bits.h ****     if (accu->n + n <= LC3_ACCU_BITS) {
 452              		.loc 2 246 0
 453 0012 2B6A     		ldr	r3, [r5, #32]
 454 0014 C118     		adds	r1, r0, r3
 455 0016 2029     		cmp	r1, #32
 456 0018 09DC     		bgt	.L29
 457              	.LBB24:
 247:..\..\..\liblc3\src/bits.h ****         int v = (accu->v >> accu->n) & ((1u << n) - 1);
 458              		.loc 2 247 0
 459 001a EA69     		ldr	r2, [r5, #28]
 460 001c DA40     		lsrs	r2, r2, r3
 461 001e 1300     		movs	r3, r2
 462 0020 0122     		movs	r2, #1
 463 0022 8240     		lsls	r2, r2, r0
 464 0024 1000     		movs	r0, r2
 465              	.LVL57:
 466 0026 0138     		subs	r0, r0, #1
 467 0028 1840     		ands	r0, r3
 468              	.LVL58:
 248:..\..\..\liblc3\src/bits.h ****         return (accu->n += n), v;
 469              		.loc 2 248 0
 470 002a 2962     		str	r1, [r5, #32]
 471 002c 03E0     		b	.L30
 472              	.LVL59:
 473              	.L29:
 474              	.LBE24:
 249:..\..\..\liblc3\src/bits.h ****     }
 250:..\..\..\liblc3\src/bits.h ****     else {
 251:..\..\..\liblc3\src/bits.h ****         return lc3_get_bits_generic(bits, n);
 475              		.loc 2 251 0
 476 002e 0100     		movs	r1, r0
 477 0030 2800     		movs	r0, r5
 478              	.LVL60:
 479 0032 FFF7FEFF 		bl	lc3_get_bits_generic
 480              	.LVL61:
 481              	.L30:
 482              	.LBE23:
 483              	.LBE22:
 484              		.loc 1 150 0
 485 0036 C0B2     		uxtb	r0, r0
 486 0038 00E0     		b	.L28
 487              	.LVL62:
 488              	.L32:
 489 003a 2000     		movs	r0, r4
 490              	.LVL63:
 491              	.L28:
 492              		.loc 1 150 0 is_stmt 0 discriminator 4
 493 003c 3070     		strb	r0, [r6]
 151:..\..\..\liblc3\src/bwdet.c ****         (enum lc3_bandwidth)lc3_get_bits(bits, nbits_bw);
 152:..\..\..\liblc3\src/bwdet.c **** 
 153:..\..\..\liblc3\src/bwdet.c ****     return *bw > max_bw ? (*bw = max_bw), -1 : 0;
 494              		.loc 1 153 0 is_stmt 1 discriminator 4
 495 003e A042     		cmp	r0, r4
 496 0040 03D9     		bls	.L33
 497              		.loc 1 153 0 is_stmt 0 discriminator 1
 498 0042 3470     		strb	r4, [r6]
 499 0044 0120     		movs	r0, #1
ARM GAS  C:\Users\rdn\AppData\Local\Temp\ccR84x99.s 			page 17


 500 0046 4042     		rsbs	r0, r0, #0
 501 0048 00E0     		b	.L31
 502              	.L33:
 503              		.loc 1 153 0
 504 004a 0020     		movs	r0, #0
 505              	.L31:
 154:..\..\..\liblc3\src/bwdet.c **** }
 506              		.loc 1 154 0 is_stmt 1 discriminator 4
 507              		@ sp needed
 508              	.LVL64:
 509              	.LVL65:
 510 004c 70BD     		pop	{r4, r5, r6, pc}
 511              		.cfi_endproc
 512              	.LFE16:
 513              		.size	lc3_bwdet_get_bw, .-lc3_bwdet_get_bw
 514 004e C046     		.section	.rodata
 515              		.align	2
 516              		.set	.LANCHOR0,. + 0
 517              		.type	bws_table.5456, %object
 518              		.size	bws_table.5456, 16
 519              	bws_table.5456:
 520 0000 60000000 		.word	bws_table_2m5.5452
 521 0004 A0000000 		.word	bws_table_5m.5453
 522 0008 E0000000 		.word	bws_table_7m5.5454
 523 000c 20010000 		.word	bws_table_10m.5455
 524              		.type	l_table.5457, %object
 525              		.size	l_table.5457, 64
 526              	l_table.5457:
 527 0010 04000000 		.word	4
 528 0014 04000000 		.word	4
 529 0018 03000000 		.word	3
 530 001c 01000000 		.word	1
 531 0020 04000000 		.word	4
 532 0024 04000000 		.word	4
 533 0028 03000000 		.word	3
 534 002c 01000000 		.word	1
 535 0030 04000000 		.word	4
 536 0034 04000000 		.word	4
 537 0038 03000000 		.word	3
 538 003c 02000000 		.word	2
 539 0040 04000000 		.word	4
 540 0044 04000000 		.word	4
 541 0048 03000000 		.word	3
 542 004c 01000000 		.word	1
 543              	.LC0:
 544 0050 72FBFC41 		.word	1107098482
 545 0054 B7864743 		.word	1128761015
 546 0058 0000C842 		.word	1120403456
 547 005c 0000C842 		.word	1120403456
 548              		.type	bws_table_2m5.5452, %object
 549              		.size	bws_table_2m5.5452, 64
 550              	bws_table_2m5.5452:
 551 0060 18       		.byte	24
 552 0061 23       		.byte	35
 553 0062 0000     		.space	2
 554 0064 00000000 		.space	12
 554      00000000 
ARM GAS  C:\Users\rdn\AppData\Local\Temp\ccR84x99.s 			page 18


 554      00000000 
 555 0070 18       		.byte	24
 556 0071 21       		.byte	33
 557 0072 0000     		.space	2
 558 0074 23       		.byte	35
 559 0075 28       		.byte	40
 560 0076 0000     		.space	2
 561 0078 00000000 		.space	8
 561      00000000 
 562 0080 18       		.byte	24
 563 0081 20       		.byte	32
 564 0082 0000     		.space	2
 565 0084 21       		.byte	33
 566 0085 27       		.byte	39
 567 0086 0000     		.space	2
 568 0088 27       		.byte	39
 569 0089 2B       		.byte	43
 570 008a 0000     		.space	2
 571 008c 00000000 		.space	4
 572 0090 16       		.byte	22
 573 0091 1E       		.byte	30
 574 0092 0000     		.space	2
 575 0094 1F       		.byte	31
 576 0095 24       		.byte	36
 577 0096 0000     		.space	2
 578 0098 25       		.byte	37
 579 0099 29       		.byte	41
 580 009a 0000     		.space	2
 581 009c 29       		.byte	41
 582 009d 2C       		.byte	44
 583 009e 0000     		.space	2
 584              		.type	bws_table_5m.5453, %object
 585              		.size	bws_table_5m.5453, 64
 586              	bws_table_5m.5453:
 587 00a0 27       		.byte	39
 588 00a1 32       		.byte	50
 589 00a2 0000     		.space	2
 590 00a4 00000000 		.space	12
 590      00000000 
 590      00000000 
 591 00b0 23       		.byte	35
 592 00b1 2D       		.byte	45
 593 00b2 0000     		.space	2
 594 00b4 2F       		.byte	47
 595 00b5 34       		.byte	52
 596 00b6 0000     		.space	2
 597 00b8 00000000 		.space	8
 597      00000000 
 598 00c0 22       		.byte	34
 599 00c1 2B       		.byte	43
 600 00c2 0000     		.space	2
 601 00c4 2C       		.byte	44
 602 00c5 32       		.byte	50
 603 00c6 0000     		.space	2
 604 00c8 32       		.byte	50
 605 00c9 36       		.byte	54
 606 00ca 0000     		.space	2
ARM GAS  C:\Users\rdn\AppData\Local\Temp\ccR84x99.s 			page 19


 607 00cc 00000000 		.space	4
 608 00d0 20       		.byte	32
 609 00d1 29       		.byte	41
 610 00d2 0000     		.space	2
 611 00d4 2A       		.byte	42
 612 00d5 2F       		.byte	47
 613 00d6 0000     		.space	2
 614 00d8 30       		.byte	48
 615 00d9 34       		.byte	52
 616 00da 0000     		.space	2
 617 00dc 34       		.byte	52
 618 00dd 37       		.byte	55
 619 00de 0000     		.space	2
 620              		.type	bws_table_7m5.5454, %object
 621              		.size	bws_table_7m5.5454, 64
 622              	bws_table_7m5.5454:
 623 00e0 33       		.byte	51
 624 00e1 40       		.byte	64
 625 00e2 0000     		.space	2
 626 00e4 00000000 		.space	12
 626      00000000 
 626      00000000 
 627 00f0 2D       		.byte	45
 628 00f1 38       		.byte	56
 629 00f2 0000     		.space	2
 630 00f4 3A       		.byte	58
 631 00f5 40       		.byte	64
 632 00f6 0000     		.space	2
 633 00f8 00000000 		.space	8
 633      00000000 
 634 0100 2A       		.byte	42
 635 0101 34       		.byte	52
 636 0102 0000     		.space	2
 637 0104 35       		.byte	53
 638 0105 3B       		.byte	59
 639 0106 0000     		.space	2
 640 0108 3C       		.byte	60
 641 0109 40       		.byte	64
 642 010a 0000     		.space	2
 643 010c 00000000 		.space	4
 644 0110 28       		.byte	40
 645 0111 31       		.byte	49
 646 0112 0000     		.space	2
 647 0114 33       		.byte	51
 648 0115 38       		.byte	56
 649 0116 0000     		.space	2
 650 0118 39       		.byte	57
 651 0119 3D       		.byte	61
 652 011a 0000     		.space	2
 653 011c 3D       		.byte	61
 654 011d 40       		.byte	64
 655 011e 0000     		.space	2
 656              		.type	bws_table_10m.5455, %object
 657              		.size	bws_table_10m.5455, 64
 658              	bws_table_10m.5455:
 659 0120 35       		.byte	53
 660 0121 40       		.byte	64
ARM GAS  C:\Users\rdn\AppData\Local\Temp\ccR84x99.s 			page 20


 661 0122 0000     		.space	2
 662 0124 00000000 		.space	12
 662      00000000 
 662      00000000 
 663 0130 2F       		.byte	47
 664 0131 39       		.byte	57
 665 0132 0000     		.space	2
 666 0134 3B       		.byte	59
 667 0135 40       		.byte	64
 668 0136 0000     		.space	2
 669 0138 00000000 		.space	8
 669      00000000 
 670 0140 2C       		.byte	44
 671 0141 35       		.byte	53
 672 0142 0000     		.space	2
 673 0144 36       		.byte	54
 674 0145 3C       		.byte	60
 675 0146 0000     		.space	2
 676 0148 3C       		.byte	60
 677 0149 40       		.byte	64
 678 014a 0000     		.space	2
 679 014c 00000000 		.space	4
 680 0150 29       		.byte	41
 681 0151 32       		.byte	50
 682 0152 0000     		.space	2
 683 0154 33       		.byte	51
 684 0155 38       		.byte	56
 685 0156 0000     		.space	2
 686 0158 39       		.byte	57
 687 0159 3D       		.byte	61
 688 015a 0000     		.space	2
 689 015c 3D       		.byte	61
 690 015d 40       		.byte	64
 691 015e 0000     		.space	2
 692              		.text
 693              	.Letext0:
 694              		.file 3 "c:\\program files (x86)\\cypress\\psoc creator\\4.4\\psoc creator\\import\\gnu\\arm\\5.4.
 695              		.file 4 "c:\\program files (x86)\\cypress\\psoc creator\\4.4\\psoc creator\\import\\gnu\\arm\\5.4.
 696              		.file 5 ".\\liblc3\\include/lc3_private.h"
 697              		.file 6 "..\\..\\..\\liblc3\\src\\common.h"