ARM GAS  C:\Users\rdn\AppData\Local\Temp\ccK87xzs.s 			page 1


   1              		.syntax unified
   2              		.cpu cortex-m0plus
   3              		.fpu softvfp
   4              		.eabi_attribute 20, 1
   5              		.eabi_attribute 21, 1
   6              		.eabi_attribute 23, 3
   7              		.eabi_attribute 24, 1
   8              		.eabi_attribute 25, 1
   9              		.eabi_attribute 26, 1
  10              		.eabi_attribute 30, 1
  11              		.eabi_attribute 34, 0
  12              		.eabi_attribute 18, 4
  13              		.thumb
  14              		.syntax unified
  15              		.file	"energy.c"
  16              		.text
  17              	.Ltext0:
  18              		.cfi_sections	.debug_frame
  19              		.global	__aeabi_fmul
  20              		.global	__aeabi_fadd
  21              		.global	__aeabi_i2f
  22              		.global	__aeabi_fdiv
  23              		.global	__aeabi_fcmpgt
  24              		.section	.text.lc3_energy_compute,"ax",%progbits
  25              		.align	2
  26              		.global	lc3_energy_compute
  27              		.code	16
  28              		.thumb_func
  29              		.type	lc3_energy_compute, %function
  30              	lc3_energy_compute:
  31              	.LFB20:
  32              		.file 1 "..\\..\\..\\liblc3\\src\\energy.c"
   1:..\..\..\liblc3\src/energy.c **** /******************************************************************************
   2:..\..\..\liblc3\src/energy.c ****  *
   3:..\..\..\liblc3\src/energy.c ****  *  Copyright 2022 Google LLC
   4:..\..\..\liblc3\src/energy.c ****  *
   5:..\..\..\liblc3\src/energy.c ****  *  Licensed under the Apache License, Version 2.0 (the "License");
   6:..\..\..\liblc3\src/energy.c ****  *  you may not use this file except in compliance with the License.
   7:..\..\..\liblc3\src/energy.c ****  *  You may obtain a copy of the License at:
   8:..\..\..\liblc3\src/energy.c ****  *
   9:..\..\..\liblc3\src/energy.c ****  *  http://www.apache.org/licenses/LICENSE-2.0
  10:..\..\..\liblc3\src/energy.c ****  *
  11:..\..\..\liblc3\src/energy.c ****  *  Unless required by applicable law or agreed to in writing, software
  12:..\..\..\liblc3\src/energy.c ****  *  distributed under the License is distributed on an "AS IS" BASIS,
  13:..\..\..\liblc3\src/energy.c ****  *  WITHOUT WARRANTIES OR CONDITIONS OF ANY KIND, either express or implied.
  14:..\..\..\liblc3\src/energy.c ****  *  See the License for the specific language governing permissions and
  15:..\..\..\liblc3\src/energy.c ****  *  limitations under the License.
  16:..\..\..\liblc3\src/energy.c ****  *
  17:..\..\..\liblc3\src/energy.c ****  ******************************************************************************/
  18:..\..\..\liblc3\src/energy.c **** 
  19:..\..\..\liblc3\src/energy.c **** #include "energy.h"
  20:..\..\..\liblc3\src/energy.c **** #include "tables.h"
  21:..\..\..\liblc3\src/energy.c **** 
  22:..\..\..\liblc3\src/energy.c **** 
  23:..\..\..\liblc3\src/energy.c **** /**
  24:..\..\..\liblc3\src/energy.c ****  * Energy estimation per band
  25:..\..\..\liblc3\src/energy.c ****  */
ARM GAS  C:\Users\rdn\AppData\Local\Temp\ccK87xzs.s 			page 2


  26:..\..\..\liblc3\src/energy.c **** bool lc3_energy_compute(
  27:..\..\..\liblc3\src/energy.c ****     enum lc3_dt dt, enum lc3_srate sr, const float *x, float *e)
  28:..\..\..\liblc3\src/energy.c **** {
  33              		.loc 1 28 0
  34              		.cfi_startproc
  35              		@ args = 0, pretend = 0, frame = 32
  36              		@ frame_needed = 0, uses_anonymous_args = 0
  37              	.LVL0:
  38 0000 F0B5     		push	{r4, r5, r6, r7, lr}
  39              		.cfi_def_cfa_offset 20
  40              		.cfi_offset 4, -20
  41              		.cfi_offset 5, -16
  42              		.cfi_offset 6, -12
  43              		.cfi_offset 7, -8
  44              		.cfi_offset 14, -4
  45 0002 5F46     		mov	r7, fp
  46 0004 5646     		mov	r6, r10
  47 0006 4D46     		mov	r5, r9
  48 0008 4446     		mov	r4, r8
  49 000a F0B4     		push	{r4, r5, r6, r7}
  50              		.cfi_def_cfa_offset 36
  51              		.cfi_offset 8, -36
  52              		.cfi_offset 9, -32
  53              		.cfi_offset 10, -28
  54              		.cfi_offset 11, -24
  55 000c 89B0     		sub	sp, sp, #36
  56              		.cfi_def_cfa_offset 72
  57 000e 1700     		movs	r7, r2
  58 0010 9A46     		mov	r10, r3
  29:..\..\..\liblc3\src/energy.c ****     int nb = lc3_num_bands[dt][sr];
  59              		.loc 1 29 0
  60 0012 C300     		lsls	r3, r0, #3
  61              	.LVL1:
  62 0014 1B1A     		subs	r3, r3, r0
  63 0016 5918     		adds	r1, r3, r1
  64              	.LVL2:
  65 0018 8900     		lsls	r1, r1, #2
  66 001a 354B     		ldr	r3, .L7
  67 001c CB58     		ldr	r3, [r1, r3]
  68 001e 0193     		str	r3, [sp, #4]
  69              	.LVL3:
  30:..\..\..\liblc3\src/energy.c ****     const int *lim = lc3_band_lim[dt][sr];
  70              		.loc 1 30 0
  71 0020 344B     		ldr	r3, .L7+4
  72              	.LVL4:
  73 0022 CB58     		ldr	r3, [r1, r3]
  74 0024 9B46     		mov	fp, r3
  75              	.LVL5:
  31:..\..\..\liblc3\src/energy.c **** 
  32:..\..\..\liblc3\src/energy.c ****     /* Mean the square of coefficients within each band */
  33:..\..\..\liblc3\src/energy.c **** 
  34:..\..\..\liblc3\src/energy.c ****     float e_sum[2] = { 0, 0 };
  76              		.loc 1 34 0
  77 0026 0023     		movs	r3, #0
  78              	.LVL6:
  79 0028 0293     		str	r3, [sp, #8]
  80 002a 0393     		str	r3, [sp, #12]
ARM GAS  C:\Users\rdn\AppData\Local\Temp\ccK87xzs.s 			page 3


  35:..\..\..\liblc3\src/energy.c ****     int iband_h = nb - (const int []){
  81              		.loc 1 35 0
  82 002c 04AB     		add	r3, sp, #16
  83 002e 324A     		ldr	r2, .L7+8
  84              	.LVL7:
  85 0030 1900     		movs	r1, r3
  86              	.LVL8:
  87 0032 70CA     		ldmia	r2!, {r4, r5, r6}
  88 0034 70C1     		stmia	r1!, {r4, r5, r6}
  89 0036 1268     		ldr	r2, [r2]
  90 0038 0A60     		str	r2, [r1]
  36:..\..\..\liblc3\src/energy.c ****         [LC3_DT_2M5] = 2, [LC3_DT_5M ] = 3,
  37:..\..\..\liblc3\src/energy.c ****         [LC3_DT_7M5] = 4, [LC3_DT_10M] = 2 }[dt];
  91              		.loc 1 37 0
  92 003a 8000     		lsls	r0, r0, #2
  93              	.LVL9:
  94 003c C358     		ldr	r3, [r0, r3]
  35:..\..\..\liblc3\src/energy.c ****     int iband_h = nb - (const int []){
  95              		.loc 1 35 0
  96 003e 019A     		ldr	r2, [sp, #4]
  97 0040 D31A     		subs	r3, r2, r3
  98 0042 9946     		mov	r9, r3
  99              	.LVL10:
 100              	.LBB2:
  38:..\..\..\liblc3\src/energy.c **** 
  39:..\..\..\liblc3\src/energy.c ****     for (int iband = 0, i = lim[iband]; iband < nb; iband++) {
 101              		.loc 1 39 0
 102 0044 5B46     		mov	r3, fp
 103              	.LVL11:
 104 0046 1C68     		ldr	r4, [r3]
 105              	.LVL12:
 106 0048 0023     		movs	r3, #0
 107 004a 9846     		mov	r8, r3
 108 004c 38E0     		b	.L2
 109              	.LVL13:
 110              	.L5:
 111              	.LBB3:
  40:..\..\..\liblc3\src/energy.c ****         int ie = lim[iband+1];
 112              		.loc 1 40 0
 113 004e 4346     		mov	r3, r8
 114 0050 0133     		adds	r3, r3, #1
 115 0052 9B00     		lsls	r3, r3, #2
 116 0054 5A46     		mov	r2, fp
 117 0056 D658     		ldr	r6, [r2, r3]
 118              	.LVL14:
  41:..\..\..\liblc3\src/energy.c ****         int n = ie - i;
 119              		.loc 1 41 0
 120 0058 331B     		subs	r3, r6, r4
 121 005a 0093     		str	r3, [sp]
 122              	.LVL15:
  42:..\..\..\liblc3\src/energy.c **** 
  43:..\..\..\liblc3\src/energy.c ****         float sx2 = x[i] * x[i];
 123              		.loc 1 43 0
 124 005c A300     		lsls	r3, r4, #2
 125              	.LVL16:
 126 005e F858     		ldr	r0, [r7, r3]
 127 0060 011C     		adds	r1, r0, #0
ARM GAS  C:\Users\rdn\AppData\Local\Temp\ccK87xzs.s 			page 4


 128 0062 FFF7FEFF 		bl	__aeabi_fmul
 129              	.LVL17:
 130 0066 051C     		adds	r5, r0, #0
 131              	.LVL18:
  44:..\..\..\liblc3\src/energy.c ****         for (i++; i < ie; i++)
 132              		.loc 1 44 0
 133 0068 0134     		adds	r4, r4, #1
 134              	.LVL19:
 135 006a 0AE0     		b	.L3
 136              	.L4:
  45:..\..\..\liblc3\src/energy.c ****             sx2 += x[i] * x[i];
 137              		.loc 1 45 0 discriminator 3
 138 006c A300     		lsls	r3, r4, #2
 139 006e F858     		ldr	r0, [r7, r3]
 140              	.LVL20:
 141 0070 011C     		adds	r1, r0, #0
 142 0072 FFF7FEFF 		bl	__aeabi_fmul
 143              	.LVL21:
 144 0076 011C     		adds	r1, r0, #0
 145 0078 281C     		adds	r0, r5, #0
 146 007a FFF7FEFF 		bl	__aeabi_fadd
 147              	.LVL22:
 148 007e 051C     		adds	r5, r0, #0
 149              	.LVL23:
  44:..\..\..\liblc3\src/energy.c ****         for (i++; i < ie; i++)
 150              		.loc 1 44 0 discriminator 3
 151 0080 0134     		adds	r4, r4, #1
 152              	.LVL24:
 153              	.L3:
  44:..\..\..\liblc3\src/energy.c ****         for (i++; i < ie; i++)
 154              		.loc 1 44 0 is_stmt 0 discriminator 1
 155 0082 B442     		cmp	r4, r6
 156 0084 F2DB     		blt	.L4
  46:..\..\..\liblc3\src/energy.c **** 
  47:..\..\..\liblc3\src/energy.c ****         *e = sx2 / n;
 157              		.loc 1 47 0 is_stmt 1 discriminator 2
 158 0086 0098     		ldr	r0, [sp]
 159              	.LVL25:
 160 0088 FFF7FEFF 		bl	__aeabi_i2f
 161              	.LVL26:
 162 008c 011C     		adds	r1, r0, #0
 163 008e 281C     		adds	r0, r5, #0
 164 0090 FFF7FEFF 		bl	__aeabi_fdiv
 165              	.LVL27:
 166 0094 011C     		adds	r1, r0, #0
 167 0096 5346     		mov	r3, r10
 168 0098 01C3     		stmia	r3!, {r0}
 169 009a 9A46     		mov	r10, r3
 170              	.LVL28:
  48:..\..\..\liblc3\src/energy.c ****         e_sum[iband >= iband_h] += *(e++);
 171              		.loc 1 48 0 discriminator 2
 172 009c 4346     		mov	r3, r8
 173              	.LVL29:
 174 009e DD17     		asrs	r5, r3, #31
 175              	.LVL30:
 176 00a0 4B46     		mov	r3, r9
 177 00a2 DB0F     		lsrs	r3, r3, #31
ARM GAS  C:\Users\rdn\AppData\Local\Temp\ccK87xzs.s 			page 5


 178 00a4 4246     		mov	r2, r8
 179 00a6 4846     		mov	r0, r9
 180 00a8 8242     		cmp	r2, r0
 181 00aa 5D41     		adcs	r5, r5, r3
 182 00ac AD00     		lsls	r5, r5, #2
 183 00ae 02AB     		add	r3, sp, #8
 184 00b0 E858     		ldr	r0, [r5, r3]
 185 00b2 FFF7FEFF 		bl	__aeabi_fadd
 186              	.LVL31:
 187 00b6 02AB     		add	r3, sp, #8
 188 00b8 E850     		str	r0, [r5, r3]
 189              	.LBE3:
  39:..\..\..\liblc3\src/energy.c ****         int ie = lim[iband+1];
 190              		.loc 1 39 0 discriminator 2
 191 00ba 0123     		movs	r3, #1
 192 00bc 9C46     		mov	ip, r3
 193 00be E044     		add	r8, r8, ip
 194              	.LVL32:
 195              	.L2:
  39:..\..\..\liblc3\src/energy.c ****         int ie = lim[iband+1];
 196              		.loc 1 39 0 is_stmt 0 discriminator 1
 197 00c0 019B     		ldr	r3, [sp, #4]
 198 00c2 9845     		cmp	r8, r3
 199 00c4 C3DB     		blt	.L5
 200              	.LBE2:
  49:..\..\..\liblc3\src/energy.c ****     }
  50:..\..\..\liblc3\src/energy.c **** 
  51:..\..\..\liblc3\src/energy.c ****     /* Return the near nyquist flag */
  52:..\..\..\liblc3\src/energy.c **** 
  53:..\..\..\liblc3\src/energy.c ****     return e_sum[1] > 30 * e_sum[0];
 201              		.loc 1 53 0 is_stmt 1
 202 00c6 039D     		ldr	r5, [sp, #12]
 203 00c8 0C49     		ldr	r1, .L7+12
 204 00ca 0298     		ldr	r0, [sp, #8]
 205 00cc FFF7FEFF 		bl	__aeabi_fmul
 206              	.LVL33:
 207 00d0 011C     		adds	r1, r0, #0
 208 00d2 0124     		movs	r4, #1
 209              	.LVL34:
 210 00d4 281C     		adds	r0, r5, #0
 211 00d6 FFF7FEFF 		bl	__aeabi_fcmpgt
 212              	.LVL35:
 213 00da 0028     		cmp	r0, #0
 214 00dc 00D1     		bne	.L6
 215 00de 0024     		movs	r4, #0
 216              	.L6:
 217 00e0 E0B2     		uxtb	r0, r4
  54:..\..\..\liblc3\src/energy.c **** }
 218              		.loc 1 54 0
 219 00e2 09B0     		add	sp, sp, #36
 220              		@ sp needed
 221              	.LVL36:
 222              	.LVL37:
 223              	.LVL38:
 224              	.LVL39:
 225              	.LVL40:
 226 00e4 3CBC     		pop	{r2, r3, r4, r5}
ARM GAS  C:\Users\rdn\AppData\Local\Temp\ccK87xzs.s 			page 6


 227 00e6 9046     		mov	r8, r2
 228 00e8 9946     		mov	r9, r3
 229 00ea A246     		mov	r10, r4
 230 00ec AB46     		mov	fp, r5
 231 00ee F0BD     		pop	{r4, r5, r6, r7, pc}
 232              	.L8:
 233              		.align	2
 234              	.L7:
 235 00f0 00000000 		.word	lc3_num_bands
 236 00f4 00000000 		.word	lc3_band_lim
 237 00f8 00000000 		.word	.LANCHOR0
 238 00fc 0000F041 		.word	1106247680
 239              		.cfi_endproc
 240              	.LFE20:
 241              		.size	lc3_energy_compute, .-lc3_energy_compute
 242              		.section	.rodata
 243              		.align	2
 244              		.set	.LANCHOR0,. + 0
 245              	.LC0:
 246 0000 02000000 		.word	2
 247 0004 03000000 		.word	3
 248 0008 04000000 		.word	4
 249 000c 02000000 		.word	2
 250              		.text
 251              	.Letext0:
 252              		.file 2 ".\\liblc3\\include/lc3_private.h"
 253              		.file 3 "..\\..\\..\\liblc3\\src\\tables.h"