ARM GAS  C:\Users\rdn\AppData\Local\Temp\cco7w9JJ.s 			page 1


   1              		.syntax unified
   2              		.cpu cortex-m0plus
   3              		.fpu softvfp
   4              		.eabi_attribute 20, 1
   5              		.eabi_attribute 21, 1
   6              		.eabi_attribute 23, 3
   7              		.eabi_attribute 24, 1
   8              		.eabi_attribute 25, 1
   9              		.eabi_attribute 26, 1
  10              		.eabi_attribute 30, 1
  11              		.eabi_attribute 34, 0
  12              		.eabi_attribute 18, 4
  13              		.thumb
  14              		.syntax unified
  15              		.file	"lc3.c"
  16              		.text
  17              	.Ltext0:
  18              		.cfi_sections	.debug_frame
  19              		.section	.text.resolve_dt,"ax",%progbits
  20              		.align	2
  21              		.code	16
  22              		.thumb_func
  23              		.type	resolve_dt, %function
  24              	resolve_dt:
  25              	.LFB20:
  26              		.file 1 "..\\..\\..\\liblc3\\src\\lc3.c"
   1:..\..\..\liblc3\src/lc3.c **** /******************************************************************************
   2:..\..\..\liblc3\src/lc3.c ****  *
   3:..\..\..\liblc3\src/lc3.c ****  *  Copyright 2022 Google LLC
   4:..\..\..\liblc3\src/lc3.c ****  *
   5:..\..\..\liblc3\src/lc3.c ****  *  Licensed under the Apache License, Version 2.0 (the "License");
   6:..\..\..\liblc3\src/lc3.c ****  *  you may not use this file except in compliance with the License.
   7:..\..\..\liblc3\src/lc3.c ****  *  You may obtain a copy of the License at:
   8:..\..\..\liblc3\src/lc3.c ****  *
   9:..\..\..\liblc3\src/lc3.c ****  *  http://www.apache.org/licenses/LICENSE-2.0
  10:..\..\..\liblc3\src/lc3.c ****  *
  11:..\..\..\liblc3\src/lc3.c ****  *  Unless required by applicable law or agreed to in writing, software
  12:..\..\..\liblc3\src/lc3.c ****  *  distributed under the License is distributed on an "AS IS" BASIS,
  13:..\..\..\liblc3\src/lc3.c ****  *  WITHOUT WARRANTIES OR CONDITIONS OF ANY KIND, either express or implied.
  14:..\..\..\liblc3\src/lc3.c ****  *  See the License for the specific language governing permissions and
  15:..\..\..\liblc3\src/lc3.c ****  *  limitations under the License.
  16:..\..\..\liblc3\src/lc3.c ****  *
  17:..\..\..\liblc3\src/lc3.c ****  ******************************************************************************/
  18:..\..\..\liblc3\src/lc3.c **** 
  19:..\..\..\liblc3\src/lc3.c **** #include <lc3.h>
  20:..\..\..\liblc3\src/lc3.c **** 
  21:..\..\..\liblc3\src/lc3.c **** #include "common.h"
  22:..\..\..\liblc3\src/lc3.c **** #include "bits.h"
  23:..\..\..\liblc3\src/lc3.c **** 
  24:..\..\..\liblc3\src/lc3.c **** #include "attdet.h"
  25:..\..\..\liblc3\src/lc3.c **** #include "bwdet.h"
  26:..\..\..\liblc3\src/lc3.c **** #include "ltpf.h"
  27:..\..\..\liblc3\src/lc3.c **** #include "mdct.h"
  28:..\..\..\liblc3\src/lc3.c **** #include "energy.h"
  29:..\..\..\liblc3\src/lc3.c **** #include "sns.h"
  30:..\..\..\liblc3\src/lc3.c **** #include "tns.h"
  31:..\..\..\liblc3\src/lc3.c **** #include "spec.h"
ARM GAS  C:\Users\rdn\AppData\Local\Temp\cco7w9JJ.s 			page 2


  32:..\..\..\liblc3\src/lc3.c **** #include "plc.h"
  33:..\..\..\liblc3\src/lc3.c **** 
  34:..\..\..\liblc3\src/lc3.c **** 
  35:..\..\..\liblc3\src/lc3.c **** /**
  36:..\..\..\liblc3\src/lc3.c ****  * Frame side data
  37:..\..\..\liblc3\src/lc3.c ****  */
  38:..\..\..\liblc3\src/lc3.c **** 
  39:..\..\..\liblc3\src/lc3.c **** struct side_data {
  40:..\..\..\liblc3\src/lc3.c ****     enum lc3_bandwidth bw;
  41:..\..\..\liblc3\src/lc3.c ****     bool pitch_present;
  42:..\..\..\liblc3\src/lc3.c ****     lc3_ltpf_data_t ltpf;
  43:..\..\..\liblc3\src/lc3.c ****     lc3_sns_data_t sns;
  44:..\..\..\liblc3\src/lc3.c ****     lc3_tns_data_t tns;
  45:..\..\..\liblc3\src/lc3.c ****     lc3_spec_side_t spec;
  46:..\..\..\liblc3\src/lc3.c **** };
  47:..\..\..\liblc3\src/lc3.c **** 
  48:..\..\..\liblc3\src/lc3.c **** 
  49:..\..\..\liblc3\src/lc3.c **** /* ----------------------------------------------------------------------------
  50:..\..\..\liblc3\src/lc3.c ****  *  General
  51:..\..\..\liblc3\src/lc3.c ****  * -------------------------------------------------------------------------- */
  52:..\..\..\liblc3\src/lc3.c **** 
  53:..\..\..\liblc3\src/lc3.c **** /**
  54:..\..\..\liblc3\src/lc3.c ****  * Resolve frame duration in us
  55:..\..\..\liblc3\src/lc3.c ****  * us              Frame duration in us
  56:..\..\..\liblc3\src/lc3.c ****  * hrmode          High-resolution mode indication
  57:..\..\..\liblc3\src/lc3.c ****  * return          Frame duration identifier, or LC3_NUM_DT
  58:..\..\..\liblc3\src/lc3.c ****  */
  59:..\..\..\liblc3\src/lc3.c **** static enum lc3_dt resolve_dt(int us, bool hrmode)
  60:..\..\..\liblc3\src/lc3.c **** {
  27              		.loc 1 60 0
  28              		.cfi_startproc
  29              		@ args = 0, pretend = 0, frame = 0
  30              		@ frame_needed = 0, uses_anonymous_args = 0
  31              		@ link register save eliminated.
  32              	.LVL0:
  61:..\..\..\liblc3\src/lc3.c ****     return LC3_PLUS && us ==  2500 ? LC3_DT_2M5 :
  33              		.loc 1 61 0
  34 0000 0B4B     		ldr	r3, .L8
  35 0002 9842     		cmp	r0, r3
  36 0004 0CD0     		beq	.L4
  37              		.loc 1 61 0 is_stmt 0 discriminator 1
  38 0006 0B4B     		ldr	r3, .L8+4
  39 0008 9842     		cmp	r0, r3
  40 000a 0BD0     		beq	.L5
  41              		.loc 1 61 0 discriminator 3
  42 000c 0029     		cmp	r1, #0
  43 000e 02D1     		bne	.L3
  62:..\..\..\liblc3\src/lc3.c ****            LC3_PLUS && us ==  5000 ? LC3_DT_5M  :
  63:..\..\..\liblc3\src/lc3.c ****            !hrmode  && us ==  7500 ? LC3_DT_7M5 :
  44              		.loc 1 63 0 is_stmt 1
  45 0010 094B     		ldr	r3, .L8+8
  46 0012 9842     		cmp	r0, r3
  47 0014 08D0     		beq	.L6
  48              	.L3:
  61:..\..\..\liblc3\src/lc3.c ****     return LC3_PLUS && us ==  2500 ? LC3_DT_2M5 :
  49              		.loc 1 61 0 discriminator 5
  50 0016 094B     		ldr	r3, .L8+12
ARM GAS  C:\Users\rdn\AppData\Local\Temp\cco7w9JJ.s 			page 3


  51 0018 9842     		cmp	r0, r3
  52 001a 07D1     		bne	.L7
  61:..\..\..\liblc3\src/lc3.c ****     return LC3_PLUS && us ==  2500 ? LC3_DT_2M5 :
  53              		.loc 1 61 0 is_stmt 0
  54 001c 0320     		movs	r0, #3
  55              	.LVL1:
  56 001e 06E0     		b	.L2
  57              	.LVL2:
  58              	.L4:
  59 0020 0020     		movs	r0, #0
  60              	.LVL3:
  61 0022 04E0     		b	.L2
  62              	.LVL4:
  63              	.L5:
  64 0024 0120     		movs	r0, #1
  65              	.LVL5:
  66 0026 02E0     		b	.L2
  67              	.LVL6:
  68              	.L6:
  69 0028 0220     		movs	r0, #2
  70              	.LVL7:
  71 002a 00E0     		b	.L2
  72              	.LVL8:
  73              	.L7:
  74 002c 0420     		movs	r0, #4
  75              	.LVL9:
  76              	.L2:
  64:..\..\..\liblc3\src/lc3.c ****                        us == 10000 ? LC3_DT_10M : LC3_NUM_DT;
  65:..\..\..\liblc3\src/lc3.c **** }
  77              		.loc 1 65 0 is_stmt 1 discriminator 15
  78              		@ sp needed
  79 002e 7047     		bx	lr
  80              	.L9:
  81              		.align	2
  82              	.L8:
  83 0030 C4090000 		.word	2500
  84 0034 88130000 		.word	5000
  85 0038 4C1D0000 		.word	7500
  86 003c 10270000 		.word	10000
  87              		.cfi_endproc
  88              	.LFE20:
  89              		.size	resolve_dt, .-resolve_dt
  90              		.section	.text.resolve_srate,"ax",%progbits
  91              		.align	2
  92              		.code	16
  93              		.thumb_func
  94              		.type	resolve_srate, %function
  95              	resolve_srate:
  96              	.LFB21:
  66:..\..\..\liblc3\src/lc3.c **** 
  67:..\..\..\liblc3\src/lc3.c **** /**
  68:..\..\..\liblc3\src/lc3.c ****  * Resolve samplerate in Hz
  69:..\..\..\liblc3\src/lc3.c ****  * hz              Samplerate in Hz
  70:..\..\..\liblc3\src/lc3.c ****  * hrmode          High-resolution mode indication
  71:..\..\..\liblc3\src/lc3.c ****  * return          Sample rate identifier, or LC3_NUM_SRATE
  72:..\..\..\liblc3\src/lc3.c ****  */
  73:..\..\..\liblc3\src/lc3.c **** static enum lc3_srate resolve_srate(int hz, bool hrmode)
ARM GAS  C:\Users\rdn\AppData\Local\Temp\cco7w9JJ.s 			page 4


  74:..\..\..\liblc3\src/lc3.c **** {
  97              		.loc 1 74 0
  98              		.cfi_startproc
  99              		@ args = 0, pretend = 0, frame = 0
 100              		@ frame_needed = 0, uses_anonymous_args = 0
 101              		@ link register save eliminated.
 102              	.LVL10:
  75:..\..\..\liblc3\src/lc3.c ****     hrmode = LC3_PLUS_HR && hrmode;
  76:..\..\..\liblc3\src/lc3.c **** 
  77:..\..\..\liblc3\src/lc3.c ****     return !hrmode && hz ==  8000 ? LC3_SRATE_8K     :
 103              		.loc 1 77 0
 104 0000 0029     		cmp	r1, #0
 105 0002 03D1     		bne	.L11
 106              		.loc 1 77 0 is_stmt 0 discriminator 2
 107 0004 FA23     		movs	r3, #250
 108 0006 5B01     		lsls	r3, r3, #5
 109 0008 9842     		cmp	r0, r3
 110 000a 21D0     		beq	.L18
 111              	.L11:
 112              		.loc 1 77 0 discriminator 3
 113 000c 0029     		cmp	r1, #0
 114 000e 03D1     		bne	.L13
  78:..\..\..\liblc3\src/lc3.c ****            !hrmode && hz == 16000 ? LC3_SRATE_16K    :
 115              		.loc 1 78 0 is_stmt 1
 116 0010 FA23     		movs	r3, #250
 117 0012 9B01     		lsls	r3, r3, #6
 118 0014 9842     		cmp	r0, r3
 119 0016 1DD0     		beq	.L19
 120              	.L13:
  77:..\..\..\liblc3\src/lc3.c ****            !hrmode && hz == 16000 ? LC3_SRATE_16K    :
 121              		.loc 1 77 0 discriminator 5
 122 0018 0029     		cmp	r1, #0
 123 001a 02D1     		bne	.L14
  79:..\..\..\liblc3\src/lc3.c ****            !hrmode && hz == 24000 ? LC3_SRATE_24K    :
 124              		.loc 1 79 0
 125 001c 144B     		ldr	r3, .L26
 126 001e 9842     		cmp	r0, r3
 127 0020 1AD0     		beq	.L20
 128              	.L14:
  77:..\..\..\liblc3\src/lc3.c ****            !hrmode && hz == 16000 ? LC3_SRATE_16K    :
 129              		.loc 1 77 0 discriminator 6
 130 0022 0029     		cmp	r1, #0
 131 0024 03D1     		bne	.L15
  80:..\..\..\liblc3\src/lc3.c ****            !hrmode && hz == 32000 ? LC3_SRATE_32K    :
 132              		.loc 1 80 0
 133 0026 FA23     		movs	r3, #250
 134 0028 DB01     		lsls	r3, r3, #7
 135 002a 9842     		cmp	r0, r3
 136 002c 16D0     		beq	.L21
 137              	.L15:
  77:..\..\..\liblc3\src/lc3.c ****            !hrmode && hz == 16000 ? LC3_SRATE_16K    :
 138              		.loc 1 77 0 discriminator 7
 139 002e 0029     		cmp	r1, #0
 140 0030 02D1     		bne	.L16
  81:..\..\..\liblc3\src/lc3.c ****            !hrmode && hz == 48000 ? LC3_SRATE_48K    :
 141              		.loc 1 81 0
 142 0032 104B     		ldr	r3, .L26+4
ARM GAS  C:\Users\rdn\AppData\Local\Temp\cco7w9JJ.s 			page 5


 143 0034 9842     		cmp	r0, r3
 144 0036 13D0     		beq	.L22
 145              	.L16:
  77:..\..\..\liblc3\src/lc3.c ****            !hrmode && hz == 16000 ? LC3_SRATE_16K    :
 146              		.loc 1 77 0 discriminator 8
 147 0038 0029     		cmp	r1, #0
 148 003a 02D0     		beq	.L17
  82:..\..\..\liblc3\src/lc3.c ****             hrmode && hz == 48000 ? LC3_SRATE_48K_HR :
 149              		.loc 1 82 0
 150 003c 0D4B     		ldr	r3, .L26+4
 151 003e 9842     		cmp	r0, r3
 152 0040 10D0     		beq	.L23
 153              	.L17:
  77:..\..\..\liblc3\src/lc3.c ****            !hrmode && hz == 16000 ? LC3_SRATE_16K    :
 154              		.loc 1 77 0 discriminator 9
 155 0042 0029     		cmp	r1, #0
 156 0044 10D0     		beq	.L24
  83:..\..\..\liblc3\src/lc3.c ****             hrmode && hz == 96000 ? LC3_SRATE_96K_HR : LC3_NUM_SRATE;
 157              		.loc 1 83 0
 158 0046 0C4B     		ldr	r3, .L26+8
 159 0048 9842     		cmp	r0, r3
 160 004a 0FD0     		beq	.L25
  77:..\..\..\liblc3\src/lc3.c ****            !hrmode && hz == 16000 ? LC3_SRATE_16K    :
 161              		.loc 1 77 0
 162 004c 0720     		movs	r0, #7
 163              	.LVL11:
 164 004e 0EE0     		b	.L12
 165              	.LVL12:
 166              	.L18:
 167 0050 0020     		movs	r0, #0
 168              	.LVL13:
 169 0052 0CE0     		b	.L12
 170              	.LVL14:
 171              	.L19:
 172 0054 0120     		movs	r0, #1
 173              	.LVL15:
 174 0056 0AE0     		b	.L12
 175              	.LVL16:
 176              	.L20:
 177 0058 0220     		movs	r0, #2
 178              	.LVL17:
 179 005a 08E0     		b	.L12
 180              	.LVL18:
 181              	.L21:
 182 005c 0320     		movs	r0, #3
 183              	.LVL19:
 184 005e 06E0     		b	.L12
 185              	.LVL20:
 186              	.L22:
 187 0060 0420     		movs	r0, #4
 188              	.LVL21:
 189 0062 04E0     		b	.L12
 190              	.LVL22:
 191              	.L23:
 192 0064 0520     		movs	r0, #5
 193              	.LVL23:
 194 0066 02E0     		b	.L12
ARM GAS  C:\Users\rdn\AppData\Local\Temp\cco7w9JJ.s 			page 6


 195              	.LVL24:
 196              	.L24:
 197 0068 0720     		movs	r0, #7
 198              	.LVL25:
 199 006a 00E0     		b	.L12
 200              	.LVL26:
 201              	.L25:
 202 006c 0620     		movs	r0, #6
 203              	.LVL27:
 204              	.L12:
  84:..\..\..\liblc3\src/lc3.c **** }
 205              		.loc 1 84 0 discriminator 24
 206              		@ sp needed
 207 006e 7047     		bx	lr
 208              	.L27:
 209              		.align	2
 210              	.L26:
 211 0070 C05D0000 		.word	24000
 212 0074 80BB0000 		.word	48000
 213 0078 00770100 		.word	96000
 214              		.cfi_endproc
 215              	.LFE21:
 216              		.size	resolve_srate, .-resolve_srate
 217              		.global	__aeabi_i2f
 218              		.section	.text.load_s16,"ax",%progbits
 219              		.align	2
 220              		.code	16
 221              		.thumb_func
 222              		.type	load_s16, %function
 223              	load_s16:
 224              	.LFB32:
  85:..\..\..\liblc3\src/lc3.c **** 
  86:..\..\..\liblc3\src/lc3.c **** /**
  87:..\..\..\liblc3\src/lc3.c ****  * Return the number of PCM samples in a frame
  88:..\..\..\liblc3\src/lc3.c ****  */
  89:..\..\..\liblc3\src/lc3.c **** LC3_EXPORT int lc3_hr_frame_samples(bool hrmode, int dt_us, int sr_hz)
  90:..\..\..\liblc3\src/lc3.c **** {
  91:..\..\..\liblc3\src/lc3.c ****     enum lc3_dt dt = resolve_dt(dt_us, hrmode);
  92:..\..\..\liblc3\src/lc3.c ****     enum lc3_srate sr = resolve_srate(sr_hz, hrmode);
  93:..\..\..\liblc3\src/lc3.c **** 
  94:..\..\..\liblc3\src/lc3.c ****     if (dt >= LC3_NUM_DT || sr >= LC3_NUM_SRATE)
  95:..\..\..\liblc3\src/lc3.c ****         return -1;
  96:..\..\..\liblc3\src/lc3.c **** 
  97:..\..\..\liblc3\src/lc3.c ****     return lc3_ns(dt, sr);
  98:..\..\..\liblc3\src/lc3.c **** }
  99:..\..\..\liblc3\src/lc3.c **** 
 100:..\..\..\liblc3\src/lc3.c **** LC3_EXPORT int lc3_frame_samples(int dt_us, int sr_hz)
 101:..\..\..\liblc3\src/lc3.c **** {
 102:..\..\..\liblc3\src/lc3.c ****     return lc3_hr_frame_samples(false, dt_us, sr_hz);
 103:..\..\..\liblc3\src/lc3.c **** }
 104:..\..\..\liblc3\src/lc3.c **** 
 105:..\..\..\liblc3\src/lc3.c **** /**
 106:..\..\..\liblc3\src/lc3.c ****  * Return the size of frames or frame blocks, from bitrate
 107:..\..\..\liblc3\src/lc3.c ****  */
 108:..\..\..\liblc3\src/lc3.c **** LC3_EXPORT int lc3_hr_frame_block_bytes(
 109:..\..\..\liblc3\src/lc3.c ****     bool hrmode, int dt_us, int sr_hz, int nchannels, int bitrate)
 110:..\..\..\liblc3\src/lc3.c **** {
ARM GAS  C:\Users\rdn\AppData\Local\Temp\cco7w9JJ.s 			page 7


 111:..\..\..\liblc3\src/lc3.c ****     enum lc3_dt dt = resolve_dt(dt_us, hrmode);
 112:..\..\..\liblc3\src/lc3.c ****     enum lc3_srate sr = resolve_srate(sr_hz, hrmode);
 113:..\..\..\liblc3\src/lc3.c **** 
 114:..\..\..\liblc3\src/lc3.c ****     if (dt >= LC3_NUM_DT || sr >= LC3_NUM_SRATE
 115:..\..\..\liblc3\src/lc3.c ****             || nchannels < 1 || nchannels > 8 || bitrate < 0)
 116:..\..\..\liblc3\src/lc3.c ****         return -1;
 117:..\..\..\liblc3\src/lc3.c **** 
 118:..\..\..\liblc3\src/lc3.c ****     bitrate = LC3_CLIP(bitrate, 0, 8*LC3_HR_MAX_BITRATE);
 119:..\..\..\liblc3\src/lc3.c **** 
 120:..\..\..\liblc3\src/lc3.c ****     return LC3_CLIP((bitrate * (int)(1 + dt)) / 3200,
 121:..\..\..\liblc3\src/lc3.c ****         nchannels * lc3_min_frame_bytes(dt, sr),
 122:..\..\..\liblc3\src/lc3.c ****         nchannels * lc3_max_frame_bytes(dt, sr) );
 123:..\..\..\liblc3\src/lc3.c **** }
 124:..\..\..\liblc3\src/lc3.c **** 
 125:..\..\..\liblc3\src/lc3.c **** LC3_EXPORT int lc3_frame_bock_bytes(int dt_us, int nchannels, int bitrate)
 126:..\..\..\liblc3\src/lc3.c **** {
 127:..\..\..\liblc3\src/lc3.c ****     return lc3_hr_frame_block_bytes(false, dt_us, 8000, nchannels, bitrate);
 128:..\..\..\liblc3\src/lc3.c **** }
 129:..\..\..\liblc3\src/lc3.c **** 
 130:..\..\..\liblc3\src/lc3.c **** LC3_EXPORT int lc3_hr_frame_bytes(
 131:..\..\..\liblc3\src/lc3.c ****     bool hrmode, int dt_us, int sr_hz, int bitrate)
 132:..\..\..\liblc3\src/lc3.c **** {
 133:..\..\..\liblc3\src/lc3.c ****     return lc3_hr_frame_block_bytes(hrmode, dt_us, sr_hz, 1, bitrate);
 134:..\..\..\liblc3\src/lc3.c **** }
 135:..\..\..\liblc3\src/lc3.c **** 
 136:..\..\..\liblc3\src/lc3.c **** LC3_EXPORT int lc3_frame_bytes(int dt_us, int bitrate)
 137:..\..\..\liblc3\src/lc3.c **** {
 138:..\..\..\liblc3\src/lc3.c ****     return lc3_hr_frame_bytes(false, dt_us, 8000, bitrate);
 139:..\..\..\liblc3\src/lc3.c **** }
 140:..\..\..\liblc3\src/lc3.c **** 
 141:..\..\..\liblc3\src/lc3.c **** /**
 142:..\..\..\liblc3\src/lc3.c ****  * Resolve the bitrate, from the size of frames or frame blocks
 143:..\..\..\liblc3\src/lc3.c ****  */
 144:..\..\..\liblc3\src/lc3.c **** LC3_EXPORT int lc3_hr_resolve_bitrate(
 145:..\..\..\liblc3\src/lc3.c ****     bool hrmode, int dt_us, int sr_hz, int nbytes)
 146:..\..\..\liblc3\src/lc3.c **** {
 147:..\..\..\liblc3\src/lc3.c ****     enum lc3_dt dt = resolve_dt(dt_us, hrmode);
 148:..\..\..\liblc3\src/lc3.c ****     enum lc3_srate sr = resolve_srate(sr_hz, hrmode);
 149:..\..\..\liblc3\src/lc3.c **** 
 150:..\..\..\liblc3\src/lc3.c ****     if (dt >= LC3_NUM_DT || sr >= LC3_NUM_SRATE || nbytes < 0)
 151:..\..\..\liblc3\src/lc3.c ****         return -1;
 152:..\..\..\liblc3\src/lc3.c **** 
 153:..\..\..\liblc3\src/lc3.c ****     return LC3_MIN(((int64_t)nbytes * 3200 + dt) / (1 + dt), INT_MAX);
 154:..\..\..\liblc3\src/lc3.c **** }
 155:..\..\..\liblc3\src/lc3.c **** 
 156:..\..\..\liblc3\src/lc3.c **** LC3_EXPORT int lc3_resolve_bitrate(int dt_us, int nbytes)
 157:..\..\..\liblc3\src/lc3.c **** {
 158:..\..\..\liblc3\src/lc3.c ****     return lc3_hr_resolve_bitrate(false, dt_us, 8000, nbytes);
 159:..\..\..\liblc3\src/lc3.c **** }
 160:..\..\..\liblc3\src/lc3.c **** 
 161:..\..\..\liblc3\src/lc3.c **** /**
 162:..\..\..\liblc3\src/lc3.c ****  * Return algorithmic delay, as a number of samples
 163:..\..\..\liblc3\src/lc3.c ****  */
 164:..\..\..\liblc3\src/lc3.c **** LC3_EXPORT int lc3_hr_delay_samples(bool hrmode, int dt_us, int sr_hz)
 165:..\..\..\liblc3\src/lc3.c **** {
 166:..\..\..\liblc3\src/lc3.c ****     enum lc3_dt dt = resolve_dt(dt_us, hrmode);
 167:..\..\..\liblc3\src/lc3.c ****     enum lc3_srate sr = resolve_srate(sr_hz, hrmode);
ARM GAS  C:\Users\rdn\AppData\Local\Temp\cco7w9JJ.s 			page 8


 168:..\..\..\liblc3\src/lc3.c **** 
 169:..\..\..\liblc3\src/lc3.c ****     if (dt >= LC3_NUM_DT || sr >= LC3_NUM_SRATE)
 170:..\..\..\liblc3\src/lc3.c ****         return -1;
 171:..\..\..\liblc3\src/lc3.c **** 
 172:..\..\..\liblc3\src/lc3.c ****     return 2 * lc3_nd(dt, sr) - lc3_ns(dt, sr);
 173:..\..\..\liblc3\src/lc3.c **** }
 174:..\..\..\liblc3\src/lc3.c **** 
 175:..\..\..\liblc3\src/lc3.c **** LC3_EXPORT int lc3_delay_samples(int dt_us, int sr_hz)
 176:..\..\..\liblc3\src/lc3.c **** {
 177:..\..\..\liblc3\src/lc3.c ****     return lc3_hr_delay_samples(false, dt_us, sr_hz);
 178:..\..\..\liblc3\src/lc3.c **** }
 179:..\..\..\liblc3\src/lc3.c **** 
 180:..\..\..\liblc3\src/lc3.c **** 
 181:..\..\..\liblc3\src/lc3.c **** /* ----------------------------------------------------------------------------
 182:..\..\..\liblc3\src/lc3.c ****  *  Encoder
 183:..\..\..\liblc3\src/lc3.c ****  * -------------------------------------------------------------------------- */
 184:..\..\..\liblc3\src/lc3.c **** 
 185:..\..\..\liblc3\src/lc3.c **** /**
 186:..\..\..\liblc3\src/lc3.c ****  * Input PCM Samples from signed 16 bits
 187:..\..\..\liblc3\src/lc3.c ****  * encoder         Encoder state
 188:..\..\..\liblc3\src/lc3.c ****  * pcm, stride     Input PCM samples, and count between two consecutives
 189:..\..\..\liblc3\src/lc3.c ****  */
 190:..\..\..\liblc3\src/lc3.c **** static void load_s16(
 191:..\..\..\liblc3\src/lc3.c ****     struct lc3_encoder *encoder, const void *_pcm, int stride)
 192:..\..\..\liblc3\src/lc3.c **** {
 225              		.loc 1 192 0
 226              		.cfi_startproc
 227              		@ args = 0, pretend = 0, frame = 0
 228              		@ frame_needed = 0, uses_anonymous_args = 0
 229              	.LVL28:
 230 0000 F8B5     		push	{r3, r4, r5, r6, r7, lr}
 231              		.cfi_def_cfa_offset 24
 232              		.cfi_offset 3, -24
 233              		.cfi_offset 4, -20
 234              		.cfi_offset 5, -16
 235              		.cfi_offset 6, -12
 236              		.cfi_offset 7, -8
 237              		.cfi_offset 14, -4
 238 0002 5F46     		mov	r7, fp
 239 0004 5646     		mov	r6, r10
 240 0006 4D46     		mov	r5, r9
 241 0008 4446     		mov	r4, r8
 242 000a F0B4     		push	{r4, r5, r6, r7}
 243              		.cfi_def_cfa_offset 40
 244              		.cfi_offset 8, -40
 245              		.cfi_offset 9, -36
 246              		.cfi_offset 10, -32
 247              		.cfi_offset 11, -28
 248 000c 0E00     		movs	r6, r1
 249 000e 9346     		mov	fp, r2
 250              	.LVL29:
 193:..\..\..\liblc3\src/lc3.c ****     const int16_t *pcm = _pcm;
 194:..\..\..\liblc3\src/lc3.c **** 
 195:..\..\..\liblc3\src/lc3.c ****     enum lc3_dt dt = encoder->dt;
 251              		.loc 1 195 0
 252 0010 0378     		ldrb	r3, [r0]
 253              	.LVL30:
ARM GAS  C:\Users\rdn\AppData\Local\Temp\cco7w9JJ.s 			page 9


 196:..\..\..\liblc3\src/lc3.c ****     enum lc3_srate sr = encoder->sr_pcm;
 254              		.loc 1 196 0
 255 0012 8278     		ldrb	r2, [r0, #2]
 256              	.LVL31:
 197:..\..\..\liblc3\src/lc3.c **** 
 198:..\..\..\liblc3\src/lc3.c ****     int16_t *xt = (int16_t *)encoder->x + encoder->xt_off;
 257              		.loc 1 198 0
 258 0014 1549     		ldr	r1, .L31
 259              	.LVL32:
 260 0016 4718     		adds	r7, r0, r1
 261 0018 0C39     		subs	r1, r1, #12
 262 001a 4158     		ldr	r1, [r0, r1]
 263 001c 4900     		lsls	r1, r1, #1
 264 001e 8A46     		mov	r10, r1
 265              	.LVL33:
 199:..\..\..\liblc3\src/lc3.c ****     float *xs = encoder->x + encoder->xs_off;
 266              		.loc 1 199 0
 267 0020 1349     		ldr	r1, .L31+4
 268              	.LVL34:
 269 0022 4158     		ldr	r1, [r0, r1]
 270 0024 8900     		lsls	r1, r1, #2
 271 0026 8946     		mov	r9, r1
 272              	.LVL35:
 273              	.LBB111:
 274              	.LBB112:
 275              		.file 2 "..\\..\\..\\liblc3\\src\\tables.h"
   1:..\..\..\liblc3\src/tables.h **** /******************************************************************************
   2:..\..\..\liblc3\src/tables.h ****  *
   3:..\..\..\liblc3\src/tables.h ****  *  Copyright 2022 Google LLC
   4:..\..\..\liblc3\src/tables.h ****  *
   5:..\..\..\liblc3\src/tables.h ****  *  Licensed under the Apache License, Version 2.0 (the "License");
   6:..\..\..\liblc3\src/tables.h ****  *  you may not use this file except in compliance with the License.
   7:..\..\..\liblc3\src/tables.h ****  *  You may obtain a copy of the License at:
   8:..\..\..\liblc3\src/tables.h ****  *
   9:..\..\..\liblc3\src/tables.h ****  *  http://www.apache.org/licenses/LICENSE-2.0
  10:..\..\..\liblc3\src/tables.h ****  *
  11:..\..\..\liblc3\src/tables.h ****  *  Unless required by applicable law or agreed to in writing, software
  12:..\..\..\liblc3\src/tables.h ****  *  distributed under the License is distributed on an "AS IS" BASIS,
  13:..\..\..\liblc3\src/tables.h ****  *  WITHOUT WARRANTIES OR CONDITIONS OF ANY KIND, either express or implied.
  14:..\..\..\liblc3\src/tables.h ****  *  See the License for the specific language governing permissions and
  15:..\..\..\liblc3\src/tables.h ****  *  limitations under the License.
  16:..\..\..\liblc3\src/tables.h ****  *
  17:..\..\..\liblc3\src/tables.h ****  ******************************************************************************/
  18:..\..\..\liblc3\src/tables.h **** 
  19:..\..\..\liblc3\src/tables.h **** #ifndef __LC3_TABLES_H
  20:..\..\..\liblc3\src/tables.h **** #define __LC3_TABLES_H
  21:..\..\..\liblc3\src/tables.h **** 
  22:..\..\..\liblc3\src/tables.h **** #include "common.h"
  23:..\..\..\liblc3\src/tables.h **** #include "bits.h"
  24:..\..\..\liblc3\src/tables.h **** 
  25:..\..\..\liblc3\src/tables.h **** 
  26:..\..\..\liblc3\src/tables.h **** /**
  27:..\..\..\liblc3\src/tables.h ****  * Characteristics
  28:..\..\..\liblc3\src/tables.h ****  *
  29:..\..\..\liblc3\src/tables.h ****  *   ns   Number of temporal samples / frequency coefficients within a frame
  30:..\..\..\liblc3\src/tables.h ****  *
  31:..\..\..\liblc3\src/tables.h ****  *   ne   Number of encoded frequency coefficients
ARM GAS  C:\Users\rdn\AppData\Local\Temp\cco7w9JJ.s 			page 10


  32:..\..\..\liblc3\src/tables.h ****  *
  33:..\..\..\liblc3\src/tables.h ****  *   nd   Number of MDCT delayed samples, sum of half a frame and an ovelap
  34:..\..\..\liblc3\src/tables.h ****  *        of future by 1.25 ms (2.5ms, 5ms and 10ms frame durations),
  35:..\..\..\liblc3\src/tables.h ****  *        or 2 ms (7.5ms frame duration).
  36:..\..\..\liblc3\src/tables.h ****  *
  37:..\..\..\liblc3\src/tables.h ****  *   nh   Number of 18 ms samples of the history buffer, aligned on a frame
  38:..\..\..\liblc3\src/tables.h ****  *
  39:..\..\..\liblc3\src/tables.h ****  *   nt   Number of 1.25 ms previous samples
  40:..\..\..\liblc3\src/tables.h ****  */
  41:..\..\..\liblc3\src/tables.h **** 
  42:..\..\..\liblc3\src/tables.h **** extern const int lc3_ns_2m5[LC3_NUM_SRATE];
  43:..\..\..\liblc3\src/tables.h **** extern const int lc3_ne_2m5[LC3_NUM_SRATE];
  44:..\..\..\liblc3\src/tables.h **** extern const int lc3_ns_4m [LC3_NUM_SRATE];
  45:..\..\..\liblc3\src/tables.h **** 
  46:..\..\..\liblc3\src/tables.h **** static inline int lc3_ns(enum lc3_dt dt, enum lc3_srate sr) {
  47:..\..\..\liblc3\src/tables.h ****     return lc3_ns_2m5[sr] * (1 + dt);
 276              		.loc 2 47 0
 277 0028 9200     		lsls	r2, r2, #2
 278              	.LVL36:
 279 002a 1249     		ldr	r1, .L31+8
 280              	.LVL37:
 281 002c 5258     		ldr	r2, [r2, r1]
 282 002e 0133     		adds	r3, r3, #1
 283              	.LVL38:
 284 0030 5343     		muls	r3, r2
 285              	.LVL39:
 286 0032 9846     		mov	r8, r3
 287              	.LVL40:
 288              	.LBE112:
 289              	.LBE111:
 290              	.LBB113:
 200:..\..\..\liblc3\src/lc3.c ****     int ns = lc3_ns(dt, sr);
 201:..\..\..\liblc3\src/lc3.c **** 
 202:..\..\..\liblc3\src/lc3.c ****     for (int i = 0; i < ns; i++, pcm += stride)
 291              		.loc 1 202 0
 292 0034 0025     		movs	r5, #0
 293 0036 10E0     		b	.L29
 294              	.LVL41:
 295              	.L30:
 203:..\..\..\liblc3\src/lc3.c ****         xt[i] = *pcm, xs[i] = *pcm;
 296              		.loc 1 203 0 discriminator 3
 297 0038 6B00     		lsls	r3, r5, #1
 298 003a 5344     		add	r3, r3, r10
 299 003c 0021     		movs	r1, #0
 300 003e 725E     		ldrsh	r2, [r6, r1]
 301 0040 FA52     		strh	r2, [r7, r3]
 302 0042 AC00     		lsls	r4, r5, #2
 303 0044 4C44     		add	r4, r4, r9
 304 0046 3C19     		adds	r4, r7, r4
 305 0048 0023     		movs	r3, #0
 306 004a F05E     		ldrsh	r0, [r6, r3]
 307 004c FFF7FEFF 		bl	__aeabi_i2f
 308              	.LVL42:
 309 0050 2060     		str	r0, [r4]
 202:..\..\..\liblc3\src/lc3.c ****         xt[i] = *pcm, xs[i] = *pcm;
 310              		.loc 1 202 0 discriminator 3
 311 0052 0135     		adds	r5, r5, #1
ARM GAS  C:\Users\rdn\AppData\Local\Temp\cco7w9JJ.s 			page 11


 312              	.LVL43:
 313 0054 5B46     		mov	r3, fp
 314 0056 5B00     		lsls	r3, r3, #1
 315 0058 F618     		adds	r6, r6, r3
 316              	.LVL44:
 317              	.L29:
 202:..\..\..\liblc3\src/lc3.c ****         xt[i] = *pcm, xs[i] = *pcm;
 318              		.loc 1 202 0 is_stmt 0 discriminator 1
 319 005a 4545     		cmp	r5, r8
 320 005c ECDB     		blt	.L30
 321              	.LBE113:
 204:..\..\..\liblc3\src/lc3.c **** }
 322              		.loc 1 204 0 is_stmt 1
 323              		@ sp needed
 324              	.LVL45:
 325              	.LVL46:
 326              	.LVL47:
 327              	.LVL48:
 328              	.LVL49:
 329              	.LVL50:
 330 005e 3CBC     		pop	{r2, r3, r4, r5}
 331 0060 9046     		mov	r8, r2
 332 0062 9946     		mov	r9, r3
 333 0064 A246     		mov	r10, r4
 334 0066 AB46     		mov	fp, r5
 335 0068 F8BD     		pop	{r3, r4, r5, r6, r7, pc}
 336              	.L32:
 337 006a C046     		.align	2
 338              	.L31:
 339 006c AC040000 		.word	1196
 340 0070 A4040000 		.word	1188
 341 0074 00000000 		.word	lc3_ns_2m5
 342              		.cfi_endproc
 343              	.LFE32:
 344              		.size	load_s16, .-load_s16
 345              		.section	.text.load_s24,"ax",%progbits
 346              		.align	2
 347              		.code	16
 348              		.thumb_func
 349              		.type	load_s24, %function
 350              	load_s24:
 351              	.LFB33:
 205:..\..\..\liblc3\src/lc3.c **** 
 206:..\..\..\liblc3\src/lc3.c **** /**
 207:..\..\..\liblc3\src/lc3.c ****  * Input PCM Samples from signed 24 bits
 208:..\..\..\liblc3\src/lc3.c ****  * encoder         Encoder state
 209:..\..\..\liblc3\src/lc3.c ****  * pcm, stride     Input PCM samples, and count between two consecutives
 210:..\..\..\liblc3\src/lc3.c ****  */
 211:..\..\..\liblc3\src/lc3.c **** static void load_s24(
 212:..\..\..\liblc3\src/lc3.c ****     struct lc3_encoder *encoder, const void *_pcm, int stride)
 213:..\..\..\liblc3\src/lc3.c **** {
 352              		.loc 1 213 0
 353              		.cfi_startproc
 354              		@ args = 0, pretend = 0, frame = 0
 355              		@ frame_needed = 0, uses_anonymous_args = 0
 356              	.LVL51:
 357 0000 F8B5     		push	{r3, r4, r5, r6, r7, lr}
ARM GAS  C:\Users\rdn\AppData\Local\Temp\cco7w9JJ.s 			page 12


 358              		.cfi_def_cfa_offset 24
 359              		.cfi_offset 3, -24
 360              		.cfi_offset 4, -20
 361              		.cfi_offset 5, -16
 362              		.cfi_offset 6, -12
 363              		.cfi_offset 7, -8
 364              		.cfi_offset 14, -4
 365 0002 5F46     		mov	r7, fp
 366 0004 5646     		mov	r6, r10
 367 0006 4D46     		mov	r5, r9
 368 0008 4446     		mov	r4, r8
 369 000a F0B4     		push	{r4, r5, r6, r7}
 370              		.cfi_def_cfa_offset 40
 371              		.cfi_offset 8, -40
 372              		.cfi_offset 9, -36
 373              		.cfi_offset 10, -32
 374              		.cfi_offset 11, -28
 375 000c 0E00     		movs	r6, r1
 376 000e 9346     		mov	fp, r2
 377              	.LVL52:
 214:..\..\..\liblc3\src/lc3.c ****     const int32_t *pcm = _pcm;
 215:..\..\..\liblc3\src/lc3.c **** 
 216:..\..\..\liblc3\src/lc3.c ****     enum lc3_dt dt = encoder->dt;
 378              		.loc 1 216 0
 379 0010 0378     		ldrb	r3, [r0]
 380              	.LVL53:
 217:..\..\..\liblc3\src/lc3.c ****     enum lc3_srate sr = encoder->sr_pcm;
 381              		.loc 1 217 0
 382 0012 8278     		ldrb	r2, [r0, #2]
 383              	.LVL54:
 218:..\..\..\liblc3\src/lc3.c **** 
 219:..\..\..\liblc3\src/lc3.c ****     int16_t *xt = (int16_t *)encoder->x + encoder->xt_off;
 384              		.loc 1 219 0
 385 0014 1849     		ldr	r1, .L37
 386              	.LVL55:
 387 0016 4718     		adds	r7, r0, r1
 388 0018 0C39     		subs	r1, r1, #12
 389 001a 4158     		ldr	r1, [r0, r1]
 390 001c 4900     		lsls	r1, r1, #1
 391 001e 8A46     		mov	r10, r1
 392              	.LVL56:
 220:..\..\..\liblc3\src/lc3.c ****     float *xs = encoder->x + encoder->xs_off;
 393              		.loc 1 220 0
 394 0020 1649     		ldr	r1, .L37+4
 395              	.LVL57:
 396 0022 4158     		ldr	r1, [r0, r1]
 397 0024 8900     		lsls	r1, r1, #2
 398 0026 8946     		mov	r9, r1
 399              	.LVL58:
 400              	.LBB114:
 401              	.LBB115:
 402              		.loc 2 47 0
 403 0028 9200     		lsls	r2, r2, #2
 404              	.LVL59:
 405 002a 1549     		ldr	r1, .L37+8
 406              	.LVL60:
 407 002c 5258     		ldr	r2, [r2, r1]
ARM GAS  C:\Users\rdn\AppData\Local\Temp\cco7w9JJ.s 			page 13


 408 002e 0133     		adds	r3, r3, #1
 409              	.LVL61:
 410 0030 5343     		muls	r3, r2
 411              	.LVL62:
 412 0032 9846     		mov	r8, r3
 413              	.LVL63:
 414              	.LBE115:
 415              	.LBE114:
 416              	.LBB116:
 221:..\..\..\liblc3\src/lc3.c ****     int ns = lc3_ns(dt, sr);
 222:..\..\..\liblc3\src/lc3.c **** 
 223:..\..\..\liblc3\src/lc3.c ****     for (int i = 0; i < ns; i++, pcm += stride) {
 417              		.loc 1 223 0
 418 0034 0025     		movs	r5, #0
 419 0036 17E0     		b	.L34
 420              	.LVL64:
 421              	.L36:
 224:..\..\..\liblc3\src/lc3.c ****         xt[i] = *pcm >> 8;
 422              		.loc 1 224 0 discriminator 3
 423 0038 6B00     		lsls	r3, r5, #1
 424 003a 5344     		add	r3, r3, r10
 425 003c 3268     		ldr	r2, [r6]
 426 003e 1212     		asrs	r2, r2, #8
 427 0040 FA52     		strh	r2, [r7, r3]
 225:..\..\..\liblc3\src/lc3.c ****         xs[i] = lc3_ldexpf(*pcm, -8);
 428              		.loc 1 225 0 discriminator 3
 429 0042 AC00     		lsls	r4, r5, #2
 430 0044 4C44     		add	r4, r4, r9
 431 0046 3C19     		adds	r4, r7, r4
 432 0048 3068     		ldr	r0, [r6]
 433 004a FFF7FEFF 		bl	__aeabi_i2f
 434              	.LVL65:
 435              	.LBB117:
 436              	.LBB118:
 437              		.file 3 "..\\..\\..\\liblc3\\src\\fastmath.h"
   1:..\..\..\liblc3\src/fastmath.h **** /******************************************************************************
   2:..\..\..\liblc3\src/fastmath.h ****  *
   3:..\..\..\liblc3\src/fastmath.h ****  *  Copyright 2022 Google LLC
   4:..\..\..\liblc3\src/fastmath.h ****  *
   5:..\..\..\liblc3\src/fastmath.h ****  *  Licensed under the Apache License, Version 2.0 (the "License");
   6:..\..\..\liblc3\src/fastmath.h ****  *  you may not use this file except in compliance with the License.
   7:..\..\..\liblc3\src/fastmath.h ****  *  You may obtain a copy of the License at:
   8:..\..\..\liblc3\src/fastmath.h ****  *
   9:..\..\..\liblc3\src/fastmath.h ****  *  http://www.apache.org/licenses/LICENSE-2.0
  10:..\..\..\liblc3\src/fastmath.h ****  *
  11:..\..\..\liblc3\src/fastmath.h ****  *  Unless required by applicable law or agreed to in writing, software
  12:..\..\..\liblc3\src/fastmath.h ****  *  distributed under the License is distributed on an "AS IS" BASIS,
  13:..\..\..\liblc3\src/fastmath.h ****  *  WITHOUT WARRANTIES OR CONDITIONS OF ANY KIND, either express or implied.
  14:..\..\..\liblc3\src/fastmath.h ****  *  See the License for the specific language governing permissions and
  15:..\..\..\liblc3\src/fastmath.h ****  *  limitations under the License.
  16:..\..\..\liblc3\src/fastmath.h ****  *
  17:..\..\..\liblc3\src/fastmath.h ****  ******************************************************************************/
  18:..\..\..\liblc3\src/fastmath.h **** 
  19:..\..\..\liblc3\src/fastmath.h **** #ifndef __LC3_FASTMATH_H
  20:..\..\..\liblc3\src/fastmath.h **** #define __LC3_FASTMATH_H
  21:..\..\..\liblc3\src/fastmath.h **** 
  22:..\..\..\liblc3\src/fastmath.h **** #include <stdint.h>
ARM GAS  C:\Users\rdn\AppData\Local\Temp\cco7w9JJ.s 			page 14


  23:..\..\..\liblc3\src/fastmath.h **** #include <math.h>
  24:..\..\..\liblc3\src/fastmath.h **** 
  25:..\..\..\liblc3\src/fastmath.h **** 
  26:..\..\..\liblc3\src/fastmath.h **** /**
  27:..\..\..\liblc3\src/fastmath.h ****  * IEEE 754 Floating point representation
  28:..\..\..\liblc3\src/fastmath.h ****  */
  29:..\..\..\liblc3\src/fastmath.h **** 
  30:..\..\..\liblc3\src/fastmath.h **** #define LC3_IEEE754_SIGN_SHL   (31)
  31:..\..\..\liblc3\src/fastmath.h **** #define LC3_IEEE754_SIGN_MASK  (1 << LC3_IEEE754_SIGN_SHL)
  32:..\..\..\liblc3\src/fastmath.h **** 
  33:..\..\..\liblc3\src/fastmath.h **** #define LC3_IEEE754_EXP_SHL    (23)
  34:..\..\..\liblc3\src/fastmath.h **** #define LC3_IEEE754_EXP_MASK   (0xff << LC3_IEEE754_EXP_SHL)
  35:..\..\..\liblc3\src/fastmath.h **** #define LC3_IEEE754_EXP_BIAS   (127)
  36:..\..\..\liblc3\src/fastmath.h **** 
  37:..\..\..\liblc3\src/fastmath.h **** 
  38:..\..\..\liblc3\src/fastmath.h **** /**
  39:..\..\..\liblc3\src/fastmath.h ****  * Fast multiply floating-point number by integral power of 2
  40:..\..\..\liblc3\src/fastmath.h ****  * x               Operand, finite number
  41:..\..\..\liblc3\src/fastmath.h ****  * exp             Exponent such that 2^x is finite
  42:..\..\..\liblc3\src/fastmath.h ****  * return          2^exp
  43:..\..\..\liblc3\src/fastmath.h ****  */
  44:..\..\..\liblc3\src/fastmath.h **** static inline float lc3_ldexpf(float _x, int exp) {
  45:..\..\..\liblc3\src/fastmath.h ****     union { float f; int32_t s; } x = { .f = _x };
 438              		.loc 3 45 0 discriminator 3
 439 004e 0300     		movs	r3, r0
 440              	.LVL66:
  46:..\..\..\liblc3\src/fastmath.h **** 
  47:..\..\..\liblc3\src/fastmath.h ****     if (x.s & LC3_IEEE754_EXP_MASK)
 441              		.loc 3 47 0 discriminator 3
 442 0050 FF22     		movs	r2, #255
 443 0052 D205     		lsls	r2, r2, #23
 444 0054 0242     		tst	r2, r0
 445 0056 02D0     		beq	.L35
  48:..\..\..\liblc3\src/fastmath.h ****         x.s += exp << LC3_IEEE754_EXP_SHL;
 446              		.loc 3 48 0
 447 0058 FC23     		movs	r3, #252
 448 005a 1B06     		lsls	r3, r3, #24
 449 005c C318     		adds	r3, r0, r3
 450              	.L35:
 451              	.LVL67:
 452              	.LBE118:
 453              	.LBE117:
 454              		.loc 1 225 0
 455 005e 2360     		str	r3, [r4]
 223:..\..\..\liblc3\src/lc3.c ****         xt[i] = *pcm >> 8;
 456              		.loc 1 223 0
 457 0060 0135     		adds	r5, r5, #1
 458              	.LVL68:
 459 0062 5B46     		mov	r3, fp
 460 0064 9B00     		lsls	r3, r3, #2
 461 0066 F618     		adds	r6, r6, r3
 462              	.LVL69:
 463              	.L34:
 223:..\..\..\liblc3\src/lc3.c ****         xt[i] = *pcm >> 8;
 464              		.loc 1 223 0 is_stmt 0 discriminator 1
 465 0068 4545     		cmp	r5, r8
 466 006a E5DB     		blt	.L36
ARM GAS  C:\Users\rdn\AppData\Local\Temp\cco7w9JJ.s 			page 15


 467              	.LBE116:
 226:..\..\..\liblc3\src/lc3.c ****     }
 227:..\..\..\liblc3\src/lc3.c **** }
 468              		.loc 1 227 0 is_stmt 1
 469              		@ sp needed
 470              	.LVL70:
 471              	.LVL71:
 472              	.LVL72:
 473              	.LVL73:
 474              	.LVL74:
 475              	.LVL75:
 476 006c 3CBC     		pop	{r2, r3, r4, r5}
 477 006e 9046     		mov	r8, r2
 478 0070 9946     		mov	r9, r3
 479 0072 A246     		mov	r10, r4
 480 0074 AB46     		mov	fp, r5
 481 0076 F8BD     		pop	{r3, r4, r5, r6, r7, pc}
 482              	.L38:
 483              		.align	2
 484              	.L37:
 485 0078 AC040000 		.word	1196
 486 007c A4040000 		.word	1188
 487 0080 00000000 		.word	lc3_ns_2m5
 488              		.cfi_endproc
 489              	.LFE33:
 490              		.size	load_s24, .-load_s24
 491              		.section	.text.load_s24_3le,"ax",%progbits
 492              		.align	2
 493              		.code	16
 494              		.thumb_func
 495              		.type	load_s24_3le, %function
 496              	load_s24_3le:
 497              	.LFB34:
 228:..\..\..\liblc3\src/lc3.c **** 
 229:..\..\..\liblc3\src/lc3.c **** /**
 230:..\..\..\liblc3\src/lc3.c ****  * Input PCM Samples from signed 24 bits packed
 231:..\..\..\liblc3\src/lc3.c ****  * encoder         Encoder state
 232:..\..\..\liblc3\src/lc3.c ****  * pcm, stride     Input PCM samples, and count between two consecutives
 233:..\..\..\liblc3\src/lc3.c ****  */
 234:..\..\..\liblc3\src/lc3.c **** static void load_s24_3le(
 235:..\..\..\liblc3\src/lc3.c ****     struct lc3_encoder *encoder, const void *_pcm, int stride)
 236:..\..\..\liblc3\src/lc3.c **** {
 498              		.loc 1 236 0
 499              		.cfi_startproc
 500              		@ args = 0, pretend = 0, frame = 0
 501              		@ frame_needed = 0, uses_anonymous_args = 0
 502              	.LVL76:
 503 0000 F8B5     		push	{r3, r4, r5, r6, r7, lr}
 504              		.cfi_def_cfa_offset 24
 505              		.cfi_offset 3, -24
 506              		.cfi_offset 4, -20
 507              		.cfi_offset 5, -16
 508              		.cfi_offset 6, -12
 509              		.cfi_offset 7, -8
 510              		.cfi_offset 14, -4
 511 0002 5F46     		mov	r7, fp
 512 0004 5646     		mov	r6, r10
ARM GAS  C:\Users\rdn\AppData\Local\Temp\cco7w9JJ.s 			page 16


 513 0006 4D46     		mov	r5, r9
 514 0008 4446     		mov	r4, r8
 515 000a F0B4     		push	{r4, r5, r6, r7}
 516              		.cfi_def_cfa_offset 40
 517              		.cfi_offset 8, -40
 518              		.cfi_offset 9, -36
 519              		.cfi_offset 10, -32
 520              		.cfi_offset 11, -28
 521 000c 0E00     		movs	r6, r1
 522 000e 9046     		mov	r8, r2
 523              	.LVL77:
 237:..\..\..\liblc3\src/lc3.c ****     const uint8_t *pcm = _pcm;
 238:..\..\..\liblc3\src/lc3.c **** 
 239:..\..\..\liblc3\src/lc3.c ****     enum lc3_dt dt = encoder->dt;
 524              		.loc 1 239 0
 525 0010 0378     		ldrb	r3, [r0]
 526              	.LVL78:
 240:..\..\..\liblc3\src/lc3.c ****     enum lc3_srate sr = encoder->sr_pcm;
 527              		.loc 1 240 0
 528 0012 8278     		ldrb	r2, [r0, #2]
 529              	.LVL79:
 241:..\..\..\liblc3\src/lc3.c **** 
 242:..\..\..\liblc3\src/lc3.c ****     int16_t *xt = (int16_t *)encoder->x + encoder->xt_off;
 530              		.loc 1 242 0
 531 0014 1C49     		ldr	r1, .L43
 532              	.LVL80:
 533 0016 4718     		adds	r7, r0, r1
 534 0018 0C39     		subs	r1, r1, #12
 535 001a 4158     		ldr	r1, [r0, r1]
 536 001c 4900     		lsls	r1, r1, #1
 537 001e 8B46     		mov	fp, r1
 538              	.LVL81:
 243:..\..\..\liblc3\src/lc3.c ****     float *xs = encoder->x + encoder->xs_off;
 539              		.loc 1 243 0
 540 0020 1A49     		ldr	r1, .L43+4
 541              	.LVL82:
 542 0022 4158     		ldr	r1, [r0, r1]
 543 0024 8900     		lsls	r1, r1, #2
 544 0026 8A46     		mov	r10, r1
 545              	.LVL83:
 546              	.LBB119:
 547              	.LBB120:
 548              		.loc 2 47 0
 549 0028 9200     		lsls	r2, r2, #2
 550              	.LVL84:
 551 002a 1949     		ldr	r1, .L43+8
 552              	.LVL85:
 553 002c 5258     		ldr	r2, [r2, r1]
 554 002e 0133     		adds	r3, r3, #1
 555              	.LVL86:
 556 0030 5343     		muls	r3, r2
 557              	.LVL87:
 558 0032 9946     		mov	r9, r3
 559              	.LVL88:
 560              	.LBE120:
 561              	.LBE119:
 562              	.LBB121:
ARM GAS  C:\Users\rdn\AppData\Local\Temp\cco7w9JJ.s 			page 17


 244:..\..\..\liblc3\src/lc3.c ****     int ns = lc3_ns(dt, sr);
 245:..\..\..\liblc3\src/lc3.c **** 
 246:..\..\..\liblc3\src/lc3.c ****     for (int i = 0; i < ns; i++, pcm += 3*stride) {
 563              		.loc 1 246 0
 564 0034 0025     		movs	r5, #0
 565 0036 1EE0     		b	.L40
 566              	.LVL89:
 567              	.L42:
 568              	.LBB122:
 247:..\..\..\liblc3\src/lc3.c ****         int32_t in = ((uint32_t)pcm[0] <<  8) |
 569              		.loc 1 247 0 discriminator 3
 570 0038 3078     		ldrb	r0, [r6]
 571 003a 0002     		lsls	r0, r0, #8
 248:..\..\..\liblc3\src/lc3.c ****                      ((uint32_t)pcm[1] << 16) |
 572              		.loc 1 248 0 discriminator 3
 573 003c 7378     		ldrb	r3, [r6, #1]
 574 003e 1B04     		lsls	r3, r3, #16
 247:..\..\..\liblc3\src/lc3.c ****         int32_t in = ((uint32_t)pcm[0] <<  8) |
 575              		.loc 1 247 0 discriminator 3
 576 0040 0343     		orrs	r3, r0
 249:..\..\..\liblc3\src/lc3.c ****                      ((uint32_t)pcm[2] << 24)  ;
 577              		.loc 1 249 0 discriminator 3
 578 0042 B078     		ldrb	r0, [r6, #2]
 579 0044 0006     		lsls	r0, r0, #24
 248:..\..\..\liblc3\src/lc3.c ****                      ((uint32_t)pcm[1] << 16) |
 580              		.loc 1 248 0 discriminator 3
 581 0046 1843     		orrs	r0, r3
 582              	.LVL90:
 250:..\..\..\liblc3\src/lc3.c **** 
 251:..\..\..\liblc3\src/lc3.c ****         xt[i] = in >> 16;
 583              		.loc 1 251 0 discriminator 3
 584 0048 6B00     		lsls	r3, r5, #1
 585 004a 5B44     		add	r3, r3, fp
 586 004c 0214     		asrs	r2, r0, #16
 587 004e FA52     		strh	r2, [r7, r3]
 252:..\..\..\liblc3\src/lc3.c ****         xs[i] = lc3_ldexpf(in, -16);
 588              		.loc 1 252 0 discriminator 3
 589 0050 AC00     		lsls	r4, r5, #2
 590 0052 5444     		add	r4, r4, r10
 591 0054 3C19     		adds	r4, r7, r4
 592 0056 FFF7FEFF 		bl	__aeabi_i2f
 593              	.LVL91:
 594              	.LBB123:
 595              	.LBB124:
  45:..\..\..\liblc3\src/fastmath.h **** 
 596              		.loc 3 45 0 discriminator 3
 597 005a 0300     		movs	r3, r0
 598              	.LVL92:
  47:..\..\..\liblc3\src/fastmath.h ****         x.s += exp << LC3_IEEE754_EXP_SHL;
 599              		.loc 3 47 0 discriminator 3
 600 005c FF22     		movs	r2, #255
 601 005e D205     		lsls	r2, r2, #23
 602 0060 0242     		tst	r2, r0
 603 0062 02D0     		beq	.L41
 604              		.loc 3 48 0
 605 0064 F823     		movs	r3, #248
 606 0066 1B06     		lsls	r3, r3, #24
ARM GAS  C:\Users\rdn\AppData\Local\Temp\cco7w9JJ.s 			page 18


 607 0068 C318     		adds	r3, r0, r3
 608              	.L41:
 609              	.LVL93:
 610              	.LBE124:
 611              	.LBE123:
 612              		.loc 1 252 0
 613 006a 2360     		str	r3, [r4]
 614              	.LBE122:
 246:..\..\..\liblc3\src/lc3.c ****         int32_t in = ((uint32_t)pcm[0] <<  8) |
 615              		.loc 1 246 0
 616 006c 0135     		adds	r5, r5, #1
 617              	.LVL94:
 618 006e 4346     		mov	r3, r8
 619 0070 5B00     		lsls	r3, r3, #1
 620 0072 4344     		add	r3, r3, r8
 621 0074 F618     		adds	r6, r6, r3
 622              	.LVL95:
 623              	.L40:
 246:..\..\..\liblc3\src/lc3.c ****         int32_t in = ((uint32_t)pcm[0] <<  8) |
 624              		.loc 1 246 0 is_stmt 0 discriminator 1
 625 0076 4D45     		cmp	r5, r9
 626 0078 DEDB     		blt	.L42
 627              	.LBE121:
 253:..\..\..\liblc3\src/lc3.c ****     }
 254:..\..\..\liblc3\src/lc3.c **** }
 628              		.loc 1 254 0 is_stmt 1
 629              		@ sp needed
 630              	.LVL96:
 631              	.LVL97:
 632              	.LVL98:
 633              	.LVL99:
 634              	.LVL100:
 635              	.LVL101:
 636 007a 3CBC     		pop	{r2, r3, r4, r5}
 637 007c 9046     		mov	r8, r2
 638 007e 9946     		mov	r9, r3
 639 0080 A246     		mov	r10, r4
 640 0082 AB46     		mov	fp, r5
 641 0084 F8BD     		pop	{r3, r4, r5, r6, r7, pc}
 642              	.L44:
 643 0086 C046     		.align	2
 644              	.L43:
 645 0088 AC040000 		.word	1196
 646 008c A4040000 		.word	1188
 647 0090 00000000 		.word	lc3_ns_2m5
 648              		.cfi_endproc
 649              	.LFE34:
 650              		.size	load_s24_3le, .-load_s24_3le
 651              		.global	__aeabi_f2iz
 652              		.section	.text.load_float,"ax",%progbits
 653              		.align	2
 654              		.code	16
 655              		.thumb_func
 656              		.type	load_float, %function
 657              	load_float:
 658              	.LFB35:
 255:..\..\..\liblc3\src/lc3.c **** 
ARM GAS  C:\Users\rdn\AppData\Local\Temp\cco7w9JJ.s 			page 19


 256:..\..\..\liblc3\src/lc3.c **** /**
 257:..\..\..\liblc3\src/lc3.c ****  * Input PCM Samples from float 32 bits
 258:..\..\..\liblc3\src/lc3.c ****  * encoder         Encoder state
 259:..\..\..\liblc3\src/lc3.c ****  * pcm, stride     Input PCM samples, and count between two consecutives
 260:..\..\..\liblc3\src/lc3.c ****  */
 261:..\..\..\liblc3\src/lc3.c **** static void load_float(
 262:..\..\..\liblc3\src/lc3.c ****     struct lc3_encoder *encoder, const void *_pcm, int stride)
 263:..\..\..\liblc3\src/lc3.c **** {
 659              		.loc 1 263 0
 660              		.cfi_startproc
 661              		@ args = 0, pretend = 0, frame = 0
 662              		@ frame_needed = 0, uses_anonymous_args = 0
 663              	.LVL102:
 664 0000 F8B5     		push	{r3, r4, r5, r6, r7, lr}
 665              		.cfi_def_cfa_offset 24
 666              		.cfi_offset 3, -24
 667              		.cfi_offset 4, -20
 668              		.cfi_offset 5, -16
 669              		.cfi_offset 6, -12
 670              		.cfi_offset 7, -8
 671              		.cfi_offset 14, -4
 672 0002 5F46     		mov	r7, fp
 673 0004 5646     		mov	r6, r10
 674 0006 4D46     		mov	r5, r9
 675 0008 4446     		mov	r4, r8
 676 000a F0B4     		push	{r4, r5, r6, r7}
 677              		.cfi_def_cfa_offset 40
 678              		.cfi_offset 8, -40
 679              		.cfi_offset 9, -36
 680              		.cfi_offset 10, -32
 681              		.cfi_offset 11, -28
 682 000c 0E00     		movs	r6, r1
 683 000e 9346     		mov	fp, r2
 684              	.LVL103:
 264:..\..\..\liblc3\src/lc3.c ****     const float *pcm = _pcm;
 265:..\..\..\liblc3\src/lc3.c **** 
 266:..\..\..\liblc3\src/lc3.c ****     enum lc3_dt dt = encoder->dt;
 685              		.loc 1 266 0
 686 0010 0778     		ldrb	r7, [r0]
 687              	.LVL104:
 267:..\..\..\liblc3\src/lc3.c ****     enum lc3_srate sr = encoder->sr_pcm;
 688              		.loc 1 267 0
 689 0012 8378     		ldrb	r3, [r0, #2]
 690              	.LVL105:
 268:..\..\..\liblc3\src/lc3.c **** 
 269:..\..\..\liblc3\src/lc3.c ****     int16_t *xt = (int16_t *)encoder->x + encoder->xt_off;
 691              		.loc 1 269 0
 692 0014 1D4A     		ldr	r2, .L52
 693              	.LVL106:
 694 0016 9246     		mov	r10, r2
 695 0018 8244     		add	r10, r10, r0
 696 001a 0C3A     		subs	r2, r2, #12
 697 001c 8258     		ldr	r2, [r0, r2]
 698 001e 5200     		lsls	r2, r2, #1
 699 0020 9146     		mov	r9, r2
 700              	.LVL107:
 270:..\..\..\liblc3\src/lc3.c ****     float *xs = encoder->x + encoder->xs_off;
ARM GAS  C:\Users\rdn\AppData\Local\Temp\cco7w9JJ.s 			page 20


 701              		.loc 1 270 0
 702 0022 1B4A     		ldr	r2, .L52+4
 703              	.LVL108:
 704 0024 8258     		ldr	r2, [r0, r2]
 705 0026 9200     		lsls	r2, r2, #2
 706 0028 5244     		add	r2, r2, r10
 707 002a 9046     		mov	r8, r2
 708              	.LVL109:
 709              	.LBB125:
 710              	.LBB126:
 711              		.loc 2 47 0
 712 002c 9B00     		lsls	r3, r3, #2
 713              	.LVL110:
 714 002e 194A     		ldr	r2, .L52+8
 715              	.LVL111:
 716 0030 9B58     		ldr	r3, [r3, r2]
 717 0032 0137     		adds	r7, r7, #1
 718              	.LVL112:
 719 0034 5F43     		muls	r7, r3
 720              	.LVL113:
 721              	.LBE126:
 722              	.LBE125:
 723              	.LBB127:
 271:..\..\..\liblc3\src/lc3.c ****     int ns = lc3_ns(dt, sr);
 272:..\..\..\liblc3\src/lc3.c **** 
 273:..\..\..\liblc3\src/lc3.c ****     for (int i = 0; i < ns; i++, pcm += stride) {
 724              		.loc 1 273 0
 725 0036 0025     		movs	r5, #0
 726 0038 20E0     		b	.L46
 727              	.LVL114:
 728              	.L50:
 274:..\..\..\liblc3\src/lc3.c ****         xs[i] = lc3_ldexpf(*pcm, 15);
 729              		.loc 1 274 0
 730 003a 2C00     		movs	r4, r5
 731 003c AB00     		lsls	r3, r5, #2
 732 003e 4344     		add	r3, r3, r8
 733 0040 3268     		ldr	r2, [r6]
 734              	.LVL115:
 735              	.LBB128:
 736              	.LBB129:
  45:..\..\..\liblc3\src/fastmath.h **** 
 737              		.loc 3 45 0
 738 0042 1000     		movs	r0, r2
 739              	.LVL116:
  47:..\..\..\liblc3\src/fastmath.h ****         x.s += exp << LC3_IEEE754_EXP_SHL;
 740              		.loc 3 47 0
 741 0044 FF21     		movs	r1, #255
 742 0046 C905     		lsls	r1, r1, #23
 743 0048 1142     		tst	r1, r2
 744 004a 02D0     		beq	.L47
 745              	.LVL117:
 746              		.loc 3 48 0
 747 004c F021     		movs	r1, #240
 748 004e C904     		lsls	r1, r1, #19
 749 0050 5018     		adds	r0, r2, r1
 750              	.L47:
 751              	.LVL118:
ARM GAS  C:\Users\rdn\AppData\Local\Temp\cco7w9JJ.s 			page 21


 752              	.LBE129:
 753              	.LBE128:
 754              		.loc 1 274 0
 755 0052 1860     		str	r0, [r3]
 275:..\..\..\liblc3\src/lc3.c ****         xt[i] = LC3_SAT16((int32_t)xs[i]);
 756              		.loc 1 275 0
 757 0054 6400     		lsls	r4, r4, #1
 758              	.LVL119:
 759 0056 4C44     		add	r4, r4, r9
 760 0058 5444     		add	r4, r4, r10
 761 005a FFF7FEFF 		bl	__aeabi_f2iz
 762              	.LVL120:
 763 005e 0E4B     		ldr	r3, .L52+12
 764 0060 9842     		cmp	r0, r3
 765 0062 05DC     		bgt	.L51
 766              		.loc 1 275 0 is_stmt 0 discriminator 1
 767 0064 0D4B     		ldr	r3, .L52+16
 768 0066 9842     		cmp	r0, r3
 769 0068 00DA     		bge	.L49
 770 006a 1800     		movs	r0, r3
 771              	.L49:
 772 006c 00B2     		sxth	r0, r0
 773 006e 00E0     		b	.L48
 774              	.L51:
 775              		.loc 1 275 0
 776 0070 0B48     		ldr	r0, .L52+20
 777              	.L48:
 778              		.loc 1 275 0 discriminator 4
 779 0072 2080     		strh	r0, [r4]
 273:..\..\..\liblc3\src/lc3.c ****         xs[i] = lc3_ldexpf(*pcm, 15);
 780              		.loc 1 273 0 is_stmt 1 discriminator 4
 781 0074 0135     		adds	r5, r5, #1
 782              	.LVL121:
 783 0076 5B46     		mov	r3, fp
 784 0078 9B00     		lsls	r3, r3, #2
 785 007a F618     		adds	r6, r6, r3
 786              	.LVL122:
 787              	.L46:
 273:..\..\..\liblc3\src/lc3.c ****         xs[i] = lc3_ldexpf(*pcm, 15);
 788              		.loc 1 273 0 is_stmt 0 discriminator 2
 789 007c BD42     		cmp	r5, r7
 790 007e DCDB     		blt	.L50
 791              	.LBE127:
 276:..\..\..\liblc3\src/lc3.c ****     }
 277:..\..\..\liblc3\src/lc3.c **** }
 792              		.loc 1 277 0 is_stmt 1
 793              		@ sp needed
 794              	.LVL123:
 795              	.LVL124:
 796              	.LVL125:
 797              	.LVL126:
 798              	.LVL127:
 799 0080 3CBC     		pop	{r2, r3, r4, r5}
 800 0082 9046     		mov	r8, r2
 801 0084 9946     		mov	r9, r3
 802 0086 A246     		mov	r10, r4
 803 0088 AB46     		mov	fp, r5
ARM GAS  C:\Users\rdn\AppData\Local\Temp\cco7w9JJ.s 			page 22


 804 008a F8BD     		pop	{r3, r4, r5, r6, r7, pc}
 805              	.L53:
 806              		.align	2
 807              	.L52:
 808 008c AC040000 		.word	1196
 809 0090 A4040000 		.word	1188
 810 0094 00000000 		.word	lc3_ns_2m5
 811 0098 FE7F0000 		.word	32766
 812 009c 0080FFFF 		.word	-32768
 813 00a0 FF7F0000 		.word	32767
 814              		.cfi_endproc
 815              	.LFE35:
 816              		.size	load_float, .-load_float
 817              		.global	__aeabi_fcmpge
 818              		.global	__aeabi_fadd
 819              		.global	__aeabi_fsub
 820              		.section	.text.store_s16,"ax",%progbits
 821              		.align	2
 822              		.code	16
 823              		.thumb_func
 824              		.type	store_s16, %function
 825              	store_s16:
 826              	.LFB43:
 278:..\..\..\liblc3\src/lc3.c **** 
 279:..\..\..\liblc3\src/lc3.c **** /**
 280:..\..\..\liblc3\src/lc3.c ****  * Frame Analysis
 281:..\..\..\liblc3\src/lc3.c ****  * encoder         Encoder state
 282:..\..\..\liblc3\src/lc3.c ****  * nbytes          Size in bytes of the frame
 283:..\..\..\liblc3\src/lc3.c ****  * side            Return frame data
 284:..\..\..\liblc3\src/lc3.c ****  */
 285:..\..\..\liblc3\src/lc3.c **** static void analyze(struct lc3_encoder *encoder,
 286:..\..\..\liblc3\src/lc3.c ****     int nbytes, struct side_data *side)
 287:..\..\..\liblc3\src/lc3.c **** {
 288:..\..\..\liblc3\src/lc3.c ****     enum lc3_dt dt = encoder->dt;
 289:..\..\..\liblc3\src/lc3.c ****     enum lc3_srate sr = encoder->sr;
 290:..\..\..\liblc3\src/lc3.c ****     enum lc3_srate sr_pcm = encoder->sr_pcm;
 291:..\..\..\liblc3\src/lc3.c **** 
 292:..\..\..\liblc3\src/lc3.c ****     int16_t *xt = (int16_t *)encoder->x + encoder->xt_off;
 293:..\..\..\liblc3\src/lc3.c ****     float *xs = encoder->x + encoder->xs_off;
 294:..\..\..\liblc3\src/lc3.c ****     int ns = lc3_ns(dt, sr_pcm);
 295:..\..\..\liblc3\src/lc3.c ****     int nt = lc3_nt(sr_pcm);
 296:..\..\..\liblc3\src/lc3.c **** 
 297:..\..\..\liblc3\src/lc3.c ****     float *xd = encoder->x + encoder->xd_off;
 298:..\..\..\liblc3\src/lc3.c ****     float *xf = xs;
 299:..\..\..\liblc3\src/lc3.c **** 
 300:..\..\..\liblc3\src/lc3.c ****     /* --- Temporal --- */
 301:..\..\..\liblc3\src/lc3.c **** 
 302:..\..\..\liblc3\src/lc3.c ****     bool att = lc3_attdet_run(dt, sr_pcm, nbytes, &encoder->attdet, xt);
 303:..\..\..\liblc3\src/lc3.c **** 
 304:..\..\..\liblc3\src/lc3.c ****     side->pitch_present =
 305:..\..\..\liblc3\src/lc3.c ****         lc3_ltpf_analyse(dt, sr_pcm, &encoder->ltpf, xt, &side->ltpf);
 306:..\..\..\liblc3\src/lc3.c **** 
 307:..\..\..\liblc3\src/lc3.c ****     memmove(xt - nt, xt + (ns-nt), nt * sizeof(*xt));
 308:..\..\..\liblc3\src/lc3.c **** 
 309:..\..\..\liblc3\src/lc3.c ****     /* --- Spectral --- */
 310:..\..\..\liblc3\src/lc3.c **** 
 311:..\..\..\liblc3\src/lc3.c ****     float e[LC3_MAX_BANDS];
ARM GAS  C:\Users\rdn\AppData\Local\Temp\cco7w9JJ.s 			page 23


 312:..\..\..\liblc3\src/lc3.c **** 
 313:..\..\..\liblc3\src/lc3.c ****     lc3_mdct_forward(dt, sr_pcm, sr, xs, xd, xf);
 314:..\..\..\liblc3\src/lc3.c **** 
 315:..\..\..\liblc3\src/lc3.c ****     bool nn_flag = lc3_energy_compute(dt, sr, xf, e);
 316:..\..\..\liblc3\src/lc3.c ****     if (nn_flag)
 317:..\..\..\liblc3\src/lc3.c ****         lc3_ltpf_disable(&side->ltpf);
 318:..\..\..\liblc3\src/lc3.c **** 
 319:..\..\..\liblc3\src/lc3.c ****     side->bw = lc3_bwdet_run(dt, sr, e);
 320:..\..\..\liblc3\src/lc3.c **** 
 321:..\..\..\liblc3\src/lc3.c ****     lc3_sns_analyze(dt, sr, nbytes, e, att, &side->sns, xf, xf);
 322:..\..\..\liblc3\src/lc3.c **** 
 323:..\..\..\liblc3\src/lc3.c ****     lc3_tns_analyze(dt, side->bw, nn_flag, nbytes, &side->tns, xf);
 324:..\..\..\liblc3\src/lc3.c **** 
 325:..\..\..\liblc3\src/lc3.c ****     lc3_spec_analyze(dt, sr,
 326:..\..\..\liblc3\src/lc3.c ****         nbytes, side->pitch_present, &side->tns,
 327:..\..\..\liblc3\src/lc3.c ****         &encoder->spec, xf, &side->spec);
 328:..\..\..\liblc3\src/lc3.c **** }
 329:..\..\..\liblc3\src/lc3.c **** 
 330:..\..\..\liblc3\src/lc3.c **** /**
 331:..\..\..\liblc3\src/lc3.c ****  * Encode bitstream
 332:..\..\..\liblc3\src/lc3.c ****  * encoder         Encoder state
 333:..\..\..\liblc3\src/lc3.c ****  * side            The frame data
 334:..\..\..\liblc3\src/lc3.c ****  * nbytes          Target size of the frame (20 to 400)
 335:..\..\..\liblc3\src/lc3.c ****  * buffer          Output bitstream buffer of `nbytes` size
 336:..\..\..\liblc3\src/lc3.c ****  */
 337:..\..\..\liblc3\src/lc3.c **** static void encode(struct lc3_encoder *encoder,
 338:..\..\..\liblc3\src/lc3.c ****     const struct side_data *side, int nbytes, void *buffer)
 339:..\..\..\liblc3\src/lc3.c **** {
 340:..\..\..\liblc3\src/lc3.c ****     enum lc3_dt dt = encoder->dt;
 341:..\..\..\liblc3\src/lc3.c ****     enum lc3_srate sr = encoder->sr;
 342:..\..\..\liblc3\src/lc3.c **** 
 343:..\..\..\liblc3\src/lc3.c ****     float *xf = encoder->x + encoder->xs_off;
 344:..\..\..\liblc3\src/lc3.c ****     enum lc3_bandwidth bw = side->bw;
 345:..\..\..\liblc3\src/lc3.c **** 
 346:..\..\..\liblc3\src/lc3.c ****     lc3_bits_t bits;
 347:..\..\..\liblc3\src/lc3.c **** 
 348:..\..\..\liblc3\src/lc3.c ****     lc3_setup_bits(&bits, LC3_BITS_MODE_WRITE, buffer, nbytes);
 349:..\..\..\liblc3\src/lc3.c **** 
 350:..\..\..\liblc3\src/lc3.c ****     lc3_bwdet_put_bw(&bits, sr, bw);
 351:..\..\..\liblc3\src/lc3.c **** 
 352:..\..\..\liblc3\src/lc3.c ****     lc3_spec_put_side(&bits, dt, sr, &side->spec);
 353:..\..\..\liblc3\src/lc3.c **** 
 354:..\..\..\liblc3\src/lc3.c ****     lc3_tns_put_data(&bits, &side->tns);
 355:..\..\..\liblc3\src/lc3.c **** 
 356:..\..\..\liblc3\src/lc3.c ****     lc3_put_bit(&bits, side->pitch_present);
 357:..\..\..\liblc3\src/lc3.c **** 
 358:..\..\..\liblc3\src/lc3.c ****     lc3_sns_put_data(&bits, &side->sns);
 359:..\..\..\liblc3\src/lc3.c **** 
 360:..\..\..\liblc3\src/lc3.c ****     if (side->pitch_present)
 361:..\..\..\liblc3\src/lc3.c ****         lc3_ltpf_put_data(&bits, &side->ltpf);
 362:..\..\..\liblc3\src/lc3.c **** 
 363:..\..\..\liblc3\src/lc3.c ****     lc3_spec_encode(&bits, dt, sr, bw, nbytes, &side->spec, xf);
 364:..\..\..\liblc3\src/lc3.c **** 
 365:..\..\..\liblc3\src/lc3.c ****     lc3_flush_bits(&bits);
 366:..\..\..\liblc3\src/lc3.c **** }
 367:..\..\..\liblc3\src/lc3.c **** 
 368:..\..\..\liblc3\src/lc3.c **** /**
ARM GAS  C:\Users\rdn\AppData\Local\Temp\cco7w9JJ.s 			page 24


 369:..\..\..\liblc3\src/lc3.c ****  * Return size needed for an encoder
 370:..\..\..\liblc3\src/lc3.c ****  */
 371:..\..\..\liblc3\src/lc3.c **** LC3_EXPORT unsigned lc3_hr_encoder_size(bool hrmode, int dt_us, int sr_hz)
 372:..\..\..\liblc3\src/lc3.c **** {
 373:..\..\..\liblc3\src/lc3.c ****     if (resolve_dt(dt_us, hrmode) >= LC3_NUM_DT ||
 374:..\..\..\liblc3\src/lc3.c ****         resolve_srate(sr_hz, hrmode) >= LC3_NUM_SRATE)
 375:..\..\..\liblc3\src/lc3.c ****         return 0;
 376:..\..\..\liblc3\src/lc3.c **** 
 377:..\..\..\liblc3\src/lc3.c ****     return sizeof(struct lc3_encoder) +
 378:..\..\..\liblc3\src/lc3.c ****         (LC3_ENCODER_BUFFER_COUNT(dt_us, sr_hz)-1) * sizeof(float);
 379:..\..\..\liblc3\src/lc3.c **** }
 380:..\..\..\liblc3\src/lc3.c **** 
 381:..\..\..\liblc3\src/lc3.c **** LC3_EXPORT unsigned lc3_encoder_size(int dt_us, int sr_hz)
 382:..\..\..\liblc3\src/lc3.c **** {
 383:..\..\..\liblc3\src/lc3.c ****     return lc3_hr_encoder_size(false, dt_us, sr_hz);
 384:..\..\..\liblc3\src/lc3.c **** }
 385:..\..\..\liblc3\src/lc3.c **** 
 386:..\..\..\liblc3\src/lc3.c **** /**
 387:..\..\..\liblc3\src/lc3.c ****  * Setup encoder
 388:..\..\..\liblc3\src/lc3.c ****  */
 389:..\..\..\liblc3\src/lc3.c **** LC3_EXPORT struct lc3_encoder *lc3_hr_setup_encoder(
 390:..\..\..\liblc3\src/lc3.c ****     bool hrmode, int dt_us, int sr_hz, int sr_pcm_hz, void *mem)
 391:..\..\..\liblc3\src/lc3.c **** {
 392:..\..\..\liblc3\src/lc3.c ****     if (sr_pcm_hz <= 0)
 393:..\..\..\liblc3\src/lc3.c ****         sr_pcm_hz = sr_hz;
 394:..\..\..\liblc3\src/lc3.c **** 
 395:..\..\..\liblc3\src/lc3.c ****     enum lc3_dt dt = resolve_dt(dt_us, hrmode);
 396:..\..\..\liblc3\src/lc3.c ****     enum lc3_srate sr = resolve_srate(sr_hz, hrmode);
 397:..\..\..\liblc3\src/lc3.c ****     enum lc3_srate sr_pcm = resolve_srate(sr_pcm_hz, hrmode);
 398:..\..\..\liblc3\src/lc3.c **** 
 399:..\..\..\liblc3\src/lc3.c ****     if (dt >= LC3_NUM_DT || sr_pcm >= LC3_NUM_SRATE || sr > sr_pcm || !mem)
 400:..\..\..\liblc3\src/lc3.c ****         return NULL;
 401:..\..\..\liblc3\src/lc3.c **** 
 402:..\..\..\liblc3\src/lc3.c ****     struct lc3_encoder *encoder = mem;
 403:..\..\..\liblc3\src/lc3.c ****     int ns = lc3_ns(dt, sr_pcm);
 404:..\..\..\liblc3\src/lc3.c ****     int nt = lc3_nt(sr_pcm);
 405:..\..\..\liblc3\src/lc3.c **** 
 406:..\..\..\liblc3\src/lc3.c ****     *encoder = (struct lc3_encoder){
 407:..\..\..\liblc3\src/lc3.c ****         .dt = dt, .sr = sr,
 408:..\..\..\liblc3\src/lc3.c ****         .sr_pcm = sr_pcm,
 409:..\..\..\liblc3\src/lc3.c **** 
 410:..\..\..\liblc3\src/lc3.c ****         .xt_off = nt,
 411:..\..\..\liblc3\src/lc3.c ****         .xs_off = (nt + ns) / 2,
 412:..\..\..\liblc3\src/lc3.c ****         .xd_off = (nt + ns) / 2 + ns,
 413:..\..\..\liblc3\src/lc3.c ****     };
 414:..\..\..\liblc3\src/lc3.c **** 
 415:..\..\..\liblc3\src/lc3.c ****     memset(encoder->x, 0,
 416:..\..\..\liblc3\src/lc3.c ****         LC3_ENCODER_BUFFER_COUNT(dt_us, sr_pcm_hz) * sizeof(float));
 417:..\..\..\liblc3\src/lc3.c **** 
 418:..\..\..\liblc3\src/lc3.c ****     return encoder;
 419:..\..\..\liblc3\src/lc3.c **** }
 420:..\..\..\liblc3\src/lc3.c **** 
 421:..\..\..\liblc3\src/lc3.c **** LC3_EXPORT struct lc3_encoder *lc3_setup_encoder(
 422:..\..\..\liblc3\src/lc3.c ****     int dt_us, int sr_hz, int sr_pcm_hz, void *mem)
 423:..\..\..\liblc3\src/lc3.c **** {
 424:..\..\..\liblc3\src/lc3.c ****     return lc3_hr_setup_encoder(false, dt_us, sr_hz, sr_pcm_hz, mem);
 425:..\..\..\liblc3\src/lc3.c **** }
ARM GAS  C:\Users\rdn\AppData\Local\Temp\cco7w9JJ.s 			page 25


 426:..\..\..\liblc3\src/lc3.c **** 
 427:..\..\..\liblc3\src/lc3.c **** /**
 428:..\..\..\liblc3\src/lc3.c ****  * Encode a frame
 429:..\..\..\liblc3\src/lc3.c ****  */
 430:..\..\..\liblc3\src/lc3.c **** LC3_EXPORT int lc3_encode(struct lc3_encoder *encoder,
 431:..\..\..\liblc3\src/lc3.c ****     enum lc3_pcm_format fmt, const void *pcm, int stride, int nbytes, void *out)
 432:..\..\..\liblc3\src/lc3.c **** {
 433:..\..\..\liblc3\src/lc3.c ****     static void (* const load[])(struct lc3_encoder *, const void *, int) = {
 434:..\..\..\liblc3\src/lc3.c ****         [LC3_PCM_FORMAT_S16    ] = load_s16,
 435:..\..\..\liblc3\src/lc3.c ****         [LC3_PCM_FORMAT_S24    ] = load_s24,
 436:..\..\..\liblc3\src/lc3.c ****         [LC3_PCM_FORMAT_S24_3LE] = load_s24_3le,
 437:..\..\..\liblc3\src/lc3.c ****         [LC3_PCM_FORMAT_FLOAT  ] = load_float,
 438:..\..\..\liblc3\src/lc3.c ****     };
 439:..\..\..\liblc3\src/lc3.c **** 
 440:..\..\..\liblc3\src/lc3.c ****     /* --- Check parameters --- */
 441:..\..\..\liblc3\src/lc3.c **** 
 442:..\..\..\liblc3\src/lc3.c ****     if (!encoder || nbytes < lc3_min_frame_bytes(encoder->dt, encoder->sr)
 443:..\..\..\liblc3\src/lc3.c ****                  || nbytes > lc3_max_frame_bytes(encoder->dt, encoder->sr))
 444:..\..\..\liblc3\src/lc3.c ****         return -1;
 445:..\..\..\liblc3\src/lc3.c **** 
 446:..\..\..\liblc3\src/lc3.c ****     /* --- Processing --- */
 447:..\..\..\liblc3\src/lc3.c **** 
 448:..\..\..\liblc3\src/lc3.c ****     struct side_data side;
 449:..\..\..\liblc3\src/lc3.c **** 
 450:..\..\..\liblc3\src/lc3.c ****     load[fmt](encoder, pcm, stride);
 451:..\..\..\liblc3\src/lc3.c **** 
 452:..\..\..\liblc3\src/lc3.c ****     analyze(encoder, nbytes, &side);
 453:..\..\..\liblc3\src/lc3.c **** 
 454:..\..\..\liblc3\src/lc3.c ****     encode(encoder, &side, nbytes, out);
 455:..\..\..\liblc3\src/lc3.c **** 
 456:..\..\..\liblc3\src/lc3.c ****     return 0;
 457:..\..\..\liblc3\src/lc3.c **** }
 458:..\..\..\liblc3\src/lc3.c **** 
 459:..\..\..\liblc3\src/lc3.c **** 
 460:..\..\..\liblc3\src/lc3.c **** /* ----------------------------------------------------------------------------
 461:..\..\..\liblc3\src/lc3.c ****  *  Decoder
 462:..\..\..\liblc3\src/lc3.c ****  * -------------------------------------------------------------------------- */
 463:..\..\..\liblc3\src/lc3.c **** 
 464:..\..\..\liblc3\src/lc3.c **** /**
 465:..\..\..\liblc3\src/lc3.c ****  * Output PCM Samples to signed 16 bits
 466:..\..\..\liblc3\src/lc3.c ****  * decoder         Decoder state
 467:..\..\..\liblc3\src/lc3.c ****  * pcm, stride     Output PCM samples, and count between two consecutives
 468:..\..\..\liblc3\src/lc3.c ****  */
 469:..\..\..\liblc3\src/lc3.c **** static void store_s16(
 470:..\..\..\liblc3\src/lc3.c ****     struct lc3_decoder *decoder, void *_pcm, int stride)
 471:..\..\..\liblc3\src/lc3.c **** {
 827              		.loc 1 471 0
 828              		.cfi_startproc
 829              		@ args = 0, pretend = 0, frame = 0
 830              		@ frame_needed = 0, uses_anonymous_args = 0
 831              	.LVL128:
 832 0000 F0B5     		push	{r4, r5, r6, r7, lr}
 833              		.cfi_def_cfa_offset 20
 834              		.cfi_offset 4, -20
 835              		.cfi_offset 5, -16
 836              		.cfi_offset 6, -12
 837              		.cfi_offset 7, -8
ARM GAS  C:\Users\rdn\AppData\Local\Temp\cco7w9JJ.s 			page 26


 838              		.cfi_offset 14, -4
 839 0002 4746     		mov	r7, r8
 840 0004 80B4     		push	{r7}
 841              		.cfi_def_cfa_offset 24
 842              		.cfi_offset 8, -24
 843 0006 0E00     		movs	r6, r1
 844 0008 9046     		mov	r8, r2
 845              	.LVL129:
 472:..\..\..\liblc3\src/lc3.c ****     int16_t *pcm = _pcm;
 473:..\..\..\liblc3\src/lc3.c **** 
 474:..\..\..\liblc3\src/lc3.c ****     enum lc3_dt dt = decoder->dt;
 846              		.loc 1 474 0
 847 000a 0478     		ldrb	r4, [r0]
 848              	.LVL130:
 475:..\..\..\liblc3\src/lc3.c ****     enum lc3_srate sr = decoder->sr_pcm;
 849              		.loc 1 475 0
 850 000c 8378     		ldrb	r3, [r0, #2]
 851              	.LVL131:
 476:..\..\..\liblc3\src/lc3.c **** 
 477:..\..\..\liblc3\src/lc3.c ****     float *xs = decoder->x + decoder->xs_off;
 852              		.loc 1 477 0
 853 000e 0200     		movs	r2, r0
 854              	.LVL132:
 855 0010 B832     		adds	r2, r2, #184
 856 0012 AC21     		movs	r1, #172
 857              	.LVL133:
 858 0014 4558     		ldr	r5, [r0, r1]
 859 0016 AD00     		lsls	r5, r5, #2
 860 0018 5519     		adds	r5, r2, r5
 861              	.LVL134:
 862              	.LBB130:
 863              	.LBB131:
 864              		.loc 2 47 0
 865 001a 9B00     		lsls	r3, r3, #2
 866              	.LVL135:
 867 001c 174A     		ldr	r2, .L65
 868 001e 9B58     		ldr	r3, [r3, r2]
 869 0020 0134     		adds	r4, r4, #1
 870              	.LVL136:
 871 0022 5C43     		muls	r4, r3
 872              	.LVL137:
 873              	.LBE131:
 874              	.LBE130:
 478:..\..\..\liblc3\src/lc3.c ****     int ns = lc3_ns(dt, sr);
 479:..\..\..\liblc3\src/lc3.c **** 
 480:..\..\..\liblc3\src/lc3.c ****     for ( ; ns > 0; ns--, xs++, pcm += stride) {
 875              		.loc 1 480 0
 876 0024 25E0     		b	.L55
 877              	.LVL138:
 878              	.L61:
 879              	.LBB132:
 481:..\..\..\liblc3\src/lc3.c ****         int32_t s = *xs >= 0 ? (int)(*xs + 0.5f) : (int)(*xs - 0.5f);
 880              		.loc 1 481 0
 881 0026 2F68     		ldr	r7, [r5]
 882 0028 0021     		movs	r1, #0
 883 002a 381C     		adds	r0, r7, #0
 884 002c FFF7FEFF 		bl	__aeabi_fcmpge
ARM GAS  C:\Users\rdn\AppData\Local\Temp\cco7w9JJ.s 			page 27


 885              	.LVL139:
 886 0030 0028     		cmp	r0, #0
 887 0032 07D0     		beq	.L64
 888              		.loc 1 481 0 is_stmt 0 discriminator 1
 889 0034 FC21     		movs	r1, #252
 890 0036 8905     		lsls	r1, r1, #22
 891 0038 381C     		adds	r0, r7, #0
 892 003a FFF7FEFF 		bl	__aeabi_fadd
 893              	.LVL140:
 894 003e FFF7FEFF 		bl	__aeabi_f2iz
 895              	.LVL141:
 896 0042 06E0     		b	.L58
 897              	.L64:
 898              		.loc 1 481 0 discriminator 2
 899 0044 FC21     		movs	r1, #252
 900 0046 8905     		lsls	r1, r1, #22
 901 0048 381C     		adds	r0, r7, #0
 902 004a FFF7FEFF 		bl	__aeabi_fsub
 903              	.LVL142:
 904 004e FFF7FEFF 		bl	__aeabi_f2iz
 905              	.LVL143:
 906              	.L58:
 482:..\..\..\liblc3\src/lc3.c ****         *pcm = LC3_SAT16(s);
 907              		.loc 1 482 0 is_stmt 1 discriminator 4
 908 0052 0B4B     		ldr	r3, .L65+4
 909 0054 9842     		cmp	r0, r3
 910 0056 05DC     		bgt	.L62
 911              		.loc 1 482 0 is_stmt 0 discriminator 1
 912 0058 0A4B     		ldr	r3, .L65+8
 913 005a 9842     		cmp	r0, r3
 914 005c 00DA     		bge	.L60
 915 005e 1800     		movs	r0, r3
 916              	.LVL144:
 917              	.L60:
 918 0060 00B2     		sxth	r0, r0
 919 0062 00E0     		b	.L59
 920              	.LVL145:
 921              	.L62:
 922              		.loc 1 482 0
 923 0064 0848     		ldr	r0, .L65+12
 924              	.LVL146:
 925              	.L59:
 926              		.loc 1 482 0 discriminator 4
 927 0066 3080     		strh	r0, [r6]
 928              	.LBE132:
 480:..\..\..\liblc3\src/lc3.c ****         int32_t s = *xs >= 0 ? (int)(*xs + 0.5f) : (int)(*xs - 0.5f);
 929              		.loc 1 480 0 is_stmt 1 discriminator 4
 930 0068 013C     		subs	r4, r4, #1
 931              	.LVL147:
 932 006a 0435     		adds	r5, r5, #4
 933              	.LVL148:
 934 006c 4346     		mov	r3, r8
 935 006e 5B00     		lsls	r3, r3, #1
 936 0070 F618     		adds	r6, r6, r3
 937              	.LVL149:
 938              	.L55:
 480:..\..\..\liblc3\src/lc3.c ****         int32_t s = *xs >= 0 ? (int)(*xs + 0.5f) : (int)(*xs - 0.5f);
ARM GAS  C:\Users\rdn\AppData\Local\Temp\cco7w9JJ.s 			page 28


 939              		.loc 1 480 0 is_stmt 0 discriminator 1
 940 0072 002C     		cmp	r4, #0
 941 0074 D7DC     		bgt	.L61
 483:..\..\..\liblc3\src/lc3.c ****     }
 484:..\..\..\liblc3\src/lc3.c **** }
 942              		.loc 1 484 0 is_stmt 1
 943              		@ sp needed
 944              	.LVL150:
 945              	.LVL151:
 946              	.LVL152:
 947              	.LVL153:
 948 0076 04BC     		pop	{r2}
 949 0078 9046     		mov	r8, r2
 950 007a F0BD     		pop	{r4, r5, r6, r7, pc}
 951              	.L66:
 952              		.align	2
 953              	.L65:
 954 007c 00000000 		.word	lc3_ns_2m5
 955 0080 FE7F0000 		.word	32766
 956 0084 0080FFFF 		.word	-32768
 957 0088 FF7F0000 		.word	32767
 958              		.cfi_endproc
 959              	.LFE43:
 960              		.size	store_s16, .-store_s16
 961              		.section	.text.store_s24,"ax",%progbits
 962              		.align	2
 963              		.code	16
 964              		.thumb_func
 965              		.type	store_s24, %function
 966              	store_s24:
 967              	.LFB44:
 485:..\..\..\liblc3\src/lc3.c **** 
 486:..\..\..\liblc3\src/lc3.c **** /**
 487:..\..\..\liblc3\src/lc3.c ****  * Output PCM Samples to signed 24 bits
 488:..\..\..\liblc3\src/lc3.c ****  * decoder         Decoder state
 489:..\..\..\liblc3\src/lc3.c ****  * pcm, stride     Output PCM samples, and count between two consecutives
 490:..\..\..\liblc3\src/lc3.c ****  */
 491:..\..\..\liblc3\src/lc3.c **** static void store_s24(
 492:..\..\..\liblc3\src/lc3.c ****     struct lc3_decoder *decoder, void *_pcm, int stride)
 493:..\..\..\liblc3\src/lc3.c **** {
 968              		.loc 1 493 0
 969              		.cfi_startproc
 970              		@ args = 0, pretend = 0, frame = 0
 971              		@ frame_needed = 0, uses_anonymous_args = 0
 972              	.LVL154:
 973 0000 F0B5     		push	{r4, r5, r6, r7, lr}
 974              		.cfi_def_cfa_offset 20
 975              		.cfi_offset 4, -20
 976              		.cfi_offset 5, -16
 977              		.cfi_offset 6, -12
 978              		.cfi_offset 7, -8
 979              		.cfi_offset 14, -4
 980 0002 4746     		mov	r7, r8
 981 0004 80B4     		push	{r7}
 982              		.cfi_def_cfa_offset 24
 983              		.cfi_offset 8, -24
 984 0006 0F00     		movs	r7, r1
ARM GAS  C:\Users\rdn\AppData\Local\Temp\cco7w9JJ.s 			page 29


 985 0008 9046     		mov	r8, r2
 986              	.LVL155:
 494:..\..\..\liblc3\src/lc3.c ****     int32_t *pcm = _pcm;
 495:..\..\..\liblc3\src/lc3.c **** 
 496:..\..\..\liblc3\src/lc3.c ****     enum lc3_dt dt = decoder->dt;
 987              		.loc 1 496 0
 988 000a 0578     		ldrb	r5, [r0]
 989              	.LVL156:
 497:..\..\..\liblc3\src/lc3.c ****     enum lc3_srate sr = decoder->sr_pcm;
 990              		.loc 1 497 0
 991 000c 8378     		ldrb	r3, [r0, #2]
 992              	.LVL157:
 498:..\..\..\liblc3\src/lc3.c **** 
 499:..\..\..\liblc3\src/lc3.c ****     float *xs = decoder->x + decoder->xs_off;
 993              		.loc 1 499 0
 994 000e 0200     		movs	r2, r0
 995              	.LVL158:
 996 0010 B832     		adds	r2, r2, #184
 997 0012 AC21     		movs	r1, #172
 998              	.LVL159:
 999 0014 4658     		ldr	r6, [r0, r1]
 1000 0016 B600     		lsls	r6, r6, #2
 1001 0018 9619     		adds	r6, r2, r6
 1002              	.LVL160:
 1003              	.LBB133:
 1004              	.LBB134:
 1005              		.loc 2 47 0
 1006 001a 9B00     		lsls	r3, r3, #2
 1007              	.LVL161:
 1008 001c 1E4A     		ldr	r2, .L80
 1009 001e 9B58     		ldr	r3, [r3, r2]
 1010 0020 0135     		adds	r5, r5, #1
 1011              	.LVL162:
 1012 0022 5D43     		muls	r5, r3
 1013              	.LVL163:
 1014              	.LBE134:
 1015              	.LBE133:
 500:..\..\..\liblc3\src/lc3.c ****     int ns = lc3_ns(dt, sr);
 501:..\..\..\liblc3\src/lc3.c **** 
 502:..\..\..\liblc3\src/lc3.c ****     for ( ; ns > 0; ns--, xs++, pcm += stride) {
 1016              		.loc 1 502 0
 1017 0024 32E0     		b	.L68
 1018              	.LVL164:
 1019              	.L76:
 1020              	.LBB135:
 503:..\..\..\liblc3\src/lc3.c ****         int32_t s = *xs >= 0 ? (int32_t)(lc3_ldexpf(*xs, 8) + 0.5f)
 1021              		.loc 1 503 0
 1022 0026 3468     		ldr	r4, [r6]
 504:..\..\..\liblc3\src/lc3.c ****                              : (int32_t)(lc3_ldexpf(*xs, 8) - 0.5f);
 1023              		.loc 1 504 0
 1024 0028 0021     		movs	r1, #0
 1025 002a 201C     		adds	r0, r4, #0
 1026 002c FFF7FEFF 		bl	__aeabi_fcmpge
 1027              	.LVL165:
 1028 0030 0028     		cmp	r0, #0
 1029 0032 0ED0     		beq	.L79
 1030              	.LVL166:
ARM GAS  C:\Users\rdn\AppData\Local\Temp\cco7w9JJ.s 			page 30


 1031              	.LBB136:
 1032              	.LBB137:
  45:..\..\..\liblc3\src/fastmath.h **** 
 1033              		.loc 3 45 0 discriminator 1
 1034 0034 2000     		movs	r0, r4
 1035              	.LVL167:
  47:..\..\..\liblc3\src/fastmath.h ****         x.s += exp << LC3_IEEE754_EXP_SHL;
 1036              		.loc 3 47 0 discriminator 1
 1037 0036 FF23     		movs	r3, #255
 1038 0038 DB05     		lsls	r3, r3, #23
 1039 003a 2342     		tst	r3, r4
 1040 003c 02D0     		beq	.L71
 1041              		.loc 3 48 0
 1042 003e 8023     		movs	r3, #128
 1043 0040 DB04     		lsls	r3, r3, #19
 1044 0042 E018     		adds	r0, r4, r3
 1045              	.L71:
 1046              	.LVL168:
 1047              	.LBE137:
 1048              	.LBE136:
 503:..\..\..\liblc3\src/lc3.c ****                              : (int32_t)(lc3_ldexpf(*xs, 8) - 0.5f);
 1049              		.loc 1 503 0
 1050 0044 FC21     		movs	r1, #252
 1051 0046 8905     		lsls	r1, r1, #22
 1052 0048 FFF7FEFF 		bl	__aeabi_fadd
 1053              	.LVL169:
 1054              		.loc 1 504 0
 1055 004c FFF7FEFF 		bl	__aeabi_f2iz
 1056              	.LVL170:
 1057 0050 0DE0     		b	.L72
 1058              	.L79:
 1059              	.LVL171:
 1060              	.LBB138:
 1061              	.LBB139:
  45:..\..\..\liblc3\src/fastmath.h **** 
 1062              		.loc 3 45 0 discriminator 2
 1063 0052 2000     		movs	r0, r4
 1064              	.LVL172:
  47:..\..\..\liblc3\src/fastmath.h ****         x.s += exp << LC3_IEEE754_EXP_SHL;
 1065              		.loc 3 47 0 discriminator 2
 1066 0054 FF23     		movs	r3, #255
 1067 0056 DB05     		lsls	r3, r3, #23
 1068 0058 2342     		tst	r3, r4
 1069 005a 02D0     		beq	.L73
 1070              		.loc 3 48 0
 1071 005c 8023     		movs	r3, #128
 1072 005e DB04     		lsls	r3, r3, #19
 1073 0060 E018     		adds	r0, r4, r3
 1074              	.L73:
 1075              	.LVL173:
 1076              	.LBE139:
 1077              	.LBE138:
 1078              		.loc 1 504 0
 1079 0062 FC21     		movs	r1, #252
 1080 0064 8905     		lsls	r1, r1, #22
 1081 0066 FFF7FEFF 		bl	__aeabi_fsub
 1082              	.LVL174:
ARM GAS  C:\Users\rdn\AppData\Local\Temp\cco7w9JJ.s 			page 31


 1083 006a FFF7FEFF 		bl	__aeabi_f2iz
 1084              	.LVL175:
 1085              	.L72:
 505:..\..\..\liblc3\src/lc3.c ****         *pcm = LC3_SAT24(s);
 1086              		.loc 1 505 0
 1087 006e 0B4B     		ldr	r3, .L80+4
 1088 0070 9842     		cmp	r0, r3
 1089 0072 04DC     		bgt	.L77
 1090              		.loc 1 505 0 is_stmt 0 discriminator 1
 1091 0074 0A4B     		ldr	r3, .L80+8
 1092 0076 9842     		cmp	r0, r3
 1093 0078 02DA     		bge	.L74
 1094 007a 1800     		movs	r0, r3
 1095              	.LVL176:
 1096 007c 00E0     		b	.L74
 1097              	.LVL177:
 1098              	.L77:
 1099              		.loc 1 505 0
 1100 007e 0948     		ldr	r0, .L80+12
 1101              	.LVL178:
 1102              	.L74:
 1103              		.loc 1 505 0 discriminator 4
 1104 0080 3860     		str	r0, [r7]
 1105              	.LBE135:
 502:..\..\..\liblc3\src/lc3.c ****         int32_t s = *xs >= 0 ? (int32_t)(lc3_ldexpf(*xs, 8) + 0.5f)
 1106              		.loc 1 502 0 is_stmt 1 discriminator 4
 1107 0082 013D     		subs	r5, r5, #1
 1108              	.LVL179:
 1109 0084 0436     		adds	r6, r6, #4
 1110              	.LVL180:
 1111 0086 4346     		mov	r3, r8
 1112 0088 9B00     		lsls	r3, r3, #2
 1113 008a FF18     		adds	r7, r7, r3
 1114              	.LVL181:
 1115              	.L68:
 502:..\..\..\liblc3\src/lc3.c ****         int32_t s = *xs >= 0 ? (int32_t)(lc3_ldexpf(*xs, 8) + 0.5f)
 1116              		.loc 1 502 0 is_stmt 0 discriminator 1
 1117 008c 002D     		cmp	r5, #0
 1118 008e CADC     		bgt	.L76
 506:..\..\..\liblc3\src/lc3.c ****     }
 507:..\..\..\liblc3\src/lc3.c **** }
 1119              		.loc 1 507 0 is_stmt 1
 1120              		@ sp needed
 1121              	.LVL182:
 1122              	.LVL183:
 1123              	.LVL184:
 1124              	.LVL185:
 1125 0090 04BC     		pop	{r2}
 1126 0092 9046     		mov	r8, r2
 1127 0094 F0BD     		pop	{r4, r5, r6, r7, pc}
 1128              	.L81:
 1129 0096 C046     		.align	2
 1130              	.L80:
 1131 0098 00000000 		.word	lc3_ns_2m5
 1132 009c FEFF7F00 		.word	8388606
 1133 00a0 000080FF 		.word	-8388608
 1134 00a4 FFFF7F00 		.word	8388607
ARM GAS  C:\Users\rdn\AppData\Local\Temp\cco7w9JJ.s 			page 32


 1135              		.cfi_endproc
 1136              	.LFE44:
 1137              		.size	store_s24, .-store_s24
 1138              		.section	.text.store_s24_3le,"ax",%progbits
 1139              		.align	2
 1140              		.code	16
 1141              		.thumb_func
 1142              		.type	store_s24_3le, %function
 1143              	store_s24_3le:
 1144              	.LFB45:
 508:..\..\..\liblc3\src/lc3.c **** 
 509:..\..\..\liblc3\src/lc3.c **** /**
 510:..\..\..\liblc3\src/lc3.c ****  * Output PCM Samples to signed 24 bits packed
 511:..\..\..\liblc3\src/lc3.c ****  * decoder         Decoder state
 512:..\..\..\liblc3\src/lc3.c ****  * pcm, stride     Output PCM samples, and count between two consecutives
 513:..\..\..\liblc3\src/lc3.c ****  */
 514:..\..\..\liblc3\src/lc3.c **** static void store_s24_3le(
 515:..\..\..\liblc3\src/lc3.c ****     struct lc3_decoder *decoder, void *_pcm, int stride)
 516:..\..\..\liblc3\src/lc3.c **** {
 1145              		.loc 1 516 0
 1146              		.cfi_startproc
 1147              		@ args = 0, pretend = 0, frame = 0
 1148              		@ frame_needed = 0, uses_anonymous_args = 0
 1149              	.LVL186:
 1150 0000 F0B5     		push	{r4, r5, r6, r7, lr}
 1151              		.cfi_def_cfa_offset 20
 1152              		.cfi_offset 4, -20
 1153              		.cfi_offset 5, -16
 1154              		.cfi_offset 6, -12
 1155              		.cfi_offset 7, -8
 1156              		.cfi_offset 14, -4
 1157 0002 4746     		mov	r7, r8
 1158 0004 80B4     		push	{r7}
 1159              		.cfi_def_cfa_offset 24
 1160              		.cfi_offset 8, -24
 1161 0006 0C00     		movs	r4, r1
 1162 0008 9046     		mov	r8, r2
 1163              	.LVL187:
 517:..\..\..\liblc3\src/lc3.c ****     uint8_t *pcm = _pcm;
 518:..\..\..\liblc3\src/lc3.c **** 
 519:..\..\..\liblc3\src/lc3.c ****     enum lc3_dt dt = decoder->dt;
 1164              		.loc 1 519 0
 1165 000a 0678     		ldrb	r6, [r0]
 1166              	.LVL188:
 520:..\..\..\liblc3\src/lc3.c ****     enum lc3_srate sr = decoder->sr_pcm;
 1167              		.loc 1 520 0
 1168 000c 8378     		ldrb	r3, [r0, #2]
 1169              	.LVL189:
 521:..\..\..\liblc3\src/lc3.c **** 
 522:..\..\..\liblc3\src/lc3.c ****     float *xs = decoder->x + decoder->xs_off;
 1170              		.loc 1 522 0
 1171 000e 0200     		movs	r2, r0
 1172              	.LVL190:
 1173 0010 B832     		adds	r2, r2, #184
 1174 0012 AC21     		movs	r1, #172
 1175              	.LVL191:
 1176 0014 4758     		ldr	r7, [r0, r1]
ARM GAS  C:\Users\rdn\AppData\Local\Temp\cco7w9JJ.s 			page 33


 1177 0016 BF00     		lsls	r7, r7, #2
 1178 0018 D719     		adds	r7, r2, r7
 1179              	.LVL192:
 1180              	.LBB140:
 1181              	.LBB141:
 1182              		.loc 2 47 0
 1183 001a 9B00     		lsls	r3, r3, #2
 1184              	.LVL193:
 1185 001c 204A     		ldr	r2, .L95
 1186 001e 9B58     		ldr	r3, [r3, r2]
 1187 0020 0136     		adds	r6, r6, #1
 1188              	.LVL194:
 1189 0022 5E43     		muls	r6, r3
 1190              	.LVL195:
 1191              	.LBE141:
 1192              	.LBE140:
 523:..\..\..\liblc3\src/lc3.c ****     int ns = lc3_ns(dt, sr);
 524:..\..\..\liblc3\src/lc3.c **** 
 525:..\..\..\liblc3\src/lc3.c ****     for ( ; ns > 0; ns--, xs++, pcm += 3*stride) {
 1193              		.loc 1 525 0
 1194 0024 37E0     		b	.L83
 1195              	.LVL196:
 1196              	.L91:
 1197              	.LBB142:
 526:..\..\..\liblc3\src/lc3.c ****         int32_t s = *xs >= 0 ? (int32_t)(lc3_ldexpf(*xs, 8) + 0.5f)
 1198              		.loc 1 526 0
 1199 0026 3D68     		ldr	r5, [r7]
 527:..\..\..\liblc3\src/lc3.c ****                              : (int32_t)(lc3_ldexpf(*xs, 8) - 0.5f);
 1200              		.loc 1 527 0
 1201 0028 0021     		movs	r1, #0
 1202 002a 281C     		adds	r0, r5, #0
 1203 002c FFF7FEFF 		bl	__aeabi_fcmpge
 1204              	.LVL197:
 1205 0030 0028     		cmp	r0, #0
 1206 0032 0ED0     		beq	.L94
 1207              	.LVL198:
 1208              	.LBB143:
 1209              	.LBB144:
  45:..\..\..\liblc3\src/fastmath.h **** 
 1210              		.loc 3 45 0 discriminator 1
 1211 0034 2800     		movs	r0, r5
 1212              	.LVL199:
  47:..\..\..\liblc3\src/fastmath.h ****         x.s += exp << LC3_IEEE754_EXP_SHL;
 1213              		.loc 3 47 0 discriminator 1
 1214 0036 FF23     		movs	r3, #255
 1215 0038 DB05     		lsls	r3, r3, #23
 1216 003a 2B42     		tst	r3, r5
 1217 003c 02D0     		beq	.L86
 1218              		.loc 3 48 0
 1219 003e 8023     		movs	r3, #128
 1220 0040 DB04     		lsls	r3, r3, #19
 1221 0042 E818     		adds	r0, r5, r3
 1222              	.L86:
 1223              	.LVL200:
 1224              	.LBE144:
 1225              	.LBE143:
 526:..\..\..\liblc3\src/lc3.c ****                              : (int32_t)(lc3_ldexpf(*xs, 8) - 0.5f);
ARM GAS  C:\Users\rdn\AppData\Local\Temp\cco7w9JJ.s 			page 34


 1226              		.loc 1 526 0
 1227 0044 FC21     		movs	r1, #252
 1228 0046 8905     		lsls	r1, r1, #22
 1229 0048 FFF7FEFF 		bl	__aeabi_fadd
 1230              	.LVL201:
 1231              		.loc 1 527 0
 1232 004c FFF7FEFF 		bl	__aeabi_f2iz
 1233              	.LVL202:
 1234 0050 0DE0     		b	.L87
 1235              	.L94:
 1236              	.LVL203:
 1237              	.LBB145:
 1238              	.LBB146:
  45:..\..\..\liblc3\src/fastmath.h **** 
 1239              		.loc 3 45 0 discriminator 2
 1240 0052 2800     		movs	r0, r5
 1241              	.LVL204:
  47:..\..\..\liblc3\src/fastmath.h ****         x.s += exp << LC3_IEEE754_EXP_SHL;
 1242              		.loc 3 47 0 discriminator 2
 1243 0054 FF23     		movs	r3, #255
 1244 0056 DB05     		lsls	r3, r3, #23
 1245 0058 2B42     		tst	r3, r5
 1246 005a 02D0     		beq	.L88
 1247              		.loc 3 48 0
 1248 005c 8023     		movs	r3, #128
 1249 005e DB04     		lsls	r3, r3, #19
 1250 0060 E818     		adds	r0, r5, r3
 1251              	.L88:
 1252              	.LVL205:
 1253              	.LBE146:
 1254              	.LBE145:
 1255              		.loc 1 527 0
 1256 0062 FC21     		movs	r1, #252
 1257 0064 8905     		lsls	r1, r1, #22
 1258 0066 FFF7FEFF 		bl	__aeabi_fsub
 1259              	.LVL206:
 1260 006a FFF7FEFF 		bl	__aeabi_f2iz
 1261              	.LVL207:
 1262              	.L87:
 528:..\..\..\liblc3\src/lc3.c **** 
 529:..\..\..\liblc3\src/lc3.c ****         s = LC3_SAT24(s);
 1263              		.loc 1 529 0
 1264 006e 0D4B     		ldr	r3, .L95+4
 1265 0070 9842     		cmp	r0, r3
 1266 0072 04DC     		bgt	.L92
 1267              		.loc 1 529 0 is_stmt 0 discriminator 1
 1268 0074 0C4B     		ldr	r3, .L95+8
 1269 0076 9842     		cmp	r0, r3
 1270 0078 02DA     		bge	.L89
 1271 007a 1800     		movs	r0, r3
 1272              	.LVL208:
 1273 007c 00E0     		b	.L89
 1274              	.LVL209:
 1275              	.L92:
 1276              		.loc 1 529 0
 1277 007e 0B48     		ldr	r0, .L95+12
 1278              	.LVL210:
ARM GAS  C:\Users\rdn\AppData\Local\Temp\cco7w9JJ.s 			page 35


 1279              	.L89:
 530:..\..\..\liblc3\src/lc3.c ****         pcm[0] = (s >>  0) & 0xff;
 1280              		.loc 1 530 0 is_stmt 1 discriminator 4
 1281 0080 2070     		strb	r0, [r4]
 531:..\..\..\liblc3\src/lc3.c ****         pcm[1] = (s >>  8) & 0xff;
 1282              		.loc 1 531 0 discriminator 4
 1283 0082 0312     		asrs	r3, r0, #8
 1284 0084 6370     		strb	r3, [r4, #1]
 532:..\..\..\liblc3\src/lc3.c ****         pcm[2] = (s >> 16) & 0xff;
 1285              		.loc 1 532 0 discriminator 4
 1286 0086 0014     		asrs	r0, r0, #16
 1287              	.LVL211:
 1288 0088 A070     		strb	r0, [r4, #2]
 1289              	.LBE142:
 525:..\..\..\liblc3\src/lc3.c ****         int32_t s = *xs >= 0 ? (int32_t)(lc3_ldexpf(*xs, 8) + 0.5f)
 1290              		.loc 1 525 0 discriminator 4
 1291 008a 013E     		subs	r6, r6, #1
 1292              	.LVL212:
 1293 008c 0437     		adds	r7, r7, #4
 1294              	.LVL213:
 1295 008e 4346     		mov	r3, r8
 1296 0090 5B00     		lsls	r3, r3, #1
 1297 0092 4344     		add	r3, r3, r8
 1298 0094 E418     		adds	r4, r4, r3
 1299              	.LVL214:
 1300              	.L83:
 525:..\..\..\liblc3\src/lc3.c ****         int32_t s = *xs >= 0 ? (int32_t)(lc3_ldexpf(*xs, 8) + 0.5f)
 1301              		.loc 1 525 0 is_stmt 0 discriminator 1
 1302 0096 002E     		cmp	r6, #0
 1303 0098 C5DC     		bgt	.L91
 533:..\..\..\liblc3\src/lc3.c ****     }
 534:..\..\..\liblc3\src/lc3.c **** }
 1304              		.loc 1 534 0 is_stmt 1
 1305              		@ sp needed
 1306              	.LVL215:
 1307              	.LVL216:
 1308              	.LVL217:
 1309              	.LVL218:
 1310 009a 04BC     		pop	{r2}
 1311 009c 9046     		mov	r8, r2
 1312 009e F0BD     		pop	{r4, r5, r6, r7, pc}
 1313              	.L96:
 1314              		.align	2
 1315              	.L95:
 1316 00a0 00000000 		.word	lc3_ns_2m5
 1317 00a4 FEFF7F00 		.word	8388606
 1318 00a8 000080FF 		.word	-8388608
 1319 00ac FFFF7F00 		.word	8388607
 1320              		.cfi_endproc
 1321              	.LFE45:
 1322              		.size	store_s24_3le, .-store_s24_3le
 1323              		.section	.text.complete,"ax",%progbits
 1324              		.align	2
 1325              		.code	16
 1326              		.thumb_func
 1327              		.type	complete, %function
 1328              	complete:
ARM GAS  C:\Users\rdn\AppData\Local\Temp\cco7w9JJ.s 			page 36


 1329              	.LFB49:
 535:..\..\..\liblc3\src/lc3.c **** 
 536:..\..\..\liblc3\src/lc3.c **** /**
 537:..\..\..\liblc3\src/lc3.c ****  * Output PCM Samples to float 32 bits
 538:..\..\..\liblc3\src/lc3.c ****  * decoder         Decoder state
 539:..\..\..\liblc3\src/lc3.c ****  * pcm, stride     Output PCM samples, and count between two consecutives
 540:..\..\..\liblc3\src/lc3.c ****  */
 541:..\..\..\liblc3\src/lc3.c **** static void store_float(
 542:..\..\..\liblc3\src/lc3.c ****     struct lc3_decoder *decoder, void *_pcm, int stride)
 543:..\..\..\liblc3\src/lc3.c **** {
 544:..\..\..\liblc3\src/lc3.c ****     float *pcm = _pcm;
 545:..\..\..\liblc3\src/lc3.c **** 
 546:..\..\..\liblc3\src/lc3.c ****     enum lc3_dt dt = decoder->dt;
 547:..\..\..\liblc3\src/lc3.c ****     enum lc3_srate sr = decoder->sr_pcm;
 548:..\..\..\liblc3\src/lc3.c **** 
 549:..\..\..\liblc3\src/lc3.c ****     float *xs = decoder->x + decoder->xs_off;
 550:..\..\..\liblc3\src/lc3.c ****     int ns = lc3_ns(dt, sr);
 551:..\..\..\liblc3\src/lc3.c **** 
 552:..\..\..\liblc3\src/lc3.c ****     for ( ; ns > 0; ns--, xs++, pcm += stride) {
 553:..\..\..\liblc3\src/lc3.c ****         float s = lc3_ldexpf(*xs, -15);
 554:..\..\..\liblc3\src/lc3.c ****         *pcm = fminf(fmaxf(s, -1.f), 1.f);
 555:..\..\..\liblc3\src/lc3.c ****     }
 556:..\..\..\liblc3\src/lc3.c **** }
 557:..\..\..\liblc3\src/lc3.c **** 
 558:..\..\..\liblc3\src/lc3.c **** /**
 559:..\..\..\liblc3\src/lc3.c ****  * Decode bitstream
 560:..\..\..\liblc3\src/lc3.c ****  * decoder         Decoder state
 561:..\..\..\liblc3\src/lc3.c ****  * data, nbytes    Input bitstream buffer
 562:..\..\..\liblc3\src/lc3.c ****  * side            Return the side data
 563:..\..\..\liblc3\src/lc3.c ****  * return          0: Ok  < 0: Bitsream error detected
 564:..\..\..\liblc3\src/lc3.c ****  */
 565:..\..\..\liblc3\src/lc3.c **** static int decode(struct lc3_decoder *decoder,
 566:..\..\..\liblc3\src/lc3.c ****     const void *data, int nbytes, struct side_data *side)
 567:..\..\..\liblc3\src/lc3.c **** {
 568:..\..\..\liblc3\src/lc3.c ****     enum lc3_dt dt = decoder->dt;
 569:..\..\..\liblc3\src/lc3.c ****     enum lc3_srate sr = decoder->sr;
 570:..\..\..\liblc3\src/lc3.c **** 
 571:..\..\..\liblc3\src/lc3.c ****     float *xf = decoder->x + decoder->xs_off;
 572:..\..\..\liblc3\src/lc3.c ****     int ns = lc3_ns(dt, sr);
 573:..\..\..\liblc3\src/lc3.c ****     int ne = lc3_ne(dt, sr);
 574:..\..\..\liblc3\src/lc3.c **** 
 575:..\..\..\liblc3\src/lc3.c ****     lc3_bits_t bits;
 576:..\..\..\liblc3\src/lc3.c ****     int ret = 0;
 577:..\..\..\liblc3\src/lc3.c **** 
 578:..\..\..\liblc3\src/lc3.c ****     lc3_setup_bits(&bits, LC3_BITS_MODE_READ, (void *)data, nbytes);
 579:..\..\..\liblc3\src/lc3.c **** 
 580:..\..\..\liblc3\src/lc3.c ****     if ((ret = lc3_bwdet_get_bw(&bits, sr, &side->bw)) < 0)
 581:..\..\..\liblc3\src/lc3.c ****         return ret;
 582:..\..\..\liblc3\src/lc3.c **** 
 583:..\..\..\liblc3\src/lc3.c ****     if ((ret = lc3_spec_get_side(&bits, dt, sr, &side->spec)) < 0)
 584:..\..\..\liblc3\src/lc3.c ****         return ret;
 585:..\..\..\liblc3\src/lc3.c **** 
 586:..\..\..\liblc3\src/lc3.c ****     if ((ret = lc3_tns_get_data(&bits, dt, side->bw, nbytes, &side->tns)) < 0)
 587:..\..\..\liblc3\src/lc3.c ****         return ret;
 588:..\..\..\liblc3\src/lc3.c **** 
 589:..\..\..\liblc3\src/lc3.c ****     side->pitch_present = lc3_get_bit(&bits);
 590:..\..\..\liblc3\src/lc3.c **** 
ARM GAS  C:\Users\rdn\AppData\Local\Temp\cco7w9JJ.s 			page 37


 591:..\..\..\liblc3\src/lc3.c ****     if ((ret = lc3_sns_get_data(&bits, &side->sns)) < 0)
 592:..\..\..\liblc3\src/lc3.c ****         return ret;
 593:..\..\..\liblc3\src/lc3.c **** 
 594:..\..\..\liblc3\src/lc3.c ****     if (side->pitch_present)
 595:..\..\..\liblc3\src/lc3.c ****       lc3_ltpf_get_data(&bits, &side->ltpf);
 596:..\..\..\liblc3\src/lc3.c **** 
 597:..\..\..\liblc3\src/lc3.c ****     if ((ret = lc3_spec_decode(&bits, dt, sr,
 598:..\..\..\liblc3\src/lc3.c ****                     side->bw, nbytes, &side->spec, xf)) < 0)
 599:..\..\..\liblc3\src/lc3.c ****         return ret;
 600:..\..\..\liblc3\src/lc3.c **** 
 601:..\..\..\liblc3\src/lc3.c ****     memset(xf + ne, 0, (ns - ne) * sizeof(float));
 602:..\..\..\liblc3\src/lc3.c **** 
 603:..\..\..\liblc3\src/lc3.c ****     return lc3_check_bits(&bits);
 604:..\..\..\liblc3\src/lc3.c **** }
 605:..\..\..\liblc3\src/lc3.c **** 
 606:..\..\..\liblc3\src/lc3.c **** /**
 607:..\..\..\liblc3\src/lc3.c ****  * Frame synthesis
 608:..\..\..\liblc3\src/lc3.c ****  * decoder         Decoder state
 609:..\..\..\liblc3\src/lc3.c ****  * side            Frame data, NULL performs PLC
 610:..\..\..\liblc3\src/lc3.c ****  * nbytes          Size in bytes of the frame
 611:..\..\..\liblc3\src/lc3.c ****  */
 612:..\..\..\liblc3\src/lc3.c **** static void synthesize(struct lc3_decoder *decoder,
 613:..\..\..\liblc3\src/lc3.c ****     const struct side_data *side, int nbytes)
 614:..\..\..\liblc3\src/lc3.c **** {
 615:..\..\..\liblc3\src/lc3.c ****     enum lc3_dt dt = decoder->dt;
 616:..\..\..\liblc3\src/lc3.c ****     enum lc3_srate sr = decoder->sr;
 617:..\..\..\liblc3\src/lc3.c ****     enum lc3_srate sr_pcm = decoder->sr_pcm;
 618:..\..\..\liblc3\src/lc3.c **** 
 619:..\..\..\liblc3\src/lc3.c ****     float *xf = decoder->x + decoder->xs_off;
 620:..\..\..\liblc3\src/lc3.c ****     int ns = lc3_ns(dt, sr_pcm);
 621:..\..\..\liblc3\src/lc3.c ****     int ne = lc3_ne(dt, sr);
 622:..\..\..\liblc3\src/lc3.c **** 
 623:..\..\..\liblc3\src/lc3.c ****     float *xg = decoder->x + decoder->xg_off;
 624:..\..\..\liblc3\src/lc3.c ****     float *xs = xf;
 625:..\..\..\liblc3\src/lc3.c **** 
 626:..\..\..\liblc3\src/lc3.c ****     float *xd = decoder->x + decoder->xd_off;
 627:..\..\..\liblc3\src/lc3.c ****     float *xh = decoder->x + decoder->xh_off;
 628:..\..\..\liblc3\src/lc3.c **** 
 629:..\..\..\liblc3\src/lc3.c ****     if (side) {
 630:..\..\..\liblc3\src/lc3.c ****         enum lc3_bandwidth bw = side->bw;
 631:..\..\..\liblc3\src/lc3.c **** 
 632:..\..\..\liblc3\src/lc3.c ****         lc3_plc_suspend(&decoder->plc);
 633:..\..\..\liblc3\src/lc3.c **** 
 634:..\..\..\liblc3\src/lc3.c ****         lc3_tns_synthesize(dt, bw, &side->tns, xf);
 635:..\..\..\liblc3\src/lc3.c **** 
 636:..\..\..\liblc3\src/lc3.c ****         lc3_sns_synthesize(dt, sr, &side->sns, xf, xg);
 637:..\..\..\liblc3\src/lc3.c **** 
 638:..\..\..\liblc3\src/lc3.c ****         lc3_mdct_inverse(dt, sr_pcm, sr, xg, xd, xs);
 639:..\..\..\liblc3\src/lc3.c **** 
 640:..\..\..\liblc3\src/lc3.c ****     } else {
 641:..\..\..\liblc3\src/lc3.c ****         lc3_plc_synthesize(dt, sr, &decoder->plc, xg, xf);
 642:..\..\..\liblc3\src/lc3.c **** 
 643:..\..\..\liblc3\src/lc3.c ****         memset(xf + ne, 0, (ns - ne) * sizeof(float));
 644:..\..\..\liblc3\src/lc3.c **** 
 645:..\..\..\liblc3\src/lc3.c ****         lc3_mdct_inverse(dt, sr_pcm, sr, xf, xd, xs);
 646:..\..\..\liblc3\src/lc3.c ****     }
 647:..\..\..\liblc3\src/lc3.c **** 
ARM GAS  C:\Users\rdn\AppData\Local\Temp\cco7w9JJ.s 			page 38


 648:..\..\..\liblc3\src/lc3.c ****     if (!lc3_hr(sr))
 649:..\..\..\liblc3\src/lc3.c ****         lc3_ltpf_synthesize(dt, sr_pcm, nbytes, &decoder->ltpf,
 650:..\..\..\liblc3\src/lc3.c ****             side && side->pitch_present ? &side->ltpf : NULL, xh, xs);
 651:..\..\..\liblc3\src/lc3.c **** }
 652:..\..\..\liblc3\src/lc3.c **** 
 653:..\..\..\liblc3\src/lc3.c **** /**
 654:..\..\..\liblc3\src/lc3.c ****  * Update decoder state on decoding completion
 655:..\..\..\liblc3\src/lc3.c ****  * decoder         Decoder state
 656:..\..\..\liblc3\src/lc3.c ****  */
 657:..\..\..\liblc3\src/lc3.c **** static void complete(struct lc3_decoder *decoder)
 658:..\..\..\liblc3\src/lc3.c **** {
 1330              		.loc 1 658 0
 1331              		.cfi_startproc
 1332              		@ args = 0, pretend = 0, frame = 0
 1333              		@ frame_needed = 0, uses_anonymous_args = 0
 1334              	.LVL219:
 1335 0000 30B5     		push	{r4, r5, lr}
 1336              		.cfi_def_cfa_offset 12
 1337              		.cfi_offset 4, -12
 1338              		.cfi_offset 5, -8
 1339              		.cfi_offset 14, -4
 659:..\..\..\liblc3\src/lc3.c ****     enum lc3_dt dt = decoder->dt;
 1340              		.loc 1 659 0
 1341 0002 0378     		ldrb	r3, [r0]
 1342              	.LVL220:
 660:..\..\..\liblc3\src/lc3.c ****     enum lc3_srate sr_pcm = decoder->sr_pcm;
 1343              		.loc 1 660 0
 1344 0004 8278     		ldrb	r2, [r0, #2]
 1345              	.LVL221:
 1346              	.LBB147:
 1347              	.LBB148:
  48:..\..\..\liblc3\src/tables.h **** }
  49:..\..\..\liblc3\src/tables.h **** 
  50:..\..\..\liblc3\src/tables.h **** static inline int lc3_ne(enum lc3_dt dt, enum lc3_srate sr) {
  51:..\..\..\liblc3\src/tables.h ****     return lc3_ne_2m5[sr] * (1 + dt);
  52:..\..\..\liblc3\src/tables.h **** }
  53:..\..\..\liblc3\src/tables.h **** 
  54:..\..\..\liblc3\src/tables.h **** static inline int lc3_nd(enum lc3_dt dt, enum lc3_srate sr) {
  55:..\..\..\liblc3\src/tables.h ****     return ( lc3_ns(dt, sr) +
  56:..\..\..\liblc3\src/tables.h ****         (dt == LC3_DT_7M5 ? lc3_ns_4m[sr] : lc3_ns_2m5[sr]) ) >> 1;
  57:..\..\..\liblc3\src/tables.h **** }
  58:..\..\..\liblc3\src/tables.h **** 
  59:..\..\..\liblc3\src/tables.h **** static inline int lc3_nh(enum lc3_dt dt, enum lc3_srate sr) {
  60:..\..\..\liblc3\src/tables.h ****     return sr > LC3_SRATE_48K_HR ? 0 :
 1348              		.loc 2 60 0
 1349 0006 052A     		cmp	r2, #5
 1350 0008 09D8     		bhi	.L101
  61:..\..\..\liblc3\src/tables.h ****         (8 + (dt == LC3_DT_7M5)) * lc3_ns_2m5[sr];
 1351              		.loc 2 61 0
 1352 000a 022B     		cmp	r3, #2
 1353 000c 01D1     		bne	.L102
 1354 000e 0925     		movs	r5, #9
 1355 0010 00E0     		b	.L99
 1356              	.L102:
 1357 0012 0825     		movs	r5, #8
 1358              	.L99:
 1359 0014 9400     		lsls	r4, r2, #2
ARM GAS  C:\Users\rdn\AppData\Local\Temp\cco7w9JJ.s 			page 39


 1360 0016 0A49     		ldr	r1, .L103
 1361 0018 6158     		ldr	r1, [r4, r1]
  60:..\..\..\liblc3\src/tables.h ****         (8 + (dt == LC3_DT_7M5)) * lc3_ns_2m5[sr];
 1362              		.loc 2 60 0
 1363 001a 6943     		muls	r1, r5
 1364 001c 00E0     		b	.L98
 1365              	.L101:
 1366 001e 0021     		movs	r1, #0
 1367              	.L98:
 1368              	.LVL222:
 1369              	.LBE148:
 1370              	.LBE147:
 1371              	.LBB149:
 1372              	.LBB150:
  47:..\..\..\liblc3\src/tables.h **** }
 1373              		.loc 2 47 0
 1374 0020 9200     		lsls	r2, r2, #2
 1375              	.LVL223:
 1376 0022 074C     		ldr	r4, .L103
 1377 0024 1259     		ldr	r2, [r2, r4]
 1378 0026 0133     		adds	r3, r3, #1
 1379              	.LVL224:
 1380 0028 5343     		muls	r3, r2
 1381              	.LVL225:
 1382              	.LBE150:
 1383              	.LBE149:
 661:..\..\..\liblc3\src/lc3.c ****     int nh = lc3_nh(dt, sr_pcm);
 662:..\..\..\liblc3\src/lc3.c ****     int ns = lc3_ns(dt, sr_pcm);
 663:..\..\..\liblc3\src/lc3.c **** 
 664:..\..\..\liblc3\src/lc3.c ****     decoder->xs_off = decoder->xs_off - decoder->xh_off < nh ?
 1384              		.loc 1 664 0
 1385 002a AC22     		movs	r2, #172
 1386 002c 8458     		ldr	r4, [r0, r2]
 1387 002e 043A     		subs	r2, r2, #4
 1388 0030 8258     		ldr	r2, [r0, r2]
 1389 0032 A51A     		subs	r5, r4, r2
 665:..\..\..\liblc3\src/lc3.c ****         decoder->xs_off + ns : decoder->xh_off;
 1390              		.loc 1 665 0
 1391 0034 8D42     		cmp	r5, r1
 1392 0036 00DA     		bge	.L100
 1393              		.loc 1 665 0 is_stmt 0 discriminator 1
 1394 0038 E218     		adds	r2, r4, r3
 1395              	.L100:
 664:..\..\..\liblc3\src/lc3.c ****         decoder->xs_off + ns : decoder->xh_off;
 1396              		.loc 1 664 0 is_stmt 1
 1397 003a AC23     		movs	r3, #172
 1398 003c C250     		str	r2, [r0, r3]
 1399              	.LVL226:
 666:..\..\..\liblc3\src/lc3.c **** }
 1400              		.loc 1 666 0
 1401              		@ sp needed
 1402 003e 30BD     		pop	{r4, r5, pc}
 1403              	.L104:
 1404              		.align	2
 1405              	.L103:
 1406 0040 00000000 		.word	lc3_ns_2m5
 1407              		.cfi_endproc
ARM GAS  C:\Users\rdn\AppData\Local\Temp\cco7w9JJ.s 			page 40


 1408              	.LFE49:
 1409              		.size	complete, .-complete
 1410              		.section	.text.analyze,"ax",%progbits
 1411              		.align	2
 1412              		.code	16
 1413              		.thumb_func
 1414              		.type	analyze, %function
 1415              	analyze:
 1416              	.LFB36:
 287:..\..\..\liblc3\src/lc3.c ****     enum lc3_dt dt = encoder->dt;
 1417              		.loc 1 287 0
 1418              		.cfi_startproc
 1419              		@ args = 0, pretend = 0, frame = 280
 1420              		@ frame_needed = 0, uses_anonymous_args = 0
 1421              	.LVL227:
 1422 0000 F0B5     		push	{r4, r5, r6, r7, lr}
 1423              		.cfi_def_cfa_offset 20
 1424              		.cfi_offset 4, -20
 1425              		.cfi_offset 5, -16
 1426              		.cfi_offset 6, -12
 1427              		.cfi_offset 7, -8
 1428              		.cfi_offset 14, -4
 1429 0002 5F46     		mov	r7, fp
 1430 0004 5646     		mov	r6, r10
 1431 0006 4D46     		mov	r5, r9
 1432 0008 4446     		mov	r4, r8
 1433 000a F0B4     		push	{r4, r5, r6, r7}
 1434              		.cfi_def_cfa_offset 36
 1435              		.cfi_offset 8, -36
 1436              		.cfi_offset 9, -32
 1437              		.cfi_offset 10, -28
 1438              		.cfi_offset 11, -24
 1439 000c CBB0     		sub	sp, sp, #300
 1440              		.cfi_def_cfa_offset 336
 1441 000e 0400     		movs	r4, r0
 1442 0010 0891     		str	r1, [sp, #32]
 1443 0012 1500     		movs	r5, r2
 288:..\..\..\liblc3\src/lc3.c ****     enum lc3_srate sr = encoder->sr;
 1444              		.loc 1 288 0
 1445 0014 0378     		ldrb	r3, [r0]
 1446 0016 1800     		movs	r0, r3
 1447              	.LVL228:
 289:..\..\..\liblc3\src/lc3.c ****     enum lc3_srate sr_pcm = encoder->sr_pcm;
 1448              		.loc 1 289 0
 1449 0018 6378     		ldrb	r3, [r4, #1]
 1450 001a 0693     		str	r3, [sp, #24]
 1451              	.LVL229:
 290:..\..\..\liblc3\src/lc3.c **** 
 1452              		.loc 1 290 0
 1453 001c A378     		ldrb	r3, [r4, #2]
 1454 001e 0793     		str	r3, [sp, #28]
 1455              	.LVL230:
 292:..\..\..\liblc3\src/lc3.c ****     float *xs = encoder->x + encoder->xs_off;
 1456              		.loc 1 292 0
 1457 0020 414E     		ldr	r6, .L107
 1458 0022 A219     		adds	r2, r4, r6
 1459              	.LVL231:
ARM GAS  C:\Users\rdn\AppData\Local\Temp\cco7w9JJ.s 			page 41


 1460 0024 9423     		movs	r3, #148
 1461 0026 DB00     		lsls	r3, r3, #3
 1462 0028 E158     		ldr	r1, [r4, r3]
 1463              	.LVL232:
 1464 002a 4900     		lsls	r1, r1, #1
 1465 002c 5718     		adds	r7, r2, r1
 1466              	.LVL233:
 293:..\..\..\liblc3\src/lc3.c ****     int ns = lc3_ns(dt, sr_pcm);
 1467              		.loc 1 293 0
 1468 002e 3F4B     		ldr	r3, .L107+4
 1469 0030 E358     		ldr	r3, [r4, r3]
 1470 0032 9B00     		lsls	r3, r3, #2
 1471 0034 D618     		adds	r6, r2, r3
 1472              	.LVL234:
 1473              	.LBB151:
 1474              	.LBB152:
  47:..\..\..\liblc3\src/tables.h **** }
 1475              		.loc 2 47 0
 1476 0036 079B     		ldr	r3, [sp, #28]
 1477 0038 9900     		lsls	r1, r3, #2
 1478 003a 3D4B     		ldr	r3, .L107+8
 1479 003c CB58     		ldr	r3, [r1, r3]
 1480 003e 411C     		adds	r1, r0, #1
 1481 0040 5943     		muls	r1, r3
 1482 0042 8A46     		mov	r10, r1
 1483              	.LVL235:
 1484              	.LBE152:
 1485              	.LBE151:
 1486              	.LBB153:
 1487              	.LBB154:
  62:..\..\..\liblc3\src/tables.h **** }
  63:..\..\..\liblc3\src/tables.h **** 
  64:..\..\..\liblc3\src/tables.h **** static inline int lc3_nt(enum lc3_srate sr) {
  65:..\..\..\liblc3\src/tables.h ****     return lc3_ns_2m5[sr] >> 1;
 1488              		.loc 2 65 0
 1489 0044 5910     		asrs	r1, r3, #1
 1490 0046 8B46     		mov	fp, r1
 1491              	.LVL236:
 1492              	.LBE154:
 1493              	.LBE153:
 297:..\..\..\liblc3\src/lc3.c ****     float *xf = xs;
 1494              		.loc 1 297 0
 1495 0048 9523     		movs	r3, #149
 1496 004a DB00     		lsls	r3, r3, #3
 1497 004c E358     		ldr	r3, [r4, r3]
 1498 004e 9B00     		lsls	r3, r3, #2
 1499 0050 9046     		mov	r8, r2
 1500 0052 9844     		add	r8, r8, r3
 1501              	.LVL237:
 302:..\..\..\liblc3\src/lc3.c **** 
 1502              		.loc 1 302 0
 1503 0054 231D     		adds	r3, r4, #4
 1504 0056 0097     		str	r7, [sp]
 1505 0058 089A     		ldr	r2, [sp, #32]
 1506 005a 0799     		ldr	r1, [sp, #28]
 1507 005c 0590     		str	r0, [sp, #20]
 1508 005e FFF7FEFF 		bl	lc3_attdet_run
ARM GAS  C:\Users\rdn\AppData\Local\Temp\cco7w9JJ.s 			page 42


 1509              	.LVL238:
 1510 0062 0990     		str	r0, [sp, #36]
 1511              	.LVL239:
 305:..\..\..\liblc3\src/lc3.c **** 
 1512              		.loc 1 305 0
 1513 0064 2A1D     		adds	r2, r5, #4
 1514 0066 9146     		mov	r9, r2
 1515 0068 2200     		movs	r2, r4
 1516 006a 1032     		adds	r2, r2, #16
 1517 006c 4946     		mov	r1, r9
 1518 006e 0091     		str	r1, [sp]
 1519 0070 3B00     		movs	r3, r7
 1520 0072 0799     		ldr	r1, [sp, #28]
 1521 0074 0598     		ldr	r0, [sp, #20]
 1522 0076 FFF7FEFF 		bl	lc3_ltpf_analyse
 1523              	.LVL240:
 304:..\..\..\liblc3\src/lc3.c ****         lc3_ltpf_analyse(dt, sr_pcm, &encoder->ltpf, xt, &side->ltpf);
 1524              		.loc 1 304 0
 1525 007a 6870     		strb	r0, [r5, #1]
 307:..\..\..\liblc3\src/lc3.c **** 
 1526              		.loc 1 307 0
 1527 007c 5A46     		mov	r2, fp
 1528 007e 5200     		lsls	r2, r2, #1
 1529 0080 B81A     		subs	r0, r7, r2
 1530 0082 5146     		mov	r1, r10
 1531 0084 5B46     		mov	r3, fp
 1532 0086 C91A     		subs	r1, r1, r3
 1533 0088 4900     		lsls	r1, r1, #1
 1534 008a 7918     		adds	r1, r7, r1
 1535 008c FFF7FEFF 		bl	memmove
 1536              	.LVL241:
 313:..\..\..\liblc3\src/lc3.c **** 
 1537              		.loc 1 313 0
 1538 0090 0196     		str	r6, [sp, #4]
 1539 0092 4246     		mov	r2, r8
 1540 0094 0092     		str	r2, [sp]
 1541 0096 3300     		movs	r3, r6
 1542 0098 069A     		ldr	r2, [sp, #24]
 1543 009a 0799     		ldr	r1, [sp, #28]
 1544 009c 059F     		ldr	r7, [sp, #20]
 1545              	.LVL242:
 1546 009e 3800     		movs	r0, r7
 1547 00a0 FFF7FEFF 		bl	lc3_mdct_forward
 1548              	.LVL243:
 315:..\..\..\liblc3\src/lc3.c ****     if (nn_flag)
 1549              		.loc 1 315 0
 1550 00a4 0AAB     		add	r3, sp, #40
 1551 00a6 3200     		movs	r2, r6
 1552 00a8 0699     		ldr	r1, [sp, #24]
 1553 00aa 3800     		movs	r0, r7
 1554 00ac FFF7FEFF 		bl	lc3_energy_compute
 1555              	.LVL244:
 1556 00b0 0790     		str	r0, [sp, #28]
 1557              	.LVL245:
 316:..\..\..\liblc3\src/lc3.c ****         lc3_ltpf_disable(&side->ltpf);
 1558              		.loc 1 316 0
 1559 00b2 0028     		cmp	r0, #0
ARM GAS  C:\Users\rdn\AppData\Local\Temp\cco7w9JJ.s 			page 43


 1560 00b4 02D0     		beq	.L106
 317:..\..\..\liblc3\src/lc3.c **** 
 1561              		.loc 1 317 0
 1562 00b6 4846     		mov	r0, r9
 1563              	.LVL246:
 1564 00b8 FFF7FEFF 		bl	lc3_ltpf_disable
 1565              	.LVL247:
 1566              	.L106:
 319:..\..\..\liblc3\src/lc3.c **** 
 1567              		.loc 1 319 0
 1568 00bc 0AAA     		add	r2, sp, #40
 1569 00be 0699     		ldr	r1, [sp, #24]
 1570 00c0 059F     		ldr	r7, [sp, #20]
 1571 00c2 3800     		movs	r0, r7
 1572 00c4 FFF7FEFF 		bl	lc3_bwdet_run
 1573              	.LVL248:
 1574 00c8 2870     		strb	r0, [r5]
 321:..\..\..\liblc3\src/lc3.c **** 
 1575              		.loc 1 321 0
 1576 00ca 0396     		str	r6, [sp, #12]
 1577 00cc 0296     		str	r6, [sp, #8]
 1578 00ce 2B00     		movs	r3, r5
 1579 00d0 0C33     		adds	r3, r3, #12
 1580 00d2 0193     		str	r3, [sp, #4]
 1581 00d4 099B     		ldr	r3, [sp, #36]
 1582 00d6 0093     		str	r3, [sp]
 1583 00d8 0AAB     		add	r3, sp, #40
 1584 00da 089A     		ldr	r2, [sp, #32]
 1585 00dc 0699     		ldr	r1, [sp, #24]
 1586 00de 0597     		str	r7, [sp, #20]
 1587              	.LVL249:
 1588 00e0 3800     		movs	r0, r7
 1589 00e2 FFF7FEFF 		bl	lc3_sns_analyze
 1590              	.LVL250:
 323:..\..\..\liblc3\src/lc3.c **** 
 1591              		.loc 1 323 0
 1592 00e6 2B00     		movs	r3, r5
 1593 00e8 2833     		adds	r3, r3, #40
 1594 00ea 1F00     		movs	r7, r3
 1595 00ec 2978     		ldrb	r1, [r5]
 1596 00ee 0196     		str	r6, [sp, #4]
 1597 00f0 0093     		str	r3, [sp]
 1598 00f2 089B     		ldr	r3, [sp, #32]
 1599 00f4 079A     		ldr	r2, [sp, #28]
 1600 00f6 0598     		ldr	r0, [sp, #20]
 1601 00f8 FFF7FEFF 		bl	lc3_tns_analyze
 1602              	.LVL251:
 325:..\..\..\liblc3\src/lc3.c ****         nbytes, side->pitch_present, &side->tns,
 1603              		.loc 1 325 0
 1604 00fc 6B78     		ldrb	r3, [r5, #1]
 1605 00fe 7835     		adds	r5, r5, #120
 1606              	.LVL252:
 1607 0100 0395     		str	r5, [sp, #12]
 1608 0102 0296     		str	r6, [sp, #8]
 1609 0104 9325     		movs	r5, #147
 1610              	.LVL253:
 1611 0106 ED00     		lsls	r5, r5, #3
ARM GAS  C:\Users\rdn\AppData\Local\Temp\cco7w9JJ.s 			page 44


 1612 0108 AC46     		mov	ip, r5
 1613 010a 6444     		add	r4, r4, ip
 1614              	.LVL254:
 1615 010c 0194     		str	r4, [sp, #4]
 1616 010e 0097     		str	r7, [sp]
 1617 0110 089A     		ldr	r2, [sp, #32]
 1618 0112 0699     		ldr	r1, [sp, #24]
 1619 0114 0598     		ldr	r0, [sp, #20]
 1620 0116 FFF7FEFF 		bl	lc3_spec_analyze
 1621              	.LVL255:
 328:..\..\..\liblc3\src/lc3.c **** 
 1622              		.loc 1 328 0
 1623 011a 4BB0     		add	sp, sp, #300
 1624              		@ sp needed
 1625              	.LVL256:
 1626              	.LVL257:
 1627              	.LVL258:
 1628              	.LVL259:
 1629              	.LVL260:
 1630 011c 3CBC     		pop	{r2, r3, r4, r5}
 1631 011e 9046     		mov	r8, r2
 1632 0120 9946     		mov	r9, r3
 1633 0122 A246     		mov	r10, r4
 1634 0124 AB46     		mov	fp, r5
 1635 0126 F0BD     		pop	{r4, r5, r6, r7, pc}
 1636              	.L108:
 1637              		.align	2
 1638              	.L107:
 1639 0128 AC040000 		.word	1196
 1640 012c A4040000 		.word	1188
 1641 0130 00000000 		.word	lc3_ns_2m5
 1642              		.cfi_endproc
 1643              	.LFE36:
 1644              		.size	analyze, .-analyze
 1645              		.section	.text.encode,"ax",%progbits
 1646              		.align	2
 1647              		.code	16
 1648              		.thumb_func
 1649              		.type	encode, %function
 1650              	encode:
 1651              	.LFB37:
 339:..\..\..\liblc3\src/lc3.c ****     enum lc3_dt dt = encoder->dt;
 1652              		.loc 1 339 0
 1653              		.cfi_startproc
 1654              		@ args = 0, pretend = 0, frame = 72
 1655              		@ frame_needed = 0, uses_anonymous_args = 0
 1656              	.LVL261:
 1657 0000 F0B5     		push	{r4, r5, r6, r7, lr}
 1658              		.cfi_def_cfa_offset 20
 1659              		.cfi_offset 4, -20
 1660              		.cfi_offset 5, -16
 1661              		.cfi_offset 6, -12
 1662              		.cfi_offset 7, -8
 1663              		.cfi_offset 14, -4
 1664 0002 4F46     		mov	r7, r9
 1665 0004 80B4     		push	{r7}
 1666              		.cfi_def_cfa_offset 24
ARM GAS  C:\Users\rdn\AppData\Local\Temp\cco7w9JJ.s 			page 45


 1667              		.cfi_offset 9, -24
 1668 0006 96B0     		sub	sp, sp, #88
 1669              		.cfi_def_cfa_offset 112
 1670 0008 0E00     		movs	r6, r1
 1671 000a 1700     		movs	r7, r2
 1672 000c 1A00     		movs	r2, r3
 1673              	.LVL262:
 340:..\..\..\liblc3\src/lc3.c ****     enum lc3_srate sr = encoder->sr;
 1674              		.loc 1 340 0
 1675 000e 0378     		ldrb	r3, [r0]
 1676              	.LVL263:
 1677 0010 0593     		str	r3, [sp, #20]
 1678              	.LVL264:
 341:..\..\..\liblc3\src/lc3.c **** 
 1679              		.loc 1 341 0
 1680 0012 4478     		ldrb	r4, [r0, #1]
 1681              	.LVL265:
 343:..\..\..\liblc3\src/lc3.c ****     enum lc3_bandwidth bw = side->bw;
 1682              		.loc 1 343 0
 1683 0014 264D     		ldr	r5, .L113
 1684 0016 4119     		adds	r1, r0, r5
 1685              	.LVL266:
 1686 0018 264B     		ldr	r3, .L113+4
 1687 001a C358     		ldr	r3, [r0, r3]
 1688 001c 9B00     		lsls	r3, r3, #2
 1689 001e 8946     		mov	r9, r1
 1690 0020 9944     		add	r9, r9, r3
 1691              	.LVL267:
 344:..\..\..\liblc3\src/lc3.c **** 
 1692              		.loc 1 344 0
 1693 0022 3078     		ldrb	r0, [r6]
 1694              	.LVL268:
 1695 0024 0500     		movs	r5, r0
 1696 0026 0690     		str	r0, [sp, #24]
 1697              	.LVL269:
 348:..\..\..\liblc3\src/lc3.c **** 
 1698              		.loc 1 348 0
 1699 0028 3B00     		movs	r3, r7
 1700 002a 0121     		movs	r1, #1
 1701              	.LVL270:
 1702 002c 08A8     		add	r0, sp, #32
 1703 002e FFF7FEFF 		bl	lc3_setup_bits
 1704              	.LVL271:
 350:..\..\..\liblc3\src/lc3.c **** 
 1705              		.loc 1 350 0
 1706 0032 2A00     		movs	r2, r5
 1707 0034 2100     		movs	r1, r4
 1708 0036 08A8     		add	r0, sp, #32
 1709 0038 FFF7FEFF 		bl	lc3_bwdet_put_bw
 1710              	.LVL272:
 352:..\..\..\liblc3\src/lc3.c **** 
 1711              		.loc 1 352 0
 1712 003c 3500     		movs	r5, r6
 1713              	.LVL273:
 1714 003e 7835     		adds	r5, r5, #120
 1715 0040 2B00     		movs	r3, r5
 1716 0042 2200     		movs	r2, r4
ARM GAS  C:\Users\rdn\AppData\Local\Temp\cco7w9JJ.s 			page 46


 1717 0044 0599     		ldr	r1, [sp, #20]
 1718 0046 08A8     		add	r0, sp, #32
 1719 0048 FFF7FEFF 		bl	lc3_spec_put_side
 1720              	.LVL274:
 354:..\..\..\liblc3\src/lc3.c **** 
 1721              		.loc 1 354 0
 1722 004c 3100     		movs	r1, r6
 1723 004e 2831     		adds	r1, r1, #40
 1724 0050 08A8     		add	r0, sp, #32
 1725 0052 FFF7FEFF 		bl	lc3_tns_put_data
 1726              	.LVL275:
 356:..\..\..\liblc3\src/lc3.c **** 
 1727              		.loc 1 356 0
 1728 0056 7178     		ldrb	r1, [r6, #1]
 1729              	.LVL276:
 1730              	.LBB159:
 1731              	.LBB160:
 1732              	.LBB161:
 1733              	.LBB162:
 1734              		.file 4 "..\\..\\..\\liblc3\\src\\bits.h"
   1:..\..\..\liblc3\src/bits.h **** /******************************************************************************
   2:..\..\..\liblc3\src/bits.h ****  *
   3:..\..\..\liblc3\src/bits.h ****  *  Copyright 2022 Google LLC
   4:..\..\..\liblc3\src/bits.h ****  *
   5:..\..\..\liblc3\src/bits.h ****  *  Licensed under the Apache License, Version 2.0 (the "License");
   6:..\..\..\liblc3\src/bits.h ****  *  you may not use this file except in compliance with the License.
   7:..\..\..\liblc3\src/bits.h ****  *  You may obtain a copy of the License at:
   8:..\..\..\liblc3\src/bits.h ****  *
   9:..\..\..\liblc3\src/bits.h ****  *  http://www.apache.org/licenses/LICENSE-2.0
  10:..\..\..\liblc3\src/bits.h ****  *
  11:..\..\..\liblc3\src/bits.h ****  *  Unless required by applicable law or agreed to in writing, software
  12:..\..\..\liblc3\src/bits.h ****  *  distributed under the License is distributed on an "AS IS" BASIS,
  13:..\..\..\liblc3\src/bits.h ****  *  WITHOUT WARRANTIES OR CONDITIONS OF ANY KIND, either express or implied.
  14:..\..\..\liblc3\src/bits.h ****  *  See the License for the specific language governing permissions and
  15:..\..\..\liblc3\src/bits.h ****  *  limitations under the License.
  16:..\..\..\liblc3\src/bits.h ****  *
  17:..\..\..\liblc3\src/bits.h ****  ******************************************************************************/
  18:..\..\..\liblc3\src/bits.h **** 
  19:..\..\..\liblc3\src/bits.h **** /**
  20:..\..\..\liblc3\src/bits.h ****  * The bitstream is written by the 2 ends of the buffer :
  21:..\..\..\liblc3\src/bits.h ****  *
  22:..\..\..\liblc3\src/bits.h ****  * - Arthmetic coder put bits while increasing memory addresses
  23:..\..\..\liblc3\src/bits.h ****  *   in the buffer (forward)
  24:..\..\..\liblc3\src/bits.h ****  *
  25:..\..\..\liblc3\src/bits.h ****  * - Plain bits are puts starting the end of the buffer, with memeory
  26:..\..\..\liblc3\src/bits.h ****  *   addresses decreasing (backward)
  27:..\..\..\liblc3\src/bits.h ****  *
  28:..\..\..\liblc3\src/bits.h ****  *       .---------------------------------------------------.
  29:..\..\..\liblc3\src/bits.h ****  *       | > > > > > > > > > > :         : < < < < < < < < < |
  30:..\..\..\liblc3\src/bits.h ****  *       '---------------------------------------------------'
  31:..\..\..\liblc3\src/bits.h ****  *       |---------------------> - - - - - - - - - - - - - ->|
  32:..\..\..\liblc3\src/bits.h ****  *                              |< - - - <-------------------|
  33:..\..\..\liblc3\src/bits.h ****  *          Arithmetic coding                  Plain bits
  34:..\..\..\liblc3\src/bits.h ****  *          `lc3_put_symbol()`               `lc3_put_bits()`
  35:..\..\..\liblc3\src/bits.h ****  *
  36:..\..\..\liblc3\src/bits.h ****  * - The forward writing is protected against buffer overflow, it cannot
  37:..\..\..\liblc3\src/bits.h ****  *   write after the buffer, but can overwrite plain bits previously
ARM GAS  C:\Users\rdn\AppData\Local\Temp\cco7w9JJ.s 			page 47


  38:..\..\..\liblc3\src/bits.h ****  *   written in the buffer.
  39:..\..\..\liblc3\src/bits.h ****  *
  40:..\..\..\liblc3\src/bits.h ****  * - The backward writing is protected against overwrite of the arithmetic
  41:..\..\..\liblc3\src/bits.h ****  *   coder bitstream. In such way, the backward bitstream is always limited
  42:..\..\..\liblc3\src/bits.h ****  *   by the aritmetic coder bitstream, and can be overwritten by him.
  43:..\..\..\liblc3\src/bits.h ****  *
  44:..\..\..\liblc3\src/bits.h ****  *       .---------------------------------------------------.
  45:..\..\..\liblc3\src/bits.h ****  *       | > > > > > > > > > > :         : < < < < < < < < < |
  46:..\..\..\liblc3\src/bits.h ****  *       '---------------------------------------------------'
  47:..\..\..\liblc3\src/bits.h ****  *       |---------------------> - - - - - - - - - - - - - ->|
  48:..\..\..\liblc3\src/bits.h ****  *       |< - - - - - - - - - - -  - - - <-------------------|
  49:..\..\..\liblc3\src/bits.h ****  *          Arithmetic coding                  Plain bits
  50:..\..\..\liblc3\src/bits.h ****  *          `lc3_get_symbol()`               `lc3_get_bits()`
  51:..\..\..\liblc3\src/bits.h ****  *
  52:..\..\..\liblc3\src/bits.h ****  * - Reading is limited to read of the complementary end of the buffer.
  53:..\..\..\liblc3\src/bits.h ****  *
  54:..\..\..\liblc3\src/bits.h ****  * - The procedure `lc3_check_bits()` returns indication that read has been
  55:..\..\..\liblc3\src/bits.h ****  *   made crossing the other bit plane.
  56:..\..\..\liblc3\src/bits.h ****  *
  57:..\..\..\liblc3\src/bits.h ****  */
  58:..\..\..\liblc3\src/bits.h **** 
  59:..\..\..\liblc3\src/bits.h **** #ifndef __LC3_BITS_H
  60:..\..\..\liblc3\src/bits.h **** #define __LC3_BITS_H
  61:..\..\..\liblc3\src/bits.h **** 
  62:..\..\..\liblc3\src/bits.h **** #include "common.h"
  63:..\..\..\liblc3\src/bits.h **** 
  64:..\..\..\liblc3\src/bits.h **** 
  65:..\..\..\liblc3\src/bits.h **** /**
  66:..\..\..\liblc3\src/bits.h ****  * Bitstream mode
  67:..\..\..\liblc3\src/bits.h ****  */
  68:..\..\..\liblc3\src/bits.h **** 
  69:..\..\..\liblc3\src/bits.h **** enum lc3_bits_mode {
  70:..\..\..\liblc3\src/bits.h ****     LC3_BITS_MODE_READ,
  71:..\..\..\liblc3\src/bits.h ****     LC3_BITS_MODE_WRITE,
  72:..\..\..\liblc3\src/bits.h **** };
  73:..\..\..\liblc3\src/bits.h **** 
  74:..\..\..\liblc3\src/bits.h **** /**
  75:..\..\..\liblc3\src/bits.h ****  * Arithmetic coder symbol interval
  76:..\..\..\liblc3\src/bits.h ****  * The model split the interval in 17 symbols
  77:..\..\..\liblc3\src/bits.h ****  */
  78:..\..\..\liblc3\src/bits.h **** 
  79:..\..\..\liblc3\src/bits.h **** struct lc3_ac_symbol {
  80:..\..\..\liblc3\src/bits.h ****     uint16_t low   : 16;
  81:..\..\..\liblc3\src/bits.h ****     uint16_t range : 16;
  82:..\..\..\liblc3\src/bits.h **** };
  83:..\..\..\liblc3\src/bits.h **** 
  84:..\..\..\liblc3\src/bits.h **** struct lc3_ac_model {
  85:..\..\..\liblc3\src/bits.h ****     struct lc3_ac_symbol s[17];
  86:..\..\..\liblc3\src/bits.h **** };
  87:..\..\..\liblc3\src/bits.h **** 
  88:..\..\..\liblc3\src/bits.h **** /**
  89:..\..\..\liblc3\src/bits.h ****  * Bitstream context
  90:..\..\..\liblc3\src/bits.h ****  */
  91:..\..\..\liblc3\src/bits.h **** 
  92:..\..\..\liblc3\src/bits.h **** #define LC3_ACCU_BITS (int)(8 * sizeof(unsigned))
  93:..\..\..\liblc3\src/bits.h **** 
  94:..\..\..\liblc3\src/bits.h **** struct lc3_bits_accu {
ARM GAS  C:\Users\rdn\AppData\Local\Temp\cco7w9JJ.s 			page 48


  95:..\..\..\liblc3\src/bits.h ****     unsigned v;
  96:..\..\..\liblc3\src/bits.h ****     int n, nover;
  97:..\..\..\liblc3\src/bits.h **** };
  98:..\..\..\liblc3\src/bits.h **** 
  99:..\..\..\liblc3\src/bits.h **** #define LC3_AC_BITS (int)(24)
 100:..\..\..\liblc3\src/bits.h **** 
 101:..\..\..\liblc3\src/bits.h **** struct lc3_bits_ac {
 102:..\..\..\liblc3\src/bits.h ****     unsigned low, range;
 103:..\..\..\liblc3\src/bits.h ****     int cache, carry, carry_count;
 104:..\..\..\liblc3\src/bits.h ****     bool error;
 105:..\..\..\liblc3\src/bits.h **** };
 106:..\..\..\liblc3\src/bits.h **** 
 107:..\..\..\liblc3\src/bits.h **** struct lc3_bits_buffer {
 108:..\..\..\liblc3\src/bits.h ****     const uint8_t *start, *end;
 109:..\..\..\liblc3\src/bits.h ****     uint8_t *p_fw, *p_bw;
 110:..\..\..\liblc3\src/bits.h **** };
 111:..\..\..\liblc3\src/bits.h **** 
 112:..\..\..\liblc3\src/bits.h **** typedef struct lc3_bits {
 113:..\..\..\liblc3\src/bits.h ****     enum lc3_bits_mode mode;
 114:..\..\..\liblc3\src/bits.h ****     struct lc3_bits_ac ac;
 115:..\..\..\liblc3\src/bits.h ****     struct lc3_bits_accu accu;
 116:..\..\..\liblc3\src/bits.h ****     struct lc3_bits_buffer buffer;
 117:..\..\..\liblc3\src/bits.h **** } lc3_bits_t;
 118:..\..\..\liblc3\src/bits.h **** 
 119:..\..\..\liblc3\src/bits.h **** 
 120:..\..\..\liblc3\src/bits.h **** /**
 121:..\..\..\liblc3\src/bits.h ****  * Setup bitstream reading/writing
 122:..\..\..\liblc3\src/bits.h ****  * bits            Bitstream context
 123:..\..\..\liblc3\src/bits.h ****  * mode            Either READ or WRITE mode
 124:..\..\..\liblc3\src/bits.h ****  * buffer, len     Output buffer and length (in bytes)
 125:..\..\..\liblc3\src/bits.h ****  */
 126:..\..\..\liblc3\src/bits.h **** void lc3_setup_bits(lc3_bits_t *bits,
 127:..\..\..\liblc3\src/bits.h ****     enum lc3_bits_mode mode, void *buffer, int len);
 128:..\..\..\liblc3\src/bits.h **** 
 129:..\..\..\liblc3\src/bits.h **** /**
 130:..\..\..\liblc3\src/bits.h ****  * Return number of bits left in the bitstream
 131:..\..\..\liblc3\src/bits.h ****  * bits            Bitstream context
 132:..\..\..\liblc3\src/bits.h ****  * return          Number of bits left
 133:..\..\..\liblc3\src/bits.h ****  */
 134:..\..\..\liblc3\src/bits.h **** int lc3_get_bits_left(const lc3_bits_t *bits);
 135:..\..\..\liblc3\src/bits.h **** 
 136:..\..\..\liblc3\src/bits.h **** /**
 137:..\..\..\liblc3\src/bits.h ****  * Check if error occured on bitstream reading/writing
 138:..\..\..\liblc3\src/bits.h ****  * bits            Bitstream context
 139:..\..\..\liblc3\src/bits.h ****  * return          0: Ok  -1: Bitstream overflow or AC reading error
 140:..\..\..\liblc3\src/bits.h ****  */
 141:..\..\..\liblc3\src/bits.h **** int lc3_check_bits(const lc3_bits_t *bits);
 142:..\..\..\liblc3\src/bits.h **** 
 143:..\..\..\liblc3\src/bits.h **** /**
 144:..\..\..\liblc3\src/bits.h ****  * Put a bit
 145:..\..\..\liblc3\src/bits.h ****  * bits            Bitstream context
 146:..\..\..\liblc3\src/bits.h ****  * v               Bit value, 0 or 1
 147:..\..\..\liblc3\src/bits.h ****  */
 148:..\..\..\liblc3\src/bits.h **** static inline void lc3_put_bit(lc3_bits_t *bits, int v);
 149:..\..\..\liblc3\src/bits.h **** 
 150:..\..\..\liblc3\src/bits.h **** /**
 151:..\..\..\liblc3\src/bits.h ****  * Put from 1 to 32 bits
ARM GAS  C:\Users\rdn\AppData\Local\Temp\cco7w9JJ.s 			page 49


 152:..\..\..\liblc3\src/bits.h ****  * bits            Bitstream context
 153:..\..\..\liblc3\src/bits.h ****  * v, n            Value, in range 0 to 2^n - 1, and bits count (1 to 32)
 154:..\..\..\liblc3\src/bits.h ****  */
 155:..\..\..\liblc3\src/bits.h **** static inline void lc3_put_bits(lc3_bits_t *bits, unsigned v, int n);
 156:..\..\..\liblc3\src/bits.h **** 
 157:..\..\..\liblc3\src/bits.h **** /**
 158:..\..\..\liblc3\src/bits.h ****  * Put arithmetic coder symbol
 159:..\..\..\liblc3\src/bits.h ****  * bits            Bitstream context
 160:..\..\..\liblc3\src/bits.h ****  * model, s        Model distribution and symbol value
 161:..\..\..\liblc3\src/bits.h ****  */
 162:..\..\..\liblc3\src/bits.h **** static inline void lc3_put_symbol(lc3_bits_t *bits,
 163:..\..\..\liblc3\src/bits.h ****     const struct lc3_ac_model *model, unsigned s);
 164:..\..\..\liblc3\src/bits.h **** 
 165:..\..\..\liblc3\src/bits.h **** /**
 166:..\..\..\liblc3\src/bits.h ****  * Flush and terminate bitstream writing
 167:..\..\..\liblc3\src/bits.h ****  * bits            Bitstream context
 168:..\..\..\liblc3\src/bits.h ****  */
 169:..\..\..\liblc3\src/bits.h **** void lc3_flush_bits(lc3_bits_t *bits);
 170:..\..\..\liblc3\src/bits.h **** 
 171:..\..\..\liblc3\src/bits.h **** /**
 172:..\..\..\liblc3\src/bits.h ****  * Get a bit
 173:..\..\..\liblc3\src/bits.h ****  * bits            Bitstream context
 174:..\..\..\liblc3\src/bits.h ****  */
 175:..\..\..\liblc3\src/bits.h **** static inline int lc3_get_bit(lc3_bits_t *bits);
 176:..\..\..\liblc3\src/bits.h **** 
 177:..\..\..\liblc3\src/bits.h **** /**
 178:..\..\..\liblc3\src/bits.h ****  * Get from 1 to 32 bits
 179:..\..\..\liblc3\src/bits.h ****  * bits            Bitstream context
 180:..\..\..\liblc3\src/bits.h ****  * n               Number of bits to read (1 to 32)
 181:..\..\..\liblc3\src/bits.h ****  * return          The value read
 182:..\..\..\liblc3\src/bits.h ****  */
 183:..\..\..\liblc3\src/bits.h **** static inline unsigned lc3_get_bits(lc3_bits_t *bits,  int n);
 184:..\..\..\liblc3\src/bits.h **** 
 185:..\..\..\liblc3\src/bits.h **** /**
 186:..\..\..\liblc3\src/bits.h ****  * Get arithmetic coder symbol
 187:..\..\..\liblc3\src/bits.h ****  * bits            Bitstream context
 188:..\..\..\liblc3\src/bits.h ****  * model           Model distribution
 189:..\..\..\liblc3\src/bits.h ****  * return          The value read
 190:..\..\..\liblc3\src/bits.h ****  */
 191:..\..\..\liblc3\src/bits.h **** static inline unsigned lc3_get_symbol(lc3_bits_t *bits,
 192:..\..\..\liblc3\src/bits.h ****     const struct lc3_ac_model *model);
 193:..\..\..\liblc3\src/bits.h **** 
 194:..\..\..\liblc3\src/bits.h **** 
 195:..\..\..\liblc3\src/bits.h **** 
 196:..\..\..\liblc3\src/bits.h **** /* ----------------------------------------------------------------------------
 197:..\..\..\liblc3\src/bits.h ****  *  Inline implementations
 198:..\..\..\liblc3\src/bits.h ****  * -------------------------------------------------------------------------- */
 199:..\..\..\liblc3\src/bits.h **** 
 200:..\..\..\liblc3\src/bits.h **** void lc3_put_bits_generic(lc3_bits_t *bits, unsigned v, int n);
 201:..\..\..\liblc3\src/bits.h **** unsigned lc3_get_bits_generic(struct lc3_bits *bits, int n);
 202:..\..\..\liblc3\src/bits.h **** 
 203:..\..\..\liblc3\src/bits.h **** void lc3_ac_read_renorm(lc3_bits_t *bits);
 204:..\..\..\liblc3\src/bits.h **** void lc3_ac_write_renorm(lc3_bits_t *bits);
 205:..\..\..\liblc3\src/bits.h **** 
 206:..\..\..\liblc3\src/bits.h **** 
 207:..\..\..\liblc3\src/bits.h **** /**
 208:..\..\..\liblc3\src/bits.h ****  * Put a bit
ARM GAS  C:\Users\rdn\AppData\Local\Temp\cco7w9JJ.s 			page 50


 209:..\..\..\liblc3\src/bits.h ****  */
 210:..\..\..\liblc3\src/bits.h **** LC3_HOT static inline void lc3_put_bit(lc3_bits_t *bits, int v)
 211:..\..\..\liblc3\src/bits.h **** {
 212:..\..\..\liblc3\src/bits.h ****     lc3_put_bits(bits, v, 1);
 213:..\..\..\liblc3\src/bits.h **** }
 214:..\..\..\liblc3\src/bits.h **** 
 215:..\..\..\liblc3\src/bits.h **** /**
 216:..\..\..\liblc3\src/bits.h ****  * Put from 1 to 32 bits
 217:..\..\..\liblc3\src/bits.h ****  */
 218:..\..\..\liblc3\src/bits.h **** LC3_HOT static inline void lc3_put_bits(
 219:..\..\..\liblc3\src/bits.h ****     struct lc3_bits *bits, unsigned v, int n)
 220:..\..\..\liblc3\src/bits.h **** {
 221:..\..\..\liblc3\src/bits.h ****     struct lc3_bits_accu *accu = &bits->accu;
 222:..\..\..\liblc3\src/bits.h **** 
 223:..\..\..\liblc3\src/bits.h ****     if (accu->n + n <= LC3_ACCU_BITS) {
 1735              		.loc 4 223 0
 1736 0058 109A     		ldr	r2, [sp, #64]
 1737 005a 531C     		adds	r3, r2, #1
 1738 005c 202B     		cmp	r3, #32
 1739 005e 06DC     		bgt	.L110
 224:..\..\..\liblc3\src/bits.h ****         accu->v |= v << accu->n;
 1740              		.loc 4 224 0
 1741 0060 9140     		lsls	r1, r1, r2
 1742              	.LVL277:
 1743 0062 0F9A     		ldr	r2, [sp, #60]
 1744 0064 0792     		str	r2, [sp, #28]
 1745              	.LVL278:
 1746 0066 1143     		orrs	r1, r2
 1747 0068 0F91     		str	r1, [sp, #60]
 225:..\..\..\liblc3\src/bits.h ****         accu->n += n;
 1748              		.loc 4 225 0
 1749 006a 1093     		str	r3, [sp, #64]
 1750 006c 03E0     		b	.L111
 1751              	.LVL279:
 1752              	.L110:
 226:..\..\..\liblc3\src/bits.h ****     } else {
 227:..\..\..\liblc3\src/bits.h ****         lc3_put_bits_generic(bits, v, n);
 1753              		.loc 4 227 0
 1754 006e 0122     		movs	r2, #1
 1755 0070 08A8     		add	r0, sp, #32
 1756              	.LVL280:
 1757 0072 FFF7FEFF 		bl	lc3_put_bits_generic
 1758              	.LVL281:
 1759              	.L111:
 1760              	.LBE162:
 1761              	.LBE161:
 1762              	.LBE160:
 1763              	.LBE159:
 358:..\..\..\liblc3\src/lc3.c **** 
 1764              		.loc 1 358 0
 1765 0076 3100     		movs	r1, r6
 1766 0078 0C31     		adds	r1, r1, #12
 1767 007a 08A8     		add	r0, sp, #32
 1768 007c FFF7FEFF 		bl	lc3_sns_put_data
 1769              	.LVL282:
 360:..\..\..\liblc3\src/lc3.c ****         lc3_ltpf_put_data(&bits, &side->ltpf);
 1770              		.loc 1 360 0
ARM GAS  C:\Users\rdn\AppData\Local\Temp\cco7w9JJ.s 			page 51


 1771 0080 7378     		ldrb	r3, [r6, #1]
 1772 0082 002B     		cmp	r3, #0
 1773 0084 03D0     		beq	.L112
 361:..\..\..\liblc3\src/lc3.c **** 
 1774              		.loc 1 361 0
 1775 0086 311D     		adds	r1, r6, #4
 1776 0088 08A8     		add	r0, sp, #32
 1777 008a FFF7FEFF 		bl	lc3_ltpf_put_data
 1778              	.LVL283:
 1779              	.L112:
 363:..\..\..\liblc3\src/lc3.c **** 
 1780              		.loc 1 363 0
 1781 008e 4B46     		mov	r3, r9
 1782 0090 0293     		str	r3, [sp, #8]
 1783 0092 0195     		str	r5, [sp, #4]
 1784 0094 0097     		str	r7, [sp]
 1785 0096 069B     		ldr	r3, [sp, #24]
 1786 0098 2200     		movs	r2, r4
 1787 009a 0599     		ldr	r1, [sp, #20]
 1788 009c 08A8     		add	r0, sp, #32
 1789 009e FFF7FEFF 		bl	lc3_spec_encode
 1790              	.LVL284:
 365:..\..\..\liblc3\src/lc3.c **** }
 1791              		.loc 1 365 0
 1792 00a2 08A8     		add	r0, sp, #32
 1793 00a4 FFF7FEFF 		bl	lc3_flush_bits
 1794              	.LVL285:
 366:..\..\..\liblc3\src/lc3.c **** 
 1795              		.loc 1 366 0
 1796 00a8 16B0     		add	sp, sp, #88
 1797              		@ sp needed
 1798              	.LVL286:
 1799              	.LVL287:
 1800              	.LVL288:
 1801              	.LVL289:
 1802 00aa 04BC     		pop	{r2}
 1803 00ac 9146     		mov	r9, r2
 1804 00ae F0BD     		pop	{r4, r5, r6, r7, pc}
 1805              	.L114:
 1806              		.align	2
 1807              	.L113:
 1808 00b0 AC040000 		.word	1196
 1809 00b4 A4040000 		.word	1188
 1810              		.cfi_endproc
 1811              	.LFE37:
 1812              		.size	encode, .-encode
 1813              		.section	.text.decode,"ax",%progbits
 1814              		.align	2
 1815              		.code	16
 1816              		.thumb_func
 1817              		.type	decode, %function
 1818              	decode:
 1819              	.LFB47:
 567:..\..\..\liblc3\src/lc3.c ****     enum lc3_dt dt = decoder->dt;
 1820              		.loc 1 567 0
 1821              		.cfi_startproc
 1822              		@ args = 0, pretend = 0, frame = 64
ARM GAS  C:\Users\rdn\AppData\Local\Temp\cco7w9JJ.s 			page 52


 1823              		@ frame_needed = 0, uses_anonymous_args = 0
 1824              	.LVL290:
 1825 0000 F0B5     		push	{r4, r5, r6, r7, lr}
 1826              		.cfi_def_cfa_offset 20
 1827              		.cfi_offset 4, -20
 1828              		.cfi_offset 5, -16
 1829              		.cfi_offset 6, -12
 1830              		.cfi_offset 7, -8
 1831              		.cfi_offset 14, -4
 1832 0002 5F46     		mov	r7, fp
 1833 0004 4E46     		mov	r6, r9
 1834 0006 4546     		mov	r5, r8
 1835 0008 E0B4     		push	{r5, r6, r7}
 1836              		.cfi_def_cfa_offset 32
 1837              		.cfi_offset 8, -32
 1838              		.cfi_offset 9, -28
 1839              		.cfi_offset 11, -24
 1840 000a 94B0     		sub	sp, sp, #80
 1841              		.cfi_def_cfa_offset 112
 1842 000c 0492     		str	r2, [sp, #16]
 1843 000e 1D00     		movs	r5, r3
 568:..\..\..\liblc3\src/lc3.c ****     enum lc3_srate sr = decoder->sr;
 1844              		.loc 1 568 0
 1845 0010 0678     		ldrb	r6, [r0]
 1846              	.LVL291:
 569:..\..\..\liblc3\src/lc3.c **** 
 1847              		.loc 1 569 0
 1848 0012 4378     		ldrb	r3, [r0, #1]
 1849              	.LVL292:
 1850 0014 9846     		mov	r8, r3
 1851              	.LVL293:
 571:..\..\..\liblc3\src/lc3.c ****     int ns = lc3_ns(dt, sr);
 1852              		.loc 1 571 0
 1853 0016 0300     		movs	r3, r0
 1854 0018 B833     		adds	r3, r3, #184
 1855 001a AC22     		movs	r2, #172
 1856              	.LVL294:
 1857 001c 8458     		ldr	r4, [r0, r2]
 1858 001e A400     		lsls	r4, r4, #2
 1859 0020 1C19     		adds	r4, r3, r4
 1860              	.LVL295:
 1861              	.LBB172:
 1862              	.LBB173:
  47:..\..\..\liblc3\src/tables.h **** }
 1863              		.loc 2 47 0
 1864 0022 4346     		mov	r3, r8
 1865 0024 9800     		lsls	r0, r3, #2
 1866              	.LVL296:
 1867 0026 344B     		ldr	r3, .L125
 1868 0028 C758     		ldr	r7, [r0, r3]
 1869 002a 731C     		adds	r3, r6, #1
 1870 002c 5F43     		muls	r7, r3
 1871 002e B946     		mov	r9, r7
 1872              	.LVL297:
 1873              	.LBE173:
 1874              	.LBE172:
 1875              	.LBB174:
ARM GAS  C:\Users\rdn\AppData\Local\Temp\cco7w9JJ.s 			page 53


 1876              	.LBB175:
  51:..\..\..\liblc3\src/tables.h **** }
 1877              		.loc 2 51 0
 1878 0030 324A     		ldr	r2, .L125+4
 1879 0032 8758     		ldr	r7, [r0, r2]
 1880 0034 5F43     		muls	r7, r3
 1881              	.LVL298:
 1882              	.LBE175:
 1883              	.LBE174:
 578:..\..\..\liblc3\src/lc3.c **** 
 1884              		.loc 1 578 0
 1885 0036 049B     		ldr	r3, [sp, #16]
 1886 0038 0A00     		movs	r2, r1
 1887 003a 0021     		movs	r1, #0
 1888              	.LVL299:
 1889 003c 06A8     		add	r0, sp, #24
 1890 003e FFF7FEFF 		bl	lc3_setup_bits
 1891              	.LVL300:
 580:..\..\..\liblc3\src/lc3.c ****         return ret;
 1892              		.loc 1 580 0
 1893 0042 2A00     		movs	r2, r5
 1894 0044 4146     		mov	r1, r8
 1895 0046 06A8     		add	r0, sp, #24
 1896 0048 FFF7FEFF 		bl	lc3_bwdet_get_bw
 1897              	.LVL301:
 1898 004c 0028     		cmp	r0, #0
 1899 004e 4DDB     		blt	.L116
 583:..\..\..\liblc3\src/lc3.c ****         return ret;
 1900              		.loc 1 583 0
 1901 0050 7822     		movs	r2, #120
 1902 0052 9346     		mov	fp, r2
 1903 0054 AB44     		add	fp, fp, r5
 1904 0056 5B46     		mov	r3, fp
 1905 0058 4246     		mov	r2, r8
 1906 005a 3100     		movs	r1, r6
 1907 005c 06A8     		add	r0, sp, #24
 1908              	.LVL302:
 1909 005e FFF7FEFF 		bl	lc3_spec_get_side
 1910              	.LVL303:
 1911 0062 0028     		cmp	r0, #0
 1912 0064 42DB     		blt	.L116
 586:..\..\..\liblc3\src/lc3.c ****         return ret;
 1913              		.loc 1 586 0
 1914 0066 2A78     		ldrb	r2, [r5]
 1915 0068 2B00     		movs	r3, r5
 1916 006a 2833     		adds	r3, r3, #40
 1917 006c 0093     		str	r3, [sp]
 1918 006e 049B     		ldr	r3, [sp, #16]
 1919 0070 3100     		movs	r1, r6
 1920 0072 06A8     		add	r0, sp, #24
 1921              	.LVL304:
 1922 0074 FFF7FEFF 		bl	lc3_tns_get_data
 1923              	.LVL305:
 1924 0078 0028     		cmp	r0, #0
 1925 007a 37DB     		blt	.L116
 1926              	.LVL306:
 1927              	.LBB176:
ARM GAS  C:\Users\rdn\AppData\Local\Temp\cco7w9JJ.s 			page 54


 1928              	.LBB177:
 1929              	.LBB178:
 1930              	.LBB179:
 228:..\..\..\liblc3\src/bits.h ****     }
 229:..\..\..\liblc3\src/bits.h **** }
 230:..\..\..\liblc3\src/bits.h **** 
 231:..\..\..\liblc3\src/bits.h **** /**
 232:..\..\..\liblc3\src/bits.h ****  * Get a bit
 233:..\..\..\liblc3\src/bits.h ****  */
 234:..\..\..\liblc3\src/bits.h **** LC3_HOT static inline int lc3_get_bit(lc3_bits_t *bits)
 235:..\..\..\liblc3\src/bits.h **** {
 236:..\..\..\liblc3\src/bits.h ****     return lc3_get_bits(bits, 1);
 237:..\..\..\liblc3\src/bits.h **** }
 238:..\..\..\liblc3\src/bits.h **** 
 239:..\..\..\liblc3\src/bits.h **** /**
 240:..\..\..\liblc3\src/bits.h ****  * Get from 1 to 32 bits
 241:..\..\..\liblc3\src/bits.h ****  */
 242:..\..\..\liblc3\src/bits.h **** LC3_HOT static inline unsigned lc3_get_bits(struct lc3_bits *bits, int n)
 243:..\..\..\liblc3\src/bits.h **** {
 244:..\..\..\liblc3\src/bits.h ****     struct lc3_bits_accu *accu = &bits->accu;
 245:..\..\..\liblc3\src/bits.h **** 
 246:..\..\..\liblc3\src/bits.h ****     if (accu->n + n <= LC3_ACCU_BITS) {
 1931              		.loc 4 246 0
 1932 007c 0E9B     		ldr	r3, [sp, #56]
 1933 007e 5A1C     		adds	r2, r3, #1
 1934 0080 202A     		cmp	r2, #32
 1935 0082 06DC     		bgt	.L117
 1936              	.LBB180:
 247:..\..\..\liblc3\src/bits.h ****         int v = (accu->v >> accu->n) & ((1u << n) - 1);
 1937              		.loc 4 247 0
 1938 0084 0D99     		ldr	r1, [sp, #52]
 1939 0086 0591     		str	r1, [sp, #20]
 1940 0088 D940     		lsrs	r1, r1, r3
 1941 008a 0120     		movs	r0, #1
 1942              	.LVL307:
 1943 008c 0840     		ands	r0, r1
 1944              	.LVL308:
 248:..\..\..\liblc3\src/bits.h ****         return (accu->n += n), v;
 1945              		.loc 4 248 0
 1946 008e 0E92     		str	r2, [sp, #56]
 1947 0090 03E0     		b	.L118
 1948              	.LVL309:
 1949              	.L117:
 1950              	.LBE180:
 249:..\..\..\liblc3\src/bits.h ****     }
 250:..\..\..\liblc3\src/bits.h ****     else {
 251:..\..\..\liblc3\src/bits.h ****         return lc3_get_bits_generic(bits, n);
 1951              		.loc 4 251 0
 1952 0092 0121     		movs	r1, #1
 1953 0094 06A8     		add	r0, sp, #24
 1954              	.LVL310:
 1955 0096 FFF7FEFF 		bl	lc3_get_bits_generic
 1956              	.LVL311:
 1957              	.L118:
 1958              	.LBE179:
 1959              	.LBE178:
 1960              	.LBE177:
ARM GAS  C:\Users\rdn\AppData\Local\Temp\cco7w9JJ.s 			page 55


 1961              	.LBE176:
 589:..\..\..\liblc3\src/lc3.c **** 
 1962              		.loc 1 589 0
 1963 009a 431E     		subs	r3, r0, #1
 1964 009c 9841     		sbcs	r0, r0, r3
 1965 009e 6870     		strb	r0, [r5, #1]
 591:..\..\..\liblc3\src/lc3.c ****         return ret;
 1966              		.loc 1 591 0
 1967 00a0 2900     		movs	r1, r5
 1968 00a2 0C31     		adds	r1, r1, #12
 1969 00a4 06A8     		add	r0, sp, #24
 1970 00a6 FFF7FEFF 		bl	lc3_sns_get_data
 1971              	.LVL312:
 1972 00aa 0028     		cmp	r0, #0
 1973 00ac 1EDB     		blt	.L116
 594:..\..\..\liblc3\src/lc3.c ****       lc3_ltpf_get_data(&bits, &side->ltpf);
 1974              		.loc 1 594 0
 1975 00ae 6B78     		ldrb	r3, [r5, #1]
 1976 00b0 002B     		cmp	r3, #0
 1977 00b2 03D0     		beq	.L119
 595:..\..\..\liblc3\src/lc3.c **** 
 1978              		.loc 1 595 0
 1979 00b4 291D     		adds	r1, r5, #4
 1980 00b6 06A8     		add	r0, sp, #24
 1981              	.LVL313:
 1982 00b8 FFF7FEFF 		bl	lc3_ltpf_get_data
 1983              	.LVL314:
 1984              	.L119:
 597:..\..\..\liblc3\src/lc3.c ****                     side->bw, nbytes, &side->spec, xf)) < 0)
 1985              		.loc 1 597 0
 1986 00bc 2B78     		ldrb	r3, [r5]
 1987 00be 0294     		str	r4, [sp, #8]
 1988 00c0 5A46     		mov	r2, fp
 1989 00c2 0192     		str	r2, [sp, #4]
 1990 00c4 049A     		ldr	r2, [sp, #16]
 1991 00c6 0092     		str	r2, [sp]
 1992 00c8 4246     		mov	r2, r8
 1993 00ca 3100     		movs	r1, r6
 1994 00cc 06A8     		add	r0, sp, #24
 1995 00ce FFF7FEFF 		bl	lc3_spec_decode
 1996              	.LVL315:
 1997 00d2 0028     		cmp	r0, #0
 1998 00d4 0ADB     		blt	.L116
 601:..\..\..\liblc3\src/lc3.c **** 
 1999              		.loc 1 601 0
 2000 00d6 B800     		lsls	r0, r7, #2
 2001              	.LVL316:
 2002 00d8 4B46     		mov	r3, r9
 2003 00da DA1B     		subs	r2, r3, r7
 2004 00dc 9200     		lsls	r2, r2, #2
 2005 00de 2018     		adds	r0, r4, r0
 2006 00e0 0021     		movs	r1, #0
 2007 00e2 FFF7FEFF 		bl	memset
 2008              	.LVL317:
 603:..\..\..\liblc3\src/lc3.c **** }
 2009              		.loc 1 603 0
 2010 00e6 06A8     		add	r0, sp, #24
ARM GAS  C:\Users\rdn\AppData\Local\Temp\cco7w9JJ.s 			page 56


 2011 00e8 FFF7FEFF 		bl	lc3_check_bits
 2012              	.LVL318:
 2013              	.L116:
 604:..\..\..\liblc3\src/lc3.c **** 
 2014              		.loc 1 604 0
 2015 00ec 14B0     		add	sp, sp, #80
 2016              		@ sp needed
 2017              	.LVL319:
 2018              	.LVL320:
 2019              	.LVL321:
 2020              	.LVL322:
 2021 00ee 1CBC     		pop	{r2, r3, r4}
 2022 00f0 9046     		mov	r8, r2
 2023 00f2 9946     		mov	r9, r3
 2024 00f4 A346     		mov	fp, r4
 2025 00f6 F0BD     		pop	{r4, r5, r6, r7, pc}
 2026              	.L126:
 2027              		.align	2
 2028              	.L125:
 2029 00f8 00000000 		.word	lc3_ns_2m5
 2030 00fc 00000000 		.word	lc3_ne_2m5
 2031              		.cfi_endproc
 2032              	.LFE47:
 2033              		.size	decode, .-decode
 2034              		.section	.text.synthesize,"ax",%progbits
 2035              		.align	2
 2036              		.code	16
 2037              		.thumb_func
 2038              		.type	synthesize, %function
 2039              	synthesize:
 2040              	.LFB48:
 614:..\..\..\liblc3\src/lc3.c ****     enum lc3_dt dt = decoder->dt;
 2041              		.loc 1 614 0
 2042              		.cfi_startproc
 2043              		@ args = 0, pretend = 0, frame = 16
 2044              		@ frame_needed = 0, uses_anonymous_args = 0
 2045              	.LVL323:
 2046 0000 F0B5     		push	{r4, r5, r6, r7, lr}
 2047              		.cfi_def_cfa_offset 20
 2048              		.cfi_offset 4, -20
 2049              		.cfi_offset 5, -16
 2050              		.cfi_offset 6, -12
 2051              		.cfi_offset 7, -8
 2052              		.cfi_offset 14, -4
 2053 0002 5F46     		mov	r7, fp
 2054 0004 5646     		mov	r6, r10
 2055 0006 4D46     		mov	r5, r9
 2056 0008 4446     		mov	r4, r8
 2057 000a F0B4     		push	{r4, r5, r6, r7}
 2058              		.cfi_def_cfa_offset 36
 2059              		.cfi_offset 8, -36
 2060              		.cfi_offset 9, -32
 2061              		.cfi_offset 10, -28
 2062              		.cfi_offset 11, -24
 2063 000c 89B0     		sub	sp, sp, #36
 2064              		.cfi_def_cfa_offset 72
 2065 000e 0400     		movs	r4, r0
ARM GAS  C:\Users\rdn\AppData\Local\Temp\cco7w9JJ.s 			page 57


 2066 0010 0E00     		movs	r6, r1
 2067 0012 0792     		str	r2, [sp, #28]
 615:..\..\..\liblc3\src/lc3.c ****     enum lc3_srate sr = decoder->sr;
 2068              		.loc 1 615 0
 2069 0014 0378     		ldrb	r3, [r0]
 2070 0016 1800     		movs	r0, r3
 2071              	.LVL324:
 616:..\..\..\liblc3\src/lc3.c ****     enum lc3_srate sr_pcm = decoder->sr_pcm;
 2072              		.loc 1 616 0
 2073 0018 6778     		ldrb	r7, [r4, #1]
 2074              	.LVL325:
 617:..\..\..\liblc3\src/lc3.c **** 
 2075              		.loc 1 617 0
 2076 001a A378     		ldrb	r3, [r4, #2]
 2077 001c 1900     		movs	r1, r3
 2078              	.LVL326:
 619:..\..\..\liblc3\src/lc3.c ****     int ns = lc3_ns(dt, sr_pcm);
 2079              		.loc 1 619 0
 2080 001e 2300     		movs	r3, r4
 2081 0020 B833     		adds	r3, r3, #184
 2082 0022 AC22     		movs	r2, #172
 2083              	.LVL327:
 2084 0024 A558     		ldr	r5, [r4, r2]
 2085 0026 AD00     		lsls	r5, r5, #2
 2086 0028 5D19     		adds	r5, r3, r5
 2087              	.LVL328:
 2088              	.LBB181:
 2089              	.LBB182:
  47:..\..\..\liblc3\src/tables.h **** }
 2090              		.loc 2 47 0
 2091 002a 0691     		str	r1, [sp, #24]
 2092 002c 8900     		lsls	r1, r1, #2
 2093              	.LVL329:
 2094 002e 3B4A     		ldr	r2, .L134
 2095 0030 8A58     		ldr	r2, [r1, r2]
 2096 0032 0490     		str	r0, [sp, #16]
 2097 0034 411C     		adds	r1, r0, #1
 2098 0036 4A43     		muls	r2, r1
 2099 0038 9046     		mov	r8, r2
 2100              	.LVL330:
 2101              	.LBE182:
 2102              	.LBE181:
 2103              	.LBB183:
 2104              	.LBB184:
  51:..\..\..\liblc3\src/tables.h **** }
 2105              		.loc 2 51 0
 2106 003a B800     		lsls	r0, r7, #2
 2107              	.LVL331:
 2108 003c 384A     		ldr	r2, .L134+4
 2109 003e 8258     		ldr	r2, [r0, r2]
 2110 0040 5143     		muls	r1, r2
 2111 0042 8A46     		mov	r10, r1
 2112              	.LVL332:
 2113              	.LBE184:
 2114              	.LBE183:
 623:..\..\..\liblc3\src/lc3.c ****     float *xs = xf;
 2115              		.loc 1 623 0
ARM GAS  C:\Users\rdn\AppData\Local\Temp\cco7w9JJ.s 			page 58


 2116 0044 B422     		movs	r2, #180
 2117 0046 A258     		ldr	r2, [r4, r2]
 2118 0048 9200     		lsls	r2, r2, #2
 2119 004a 9A18     		adds	r2, r3, r2
 2120 004c 0592     		str	r2, [sp, #20]
 2121              	.LVL333:
 626:..\..\..\liblc3\src/lc3.c ****     float *xh = decoder->x + decoder->xh_off;
 2122              		.loc 1 626 0
 2123 004e B022     		movs	r2, #176
 2124              	.LVL334:
 2125 0050 A258     		ldr	r2, [r4, r2]
 2126 0052 9200     		lsls	r2, r2, #2
 2127 0054 9146     		mov	r9, r2
 2128 0056 9944     		add	r9, r9, r3
 2129              	.LVL335:
 627:..\..\..\liblc3\src/lc3.c **** 
 2130              		.loc 1 627 0
 2131 0058 A822     		movs	r2, #168
 2132 005a A258     		ldr	r2, [r4, r2]
 2133 005c 9200     		lsls	r2, r2, #2
 2134 005e 9B46     		mov	fp, r3
 2135 0060 9344     		add	fp, fp, r2
 2136              	.LVL336:
 629:..\..\..\liblc3\src/lc3.c ****         enum lc3_bandwidth bw = side->bw;
 2137              		.loc 1 629 0
 2138 0062 002E     		cmp	r6, #0
 2139 0064 22D0     		beq	.L128
 2140              	.LBB185:
 630:..\..\..\liblc3\src/lc3.c **** 
 2141              		.loc 1 630 0
 2142 0066 3378     		ldrb	r3, [r6]
 2143 0068 9A46     		mov	r10, r3
 2144              	.LVL337:
 632:..\..\..\liblc3\src/lc3.c **** 
 2145              		.loc 1 632 0
 2146 006a 2300     		movs	r3, r4
 2147 006c 9C33     		adds	r3, r3, #156
 2148 006e 1800     		movs	r0, r3
 2149 0070 FFF7FEFF 		bl	lc3_plc_suspend
 2150              	.LVL338:
 634:..\..\..\liblc3\src/lc3.c **** 
 2151              		.loc 1 634 0
 2152 0074 3300     		movs	r3, r6
 2153 0076 2833     		adds	r3, r3, #40
 2154 0078 1A00     		movs	r2, r3
 2155 007a 2B00     		movs	r3, r5
 2156 007c 5146     		mov	r1, r10
 2157 007e 0498     		ldr	r0, [sp, #16]
 2158 0080 FFF7FEFF 		bl	lc3_tns_synthesize
 2159              	.LVL339:
 636:..\..\..\liblc3\src/lc3.c **** 
 2160              		.loc 1 636 0
 2161 0084 3300     		movs	r3, r6
 2162 0086 0C33     		adds	r3, r3, #12
 2163 0088 1A00     		movs	r2, r3
 2164 008a 059B     		ldr	r3, [sp, #20]
 2165 008c 0093     		str	r3, [sp]
ARM GAS  C:\Users\rdn\AppData\Local\Temp\cco7w9JJ.s 			page 59


 2166 008e 2B00     		movs	r3, r5
 2167 0090 3900     		movs	r1, r7
 2168 0092 0498     		ldr	r0, [sp, #16]
 2169 0094 FFF7FEFF 		bl	lc3_sns_synthesize
 2170              	.LVL340:
 638:..\..\..\liblc3\src/lc3.c **** 
 2171              		.loc 1 638 0
 2172 0098 0195     		str	r5, [sp, #4]
 2173 009a 4846     		mov	r0, r9
 2174 009c 0090     		str	r0, [sp]
 2175 009e 059B     		ldr	r3, [sp, #20]
 2176 00a0 3A00     		movs	r2, r7
 2177 00a2 0699     		ldr	r1, [sp, #24]
 2178 00a4 0498     		ldr	r0, [sp, #16]
 2179 00a6 FFF7FEFF 		bl	lc3_mdct_inverse
 2180              	.LVL341:
 2181              	.LBE185:
 2182 00aa 1AE0     		b	.L129
 2183              	.LVL342:
 2184              	.L128:
 641:..\..\..\liblc3\src/lc3.c **** 
 2185              		.loc 1 641 0
 2186 00ac 2200     		movs	r2, r4
 2187 00ae 9C32     		adds	r2, r2, #156
 2188 00b0 0095     		str	r5, [sp]
 2189 00b2 059B     		ldr	r3, [sp, #20]
 2190 00b4 3900     		movs	r1, r7
 2191 00b6 0498     		ldr	r0, [sp, #16]
 2192 00b8 FFF7FEFF 		bl	lc3_plc_synthesize
 2193              	.LVL343:
 643:..\..\..\liblc3\src/lc3.c **** 
 2194              		.loc 1 643 0
 2195 00bc 5346     		mov	r3, r10
 2196 00be 9800     		lsls	r0, r3, #2
 2197 00c0 4346     		mov	r3, r8
 2198 00c2 5246     		mov	r2, r10
 2199 00c4 9A1A     		subs	r2, r3, r2
 2200 00c6 9200     		lsls	r2, r2, #2
 2201 00c8 2818     		adds	r0, r5, r0
 2202 00ca 0021     		movs	r1, #0
 2203 00cc FFF7FEFF 		bl	memset
 2204              	.LVL344:
 645:..\..\..\liblc3\src/lc3.c ****     }
 2205              		.loc 1 645 0
 2206 00d0 0195     		str	r5, [sp, #4]
 2207 00d2 4B46     		mov	r3, r9
 2208 00d4 0093     		str	r3, [sp]
 2209 00d6 2B00     		movs	r3, r5
 2210 00d8 3A00     		movs	r2, r7
 2211 00da 0699     		ldr	r1, [sp, #24]
 2212 00dc 0498     		ldr	r0, [sp, #16]
 2213 00de FFF7FEFF 		bl	lc3_mdct_inverse
 2214              	.LVL345:
 2215              	.L129:
 648:..\..\..\liblc3\src/lc3.c ****         lc3_ltpf_synthesize(dt, sr_pcm, nbytes, &decoder->ltpf,
 2216              		.loc 1 648 0
 2217 00e2 042F     		cmp	r7, #4
ARM GAS  C:\Users\rdn\AppData\Local\Temp\cco7w9JJ.s 			page 60


 2218 00e4 13D8     		bhi	.L127
 649:..\..\..\liblc3\src/lc3.c ****             side && side->pitch_present ? &side->ltpf : NULL, xh, xs);
 2219              		.loc 1 649 0
 2220 00e6 231D     		adds	r3, r4, #4
 2221 00e8 002E     		cmp	r6, #0
 2222 00ea 04D0     		beq	.L132
 650:..\..\..\liblc3\src/lc3.c **** }
 2223              		.loc 1 650 0
 2224 00ec 7278     		ldrb	r2, [r6, #1]
 2225 00ee 002A     		cmp	r2, #0
 2226 00f0 03D0     		beq	.L133
 649:..\..\..\liblc3\src/lc3.c ****             side && side->pitch_present ? &side->ltpf : NULL, xh, xs);
 2227              		.loc 1 649 0
 2228 00f2 0436     		adds	r6, r6, #4
 2229              	.LVL346:
 2230 00f4 02E0     		b	.L131
 2231              	.LVL347:
 2232              	.L132:
 2233 00f6 0026     		movs	r6, #0
 2234              	.LVL348:
 2235 00f8 00E0     		b	.L131
 2236              	.LVL349:
 2237              	.L133:
 2238 00fa 0026     		movs	r6, #0
 2239              	.LVL350:
 2240              	.L131:
 649:..\..\..\liblc3\src/lc3.c ****             side && side->pitch_present ? &side->ltpf : NULL, xh, xs);
 2241              		.loc 1 649 0 is_stmt 0 discriminator 3
 2242 00fc 0295     		str	r5, [sp, #8]
 2243 00fe 5A46     		mov	r2, fp
 2244 0100 0192     		str	r2, [sp, #4]
 2245 0102 0096     		str	r6, [sp]
 2246 0104 079A     		ldr	r2, [sp, #28]
 2247 0106 0699     		ldr	r1, [sp, #24]
 2248 0108 0498     		ldr	r0, [sp, #16]
 2249 010a FFF7FEFF 		bl	lc3_ltpf_synthesize
 2250              	.LVL351:
 2251              	.L127:
 651:..\..\..\liblc3\src/lc3.c **** 
 2252              		.loc 1 651 0 is_stmt 1
 2253 010e 09B0     		add	sp, sp, #36
 2254              		@ sp needed
 2255              	.LVL352:
 2256              	.LVL353:
 2257              	.LVL354:
 2258              	.LVL355:
 2259              	.LVL356:
 2260 0110 3CBC     		pop	{r2, r3, r4, r5}
 2261 0112 9046     		mov	r8, r2
 2262 0114 9946     		mov	r9, r3
 2263 0116 A246     		mov	r10, r4
 2264 0118 AB46     		mov	fp, r5
 2265 011a F0BD     		pop	{r4, r5, r6, r7, pc}
 2266              	.L135:
 2267              		.align	2
 2268              	.L134:
 2269 011c 00000000 		.word	lc3_ns_2m5
ARM GAS  C:\Users\rdn\AppData\Local\Temp\cco7w9JJ.s 			page 61


 2270 0120 00000000 		.word	lc3_ne_2m5
 2271              		.cfi_endproc
 2272              	.LFE48:
 2273              		.size	synthesize, .-synthesize
 2274              		.section	.text.store_float,"ax",%progbits
 2275              		.align	2
 2276              		.code	16
 2277              		.thumb_func
 2278              		.type	store_float, %function
 2279              	store_float:
 2280              	.LFB46:
 543:..\..\..\liblc3\src/lc3.c ****     float *pcm = _pcm;
 2281              		.loc 1 543 0
 2282              		.cfi_startproc
 2283              		@ args = 0, pretend = 0, frame = 0
 2284              		@ frame_needed = 0, uses_anonymous_args = 0
 2285              	.LVL357:
 2286 0000 F8B5     		push	{r3, r4, r5, r6, r7, lr}
 2287              		.cfi_def_cfa_offset 24
 2288              		.cfi_offset 3, -24
 2289              		.cfi_offset 4, -20
 2290              		.cfi_offset 5, -16
 2291              		.cfi_offset 6, -12
 2292              		.cfi_offset 7, -8
 2293              		.cfi_offset 14, -4
 2294 0002 0E00     		movs	r6, r1
 2295 0004 1700     		movs	r7, r2
 2296              	.LVL358:
 546:..\..\..\liblc3\src/lc3.c ****     enum lc3_srate sr = decoder->sr_pcm;
 2297              		.loc 1 546 0
 2298 0006 0478     		ldrb	r4, [r0]
 2299              	.LVL359:
 547:..\..\..\liblc3\src/lc3.c **** 
 2300              		.loc 1 547 0
 2301 0008 8378     		ldrb	r3, [r0, #2]
 2302              	.LVL360:
 549:..\..\..\liblc3\src/lc3.c ****     int ns = lc3_ns(dt, sr);
 2303              		.loc 1 549 0
 2304 000a 0200     		movs	r2, r0
 2305              	.LVL361:
 2306 000c B832     		adds	r2, r2, #184
 2307 000e AC21     		movs	r1, #172
 2308              	.LVL362:
 2309 0010 4558     		ldr	r5, [r0, r1]
 2310 0012 AD00     		lsls	r5, r5, #2
 2311 0014 5519     		adds	r5, r2, r5
 2312              	.LVL363:
 2313              	.LBB186:
 2314              	.LBB187:
  47:..\..\..\liblc3\src/tables.h **** }
 2315              		.loc 2 47 0
 2316 0016 9B00     		lsls	r3, r3, #2
 2317              	.LVL364:
 2318 0018 0D4A     		ldr	r2, .L140
 2319 001a 9B58     		ldr	r3, [r3, r2]
 2320 001c 0134     		adds	r4, r4, #1
 2321              	.LVL365:
ARM GAS  C:\Users\rdn\AppData\Local\Temp\cco7w9JJ.s 			page 62


 2322 001e 5C43     		muls	r4, r3
 2323              	.LVL366:
 2324              	.LBE187:
 2325              	.LBE186:
 552:..\..\..\liblc3\src/lc3.c ****         float s = lc3_ldexpf(*xs, -15);
 2326              		.loc 1 552 0
 2327 0020 13E0     		b	.L137
 2328              	.LVL367:
 2329              	.L139:
 2330              	.LBB188:
 553:..\..\..\liblc3\src/lc3.c ****         *pcm = fminf(fmaxf(s, -1.f), 1.f);
 2331              		.loc 1 553 0 discriminator 2
 2332 0022 2B68     		ldr	r3, [r5]
 2333              	.LVL368:
 2334              	.LBB189:
 2335              	.LBB190:
  45:..\..\..\liblc3\src/fastmath.h **** 
 2336              		.loc 3 45 0 discriminator 2
 2337 0024 1800     		movs	r0, r3
 2338              	.LVL369:
  47:..\..\..\liblc3\src/fastmath.h ****         x.s += exp << LC3_IEEE754_EXP_SHL;
 2339              		.loc 3 47 0 discriminator 2
 2340 0026 FF22     		movs	r2, #255
 2341 0028 D205     		lsls	r2, r2, #23
 2342 002a 1A42     		tst	r2, r3
 2343 002c 01D0     		beq	.L138
 2344              		.loc 3 48 0
 2345 002e 094A     		ldr	r2, .L140+4
 2346 0030 9818     		adds	r0, r3, r2
 2347              	.L138:
 2348              	.LVL370:
 2349              	.LBE190:
 2350              	.LBE189:
 554:..\..\..\liblc3\src/lc3.c ****     }
 2351              		.loc 1 554 0
 2352 0032 0949     		ldr	r1, .L140+8
 2353 0034 FFF7FEFF 		bl	fmaxf
 2354              	.LVL371:
 2355 0038 FE21     		movs	r1, #254
 2356 003a 8905     		lsls	r1, r1, #22
 2357 003c FFF7FEFF 		bl	fminf
 2358              	.LVL372:
 2359 0040 3060     		str	r0, [r6]
 2360              	.LBE188:
 552:..\..\..\liblc3\src/lc3.c ****         float s = lc3_ldexpf(*xs, -15);
 2361              		.loc 1 552 0
 2362 0042 013C     		subs	r4, r4, #1
 2363              	.LVL373:
 2364 0044 0435     		adds	r5, r5, #4
 2365              	.LVL374:
 2366 0046 BB00     		lsls	r3, r7, #2
 2367 0048 F618     		adds	r6, r6, r3
 2368              	.LVL375:
 2369              	.L137:
 552:..\..\..\liblc3\src/lc3.c ****         float s = lc3_ldexpf(*xs, -15);
 2370              		.loc 1 552 0 is_stmt 0 discriminator 1
 2371 004a 002C     		cmp	r4, #0
ARM GAS  C:\Users\rdn\AppData\Local\Temp\cco7w9JJ.s 			page 63


 2372 004c E9DC     		bgt	.L139
 556:..\..\..\liblc3\src/lc3.c **** 
 2373              		.loc 1 556 0 is_stmt 1
 2374              		@ sp needed
 2375              	.LVL376:
 2376              	.LVL377:
 2377              	.LVL378:
 2378              	.LVL379:
 2379 004e F8BD     		pop	{r3, r4, r5, r6, r7, pc}
 2380              	.L141:
 2381              		.align	2
 2382              	.L140:
 2383 0050 00000000 		.word	lc3_ns_2m5
 2384 0054 000080F8 		.word	-125829120
 2385 0058 000080BF 		.word	-1082130432
 2386              		.cfi_endproc
 2387              	.LFE46:
 2388              		.size	store_float, .-store_float
 2389              		.section	.text.lc3_hr_frame_samples,"ax",%progbits
 2390              		.align	2
 2391              		.global	lc3_hr_frame_samples
 2392              		.code	16
 2393              		.thumb_func
 2394              		.type	lc3_hr_frame_samples, %function
 2395              	lc3_hr_frame_samples:
 2396              	.LFB22:
  90:..\..\..\liblc3\src/lc3.c ****     enum lc3_dt dt = resolve_dt(dt_us, hrmode);
 2397              		.loc 1 90 0
 2398              		.cfi_startproc
 2399              		@ args = 0, pretend = 0, frame = 0
 2400              		@ frame_needed = 0, uses_anonymous_args = 0
 2401              	.LVL380:
 2402 0000 F8B5     		push	{r3, r4, r5, r6, r7, lr}
 2403              		.cfi_def_cfa_offset 24
 2404              		.cfi_offset 3, -24
 2405              		.cfi_offset 4, -20
 2406              		.cfi_offset 5, -16
 2407              		.cfi_offset 6, -12
 2408              		.cfi_offset 7, -8
 2409              		.cfi_offset 14, -4
 2410 0002 0500     		movs	r5, r0
 2411 0004 0800     		movs	r0, r1
 2412              	.LVL381:
 2413 0006 1700     		movs	r7, r2
  91:..\..\..\liblc3\src/lc3.c ****     enum lc3_srate sr = resolve_srate(sr_hz, hrmode);
 2414              		.loc 1 91 0
 2415 0008 2900     		movs	r1, r5
 2416              	.LVL382:
 2417 000a FFF7FEFF 		bl	resolve_dt
 2418              	.LVL383:
 2419 000e 0400     		movs	r4, r0
 2420              	.LVL384:
  92:..\..\..\liblc3\src/lc3.c **** 
 2421              		.loc 1 92 0
 2422 0010 2900     		movs	r1, r5
 2423 0012 3800     		movs	r0, r7
 2424 0014 FFF7FEFF 		bl	resolve_srate
ARM GAS  C:\Users\rdn\AppData\Local\Temp\cco7w9JJ.s 			page 64


 2425              	.LVL385:
  94:..\..\..\liblc3\src/lc3.c ****         return -1;
 2426              		.loc 1 94 0
 2427 0018 032C     		cmp	r4, #3
 2428 001a 07D8     		bhi	.L144
  94:..\..\..\liblc3\src/lc3.c ****         return -1;
 2429              		.loc 1 94 0 is_stmt 0 discriminator 1
 2430 001c 0628     		cmp	r0, #6
 2431 001e 08D8     		bhi	.L145
 2432              	.LVL386:
 2433              	.LBB191:
 2434              	.LBB192:
  47:..\..\..\liblc3\src/tables.h **** }
 2435              		.loc 2 47 0 is_stmt 1
 2436 0020 8000     		lsls	r0, r0, #2
 2437              	.LVL387:
 2438 0022 054B     		ldr	r3, .L146
 2439 0024 C058     		ldr	r0, [r0, r3]
 2440 0026 0134     		adds	r4, r4, #1
 2441              	.LVL388:
 2442 0028 6043     		muls	r0, r4
 2443              	.LBE192:
 2444              	.LBE191:
  97:..\..\..\liblc3\src/lc3.c **** }
 2445              		.loc 1 97 0
 2446 002a 04E0     		b	.L143
 2447              	.LVL389:
 2448              	.L144:
  95:..\..\..\liblc3\src/lc3.c **** 
 2449              		.loc 1 95 0
 2450 002c 0120     		movs	r0, #1
 2451              	.LVL390:
 2452 002e 4042     		rsbs	r0, r0, #0
 2453 0030 01E0     		b	.L143
 2454              	.LVL391:
 2455              	.L145:
 2456 0032 0120     		movs	r0, #1
 2457              	.LVL392:
 2458 0034 4042     		rsbs	r0, r0, #0
 2459              	.LVL393:
 2460              	.L143:
  98:..\..\..\liblc3\src/lc3.c **** 
 2461              		.loc 1 98 0
 2462              		@ sp needed
 2463              	.LVL394:
 2464 0036 F8BD     		pop	{r3, r4, r5, r6, r7, pc}
 2465              	.L147:
 2466              		.align	2
 2467              	.L146:
 2468 0038 00000000 		.word	lc3_ns_2m5
 2469              		.cfi_endproc
 2470              	.LFE22:
 2471              		.size	lc3_hr_frame_samples, .-lc3_hr_frame_samples
 2472              		.section	.text.lc3_frame_samples,"ax",%progbits
 2473              		.align	2
 2474              		.global	lc3_frame_samples
 2475              		.code	16
ARM GAS  C:\Users\rdn\AppData\Local\Temp\cco7w9JJ.s 			page 65


 2476              		.thumb_func
 2477              		.type	lc3_frame_samples, %function
 2478              	lc3_frame_samples:
 2479              	.LFB23:
 101:..\..\..\liblc3\src/lc3.c ****     return lc3_hr_frame_samples(false, dt_us, sr_hz);
 2480              		.loc 1 101 0
 2481              		.cfi_startproc
 2482              		@ args = 0, pretend = 0, frame = 0
 2483              		@ frame_needed = 0, uses_anonymous_args = 0
 2484              	.LVL395:
 2485 0000 10B5     		push	{r4, lr}
 2486              		.cfi_def_cfa_offset 8
 2487              		.cfi_offset 4, -8
 2488              		.cfi_offset 14, -4
 2489 0002 0A00     		movs	r2, r1
 102:..\..\..\liblc3\src/lc3.c **** }
 2490              		.loc 1 102 0
 2491 0004 0100     		movs	r1, r0
 2492              	.LVL396:
 2493 0006 0020     		movs	r0, #0
 2494              	.LVL397:
 2495 0008 FFF7FEFF 		bl	lc3_hr_frame_samples
 2496              	.LVL398:
 103:..\..\..\liblc3\src/lc3.c **** 
 2497              		.loc 1 103 0
 2498              		@ sp needed
 2499 000c 10BD     		pop	{r4, pc}
 2500              		.cfi_endproc
 2501              	.LFE23:
 2502              		.size	lc3_frame_samples, .-lc3_frame_samples
 2503              		.global	__aeabi_idiv
 2504 000e C046     		.section	.text.lc3_hr_frame_block_bytes,"ax",%progbits
 2505              		.align	2
 2506              		.global	lc3_hr_frame_block_bytes
 2507              		.code	16
 2508              		.thumb_func
 2509              		.type	lc3_hr_frame_block_bytes, %function
 2510              	lc3_hr_frame_block_bytes:
 2511              	.LFB24:
 110:..\..\..\liblc3\src/lc3.c ****     enum lc3_dt dt = resolve_dt(dt_us, hrmode);
 2512              		.loc 1 110 0
 2513              		.cfi_startproc
 2514              		@ args = 4, pretend = 0, frame = 0
 2515              		@ frame_needed = 0, uses_anonymous_args = 0
 2516              	.LVL399:
 2517 0000 F0B5     		push	{r4, r5, r6, r7, lr}
 2518              		.cfi_def_cfa_offset 20
 2519              		.cfi_offset 4, -20
 2520              		.cfi_offset 5, -16
 2521              		.cfi_offset 6, -12
 2522              		.cfi_offset 7, -8
 2523              		.cfi_offset 14, -4
 2524 0002 4746     		mov	r7, r8
 2525 0004 80B4     		push	{r7}
 2526              		.cfi_def_cfa_offset 24
 2527              		.cfi_offset 8, -24
 2528 0006 0400     		movs	r4, r0
ARM GAS  C:\Users\rdn\AppData\Local\Temp\cco7w9JJ.s 			page 66


 2529 0008 0800     		movs	r0, r1
 2530              	.LVL400:
 2531 000a 1700     		movs	r7, r2
 2532 000c 1D00     		movs	r5, r3
 111:..\..\..\liblc3\src/lc3.c ****     enum lc3_srate sr = resolve_srate(sr_hz, hrmode);
 2533              		.loc 1 111 0
 2534 000e 2100     		movs	r1, r4
 2535              	.LVL401:
 2536 0010 FFF7FEFF 		bl	resolve_dt
 2537              	.LVL402:
 2538 0014 0600     		movs	r6, r0
 2539              	.LVL403:
 112:..\..\..\liblc3\src/lc3.c **** 
 2540              		.loc 1 112 0
 2541 0016 2100     		movs	r1, r4
 2542 0018 3800     		movs	r0, r7
 2543              	.LVL404:
 2544 001a FFF7FEFF 		bl	resolve_srate
 2545              	.LVL405:
 2546 001e 0400     		movs	r4, r0
 2547 0020 0700     		movs	r7, r0
 2548              	.LVL406:
 114:..\..\..\liblc3\src/lc3.c ****             || nchannels < 1 || nchannels > 8 || bitrate < 0)
 2549              		.loc 1 114 0
 2550 0022 032E     		cmp	r6, #3
 2551 0024 67D8     		bhi	.L161
 114:..\..\..\liblc3\src/lc3.c ****             || nchannels < 1 || nchannels > 8 || bitrate < 0)
 2552              		.loc 1 114 0 is_stmt 0 discriminator 1
 2553 0026 0628     		cmp	r0, #6
 2554 0028 68D8     		bhi	.L162
 115:..\..\..\liblc3\src/lc3.c ****         return -1;
 2555              		.loc 1 115 0 is_stmt 1
 2556 002a 002D     		cmp	r5, #0
 2557 002c 69DD     		ble	.L163
 115:..\..\..\liblc3\src/lc3.c ****         return -1;
 2558              		.loc 1 115 0 is_stmt 0 discriminator 1
 2559 002e 082D     		cmp	r5, #8
 2560 0030 6ADC     		bgt	.L164
 115:..\..\..\liblc3\src/lc3.c ****         return -1;
 2561              		.loc 1 115 0 discriminator 2
 2562 0032 069B     		ldr	r3, [sp, #24]
 2563 0034 002B     		cmp	r3, #0
 2564 0036 6ADB     		blt	.L165
 118:..\..\..\liblc3\src/lc3.c **** 
 2565              		.loc 1 118 0 is_stmt 1
 2566 0038 374B     		ldr	r3, .L174
 2567 003a 069A     		ldr	r2, [sp, #24]
 2568 003c 9A42     		cmp	r2, r3
 2569 003e 03DC     		bgt	.L166
 118:..\..\..\liblc3\src/lc3.c **** 
 2570              		.loc 1 118 0 is_stmt 0 discriminator 1
 2571 0040 101E     		subs	r0, r2, #0
 2572              	.LVL407:
 2573 0042 02DA     		bge	.L151
 2574 0044 0020     		movs	r0, #0
 2575 0046 00E0     		b	.L151
 2576              	.LVL408:
ARM GAS  C:\Users\rdn\AppData\Local\Temp\cco7w9JJ.s 			page 67


 2577              	.L166:
 118:..\..\..\liblc3\src/lc3.c **** 
 2578              		.loc 1 118 0
 2579 0048 3448     		ldr	r0, .L174+4
 2580              	.LVL409:
 2581              	.L151:
 120:..\..\..\liblc3\src/lc3.c ****         nchannels * lc3_min_frame_bytes(dt, sr),
 2582              		.loc 1 120 0 is_stmt 1 discriminator 4
 2583 004a 731C     		adds	r3, r6, #1
 2584 004c 5843     		muls	r0, r3
 2585              	.LVL410:
 2586 004e C821     		movs	r1, #200
 2587 0050 0901     		lsls	r1, r1, #4
 2588 0052 FFF7FEFF 		bl	__aeabi_idiv
 2589              	.LVL411:
 2590              	.LBB193:
 2591              	.LBB194:
  66:..\..\..\liblc3\src/tables.h **** }
  67:..\..\..\liblc3\src/tables.h **** 
  68:..\..\..\liblc3\src/tables.h **** #define LC3_MAX_SRATE_HZ  ( LC3_PLUS_HR ? 96000 : 48000 )
  69:..\..\..\liblc3\src/tables.h **** 
  70:..\..\..\liblc3\src/tables.h **** #define LC3_MAX_NS  ( LC3_NS(10000, LC3_MAX_SRATE_HZ) )
  71:..\..\..\liblc3\src/tables.h **** #define LC3_MAX_NE  ( LC3_PLUS_HR ? LC3_MAX_NS : LC3_NS(10000, 40000) )
  72:..\..\..\liblc3\src/tables.h **** 
  73:..\..\..\liblc3\src/tables.h **** 
  74:..\..\..\liblc3\src/tables.h **** /**
  75:..\..\..\liblc3\src/tables.h ****  * Limits on size of frame
  76:..\..\..\liblc3\src/tables.h ****  */
  77:..\..\..\liblc3\src/tables.h **** 
  78:..\..\..\liblc3\src/tables.h **** extern const int lc3_frame_bytes_hr_lim
  79:..\..\..\liblc3\src/tables.h ****         [LC3_NUM_DT][LC3_NUM_SRATE - LC3_SRATE_48K_HR][2];
  80:..\..\..\liblc3\src/tables.h **** 
  81:..\..\..\liblc3\src/tables.h **** static inline int lc3_min_frame_bytes(enum lc3_dt dt, enum lc3_srate sr) {
  82:..\..\..\liblc3\src/tables.h ****     return !lc3_hr(sr) ? LC3_MIN_FRAME_BYTES :
 2592              		.loc 2 82 0 discriminator 4
 2593 0056 042F     		cmp	r7, #4
 2594 0058 06D9     		bls	.L167
  83:..\..\..\liblc3\src/tables.h ****         lc3_frame_bytes_hr_lim[dt][sr - LC3_SRATE_48K_HR][0];
 2595              		.loc 2 83 0
 2596 005a 631F     		subs	r3, r4, #5
  82:..\..\..\liblc3\src/tables.h ****         lc3_frame_bytes_hr_lim[dt][sr - LC3_SRATE_48K_HR][0];
 2597              		.loc 2 82 0
 2598 005c 7200     		lsls	r2, r6, #1
 2599 005e D318     		adds	r3, r2, r3
 2600 0060 DB00     		lsls	r3, r3, #3
 2601 0062 2F4A     		ldr	r2, .L174+8
 2602 0064 9B58     		ldr	r3, [r3, r2]
 2603 0066 00E0     		b	.L153
 2604              	.L167:
 2605 0068 1423     		movs	r3, #20
 2606              	.L153:
 2607              	.LVL412:
 2608              	.LBE194:
 2609              	.LBE193:
 120:..\..\..\liblc3\src/lc3.c ****         nchannels * lc3_min_frame_bytes(dt, sr),
 2610              		.loc 1 120 0
 2611 006a 6B43     		muls	r3, r5
ARM GAS  C:\Users\rdn\AppData\Local\Temp\cco7w9JJ.s 			page 68


 2612 006c 9842     		cmp	r0, r3
 2613 006e 0BDC     		bgt	.L168
 2614              	.LVL413:
 2615              	.LBB195:
 2616              	.LBB196:
  82:..\..\..\liblc3\src/tables.h ****         lc3_frame_bytes_hr_lim[dt][sr - LC3_SRATE_48K_HR][0];
 2617              		.loc 2 82 0
 2618 0070 042F     		cmp	r7, #4
 2619 0072 06D9     		bls	.L169
 2620              		.loc 2 83 0
 2621 0074 631F     		subs	r3, r4, #5
  82:..\..\..\liblc3\src/tables.h ****         lc3_frame_bytes_hr_lim[dt][sr - LC3_SRATE_48K_HR][0];
 2622              		.loc 2 82 0
 2623 0076 7200     		lsls	r2, r6, #1
 2624 0078 D318     		adds	r3, r2, r3
 2625 007a DB00     		lsls	r3, r3, #3
 2626 007c 284A     		ldr	r2, .L174+8
 2627 007e 9A58     		ldr	r2, [r3, r2]
 2628 0080 00E0     		b	.L155
 2629              	.L169:
 2630 0082 1422     		movs	r2, #20
 2631              	.L155:
 2632              	.LVL414:
 2633              	.LBE196:
 2634              	.LBE195:
 120:..\..\..\liblc3\src/lc3.c ****         nchannels * lc3_min_frame_bytes(dt, sr),
 2635              		.loc 1 120 0
 2636 0084 6A43     		muls	r2, r5
 2637 0086 00E0     		b	.L154
 2638              	.L168:
 2639 0088 0200     		movs	r2, r0
 2640              	.L154:
 2641              	.LVL415:
 2642              	.LBB197:
 2643              	.LBB198:
  84:..\..\..\liblc3\src/tables.h **** }
  85:..\..\..\liblc3\src/tables.h **** 
  86:..\..\..\liblc3\src/tables.h **** static inline int lc3_max_frame_bytes(enum lc3_dt dt, enum lc3_srate sr) {
  87:..\..\..\liblc3\src/tables.h ****     return !lc3_hr(sr) ? LC3_MAX_FRAME_BYTES :
 2644              		.loc 2 87 0 discriminator 4
 2645 008a 042F     		cmp	r7, #4
 2646 008c 07D9     		bls	.L170
  88:..\..\..\liblc3\src/tables.h ****         lc3_frame_bytes_hr_lim[dt][sr - LC3_SRATE_48K_HR][1];
 2647              		.loc 2 88 0
 2648 008e 631F     		subs	r3, r4, #5
  87:..\..\..\liblc3\src/tables.h ****         lc3_frame_bytes_hr_lim[dt][sr - LC3_SRATE_48K_HR][1];
 2649              		.loc 2 87 0
 2650 0090 7100     		lsls	r1, r6, #1
 2651 0092 CB18     		adds	r3, r1, r3
 2652 0094 DB00     		lsls	r3, r3, #3
 2653 0096 2249     		ldr	r1, .L174+8
 2654 0098 CB18     		adds	r3, r1, r3
 2655 009a 5B68     		ldr	r3, [r3, #4]
 2656 009c 01E0     		b	.L156
 2657              	.L170:
 2658 009e C823     		movs	r3, #200
 2659 00a0 5B00     		lsls	r3, r3, #1
ARM GAS  C:\Users\rdn\AppData\Local\Temp\cco7w9JJ.s 			page 69


 2660              	.L156:
 2661              	.LVL416:
 2662              	.LBE198:
 2663              	.LBE197:
 120:..\..\..\liblc3\src/lc3.c ****         nchannels * lc3_min_frame_bytes(dt, sr),
 2664              		.loc 1 120 0
 2665 00a2 6B43     		muls	r3, r5
 2666 00a4 9A42     		cmp	r2, r3
 2667 00a6 18DA     		bge	.L157
 2668              	.LVL417:
 2669              	.LBB199:
 2670              	.LBB200:
  82:..\..\..\liblc3\src/tables.h ****         lc3_frame_bytes_hr_lim[dt][sr - LC3_SRATE_48K_HR][0];
 2671              		.loc 2 82 0 discriminator 5
 2672 00a8 042F     		cmp	r7, #4
 2673 00aa 06D9     		bls	.L171
  83:..\..\..\liblc3\src/tables.h **** }
 2674              		.loc 2 83 0
 2675 00ac 631F     		subs	r3, r4, #5
  82:..\..\..\liblc3\src/tables.h ****         lc3_frame_bytes_hr_lim[dt][sr - LC3_SRATE_48K_HR][0];
 2676              		.loc 2 82 0
 2677 00ae 7200     		lsls	r2, r6, #1
 2678 00b0 D318     		adds	r3, r2, r3
 2679 00b2 DB00     		lsls	r3, r3, #3
 2680 00b4 1A4A     		ldr	r2, .L174+8
 2681 00b6 9B58     		ldr	r3, [r3, r2]
 2682 00b8 00E0     		b	.L158
 2683              	.L171:
 2684 00ba 1423     		movs	r3, #20
 2685              	.L158:
 2686              	.LVL418:
 2687              	.LBE200:
 2688              	.LBE199:
 120:..\..\..\liblc3\src/lc3.c ****         nchannels * lc3_min_frame_bytes(dt, sr),
 2689              		.loc 1 120 0
 2690 00bc 6B43     		muls	r3, r5
 2691 00be 9842     		cmp	r0, r3
 2692 00c0 27DC     		bgt	.L150
 2693              	.LVL419:
 2694              	.LBB201:
 2695              	.LBB202:
  82:..\..\..\liblc3\src/tables.h ****         lc3_frame_bytes_hr_lim[dt][sr - LC3_SRATE_48K_HR][0];
 2696              		.loc 2 82 0
 2697 00c2 042F     		cmp	r7, #4
 2698 00c4 06D9     		bls	.L172
  83:..\..\..\liblc3\src/tables.h **** }
 2699              		.loc 2 83 0
 2700 00c6 053C     		subs	r4, r4, #5
 2701              	.LVL420:
  82:..\..\..\liblc3\src/tables.h ****         lc3_frame_bytes_hr_lim[dt][sr - LC3_SRATE_48K_HR][0];
 2702              		.loc 2 82 0
 2703 00c8 7600     		lsls	r6, r6, #1
 2704              	.LVL421:
 2705 00ca 3419     		adds	r4, r6, r4
 2706 00cc E400     		lsls	r4, r4, #3
 2707 00ce 144B     		ldr	r3, .L174+8
 2708 00d0 E058     		ldr	r0, [r4, r3]
ARM GAS  C:\Users\rdn\AppData\Local\Temp\cco7w9JJ.s 			page 70


 2709 00d2 00E0     		b	.L159
 2710              	.LVL422:
 2711              	.L172:
 2712 00d4 1420     		movs	r0, #20
 2713              	.LVL423:
 2714              	.L159:
 2715              	.LBE202:
 2716              	.LBE201:
 120:..\..\..\liblc3\src/lc3.c ****         nchannels * lc3_min_frame_bytes(dt, sr),
 2717              		.loc 1 120 0
 2718 00d6 6843     		muls	r0, r5
 2719 00d8 1BE0     		b	.L150
 2720              	.LVL424:
 2721              	.L157:
 2722              	.LBB203:
 2723              	.LBB204:
  87:..\..\..\liblc3\src/tables.h ****         lc3_frame_bytes_hr_lim[dt][sr - LC3_SRATE_48K_HR][1];
 2724              		.loc 2 87 0
 2725 00da 042F     		cmp	r7, #4
 2726 00dc 07D9     		bls	.L173
 2727              		.loc 2 88 0
 2728 00de 631F     		subs	r3, r4, #5
  87:..\..\..\liblc3\src/tables.h ****         lc3_frame_bytes_hr_lim[dt][sr - LC3_SRATE_48K_HR][1];
 2729              		.loc 2 87 0
 2730 00e0 7400     		lsls	r4, r6, #1
 2731              	.LVL425:
 2732 00e2 E418     		adds	r4, r4, r3
 2733 00e4 E400     		lsls	r4, r4, #3
 2734 00e6 0E4B     		ldr	r3, .L174+8
 2735 00e8 1C19     		adds	r4, r3, r4
 2736 00ea 6068     		ldr	r0, [r4, #4]
 2737 00ec 01E0     		b	.L160
 2738              	.LVL426:
 2739              	.L173:
 2740 00ee C820     		movs	r0, #200
 2741 00f0 4000     		lsls	r0, r0, #1
 2742              	.LVL427:
 2743              	.L160:
 2744              	.LBE204:
 2745              	.LBE203:
 120:..\..\..\liblc3\src/lc3.c ****         nchannels * lc3_min_frame_bytes(dt, sr),
 2746              		.loc 1 120 0
 2747 00f2 6843     		muls	r0, r5
 2748 00f4 0DE0     		b	.L150
 2749              	.LVL428:
 2750              	.L161:
 116:..\..\..\liblc3\src/lc3.c **** 
 2751              		.loc 1 116 0
 2752 00f6 0120     		movs	r0, #1
 2753              	.LVL429:
 2754 00f8 4042     		rsbs	r0, r0, #0
 2755 00fa 0AE0     		b	.L150
 2756              	.LVL430:
 2757              	.L162:
 2758 00fc 0120     		movs	r0, #1
 2759              	.LVL431:
 2760 00fe 4042     		rsbs	r0, r0, #0
ARM GAS  C:\Users\rdn\AppData\Local\Temp\cco7w9JJ.s 			page 71


 2761 0100 07E0     		b	.L150
 2762              	.LVL432:
 2763              	.L163:
 2764 0102 0120     		movs	r0, #1
 2765              	.LVL433:
 2766 0104 4042     		rsbs	r0, r0, #0
 2767 0106 04E0     		b	.L150
 2768              	.LVL434:
 2769              	.L164:
 2770 0108 0120     		movs	r0, #1
 2771              	.LVL435:
 2772 010a 4042     		rsbs	r0, r0, #0
 2773 010c 01E0     		b	.L150
 2774              	.LVL436:
 2775              	.L165:
 2776 010e 0120     		movs	r0, #1
 2777              	.LVL437:
 2778 0110 4042     		rsbs	r0, r0, #0
 2779              	.LVL438:
 2780              	.L150:
 123:..\..\..\liblc3\src/lc3.c **** 
 2781              		.loc 1 123 0
 2782              		@ sp needed
 2783              	.LVL439:
 2784 0112 04BC     		pop	{r2}
 2785 0114 9046     		mov	r8, r2
 2786 0116 F0BD     		pop	{r4, r5, r6, r7, pc}
 2787              	.L175:
 2788              		.align	2
 2789              	.L174:
 2790 0118 FF075200 		.word	5375999
 2791 011c 00085200 		.word	5376000
 2792 0120 00000000 		.word	lc3_frame_bytes_hr_lim
 2793              		.cfi_endproc
 2794              	.LFE24:
 2795              		.size	lc3_hr_frame_block_bytes, .-lc3_hr_frame_block_bytes
 2796              		.section	.text.lc3_frame_bock_bytes,"ax",%progbits
 2797              		.align	2
 2798              		.global	lc3_frame_bock_bytes
 2799              		.code	16
 2800              		.thumb_func
 2801              		.type	lc3_frame_bock_bytes, %function
 2802              	lc3_frame_bock_bytes:
 2803              	.LFB25:
 126:..\..\..\liblc3\src/lc3.c ****     return lc3_hr_frame_block_bytes(false, dt_us, 8000, nchannels, bitrate);
 2804              		.loc 1 126 0
 2805              		.cfi_startproc
 2806              		@ args = 0, pretend = 0, frame = 0
 2807              		@ frame_needed = 0, uses_anonymous_args = 0
 2808              	.LVL440:
 2809 0000 00B5     		push	{lr}
 2810              		.cfi_def_cfa_offset 4
 2811              		.cfi_offset 14, -4
 2812 0002 83B0     		sub	sp, sp, #12
 2813              		.cfi_def_cfa_offset 16
 2814 0004 0B00     		movs	r3, r1
 127:..\..\..\liblc3\src/lc3.c **** }
ARM GAS  C:\Users\rdn\AppData\Local\Temp\cco7w9JJ.s 			page 72


 2815              		.loc 1 127 0
 2816 0006 0092     		str	r2, [sp]
 2817 0008 FA22     		movs	r2, #250
 2818              	.LVL441:
 2819 000a 5201     		lsls	r2, r2, #5
 2820 000c 0100     		movs	r1, r0
 2821              	.LVL442:
 2822 000e 0020     		movs	r0, #0
 2823              	.LVL443:
 2824 0010 FFF7FEFF 		bl	lc3_hr_frame_block_bytes
 2825              	.LVL444:
 128:..\..\..\liblc3\src/lc3.c **** 
 2826              		.loc 1 128 0
 2827 0014 03B0     		add	sp, sp, #12
 2828              		@ sp needed
 2829 0016 00BD     		pop	{pc}
 2830              		.cfi_endproc
 2831              	.LFE25:
 2832              		.size	lc3_frame_bock_bytes, .-lc3_frame_bock_bytes
 2833              		.section	.text.lc3_hr_frame_bytes,"ax",%progbits
 2834              		.align	2
 2835              		.global	lc3_hr_frame_bytes
 2836              		.code	16
 2837              		.thumb_func
 2838              		.type	lc3_hr_frame_bytes, %function
 2839              	lc3_hr_frame_bytes:
 2840              	.LFB26:
 132:..\..\..\liblc3\src/lc3.c ****     return lc3_hr_frame_block_bytes(hrmode, dt_us, sr_hz, 1, bitrate);
 2841              		.loc 1 132 0
 2842              		.cfi_startproc
 2843              		@ args = 0, pretend = 0, frame = 0
 2844              		@ frame_needed = 0, uses_anonymous_args = 0
 2845              	.LVL445:
 2846 0000 00B5     		push	{lr}
 2847              		.cfi_def_cfa_offset 4
 2848              		.cfi_offset 14, -4
 2849 0002 83B0     		sub	sp, sp, #12
 2850              		.cfi_def_cfa_offset 16
 133:..\..\..\liblc3\src/lc3.c **** }
 2851              		.loc 1 133 0
 2852 0004 0093     		str	r3, [sp]
 2853 0006 0123     		movs	r3, #1
 2854              	.LVL446:
 2855 0008 FFF7FEFF 		bl	lc3_hr_frame_block_bytes
 2856              	.LVL447:
 134:..\..\..\liblc3\src/lc3.c **** 
 2857              		.loc 1 134 0
 2858 000c 03B0     		add	sp, sp, #12
 2859              		@ sp needed
 2860 000e 00BD     		pop	{pc}
 2861              		.cfi_endproc
 2862              	.LFE26:
 2863              		.size	lc3_hr_frame_bytes, .-lc3_hr_frame_bytes
 2864              		.section	.text.lc3_frame_bytes,"ax",%progbits
 2865              		.align	2
 2866              		.global	lc3_frame_bytes
 2867              		.code	16
ARM GAS  C:\Users\rdn\AppData\Local\Temp\cco7w9JJ.s 			page 73


 2868              		.thumb_func
 2869              		.type	lc3_frame_bytes, %function
 2870              	lc3_frame_bytes:
 2871              	.LFB27:
 137:..\..\..\liblc3\src/lc3.c ****     return lc3_hr_frame_bytes(false, dt_us, 8000, bitrate);
 2872              		.loc 1 137 0
 2873              		.cfi_startproc
 2874              		@ args = 0, pretend = 0, frame = 0
 2875              		@ frame_needed = 0, uses_anonymous_args = 0
 2876              	.LVL448:
 2877 0000 10B5     		push	{r4, lr}
 2878              		.cfi_def_cfa_offset 8
 2879              		.cfi_offset 4, -8
 2880              		.cfi_offset 14, -4
 2881 0002 0B00     		movs	r3, r1
 138:..\..\..\liblc3\src/lc3.c **** }
 2882              		.loc 1 138 0
 2883 0004 FA22     		movs	r2, #250
 2884 0006 5201     		lsls	r2, r2, #5
 2885 0008 0100     		movs	r1, r0
 2886              	.LVL449:
 2887 000a 0020     		movs	r0, #0
 2888              	.LVL450:
 2889 000c FFF7FEFF 		bl	lc3_hr_frame_bytes
 2890              	.LVL451:
 139:..\..\..\liblc3\src/lc3.c **** 
 2891              		.loc 1 139 0
 2892              		@ sp needed
 2893 0010 10BD     		pop	{r4, pc}
 2894              		.cfi_endproc
 2895              	.LFE27:
 2896              		.size	lc3_frame_bytes, .-lc3_frame_bytes
 2897              		.global	__aeabi_lmul
 2898              		.global	__aeabi_ldivmod
 2899 0012 C046     		.section	.text.lc3_hr_resolve_bitrate,"ax",%progbits
 2900              		.align	2
 2901              		.global	lc3_hr_resolve_bitrate
 2902              		.code	16
 2903              		.thumb_func
 2904              		.type	lc3_hr_resolve_bitrate, %function
 2905              	lc3_hr_resolve_bitrate:
 2906              	.LFB28:
 146:..\..\..\liblc3\src/lc3.c ****     enum lc3_dt dt = resolve_dt(dt_us, hrmode);
 2907              		.loc 1 146 0
 2908              		.cfi_startproc
 2909              		@ args = 0, pretend = 0, frame = 8
 2910              		@ frame_needed = 0, uses_anonymous_args = 0
 2911              	.LVL452:
 2912 0000 F0B5     		push	{r4, r5, r6, r7, lr}
 2913              		.cfi_def_cfa_offset 20
 2914              		.cfi_offset 4, -20
 2915              		.cfi_offset 5, -16
 2916              		.cfi_offset 6, -12
 2917              		.cfi_offset 7, -8
 2918              		.cfi_offset 14, -4
 2919 0002 83B0     		sub	sp, sp, #12
 2920              		.cfi_def_cfa_offset 32
ARM GAS  C:\Users\rdn\AppData\Local\Temp\cco7w9JJ.s 			page 74


 2921 0004 0600     		movs	r6, r0
 2922 0006 0800     		movs	r0, r1
 2923              	.LVL453:
 2924 0008 0192     		str	r2, [sp, #4]
 2925 000a 1D00     		movs	r5, r3
 147:..\..\..\liblc3\src/lc3.c ****     enum lc3_srate sr = resolve_srate(sr_hz, hrmode);
 2926              		.loc 1 147 0
 2927 000c 3100     		movs	r1, r6
 2928              	.LVL454:
 2929 000e FFF7FEFF 		bl	resolve_dt
 2930              	.LVL455:
 2931 0012 0400     		movs	r4, r0
 2932              	.LVL456:
 148:..\..\..\liblc3\src/lc3.c **** 
 2933              		.loc 1 148 0
 2934 0014 3100     		movs	r1, r6
 2935 0016 0198     		ldr	r0, [sp, #4]
 2936 0018 FFF7FEFF 		bl	resolve_srate
 2937              	.LVL457:
 150:..\..\..\liblc3\src/lc3.c ****         return -1;
 2938              		.loc 1 150 0
 2939 001c 032C     		cmp	r4, #3
 2940 001e 19D8     		bhi	.L183
 150:..\..\..\liblc3\src/lc3.c ****         return -1;
 2941              		.loc 1 150 0 is_stmt 0 discriminator 1
 2942 0020 0628     		cmp	r0, #6
 2943 0022 1AD8     		bhi	.L184
 150:..\..\..\liblc3\src/lc3.c ****         return -1;
 2944              		.loc 1 150 0 discriminator 2
 2945 0024 002D     		cmp	r5, #0
 2946 0026 1BDB     		blt	.L185
 153:..\..\..\liblc3\src/lc3.c **** }
 2947              		.loc 1 153 0 is_stmt 1
 2948 0028 E917     		asrs	r1, r5, #31
 2949 002a C822     		movs	r2, #200
 2950 002c 1201     		lsls	r2, r2, #4
 2951 002e 0023     		movs	r3, #0
 2952 0030 2800     		movs	r0, r5
 2953              	.LVL458:
 2954 0032 FFF7FEFF 		bl	__aeabi_lmul
 2955              	.LVL459:
 2956 0036 2200     		movs	r2, r4
 2957 0038 0023     		movs	r3, #0
 2958 003a 8018     		adds	r0, r0, r2
 2959 003c 5941     		adcs	r1, r1, r3
 2960 003e 621C     		adds	r2, r4, #1
 2961 0040 D317     		asrs	r3, r2, #31
 2962 0042 FFF7FEFF 		bl	__aeabi_ldivmod
 2963              	.LVL460:
 2964 0046 0029     		cmp	r1, #0
 2965 0048 02DC     		bgt	.L182
 2966 004a 0BD1     		bne	.L180
 2967 004c 0028     		cmp	r0, #0
 2968 004e 09DA     		bge	.L180
 2969              	.L182:
 2970 0050 0548     		ldr	r0, .L186
 2971 0052 07E0     		b	.L180
ARM GAS  C:\Users\rdn\AppData\Local\Temp\cco7w9JJ.s 			page 75


 2972              	.LVL461:
 2973              	.L183:
 151:..\..\..\liblc3\src/lc3.c **** 
 2974              		.loc 1 151 0
 2975 0054 0120     		movs	r0, #1
 2976              	.LVL462:
 2977 0056 4042     		rsbs	r0, r0, #0
 2978 0058 04E0     		b	.L180
 2979              	.LVL463:
 2980              	.L184:
 2981 005a 0120     		movs	r0, #1
 2982              	.LVL464:
 2983 005c 4042     		rsbs	r0, r0, #0
 2984 005e 01E0     		b	.L180
 2985              	.LVL465:
 2986              	.L185:
 2987 0060 0120     		movs	r0, #1
 2988              	.LVL466:
 2989 0062 4042     		rsbs	r0, r0, #0
 2990              	.L180:
 154:..\..\..\liblc3\src/lc3.c **** 
 2991              		.loc 1 154 0
 2992 0064 03B0     		add	sp, sp, #12
 2993              		@ sp needed
 2994              	.LVL467:
 2995              	.LVL468:
 2996 0066 F0BD     		pop	{r4, r5, r6, r7, pc}
 2997              	.L187:
 2998              		.align	2
 2999              	.L186:
 3000 0068 FFFFFF7F 		.word	2147483647
 3001              		.cfi_endproc
 3002              	.LFE28:
 3003              		.size	lc3_hr_resolve_bitrate, .-lc3_hr_resolve_bitrate
 3004              		.section	.text.lc3_resolve_bitrate,"ax",%progbits
 3005              		.align	2
 3006              		.global	lc3_resolve_bitrate
 3007              		.code	16
 3008              		.thumb_func
 3009              		.type	lc3_resolve_bitrate, %function
 3010              	lc3_resolve_bitrate:
 3011              	.LFB29:
 157:..\..\..\liblc3\src/lc3.c ****     return lc3_hr_resolve_bitrate(false, dt_us, 8000, nbytes);
 3012              		.loc 1 157 0
 3013              		.cfi_startproc
 3014              		@ args = 0, pretend = 0, frame = 0
 3015              		@ frame_needed = 0, uses_anonymous_args = 0
 3016              	.LVL469:
 3017 0000 10B5     		push	{r4, lr}
 3018              		.cfi_def_cfa_offset 8
 3019              		.cfi_offset 4, -8
 3020              		.cfi_offset 14, -4
 3021 0002 0B00     		movs	r3, r1
 158:..\..\..\liblc3\src/lc3.c **** }
 3022              		.loc 1 158 0
 3023 0004 FA22     		movs	r2, #250
 3024 0006 5201     		lsls	r2, r2, #5
ARM GAS  C:\Users\rdn\AppData\Local\Temp\cco7w9JJ.s 			page 76


 3025 0008 0100     		movs	r1, r0
 3026              	.LVL470:
 3027 000a 0020     		movs	r0, #0
 3028              	.LVL471:
 3029 000c FFF7FEFF 		bl	lc3_hr_resolve_bitrate
 3030              	.LVL472:
 159:..\..\..\liblc3\src/lc3.c **** 
 3031              		.loc 1 159 0
 3032              		@ sp needed
 3033 0010 10BD     		pop	{r4, pc}
 3034              		.cfi_endproc
 3035              	.LFE29:
 3036              		.size	lc3_resolve_bitrate, .-lc3_resolve_bitrate
 3037 0012 C046     		.section	.text.lc3_hr_delay_samples,"ax",%progbits
 3038              		.align	2
 3039              		.global	lc3_hr_delay_samples
 3040              		.code	16
 3041              		.thumb_func
 3042              		.type	lc3_hr_delay_samples, %function
 3043              	lc3_hr_delay_samples:
 3044              	.LFB30:
 165:..\..\..\liblc3\src/lc3.c ****     enum lc3_dt dt = resolve_dt(dt_us, hrmode);
 3045              		.loc 1 165 0
 3046              		.cfi_startproc
 3047              		@ args = 0, pretend = 0, frame = 0
 3048              		@ frame_needed = 0, uses_anonymous_args = 0
 3049              	.LVL473:
 3050 0000 F8B5     		push	{r3, r4, r5, r6, r7, lr}
 3051              		.cfi_def_cfa_offset 24
 3052              		.cfi_offset 3, -24
 3053              		.cfi_offset 4, -20
 3054              		.cfi_offset 5, -16
 3055              		.cfi_offset 6, -12
 3056              		.cfi_offset 7, -8
 3057              		.cfi_offset 14, -4
 3058 0002 0600     		movs	r6, r0
 3059 0004 0800     		movs	r0, r1
 3060              	.LVL474:
 3061 0006 1700     		movs	r7, r2
 166:..\..\..\liblc3\src/lc3.c ****     enum lc3_srate sr = resolve_srate(sr_hz, hrmode);
 3062              		.loc 1 166 0
 3063 0008 3100     		movs	r1, r6
 3064              	.LVL475:
 3065 000a FFF7FEFF 		bl	resolve_dt
 3066              	.LVL476:
 3067 000e 0400     		movs	r4, r0
 3068 0010 0500     		movs	r5, r0
 3069              	.LVL477:
 167:..\..\..\liblc3\src/lc3.c **** 
 3070              		.loc 1 167 0
 3071 0012 3100     		movs	r1, r6
 3072 0014 3800     		movs	r0, r7
 3073 0016 FFF7FEFF 		bl	resolve_srate
 3074              	.LVL478:
 169:..\..\..\liblc3\src/lc3.c ****         return -1;
 3075              		.loc 1 169 0
 3076 001a 032C     		cmp	r4, #3
ARM GAS  C:\Users\rdn\AppData\Local\Temp\cco7w9JJ.s 			page 77


 3077 001c 10D8     		bhi	.L192
 169:..\..\..\liblc3\src/lc3.c ****         return -1;
 3078              		.loc 1 169 0 is_stmt 0 discriminator 1
 3079 001e 0628     		cmp	r0, #6
 3080 0020 11D8     		bhi	.L193
 3081              	.LVL479:
 3082              	.LBB205:
 3083              	.LBB206:
 3084              	.LBB207:
 3085              	.LBB208:
  47:..\..\..\liblc3\src/tables.h **** }
 3086              		.loc 2 47 0 is_stmt 1
 3087 0022 8300     		lsls	r3, r0, #2
 3088 0024 094A     		ldr	r2, .L194
 3089 0026 9B58     		ldr	r3, [r3, r2]
 3090 0028 0134     		adds	r4, r4, #1
 3091              	.LVL480:
 3092 002a 5C43     		muls	r4, r3
 3093              	.LVL481:
 3094              	.LBE208:
 3095              	.LBE207:
  56:..\..\..\liblc3\src/tables.h **** }
 3096              		.loc 2 56 0
 3097 002c 022D     		cmp	r5, #2
 3098 002e 02D1     		bne	.L191
 3099 0030 8000     		lsls	r0, r0, #2
 3100              	.LVL482:
 3101 0032 074B     		ldr	r3, .L194+4
 3102 0034 C358     		ldr	r3, [r0, r3]
 3103              	.L191:
  55:..\..\..\liblc3\src/tables.h ****         (dt == LC3_DT_7M5 ? lc3_ns_4m[sr] : lc3_ns_2m5[sr]) ) >> 1;
 3104              		.loc 2 55 0
 3105 0036 E318     		adds	r3, r4, r3
 3106 0038 5B10     		asrs	r3, r3, #1
 3107              	.LBE206:
 3108              	.LBE205:
 172:..\..\..\liblc3\src/lc3.c **** }
 3109              		.loc 1 172 0
 3110 003a 5B00     		lsls	r3, r3, #1
 3111 003c 181B     		subs	r0, r3, r4
 3112 003e 04E0     		b	.L190
 3113              	.LVL483:
 3114              	.L192:
 170:..\..\..\liblc3\src/lc3.c **** 
 3115              		.loc 1 170 0
 3116 0040 0120     		movs	r0, #1
 3117              	.LVL484:
 3118 0042 4042     		rsbs	r0, r0, #0
 3119 0044 01E0     		b	.L190
 3120              	.LVL485:
 3121              	.L193:
 3122 0046 0120     		movs	r0, #1
 3123              	.LVL486:
 3124 0048 4042     		rsbs	r0, r0, #0
 3125              	.LVL487:
 3126              	.L190:
 173:..\..\..\liblc3\src/lc3.c **** 
ARM GAS  C:\Users\rdn\AppData\Local\Temp\cco7w9JJ.s 			page 78


 3127              		.loc 1 173 0
 3128              		@ sp needed
 3129              	.LVL488:
 3130 004a F8BD     		pop	{r3, r4, r5, r6, r7, pc}
 3131              	.L195:
 3132              		.align	2
 3133              	.L194:
 3134 004c 00000000 		.word	lc3_ns_2m5
 3135 0050 00000000 		.word	lc3_ns_4m
 3136              		.cfi_endproc
 3137              	.LFE30:
 3138              		.size	lc3_hr_delay_samples, .-lc3_hr_delay_samples
 3139              		.section	.text.lc3_delay_samples,"ax",%progbits
 3140              		.align	2
 3141              		.global	lc3_delay_samples
 3142              		.code	16
 3143              		.thumb_func
 3144              		.type	lc3_delay_samples, %function
 3145              	lc3_delay_samples:
 3146              	.LFB31:
 176:..\..\..\liblc3\src/lc3.c ****     return lc3_hr_delay_samples(false, dt_us, sr_hz);
 3147              		.loc 1 176 0
 3148              		.cfi_startproc
 3149              		@ args = 0, pretend = 0, frame = 0
 3150              		@ frame_needed = 0, uses_anonymous_args = 0
 3151              	.LVL489:
 3152 0000 10B5     		push	{r4, lr}
 3153              		.cfi_def_cfa_offset 8
 3154              		.cfi_offset 4, -8
 3155              		.cfi_offset 14, -4
 3156 0002 0A00     		movs	r2, r1
 177:..\..\..\liblc3\src/lc3.c **** }
 3157              		.loc 1 177 0
 3158 0004 0100     		movs	r1, r0
 3159              	.LVL490:
 3160 0006 0020     		movs	r0, #0
 3161              	.LVL491:
 3162 0008 FFF7FEFF 		bl	lc3_hr_delay_samples
 3163              	.LVL492:
 178:..\..\..\liblc3\src/lc3.c **** 
 3164              		.loc 1 178 0
 3165              		@ sp needed
 3166 000c 10BD     		pop	{r4, pc}
 3167              		.cfi_endproc
 3168              	.LFE31:
 3169              		.size	lc3_delay_samples, .-lc3_delay_samples
 3170 000e C046     		.section	.text.lc3_hr_encoder_size,"ax",%progbits
 3171              		.align	2
 3172              		.global	lc3_hr_encoder_size
 3173              		.code	16
 3174              		.thumb_func
 3175              		.type	lc3_hr_encoder_size, %function
 3176              	lc3_hr_encoder_size:
 3177              	.LFB38:
 372:..\..\..\liblc3\src/lc3.c ****     if (resolve_dt(dt_us, hrmode) >= LC3_NUM_DT ||
 3178              		.loc 1 372 0
 3179              		.cfi_startproc
ARM GAS  C:\Users\rdn\AppData\Local\Temp\cco7w9JJ.s 			page 79


 3180              		@ args = 0, pretend = 0, frame = 0
 3181              		@ frame_needed = 0, uses_anonymous_args = 0
 3182              	.LVL493:
 3183 0000 F8B5     		push	{r3, r4, r5, r6, r7, lr}
 3184              		.cfi_def_cfa_offset 24
 3185              		.cfi_offset 3, -24
 3186              		.cfi_offset 4, -20
 3187              		.cfi_offset 5, -16
 3188              		.cfi_offset 6, -12
 3189              		.cfi_offset 7, -8
 3190              		.cfi_offset 14, -4
 3191 0002 0600     		movs	r6, r0
 3192 0004 0D00     		movs	r5, r1
 3193 0006 1400     		movs	r4, r2
 373:..\..\..\liblc3\src/lc3.c ****         resolve_srate(sr_hz, hrmode) >= LC3_NUM_SRATE)
 3194              		.loc 1 373 0
 3195 0008 0100     		movs	r1, r0
 3196              	.LVL494:
 3197 000a 2800     		movs	r0, r5
 3198              	.LVL495:
 3199 000c FFF7FEFF 		bl	resolve_dt
 3200              	.LVL496:
 3201 0010 0328     		cmp	r0, #3
 3202 0012 2CD8     		bhi	.L200
 374:..\..\..\liblc3\src/lc3.c ****         return 0;
 3203              		.loc 1 374 0 discriminator 1
 3204 0014 3100     		movs	r1, r6
 3205 0016 2000     		movs	r0, r4
 3206 0018 FFF7FEFF 		bl	resolve_srate
 3207              	.LVL497:
 373:..\..\..\liblc3\src/lc3.c ****         resolve_srate(sr_hz, hrmode) >= LC3_NUM_SRATE)
 3208              		.loc 1 373 0 discriminator 1
 3209 001c 0628     		cmp	r0, #6
 3210 001e 28D8     		bhi	.L201
 378:..\..\..\liblc3\src/lc3.c **** }
 3211              		.loc 1 378 0
 3212 0020 2600     		movs	r6, r4
 3213 0022 6E43     		muls	r6, r5
 3214 0024 1449     		ldr	r1, .L203
 3215 0026 3000     		movs	r0, r6
 3216 0028 FFF7FEFF 		bl	__aeabi_idiv
 3217              	.LVL498:
 3218 002c 0700     		movs	r7, r0
 3219 002e 1348     		ldr	r0, .L203+4
 3220 0030 6043     		muls	r0, r4
 3221 0032 1149     		ldr	r1, .L203
 3222 0034 FFF7FEFF 		bl	__aeabi_idiv
 3223              	.LVL499:
 3224 0038 3818     		adds	r0, r7, r0
 3225 003a C30F     		lsrs	r3, r0, #31
 3226 003c 1818     		adds	r0, r3, r0
 3227 003e 4010     		asrs	r0, r0, #1
 3228 0040 3F18     		adds	r7, r7, r0
 3229 0042 0F49     		ldr	r1, .L203+8
 3230 0044 3000     		movs	r0, r6
 3231 0046 FFF7FEFF 		bl	__aeabi_idiv
 3232              	.LVL500:
ARM GAS  C:\Users\rdn\AppData\Local\Temp\cco7w9JJ.s 			page 80


 3233 004a 0600     		movs	r6, r0
 3234 004c 0D4B     		ldr	r3, .L203+12
 3235 004e 9D42     		cmp	r5, r3
 3236 0050 02D1     		bne	.L202
 3237 0052 FA20     		movs	r0, #250
 3238 0054 C000     		lsls	r0, r0, #3
 3239 0056 00E0     		b	.L199
 3240              	.L202:
 3241 0058 0848     		ldr	r0, .L203+4
 3242              	.L199:
 378:..\..\..\liblc3\src/lc3.c **** }
 3243              		.loc 1 378 0 is_stmt 0 discriminator 4
 3244 005a 6043     		muls	r0, r4
 3245 005c 0649     		ldr	r1, .L203
 3246 005e FFF7FEFF 		bl	__aeabi_idiv
 3247              	.LVL501:
 3248 0062 3018     		adds	r0, r6, r0
 3249 0064 3818     		adds	r0, r7, r0
 377:..\..\..\liblc3\src/lc3.c ****         (LC3_ENCODER_BUFFER_COUNT(dt_us, sr_hz)-1) * sizeof(float);
 3250              		.loc 1 377 0 is_stmt 1 discriminator 4
 3251 0066 2C30     		adds	r0, r0, #44
 3252 0068 FF30     		adds	r0, r0, #255
 3253 006a 8000     		lsls	r0, r0, #2
 3254 006c 02E0     		b	.L198
 3255              	.L200:
 375:..\..\..\liblc3\src/lc3.c **** 
 3256              		.loc 1 375 0
 3257 006e 0020     		movs	r0, #0
 3258 0070 00E0     		b	.L198
 3259              	.L201:
 3260 0072 0020     		movs	r0, #0
 3261              	.L198:
 379:..\..\..\liblc3\src/lc3.c **** 
 3262              		.loc 1 379 0
 3263              		@ sp needed
 3264              	.LVL502:
 3265              	.LVL503:
 3266 0074 F8BD     		pop	{r3, r4, r5, r6, r7, pc}
 3267              	.L204:
 3268 0076 C046     		.align	2
 3269              	.L203:
 3270 0078 40420F00 		.word	1000000
 3271 007c E2040000 		.word	1250
 3272 0080 80841E00 		.word	2000000
 3273 0084 4C1D0000 		.word	7500
 3274              		.cfi_endproc
 3275              	.LFE38:
 3276              		.size	lc3_hr_encoder_size, .-lc3_hr_encoder_size
 3277              		.section	.text.lc3_encoder_size,"ax",%progbits
 3278              		.align	2
 3279              		.global	lc3_encoder_size
 3280              		.code	16
 3281              		.thumb_func
 3282              		.type	lc3_encoder_size, %function
 3283              	lc3_encoder_size:
 3284              	.LFB39:
 382:..\..\..\liblc3\src/lc3.c ****     return lc3_hr_encoder_size(false, dt_us, sr_hz);
ARM GAS  C:\Users\rdn\AppData\Local\Temp\cco7w9JJ.s 			page 81


 3285              		.loc 1 382 0
 3286              		.cfi_startproc
 3287              		@ args = 0, pretend = 0, frame = 0
 3288              		@ frame_needed = 0, uses_anonymous_args = 0
 3289              	.LVL504:
 3290 0000 10B5     		push	{r4, lr}
 3291              		.cfi_def_cfa_offset 8
 3292              		.cfi_offset 4, -8
 3293              		.cfi_offset 14, -4
 3294 0002 0A00     		movs	r2, r1
 383:..\..\..\liblc3\src/lc3.c **** }
 3295              		.loc 1 383 0
 3296 0004 0100     		movs	r1, r0
 3297              	.LVL505:
 3298 0006 0020     		movs	r0, #0
 3299              	.LVL506:
 3300 0008 FFF7FEFF 		bl	lc3_hr_encoder_size
 3301              	.LVL507:
 384:..\..\..\liblc3\src/lc3.c **** 
 3302              		.loc 1 384 0
 3303              		@ sp needed
 3304 000c 10BD     		pop	{r4, pc}
 3305              		.cfi_endproc
 3306              	.LFE39:
 3307              		.size	lc3_encoder_size, .-lc3_encoder_size
 3308 000e C046     		.section	.text.lc3_hr_setup_encoder,"ax",%progbits
 3309              		.align	2
 3310              		.global	lc3_hr_setup_encoder
 3311              		.code	16
 3312              		.thumb_func
 3313              		.type	lc3_hr_setup_encoder, %function
 3314              	lc3_hr_setup_encoder:
 3315              	.LFB40:
 391:..\..\..\liblc3\src/lc3.c ****     if (sr_pcm_hz <= 0)
 3316              		.loc 1 391 0
 3317              		.cfi_startproc
 3318              		@ args = 4, pretend = 0, frame = 8
 3319              		@ frame_needed = 0, uses_anonymous_args = 0
 3320              	.LVL508:
 3321 0000 F0B5     		push	{r4, r5, r6, r7, lr}
 3322              		.cfi_def_cfa_offset 20
 3323              		.cfi_offset 4, -20
 3324              		.cfi_offset 5, -16
 3325              		.cfi_offset 6, -12
 3326              		.cfi_offset 7, -8
 3327              		.cfi_offset 14, -4
 3328 0002 5F46     		mov	r7, fp
 3329 0004 5646     		mov	r6, r10
 3330 0006 4D46     		mov	r5, r9
 3331 0008 E0B4     		push	{r5, r6, r7}
 3332              		.cfi_def_cfa_offset 32
 3333              		.cfi_offset 9, -32
 3334              		.cfi_offset 10, -28
 3335              		.cfi_offset 11, -24
 3336 000a 82B0     		sub	sp, sp, #8
 3337              		.cfi_def_cfa_offset 40
 3338 000c 0500     		movs	r5, r0
ARM GAS  C:\Users\rdn\AppData\Local\Temp\cco7w9JJ.s 			page 82


 3339 000e 0091     		str	r1, [sp]
 3340 0010 0192     		str	r2, [sp, #4]
 3341 0012 1E1E     		subs	r6, r3, #0
 3342 0014 0A9C     		ldr	r4, [sp, #40]
 392:..\..\..\liblc3\src/lc3.c ****         sr_pcm_hz = sr_hz;
 3343              		.loc 1 392 0
 3344 0016 00DC     		bgt	.L207
 393:..\..\..\liblc3\src/lc3.c **** 
 3345              		.loc 1 393 0
 3346 0018 1600     		movs	r6, r2
 3347              	.L207:
 3348              	.LVL509:
 395:..\..\..\liblc3\src/lc3.c ****     enum lc3_srate sr = resolve_srate(sr_hz, hrmode);
 3349              		.loc 1 395 0
 3350 001a 2900     		movs	r1, r5
 3351              	.LVL510:
 3352 001c 0098     		ldr	r0, [sp]
 3353              	.LVL511:
 3354 001e FFF7FEFF 		bl	resolve_dt
 3355              	.LVL512:
 3356 0022 0700     		movs	r7, r0
 3357              	.LVL513:
 396:..\..\..\liblc3\src/lc3.c ****     enum lc3_srate sr_pcm = resolve_srate(sr_pcm_hz, hrmode);
 3358              		.loc 1 396 0
 3359 0024 2900     		movs	r1, r5
 3360 0026 0198     		ldr	r0, [sp, #4]
 3361 0028 FFF7FEFF 		bl	resolve_srate
 3362              	.LVL514:
 3363 002c 0190     		str	r0, [sp, #4]
 3364              	.LVL515:
 3365 002e 8246     		mov	r10, r0
 3366              	.LVL516:
 397:..\..\..\liblc3\src/lc3.c **** 
 3367              		.loc 1 397 0
 3368 0030 2900     		movs	r1, r5
 3369 0032 3000     		movs	r0, r6
 3370 0034 FFF7FEFF 		bl	resolve_srate
 3371              	.LVL517:
 3372 0038 0500     		movs	r5, r0
 3373              	.LVL518:
 399:..\..\..\liblc3\src/lc3.c ****         return NULL;
 3374              		.loc 1 399 0
 3375 003a 032F     		cmp	r7, #3
 3376 003c 56D8     		bhi	.L211
 399:..\..\..\liblc3\src/lc3.c ****         return NULL;
 3377              		.loc 1 399 0 is_stmt 0 discriminator 1
 3378 003e 0628     		cmp	r0, #6
 3379 0040 56D8     		bhi	.L212
 399:..\..\..\liblc3\src/lc3.c ****         return NULL;
 3380              		.loc 1 399 0 discriminator 2
 3381 0042 8245     		cmp	r10, r0
 3382 0044 56D8     		bhi	.L213
 399:..\..\..\liblc3\src/lc3.c ****         return NULL;
 3383              		.loc 1 399 0 discriminator 3
 3384 0046 002C     		cmp	r4, #0
 3385 0048 56D0     		beq	.L214
 3386              	.LVL519:
ARM GAS  C:\Users\rdn\AppData\Local\Temp\cco7w9JJ.s 			page 83


 3387              	.LBB209:
 3388              	.LBB210:
  47:..\..\..\liblc3\src/tables.h **** }
 3389              		.loc 2 47 0 is_stmt 1
 3390 004a 8200     		lsls	r2, r0, #2
 3391 004c 2E4B     		ldr	r3, .L216
 3392 004e D258     		ldr	r2, [r2, r3]
 3393 0050 7B1C     		adds	r3, r7, #1
 3394 0052 5343     		muls	r3, r2
 3395              	.LVL520:
 3396              	.LBE210:
 3397              	.LBE209:
 3398              	.LBB211:
 3399              	.LBB212:
  65:..\..\..\liblc3\src/tables.h **** }
 3400              		.loc 2 65 0
 3401 0054 5110     		asrs	r1, r2, #1
 3402 0056 8A46     		mov	r10, r1
 3403              	.LVL521:
 3404              	.LBE212:
 3405              	.LBE211:
 411:..\..\..\liblc3\src/lc3.c ****         .xd_off = (nt + ns) / 2 + ns,
 3406              		.loc 1 411 0
 3407 0058 CA18     		adds	r2, r1, r3
 412:..\..\..\liblc3\src/lc3.c ****     };
 3408              		.loc 1 412 0
 3409 005a D10F     		lsrs	r1, r2, #31
 3410 005c 8A18     		adds	r2, r1, r2
 3411 005e 5110     		asrs	r1, r2, #1
 3412 0060 8946     		mov	r9, r1
 3413 0062 9B46     		mov	fp, r3
 3414 0064 CB44     		add	fp, fp, r9
 406:..\..\..\liblc3\src/lc3.c ****         .dt = dt, .sr = sr,
 3415              		.loc 1 406 0
 3416 0066 9622     		movs	r2, #150
 3417 0068 D200     		lsls	r2, r2, #3
 3418 006a 0021     		movs	r1, #0
 3419 006c 2000     		movs	r0, r4
 3420              	.LVL522:
 3421 006e FFF7FEFF 		bl	memset
 3422              	.LVL523:
 3423 0072 2770     		strb	r7, [r4]
 3424 0074 6B46     		mov	r3, sp
 3425 0076 1B79     		ldrb	r3, [r3, #4]
 3426 0078 6370     		strb	r3, [r4, #1]
 3427 007a A570     		strb	r5, [r4, #2]
 3428 007c 9423     		movs	r3, #148
 3429 007e DB00     		lsls	r3, r3, #3
 3430 0080 5146     		mov	r1, r10
 3431 0082 E150     		str	r1, [r4, r3]
 3432 0084 214B     		ldr	r3, .L216+4
 3433 0086 4946     		mov	r1, r9
 3434 0088 E150     		str	r1, [r4, r3]
 3435 008a 0433     		adds	r3, r3, #4
 3436 008c 5946     		mov	r1, fp
 3437 008e E150     		str	r1, [r4, r3]
 415:..\..\..\liblc3\src/lc3.c ****         LC3_ENCODER_BUFFER_COUNT(dt_us, sr_pcm_hz) * sizeof(float));
ARM GAS  C:\Users\rdn\AppData\Local\Temp\cco7w9JJ.s 			page 84


 3438              		.loc 1 415 0
 3439 0090 1F4B     		ldr	r3, .L216+8
 3440 0092 9946     		mov	r9, r3
 3441 0094 A144     		add	r9, r9, r4
 416:..\..\..\liblc3\src/lc3.c **** 
 3442              		.loc 1 416 0
 3443 0096 009D     		ldr	r5, [sp]
 3444 0098 7543     		muls	r5, r6
 3445 009a 1E49     		ldr	r1, .L216+12
 3446 009c 2800     		movs	r0, r5
 3447 009e FFF7FEFF 		bl	__aeabi_idiv
 3448              	.LVL524:
 3449 00a2 0700     		movs	r7, r0
 3450              	.LVL525:
 3451 00a4 1C48     		ldr	r0, .L216+16
 3452 00a6 7043     		muls	r0, r6
 3453 00a8 1A49     		ldr	r1, .L216+12
 3454 00aa FFF7FEFF 		bl	__aeabi_idiv
 3455              	.LVL526:
 3456 00ae 3818     		adds	r0, r7, r0
 3457 00b0 C20F     		lsrs	r2, r0, #31
 3458 00b2 1018     		adds	r0, r2, r0
 3459 00b4 4010     		asrs	r0, r0, #1
 3460 00b6 3F18     		adds	r7, r7, r0
 3461 00b8 1849     		ldr	r1, .L216+20
 3462 00ba 2800     		movs	r0, r5
 3463 00bc FFF7FEFF 		bl	__aeabi_idiv
 3464              	.LVL527:
 3465 00c0 0500     		movs	r5, r0
 3466 00c2 174B     		ldr	r3, .L216+24
 3467 00c4 009A     		ldr	r2, [sp]
 3468 00c6 9A42     		cmp	r2, r3
 3469 00c8 02D1     		bne	.L215
 3470 00ca FA20     		movs	r0, #250
 3471 00cc C000     		lsls	r0, r0, #3
 3472 00ce 00E0     		b	.L209
 3473              	.L215:
 3474 00d0 1148     		ldr	r0, .L216+16
 3475              	.L209:
 416:..\..\..\liblc3\src/lc3.c **** 
 3476              		.loc 1 416 0 is_stmt 0 discriminator 4
 3477 00d2 7043     		muls	r0, r6
 3478 00d4 0F49     		ldr	r1, .L216+12
 3479 00d6 FFF7FEFF 		bl	__aeabi_idiv
 3480              	.LVL528:
 3481 00da 2A18     		adds	r2, r5, r0
 3482 00dc BA18     		adds	r2, r7, r2
 415:..\..\..\liblc3\src/lc3.c ****         LC3_ENCODER_BUFFER_COUNT(dt_us, sr_pcm_hz) * sizeof(float));
 3483              		.loc 1 415 0 is_stmt 1 discriminator 4
 3484 00de 9200     		lsls	r2, r2, #2
 3485 00e0 0021     		movs	r1, #0
 3486 00e2 4846     		mov	r0, r9
 3487 00e4 FFF7FEFF 		bl	memset
 3488              	.LVL529:
 418:..\..\..\liblc3\src/lc3.c **** }
 3489              		.loc 1 418 0 discriminator 4
 3490 00e8 2000     		movs	r0, r4
ARM GAS  C:\Users\rdn\AppData\Local\Temp\cco7w9JJ.s 			page 85


 3491 00ea 06E0     		b	.L208
 3492              	.LVL530:
 3493              	.L211:
 400:..\..\..\liblc3\src/lc3.c **** 
 3494              		.loc 1 400 0
 3495 00ec 0020     		movs	r0, #0
 3496              	.LVL531:
 3497 00ee 04E0     		b	.L208
 3498              	.LVL532:
 3499              	.L212:
 3500 00f0 0020     		movs	r0, #0
 3501              	.LVL533:
 3502 00f2 02E0     		b	.L208
 3503              	.LVL534:
 3504              	.L213:
 3505 00f4 0020     		movs	r0, #0
 3506              	.LVL535:
 3507 00f6 00E0     		b	.L208
 3508              	.LVL536:
 3509              	.L214:
 3510 00f8 0020     		movs	r0, #0
 3511              	.LVL537:
 3512              	.L208:
 419:..\..\..\liblc3\src/lc3.c **** 
 3513              		.loc 1 419 0
 3514 00fa 02B0     		add	sp, sp, #8
 3515              	.LVL538:
 3516              		@ sp needed
 3517              	.LVL539:
 3518 00fc 1CBC     		pop	{r2, r3, r4}
 3519 00fe 9146     		mov	r9, r2
 3520 0100 9A46     		mov	r10, r3
 3521 0102 A346     		mov	fp, r4
 3522 0104 F0BD     		pop	{r4, r5, r6, r7, pc}
 3523              	.L217:
 3524 0106 C046     		.align	2
 3525              	.L216:
 3526 0108 00000000 		.word	lc3_ns_2m5
 3527 010c A4040000 		.word	1188
 3528 0110 AC040000 		.word	1196
 3529 0114 40420F00 		.word	1000000
 3530 0118 E2040000 		.word	1250
 3531 011c 80841E00 		.word	2000000
 3532 0120 4C1D0000 		.word	7500
 3533              		.cfi_endproc
 3534              	.LFE40:
 3535              		.size	lc3_hr_setup_encoder, .-lc3_hr_setup_encoder
 3536              		.section	.text.lc3_setup_encoder,"ax",%progbits
 3537              		.align	2
 3538              		.global	lc3_setup_encoder
 3539              		.code	16
 3540              		.thumb_func
 3541              		.type	lc3_setup_encoder, %function
 3542              	lc3_setup_encoder:
 3543              	.LFB41:
 423:..\..\..\liblc3\src/lc3.c ****     return lc3_hr_setup_encoder(false, dt_us, sr_hz, sr_pcm_hz, mem);
 3544              		.loc 1 423 0
ARM GAS  C:\Users\rdn\AppData\Local\Temp\cco7w9JJ.s 			page 86


 3545              		.cfi_startproc
 3546              		@ args = 0, pretend = 0, frame = 0
 3547              		@ frame_needed = 0, uses_anonymous_args = 0
 3548              	.LVL540:
 3549 0000 00B5     		push	{lr}
 3550              		.cfi_def_cfa_offset 4
 3551              		.cfi_offset 14, -4
 3552 0002 83B0     		sub	sp, sp, #12
 3553              		.cfi_def_cfa_offset 16
 424:..\..\..\liblc3\src/lc3.c **** }
 3554              		.loc 1 424 0
 3555 0004 0093     		str	r3, [sp]
 3556 0006 1300     		movs	r3, r2
 3557              	.LVL541:
 3558 0008 0A00     		movs	r2, r1
 3559              	.LVL542:
 3560 000a 0100     		movs	r1, r0
 3561              	.LVL543:
 3562 000c 0020     		movs	r0, #0
 3563              	.LVL544:
 3564 000e FFF7FEFF 		bl	lc3_hr_setup_encoder
 3565              	.LVL545:
 425:..\..\..\liblc3\src/lc3.c **** 
 3566              		.loc 1 425 0
 3567 0012 03B0     		add	sp, sp, #12
 3568              		@ sp needed
 3569 0014 00BD     		pop	{pc}
 3570              		.cfi_endproc
 3571              	.LFE41:
 3572              		.size	lc3_setup_encoder, .-lc3_setup_encoder
 3573 0016 C046     		.section	.text.lc3_encode,"ax",%progbits
 3574              		.align	2
 3575              		.global	lc3_encode
 3576              		.code	16
 3577              		.thumb_func
 3578              		.type	lc3_encode, %function
 3579              	lc3_encode:
 3580              	.LFB42:
 432:..\..\..\liblc3\src/lc3.c ****     static void (* const load[])(struct lc3_encoder *, const void *, int) = {
 3581              		.loc 1 432 0
 3582              		.cfi_startproc
 3583              		@ args = 8, pretend = 0, frame = 136
 3584              		@ frame_needed = 0, uses_anonymous_args = 0
 3585              	.LVL546:
 3586 0000 F0B5     		push	{r4, r5, r6, r7, lr}
 3587              		.cfi_def_cfa_offset 20
 3588              		.cfi_offset 4, -20
 3589              		.cfi_offset 5, -16
 3590              		.cfi_offset 6, -12
 3591              		.cfi_offset 7, -8
 3592              		.cfi_offset 14, -4
 3593 0002 A3B0     		sub	sp, sp, #140
 3594              		.cfi_def_cfa_offset 160
 3595 0004 0600     		movs	r6, r0
 3596 0006 1500     		movs	r5, r2
 442:..\..\..\liblc3\src/lc3.c ****                  || nbytes > lc3_max_frame_bytes(encoder->dt, encoder->sr))
 3597              		.loc 1 442 0
ARM GAS  C:\Users\rdn\AppData\Local\Temp\cco7w9JJ.s 			page 87


 3598 0008 0028     		cmp	r0, #0
 3599 000a 31D0     		beq	.L223
 442:..\..\..\liblc3\src/lc3.c ****                  || nbytes > lc3_max_frame_bytes(encoder->dt, encoder->sr))
 3600              		.loc 1 442 0 is_stmt 0 discriminator 1
 3601 000c 0778     		ldrb	r7, [r0]
 3602 000e 4078     		ldrb	r0, [r0, #1]
 3603              	.LVL547:
 3604              	.LBB213:
 3605              	.LBB214:
  82:..\..\..\liblc3\src/tables.h ****         lc3_frame_bytes_hr_lim[dt][sr - LC3_SRATE_48K_HR][0];
 3606              		.loc 2 82 0 is_stmt 1 discriminator 1
 3607 0010 0428     		cmp	r0, #4
 3608 0012 06D9     		bls	.L224
  83:..\..\..\liblc3\src/tables.h **** }
 3609              		.loc 2 83 0
 3610 0014 421F     		subs	r2, r0, #5
 3611              	.LVL548:
  82:..\..\..\liblc3\src/tables.h ****         lc3_frame_bytes_hr_lim[dt][sr - LC3_SRATE_48K_HR][0];
 3612              		.loc 2 82 0
 3613 0016 7C00     		lsls	r4, r7, #1
 3614 0018 A218     		adds	r2, r4, r2
 3615 001a D200     		lsls	r2, r2, #3
 3616 001c 194C     		ldr	r4, .L228
 3617 001e 1259     		ldr	r2, [r2, r4]
 3618 0020 00E0     		b	.L221
 3619              	.LVL549:
 3620              	.L224:
 3621 0022 1422     		movs	r2, #20
 3622              	.LVL550:
 3623              	.L221:
 3624              	.LBE214:
 3625              	.LBE213:
 442:..\..\..\liblc3\src/lc3.c ****                  || nbytes > lc3_max_frame_bytes(encoder->dt, encoder->sr))
 3626              		.loc 1 442 0
 3627 0024 289C     		ldr	r4, [sp, #160]
 3628 0026 9442     		cmp	r4, r2
 3629 0028 25DB     		blt	.L225
 3630              	.LVL551:
 3631              	.LBB215:
 3632              	.LBB216:
  87:..\..\..\liblc3\src/tables.h ****         lc3_frame_bytes_hr_lim[dt][sr - LC3_SRATE_48K_HR][1];
 3633              		.loc 2 87 0
 3634 002a 0428     		cmp	r0, #4
 3635 002c 07D9     		bls	.L226
 3636              		.loc 2 88 0
 3637 002e 421F     		subs	r2, r0, #5
  87:..\..\..\liblc3\src/tables.h ****         lc3_frame_bytes_hr_lim[dt][sr - LC3_SRATE_48K_HR][1];
 3638              		.loc 2 87 0
 3639 0030 7800     		lsls	r0, r7, #1
 3640              	.LVL552:
 3641 0032 8018     		adds	r0, r0, r2
 3642 0034 C000     		lsls	r0, r0, #3
 3643 0036 134A     		ldr	r2, .L228
 3644              	.LVL553:
 3645 0038 1018     		adds	r0, r2, r0
 3646 003a 4268     		ldr	r2, [r0, #4]
 3647 003c 01E0     		b	.L222
ARM GAS  C:\Users\rdn\AppData\Local\Temp\cco7w9JJ.s 			page 88


 3648              	.LVL554:
 3649              	.L226:
 3650 003e C822     		movs	r2, #200
 3651 0040 5200     		lsls	r2, r2, #1
 3652              	.LVL555:
 3653              	.L222:
 3654              	.LBE216:
 3655              	.LBE215:
 443:..\..\..\liblc3\src/lc3.c ****         return -1;
 3656              		.loc 1 443 0
 3657 0042 2898     		ldr	r0, [sp, #160]
 3658 0044 9042     		cmp	r0, r2
 3659 0046 19DC     		bgt	.L227
 450:..\..\..\liblc3\src/lc3.c **** 
 3660              		.loc 1 450 0
 3661 0048 8900     		lsls	r1, r1, #2
 3662              	.LVL556:
 3663 004a 0F4A     		ldr	r2, .L228+4
 3664 004c 8F58     		ldr	r7, [r1, r2]
 3665 004e 1A00     		movs	r2, r3
 3666 0050 2900     		movs	r1, r5
 3667 0052 3000     		movs	r0, r6
 3668 0054 B847     		blx	r7
 3669              	.LVL557:
 452:..\..\..\liblc3\src/lc3.c **** 
 3670              		.loc 1 452 0
 3671 0056 01AA     		add	r2, sp, #4
 3672 0058 2899     		ldr	r1, [sp, #160]
 3673 005a 3000     		movs	r0, r6
 3674 005c FFF7FEFF 		bl	analyze
 3675              	.LVL558:
 454:..\..\..\liblc3\src/lc3.c **** 
 3676              		.loc 1 454 0
 3677 0060 299B     		ldr	r3, [sp, #164]
 3678 0062 289A     		ldr	r2, [sp, #160]
 3679 0064 01A9     		add	r1, sp, #4
 3680 0066 3000     		movs	r0, r6
 3681 0068 FFF7FEFF 		bl	encode
 3682              	.LVL559:
 456:..\..\..\liblc3\src/lc3.c **** }
 3683              		.loc 1 456 0
 3684 006c 0020     		movs	r0, #0
 3685 006e 07E0     		b	.L220
 3686              	.LVL560:
 3687              	.L223:
 444:..\..\..\liblc3\src/lc3.c **** 
 3688              		.loc 1 444 0
 3689 0070 0120     		movs	r0, #1
 3690              	.LVL561:
 3691 0072 4042     		rsbs	r0, r0, #0
 3692 0074 04E0     		b	.L220
 3693              	.LVL562:
 3694              	.L225:
 3695 0076 0120     		movs	r0, #1
 3696 0078 4042     		rsbs	r0, r0, #0
 3697 007a 01E0     		b	.L220
 3698              	.L227:
ARM GAS  C:\Users\rdn\AppData\Local\Temp\cco7w9JJ.s 			page 89


 3699 007c 0120     		movs	r0, #1
 3700 007e 4042     		rsbs	r0, r0, #0
 3701              	.LVL563:
 3702              	.L220:
 457:..\..\..\liblc3\src/lc3.c **** 
 3703              		.loc 1 457 0
 3704 0080 23B0     		add	sp, sp, #140
 3705              		@ sp needed
 3706              	.LVL564:
 3707              	.LVL565:
 3708 0082 F0BD     		pop	{r4, r5, r6, r7, pc}
 3709              	.L229:
 3710              		.align	2
 3711              	.L228:
 3712 0084 00000000 		.word	lc3_frame_bytes_hr_lim
 3713 0088 00000000 		.word	.LANCHOR0
 3714              		.cfi_endproc
 3715              	.LFE42:
 3716              		.size	lc3_encode, .-lc3_encode
 3717              		.global	__aeabi_idivmod
 3718              		.section	.text.lc3_hr_decoder_size,"ax",%progbits
 3719              		.align	2
 3720              		.global	lc3_hr_decoder_size
 3721              		.code	16
 3722              		.thumb_func
 3723              		.type	lc3_hr_decoder_size, %function
 3724              	lc3_hr_decoder_size:
 3725              	.LFB50:
 667:..\..\..\liblc3\src/lc3.c **** 
 668:..\..\..\liblc3\src/lc3.c **** /**
 669:..\..\..\liblc3\src/lc3.c ****  * Return size needed for a decoder
 670:..\..\..\liblc3\src/lc3.c ****  */
 671:..\..\..\liblc3\src/lc3.c **** LC3_EXPORT unsigned lc3_hr_decoder_size(bool hrmode, int dt_us, int sr_hz)
 672:..\..\..\liblc3\src/lc3.c **** {
 3726              		.loc 1 672 0
 3727              		.cfi_startproc
 3728              		@ args = 0, pretend = 0, frame = 0
 3729              		@ frame_needed = 0, uses_anonymous_args = 0
 3730              	.LVL566:
 3731 0000 F0B5     		push	{r4, r5, r6, r7, lr}
 3732              		.cfi_def_cfa_offset 20
 3733              		.cfi_offset 4, -20
 3734              		.cfi_offset 5, -16
 3735              		.cfi_offset 6, -12
 3736              		.cfi_offset 7, -8
 3737              		.cfi_offset 14, -4
 3738 0002 4746     		mov	r7, r8
 3739 0004 80B4     		push	{r7}
 3740              		.cfi_def_cfa_offset 24
 3741              		.cfi_offset 8, -24
 3742 0006 0600     		movs	r6, r0
 3743 0008 0D00     		movs	r5, r1
 3744 000a 1400     		movs	r4, r2
 673:..\..\..\liblc3\src/lc3.c ****     if (resolve_dt(dt_us, hrmode) >= LC3_NUM_DT ||
 3745              		.loc 1 673 0
 3746 000c 0100     		movs	r1, r0
 3747              	.LVL567:
ARM GAS  C:\Users\rdn\AppData\Local\Temp\cco7w9JJ.s 			page 90


 3748 000e 2800     		movs	r0, r5
 3749              	.LVL568:
 3750 0010 FFF7FEFF 		bl	resolve_dt
 3751              	.LVL569:
 3752 0014 0328     		cmp	r0, #3
 3753 0016 3BD8     		bhi	.L234
 674:..\..\..\liblc3\src/lc3.c ****         resolve_srate(sr_hz, hrmode) >= LC3_NUM_SRATE)
 3754              		.loc 1 674 0 discriminator 1
 3755 0018 3100     		movs	r1, r6
 3756 001a 2000     		movs	r0, r4
 3757 001c FFF7FEFF 		bl	resolve_srate
 3758              	.LVL570:
 673:..\..\..\liblc3\src/lc3.c ****     if (resolve_dt(dt_us, hrmode) >= LC3_NUM_DT ||
 3759              		.loc 1 673 0 discriminator 1
 3760 0020 0628     		cmp	r0, #6
 3761 0022 37D8     		bhi	.L235
 675:..\..\..\liblc3\src/lc3.c ****         return 0;
 676:..\..\..\liblc3\src/lc3.c **** 
 677:..\..\..\liblc3\src/lc3.c ****     return sizeof(struct lc3_decoder) +
 678:..\..\..\liblc3\src/lc3.c ****         (LC3_DECODER_BUFFER_COUNT(dt_us, sr_hz)-1) * sizeof(float);
 3762              		.loc 1 678 0
 3763 0024 1D4B     		ldr	r3, .L238
 3764 0026 9C42     		cmp	r4, r3
 3765 0028 12DC     		bgt	.L236
 3766              		.loc 1 678 0 is_stmt 0 discriminator 1
 3767 002a 1D48     		ldr	r0, .L238+4
 3768 002c 6043     		muls	r0, r4
 3769 002e 1D49     		ldr	r1, .L238+8
 3770 0030 FFF7FEFF 		bl	__aeabi_idiv
 3771              	.LVL571:
 3772 0034 0700     		movs	r7, r0
 3773 0036 1B49     		ldr	r1, .L238+8
 3774 0038 2000     		movs	r0, r4
 3775 003a 6843     		muls	r0, r5
 3776 003c FFF7FEFF 		bl	__aeabi_idiv
 3777              	.LVL572:
 3778 0040 0100     		movs	r1, r0
 3779 0042 3E18     		adds	r6, r7, r0
 3780 0044 3800     		movs	r0, r7
 3781 0046 FFF7FEFF 		bl	__aeabi_idivmod
 3782              	.LVL573:
 3783 004a 731A     		subs	r3, r6, r1
 3784 004c 9846     		mov	r8, r3
 3785 004e 01E0     		b	.L232
 3786              	.L236:
 3787              		.loc 1 678 0
 3788 0050 0023     		movs	r3, #0
 3789 0052 9846     		mov	r8, r3
 3790              	.L232:
 3791              		.loc 1 678 0 discriminator 4
 3792 0054 2700     		movs	r7, r4
 3793 0056 6F43     		muls	r7, r5
 3794 0058 1249     		ldr	r1, .L238+8
 3795 005a 3800     		movs	r0, r7
 3796 005c FFF7FEFF 		bl	__aeabi_idiv
 3797              	.LVL574:
 3798 0060 0600     		movs	r6, r0
ARM GAS  C:\Users\rdn\AppData\Local\Temp\cco7w9JJ.s 			page 91


 3799 0062 8044     		add	r8, r8, r0
 3800 0064 1049     		ldr	r1, .L238+12
 3801 0066 3800     		movs	r0, r7
 3802 0068 FFF7FEFF 		bl	__aeabi_idiv
 3803              	.LVL575:
 3804 006c 0700     		movs	r7, r0
 3805 006e 0F4B     		ldr	r3, .L238+16
 3806 0070 9D42     		cmp	r5, r3
 3807 0072 02D1     		bne	.L237
 3808              		.loc 1 678 0
 3809 0074 FA20     		movs	r0, #250
 3810 0076 C000     		lsls	r0, r0, #3
 3811 0078 00E0     		b	.L233
 3812              	.L237:
 3813 007a 0D48     		ldr	r0, .L238+20
 3814              	.L233:
 3815              		.loc 1 678 0 discriminator 8
 3816 007c 6043     		muls	r0, r4
 3817 007e 0949     		ldr	r1, .L238+8
 3818 0080 FFF7FEFF 		bl	__aeabi_idiv
 3819              	.LVL576:
 3820 0084 3818     		adds	r0, r7, r0
 3821 0086 4044     		add	r0, r0, r8
 3822 0088 3018     		adds	r0, r6, r0
 677:..\..\..\liblc3\src/lc3.c ****         (LC3_DECODER_BUFFER_COUNT(dt_us, sr_hz)-1) * sizeof(float);
 3823              		.loc 1 677 0 is_stmt 1 discriminator 8
 3824 008a 2E30     		adds	r0, r0, #46
 3825 008c 8000     		lsls	r0, r0, #2
 3826 008e 02E0     		b	.L231
 3827              	.L234:
 675:..\..\..\liblc3\src/lc3.c ****         return 0;
 3828              		.loc 1 675 0
 3829 0090 0020     		movs	r0, #0
 3830 0092 00E0     		b	.L231
 3831              	.L235:
 3832 0094 0020     		movs	r0, #0
 3833              	.L231:
 679:..\..\..\liblc3\src/lc3.c **** }
 3834              		.loc 1 679 0
 3835              		@ sp needed
 3836              	.LVL577:
 3837              	.LVL578:
 3838 0096 04BC     		pop	{r2}
 3839 0098 9046     		mov	r8, r2
 3840 009a F0BD     		pop	{r4, r5, r6, r7, pc}
 3841              	.L239:
 3842              		.align	2
 3843              	.L238:
 3844 009c 80BB0000 		.word	48000
 3845 00a0 50460000 		.word	18000
 3846 00a4 40420F00 		.word	1000000
 3847 00a8 80841E00 		.word	2000000
 3848 00ac 4C1D0000 		.word	7500
 3849 00b0 E2040000 		.word	1250
 3850              		.cfi_endproc
 3851              	.LFE50:
 3852              		.size	lc3_hr_decoder_size, .-lc3_hr_decoder_size
ARM GAS  C:\Users\rdn\AppData\Local\Temp\cco7w9JJ.s 			page 92


 3853              		.section	.text.lc3_decoder_size,"ax",%progbits
 3854              		.align	2
 3855              		.global	lc3_decoder_size
 3856              		.code	16
 3857              		.thumb_func
 3858              		.type	lc3_decoder_size, %function
 3859              	lc3_decoder_size:
 3860              	.LFB51:
 680:..\..\..\liblc3\src/lc3.c **** 
 681:..\..\..\liblc3\src/lc3.c **** LC3_EXPORT unsigned lc3_decoder_size(int dt_us, int sr_hz)
 682:..\..\..\liblc3\src/lc3.c **** {
 3861              		.loc 1 682 0
 3862              		.cfi_startproc
 3863              		@ args = 0, pretend = 0, frame = 0
 3864              		@ frame_needed = 0, uses_anonymous_args = 0
 3865              	.LVL579:
 3866 0000 10B5     		push	{r4, lr}
 3867              		.cfi_def_cfa_offset 8
 3868              		.cfi_offset 4, -8
 3869              		.cfi_offset 14, -4
 3870 0002 0A00     		movs	r2, r1
 683:..\..\..\liblc3\src/lc3.c ****     return lc3_hr_decoder_size(false, dt_us, sr_hz);
 3871              		.loc 1 683 0
 3872 0004 0100     		movs	r1, r0
 3873              	.LVL580:
 3874 0006 0020     		movs	r0, #0
 3875              	.LVL581:
 3876 0008 FFF7FEFF 		bl	lc3_hr_decoder_size
 3877              	.LVL582:
 684:..\..\..\liblc3\src/lc3.c **** }
 3878              		.loc 1 684 0
 3879              		@ sp needed
 3880 000c 10BD     		pop	{r4, pc}
 3881              		.cfi_endproc
 3882              	.LFE51:
 3883              		.size	lc3_decoder_size, .-lc3_decoder_size
 3884 000e C046     		.section	.text.lc3_hr_setup_decoder,"ax",%progbits
 3885              		.align	2
 3886              		.global	lc3_hr_setup_decoder
 3887              		.code	16
 3888              		.thumb_func
 3889              		.type	lc3_hr_setup_decoder, %function
 3890              	lc3_hr_setup_decoder:
 3891              	.LFB52:
 685:..\..\..\liblc3\src/lc3.c **** 
 686:..\..\..\liblc3\src/lc3.c **** /**
 687:..\..\..\liblc3\src/lc3.c ****  * Setup decoder
 688:..\..\..\liblc3\src/lc3.c ****  */
 689:..\..\..\liblc3\src/lc3.c **** LC3_EXPORT struct lc3_decoder *lc3_hr_setup_decoder(
 690:..\..\..\liblc3\src/lc3.c ****     bool hrmode, int dt_us, int sr_hz, int sr_pcm_hz, void *mem)
 691:..\..\..\liblc3\src/lc3.c **** {
 3892              		.loc 1 691 0
 3893              		.cfi_startproc
 3894              		@ args = 4, pretend = 0, frame = 8
 3895              		@ frame_needed = 0, uses_anonymous_args = 0
 3896              	.LVL583:
 3897 0000 F0B5     		push	{r4, r5, r6, r7, lr}
ARM GAS  C:\Users\rdn\AppData\Local\Temp\cco7w9JJ.s 			page 93


 3898              		.cfi_def_cfa_offset 20
 3899              		.cfi_offset 4, -20
 3900              		.cfi_offset 5, -16
 3901              		.cfi_offset 6, -12
 3902              		.cfi_offset 7, -8
 3903              		.cfi_offset 14, -4
 3904 0002 5F46     		mov	r7, fp
 3905 0004 5646     		mov	r6, r10
 3906 0006 4D46     		mov	r5, r9
 3907 0008 4446     		mov	r4, r8
 3908 000a F0B4     		push	{r4, r5, r6, r7}
 3909              		.cfi_def_cfa_offset 36
 3910              		.cfi_offset 8, -36
 3911              		.cfi_offset 9, -32
 3912              		.cfi_offset 10, -28
 3913              		.cfi_offset 11, -24
 3914 000c 83B0     		sub	sp, sp, #12
 3915              		.cfi_def_cfa_offset 48
 3916 000e 0500     		movs	r5, r0
 3917 0010 8946     		mov	r9, r1
 3918 0012 0192     		str	r2, [sp, #4]
 3919 0014 1E1E     		subs	r6, r3, #0
 3920 0016 0C9C     		ldr	r4, [sp, #48]
 692:..\..\..\liblc3\src/lc3.c ****     if (sr_pcm_hz <= 0)
 3921              		.loc 1 692 0
 3922 0018 00DC     		bgt	.L242
 693:..\..\..\liblc3\src/lc3.c ****         sr_pcm_hz = sr_hz;
 3923              		.loc 1 693 0
 3924 001a 1600     		movs	r6, r2
 3925              	.L242:
 3926              	.LVL584:
 694:..\..\..\liblc3\src/lc3.c **** 
 695:..\..\..\liblc3\src/lc3.c ****     enum lc3_dt dt = resolve_dt(dt_us, hrmode);
 3927              		.loc 1 695 0
 3928 001c 2900     		movs	r1, r5
 3929              	.LVL585:
 3930 001e 4846     		mov	r0, r9
 3931              	.LVL586:
 3932 0020 FFF7FEFF 		bl	resolve_dt
 3933              	.LVL587:
 3934 0024 0090     		str	r0, [sp]
 3935 0026 0700     		movs	r7, r0
 3936              	.LVL588:
 696:..\..\..\liblc3\src/lc3.c ****     enum lc3_srate sr = resolve_srate(sr_hz, hrmode);
 3937              		.loc 1 696 0
 3938 0028 2900     		movs	r1, r5
 3939 002a 0198     		ldr	r0, [sp, #4]
 3940 002c FFF7FEFF 		bl	resolve_srate
 3941              	.LVL589:
 3942 0030 0190     		str	r0, [sp, #4]
 3943              	.LVL590:
 3944 0032 8346     		mov	fp, r0
 3945              	.LVL591:
 697:..\..\..\liblc3\src/lc3.c ****     enum lc3_srate sr_pcm = resolve_srate(sr_pcm_hz, hrmode);
 3946              		.loc 1 697 0
 3947 0034 2900     		movs	r1, r5
 3948 0036 3000     		movs	r0, r6
ARM GAS  C:\Users\rdn\AppData\Local\Temp\cco7w9JJ.s 			page 94


 3949 0038 FFF7FEFF 		bl	resolve_srate
 3950              	.LVL592:
 3951 003c 0500     		movs	r5, r0
 3952              	.LVL593:
 698:..\..\..\liblc3\src/lc3.c **** 
 699:..\..\..\liblc3\src/lc3.c ****     if (dt >= LC3_NUM_DT || sr_pcm >= LC3_NUM_SRATE || sr > sr_pcm || !mem)
 3953              		.loc 1 699 0
 3954 003e 032F     		cmp	r7, #3
 3955 0040 7AD8     		bhi	.L250
 3956              		.loc 1 699 0 is_stmt 0 discriminator 1
 3957 0042 0628     		cmp	r0, #6
 3958 0044 7AD8     		bhi	.L251
 3959              		.loc 1 699 0 discriminator 2
 3960 0046 8345     		cmp	fp, r0
 3961 0048 7AD8     		bhi	.L252
 3962              		.loc 1 699 0 discriminator 3
 3963 004a 002C     		cmp	r4, #0
 3964 004c 7AD0     		beq	.L253
 3965              	.LVL594:
 3966              	.LBB217:
 3967              	.LBB218:
  60:..\..\..\liblc3\src/tables.h ****         (8 + (dt == LC3_DT_7M5)) * lc3_ns_2m5[sr];
 3968              		.loc 2 60 0 is_stmt 1
 3969 004e 0528     		cmp	r0, #5
 3970 0050 0AD8     		bhi	.L254
  61:..\..\..\liblc3\src/tables.h **** }
 3971              		.loc 2 61 0
 3972 0052 022F     		cmp	r7, #2
 3973 0054 01D1     		bne	.L255
 3974 0056 0922     		movs	r2, #9
 3975 0058 00E0     		b	.L245
 3976              	.L255:
 3977 005a 0822     		movs	r2, #8
 3978              	.L245:
 3979 005c AB00     		lsls	r3, r5, #2
 3980 005e 3D49     		ldr	r1, .L258
 3981 0060 5B58     		ldr	r3, [r3, r1]
  60:..\..\..\liblc3\src/tables.h ****         (8 + (dt == LC3_DT_7M5)) * lc3_ns_2m5[sr];
 3982              		.loc 2 60 0
 3983 0062 5A43     		muls	r2, r3
 3984 0064 9346     		mov	fp, r2
 3985 0066 01E0     		b	.L244
 3986              	.L254:
 3987 0068 0023     		movs	r3, #0
 3988 006a 9B46     		mov	fp, r3
 3989              	.L244:
 3990              	.LVL595:
 3991              	.LBE218:
 3992              	.LBE217:
 3993              	.LBB219:
 3994              	.LBB220:
  47:..\..\..\liblc3\src/tables.h **** }
 3995              		.loc 2 47 0
 3996 006c AB00     		lsls	r3, r5, #2
 3997 006e 394A     		ldr	r2, .L258
 3998 0070 9B58     		ldr	r3, [r3, r2]
 3999 0072 009A     		ldr	r2, [sp]
ARM GAS  C:\Users\rdn\AppData\Local\Temp\cco7w9JJ.s 			page 95


 4000 0074 0132     		adds	r2, r2, #1
 4001 0076 5A43     		muls	r2, r3
 4002              	.LVL596:
 4003              	.LBE220:
 4004              	.LBE219:
 4005              	.LBB221:
 4006              	.LBB222:
  56:..\..\..\liblc3\src/tables.h **** }
 4007              		.loc 2 56 0
 4008 0078 022F     		cmp	r7, #2
 4009 007a 02D1     		bne	.L246
 4010 007c AB00     		lsls	r3, r5, #2
 4011 007e 3649     		ldr	r1, .L258+4
 4012 0080 5B58     		ldr	r3, [r3, r1]
 4013              	.L246:
  55:..\..\..\liblc3\src/tables.h ****         (dt == LC3_DT_7M5 ? lc3_ns_4m[sr] : lc3_ns_2m5[sr]) ) >> 1;
 4014              		.loc 2 55 0
 4015 0082 9B18     		adds	r3, r3, r2
 4016 0084 5B10     		asrs	r3, r3, #1
 4017              	.LVL597:
 4018              	.LBE222:
 4019              	.LBE221:
 700:..\..\..\liblc3\src/lc3.c ****         return NULL;
 701:..\..\..\liblc3\src/lc3.c **** 
 702:..\..\..\liblc3\src/lc3.c ****     struct lc3_decoder *decoder = mem;
 703:..\..\..\liblc3\src/lc3.c ****     int nh = lc3_nh(dt, sr_pcm);
 704:..\..\..\liblc3\src/lc3.c ****     int ns = lc3_ns(dt, sr_pcm);
 705:..\..\..\liblc3\src/lc3.c ****     int nd = lc3_nd(dt, sr_pcm);
 706:..\..\..\liblc3\src/lc3.c **** 
 707:..\..\..\liblc3\src/lc3.c ****     *decoder = (struct lc3_decoder){
 708:..\..\..\liblc3\src/lc3.c ****         .dt = dt, .sr = sr,
 709:..\..\..\liblc3\src/lc3.c ****         .sr_pcm = sr_pcm,
 710:..\..\..\liblc3\src/lc3.c **** 
 711:..\..\..\liblc3\src/lc3.c ****         .xh_off = 0,
 712:..\..\..\liblc3\src/lc3.c ****         .xs_off = nh,
 713:..\..\..\liblc3\src/lc3.c ****         .xd_off = nh + ns,
 714:..\..\..\liblc3\src/lc3.c ****         .xg_off = nh + ns + nd,
 4020              		.loc 1 714 0
 4021 0086 5A44     		add	r2, r2, fp
 4022 0088 1700     		movs	r7, r2
 4023 008a 9846     		mov	r8, r3
 4024 008c 9044     		add	r8, r8, r2
 707:..\..\..\liblc3\src/lc3.c ****         .dt = dt, .sr = sr,
 4025              		.loc 1 707 0
 4026 008e BC22     		movs	r2, #188
 4027 0090 0021     		movs	r1, #0
 4028 0092 2000     		movs	r0, r4
 4029              	.LVL598:
 4030 0094 FFF7FEFF 		bl	memset
 4031              	.LVL599:
 4032 0098 6B46     		mov	r3, sp
 4033 009a 1B78     		ldrb	r3, [r3]
 4034 009c 2370     		strb	r3, [r4]
 4035 009e 6B46     		mov	r3, sp
 4036 00a0 1B79     		ldrb	r3, [r3, #4]
 4037 00a2 6370     		strb	r3, [r4, #1]
 4038 00a4 A570     		strb	r5, [r4, #2]
ARM GAS  C:\Users\rdn\AppData\Local\Temp\cco7w9JJ.s 			page 96


 4039 00a6 AC23     		movs	r3, #172
 4040 00a8 5A46     		mov	r2, fp
 4041 00aa E250     		str	r2, [r4, r3]
 4042 00ac 0433     		adds	r3, r3, #4
 4043 00ae E750     		str	r7, [r4, r3]
 4044 00b0 0433     		adds	r3, r3, #4
 4045 00b2 4246     		mov	r2, r8
 4046 00b4 E250     		str	r2, [r4, r3]
 715:..\..\..\liblc3\src/lc3.c ****     };
 716:..\..\..\liblc3\src/lc3.c **** 
 717:..\..\..\liblc3\src/lc3.c ****     lc3_plc_reset(&decoder->plc);
 4047              		.loc 1 717 0
 4048 00b6 2000     		movs	r0, r4
 4049 00b8 9C30     		adds	r0, r0, #156
 4050 00ba FFF7FEFF 		bl	lc3_plc_reset
 4051              	.LVL600:
 718:..\..\..\liblc3\src/lc3.c **** 
 719:..\..\..\liblc3\src/lc3.c ****     memset(decoder->x, 0,
 4052              		.loc 1 719 0
 4053 00be B823     		movs	r3, #184
 4054 00c0 9846     		mov	r8, r3
 4055 00c2 A044     		add	r8, r8, r4
 720:..\..\..\liblc3\src/lc3.c ****         LC3_DECODER_BUFFER_COUNT(dt_us, sr_pcm_hz) * sizeof(float));
 4056              		.loc 1 720 0
 4057 00c4 254B     		ldr	r3, .L258+8
 4058 00c6 9E42     		cmp	r6, r3
 4059 00c8 12DC     		bgt	.L256
 4060              		.loc 1 720 0 is_stmt 0 discriminator 1
 4061 00ca 2548     		ldr	r0, .L258+12
 4062 00cc 7043     		muls	r0, r6
 4063 00ce 2549     		ldr	r1, .L258+16
 4064 00d0 FFF7FEFF 		bl	__aeabi_idiv
 4065              	.LVL601:
 4066 00d4 0500     		movs	r5, r0
 4067 00d6 2349     		ldr	r1, .L258+16
 4068 00d8 4846     		mov	r0, r9
 4069 00da 7043     		muls	r0, r6
 4070 00dc FFF7FEFF 		bl	__aeabi_idiv
 4071              	.LVL602:
 4072 00e0 0100     		movs	r1, r0
 4073 00e2 2F18     		adds	r7, r5, r0
 4074 00e4 2800     		movs	r0, r5
 4075 00e6 FFF7FEFF 		bl	__aeabi_idivmod
 4076              	.LVL603:
 4077 00ea 7B1A     		subs	r3, r7, r1
 4078 00ec 9A46     		mov	r10, r3
 4079 00ee 01E0     		b	.L247
 4080              	.L256:
 4081              		.loc 1 720 0
 4082 00f0 0023     		movs	r3, #0
 4083 00f2 9A46     		mov	r10, r3
 4084              	.L247:
 4085              		.loc 1 720 0 discriminator 4
 4086 00f4 4D46     		mov	r5, r9
 4087 00f6 7543     		muls	r5, r6
 4088 00f8 1A49     		ldr	r1, .L258+16
 4089 00fa 2800     		movs	r0, r5
ARM GAS  C:\Users\rdn\AppData\Local\Temp\cco7w9JJ.s 			page 97


 4090 00fc FFF7FEFF 		bl	__aeabi_idiv
 4091              	.LVL604:
 4092 0100 0700     		movs	r7, r0
 4093 0102 8244     		add	r10, r10, r0
 4094 0104 1849     		ldr	r1, .L258+20
 4095 0106 2800     		movs	r0, r5
 4096 0108 FFF7FEFF 		bl	__aeabi_idiv
 4097              	.LVL605:
 4098 010c 0500     		movs	r5, r0
 4099 010e 174B     		ldr	r3, .L258+24
 4100 0110 9945     		cmp	r9, r3
 4101 0112 02D1     		bne	.L257
 4102              		.loc 1 720 0
 4103 0114 FA20     		movs	r0, #250
 4104 0116 C000     		lsls	r0, r0, #3
 4105 0118 00E0     		b	.L248
 4106              	.L257:
 4107 011a 1548     		ldr	r0, .L258+28
 4108              	.L248:
 4109              		.loc 1 720 0 discriminator 8
 4110 011c 7043     		muls	r0, r6
 4111 011e 1149     		ldr	r1, .L258+16
 4112 0120 FFF7FEFF 		bl	__aeabi_idiv
 4113              	.LVL606:
 4114 0124 2A18     		adds	r2, r5, r0
 4115 0126 5244     		add	r2, r2, r10
 4116 0128 BA18     		adds	r2, r7, r2
 719:..\..\..\liblc3\src/lc3.c ****         LC3_DECODER_BUFFER_COUNT(dt_us, sr_pcm_hz) * sizeof(float));
 4117              		.loc 1 719 0 is_stmt 1 discriminator 8
 4118 012a 9200     		lsls	r2, r2, #2
 4119 012c 0021     		movs	r1, #0
 4120 012e 4046     		mov	r0, r8
 4121 0130 FFF7FEFF 		bl	memset
 4122              	.LVL607:
 721:..\..\..\liblc3\src/lc3.c **** 
 722:..\..\..\liblc3\src/lc3.c ****     return decoder;
 4123              		.loc 1 722 0 discriminator 8
 4124 0134 2000     		movs	r0, r4
 4125 0136 06E0     		b	.L243
 4126              	.LVL608:
 4127              	.L250:
 700:..\..\..\liblc3\src/lc3.c **** 
 4128              		.loc 1 700 0
 4129 0138 0020     		movs	r0, #0
 4130              	.LVL609:
 4131 013a 04E0     		b	.L243
 4132              	.LVL610:
 4133              	.L251:
 4134 013c 0020     		movs	r0, #0
 4135              	.LVL611:
 4136 013e 02E0     		b	.L243
 4137              	.LVL612:
 4138              	.L252:
 4139 0140 0020     		movs	r0, #0
 4140              	.LVL613:
 4141 0142 00E0     		b	.L243
 4142              	.LVL614:
ARM GAS  C:\Users\rdn\AppData\Local\Temp\cco7w9JJ.s 			page 98


 4143              	.L253:
 4144 0144 0020     		movs	r0, #0
 4145              	.LVL615:
 4146              	.L243:
 723:..\..\..\liblc3\src/lc3.c **** }
 4147              		.loc 1 723 0
 4148 0146 03B0     		add	sp, sp, #12
 4149              	.LVL616:
 4150              		@ sp needed
 4151              	.LVL617:
 4152              	.LVL618:
 4153 0148 3CBC     		pop	{r2, r3, r4, r5}
 4154 014a 9046     		mov	r8, r2
 4155 014c 9946     		mov	r9, r3
 4156 014e A246     		mov	r10, r4
 4157 0150 AB46     		mov	fp, r5
 4158 0152 F0BD     		pop	{r4, r5, r6, r7, pc}
 4159              	.L259:
 4160              		.align	2
 4161              	.L258:
 4162 0154 00000000 		.word	lc3_ns_2m5
 4163 0158 00000000 		.word	lc3_ns_4m
 4164 015c 80BB0000 		.word	48000
 4165 0160 50460000 		.word	18000
 4166 0164 40420F00 		.word	1000000
 4167 0168 80841E00 		.word	2000000
 4168 016c 4C1D0000 		.word	7500
 4169 0170 E2040000 		.word	1250
 4170              		.cfi_endproc
 4171              	.LFE52:
 4172              		.size	lc3_hr_setup_decoder, .-lc3_hr_setup_decoder
 4173              		.section	.text.lc3_setup_decoder,"ax",%progbits
 4174              		.align	2
 4175              		.global	lc3_setup_decoder
 4176              		.code	16
 4177              		.thumb_func
 4178              		.type	lc3_setup_decoder, %function
 4179              	lc3_setup_decoder:
 4180              	.LFB53:
 724:..\..\..\liblc3\src/lc3.c **** 
 725:..\..\..\liblc3\src/lc3.c **** LC3_EXPORT struct lc3_decoder *lc3_setup_decoder(
 726:..\..\..\liblc3\src/lc3.c ****     int dt_us, int sr_hz, int sr_pcm_hz, void *mem)
 727:..\..\..\liblc3\src/lc3.c **** {
 4181              		.loc 1 727 0
 4182              		.cfi_startproc
 4183              		@ args = 0, pretend = 0, frame = 0
 4184              		@ frame_needed = 0, uses_anonymous_args = 0
 4185              	.LVL619:
 4186 0000 00B5     		push	{lr}
 4187              		.cfi_def_cfa_offset 4
 4188              		.cfi_offset 14, -4
 4189 0002 83B0     		sub	sp, sp, #12
 4190              		.cfi_def_cfa_offset 16
 728:..\..\..\liblc3\src/lc3.c ****     return lc3_hr_setup_decoder(false, dt_us, sr_hz, sr_pcm_hz, mem);
 4191              		.loc 1 728 0
 4192 0004 0093     		str	r3, [sp]
 4193 0006 1300     		movs	r3, r2
ARM GAS  C:\Users\rdn\AppData\Local\Temp\cco7w9JJ.s 			page 99


 4194              	.LVL620:
 4195 0008 0A00     		movs	r2, r1
 4196              	.LVL621:
 4197 000a 0100     		movs	r1, r0
 4198              	.LVL622:
 4199 000c 0020     		movs	r0, #0
 4200              	.LVL623:
 4201 000e FFF7FEFF 		bl	lc3_hr_setup_decoder
 4202              	.LVL624:
 729:..\..\..\liblc3\src/lc3.c **** }
 4203              		.loc 1 729 0
 4204 0012 03B0     		add	sp, sp, #12
 4205              		@ sp needed
 4206 0014 00BD     		pop	{pc}
 4207              		.cfi_endproc
 4208              	.LFE53:
 4209              		.size	lc3_setup_decoder, .-lc3_setup_decoder
 4210 0016 C046     		.section	.text.lc3_decode,"ax",%progbits
 4211              		.align	2
 4212              		.global	lc3_decode
 4213              		.code	16
 4214              		.thumb_func
 4215              		.type	lc3_decode, %function
 4216              	lc3_decode:
 4217              	.LFB54:
 730:..\..\..\liblc3\src/lc3.c **** 
 731:..\..\..\liblc3\src/lc3.c **** /**
 732:..\..\..\liblc3\src/lc3.c ****  * Decode a frame
 733:..\..\..\liblc3\src/lc3.c ****  */
 734:..\..\..\liblc3\src/lc3.c **** LC3_EXPORT int lc3_decode(struct lc3_decoder *decoder,
 735:..\..\..\liblc3\src/lc3.c ****     const void *in, int nbytes, enum lc3_pcm_format fmt, void *pcm, int stride)
 736:..\..\..\liblc3\src/lc3.c **** {
 4218              		.loc 1 736 0
 4219              		.cfi_startproc
 4220              		@ args = 8, pretend = 0, frame = 136
 4221              		@ frame_needed = 0, uses_anonymous_args = 0
 4222              	.LVL625:
 4223 0000 F0B5     		push	{r4, r5, r6, r7, lr}
 4224              		.cfi_def_cfa_offset 20
 4225              		.cfi_offset 4, -20
 4226              		.cfi_offset 5, -16
 4227              		.cfi_offset 6, -12
 4228              		.cfi_offset 7, -8
 4229              		.cfi_offset 14, -4
 4230 0002 A3B0     		sub	sp, sp, #140
 4231              		.cfi_def_cfa_offset 160
 4232 0004 0400     		movs	r4, r0
 4233 0006 1600     		movs	r6, r2
 4234 0008 1D00     		movs	r5, r3
 737:..\..\..\liblc3\src/lc3.c ****     static void (* const store[])(struct lc3_decoder *, void *, int) = {
 738:..\..\..\liblc3\src/lc3.c ****         [LC3_PCM_FORMAT_S16    ] = store_s16,
 739:..\..\..\liblc3\src/lc3.c ****         [LC3_PCM_FORMAT_S24    ] = store_s24,
 740:..\..\..\liblc3\src/lc3.c ****         [LC3_PCM_FORMAT_S24_3LE] = store_s24_3le,
 741:..\..\..\liblc3\src/lc3.c ****         [LC3_PCM_FORMAT_FLOAT  ] = store_float,
 742:..\..\..\liblc3\src/lc3.c ****     };
 743:..\..\..\liblc3\src/lc3.c **** 
 744:..\..\..\liblc3\src/lc3.c ****     /* --- Check parameters --- */
ARM GAS  C:\Users\rdn\AppData\Local\Temp\cco7w9JJ.s 			page 100


 745:..\..\..\liblc3\src/lc3.c **** 
 746:..\..\..\liblc3\src/lc3.c ****     if (!decoder)
 4235              		.loc 1 746 0
 4236 000a 0028     		cmp	r0, #0
 4237 000c 37D0     		beq	.L267
 747:..\..\..\liblc3\src/lc3.c ****         return -1;
 748:..\..\..\liblc3\src/lc3.c **** 
 749:..\..\..\liblc3\src/lc3.c ****     if (in && (nbytes < LC3_MIN_FRAME_BYTES ||
 4238              		.loc 1 749 0
 4239 000e 0029     		cmp	r1, #0
 4240 0010 11D0     		beq	.L263
 4241              		.loc 1 749 0 is_stmt 0 discriminator 1
 4242 0012 132A     		cmp	r2, #19
 4243 0014 36DD     		ble	.L268
 750:..\..\..\liblc3\src/lc3.c ****                nbytes > lc3_max_frame_bytes(decoder->dt, decoder->sr) ))
 4244              		.loc 1 750 0 is_stmt 1 discriminator 2
 4245 0016 0078     		ldrb	r0, [r0]
 4246              	.LVL626:
 4247 0018 6378     		ldrb	r3, [r4, #1]
 4248              	.LVL627:
 4249              	.LBB223:
 4250              	.LBB224:
  87:..\..\..\liblc3\src/tables.h ****         lc3_frame_bytes_hr_lim[dt][sr - LC3_SRATE_48K_HR][1];
 4251              		.loc 2 87 0 discriminator 2
 4252 001a 042B     		cmp	r3, #4
 4253 001c 07D9     		bls	.L269
 4254              		.loc 2 88 0
 4255 001e 5A1F     		subs	r2, r3, #5
 4256              	.LVL628:
  87:..\..\..\liblc3\src/tables.h ****         lc3_frame_bytes_hr_lim[dt][sr - LC3_SRATE_48K_HR][1];
 4257              		.loc 2 87 0
 4258 0020 4300     		lsls	r3, r0, #1
 4259              	.LVL629:
 4260 0022 9B18     		adds	r3, r3, r2
 4261 0024 DB00     		lsls	r3, r3, #3
 4262 0026 1B4A     		ldr	r2, .L274
 4263              	.LVL630:
 4264 0028 D318     		adds	r3, r2, r3
 4265 002a 5B68     		ldr	r3, [r3, #4]
 4266 002c 01E0     		b	.L264
 4267              	.LVL631:
 4268              	.L269:
 4269 002e C823     		movs	r3, #200
 4270              	.LVL632:
 4271 0030 5B00     		lsls	r3, r3, #1
 4272              	.LVL633:
 4273              	.L264:
 4274              	.LBE224:
 4275              	.LBE223:
 749:..\..\..\liblc3\src/lc3.c ****                nbytes > lc3_max_frame_bytes(decoder->dt, decoder->sr) ))
 4276              		.loc 1 749 0
 4277 0032 9E42     		cmp	r6, r3
 4278 0034 29DC     		bgt	.L270
 4279              	.L263:
 751:..\..\..\liblc3\src/lc3.c ****         return -1;
 752:..\..\..\liblc3\src/lc3.c **** 
 753:..\..\..\liblc3\src/lc3.c ****     /* --- Processing --- */
ARM GAS  C:\Users\rdn\AppData\Local\Temp\cco7w9JJ.s 			page 101


 754:..\..\..\liblc3\src/lc3.c **** 
 755:..\..\..\liblc3\src/lc3.c ****     struct side_data side;
 756:..\..\..\liblc3\src/lc3.c **** 
 757:..\..\..\liblc3\src/lc3.c ****     int ret = !in || (decode(decoder, in, nbytes, &side) < 0);
 4280              		.loc 1 757 0
 4281 0036 0029     		cmp	r1, #0
 4282 0038 08D0     		beq	.L271
 4283              		.loc 1 757 0 is_stmt 0 discriminator 2
 4284 003a 01AB     		add	r3, sp, #4
 4285 003c 3200     		movs	r2, r6
 4286 003e 2000     		movs	r0, r4
 4287 0040 FFF7FEFF 		bl	decode
 4288              	.LVL634:
 4289 0044 0028     		cmp	r0, #0
 4290 0046 03DB     		blt	.L272
 4291              		.loc 1 757 0
 4292 0048 0027     		movs	r7, #0
 4293 004a 02E0     		b	.L265
 4294              	.LVL635:
 4295              	.L271:
 4296 004c 0127     		movs	r7, #1
 4297 004e 00E0     		b	.L265
 4298              	.LVL636:
 4299              	.L272:
 4300 0050 0127     		movs	r7, #1
 4301              	.L265:
 4302              	.LVL637:
 758:..\..\..\liblc3\src/lc3.c **** 
 759:..\..\..\liblc3\src/lc3.c ****     synthesize(decoder, ret ? NULL : &side, nbytes);
 4303              		.loc 1 759 0 is_stmt 1 discriminator 6
