ARM GAS  C:\Users\rdn\AppData\Local\Temp\cco7w9JJ.s 			page 1


   1              		.syntax unified
   2              		.cpu cortex-m0plus
   3              		.fpu softvfp
   4              		.eabi_attribute 20, 1
   5              		.eabi_attribute 21, 1
   6              		.eabi_attribute 23, 3
   7              		.eabi_attribute 24, 1
   8              		.eabi_attribute 25, 1
   9              		.eabi_attribute 26, 1
  10              		.eabi_attribute 30, 1
  11              		.eabi_attribute 34, 0
  12              		.eabi_attribute 18, 4
  13              		.thumb
  14              		.syntax unified
  15              		.file	"lc3.c"
  16              		.text
  17              	.Ltext0:
  18              		.cfi_sections	.debug_frame
  19              		.section	.text.resolve_dt,"ax",%progbits
  20              		.align	2
  21              		.code	16
  22              		.thumb_func
  23              		.type	resolve_dt, %function
  24              	resolve_dt:
  25              	.LFB20:
  26              		.file 1 "..\\..\\..\\liblc3\\src\\lc3.c"
   1:..\..\..\liblc3\src/lc3.c **** /******************************************************************************
   2:..\..\..\liblc3\src/lc3.c ****  *
   3:..\..\..\liblc3\src/lc3.c ****  *  Copyright 2022 Google LLC
   4:..\..\..\liblc3\src/lc3.c ****  *
   5:..\..\..\liblc3\src/lc3.c ****  *  Licensed under the Apache License, Version 2.0 (the "License");
   6:..\..\..\liblc3\src/lc3.c ****  *  you may not use this file except in compliance with the License.
   7:..\..\..\liblc3\src/lc3.c ****  *  You may obtain a copy of the License at:
   8:..\..\..\liblc3\src/lc3.c ****  *
   9:..\..\..\liblc3\src/lc3.c ****  *  http://www.apache.org/licenses/LICENSE-2.0
  10:..\..\..\liblc3\src/lc3.c ****  *
  11:..\..\..\liblc3\src/lc3.c ****  *  Unless required by applicable law or agreed to in writing, software
  12:..\..\..\liblc3\src/lc3.c ****  *  distributed under the License is distributed on an "AS IS" BASIS,
  13:..\..\..\liblc3\src/lc3.c ****  *  WITHOUT WARRANTIES OR CONDITIONS OF ANY KIND, either express or implied.
  14:..\..\..\liblc3\src/lc3.c ****  *  See the License for the specific language governing permissions and
  15:..\..\..\liblc3\src/lc3.c ****  *  limitations under the License.
  16:..\..\..\liblc3\src/lc3.c ****  *
  17:..\..\..\liblc3\src/lc3.c ****  ******************************************************************************/
  18:..\..\..\liblc3\src/lc3.c **** 
  19:..\..\..\liblc3\src/lc3.c **** #include <lc3.h>
  20:..\..\..\liblc3\src/lc3.c **** 
  21:..\..\..\liblc3\src/lc3.c **** #include "common.h"
  22:..\..\..\liblc3\src/lc3.c **** #include "bits.h"
  23:..\..\..\liblc3\src/lc3.c **** 
  24:..\..\..\liblc3\src/lc3.c **** #include "attdet.h"
  25:..\..\..\liblc3\src/lc3.c **** #include "bwdet.h"
  26:..\..\..\liblc3\src/lc3.c **** #include "ltpf.h"
  27:..\..\..\liblc3\src/lc3.c **** #include "mdct.h"
  28:..\..\..\liblc3\src/lc3.c **** #include "energy.h"
  29:..\..\..\liblc3\src/lc3.c **** #include "sns.h"
  30:..\..\..\liblc3\src/lc3.c **** #include "tns.h"
  31:..\..\..\liblc3\src/lc3.c **** #include "spec.h"
ARM GAS  C:\Users\rdn\AppData\Local\Temp\cco7w9JJ.s 			page 2


  32:..\..\..\liblc3\src/lc3.c **** #include "plc.h"
  33:..\..\..\liblc3\src/lc3.c **** 
  34:..\..\..\liblc3\src/lc3.c **** 
  35:..\..\..\liblc3\src/lc3.c **** /**
  36:..\..\..\liblc3\src/lc3.c ****  * Frame side data
  37:..\..\..\liblc3\src/lc3.c ****  */
  38:..\..\..\liblc3\src/lc3.c **** 
  39:..\..\..\liblc3\src/lc3.c **** struct side_data {
  40:..\..\..\liblc3\src/lc3.c ****     enum lc3_bandwidth bw;
  41:..\..\..\liblc3\src/lc3.c ****     bool pitch_present;
  42:..\..\..\liblc3\src/lc3.c ****     lc3_ltpf_data_t ltpf;
  43:..\..\..\liblc3\src/lc3.c ****     lc3_sns_data_t sns;
  44:..\..\..\liblc3\src/lc3.c ****     lc3_tns_data_t tns;
  45:..\..\..\liblc3\src/lc3.c ****     lc3_spec_side_t spec;
  46:..\..\..\liblc3\src/lc3.c **** };
  47:..\..\..\liblc3\src/lc3.c **** 
  48:..\..\..\liblc3\src/lc3.c **** 
  49:..\..\..\liblc3\src/lc3.c **** /* ----------------------------------------------------------------------------
  50:..\..\..\liblc3\src/lc3.c ****  *  General
  51:..\..\..\liblc3\src/lc3.c ****  * -------------------------------------------------------------------------- */
  52:..\..\..\liblc3\src/lc3.c **** 
  53:..\..\..\liblc3\src/lc3.c **** /**
  54:..\..\..\liblc3\src/lc3.c ****  * Resolve frame duration in us
  55:..\..\..\liblc3\src/lc3.c ****  * us              Frame duration in us
  56:..\..\..\liblc3\src/lc3.c ****  * hrmode          High-resolution mode indication
  57:..\..\..\liblc3\src/lc3.c ****  * return          Frame duration identifier, or LC3_NUM_DT
  58:..\..\..\liblc3\src/lc3.c ****  */
  59:..\..\..\liblc3\src/lc3.c **** static enum lc3_dt resolve_dt(int us, bool hrmode)
  60:..\..\..\liblc3\src/lc3.c **** {
  27              		.loc 1 60 0
  28              		.cfi_startproc
  29              		@ args = 0, pretend = 0, frame = 0
  30              		@ frame_needed = 0, uses_anonymous_args = 0
  31              		@ link register save eliminated.
  32              	.LVL0:
  61:..\..\..\liblc3\src/lc3.c ****     return LC3_PLUS && us ==  2500 ? LC3_DT_2M5 :
  33              		.loc 1 61 0
  34 0000 0B4B     		ldr	r3, .L8
  35 0002 9842     		cmp	r0, r3
  36 0004 0CD0     		beq	.L4
  37              		.loc 1 61 0 is_stmt 0 discriminator 1
  38 0006 0B4B     		ldr	r3, .L8+4
  39 0008 9842     		cmp	r0, r3
  40 000a 0BD0     		beq	.L5
  41              		.loc 1 61 0 discriminator 3
  42 000c 0029     		cmp	r1, #0
  43 000e 02D1     		bne	.L3
  62:..\..\..\liblc3\src/lc3.c ****            LC3_PLUS && us ==  5000 ? LC3_DT_5M  :
  63:..\..\..\liblc3\src/lc3.c ****            !hrmode  && us ==  7500 ? LC3_DT_7M5 :
  44              		.loc 1 63 0 is_stmt 1
  45 0010 094B     		ldr	r3, .L8+8
  46 0012 9842     		cmp	r0, r3
  47 0014 08D0     		beq	.L6
  48              	.L3:
  61:..\..\..\liblc3\src/lc3.c ****     return LC3_PLUS && us ==  2500 ? LC3_DT_2M5 :
  49              		.loc 1 61 0 discriminator 5
  50 0016 094B     		ldr	r3, .L8+12
ARM GAS  C:\Users\rdn\AppData\Local\Temp\cco7w9JJ.s 			page 3


  51 0018 9842     		cmp	r0, r3
  52 001a 07D1     		bne	.L7
  61:..\..\..\liblc3\src/lc3.c ****     return LC3_PLUS && us ==  2500 ? LC3_DT_2M5 :
  53              		.loc 1 61 0 is_stmt 0
  54 001c 0320     		movs	r0, #3
  55              	.LVL1:
  56 001e 06E0     		b	.L2
  57              	.LVL2:
  58              	.L4:
  59 0020 0020     		movs	r0, #0
  60              	.LVL3:
  61 0022 04E0     		b	.L2
  62              	.LVL4:
  63              	.L5:
  64 0024 0120     		movs	r0, #1
  65              	.LVL5:
  66 0026 02E0     		b	.L2
  67              	.LVL6:
  68              	.L6:
  69 0028 0220     		movs	r0, #2
  70              	.LVL7:
  71 002a 00E0     		b	.L2
  72              	.LVL8:
  73              	.L7:
  74 002c 0420     		movs	r0, #4
  75              	.LVL9:
  76              	.L2:
  64:..\..\..\liblc3\src/lc3.c ****                        us == 10000 ? LC3_DT_10M : LC3_NUM_DT;
  65:..\..\..\liblc3\src/lc3.c **** }
  77              		.loc 1 65 0 is_stmt 1 discriminator 15
  78              		@ sp needed
  79 002e 7047     		bx	lr
  80              	.L9:
  81              		.align	2
  82              	.L8:
  83 0030 C4090000 		.word	2500
  84 0034 88130000 		.word	5000
  85 0038 4C1D0000 		.word	7500
  86 003c 10270000 		.word	10000
  87              		.cfi_endproc
  88              	.LFE20:
  89              		.size	resolve_dt, .-resolve_dt
  90              		.section	.text.resolve_srate,"ax",%progbits
  91              		.align	2
  92              		.code	16
  93              		.thumb_func
  94              		.type	resolve_srate, %function
  95              	resolve_srate:
  96              	.LFB21:
  66:..\..\..\liblc3\src/lc3.c **** 
  67:..\..\..\liblc3\src/lc3.c **** /**
  68:..\..\..\liblc3\src/lc3.c ****  * Resolve samplerate in Hz
  69:..\..\..\liblc3\src/lc3.c ****  * hz              Samplerate in Hz
  70:..\..\..\liblc3\src/lc3.c ****  * hrmode          High-resolution mode indication
  71:..\..\..\liblc3\src/lc3.c ****  * return          Sample rate identifier, or LC3_NUM_SRATE
  72:..\..\..\liblc3\src/lc3.c ****  */
  73:..\..\..\liblc3\src/lc3.c **** static enum lc3_srate resolve_srate(int hz, bool hrmode)
ARM GAS  C:\Users\rdn\AppData\Local\Temp\cco7w9JJ.s 			page 4


  74:..\..\..\liblc3\src/lc3.c **** {
  97              		.loc 1 74 0
  98              		.cfi_startproc
  99              		@ args = 0, pretend = 0, frame = 0
 100              		@ frame_needed = 0, uses_anonymous_args = 0
 101              		@ link register save eliminated.
 102              	.LVL10:
  75:..\..\..\liblc3\src/lc3.c ****     hrmode = LC3_PLUS_HR && hrmode;
  76:..\..\..\liblc3\src/lc3.c **** 
  77:..\..\..\liblc3\src/lc3.c ****     return !hrmode && hz ==  8000 ? LC3_SRATE_8K     :
 103              		.loc 1 77 0
 104 0000 0029     		cmp	r1, #0
 105 0002 03D1     		bne	.L11
 106              		.loc 1 77 0 is_stmt 0 discriminator 2
 107 0004 FA23     		movs	r3, #250
 108 0006 5B01     		lsls	r3, r3, #5
 109 0008 9842     		cmp	r0, r3
 110 000a 21D0     		beq	.L18
 111              	.L11:
 112              		.loc 1 77 0 discriminator 3
 113 000c 0029     		cmp	r1, #0
 114 000e 03D1     		bne	.L13
  78:..\..\..\liblc3\src/lc3.c ****            !hrmode && hz == 16000 ? LC3_SRATE_16K    :
 115              		.loc 1 78 0 is_stmt 1
 116 0010 FA23     		movs	r3, #250
 117 0012 9B01     		lsls	r3, r3, #6
 118 0014 9842     		cmp	r0, r3
 119 0016 1DD0     		beq	.L19
 120              	.L13:
  77:..\..\..\liblc3\src/lc3.c ****            !hrmode && hz == 16000 ? LC3_SRATE_16K    :
 121              		.loc 1 77 0 discriminator 5
 122 0018 0029     		cmp	r1, #0
 123 001a 02D1     		bne	.L14
  79:..\..\..\liblc3\src/lc3.c ****            !hrmode && hz == 24000 ? LC3_SRATE_24K    :
 124              		.loc 1 79 0
 125 001c 144B     		ldr	r3, .L26
 126 001e 9842     		cmp	r0, r3
 127 0020 1AD0     		beq	.L20
 128              	.L14:
  77:..\..\..\liblc3\src/lc3.c ****            !hrmode && hz == 16000 ? LC3_SRATE_16K    :
 129              		.loc 1 77 0 discriminator 6
 130 0022 0029     		cmp	r1, #0
 131 0024 03D1     		bne	.L15
  80:..\..\..\liblc3\src/lc3.c ****            !hrmode && hz == 32000 ? LC3_SRATE_32K    :
 132              		.loc 1 80 0
 133 0026 FA23     		movs	r3, #250
 134 0028 DB01     		lsls	r3, r3, #7
 135 002a 9842     		cmp	r0, r3
 136 002c 16D0     		beq	.L21
 137              	.L15:
  77:..\..\..\liblc3\src/lc3.c ****            !hrmode && hz == 16000 ? LC3_SRATE_16K    :
 138              		.loc 1 77 0 discriminator 7
 139 002e 0029     		cmp	r1, #0
 140 0030 02D1     		bne	.L16
  81:..\..\..\liblc3\src/lc3.c ****            !hrmode && hz == 48000 ? LC3_SRATE_48K    :
 141              		.loc 1 81 0
 142 0032 104B     		ldr	r3, .L26+4
ARM GAS  C:\Users\rdn\AppData\Local\Temp\cco7w9JJ.s 			page 5


 143 0034 9842     		cmp	r0, r3
 144 0036 13D0     		beq	.L22
 145              	.L16:
  77:..\..\..\liblc3\src/lc3.c ****            !hrmode && hz == 16000 ? LC3_SRATE_16K    :
 146              		.loc 1 77 0 discriminator 8
 147 0038 0029     		cmp	r1, #0
 148 003a 02D0     		beq	.L17
  82:..\..\..\liblc3\src/lc3.c ****             hrmode && hz == 48000 ? LC3_SRATE_48K_HR :
 149              		.loc 1 82 0
 150 003c 0D4B     		ldr	r3, .L26+4
 151 003e 9842     		cmp	r0, r3
 152 0040 10D0     		beq	.L23
 153              	.L17:
  77:..\..\..\liblc3\src/lc3.c ****            !hrmode && hz == 16000 ? LC3_SRATE_16K    :
 154              		.loc 1 77 0 discriminator 9
 155 0042 0029     		cmp	r1, #0
 156 0044 10D0     		beq	.L24
  83:..\..\..\liblc3\src/lc3.c ****             hrmode && hz == 96000 ? LC3_SRATE_96K_HR : LC3_NUM_SRATE;
 157              		.loc 1 83 0
 158 0046 0C4B     		ldr	r3, .L26+8
 159 0048 9842     		cmp	r0, r3
 160 004a 0FD0     		beq	.L25
  77:..\..\..\liblc3\src/lc3.c ****            !hrmode && hz == 16000 ? LC3_SRATE_16K    :
 161              		.loc 1 77 0
 162 004c 0720     		movs	r0, #7
 163              	.LVL11:
 164 004e 0EE0     		b	.L12
 165              	.LVL12:
 166              	.L18:
 167 0050 0020     		movs	r0, #0
 168              	.LVL13:
 169 0052 0CE0     		b	.L12
 170              	.LVL14:
 171              	.L19:
 172 0054 0120     		movs	r0, #1
 173              	.LVL15:
 174 0056 0AE0     		b	.L12
 175              	.LVL16:
 176              	.L20:
 177 0058 0220     		movs	r0, #2
 178              	.LVL17:
 179 005a 08E0     		b	.L12
 180              	.LVL18:
 181              	.L21:
 182 005c 0320     		movs	r0, #3
 183              	.LVL19:
 184 005e 06E0     		b	.L12
 185              	.LVL20:
 186              	.L22:
 187 0060 0420     		movs	r0, #4
 188              	.LVL21:
 189 0062 04E0     		b	.L12
 190              	.LVL22:
 191              	.L23:
 192 0064 0520     		movs	r0, #5
 193              	.LVL23:
 194 0066 02E0     		b	.L12
ARM GAS  C:\Users\rdn\AppData\Local\Temp\cco7w9JJ.s 			page 6


 195              	.LVL24:
 196              	.L24:
 197 0068 0720     		movs	r0, #7
 198              	.LVL25:
 199 006a 00E0     		b	.L12
 200              	.LVL26:
 201              	.L25:
 202 006c 0620     		movs	r0, #6
 203              	.LVL27:
 204              	.L12:
  84:..\..\..\liblc3\src/lc3.c **** }
 205              		.loc 1 84 0 discriminator 24
 206              		@ sp needed
 207 006e 7047     		bx	lr
 208              	.L27:
 209              		.align	2
 210              	.L26:
 211 0070 C05D0000 		.word	24000
 212 0074 80BB0000 		.word	48000
 213 0078 00770100 		.word	96000
 214              		.cfi_endproc
 215              	.LFE21:
 216              		.size	resolve_srate, .-resolve_srate
 217              		.global	__aeabi_i2f
 218              		.section	.text.load_s16,"ax",%progbits
 219              		.align	2
 220              		.code	16
 221              		.thumb_func
 222              		.type	load_s16, %function
 223              	load_s16:
 224              	.LFB32:
  85:..\..\..\liblc3\src/lc3.c **** 
  86:..\..\..\liblc3\src/lc3.c **** /**
  87:..\..\..\liblc3\src/lc3.c ****  * Return the number of PCM samples in a frame
  88:..\..\..\liblc3\src/lc3.c ****  */
  89:..\..\..\liblc3\src/lc3.c **** LC3_EXPORT int lc3_hr_frame_samples(bool hrmode, int dt_us, int sr_hz)
  90:..\..\..\liblc3\src/lc3.c **** {
  91:..\..\..\liblc3\src/lc3.c ****     enum lc3_dt dt = resolve_dt(dt_us, hrmode);
  92:..\..\..\liblc3\src/lc3.c ****     enum lc3_srate sr = resolve_srate(sr_hz, hrmode);
  93:..\..\..\liblc3\src/lc3.c **** 
  94:..\..\..\liblc3\src/lc3.c ****     if (dt >= LC3_NUM_DT || sr >= LC3_NUM_SRATE)
  95:..\..\..\liblc3\src/lc3.c ****         return -1;
  96:..\..\..\liblc3\src/lc3.c **** 
  97:..\..\..\liblc3\src/lc3.c ****     return lc3_ns(dt, sr);
  98:..\..\..\liblc3\src/lc3.c **** }
  99:..\..\..\liblc3\src/lc3.c **** 
 100:..\..\..\liblc3\src/lc3.c **** LC3_EXPORT int lc3_frame_samples(int dt_us, int sr_hz)
 101:..\..\..\liblc3\src/lc3.c **** {
 102:..\..\..\liblc3\src/lc3.c ****     return lc3_hr_frame_samples(false, dt_us, sr_hz);
 103:..\..\..\liblc3\src/lc3.c **** }
 104:..\..\..\liblc3\src/lc3.c **** 
 105:..\..\..\liblc3\src/lc3.c **** /**
 106:..\..\..\liblc3\src/lc3.c ****  * Return the size of frames or frame blocks, from bitrate
 107:..\..\..\liblc3\src/lc3.c ****  */
 108:..\..\..\liblc3\src/lc3.c **** LC3_EXPORT int lc3_hr_frame_block_bytes(
 109:..\..\..\liblc3\src/lc3.c ****     bool hrmode, int dt_us, int sr_hz, int nchannels, int bitrate)
 110:..\..\..\liblc3\src/lc3.c **** {
ARM GAS  C:\Users\rdn\AppData\Local\Temp\cco7w9JJ.s 			page 7


 111:..\..\..\liblc3\src/lc3.c ****     enum lc3_dt dt = resolve_dt(dt_us, hrmode);
 112:..\..\..\liblc3\src/lc3.c ****     enum lc3_srate sr = resolve_srate(sr_hz, hrmode);
 113:..\..\..\liblc3\src/lc3.c **** 
 114:..\..\..\liblc3\src/lc3.c ****     if (dt >= LC3_NUM_DT || sr >= LC3_NUM_SRATE
 115:..\..\..\liblc3\src/lc3.c ****             || nchannels < 1 || nchannels > 8 || bitrate < 0)
 116:..\..\..\liblc3\src/lc3.c ****         return -1;
 117:..\..\..\liblc3\src/lc3.c **** 
 118:..\..\..\liblc3\src/lc3.c ****     bitrate = LC3_CLIP(bitrate, 0, 8*LC3_HR_MAX_BITRATE);
 119:..\..\..\liblc3\src/lc3.c **** 
 120:..\..\..\liblc3\src/lc3.c ****     return LC3_CLIP((bitrate * (int)(1 + dt)) / 3200,
 121:..\..\..\liblc3\src/lc3.c ****         nchannels * lc3_min_frame_bytes(dt, sr),
 122:..\..\..\liblc3\src/lc3.c ****         nchannels * lc3_max_frame_bytes(dt, sr) );
 123:..\..\..\liblc3\src/lc3.c **** }
 124:..\..\..\liblc3\src/lc3.c **** 
 125:..\..\..\liblc3\src/lc3.c **** LC3_EXPORT int lc3_frame_bock_bytes(int dt_us, int nchannels, int bitrate)
 126:..\..\..\liblc3\src/lc3.c **** {
 127:..\..\..\liblc3\src/lc3.c ****     return lc3_hr_frame_block_bytes(false, dt_us, 8000, nchannels, bitrate);
 128:..\..\..\liblc3\src/lc3.c **** }
 129:..\..\..\liblc3\src/lc3.c **** 
 130:..\..\..\liblc3\src/lc3.c **** LC3_EXPORT int lc3_hr_frame_bytes(
 131:..\..\..\liblc3\src/lc3.c ****     bool hrmode, int dt_us, int sr_hz, int bitrate)
 132:..\..\..\liblc3\src/lc3.c **** {
 133:..\..\..\liblc3\src/lc3.c ****     return lc3_hr_frame_block_bytes(hrmode, dt_us, sr_hz, 1, bitrate);
 134:..\..\..\liblc3\src/lc3.c **** }
 135:..\..\..\liblc3\src/lc3.c **** 
 136:..\..\..\liblc3\src/lc3.c **** LC3_EXPORT int lc3_frame_bytes(int dt_us, int bitrate)
 137:..\..\..\liblc3\src/lc3.c **** {
 138:..\..\..\liblc3\src/lc3.c ****     return lc3_hr_frame_bytes(false, dt_us, 8000, bitrate);
 139:..\..\..\liblc3\src/lc3.c **** }
 140:..\..\..\liblc3\src/lc3.c **** 
 141:..\..\..\liblc3\src/lc3.c **** /**
 142:..\..\..\liblc3\src/lc3.c ****  * Resolve the bitrate, from the size of frames or frame blocks
 143:..\..\..\liblc3\src/lc3.c ****  */
 144:..\..\..\liblc3\src/lc3.c **** LC3_EXPORT int lc3_hr_resolve_bitrate(
 145:..\..\..\liblc3\src/lc3.c ****     bool hrmode, int dt_us, int sr_hz, int nbytes)
 146:..\..\..\liblc3\src/lc3.c **** {
 147:..\..\..\liblc3\src/lc3.c ****     enum lc3_dt dt = resolve_dt(dt_us, hrmode);
 148:..\..\..\liblc3\src/lc3.c ****     enum lc3_srate sr = resolve_srate(sr_hz, hrmode);
 149:..\..\..\liblc3\src/lc3.c **** 
 150:..\..\..\liblc3\src/lc3.c ****     if (dt >= LC3_NUM_DT || sr >= LC3_NUM_SRATE || nbytes < 0)
 151:..\..\..\liblc3\src/lc3.c ****         return -1;
 152:..\..\..\liblc3\src/lc3.c **** 
 153:..\..\..\liblc3\src/lc3.c ****     return LC3_MIN(((int64_t)nbytes * 3200 + dt) / (1 + dt), INT_MAX);
 154:..\..\..\liblc3\src/lc3.c **** }
 155:..\..\..\liblc3\src/lc3.c **** 
 156:..\..\..\liblc3\src/lc3.c **** LC3_EXPORT int lc3_resolve_bitrate(int dt_us, int nbytes)
 157:..\..\..\liblc3\src/lc3.c **** {
 158:..\..\..\liblc3\src/lc3.c ****     return lc3_hr_resolve_bitrate(false, dt_us, 8000, nbytes);
 159:..\..\..\liblc3\src/lc3.c **** }
 160:..\..\..\liblc3\src/lc3.c **** 
 161:..\..\..\liblc3\src/lc3.c **** /**
 162:..\..\..\liblc3\src/lc3.c ****  * Return algorithmic delay, as a number of samples
 163:..\..\..\liblc3\src/lc3.c ****  */
 164:..\..\..\liblc3\src/lc3.c **** LC3_EXPORT int lc3_hr_delay_samples(bool hrmode, int dt_us, int sr_hz)
 165:..\..\..\liblc3\src/lc3.c **** {
 166:..\..\..\liblc3\src/lc3.c ****     enum lc3_dt dt = resolve_dt(dt_us, hrmode);
 167:..\..\..\liblc3\src/lc3.c ****     enum lc3_srate sr = resolve_srate(sr_hz, hrmode);
ARM GAS  C:\Users\rdn\AppData\Local\Temp\cco7w9JJ.s 			page 8


 168:..\..\..\liblc3\src/lc3.c **** 
 169:..\..\..\liblc3\src/lc3.c ****     if (dt >= LC3_NUM_DT || sr >= LC3_NUM_SRATE)
 170:..\..\..\liblc3\src/lc3.c ****         return -1;
 171:..\..\..\liblc3\src/lc3.c **** 
 172:..\..\..\liblc3\src/lc3.c ****     return 2 * lc3_nd(dt, sr) - lc3_ns(dt, sr);
 173:..\..\..\liblc3\src/lc3.c **** }
 174:..\..\..\liblc3\src/lc3.c **** 
 175:..\..\..\liblc3\src/lc3.c **** LC3_EXPORT int lc3_delay_samples(int dt_us, int sr_hz)
 176:..\..\..\liblc3\src/lc3.c **** {
 177:..\..\..\liblc3\src/lc3.c ****     return lc3_hr_delay_samples(false, dt_us, sr_hz);
 178:..\..\..\liblc3\src/lc3.c **** }
 179:..\..\..\liblc3\src/lc3.c **** 
 180:..\..\..\liblc3\src/lc3.c **** 
 181:..\..\..\liblc3\src/lc3.c **** /* ----------------------------------------------------------------------------
 182:..\..\..\liblc3\src/lc3.c ****  *  Encoder
 183:..\..\..\liblc3\src/lc3.c ****  * -------------------------------------------------------------------------- */
 184:..\..\..\liblc3\src/lc3.c **** 
 185:..\..\..\liblc3\src/lc3.c **** /**
 186:..\..\..\liblc3\src/lc3.c ****  * Input PCM Samples from signed 16 bits
 187:..\..\..\liblc3\src/lc3.c ****  * encoder         Encoder state
 188:..\..\..\liblc3\src/lc3.c ****  * pcm, stride     Input PCM samples, and count between two consecutives
 189:..\..\..\liblc3\src/lc3.c ****  */
 190:..\..\..\liblc3\src/lc3.c **** static void load_s16(
 191:..\..\..\liblc3\src/lc3.c ****     struct lc3_encoder *encoder, const void *_pcm, int stride)
 192:..\..\..\liblc3\src/lc3.c **** {
 225              		.loc 1 192 0
 226              		.cfi_startproc
 227              		@ args = 0, pretend = 0, frame = 0
 228              		@ frame_needed = 0, uses_anonymous_args = 0
 229              	.LVL28:
 230 0000 F8B5     		push	{r3, r4, r5, r6, r7, lr}
 231              		.cfi_def_cfa_offset 24
 232              		.cfi_offset 3, -24
 233              		.cfi_offset 4, -20
 234              		.cfi_offset 5, -16
 235              		.cfi_offset 6, -12
 236              		.cfi_offset 7, -8
 237              		.cfi_offset 14, -4
 238 0002 5F46     		mov	r7, fp
 239 0004 5646     		mov	r6, r10
 240 0006 4D46     		mov	r5, r9
 241 0008 4446     		mov	r4, r8
 242 000a F0B4     		push	{r4, r5, r6, r7}
 243              		.cfi_def_cfa_offset 40
 244              		.cfi_offset 8, -40
 245              		.cfi_offset 9, -36
 246              		.cfi_offset 10, -32
 247              		.cfi_offset 11, -28
 248 000c 0E00     		movs	r6, r1
 249 000e 9346     		mov	fp, r2
 250              	.LVL29:
 193:..\..\..\liblc3\src/lc3.c ****     const int16_t *pcm = _pcm;
 194:..\..\..\liblc3\src/lc3.c **** 
 195:..\..\..\liblc3\src/lc3.c ****     enum lc3_dt dt = encoder->dt;
 251              		.loc 1 195 0
 252 0010 0378     		ldrb	r3, [r0]
 253              	.LVL30:
ARM GAS  C:\Users\rdn\AppData\Local\Temp\cco7w9JJ.s 			page 9


 196:..\..\..\liblc3\src/lc3.c ****     enum lc3_srate sr = encoder->sr_pcm;
 254              		.loc 1 196 0
 255 0012 8278     		ldrb	r2, [r0, #2]
 256              	.LVL31:
 197:..\..\..\liblc3\src/lc3.c **** 
 198:..\..\..\liblc3\src/lc3.c ****     int16_t *xt = (int16_t *)encoder->x + encoder->xt_off;
 257              		.loc 1 198 0
 258 0014 1549     		ldr	r1, .L31
 259              	.LVL32:
 260 0016 4718     		adds	r7, r0, r1
 261 0018 0C39     		subs	r1, r1, #12
 262 001a 4158     		ldr	r1, [r0, r1]
 263 001c 4900     		lsls	r1, r1, #1
 264 001e 8A46     		mov	r10, r1
 265              	.LVL33:
 199:..\..\..\liblc3\src/lc3.c ****     float *xs = encoder->x + encoder->xs_off;
 266              		.loc 1 199 0
 267 0020 1349     		ldr	r1, .L31+4
 268              	.LVL34:
 269 0022 4158     		ldr	r1, [r0, r1]
 270 0024 8900     		lsls	r1, r1, #2
 271 0026 8946     		mov	r9, r1
 272              	.LVL35:
 273              	.LBB111:
 274              	.LBB112:
 275              		.file 2 "..\\..\\..\\liblc3\\src\\tables.h"
   1:..\..\..\liblc3\src/tables.h **** /******************************************************************************
   2:..\..\..\liblc3\src/tables.h ****  *
   3:..\..\..\liblc3\src/tables.h ****  *  Copyright 2022 Google LLC
   4:..\..\..\liblc3\src/tables.h ****  *
   5:..\..\..\liblc3\src/tables.h ****  *  Licensed under the Apache License, Version 2.0 (the "License");
   6:..\..\..\liblc3\src/tables.h ****  *  you may not use this file except in compliance with the License.
   7:..\..\..\liblc3\src/tables.h ****  *  You may obtain a copy of the License at:
   8:..\..\..\liblc3\src/tables.h ****  *
   9:..\..\..\liblc3\src/tables.h ****  *  http://www.apache.org/licenses/LICENSE-2.0
  10:..\..\..\liblc3\src/tables.h ****  *
  11:..\..\..\liblc3\src/tables.h ****  *  Unless required by applicable law or agreed to in writing, software
  12:..\..\..\liblc3\src/tables.h ****  *  distributed under the License is distributed on an "AS IS" BASIS,
  13:..\..\..\liblc3\src/tables.h ****  *  WITHOUT WARRANTIES OR CONDITIONS OF ANY KIND, either express or implied.
  14:..\..\..\liblc3\src/tables.h ****  *  See the License for the specific language governing permissions and
  15:..\..\..\liblc3\src/tables.h ****  *  limitations under the License.
  16:..\..\..\liblc3\src/tables.h ****  *
  17:..\..\..\liblc3\src/tables.h ****  ******************************************************************************/
  18:..\..\..\liblc3\src/tables.h **** 
  19:..\..\..\liblc3\src/tables.h **** #ifndef __LC3_TABLES_H
  20:..\..\..\liblc3\src/tables.h **** #define __LC3_TABLES_H
  21:..\..\..\liblc3\src/tables.h **** 
  22:..\..\..\liblc3\src/tables.h **** #include "common.h"
  23:..\..\..\liblc3\src/tables.h **** #include "bits.h"
  24:..\..\..\liblc3\src/tables.h **** 
  25:..\..\..\liblc3\src/tables.h **** 
  26:..\..\..\liblc3\src/tables.h **** /**
  27:..\..\..\liblc3\src/tables.h ****  * Characteristics
  28:..\..\..\liblc3\src/tables.h ****  *
  29:..\..\..\liblc3\src/tables.h ****  *   ns   Number of temporal samples / frequency coefficients within a frame
  30:..\..\..\liblc3\src/tables.h ****  *
  31:..\..\..\liblc3\src/tables.h ****  *   ne   Number of encoded frequency coefficients
ARM GAS  C:\Users\rdn\AppData\Local\Temp\cco7w9JJ.s 			page 10


  32:..\..\..\liblc3\src/tables.h ****  *
  33:..\..\..\liblc3\src/tables.h ****  *   nd   Number of MDCT delayed samples, sum of half a frame and an ovelap
  34:..\..\..\liblc3\src/tables.h ****  *        of future by 1.25 ms (2.5ms, 5ms and 10ms frame durations),
  35:..\..\..\liblc3\src/tables.h ****  *        or 2 ms (7.5ms frame duration).
  36:..\..\..\liblc3\src/tables.h ****  *
  37:..\..\..\liblc3\src/tables.h ****  *   nh   Number of 18 ms samples of the history buffer, aligned on a frame
  38:..\..\..\liblc3\src/tables.h ****  *
  39:..\..\..\liblc3\src/tables.h ****  *   nt   Number of 1.25 ms previous samples
  40:..\..\..\liblc3\src/tables.h ****  */
  41:..\..\..\liblc3\src/tables.h **** 
  42:..\..\..\liblc3\src/tables.h **** extern const int lc3_ns_2m5[LC3_NUM_SRATE];
  43:..\..\..\liblc3\src/tables.h **** extern const int lc3_ne_2m5[LC3_NUM_SRATE];
  44:..\..\..\liblc3\src/tables.h **** extern const int lc3_ns_4m [LC3_NUM_SRATE];
  45:..\..\..\liblc3\src/tables.h **** 
  46:..\..\..\liblc3\src/tables.h **** static inline int lc3_ns(enum lc3_dt dt, enum lc3_srate sr) {
  47:..\..\..\liblc3\src/tables.h ****     return lc3_ns_2m5[sr] * (1 + dt);
 276              		.loc 2 47 0
 277 0028 9200     		lsls	r2, r2, #2
 278              	.LVL36:
 279 002a 1249     		ldr	r1, .L31+8
 280              	.LVL37:
 281 002c 5258     		ldr	r2, [r2, r1]
 282 002e 0133     		adds	r3, r3, #1
 283              	.LVL38:
 284 0030 5343     		muls	r3, r2
 285              	.LVL39:
 286 0032 9846     		mov	r8, r3
 287              	.LVL40:
 288              	.LBE112:
 289              	.LBE111:
 290              	.LBB113:
 200:..\..\..\liblc3\src/lc3.c ****     int ns = lc3_ns(dt, sr);
 201:..\..\..\liblc3\src/lc3.c **** 
 202:..\..\..\liblc3\src/lc3.c ****     for (int i = 0; i < ns; i++, pcm += stride)
 291              		.loc 1 202 0
 292 0034 0025     		movs	r5, #0
 293 0036 10E0     		b	.L29
 294              	.LVL41:
 295              	.L30:
 203:..\..\..\liblc3\src/lc3.c ****         xt[i] = *pcm, xs[i] = *pcm;
 296              		.loc 1 203 0 discriminator 3
 297 0038 6B00     		lsls	r3, r5, #1
 298 003a 5344     		add	r3, r3, r10
 299 003c 0021     		movs	r1, #0
 300 003e 725E     		ldrsh	r2, [r6, r1]
 301 0040 FA52     		strh	r2, [r7, r3]
 302 0042 AC00     		lsls	r4, r5, #2
 303 0044 4C44     		add	r4, r4, r9
 304 0046 3C19     		adds	r4, r7, r4
 305 0048 0023     		movs	r3, #0
 306 004a F05E     		ldrsh	r0, [r6, r3]
 307 004c FFF7FEFF 		bl	__aeabi_i2f
 308              	.LVL42:
 309 0050 2060     		str	r0, [r4]
 202:..\..\..\liblc3\src/lc3.c ****         xt[i] = *pcm, xs[i] = *pcm;
 310              		.loc 1 202 0 discriminator 3
 311 0052 0135     		adds	r5, r5, #1
ARM GAS  C:\Users\rdn\AppData\Local\Temp\cco7w9JJ.s 			page 11


 312              	.LVL43:
 313 0054 5B46     		mov	r3, fp
 314 0056 5B00     		lsls	r3, r3, #1
 315 0058 F618     		adds	r6, r6, r3
 316              	.LVL44:
 317              	.L29:
 202:..\..\..\liblc3\src/lc3.c ****         xt[i] = *pcm, xs[i] = *pcm;
 318              		.loc 1 202 0 is_stmt 0 discriminator 1
 319 005a 4545     		cmp	r5, r8
 320 005c ECDB     		blt	.L30
 321              	.LBE113:
 204:..\..\..\liblc3\src/lc3.c **** }
 322              		.loc 1 204 0 is_stmt 1
 323              		@ sp needed
 324              	.LVL45:
 325              	.LVL46:
 326              	.LVL47:
 327              	.LVL48:
 328              	.LVL49:
 329              	.LVL50:
 330 005e 3CBC     		pop	{r2, r3, r4, r5}
 331 0060 9046     		mov	r8, r2
 332 0062 9946     		mov	r9, r3
 333 0064 A246     		mov	r10, r4
 334 0066 AB46     		mov	fp, r5
 335 0068 F8BD     		pop	{r3, r4, r5, r6, r7, pc}
 336              	.L32:
 337 006a C046     		.align	2
 338              	.L31:
 339 006c AC040000 		.word	1196
 340 0070 A4040000 		.word	1188
 341 0074 00000000 		.word	lc3_ns_2m5
 342              		.cfi_endproc
 343              	.LFE32:
 344              		.size	load_s16, .-load_s16
 345              		.section	.text.load_s24,"ax",%progbits
 346              		.align	2
 347              		.code	16
 348              		.thumb_func
 349              		.type	load_s24, %function
 350              	load_s24:
 351              	.LFB33:
 205:..\..\..\liblc3\src/lc3.c **** 
 206:..\..\..\liblc3\src/lc3.c **** /**
 207:..\..\..\liblc3\src/lc3.c ****  * Input PCM Samples from signed 24 bits
 208:..\..\..\liblc3\src/lc3.c ****  * encoder         Encoder state
 209:..\..\..\liblc3\src/lc3.c ****  * pcm, stride     Input PCM samples, and count between two consecutives
 210:..\..\..\liblc3\src/lc3.c ****  */
 211:..\..\..\liblc3\src/lc3.c **** static void load_s24(
 212:..\..\..\liblc3\src/lc3.c ****     struct lc3_encoder *encoder, const void *_pcm, int stride)
 213:..\..\..\liblc3\src/lc3.c **** {
 352              		.loc 1 213 0
 353              		.cfi_startproc
 354              		@ args = 0, pretend = 0, frame = 0
 355              		@ frame_needed = 0, uses_anonymous_args = 0
 356              	.LVL51:
 357 0000 F8B5     		push	{r3, r4, r5, r6, r7, lr}
ARM GAS  C:\Users\rdn\AppData\Local\Temp\cco7w9JJ.s 			page 12


 358              		.cfi_def_cfa_offset 24
 359              		.cfi_offset 3, -24
 360              		.cfi_offset 4, -20
 361              		.cfi_offset 5, -16
 362              		.cfi_offset 6, -12
 363              		.cfi_offset 7, -8
 364              		.cfi_offset 14, -4
 365 0002 5F46     		mov	r7, fp
 366 0004 5646     		mov	r6, r10
 367 0006 4D46     		mov	r5, r9
 368 0008 4446     		mov	r4, r8
 369 000a F0B4     		push	{r4, r5, r6, r7}
 370              		.cfi_def_cfa_offset 40
 371              		.cfi_offset 8, -40
 372              		.cfi_offset 9, -36
 373              		.cfi_offset 10, -32
 374              		.cfi_offset 11, -28
 375 000c 0E00     		movs	r6, r1
 376 000e 9346     		mov	fp, r2
 377              	.LVL52:
 214:..\..\..\liblc3\src/lc3.c ****     const int32_t *pcm = _pcm;
 215:..\..\..\liblc3\src/lc3.c **** 
 216:..\..\..\liblc3\src/lc3.c ****     enum lc3_dt dt = encoder->dt;
 378              		.loc 1 216 0
 379 0010 0378     		ldrb	r3, [r0]
 380              	.LVL53:
 217:..\..\..\liblc3\src/lc3.c ****     enum lc3_srate sr = encoder->sr_pcm;
 381              		.loc 1 217 0
 382 0012 8278     		ldrb	r2, [r0, #2]
 383              	.LVL54:
 218:..\..\..\liblc3\src/lc3.c **** 
 219:..\..\..\liblc3\src/lc3.c ****     int16_t *xt = (int16_t *)encoder->x + encoder->xt_off;
 384              		.loc 1 219 0
 385 0014 1849     		ldr	r1, .L37
 386              	.LVL55:
 387 0016 4718     		adds	r7, r0, r1
 388 0018 0C39     		subs	r1, r1, #12
 389 001a 4158     		ldr	r1, [r0, r1]
 390 001c 4900     		lsls	r1, r1, #1
 391 001e 8A46     		mov	r10, r1
 392              	.LVL56:
 220:..\..\..\liblc3\src/lc3.c ****     float *xs = encoder->x + encoder->xs_off;
 393              		.loc 1 220 0
 394 0020 1649     		ldr	r1, .L37+4
 395              	.LVL57:
 396 0022 4158     		ldr	r1, [r0, r1]
 397 0024 8900     		lsls	r1, r1, #2
 398 0026 8946     		mov	r9, r1
 399              	.LVL58:
 400              	.LBB114:
 401              	.LBB115:
 402              		.loc 2 47 0
 403 0028 9200     		lsls	r2, r2, #2
 404              	.LVL59:
 405 002a 1549     		ldr	r1, .L37+8
 406              	.LVL60:
 407 002c 5258     		ldr	r2, [r2, r1]
ARM GAS  C:\Users\rdn\AppData\Local\Temp\cco7w9JJ.s 			page 13


 408 002e 0133     		adds	r3, r3, #1
 409              	.LVL61:
 410 0030 5343     		muls	r3, r2
 411              	.LVL62:
 412 0032 9846     		mov	r8, r3
 413              	.LVL63:
 414              	.LBE115:
 415              	.LBE114:
 416              	.LBB116:
 221:..\..\..\liblc3\src/lc3.c ****     int ns = lc3_ns(dt, sr);
 222:..\..\..\liblc3\src/lc3.c **** 
 223:..\..\..\liblc3\src/lc3.c ****     for (int i = 0; i < ns; i++, pcm += stride) {
 417              		.loc 1 223 0
 418 0034 0025     		movs	r5, #0
 419 0036 17E0     		b	.L34
 420              	.LVL64:
 421              	.L36:
 224:..\..\..\liblc3\src/lc3.c ****         xt[i] = *pcm >> 8;
 422              		.loc 1 224 0 discriminator 3
 423 0038 6B00     		lsls	r3, r5, #1
 424 003a 5344     		add	r3, r3, r10
 425 003c 3268     		ldr	r2, [r6]
 426 003e 1212     		asrs	r2, r2, #8
 427 0040 FA52     		strh	r2, [r7, r3]
 225:..\..\..\liblc3\src/lc3.c ****         xs[i] = lc3_ldexpf(*pcm, -8);
 428              		.loc 1 225 0 discriminator 3
 429 0042 AC00     		lsls	r4, r5, #2
 430 0044 4C44     		add	r4, r4, r9
 431 0046 3C19     		adds	r4, r7, r4
 432 0048 3068     		ldr	r0, [r6]
 433 004a FFF7FEFF 		bl	__aeabi_i2f
 434              	.LVL65:
 435              	.LBB117:
 436              	.LBB118:
 437              		.file 3 "..\\..\\..\\liblc3\\src\\fastmath.h"
   1:..\..\..\liblc3\src/fastmath.h **** /******************************************************************************
   2:..\..\..\liblc3\src/fastmath.h ****  *
   3:..\..\..\liblc3\src/fastmath.h ****  *  Copyright 2022 Google LLC
   4:..\..\..\liblc3\src/fastmath.h ****  *
   5:..\..\..\liblc3\src/fastmath.h ****  *  Licensed under the Apache License, Version 2.0 (the "License");
   6:..\..\..\liblc3\src/fastmath.h ****  *  you may not use this file except in compliance with the License.
   7:..\..\..\liblc3\src/fastmath.h ****  *  You may obtain a copy of the License at:
   8:..\..\..\liblc3\src/fastmath.h ****  *
   9:..\..\..\liblc3\src/fastmath.h ****  *  http://www.apache.org/licenses/LICENSE-2.0
  10:..\..\..\liblc3\src/fastmath.h ****  *
  11:..\..\..\liblc3\src/fastmath.h ****  *  Unless required by applicable law or agreed to in writing, software
  12:..\..\..\liblc3\src/fastmath.h ****  *  distributed under the License is distributed on an "AS IS" BASIS,
  13:..\..\..\liblc3\src/fastmath.h ****  *  WITHOUT WARRANTIES OR CONDITIONS OF ANY KIND, either express or implied.
  14:..\..\..\liblc3\src/fastmath.h ****  *  See the License for the specific language governing permissions and
  15:..\..\..\liblc3\src/fastmath.h ****  *  limitations under the License.
  16:..\..\..\liblc3\src/fastmath.h ****  *
  17:..\..\..\liblc3\src/fastmath.h ****  ******************************************************************************/
  18:..\..\..\liblc3\src/fastmath.h **** 
  19:..\..\..\liblc3\src/fastmath.h **** #ifndef __LC3_FASTMATH_H
  20:..\..\..\liblc3\src/fastmath.h **** #define __LC3_FASTMATH_H
  21:..\..\..\liblc3\src/fastmath.h **** 
  22:..\..\..\liblc3\src/fastmath.h **** #include <stdint.h>
ARM GAS  C:\Users\rdn\AppData\Local\Temp\cco7w9JJ.s 			page 14


  23:..\..\..\liblc3\src/fastmath.h **** #include <math.h>
  24:..\..\..\liblc3\src/fastmath.h **** 
  25:..\..\..\liblc3\src/fastmath.h **** 
  26:..\..\..\liblc3\src/fastmath.h **** /**
  27:..\..\..\liblc3\src/fastmath.h ****  * IEEE 754 Floating point representation
  28:..\..\..\liblc3\src/fastmath.h ****  */
  29:..\..\..\liblc3\src/fastmath.h **** 
  30:..\..\..\liblc3\src/fastmath.h **** #define LC3_IEEE754_SIGN_SHL   (31)
  31:..\..\..\liblc3\src/fastmath.h **** #define LC3_IEEE754_SIGN_MASK  (1 << LC3_IEEE754_SIGN_SHL)
  32:..\..\..\liblc3\src/fastmath.h **** 
  33:..\..\..\liblc3\src/fastmath.h **** #define LC3_IEEE754_EXP_SHL    (23)
  34:..\..\..\liblc3\src/fastmath.h **** #define LC3_IEEE754_EXP_MASK   (0xff << LC3_IEEE754_EXP_SHL)
  35:..\..\..\liblc3\src/fastmath.h **** #define LC3_IEEE754_EXP_BIAS   (127)
  36:..\..\..\liblc3\src/fastmath.h **** 
  37:..\..\..\liblc3\src/fastmath.h **** 
  38:..\..\..\liblc3\src/fastmath.h **** /**
  39:..\..\..\liblc3\src/fastmath.h ****  * Fast multiply floating-point number by integral power of 2
  40:..\..\..\liblc3\src/fastmath.h ****  * x               Operand, finite number
  41:..\..\..\liblc3\src/fastmath.h ****  * exp             Exponent such that 2^x is finite
  42:..\..\..\liblc3\src/fastmath.h ****  * return          2^exp
  43:..\..\..\liblc3\src/fastmath.h ****  */
  44:..\..\..\liblc3\src/fastmath.h **** static inline float lc3_ldexpf(float _x, int exp) {
  45:..\..\..\liblc3\src/fastmath.h ****     union { float f; int32_t s; } x = { .f = _x };
 438              		.loc 3 45 0 discriminator 3
 439 004e 0300     		movs	r3, r0
 440              	.LVL66:
  46:..\..\..\liblc3\src/fastmath.h **** 
  47:..\..\..\liblc3\src/fastmath.h ****     if (x.s & LC3_IEEE754_EXP_MASK)
 441              		.loc 3 47 0 discriminator 3
 442 0050 FF22     		movs	r2, #255
 443 0052 D205     		lsls	r2, r2, #23
 444 0054 0242     		tst	r2, r0
 445 0056 02D0     		beq	.L35
  48:..\..\..\liblc3\src/fastmath.h ****         x.s += exp << LC3_IEEE754_EXP_SHL;
 446              		.loc 3 48 0
 447 0058 FC23     		movs	r3, #252
 448 005a 1B06     		lsls	r3, r3, #24
 449 005c C318     		adds	r3, r0, r3
 450              	.L35:
 451              	.LVL67:
 452              	.LBE118:
 453              	.LBE117:
 454              		.loc 1 225 0
 455 005e 2360     		str	r3, [r4]
 223:..\..\..\liblc3\src/lc3.c ****         xt[i] = *pcm >> 8;
 456              		.loc 1 223 0
 457 0060 0135     		adds	r5, r5, #1
 458              	.LVL68:
 459 0062 5B46     		mov	r3, fp
 460 0064 9B00     		lsls	r3, r3, #2
 461 0066 F618     		adds	r6, r6, r3
 462              	.LVL69:
 463              	.L34:
 223:..\..\..\liblc3\src/lc3.c ****         xt[i] = *pcm >> 8;
 464              		.loc 1 223 0 is_stmt 0 discriminator 1
 465 0068 4545     		cmp	r5, r8
 466 006a E5DB     		blt	.L36
ARM GAS  C:\Users\rdn\AppData\Local\Temp\cco7w9JJ.s 			page 15


 467              	.LBE116:
 226:..\..\..\liblc3\src/lc3.c ****     }
 227:..\..\..\liblc3\src/lc3.c **** }
 468              		.loc 1 227 0 is_stmt 1
 469              		@ sp needed
 470              	.LVL70:
 471              	.LVL71:
 472              	.LVL72:
 473              	.LVL73:
 474              	.LVL74:
 475              	.LVL75:
 476 006c 3CBC     		pop	{r2, r3, r4, r5}
 477 006e 9046     		mov	r8, r2
 478 0070 9946     		mov	r9, r3
 479 0072 A246     		mov	r10, r4
 480 0074 AB46     		mov	fp, r5
 481 0076 F8BD     		pop	{r3, r4, r5, r6, r7, pc}
 482              	.L38:
 483              		.align	2
 484              	.L37:
 485 0078 AC040000 		.word	1196
 486 007c A4040000 		.word	1188
 487 0080 00000000 		.word	lc3_ns_2m5
 488              		.cfi_endproc
 489              	.LFE33:
 490              		.size	load_s24, .-load_s24
 491              		.section	.text.load_s24_3le,"ax",%progbits
 492              		.align	2
 493              		.code	16
 494              		.thumb_func
 495              		.type	load_s24_3le, %function
 496              	load_s24_3le:
 497              	.LFB34:
 228:..\..\..\liblc3\src/lc3.c **** 
 229:..\..\..\liblc3\src/lc3.c **** /**
 230:..\..\..\liblc3\src/lc3.c ****  * Input PCM Samples from signed 24 bits packed
 231:..\..\..\liblc3\src/lc3.c ****  * encoder         Encoder state
 232:..\..\..\liblc3\src/lc3.c ****  * pcm, stride     Input PCM samples, and count between two consecutives
 233:..\..\..\liblc3\src/lc3.c ****  */
 234:..\..\..\liblc3\src/lc3.c **** static void load_s24_3le(
 235:..\..\..\liblc3\src/lc3.c ****     struct lc3_encoder *encoder, const void *_pcm, int stride)
 236:..\..\..\liblc3\src/lc3.c **** {
 498              		.loc 1 236 0
 499              		.cfi_startproc
 500              		@ args = 0, pretend = 0, frame = 0
 501              		@ frame_needed = 0, uses_anonymous_args = 0
 502              	.LVL76:
 503 0000 F8B5     		push	{r3, r4, r5, r6, r7, lr}
 504              		.cfi_def_cfa_offset 24
 505              		.cfi_offset 3, -24
 506              		.cfi_offset 4, -20
 507              		.cfi_offset 5, -16
 508              		.cfi_offset 6, -12
 509              		.cfi_offset 7, -8
 510              		.cfi_offset 14, -4
 511 0002 5F46     		mov	r7, fp
 512 0004 5646     		mov	r6, r10
ARM GAS  C:\Users\rdn\AppData\Local\Temp\cco7w9JJ.s 			page 16


 513 0006 4D46     		mov	r5, r9
 514 0008 4446     		mov	r4, r8
 515 000a F0B4     		push	{r4, r5, r6, r7}
 516              		.cfi_def_cfa_offset 40
 517              		.cfi_offset 8, -40
 518              		.cfi_offset 9, -36
 519              		.cfi_offset 10, -32
 520              		.cfi_offset 11, -28
 521 000c 0E00     		movs	r6, r1
 522 000e 9046     		mov	r8, r2
 523              	.LVL77:
 237:..\..\..\liblc3\src/lc3.c ****     const uint8_t *pcm = _pcm;
 238:..\..\..\liblc3\src/lc3.c **** 
 239:..\..\..\liblc3\src/lc3.c ****     enum lc3_dt dt = encoder->dt;
 524              		.loc 1 239 0
 525 0010 0378     		ldrb	r3, [r0]
 526              	.LVL78:
 240:..\..\..\liblc3\src/lc3.c ****     enum lc3_srate sr = encoder->sr_pcm;
 527              		.loc 1 240 0
 528 0012 8278     		ldrb	r2, [r0, #2]
 529              	.LVL79:
 241:..\..\..\liblc3\src/lc3.c **** 
 242:..\..\..\liblc3\src/lc3.c ****     int16_t *xt = (int16_t *)encoder->x + encoder->xt_off;
 530              		.loc 1 242 0
 531 0014 1C49     		ldr	r1, .L43
 532              	.LVL80:
 533 0016 4718     		adds	r7, r0, r1
 534 0018 0C39     		subs	r1, r1, #12
 535 001a 4158     		ldr	r1, [r0, r1]
 536 001c 4900     		lsls	r1, r1, #1
 537 001e 8B46     		mov	fp, r1
 538              	.LVL81:
 243:..\..\..\liblc3\src/lc3.c ****     float *xs = encoder->x + encoder->xs_off;
 539              		.loc 1 243 0
 540 0020 1A49     		ldr	r1, .L43+4
 541              	.LVL82:
 542 0022 4158     		ldr	r1, [r0, r1]
 543 0024 8900     		lsls	r1, r1, #2
 544 0026 8A46     		mov	r10, r1
 545              	.LVL83:
 546              	.LBB119:
 547              	.LBB120:
 548              		.loc 2 47 0
 549 0028 9200     		lsls	r2, r2, #2
 550              	.LVL84:
 551 002a 1949     		ldr	r1, .L43+8
 552              	.LVL85:
 553 002c 5258     		ldr	r2, [r2, r1]
 554 002e 0133     		adds	r3, r3, #1
 555              	.LVL86:
 556 0030 5343     		muls	r3, r2
 557              	.LVL87:
 558 0032 9946     		mov	r9, r3
 559              	.LVL88:
 560              	.LBE120:
 561              	.LBE119:
 562              	.LBB121:
ARM GAS  C:\Users\rdn\AppData\Local\Temp\cco7w9JJ.s 			page 17


 244:..\..\..\liblc3\src/lc3.c ****     int ns = lc3_ns(dt, sr);
 245:..\..\..\liblc3\src/lc3.c **** 
 246:..\..\..\liblc3\src/lc3.c ****     for (int i = 0; i < ns; i++, pcm += 3*stride) {
 563              		.loc 1 246 0
 564 0034 0025     		movs	r5, #0
 565 0036 1EE0     		b	.L40
 566              	.LVL89:
 567              	.L42:
 568              	.LBB122:
 247:..\..\..\liblc3\src/lc3.c ****         int32_t in = ((uint32_t)pcm[0] <<  8) |
 569              		.loc 1 247 0 discriminator 3
 570 0038 3078     		ldrb	r0, [r6]
 571 003a 0002     		lsls	r0, r0, #8
 248:..\..\..\liblc3\src/lc3.c ****                      ((uint32_t)pcm[1] << 16) |
 572              		.loc 1 248 0 discriminator 3
 573 003c 7378     		ldrb	r3, [r6, #1]
 574 003e 1B04     		lsls	r3, r3, #16
 247:..\..\..\liblc3\src/lc3.c ****         int32_t in = ((uint32_t)pcm[0] <<  8) |
 575              		.loc 1 247 0 discriminator 3
 576 0040 0343     		orrs	r3, r0
 249:..\..\..\liblc3\src/lc3.c ****                      ((uint32_t)pcm[2] << 24)  ;
 577              		.loc 1 249 0 discriminator 3
 578 0042 B078     		ldrb	r0, [r6, #2]
 579 0044 0006     		lsls	r0, r0, #24
 248:..\..\..\liblc3\src/lc3.c ****                      ((uint32_t)pcm[1] << 16) |
 580              		.loc 1 248 0 discriminator 3
 581 0046 1843     		orrs	r0, r3
 582              	.LVL90:
 250:..\..\..\liblc3\src/lc3.c **** 
 251:..\..\..\liblc3\src/lc3.c ****         xt[i] = in >> 16;
 583              		.loc 1 251 0 discriminator 3
 584 0048 6B00     		lsls	r3, r5, #1
 585 004a 5B44     		add	r3, r3, fp
 586 004c 0214     		asrs	r2, r0, #16
 587 004e FA52     		strh	r2, [r7, r3]
 252:..\..\..\liblc3\src/lc3.c ****         xs[i] = lc3_ldexpf(in, -16);
 588              		.loc 1 252 0 discriminator 3
 589 0050 AC00     		lsls	r4, r5, #2
 590 0052 5444     		add	r4, r4, r10
 591 0054 3C19     		adds	r4, r7, r4
 592 0056 FFF7FEFF 		bl	__aeabi_i2f
 593              	.LVL91:
 594              	.LBB123:
 595              	.LBB124:
  45:..\..\..\liblc3\src/fastmath.h **** 
 596              		.loc 3 45 0 discriminator 3
 597 005a 0300     		movs	r3, r0
 598              	.LVL92:
  47:..\..\..\liblc3\src/fastmath.h ****         x.s += exp << LC3_IEEE754_EXP_SHL;
 599              		.loc 3 47 0 discriminator 3
 600 005c FF22     		movs	r2, #255
 601 005e D205     		lsls	r2, r2, #23
 602 0060 0242     		tst	r2, r0
 603 0062 02D0     		beq	.L41
 604              		.loc 3 48 0
 605 0064 F823     		movs	r3, #248
 606 0066 1B06     		lsls	r3, r3, #24
ARM GAS  C:\Users\rdn\AppData\Local\Temp\cco7w9JJ.s 			page 18


 607 0068 C318     		adds	r3, r0, r3
 608              	.L41:
 609              	.LVL93:
 610              	.LBE124:
 611              	.LBE123:
 612              		.loc 1 252 0
 613 006a 2360     		str	r3, [r4]
 614              	.LBE122:
 246:..\..\..\liblc3\src/lc3.c ****         int32_t in = ((uint32_t)pcm[0] <<  8) |
 615              		.loc 1 246 0
 616 006c 0135     		adds	r5, r5, #1
 617              	.LVL94:
 618 006e 4346     		mov	r3, r8
 619 0070 5B00     		lsls	r3, r3, #1
 620 0072 4344     		add	r3, r3, r8
 621 0074 F618     		adds	r6, r6, r3
 622              	.LVL95:
 623              	.L40:
 246:..\..\..\liblc3\src/lc3.c ****         int32_t in = ((uint32_t)pcm[0] <<  8) |
 624              		.loc 1 246 0 is_stmt 0 discriminator 1
 625 0076 4D45     		cmp	r5, r9
 626 0078 DEDB     		blt	.L42
 627              	.LBE121:
 253:..\..\..\liblc3\src/lc3.c ****     }
 254:..\..\..\liblc3\src/lc3.c **** }
 628              		.loc 1 254 0 is_stmt 1
 629              		@ sp needed
 630              	.LVL96:
 631              	.LVL97:
 632              	.LVL98:
 633              	.LVL99:
 634              	.LVL100:
 635              	.LVL101:
 636 007a 3CBC     		pop	{r2, r3, r4, r5}
 637 007c 9046     		mov	r8, r2
 638 007e 9946     		mov	r9, r3
 639 0080 A246     		mov	r10, r4
 640 0082 AB46     		mov	fp, r5
 641 0084 F8BD     		pop	{r3, r4, r5, r6, r7, pc}
 642              	.L44:
 643 0086 C046     		.align	2
 644              	.L43:
 645 0088 AC040000 		.word	1196
 646 008c A4040000 		.word	1188
 647 0090 00000000 		.word	lc3_ns_2m5
 648              		.cfi_endproc
 649              	.LFE34:
 650              		.size	load_s24_3le, .-load_s24_3le
 651              		.global	__aeabi_f2iz
 652              		.section	.text.load_float,"ax",%progbits
 653              		.align	2
 654              		.code	16
 655              		.thumb_func
 656              		.type	load_float, %function
 657              	load_float:
 658              	.LFB35:
 255:..\..\..\liblc3\src/lc3.c **** 
ARM GAS  C:\Users\rdn\AppData\Local\Temp\cco7w9JJ.s 			page 19


 256:..\..\..\liblc3\src/lc3.c **** /**
 257:..\..\..\liblc3\src/lc3.c ****  * Input PCM Samples from float 32 bits
 258:..\..\..\liblc3\src/lc3.c ****  * encoder         Encoder state
 259:..\..\..\liblc3\src/lc3.c ****  * pcm, stride     Input PCM samples, and count between two consecutives
 260:..\..\..\liblc3\src/lc3.c ****  */
 261:..\..\..\liblc3\src/lc3.c **** static void load_float(
 262:..\..\..\liblc3\src/lc3.c ****     struct lc3_encoder *encoder, const void *_pcm, int stride)
 263:..\..\..\liblc3\src/lc3.c **** {
 659              		.loc 1 263 0
 660              		.cfi_startproc
 661              		@ args = 0, pretend = 0, frame = 0
 662              		@ frame_needed = 0, uses_anonymous_args = 0
 663              	.LVL102:
 664 0000 F8B5     		push	{r3, r4, r5, r6, r7, lr}
 665              		.cfi_def_cfa_offset 24
 666              		.cfi_offset 3, -24
 667              		.cfi_offset 4, -20
 668              		.cfi_offset 5, -16
 669              		.cfi_offset 6, -12
 670              		.cfi_offset 7, -8
 671              		.cfi_offset 14, -4
 672 0002 5F46     		mov	r7, fp
 673 0004 5646     		mov	r6, r10
 674 0006 4D46     		mov	r5, r9
 675 0008 4446     		mov	r4, r8
 676 000a F0B4     		push	{r4, r5, r6, r7}
 677              		.cfi_def_cfa_offset 40
 678              		.cfi_offset 8, -40
 679              		.cfi_offset 9, -36
 680              		.cfi_offset 10, -32
 681              		.cfi_offset 11, -28
 682 000c 0E00     		movs	r6, r1
 683 000e 9346     		mov	fp, r2
 684              	.LVL103:
 264:..\..\..\liblc3\src/lc3.c ****     const float *pcm = _pcm;
 265:..\..\..\liblc3\src/lc3.c **** 
 266:..\..\..\liblc3\src/lc3.c ****     enum lc3_dt dt = encoder->dt;
 685              		.loc 1 266 0
 686 0010 0778     		ldrb	r7, [r0]
 687              	.LVL104:
 267:..\..\..\liblc3\src/lc3.c ****     enum lc3_srate sr = encoder->sr_pcm;
 688              		.loc 1 267 0
 689 0012 8378     		ldrb	r3, [r0, #2]
 690              	.LVL105:
 268:..\..\..\liblc3\src/lc3.c **** 
 269:..\..\..\liblc3\src/lc3.c ****     int16_t *xt = (int16_t *)encoder->x + encoder->xt_off;
 691              		.loc 1 269 0
 692 0014 1D4A     		ldr	r2, .L52
 693              	.LVL106:
 694 0016 9246     		mov	r10, r2
 695 0018 8244     		add	r10, r10, r0
 696 001a 0C3A     		subs	r2, r2, #12
 697 001c 8258     		ldr	r2, [r0, r2]
 698 001e 5200     		lsls	r2, r2, #1
 699 0020 9146     		mov	r9, r2
 700              	.LVL107:
 270:..\..\..\liblc3\src/lc3.c ****     float *xs = encoder->x + encoder->xs_off;
ARM GAS  C:\Users\rdn\AppData\Local\Temp\cco7w9JJ.s 			page 20


 701              		.loc 1 270 0
 702 0022 1B4A     		ldr	r2, .L52+4
 703              	.LVL108:
 704 0024 8258     		ldr	r2, [r0, r2]
 705 0026 9200     		lsls	r2, r2, #2
 706 0028 5244     		add	r2, r2, r10
 707 002a 9046     		mov	r8, r2
 708              	.LVL109:
 709              	.LBB125:
 710              	.LBB126:
 711              		.loc 2 47 0
 712 002c 9B00     		lsls	r3, r3, #2
 713              	.LVL110:
 714 002e 194A     		ldr	r2, .L52+8
 715              	.LVL111:
 716 0030 9B58     		ldr	r3, [r3, r2]
 717 0032 0137     		adds	r7, r7, #1
 718              	.LVL112:
 719 0034 5F43     		muls	r7, r3
 720              	.LVL113:
 721              	.LBE126:
 722              	.LBE125:
 723              	.LBB127:
 271:..\..\..\liblc3\src/lc3.c ****     int ns = lc3_ns(dt, sr);
 272:..\..\..\liblc3\src/lc3.c **** 
 273:..\..\..\liblc3\src/lc3.c ****     for (int i = 0; i < ns; i++, pcm += stride) {
 724              		.loc 1 273 0
 725 0036 0025     		movs	r5, #0
 726 0038 20E0     		b	.L46
 727              	.LVL114:
 728              	.L50:
 274:..\..\..\liblc3\src/lc3.c ****         xs[i] = lc3_ldexpf(*pcm, 15);
 729              		.loc 1 274 0
 730 003a 2C00     		movs	r4, r5
 731 003c AB00     		lsls	r3, r5, #2
 732 003e 4344     		add	r3, r3, r8
 733 0040 3268     		ldr	r2, [r6]
 734              	.LVL115:
 735              	.LBB128:
 736              	.LBB129:
  45:..\..\..\liblc3\src/fastmath.h **** 
 737              		.loc 3 45 0
 738 0042 1000     		movs	r0, r2
 739              	.LVL116:
  47:..\..\..\liblc3\src/fastmath.h ****         x.s += exp << LC3_IEEE754_EXP_SHL;
 740              		.loc 3 47 0
 741 0044 FF21     		movs	r1, #255
 742 0046 C905     		lsls	r1, r1, #23
 743 0048 1142     		tst	r1, r2
 744 004a 02D0     		beq	.L47
 745              	.LVL117:
 746              		.loc 3 48 0
 747 004c F021     		movs	r1, #240
 748 004e C904     		lsls	r1, r1, #19
 749 0050 5018     		adds	r0, r2, r1
 750              	.L47:
 751              	.LVL118:
ARM GAS  C:\Users\rdn\AppData\Local\Temp\cco7w9JJ.s 			page 21


 752              	.LBE129:
 753              	.LBE128:
 754              		.loc 1 274 0
 755 0052 1860     		str	r0, [r3]
 275:..\..\..\liblc3\src/lc3.c ****         xt[i] = LC3_SAT16((int32_t)xs[i]);
 756              		.loc 1 275 0
 757 0054 6400     		lsls	r4, r4, #1
 758              	.LVL119:
 759 0056 4C44     		add	r4, r4, r9
 760 0058 5444     		add	r4, r4, r10
 761 005a FFF7FEFF 		bl	__aeabi_f2iz
 762              	.LVL120:
 763 005e 0E4B     		ldr	r3, .L52+12
 764 0060 9842     		cmp	r0, r3
 765 0062 05DC     		bgt	.L51
 766              		.loc 1 275 0 is_stmt 0 discriminator 1
 767 0064 0D4B     		ldr	r3, .L52+16
 768 0066 9842     		cmp	r0, r3
 769 0068 00DA     		bge	.L49
 770 006a 1800     		movs	r0, r3
 771              	.L49:
 772 006c 00B2     		sxth	r0, r0
 773 006e 00E0     		b	.L48
 774              	.L51:
 775              		.loc 1 275 0
 776 0070 0B48     		ldr	r0, .L52+20
 777              	.L48:
 778              		.loc 1 275 0 discriminator 4
 779 0072 2080     		strh	r0, [r4]
 273:..\..\..\liblc3\src/lc3.c ****         xs[i] = lc3_ldexpf(*pcm, 15);
 780              		.loc 1 273 0 is_stmt 1 discriminator 4
 781 0074 0135     		adds	r5, r5, #1
 782              	.LVL121:
 783 0076 5B46     		mov	r3, fp
 784 0078 9B00     		lsls	r3, r3, #2
 785 007a F618     		adds	r6, r6, r3
 786              	.LVL122:
 787              	.L46:
 273:..\..\..\liblc3\src/lc3.c ****         xs[i] = lc3_ldexpf(*pcm, 15);
 788              		.loc 1 273 0 is_stmt 0 discriminator 2
 789 007c BD42     		cmp	r5, r7
 790 007e DCDB     		blt	.L50
 791              	.LBE127:
 276:..\..\..\liblc3\src/lc3.c ****     }
 277:..\..\..\liblc3\src/lc3.c **** }
 792              		.loc 1 277 0 is_stmt 1
 793              		@ sp needed
 794              	.LVL123:
 795              	.LVL124:
 796              	.LVL125:
 797              	.LVL126:
 798              	.LVL127:
 799 0080 3CBC     		pop	{r2, r3, r4, r5}
 800 0082 9046     		mov	r8, r2
 801 0084 9946     		mov	r9, r3
 802 0086 A246     		mov	r10, r4
 803 0088 AB46     		mov	fp, r5
ARM GAS  C:\Users\rdn\AppData\Local\Temp\cco7w9JJ.s 			page 22


 804 008a F8BD     		pop	{r3, r4, r5, r6, r7, pc}
 805              	.L53:
 806              		.align	2
 807              	.L52:
 808 008c AC040000 		.word	1196
 809 0090 A4040000 		.word	1188
 810 0094 00000000 		.word	lc3_ns_2m5
 811 0098 FE7F0000 		.word	32766
 812 009c 0080FFFF 		.word	-32768
 813 00a0 FF7F0000 		.word	32767
 814              		.cfi_endproc
 815              	.LFE35:
 816              		.size	load_float, .-load_float
 817              		.global	__aeabi_fcmpge
 818              		.global	__aeabi_fadd
 819              		.global	__aeabi_fsub
 820              		.section	.text.store_s16,"ax",%progbits
 821              		.align	2
 822              		.code	16
 823              		.thumb_func
 824              		.type	store_s16, %function
 825              	store_s16:
 826              	.LFB43:
 278:..\..\..\liblc3\src/lc3.c **** 
 279:..\..\..\liblc3\src/lc3.c **** /**
 280:..\..\..\liblc3\src/lc3.c ****  * Frame Analysis
 281:..\..\..\liblc3\src/lc3.c ****  * encoder         Encoder state
 282:..\..\..\liblc3\src/lc3.c ****  * nbytes          Size in bytes of the frame
 283:..\..\..\liblc3\src/lc3.c ****  * side            Return frame data
 284:..\..\..\liblc3\src/lc3.c ****  */
 285:..\..\..\liblc3\src/lc3.c **** static void analyze(struct lc3_encoder *encoder,
 286:..\..\..\liblc3\src/lc3.c ****     int nbytes, struct side_data *side)
 287:..\..\..\liblc3\src/lc3.c **** {
 288:..\..\..\liblc3\src/lc3.c ****     enum lc3_dt dt = encoder->dt;
 289:..\..\..\liblc3\src/lc3.c ****     enum lc3_srate sr = encoder->sr;
 290:..\..\..\liblc3\src/lc3.c ****     enum lc3_srate sr_pcm = encoder->sr_pcm;
 291:..\..\..\liblc3\src/lc3.c **** 
 292:..\..\..\liblc3\src/lc3.c ****     int16_t *xt = (int16_t *)encoder->x + encoder->xt_off;
 293:..\..\..\liblc3\src/lc3.c ****     float *xs = encoder->x + encoder->xs_off;
 294:..\..\..\liblc3\src/lc3.c ****     int ns = lc3_ns(dt, sr_pcm);
 295:..\..\..\liblc3\src/lc3.c ****     int nt = lc3_nt(sr_pcm);
 296:..\..\..\liblc3\src/lc3.c **** 
 297:..\..\..\liblc3\src/lc3.c ****     float *xd = encoder->x + encoder->xd_off;
 298:..\..\..\liblc3\src/lc3.c ****     float *xf = xs;
 299:..\..\..\liblc3\src/lc3.c **** 
 300:..\..\..\liblc3\src/lc3.c ****     /* --- Temporal --- */
 301:..\..\..\liblc3\src/lc3.c **** 
 302:..\..\..\liblc3\src/lc3.c ****     bool att = lc3_attdet_run(dt, sr_pcm, nbytes, &encoder->attdet, xt);
 303:..\..\..\liblc3\src/lc3.c **** 
 304:..\..\..\liblc3\src/lc3.c ****     side->pitch_present =
 305:..\..\..\liblc3\src/lc3.c ****         lc3_ltpf_analyse(dt, sr_pcm, &encoder->ltpf, xt, &side->ltpf);
 306:..\..\..\liblc3\src/lc3.c **** 
 307:..\..\..\liblc3\src/lc3.c ****     memmove(xt - nt, xt + (ns-nt), nt * sizeof(*xt));
 308:..\..\..\liblc3\src/lc3.c **** 
 309:..\..\..\liblc3\src/lc3.c ****     /* --- Spectral --- */
 310:..\..\..\liblc3\src/lc3.c **** 
 311:..\..\..\liblc3\src/lc3.c ****     float e[LC3_MAX_BANDS];
ARM GAS  C:\Users\rdn\AppData\Local\Temp\cco7w9JJ.s 			page 23


 312:..\..\..\liblc3\src/lc3.c **** 
 313:..\..\..\liblc3\src/lc3.c ****     lc3_mdct_forward(dt, sr_pcm, sr, xs, xd, xf);
 314:..\..\..\liblc3\src/lc3.c **** 
 315:..\..\..\liblc3\src/lc3.c ****     bool nn_flag = lc3_energy_compute(dt, sr, xf, e);
 316:..\..\..\liblc3\src/lc3.c ****     if (nn_flag)
 317:..\..\..\liblc3\src/lc3.c ****         lc3_ltpf_disable(&side->ltpf);
 318:..\..\..\liblc3\src/lc3.c **** 
 319:..\..\..\liblc3\src/lc3.c ****     side->bw = lc3_bwdet_run(dt, sr, e);
 320:..\..\..\liblc3\src/lc3.c **** 
 321:..\..\..\liblc3\src/lc3.c ****     lc3_sns_analyze(dt, sr, nbytes, e, att, &side->sns, xf, xf);
 322:..\..\..\liblc3\src/lc3.c **** 
 323:..\..\..\liblc3\src/lc3.c ****     lc3_tns_analyze(dt, side->bw, nn_flag, nbytes, &side->tns, xf);
 324:..\..\..\liblc3\src/lc3.c **** 
 325:..\..\..\liblc3\src/lc3.c ****     lc3_spec_analyze(dt, sr,
 326:..\..\..\liblc3\src/lc3.c ****         nbytes, side->pitch_present, &side->tns,
 327:..\..\..\liblc3\src/lc3.c ****         &encoder->spec, xf, &side->spec);
 328:..\..\..\liblc3\src/lc3.c **** }
 329:..\..\..\liblc3\src/lc3.c **** 
 330:..\..\..\liblc3\src/lc3.c **** /**
 331:..\..\..\liblc3\src/lc3.c ****  * Encode bitstream
 332:..\..\..\liblc3\src/lc3.c ****  * encoder         Encoder state
 333:..\..\..\liblc3\src/lc3.c ****  * side            The frame data
 334:..\..\..\liblc3\src/lc3.c ****  * nbytes          Target size of the frame (20 to 400)
 335:..\..\..\liblc3\src/lc3.c ****  * buffer          Output bitstream buffer of `nbytes` size
 336:..\..\..\liblc3\src/lc3.c ****  */
 337:..\..\..\liblc3\src/lc3.c **** static void encode(struct lc3_encoder *encoder,
 338:..\..\..\liblc3\src/lc3.c ****     const struct side_data *side, int nbytes, void *buffer)
 339:..\..\..\liblc3\src/lc3.c **** {
 340:..\..\..\liblc3\src/lc3.c ****     enum lc3_dt dt = encoder->dt;
 341:..\..\..\liblc3\src/lc3.c ****     enum lc3_srate sr = encoder->sr;
 342:..\..\..\liblc3\src/lc3.c **** 
 343:..\..\..\liblc3\src/lc3.c ****     float *xf = encoder->x + encoder->xs_off;
 344:..\..\..\liblc3\src/lc3.c ****     enum lc3_bandwidth bw = side->bw;
 345:..\..\..\liblc3\src/lc3.c **** 
 346:..\..\..\liblc3\src/lc3.c ****     lc3_bits_t bits;
 347:..\..\..\liblc3\src/lc3.c **** 
 348:..\..\..\liblc3\src/lc3.c ****     lc3_setup_bits(&bits, LC3_BITS_MODE_WRITE, buffer, nbytes);
 349:..\..\..\liblc3\src/lc3.c **** 
 350:..\..\..\liblc3\src/lc3.c ****     lc3_bwdet_put_bw(&bits, sr, bw);
 351:..\..\..\liblc3\src/lc3.c **** 
 352:..\..\..\liblc3\src/lc3.c ****     lc3_spec_put_side(&bits, dt, sr, &side->spec);
 353:..\..\..\liblc3\src/lc3.c **** 
 354:..\..\..\liblc3\src/lc3.c ****     lc3_tns_put_data(&bits, &side->tns);
 355:..\..\..\liblc3\src/lc3.c **** 
 356:..\..\..\liblc3\src/lc3.c ****     lc3_put_bit(&bits, side->pitch_present);
 357:..\..\..\liblc3\src/lc3.c **** 
 358:..\..\..\liblc3\src/lc3.c ****     lc3_sns_put_data(&bits, &side->sns);
 359:..\..\..\liblc3\src/lc3.c **** 
 360:..\..\..\liblc3\src/lc3.c ****     if (side->pitch_present)
 361:..\..\..\liblc3\src/lc3.c ****         lc3_ltpf_put_data(&bits, &side->ltpf);
 362:..\..\..\liblc3\src/lc3.c **** 
 363:..\..\..\liblc3\src/lc3.c ****     lc3_spec_encode(&bits, dt, sr, bw, nbytes, &side->spec, xf);
 364:..\..\..\liblc3\src/lc3.c **** 
 365:..\..\..\liblc3\src/lc3.c ****     lc3_flush_bits(&bits);
 366:..\..\..\liblc3\src/lc3.c **** }
 367:..\..\..\liblc3\src/lc3.c **** 
 368:..\..\..\liblc3\src/lc3.c **** /**
ARM GAS  C:\Users\rdn\AppData\Local\Temp\cco7w9JJ.s 			page 24


 369:..\..\..\liblc3\src/lc3.c ****  * Return size needed for an encoder
 370:..\..\..\liblc3\src/lc3.c ****  */
 371:..\..\..\liblc3\src/lc3.c **** LC3_EXPORT unsigned lc3_hr_encoder_size(bool hrmode, int dt_us, int sr_hz)
 372:..\..\..\liblc3\src/lc3.c **** {
 373:..\..\..\liblc3\src/lc3.c ****     if (resolve_dt(dt_us, hrmode) >= LC3_NUM_DT ||
 374:..\..\..\liblc3\src/lc3.c ****         resolve_srate(sr_hz, hrmode) >= LC3_NUM_SRATE)
 375:..\..\..\liblc3\src/lc3.c ****         return 0;
 376:..\..\..\liblc3\src/lc3.c **** 
 377:..\..\..\liblc3\src/lc3.c ****     return sizeof(struct lc3_encoder) +
 378:..\..\..\liblc3\src/lc3.c ****         (LC3_ENCODER_BUFFER_COUNT(dt_us, sr_hz)-1) * sizeof(float);
 379:..\..\..\liblc3\src/lc3.c **** }
 380:..\..\..\liblc3\src/lc3.c **** 
 381:..\..\..\liblc3\src/lc3.c **** LC3_EXPORT unsigned lc3_encoder_size(int dt_us, int sr_hz)
 382:..\..\..\liblc3\src/lc3.c **** {
 383:..\..\..\liblc3\src/lc3.c ****     return lc3_hr_encoder_size(false, dt_us, sr_hz);
 384:..\..\..\liblc3\src/lc3.c **** }
 385:..\..\..\liblc3\src/lc3.c **** 
 386:..\..\..\liblc3\src/lc3.c **** /**
 387:..\..\..\liblc3\src/lc3.c ****  * Setup encoder
 388:..\..\..\liblc3\src/lc3.c ****  */
 389:..\..\..\liblc3\src/lc3.c **** LC3_EXPORT struct lc3_encoder *lc3_hr_setup_encoder(
 390:..\..\..\liblc3\src/lc3.c ****     bool hrmode, int dt_us, int sr_hz, int sr_pcm_hz, void *mem)
 391:..\..\..\liblc3\src/lc3.c **** {
 392:..\..\..\liblc3\src/lc3.c ****     if (sr_pcm_hz <= 0)
 393:..\..\..\liblc3\src/lc3.c ****         sr_pcm_hz = sr_hz;
 394:..\..\..\liblc3\src/lc3.c **** 
 395:..\..\..\liblc3\src/lc3.c ****     enum lc3_dt dt = resolve_dt(dt_us, hrmode);
 396:..\..\..\liblc3\src/lc3.c ****     enum lc3_srate sr = resolve_srate(sr_hz, hrmode);
 397:..\..\..\liblc3\src/lc3.c ****     enum lc3_srate sr_pcm = resolve_srate(sr_pcm_hz, hrmode);
 398:..\..\..\liblc3\src/lc3.c **** 
 399:..\..\..\liblc3\src/lc3.c ****     if (dt >= LC3_NUM_DT || sr_pcm >= LC3_NUM_SRATE || sr > sr_pcm || !mem)
 400:..\..\..\liblc3\src/lc3.c ****         return NULL;
 401:..\..\..\liblc3\src/lc3.c **** 
 402:..\..\..\liblc3\src/lc3.c ****     struct lc3_encoder *encoder = mem;
 403:..\..\..\liblc3\src/lc3.c ****     int ns = lc3_ns(dt, sr_pcm);
 404:..\..\..\liblc3\src/lc3.c ****     int nt = lc3_nt(sr_pcm);
 405:..\..\..\liblc3\src/lc3.c **** 
 406:..\..\..\liblc3\src/lc3.c ****     *encoder = (struct lc3_encoder){
 407:..\..\..\liblc3\src/lc3.c ****         .dt = dt, .sr = sr,
 408:..\..\..\liblc3\src/lc3.c ****         .sr_pcm = sr_pcm,
 409:..\..\..\liblc3\src/lc3.c **** 
 410:..\..\..\liblc3\src/lc3.c ****         .xt_off = nt,
 411:..\..\..\liblc3\src/lc3.c ****         .xs_off = (nt + ns) / 2,
 412:..\..\..\liblc3\src/lc3.c ****         .xd_off = (nt + ns) / 2 + ns,
 413:..\..\..\liblc3\src/lc3.c ****     };
 414:..\..\..\liblc3\src/lc3.c **** 
 415:..\..\..\liblc3\src/lc3.c ****     memset(encoder->x, 0,
 416:..\..\..\liblc3\src/lc3.c ****         LC3_ENCODER_BUFFER_COUNT(dt_us, sr_pcm_hz) * sizeof(float));
 417:..\..\..\liblc3\src/lc3.c **** 
 418:..\..\..\liblc3\src/lc3.c ****     return encoder;
 419:..\..\..\liblc3\src/lc3.c **** }
 420:..\..\..\liblc3\src/lc3.c **** 
 421:..\..\..\liblc3\src/lc3.c **** LC3_EXPORT struct lc3_encoder *lc3_setup_encoder(
 422:..\..\..\liblc3\src/lc3.c ****     int dt_us, int sr_hz, int sr_pcm_hz, void *mem)
 423:..\..\..\liblc3\src/lc3.c **** {
 424:..\..\..\liblc3\src/lc3.c ****     return lc3_hr_setup_encoder(false, dt_us, sr_hz, sr_pcm_hz, mem);
 425:..\..\..\liblc3\src/lc3.c **** }
ARM GAS  C:\Users\rdn\AppData\Local\Temp\cco7w9JJ.s 			page 25


 426:..\..\..\liblc3\src/lc3.c **** 
 427:..\..\..\liblc3\src/lc3.c **** /**
 428:..\..\..\liblc3\src/lc3.c ****  * Encode a frame
 429:..\..\..\liblc3\src/lc3.c ****  */
 430:..\..\..\liblc3\src/lc3.c **** LC3_EXPORT int lc3_encode(struct lc3_encoder *encoder,
 431:..\..\..\liblc3\src/lc3.c ****     enum lc3_pcm_format fmt, const void *pcm, int stride, int nbytes, void *out)
 432:..\..\..\liblc3\src/lc3.c **** {
 433:..\..\..\liblc3\src/lc3.c ****     static void (* const load[])(struct lc3_encoder *, const void *, int) = {
 434:..\..\..\liblc3\src/lc3.c ****         [LC3_PCM_FORMAT_S16    ] = load_s16,
 435:..\..\..\liblc3\src/lc3.c ****         [LC3_PCM_FORMAT_S24    ] = load_s24,
 436:..\..\..\liblc3\src/lc3.c ****         [LC3_PCM_FORMAT_S24_3LE] = load_s24_3le,
 437:..\..\..\liblc3\src/lc3.c ****         [LC3_PCM_FORMAT_FLOAT  ] = load_float,
 438:..\..\..\liblc3\src/lc3.c ****     };
 439:..\..\..\liblc3\src/lc3.c **** 
 440:..\..\..\liblc3\src/lc3.c ****     /* --- Check parameters --- */
 441:..\..\..\liblc3\src/lc3.c **** 
 442:..\..\..\liblc3\src/lc3.c ****     if (!encoder || nbytes < lc3_min_frame_bytes(encoder->dt, encoder->sr)
 443:..\..\..\liblc3\src/lc3.c ****                  || nbytes > lc3_max_frame_bytes(encoder->dt, encoder->sr))
 444:..\..\..\liblc3\src/lc3.c ****         return -1;
 445:..\..\..\liblc3\src/lc3.c **** 
 446:..\..\..\liblc3\src/lc3.c ****     /* --- Processing --- */
 447:..\..\..\liblc3\src/lc3.c **** 
 448:..\..\..\liblc3\src/lc3.c ****     struct side_data side;
 449:..\..\..\liblc3\src/lc3.c **** 
 450:..\..\..\liblc3\src/lc3.c ****     load[fmt](encoder, pcm, stride);
 451:..\..\..\liblc3\src/lc3.c **** 
 452:..\..\..\liblc3\src/lc3.c ****     analyze(encoder, nbytes, &side);
 453:..\..\..\liblc3\src/lc3.c **** 
 454:..\..\..\liblc3\src/lc3.c ****     encode(encoder, &side, nbytes, out);
 455:..\..\..\liblc3\src/lc3.c **** 
 456:..\..\..\liblc3\src/lc3.c ****     return 0;
 457:..\..\..\liblc3\src/lc3.c **** }
 458:..\..\..\liblc3\src/lc3.c **** 
 459:..\..\..\liblc3\src/lc3.c **** 
 460:..\..\..\liblc3\src/lc3.c **** /* ----------------------------------------------------------------------------
 461:..\..\..\liblc3\src/lc3.c ****  *  Decoder
 462:..\..\..\liblc3\src/lc3.c ****  * -------------------------------------------------------------------------- */
 463:..\..\..\liblc3\src/lc3.c **** 
 464:..\..\..\liblc3\src/lc3.c **** /**
 465:..\..\..\liblc3\src/lc3.c ****  * Output PCM Samples to signed 16 bits
 466:..\..\..\liblc3\src/lc3.c ****  * decoder         Decoder state
 467:..\..\..\liblc3\src/lc3.c ****  * pcm, stride     Output PCM samples, and count between two consecutives
 468:..\..\..\liblc3\src/lc3.c ****  */
 469:..\..\..\liblc3\src/lc3.c **** static void store_s16(
 470:..\..\..\liblc3\src/lc3.c ****     struct lc3_decoder *decoder, void *_pcm, int stride)
 471:..\..\..\liblc3\src/lc3.c **** {
 827              		.loc 1 471 0
 828              		.cfi_startproc
 829              		@ args = 0, pretend = 0, frame = 0
 830              		@ frame_needed = 0, uses_anonymous_args = 0
 831              	.LVL128:
 832 0000 F0B5     		push	{r4, r5, r6, r7, lr}
 833              		.cfi_def_cfa_offset 20
 834              		.cfi_offset 4, -20
 835              		.cfi_offset 5, -16
 836              		.cfi_offset 6, -12
 837              		.cfi_offset 7, -8
ARM GAS  C:\Users\rdn\AppData\Local\Temp\cco7w9JJ.s 			page 26


 838              		.cfi_offset 14, -4
 839 0002 4746     		mov	r7, r8
 840 0004 80B4     		push	{r7}
 841              		.cfi_def_cfa_offset 24
 842              		.cfi_offset 8, -24
 843 0006 0E00     		movs	r6, r1
 844 0008 9046     		mov	r8, r2
 845              	.LVL129:
 472:..\..\..\liblc3\src/lc3.c ****     int16_t *pcm = _pcm;
 473:..\..\..\liblc3\src/lc3.c **** 
 474:..\..\..\liblc3\src/lc3.c ****     enum lc3_dt dt = decoder->dt;
 846              		.loc 1 474 0
 847 000a 0478     		ldrb	r4, [r0]
 848              	.LVL130:
 475:..\..\..\liblc3\src/lc3.c ****     enum lc3_srate sr = decoder->sr_pcm;
 849              		.loc 1 475 0
 850 000c 8378     		ldrb	r3, [r0, #2]
 851              	.LVL131:
 476:..\..\..\liblc3\src/lc3.c **** 
 477:..\..\..\liblc3\src/lc3.c ****     float *xs = decoder->x + decoder->xs_off;
 852              		.loc 1 477 0
 853 000e 0200     		movs	r2, r0
 854              	.LVL132:
 855 0010 B832     		adds	r2, r2, #184
 856 0012 AC21     		movs	r1, #172
 857              	.LVL133:
 858 0014 4558     		ldr	r5, [r0, r1]
 859 0016 AD00     		lsls	r5, r5, #2
 860 0018 5519     		adds	r5, r2, r5
 861              	.LVL134:
 862              	.LBB130:
 863              	.LBB131:
 864              		.loc 2 47 0
 865 001a 9B00     		lsls	r3, r3, #2
 866              	.LVL135:
 867 001c 174A     		ldr	r2, .L65
 868 001e 9B58     		ldr	r3, [r3, r2]
 869 0020 0134     		adds	r4, r4, #1
 870              	.LVL136:
 871 0022 5C43     		muls	r4, r3
 872              	.LVL137:
 873              	.LBE131:
 874              	.LBE130:
 478:..\..\..\liblc3\src/lc3.c ****     int ns = lc3_ns(dt, sr);
 479:..\..\..\liblc3\src/lc3.c **** 
 480:..\..\..\liblc3\src/lc3.c ****     for ( ; ns > 0; ns--, xs++, pcm += stride) {
 875              		.loc 1 480 0
 876 0024 25E0     		b	.L55
 877              	.LVL138:
 878              	.L61:
 879              	.LBB132:
 481:..\..\..\liblc3\src/lc3.c ****         int32_t s = *xs >= 0 ? (int)(*xs + 0.5f) : (int)(*xs - 0.5f);
 880              		.loc 1 481 0
 881 0026 2F68     		ldr	r7, [r5]
 882 0028 0021     		movs	r1, #0
 883 002a 381C     		adds	r0, r7, #0
 884 002c FFF7FEFF 		bl	__aeabi_fcmpge
ARM GAS  C:\Users\rdn\AppData\Local\Temp\cco7w9JJ.s 			page 27


 885              	.LVL139:
 886 0030 0028     		cmp	r0, #0
 887 0032 07D0     		beq	.L64
 888              		.loc 1 481 0 is_stmt 0 discriminator 1
 889 0034 FC21     		movs	r1, #252
 890 0036 8905     		lsls	r1, r1, #22
 891 0038 381C     		adds	r0, r7, #0
 892 003a FFF7FEFF 		bl	__aeabi_fadd
 893              	.LVL140:
 894 003e FFF7FEFF 		bl	__aeabi_f2iz
 895              	.LVL141:
 896 0042 06E0     		b	.L58
 897              	.L64:
 898              		.loc 1 481 0 discriminator 2
 899 0044 FC21     		movs	r1, #252
 900 0046 8905     		lsls	r1, r1, #22
 901 0048 381C     		adds	r0, r7, #0
 902 004a FFF7FEFF 		bl	__aeabi_fsub
 903              	.LVL142:
 904 004e FFF7FEFF 		bl	__aeabi_f2iz
 905              	.LVL143:
 906              	.L58:
 482:..\..\..\liblc3\src/lc3.c ****         *pcm = LC3_SAT16(s);
 907              		.loc 1 482 0 is_stmt 1 discriminator 4
 908 0052 0B4B     		ldr	r3, .L65+4
 909 0054 9842     		cmp	r0, r3
 910 0056 05DC     		bgt	.L62
 911              		.loc 1 482 0 is_stmt 0 discriminator 1
 912 0058 0A4B     		ldr	r3, .L65+8
 913 005a 9842     		cmp	r0, r3
 914 005c 00DA     		bge	.L60
 915 005e 1800     		movs	r0, r3
 916              	.LVL144:
 917              	.L60:
 918 0060 00B2     		sxth	r0, r0
 919 0062 00E0     		b	.L59
 920              	.LVL145:
 921              	.L62:
 922              		.loc 1 482 0
 923 0064 0848     		ldr	r0, .L65+12
 924              	.LVL146:
 925              	.L59:
 926              		.loc 1 482 0 discriminator 4
 927 0066 3080     		strh	r0, [r6]
 928              	.LBE132:
 480:..\..\..\liblc3\src/lc3.c ****         int32_t s = *xs >= 0 ? (int)(*xs + 0.5f) : (int)(*xs - 0.5f);
 929              		.loc 1 480 0 is_stmt 1 discriminator 4
 930 0068 013C     		subs	r4, r4, #1
 931              	.LVL147:
 932 006a 0435     		adds	r5, r5, #4
 933              	.LVL148:
 934 006c 4346     		mov	r3, r8
 935 006e 5B00     		lsls	r3, r3, #1
 936 0070 F618     		adds	r6, r6, r3
 937              	.LVL149:
 938              	.L55:
 480:..\..\..\liblc3\src/lc3.c ****         int32_t s = *xs >= 0 ? (int)(*xs + 0.5f) : (int)(*xs - 0.5f);
ARM GAS  C:\Users\rdn\AppData\Local\Temp\cco7w9JJ.s 			page 28


 939              		.loc 1 480 0 is_stmt 0 discriminator 1
 940 0072 002C     		cmp	r4, #0
 941 0074 D7DC     		bgt	.L61
 483:..\..\..\liblc3\src/lc3.c ****     }
 484:..\..\..\liblc3\src/lc3.c **** }
 942              		.loc 1 484 0 is_stmt 1
 943              		@ sp needed
 944              	.LVL150:
 945              	.LVL151:
 946              	.LVL152:
 947              	.LVL153:
 948 0076 04BC     		pop	{r2}
 949 0078 9046     		mov	r8, r2
 950 007a F0BD     		pop	{r4, r5, r6, r7, pc}
 951              	.L66:
 952              		.align	2
 953              	.L65:
 954 007c 00000000 		.word	lc3_ns_2m5
 955 0080 FE7F0000 		.word	32766
 956 0084 0080FFFF 		.word	-32768
 957 0088 FF7F0000 		.word	32767
 958              		.cfi_endproc
 959              	.LFE43:
 960              		.size	store_s16, .-store_s16
 961              		.section	.text.store_s24,"ax",%progbits
 962              		.align	2
 963              		.code	16
 964              		.thumb_func
 965              		.type	store_s24, %function
 966              	store_s24:
 967              	.LFB44:
 485:..\..\..\liblc3\src/lc3.c **** 
 486:..\..\..\liblc3\src/lc3.c **** /**
 487:..\..\..\liblc3\src/lc3.c ****  * Output PCM Samples to signed 24 bits
 488:..\..\..\liblc3\src/lc3.c ****  * decoder         Decoder state
 489:..\..\..\liblc3\src/lc3.c ****  * pcm, stride     Output PCM samples, and count between two consecutives
 490:..\..\..\liblc3\src/lc3.c ****  */
 491:..\..\..\liblc3\src/lc3.c **** static void store_s24(
 492:..\..\..\liblc3\src/lc3.c ****     struct lc3_decoder *decoder, void *_pcm, int stride)
 493:..\..\..\liblc3\src/lc3.c **** {
 968              		.loc 1 493 0
 969              		.cfi_startproc
 970              		@ args = 0, pretend = 0, frame = 0
 971              		@ frame_needed = 0, uses_anonymous_args = 0
 972              	.LVL154:
 973 0000 F0B5     		push	{r4, r5, r6, r7, lr}
 974              		.cfi_def_cfa_offset 20
 975              		.cfi_offset 4, -20
 976              		.cfi_offset 5, -16
 977              		.cfi_offset 6, -12
 978              		.cfi_offset 7, -8
 979              		.cfi_offset 14, -4
 980 0002 4746     		mov	r7, r8
 981 0004 80B4     		push	{r7}
 982              		.cfi_def_cfa_offset 24
 983              		.cfi_offset 8, -24
 984 0006 0F00     		movs	r7, r1
ARM GAS  C:\Users\rdn\AppData\Local\Temp\cco7w9JJ.s 			page 29


 985 0008 9046     		mov	r8, r2
 986              	.LVL155:
 494:..\..\..\liblc3\src/lc3.c ****     int32_t *pcm = _pcm;
 495:..\..\..\liblc3\src/lc3.c **** 
 496:..\..\..\liblc3\src/lc3.c ****     enum lc3_dt dt = decoder->dt;
 987              		.loc 1 496 0
 988 000a 0578     		ldrb	r5, [r0]
 989              	.LVL156:
 497:..\..\..\liblc3\src/lc3.c ****     enum lc3_srate sr = decoder->sr_pcm;
 990              		.loc 1 497 0
 991 000c 8378     		ldrb	r3, [r0, #2]
 992              	.LVL157:
 498:..\..\..\liblc3\src/lc3.c **** 
 499:..\..\..\liblc3\src/lc3.c ****     float *xs = decoder->x + decoder->xs_off;
 993              		.loc 1 499 0
 994 000e 0200     		movs	r2, r0
 995              	.LVL158:
 996 0010 B832     		adds	r2, r2, #184
 997 0012 AC21     		movs	r1, #172
 998              	.LVL159:
 999 0014 4658     		ldr	r6, [r0, r1]
 1000 0016 B600     		lsls	r6, r6, #2
 1001 0018 9619     		adds	r6, r2, r6
 1002              	.LVL160:
 1003              	.LBB133:
 1004              	.LBB134:
 1005              		.loc 2 47 0
 1006 001a 9B00     		lsls	r3, r3, #2
 1007              	.LVL161:
 1008 001c 1E4A     		ldr	r2, .L80
 1009 001e 9B58     		ldr	r3, [r3, r2]
 1010 0020 0135     		adds	r5, r5, #1
 1011              	.LVL162:
 1012 0022 5D43     		muls	r5, r3
 1013              	.LVL163:
 1014              	.LBE134:
 1015              	.LBE133:
 500:..\..\..\liblc3\src/lc3.c ****     int ns = lc3_ns(dt, sr);
 501:..\..\..\liblc3\src/lc3.c **** 
 502:..\..\..\liblc3\src/lc3.c ****     for ( ; ns > 0; ns--, xs++, pcm += stride) {
 1016              		.loc 1 502 0
 1017 0024 32E0     		b	.L68
 1018              	.LVL164:
 1019              	.L76:
 1020              	.LBB135:
 503:..\..\..\liblc3\src/lc3.c ****         int32_t s = *xs >= 0 ? (int32_t)(lc3_ldexpf(*xs, 8) + 0.5f)
 1021              		.loc 1 503 0
 1022 0026 3468     		ldr	r4, [r6]
 504:..\..\..\liblc3\src/lc3.c ****                              : (int32_t)(lc3_ldexpf(*xs, 8) - 0.5f);
 1023              		.loc 1 504 0
 1024 0028 0021     		movs	r1, #0
 1025 002a 201C     		adds	r0, r4, #0
 1026 002c FFF7FEFF 		bl	__aeabi_fcmpge
 1027              	.LVL165:
 1028 0030 0028     		cmp	r0, #0
 1029 0032 0ED0     		beq	.L79
 1030              	.LVL166:
ARM GAS  C:\Users\rdn\AppData\Local\Temp\cco7w9JJ.s 			page 30


 1031              	.LBB136:
 1032              	.LBB137:
  45:..\..\..\liblc3\src/fastmath.h **** 
 1033              		.loc 3 45 0 discriminator 1
 1034 0034 2000     		movs	r0, r4
 1035              	.LVL167:
  47:..\..\..\liblc3\src/fastmath.h ****         x.s += exp << LC3_IEEE754_EXP_SHL;
 1036              		.loc 3 47 0 discriminator 1
 1037 0036 FF23     		movs	r3, #255
 1038 0038 DB05     		lsls	r3, r3, #23
 1039 003a 2342     		tst	r3, r4
 1040 003c 02D0     		beq	.L71
 1041              		.loc 3 48 0
 1042 003e 8023     		movs	r3, #128
 1043 0040 DB04     		lsls	r3, r3, #19
 1044 0042 E018     		adds	r0, r4, r3
 1045              	.L71:
 1046              	.LVL168:
 1047              	.LBE137:
 1048              	.LBE136:
 503:..\..\..\liblc3\src/lc3.c ****                              : (int32_t)(lc3_ldexpf(*xs, 8) - 0.5f);
 1049              		.loc 1 503 0
 1050 0044 FC21     		movs	r1, #252
 1051 0046 8905     		lsls	r1, r1, #22
 1052 0048 FFF7FEFF 		bl	__aeabi_fadd
 1053              	.LVL169:
 1054              		.loc 1 504 0
 1055 004c FFF7FEFF 		bl	__aeabi_f2iz
 1056              	.LVL170:
 1057 0050 0DE0     		b	.L72
 1058              	.L79:
 1059              	.LVL171:
 1060              	.LBB138:
 1061              	.LBB139:
  45:..\..\..\liblc3\src/fastmath.h **** 
 1062              		.loc 3 45 0 discriminator 2
 1063 0052 2000     		movs	r0, r4
 1064              	.LVL172:
  47:..\..\..\liblc3\src/fastmath.h ****         x.s += exp << LC3_IEEE754_EXP_SHL;
 1065              		.loc 3 47 0 discriminator 2
 1066 0054 FF23     		movs	r3, #255
 1067 0056 DB05     		lsls	r3, r3, #23
 1068 0058 2342     		tst	r3, r4
 1069 005a 02D0     		beq	.L73
 1070              		.loc 3 48 0
 1071 005c 8023     		movs	r3, #128
 1072 005e DB04     		lsls	r3, r3, #19
 1073 0060 E018     		adds	r0, r4, r3
 1074              	.L73:
 1075              	.LVL173:
 1076              	.LBE139:
 1077              	.LBE138:
 1078              		.loc 1 504 0
 1079 0062 FC21     		movs	r1, #252
 1080 0064 8905     		lsls	r1, r1, #22
 1081 0066 FFF7FEFF 		bl	__aeabi_fsub
 1082              	.LVL174:
ARM GAS  C:\Users\rdn\AppData\Local\Temp\cco7w9JJ.s 			page 31


 1083 006a FFF7FEFF 		bl	__aeabi_f2iz
 1084              	.LVL175:
 1085              	.L72:
 505:..\..\..\liblc3\src/lc3.c ****         *pcm = LC3_SAT24(s);
 1086              		.loc 1 505 0
 1087 006e 0B4B     		ldr	r3, .L80+4
 1088 0070 9842     		cmp	r0, r3
 1089 0072 04DC     		bgt	.L77
 1090              		.loc 1 505 0 is_stmt 0 discriminator 1
 1091 0074 0A4B     		ldr	r3, .L80+8
 1092 0076 9842     		cmp	r0, r3
 1093 0078 02DA     		bge	.L74
 1094 007a 1800     		movs	r0, r3
 1095              	.LVL176:
 1096 007c 00E0     		b	.L74
 1097              	.LVL177:
 1098              	.L77:
 1099              		.loc 1 505 0
 1100 007e 0948     		ldr	r0, .L80+12
 1101              	.LVL178:
 1102              	.L74:
 1103              		.loc 1 505 0 discriminator 4
 1104 0080 3860     		str	r0, [r7]
 1105              	.LBE135:
 502:..\..\..\liblc3\src/lc3.c ****         int32_t s = *xs >= 0 ? (int32_t)(lc3_ldexpf(*xs, 8) + 0.5f)
 1106              		.loc 1 502 0 is_stmt 1 discriminator 4
 1107 0082 013D     		subs	r5, r5, #1
 1108              	.LVL179:
 1109 0084 0436     		adds	r6, r6, #4
 1110              	.LVL180:
 1111 0086 4346     		mov	r3, r8
 1112 0088 9B00     		lsls	r3, r3, #2
 1113 008a FF18     		adds	r7, r7, r3
 1114              	.LVL181:
 1115              	.L68:
 502:..\..\..\liblc3\src/lc3.c ****         int32_t s = *xs >= 0 ? (int32_t)(lc3_ldexpf(*xs, 8) + 0.5f)
 1116              		.loc 1 502 0 is_stmt 0 discriminator 1
 1117 008c 002D     		cmp	r5, #0
 1118 008e CADC     		bgt	.L76
 506:..\..\..\liblc3\src/lc3.c ****     }
 507:..\..\..\liblc3\src/lc3.c **** }
 1119              		.loc 1 507 0 is_stmt 1
 1120              		@ sp needed
 1121              	.LVL182:
 1122              	.LVL183:
 1123              	.LVL184:
 1124              	.LVL185:
 1125 0090 04BC     		pop	{r2}
 1126 0092 9046     		mov	r8, r2
 1127 0094 F0BD     		pop	{r4, r5, r6, r7, pc}
 1128              	.L81:
 1129 0096 C046     		.align	2
 1130              	.L80:
 1131 0098 00000000 		.word	lc3_ns_2m5
 1132 009c FEFF7F00 		.word	8388606
 1133 00a0 000080FF 		.word	-8388608
 1134 00a4 FFFF7F00 		.word	8388607
ARM GAS  C:\Users\rdn\AppData\Local\Temp\cco7w9JJ.s 			page 32


 1135              		.cfi_endproc
 1136              	.LFE44:
 1137              		.size	store_s24, .-store_s24
 1138              		.section	.text.store_s24_3le,"ax",%progbits
 1139              		.align	2
 1140              		.code	16
 1141              		.thumb_func
 1142              		.type	store_s24_3le, %function
 1143              	store_s24_3le:
 1144              	.LFB45:
 508:..\..\..\liblc3\src/lc3.c **** 
 509:..\..\..\liblc3\src/lc3.c **** /**
 510:..\..\..\liblc3\src/lc3.c ****  * Output PCM Samples to signed 24 bits packed
 511:..\..\..\liblc3\src/lc3.c ****  * decoder         Decoder state
 512:..\..\..\liblc3\src/lc3.c ****  * pcm, stride     Output PCM samples, and count between two consecutives
 513:..\..\..\liblc3\src/lc3.c ****  */
 514:..\..\..\liblc3\src/lc3.c **** static void store_s24_3le(
 515:..\..\..\liblc3\src/lc3.c ****     struct lc3_decoder *decoder, void *_pcm, int stride)
 516:..\..\..\liblc3\src/lc3.c **** {
 1145              		.loc 1 516 0
 1146              		.cfi_startproc
 1147              		@ args = 0, pretend = 0, frame = 0
 1148              		@ frame_needed = 0, uses_anonymous_args = 0
 1149              	.LVL186:
 1150 0000 F0B5     		push	{r4, r5, r6, r7, lr}
 1151              		.cfi_def_cfa_offset 20
 1152              		.cfi_offset 4, -20
 1153              		.cfi_offset 5, -16
 1154              		.cfi_offset 6, -12
 1155              		.cfi_offset 7, -8
 1156              		.cfi_offset 14, -4
 1157 0002 4746     		mov	r7, r8
 1158 0004 80B4     		push	{r7}
 1159              		.cfi_def_cfa_offset 24
 1160              		.cfi_offset 8, -24
 1161 0006 0C00     		movs	r4, r1
 1162 0008 9046     		mov	r8, r2
 1163              	.LVL187:
 517:..\..\..\liblc3\src/lc3.c ****     uint8_t *pcm = _pcm;
 518:..\..\..\liblc3\src/lc3.c **** 
 519:..\..\..\liblc3\src/lc3.c ****     enum lc3_dt dt = decoder->dt;
 1164              		.loc 1 519 0
 1165 000a 0678     		ldrb	r6, [r0]
 1166              	.LVL188:
 520:..\..\..\liblc3\src/lc3.c ****     enum lc3_srate sr = decoder->sr_pcm;
 1167              		.loc 1 520 0
 1168 000c 8378     		ldrb	r3, [r0, #2]
 1169              	.LVL189:
 521:..\..\..\liblc3\src/lc3.c **** 
 522:..\..\..\liblc3\src/lc3.c ****     float *xs = decoder->x + decoder->xs_off;
 1170              		.loc 1 522 0
 1171 000e 0200     		movs	r2, r0
 1172              	.LVL190:
 1173 0010 B832     		adds	r2, r2, #184
 1174 0012 AC21     		movs	r1, #172
 1175              	.LVL191:
 1176 0014 4758     		ldr	r7, [r0, r1]
ARM GAS  C:\Users\rdn\AppData\Local\Temp\cco7w9JJ.s 			page 33


 1177 0016 BF00     		lsls	r7, r7, #2
 1178 0018 D719     		adds	r7, r2, r7
 1179              	.LVL192:
 1180              	.LBB140:
 1181              	.LBB141:
 1182              		.loc 2 47 0
 1183 001a 9B00     		lsls	r3, r3, #2
 1184              	.LVL193:
 1185 001c 204A     		ldr	r2, .L95
 1186 001e 9B58     		ldr	r3, [r3, r2]
 1187 0020 0136     		adds	r6, r6, #1
 1188              	.LVL194:
 1189 0022 5E43     		muls	r6, r3
 1190              	.LVL195:
 1191              	.LBE141:
 1192              	.LBE140:
 523:..\..\..\liblc3\src/lc3.c ****     int ns = lc3_ns(dt, sr);
 524:..\..\..\liblc3\src/lc3.c **** 
 525:..\..\..\liblc3\src/lc3.c ****     for ( ; ns > 0; ns--, xs++, pcm += 3*stride) {
 1193              		.loc 1 525 0
 1194 0024 37E0     		b	.L83
 1195              	.LVL196:
 1196              	.L91:
 1197              	.LBB142:
 526:..\..\..\liblc3\src/lc3.c ****         int32_t s = *xs >= 0 ? (int32_t)(lc3_ldexpf(*xs, 8) + 0.5f)
 1198              		.loc 1 526 0
 1199 0026 3D68     		ldr	r5, [r7]
 527:..\..\..\liblc3\src/lc3.c ****                              : (int32_t)(lc3_ldexpf(*xs, 8) - 0.5f);
 1200              		.loc 1 527 0
 1201 0028 0021     		movs	r1, #0
 1202 002a 281C     		adds	r0, r5, #0
 1203 002c FFF7FEFF 		bl	__aeabi_fcmpge
 1204              	.LVL197:
 1205 0030 0028     		cmp	r0, #0
 1206 0032 0ED0     		beq	.L94
 1207              	.LVL198:
 1208              	.LBB143:
 1209              	.LBB144:
  45:..\..\..\liblc3\src/fastmath.h **** 
 1210              		.loc 3 45 0 discriminator 1
 1211 0034 2800     		movs	r0, r5
 1212              	.LVL199:
  47:..\..\..\liblc3\src/fastmath.h ****         x.s += exp << LC3_IEEE754_EXP_SHL;
 1213              		.loc 3 47 0 discriminator 1
 1214 0036 FF23     		movs	r3, #255
 1215 0038 DB05     		lsls	r3, r3, #23
 1216 003a 2B42     		tst	r3, r5
 1217 003c 02D0     		beq	.L86
 1218              		.loc 3 48 0
 1219 003e 8023     		movs	r3, #128
 1220 0040 DB04     		lsls	r3, r3, #19
 1221 0042 E818     		adds	r0, r5, r3
 1222              	.L86:
 1223              	.LVL200:
 1224              	.LBE144:
 1225              	.LBE143:
 526:..\..\..\liblc3\src/lc3.c ****                              : (int32_t)(lc3_ldexpf(*xs, 8) - 0.5f);
ARM GAS  C:\Users\rdn\AppData\Local\Temp\cco7w9JJ.s 			page 34


 1226              		.loc 1 526 0
 1227 0044 FC21     		movs	r1, #252
 1228 0046 8905     		lsls	r1, r1, #22
 1229 0048 FFF7FEFF 		bl	__aeabi_fadd
 1230              	.LVL201:
 1231              		.loc 1 527 0
 1232 004c FFF7FEFF 		bl	__aeabi_f2iz
 1233              	.LVL202:
 1234 0050 0DE0     		b	.L87
 1235              	.L94:
 1236              	.LVL203:
 1237              	.LBB145:
 1238              	.LBB146:
  45:..\..\..\liblc3\src/fastmath.h **** 
 1239              		.loc 3 45 0 discriminator 2
 1240 0052 2800     		movs	r0, r5
 1241              	.LVL204:
  47:..\..\..\liblc3\src/fastmath.h ****         x.s += exp << LC3_IEEE754_EXP_SHL;
 1242              		.loc 3 47 0 discriminator 2
 1243 0054 FF23     		movs	r3, #255
 1244 0056 DB05     		lsls	r3, r3, #23
 1245 0058 2B42     		tst	r3, r5
 1246 005a 02D0     		beq	.L88
 1247              		.loc 3 48 0
 1248 005c 8023     		movs	r3, #128
 1249 005e DB04     		lsls	r3, r3, #19
 1250 0060 E818     		adds	r0, r5, r3
 1251              	.L88:
 1252              	.LVL205:
 1253              	.LBE146:
 1254              	.LBE145:
 1255              		.loc 1 527 0
 1256 0062 FC21     		movs	r1, #252
 1257 0064 8905     		lsls	r1, r1, #22
 1258 0066 FFF7FEFF 		bl	__aeabi_fsub
 1259              	.LVL206:
 1260 006a FFF7FEFF 		bl	__aeabi_f2iz
 1261              	.LVL207:
 1262              	.L87:
 528:..\..\..\liblc3\src/lc3.c **** 
 529:..\..\..\liblc3\src/lc3.c ****         s = LC3_SAT24(s);
 1263              		.loc 1 529 0
 1264 006e 0D4B     		ldr	r3, .L95+4
 1265 0070 9842     		cmp	r0, r3
 1266 0072 04DC     		bgt	.L92
 1267              		.loc 1 529 0 is_stmt 0 discriminator 1
 1268 0074 0C4B     		ldr	r3, .L95+8
 1269 0076 9842     		cmp	r0, r3
 1270 0078 02DA     		bge	.L89
 1271 007a 1800     		movs	r0, r3
 1272              	.LVL208:
 1273 007c 00E0     		b	.L89
 1274              	.LVL209:
 1275              	.L92:
 1276              		.loc 1 529 0
 1277 007e 0B48     		ldr	r0, .L95+12
 1278              	.LVL210:
ARM GAS  C:\Users\rdn\AppData\Local\Temp\cco7w9JJ.s 			page 35


 1279              	.L89:
 530:..\..\..\liblc3\src/lc3.c ****         pcm[0] = (s >>  0) & 0xff;
 1280              		.loc 1 530 0 is_stmt 1 discriminator 4
 1281 0080 2070     		strb	r0, [r4]
 531:..\..\..\liblc3\src/lc3.c ****         pcm[1] = (s >>  8) & 0xff;
 1282              		.loc 1 531 0 discriminator 4
 1283 0082 0312     		asrs	r3, r0, #8
 1284 0084 6370     		strb	r3, [r4, #1]
 532:..\..\..\liblc3\src/lc3.c ****         pcm[2] = (s >> 16) & 0xff;
 1285              		.loc 1 532 0 discriminator 4
 1286 0086 0014     		asrs	r0, r0, #16
 1287              	.LVL211:
 1288 0088 A070     		strb	r0, [r4, #2]
 1289              	.LBE142:
 525:..\..\..\liblc3\src/lc3.c ****         int32_t s = *xs >= 0 ? (int32_t)(lc3_ldexpf(*xs, 8) + 0.5f)
 1290              		.loc 1 525 0 discriminator 4
 1291 008a 013E     		subs	r6, r6, #1
 1292              	.LVL212:
 1293 008c 0437     		adds	r7, r7, #4
 1294              	.LVL213:
 1295 008e 4346     		mov	r3, r8
 1296 0090 5B00     		lsls	r3, r3, #1
 1297 0092 4344     		add	r3, r3, r8
 1298 0094 E418     		adds	r4, r4, r3
 1299              	.LVL214:
 1300              	.L83:
 525:..\..\..\liblc3\src/lc3.c ****         int32_t s = *xs >= 0 ? (int32_t)(lc3_ldexpf(*xs, 8) + 0.5f)
 1301              		.loc 1 525 0 is_stmt 0 discriminator 1
 1302 0096 002E     		cmp	r6, #0
 1303 0098 C5DC     		bgt	.L91
 533:..\..\..\liblc3\src/lc3.c ****     }
 534:..\..\..\liblc3\src/lc3.c **** }
 1304              		.loc 1 534 0 is_stmt 1
 1305              		@ sp needed
 1306              	.LVL215:
 1307              	.LVL216:
 1308              	.LVL217:
 1309              	.LVL218:
 1310 009a 04BC     		pop	{r2}
 1311 009c 9046     		mov	r8, r2
 1312 009e F0BD     		pop	{r4, r5, r6, r7, pc}
 1313              	.L96:
 1314              		.align	2
 1315              	.L95:
 1316 00a0 00000000 		.word	lc3_ns_2m5
 1317 00a4 FEFF7F00 		.word	8388606
 1318 00a8 000080FF 		.word	-8388608
 1319 00ac FFFF7F00 		.word	8388607
 1320              		.cfi_endproc
 1321              	.LFE45:
 1322              		.size	store_s24_3le, .-store_s24_3le
 1323              		.section	.text.complete,"ax",%progbits
 1324              		.align	2
 1325              		.code	16
 1326              		.thumb_func
 1327              		.type	complete, %function
 1328              	complete:
ARM GAS  C:\Users\rdn\AppData\Local\Temp\cco7w9JJ.s 			page 36


 1329              	.LFB49:
 535:..\..\..\liblc3\src/lc3.c **** 
 536:..\..\..\liblc3\src/lc3.c **** /**
 537:..\..\..\liblc3\src/lc3.c ****  * Output PCM Samples to float 32 bits
 538:..\..\..\liblc3\src/lc3.c ****  * decoder         Decoder state
 539:..\..\..\liblc3\src/lc3.c ****  * pcm, stride     Output PCM samples, and count between two consecutives
 540:..\..\..\liblc3\src/lc3.c ****  */
 541:..\..\..\liblc3\src/lc3.c **** static void store_float(
 542:..\..\..\liblc3\src/lc3.c ****     struct lc3_decoder *decoder, void *_pcm, int stride)
 543:..\..\..\liblc3\src/lc3.c **** {
 544:..\..\..\liblc3\src/lc3.c ****     float *pcm = _pcm;
 545:..\..\..\liblc3\src/lc3.c **** 
 546:..\..\..\liblc3\src/lc3.c ****     enum lc3_dt dt = decoder->dt;
 547:..\..\..\liblc3\src/lc3.c ****     enum lc3_srate sr = decoder->sr_pcm;
 548:..\..\..\liblc3\src/lc3.c **** 
 549:..\..\..\liblc3\src/lc3.c ****     float *xs = decoder->x + decoder->xs_off;
 550:..\..\..\liblc3\src/lc3.c ****     int ns = lc3_ns(dt, sr);
 551:..\..\..\liblc3\src/lc3.c **** 
 552:..\..\..\liblc3\src/lc3.c ****     for ( ; ns > 0; ns--, xs++, pcm += stride) {
 553:..\..\..\liblc3\src/lc3.c ****         float s = lc3_ldexpf(*xs, -15);
 554:..\..\..\liblc3\src/lc3.c ****         *pcm = fminf(fmaxf(s, -1.f), 1.f);
 555:..\..\..\liblc3\src/lc3.c ****     }
 556:..\..\..\liblc3\src/lc3.c **** }
 557:..\..\..\liblc3\src/lc3.c **** 
 558:..\..\..\liblc3\src/lc3.c **** /**
 559:..\..\..\liblc3\src/lc3.c ****  * Decode bitstream
 560:..\..\..\liblc3\src/lc3.c ****  * decoder         Decoder state
 561:..\..\..\liblc3\src/lc3.c ****  * data, nbytes    Input bitstream buffer
 562:..\..\..\liblc3\src/lc3.c ****  * side            Return the side data
 563:..\..\..\liblc3\src/lc3.c ****  * return          0: Ok  < 0: Bitsream error detected
 564:..\..\..\liblc3\src/lc3.c ****  */
 565:..\..\..\liblc3\src/lc3.c **** static int decode(struct lc3_decoder *decoder,
 566:..\..\..\liblc3\src/lc3.c ****     const void *data, int nbytes, struct side_data *side)
 567:..\..\..\liblc3\src/lc3.c **** {
 568:..\..\..\liblc3\src/lc3.c ****     enum lc3_dt dt = decoder->dt;
 569:..\..\..\liblc3\src/lc3.c ****     enum lc3_srate sr = decoder->sr;
 570:..\..\..\liblc3\src/lc3.c **** 
 571:..\..\..\liblc3\src/lc3.c ****     float *xf = decoder->x + decoder->xs_off;
 572:..\..\..\liblc3\src/lc3.c ****     int ns = lc3_ns(dt, sr);
 573:..\..\..\liblc3\src/lc3.c ****     int ne = lc3_ne(dt, sr);
 574:..\..\..\liblc3\src/lc3.c **** 
 575:..\..\..\liblc3\src/lc3.c ****     lc3_bits_t bits;
 576:..\..\..\liblc3\src/lc3.c ****     int ret = 0;
 577:..\..\..\liblc3\src/lc3.c **** 
 578:..\..\..\liblc3\src/lc3.c ****     lc3_setup_bits(&bits, LC3_BITS_MODE_READ, (void *)data, nbytes);
 579:..\..\..\liblc3\src/lc3.c **** 
 580:..\..\..\liblc3\src/lc3.c ****     if ((ret = lc3_bwdet_get_bw(&bits, sr, &side->bw)) < 0)
 581:..\..\..\liblc3\src/lc3.c ****         return ret;
 582:..\..\..\liblc3\src/lc3.c **** 
 583:..\..\..\liblc3\src/lc3.c ****     if ((ret = lc3_spec_get_side(&bits, dt, sr, &side->spec)) < 0)
 584:..\..\..\liblc3\src/lc3.c ****         return ret;
 585:..\..\..\liblc3\src/lc3.c **** 
 586:..\..\..\liblc3\src/lc3.c ****     if ((ret = lc3_tns_get_data(&bits, dt, side->bw, nbytes, &side->tns)) < 0)
 587:..\..\..\liblc3\src/lc3.c ****         return ret;
 588:..\..\..\liblc3\src/lc3.c **** 
 589:..\..\..\liblc3\src/lc3.c ****     side->pitch_present = lc3_get_bit(&bits);
 590:..\..\..\liblc3\src/lc3.c **** 
ARM GAS  C:\Users\rdn\AppData\Local\Temp\cco7w9JJ.s 			page 37


 591:..\..\..\liblc3\src/lc3.c ****     if ((ret = lc3_sns_get_data(&bits, &side->sns)) < 0)
 592:..\..\..\liblc3\src/lc3.c ****         return ret;
 593:..\..\..\liblc3\src/lc3.c **** 
 594:..\..\..\liblc3\src/lc3.c ****     if (side->pitch_present)
 595:..\..\..\liblc3\src/lc3.c ****       lc3_ltpf_get_data(&bits, &side->ltpf);
 596:..\..\..\liblc3\src/lc3.c **** 
 597:..\..\..\liblc3\src/lc3.c ****     if ((ret = lc3_spec_decode(&bits, dt, sr,
 598:..\..\..\liblc3\src/lc3.c ****                     side->bw, nbytes, &side->spec, xf)) < 0)
 599:..\..\..\liblc3\src/lc3.c ****         return ret;
 600:..\..\..\liblc3\src/lc3.c **** 
 601:..\..\..\liblc3\src/lc3.c ****     memset(xf + ne, 0, (ns - ne) * sizeof(float));
 602:..\..\..\liblc3\src/lc3.c **** 
 603:..\..\..\liblc3\src/lc3.c ****     return lc3_check_bits(&bits);
 604:..\..\..\liblc3\src/lc3.c **** }
 605:..\..\..\liblc3\src/lc3.c **** 
 606:..\..\..\liblc3\src/lc3.c **** /**
 607:..\..\..\liblc3\src/lc3.c ****  * Frame synthesis
 608:..\..\..\liblc3\src/lc3.c ****  * decoder         Decoder state
 609:..\..\..\liblc3\src/lc3.c ****  * side            Frame data, NULL performs PLC
 610:..\..\..\liblc3\src/lc3.c ****  * nbytes          Size in bytes of the frame
 611:..\..\..\liblc3\src/lc3.c ****  */
 612:..\..\..\liblc3\src/lc3.c **** static void synthesize(struct lc3_decoder *decoder,
 613:..\..\..\liblc3\src/lc3.c ****     const struct side_data *side, int nbytes)
 614:..\..\..\liblc3\src/lc3.c **** {
 615:..\..\..\liblc3\src/lc3.c ****     enum lc3_dt dt = decoder->dt;
 616:..\..\..\liblc3\src/lc3.c ****     enum lc3_srate sr = decoder->sr;
 617:..\..\..\liblc3\src/lc3.c ****     enum lc3_srate sr_pcm = decoder->sr_pcm;
 618:..\..\..\liblc3\src/lc3.c **** 
 619:..\..\..\liblc3\src/lc3.c ****     float *xf = decoder->x + decoder->xs_off;
 620:..\..\..\liblc3\src/lc3.c ****     int ns = lc3_ns(dt, sr_pcm);
 621:..\..\..\liblc3\src/lc3.c ****     int ne = lc3_ne(dt, sr);
 622:..\..\..\liblc3\src/lc3.c **** 
 623:..\..\..\liblc3\src/lc3.c ****     float *xg = decoder->x + decoder->xg_off;
 624:..\..\..\liblc3\src/lc3.c ****     float *xs = xf;
 625:..\..\..\liblc3\src/lc3.c **** 
 626:..\..\..\liblc3\src/lc3.c ****     float *xd = decoder->x + decoder->xd_off;
 627:..\..\..\liblc3\src/lc3.c ****     float *xh = decoder->x + decoder->xh_off;
 628:..\..\..\liblc3\src/lc3.c **** 
 629:..\..\..\liblc3\src/lc3.c ****     if (side) {
 630:..\..\..\liblc3\src/lc3.c ****         enum lc3_bandwidth bw = side->bw;
 631:..\..\..\liblc3\src/lc3.c **** 
 632:..\..\..\liblc3\src/lc3.c ****         lc3_plc_suspend(&decoder->plc);
 633:..\..\..\liblc3\src/lc3.c **** 
 634:..\..\..\liblc3\src/lc3.c ****         lc3_tns_synthesize(dt, bw, &side->tns, xf);
 635:..\..\..\liblc3\src/lc3.c **** 
 636:..\..\..\liblc3\src/lc3.c ****         lc3_sns_synthesize(dt, sr, &side->sns, xf, xg);
 637:..\..\..\liblc3\src/lc3.c **** 
 638:..\..\..\liblc3\src/lc3.c ****         lc3_mdct_inverse(dt, sr_pcm, sr, xg, xd, xs);
 639:..\..\..\liblc3\src/lc3.c **** 
 640:..\..\..\liblc3\src/lc3.c ****     } else {
 641:..\..\..\liblc3\src/lc3.c ****         lc3_plc_synthesize(dt, sr, &decoder->plc, xg, xf);
 642:..\..\..\liblc3\src/lc3.c **** 
 643:..\..\..\liblc3\src/lc3.c ****         memset(xf + ne, 0, (ns - ne) * sizeof(float));
 644:..\..\..\liblc3\src/lc3.c **** 
 645:..\..\..\liblc3\src/lc3.c ****         lc3_mdct_inverse(dt, sr_pcm, sr, xf, xd, xs);
 646:..\..\..\liblc3\src/lc3.c ****     }
 647:..\..\..\liblc3\src/lc3.c **** 
ARM GAS  C:\Users\rdn\AppData\Local\Temp\cco7w9JJ.s 			page 38


 648:..\..\..\liblc3\src/lc3.c ****     if (!lc3_hr(sr))
 649:..\..\..\liblc3\src/lc3.c ****         lc3_ltpf_synthesize(dt, sr_pcm, nbytes, &decoder->ltpf,
 650:..\..\..\liblc3\src/lc3.c ****             side && side->pitch_present ? &side->ltpf : NULL, xh, xs);
 651:..\..\..\liblc3\src/lc3.c **** }
 652:..\..\..\liblc3\src/lc3.c **** 
 653:..\..\..\liblc3\src/lc3.c **** /**
 654:..\..\..\liblc3\src/lc3.c ****  * Update decoder state on decoding completion
 655:..\..\..\liblc3\src/lc3.c ****  * decoder         Decoder state
 656:..\..\..\liblc3\src/lc3.c ****  */
 657:..\..\..\liblc3\src/lc3.c **** static void complete(struct lc3_decoder *decoder)
 658:..\..\..\liblc3\src/lc3.c **** {
 1330              		.loc 1 658 0
 1331              		.cfi_startproc
 1332              		@ args = 0, pretend = 0, frame = 0
 1333              		@ frame_needed = 0, uses_anonymous_args = 0
 1334              	.LVL219:
 1335 0000 30B5     		push	{r4, r5, lr}
 1336              		.cfi_def_cfa_offset 12
 1337              		.cfi_offset 4, -12
 1338              		.cfi_offset 5, -8
 1339              		.cfi_offset 14, -4
 659:..\..\..\liblc3\src/lc3.c ****     enum lc3_dt dt = decoder->dt;
 1340              		.loc 1 659 0
 1341 0002 0378     		ldrb	r3, [r0]
 1342              	.LVL220:
 660:..\..\..\liblc3\src/lc3.c ****     enum lc3_srate sr_pcm = decoder->sr_pcm;
 1343              		.loc 1 660 0
 1344 0004 8278     		ldrb	r2, [r0, #2]
 1345              	.LVL221:
 1346              	.LBB147:
 1347              	.LBB148:
  48:..\..\..\liblc3\src/tables.h **** }
  49:..\..\..\liblc3\src/tables.h **** 
  50:..\..\..\liblc3\src/tables.h **** static inline int lc3_ne(enum lc3_dt dt, enum lc3_srate sr) {
  51:..\..\..\liblc3\src/tables.h ****     return lc3_ne_2m5[sr] * (1 + dt);
  52:..\..\..\liblc3\src/tables.h **** }
  53:..\..\..\liblc3\src/tables.h **** 
  54:..\..\..\liblc3\src/tables.h **** static inline int lc3_nd(enum lc3_dt dt, enum lc3_srate sr) {
  55:..\..\..\liblc3\src/tables.h ****     return ( lc3_ns(dt, sr) +
  56:..\..\..\liblc3\src/tables.h ****         (dt == LC3_DT_7M5 ? lc3_ns_4m[sr] : lc3_ns_2m5[sr]) ) >> 1;
  57:..\..\..\liblc3\src/tables.h **** }
  58:..\..\..\liblc3\src/tables.h **** 
  59:..\..\..\liblc3\src/tables.h **** static inline int lc3_nh(enum lc3_dt dt, enum lc3_srate sr) {
  60:..\..\..\liblc3\src/tables.h ****     return sr > LC3_SRATE_48K_HR ? 0 :
 1348              		.loc 2 60 0
 1349 0006 052A     		cmp	r2, #5
 1350 0008 09D8     		bhi	.L101
  61:..\..\..\liblc3\src/tables.h ****         (8 + (dt == LC3_DT_7M5)) * lc3_ns_2m5[sr];
 1351              		.loc 2 61 0
 1352 000a 022B     		cmp	r3, #2
 1353 000c 01D1     		bne	.L102
 1354 000e 0925     		movs	r5, #9
 1355 0010 00E0     		b	.L99
 1356              	.L102:
 1357 0012 0825     		movs	r5, #8
 1358              	.L99:
 1359 0014 9400     		lsls	r4, r2, #2
ARM GAS  C:\Users\rdn\AppData\Local\Temp\cco7w9JJ.s 			page 39


 1360 0016 0A49     		ldr	r1, .L103
 1361 0018 6158     		ldr	r1, [r4, r1]
  60:..\..\..\liblc3\src/tables.h ****         (8 + (dt == LC3_DT_7M5)) * lc3_ns_2m5[sr];
 1362              		.loc 2 60 0
 1363 001a 6943     		muls	r1, r5
 1364 001c 00E0     		b	.L98
 1365              	.L101:
 1366 001e 0021     		movs	r1, #0
 1367              	.L98:
 1368              	.LVL222:
 1369              	.LBE148:
 1370              	.LBE147:
 1371              	.LBB149:
 1372              	.LBB150:
  47:..\..\..\liblc3\src/tables.h **** }
 1373              		.loc 2 47 0
 1374 0020 9200     		lsls	r2, r2, #2
 1375              	.LVL223:
 1376 0022 074C     		ldr	r4, .L103
 1377 0024 1259     		ldr	r2, [r2, r4]
 1378 0026 0133     		adds	r3, r3, #1
 1379              	.LVL224:
 1380 0028 5343     		muls	r3, r2
 1381              	.LVL225:
 1382              	.LBE150:
 1383              	.LBE149:
 661:..\..\..\liblc3\src/lc3.c ****     int nh = lc3_nh(dt, sr_pcm);
 662:..\..\..\liblc3\src/lc3.c ****     int ns = lc3_ns(dt, sr_pcm);
 663:..\..\..\liblc3\src/lc3.c **** 
 664:..\..\..\liblc3\src/lc3.c ****     decoder->xs_off = decoder->xs_off - decoder->xh_off < nh ?
 1384              		.loc 1 664 0
 1385 002a AC22     		movs	r2, #172
 1386 002c 8458     		ldr	r4, [r0, r2]
 1387 002e 043A     		subs	r2, r2, #4
 1388 0030 8258     		ldr	r2, [r0, r2]
 1389 0032 A51A     		subs	r5, r4, r2
 665:..\..\..\liblc3\src/lc3.c ****         decoder->xs_off + ns : decoder->xh_off;
 1390              		.loc 1 665 0
 1391 0034 8D42     		cmp	r5, r1
 1392 0036 00DA     		bge	.L100
 1393              		.loc 1 665 0 is_stmt 0 discriminator 1
 1394 0038 E218     		adds	r2, r4, r3
 1395              	.L100:
 664:..\..\..\liblc3\src/lc3.c ****         decoder->xs_off + ns : decoder->xh_off;
 1396              		.loc 1 664 0 is_stmt 1
 1397 003a AC23     		movs	r3, #172
 1398 003c C250     		str	r2, [r0, r3]
 1399              	.LVL226:
 666:..\..\..\liblc3\src/lc3.c **** }
 1400              		.loc 1 666 0
 1401              		@ sp needed
 1402 003e 30BD     		pop	{r4, r5, pc}
 1403              	.L104:
 1404              		.align	2
 1405              	.L103:
 1406 0040 00000000 		.word	lc3_ns_2m5
 1407              		.cfi_endproc
ARM GAS  C:\Users\rdn\AppData\Local\Temp\cco7w9JJ.s 			page 40


 1408              	.LFE49:
 1409              		.size	complete, .-complete
 1410              		.section	.text.analyze,"ax",%progbits
 1411              		.align	2
 1412              		.code	16
 1413              		.thumb_func
 1414              		.type	analyze, %function
 1415              	analyze:
 1416              	.LFB36:
 287:..\..\..\liblc3\src/lc3.c ****     enum lc3_dt dt = encoder->dt;
 1417              		.loc 1 287 0
 1418              		.cfi_startproc
 1419              		@ args = 0, pretend = 0, frame = 280
 1420              		@ frame_needed = 0, uses_anonymous_args = 0
 1421              	.LVL227:
 1422 0000 F0B5     		push	{r4, r5, r6, r7, lr}
 1423              		.cfi_def_cfa_offset 20
 1424              		.cfi_offset 4, -20
 1425              		.cfi_offset 5, -16
 1426              		.cfi_offset 6, -12
 1427              		.cfi_offset 7, -8
 1428              		.cfi_offset 14, -4
 1429 0002 5F46     		mov	r7, fp
 1430 0004 5646     		mov	r6, r10
 1431 0006 4D46     		mov	r5, r9
 1432 0008 4446     		mov	r4, r8
 1433 000a F0B4     		push	{r4, r5, r6, r7}
 1434              		.cfi_def_cfa_offset 36
 1435              		.cfi_offset 8, -36
 1436              		.cfi_offset 9, -32
 1437              		.cfi_offset 10, -28
 1438              		.cfi_offset 11, -24
 1439 000c CBB0     		sub	sp, sp, #300
 1440              		.cfi_def_cfa_offset 336
 1441 000e 0400     		movs	r4, r0
 1442 0010 0891     		str	r1, [sp, #32]
 1443 0012 1500     		movs	r5, r2
 288:..\..\..\liblc3\src/lc3.c ****     enum lc3_srate sr = encoder->sr;
 1444              		.loc 1 288 0
 1445 0014 0378     		ldrb	r3, [r0]
 1446 0016 1800     		movs	r0, r3
 1447              	.LVL228:
 289:..\..\..\liblc3\src/lc3.c ****     enum lc3_srate sr_pcm = encoder->sr_pcm;
 1448              		.loc 1 289 0
 1449 0018 6378     		ldrb	r3, [r4, #1]
 1450 001a 0693     		str	r3, [sp, #24]
 1451              	.LVL229:
 290:..\..\..\liblc3\src/lc3.c **** 
 1452              		.loc 1 290 0
 1453 001c A378     		ldrb	r3, [r4, #2]
 1454 001e 0793     		str	r3, [sp, #28]
 1455              	.LVL230:
 292:..\..\..\liblc3\src/lc3.c ****     float *xs = encoder->x + encoder->xs_off;
 1456              		.loc 1 292 0
 1457 0020 414E     		ldr	r6, .L107
 1458 0022 A219     		adds	r2, r4, r6
 1459              	.LVL231:
ARM GAS  C:\Users\rdn\AppData\Local\Temp\cco7w9JJ.s 			page 41


 1460 0024 9423     		movs	r3, #148
 1461 0026 DB00     		lsls	r3, r3, #3
 1462 0028 E158     		ldr	r1, [r4, r3]
 1463              	.LVL232:
 1464 002a 4900     		lsls	r1, r1, #1
 1465 002c 5718     		adds	r7, r2, r1
 1466              	.LVL233:
 293:..\..\..\liblc3\src/lc3.c ****     int ns = lc3_ns(dt, sr_pcm);
 1467              		.loc 1 293 0
 1468 002e 3F4B     		ldr	r3, .L107+4
 1469 0030 E358     		ldr	r3, [r4, r3]
 1470 0032 9B00     		lsls	r3, r3, #2
 1471 0034 D618     		adds	r6, r2, r3
 1472              	.LVL234:
 1473              	.LBB151:
 1474              	.LBB152:
  47:..\..\..\liblc3\src/tables.h **** }
 1475              		.loc 2 47 0
 1476 0036 079B     		ldr	r3, [sp, #28]
 1477 0038 9900     		lsls	r1, r3, #2
 1478 003a 3D4B     		ldr	r3, .L107+8
 1479 003c CB58     		ldr	r3, [r1, r3]
 1480 003e 411C     		adds	r1, r0, #1
 1481 0040 5943     		muls	r1, r3
 1482 0042 8A46     		mov	r10, r1
 1483              	.LVL235:
 1484              	.LBE152:
 1485              	.LBE151:
 1486              	.LBB153:
 1487              	.LBB154:
  62:..\..\..\liblc3\src/tables.h **** }
  63:..\..\..\liblc3\src/tables.h **** 
  64:..\..\..\liblc3\src/tables.h **** static inline int lc3_nt(enum lc3_srate sr) {
  65:..\..\..\liblc3\src/tables.h ****     return lc3_ns_2m5[sr] >> 1;
 1488              		.loc 2 65 0
 1489 0044 5910     		asrs	r1, r3, #1
 1490 0046 8B46     		mov	fp, r1
 1491              	.LVL236:
 1492              	.LBE154:
 1493              	.LBE153:
 297:..\..\..\liblc3\src/lc3.c ****     float *xf = xs;
 1494              		.loc 1 297 0
 1495 0048 9523     		movs	r3, #149
 1496 004a DB00     		lsls	r3, r3, #3
 1497 004c E358     		ldr	r3, [r4, r3]
 1498 004e 9B00     		lsls	r3, r3, #2
 1499 0050 9046     		mov	r8, r2
 1500 0052 9844     		add	r8, r8, r3
 1501              	.LVL237:
 302:..\..\..\liblc3\src/lc3.c **** 
 1502              		.loc 1 302 0
 1503 0054 231D     		adds	r3, r4, #4
 1504 0056 0097     		str	r7, [sp]
 1505 0058 089A     		ldr	r2, [sp, #32]
 1506 005a 0799     		ldr	r1, [sp, #28]
 1507 005c 0590     		str	r0, [sp, #20]
 1508 005e FFF7FEFF 		bl	lc3_attdet_run
ARM GAS  C:\Users\rdn\AppData\Local\Temp\cco7w9JJ.s 			page 42


 1509              	.LVL238:
 1510 0062 0990     		str	r0, [sp, #36]
 1511              	.LVL239:
 305:..\..\..\liblc3\src/lc3.c **** 
 1512              		.loc 1 305 0
 1513 0064 2A1D     		adds	r2, r5, #4
 1514 0066 9146     		mov	r9, r2
 1515 0068 2200     		movs	r2, r4
 1516 006a 1032     		adds	r2, r2, #16
 1517 006c 4946     		mov	r1, r9
 1518 006e 0091     		str	r1, [sp]
 1519 0070 3B00     		movs	r3, r7
 1520 0072 0799     		ldr	r1, [sp, #28]
 1521 0074 0598     		ldr	r0, [sp, #20]
 1522 0076 FFF7FEFF 		bl	lc3_ltpf_analyse
 1523              	.LVL240:
 304:..\..\..\liblc3\src/lc3.c ****         lc3_ltpf_analyse(dt, sr_pcm, &encoder->ltpf, xt, &side->ltpf);
 1524              		.loc 1 304 0
 1525 007a 6870     		strb	r0, [r5, #1]
 307:..\..\..\liblc3\src/lc3.c **** 
 1526              		.loc 1 307 0
 1527 007c 5A46     		mov	r2, fp
 1528 007e 5200     		lsls	r2, r2, #1
 1529 0080 B81A     		subs	r0, r7, r2
 1530 0082 5146     		mov	r1, r10
 1531 0084 5B46     		mov	r3, fp
 1532 0086 C91A     		subs	r1, r1, r3
 1533 0088 4900     		lsls	r1, r1, #1
 1534 008a 7918     		adds	r1, r7, r1
 1535 008c FFF7FEFF 		bl	memmove
 1536              	.LVL241:
 313:..\..\..\liblc3\src/lc3.c **** 
 1537              		.loc 1 313 0
 1538 0090 0196     		str	r6, [sp, #4]
 1539 0092 4246     		mov	r2, r8
 1540 0094 0092     		str	r2, [sp]
 1541 0096 3300     		movs	r3, r6
 1542 0098 069A     		ldr	r2, [sp, #24]
 1543 009a 0799     		ldr	r1, [sp, #28]
 1544 009c 059F     		ldr	r7, [sp, #20]
 1545              	.LVL242:
 1546 009e 3800     		movs	r0, r7
 1547 00a0 FFF7FEFF 		bl	lc3_mdct_forward
 1548              	.LVL243:
 315:..\..\..\liblc3\src/lc3.c ****     if (nn_flag)
 1549              		.loc 1 315 0
 1550 00a4 0AAB     		add	r3, sp, #40
 1551 00a6 3200     		movs	r2, r6
 1552 00a8 0699     		ldr	r1, [sp, #24]
 1553 00aa 3800     		movs	r0, r7
 1554 00ac FFF7FEFF 		bl	lc3_energy_compute
 1555              	.LVL244:
 1556 00b0 0790     		str	r0, [sp, #28]
 1557              	.LVL245:
 316:..\..\..\liblc3\src/lc3.c ****         lc3_ltpf_disable(&side->ltpf);
 1558              		.loc 1 316 0
 1559 00b2 0028     		cmp	r0, #0
ARM GAS  C:\Users\rdn\AppData\Local\Temp\cco7w9JJ.s 			page 43


 1560 00b4 02D0     		beq	.L106
 317:..\..\..\liblc3\src/lc3.c **** 
 1561              		.loc 1 317 0
 1562 00b6 4846     		mov	r0, r9
 1563              	.LVL246:
 1564 00b8 FFF7FEFF 		bl	lc3_ltpf_disable
 1565              	.LVL247:
 1566              	.L106:
 319:..\..\..\liblc3\src/lc3.c **** 
 1567              		.loc 1 319 0
 1568 00bc 0AAA     		add	r2, sp, #40
 1569 00be 0699     		ldr	r1, [sp, #24]
 1570 00c0 059F     		ldr	r7, [sp, #20]
 1571 00c2 3800     		movs	r0, r7
 1572 00c4 FFF7FEFF 		bl	lc3_bwdet_run
 1573              	.LVL248:
 1574 00c8 2870     		strb	r0, [r5]
 321:..\..\..\liblc3\src/lc3.c **** 
 1575              		.loc 1 321 0
 1576 00ca 0396     		str	r6, [sp, #12]
 1577 00cc 0296     		str	r6, [sp, #8]
 1578 00ce 2B00     		movs	r3, r5
 1579 00d0 0C33     		adds	r3, r3, #12
 1580 00d2 0193     		str	r3, [sp, #4]
 1581 00d4 099B     		ldr	r3, [sp, #36]
 1582 00d6 0093     		str	r3, [sp]
 1583 00d8 0AAB     		add	r3, sp, #40
 1584 00da 089A     		ldr	r2, [sp, #32]
 1585 00dc 0699     		ldr	r1, [sp, #24]
 1586 00de 0597     		str	r7, [sp, #20]
 1587              	.LVL249:
 1588 00e0 3800     		movs	r0, r7
 1589 00e2 FFF7FEFF 		bl	lc3_sns_analyze
 1590              	.LVL250:
 323:..\..\..\liblc3\src/lc3.c **** 
 1591              		.loc 1 323 0
 1592 00e6 2B00     		movs	r3, r5
 1593 00e8 2833     		adds	r3, r3, #40
 1594 00ea 1F00     		movs	r7, r3
 1595 00ec 2978     		ldrb	r1, [r5]
 1596 00ee 0196     		str	r6, [sp, #4]
 1597 00f0 0093     		str	r3, [sp]
 1598 00f2 089B     		ldr	r3, [sp, #32]
 1599 00f4 079A     		ldr	r2, [sp, #28]
 1600 00f6 0598     		ldr	r0, [sp, #20]
 1601 00f8 FFF7FEFF 		bl	lc3_tns_analyze
 1602              	.LVL251:
 325:..\..\..\liblc3\src/lc3.c ****         nbytes, side->pitch_present, &side->tns,
 1603              		.loc 1 325 0
 1604 00fc 6B78     		ldrb	r3, [r5, #1]
 1605 00fe 7835     		adds	r5, r5, #120
 1606              	.LVL252:
 1607 0100 0395     		str	r5, [sp, #12]
 1608 0102 0296     		str	r6, [sp, #8]
 1609 0104 9325     		movs	r5, #147
 1610              	.LVL253:
 1611 0106 ED00     		lsls	r5, r5, #3
ARM GAS  C:\Users\rdn\AppData\Local\Temp\cco7w9JJ.s 			page 44


 1612 0108 AC46     		mov	ip, r5
 1613 010a 6444     		add	r4, r4, ip
 1614              	.LVL254:
 1615 010c 0194     		str	r4, [sp, #4]
 1616 010e 0097     		str	r7, [sp]
 1617 0110 089A     		ldr	r2, [sp, #32]
 1618 0112 0699     		ldr	r1, [sp, #24]
 1619 0114 0598     		ldr	r0, [sp, #20]
 1620 0116 FFF7FEFF 		bl	lc3_spec_analyze
 1621              	.LVL255:
 328:..\..\..\liblc3\src/lc3.c **** 
 1622              		.loc 1 328 0
 1623 011a 4BB0     		add	sp, sp, #300
 1624              		@ sp needed
 1625              	.LVL256:
 1626              	.LVL257:
 1627              	.LVL258:
 1628              	.LVL259:
 1629              	.LVL260:
 1630 011c 3CBC     		pop	{r2, r3, r4, r5}
 1631 011e 9046     		mov	r8, r2
 1632 0120 9946     		mov	r9, r3
 1633 0122 A246     		mov	r10, r4
 1634 0124 AB46     		mov	fp, r5
 1635 0126 F0BD     		pop	{r4, r5, r6, r7, pc}
 1636              	.L108:
 1637              		.align	2
 1638              	.L107:
 1639 0128 AC040000 		.word	1196
 1640 012c A4040000 		.word	1188
 1641 0130 00000000 		.word	lc3_ns_2m5
 1642              		.cfi_endproc
 1643              	.LFE36:
 1644              		.size	analyze, .-analyze
 1645              		.section	.text.encode,"ax",%progbits
 1646              		.align	2
 1647              		.code	16
 1648              		.thumb_func
 1649              		.type	encode, %function
 1650              	encode:
 1651              	.LFB37:
 339:..\..\..\liblc3\src/lc3.c ****     enum lc3_dt dt = encoder->dt;
 1652              		.loc 1 339 0
 1653              		.cfi_startproc
 1654              		@ args = 0, pretend = 0, frame = 72
 1655              		@ frame_needed = 0, uses_anonymous_args = 0
 1656              	.LVL261:
 1657 0000 F0B5     		push	{r4, r5, r6, r7, lr}
 1658              		.cfi_def_cfa_offset 20
 1659              		.cfi_offset 4, -20
 1660              		.cfi_offset 5, -16
 1661              		.cfi_offset 6, -12
 1662              		.cfi_offset 7, -8
 1663              		.cfi_offset 14, -4
 1664 0002 4F46     		mov	r7, r9
 1665 0004 80B4     		push	{r7}
 1666              		.cfi_def_cfa_offset 24
ARM GAS  C:\Users\rdn\AppData\Local\Temp\cco7w9JJ.s 			page 45


 1667              		.cfi_offset 9, -24
 1668 0006 96B0     		sub	sp, sp, #88
 1669              		.cfi_def_cfa_offset 112
 1670 0008 0E00     		movs	r6, r1
 1671 000a 1700     		movs	r7, r2
 1672 000c 1A00     		movs	r2, r3
 1673              	.LVL262:
 340:..\..\..\liblc3\src/lc3.c ****     enum lc3_srate sr = encoder->sr;
 1674              		.loc 1 340 0
 1675 000e 0378     		ldrb	r3, [r0]
 1676              	.LVL263:
 1677 0010 0593     		str	r3, [sp, #20]
 1678              	.LVL264:
 341:..\..\..\liblc3\src/lc3.c **** 
 1679              		.loc 1 341 0
 1680 0012 4478     		ldrb	r4, [r0, #1]
 1681              	.LVL265:
 343:..\..\..\liblc3\src/lc3.c ****     enum lc3_bandwidth bw = side->bw;
 1682              		.loc 1 343 0
 1683 0014 264D     		ldr	r5, .L113
 1684 0016 4119     		adds	r1, r0, r5
 1685              	.LVL266:
 1686 0018 264B     		ldr	r3, .L113+4
 1687 001a C358     		ldr	r3, [r0, r3]
 1688 001c 9B00     		lsls	r3, r3, #2
 1689 001e 8946     		mov	r9, r1
 1690 0020 9944     		add	r9, r9, r3
 1691              	.LVL267:
 344:..\..\..\liblc3\src/lc3.c **** 
 1692              		.loc 1 344 0
 1693 0022 3078     		ldrb	r0, [r6]
 1694              	.LVL268:
 1695 0024 0500     		movs	r5, r0
 1696 0026 0690     		str	r0, [sp, #24]
 1697              	.LVL269:
 348:..\..\..\liblc3\src/lc3.c **** 
 1698              		.loc 1 348 0
 1699 0028 3B00     		movs	r3, r7
 1700 002a 0121     		movs	r1, #1
 1701              	.LVL270:
 1702 002c 08A8     		add	r0, sp, #32
 1703 002e FFF7FEFF 		bl	lc3_setup_bits
 1704              	.LVL271:
 350:..\..\..\liblc3\src/lc3.c **** 
 1705              		.loc 1 350 0
 1706 0032 2A00     		movs	r2, r5
 1707 0034 2100     		movs	r1, r4
 1708 0036 08A8     		add	r0, sp, #32
 1709 0038 FFF7FEFF 		bl	lc3_bwdet_put_bw
 1710              	.LVL272:
 352:..\..\..\liblc3\src/lc3.c **** 
 1711              		.loc 1 352 0
 1712 003c 3500     		movs	r5, r6
 1713              	.LVL273:
 1714 003e 7835     		adds	r5, r5, #120
 1715 0040 2B00     		movs	r3, r5
 1716 0042 2200     		movs	r2, r4
ARM GAS  C:\Users\rdn\AppData\Local\Temp\cco7w9JJ.s 			page 46


 1717 0044 0599     		ldr	r1, [sp, #20]
 1718 0046 08A8     		add	r0, sp, #32
 1719 0048 FFF7FEFF 		bl	lc3_spec_put_side
 1720              	.LVL274:
 354:..\..\..\liblc3\src/lc3.c **** 
 1721              		.loc 1 354 0
 1722 004c 3100     		movs	r1, r6
 1723 004e 2831     		adds	r1, r1, #40
 1724 0050 08A8     		add	r0, sp, #32
 1725 0052 FFF7FEFF 		bl	lc3_tns_put_data
 1726              	.LVL275:
 356:..\..\..\liblc3\src/lc3.c **** 
 1727              		.loc 1 356 0
 1728 0056 7178     		ldrb	r1, [r6, #1]
 1729              	.LVL276:
 1730              	.LBB159:
 1731              	.LBB160:
 1732              	.LBB161:
 1733              	.LBB162:
 1734              		.file 4 "..\\..\\..\\liblc3\\src\\bits.h"
   1:..\..\..\liblc3\src/bits.h **** /******************************************************************************
   2:..\..\..\liblc3\src/bits.h ****  *
   3:..\..\..\liblc3\src/bits.h ****  *  Copyright 2022 Google LLC
   4:..\..\..\liblc3\src/bits.h ****  *
   5:..\..\..\liblc3\src/bits.h ****  *  Licensed under the Apache License, Version 2.0 (the "License");
   6:..\..\..\liblc3\src/bits.h ****  *  you may not use this file except in compliance with the License.
   7:..\..\..\liblc3\src/bits.h ****  *  You may obtain a copy of the License at:
   8:..\..\..\liblc3\src/bits.h ****  *
   9:..\..\..\liblc3\src/bits.h ****  *  http://www.apache.org/licenses/LICENSE-2.0
  10:..\..\..\liblc3\src/bits.h ****  *
  11:..\..\..\liblc3\src/bits.h ****  *  Unless required by applicable law or agreed to in writing, software
  12:..\..\..\liblc3\src/bits.h ****  *  distributed under the License is distributed on an "AS IS" BASIS,
  13:..\..\..\liblc3\src/bits.h ****  *  WITHOUT WARRANTIES OR CONDITIONS OF ANY KIND, either express or implied.
  14:..\..\..\liblc3\src/bits.h ****  *  See the License for the specific language governing permissions and
  15:..\..\..\liblc3\src/bits.h ****  *  limitations under the License.
  16:..\..\..\liblc3\src/bits.h ****  *
  17:..\..\..\liblc3\src/bits.h ****  ******************************************************************************/
  18:..\..\..\liblc3\src/bits.h **** 
  19:..\..\..\liblc3\src/bits.h **** /**
  20:..\..\..\liblc3\src/bits.h ****  * The bitstream is written by the 2 ends of the buffer :
  21:..\..\..\liblc3\src/bits.h ****  *
  22:..\..\..\liblc3\src/bits.h ****  * - Arthmetic coder put bits while increasing memory addresses
  23:..\..\..\liblc3\src/bits.h ****  *   in the buffer (forward)
  24:..\..\..\liblc3\src/bits.h ****  *
  25:..\..\..\liblc3\src/bits.h ****  * - Plain bits are puts starting the end of the buffer, with memeory
  26:..\..\..\liblc3\src/bits.h ****  *   addresses decreasing (backward)
  27:..\..\..\liblc3\src/bits.h ****  *
  28:..\..\..\liblc3\src/bits.h ****  *       .---------------------------------------------------.
  29:..\..\..\liblc3\src/bits.h ****  *       | > > > > > > > > > > :         : < < < < < < < < < |
  30:..\..\..\liblc3\src/bits.h ****  *       '---------------------------------------------------'
  31:..\..\..\liblc3\src/bits.h ****  *       |---------------------> - - - - - - - - - - - - - ->|
  32:..\..\..\liblc3\src/bits.h ****  *                              |< - - - <-------------------|
  33:..\..\..\liblc3\src/bits.h ****  *          Arithmetic coding                  Plain bits
  34:..\..\..\liblc3\src/bits.h ****  *          `lc3_put_symbol()`               `lc3_put_bits()`
  35:..\..\..\liblc3\src/bits.h ****  *
  36:..\..\..\liblc3\src/bits.h ****  * - The forward writing is protected against buffer overflow, it cannot
  37:..\..\..\liblc3\src/bits.h ****  *   write after the buffer, but can overwrite plain bits previously
ARM GAS  C:\Users\rdn\AppData\Local\Temp\cco7w9JJ.s 			page 47


  38:..\..\..\liblc3\src/bits.h ****  *   written in the buffer.
  39:..\..\..\liblc3\src/bits.h ****  *
  40:..\..\..\liblc3\src/bits.h ****  * - The backward writing is protected against overwrite of the arithmetic
  41:..\..\..\liblc3\src/bits.h ****  *   coder bitstream. In such way, the backward bitstream is always limited
  42:..\..\..\liblc3\src/bits.h ****  *   by the aritmetic coder bitstream, and can be overwritten by him.
  43:..\..\..\liblc3\src/bits.h ****  *
  44:..\..\..\liblc3\src/bits.h ****  *       .---------------------------------------------------.
  45:..\..\..\liblc3\src/bits.h ****  *       | > > > > > > > > > > :         : < < < < < < < < < |
  46:..\..\..\liblc3\src/bits.h ****  *       '---------------------------------------------------'
  47:..\..\..\liblc3\src/bits.h ****  *       |---------------------> - - - - - - - - - - - - - ->|
  48:..\..\..\liblc3\src/bits.h ****  *       |< - - - - - - - - - - -  - - - <-------------------|
  49:..\..\..\liblc3\src/bits.h ****  *          Arithmetic coding                  Plain bits
  50:..\..\..\liblc3\src/bits.h ****  *          `lc3_get_symbol()`               `lc3_get_bits()`
  51:..\..\..\liblc3\src/bits.h ****  *
  52:..\..\..\liblc3\src/bits.h ****  * - Reading is limited to read of the complementary end of the buffer.
  53:..\..\..\liblc3\src/bits.h ****  *
  54:..\..\..\liblc3\src/bits.h ****  * - The procedure `lc3_check_bits()` returns indication that read has been
  55:..\..\..\liblc3\src/bits.h ****  *   made crossing the other bit plane.
  56:..\..\..\liblc3\src/bits.h ****  *
  57:..\..\..\liblc3\src/bits.h ****  */
  58:..\..\..\liblc3\src/bits.h **** 
  59:..\..\..\liblc3\src/bits.h **** #ifndef __LC3_BITS_H
  60:..\..\..\liblc3\src/bits.h **** #define __LC3_BITS_H
  61:..\..\..\liblc3\src/bits.h **** 
  62:..\..\..\liblc3\src/bits.h **** #include "common.h"
  63:..\..\..\liblc3\src/bits.h **** 
  64:..\..\..\liblc3\src/bits.h **** 
  65:..\..\..\liblc3\src/bits.h **** /**
  66:..\..\..\liblc3\src/bits.h ****  * Bitstream mode
  67:..\..\..\liblc3\src/bits.h ****  */
  68:..\..\..\liblc3\src/bits.h **** 
  69:..\..\..\liblc3\src/bits.h **** enum lc3_bits_mode {
  70:..\..\..\liblc3\src/bits.h ****     LC3_BITS_MODE_READ,
  71:..\..\..\liblc3\src/bits.h ****     LC3_BITS_MODE_WRITE,
  72:..\..\..\liblc3\src/bits.h **** };
  73:..\..\..\liblc3\src/bits.h **** 
  74:..\..\..\liblc3\src/bits.h **** /**
  75:..\..\..\liblc3\src/bits.h ****  * Arithmetic coder symbol interval
  76:..\..\..\liblc3\src/bits.h ****  * The model split the interval in 17 symbols
  77:..\..\..\liblc3\src/bits.h ****  */
  78:..\..\..\liblc3\src/bits.h **** 
  79:..\..\..\liblc3\src/bits.h **** struct lc3_ac_symbol {
  80:..\..\..\liblc3\src/bits.h ****     uint16_t low   : 16;
  81:..\..\..\liblc3\src/bits.h ****     uint16_t range : 16;
  82:..\..\..\liblc3\src/bits.h **** };
  83:..\..\..\liblc3\src/bits.h **** 
  84:..\..\..\liblc3\src/bits.h **** struct lc3_ac_model {
  85:..\..\..\liblc3\src/bits.h ****     struct lc3_ac_symbol s[17];
  86:..\..\..\liblc3\src/bits.h **** };
  87:..\..\..\liblc3\src/bits.h **** 
  88:..\..\..\liblc3\src/bits.h **** /**
  89:..\..\..\liblc3\src/bits.h ****  * Bitstream context
  90:..\..\..\liblc3\src/bits.h ****  */
  91:..\..\..\liblc3\src/bits.h **** 
  92:..\..\..\liblc3\src/bits.h **** #define LC3_ACCU_BITS (int)(8 * sizeof(unsigned))
  93:..\..\..\liblc3\src/bits.h **** 
  94:..\..\..\liblc3\src/bits.h **** struct lc3_bits_accu {
ARM GAS  C:\Users\rdn\AppData\Local\Temp\cco7w9JJ.s 			page 48


  95:..\..\..\liblc3\src/bits.h ****     unsigned v;
  96:..\..\..\liblc3\src/bits.h ****     int n, nover;
  97:..\..\..\liblc3\src/bits.h **** };
  98:..\..\..\liblc3\src/bits.h **** 
  99:..\..\..\liblc3\src/bits.h **** #define LC3_AC_BITS (int)(24)
 100:..\..\..\liblc3\src/bits.h **** 
 101:..\..\..\liblc3\src/bits.h **** struct lc3_bits_ac {
 102:..\..\..\liblc3\src/bits.h ****     unsigned low, range;
 103:..\..\..\liblc3\src/bits.h ****     int cache, carry, carry_count;
 104:..\..\..\liblc3\src/bits.h ****     bool error;
 105:..\..\..\liblc3\src/bits.h **** };
 106:..\..\..\liblc3\src/bits.h **** 
 107:..\..\..\liblc3\src/bits.h **** struct lc3_bits_buffer {
 108:..\..\..\liblc3\src/bits.h ****     const uint8_t *start, *end;
 109:..\..\..\liblc3\src/bits.h ****     uint8_t *p_fw, *p_bw;
 110:..\..\..\liblc3\src/bits.h **** };
 111:..\..\..\liblc3\src/bits.h **** 
 112:..\..\..\liblc3\src/bits.h **** typedef struct lc3_bits {
 113:..\..\..\liblc3\src/bits.h ****     enum lc3_bits_mode mode;
 114:..\..\..\liblc3\src/bits.h ****     struct lc3_bits_ac ac;
 115:..\..\..\liblc3\src/bits.h ****     struct lc3_bits_accu accu;
 116:..\..\..\liblc3\src/bits.h ****     struct lc3_bits_buffer buffer;
 117:..\..\..\liblc3\src/bits.h **** } lc3_bits_t;
 118:..\..\..\liblc3\src/bits.h **** 
 119:..\..\..\liblc3\src/bits.h **** 
 120:..\..\..\liblc3\src/bits.h **** /**
 121:..\..\..\liblc3\src/bits.h ****  * Setup bitstream reading/writing
 122:..\..\..\liblc3\src/bits.h ****  * bits            Bitstream context
 123:..\..\..\liblc3\src/bits.h ****  * mode            Either READ or WRITE mode
 124:..\..\..\liblc3\src/bits.h ****  * buffer, len     Output buffer and length (in bytes)
 125:..\..\..\liblc3\src/bits.h ****  */
 126:..\..\..\liblc3\src/bits.h **** void lc3_setup_bits(lc3_bits_t *bits,
 127:..\..\..\liblc3\src/bits.h ****     enum lc3_bits_mode mode, void *buffer, int len);
 128:..\..\..\liblc3\src/bits.h **** 
 129:..\..\..\liblc3\src/bits.h **** /**
 130:..\..\..\liblc3\src/bits.h ****  * Return number of bits left in the bitstream
 131:..\..\..\liblc3\src/bits.h ****  * bits            Bitstream context
 132:..\..\..\liblc3\src/bits.h ****  * return          Number of bits left
 133:..\..\..\liblc3\src/bits.h ****  */
 134:..\..\..\liblc3\src/bits.h **** int lc3_get_bits_left(const lc3_bits_t *bits);
 135:..\..\..\liblc3\src/bits.h **** 
 136:..\..\..\liblc3\src/bits.h **** /**
 137:..\..\..\liblc3\src/bits.h ****  * Check if error occured on bitstream reading/writing
 138:..\..\..\liblc3\src/bits.h ****  * bits            Bitstream context
 139:..\..\..\liblc3\src/bits.h ****  * return          0: Ok  -1: Bitstream overflow or AC reading error
 140:..\..\..\liblc3\src/bits.h ****  */
 141:..\..\..\liblc3\src/bits.h **** int lc3_check_bits(const lc3_bits_t *bits);
 142:..\..\..\liblc3\src/bits.h **** 
 143:..\..\..\liblc3\src/bits.h **** /**
 144:..\..\..\liblc3\src/bits.h ****  * Put a bit
 145:..\..\..\liblc3\src/bits.h ****  * bits            Bitstream context
 146:..\..\..\liblc3\src/bits.h ****  * v               Bit value, 0 or 1
 147:..\..\..\liblc3\src/bits.h ****  */
 148:..\..\..\liblc3\src/bits.h **** static inline void lc3_put_bit(lc3_bits_t *bits, int v);
 149:..\..\..\liblc3\src/bits.h **** 
 150:..\..\..\liblc3\src/bits.h **** /**
 151:..\..\..\liblc3\src/bits.h ****  * Put from 1 to 32 bits
ARM GAS  C:\Users\rdn\AppData\Local\Temp\cco7w9JJ.s 			page 49


 152:..\..\..\liblc3\src/bits.h ****  * bits            Bitstream context
 153:..\..\..\liblc3\src/bits.h ****  * v, n            Value, in range 0 to 2^n - 1, and bits count (1 to 32)
 154:..\..\..\liblc3\src/bits.h ****  */
 155:..\..\..\liblc3\src/bits.h **** static inline void lc3_put_bits(lc3_bits_t *bits, unsigned v, int n);
 156:..\..\..\liblc3\src/bits.h **** 
 157:..\..\..\liblc3\src/bits.h **** /**
 158:..\..\..\liblc3\src/bits.h ****  * Put arithmetic coder symbol
 159:..\..\..\liblc3\src/bits.h ****  * bits            Bitstream context
 160:..\..\..\liblc3\src/bits.h ****  * model, s        Model distribution and symbol value
 161:..\..\..\liblc3\src/bits.h ****  */
 162:..\..\..\liblc3\src/bits.h **** static inline void lc3_put_symbol(lc3_bits_t *bits,
 163:..\..\..\liblc3\src/bits.h ****     const struct lc3_ac_model *model, unsigned s);
 164:..\..\..\liblc3\src/bits.h **** 
 165:..\..\..\liblc3\src/bits.h **** /**
 166:..\..\..\liblc3\src/bits.h ****  * Flush and terminate bitstream writing
 167:..\..\..\liblc3\src/bits.h ****  * bits            Bitstream context
 168:..\..\..\liblc3\src/bits.h ****  */
 169:..\..\..\liblc3\src/bits.h **** void lc3_flush_bits(lc3_bits_t *bits);
 170:..\..\..\liblc3\src/bits.h **** 
 171:..\..\..\liblc3\src/bits.h **** /**
 172:..\..\..\liblc3\src/bits.h ****  * Get a bit
 173:..\..\..\liblc3\src/bits.h ****  * bits            Bitstream context
 174:..\..\..\liblc3\src/bits.h ****  */
 175:..\..\..\liblc3\src/bits.h **** static inline int lc3_get_bit(lc3_bits_t *bits);
 176:..\..\..\liblc3\src/bits.h **** 
 177:..\..\..\liblc3\src/bits.h **** /**
 178:..\..\..\liblc3\src/bits.h ****  * Get from 1 to 32 bits
 179:..\..\..\liblc3\src/bits.h ****  * bits            Bitstream context
 180:..\..\..\liblc3\src/bits.h ****  * n               Number of bits to read (1 to 32)
 181:..\..\..\liblc3\src/bits.h ****  * return          The value read
 182:..\..\..\liblc3\src/bits.h ****  */
 183:..\..\..\liblc3\src/bits.h **** static inline unsigned lc3_get_bits(lc3_bits_t *bits,  int n);
 184:..\..\..\liblc3\src/bits.h **** 
 185:..\..\..\liblc3\src/bits.h **** /**
 186:..\..\..\liblc3\src/bits.h ****  * Get arithmetic coder symbol
 187:..\..\..\liblc3\src/bits.h ****  * bits            Bitstream context
 188:..\..\..\liblc3\src/bits.h ****  * model           Model distribution
 189:..\..\..\liblc3\src/bits.h ****  * return          The value read
 190:..\..\..\liblc3\src/bits.h ****  */
 191:..\..\..\liblc3\src/bits.h **** static inline unsigned lc3_get_symbol(lc3_bits_t *bits,
 192:..\..\..\liblc3\src/bits.h ****     const struct lc3_ac_model *model);
 193:..\..\..\liblc3\src/bits.h **** 
 194:..\..\..\liblc3\src/bits.h **** 
 195:..\..\..\liblc3\src/bits.h **** 
 196:..\..\..\liblc3\src/bits.h **** /* ----------------------------------------------------------------------------
 197:..\..\..\liblc3\src/bits.h ****  *  Inline implementations
 198:..\..\..\liblc3\src/bits.h ****  * -------------------------------------------------------------------------- */
 199:..\..\..\liblc3\src/bits.h **** 
 200:..\..\..\liblc3\src/bits.h **** void lc3_put_bits_generic(lc3_bits_t *bits, unsigned v, int n);
 201:..\..\..\liblc3\src/bits.h **** unsigned lc3_get_bits_generic(struct lc3_bits *bits, int n);
 202:..\..\..\liblc3\src/bits.h **** 
 203:..\..\..\liblc3\src/bits.h **** void lc3_ac_read_renorm(lc3_bits_t *bits);
 204:..\..\..\liblc3\src/bits.h **** void lc3_ac_write_renorm(lc3_bits_t *bits);
 205:..\..\..\liblc3\src/bits.h **** 
 206:..\..\..\liblc3\src/bits.h **** 
 207:..\..\..\liblc3\src/bits.h **** /**
 208:..\..\..\liblc3\src/bits.h ****  * Put a bit
ARM GAS  C:\Users\rdn\AppData\Local\Temp\cco7w9JJ.s 			page 50


 209:..\..\..\liblc3\src/bits.h ****  */
 210:..\..\..\liblc3\src/bits.h **** LC3_HOT static inline void lc3_put_bit(lc3_bits_t *bits, int v)
 211:..\..\..\liblc3\src/bits.h **** {
 212:..\..\..\liblc3\src/bits.h ****     lc3_put_bits(bits, v, 1);
 213:..\..\..\liblc3\src/bits.h **** }
 214:..\..\..\liblc3\src/bits.h **** 
 215:..\..\..\liblc3\src/bits.h **** /**
 216:..\..\..\liblc3\src/bits.h ****  * Put from 1 to 32 bits
 217:..\..\..\liblc3\src/bits.h ****  */
 218:..\..\..\liblc3\src/bits.h **** LC3_HOT static inline void lc3_put_bits(
 219:..\..\..\liblc3\src/bits.h ****     struct lc3_bits *bits, unsigned v, int n)
 220:..\..\..\liblc3\src/bits.h **** {
 221:..\..\..\liblc3\src/bits.h ****     struct lc3_bits_accu *accu = &bits->accu;
 222:..\..\..\liblc3\src/bits.h **** 
 223:..\..\..\liblc3\src/bits.h ****     if (accu->n + n <= LC3_ACCU_BITS) {
 1735              		.loc 4 223 0
 1736 0058 109A     		ldr	r2, [sp, #64]
 1737 005a 531C     		adds	r3, r2, #1
 1738 005c 202B     		cmp	r3, #32
 1739 005e 06DC     		bgt	.L110
 224:..\..\..\liblc3\src/bits.h ****         accu->v |= v << accu->n;
 1740              		.loc 4 224 0
 1741 0060 9140     		lsls	r1, r1, r2
 1742              	.LVL277:
 1743 0062 0F9A     		ldr	r2, [sp, #60]
 1744 0064 0792     		str	r2, [sp, #28]
 1745              	.LVL278:
 1746 0066 1143     		orrs	r1, r2
 1747 0068 0F91     		str	r1, [sp, #60]
 225:..\..\..\liblc3\src/bits.h ****         accu->n += n;
 1748              		.loc 4 225 0
 1749 006a 1093     		str	r3, [sp, #64]
 1750 006c 03E0     		b	.L111
 1751              	.LVL279:
 1752              	.L110:
 226:..\..\..\liblc3\src/bits.h ****     } else {
 227:..\..\..\liblc3\src/bits.h ****         lc3_put_bits_generic(bits, v, n);
 1753              		.loc 4 227 0
 1754 006e 0122     		movs	r2, #1
 1755 0070 08A8     		add	r0, sp, #32
 1756              	.LVL280:
 1757 0072 FFF7FEFF 		bl	lc3_put_bits_generic
 1758              	.LVL281:
 1759              	.L111:
 1760              	.LBE162:
 1761              	.LBE161:
 1762              	.LBE160:
 1763              	.LBE159:
 358:..\..\..\liblc3\src/lc3.c **** 
 1764              		.loc 1 358 0
 1765 0076 3100     		movs	r1, r6
 1766 0078 0C31     		adds	r1, r1, #12
 1767 007a 08A8     		add	r0, sp, #32
 1768 007c FFF7FEFF 		bl	lc3_sns_put_data
 1769              	.LVL282:
 360:..\..\..\liblc3\src/lc3.c ****         lc3_ltpf_put_data(&bits, &side->ltpf);
 1770              		.loc 1 360 0
ARM GAS  C:\Users\rdn\AppData\Local\Temp\cco7w9JJ.s 			page 51


 1771 0080 7378     		ldrb	r3, [r6, #1]
 1772 0082 002B     		cmp	r3, #0
 1773 0084 03D0     		beq	.L112
 361:..\..\..\liblc3\src/lc3.c **** 
 1774              		.loc 1 361 0
 1775 0086 311D     		adds	r1, r6, #4
 1776 0088 08A8     		add	r0, sp, #32
 1777 008a FFF7FEFF 		bl	lc3_ltpf_put_data
 1778              	.LVL283:
 1779              	.L112:
 363:..\..\..\liblc3\src/lc3.c **** 
 1780              		.loc 1 363 0
 1781 008e 4B46     		mov	r3, r9
 1782 0090 0293     		str	r3, [sp, #8]
 1783 0092 0195     		str	r5, [sp, #4]
 1784 0094 0097     		str	r7, [sp]
 1785 0096 069B     		ldr	r3, [sp, #24]
 1786 0098 2200     		movs	r2, r4
 1787 009a 0599     		ldr	r1, [sp, #20]
 1788 009c 08A8     		add	r0, sp, #32
 1789 009e FFF7FEFF 		bl	lc3_spec_encode
 1790              	.LVL284:
 365:..\..\..\liblc3\src/lc3.c **** }
 1791              		.loc 1 365 0
 1792 00a2 08A8     		add	r0, sp, #32
 1793 00a4 FFF7FEFF 		bl	lc3_flush_bits
 1794              	.LVL285:
 366:..\..\..\liblc3\src/lc3.c **** 
 1795              		.loc 1 366 0
 1796 00a8 16B0     		add	sp, sp, #88
 1797              		@ sp needed
 1798              	.LVL286:
 1799              	.LVL287:
 1800              	.LVL288:
 1801              	.LVL289:
 1802 00aa 04BC     		pop	{r2}
 1803 00ac 9146     		mov	r9, r2
 1804 00ae F0BD     		pop	{r4, r5, r6, r7, pc}
 1805              	.L114:
 1806              		.align	2
 1807              	.L113:
 1808 00b0 AC040000 		.word	1196
 1809 00b4 A4040000 		.word	1188
 1810              		.cfi_endproc
 1811              	.LFE37:
 1812              		.size	encode, .-encode
 1813              		.section	.text.decode,"ax",%progbits
 1814              		.align	2
 1815              		.code	16
 1816              		.thumb_func
 1817              		.type	decode, %function
 1818              	decode:
 1819              	.LFB47:
 567:..\..\..\liblc3\src/lc3.c ****     enum lc3_dt dt = decoder->dt;
 1820              		.loc 1 567 0
 1821              		.cfi_startproc
 1822              		@ args = 0, pretend = 0, frame = 64
ARM GAS  C:\Users\rdn\AppData\Local\Temp\cco7w9JJ.s 			page 52


 1823              		@ frame_needed = 0, uses_anonymous_args = 0
 1824              	.LVL290:
 1825 0000 F0B5     		push	{r4, r5, r6, r7, lr}
 1826              		.cfi_def_cfa_offset 20
 1827              		.cfi_offset 4, -20
 1828              		.cfi_offset 5, -16
 1829              		.cfi_offset 6, -12
 1830              		.cfi_offset 7, -8
 1831              		.cfi_offset 14, -4
 1832 0002 5F46     		mov	r7, fp
 1833 0004 4E46     		mov	r6, r9
 1834 0006 4546     		mov	r5, r8
 1835 0008 E0B4     		push	{r5, r6, r7}
 1836              		.cfi_def_cfa_offset 32
 1837              		.cfi_offset 8, -32
 1838              		.cfi_offset 9, -28
 1839              		.cfi_offset 11, -24
 1840 000a 94B0     		sub	sp, sp, #80
 1841              		.cfi_def_cfa_offset 112
 1842 000c 0492     		str	r2, [sp, #16]
 1843 000e 1D00     		movs	r5, r3
 568:..\..\..\liblc3\src/lc3.c ****     enum lc3_srate sr = decoder->sr;
 1844              		.loc 1 568 0
 1845 0010 0678     		ldrb	r6, [r0]
 1846              	.LVL291:
 569:..\..\..\liblc3\src/lc3.c **** 
 1847              		.loc 1 569 0
 1848 0012 4378     		ldrb	r3, [r0, #1]
 1849              	.LVL292:
 1850 0014 9846     		mov	r8, r3
 1851              	.LVL293:
 571:..\..\..\liblc3\src/lc3.c ****     int ns = lc3_ns(dt, sr);
 1852              		.loc 1 571 0
 1853 0016 0300     		movs	r3, r0
 1854 0018 B833     		adds	r3, r3, #184
 1855 001a AC22     		movs	r2, #172
 1856              	.LVL294:
 1857 001c 8458     		ldr	r4, [r0, r2]
 1858 001e A400     		lsls	r4, r4, #2
 1859 0020 1C19     		adds	r4, r3, r4
 1860              	.LVL295:
 1861              	.LBB172:
 1862              	.LBB173:
  47:..\..\..\liblc3\src/tables.h **** }
 1863              		.loc 2 47 0
 1864 0022 4346     		mov	r3, r8
 1865 0024 9800     		lsls	r0, r3, #2
 1866              	.LVL296:
 1867 0026 344B     		ldr	r3, .L125
 1868 0028 C758     		ldr	r7, [r0, r3]
 1869 002a 731C     		adds	r3, r6, #1
 1870 002c 5F43     		muls	r7, r3
 1871 002e B946     		mov	r9, r7
 1872              	.LVL297:
 1873              	.LBE173:
 1874              	.LBE172:
 1875              	.LBB174:
ARM GAS  C:\Users\rdn\AppData\Local\Temp\cco7w9JJ.s 			page 53


 1876              	.LBB175:
  51:..\..\..\liblc3\src/tables.h **** }
 1877              		.loc 2 51 0
 1878 0030 324A     		ldr	r2, .L125+4
 1879 0032 8758     		ldr	r7, [r0, r2]
 1880 0034 5F43     		muls	r7, r3
 1881              	.LVL298:
 1882              	.LBE175:
 1883              	.LBE174:
 578:..\..\..\liblc3\src/lc3.c **** 
 1884              		.loc 1 578 0
 1885 0036 049B     		ldr	r3, [sp, #16]
 1886 0038 0A00     		movs	r2, r1
 1887 003a 0021     		movs	r1, #0
 1888              	.LVL299:
 1889 003c 06A8     		add	r0, sp, #24
 1890 003e FFF7FEFF 		bl	lc3_setup_bits
 1891              	.LVL300:
 580:..\..\..\liblc3\src/lc3.c ****         return ret;
 1892              		.loc 1 580 0
 1893 0042 2A00     		movs	r2, r5
 1894 0044 4146     		mov	r1, r8
 1895 0046 06A8     		add	r0, sp, #24
 1896 0048 FFF7FEFF 		bl	lc3_bwdet_get_bw
 1897              	.LVL301:
 1898 004c 0028     		cmp	r0, #0
 1899 004e 4DDB     		blt	.L116
 583:..\..\..\liblc3\src/lc3.c ****         return ret;
 1900              		.loc 1 583 0
 1901 0050 7822     		movs	r2, #120
 1902 0052 9346     		mov	fp, r2
 1903 0054 AB44     		add	fp, fp, r5
 1904 0056 5B46     		mov	r3, fp
 1905 0058 4246     		mov	r2, r8
 1906 005a 3100     		movs	r1, r6
 1907 005c 06A8     		add	r0, sp, #24
 1908              	.LVL302:
 1909 005e FFF7FEFF 		bl	lc3_spec_get_side
 1910              	.LVL303:
 1911 0062 0028     		cmp	r0, #0
 1912 0064 42DB     		blt	.L116
 586:..\..\..\liblc3\src/lc3.c ****         return ret;
 1913              		.loc 1 586 0
 1914 0066 2A78     		ldrb	r2, [r5]
 1915 0068 2B00     		movs	r3, r5
 1916 006a 2833     		adds	r3, r3, #40
 1917 006c 0093     		str	r3, [sp]
 1918 006e 049B     		ldr	r3, [sp, #16]
 1919 0070 3100     		movs	r1, r6
 1920 0072 06A8     		add	r0, sp, #24
 1921              	.LVL304:
 1922 0074 FFF7FEFF 		bl	lc3_tns_get_data
 1923              	.LVL305:
 1924 0078 0028     		cmp	r0, #0
 1925 007a 37DB     		blt	.L116
 1926              	.LVL306:
 1927              	.LBB176:
ARM GAS  C:\Users\rdn\AppData\Local\Temp\cco7w9JJ.s 			page 54


 1928              	.LBB177:
 1929              	.LBB178:
 1930              	.LBB179:
 228:..\..\..\liblc3\src/bits.h ****     }
 229:..\..\..\liblc3\src/bits.h **** }
 230:..\..\..\liblc3\src/bits.h **** 
 231:..\..\..\liblc3\src/bits.h **** /**
 232:..\..\..\liblc3\src/bits.h ****  * Get a bit
 233:..\..\..\liblc3\src/bits.h ****  */
 234:..\..\..\liblc3\src/bits.h **** LC3_HOT static inline int lc3_get_bit(lc3_bits_t *bits)
 235:..\..\..\liblc3\src/bits.h **** {
 236:..\..\..\liblc3\src/bits.h ****     return lc3_get_bits(bits, 1);
 237:..\..\..\liblc3\src/bits.h **** }
 238:..\..\..\liblc3\src/bits.h **** 
 239:..\..\..\liblc3\src/bits.h **** /**
 240:..\..\..\liblc3\src/bits.h ****  * Get from 1 to 32 bits
 241:..\..\..\liblc3\src/bits.h ****  */
 242:..\..\..\liblc3\src/bits.h **** LC3_HOT static inline unsigned lc3_get_bits(struct lc3_bits *bits, int n)
 243:..\..\..\liblc3\src/bits.h **** {
 244:..\..\..\liblc3\src/bits.h ****     struct lc3_bits_accu *accu = &bits->accu;
 245:..\..\..\liblc3\src/bits.h **** 
 246:..\..\..\liblc3\src/bits.h ****     if (accu->n + n <= LC3_ACCU_BITS) {
 1931              		.loc 4 246 0
 1932 007c 0E9B     		ldr	r3, [sp, #56]
 1933 007e 5A1C     		adds	r2, r3, #1
 1934 0080 202A     		cmp	r2, #32
 1935 0082 06DC     		bgt	.L117
 1936              	.LBB180:
 247:..\..\..\liblc3\src/bits.h ****         int v = (accu->v >> accu->n) & ((1u << n) - 1);
 1937              		.loc 4 247 0
 1938 0084 0D99     		ldr	r1, [sp, #52]
 1939 0086 0591     		str	r1, [sp, #20]
 1940 0088 D940     		lsrs	r1, r1, r3
 1941 008a 0120     		movs	r0, #1
 1942              	.LVL307:
 1943 008c 0840     		ands	r0, r1
 1944              	.LVL308:
 248:..\..\..\liblc3\src/bits.h ****         return (accu->n += n), v;
 1945              		.loc 4 248 0
 1946 008e 0E92     		str	r2, [sp, #56]
 1947 0090 03E0     		b	.L118
 1948              	.LVL309:
 1949              	.L117:
 1950              	.LBE180:
 249:..\..\..\liblc3\src/bits.h ****     }
 250:..\..\..\liblc3\src/bits.h ****     else {
 251:..\..\..\liblc3\src/bits.h ****         return lc3_get_bits_generic(bits, n);
 1951              		.loc 4 251 0
 1952 0092 0121     		movs	r1, #1
 1953 0094 06A8     		add	r0, sp, #24
 1954              	.LVL310:
 1955 0096 FFF7FEFF 		bl	lc3_get_bits_generic
 1956              	.LVL311:
 1957              	.L118:
 1958              	.LBE179:
 1959              	.LBE178:
 1960              	.LBE177:
ARM GAS  C:\Users\rdn\AppData\Local\Temp\cco7w9JJ.s 			page 55


 1961              	.LBE176:
 589:..\..\..\liblc3\src/lc3.c **** 
 1962              		.loc 1 589 0
 1963 009a 431E     		subs	r3, r0, #1
 1964 009c 9841     		sbcs	r0, r0, r3
 1965 009e 6870     		strb	r0, [r5, #1]
 591:..\..\..\liblc3\src/lc3.c ****         return ret;
 1966              		.loc 1 591 0
 1967 00a0 2900     		movs	r1, r5
 1968 00a2 0C31     		adds	r1, r1, #12
 1969 00a4 06A8     		add	r0, sp, #24
 1970 00a6 FFF7FEFF 		bl	lc3_sns_get_data
 1971              	.LVL312:
 1972 00aa 0028     		cmp	r0, #0
 1973 00ac 1EDB     		blt	.L116
 594:..\..\..\liblc3\src/lc3.c ****       lc3_ltpf_get_data(&bits, &side->ltpf);
 1974              		.loc 1 594 0
 1975 00ae 6B78     		ldrb	r3, [r5, #1]
 1976 00b0 002B     		cmp	r3, #0
 1977 00b2 03D0     		beq	.L119
 595:..\..\..\liblc3\src/lc3.c **** 
 1978              		.loc 1 595 0
 1979 00b4 291D     		adds	r1, r5, #4
 1980 00b6 06A8     		add	r0, sp, #24
 1981              	.LVL313:
 1982 00b8 FFF7FEFF 		bl	lc3_ltpf_get_data
 1983              	.LVL314:
 1984              	.L119:
 597:..\..\..\liblc3\src/lc3.c ****                     side->bw, nbytes, &side->spec, xf)) < 0)
 1985              		.loc 1 597 0
 1986 00bc 2B78     		ldrb	r3, [r5]
 1987 00be 0294     		str	r4, [sp, #8]
 1988 00c0 5A46     		mov	r2, fp
 1989 00c2 0192     		str	r2, [sp, #4]
 1990 00c4 049A     		ldr	r2, [sp, #16]
 1991 00c6 0092     		str	r2, [sp]
 1992 00c8 4246     		mov	r2, r8
 1993 00ca 3100     		movs	r1, r6
 1994 00cc 06A8     		add	r0, sp, #24
 1995 00ce FFF7FEFF 		bl	lc3_spec_decode
 1996              	.LVL315:
 1997 00d2 0028     		cmp	r0, #0
 1998 00d4 0ADB     		blt	.L116
 601:..\..\..\liblc3\src/lc3.c **** 
 1999              		.loc 1 601 0
 2000 00d6 B800     		lsls	r0, r7, #2
 2001              	.LVL316:
 2002 00d8 4B46     		mov	r3, r9
 2003 00da DA1B     		subs	r2, r3, r7
 2004 00dc 9200     		lsls	r2, r2, #2
 2005 00de 2018     		adds	r0, r4, r0
 2006 00e0 0021     		movs	r1, #0
 2007 00e2 FFF7FEFF 		bl	memset
 2008              	.LVL317:
 603:..\..\..\liblc3\src/lc3.c **** }
 2009              		.loc 1 603 0
 2010 00e6 06A8     		add	r0, sp, #24
ARM GAS  C:\Users\rdn\AppData\Local\Temp\cco7w9JJ.s 			page 56


 2011 00e8 FFF7FEFF 		bl	lc3_check_bits
 2012              	.LVL318:
 2013              	.L116:
 604:..\..\..\liblc3\src/lc3.c **** 
 2014              		.loc 1 604 0
 2015 00ec 14B0     		add	sp, sp, #80
 2016              		@ sp needed
 2017              	.LVL319:
 2018              	.LVL320:
 2019              	.LVL321:
 2020              	.LVL322:
 2021 00ee 1CBC     		pop	{r2, r3, r4}
 2022 00f0 9046     		mov	r8, r2
 2023 00f2 9946     		mov	r9, r3
 2024 00f4 A346     		mov	fp, r4
 2025 00f6 F0BD     		pop	{r4, r5, r6, r7, pc}
 2026              	.L126:
 2027              		.align	2
 2028              	.L125:
 2029 00f8 00000000 		.word	lc3_ns_2m5
 2030 00fc 00000000 		.word	lc3_ne_2m5
 2031              		.cfi_endproc
 2032              	.LFE47:
 2033              		.size	decode, .-decode
 2034              		.section	.text.synthesize,"ax",%progbits
 2035              		.align	2
 2036              		.code	16
 2037              		.thumb_func
 2038              		.type	synthesize, %function
 2039              	synthesize:
 2040              	.LFB48:
 614:..\..\..\liblc3\src/lc3.c ****     enum lc3_dt dt = decoder->dt;
 2041              		.loc 1 614 0
 2042              		.cfi_startproc
 2043              		@ args = 0, pretend = 0, frame = 16
 2044              		@ frame_needed = 0, uses_anonymous_args = 0
 2045              	.LVL323:
 2046 0000 F0B5     		push	{r4, r5, r6, r7, lr}
 2047              		.cfi_def_cfa_offset 20
 2048              		.cfi_offset 4, -20
 2049              		.cfi_offset 5, -16
 2050              		.cfi_offset 6, -12
 2051              		.cfi_offset 7, -8
 2052              		.cfi_offset 14, -4
 2053 0002 5F46     		mov	r7, fp
 2054 0004 5646     		mov	r6, r10
 2055 0006 4D46     		mov	r5, r9
 2056 0008 4446     		mov	r4, r8
 2057 000a F0B4     		push	{r4, r5, r6, r7}
 2058              		.cfi_def_cfa_offset 36
 2059              		.cfi_offset 8, -36
 2060              		.cfi_offset 9, -32
 2061              		.cfi_offset 10, -28
 2062              		.cfi_offset 11, -24
 2063 000c 89B0     		sub	sp, sp, #36
 2064              		.cfi_def_cfa_offset 72
 2065 000e 0400     		movs	r4, r0
ARM GAS  C:\Users\rdn\AppData\Local\Temp\cco7w9JJ.s 			page 57


 2066 0010 0E00     		movs	r6, r1
 2067 0012 0792     		str	r2, [sp, #28]
 615:..\..\..\liblc3\src/lc3.c ****     enum lc3_srate sr = decoder->sr;
 2068              		.loc 1 615 0
 2069 0014 0378     		ldrb	r3, [r0]
 2070 0016 1800     		movs	r0, r3
 2071              	.LVL324:
 616:..\..\..\liblc3\src/lc3.c ****     enum lc3_srate sr_pcm = decoder->sr_pcm;
 2072              		.loc 1 616 0
 2073 0018 6778     		ldrb	r7, [r4, #1]
 2074              	.LVL325:
 617:..\..\..\liblc3\src/lc3.c **** 
 2075              		.loc 1 617 0
 2076 001a A378     		ldrb	r3, [r4, #2]
 2077 001c 1900     		movs	r1, r3
 2078              	.LVL326:
 619:..\..\..\liblc3\src/lc3.c ****     int ns = lc3_ns(dt, sr_pcm);
 2079              		.loc 1 619 0
 2080 001e 2300     		movs	r3, r4
 2081 0020 B833     		adds	r3, r3, #184
 2082 0022 AC22     		movs	r2, #172
 2083              	.LVL327:
 2084 0024 A558     		ldr	r5, [r4, r2]
 2085 0026 AD00     		lsls	r5, r5, #2
 2086 0028 5D19     		adds	r5, r3, r5
 2087              	.LVL328:
 2088              	.LBB181:
 2089              	.LBB182:
  47:..\..\..\liblc3\src/tables.h **** }
 2090              		.loc 2 47 0
 2091 002a 0691     		str	r1, [sp, #24]
 2092 002c 8900     		lsls	r1, r1, #2
 2093              	.LVL329:
 2094 002e 3B4A     		ldr	r2, .L134
 2095 0030 8A58     		ldr	r2, [r1, r2]
 2096 0032 0490     		str	r0, [sp, #16]
 2097 0034 411C     		adds	r1, r0, #1
 2098 0036 4A43     		muls	r2, r1
 2099 0038 9046     		mov	r8, r2
 2100              	.LVL330:
 2101              	.LBE182:
 2102              	.LBE181:
 2103              	.LBB183:
 2104              	.LBB184:
  51:..\..\..\liblc3\src/tables.h **** }
 2105              		.loc 2 51 0
 2106 003a B800     		lsls	r0, r7, #2
 2107              	.LVL331:
 2108 003c 384A     		ldr	r2, .L134+4
 2109 003e 8258     		ldr	r2, [r0, r2]
 2110 0040 5143     		muls	r1, r2
 2111 0042 8A46     		mov	r10, r1
 2112              	.LVL332:
 2113              	.LBE184:
 2114              	.LBE183:
 623:..\..\..\liblc3\src/lc3.c ****     float *xs = xf;
 2115              		.loc 1 623 0
ARM GAS  C:\Users\rdn\AppData\Local\Temp\cco7w9JJ.s 			page 58


 2116 0044 B422     		movs	r2, #180
 2117 0046 A258     		ldr	r2, [r4, r2]
 2118 0048 9200     		lsls	r2, r2, #2
 2119 004a 9A18     		adds	r2, r3, r2
 2120 004c 0592     		str	r2, [sp, #20]
 2121              	.LVL333:
 626:..\..\..\liblc3\src/lc3.c ****     float *xh = decoder->x + decoder->xh_off;
 2122              		.loc 1 626 0
 2123 004e B022     		movs	r2, #176
 2124              	.LVL334:
 2125 0050 A258     		ldr	r2, [r4, r2]
 2126 0052 9200     		lsls	r2, r2, #2
 2127 0054 9146     		mov	r9, r2
 2128 0056 9944     		add	r9, r9, r3
 2129              	.LVL335:
 627:..\..\..\liblc3\src/lc3.c **** 
 2130              		.loc 1 627 0
 2131 0058 A822     		movs	r2, #168
 2132 005a A258     		ldr	r2, [r4, r2]
 2133 005c 9200     		lsls	r2, r2, #2
 2134 005e 9B46     		mov	fp, r3
 2135 0060 9344     		add	fp, fp, r2
 2136              	.LVL336:
 629:..\..\..\liblc3\src/lc3.c ****         enum lc3_bandwidth bw = side->bw;
 2137              		.loc 1 629 0
 2138 0062 002E     		cmp	r6, #0
 2139 0064 22D0     		beq	.L128
 2140              	.LBB185:
 630:..\..\..\liblc3\src/lc3.c **** 
 2141              		.loc 1 630 0
 2142 0066 3378     		ldrb	r3, [r6]
 2143 0068 9A46     		mov	r10, r3
 2144              	.LVL337:
 632:..\..\..\liblc3\src/lc3.c **** 
 2145              		.loc 1 632 0
 2146 006a 2300     		movs	r3, r4
 2147 006c 9C33     		adds	r3, r3, #156
 2148 006e 1800     		movs	r0, r3
 2149 0070 FFF7FEFF 		bl	lc3_plc_suspend
 2150              	.LVL338:
 634:..\..\..\liblc3\src/lc3.c **** 
 2151              		.loc 1 634 0
 2152 0074 3300     		movs	r3, r6
 2153 0076 2833     		adds	r3, r3, #40
 2154 0078 1A00     		movs	r2, r3
 2155 007a 2B00     		movs	r3, r5
 2156 007c 5146     		mov	r1, r10
 2157 007e 0498     		ldr	r0, [sp, #16]
 2158 0080 FFF7FEFF 		bl	lc3_tns_synthesize
 2159              	.LVL339:
 636:..\..\..\liblc3\src/lc3.c **** 
 2160              		.loc 1 636 0
 2161 0084 3300     		movs	r3, r6
 2162 0086 0C33     		adds	r3, r3, #12
 2163 0088 1A00     		movs	r2, r3
 2164 008a 059B     		ldr	r3, [sp, #20]
 2165 008c 0093     		str	r3, [sp]
ARM GAS  C:\Users\rdn\AppData\Local\Temp\cco7w9JJ.s 			page 59


 2166 008e 2B00     		movs	r3, r5
 2167 0090 3900     		movs	r1, r7
 2168 0092 0498     		ldr	r0, [sp, #16]
 2169 0094 FFF7FEFF 		bl	lc3_sns_synthesize
 2170              	.LVL340:
 638:..\..\..\liblc3\src/lc3.c **** 
 2171              		.loc 1 638 0
 2172 0098 0195     		str	r5, [sp, #4]
 2173 009a 4846     		mov	r0, r9
 2174 009c 0090     		str	r0, [sp]
 2175 009e 059B     		ldr	r3, [sp, #20]
 2176 00a0 3A00     		movs	r2, r7
 2177 00a2 0699     		ldr	r1, [sp, #24]
 2178 00a4 0498     		ldr	r0, [sp, #16]
 2179 00a6 FFF7FEFF 		bl	lc3_mdct_inverse
 2180              	.LVL341:
 2181              	.LBE185:
 2182 00aa 1AE0     		b	.L129
 2183              	.LVL342:
 2184              	.L128:
 641:..\..\..\liblc3\src/lc3.c **** 
 2185              		.loc 1 641 0
 2186 00ac 2200     		movs	r2, r4
 2187 00ae 9C32     		adds	r2, r2, #156
 2188 00b0 0095     		str	r5, [sp]
 2189 00b2 059B     		ldr	r3, [sp, #20]
 2190 00b4 3900     		movs	r1, r7
 2191 00b6 0498     		ldr	r0, [sp, #16]
 2192 00b8 FFF7FEFF 		bl	lc3_plc_synthesize
 2193              	.LVL343:
 643:..\..\..\liblc3\src/lc3.c **** 
 2194              		.loc 1 643 0
 2195 00bc 5346     		mov	r3, r10
 2196 00be 9800     		lsls	r0, r3, #2
 2197 00c0 4346     		mov	r3, r8
 2198 00c2 5246     		mov	r2, r10
 2199 00c4 9A1A     		subs	r2, r3, r2
 2200 00c6 9200     		lsls	r2, r2, #2
 2201 00c8 2818     		adds	r0, r5, r0
 2202 00ca 0021     		movs	r1, #0
 2203 00cc FFF7FEFF 		bl	memset
 2204              	.LVL344:
 645:..\..\..\liblc3\src/lc3.c ****     }
 2205              		.loc 1 645 0
 2206 00d0 0195     		str	r5, [sp, #4]
 2207 00d2 4B46     		mov	r3, r9
 2208 00d4 0093     		str	r3, [sp]
 2209 00d6 2B00     		movs	r3, r5
 2210 00d8 3A00     		movs	r2, r7
 2211 00da 0699     		ldr	r1, [sp, #24]
 2212 00dc 0498     		ldr	r0, [sp, #16]
 2213 00de FFF7FEFF 		bl	lc3_mdct_inverse
 2214              	.LVL345:
 2215              	.L129:
 648:..\..\..\liblc3\src/lc3.c ****         lc3_ltpf_synthesize(dt, sr_pcm, nbytes, &decoder->ltpf,
 2216              		.loc 1 648 0
 2217 00e2 042F     		cmp	r7, #4
ARM GAS  C:\Users\rdn\AppData\Local\Temp\cco7w9JJ.s 			page 60


 2218 00e4 13D8     		bhi	.L127
 649:..\..\..\liblc3\src/lc3.c ****             side && side->pitch_present ? &side->ltpf : NULL, xh, xs);
 2219              		.loc 1 649 0
 2220 00e6 231D     		adds	r3, r4, #4
 2221 00e8 002E     		cmp	r6, #0
 2222 00ea 04D0     		beq	.L132
 650:..\..\..\liblc3\src/lc3.c **** }
 2223              		.loc 1 650 0
 2224 00ec 7278     		ldrb	r2, [r6, #1]
 2225 00ee 002A     		cmp	r2, #0
 2226 00f0 03D0     		beq	.L133
 649:..\..\..\liblc3\src/lc3.c ****             side && side->pitch_present ? &side->ltpf : NULL, xh, xs);
 2227              		.loc 1 649 0
 2228 00f2 0436     		adds	r6, r6, #4
 2229              	.LVL346:
 2230 00f4 02E0     		b	.L131
 2231              	.LVL347:
 2232              	.L132:
 2233 00f6 0026     		movs	r6, #0
 2234              	.LVL348:
 2235 00f8 00E0     		b	.L131
 2236              	.LVL349:
 2237              	.L133:
 2238 00fa 0026     		movs	r6, #0
 2239              	.LVL350:
 2240              	.L131:
 649:..\..\..\liblc3\src/lc3.c ****             side && side->pitch_present ? &side->ltpf : NULL, xh, xs);
 2241              		.loc 1 649 0 is_stmt 0 discriminator 3
 2242 00fc 0295     		str	r5, [sp, #8]
 2243 00fe 5A46     		mov	r2, fp
 2244 0100 0192     		str	r2, [sp, #4]
 2245 0102 0096     		str	r6, [sp]
 2246 0104 079A     		ldr	r2, [sp, #28]
 2247 0106 0699     		ldr	r1, [sp, #24]
 2248 0108 0498     		ldr	r0, [sp, #16]
 2249 010a FFF7FEFF 		bl	lc3_ltpf_synthesize
 2250              	.LVL351:
 2251              	.L127:
 651:..\..\..\liblc3\src/lc3.c **** 
 2252              		.loc 1 651 0 is_stmt 1
 2253 010e 09B0     		add	sp, sp, #36
 2254              		@ sp needed
 2255              	.LVL352:
 2256              	.LVL353:
 2257              	.LVL354:
 2258              	.LVL355:
 2259              	.LVL356:
 2260 0110 3CBC     		pop	{r2, r3, r4, r5}
 2261 0112 9046     		mov	r8, r2
 2262 0114 9946     		mov	r9, r3
 2263 0116 A246     		mov	r10, r4
 2264 0118 AB46     		mov	fp, r5
 2265 011a F0BD     		pop	{r4, r5, r6, r7, pc}
 2266              	.L135:
 2267              		.align	2
 2268              	.L134:
 2269 011c 00000000 		.word	lc3_ns_2m5
ARM GAS  C:\Users\rdn\AppData\Local\Temp\cco7w9JJ.s 			page 61


 2270 0120 00000000 		.word	lc3_ne_2m5
 2271              		.cfi_endproc
 2272              	.LFE48:
 2273              		.size	synthesize, .-synthesize
 2274              		.section	.text.store_float,"ax",%progbits
 2275              		.align	2
 2276              		.code	16
 2277              		.thumb_func
 2278              		.type	store_float, %function
 2279              	store_float:
 2280              	.LFB46:
 543:..\..\..\liblc3\src/lc3.c ****     float *pcm = _pcm;
 2281              		.loc 1 543 0
 2282              		.cfi_startproc
 2283              		@ args = 0, pretend = 0, frame = 0
 2284              		@ frame_needed = 0, uses_anonymous_args = 0
 2285              	.LVL357:
 2286 0000 F8B5     		push	{r3, r4, r5, r6, r7, lr}
 2287              		.cfi_def_cfa_offset 24
 2288              		.cfi_offset 3, -24
 2289              		.cfi_offset 4, -20
 2290              		.cfi_offset 5, -16
 2291              		.cfi_offset 6, -12
 2292              		.cfi_offset 7, -8
 2293              		.cfi_offset 14, -4
 2294 0002 0E00     		movs	r6, r1
 2295 0004 1700     		movs	r7, r2
 2296              	.LVL358:
 546:..\..\..\liblc3\src/lc3.c ****     enum lc3_srate sr = decoder->sr_pcm;
 2297              		.loc 1 546 0
 2298 0006 0478     		ldrb	r4, [r0]
 2299              	.LVL359:
 547:..\..\..\liblc3\src/lc3.c **** 
 2300              		.loc 1 547 0
 2301 0008 8378     		ldrb	r3, [r0, #2]
 2302              	.LVL360:
 549:..\..\..\liblc3\src/lc3.c ****     int ns = lc3_ns(dt, sr);
 2303              		.loc 1 549 0
 2304 000a 0200     		movs	r2, r0
 2305              	.LVL361:
 2306 000c B832     		adds	r2, r2, #184
 2307 000e AC21     		movs	r1, #172
 2308              	.LVL362:
 2309 0010 4558     		ldr	r5, [r0, r1]
 2310 0012 AD00     		lsls	r5, r5, #2
 2311 0014 5519     		adds	r5, r2, r5
 2312              	.LVL363:
 2313              	.LBB186:
 2314              	.LBB187:
  47:..\..\..\liblc3\src/tables.h **** }
 2315              		.loc 2 47 0
 2316 0016 9B00     		lsls	r3, r3, #2
 2317              	.LVL364:
 2318 0018 0D4A     		ldr	r2, .L140
 2319 001a 9B58     		ldr	r3, [r3, r2]
 2320 001c 0134     		adds	r4, r4, #1
 2321              	.LVL365:
ARM GAS  C:\Users\rdn\AppData\Local\Temp\cco7w9JJ.s 			page 62


 2322 001e 5C43     		muls	r4, r3
 2323              	.LVL366:
 2324              	.LBE187:
 2325              	.LBE186:
 552:..\..\..\liblc3\src/lc3.c ****         float s = lc3_ldexpf(*xs, -15);
 2326              		.loc 1 552 0
 2327 0020 13E0     		b	.L137
 2328              	.LVL367:
 2329              	.L139:
 2330              	.LBB188:
 553:..\..\..\liblc3\src/lc3.c ****         *pcm = fminf(fmaxf(s, -1.f), 1.f);
 2331              		.loc 1 553 0 discriminator 2
 2332 0022 2B68     		ldr	r3, [r5]
 2333              	.LVL368:
 2334              	.LBB189:
 2335              	.LBB190:
  45:..\..\..\liblc3\src/fastmath.h **** 
 2336              		.loc 3 45 0 discriminator 2
 2337 0024 1800     		movs	r0, r3
 2338              	.LVL369:
  47:..\..\..\liblc3\src/fastmath.h ****         x.s += exp << LC3_IEEE754_EXP_SHL;
 2339              		.loc 3 47 0 discriminator 2
 2340 0026 FF22     		movs	r2, #255
 2341 0028 D205     		lsls	r2, r2, #23
 2342 002a 1A42     		tst	r2, r3
 2343 002c 01D0     		beq	.L138
 2344              		.loc 3 48 0
 2345 002e 094A     		ldr	r2, .L140+4
 2346 0030 9818     		adds	r0, r3, r2
 2347              	.L138:
 2348              	.LVL370:
 2349              	.LBE190:
 2350              	.LBE189:
 554:..\..\..\liblc3\src/lc3.c ****     }
 2351              		.loc 1 554 0
 2352 0032 0949     		ldr	r1, .L140+8
 2353 0034 FFF7FEFF 		bl	fmaxf
 2354              	.LVL371:
 2355 0038 FE21     		movs	r1, #254
 2356 003a 8905     		lsls	r1, r1, #22
 2357 003c FFF7FEFF 		bl	fminf
 2358              	.LVL372:
 2359 0040 3060     		str	r0, [r6]
 2360              	.LBE188:
 552:..\..\..\liblc3\src/lc3.c ****         float s = lc3_ldexpf(*xs, -15);
 2361              		.loc 1 552 0
 2362 0042 013C     		subs	r4, r4, #1
 2363              	.LVL373:
 2364 0044 0435     		adds	r5, r5, #4
 2365              	.LVL374:
 2366 0046 BB00     		lsls	r3, r7, #2
 2367 0048 F618     		adds	r6, r6, r3
 2368              	.LVL375:
 2369              	.L137:
 552:..\..\..\liblc3\src/lc3.c ****         float s = lc3_ldexpf(*xs, -15);
 2370              		.loc 1 552 0 is_stmt 0 discriminator 1
 2371 004a 002C     		cmp	r4, #0
ARM GAS  C:\Users\rdn\AppData\Local\Temp\cco7w9JJ.s 			page 63


 2372 004c E9DC     		bgt	.L139
 556:..\..\..\liblc3\src/lc3.c **** 
 2373              		.loc 1 556 0 is_stmt 1
 2374              		@ sp needed
 2375              	.LVL376:
 2376              	.LVL377:
 2377              	.LVL378:
 2378              	.LVL379:
 2379 004e F8BD     		pop	{r3, r4, r5, r6, r7, pc}
 2380              	.L141:
 2381              		.align	2
 2382              	.L140:
 2383 0050 00000000 		.word	lc3_ns_2m5
 2384 0054 000080F8 		.word	-125829120
 2385 0058 000080BF 		.word	-1082130432
 2386              		.cfi_endproc
 2387              	.LFE46:
 2388              		.size	store_float, .-store_float
 2389              		.section	.text.lc3_hr_frame_samples,"ax",%progbits
 2390              		.align	2
 2391              		.global	lc3_hr_frame_samples
 2392              		.code	16
 2393              		.thumb_func
 2394              		.type	lc3_hr_frame_samples, %function
 2395              	lc3_hr_frame_samples:
 2396              	.LFB22:
  90:..\..\..\liblc3\src/lc3.c ****     enum lc3_dt dt = resolve_dt(dt_us, hrmode);
 2397              		.loc 1 90 0
 2398              		.cfi_startproc
 2399              		@ args = 0, pretend = 0, frame = 0
 2400              		@ frame_needed = 0, uses_anonymous_args = 0
 2401              	.LVL380:
 2402 0000 F8B5     		push	{r3, r4, r5, r6, r7, lr}
 2403              		.cfi_def_cfa_offset 24
 2404              		.cfi_offset 3, -24
 2405              		.cfi_offset 4, -20
 2406              		.cfi_offset 5, -16
 2407              		.cfi_offset 6, -12
 2408              		.cfi_offset 7, -8
 2409              		.cfi_offset 14, -4
 2410 0002 0500     		movs	r5, r0
 2411 0004 0800     		movs	r0, r1
 2412              	.LVL381:
 2413 0006 1700     		movs	r7, r2
  91:..\..\..\liblc3\src/lc3.c ****     enum lc3_srate sr = resolve_srate(sr_hz, hrmode);
 2414              		.loc 1 91 0
 2415 0008 2900     		movs	r1, r5
 2416              	.LVL382:
 2417 000a FFF7FEFF 		bl	resolve_dt
 2418              	.LVL383:
 2419 000e 0400     		movs	r4, r0
 2420              	.LVL384:
  92:..\..\..\liblc3\src/lc3.c **** 
 2421              		.loc 1 92 0
 2422 0010 2900     		movs	r1, r5
 2423 0012 3800     		movs	r0, r7
 2424 0014 FFF7FEFF 		bl	resolve_srate
ARM GAS  C:\Users\rdn\AppData\Local\Temp\cco7w9JJ.s 			page 64


 2425              	.LVL385:
  94:..\..\..\liblc3\src/lc3.c ****         return -1;
 2426              		.loc 1 94 0
 2427 0018 032C     		cmp	r4, #3
 2428 001a 07D8     		bhi	.L144
  94:..\..\..\liblc3\src/lc3.c ****         return -1;
 2429              		.loc 1 94 0 is_stmt 0 discriminator 1
 2430 001c 0628     		cmp	r0, #6
 2431 001e 08D8     		bhi	.L145
 2432              	.LVL386:
 2433              	.LBB191:
 2434              	.LBB192:
  47:..\..\..\liblc3\src/tables.h **** }
 2435              		.loc 2 47 0 is_stmt 1
 2436 0020 8000     		lsls	r0, r0, #2
 2437              	.LVL387:
 2438 0022 054B     		ldr	r3, .L146
 2439 0024 C058     		ldr	r0, [r0, r3]
 2440 0026 0134     		adds	r4, r4, #1
 2441              	.LVL388:
 2442 0028 6043     		muls	r0, r4
 2443              	.LBE192:
 2444              	.LBE191:
  97:..\..\..\liblc3\src/lc3.c **** }
 2445              		.loc 1 97 0
 2446 002a 04E0     		b	.L143
 2447              	.LVL389:
 2448              	.L144:
  95:..\..\..\liblc3\src/lc3.c **** 
 2449              		.loc 1 95 0
 2450 002c 0120     		movs	r0, #1
 2451              	.LVL390:
 2452 002e 4042     		rsbs	r0, r0, #0
 2453 0030 01E0     		b	.L143
 2454              	.LVL391:
 2455              	.L145:
 2456 0032 0120     		movs	r0, #1
 2457              	.LVL392:
 2458 0034 4042     		rsbs	r0, r0, #0
 2459              	.LVL393:
 2460              	.L143:
  98:..\..\..\liblc3\src/lc3.c **** 
 2461              		.loc 1 98 0
 2462              		@ sp needed
 2463              	.LVL394:
 2464 0036 F8BD     		pop	{r3, r4, r5, r6, r7, pc}
 2465              	.L147:
 2466              		.align	2
 2467              	.L146:
 2468 0038 00000000 		.word	lc3_ns_2m5
 2469              		.cfi_endproc
 2470              	.LFE22:
 2471              		.size	lc3_hr_frame_samples, .-lc3_hr_frame_samples
 2472              		.section	.text.lc3_frame_samples,"ax",%progbits
 2473              		.align	2
 2474              		.global	lc3_frame_samples
 2475              		.code	16
ARM GAS  C:\Users\rdn\AppData\Local\Temp\cco7w9JJ.s 			page 65


 2476              		.thumb_func
 2477              		.type	lc3_frame_samples, %function
 2478              	lc3_frame_samples:
 2479              	.LFB23:
 101:..\..\..\liblc3\src/lc3.c ****     return lc3_hr_frame_samples(false, dt_us, sr_hz);
 2480              		.loc 1 101 0
 2481              		.cfi_startproc
 2482              		@ args = 0, pretend = 0, frame = 0
 2483              		@ frame_needed = 0, uses_anonymous_args = 0
 2484              	.LVL395:
 2485 0000 10B5     		push	{r4, lr}
 2486              		.cfi_def_cfa_offset 8
 2487              		.cfi_offset 4, -8
 2488              		.cfi_offset 14, -4
 2489 0002 0A00     		movs	r2, r1
 102:..\..\..\liblc3\src/lc3.c **** }
 2490              		.loc 1 102 0
 2491 0004 0100     		movs	r1, r0
 2492              	.LVL396:
 2493 0006 0020     		movs	r0, #0
 2494              	.LVL397:
 2495 0008 FFF7FEFF 		bl	lc3_hr_frame_samples
 2496              	.LVL398:
 103:..\..\..\liblc3\src/lc3.c **** 
 2497              		.loc 1 103 0
 2498              		@ sp needed
 2499 000c 10BD     		pop	{r4, pc}
 2500              		.cfi_endproc
 2501              	.LFE23:
 2502              		.size	lc3_frame_samples, .-lc3_frame_samples
 2503              		.global	__aeabi_idiv
 2504 000e C046     		.section	.text.lc3_hr_frame_block_bytes,"ax",%progbits
 2505              		.align	2
 2506              		.global	lc3_hr_frame_block_bytes
 2507              		.code	16
 2508              		.thumb_func
 2509              		.type	lc3_hr_frame_block_bytes, %function
 2510              	lc3_hr_frame_block_bytes:
 2511              	.LFB24:
 110:..\..\..\liblc3\src/lc3.c ****     enum lc3_dt dt = resolve_dt(dt_us, hrmode);
 2512              		.loc 1 110 0
 2513              		.cfi_startproc
 2514              		@ args = 4, pretend = 0, frame = 0
 2515              		@ frame_needed = 0, uses_anonymous_args = 0
 2516              	.LVL399:
 2517 0000 F0B5     		push	{r4, r5, r6, r7, lr}
 2518              		.cfi_def_cfa_offset 20
 2519              		.cfi_offset 4, -20
 2520              		.cfi_offset 5, -16
 2521              		.cfi_offset 6, -12
 2522              		.cfi_offset 7, -8
 2523              		.cfi_offset 14, -4
 2524 0002 4746     		mov	r7, r8
 2525 0004 80B4     		push	{r7}
 2526              		.cfi_def_cfa_offset 24
 2527              		.cfi_offset 8, -24
 2528 0006 0400     		movs	r4, r0
ARM GAS  C:\Users\rdn\AppData\Local\Temp\cco7w9JJ.s 			page 66


 2529 0008 0800     		movs	r0, r1
 2530              	.LVL400:
 2531 000a 1700     		movs	r7, r2
 2532 000c 1D00     		movs	r5, r3
 111:..\..\..\liblc3\src/lc3.c ****     enum lc3_srate sr = resolve_srate(sr_hz, hrmode);
 2533              		.loc 1 111 0
 2534 000e 2100     		movs	r1, r4
 2535              	.LVL401:
 2536 0010 FFF7FEFF 		bl	resolve_dt
 2537              	.LVL402:
 2538 0014 0600     		movs	r6, r0
 2539              	.LVL403:
 112:..\..\..\liblc3\src/lc3.c **** 
 2540              		.loc 1 112 0
 2541 0016 2100     		movs	r1, r4
 2542 0018 3800     		movs	r0, r7
 2543              	.LVL404:
 2544 001a FFF7FEFF 		bl	resolve_srate
 2545              	.LVL405:
 2546 001e 0400     		movs	r4, r0
 2547 0020 0700     		movs	r7, r0
 2548              	.LVL406:
 114:..\..\..\liblc3\src/lc3.c ****             || nchannels < 1 || nchannels > 8 || bitrate < 0)
 2549              		.loc 1 114 0
 2550 0022 032E     		cmp	r6, #3
 2551 0024 67D8     		bhi	.L161
 114:..\..\..\liblc3\src/lc3.c ****             || nchannels < 1 || nchannels > 8 || bitrate < 0)
 2552              		.loc 1 114 0 is_stmt 0 discriminator 1
 2553 0026 0628     		cmp	r0, #6
 2554 0028 68D8     		bhi	.L162
 115:..\..\..\liblc3\src/lc3.c ****         return -1;
 2555              		.loc 1 115 0 is_stmt 1
 2556 002a 002D     		cmp	r5, #0
 2557 002c 69DD     		ble	.L163
 115:..\..\..\liblc3\src/lc3.c ****         return -1;
 2558              		.loc 1 115 0 is_stmt 0 discriminator 1
 2559 002e 082D     		cmp	r5, #8
 2560 0030 6ADC     		bgt	.L164
 115:..\..\..\liblc3\src/lc3.c ****         return -1;
 2561              		.loc 1 115 0 discriminator 2
 2562 0032 069B     		ldr	r3, [sp, #24]
 2563 0034 002B     		cmp	r3, #0
 2564 0036 6ADB     		blt	.L165
 118:..\..\..\liblc3\src/lc3.c **** 
 2565              		.loc 1 118 0 is_stmt 1
 2566 0038 374B     		ldr	r3, .L174
 2567 003a 069A     		ldr	r2, [sp, #24]
 2568 003c 9A42     		cmp	r2, r3
 2569 003e 03DC     		bgt	.L166
 118:..\..\..\liblc3\src/lc3.c **** 
 2570              		.loc 1 118 0 is_stmt 0 discriminator 1
 2571 0040 101E     		subs	r0, r2, #0
 2572              	.LVL407:
 2573 0042 02DA     		bge	.L151
 2574 0044 0020     		movs	r0, #0
 2575 0046 00E0     		b	.L151
 2576              	.LVL408:
ARM GAS  C:\Users\rdn\AppData\Local\Temp\cco7w9JJ.s 			page 67


 2577              	.L166:
 118:..\..\..\liblc3\src/lc3.c **** 
 2578              		.loc 1 118 0
 2579 0048 3448     		ldr	r0, .L174+4
 2580              	.LVL409:
 2581              	.L151:
 120:..\..\..\liblc3\src/lc3.c ****         nchannels * lc3_min_frame_bytes(dt, sr),
 2582              		.loc 1 120 0 is_stmt 1 discriminator 4
 2583 004a 731C     		adds	r3, r6, #1
 2584 004c 5843     		muls	r0, r3
 2585              	.LVL410:
 2586 004e C821     		movs	r1, #200
 2587 0050 0901     		lsls	r1, r1, #4
 2588 0052 FFF7FEFF 		bl	__aeabi_idiv
 2589              	.LVL411:
 2590              	.LBB193:
 2591              	.LBB194:
  66:..\..\..\liblc3\src/tables.h **** }
  67:..\..\..\liblc3\src/tables.h **** 
  68:..\..\..\liblc3\src/tables.h **** #define LC3_MAX_SRATE_HZ  ( LC3_PLUS_HR ? 96000 : 48000 )
  69:..\..\..\liblc3\src/tables.h **** 
  70:..\..\..\liblc3\src/tables.h **** #define LC3_MAX_NS  ( LC3_NS(10000, LC3_MAX_SRATE_HZ) )
  71:..\..\..\liblc3\src/tables.h **** #define LC3_MAX_NE  ( LC3_PLUS_HR ? LC3_MAX_NS : LC3_NS(10000, 40000) )
  72:..\..\..\liblc3\src/tables.h **** 
  73:..\..\..\liblc3\src/tables.h **** 
  74:..\..\..\liblc3\src/tables.h **** /**
  75:..\..\..\liblc3\src/tables.h ****  * Limits on size of frame
  76:..\..\..\liblc3\src/tables.h ****  */
  77:..\..\..\liblc3\src/tables.h **** 
  78:..\..\..\liblc3\src/tables.h **** extern const int lc3_frame_bytes_hr_lim
  79:..\..\..\liblc3\src/tables.h ****         [LC3_NUM_DT][LC3_NUM_SRATE - LC3_SRATE_48K_HR][2];
  80:..\..\..\liblc3\src/tables.h **** 
  81:..\..\..\liblc3\src/tables.h **** static inline int lc3_min_frame_bytes(enum lc3_dt dt, enum lc3_srate sr) {
  82:..\..\..\liblc3\src/tables.h ****     return !lc3_hr(sr) ? LC3_MIN_FRAME_BYTES :
 2592              		.loc 2 82 0 discriminator 4
 2593 0056 042F     		cmp	r7, #4
 2594 0058 06D9     		bls	.L167
  83:..\..\..\liblc3\src/tables.h ****         lc3_frame_bytes_hr_lim[dt][sr - LC3_SRATE_48K_HR][0];
 2595              		.loc 2 83 0
 2596 005a 631F     		subs	r3, r4, #5
  82:..\..\..\liblc3\src/tables.h ****         lc3_frame_bytes_hr_lim[dt][sr - LC3_SRATE_48K_HR][0];
 2597              		.loc 2 82 0
 2598 005c 7200     		lsls	r2, r6, #1
 2599 005e D318     		adds	r3, r2, r3
 2600 0060 DB00     		lsls	r3, r3, #3
 2601 0062 2F4A     		ldr	r2, .L174+8
 2602 0064 9B58     		ldr	r3, [r3, r2]
 2603 0066 00E0     		b	.L153
 2604              	.L167:
 2605 0068 1423     		movs	r3, #20
 2606              	.L153:
 2607              	.LVL412:
 2608              	.LBE194:
 2609              	.LBE193:
 120:..\..\..\liblc3\src/lc3.c ****         nchannels * lc3_min_frame_bytes(dt, sr),
 2610              		.loc 1 120 0
 2611 006a 6B43     		muls	r3, r5
ARM GAS  C:\Users\rdn\AppData\Local\Temp\cco7w9JJ.s 			page 68


 2612 006c 9842     		cmp	r0, r3
 2613 006e 0BDC     		bgt	.L168
 2614              	.LVL413:
 2615              	.LBB195:
 2616              	.LBB196:
  82:..\..\..\liblc3\src/tables.h ****         lc3_frame_bytes_hr_lim[dt][sr - LC3_SRATE_48K_HR][0];
 2617              		.loc 2 82 0
 2618 0070 042F     		cmp	r7, #4
 2619 0072 06D9     		bls	.L169
 2620              		.loc 2 83 0
 2621 0074 631F     		subs	r3, r4, #5
  82:..\..\..\liblc3\src/tables.h ****         lc3_frame_bytes_hr_lim[dt][sr - LC3_SRATE_48K_HR][0];
 2622              		.loc 2 82 0
 2623 0076 7200     		lsls	r2, r6, #1
 2624 0078 D318     		adds	r3, r2, r3
 2625 007a DB00     		lsls	r3, r3, #3
 2626 007c 284A     		ldr	r2, .L174+8
 2627 007e 9A58     		ldr	r2, [r3, r2]
 2628 0080 00E0     		b	.L155
 2629              	.L169:
 2630 0082 1422     		movs	r2, #20
 2631              	.L155:
 2632              	.LVL414:
 2633              	.LBE196:
 2634              	.LBE195:
 120:..\..\..\liblc3\src/lc3.c ****         nchannels * lc3_min_frame_bytes(dt, sr),
 2635              		.loc 1 120 0
 2636 0084 6A43     		muls	r2, r5
 2637 0086 00E0     		b	.L154
 2638              	.L168:
 2639 0088 0200     		movs	r2, r0
 2640              	.L154:
 2641              	.LVL415:
 2642              	.LBB197:
 2643              	.LBB198:
  84:..\..\..\liblc3\src/tables.h **** }
  85:..\..\..\liblc3\src/tables.h **** 
  86:..\..\..\liblc3\src/tables.h **** static inline int lc3_max_frame_bytes(enum lc3_dt dt, enum lc3_srate sr) {
  87:..\..\..\liblc3\src/tables.h ****     return !lc3_hr(sr) ? LC3_MAX_FRAME_BYTES :
 2644              		.loc 2 87 0 discriminator 4
 2645 008a 042F     		cmp	r7, #4
 2646 008c 07D9     		bls	.L170
  88:..\..\..\liblc3\src/tables.h ****         lc3_frame_bytes_hr_lim[dt][sr - LC3_SRATE_48K_HR][1];
 2647              		.loc 2 88 0
 2648 008e 631F     		subs	r3, r4, #5
  87:..\..\..\liblc3\src/tables.h ****         lc3_frame_bytes_hr_lim[dt][sr - LC3_SRATE_48K_HR][1];
 2649              		.loc 2 87 0
 2650 0090 7100     		lsls	r1, r6, #1
 2651 0092 CB18     		adds	r3, r1, r3
 2652 0094 DB00     		lsls	r3, r3, #3
 2653 0096 2249     		ldr	r1, .L174+8
 2654 0098 CB18     		adds	r3, r1, r3
 2655 009a 5B68     		ldr	r3, [r3, #4]
 2656 009c 01E0     		b	.L156
 2657              	.L170:
 2658 009e C823     		movs	r3, #200
 2659 00a0 5B00     		lsls	r3, r3, #1
ARM GAS  C:\Users\rdn\AppData\Local\Temp\cco7w9JJ.s 			page 69


 2660              	.L156:
 2661              	.LVL416:
 2662              	.LBE198:
 2663              	.LBE197:
 120:..\..\..\liblc3\src/lc3.c ****         nchannels * lc3_min_frame_bytes(dt, sr),
 2664              		.loc 1 120 0
 2665 00a2 6B43     		muls	r3, r5
 2666 00a4 9A42     		cmp	r2, r3
 2667 00a6 18DA     		bge	.L157
 2668              	.LVL417:
 2669              	.LBB199:
 2670              	.LBB200:
  82:..\..\..\liblc3\src/tables.h ****         lc3_frame_bytes_hr_lim[dt][sr - LC3_SRATE_48K_HR][0];
 2671              		.loc 2 82 0 discriminator 5
 2672 00a8 042F     		cmp	r7, #4
 2673 00aa 06D9     		bls	.L171
  83:..\..\..\liblc3\src/tables.h **** }
 2674              		.loc 2 83 0
 2675 00ac 631F     		subs	r3, r4, #5
  82:..\..\..\liblc3\src/tables.h ****         lc3_frame_bytes_hr_lim[dt][sr - LC3_SRATE_48K_HR][0];
 2676              		.loc 2 82 0
 2677 00ae 7200     		lsls	r2, r6, #1
 2678 00b0 D318     		adds	r3, r2, r3
 2679 00b2 DB00     		lsls	r3, r3, #3
 2680 00b4 1A4A     		ldr	r2, .L174+8
 2681 00b6 9B58     		ldr	r3, [r3, r2]
 2682 00b8 00E0     		b	.L158
 2683              	.L171:
 2684 00ba 1423     		movs	r3, #20
 2685              	.L158:
 2686              	.LVL418:
 2687              	.LBE200:
 2688              	.LBE199:
 120:..\..\..\liblc3\src/lc3.c ****         nchannels * lc3_min_frame_bytes(dt, sr),
 2689              		.loc 1 120 0
 2690 00bc 6B43     		muls	r3, r5
 2691 00be 9842     		cmp	r0, r3
 2692 00c0 27DC     		bgt	.L150
 2693              	.LVL419:
 2694              	.LBB201:
 2695              	.LBB202:
  82:..\..\..\liblc3\src/tables.h ****         lc3_frame_bytes_hr_lim[dt][sr - LC3_SRATE_48K_HR][0];
 2696              		.loc 2 82 0
 2697 00c2 042F     		cmp	r7, #4
 2698 00c4 06D9     		bls	.L172
  83:..\..\..\liblc3\src/tables.h **** }
 2699              		.loc 2 83 0
 2700 00c6 053C     		subs	r4, r4, #5
 2701              	.LVL420:
  82:..\..\..\liblc3\src/tables.h ****         lc3_frame_bytes_hr_lim[dt][sr - LC3_SRATE_48K_HR][0];
 2702              		.loc 2 82 0
 2703 00c8 7600     		lsls	r6, r6, #1
 2704              	.LVL421:
 2705 00ca 3419     		adds	r4, r6, r4
 2706 00cc E400     		lsls	r4, r4, #3
 2707 00ce 144B     		ldr	r3, .L174+8
 2708 00d0 E058     		ldr	r0, [r4, r3]
ARM GAS  C:\Users\rdn\AppData\Local\Temp\cco7w9JJ.s 			page 70


 2709 00d2 00E0     		b	.L159
 2710              	.LVL422:
 2711              	.L172:
 2712 00d4 1420     		movs	r0, #20
 2713              	.LVL423:
 2714              	.L159:
 2715              	.LBE202:
 2716              	.LBE201:
 120:..\..\..\liblc3\src/lc3.c ****         nchannels * lc3_min_frame_bytes(dt, sr),
 2717              		.loc 1 120 0
 2718 00d6 6843     		muls	r0, r5
 2719 00d8 1BE0     		b	.L150
 2720              	.LVL424:
 2721              	.L157:
 2722              	.LBB203:
 2723              	.LBB204:
  87:..\..\..\liblc3\src/tables.h ****         lc3_frame_bytes_hr_lim[dt][sr - LC3_SRATE_48K_HR][1];
 2724              		.loc 2 87 0
 2725 00da 042F     		cmp	r7, #4
 2726 00dc 07D9     		bls	.L173
 2727              		.loc 2 88 0
 2728 00de 631F     		subs	r3, r4, #5
  87:..\..\..\liblc3\src/tables.h ****         lc3_frame_bytes_hr_lim[dt][sr - LC3_SRATE_48K_HR][1];
 2729              		.loc 2 87 0
 2730 00e0 7400     		lsls	r4, r6, #1
 2731              	.LVL425:
 2732 00e2 E418     		adds	r4, r4, r3
 2733 00e4 E400     		lsls	r4, r4, #3
 2734 00e6 0E4B     		ldr	r3, .L174+8
 2735 00e8 1C19     		adds	r4, r3, r4
 2736 00ea 6068     		ldr	r0, [r4, #4]
 2737 00ec 01E0     		b	.L160
 2738              	.LVL426:
 2739              	.L173:
 2740 00ee C820     		movs	r0, #200
 2741 00f0 4000     		lsls	r0, r0, #1
 2742              	.LVL427:
 2743              	.L160:
 2744              	.LBE204:
 2745              	.LBE203:
 120:..\..\..\liblc3\src/lc3.c ****         nchannels * lc3_min_frame_bytes(dt, sr),
 2746              		.loc 1 120 0
 2747 00f2 6843     		muls	r0, r5
 2748 00f4 0DE0     		b	.L150
 2749              	.LVL428:
 2750              	.L161:
 116:..\..\..\liblc3\src/lc3.c **** 
 2751              		.loc 1 116 0
 2752 00f6 0120     		movs	r0, #1
 2753              	.LVL429:
 2754 00f8 4042     		rsbs	r0, r0, #0
 2755 00fa 0AE0     		b	.L150
 2756              	.LVL430:
 2757              	.L162:
 2758 00fc 0120     		movs	r0, #1
 2759              	.LVL431:
 2760 00fe 4042     		rsbs	r0, r0, #0
ARM GAS  C:\Users\rdn\AppData\Local\Temp\cco7w9JJ.s 			page 71


 2761 0100 07E0     		b	.L150
 2762              	.LVL432:
 2763              	.L163:
 2764 0102 0120     		movs	r0, #1
 2765              	.LVL433:
 2766 0104 4042     		rsbs	r0, r0, #0
 2767 0106 04E0     		b	.L150
 2768              	.LVL434:
 2769              	.L164:
 2770 0108 0120     		movs	r0, #1
 2771              	.LVL435:
 2772 010a 4042     		rsbs	r0, r0, #0
 2773 010c 01E0     		b	.L150
 2774              	.LVL436:
 2775              	.L165:
 2776 010e 0120     		movs	r0, #1
 2777              	.LVL437:
 2778 0110 4042     		rsbs	r0, r0, #0
 2779              	.LVL438:
 2780              	.L150:
 123:..\..\..\liblc3\src/lc3.c **** 
 2781              		.loc 1 123 0
 2782              		@ sp needed
 2783              	.LVL439:
 2784 0112 04BC     		pop	{r2}
 2785 0114 9046     		mov	r8, r2
 2786 0116 F0BD     		pop	{r4, r5, r6, r7, pc}
 2787              	.L175:
 2788              		.align	2
 2789              	.L174:
 2790 0118 FF075200 		.word	5375999
 2791 011c 00085200 		.word	5376000
 2792 0120 00000000 		.word	lc3_frame_bytes_hr_lim
 2793              		.cfi_endproc
 2794              	.LFE24:
 2795              		.size	lc3_hr_frame_block_bytes, .-lc3_hr_frame_block_bytes
 2796              		.section	.text.lc3_frame_bock_bytes,"ax",%progbits
 2797              		.align	2
 2798              		.global	lc3_frame_bock_bytes
 2799              		.code	16
 2800              		.thumb_func
 2801              		.type	lc3_frame_bock_bytes, %function
 2802              	lc3_frame_bock_bytes:
 2803              	.LFB25:
 126:..\..\..\liblc3\src/lc3.c ****     return lc3_hr_frame_block_bytes(false, dt_us, 8000, nchannels, bitrate);
 2804              		.loc 1 126 0
 2805              		.cfi_startproc
 2806              		@ args = 0, pretend = 0, frame = 0
 2807              		@ frame_needed = 0, uses_anonymous_args = 0
 2808              	.LVL440:
 2809 0000 00B5     		push	{lr}
 2810              		.cfi_def_cfa_offset 4
 2811              		.cfi_offset 14, -4
 2812 0002 83B0     		sub	sp, sp, #12
 2813              		.cfi_def_cfa_offset 16
 2814 0004 0B00     		movs	r3, r1
 127:..\..\..\liblc3\src/lc3.c **** }
ARM GAS  C:\Users\rdn\AppData\Local\Temp\cco7w9JJ.s 			page 72


 2815              		.loc 1 127 0
 2816 0006 0092     		str	r2, [sp]
 2817 0008 FA22     		movs	r2, #250
 2818              	.LVL441:
 2819 000a 5201     		lsls	r2, r2, #5
 2820 000c 0100     		movs	r1, r0
 2821              	.LVL442:
 2822 000e 0020     		movs	r0, #0
 2823              	.LVL443:
 2824 0010 FFF7FEFF 		bl	lc3_hr_frame_block_bytes
 2825              	.LVL444:
 128:..\..\..\liblc3\src/lc3.c **** 
 2826              		.loc 1 128 0
 2827 0014 03B0     		add	sp, sp, #12
 2828              		@ sp needed
 2829 0016 00BD     		pop	{pc}
 2830              		.cfi_endproc
 2831              	.LFE25:
 2832              		.size	lc3_frame_bock_bytes, .-lc3_frame_bock_bytes
 2833              		.section	.text.lc3_hr_frame_bytes,"ax",%progbits
 2834              		.align	2
 2835              		.global	lc3_hr_frame_bytes
 2836              		.code	16
 2837              		.thumb_func
 2838              		.type	lc3_hr_frame_bytes, %function
 2839              	lc3_hr_frame_bytes:
 2840              	.LFB26:
 132:..\..\..\liblc3\src/lc3.c ****     return lc3_hr_frame_block_bytes(hrmode, dt_us, sr_hz, 1, bitrate);
 2841              		.loc 1 132 0
 2842              		.cfi_startproc
 2843              		@ args = 0, pretend = 0, frame = 0
 2844              		@ frame_needed = 0, uses_anonymous_args = 0
 2845              	.LVL445:
 2846 0000 00B5     		push	{lr}
 2847              		.cfi_def_cfa_offset 4
 2848              		.cfi_offset 14, -4
 2849 0002 83B0     		sub	sp, sp, #12
 2850              		.cfi_def_cfa_offset 16
 133:..\..\..\liblc3\src/lc3.c **** }
 2851              		.loc 1 133 0
 2852 0004 0093     		str	r3, [sp]
 2853 0006 0123     		movs	r3, #1
 2854              	.LVL446:
 2855 0008 FFF7FEFF 		bl	lc3_hr_frame_block_bytes
 2856              	.LVL447:
 134:..\..\..\liblc3\src/lc3.c **** 
 2857              		.loc 1 134 0
 2858 000c 03B0     		add	sp, sp, #12
 2859              		@ sp needed
 2860 000e 00BD     		pop	{pc}
 2861              		.cfi_endproc
 2862              	.LFE26:
 2863              		.size	lc3_hr_frame_bytes, .-lc3_hr_frame_bytes
 2864              		.section	.text.lc3_frame_bytes,"ax",%progbits
 2865              		.align	2
 2866              		.global	lc3_frame_bytes
 2867              		.code	16
ARM GAS  C:\Users\rdn\AppData\Local\Temp\cco7w9JJ.s 			page 73


 2868              		.thumb_func
 2869              		.type	lc3_frame_bytes, %function
 2870              	lc3_frame_bytes:
 2871              	.LFB27:
 137:..\..\..\liblc3\src/lc3.c ****     return lc3_hr_frame_bytes(false, dt_us, 8000, bitrate);
 2872              		.loc 1 137 0
 2873              		.cfi_startproc
 2874              		@ args = 0, pretend = 0, frame = 0
 2875              		@ frame_needed = 0, uses_anonymous_args = 0
 2876              	.LVL448:
 2877 0000 10B5     		push	{r4, lr}
 2878              		.cfi_def_cfa_offset 8
 2879              		.cfi_offset 4, -8
 2880              		.cfi_offset 14, -4
 2881 0002 0B00     		movs	r3, r1
 138:..\..\..\liblc3\src/lc3.c **** }
 2882              		.loc 1 138 0
 2883 0004 FA22     		movs	r2, #250
 2884 0006 5201     		lsls	r2, r2, #5
 2885 0008 0100     		movs	r1, r0
 2886              	.LVL449:
 2887 000a 0020     		movs	r0, #0
 2888              	.LVL450:
 2889 000c FFF7FEFF 		bl	lc3_hr_frame_bytes
 2890              	.LVL451:
 139:..\..\..\liblc3\src/lc3.c **** 
 2891              		.loc 1 139 0
 2892              		@ sp needed
 2893 0010 10BD     		pop	{r4, pc}
 2894              		.cfi_endproc
 2895              	.LFE27:
 2896              		.size	lc3_frame_bytes, .-lc3_frame_bytes
 2897              		.global	__aeabi_lmul
 2898              		.global	__aeabi_ldivmod
 2899 0012 C046     		.section	.text.lc3_hr_resolve_bitrate,"ax",%progbits
 2900              		.align	2
 2901              		.global	lc3_hr_resolve_bitrate
 2902              		.code	16
 2903              		.thumb_func
 2904              		.type	lc3_hr_resolve_bitrate, %function
 2905              	lc3_hr_resolve_bitrate:
 2906              	.LFB28:
 146:..\..\..\liblc3\src/lc3.c ****     enum lc3_dt dt = resolve_dt(dt_us, hrmode);
 2907              		.loc 1 146 0
 2908              		.cfi_startproc
 2909              		@ args = 0, pretend = 0, frame = 8
 2910              		@ frame_needed = 0, uses_anonymous_args = 0
 2911              	.LVL452:
 2912 0000 F0B5     		push	{r4, r5, r6, r7, lr}
 2913              		.cfi_def_cfa_offset 20
 2914              		.cfi_offset 4, -20
 2915              		.cfi_offset 5, -16
 2916              		.cfi_offset 6, -12
 2917              		.cfi_offset 7, -8
 2918              		.cfi_offset 14, -4
 2919 0002 83B0     		sub	sp, sp, #12
 2920              		.cfi_def_cfa_offset 32
ARM GAS  C:\Users\rdn\AppData\Local\Temp\cco7w9JJ.s 			page 74


 2921 0004 0600     		movs	r6, r0
 2922 0006 0800     		movs	r0, r1
 2923              	.LVL453:
 2924 0008 0192     		str	r2, [sp, #4]
 2925 000a 1D00     		movs	r5, r3
 147:..\..\..\liblc3\src/lc3.c ****     enum lc3_srate sr = resolve_srate(sr_hz, hrmode);
 2926              		.loc 1 147 0
 2927 000c 3100     		movs	r1, r6
 2928              	.LVL454:
 2929 000e FFF7FEFF 		bl	resolve_dt
 2930              	.LVL455:
 2931 0012 0400     		movs	r4, r0
 2932              	.LVL456:
 148:..\..\..\liblc3\src/lc3.c **** 
 2933              		.loc 1 148 0
 2934 0014 3100     		movs	r1, r6
 2935 0016 0198     		ldr	r0, [sp, #4]
 2936 0018 FFF7FEFF 		bl	resolve_srate
 2937              	.LVL457:
 150:..\..\..\liblc3\src/lc3.c ****         return -1;
 2938              		.loc 1 150 0
 2939 001c 032C     		cmp	r4, #3
 2940 001e 19D8     		bhi	.L183
 150:..\..\..\liblc3\src/lc3.c ****         return -1;
 2941              		.loc 1 150 0 is_stmt 0 discriminator 1
 2942 0020 0628     		cmp	r0, #6
 2943 0022 1AD8     		bhi	.L184
 150:..\..\..\liblc3\src/lc3.c ****         return -1;
 2944              		.loc 1 150 0 discriminator 2
 2945 0024 002D     		cmp	r5, #0
 2946 0026 1BDB     		blt	.L185
 153:..\..\..\liblc3\src/lc3.c **** }
 2947              		.loc 1 153 0 is_stmt 1
 2948 0028 E917     		asrs	r1, r5, #31
 2949 002a C822     		movs	r2, #200
 2950 002c 1201     		lsls	r2, r2, #4
 2951 002e 0023     		movs	r3, #0
 2952 0030 2800     		movs	r0, r5
 2953              	.LVL458:
 2954 0032 FFF7FEFF 		bl	__aeabi_lmul
 2955              	.LVL459:
 2956 0036 2200     		movs	r2, r4
 2957 0038 0023     		movs	r3, #0
 2958 003a 8018     		adds	r0, r0, r2
 2959 003c 5941     		adcs	r1, r1, r3
 2960 003e 621C     		adds	r2, r4, #1
 2961 0040 D317     		asrs	r3, r2, #31
 2962 0042 FFF7FEFF 		bl	__aeabi_ldivmod
 2963              	.LVL460:
 2964 0046 0029     		cmp	r1, #0
 2965 0048 02DC     		bgt	.L182
 2966 004a 0BD1     		bne	.L180
 2967 004c 0028     		cmp	r0, #0
 2968 004e 09DA     		bge	.L180
 2969              	.L182:
 2970 0050 0548     		ldr	r0, .L186
 2971 0052 07E0     		b	.L180
ARM GAS  C:\Users\rdn\AppData\Local\Temp\cco7w9JJ.s 			page 75


 2972              	.LVL461:
 2973              	.L183:
 151:..\..\..\liblc3\src/lc3.c **** 
 2974              		.loc 1 151 0
 2975 0054 0120     		movs	r0, #1
 2976              	.LVL462:
 2977 0056 4042     		rsbs	r0, r0, #0
 2978 0058 04E0     		b	.L180
 2979              	.LVL463:
 2980              	.L184:
 2981 005a 0120     		movs	r0, #1
 2982              	.LVL464:
 2983 005c 4042     		rsbs	r0, r0, #0
 2984 005e 01E0     		b	.L180
 2985              	.LVL465:
 2986              	.L185:
 2987 0060 0120     		movs	r0, #1
 2988              	.LVL466:
 2989 0062 4042     		rsbs	r0, r0, #0
 2990              	.L180:
 154:..\..\..\liblc3\src/lc3.c **** 
 2991              		.loc 1 154 0
 2992 0064 03B0     		add	sp, sp, #12
 2993              		@ sp needed
 2994              	.LVL467:
 2995              	.LVL468:
 2996 0066 F0BD     		pop	{r4, r5, r6, r7, pc}
 2997              	.L187:
 2998              		.align	2
 2999              	.L186:
 3000 0068 FFFFFF7F 		.word	2147483647
 3001              		.cfi_endproc
 3002              	.LFE28:
 3003              		.size	lc3_hr_resolve_bitrate, .-lc3_hr_resolve_bitrate
 3004              		.section	.text.lc3_resolve_bitrate,"ax",%progbits
 3005              		.align	2
 3006              		.global	lc3_resolve_bitrate
 3007              		.code	16
 3008              		.thumb_func
 3009              		.type	lc3_resolve_bitrate, %function
 3010              	lc3_resolve_bitrate:
 3011              	.LFB29:
 157:..\..\..\liblc3\src/lc3.c ****     return lc3_hr_resolve_bitrate(false, dt_us, 8000, nbytes);
 3012              		.loc 1 157 0
 3013              		.cfi_startproc
 3014              		@ args = 0, pretend = 0, frame = 0
 3015              		@ frame_needed = 0, uses_anonymous_args = 0
 3016              	.LVL469:
 3017 0000 10B5     		push	{r4, lr}
 3018              		.cfi_def_cfa_offset 8
 3019              		.cfi_offset 4, -8
 3020              		.cfi_offset 14, -4
 3021 0002 0B00     		movs	r3, r1
 158:..\..\..\liblc3\src/lc3.c **** }
 3022              		.loc 1 158 0
 3023 0004 FA22     		movs	r2, #250
 3024 0006 5201     		lsls	r2, r2, #5
ARM GAS  C:\Users\rdn\AppData\Local\Temp\cco7w9JJ.s 			page 76


 3025 0008 0100     		movs	r1, r0
 3026              	.LVL470:
 3027 000a 0020     		movs	r0, #0
 3028              	.LVL471:
 3029 000c FFF7FEFF 		bl	lc3_hr_resolve_bitrate
 3030              	.LVL472:
 159:..\..\..\liblc3\src/lc3.c **** 
 3031              		.loc 1 159 0
 3032              		@ sp needed
 3033 0010 10BD     		pop	{r4, pc}
 3034              		.cfi_endproc
 3035              	.LFE29:
 3036              		.size	lc3_resolve_bitrate, .-lc3_resolve_bitrate
 3037 0012 C046     		.section	.text.lc3_hr_delay_samples,"ax",%progbits
 3038              		.align	2
 3039              		.global	lc3_hr_delay_samples
 3040              		.code	16
 3041              		.thumb_func
 3042              		.type	lc3_hr_delay_samples, %function
 3043              	lc3_hr_delay_samples:
 3044              	.LFB30:
 165:..\..\..\liblc3\src/lc3.c ****     enum lc3_dt dt = resolve_dt(dt_us, hrmode);
 3045              		.loc 1 165 0
 3046              		.cfi_startproc
 3047              		@ args = 0, pretend = 0, frame = 0
 3048              		@ frame_needed = 0, uses_anonymous_args = 0
 3049              	.LVL473:
 3050 0000 F8B5     		push	{r3, r4, r5, r6, r7, lr}
 3051              		.cfi_def_cfa_offset 24
 3052              		.cfi_offset 3, -24
 3053              		.cfi_offset 4, -20
 3054              		.cfi_offset 5, -16
 3055              		.cfi_offset 6, -12
 3056              		.cfi_offset 7, -8
 3057              		.cfi_offset 14, -4
 3058 0002 0600     		movs	r6, r0
 3059 0004 0800     		movs	r0, r1
 3060              	.LVL474:
 3061 0006 1700     		movs	r7, r2
 166:..\..\..\liblc3\src/lc3.c ****     enum lc3_srate sr = resolve_srate(sr_hz, hrmode);
 3062              		.loc 1 166 0
 3063 0008 3100     		movs	r1, r6
 3064              	.LVL475:
 3065 000a FFF7FEFF 		bl	resolve_dt
 3066              	.LVL476:
 3067 000e 0400     		movs	r4, r0
 3068 0010 0500     		movs	r5, r0
 3069              	.LVL477:
 167:..\..\..\liblc3\src/lc3.c **** 
 3070              		.loc 1 167 0
 3071 0012 3100     		movs	r1, r6
 3072 0014 3800     		movs	r0, r7
 3073 0016 FFF7FEFF 		bl	resolve_srate
 3074              	.LVL478:
 169:..\..\..\liblc3\src/lc3.c ****         return -1;
 3075              		.loc 1 169 0
 3076 001a 032C     		cmp	r4, #3
ARM GAS  C:\Users\rdn\AppData\Local\Temp\cco7w9JJ.s 			page 77


 3077 001c 10D8     		bhi	.L192
 169:..\..\..\liblc3\src/lc3.c ****         return -1;
 3078              		.loc 1 169 0 is_stmt 0 discriminator 1
 3079 001e 0628     		cmp	r0, #6
 3080 0020 11D8     		bhi	.L193
 3081              	.LVL479:
 3082              	.LBB205:
 3083              	.LBB206:
 3084              	.LBB207:
 3085              	.LBB208:
  47:..\..\..\liblc3\src/tables.h **** }
 3086              		.loc 2 47 0 is_stmt 1
 3087 0022 8300     		lsls	r3, r0, #2
 3088 0024 094A     		ldr	r2, .L194
 3089 0026 9B58     		ldr	r3, [r3, r2]
 3090 0028 0134     		adds	r4, r4, #1
 3091              	.LVL480:
 3092 002a 5C43     		muls	r4, r3
 3093              	.LVL481:
 3094              	.LBE208:
 3095              	.LBE207:
  56:..\..\..\liblc3\src/tables.h **** }
 3096              		.loc 2 56 0
 3097 002c 022D     		cmp	r5, #2
 3098 002e 02D1     		bne	.L191
 3099 0030 8000     		lsls	r0, r0, #2
 3100              	.LVL482:
 3101 0032 074B     		ldr	r3, .L194+4
 3102 0034 C358     		ldr	r3, [r0, r3]
 3103              	.L191:
  55:..\..\..\liblc3\src/tables.h ****         (dt == LC3_DT_7M5 ? lc3_ns_4m[sr] : lc3_ns_2m5[sr]) ) >> 1;
 3104              		.loc 2 55 0
 3105 0036 E318     		adds	r3, r4, r3
 3106 0038 5B10     		asrs	r3, r3, #1
 3107              	.LBE206:
 3108              	.LBE205:
 172:..\..\..\liblc3\src/lc3.c **** }
 3109              		.loc 1 172 0
 3110 003a 5B00     		lsls	r3, r3, #1
 3111 003c 181B     		subs	r0, r3, r4
 3112 003e 04E0     		b	.L190
 3113              	.LVL483:
 3114              	.L192:
 170:..\..\..\liblc3\src/lc3.c **** 
 3115              		.loc 1 170 0
 3116 0040 0120     		movs	r0, #1
 3117              	.LVL484:
 3118 0042 4042     		rsbs	r0, r0, #0
 3119 0044 01E0     		b	.L190
 3120              	.LVL485:
 3121              	.L193:
 3122 0046 0120     		movs	r0, #1
 3123              	.LVL486:
 3124 0048 4042     		rsbs	r0, r0, #0
 3125              	.LVL487:
 3126              	.L190:
 173:..\..\..\liblc3\src/lc3.c **** 
ARM GAS  C:\Users\rdn\AppData\Local\Temp\cco7w9JJ.s 			page 78


 3127              		.loc 1 173 0
 3128              		@ sp needed
 3129              	.LVL488:
 3130 004a F8BD     		pop	{r3, r4, r5, r6, r7, pc}
 3131              	.L195:
 3132              		.align	2
 3133              	.L194:
 3134 004c 00000000 		.word	lc3_ns_2m5
 3135 0050 00000000 		.word	lc3_ns_4m
 3136              		.cfi_endproc
 3137              	.LFE30:
 3138              		.size	lc3_hr_delay_samples, .-lc3_hr_delay_samples
 3139              		.section	.text.lc3_delay_samples,"ax",%progbits
 3140              		.align	2
 3141              		.global	lc3_delay_samples
 3142              		.code	16
 3143              		.thumb_func
 3144              		.type	lc3_delay_samples, %function
 3145              	lc3_delay_samples:
 3146              	.LFB31:
 176:..\..\..\liblc3\src/lc3.c ****     return lc3_hr_delay_samples(false, dt_us, sr_hz);
 3147              		.loc 1 176 0
 3148              		.cfi_startproc
 3149              		@ args = 0, pretend = 0, frame = 0
 3150              		@ frame_needed = 0, uses_anonymous_args = 0
 3151              	.LVL489:
 3152 0000 10B5     		push	{r4, lr}
 3153              		.cfi_def_cfa_offset 8
 3154              		.cfi_offset 4, -8
 3155              		.cfi_offset 14, -4
 3156 0002 0A00     		movs	r2, r1
 177:..\..\..\liblc3\src/lc3.c **** }
 3157              		.loc 1 177 0
 3158 0004 0100     		movs	r1, r0
 3159              	.LVL490:
 3160 0006 0020     		movs	r0, #0
 3161              	.LVL491:
 3162 0008 FFF7FEFF 		bl	lc3_hr_delay_samples
 3163              	.LVL492:
 178:..\..\..\liblc3\src/lc3.c **** 
 3164              		.loc 1 178 0
 3165              		@ sp needed
 3166 000c 10BD     		pop	{r4, pc}
 3167              		.cfi_endproc
 3168              	.LFE31:
 3169              		.size	lc3_delay_samples, .-lc3_delay_samples
 3170 000e C046     		.section	.text.lc3_hr_encoder_size,"ax",%progbits
 3171              		.align	2
 3172              		.global	lc3_hr_encoder_size
 3173              		.code	16
 3174              		.thumb_func
 3175              		.type	lc3_hr_encoder_size, %function
 3176              	lc3_hr_encoder_size:
 3177              	.LFB38:
 372:..\..\..\liblc3\src/lc3.c ****     if (resolve_dt(dt_us, hrmode) >= LC3_NUM_DT ||
 3178              		.loc 1 372 0
 3179              		.cfi_startproc
ARM GAS  C:\Users\rdn\AppData\Local\Temp\cco7w9JJ.s 			page 79


 3180              		@ args = 0, pretend = 0, frame = 0
 3181              		@ frame_needed = 0, uses_anonymous_args = 0
 3182              	.LVL493:
 3183 0000 F8B5     		push	{r3, r4, r5, r6, r7, lr}
 3184              		.cfi_def_cfa_offset 24
 3185              		.cfi_offset 3, -24
 3186              		.cfi_offset 4, -20
 3187              		.cfi_offset 5, -16
 3188              		.cfi_offset 6, -12
 3189              		.cfi_offset 7, -8
 3190              		.cfi_offset 14, -4
 3191 0002 0600     		movs	r6, r0
 3192 0004 0D00     		movs	r5, r1
 3193 0006 1400     		movs	r4, r2
 373:..\..\..\liblc3\src/lc3.c ****         resolve_srate(sr_hz, hrmode) >= LC3_NUM_SRATE)
 3194              		.loc 1 373 0
 3195 0008 0100     		movs	r1, r0
 3196              	.LVL494:
 3197 000a 2800     		movs	r0, r5
 3198              	.LVL495:
 3199 000c FFF7FEFF 		bl	resolve_dt
 3200              	.LVL496:
 3201 0010 0328     		cmp	r0, #3
 3202 0012 2CD8     		bhi	.L200
 374:..\..\..\liblc3\src/lc3.c ****         return 0;
 3203              		.loc 1 374 0 discriminator 1
 3204 0014 3100     		movs	r1, r6
 3205 0016 2000     		movs	r0, r4
 3206 0018 FFF7FEFF 		bl	resolve_srate
 3207              	.LVL497:
 373:..\..\..\liblc3\src/lc3.c ****         resolve_srate(sr_hz, hrmode) >= LC3_NUM_SRATE)
 3208              		.loc 1 373 0 discriminator 1
 3209 001c 0628     		cmp	r0, #6
 3210 001e 28D8     		bhi	.L201
 378:..\..\..\liblc3\src/lc3.c **** }
 3211              		.loc 1 378 0
 3212 0020 2600     		movs	r6, r4
 3213 0022 6E43     		muls	r6, r5
 3214 0024 1449     		ldr	r1, .L203
 3215 0026 3000     		movs	r0, r6
 3216 0028 FFF7FEFF 		bl	__aeabi_idiv
 3217              	.LVL498:
 3218 002c 0700     		movs	r7, r0
 3219 002e 1348     		ldr	r0, .L203+4
 3220 0030 6043     		muls	r0, r4
 3221 0032 1149     		ldr	r1, .L203
 3222 0034 FFF7FEFF 		bl	__aeabi_idiv
 3223              	.LVL499:
 3224 0038 3818     		adds	r0, r7, r0
 3225 003a C30F     		lsrs	r3, r0, #31
 3226 003c 1818     		adds	r0, r3, r0
 3227 003e 4010     		asrs	r0, r0, #1
 3228 0040 3F18     		adds	r7, r7, r0
 3229 0042 0F49     		ldr	r1, .L203+8
 3230 0044 3000     		movs	r0, r6
 3231 0046 FFF7FEFF 		bl	__aeabi_idiv
 3232              	.LVL500:
ARM GAS  C:\Users\rdn\AppData\Local\Temp\cco7w9JJ.s 			page 80


 3233 004a 0600     		movs	r6, r0
 3234 004c 0D4B     		ldr	r3, .L203+12
 3235 004e 9D42     		cmp	r5, r3
 3236 0050 02D1     		bne	.L202
 3237 0052 FA20     		movs	r0, #250
 3238 0054 C000     		lsls	r0, r0, #3
 3239 0056 00E0     		b	.L199
 3240              	.L202:
 3241 0058 0848     		ldr	r0, .L203+4
 3242              	.L199:
 378:..\..\..\liblc3\src/lc3.c **** }
 3243              		.loc 1 378 0 is_stmt 0 discriminator 4
 3244 005a 6043     		muls	r0, r4
 3245 005c 0649     		ldr	r1, .L203
 3246 005e FFF7FEFF 		bl	__aeabi_idiv
 3247              	.LVL501:
 3248 0062 3018     		adds	r0, r6, r0
 3249 0064 3818     		adds	r0, r7, r0
 377:..\..\..\liblc3\src/lc3.c ****         (LC3_ENCODER_BUFFER_COUNT(dt_us, sr_hz)-1) * sizeof(float);
 3250              		.loc 1 377 0 is_stmt 1 discriminator 4
 3251 0066 2C30     		adds	r0, r0, #44
 3252 0068 FF30     		adds	r0, r0, #255
 3253 006a 8000     		lsls	r0, r0, #2
 3254 006c 02E0     		b	.L198
 3255              	.L200:
 375:..\..\..\liblc3\src/lc3.c **** 
 3256              		.loc 1 375 0
 3257 006e 0020     		movs	r0, #0
 3258 0070 00E0     		b	.L198
 3259              	.L201:
 3260 0072 0020     		movs	r0, #0
 3261              	.L198:
 379:..\..\..\liblc3\src/lc3.c **** 
 3262              		.loc 1 379 0
 3263              		@ sp needed
 3264              	.LVL502:
 3265              	.LVL503:
 3266 0074 F8BD     		pop	{r3, r4, r5, r6, r7, pc}
 3267              	.L204:
 3268 0076 C046     		.align	2
 3269              	.L203:
 3270 0078 40420F00 		.word	1000000
 3271 007c E2040000 		.word	1250
 3272 0080 80841E00 		.word	2000000
 3273 0084 4C1D0000 		.word	7500
 3274              		.cfi_endproc
 3275              	.LFE38:
 3276              		.size	lc3_hr_encoder_size, .-lc3_hr_encoder_size
 3277              		.section	.text.lc3_encoder_size,"ax",%progbits
 3278              		.align	2
 3279              		.global	lc3_encoder_size
 3280              		.code	16
 3281              		.thumb_func
 3282              		.type	lc3_encoder_size, %function
 3283              	lc3_encoder_size:
 3284              	.LFB39:
 382:..\..\..\liblc3\src/lc3.c ****     return lc3_hr_encoder_size(false, dt_us, sr_hz);
ARM GAS  C:\Users\rdn\AppData\Local\Temp\cco7w9JJ.s 			page 81


 3285              		.loc 1 382 0
 3286              		.cfi_startproc
 3287              		@ args = 0, pretend = 0, frame = 0
 3288              		@ frame_needed = 0, uses_anonymous_args = 0
 3289              	.LVL504:
 3290 0000 10B5     		push	{r4, lr}
 3291              		.cfi_def_cfa_offset 8
 3292              		.cfi_offset 4, -8
 3293              		.cfi_offset 14, -4
 3294 0002 0A00     		movs	r2, r1
 383:..\..\..\liblc3\src/lc3.c **** }
 3295              		.loc 1 383 0
 3296 0004 0100     		movs	r1, r0
 3297              	.LVL505:
 3298 0006 0020     		movs	r0, #0
 3299              	.LVL506:
 3300 0008 FFF7FEFF 		bl	lc3_hr_encoder_size
 3301              	.LVL507:
 384:..\..\..\liblc3\src/lc3.c **** 
 3302              		.loc 1 384 0
 3303              		@ sp needed
 3304 000c 10BD     		pop	{r4, pc}
 3305              		.cfi_endproc
 3306              	.LFE39:
 3307              		.size	lc3_encoder_size, .-lc3_encoder_size
 3308 000e C046     		.section	.text.lc3_hr_setup_encoder,"ax",%progbits
 3309              		.align	2
 3310              		.global	lc3_hr_setup_encoder
 3311              		.code	16
 3312              		.thumb_func
 3313              		.type	lc3_hr_setup_encoder, %function
 3314              	lc3_hr_setup_encoder:
 3315              	.LFB40:
 391:..\..\..\liblc3\src/lc3.c ****     if (sr_pcm_hz <= 0)
 3316              		.loc 1 391 0
 3317              		.cfi_startproc
 3318              		@ args = 4, pretend = 0, frame = 8
 3319              		@ frame_needed = 0, uses_anonymous_args = 0
 3320              	.LVL508:
 3321 0000 F0B5     		push	{r4, r5, r6, r7, lr}
 3322              		.cfi_def_cfa_offset 20
 3323              		.cfi_offset 4, -20
 3324              		.cfi_offset 5, -16
 3325              		.cfi_offset 6, -12
 3326              		.cfi_offset 7, -8
 3327              		.cfi_offset 14, -4
 3328 0002 5F46     		mov	r7, fp
 3329 0004 5646     		mov	r6, r10
 3330 0006 4D46     		mov	r5, r9
 3331 0008 E0B4     		push	{r5, r6, r7}
 3332              		.cfi_def_cfa_offset 32
 3333              		.cfi_offset 9, -32
 3334              		.cfi_offset 10, -28
 3335              		.cfi_offset 11, -24
 3336 000a 82B0     		sub	sp, sp, #8
 3337              		.cfi_def_cfa_offset 40
 3338 000c 0500     		movs	r5, r0
ARM GAS  C:\Users\rdn\AppData\Local\Temp\cco7w9JJ.s 			page 82


 3339 000e 0091     		str	r1, [sp]
 3340 0010 0192     		str	r2, [sp, #4]
 3341 0012 1E1E     		subs	r6, r3, #0
 3342 0014 0A9C     		ldr	r4, [sp, #40]
 392:..\..\..\liblc3\src/lc3.c ****         sr_pcm_hz = sr_hz;
 3343              		.loc 1 392 0
 3344 0016 00DC     		bgt	.L207
 393:..\..\..\liblc3\src/lc3.c **** 
 3345              		.loc 1 393 0
 3346 0018 1600     		movs	r6, r2
 3347              	.L207:
 3348              	.LVL509:
 395:..\..\..\liblc3\src/lc3.c ****     enum lc3_srate sr = resolve_srate(sr_hz, hrmode);
 3349              		.loc 1 395 0
 3350 001a 2900     		movs	r1, r5
 3351              	.LVL510:
 3352 001c 0098     		ldr	r0, [sp]
 3353              	.LVL511:
 3354 001e FFF7FEFF 		bl	resolve_dt
 3355              	.LVL512:
 3356 0022 0700     		movs	r7, r0
 3357              	.LVL513:
 396:..\..\..\liblc3\src/lc3.c ****     enum lc3_srate sr_pcm = resolve_srate(sr_pcm_hz, hrmode);
 3358              		.loc 1 396 0
 3359 0024 2900     		movs	r1, r5
 3360 0026 0198     		ldr	r0, [sp, #4]
 3361 0028 FFF7FEFF 		bl	resolve_srate
 3362              	.LVL514:
 3363 002c 0190     		str	r0, [sp, #4]
 3364              	.LVL515:
 3365 002e 8246     		mov	r10, r0
 3366              	.LVL516:
 397:..\..\..\liblc3\src/lc3.c **** 
 3367              		.loc 1 397 0
 3368 0030 2900     		movs	r1, r5
 3369 0032 3000     		movs	r0, r6
 3370 0034 FFF7FEFF 		bl	resolve_srate
 3371              	.LVL517:
 3372 0038 0500     		movs	r5, r0
 3373              	.LVL518:
 399:..\..\..\liblc3\src/lc3.c ****         return NULL;
 3374              		.loc 1 399 0
 3375 003a 032F     		cmp	r7, #3
 3376 003c 56D8     		bhi	.L211
 399:..\..\..\liblc3\src/lc3.c ****         return NULL;
 3377              		.loc 1 399 0 is_stmt 0 discriminator 1
 3378 003e 0628     		cmp	r0, #6
 3379 0040 56D8     		bhi	.L212
 399:..\..\..\liblc3\src/lc3.c ****         return NULL;
 3380              		.loc 1 399 0 discriminator 2
 3381 0042 8245     		cmp	r10, r0
 3382 0044 56D8     		bhi	.L213
 399:..\..\..\liblc3\src/lc3.c ****         return NULL;
 3383              		.loc 1 399 0 discriminator 3
 3384 0046 002C     		cmp	r4, #0
 3385 0048 56D0     		beq	.L214
 3386              	.LVL519:
ARM GAS  C:\Users\rdn\AppData\Local\Temp\cco7w9JJ.s 			page 83


 3387              	.LBB209:
 3388              	.LBB210:
  47:..\..\..\liblc3\src/tables.h **** }
 3389              		.loc 2 47 0 is_stmt 1
 3390 004a 8200     		lsls	r2, r0, #2
 3391 004c 2E4B     		ldr	r3, .L216
 3392 004e D258     		ldr	r2, [r2, r3]
 3393 0050 7B1C     		adds	r3, r7, #1
 3394 0052 5343     		muls	r3, r2
 3395              	.LVL520:
 3396              	.LBE210:
 3397              	.LBE209:
 3398              	.LBB211:
 3399              	.LBB212:
  65:..\..\..\liblc3\src/tables.h **** }
 3400              		.loc 2 65 0
 3401 0054 5110     		asrs	r1, r2, #1
 3402 0056 8A46     		mov	r10, r1
 3403              	.LVL521:
 3404              	.LBE212:
 3405              	.LBE211:
 411:..\..\..\liblc3\src/lc3.c ****         .xd_off = (nt + ns) / 2 + ns,
 3406              		.loc 1 411 0
 3407 0058 CA18     		adds	r2, r1, r3
 412:..\..\..\liblc3\src/lc3.c ****     };
 3408              		.loc 1 412 0
 3409 005a D10F     		lsrs	r1, r2, #31
 3410 005c 8A18     		adds	r2, r1, r2
 3411 005e 5110     		asrs	r1, r2, #1
 3412 0060 8946     		mov	r9, r1
 3413 0062 9B46     		mov	fp, r3
 3414 0064 CB44     		add	fp, fp, r9
 406:..\..\..\liblc3\src/lc3.c ****         .dt = dt, .sr = sr,
 3415              		.loc 1 406 0
 3416 0066 9622     		movs	r2, #150
 3417 0068 D200     		lsls	r2, r2, #3
 3418 006a 0021     		movs	r1, #0
 3419 006c 2000     		movs	r0, r4
 3420              	.LVL522:
 3421 006e FFF7FEFF 		bl	memset
 3422              	.LVL523:
 3423 0072 2770     		strb	r7, [r4]
 3424 0074 6B46     		mov	r3, sp
 3425 0076 1B79     		ldrb	r3, [r3, #4]
 3426 0078 6370     		strb	r3, [r4, #1]
 3427 007a A570     		strb	r5, [r4, #2]
 3428 007c 9423     		movs	r3, #148
 3429 007e DB00     		lsls	r3, r3, #3
 3430 0080 5146     		mov	r1, r10
 3431 0082 E150     		str	r1, [r4, r3]
 3432 0084 214B     		ldr	r3, .L216+4
 3433 0086 4946     		mov	r1, r9
 3434 0088 E150     		str	r1, [r4, r3]
 3435 008a 0433     		adds	r3, r3, #4
 3436 008c 5946     		mov	r1, fp
 3437 008e E150     		str	r1, [r4, r3]
 415:..\..\..\liblc3\src/lc3.c ****         LC3_ENCODER_BUFFER_COUNT(dt_us, sr_pcm_hz) * sizeof(float));
ARM GAS  C:\Users\rdn\AppData\Local\Temp\cco7w9JJ.s 			page 84


 3438              		.loc 1 415 0
 3439 0090 1F4B     		ldr	r3, .L216+8
 3440 0092 9946     		mov	r9, r3
 3441 0094 A144     		add	r9, r9, r4
 416:..\..\..\liblc3\src/lc3.c **** 
 3442              		.loc 1 416 0
 3443 0096 009D     		ldr	r5, [sp]
 3444 0098 7543     		muls	r5, r6
 3445 009a 1E49     		ldr	r1, .L216+12
 3446 009c 2800     		movs	r0, r5
 3447 009e FFF7FEFF 		bl	__aeabi_idiv
 3448              	.LVL524:
 3449 00a2 0700     		movs	r7, r0
 3450              	.LVL525:
 3451 00a4 1C48     		ldr	r0, .L216+16
 3452 00a6 7043     		muls	r0, r6
 3453 00a8 1A49     		ldr	r1, .L216+12
 3454 00aa FFF7FEFF 		bl	__aeabi_idiv
 3455              	.LVL526:
 3456 00ae 3818     		adds	r0, r7, r0
 3457 00b0 C20F     		lsrs	r2, r0, #31
 3458 00b2 1018     		adds	r0, r2, r0
 3459 00b4 4010     		asrs	r0, r0, #1
 3460 00b6 3F18     		adds	r7, r7, r0
 3461 00b8 1849     		ldr	r1, .L216+20
 3462 00ba 2800     		movs	r0, r5
 3463 00bc FFF7FEFF 		bl	__aeabi_idiv
 3464              	.LVL527:
 3465 00c0 0500     		movs	r5, r0
 3466 00c2 174B     		ldr	r3, .L216+24
 3467 00c4 009A     		ldr	r2, [sp]
 3468 00c6 9A42     		cmp	r2, r3
 3469 00c8 02D1     		bne	.L215
 3470 00ca FA20     		movs	r0, #250
 3471 00cc C000     		lsls	r0, r0, #3
 3472 00ce 00E0     		b	.L209
 3473              	.L215:
 3474 00d0 1148     		ldr	r0, .L216+16
 3475              	.L209:
 416:..\..\..\liblc3\src/lc3.c **** 
 3476              		.loc 1 416 0 is_stmt 0 discriminator 4
 3477 00d2 7043     		muls	r0, r6
 3478 00d4 0F49     		ldr	r1, .L216+12
 3479 00d6 FFF7FEFF 		bl	__aeabi_idiv
 3480              	.LVL528:
 3481 00da 2A18     		adds	r2, r5, r0
 3482 00dc BA18     		adds	r2, r7, r2
 415:..\..\..\liblc3\src/lc3.c ****         LC3_ENCODER_BUFFER_COUNT(dt_us, sr_pcm_hz) * sizeof(float));
 3483              		.loc 1 415 0 is_stmt 1 discriminator 4
 3484 00de 9200     		lsls	r2, r2, #2
 3485 00e0 0021     		movs	r1, #0
 3486 00e2 4846     		mov	r0, r9
 3487 00e4 FFF7FEFF 		bl	memset
 3488              	.LVL529:
 418:..\..\..\liblc3\src/lc3.c **** }
 3489              		.loc 1 418 0 discriminator 4
 3490 00e8 2000     		movs	r0, r4
ARM GAS  C:\Users\rdn\AppData\Local\Temp\cco7w9JJ.s 			page 85


 3491 00ea 06E0     		b	.L208
 3492              	.LVL530:
 3493              	.L211:
 400:..\..\..\liblc3\src/lc3.c **** 
 3494              		.loc 1 400 0
 3495 00ec 0020     		movs	r0, #0
 3496              	.LVL531:
 3497 00ee 04E0     		b	.L208
 3498              	.LVL532:
 3499              	.L212:
 3500 00f0 0020     		movs	r0, #0
 3501              	.LVL533:
 3502 00f2 02E0     		b	.L208
 3503              	.LVL534:
 3504              	.L213:
 3505 00f4 0020     		movs	r0, #0
 3506              	.LVL535:
 3507 00f6 00E0     		b	.L208
 3508              	.LVL536:
 3509              	.L214:
 3510 00f8 0020     		movs	r0, #0
 3511              	.LVL537:
 3512              	.L208:
 419:..\..\..\liblc3\src/lc3.c **** 
 3513              		.loc 1 419 0
 3514 00fa 02B0     		add	sp, sp, #8
 3515              	.LVL538:
 3516              		@ sp needed
 3517              	.LVL539:
 3518 00fc 1CBC     		pop	{r2, r3, r4}
 3519 00fe 9146     		mov	r9, r2
 3520 0100 9A46     		mov	r10, r3
 3521 0102 A346     		mov	fp, r4
 3522 0104 F0BD     		pop	{r4, r5, r6, r7, pc}
 3523              	.L217:
 3524 0106 C046     		.align	2
 3525              	.L216:
 3526 0108 00000000 		.word	lc3_ns_2m5
 3527 010c A4040000 		.word	1188
 3528 0110 AC040000 		.word	1196
 3529 0114 40420F00 		.word	1000000
 3530 0118 E2040000 		.word	1250
 3531 011c 80841E00 		.word	2000000
 3532 0120 4C1D0000 		.word	7500
 3533              		.cfi_endproc
 3534              	.LFE40:
 3535              		.size	lc3_hr_setup_encoder, .-lc3_hr_setup_encoder
 3536              		.section	.text.lc3_setup_encoder,"ax",%progbits
 3537              		.align	2
 3538              		.global	lc3_setup_encoder
 3539              		.code	16
 3540              		.thumb_func
 3541              		.type	lc3_setup_encoder, %function
 3542              	lc3_setup_encoder:
 3543              	.LFB41:
 423:..\..\..\liblc3\src/lc3.c ****     return lc3_hr_setup_encoder(false, dt_us, sr_hz, sr_pcm_hz, mem);
 3544              		.loc 1 423 0
ARM GAS  C:\Users\rdn\AppData\Local\Temp\cco7w9JJ.s 			page 86


 3545              		.cfi_startproc
 3546              		@ args = 0, pretend = 0, frame = 0
 3547              		@ frame_needed = 0, uses_anonymous_args = 0
 3548              	.LVL540:
 3549 0000 00B5     		push	{lr}
 3550              		.cfi_def_cfa_offset 4
 3551              		.cfi_offset 14, -4
 3552 0002 83B0     		sub	sp, sp, #12
 3553              		.cfi_def_cfa_offset 16
 424:..\..\..\liblc3\src/lc3.c **** }
 3554              		.loc 1 424 0
 3555 0004 0093     		str	r3, [sp]
 3556 0006 1300     		movs	r3, r2
 3557              	.LVL541:
 3558 0008 0A00     		movs	r2, r1
 3559              	.LVL542:
 3560 000a 0100     		movs	r1, r0
 3561              	.LVL543:
 3562 000c 0020     		movs	r0, #0
 3563              	.LVL544:
 3564 000e FFF7FEFF 		bl	lc3_hr_setup_encoder
 3565              	.LVL545:
 425:..\..\..\liblc3\src/lc3.c **** 
 3566              		.loc 1 425 0
 3567 0012 03B0     		add	sp, sp, #12
 3568              		@ sp needed
 3569 0014 00BD     		pop	{pc}
 3570              		.cfi_endproc
 3571              	.LFE41:
 3572              		.size	lc3_setup_encoder, .-lc3_setup_encoder
 3573 0016 C046     		.section	.text.lc3_encode,"ax",%progbits
 3574              		.align	2
 3575              		.global	lc3_encode
 3576              		.code	16
 3577              		.thumb_func
 3578              		.type	lc3_encode, %function
 3579              	lc3_encode:
 3580              	.LFB42:
 432:..\..\..\liblc3\src/lc3.c ****     static void (* const load[])(struct lc3_encoder *, const void *, int) = {
 3581              		.loc 1 432 0
 3582              		.cfi_startproc
 3583              		@ args = 8, pretend = 0, frame = 136
 3584              		@ frame_needed = 0, uses_anonymous_args = 0
 3585              	.LVL546:
 3586 0000 F0B5     		push	{r4, r5, r6, r7, lr}
 3587              		.cfi_def_cfa_offset 20
 3588              		.cfi_offset 4, -20
 3589              		.cfi_offset 5, -16
 3590              		.cfi_offset 6, -12
 3591              		.cfi_offset 7, -8
 3592              		.cfi_offset 14, -4
 3593 0002 A3B0     		sub	sp, sp, #140
 3594              		.cfi_def_cfa_offset 160
 3595 0004 0600     		movs	r6, r0
 3596 0006 1500     		movs	r5, r2
 442:..\..\..\liblc3\src/lc3.c ****                  || nbytes > lc3_max_frame_bytes(encoder->dt, encoder->sr))
 3597              		.loc 1 442 0
ARM GAS  C:\Users\rdn\AppData\Local\Temp\cco7w9JJ.s 			page 87


 3598 0008 0028     		cmp	r0, #0
 3599 000a 31D0     		beq	.L223
 442:..\..\..\liblc3\src/lc3.c ****                  || nbytes > lc3_max_frame_bytes(encoder->dt, encoder->sr))
 3600              		.loc 1 442 0 is_stmt 0 discriminator 1
 3601 000c 0778     		ldrb	r7, [r0]
 3602 000e 4078     		ldrb	r0, [r0, #1]
 3603              	.LVL547:
 3604              	.LBB213:
 3605              	.LBB214:
  82:..\..\..\liblc3\src/tables.h ****         lc3_frame_bytes_hr_lim[dt][sr - LC3_SRATE_48K_HR][0];
 3606              		.loc 2 82 0 is_stmt 1 discriminator 1
 3607 0010 0428     		cmp	r0, #4
 3608 0012 06D9     		bls	.L224
  83:..\..\..\liblc3\src/tables.h **** }
 3609              		.loc 2 83 0
 3610 0014 421F     		subs	r2, r0, #5
 3611              	.LVL548:
  82:..\..\..\liblc3\src/tables.h ****         lc3_frame_bytes_hr_lim[dt][sr - LC3_SRATE_48K_HR][0];
 3612              		.loc 2 82 0
 3613 0016 7C00     		lsls	r4, r7, #1
 3614 0018 A218     		adds	r2, r4, r2
 3615 001a D200     		lsls	r2, r2, #3
 3616 001c 194C     		ldr	r4, .L228
 3617 001e 1259     		ldr	r2, [r2, r4]
 3618 0020 00E0     		b	.L221
 3619              	.LVL549:
 3620              	.L224:
 3621 0022 1422     		movs	r2, #20
 3622              	.LVL550:
 3623              	.L221:
 3624              	.LBE214:
 3625              	.LBE213:
 442:..\..\..\liblc3\src/lc3.c ****                  || nbytes > lc3_max_frame_bytes(encoder->dt, encoder->sr))
 3626              		.loc 1 442 0
 3627 0024 289C     		ldr	r4, [sp, #160]
 3628 0026 9442     		cmp	r4, r2
 3629 0028 25DB     		blt	.L225
 3630              	.LVL551:
 3631              	.LBB215:
 3632              	.LBB216:
  87:..\..\..\liblc3\src/tables.h ****         lc3_frame_bytes_hr_lim[dt][sr - LC3_SRATE_48K_HR][1];
 3633              		.loc 2 87 0
 3634 002a 0428     		cmp	r0, #4
 3635 002c 07D9     		bls	.L226
 3636              		.loc 2 88 0
 3637 002e 421F     		subs	r2, r0, #5
  87:..\..\..\liblc3\src/tables.h ****         lc3_frame_bytes_hr_lim[dt][sr - LC3_SRATE_48K_HR][1];
 3638              		.loc 2 87 0
 3639 0030 7800     		lsls	r0, r7, #1
 3640              	.LVL552:
 3641 0032 8018     		adds	r0, r0, r2
 3642 0034 C000     		lsls	r0, r0, #3
 3643 0036 134A     		ldr	r2, .L228
 3644              	.LVL553:
 3645 0038 1018     		adds	r0, r2, r0
 3646 003a 4268     		ldr	r2, [r0, #4]
 3647 003c 01E0     		b	.L222
ARM GAS  C:\Users\rdn\AppData\Local\Temp\cco7w9JJ.s 			page 88


 3648              	.LVL554:
 3649              	.L226:
 3650 003e C822     		movs	r2, #200
 3651 0040 5200     		lsls	r2, r2, #1
 3652              	.LVL555:
 3653              	.L222:
 3654              	.LBE216:
 3655              	.LBE215:
 443:..\..\..\liblc3\src/lc3.c ****         return -1;
 3656              		.loc 1 443 0
 3657 0042 2898     		ldr	r0, [sp, #160]
 3658 0044 9042     		cmp	r0, r2
 3659 0046 19DC     		bgt	.L227
 450:..\..\..\liblc3\src/lc3.c **** 
 3660              		.loc 1 450 0
 3661 0048 8900     		lsls	r1, r1, #2
 3662              	.LVL556:
 3663 004a 0F4A     		ldr	r2, .L228+4
 3664 004c 8F58     		ldr	r7, [r1, r2]
 3665 004e 1A00     		movs	r2, r3
 3666 0050 2900     		movs	r1, r5
 3667 0052 3000     		movs	r0, r6
 3668 0054 B847     		blx	r7
 3669              	.LVL557:
 452:..\..\..\liblc3\src/lc3.c **** 
 3670              		.loc 1 452 0
 3671 0056 01AA     		add	r2, sp, #4
 3672 0058 2899     		ldr	r1, [sp, #160]
 3673 005a 3000     		movs	r0, r6
 3674 005c FFF7FEFF 		bl	analyze
 3675              	.LVL558:
 454:..\..\..\liblc3\src/lc3.c **** 
 3676              		.loc 1 454 0
 3677 0060 299B     		ldr	r3, [sp, #164]
 3678 0062 289A     		ldr	r2, [sp, #160]
 3679 0064 01A9     		add	r1, sp, #4
 3680 0066 3000     		movs	r0, r6
 3681 0068 FFF7FEFF 		bl	encode
 3682              	.LVL559:
 456:..\..\..\liblc3\src/lc3.c **** }
 3683              		.loc 1 456 0
 3684 006c 0020     		movs	r0, #0
 3685 006e 07E0     		b	.L220
 3686              	.LVL560:
 3687              	.L223:
 444:..\..\..\liblc3\src/lc3.c **** 
 3688              		.loc 1 444 0
 3689 0070 0120     		movs	r0, #1
 3690              	.LVL561:
 3691 0072 4042     		rsbs	r0, r0, #0
 3692 0074 04E0     		b	.L220
 3693              	.LVL562:
 3694              	.L225:
 3695 0076 0120     		movs	r0, #1
 3696 0078 4042     		rsbs	r0, r0, #0
 3697 007a 01E0     		b	.L220
 3698              	.L227:
ARM GAS  C:\Users\rdn\AppData\Local\Temp\cco7w9JJ.s 			page 89


 3699 007c 0120     		movs	r0, #1
 3700 007e 4042     		rsbs	r0, r0, #0
 3701              	.LVL563:
 3702              	.L220:
 457:..\..\..\liblc3\src/lc3.c **** 
 3703              		.loc 1 457 0
 3704 0080 23B0     		add	sp, sp, #140
 3705              		@ sp needed
 3706              	.LVL564:
 3707              	.LVL565:
 3708 0082 F0BD     		pop	{r4, r5, r6, r7, pc}
 3709              	.L229:
 3710              		.align	2
 3711              	.L228:
 3712 0084 00000000 		.word	lc3_frame_bytes_hr_lim
 3713 0088 00000000 		.word	.LANCHOR0
 3714              		.cfi_endproc
 3715              	.LFE42:
 3716              		.size	lc3_encode, .-lc3_encode
 3717              		.global	__aeabi_idivmod
 3718              		.section	.text.lc3_hr_decoder_size,"ax",%progbits
 3719              		.align	2
 3720              		.global	lc3_hr_decoder_size
 3721              		.code	16
 3722              		.thumb_func
 3723              		.type	lc3_hr_decoder_size, %function
 3724              	lc3_hr_decoder_size:
 3725              	.LFB50:
 667:..\..\..\liblc3\src/lc3.c **** 
 668:..\..\..\liblc3\src/lc3.c **** /**
 669:..\..\..\liblc3\src/lc3.c ****  * Return size needed for a decoder
 670:..\..\..\liblc3\src/lc3.c ****  */
 671:..\..\..\liblc3\src/lc3.c **** LC3_EXPORT unsigned lc3_hr_decoder_size(bool hrmode, int dt_us, int sr_hz)
 672:..\..\..\liblc3\src/lc3.c **** {
 3726              		.loc 1 672 0
 3727              		.cfi_startproc
 3728              		@ args = 0, pretend = 0, frame = 0
 3729              		@ frame_needed = 0, uses_anonymous_args = 0
 3730              	.LVL566:
 3731 0000 F0B5     		push	{r4, r5, r6, r7, lr}
 3732              		.cfi_def_cfa_offset 20
 3733              		.cfi_offset 4, -20
 3734              		.cfi_offset 5, -16
 3735              		.cfi_offset 6, -12
 3736              		.cfi_offset 7, -8
 3737              		.cfi_offset 14, -4
 3738 0002 4746     		mov	r7, r8
 3739 0004 80B4     		push	{r7}
 3740              		.cfi_def_cfa_offset 24
 3741              		.cfi_offset 8, -24
 3742 0006 0600     		movs	r6, r0
 3743 0008 0D00     		movs	r5, r1
 3744 000a 1400     		movs	r4, r2
 673:..\..\..\liblc3\src/lc3.c ****     if (resolve_dt(dt_us, hrmode) >= LC3_NUM_DT ||
 3745              		.loc 1 673 0
 3746 000c 0100     		movs	r1, r0
 3747              	.LVL567:
ARM GAS  C:\Users\rdn\AppData\Local\Temp\cco7w9JJ.s 			page 90


 3748 000e 2800     		movs	r0, r5
 3749              	.LVL568:
 3750 0010 FFF7FEFF 		bl	resolve_dt
 3751              	.LVL569:
 3752 0014 0328     		cmp	r0, #3
 3753 0016 3BD8     		bhi	.L234
 674:..\..\..\liblc3\src/lc3.c ****         resolve_srate(sr_hz, hrmode) >= LC3_NUM_SRATE)
 3754              		.loc 1 674 0 discriminator 1
 3755 0018 3100     		movs	r1, r6
 3756 001a 2000     		movs	r0, r4
 3757 001c FFF7FEFF 		bl	resolve_srate
 3758              	.LVL570:
 673:..\..\..\liblc3\src/lc3.c ****     if (resolve_dt(dt_us, hrmode) >= LC3_NUM_DT ||
 3759              		.loc 1 673 0 discriminator 1
 3760 0020 0628     		cmp	r0, #6
 3761 0022 37D8     		bhi	.L235
 675:..\..\..\liblc3\src/lc3.c ****         return 0;
 676:..\..\..\liblc3\src/lc3.c **** 
 677:..\..\..\liblc3\src/lc3.c ****     return sizeof(struct lc3_decoder) +
 678:..\..\..\liblc3\src/lc3.c ****         (LC3_DECODER_BUFFER_COUNT(dt_us, sr_hz)-1) * sizeof(float);
 3762              		.loc 1 678 0
 3763 0024 1D4B     		ldr	r3, .L238
 3764 0026 9C42     		cmp	r4, r3
 3765 0028 12DC     		bgt	.L236
 3766              		.loc 1 678 0 is_stmt 0 discriminator 1
 3767 002a 1D48     		ldr	r0, .L238+4
 3768 002c 6043     		muls	r0, r4
 3769 002e 1D49     		ldr	r1, .L238+8
 3770 0030 FFF7FEFF 		bl	__aeabi_idiv
 3771              	.LVL571:
 3772 0034 0700     		movs	r7, r0
 3773 0036 1B49     		ldr	r1, .L238+8
 3774 0038 2000     		movs	r0, r4
 3775 003a 6843     		muls	r0, r5
 3776 003c FFF7FEFF 		bl	__aeabi_idiv
 3777              	.LVL572:
 3778 0040 0100     		movs	r1, r0
 3779 0042 3E18     		adds	r6, r7, r0
 3780 0044 3800     		movs	r0, r7
 3781 0046 FFF7FEFF 		bl	__aeabi_idivmod
 3782              	.LVL573:
 3783 004a 731A     		subs	r3, r6, r1
 3784 004c 9846     		mov	r8, r3
 3785 004e 01E0     		b	.L232
 3786              	.L236:
 3787              		.loc 1 678 0
 3788 0050 0023     		movs	r3, #0
 3789 0052 9846     		mov	r8, r3
 3790              	.L232:
 3791              		.loc 1 678 0 discriminator 4
 3792 0054 2700     		movs	r7, r4
 3793 0056 6F43     		muls	r7, r5
 3794 0058 1249     		ldr	r1, .L238+8
 3795 005a 3800     		movs	r0, r7
 3796 005c FFF7FEFF 		bl	__aeabi_idiv
 3797              	.LVL574:
 3798 0060 0600     		movs	r6, r0
ARM GAS  C:\Users\rdn\AppData\Local\Temp\cco7w9JJ.s 			page 91


 3799 0062 8044     		add	r8, r8, r0
 3800 0064 1049     		ldr	r1, .L238+12
 3801 0066 3800     		movs	r0, r7
 3802 0068 FFF7FEFF 		bl	__aeabi_idiv
 3803              	.LVL575:
 3804 006c 0700     		movs	r7, r0
 3805 006e 0F4B     		ldr	r3, .L238+16
 3806 0070 9D42     		cmp	r5, r3
 3807 0072 02D1     		bne	.L237
 3808              		.loc 1 678 0
 3809 0074 FA20     		movs	r0, #250
 3810 0076 C000     		lsls	r0, r0, #3
 3811 0078 00E0     		b	.L233
 3812              	.L237:
 3813 007a 0D48     		ldr	r0, .L238+20
 3814              	.L233:
 3815              		.loc 1 678 0 discriminator 8
 3816 007c 6043     		muls	r0, r4
 3817 007e 0949     		ldr	r1, .L238+8
 3818 0080 FFF7FEFF 		bl	__aeabi_idiv
 3819              	.LVL576:
 3820 0084 3818     		adds	r0, r7, r0
 3821 0086 4044     		add	r0, r0, r8
 3822 0088 3018     		adds	r0, r6, r0
 677:..\..\..\liblc3\src/lc3.c ****         (LC3_DECODER_BUFFER_COUNT(dt_us, sr_hz)-1) * sizeof(float);
 3823              		.loc 1 677 0 is_stmt 1 discriminator 8
 3824 008a 2E30     		adds	r0, r0, #46
 3825 008c 8000     		lsls	r0, r0, #2
 3826 008e 02E0     		b	.L231
 3827              	.L234:
 675:..\..\..\liblc3\src/lc3.c ****         return 0;
 3828              		.loc 1 675 0
 3829 0090 0020     		movs	r0, #0
 3830 0092 00E0     		b	.L231
 3831              	.L235:
 3832 0094 0020     		movs	r0, #0
 3833              	.L231:
 679:..\..\..\liblc3\src/lc3.c **** }
 3834              		.loc 1 679 0
 3835              		@ sp needed
 3836              	.LVL577:
 3837              	.LVL578:
 3838 0096 04BC     		pop	{r2}
 3839 0098 9046     		mov	r8, r2
 3840 009a F0BD     		pop	{r4, r5, r6, r7, pc}
 3841              	.L239:
 3842              		.align	2
 3843              	.L238:
 3844 009c 80BB0000 		.word	48000
 3845 00a0 50460000 		.word	18000
 3846 00a4 40420F00 		.word	1000000
 3847 00a8 80841E00 		.word	2000000
 3848 00ac 4C1D0000 		.word	7500
 3849 00b0 E2040000 		.word	1250
 3850              		.cfi_endproc
 3851              	.LFE50:
 3852              		.size	lc3_hr_decoder_size, .-lc3_hr_decoder_size
ARM GAS  C:\Users\rdn\AppData\Local\Temp\cco7w9JJ.s 			page 92


 3853              		.section	.text.lc3_decoder_size,"ax",%progbits
 3854              		.align	2
 3855              		.global	lc3_decoder_size
 3856              		.code	16
 3857              		.thumb_func
 3858              		.type	lc3_decoder_size, %function
 3859              	lc3_decoder_size:
 3860              	.LFB51:
 680:..\..\..\liblc3\src/lc3.c **** 
 681:..\..\..\liblc3\src/lc3.c **** LC3_EXPORT unsigned lc3_decoder_size(int dt_us, int sr_hz)
 682:..\..\..\liblc3\src/lc3.c **** {
 3861              		.loc 1 682 0
 3862              		.cfi_startproc
 3863              		@ args = 0, pretend = 0, frame = 0
 3864              		@ frame_needed = 0, uses_anonymous_args = 0
 3865              	.LVL579:
 3866 0000 10B5     		push	{r4, lr}
 3867              		.cfi_def_cfa_offset 8
 3868              		.cfi_offset 4, -8
 3869              		.cfi_offset 14, -4
 3870 0002 0A00     		movs	r2, r1
 683:..\..\..\liblc3\src/lc3.c ****     return lc3_hr_decoder_size(false, dt_us, sr_hz);
 3871              		.loc 1 683 0
 3872 0004 0100     		movs	r1, r0
 3873              	.LVL580:
 3874 0006 0020     		movs	r0, #0
 3875              	.LVL581:
 3876 0008 FFF7FEFF 		bl	lc3_hr_decoder_size
 3877              	.LVL582:
 684:..\..\..\liblc3\src/lc3.c **** }
 3878              		.loc 1 684 0
 3879              		@ sp needed
 3880 000c 10BD     		pop	{r4, pc}
 3881              		.cfi_endproc
 3882              	.LFE51:
 3883              		.size	lc3_decoder_size, .-lc3_decoder_size
 3884 000e C046     		.section	.text.lc3_hr_setup_decoder,"ax",%progbits
 3885              		.align	2
 3886              		.global	lc3_hr_setup_decoder
 3887              		.code	16
 3888              		.thumb_func
 3889              		.type	lc3_hr_setup_decoder, %function
 3890              	lc3_hr_setup_decoder:
 3891              	.LFB52:
 685:..\..\..\liblc3\src/lc3.c **** 
 686:..\..\..\liblc3\src/lc3.c **** /**
 687:..\..\..\liblc3\src/lc3.c ****  * Setup decoder
 688:..\..\..\liblc3\src/lc3.c ****  */
 689:..\..\..\liblc3\src/lc3.c **** LC3_EXPORT struct lc3_decoder *lc3_hr_setup_decoder(
 690:..\..\..\liblc3\src/lc3.c ****     bool hrmode, int dt_us, int sr_hz, int sr_pcm_hz, void *mem)
 691:..\..\..\liblc3\src/lc3.c **** {
 3892              		.loc 1 691 0
 3893              		.cfi_startproc
 3894              		@ args = 4, pretend = 0, frame = 8
 3895              		@ frame_needed = 0, uses_anonymous_args = 0
 3896              	.LVL583:
 3897 0000 F0B5     		push	{r4, r5, r6, r7, lr}
ARM GAS  C:\Users\rdn\AppData\Local\Temp\cco7w9JJ.s 			page 93


 3898              		.cfi_def_cfa_offset 20
 3899              		.cfi_offset 4, -20
 3900              		.cfi_offset 5, -16
 3901              		.cfi_offset 6, -12
 3902              		.cfi_offset 7, -8
 3903              		.cfi_offset 14, -4
 3904 0002 5F46     		mov	r7, fp
 3905 0004 5646     		mov	r6, r10
 3906 0006 4D46     		mov	r5, r9
 3907 0008 4446     		mov	r4, r8
 3908 000a F0B4     		push	{r4, r5, r6, r7}
 3909              		.cfi_def_cfa_offset 36
 3910              		.cfi_offset 8, -36
 3911              		.cfi_offset 9, -32
 3912              		.cfi_offset 10, -28
 3913              		.cfi_offset 11, -24
 3914 000c 83B0     		sub	sp, sp, #12
 3915              		.cfi_def_cfa_offset 48
 3916 000e 0500     		movs	r5, r0
 3917 0010 8946     		mov	r9, r1
 3918 0012 0192     		str	r2, [sp, #4]
 3919 0014 1E1E     		subs	r6, r3, #0
 3920 0016 0C9C     		ldr	r4, [sp, #48]
 692:..\..\..\liblc3\src/lc3.c ****     if (sr_pcm_hz <= 0)
 3921              		.loc 1 692 0
 3922 0018 00DC     		bgt	.L242
 693:..\..\..\liblc3\src/lc3.c ****         sr_pcm_hz = sr_hz;
 3923              		.loc 1 693 0
 3924 001a 1600     		movs	r6, r2
 3925              	.L242:
 3926              	.LVL584:
 694:..\..\..\liblc3\src/lc3.c **** 
 695:..\..\..\liblc3\src/lc3.c ****     enum lc3_dt dt = resolve_dt(dt_us, hrmode);
 3927              		.loc 1 695 0
 3928 001c 2900     		movs	r1, r5
 3929              	.LVL585:
 3930 001e 4846     		mov	r0, r9
 3931              	.LVL586:
 3932 0020 FFF7FEFF 		bl	resolve_dt
 3933              	.LVL587:
 3934 0024 0090     		str	r0, [sp]
 3935 0026 0700     		movs	r7, r0
 3936              	.LVL588:
 696:..\..\..\liblc3\src/lc3.c ****     enum lc3_srate sr = resolve_srate(sr_hz, hrmode);
 3937              		.loc 1 696 0
 3938 0028 2900     		movs	r1, r5
 3939 002a 0198     		ldr	r0, [sp, #4]
 3940 002c FFF7FEFF 		bl	resolve_srate
 3941              	.LVL589:
 3942 0030 0190     		str	r0, [sp, #4]
 3943              	.LVL590:
 3944 0032 8346     		mov	fp, r0
 3945              	.LVL591:
 697:..\..\..\liblc3\src/lc3.c ****     enum lc3_srate sr_pcm = resolve_srate(sr_pcm_hz, hrmode);
 3946              		.loc 1 697 0
 3947 0034 2900     		movs	r1, r5
 3948 0036 3000     		movs	r0, r6
ARM GAS  C:\Users\rdn\AppData\Local\Temp\cco7w9JJ.s 			page 94


 3949 0038 FFF7FEFF 		bl	resolve_srate
 3950              	.LVL592:
 3951 003c 0500     		movs	r5, r0
 3952              	.LVL593:
 698:..\..\..\liblc3\src/lc3.c **** 
 699:..\..\..\liblc3\src/lc3.c ****     if (dt >= LC3_NUM_DT || sr_pcm >= LC3_NUM_SRATE || sr > sr_pcm || !mem)
 3953              		.loc 1 699 0
 3954 003e 032F     		cmp	r7, #3
 3955 0040 7AD8     		bhi	.L250
 3956              		.loc 1 699 0 is_stmt 0 discriminator 1
 3957 0042 0628     		cmp	r0, #6
 3958 0044 7AD8     		bhi	.L251
 3959              		.loc 1 699 0 discriminator 2
 3960 0046 8345     		cmp	fp, r0
 3961 0048 7AD8     		bhi	.L252
 3962              		.loc 1 699 0 discriminator 3
 3963 004a 002C     		cmp	r4, #0
 3964 004c 7AD0     		beq	.L253
 3965              	.LVL594:
 3966              	.LBB217:
 3967              	.LBB218:
  60:..\..\..\liblc3\src/tables.h ****         (8 + (dt == LC3_DT_7M5)) * lc3_ns_2m5[sr];
 3968              		.loc 2 60 0 is_stmt 1
 3969 004e 0528     		cmp	r0, #5
 3970 0050 0AD8     		bhi	.L254
  61:..\..\..\liblc3\src/tables.h **** }
 3971              		.loc 2 61 0
 3972 0052 022F     		cmp	r7, #2
 3973 0054 01D1     		bne	.L255
 3974 0056 0922     		movs	r2, #9
 3975 0058 00E0     		b	.L245
 3976              	.L255:
 3977 005a 0822     		movs	r2, #8
 3978              	.L245:
 3979 005c AB00     		lsls	r3, r5, #2
 3980 005e 3D49     		ldr	r1, .L258
 3981 0060 5B58     		ldr	r3, [r3, r1]
  60:..\..\..\liblc3\src/tables.h ****         (8 + (dt == LC3_DT_7M5)) * lc3_ns_2m5[sr];
 3982              		.loc 2 60 0
 3983 0062 5A43     		muls	r2, r3
 3984 0064 9346     		mov	fp, r2
 3985 0066 01E0     		b	.L244
 3986              	.L254:
 3987 0068 0023     		movs	r3, #0
 3988 006a 9B46     		mov	fp, r3
 3989              	.L244:
 3990              	.LVL595:
 3991              	.LBE218:
 3992              	.LBE217:
 3993              	.LBB219:
 3994              	.LBB220:
  47:..\..\..\liblc3\src/tables.h **** }
 3995              		.loc 2 47 0
 3996 006c AB00     		lsls	r3, r5, #2
 3997 006e 394A     		ldr	r2, .L258
 3998 0070 9B58     		ldr	r3, [r3, r2]
 3999 0072 009A     		ldr	r2, [sp]
ARM GAS  C:\Users\rdn\AppData\Local\Temp\cco7w9JJ.s 			page 95


 4000 0074 0132     		adds	r2, r2, #1
 4001 0076 5A43     		muls	r2, r3
 4002              	.LVL596:
 4003              	.LBE220:
 4004              	.LBE219:
 4005              	.LBB221:
 4006              	.LBB222:
  56:..\..\..\liblc3\src/tables.h **** }
 4007              		.loc 2 56 0
 4008 0078 022F     		cmp	r7, #2
 4009 007a 02D1     		bne	.L246
 4010 007c AB00     		lsls	r3, r5, #2
 4011 007e 3649     		ldr	r1, .L258+4
 4012 0080 5B58     		ldr	r3, [r3, r1]
 4013              	.L246:
  55:..\..\..\liblc3\src/tables.h ****         (dt == LC3_DT_7M5 ? lc3_ns_4m[sr] : lc3_ns_2m5[sr]) ) >> 1;
 4014              		.loc 2 55 0
 4015 0082 9B18     		adds	r3, r3, r2
 4016 0084 5B10     		asrs	r3, r3, #1
 4017              	.LVL597:
 4018              	.LBE222:
 4019              	.LBE221:
 700:..\..\..\liblc3\src/lc3.c ****         return NULL;
 701:..\..\..\liblc3\src/lc3.c **** 
 702:..\..\..\liblc3\src/lc3.c ****     struct lc3_decoder *decoder = mem;
 703:..\..\..\liblc3\src/lc3.c ****     int nh = lc3_nh(dt, sr_pcm);
 704:..\..\..\liblc3\src/lc3.c ****     int ns = lc3_ns(dt, sr_pcm);
 705:..\..\..\liblc3\src/lc3.c ****     int nd = lc3_nd(dt, sr_pcm);
 706:..\..\..\liblc3\src/lc3.c **** 
 707:..\..\..\liblc3\src/lc3.c ****     *decoder = (struct lc3_decoder){
 708:..\..\..\liblc3\src/lc3.c ****         .dt = dt, .sr = sr,
 709:..\..\..\liblc3\src/lc3.c ****         .sr_pcm = sr_pcm,
 710:..\..\..\liblc3\src/lc3.c **** 
 711:..\..\..\liblc3\src/lc3.c ****         .xh_off = 0,
 712:..\..\..\liblc3\src/lc3.c ****         .xs_off = nh,
 713:..\..\..\liblc3\src/lc3.c ****         .xd_off = nh + ns,
 714:..\..\..\liblc3\src/lc3.c ****         .xg_off = nh + ns + nd,
 4020              		.loc 1 714 0
 4021 0086 5A44     		add	r2, r2, fp
 4022 0088 1700     		movs	r7, r2
 4023 008a 9846     		mov	r8, r3
 4024 008c 9044     		add	r8, r8, r2
 707:..\..\..\liblc3\src/lc3.c ****         .dt = dt, .sr = sr,
 4025              		.loc 1 707 0
 4026 008e BC22     		movs	r2, #188
 4027 0090 0021     		movs	r1, #0
 4028 0092 2000     		movs	r0, r4
 4029              	.LVL598:
 4030 0094 FFF7FEFF 		bl	memset
 4031              	.LVL599:
 4032 0098 6B46     		mov	r3, sp
 4033 009a 1B78     		ldrb	r3, [r3]
 4034 009c 2370     		strb	r3, [r4]
 4035 009e 6B46     		mov	r3, sp
 4036 00a0 1B79     		ldrb	r3, [r3, #4]
 4037 00a2 6370     		strb	r3, [r4, #1]
 4038 00a4 A570     		strb	r5, [r4, #2]
ARM GAS  C:\Users\rdn\AppData\Local\Temp\cco7w9JJ.s 			page 96


 4039 00a6 AC23     		movs	r3, #172
 4040 00a8 5A46     		mov	r2, fp
 4041 00aa E250     		str	r2, [r4, r3]
 4042 00ac 0433     		adds	r3, r3, #4
 4043 00ae E750     		str	r7, [r4, r3]
 4044 00b0 0433     		adds	r3, r3, #4
 4045 00b2 4246     		mov	r2, r8
 4046 00b4 E250     		str	r2, [r4, r3]
 715:..\..\..\liblc3\src/lc3.c ****     };
 716:..\..\..\liblc3\src/lc3.c **** 
 717:..\..\..\liblc3\src/lc3.c ****     lc3_plc_reset(&decoder->plc);
 4047              		.loc 1 717 0
 4048 00b6 2000     		movs	r0, r4
 4049 00b8 9C30     		adds	r0, r0, #156
 4050 00ba FFF7FEFF 		bl	lc3_plc_reset
 4051              	.LVL600:
 718:..\..\..\liblc3\src/lc3.c **** 
 719:..\..\..\liblc3\src/lc3.c ****     memset(decoder->x, 0,
 4052              		.loc 1 719 0
 4053 00be B823     		movs	r3, #184
 4054 00c0 9846     		mov	r8, r3
 4055 00c2 A044     		add	r8, r8, r4
 720:..\..\..\liblc3\src/lc3.c ****         LC3_DECODER_BUFFER_COUNT(dt_us, sr_pcm_hz) * sizeof(float));
 4056              		.loc 1 720 0
 4057 00c4 254B     		ldr	r3, .L258+8
 4058 00c6 9E42     		cmp	r6, r3
 4059 00c8 12DC     		bgt	.L256
 4060              		.loc 1 720 0 is_stmt 0 discriminator 1
 4061 00ca 2548     		ldr	r0, .L258+12
 4062 00cc 7043     		muls	r0, r6
 4063 00ce 2549     		ldr	r1, .L258+16
 4064 00d0 FFF7FEFF 		bl	__aeabi_idiv
 4065              	.LVL601:
 4066 00d4 0500     		movs	r5, r0
 4067 00d6 2349     		ldr	r1, .L258+16
 4068 00d8 4846     		mov	r0, r9
 4069 00da 7043     		muls	r0, r6
 4070 00dc FFF7FEFF 		bl	__aeabi_idiv
 4071              	.LVL602:
 4072 00e0 0100     		movs	r1, r0
 4073 00e2 2F18     		adds	r7, r5, r0
 4074 00e4 2800     		movs	r0, r5
 4075 00e6 FFF7FEFF 		bl	__aeabi_idivmod
 4076              	.LVL603:
 4077 00ea 7B1A     		subs	r3, r7, r1
 4078 00ec 9A46     		mov	r10, r3
 4079 00ee 01E0     		b	.L247
 4080              	.L256:
 4081              		.loc 1 720 0
 4082 00f0 0023     		movs	r3, #0
 4083 00f2 9A46     		mov	r10, r3
 4084              	.L247:
 4085              		.loc 1 720 0 discriminator 4
 4086 00f4 4D46     		mov	r5, r9
 4087 00f6 7543     		muls	r5, r6
 4088 00f8 1A49     		ldr	r1, .L258+16
 4089 00fa 2800     		movs	r0, r5
ARM GAS  C:\Users\rdn\AppData\Local\Temp\cco7w9JJ.s 			page 97


 4090 00fc FFF7FEFF 		bl	__aeabi_idiv
 4091              	.LVL604:
 4092 0100 0700     		movs	r7, r0
 4093 0102 8244     		add	r10, r10, r0
 4094 0104 1849     		ldr	r1, .L258+20
 4095 0106 2800     		movs	r0, r5
 4096 0108 FFF7FEFF 		bl	__aeabi_idiv
 4097              	.LVL605:
 4098 010c 0500     		movs	r5, r0
 4099 010e 174B     		ldr	r3, .L258+24
 4100 0110 9945     		cmp	r9, r3
 4101 0112 02D1     		bne	.L257
 4102              		.loc 1 720 0
 4103 0114 FA20     		movs	r0, #250
 4104 0116 C000     		lsls	r0, r0, #3
 4105 0118 00E0     		b	.L248
 4106              	.L257:
 4107 011a 1548     		ldr	r0, .L258+28
 4108              	.L248:
 4109              		.loc 1 720 0 discriminator 8
 4110 011c 7043     		muls	r0, r6
 4111 011e 1149     		ldr	r1, .L258+16
 4112 0120 FFF7FEFF 		bl	__aeabi_idiv
 4113              	.LVL606:
 4114 0124 2A18     		adds	r2, r5, r0
 4115 0126 5244     		add	r2, r2, r10
 4116 0128 BA18     		adds	r2, r7, r2
 719:..\..\..\liblc3\src/lc3.c ****         LC3_DECODER_BUFFER_COUNT(dt_us, sr_pcm_hz) * sizeof(float));
 4117              		.loc 1 719 0 is_stmt 1 discriminator 8
 4118 012a 9200     		lsls	r2, r2, #2
 4119 012c 0021     		movs	r1, #0
 4120 012e 4046     		mov	r0, r8
 4121 0130 FFF7FEFF 		bl	memset
 4122              	.LVL607:
 721:..\..\..\liblc3\src/lc3.c **** 
 722:..\..\..\liblc3\src/lc3.c ****     return decoder;
 4123              		.loc 1 722 0 discriminator 8
 4124 0134 2000     		movs	r0, r4
 4125 0136 06E0     		b	.L243
 4126              	.LVL608:
 4127              	.L250:
 700:..\..\..\liblc3\src/lc3.c **** 
 4128              		.loc 1 700 0
 4129 0138 0020     		movs	r0, #0
 4130              	.LVL609:
 4131 013a 04E0     		b	.L243
 4132              	.LVL610:
 4133              	.L251:
 4134 013c 0020     		movs	r0, #0
 4135              	.LVL611:
 4136 013e 02E0     		b	.L243
 4137              	.LVL612:
 4138              	.L252:
 4139 0140 0020     		movs	r0, #0
 4140              	.LVL613:
 4141 0142 00E0     		b	.L243
 4142              	.LVL614:
ARM GAS  C:\Users\rdn\AppData\Local\Temp\cco7w9JJ.s 			page 98


 4143              	.L253:
 4144 0144 0020     		movs	r0, #0
 4145              	.LVL615:
 4146              	.L243:
 723:..\..\..\liblc3\src/lc3.c **** }
 4147              		.loc 1 723 0
 4148 0146 03B0     		add	sp, sp, #12
 4149              	.LVL616:
 4150              		@ sp needed
 4151              	.LVL617:
 4152              	.LVL618:
 4153 0148 3CBC     		pop	{r2, r3, r4, r5}
 4154 014a 9046     		mov	r8, r2
 4155 014c 9946     		mov	r9, r3
 4156 014e A246     		mov	r10, r4
 4157 0150 AB46     		mov	fp, r5
 4158 0152 F0BD     		pop	{r4, r5, r6, r7, pc}
 4159              	.L259:
 4160              		.align	2
 4161              	.L258:
 4162 0154 00000000 		.word	lc3_ns_2m5
 4163 0158 00000000 		.word	lc3_ns_4m
 4164 015c 80BB0000 		.word	48000
 4165 0160 50460000 		.word	18000
 4166 0164 40420F00 		.word	1000000
 4167 0168 80841E00 		.word	2000000
 4168 016c 4C1D0000 		.word	7500
 4169 0170 E2040000 		.word	1250
 4170              		.cfi_endproc
 4171              	.LFE52:
 4172              		.size	lc3_hr_setup_decoder, .-lc3_hr_setup_decoder
 4173              		.section	.text.lc3_setup_decoder,"ax",%progbits
 4174              		.align	2
 4175              		.global	lc3_setup_decoder
 4176              		.code	16
 4177              		.thumb_func
 4178              		.type	lc3_setup_decoder, %function
 4179              	lc3_setup_decoder:
 4180              	.LFB53:
 724:..\..\..\liblc3\src/lc3.c **** 
 725:..\..\..\liblc3\src/lc3.c **** LC3_EXPORT struct lc3_decoder *lc3_setup_decoder(
 726:..\..\..\liblc3\src/lc3.c ****     int dt_us, int sr_hz, int sr_pcm_hz, void *mem)
 727:..\..\..\liblc3\src/lc3.c **** {
 4181              		.loc 1 727 0
 4182              		.cfi_startproc
 4183              		@ args = 0, pretend = 0, frame = 0
 4184              		@ frame_needed = 0, uses_anonymous_args = 0
 4185              	.LVL619:
 4186 0000 00B5     		push	{lr}
 4187              		.cfi_def_cfa_offset 4
 4188              		.cfi_offset 14, -4
 4189 0002 83B0     		sub	sp, sp, #12
 4190              		.cfi_def_cfa_offset 16
 728:..\..\..\liblc3\src/lc3.c ****     return lc3_hr_setup_decoder(false, dt_us, sr_hz, sr_pcm_hz, mem);
 4191              		.loc 1 728 0
 4192 0004 0093     		str	r3, [sp]
 4193 0006 1300     		movs	r3, r2
ARM GAS  C:\Users\rdn\AppData\Local\Temp\cco7w9JJ.s 			page 99


 4194              	.LVL620:
 4195 0008 0A00     		movs	r2, r1
 4196              	.LVL621:
 4197 000a 0100     		movs	r1, r0
 4198              	.LVL622:
 4199 000c 0020     		movs	r0, #0
 4200              	.LVL623:
 4201 000e FFF7FEFF 		bl	lc3_hr_setup_decoder
 4202              	.LVL624:
 729:..\..\..\liblc3\src/lc3.c **** }
 4203              		.loc 1 729 0
 4204 0012 03B0     		add	sp, sp, #12
 4205              		@ sp needed
 4206 0014 00BD     		pop	{pc}
 4207              		.cfi_endproc
 4208              	.LFE53:
 4209              		.size	lc3_setup_decoder, .-lc3_setup_decoder
 4210 0016 C046     		.section	.text.lc3_decode,"ax",%progbits
 4211              		.align	2
 4212              		.global	lc3_decode
 4213              		.code	16
 4214              		.thumb_func
 4215              		.type	lc3_decode, %function
 4216              	lc3_decode:
 4217              	.LFB54:
 730:..\..\..\liblc3\src/lc3.c **** 
 731:..\..\..\liblc3\src/lc3.c **** /**
 732:..\..\..\liblc3\src/lc3.c ****  * Decode a frame
 733:..\..\..\liblc3\src/lc3.c ****  */
 734:..\..\..\liblc3\src/lc3.c **** LC3_EXPORT int lc3_decode(struct lc3_decoder *decoder,
 735:..\..\..\liblc3\src/lc3.c ****     const void *in, int nbytes, enum lc3_pcm_format fmt, void *pcm, int stride)
 736:..\..\..\liblc3\src/lc3.c **** {
 4218              		.loc 1 736 0
 4219              		.cfi_startproc
 4220              		@ args = 8, pretend = 0, frame = 136
 4221              		@ frame_needed = 0, uses_anonymous_args = 0
 4222              	.LVL625:
 4223 0000 F0B5     		push	{r4, r5, r6, r7, lr}
 4224              		.cfi_def_cfa_offset 20
 4225              		.cfi_offset 4, -20
 4226              		.cfi_offset 5, -16
 4227              		.cfi_offset 6, -12
 4228              		.cfi_offset 7, -8
 4229              		.cfi_offset 14, -4
 4230 0002 A3B0     		sub	sp, sp, #140
 4231              		.cfi_def_cfa_offset 160
 4232 0004 0400     		movs	r4, r0
 4233 0006 1600     		movs	r6, r2
 4234 0008 1D00     		movs	r5, r3
 737:..\..\..\liblc3\src/lc3.c ****     static void (* const store[])(struct lc3_decoder *, void *, int) = {
 738:..\..\..\liblc3\src/lc3.c ****         [LC3_PCM_FORMAT_S16    ] = store_s16,
 739:..\..\..\liblc3\src/lc3.c ****         [LC3_PCM_FORMAT_S24    ] = store_s24,
 740:..\..\..\liblc3\src/lc3.c ****         [LC3_PCM_FORMAT_S24_3LE] = store_s24_3le,
 741:..\..\..\liblc3\src/lc3.c ****         [LC3_PCM_FORMAT_FLOAT  ] = store_float,
 742:..\..\..\liblc3\src/lc3.c ****     };
 743:..\..\..\liblc3\src/lc3.c **** 
 744:..\..\..\liblc3\src/lc3.c ****     /* --- Check parameters --- */
ARM GAS  C:\Users\rdn\AppData\Local\Temp\cco7w9JJ.s 			page 100


 745:..\..\..\liblc3\src/lc3.c **** 
 746:..\..\..\liblc3\src/lc3.c ****     if (!decoder)
 4235              		.loc 1 746 0
 4236 000a 0028     		cmp	r0, #0
 4237 000c 37D0     		beq	.L267
 747:..\..\..\liblc3\src/lc3.c ****         return -1;
 748:..\..\..\liblc3\src/lc3.c **** 
 749:..\..\..\liblc3\src/lc3.c ****     if (in && (nbytes < LC3_MIN_FRAME_BYTES ||
 4238              		.loc 1 749 0
 4239 000e 0029     		cmp	r1, #0
 4240 0010 11D0     		beq	.L263
 4241              		.loc 1 749 0 is_stmt 0 discriminator 1
 4242 0012 132A     		cmp	r2, #19
 4243 0014 36DD     		ble	.L268
 750:..\..\..\liblc3\src/lc3.c ****                nbytes > lc3_max_frame_bytes(decoder->dt, decoder->sr) ))
 4244              		.loc 1 750 0 is_stmt 1 discriminator 2
 4245 0016 0078     		ldrb	r0, [r0]
 4246              	.LVL626:
 4247 0018 6378     		ldrb	r3, [r4, #1]
 4248              	.LVL627:
 4249              	.LBB223:
 4250              	.LBB224:
  87:..\..\..\liblc3\src/tables.h ****         lc3_frame_bytes_hr_lim[dt][sr - LC3_SRATE_48K_HR][1];
 4251              		.loc 2 87 0 discriminator 2
 4252 001a 042B     		cmp	r3, #4
 4253 001c 07D9     		bls	.L269
 4254              		.loc 2 88 0
 4255 001e 5A1F     		subs	r2, r3, #5
 4256              	.LVL628:
  87:..\..\..\liblc3\src/tables.h ****         lc3_frame_bytes_hr_lim[dt][sr - LC3_SRATE_48K_HR][1];
 4257              		.loc 2 87 0
 4258 0020 4300     		lsls	r3, r0, #1
 4259              	.LVL629:
 4260 0022 9B18     		adds	r3, r3, r2
 4261 0024 DB00     		lsls	r3, r3, #3
 4262 0026 1B4A     		ldr	r2, .L274
 4263              	.LVL630:
 4264 0028 D318     		adds	r3, r2, r3
 4265 002a 5B68     		ldr	r3, [r3, #4]
 4266 002c 01E0     		b	.L264
 4267              	.LVL631:
 4268              	.L269:
 4269 002e C823     		movs	r3, #200
 4270              	.LVL632:
 4271 0030 5B00     		lsls	r3, r3, #1
 4272              	.LVL633:
 4273              	.L264:
 4274              	.LBE224:
 4275              	.LBE223:
 749:..\..\..\liblc3\src/lc3.c ****                nbytes > lc3_max_frame_bytes(decoder->dt, decoder->sr) ))
 4276              		.loc 1 749 0
 4277 0032 9E42     		cmp	r6, r3
 4278 0034 29DC     		bgt	.L270
 4279              	.L263:
 751:..\..\..\liblc3\src/lc3.c ****         return -1;
 752:..\..\..\liblc3\src/lc3.c **** 
 753:..\..\..\liblc3\src/lc3.c ****     /* --- Processing --- */
ARM GAS  C:\Users\rdn\AppData\Local\Temp\cco7w9JJ.s 			page 101


 754:..\..\..\liblc3\src/lc3.c **** 
 755:..\..\..\liblc3\src/lc3.c ****     struct side_data side;
 756:..\..\..\liblc3\src/lc3.c **** 
 757:..\..\..\liblc3\src/lc3.c ****     int ret = !in || (decode(decoder, in, nbytes, &side) < 0);
 4280              		.loc 1 757 0
 4281 0036 0029     		cmp	r1, #0
 4282 0038 08D0     		beq	.L271
 4283              		.loc 1 757 0 is_stmt 0 discriminator 2
 4284 003a 01AB     		add	r3, sp, #4
 4285 003c 3200     		movs	r2, r6
 4286 003e 2000     		movs	r0, r4
 4287 0040 FFF7FEFF 		bl	decode
 4288              	.LVL634:
 4289 0044 0028     		cmp	r0, #0
 4290 0046 03DB     		blt	.L272
 4291              		.loc 1 757 0
 4292 0048 0027     		movs	r7, #0
 4293 004a 02E0     		b	.L265
 4294              	.LVL635:
 4295              	.L271:
 4296 004c 0127     		movs	r7, #1
 4297 004e 00E0     		b	.L265
 4298              	.LVL636:
 4299              	.L272:
 4300 0050 0127     		movs	r7, #1
 4301              	.L265:
 4302              	.LVL637:
 758:..\..\..\liblc3\src/lc3.c **** 
 759:..\..\..\liblc3\src/lc3.c ****     synthesize(decoder, ret ? NULL : &side, nbytes);
 4303              		.loc 1 759 0 is_stmt 1 discriminator 6
 4304 0052 002F     		cmp	r7, #0
 4305 0054 01D1     		bne	.L273
 4306              		.loc 1 759 0 is_stmt 0
 4307 0056 01A9     		add	r1, sp, #4
 4308 0058 00E0     		b	.L266
 4309              	.L273:
 4310 005a 0021     		movs	r1, #0
 4311              	.L266:
 4312              		.loc 1 759 0 discriminator 4
 4313 005c 3200     		movs	r2, r6
 4314 005e 2000     		movs	r0, r4
 4315 0060 FFF7FEFF 		bl	synthesize
 4316              	.LVL638:
 760:..\..\..\liblc3\src/lc3.c **** 
 761:..\..\..\liblc3\src/lc3.c ****     store[fmt](decoder, pcm, stride);
 4317              		.loc 1 761 0 is_stmt 1 discriminator 4
 4318 0064 AD00     		lsls	r5, r5, #2
 4319 0066 0C4B     		ldr	r3, .L274+4
 4320 0068 5D19     		adds	r5, r3, r5
 4321 006a 2B69     		ldr	r3, [r5, #16]
 4322 006c 299A     		ldr	r2, [sp, #164]
 4323 006e 2899     		ldr	r1, [sp, #160]
 4324 0070 2000     		movs	r0, r4
 4325 0072 9847     		blx	r3
 4326              	.LVL639:
 762:..\..\..\liblc3\src/lc3.c **** 
 763:..\..\..\liblc3\src/lc3.c ****     complete(decoder);
ARM GAS  C:\Users\rdn\AppData\Local\Temp\cco7w9JJ.s 			page 102


 4327              		.loc 1 763 0 discriminator 4
 4328 0074 2000     		movs	r0, r4
 4329 0076 FFF7FEFF 		bl	complete
 4330              	.LVL640:
 764:..\..\..\liblc3\src/lc3.c **** 
 765:..\..\..\liblc3\src/lc3.c ****     return ret;
 4331              		.loc 1 765 0 discriminator 4
 4332 007a 3800     		movs	r0, r7
 4333 007c 07E0     		b	.L262
 4334              	.LVL641:
 4335              	.L267:
 747:..\..\..\liblc3\src/lc3.c **** 
 4336              		.loc 1 747 0
 4337 007e 0120     		movs	r0, #1
 4338              	.LVL642:
 4339 0080 4042     		rsbs	r0, r0, #0
 4340 0082 04E0     		b	.L262
 4341              	.LVL643:
 4342              	.L268:
 751:..\..\..\liblc3\src/lc3.c **** 
 4343              		.loc 1 751 0
 4344 0084 0120     		movs	r0, #1
 4345              	.LVL644:
 4346 0086 4042     		rsbs	r0, r0, #0
 4347 0088 01E0     		b	.L262
 4348              	.LVL645:
 4349              	.L270:
 4350 008a 0120     		movs	r0, #1
 4351 008c 4042     		rsbs	r0, r0, #0
 4352              	.LVL646:
 4353              	.L262:
 766:..\..\..\liblc3\src/lc3.c **** }
 4354              		.loc 1 766 0
 4355 008e 23B0     		add	sp, sp, #140
 4356              		@ sp needed
 4357              	.LVL647:
 4358              	.LVL648:
 4359 0090 F0BD     		pop	{r4, r5, r6, r7, pc}
 4360              	.L275:
 4361 0092 C046     		.align	2
 4362              	.L274:
 4363 0094 00000000 		.word	lc3_frame_bytes_hr_lim
 4364 0098 00000000 		.word	.LANCHOR0
 4365              		.cfi_endproc
 4366              	.LFE54:
 4367              		.size	lc3_decode, .-lc3_decode
 4368              		.section	.rodata
 4369              		.align	2
 4370              		.set	.LANCHOR0,. + 0
 4371              		.type	load.5872, %object
 4372              		.size	load.5872, 16
 4373              	load.5872:
 4374 0000 00000000 		.word	load_s16
 4375 0004 00000000 		.word	load_s24
 4376 0008 00000000 		.word	load_s24_3le
 4377 000c 00000000 		.word	load_float
 4378              		.type	store.6007, %object
ARM GAS  C:\Users\rdn\AppData\Local\Temp\cco7w9JJ.s 			page 103


 4379              		.size	store.6007, 16
 4380              	store.6007:
 4381 0010 00000000 		.word	store_s16
 4382 0014 00000000 		.word	store_s24
 4383 0018 00000000 		.word	store_s24_3le
 4384 001c 00000000 		.word	store_float
 4385              		.text
 4386              	.Letext0:
 4387              		.file 5 "c:\\program files (x86)\\cypress\\psoc creator\\4.4\\psoc creator\\import\\gnu\\arm\\5.4.
 4388              		.file 6 "c:\\program files (x86)\\cypress\\psoc creator\\4.4\\psoc creator\\import\\gnu\\arm\\5.4.
 4389              		.file 7 ".\\liblc3\\include/lc3_private.h"
 4390              		.file 8 ".\\liblc3\\include/lc3.h"
 4391              		.file 9 "..\\..\\..\\liblc3\\src\\common.h"
 4392              		.file 10 "..\\..\\..\\liblc3\\src\\ltpf.h"
 4393              		.file 11 "..\\..\\..\\liblc3\\src\\sns.h"
 4394              		.file 12 "..\\..\\..\\liblc3\\src\\tns.h"
 4395              		.file 13 "..\\..\\..\\liblc3\\src\\spec.h"
 4396              		.file 14 "..\\..\\..\\liblc3\\src\\attdet.h"
 4397              		.file 15 "c:\\program files (x86)\\cypress\\psoc creator\\4.4\\psoc creator\\import\\gnu\\arm\\5.4
 4398              		.file 16 "..\\..\\..\\liblc3\\src\\mdct.h"
 4399              		.file 17 "..\\..\\..\\liblc3\\src\\energy.h"
 4400              		.file 18 "..\\..\\..\\liblc3\\src\\bwdet.h"
 4401              		.file 19 "..\\..\\..\\liblc3\\src\\plc.h"
 4402              		.file 20 "c:\\program files (x86)\\cypress\\psoc creator\\4.4\\psoc creator\\import\\gnu\\arm\\5.4
 4403              		.section	.debug_info,"",%progbits
 4404              	.Ldebug_info0:
 4405 0000 A62F0000 		.4byte	0x2fa6
 4406 0004 0400     		.2byte	0x4
 4407 0006 00000000 		.4byte	.Ldebug_abbrev0
 4408 000a 04       		.byte	0x4
 4409 000b 01       		.uleb128 0x1
 4410 000c 0A020000 		.4byte	.LASF238
 4411 0010 0C       		.byte	0xc
 4412 0011 2F0B0000 		.4byte	.LASF239
 4413 0015 38050000 		.4byte	.LASF240
 4414 0019 00000000 		.4byte	.Ldebug_ranges0+0
 4415 001d 00000000 		.4byte	0
 4416 0021 00000000 		.4byte	.Ldebug_line0
 4417 0025 02       		.uleb128 0x2
 4418 0026 01       		.byte	0x1
 4419 0027 06       		.byte	0x6
 4420 0028 5E0B0000 		.4byte	.LASF0
 4421 002c 03       		.uleb128 0x3
 4422 002d 3C090000 		.4byte	.LASF2
 4423 0031 05       		.byte	0x5
 4424 0032 1D       		.byte	0x1d
 4425 0033 37000000 		.4byte	0x37
 4426 0037 02       		.uleb128 0x2
 4427 0038 01       		.byte	0x1
 4428 0039 08       		.byte	0x8
 4429 003a 7E0A0000 		.4byte	.LASF1
 4430 003e 03       		.uleb128 0x3
 4431 003f CB060000 		.4byte	.LASF3
 4432 0043 05       		.byte	0x5
 4433 0044 29       		.byte	0x29
 4434 0045 49000000 		.4byte	0x49
 4435 0049 02       		.uleb128 0x2
ARM GAS  C:\Users\rdn\AppData\Local\Temp\cco7w9JJ.s 			page 104


 4436 004a 02       		.byte	0x2
 4437 004b 05       		.byte	0x5
 4438 004c A4080000 		.4byte	.LASF4
 4439 0050 03       		.uleb128 0x3
 4440 0051 2A030000 		.4byte	.LASF5
 4441 0055 05       		.byte	0x5
 4442 0056 2B       		.byte	0x2b
 4443 0057 5B000000 		.4byte	0x5b
 4444 005b 02       		.uleb128 0x2
 4445 005c 02       		.byte	0x2
 4446 005d 07       		.byte	0x7
 4447 005e 6A0B0000 		.4byte	.LASF6
 4448 0062 03       		.uleb128 0x3
 4449 0063 AD000000 		.4byte	.LASF7
 4450 0067 05       		.byte	0x5
 4451 0068 3F       		.byte	0x3f
 4452 0069 6D000000 		.4byte	0x6d
 4453 006d 02       		.uleb128 0x2
 4454 006e 04       		.byte	0x4
 4455 006f 05       		.byte	0x5
 4456 0070 CC080000 		.4byte	.LASF8
 4457 0074 03       		.uleb128 0x3
 4458 0075 8C0A0000 		.4byte	.LASF9
 4459 0079 05       		.byte	0x5
 4460 007a 41       		.byte	0x41
 4461 007b 7F000000 		.4byte	0x7f
 4462 007f 02       		.uleb128 0x2
 4463 0080 04       		.byte	0x4
 4464 0081 07       		.byte	0x7
 4465 0082 E9090000 		.4byte	.LASF10
 4466 0086 03       		.uleb128 0x3
 4467 0087 FE070000 		.4byte	.LASF11
 4468 008b 05       		.byte	0x5
 4469 008c 59       		.byte	0x59
 4470 008d 91000000 		.4byte	0x91
 4471 0091 02       		.uleb128 0x2
 4472 0092 08       		.byte	0x8
 4473 0093 05       		.byte	0x5
 4474 0094 2C060000 		.4byte	.LASF12
 4475 0098 02       		.uleb128 0x2
 4476 0099 08       		.byte	0x8
 4477 009a 07       		.byte	0x7
 4478 009b C9020000 		.4byte	.LASF13
 4479 009f 04       		.uleb128 0x4
 4480 00a0 04       		.byte	0x4
 4481 00a1 05       		.byte	0x5
 4482 00a2 696E7400 		.ascii	"int\000"
 4483 00a6 02       		.uleb128 0x2
 4484 00a7 04       		.byte	0x4
 4485 00a8 07       		.byte	0x7
 4486 00a9 87000000 		.4byte	.LASF14
 4487 00ad 03       		.uleb128 0x3
 4488 00ae BC050000 		.4byte	.LASF15
 4489 00b2 06       		.byte	0x6
 4490 00b3 18       		.byte	0x18
 4491 00b4 2C000000 		.4byte	0x2c
 4492 00b8 03       		.uleb128 0x3
ARM GAS  C:\Users\rdn\AppData\Local\Temp\cco7w9JJ.s 			page 105


 4493 00b9 C1020000 		.4byte	.LASF16
 4494 00bd 06       		.byte	0x6
 4495 00be 20       		.byte	0x20
 4496 00bf 3E000000 		.4byte	0x3e
 4497 00c3 03       		.uleb128 0x3
 4498 00c4 29080000 		.4byte	.LASF17
 4499 00c8 06       		.byte	0x6
 4500 00c9 24       		.byte	0x24
 4501 00ca 50000000 		.4byte	0x50
 4502 00ce 03       		.uleb128 0x3
 4503 00cf 300A0000 		.4byte	.LASF18
 4504 00d3 06       		.byte	0x6
 4505 00d4 2C       		.byte	0x2c
 4506 00d5 62000000 		.4byte	0x62
 4507 00d9 03       		.uleb128 0x3
 4508 00da D0010000 		.4byte	.LASF19
 4509 00de 06       		.byte	0x6
 4510 00df 30       		.byte	0x30
 4511 00e0 74000000 		.4byte	0x74
 4512 00e4 03       		.uleb128 0x3
 4513 00e5 F2030000 		.4byte	.LASF20
 4514 00e9 06       		.byte	0x6
 4515 00ea 38       		.byte	0x38
 4516 00eb 86000000 		.4byte	0x86
 4517 00ef 05       		.uleb128 0x5
 4518 00f0 2E010000 		.4byte	.LASF26
 4519 00f4 01       		.byte	0x1
 4520 00f5 37000000 		.4byte	0x37
 4521 00f9 07       		.byte	0x7
 4522 00fa 3B       		.byte	0x3b
 4523 00fb 1E010000 		.4byte	0x11e
 4524 00ff 06       		.uleb128 0x6
 4525 0100 AE080000 		.4byte	.LASF21
 4526 0104 00       		.byte	0
 4527 0105 06       		.uleb128 0x6
 4528 0106 C6010000 		.4byte	.LASF22
 4529 010a 01       		.byte	0x1
 4530 010b 06       		.uleb128 0x6
 4531 010c 8F080000 		.4byte	.LASF23
 4532 0110 02       		.byte	0x2
 4533 0111 06       		.uleb128 0x6
 4534 0112 A8040000 		.4byte	.LASF24
 4535 0116 03       		.byte	0x3
 4536 0117 06       		.uleb128 0x6
 4537 0118 A9030000 		.4byte	.LASF25
 4538 011c 04       		.byte	0x4
 4539 011d 00       		.byte	0
 4540 011e 05       		.uleb128 0x5
 4541 011f 620A0000 		.4byte	.LASF27
 4542 0123 01       		.byte	0x1
 4543 0124 37000000 		.4byte	0x37
 4544 0128 07       		.byte	0x7
 4545 0129 49       		.byte	0x49
 4546 012a 5F010000 		.4byte	0x15f
 4547 012e 06       		.uleb128 0x6
 4548 012f 510B0000 		.4byte	.LASF28
 4549 0133 00       		.byte	0
ARM GAS  C:\Users\rdn\AppData\Local\Temp\cco7w9JJ.s 			page 106


 4550 0134 06       		.uleb128 0x6
 4551 0135 4C090000 		.4byte	.LASF29
 4552 0139 01       		.byte	0x1
 4553 013a 06       		.uleb128 0x6
 4554 013b 1B000000 		.4byte	.LASF30
 4555 013f 02       		.byte	0x2
 4556 0140 06       		.uleb128 0x6
 4557 0141 56030000 		.4byte	.LASF31
 4558 0145 03       		.byte	0x3
 4559 0146 06       		.uleb128 0x6
 4560 0147 94000000 		.4byte	.LASF32
 4561 014b 04       		.byte	0x4
 4562 014c 06       		.uleb128 0x6
 4563 014d 4B010000 		.4byte	.LASF33
 4564 0151 05       		.byte	0x5
 4565 0152 06       		.uleb128 0x6
 4566 0153 E20B0000 		.4byte	.LASF34
 4567 0157 06       		.byte	0x6
 4568 0158 06       		.uleb128 0x6
 4569 0159 6C080000 		.4byte	.LASF35
 4570 015d 07       		.byte	0x7
 4571 015e 00       		.byte	0
 4572 015f 07       		.uleb128 0x7
 4573 0160 4C060000 		.4byte	.LASF38
 4574 0164 0C       		.byte	0xc
 4575 0165 07       		.byte	0x7
 4576 0166 5A       		.byte	0x5a
 4577 0167 90010000 		.4byte	0x190
 4578 016b 08       		.uleb128 0x8
 4579 016c 656E3100 		.ascii	"en1\000"
 4580 0170 07       		.byte	0x7
 4581 0171 5B       		.byte	0x5b
 4582 0172 CE000000 		.4byte	0xce
 4583 0176 00       		.byte	0
 4584 0177 08       		.uleb128 0x8
 4585 0178 616E3100 		.ascii	"an1\000"
 4586 017c 07       		.byte	0x7
 4587 017d 5B       		.byte	0x5b
 4588 017e CE000000 		.4byte	0xce
 4589 0182 04       		.byte	0x4
 4590 0183 09       		.uleb128 0x9
 4591 0184 A10B0000 		.4byte	.LASF36
 4592 0188 07       		.byte	0x7
 4593 0189 5C       		.byte	0x5c
 4594 018a 9F000000 		.4byte	0x9f
 4595 018e 08       		.byte	0x8
 4596 018f 00       		.byte	0
 4597 0190 03       		.uleb128 0x3
 4598 0191 93030000 		.4byte	.LASF37
 4599 0195 07       		.byte	0x7
 4600 0196 5D       		.byte	0x5d
 4601 0197 5F010000 		.4byte	0x15f
 4602 019b 07       		.uleb128 0x7
 4603 019c 0F010000 		.4byte	.LASF39
 4604 01a0 10       		.byte	0x10
 4605 01a1 07       		.byte	0x7
 4606 01a2 5F       		.byte	0x5f
ARM GAS  C:\Users\rdn\AppData\Local\Temp\cco7w9JJ.s 			page 107


 4607 01a3 BE010000 		.4byte	0x1be
 4608 01a7 08       		.uleb128 0x8
 4609 01a8 733100   		.ascii	"s1\000"
 4610 01ab 07       		.byte	0x7
 4611 01ac 60       		.byte	0x60
 4612 01ad E4000000 		.4byte	0xe4
 4613 01b1 00       		.byte	0
 4614 01b2 08       		.uleb128 0x8
 4615 01b3 733200   		.ascii	"s2\000"
 4616 01b6 07       		.byte	0x7
 4617 01b7 60       		.byte	0x60
 4618 01b8 E4000000 		.4byte	0xe4
 4619 01bc 08       		.byte	0x8
 4620 01bd 00       		.byte	0
 4621 01be 0A       		.uleb128 0xa
 4622 01bf 670C0000 		.4byte	.LASF40
 4623 01c3 8804     		.2byte	0x488
 4624 01c5 07       		.byte	0x7
 4625 01c6 63       		.byte	0x63
 4626 01c7 20020000 		.4byte	0x220
 4627 01cb 09       		.uleb128 0x9
 4628 01cc 95010000 		.4byte	.LASF41
 4629 01d0 07       		.byte	0x7
 4630 01d1 64       		.byte	0x64
 4631 01d2 20020000 		.4byte	0x220
 4632 01d6 00       		.byte	0
 4633 01d7 09       		.uleb128 0x9
 4634 01d8 C0000000 		.4byte	.LASF42
 4635 01dc 07       		.byte	0x7
 4636 01dd 65       		.byte	0x65
 4637 01de 9F000000 		.4byte	0x9f
 4638 01e2 04       		.byte	0x4
 4639 01e3 08       		.uleb128 0x8
 4640 01e4 6E6300   		.ascii	"nc\000"
 4641 01e7 07       		.byte	0x7
 4642 01e8 66       		.byte	0x66
 4643 01e9 27020000 		.4byte	0x227
 4644 01ed 08       		.byte	0x8
 4645 01ee 09       		.uleb128 0x9
 4646 01ef 93060000 		.4byte	.LASF43
 4647 01f3 07       		.byte	0x7
 4648 01f4 68       		.byte	0x68
 4649 01f5 9B010000 		.4byte	0x19b
 4650 01f9 10       		.byte	0x10
 4651 01fa 09       		.uleb128 0x9
 4652 01fb 9C010000 		.4byte	.LASF44
 4653 01ff 07       		.byte	0x7
 4654 0200 69       		.byte	0x69
 4655 0201 45020000 		.4byte	0x245
 4656 0205 20       		.byte	0x20
 4657 0206 0B       		.uleb128 0xb
 4658 0207 EC030000 		.4byte	.LASF45
 4659 020b 07       		.byte	0x7
 4660 020c 6A       		.byte	0x6a
 4661 020d 56020000 		.4byte	0x256
 4662 0211 2003     		.2byte	0x320
 4663 0213 0C       		.uleb128 0xc
ARM GAS  C:\Users\rdn\AppData\Local\Temp\cco7w9JJ.s 			page 108


 4664 0214 746300   		.ascii	"tc\000"
 4665 0217 07       		.byte	0x7
 4666 0218 6B       		.byte	0x6b
 4667 0219 9F000000 		.4byte	0x9f
 4668 021d 8404     		.2byte	0x484
 4669 021f 00       		.byte	0
 4670 0220 02       		.uleb128 0x2
 4671 0221 01       		.byte	0x1
 4672 0222 02       		.byte	0x2
 4673 0223 3E040000 		.4byte	.LASF46
 4674 0227 0D       		.uleb128 0xd
 4675 0228 3E020000 		.4byte	0x23e
 4676 022c 37020000 		.4byte	0x237
 4677 0230 0E       		.uleb128 0xe
 4678 0231 37020000 		.4byte	0x237
 4679 0235 01       		.byte	0x1
 4680 0236 00       		.byte	0
 4681 0237 02       		.uleb128 0x2
 4682 0238 04       		.byte	0x4
 4683 0239 07       		.byte	0x7
 4684 023a D9090000 		.4byte	.LASF47
 4685 023e 02       		.uleb128 0x2
 4686 023f 04       		.byte	0x4
 4687 0240 04       		.byte	0x4
 4688 0241 FA010000 		.4byte	.LASF48
 4689 0245 0D       		.uleb128 0xd
 4690 0246 B8000000 		.4byte	0xb8
 4691 024a 56020000 		.4byte	0x256
 4692 024e 0F       		.uleb128 0xf
 4693 024f 37020000 		.4byte	0x237
 4694 0253 7F01     		.2byte	0x17f
 4695 0255 00       		.byte	0
 4696 0256 0D       		.uleb128 0xd
 4697 0257 B8000000 		.4byte	0xb8
 4698 025b 66020000 		.4byte	0x266
 4699 025f 0E       		.uleb128 0xe
 4700 0260 37020000 		.4byte	0x237
 4701 0264 B1       		.byte	0xb1
 4702 0265 00       		.byte	0
 4703 0266 03       		.uleb128 0x3
 4704 0267 2C070000 		.4byte	.LASF49
 4705 026b 07       		.byte	0x7
 4706 026c 6C       		.byte	0x6c
 4707 026d BE010000 		.4byte	0x1be
 4708 0271 07       		.uleb128 0x7
 4709 0272 6C0A0000 		.4byte	.LASF50
 4710 0276 08       		.byte	0x8
 4711 0277 07       		.byte	0x7
 4712 0278 6E       		.byte	0x6e
 4713 0279 96020000 		.4byte	0x296
 4714 027d 09       		.uleb128 0x9
 4715 027e AA060000 		.4byte	.LASF51
 4716 0282 07       		.byte	0x7
 4717 0283 6F       		.byte	0x6f
 4718 0284 3E020000 		.4byte	0x23e
 4719 0288 00       		.byte	0
 4720 0289 09       		.uleb128 0x9
ARM GAS  C:\Users\rdn\AppData\Local\Temp\cco7w9JJ.s 			page 109


 4721 028a 17050000 		.4byte	.LASF52
 4722 028e 07       		.byte	0x7
 4723 028f 70       		.byte	0x70
 4724 0290 9F000000 		.4byte	0x9f
 4725 0294 04       		.byte	0x4
 4726 0295 00       		.byte	0
 4727 0296 03       		.uleb128 0x3
 4728 0297 EC080000 		.4byte	.LASF53
 4729 029b 07       		.byte	0x7
 4730 029c 71       		.byte	0x71
 4731 029d 71020000 		.4byte	0x271
 4732 02a1 0A       		.uleb128 0xa
 4733 02a2 C9070000 		.4byte	.LASF54
 4734 02a6 B004     		.2byte	0x4b0
 4735 02a8 07       		.byte	0x7
 4736 02a9 73       		.byte	0x73
 4737 02aa 28030000 		.4byte	0x328
 4738 02ae 08       		.uleb128 0x8
 4739 02af 647400   		.ascii	"dt\000"
 4740 02b2 07       		.byte	0x7
 4741 02b3 74       		.byte	0x74
 4742 02b4 EF000000 		.4byte	0xef
 4743 02b8 00       		.byte	0
 4744 02b9 08       		.uleb128 0x8
 4745 02ba 737200   		.ascii	"sr\000"
 4746 02bd 07       		.byte	0x7
 4747 02be 75       		.byte	0x75
 4748 02bf 1E010000 		.4byte	0x11e
 4749 02c3 01       		.byte	0x1
 4750 02c4 09       		.uleb128 0x9
 4751 02c5 AE020000 		.4byte	.LASF55
 4752 02c9 07       		.byte	0x7
 4753 02ca 75       		.byte	0x75
 4754 02cb 1E010000 		.4byte	0x11e
 4755 02cf 02       		.byte	0x2
 4756 02d0 09       		.uleb128 0x9
 4757 02d1 6D010000 		.4byte	.LASF56
 4758 02d5 07       		.byte	0x7
 4759 02d6 77       		.byte	0x77
 4760 02d7 90010000 		.4byte	0x190
 4761 02db 04       		.byte	0x4
 4762 02dc 09       		.uleb128 0x9
 4763 02dd 24040000 		.4byte	.LASF57
 4764 02e1 07       		.byte	0x7
 4765 02e2 78       		.byte	0x78
 4766 02e3 66020000 		.4byte	0x266
 4767 02e7 10       		.byte	0x10
 4768 02e8 0B       		.uleb128 0xb
 4769 02e9 2A0C0000 		.4byte	.LASF58
 4770 02ed 07       		.byte	0x7
 4771 02ee 79       		.byte	0x79
 4772 02ef 96020000 		.4byte	0x296
 4773 02f3 9804     		.2byte	0x498
 4774 02f5 0B       		.uleb128 0xb
 4775 02f6 B4030000 		.4byte	.LASF59
 4776 02fa 07       		.byte	0x7
 4777 02fb 7B       		.byte	0x7b
ARM GAS  C:\Users\rdn\AppData\Local\Temp\cco7w9JJ.s 			page 110


 4778 02fc 9F000000 		.4byte	0x9f
 4779 0300 A004     		.2byte	0x4a0
 4780 0302 0B       		.uleb128 0xb
 4781 0303 88080000 		.4byte	.LASF60
 4782 0307 07       		.byte	0x7
 4783 0308 7B       		.byte	0x7b
 4784 0309 9F000000 		.4byte	0x9f
 4785 030d A404     		.2byte	0x4a4
 4786 030f 0B       		.uleb128 0xb
 4787 0310 050B0000 		.4byte	.LASF61
 4788 0314 07       		.byte	0x7
 4789 0315 7B       		.byte	0x7b
 4790 0316 9F000000 		.4byte	0x9f
 4791 031a A804     		.2byte	0x4a8
 4792 031c 0C       		.uleb128 0xc
 4793 031d 7800     		.ascii	"x\000"
 4794 031f 07       		.byte	0x7
 4795 0320 7C       		.byte	0x7c
 4796 0321 28030000 		.4byte	0x328
 4797 0325 AC04     		.2byte	0x4ac
 4798 0327 00       		.byte	0
 4799 0328 0D       		.uleb128 0xd
 4800 0329 3E020000 		.4byte	0x23e
 4801 032d 38030000 		.4byte	0x338
 4802 0331 0E       		.uleb128 0xe
 4803 0332 37020000 		.4byte	0x237
 4804 0336 00       		.byte	0
 4805 0337 00       		.byte	0
 4806 0338 07       		.uleb128 0x7
 4807 0339 E7040000 		.4byte	.LASF62
 4808 033d 98       		.byte	0x98
 4809 033e 07       		.byte	0x7
 4810 033f 8E       		.byte	0x8e
 4811 0340 71030000 		.4byte	0x371
 4812 0344 09       		.uleb128 0x9
 4813 0345 95010000 		.4byte	.LASF41
 4814 0349 07       		.byte	0x7
 4815 034a 8F       		.byte	0x8f
 4816 034b 20020000 		.4byte	0x220
 4817 034f 00       		.byte	0
 4818 0350 09       		.uleb128 0x9
 4819 0351 C0000000 		.4byte	.LASF42
 4820 0355 07       		.byte	0x7
 4821 0356 90       		.byte	0x90
 4822 0357 9F000000 		.4byte	0x9f
 4823 035b 04       		.byte	0x4
 4824 035c 08       		.uleb128 0x8
 4825 035d 6300     		.ascii	"c\000"
 4826 035f 07       		.byte	0x7
 4827 0360 91       		.byte	0x91
 4828 0361 71030000 		.4byte	0x371
 4829 0365 08       		.byte	0x8
 4830 0366 08       		.uleb128 0x8
 4831 0367 7800     		.ascii	"x\000"
 4832 0369 07       		.byte	0x7
 4833 036a 91       		.byte	0x91
 4834 036b 81030000 		.4byte	0x381
ARM GAS  C:\Users\rdn\AppData\Local\Temp\cco7w9JJ.s 			page 111


 4835 036f 68       		.byte	0x68
 4836 0370 00       		.byte	0
 4837 0371 0D       		.uleb128 0xd
 4838 0372 3E020000 		.4byte	0x23e
 4839 0376 81030000 		.4byte	0x381
 4840 037a 0E       		.uleb128 0xe
 4841 037b 37020000 		.4byte	0x237
 4842 037f 17       		.byte	0x17
 4843 0380 00       		.byte	0
 4844 0381 0D       		.uleb128 0xd
 4845 0382 3E020000 		.4byte	0x23e
 4846 0386 91030000 		.4byte	0x391
 4847 038a 0E       		.uleb128 0xe
 4848 038b 37020000 		.4byte	0x237
 4849 038f 0B       		.byte	0xb
 4850 0390 00       		.byte	0
 4851 0391 03       		.uleb128 0x3
 4852 0392 08080000 		.4byte	.LASF63
 4853 0396 07       		.byte	0x7
 4854 0397 92       		.byte	0x92
 4855 0398 38030000 		.4byte	0x338
 4856 039c 07       		.uleb128 0x7
 4857 039d 04030000 		.4byte	.LASF64
 4858 03a1 0C       		.byte	0xc
 4859 03a2 07       		.byte	0x7
 4860 03a3 94       		.byte	0x94
 4861 03a4 CD030000 		.4byte	0x3cd
 4862 03a8 09       		.uleb128 0x9
 4863 03a9 9C070000 		.4byte	.LASF65
 4864 03ad 07       		.byte	0x7
 4865 03ae 95       		.byte	0x95
 4866 03af C3000000 		.4byte	0xc3
 4867 03b3 00       		.byte	0
 4868 03b4 09       		.uleb128 0x9
 4869 03b5 B5020000 		.4byte	.LASF66
 4870 03b9 07       		.byte	0x7
 4871 03ba 96       		.byte	0x96
 4872 03bb 9F000000 		.4byte	0x9f
 4873 03bf 04       		.byte	0x4
 4874 03c0 09       		.uleb128 0x9
 4875 03c1 1C0A0000 		.4byte	.LASF67
 4876 03c5 07       		.byte	0x7
 4877 03c6 97       		.byte	0x97
 4878 03c7 3E020000 		.4byte	0x23e
 4879 03cb 08       		.byte	0x8
 4880 03cc 00       		.byte	0
 4881 03cd 03       		.uleb128 0x3
 4882 03ce EC050000 		.4byte	.LASF68
 4883 03d2 07       		.byte	0x7
 4884 03d3 98       		.byte	0x98
 4885 03d4 9C030000 		.4byte	0x39c
 4886 03d8 07       		.uleb128 0x7
 4887 03d9 DE070000 		.4byte	.LASF69
 4888 03dd BC       		.byte	0xbc
 4889 03de 07       		.byte	0x7
 4890 03df 9A       		.byte	0x9a
 4891 03e0 59040000 		.4byte	0x459
ARM GAS  C:\Users\rdn\AppData\Local\Temp\cco7w9JJ.s 			page 112


 4892 03e4 08       		.uleb128 0x8
 4893 03e5 647400   		.ascii	"dt\000"
 4894 03e8 07       		.byte	0x7
 4895 03e9 9B       		.byte	0x9b
 4896 03ea EF000000 		.4byte	0xef
 4897 03ee 00       		.byte	0
 4898 03ef 08       		.uleb128 0x8
 4899 03f0 737200   		.ascii	"sr\000"
 4900 03f3 07       		.byte	0x7
 4901 03f4 9C       		.byte	0x9c
 4902 03f5 1E010000 		.4byte	0x11e
 4903 03f9 01       		.byte	0x1
 4904 03fa 09       		.uleb128 0x9
 4905 03fb AE020000 		.4byte	.LASF55
 4906 03ff 07       		.byte	0x7
 4907 0400 9C       		.byte	0x9c
 4908 0401 1E010000 		.4byte	0x11e
 4909 0405 02       		.byte	0x2
 4910 0406 09       		.uleb128 0x9
 4911 0407 24040000 		.4byte	.LASF57
 4912 040b 07       		.byte	0x7
 4913 040c 9E       		.byte	0x9e
 4914 040d 91030000 		.4byte	0x391
 4915 0411 04       		.byte	0x4
 4916 0412 08       		.uleb128 0x8
 4917 0413 706C6300 		.ascii	"plc\000"
 4918 0417 07       		.byte	0x7
 4919 0418 9F       		.byte	0x9f
 4920 0419 CD030000 		.4byte	0x3cd
 4921 041d 9C       		.byte	0x9c
 4922 041e 09       		.uleb128 0x9
 4923 041f 0D060000 		.4byte	.LASF70
 4924 0423 07       		.byte	0x7
 4925 0424 A1       		.byte	0xa1
 4926 0425 9F000000 		.4byte	0x9f
 4927 0429 A8       		.byte	0xa8
 4928 042a 09       		.uleb128 0x9
 4929 042b 88080000 		.4byte	.LASF60
 4930 042f 07       		.byte	0x7
 4931 0430 A1       		.byte	0xa1
 4932 0431 9F000000 		.4byte	0x9f
 4933 0435 AC       		.byte	0xac
 4934 0436 09       		.uleb128 0x9
 4935 0437 050B0000 		.4byte	.LASF61
 4936 043b 07       		.byte	0x7
 4937 043c A1       		.byte	0xa1
 4938 043d 9F000000 		.4byte	0x9f
 4939 0441 B0       		.byte	0xb0
 4940 0442 09       		.uleb128 0x9
 4941 0443 970A0000 		.4byte	.LASF71
 4942 0447 07       		.byte	0x7
 4943 0448 A1       		.byte	0xa1
 4944 0449 9F000000 		.4byte	0x9f
 4945 044d B4       		.byte	0xb4
 4946 044e 08       		.uleb128 0x8
 4947 044f 7800     		.ascii	"x\000"
 4948 0451 07       		.byte	0x7
ARM GAS  C:\Users\rdn\AppData\Local\Temp\cco7w9JJ.s 			page 113


 4949 0452 A2       		.byte	0xa2
 4950 0453 28030000 		.4byte	0x328
 4951 0457 B8       		.byte	0xb8
 4952 0458 00       		.byte	0
 4953 0459 05       		.uleb128 0x5
 4954 045a EA070000 		.4byte	.LASF72
 4955 045e 01       		.byte	0x1
 4956 045f 37000000 		.4byte	0x37
 4957 0463 08       		.byte	0x8
 4958 0464 E2       		.byte	0xe2
 4959 0465 82040000 		.4byte	0x482
 4960 0469 06       		.uleb128 0x6
 4961 046a 85040000 		.4byte	.LASF73
 4962 046e 00       		.byte	0
 4963 046f 06       		.uleb128 0x6
 4964 0470 87050000 		.4byte	.LASF74
 4965 0474 01       		.byte	0x1
 4966 0475 06       		.uleb128 0x6
 4967 0476 C6000000 		.4byte	.LASF75
 4968 047a 02       		.byte	0x2
 4969 047b 06       		.uleb128 0x6
 4970 047c 6A030000 		.4byte	.LASF76
 4971 0480 03       		.byte	0x3
 4972 0481 00       		.byte	0
 4973 0482 10       		.uleb128 0x10
 4974 0483 04       		.byte	0x4
 4975 0484 A1020000 		.4byte	0x2a1
 4976 0488 10       		.uleb128 0x10
 4977 0489 04       		.byte	0x4
 4978 048a D8030000 		.4byte	0x3d8
 4979 048e 02       		.uleb128 0x2
 4980 048f 08       		.byte	0x8
 4981 0490 04       		.byte	0x4
 4982 0491 1D080000 		.4byte	.LASF77
 4983 0495 11       		.uleb128 0x11
 4984 0496 04       		.byte	0x4
 4985 0497 02       		.uleb128 0x2
 4986 0498 01       		.byte	0x1
 4987 0499 08       		.byte	0x8
 4988 049a C4040000 		.4byte	.LASF78
 4989 049e 02       		.uleb128 0x2
 4990 049f 08       		.byte	0x8
 4991 04a0 04       		.byte	0x4
 4992 04a1 DB0B0000 		.4byte	.LASF79
 4993 04a5 05       		.uleb128 0x5
 4994 04a6 C20A0000 		.4byte	.LASF80
 4995 04aa 01       		.byte	0x1
 4996 04ab 37000000 		.4byte	0x37
 4997 04af 09       		.byte	0x9
 4998 04b0 76       		.byte	0x76
 4999 04b1 E6040000 		.4byte	0x4e6
 5000 04b5 06       		.uleb128 0x6
 5001 04b6 76050000 		.4byte	.LASF81
 5002 04ba 00       		.byte	0
 5003 04bb 06       		.uleb128 0x6
 5004 04bc 44000000 		.4byte	.LASF82
 5005 04c0 01       		.byte	0x1
ARM GAS  C:\Users\rdn\AppData\Local\Temp\cco7w9JJ.s 			page 114


 5006 04c1 06       		.uleb128 0x6
 5007 04c2 C6090000 		.4byte	.LASF83
 5008 04c6 02       		.byte	0x2
 5009 04c7 06       		.uleb128 0x6
 5010 04c8 D5060000 		.4byte	.LASF84
 5011 04cc 03       		.byte	0x3
 5012 04cd 06       		.uleb128 0x6
 5013 04ce A70B0000 		.4byte	.LASF85
 5014 04d2 04       		.byte	0x4
 5015 04d3 06       		.uleb128 0x6
 5016 04d4 30000000 		.4byte	.LASF86
 5017 04d8 05       		.byte	0x5
 5018 04d9 06       		.uleb128 0x6
 5019 04da A1070000 		.4byte	.LASF87
 5020 04de 06       		.byte	0x6
 5021 04df 06       		.uleb128 0x6
 5022 04e0 B80B0000 		.4byte	.LASF88
 5023 04e4 07       		.byte	0x7
 5024 04e5 00       		.byte	0
 5025 04e6 05       		.uleb128 0x5
 5026 04e7 87010000 		.4byte	.LASF89
 5027 04eb 01       		.byte	0x1
 5028 04ec 37000000 		.4byte	0x37
 5029 04f0 04       		.byte	0x4
 5030 04f1 45       		.byte	0x45
 5031 04f2 03050000 		.4byte	0x503
 5032 04f6 06       		.uleb128 0x6
 5033 04f7 E00A0000 		.4byte	.LASF90
 5034 04fb 00       		.byte	0
 5035 04fc 06       		.uleb128 0x6
 5036 04fd 06090000 		.4byte	.LASF91
 5037 0501 01       		.byte	0x1
 5038 0502 00       		.byte	0
 5039 0503 07       		.uleb128 0x7
 5040 0504 09050000 		.4byte	.LASF92
 5041 0508 0C       		.byte	0xc
 5042 0509 04       		.byte	0x4
 5043 050a 5E       		.byte	0x5e
 5044 050b 30050000 		.4byte	0x530
 5045 050f 08       		.uleb128 0x8
 5046 0510 7600     		.ascii	"v\000"
 5047 0512 04       		.byte	0x4
 5048 0513 5F       		.byte	0x5f
 5049 0514 A6000000 		.4byte	0xa6
 5050 0518 00       		.byte	0
 5051 0519 08       		.uleb128 0x8
 5052 051a 6E00     		.ascii	"n\000"
 5053 051c 04       		.byte	0x4
 5054 051d 60       		.byte	0x60
 5055 051e 9F000000 		.4byte	0x9f
 5056 0522 04       		.byte	0x4
 5057 0523 09       		.uleb128 0x9
 5058 0524 70050000 		.4byte	.LASF93
 5059 0528 04       		.byte	0x4
 5060 0529 60       		.byte	0x60
 5061 052a 9F000000 		.4byte	0x9f
 5062 052e 08       		.byte	0x8
ARM GAS  C:\Users\rdn\AppData\Local\Temp\cco7w9JJ.s 			page 115


 5063 052f 00       		.byte	0
 5064 0530 07       		.uleb128 0x7
 5065 0531 F30B0000 		.4byte	.LASF94
 5066 0535 18       		.byte	0x18
 5067 0536 04       		.byte	0x4
 5068 0537 65       		.byte	0x65
 5069 0538 85050000 		.4byte	0x585
 5070 053c 08       		.uleb128 0x8
 5071 053d 6C6F7700 		.ascii	"low\000"
 5072 0541 04       		.byte	0x4
 5073 0542 66       		.byte	0x66
 5074 0543 A6000000 		.4byte	0xa6
 5075 0547 00       		.byte	0
 5076 0548 09       		.uleb128 0x9
 5077 0549 40070000 		.4byte	.LASF95
 5078 054d 04       		.byte	0x4
 5079 054e 66       		.byte	0x66
 5080 054f A6000000 		.4byte	0xa6
 5081 0553 04       		.byte	0x4
 5082 0554 09       		.uleb128 0x9
 5083 0555 B5070000 		.4byte	.LASF96
 5084 0559 04       		.byte	0x4
 5085 055a 67       		.byte	0x67
 5086 055b 9F000000 		.4byte	0x9f
 5087 055f 08       		.byte	0x8
 5088 0560 09       		.uleb128 0x9
 5089 0561 BB020000 		.4byte	.LASF97
 5090 0565 04       		.byte	0x4
 5091 0566 67       		.byte	0x67
 5092 0567 9F000000 		.4byte	0x9f
 5093 056b 0C       		.byte	0xc
 5094 056c 09       		.uleb128 0x9
 5095 056d 18040000 		.4byte	.LASF98
 5096 0571 04       		.byte	0x4
 5097 0572 67       		.byte	0x67
 5098 0573 9F000000 		.4byte	0x9f
 5099 0577 10       		.byte	0x10
 5100 0578 09       		.uleb128 0x9
 5101 0579 23010000 		.4byte	.LASF99
 5102 057d 04       		.byte	0x4
 5103 057e 68       		.byte	0x68
 5104 057f 20020000 		.4byte	0x220
 5105 0583 14       		.byte	0x14
 5106 0584 00       		.byte	0
 5107 0585 07       		.uleb128 0x7
 5108 0586 5E000000 		.4byte	.LASF100
 5109 058a 10       		.byte	0x10
 5110 058b 04       		.byte	0x4
 5111 058c 6B       		.byte	0x6b
 5112 058d C2050000 		.4byte	0x5c2
 5113 0591 09       		.uleb128 0x9
 5114 0592 46090000 		.4byte	.LASF101
 5115 0596 04       		.byte	0x4
 5116 0597 6C       		.byte	0x6c
 5117 0598 C2050000 		.4byte	0x5c2
 5118 059c 00       		.byte	0
 5119 059d 08       		.uleb128 0x8
ARM GAS  C:\Users\rdn\AppData\Local\Temp\cco7w9JJ.s 			page 116


 5120 059e 656E6400 		.ascii	"end\000"
 5121 05a2 04       		.byte	0x4
 5122 05a3 6C       		.byte	0x6c
 5123 05a4 C2050000 		.4byte	0x5c2
 5124 05a8 04       		.byte	0x4
 5125 05a9 09       		.uleb128 0x9
 5126 05aa 790C0000 		.4byte	.LASF102
 5127 05ae 04       		.byte	0x4
 5128 05af 6D       		.byte	0x6d
 5129 05b0 CD050000 		.4byte	0x5cd
 5130 05b4 08       		.byte	0x8
 5131 05b5 09       		.uleb128 0x9
 5132 05b6 FC050000 		.4byte	.LASF103
 5133 05ba 04       		.byte	0x4
 5134 05bb 6D       		.byte	0x6d
 5135 05bc CD050000 		.4byte	0x5cd
 5136 05c0 0C       		.byte	0xc
 5137 05c1 00       		.byte	0
 5138 05c2 10       		.uleb128 0x10
 5139 05c3 04       		.byte	0x4
 5140 05c4 C8050000 		.4byte	0x5c8
 5141 05c8 12       		.uleb128 0x12
 5142 05c9 AD000000 		.4byte	0xad
 5143 05cd 10       		.uleb128 0x10
 5144 05ce 04       		.byte	0x4
 5145 05cf AD000000 		.4byte	0xad
 5146 05d3 07       		.uleb128 0x7
 5147 05d4 D5070000 		.4byte	.LASF104
 5148 05d8 38       		.byte	0x38
 5149 05d9 04       		.byte	0x4
 5150 05da 70       		.byte	0x70
 5151 05db 0F060000 		.4byte	0x60f
 5152 05df 09       		.uleb128 0x9
 5153 05e0 29010000 		.4byte	.LASF105
 5154 05e4 04       		.byte	0x4
 5155 05e5 71       		.byte	0x71
 5156 05e6 E6040000 		.4byte	0x4e6
 5157 05ea 00       		.byte	0
 5158 05eb 08       		.uleb128 0x8
 5159 05ec 616300   		.ascii	"ac\000"
 5160 05ef 04       		.byte	0x4
 5161 05f0 72       		.byte	0x72
 5162 05f1 30050000 		.4byte	0x530
 5163 05f5 04       		.byte	0x4
 5164 05f6 09       		.uleb128 0x9
 5165 05f7 BF040000 		.4byte	.LASF106
 5166 05fb 04       		.byte	0x4
 5167 05fc 73       		.byte	0x73
 5168 05fd 03050000 		.4byte	0x503
 5169 0601 1C       		.byte	0x1c
 5170 0602 09       		.uleb128 0x9
 5171 0603 6E000000 		.4byte	.LASF107
 5172 0607 04       		.byte	0x4
 5173 0608 74       		.byte	0x74
 5174 0609 85050000 		.4byte	0x585
 5175 060d 28       		.byte	0x28
 5176 060e 00       		.byte	0
ARM GAS  C:\Users\rdn\AppData\Local\Temp\cco7w9JJ.s 			page 117


 5177 060f 03       		.uleb128 0x3
 5178 0610 5A040000 		.4byte	.LASF108
 5179 0614 04       		.byte	0x4
 5180 0615 75       		.byte	0x75
 5181 0616 D3050000 		.4byte	0x5d3
 5182 061a 07       		.uleb128 0x7
 5183 061b E7060000 		.4byte	.LASF109
 5184 061f 08       		.byte	0x8
 5185 0620 0A       		.byte	0xa
 5186 0621 1E       		.byte	0x1e
 5187 0622 3F060000 		.4byte	0x63f
 5188 0626 09       		.uleb128 0x9
 5189 0627 95010000 		.4byte	.LASF41
 5190 062b 0A       		.byte	0xa
 5191 062c 1F       		.byte	0x1f
 5192 062d 20020000 		.4byte	0x220
 5193 0631 00       		.byte	0
 5194 0632 09       		.uleb128 0x9
 5195 0633 0C040000 		.4byte	.LASF110
 5196 0637 0A       		.byte	0xa
 5197 0638 20       		.byte	0x20
 5198 0639 9F000000 		.4byte	0x9f
 5199 063d 04       		.byte	0x4
 5200 063e 00       		.byte	0
 5201 063f 03       		.uleb128 0x3
 5202 0640 D00A0000 		.4byte	.LASF111
 5203 0644 0A       		.byte	0xa
 5204 0645 21       		.byte	0x21
 5205 0646 1A060000 		.4byte	0x61a
 5206 064a 07       		.uleb128 0x7
 5207 064b 380A0000 		.4byte	.LASF112
 5208 064f 1C       		.byte	0x1c
 5209 0650 0B       		.byte	0xb
 5210 0651 1E       		.byte	0x1e
 5211 0652 B7060000 		.4byte	0x6b7
 5212 0656 09       		.uleb128 0x9
 5213 0657 E0020000 		.4byte	.LASF113
 5214 065b 0B       		.byte	0xb
 5215 065c 1F       		.byte	0x1f
 5216 065d 9F000000 		.4byte	0x9f
 5217 0661 00       		.byte	0
 5218 0662 09       		.uleb128 0x9
 5219 0663 F9070000 		.4byte	.LASF114
 5220 0667 0B       		.byte	0xb
 5221 0668 1F       		.byte	0x1f
 5222 0669 9F000000 		.4byte	0x9f
 5223 066d 04       		.byte	0x4
 5224 066e 09       		.uleb128 0x9
 5225 066f D5080000 		.4byte	.LASF115
 5226 0673 0B       		.byte	0xb
 5227 0674 20       		.byte	0x20
 5228 0675 9F000000 		.4byte	0x9f
 5229 0679 08       		.byte	0x8
 5230 067a 09       		.uleb128 0x9
 5231 067b E7050000 		.4byte	.LASF116
 5232 067f 0B       		.byte	0xb
 5233 0680 20       		.byte	0x20
ARM GAS  C:\Users\rdn\AppData\Local\Temp\cco7w9JJ.s 			page 118


 5234 0681 9F000000 		.4byte	0x9f
 5235 0685 0C       		.byte	0xc
 5236 0686 09       		.uleb128 0x9
 5237 0687 4C0C0000 		.4byte	.LASF117
 5238 068b 0B       		.byte	0xb
 5239 068c 21       		.byte	0x21
 5240 068d 9F000000 		.4byte	0x9f
 5241 0691 10       		.byte	0x10
 5242 0692 09       		.uleb128 0x9
 5243 0693 520C0000 		.4byte	.LASF118
 5244 0697 0B       		.byte	0xb
 5245 0698 21       		.byte	0x21
 5246 0699 9F000000 		.4byte	0x9f
 5247 069d 14       		.byte	0x14
 5248 069e 09       		.uleb128 0x9
 5249 069f 450A0000 		.4byte	.LASF119
 5250 06a3 0B       		.byte	0xb
 5251 06a4 22       		.byte	0x22
 5252 06a5 20020000 		.4byte	0x220
 5253 06a9 18       		.byte	0x18
 5254 06aa 09       		.uleb128 0x9
 5255 06ab 4A0A0000 		.4byte	.LASF120
 5256 06af 0B       		.byte	0xb
 5257 06b0 22       		.byte	0x22
 5258 06b1 20020000 		.4byte	0x220
 5259 06b5 19       		.byte	0x19
 5260 06b6 00       		.byte	0
 5261 06b7 03       		.uleb128 0x3
 5262 06b8 200B0000 		.4byte	.LASF121
 5263 06bc 0B       		.byte	0xb
 5264 06bd 23       		.byte	0x23
 5265 06be 4A060000 		.4byte	0x64a
 5266 06c2 07       		.uleb128 0x7
 5267 06c3 A3010000 		.4byte	.LASF122
 5268 06c7 50       		.byte	0x50
 5269 06c8 0C       		.byte	0xc
 5270 06c9 1E       		.byte	0x1e
 5271 06ca FE060000 		.4byte	0x6fe
 5272 06ce 09       		.uleb128 0x9
 5273 06cf 80090000 		.4byte	.LASF123
 5274 06d3 0C       		.byte	0xc
 5275 06d4 1F       		.byte	0x1f
 5276 06d5 9F000000 		.4byte	0x9f
 5277 06d9 00       		.byte	0
 5278 06da 09       		.uleb128 0x9
 5279 06db B0090000 		.4byte	.LASF124
 5280 06df 0C       		.byte	0xc
 5281 06e0 20       		.byte	0x20
 5282 06e1 20020000 		.4byte	0x220
 5283 06e5 04       		.byte	0x4
 5284 06e6 09       		.uleb128 0x9
 5285 06e7 55000000 		.4byte	.LASF125
 5286 06eb 0C       		.byte	0xc
 5287 06ec 21       		.byte	0x21
 5288 06ed FE060000 		.4byte	0x6fe
 5289 06f1 08       		.byte	0x8
 5290 06f2 08       		.uleb128 0x8
ARM GAS  C:\Users\rdn\AppData\Local\Temp\cco7w9JJ.s 			page 119


 5291 06f3 726300   		.ascii	"rc\000"
 5292 06f6 0C       		.byte	0xc
 5293 06f7 22       		.byte	0x22
 5294 06f8 0E070000 		.4byte	0x70e
 5295 06fc 10       		.byte	0x10
 5296 06fd 00       		.byte	0
 5297 06fe 0D       		.uleb128 0xd
 5298 06ff 9F000000 		.4byte	0x9f
 5299 0703 0E070000 		.4byte	0x70e
 5300 0707 0E       		.uleb128 0xe
 5301 0708 37020000 		.4byte	0x237
 5302 070c 01       		.byte	0x1
 5303 070d 00       		.byte	0
 5304 070e 0D       		.uleb128 0xd
 5305 070f 9F000000 		.4byte	0x9f
 5306 0713 24070000 		.4byte	0x724
 5307 0717 0E       		.uleb128 0xe
 5308 0718 37020000 		.4byte	0x237
 5309 071c 01       		.byte	0x1
 5310 071d 0E       		.uleb128 0xe
 5311 071e 37020000 		.4byte	0x237
 5312 0722 07       		.byte	0x7
 5313 0723 00       		.byte	0
 5314 0724 03       		.uleb128 0x3
 5315 0725 EF000000 		.4byte	.LASF126
 5316 0729 0C       		.byte	0xc
 5317 072a 23       		.byte	0x23
 5318 072b C2060000 		.4byte	0x6c2
 5319 072f 10       		.uleb128 0x10
 5320 0730 04       		.byte	0x4
 5321 0731 35070000 		.4byte	0x735
 5322 0735 12       		.uleb128 0x12
 5323 0736 3E020000 		.4byte	0x23e
 5324 073a 07       		.uleb128 0x7
 5325 073b BB070000 		.4byte	.LASF127
 5326 073f 0C       		.byte	0xc
 5327 0740 0D       		.byte	0xd
 5328 0741 21       		.byte	0x21
 5329 0742 6A070000 		.4byte	0x76a
 5330 0746 09       		.uleb128 0x9
 5331 0747 B0010000 		.4byte	.LASF128
 5332 074b 0D       		.byte	0xd
 5333 074c 22       		.byte	0x22
 5334 074d 9F000000 		.4byte	0x9f
 5335 0751 00       		.byte	0
 5336 0752 08       		.uleb128 0x8
 5337 0753 6E7100   		.ascii	"nq\000"
 5338 0756 0D       		.byte	0xd
 5339 0757 22       		.byte	0x22
 5340 0758 9F000000 		.4byte	0x9f
 5341 075c 04       		.byte	0x4
 5342 075d 09       		.uleb128 0x9
 5343 075e 4F0A0000 		.4byte	.LASF129
 5344 0762 0D       		.byte	0xd
 5345 0763 23       		.byte	0x23
 5346 0764 20020000 		.4byte	0x220
 5347 0768 08       		.byte	0x8
ARM GAS  C:\Users\rdn\AppData\Local\Temp\cco7w9JJ.s 			page 120


 5348 0769 00       		.byte	0
 5349 076a 03       		.uleb128 0x3
 5350 076b B6010000 		.4byte	.LASF130
 5351 076f 0D       		.byte	0xd
 5352 0770 24       		.byte	0x24
 5353 0771 3A070000 		.4byte	0x73a
 5354 0775 07       		.uleb128 0x7
 5355 0776 580A0000 		.4byte	.LASF131
 5356 077a 84       		.byte	0x84
 5357 077b 01       		.byte	0x1
 5358 077c 27       		.byte	0x27
 5359 077d C9070000 		.4byte	0x7c9
 5360 0781 08       		.uleb128 0x8
 5361 0782 627700   		.ascii	"bw\000"
 5362 0785 01       		.byte	0x1
 5363 0786 28       		.byte	0x28
 5364 0787 A5040000 		.4byte	0x4a5
 5365 078b 00       		.byte	0
 5366 078c 09       		.uleb128 0x9
 5367 078d E5020000 		.4byte	.LASF132
 5368 0791 01       		.byte	0x1
 5369 0792 29       		.byte	0x29
 5370 0793 20020000 		.4byte	0x220
 5371 0797 01       		.byte	0x1
 5372 0798 09       		.uleb128 0x9
 5373 0799 24040000 		.4byte	.LASF57
 5374 079d 01       		.byte	0x1
 5375 079e 2A       		.byte	0x2a
 5376 079f 3F060000 		.4byte	0x63f
 5377 07a3 04       		.byte	0x4
 5378 07a4 08       		.uleb128 0x8
 5379 07a5 736E7300 		.ascii	"sns\000"
 5380 07a9 01       		.byte	0x1
 5381 07aa 2B       		.byte	0x2b
 5382 07ab B7060000 		.4byte	0x6b7
 5383 07af 0C       		.byte	0xc
 5384 07b0 08       		.uleb128 0x8
 5385 07b1 746E7300 		.ascii	"tns\000"
 5386 07b5 01       		.byte	0x1
 5387 07b6 2C       		.byte	0x2c
 5388 07b7 24070000 		.4byte	0x724
 5389 07bb 28       		.byte	0x28
 5390 07bc 09       		.uleb128 0x9
 5391 07bd 2A0C0000 		.4byte	.LASF58
 5392 07c1 01       		.byte	0x1
 5393 07c2 2D       		.byte	0x2d
 5394 07c3 6A070000 		.4byte	0x76a
 5395 07c7 78       		.byte	0x78
 5396 07c8 00       		.byte	0
 5397 07c9 13       		.uleb128 0x13
 5398 07ca 220A0000 		.4byte	.LASF133
 5399 07ce 02       		.byte	0x2
 5400 07cf 2E       		.byte	0x2e
 5401 07d0 9F000000 		.4byte	0x9f
 5402 07d4 03       		.byte	0x3
 5403 07d5 EE070000 		.4byte	0x7ee
 5404 07d9 14       		.uleb128 0x14
ARM GAS  C:\Users\rdn\AppData\Local\Temp\cco7w9JJ.s 			page 121


 5405 07da 647400   		.ascii	"dt\000"
 5406 07dd 02       		.byte	0x2
 5407 07de 2E       		.byte	0x2e
 5408 07df EF000000 		.4byte	0xef
 5409 07e3 14       		.uleb128 0x14
 5410 07e4 737200   		.ascii	"sr\000"
 5411 07e7 02       		.byte	0x2
 5412 07e8 2E       		.byte	0x2e
 5413 07e9 1E010000 		.4byte	0x11e
 5414 07ed 00       		.byte	0
 5415 07ee 13       		.uleb128 0x13
 5416 07ef B8040000 		.4byte	.LASF134
 5417 07f3 09       		.byte	0x9
 5418 07f4 6D       		.byte	0x6d
 5419 07f5 20020000 		.4byte	0x220
 5420 07f9 03       		.byte	0x3
 5421 07fa 09080000 		.4byte	0x809
 5422 07fe 14       		.uleb128 0x14
 5423 07ff 737200   		.ascii	"sr\000"
 5424 0802 09       		.byte	0x9
 5425 0803 6D       		.byte	0x6d
 5426 0804 1E010000 		.4byte	0x11e
 5427 0808 00       		.byte	0
 5428 0809 13       		.uleb128 0x13
 5429 080a D9010000 		.4byte	.LASF135
 5430 080e 03       		.byte	0x3
 5431 080f 2C       		.byte	0x2c
 5432 0810 3E020000 		.4byte	0x23e
 5433 0814 03       		.byte	0x3
 5434 0815 53080000 		.4byte	0x853
 5435 0819 14       		.uleb128 0x14
 5436 081a 5F7800   		.ascii	"_x\000"
 5437 081d 03       		.byte	0x3
 5438 081e 2C       		.byte	0x2c
 5439 081f 3E020000 		.4byte	0x23e
 5440 0823 14       		.uleb128 0x14
 5441 0824 65787000 		.ascii	"exp\000"
 5442 0828 03       		.byte	0x3
 5443 0829 2C       		.byte	0x2c
 5444 082a 9F000000 		.4byte	0x9f
 5445 082e 15       		.uleb128 0x15
 5446 082f 04       		.byte	0x4
 5447 0830 03       		.byte	0x3
 5448 0831 2D       		.byte	0x2d
 5449 0832 49080000 		.4byte	0x849
 5450 0836 16       		.uleb128 0x16
 5451 0837 6600     		.ascii	"f\000"
 5452 0839 03       		.byte	0x3
 5453 083a 2D       		.byte	0x2d
 5454 083b 3E020000 		.4byte	0x23e
 5455 083f 16       		.uleb128 0x16
 5456 0840 7300     		.ascii	"s\000"
 5457 0842 03       		.byte	0x3
 5458 0843 2D       		.byte	0x2d
 5459 0844 CE000000 		.4byte	0xce
 5460 0848 00       		.byte	0
 5461 0849 17       		.uleb128 0x17
ARM GAS  C:\Users\rdn\AppData\Local\Temp\cco7w9JJ.s 			page 122


 5462 084a 7800     		.ascii	"x\000"
 5463 084c 03       		.byte	0x3
 5464 084d 2D       		.byte	0x2d
 5465 084e 2E080000 		.4byte	0x82e
 5466 0852 00       		.byte	0
 5467 0853 13       		.uleb128 0x13
 5468 0854 29000000 		.4byte	.LASF136
 5469 0858 02       		.byte	0x2
 5470 0859 3B       		.byte	0x3b
 5471 085a 9F000000 		.4byte	0x9f
 5472 085e 03       		.byte	0x3
 5473 085f 78080000 		.4byte	0x878
 5474 0863 14       		.uleb128 0x14
 5475 0864 647400   		.ascii	"dt\000"
 5476 0867 02       		.byte	0x2
 5477 0868 3B       		.byte	0x3b
 5478 0869 EF000000 		.4byte	0xef
 5479 086d 14       		.uleb128 0x14
 5480 086e 737200   		.ascii	"sr\000"
 5481 0871 02       		.byte	0x2
 5482 0872 3B       		.byte	0x3b
 5483 0873 1E010000 		.4byte	0x11e
 5484 0877 00       		.byte	0
 5485 0878 13       		.uleb128 0x13
 5486 0879 290A0000 		.4byte	.LASF137
 5487 087d 02       		.byte	0x2
 5488 087e 40       		.byte	0x40
 5489 087f 9F000000 		.4byte	0x9f
 5490 0883 03       		.byte	0x3
 5491 0884 93080000 		.4byte	0x893
 5492 0888 14       		.uleb128 0x14
 5493 0889 737200   		.ascii	"sr\000"
 5494 088c 02       		.byte	0x2
 5495 088d 40       		.byte	0x40
 5496 088e 1E010000 		.4byte	0x11e
 5497 0892 00       		.byte	0
 5498 0893 18       		.uleb128 0x18
 5499 0894 CF030000 		.4byte	.LASF163
 5500 0898 04       		.byte	0x4
 5501 0899 DA       		.byte	0xda
 5502 089a 03       		.byte	0x3
 5503 089b C8080000 		.4byte	0x8c8
 5504 089f 19       		.uleb128 0x19
 5505 08a0 01060000 		.4byte	.LASF138
 5506 08a4 04       		.byte	0x4
 5507 08a5 DB       		.byte	0xdb
 5508 08a6 C8080000 		.4byte	0x8c8
 5509 08aa 14       		.uleb128 0x14
 5510 08ab 7600     		.ascii	"v\000"
 5511 08ad 04       		.byte	0x4
 5512 08ae DB       		.byte	0xdb
 5513 08af A6000000 		.4byte	0xa6
 5514 08b3 14       		.uleb128 0x14
 5515 08b4 6E00     		.ascii	"n\000"
 5516 08b6 04       		.byte	0x4
 5517 08b7 DB       		.byte	0xdb
 5518 08b8 9F000000 		.4byte	0x9f
ARM GAS  C:\Users\rdn\AppData\Local\Temp\cco7w9JJ.s 			page 123


 5519 08bc 1A       		.uleb128 0x1a
 5520 08bd BF040000 		.4byte	.LASF106
 5521 08c1 04       		.byte	0x4
 5522 08c2 DD       		.byte	0xdd
 5523 08c3 CE080000 		.4byte	0x8ce
 5524 08c7 00       		.byte	0
 5525 08c8 10       		.uleb128 0x10
 5526 08c9 04       		.byte	0x4
 5527 08ca D3050000 		.4byte	0x5d3
 5528 08ce 10       		.uleb128 0x10
 5529 08cf 04       		.byte	0x4
 5530 08d0 03050000 		.4byte	0x503
 5531 08d4 13       		.uleb128 0x13
 5532 08d5 E2000000 		.4byte	.LASF139
 5533 08d9 04       		.byte	0x4
 5534 08da F2       		.byte	0xf2
 5535 08db A6000000 		.4byte	0xa6
 5536 08df 03       		.byte	0x3
 5537 08e0 0F090000 		.4byte	0x90f
 5538 08e4 19       		.uleb128 0x19
 5539 08e5 01060000 		.4byte	.LASF138
 5540 08e9 04       		.byte	0x4
 5541 08ea F2       		.byte	0xf2
 5542 08eb C8080000 		.4byte	0x8c8
 5543 08ef 14       		.uleb128 0x14
 5544 08f0 6E00     		.ascii	"n\000"
 5545 08f2 04       		.byte	0x4
 5546 08f3 F2       		.byte	0xf2
 5547 08f4 9F000000 		.4byte	0x9f
 5548 08f8 1A       		.uleb128 0x1a
 5549 08f9 BF040000 		.4byte	.LASF106
 5550 08fd 04       		.byte	0x4
 5551 08fe F4       		.byte	0xf4
 5552 08ff CE080000 		.4byte	0x8ce
 5553 0903 1B       		.uleb128 0x1b
 5554 0904 17       		.uleb128 0x17
 5555 0905 7600     		.ascii	"v\000"
 5556 0907 04       		.byte	0x4
 5557 0908 F7       		.byte	0xf7
 5558 0909 9F000000 		.4byte	0x9f
 5559 090d 00       		.byte	0
 5560 090e 00       		.byte	0
 5561 090f 13       		.uleb128 0x13
 5562 0910 E2090000 		.4byte	.LASF140
 5563 0914 02       		.byte	0x2
 5564 0915 32       		.byte	0x32
 5565 0916 9F000000 		.4byte	0x9f
 5566 091a 03       		.byte	0x3
 5567 091b 34090000 		.4byte	0x934
 5568 091f 14       		.uleb128 0x14
 5569 0920 647400   		.ascii	"dt\000"
 5570 0923 02       		.byte	0x2
 5571 0924 32       		.byte	0x32
 5572 0925 EF000000 		.4byte	0xef
 5573 0929 14       		.uleb128 0x14
 5574 092a 737200   		.ascii	"sr\000"
 5575 092d 02       		.byte	0x2
ARM GAS  C:\Users\rdn\AppData\Local\Temp\cco7w9JJ.s 			page 124


 5576 092e 32       		.byte	0x32
 5577 092f 1E010000 		.4byte	0x11e
 5578 0933 00       		.byte	0
 5579 0934 13       		.uleb128 0x13
 5580 0935 FF0B0000 		.4byte	.LASF141
 5581 0939 02       		.byte	0x2
 5582 093a 51       		.byte	0x51
 5583 093b 9F000000 		.4byte	0x9f
 5584 093f 03       		.byte	0x3
 5585 0940 59090000 		.4byte	0x959
 5586 0944 14       		.uleb128 0x14
 5587 0945 647400   		.ascii	"dt\000"
 5588 0948 02       		.byte	0x2
 5589 0949 51       		.byte	0x51
 5590 094a EF000000 		.4byte	0xef
 5591 094e 14       		.uleb128 0x14
 5592 094f 737200   		.ascii	"sr\000"
 5593 0952 02       		.byte	0x2
 5594 0953 51       		.byte	0x51
 5595 0954 1E010000 		.4byte	0x11e
 5596 0958 00       		.byte	0
 5597 0959 13       		.uleb128 0x13
 5598 095a 00000000 		.4byte	.LASF142
 5599 095e 02       		.byte	0x2
 5600 095f 56       		.byte	0x56
 5601 0960 9F000000 		.4byte	0x9f
 5602 0964 03       		.byte	0x3
 5603 0965 7E090000 		.4byte	0x97e
 5604 0969 14       		.uleb128 0x14
 5605 096a 647400   		.ascii	"dt\000"
 5606 096d 02       		.byte	0x2
 5607 096e 56       		.byte	0x56
 5608 096f EF000000 		.4byte	0xef
 5609 0973 14       		.uleb128 0x14
 5610 0974 737200   		.ascii	"sr\000"
 5611 0977 02       		.byte	0x2
 5612 0978 56       		.byte	0x56
 5613 0979 1E010000 		.4byte	0x11e
 5614 097d 00       		.byte	0
 5615 097e 13       		.uleb128 0x13
 5616 097f 14000000 		.4byte	.LASF143
 5617 0983 02       		.byte	0x2
 5618 0984 36       		.byte	0x36
 5619 0985 9F000000 		.4byte	0x9f
 5620 0989 03       		.byte	0x3
 5621 098a A3090000 		.4byte	0x9a3
 5622 098e 14       		.uleb128 0x14
 5623 098f 647400   		.ascii	"dt\000"
 5624 0992 02       		.byte	0x2
 5625 0993 36       		.byte	0x36
 5626 0994 EF000000 		.4byte	0xef
 5627 0998 14       		.uleb128 0x14
 5628 0999 737200   		.ascii	"sr\000"
 5629 099c 02       		.byte	0x2
 5630 099d 36       		.byte	0x36
 5631 099e 1E010000 		.4byte	0x11e
 5632 09a2 00       		.byte	0
ARM GAS  C:\Users\rdn\AppData\Local\Temp\cco7w9JJ.s 			page 125


 5633 09a3 1C       		.uleb128 0x1c
 5634 09a4 89090000 		.4byte	.LASF145
 5635 09a8 01       		.byte	0x1
 5636 09a9 3B       		.byte	0x3b
 5637 09aa EF000000 		.4byte	0xef
 5638 09ae 00000000 		.4byte	.LFB20
 5639 09b2 40000000 		.4byte	.LFE20-.LFB20
 5640 09b6 01       		.uleb128 0x1
 5641 09b7 9C       		.byte	0x9c
 5642 09b8 D8090000 		.4byte	0x9d8
 5643 09bc 1D       		.uleb128 0x1d
 5644 09bd 757300   		.ascii	"us\000"
 5645 09c0 01       		.byte	0x1
 5646 09c1 3B       		.byte	0x3b
 5647 09c2 9F000000 		.4byte	0x9f
 5648 09c6 00000000 		.4byte	.LLST0
 5649 09ca 1E       		.uleb128 0x1e
 5650 09cb 06060000 		.4byte	.LASF144
 5651 09cf 01       		.byte	0x1
 5652 09d0 3B       		.byte	0x3b
 5653 09d1 20020000 		.4byte	0x220
 5654 09d5 01       		.uleb128 0x1
 5655 09d6 51       		.byte	0x51
 5656 09d7 00       		.byte	0
 5657 09d8 1C       		.uleb128 0x1c
 5658 09d9 2E090000 		.4byte	.LASF146
 5659 09dd 01       		.byte	0x1
 5660 09de 49       		.byte	0x49
 5661 09df 1E010000 		.4byte	0x11e
 5662 09e3 00000000 		.4byte	.LFB21
 5663 09e7 7C000000 		.4byte	.LFE21-.LFB21
 5664 09eb 01       		.uleb128 0x1
 5665 09ec 9C       		.byte	0x9c
 5666 09ed 0D0A0000 		.4byte	0xa0d
 5667 09f1 1D       		.uleb128 0x1d
 5668 09f2 687A00   		.ascii	"hz\000"
 5669 09f5 01       		.byte	0x1
 5670 09f6 49       		.byte	0x49
 5671 09f7 9F000000 		.4byte	0x9f
 5672 09fb 85000000 		.4byte	.LLST1
 5673 09ff 1E       		.uleb128 0x1e
 5674 0a00 06060000 		.4byte	.LASF144
 5675 0a04 01       		.byte	0x1
 5676 0a05 49       		.byte	0x49
 5677 0a06 20020000 		.4byte	0x220
 5678 0a0a 01       		.uleb128 0x1
 5679 0a0b 51       		.byte	0x51
 5680 0a0c 00       		.byte	0
 5681 0a0d 1F       		.uleb128 0x1f
 5682 0a0e B7000000 		.4byte	.LASF150
 5683 0a12 01       		.byte	0x1
 5684 0a13 BE       		.byte	0xbe
 5685 0a14 00000000 		.4byte	.LFB32
 5686 0a18 78000000 		.4byte	.LFE32-.LFB32
 5687 0a1c 01       		.uleb128 0x1
 5688 0a1d 9C       		.byte	0x9c
 5689 0a1e DE0A0000 		.4byte	0xade
ARM GAS  C:\Users\rdn\AppData\Local\Temp\cco7w9JJ.s 			page 126


 5690 0a22 20       		.uleb128 0x20
 5691 0a23 DC030000 		.4byte	.LASF147
 5692 0a27 01       		.byte	0x1
 5693 0a28 BF       		.byte	0xbf
 5694 0a29 82040000 		.4byte	0x482
 5695 0a2d 6E010000 		.4byte	.LLST2
 5696 0a31 20       		.uleb128 0x20
 5697 0a32 B3040000 		.4byte	.LASF148
 5698 0a36 01       		.byte	0x1
 5699 0a37 BF       		.byte	0xbf
 5700 0a38 DE0A0000 		.4byte	0xade
 5701 0a3c 9D010000 		.4byte	.LLST3
 5702 0a40 20       		.uleb128 0x20
 5703 0a41 A9090000 		.4byte	.LASF149
 5704 0a45 01       		.byte	0x1
 5705 0a46 BF       		.byte	0xbf
 5706 0a47 9F000000 		.4byte	0x9f
 5707 0a4b C9010000 		.4byte	.LLST4
 5708 0a4f 21       		.uleb128 0x21
 5709 0a50 70636D00 		.ascii	"pcm\000"
 5710 0a54 01       		.byte	0x1
 5711 0a55 C1       		.byte	0xc1
 5712 0a56 E50A0000 		.4byte	0xae5
 5713 0a5a F5010000 		.4byte	.LLST5
 5714 0a5e 21       		.uleb128 0x21
 5715 0a5f 647400   		.ascii	"dt\000"
 5716 0a62 01       		.byte	0x1
 5717 0a63 C3       		.byte	0xc3
 5718 0a64 EF000000 		.4byte	0xef
 5719 0a68 13020000 		.4byte	.LLST6
 5720 0a6c 21       		.uleb128 0x21
 5721 0a6d 737200   		.ascii	"sr\000"
 5722 0a70 01       		.byte	0x1
 5723 0a71 C4       		.byte	0xc4
 5724 0a72 1E010000 		.4byte	0x11e
 5725 0a76 3F020000 		.4byte	.LLST7
 5726 0a7a 21       		.uleb128 0x21
 5727 0a7b 787400   		.ascii	"xt\000"
 5728 0a7e 01       		.byte	0x1
 5729 0a7f C6       		.byte	0xc6
 5730 0a80 F00A0000 		.4byte	0xaf0
 5731 0a84 5E020000 		.4byte	.LLST8
 5732 0a88 21       		.uleb128 0x21
 5733 0a89 787300   		.ascii	"xs\000"
 5734 0a8c 01       		.byte	0x1
 5735 0a8d C7       		.byte	0xc7
 5736 0a8e F60A0000 		.4byte	0xaf6
 5737 0a92 9A020000 		.4byte	.LLST9
 5738 0a96 17       		.uleb128 0x17
 5739 0a97 6E7300   		.ascii	"ns\000"
 5740 0a9a 01       		.byte	0x1
 5741 0a9b C8       		.byte	0xc8
 5742 0a9c 9F000000 		.4byte	0x9f
 5743 0aa0 22       		.uleb128 0x22
 5744 0aa1 C9070000 		.4byte	0x7c9
 5745 0aa5 28000000 		.4byte	.LBB111
 5746 0aa9 0C000000 		.4byte	.LBE111-.LBB111
ARM GAS  C:\Users\rdn\AppData\Local\Temp\cco7w9JJ.s 			page 127


 5747 0aad 01       		.byte	0x1
 5748 0aae C8       		.byte	0xc8
 5749 0aaf C60A0000 		.4byte	0xac6
 5750 0ab3 23       		.uleb128 0x23
 5751 0ab4 E3070000 		.4byte	0x7e3
 5752 0ab8 D6020000 		.4byte	.LLST10
 5753 0abc 23       		.uleb128 0x23
 5754 0abd D9070000 		.4byte	0x7d9
 5755 0ac1 F5020000 		.4byte	.LLST11
 5756 0ac5 00       		.byte	0
 5757 0ac6 24       		.uleb128 0x24
 5758 0ac7 34000000 		.4byte	.LBB113
 5759 0acb 2A000000 		.4byte	.LBE113-.LBB113
 5760 0acf 21       		.uleb128 0x21
 5761 0ad0 6900     		.ascii	"i\000"
 5762 0ad2 01       		.byte	0x1
 5763 0ad3 CA       		.byte	0xca
 5764 0ad4 9F000000 		.4byte	0x9f
 5765 0ad8 21030000 		.4byte	.LLST12
 5766 0adc 00       		.byte	0
 5767 0add 00       		.byte	0
 5768 0ade 10       		.uleb128 0x10
 5769 0adf 04       		.byte	0x4
 5770 0ae0 E40A0000 		.4byte	0xae4
 5771 0ae4 25       		.uleb128 0x25
 5772 0ae5 10       		.uleb128 0x10
 5773 0ae6 04       		.byte	0x4
 5774 0ae7 EB0A0000 		.4byte	0xaeb
 5775 0aeb 12       		.uleb128 0x12
 5776 0aec B8000000 		.4byte	0xb8
 5777 0af0 10       		.uleb128 0x10
 5778 0af1 04       		.byte	0x4
 5779 0af2 B8000000 		.4byte	0xb8
 5780 0af6 10       		.uleb128 0x10
 5781 0af7 04       		.byte	0x4
 5782 0af8 3E020000 		.4byte	0x23e
 5783 0afc 1F       		.uleb128 0x1f
 5784 0afd 74010000 		.4byte	.LASF151
 5785 0b01 01       		.byte	0x1
 5786 0b02 D3       		.byte	0xd3
 5787 0b03 00000000 		.4byte	.LFB33
 5788 0b07 84000000 		.4byte	.LFE33-.LFB33
 5789 0b0b 01       		.uleb128 0x1
 5790 0b0c 9C       		.byte	0x9c
 5791 0b0d FE0B0000 		.4byte	0xbfe
 5792 0b11 20       		.uleb128 0x20
 5793 0b12 DC030000 		.4byte	.LASF147
 5794 0b16 01       		.byte	0x1
 5795 0b17 D4       		.byte	0xd4
 5796 0b18 82040000 		.4byte	0x482
 5797 0b1c 40030000 		.4byte	.LLST13
 5798 0b20 20       		.uleb128 0x20
 5799 0b21 B3040000 		.4byte	.LASF148
 5800 0b25 01       		.byte	0x1
 5801 0b26 D4       		.byte	0xd4
 5802 0b27 DE0A0000 		.4byte	0xade
 5803 0b2b 6F030000 		.4byte	.LLST14
ARM GAS  C:\Users\rdn\AppData\Local\Temp\cco7w9JJ.s 			page 128


 5804 0b2f 20       		.uleb128 0x20
 5805 0b30 A9090000 		.4byte	.LASF149
 5806 0b34 01       		.byte	0x1
 5807 0b35 D4       		.byte	0xd4
 5808 0b36 9F000000 		.4byte	0x9f
 5809 0b3a 9B030000 		.4byte	.LLST15
 5810 0b3e 21       		.uleb128 0x21
 5811 0b3f 70636D00 		.ascii	"pcm\000"
 5812 0b43 01       		.byte	0x1
 5813 0b44 D6       		.byte	0xd6
 5814 0b45 FE0B0000 		.4byte	0xbfe
 5815 0b49 C7030000 		.4byte	.LLST16
 5816 0b4d 21       		.uleb128 0x21
 5817 0b4e 647400   		.ascii	"dt\000"
 5818 0b51 01       		.byte	0x1
 5819 0b52 D8       		.byte	0xd8
 5820 0b53 EF000000 		.4byte	0xef
 5821 0b57 E5030000 		.4byte	.LLST17
 5822 0b5b 21       		.uleb128 0x21
 5823 0b5c 737200   		.ascii	"sr\000"
 5824 0b5f 01       		.byte	0x1
 5825 0b60 D9       		.byte	0xd9
 5826 0b61 1E010000 		.4byte	0x11e
 5827 0b65 11040000 		.4byte	.LLST18
 5828 0b69 21       		.uleb128 0x21
 5829 0b6a 787400   		.ascii	"xt\000"
 5830 0b6d 01       		.byte	0x1
 5831 0b6e DB       		.byte	0xdb
 5832 0b6f F00A0000 		.4byte	0xaf0
 5833 0b73 30040000 		.4byte	.LLST19
 5834 0b77 21       		.uleb128 0x21
 5835 0b78 787300   		.ascii	"xs\000"
 5836 0b7b 01       		.byte	0x1
 5837 0b7c DC       		.byte	0xdc
 5838 0b7d F60A0000 		.4byte	0xaf6
 5839 0b81 6C040000 		.4byte	.LLST20
 5840 0b85 17       		.uleb128 0x17
 5841 0b86 6E7300   		.ascii	"ns\000"
 5842 0b89 01       		.byte	0x1
 5843 0b8a DD       		.byte	0xdd
 5844 0b8b 9F000000 		.4byte	0x9f
 5845 0b8f 22       		.uleb128 0x22
 5846 0b90 C9070000 		.4byte	0x7c9
 5847 0b94 28000000 		.4byte	.LBB114
 5848 0b98 0C000000 		.4byte	.LBE114-.LBB114
 5849 0b9c 01       		.byte	0x1
 5850 0b9d DD       		.byte	0xdd
 5851 0b9e B50B0000 		.4byte	0xbb5
 5852 0ba2 23       		.uleb128 0x23
 5853 0ba3 E3070000 		.4byte	0x7e3
 5854 0ba7 A8040000 		.4byte	.LLST21
 5855 0bab 23       		.uleb128 0x23
 5856 0bac D9070000 		.4byte	0x7d9
 5857 0bb0 C7040000 		.4byte	.LLST22
 5858 0bb4 00       		.byte	0
 5859 0bb5 24       		.uleb128 0x24
 5860 0bb6 34000000 		.4byte	.LBB116
ARM GAS  C:\Users\rdn\AppData\Local\Temp\cco7w9JJ.s 			page 129


 5861 0bba 38000000 		.4byte	.LBE116-.LBB116
 5862 0bbe 21       		.uleb128 0x21
 5863 0bbf 6900     		.ascii	"i\000"
 5864 0bc1 01       		.byte	0x1
 5865 0bc2 DF       		.byte	0xdf
 5866 0bc3 9F000000 		.4byte	0x9f
 5867 0bc7 F3040000 		.4byte	.LLST23
 5868 0bcb 26       		.uleb128 0x26
 5869 0bcc 09080000 		.4byte	0x809
 5870 0bd0 4E000000 		.4byte	.LBB117
 5871 0bd4 10000000 		.4byte	.LBE117-.LBB117
 5872 0bd8 01       		.byte	0x1
 5873 0bd9 E1       		.byte	0xe1
 5874 0bda 23       		.uleb128 0x23
 5875 0bdb 23080000 		.4byte	0x823
 5876 0bdf 12050000 		.4byte	.LLST24
 5877 0be3 23       		.uleb128 0x23
 5878 0be4 19080000 		.4byte	0x819
 5879 0be8 27050000 		.4byte	.LLST25
 5880 0bec 24       		.uleb128 0x24
 5881 0bed 4E000000 		.4byte	.LBB118
 5882 0bf1 10000000 		.4byte	.LBE118-.LBB118
 5883 0bf5 27       		.uleb128 0x27
 5884 0bf6 49080000 		.4byte	0x849
 5885 0bfa 00       		.byte	0
 5886 0bfb 00       		.byte	0
 5887 0bfc 00       		.byte	0
 5888 0bfd 00       		.byte	0
 5889 0bfe 10       		.uleb128 0x10
 5890 0bff 04       		.byte	0x4
 5891 0c00 040C0000 		.4byte	0xc04
 5892 0c04 12       		.uleb128 0x12
 5893 0c05 CE000000 		.4byte	0xce
 5894 0c09 1F       		.uleb128 0x1f
 5895 0c0a 7E070000 		.4byte	.LASF152
 5896 0c0e 01       		.byte	0x1
 5897 0c0f EA       		.byte	0xea
 5898 0c10 00000000 		.4byte	.LFB34
 5899 0c14 94000000 		.4byte	.LFE34-.LFB34
 5900 0c18 01       		.uleb128 0x1
 5901 0c19 9C       		.byte	0x9c
 5902 0c1a 230D0000 		.4byte	0xd23
 5903 0c1e 20       		.uleb128 0x20
 5904 0c1f DC030000 		.4byte	.LASF147
 5905 0c23 01       		.byte	0x1
 5906 0c24 EB       		.byte	0xeb
 5907 0c25 82040000 		.4byte	0x482
 5908 0c29 3A050000 		.4byte	.LLST26
 5909 0c2d 20       		.uleb128 0x20
 5910 0c2e B3040000 		.4byte	.LASF148
 5911 0c32 01       		.byte	0x1
 5912 0c33 EB       		.byte	0xeb
 5913 0c34 DE0A0000 		.4byte	0xade
 5914 0c38 69050000 		.4byte	.LLST27
 5915 0c3c 20       		.uleb128 0x20
 5916 0c3d A9090000 		.4byte	.LASF149
 5917 0c41 01       		.byte	0x1
ARM GAS  C:\Users\rdn\AppData\Local\Temp\cco7w9JJ.s 			page 130


 5918 0c42 EB       		.byte	0xeb
 5919 0c43 9F000000 		.4byte	0x9f
 5920 0c47 95050000 		.4byte	.LLST28
 5921 0c4b 21       		.uleb128 0x21
 5922 0c4c 70636D00 		.ascii	"pcm\000"
 5923 0c50 01       		.byte	0x1
 5924 0c51 ED       		.byte	0xed
 5925 0c52 C2050000 		.4byte	0x5c2
 5926 0c56 C1050000 		.4byte	.LLST29
 5927 0c5a 21       		.uleb128 0x21
 5928 0c5b 647400   		.ascii	"dt\000"
 5929 0c5e 01       		.byte	0x1
 5930 0c5f EF       		.byte	0xef
 5931 0c60 EF000000 		.4byte	0xef
 5932 0c64 DF050000 		.4byte	.LLST30
 5933 0c68 21       		.uleb128 0x21
 5934 0c69 737200   		.ascii	"sr\000"
 5935 0c6c 01       		.byte	0x1
 5936 0c6d F0       		.byte	0xf0
 5937 0c6e 1E010000 		.4byte	0x11e
 5938 0c72 0B060000 		.4byte	.LLST31
 5939 0c76 21       		.uleb128 0x21
 5940 0c77 787400   		.ascii	"xt\000"
 5941 0c7a 01       		.byte	0x1
 5942 0c7b F2       		.byte	0xf2
 5943 0c7c F00A0000 		.4byte	0xaf0
 5944 0c80 2A060000 		.4byte	.LLST32
 5945 0c84 21       		.uleb128 0x21
 5946 0c85 787300   		.ascii	"xs\000"
 5947 0c88 01       		.byte	0x1
 5948 0c89 F3       		.byte	0xf3
 5949 0c8a F60A0000 		.4byte	0xaf6
 5950 0c8e 66060000 		.4byte	.LLST33
 5951 0c92 17       		.uleb128 0x17
 5952 0c93 6E7300   		.ascii	"ns\000"
 5953 0c96 01       		.byte	0x1
 5954 0c97 F4       		.byte	0xf4
 5955 0c98 9F000000 		.4byte	0x9f
 5956 0c9c 22       		.uleb128 0x22
 5957 0c9d C9070000 		.4byte	0x7c9
 5958 0ca1 28000000 		.4byte	.LBB119
 5959 0ca5 0C000000 		.4byte	.LBE119-.LBB119
 5960 0ca9 01       		.byte	0x1
 5961 0caa F4       		.byte	0xf4
 5962 0cab C20C0000 		.4byte	0xcc2
 5963 0caf 23       		.uleb128 0x23
 5964 0cb0 E3070000 		.4byte	0x7e3
 5965 0cb4 A2060000 		.4byte	.LLST34
 5966 0cb8 23       		.uleb128 0x23
 5967 0cb9 D9070000 		.4byte	0x7d9
 5968 0cbd C1060000 		.4byte	.LLST35
 5969 0cc1 00       		.byte	0
 5970 0cc2 24       		.uleb128 0x24
 5971 0cc3 34000000 		.4byte	.LBB121
 5972 0cc7 46000000 		.4byte	.LBE121-.LBB121
 5973 0ccb 21       		.uleb128 0x21
 5974 0ccc 6900     		.ascii	"i\000"
ARM GAS  C:\Users\rdn\AppData\Local\Temp\cco7w9JJ.s 			page 131


 5975 0cce 01       		.byte	0x1
 5976 0ccf F6       		.byte	0xf6
 5977 0cd0 9F000000 		.4byte	0x9f
 5978 0cd4 ED060000 		.4byte	.LLST36
 5979 0cd8 24       		.uleb128 0x24
 5980 0cd9 38000000 		.4byte	.LBB122
 5981 0cdd 34000000 		.4byte	.LBE122-.LBB122
 5982 0ce1 21       		.uleb128 0x21
 5983 0ce2 696E00   		.ascii	"in\000"
 5984 0ce5 01       		.byte	0x1
 5985 0ce6 F7       		.byte	0xf7
 5986 0ce7 CE000000 		.4byte	0xce
 5987 0ceb 0C070000 		.4byte	.LLST37
 5988 0cef 26       		.uleb128 0x26
 5989 0cf0 09080000 		.4byte	0x809
 5990 0cf4 5A000000 		.4byte	.LBB123
 5991 0cf8 10000000 		.4byte	.LBE123-.LBB123
 5992 0cfc 01       		.byte	0x1
 5993 0cfd FC       		.byte	0xfc
 5994 0cfe 23       		.uleb128 0x23
 5995 0cff 23080000 		.4byte	0x823
 5996 0d03 1F070000 		.4byte	.LLST38
 5997 0d07 23       		.uleb128 0x23
 5998 0d08 19080000 		.4byte	0x819
 5999 0d0c 34070000 		.4byte	.LLST39
 6000 0d10 24       		.uleb128 0x24
 6001 0d11 5A000000 		.4byte	.LBB124
 6002 0d15 10000000 		.4byte	.LBE124-.LBB124
 6003 0d19 27       		.uleb128 0x27
 6004 0d1a 49080000 		.4byte	0x849
 6005 0d1e 00       		.byte	0
 6006 0d1f 00       		.byte	0
 6007 0d20 00       		.byte	0
 6008 0d21 00       		.byte	0
 6009 0d22 00       		.byte	0
 6010 0d23 28       		.uleb128 0x28
 6011 0d24 DC040000 		.4byte	.LASF153
 6012 0d28 01       		.byte	0x1
 6013 0d29 0501     		.2byte	0x105
 6014 0d2b 00000000 		.4byte	.LFB35
 6015 0d2f A4000000 		.4byte	.LFE35-.LFB35
 6016 0d33 01       		.uleb128 0x1
 6017 0d34 9C       		.byte	0x9c
 6018 0d35 320E0000 		.4byte	0xe32
 6019 0d39 29       		.uleb128 0x29
 6020 0d3a DC030000 		.4byte	.LASF147
 6021 0d3e 01       		.byte	0x1
 6022 0d3f 0601     		.2byte	0x106
 6023 0d41 82040000 		.4byte	0x482
 6024 0d45 47070000 		.4byte	.LLST40
 6025 0d49 29       		.uleb128 0x29
 6026 0d4a B3040000 		.4byte	.LASF148
 6027 0d4e 01       		.byte	0x1
 6028 0d4f 0601     		.2byte	0x106
 6029 0d51 DE0A0000 		.4byte	0xade
 6030 0d55 68070000 		.4byte	.LLST41
 6031 0d59 29       		.uleb128 0x29
ARM GAS  C:\Users\rdn\AppData\Local\Temp\cco7w9JJ.s 			page 132


 6032 0d5a A9090000 		.4byte	.LASF149
 6033 0d5e 01       		.byte	0x1
 6034 0d5f 0601     		.2byte	0x106
 6035 0d61 9F000000 		.4byte	0x9f
 6036 0d65 89070000 		.4byte	.LLST42
 6037 0d69 2A       		.uleb128 0x2a
 6038 0d6a 70636D00 		.ascii	"pcm\000"
 6039 0d6e 01       		.byte	0x1
 6040 0d6f 0801     		.2byte	0x108
 6041 0d71 2F070000 		.4byte	0x72f
 6042 0d75 B5070000 		.4byte	.LLST43
 6043 0d79 2A       		.uleb128 0x2a
 6044 0d7a 647400   		.ascii	"dt\000"
 6045 0d7d 01       		.byte	0x1
 6046 0d7e 0A01     		.2byte	0x10a
 6047 0d80 EF000000 		.4byte	0xef
 6048 0d84 D3070000 		.4byte	.LLST44
 6049 0d88 2A       		.uleb128 0x2a
 6050 0d89 737200   		.ascii	"sr\000"
 6051 0d8c 01       		.byte	0x1
 6052 0d8d 0B01     		.2byte	0x10b
 6053 0d8f 1E010000 		.4byte	0x11e
 6054 0d93 FF070000 		.4byte	.LLST45
 6055 0d97 2A       		.uleb128 0x2a
 6056 0d98 787400   		.ascii	"xt\000"
 6057 0d9b 01       		.byte	0x1
 6058 0d9c 0D01     		.2byte	0x10d
 6059 0d9e F00A0000 		.4byte	0xaf0
 6060 0da2 1E080000 		.4byte	.LLST46
 6061 0da6 2A       		.uleb128 0x2a
 6062 0da7 787300   		.ascii	"xs\000"
 6063 0daa 01       		.byte	0x1
 6064 0dab 0E01     		.2byte	0x10e
 6065 0dad F60A0000 		.4byte	0xaf6
 6066 0db1 46080000 		.4byte	.LLST47
 6067 0db5 2B       		.uleb128 0x2b
 6068 0db6 6E7300   		.ascii	"ns\000"
 6069 0db9 01       		.byte	0x1
 6070 0dba 0F01     		.2byte	0x10f
 6071 0dbc 9F000000 		.4byte	0x9f
 6072 0dc0 2C       		.uleb128 0x2c
 6073 0dc1 C9070000 		.4byte	0x7c9
 6074 0dc5 2C000000 		.4byte	.LBB125
 6075 0dc9 0A000000 		.4byte	.LBE125-.LBB125
 6076 0dcd 01       		.byte	0x1
 6077 0dce 0F01     		.2byte	0x10f
 6078 0dd0 E70D0000 		.4byte	0xde7
 6079 0dd4 23       		.uleb128 0x23
 6080 0dd5 E3070000 		.4byte	0x7e3
 6081 0dd9 64080000 		.4byte	.LLST48
 6082 0ddd 23       		.uleb128 0x23
 6083 0dde D9070000 		.4byte	0x7d9
 6084 0de2 83080000 		.4byte	.LLST49
 6085 0de6 00       		.byte	0
 6086 0de7 24       		.uleb128 0x24
 6087 0de8 36000000 		.4byte	.LBB127
 6088 0dec 4A000000 		.4byte	.LBE127-.LBB127
ARM GAS  C:\Users\rdn\AppData\Local\Temp\cco7w9JJ.s 			page 133


 6089 0df0 2A       		.uleb128 0x2a
 6090 0df1 6900     		.ascii	"i\000"
 6091 0df3 01       		.byte	0x1
 6092 0df4 1101     		.2byte	0x111
 6093 0df6 9F000000 		.4byte	0x9f
 6094 0dfa A3080000 		.4byte	.LLST50
 6095 0dfe 2D       		.uleb128 0x2d
 6096 0dff 09080000 		.4byte	0x809
 6097 0e03 42000000 		.4byte	.LBB128
 6098 0e07 10000000 		.4byte	.LBE128-.LBB128
 6099 0e0b 01       		.byte	0x1
 6100 0e0c 1201     		.2byte	0x112
 6101 0e0e 23       		.uleb128 0x23
 6102 0e0f 23080000 		.4byte	0x823
 6103 0e13 D8080000 		.4byte	.LLST51
 6104 0e17 23       		.uleb128 0x23
 6105 0e18 19080000 		.4byte	0x819
 6106 0e1c EC080000 		.4byte	.LLST52
 6107 0e20 24       		.uleb128 0x24
 6108 0e21 42000000 		.4byte	.LBB129
 6109 0e25 10000000 		.4byte	.LBE129-.LBB129
 6110 0e29 27       		.uleb128 0x27
 6111 0e2a 49080000 		.4byte	0x849
 6112 0e2e 00       		.byte	0
 6113 0e2f 00       		.byte	0
 6114 0e30 00       		.byte	0
 6115 0e31 00       		.byte	0
 6116 0e32 28       		.uleb128 0x28
 6117 0e33 02070000 		.4byte	.LASF154
 6118 0e37 01       		.byte	0x1
 6119 0e38 D501     		.2byte	0x1d5
 6120 0e3a 00000000 		.4byte	.LFB43
 6121 0e3e 8C000000 		.4byte	.LFE43-.LFB43
 6122 0e42 01       		.uleb128 0x1
 6123 0e43 9C       		.byte	0x9c
 6124 0e44 040F0000 		.4byte	0xf04
 6125 0e48 29       		.uleb128 0x29
 6126 0e49 E4030000 		.4byte	.LASF155
 6127 0e4d 01       		.byte	0x1
 6128 0e4e D601     		.2byte	0x1d6
 6129 0e50 88040000 		.4byte	0x488
 6130 0e54 FF080000 		.4byte	.LLST53
 6131 0e58 29       		.uleb128 0x29
 6132 0e59 B3040000 		.4byte	.LASF148
 6133 0e5d 01       		.byte	0x1
 6134 0e5e D601     		.2byte	0x1d6
 6135 0e60 95040000 		.4byte	0x495
 6136 0e64 20090000 		.4byte	.LLST54
 6137 0e68 29       		.uleb128 0x29
 6138 0e69 A9090000 		.4byte	.LASF149
 6139 0e6d 01       		.byte	0x1
 6140 0e6e D601     		.2byte	0x1d6
 6141 0e70 9F000000 		.4byte	0x9f
 6142 0e74 4C090000 		.4byte	.LLST55
 6143 0e78 2A       		.uleb128 0x2a
 6144 0e79 70636D00 		.ascii	"pcm\000"
 6145 0e7d 01       		.byte	0x1
ARM GAS  C:\Users\rdn\AppData\Local\Temp\cco7w9JJ.s 			page 134


 6146 0e7e D801     		.2byte	0x1d8
 6147 0e80 F00A0000 		.4byte	0xaf0
 6148 0e84 78090000 		.4byte	.LLST56
 6149 0e88 2A       		.uleb128 0x2a
 6150 0e89 647400   		.ascii	"dt\000"
 6151 0e8c 01       		.byte	0x1
 6152 0e8d DA01     		.2byte	0x1da
 6153 0e8f EF000000 		.4byte	0xef
 6154 0e93 96090000 		.4byte	.LLST57
 6155 0e97 2A       		.uleb128 0x2a
 6156 0e98 737200   		.ascii	"sr\000"
 6157 0e9b 01       		.byte	0x1
 6158 0e9c DB01     		.2byte	0x1db
 6159 0e9e 1E010000 		.4byte	0x11e
 6160 0ea2 C2090000 		.4byte	.LLST58
 6161 0ea6 2A       		.uleb128 0x2a
 6162 0ea7 787300   		.ascii	"xs\000"
 6163 0eaa 01       		.byte	0x1
 6164 0eab DD01     		.2byte	0x1dd
 6165 0ead F60A0000 		.4byte	0xaf6
 6166 0eb1 E1090000 		.4byte	.LLST59
 6167 0eb5 2A       		.uleb128 0x2a
 6168 0eb6 6E7300   		.ascii	"ns\000"
 6169 0eb9 01       		.byte	0x1
 6170 0eba DE01     		.2byte	0x1de
 6171 0ebc 9F000000 		.4byte	0x9f
 6172 0ec0 F4090000 		.4byte	.LLST60
 6173 0ec4 2C       		.uleb128 0x2c
 6174 0ec5 C9070000 		.4byte	0x7c9
 6175 0ec9 1A000000 		.4byte	.LBB130
 6176 0ecd 0A000000 		.4byte	.LBE130-.LBB130
 6177 0ed1 01       		.byte	0x1
 6178 0ed2 DE01     		.2byte	0x1de
 6179 0ed4 EB0E0000 		.4byte	0xeeb
 6180 0ed8 23       		.uleb128 0x23
 6181 0ed9 E3070000 		.4byte	0x7e3
 6182 0edd 070A0000 		.4byte	.LLST61
 6183 0ee1 23       		.uleb128 0x23
 6184 0ee2 D9070000 		.4byte	0x7d9
 6185 0ee6 260A0000 		.4byte	.LLST62
 6186 0eea 00       		.byte	0
 6187 0eeb 24       		.uleb128 0x24
 6188 0eec 26000000 		.4byte	.LBB132
 6189 0ef0 42000000 		.4byte	.LBE132-.LBB132
 6190 0ef4 2A       		.uleb128 0x2a
 6191 0ef5 7300     		.ascii	"s\000"
 6192 0ef7 01       		.byte	0x1
 6193 0ef8 E101     		.2byte	0x1e1
 6194 0efa CE000000 		.4byte	0xce
 6195 0efe 460A0000 		.4byte	.LLST63
 6196 0f02 00       		.byte	0
 6197 0f03 00       		.byte	0
 6198 0f04 28       		.uleb128 0x28
 6199 0f05 A4020000 		.4byte	.LASF156
 6200 0f09 01       		.byte	0x1
 6201 0f0a EB01     		.2byte	0x1eb
 6202 0f0c 00000000 		.4byte	.LFB44
ARM GAS  C:\Users\rdn\AppData\Local\Temp\cco7w9JJ.s 			page 135


 6203 0f10 A8000000 		.4byte	.LFE44-.LFB44
 6204 0f14 01       		.uleb128 0x1
 6205 0f15 9C       		.byte	0x9c
 6206 0f16 3E100000 		.4byte	0x103e
 6207 0f1a 29       		.uleb128 0x29
 6208 0f1b E4030000 		.4byte	.LASF155
 6209 0f1f 01       		.byte	0x1
 6210 0f20 EC01     		.2byte	0x1ec
 6211 0f22 88040000 		.4byte	0x488
 6212 0f26 640A0000 		.4byte	.LLST64
 6213 0f2a 29       		.uleb128 0x29
 6214 0f2b B3040000 		.4byte	.LASF148
 6215 0f2f 01       		.byte	0x1
 6216 0f30 EC01     		.2byte	0x1ec
 6217 0f32 95040000 		.4byte	0x495
 6218 0f36 850A0000 		.4byte	.LLST65
 6219 0f3a 29       		.uleb128 0x29
 6220 0f3b A9090000 		.4byte	.LASF149
 6221 0f3f 01       		.byte	0x1
 6222 0f40 EC01     		.2byte	0x1ec
 6223 0f42 9F000000 		.4byte	0x9f
 6224 0f46 B10A0000 		.4byte	.LLST66
 6225 0f4a 2A       		.uleb128 0x2a
 6226 0f4b 70636D00 		.ascii	"pcm\000"
 6227 0f4f 01       		.byte	0x1
 6228 0f50 EE01     		.2byte	0x1ee
 6229 0f52 3E100000 		.4byte	0x103e
 6230 0f56 DD0A0000 		.4byte	.LLST67
 6231 0f5a 2A       		.uleb128 0x2a
 6232 0f5b 647400   		.ascii	"dt\000"
 6233 0f5e 01       		.byte	0x1
 6234 0f5f F001     		.2byte	0x1f0
 6235 0f61 EF000000 		.4byte	0xef
 6236 0f65 FB0A0000 		.4byte	.LLST68
 6237 0f69 2A       		.uleb128 0x2a
 6238 0f6a 737200   		.ascii	"sr\000"
 6239 0f6d 01       		.byte	0x1
 6240 0f6e F101     		.2byte	0x1f1
 6241 0f70 1E010000 		.4byte	0x11e
 6242 0f74 270B0000 		.4byte	.LLST69
 6243 0f78 2A       		.uleb128 0x2a
 6244 0f79 787300   		.ascii	"xs\000"
 6245 0f7c 01       		.byte	0x1
 6246 0f7d F301     		.2byte	0x1f3
 6247 0f7f F60A0000 		.4byte	0xaf6
 6248 0f83 460B0000 		.4byte	.LLST70
 6249 0f87 2A       		.uleb128 0x2a
 6250 0f88 6E7300   		.ascii	"ns\000"
 6251 0f8b 01       		.byte	0x1
 6252 0f8c F401     		.2byte	0x1f4
 6253 0f8e 9F000000 		.4byte	0x9f
 6254 0f92 590B0000 		.4byte	.LLST71
 6255 0f96 2C       		.uleb128 0x2c
 6256 0f97 C9070000 		.4byte	0x7c9
 6257 0f9b 1A000000 		.4byte	.LBB133
 6258 0f9f 0A000000 		.4byte	.LBE133-.LBB133
 6259 0fa3 01       		.byte	0x1
ARM GAS  C:\Users\rdn\AppData\Local\Temp\cco7w9JJ.s 			page 136


 6260 0fa4 F401     		.2byte	0x1f4
 6261 0fa6 BD0F0000 		.4byte	0xfbd
 6262 0faa 23       		.uleb128 0x23
 6263 0fab E3070000 		.4byte	0x7e3
 6264 0faf 6C0B0000 		.4byte	.LLST72
 6265 0fb3 23       		.uleb128 0x23
 6266 0fb4 D9070000 		.4byte	0x7d9
 6267 0fb8 8B0B0000 		.4byte	.LLST73
 6268 0fbc 00       		.byte	0
 6269 0fbd 24       		.uleb128 0x24
 6270 0fbe 26000000 		.4byte	.LBB135
 6271 0fc2 5C000000 		.4byte	.LBE135-.LBB135
 6272 0fc6 2A       		.uleb128 0x2a
 6273 0fc7 7300     		.ascii	"s\000"
 6274 0fc9 01       		.byte	0x1
 6275 0fca F701     		.2byte	0x1f7
 6276 0fcc CE000000 		.4byte	0xce
 6277 0fd0 AB0B0000 		.4byte	.LLST74
 6278 0fd4 2C       		.uleb128 0x2c
 6279 0fd5 09080000 		.4byte	0x809
 6280 0fd9 34000000 		.4byte	.LBB136
 6281 0fdd 10000000 		.4byte	.LBE136-.LBB136
 6282 0fe1 01       		.byte	0x1
 6283 0fe2 F701     		.2byte	0x1f7
 6284 0fe4 0A100000 		.4byte	0x100a
 6285 0fe8 23       		.uleb128 0x23
 6286 0fe9 23080000 		.4byte	0x823
 6287 0fed C90B0000 		.4byte	.LLST75
 6288 0ff1 23       		.uleb128 0x23
 6289 0ff2 19080000 		.4byte	0x819
 6290 0ff6 DD0B0000 		.4byte	.LLST76
 6291 0ffa 24       		.uleb128 0x24
 6292 0ffb 34000000 		.4byte	.LBB137
 6293 0fff 10000000 		.4byte	.LBE137-.LBB137
 6294 1003 27       		.uleb128 0x27
 6295 1004 49080000 		.4byte	0x849
 6296 1008 00       		.byte	0
 6297 1009 00       		.byte	0
 6298 100a 2D       		.uleb128 0x2d
 6299 100b 09080000 		.4byte	0x809
 6300 100f 52000000 		.4byte	.LBB138
 6301 1013 10000000 		.4byte	.LBE138-.LBB138
 6302 1017 01       		.byte	0x1
 6303 1018 F801     		.2byte	0x1f8
 6304 101a 23       		.uleb128 0x23
 6305 101b 23080000 		.4byte	0x823
 6306 101f F00B0000 		.4byte	.LLST77
 6307 1023 23       		.uleb128 0x23
 6308 1024 19080000 		.4byte	0x819
 6309 1028 040C0000 		.4byte	.LLST78
 6310 102c 24       		.uleb128 0x24
 6311 102d 52000000 		.4byte	.LBB139
 6312 1031 10000000 		.4byte	.LBE139-.LBB139
 6313 1035 27       		.uleb128 0x27
 6314 1036 49080000 		.4byte	0x849
 6315 103a 00       		.byte	0
 6316 103b 00       		.byte	0
ARM GAS  C:\Users\rdn\AppData\Local\Temp\cco7w9JJ.s 			page 137


 6317 103c 00       		.byte	0
 6318 103d 00       		.byte	0
 6319 103e 10       		.uleb128 0x10
 6320 103f 04       		.byte	0x4
 6321 1040 CE000000 		.4byte	0xce
 6322 1044 28       		.uleb128 0x28
 6323 1045 7A080000 		.4byte	.LASF157
 6324 1049 01       		.byte	0x1
 6325 104a 0202     		.2byte	0x202
 6326 104c 00000000 		.4byte	.LFB45
 6327 1050 B0000000 		.4byte	.LFE45-.LFB45
 6328 1054 01       		.uleb128 0x1
 6329 1055 9C       		.byte	0x9c
 6330 1056 7E110000 		.4byte	0x117e
 6331 105a 29       		.uleb128 0x29
 6332 105b E4030000 		.4byte	.LASF155
 6333 105f 01       		.byte	0x1
 6334 1060 0302     		.2byte	0x203
 6335 1062 88040000 		.4byte	0x488
 6336 1066 170C0000 		.4byte	.LLST79
 6337 106a 29       		.uleb128 0x29
 6338 106b B3040000 		.4byte	.LASF148
 6339 106f 01       		.byte	0x1
 6340 1070 0302     		.2byte	0x203
 6341 1072 95040000 		.4byte	0x495
 6342 1076 380C0000 		.4byte	.LLST80
 6343 107a 29       		.uleb128 0x29
 6344 107b A9090000 		.4byte	.LASF149
 6345 107f 01       		.byte	0x1
 6346 1080 0302     		.2byte	0x203
 6347 1082 9F000000 		.4byte	0x9f
 6348 1086 640C0000 		.4byte	.LLST81
 6349 108a 2A       		.uleb128 0x2a
 6350 108b 70636D00 		.ascii	"pcm\000"
 6351 108f 01       		.byte	0x1
 6352 1090 0502     		.2byte	0x205
 6353 1092 CD050000 		.4byte	0x5cd
 6354 1096 900C0000 		.4byte	.LLST82
 6355 109a 2A       		.uleb128 0x2a
 6356 109b 647400   		.ascii	"dt\000"
 6357 109e 01       		.byte	0x1
 6358 109f 0702     		.2byte	0x207
 6359 10a1 EF000000 		.4byte	0xef
 6360 10a5 AE0C0000 		.4byte	.LLST83
 6361 10a9 2A       		.uleb128 0x2a
 6362 10aa 737200   		.ascii	"sr\000"
 6363 10ad 01       		.byte	0x1
 6364 10ae 0802     		.2byte	0x208
 6365 10b0 1E010000 		.4byte	0x11e
 6366 10b4 DA0C0000 		.4byte	.LLST84
 6367 10b8 2A       		.uleb128 0x2a
 6368 10b9 787300   		.ascii	"xs\000"
 6369 10bc 01       		.byte	0x1
 6370 10bd 0A02     		.2byte	0x20a
 6371 10bf F60A0000 		.4byte	0xaf6
 6372 10c3 F90C0000 		.4byte	.LLST85
 6373 10c7 2A       		.uleb128 0x2a
ARM GAS  C:\Users\rdn\AppData\Local\Temp\cco7w9JJ.s 			page 138


 6374 10c8 6E7300   		.ascii	"ns\000"
 6375 10cb 01       		.byte	0x1
 6376 10cc 0B02     		.2byte	0x20b
 6377 10ce 9F000000 		.4byte	0x9f
 6378 10d2 0C0D0000 		.4byte	.LLST86
 6379 10d6 2C       		.uleb128 0x2c
 6380 10d7 C9070000 		.4byte	0x7c9
 6381 10db 1A000000 		.4byte	.LBB140
 6382 10df 0A000000 		.4byte	.LBE140-.LBB140
 6383 10e3 01       		.byte	0x1
 6384 10e4 0B02     		.2byte	0x20b
 6385 10e6 FD100000 		.4byte	0x10fd
 6386 10ea 23       		.uleb128 0x23
 6387 10eb E3070000 		.4byte	0x7e3
 6388 10ef 1F0D0000 		.4byte	.LLST87
 6389 10f3 23       		.uleb128 0x23
 6390 10f4 D9070000 		.4byte	0x7d9
 6391 10f8 3E0D0000 		.4byte	.LLST88
 6392 10fc 00       		.byte	0
 6393 10fd 24       		.uleb128 0x24
 6394 10fe 26000000 		.4byte	.LBB142
 6395 1102 64000000 		.4byte	.LBE142-.LBB142
 6396 1106 2A       		.uleb128 0x2a
 6397 1107 7300     		.ascii	"s\000"
 6398 1109 01       		.byte	0x1
 6399 110a 0E02     		.2byte	0x20e
 6400 110c CE000000 		.4byte	0xce
 6401 1110 5E0D0000 		.4byte	.LLST89
 6402 1114 2C       		.uleb128 0x2c
 6403 1115 09080000 		.4byte	0x809
 6404 1119 34000000 		.4byte	.LBB143
 6405 111d 10000000 		.4byte	.LBE143-.LBB143
 6406 1121 01       		.byte	0x1
 6407 1122 0E02     		.2byte	0x20e
 6408 1124 4A110000 		.4byte	0x114a
 6409 1128 23       		.uleb128 0x23
 6410 1129 23080000 		.4byte	0x823
 6411 112d 7C0D0000 		.4byte	.LLST90
 6412 1131 23       		.uleb128 0x23
 6413 1132 19080000 		.4byte	0x819
 6414 1136 900D0000 		.4byte	.LLST91
 6415 113a 24       		.uleb128 0x24
 6416 113b 34000000 		.4byte	.LBB144
 6417 113f 10000000 		.4byte	.LBE144-.LBB144
 6418 1143 27       		.uleb128 0x27
 6419 1144 49080000 		.4byte	0x849
 6420 1148 00       		.byte	0
 6421 1149 00       		.byte	0
 6422 114a 2D       		.uleb128 0x2d
 6423 114b 09080000 		.4byte	0x809
 6424 114f 52000000 		.4byte	.LBB145
 6425 1153 10000000 		.4byte	.LBE145-.LBB145
 6426 1157 01       		.byte	0x1
 6427 1158 0F02     		.2byte	0x20f
 6428 115a 23       		.uleb128 0x23
 6429 115b 23080000 		.4byte	0x823
 6430 115f A30D0000 		.4byte	.LLST92
ARM GAS  C:\Users\rdn\AppData\Local\Temp\cco7w9JJ.s 			page 139


 6431 1163 23       		.uleb128 0x23
 6432 1164 19080000 		.4byte	0x819
 6433 1168 B70D0000 		.4byte	.LLST93
 6434 116c 24       		.uleb128 0x24
 6435 116d 52000000 		.4byte	.LBB146
 6436 1171 10000000 		.4byte	.LBE146-.LBB146
 6437 1175 27       		.uleb128 0x27
 6438 1176 49080000 		.4byte	0x849
 6439 117a 00       		.byte	0
 6440 117b 00       		.byte	0
 6441 117c 00       		.byte	0
 6442 117d 00       		.byte	0
 6443 117e 2E       		.uleb128 0x2e
 6444 117f 7C040000 		.4byte	.LASF158
 6445 1183 01       		.byte	0x1
 6446 1184 9102     		.2byte	0x291
 6447 1186 00000000 		.4byte	.LFB49
 6448 118a 44000000 		.4byte	.LFE49-.LFB49
 6449 118e 01       		.uleb128 0x1
 6450 118f 9C       		.byte	0x9c
 6451 1190 22120000 		.4byte	0x1222
 6452 1194 2F       		.uleb128 0x2f
 6453 1195 E4030000 		.4byte	.LASF155
 6454 1199 01       		.byte	0x1
 6455 119a 9102     		.2byte	0x291
 6456 119c 88040000 		.4byte	0x488
 6457 11a0 01       		.uleb128 0x1
 6458 11a1 50       		.byte	0x50
 6459 11a2 2A       		.uleb128 0x2a
 6460 11a3 647400   		.ascii	"dt\000"
 6461 11a6 01       		.byte	0x1
 6462 11a7 9302     		.2byte	0x293
 6463 11a9 EF000000 		.4byte	0xef
 6464 11ad CA0D0000 		.4byte	.LLST94
 6465 11b1 30       		.uleb128 0x30
 6466 11b2 AE020000 		.4byte	.LASF55
 6467 11b6 01       		.byte	0x1
 6468 11b7 9402     		.2byte	0x294
 6469 11b9 1E010000 		.4byte	0x11e
 6470 11bd F60D0000 		.4byte	.LLST95
 6471 11c1 2B       		.uleb128 0x2b
 6472 11c2 6E6800   		.ascii	"nh\000"
 6473 11c5 01       		.byte	0x1
 6474 11c6 9502     		.2byte	0x295
 6475 11c8 9F000000 		.4byte	0x9f
 6476 11cc 2B       		.uleb128 0x2b
 6477 11cd 6E7300   		.ascii	"ns\000"
 6478 11d0 01       		.byte	0x1
 6479 11d1 9602     		.2byte	0x296
 6480 11d3 9F000000 		.4byte	0x9f
 6481 11d7 2C       		.uleb128 0x2c
 6482 11d8 53080000 		.4byte	0x853
 6483 11dc 06000000 		.4byte	.LBB147
 6484 11e0 1A000000 		.4byte	.LBE147-.LBB147
 6485 11e4 01       		.byte	0x1
 6486 11e5 9502     		.2byte	0x295
 6487 11e7 FE110000 		.4byte	0x11fe
ARM GAS  C:\Users\rdn\AppData\Local\Temp\cco7w9JJ.s 			page 140


 6488 11eb 23       		.uleb128 0x23
 6489 11ec 6D080000 		.4byte	0x86d
 6490 11f0 150E0000 		.4byte	.LLST96
 6491 11f4 23       		.uleb128 0x23
 6492 11f5 63080000 		.4byte	0x863
 6493 11f9 280E0000 		.4byte	.LLST97
 6494 11fd 00       		.byte	0
 6495 11fe 2D       		.uleb128 0x2d
 6496 11ff C9070000 		.4byte	0x7c9
 6497 1203 20000000 		.4byte	.LBB149
 6498 1207 0A000000 		.4byte	.LBE149-.LBB149
 6499 120b 01       		.byte	0x1
 6500 120c 9602     		.2byte	0x296
 6501 120e 23       		.uleb128 0x23
 6502 120f E3070000 		.4byte	0x7e3
 6503 1213 3B0E0000 		.4byte	.LLST98
 6504 1217 23       		.uleb128 0x23
 6505 1218 D9070000 		.4byte	0x7d9
 6506 121c 5A0E0000 		.4byte	.LLST99
 6507 1220 00       		.byte	0
 6508 1221 00       		.byte	0
 6509 1222 2E       		.uleb128 0x2e
 6510 1223 490B0000 		.4byte	.LASF159
 6511 1227 01       		.byte	0x1
 6512 1228 1D01     		.2byte	0x11d
 6513 122a 00000000 		.4byte	.LFB36
 6514 122e 34010000 		.4byte	.LFE36-.LFB36
 6515 1232 01       		.uleb128 0x1
 6516 1233 9C       		.byte	0x9c
 6517 1234 51150000 		.4byte	0x1551
 6518 1238 29       		.uleb128 0x29
 6519 1239 DC030000 		.4byte	.LASF147
 6520 123d 01       		.byte	0x1
 6521 123e 1D01     		.2byte	0x11d
 6522 1240 82040000 		.4byte	0x482
 6523 1244 7A0E0000 		.4byte	.LLST100
 6524 1248 29       		.uleb128 0x29
 6525 1249 12030000 		.4byte	.LASF160
 6526 124d 01       		.byte	0x1
 6527 124e 1E01     		.2byte	0x11e
 6528 1250 9F000000 		.4byte	0x9f
 6529 1254 B40E0000 		.4byte	.LLST101
 6530 1258 29       		.uleb128 0x29
 6531 1259 DD000000 		.4byte	.LASF161
 6532 125d 01       		.byte	0x1
 6533 125e 1E01     		.2byte	0x11e
 6534 1260 51150000 		.4byte	0x1551
 6535 1264 D40E0000 		.4byte	.LLST102
 6536 1268 2A       		.uleb128 0x2a
 6537 1269 647400   		.ascii	"dt\000"
 6538 126c 01       		.byte	0x1
 6539 126d 2001     		.2byte	0x120
 6540 126f EF000000 		.4byte	0xef
 6541 1273 3A0F0000 		.4byte	.LLST103
 6542 1277 31       		.uleb128 0x31
 6543 1278 737200   		.ascii	"sr\000"
 6544 127b 01       		.byte	0x1
ARM GAS  C:\Users\rdn\AppData\Local\Temp\cco7w9JJ.s 			page 141


 6545 127c 2101     		.2byte	0x121
 6546 127e 1E010000 		.4byte	0x11e
 6547 1282 03       		.uleb128 0x3
 6548 1283 91       		.byte	0x91
 6549 1284 C87D     		.sleb128 -312
 6550 1286 30       		.uleb128 0x30
 6551 1287 AE020000 		.4byte	.LASF55
 6552 128b 01       		.byte	0x1
 6553 128c 2201     		.2byte	0x122
 6554 128e 1E010000 		.4byte	0x11e
 6555 1292 5A0F0000 		.4byte	.LLST104
 6556 1296 2A       		.uleb128 0x2a
 6557 1297 787400   		.ascii	"xt\000"
 6558 129a 01       		.byte	0x1
 6559 129b 2401     		.2byte	0x124
 6560 129d F00A0000 		.4byte	0xaf0
 6561 12a1 6F0F0000 		.4byte	.LLST105
 6562 12a5 2A       		.uleb128 0x2a
 6563 12a6 787300   		.ascii	"xs\000"
 6564 12a9 01       		.byte	0x1
 6565 12aa 2501     		.2byte	0x125
 6566 12ac F60A0000 		.4byte	0xaf6
 6567 12b0 820F0000 		.4byte	.LLST106
 6568 12b4 2B       		.uleb128 0x2b
 6569 12b5 6E7300   		.ascii	"ns\000"
 6570 12b8 01       		.byte	0x1
 6571 12b9 2601     		.2byte	0x126
 6572 12bb 9F000000 		.4byte	0x9f
 6573 12bf 2B       		.uleb128 0x2b
 6574 12c0 6E7400   		.ascii	"nt\000"
 6575 12c3 01       		.byte	0x1
 6576 12c4 2701     		.2byte	0x127
 6577 12c6 9F000000 		.4byte	0x9f
 6578 12ca 2A       		.uleb128 0x2a
 6579 12cb 786400   		.ascii	"xd\000"
 6580 12ce 01       		.byte	0x1
 6581 12cf 2901     		.2byte	0x129
 6582 12d1 F60A0000 		.4byte	0xaf6
 6583 12d5 950F0000 		.4byte	.LLST107
 6584 12d9 2A       		.uleb128 0x2a
 6585 12da 786600   		.ascii	"xf\000"
 6586 12dd 01       		.byte	0x1
 6587 12de 2A01     		.2byte	0x12a
 6588 12e0 F60A0000 		.4byte	0xaf6
 6589 12e4 A80F0000 		.4byte	.LLST108
 6590 12e8 31       		.uleb128 0x31
 6591 12e9 61747400 		.ascii	"att\000"
 6592 12ed 01       		.byte	0x1
 6593 12ee 2E01     		.2byte	0x12e
 6594 12f0 20020000 		.4byte	0x220
 6595 12f4 03       		.uleb128 0x3
 6596 12f5 91       		.byte	0x91
 6597 12f6 D47D     		.sleb128 -300
 6598 12f8 31       		.uleb128 0x31
 6599 12f9 6500     		.ascii	"e\000"
 6600 12fb 01       		.byte	0x1
 6601 12fc 3701     		.2byte	0x137
ARM GAS  C:\Users\rdn\AppData\Local\Temp\cco7w9JJ.s 			page 142


 6602 12fe 57150000 		.4byte	0x1557
 6603 1302 03       		.uleb128 0x3
 6604 1303 91       		.byte	0x91
 6605 1304 D87D     		.sleb128 -296
 6606 1306 30       		.uleb128 0x30
 6607 1307 14060000 		.4byte	.LASF162
 6608 130b 01       		.byte	0x1
 6609 130c 3B01     		.2byte	0x13b
 6610 130e 20020000 		.4byte	0x220
 6611 1312 BB0F0000 		.4byte	.LLST109
 6612 1316 2C       		.uleb128 0x2c
 6613 1317 C9070000 		.4byte	0x7c9
 6614 131b 36000000 		.4byte	.LBB151
 6615 131f 0E000000 		.4byte	.LBE151-.LBB151
 6616 1323 01       		.byte	0x1
 6617 1324 2601     		.2byte	0x126
 6618 1326 3D130000 		.4byte	0x133d
 6619 132a 23       		.uleb128 0x23
 6620 132b E3070000 		.4byte	0x7e3
 6621 132f DB0F0000 		.4byte	.LLST110
 6622 1333 23       		.uleb128 0x23
 6623 1334 D9070000 		.4byte	0x7d9
 6624 1338 F00F0000 		.4byte	.LLST111
 6625 133c 00       		.byte	0
 6626 133d 2C       		.uleb128 0x2c
 6627 133e 78080000 		.4byte	0x878
 6628 1342 44000000 		.4byte	.LBB153
 6629 1346 04000000 		.4byte	.LBE153-.LBB153
 6630 134a 01       		.byte	0x1
 6631 134b 2701     		.2byte	0x127
 6632 134d 5B130000 		.4byte	0x135b
 6633 1351 23       		.uleb128 0x23
 6634 1352 88080000 		.4byte	0x888
 6635 1356 03100000 		.4byte	.LLST112
 6636 135a 00       		.byte	0
 6637 135b 32       		.uleb128 0x32
 6638 135c 62000000 		.4byte	.LVL238
 6639 1360 122E0000 		.4byte	0x2e12
 6640 1364 90130000 		.4byte	0x1390
 6641 1368 33       		.uleb128 0x33
 6642 1369 01       		.uleb128 0x1
 6643 136a 50       		.byte	0x50
 6644 136b 05       		.uleb128 0x5
 6645 136c 91       		.byte	0x91
 6646 136d C47D     		.sleb128 -316
 6647 136f 94       		.byte	0x94
 6648 1370 01       		.byte	0x1
 6649 1371 33       		.uleb128 0x33
 6650 1372 01       		.uleb128 0x1
 6651 1373 51       		.byte	0x51
 6652 1374 05       		.uleb128 0x5
 6653 1375 91       		.byte	0x91
 6654 1376 CC7D     		.sleb128 -308
 6655 1378 94       		.byte	0x94
 6656 1379 01       		.byte	0x1
 6657 137a 33       		.uleb128 0x33
 6658 137b 01       		.uleb128 0x1
ARM GAS  C:\Users\rdn\AppData\Local\Temp\cco7w9JJ.s 			page 143


 6659 137c 52       		.byte	0x52
 6660 137d 04       		.uleb128 0x4
 6661 137e 91       		.byte	0x91
 6662 137f D07D     		.sleb128 -304
 6663 1381 06       		.byte	0x6
 6664 1382 33       		.uleb128 0x33
 6665 1383 01       		.uleb128 0x1
 6666 1384 53       		.byte	0x53
 6667 1385 02       		.uleb128 0x2
 6668 1386 74       		.byte	0x74
 6669 1387 04       		.sleb128 4
 6670 1388 33       		.uleb128 0x33
 6671 1389 02       		.uleb128 0x2
 6672 138a 7D       		.byte	0x7d
 6673 138b 00       		.sleb128 0
 6674 138c 02       		.uleb128 0x2
 6675 138d 77       		.byte	0x77
 6676 138e 00       		.sleb128 0
 6677 138f 00       		.byte	0
 6678 1390 32       		.uleb128 0x32
 6679 1391 7A000000 		.4byte	.LVL240
 6680 1395 1D2E0000 		.4byte	0x2e1d
 6681 1399 C3130000 		.4byte	0x13c3
 6682 139d 33       		.uleb128 0x33
 6683 139e 01       		.uleb128 0x1
 6684 139f 50       		.byte	0x50
 6685 13a0 05       		.uleb128 0x5
 6686 13a1 91       		.byte	0x91
 6687 13a2 C47D     		.sleb128 -316
 6688 13a4 94       		.byte	0x94
 6689 13a5 01       		.byte	0x1
 6690 13a6 33       		.uleb128 0x33
 6691 13a7 01       		.uleb128 0x1
 6692 13a8 51       		.byte	0x51
 6693 13a9 05       		.uleb128 0x5
 6694 13aa 91       		.byte	0x91
 6695 13ab CC7D     		.sleb128 -308
 6696 13ad 94       		.byte	0x94
 6697 13ae 01       		.byte	0x1
 6698 13af 33       		.uleb128 0x33
 6699 13b0 01       		.uleb128 0x1
 6700 13b1 52       		.byte	0x52
 6701 13b2 02       		.uleb128 0x2
 6702 13b3 74       		.byte	0x74
 6703 13b4 10       		.sleb128 16
 6704 13b5 33       		.uleb128 0x33
 6705 13b6 01       		.uleb128 0x1
 6706 13b7 53       		.byte	0x53
 6707 13b8 02       		.uleb128 0x2
 6708 13b9 77       		.byte	0x77
 6709 13ba 00       		.sleb128 0
 6710 13bb 33       		.uleb128 0x33
 6711 13bc 02       		.uleb128 0x2
 6712 13bd 7D       		.byte	0x7d
 6713 13be 00       		.sleb128 0
 6714 13bf 02       		.uleb128 0x2
 6715 13c0 79       		.byte	0x79
ARM GAS  C:\Users\rdn\AppData\Local\Temp\cco7w9JJ.s 			page 144


 6716 13c1 00       		.sleb128 0
 6717 13c2 00       		.byte	0
 6718 13c3 32       		.uleb128 0x32
 6719 13c4 90000000 		.4byte	.LVL241
 6720 13c8 282E0000 		.4byte	0x2e28
 6721 13cc F2130000 		.4byte	0x13f2
 6722 13d0 33       		.uleb128 0x33
 6723 13d1 01       		.uleb128 0x1
 6724 13d2 50       		.byte	0x50
 6725 13d3 07       		.uleb128 0x7
 6726 13d4 77       		.byte	0x77
 6727 13d5 00       		.sleb128 0
 6728 13d6 7B       		.byte	0x7b
 6729 13d7 00       		.sleb128 0
 6730 13d8 31       		.byte	0x31
 6731 13d9 24       		.byte	0x24
 6732 13da 1C       		.byte	0x1c
 6733 13db 33       		.uleb128 0x33
 6734 13dc 01       		.uleb128 0x1
 6735 13dd 51       		.byte	0x51
 6736 13de 0A       		.uleb128 0xa
 6737 13df 7A       		.byte	0x7a
 6738 13e0 00       		.sleb128 0
 6739 13e1 7B       		.byte	0x7b
 6740 13e2 00       		.sleb128 0
 6741 13e3 1C       		.byte	0x1c
 6742 13e4 31       		.byte	0x31
 6743 13e5 24       		.byte	0x24
 6744 13e6 77       		.byte	0x77
 6745 13e7 00       		.sleb128 0
 6746 13e8 22       		.byte	0x22
 6747 13e9 33       		.uleb128 0x33
 6748 13ea 01       		.uleb128 0x1
 6749 13eb 52       		.byte	0x52
 6750 13ec 04       		.uleb128 0x4
 6751 13ed 7B       		.byte	0x7b
 6752 13ee 00       		.sleb128 0
 6753 13ef 31       		.byte	0x31
 6754 13f0 24       		.byte	0x24
 6755 13f1 00       		.byte	0
 6756 13f2 32       		.uleb128 0x32
 6757 13f3 A4000000 		.4byte	.LVL243
 6758 13f7 332E0000 		.4byte	0x2e33
 6759 13fb 2C140000 		.4byte	0x142c
 6760 13ff 33       		.uleb128 0x33
 6761 1400 01       		.uleb128 0x1
 6762 1401 50       		.byte	0x50
 6763 1402 02       		.uleb128 0x2
 6764 1403 77       		.byte	0x77
 6765 1404 00       		.sleb128 0
 6766 1405 33       		.uleb128 0x33
 6767 1406 01       		.uleb128 0x1
 6768 1407 51       		.byte	0x51
 6769 1408 05       		.uleb128 0x5
 6770 1409 91       		.byte	0x91
 6771 140a CC7D     		.sleb128 -308
 6772 140c 94       		.byte	0x94
ARM GAS  C:\Users\rdn\AppData\Local\Temp\cco7w9JJ.s 			page 145


 6773 140d 01       		.byte	0x1
 6774 140e 33       		.uleb128 0x33
 6775 140f 01       		.uleb128 0x1
 6776 1410 52       		.byte	0x52
 6777 1411 05       		.uleb128 0x5
 6778 1412 91       		.byte	0x91
 6779 1413 C87D     		.sleb128 -312
 6780 1415 94       		.byte	0x94
 6781 1416 01       		.byte	0x1
 6782 1417 33       		.uleb128 0x33
 6783 1418 01       		.uleb128 0x1
 6784 1419 53       		.byte	0x53
 6785 141a 02       		.uleb128 0x2
 6786 141b 76       		.byte	0x76
 6787 141c 00       		.sleb128 0
 6788 141d 33       		.uleb128 0x33
 6789 141e 02       		.uleb128 0x2
 6790 141f 7D       		.byte	0x7d
 6791 1420 00       		.sleb128 0
 6792 1421 02       		.uleb128 0x2
 6793 1422 78       		.byte	0x78
 6794 1423 00       		.sleb128 0
 6795 1424 33       		.uleb128 0x33
 6796 1425 02       		.uleb128 0x2
 6797 1426 7D       		.byte	0x7d
 6798 1427 04       		.sleb128 4
 6799 1428 02       		.uleb128 0x2
 6800 1429 76       		.byte	0x76
 6801 142a 00       		.sleb128 0
 6802 142b 00       		.byte	0
 6803 142c 32       		.uleb128 0x32
 6804 142d B0000000 		.4byte	.LVL244
 6805 1431 3E2E0000 		.4byte	0x2e3e
 6806 1435 56140000 		.4byte	0x1456
 6807 1439 33       		.uleb128 0x33
 6808 143a 01       		.uleb128 0x1
 6809 143b 50       		.byte	0x50
 6810 143c 02       		.uleb128 0x2
 6811 143d 77       		.byte	0x77
 6812 143e 00       		.sleb128 0
 6813 143f 33       		.uleb128 0x33
 6814 1440 01       		.uleb128 0x1
 6815 1441 51       		.byte	0x51
 6816 1442 05       		.uleb128 0x5
 6817 1443 91       		.byte	0x91
 6818 1444 C87D     		.sleb128 -312
 6819 1446 94       		.byte	0x94
 6820 1447 01       		.byte	0x1
 6821 1448 33       		.uleb128 0x33
 6822 1449 01       		.uleb128 0x1
 6823 144a 52       		.byte	0x52
 6824 144b 02       		.uleb128 0x2
 6825 144c 76       		.byte	0x76
 6826 144d 00       		.sleb128 0
 6827 144e 33       		.uleb128 0x33
 6828 144f 01       		.uleb128 0x1
 6829 1450 53       		.byte	0x53
ARM GAS  C:\Users\rdn\AppData\Local\Temp\cco7w9JJ.s 			page 146


 6830 1451 03       		.uleb128 0x3
 6831 1452 91       		.byte	0x91
 6832 1453 D87D     		.sleb128 -296
 6833 1455 00       		.byte	0
 6834 1456 32       		.uleb128 0x32
 6835 1457 BC000000 		.4byte	.LVL247
 6836 145b 492E0000 		.4byte	0x2e49
 6837 145f 6A140000 		.4byte	0x146a
 6838 1463 33       		.uleb128 0x33
 6839 1464 01       		.uleb128 0x1
 6840 1465 50       		.byte	0x50
 6841 1466 02       		.uleb128 0x2
 6842 1467 79       		.byte	0x79
 6843 1468 00       		.sleb128 0
 6844 1469 00       		.byte	0
 6845 146a 32       		.uleb128 0x32
 6846 146b C8000000 		.4byte	.LVL248
 6847 146f 542E0000 		.4byte	0x2e54
 6848 1473 8E140000 		.4byte	0x148e
 6849 1477 33       		.uleb128 0x33
 6850 1478 01       		.uleb128 0x1
 6851 1479 50       		.byte	0x50
 6852 147a 02       		.uleb128 0x2
 6853 147b 77       		.byte	0x77
 6854 147c 00       		.sleb128 0
 6855 147d 33       		.uleb128 0x33
 6856 147e 01       		.uleb128 0x1
 6857 147f 51       		.byte	0x51
 6858 1480 05       		.uleb128 0x5
 6859 1481 91       		.byte	0x91
 6860 1482 C87D     		.sleb128 -312
 6861 1484 94       		.byte	0x94
 6862 1485 01       		.byte	0x1
 6863 1486 33       		.uleb128 0x33
 6864 1487 01       		.uleb128 0x1
 6865 1488 52       		.byte	0x52
 6866 1489 03       		.uleb128 0x3
 6867 148a 91       		.byte	0x91
 6868 148b D87D     		.sleb128 -296
 6869 148d 00       		.byte	0
 6870 148e 32       		.uleb128 0x32
 6871 148f E6000000 		.4byte	.LVL250
 6872 1493 5F2E0000 		.4byte	0x2e5f
 6873 1497 D9140000 		.4byte	0x14d9
 6874 149b 33       		.uleb128 0x33
 6875 149c 01       		.uleb128 0x1
 6876 149d 50       		.byte	0x50
 6877 149e 02       		.uleb128 0x2
 6878 149f 77       		.byte	0x77
 6879 14a0 00       		.sleb128 0
 6880 14a1 33       		.uleb128 0x33
 6881 14a2 01       		.uleb128 0x1
 6882 14a3 51       		.byte	0x51
 6883 14a4 05       		.uleb128 0x5
 6884 14a5 91       		.byte	0x91
 6885 14a6 C87D     		.sleb128 -312
 6886 14a8 94       		.byte	0x94
ARM GAS  C:\Users\rdn\AppData\Local\Temp\cco7w9JJ.s 			page 147


 6887 14a9 01       		.byte	0x1
 6888 14aa 33       		.uleb128 0x33
 6889 14ab 01       		.uleb128 0x1
 6890 14ac 52       		.byte	0x52
 6891 14ad 04       		.uleb128 0x4
 6892 14ae 91       		.byte	0x91
 6893 14af D07D     		.sleb128 -304
 6894 14b1 06       		.byte	0x6
 6895 14b2 33       		.uleb128 0x33
 6896 14b3 01       		.uleb128 0x1
 6897 14b4 53       		.byte	0x53
 6898 14b5 03       		.uleb128 0x3
 6899 14b6 91       		.byte	0x91
 6900 14b7 D87D     		.sleb128 -296
 6901 14b9 33       		.uleb128 0x33
 6902 14ba 02       		.uleb128 0x2
 6903 14bb 7D       		.byte	0x7d
 6904 14bc 00       		.sleb128 0
 6905 14bd 05       		.uleb128 0x5
 6906 14be 91       		.byte	0x91
 6907 14bf D47D     		.sleb128 -300
 6908 14c1 94       		.byte	0x94
 6909 14c2 01       		.byte	0x1
 6910 14c3 33       		.uleb128 0x33
 6911 14c4 02       		.uleb128 0x2
 6912 14c5 7D       		.byte	0x7d
 6913 14c6 04       		.sleb128 4
 6914 14c7 02       		.uleb128 0x2
 6915 14c8 75       		.byte	0x75
 6916 14c9 0C       		.sleb128 12
 6917 14ca 33       		.uleb128 0x33
 6918 14cb 02       		.uleb128 0x2
 6919 14cc 7D       		.byte	0x7d
 6920 14cd 08       		.sleb128 8
 6921 14ce 02       		.uleb128 0x2
 6922 14cf 76       		.byte	0x76
 6923 14d0 00       		.sleb128 0
 6924 14d1 33       		.uleb128 0x33
 6925 14d2 02       		.uleb128 0x2
 6926 14d3 7D       		.byte	0x7d
 6927 14d4 0C       		.sleb128 12
 6928 14d5 02       		.uleb128 0x2
 6929 14d6 76       		.byte	0x76
 6930 14d7 00       		.sleb128 0
 6931 14d8 00       		.byte	0
 6932 14d9 32       		.uleb128 0x32
 6933 14da FC000000 		.4byte	.LVL251
 6934 14de 6A2E0000 		.4byte	0x2e6a
 6935 14e2 0F150000 		.4byte	0x150f
 6936 14e6 33       		.uleb128 0x33
 6937 14e7 01       		.uleb128 0x1
 6938 14e8 50       		.byte	0x50
 6939 14e9 05       		.uleb128 0x5
 6940 14ea 91       		.byte	0x91
 6941 14eb C47D     		.sleb128 -316
 6942 14ed 94       		.byte	0x94
 6943 14ee 01       		.byte	0x1
ARM GAS  C:\Users\rdn\AppData\Local\Temp\cco7w9JJ.s 			page 148


 6944 14ef 33       		.uleb128 0x33
 6945 14f0 01       		.uleb128 0x1
 6946 14f1 52       		.byte	0x52
 6947 14f2 05       		.uleb128 0x5
 6948 14f3 91       		.byte	0x91
 6949 14f4 CC7D     		.sleb128 -308
 6950 14f6 94       		.byte	0x94
 6951 14f7 01       		.byte	0x1
 6952 14f8 33       		.uleb128 0x33
 6953 14f9 01       		.uleb128 0x1
 6954 14fa 53       		.byte	0x53
 6955 14fb 04       		.uleb128 0x4
 6956 14fc 91       		.byte	0x91
 6957 14fd D07D     		.sleb128 -304
 6958 14ff 06       		.byte	0x6
 6959 1500 33       		.uleb128 0x33
 6960 1501 02       		.uleb128 0x2
 6961 1502 7D       		.byte	0x7d
 6962 1503 00       		.sleb128 0
 6963 1504 02       		.uleb128 0x2
 6964 1505 77       		.byte	0x77
 6965 1506 00       		.sleb128 0
 6966 1507 33       		.uleb128 0x33
 6967 1508 02       		.uleb128 0x2
 6968 1509 7D       		.byte	0x7d
 6969 150a 04       		.sleb128 4
 6970 150b 02       		.uleb128 0x2
 6971 150c 76       		.byte	0x76
 6972 150d 00       		.sleb128 0
 6973 150e 00       		.byte	0
 6974 150f 34       		.uleb128 0x34
 6975 1510 1A010000 		.4byte	.LVL255
 6976 1514 752E0000 		.4byte	0x2e75
 6977 1518 33       		.uleb128 0x33
 6978 1519 01       		.uleb128 0x1
 6979 151a 50       		.byte	0x50
 6980 151b 05       		.uleb128 0x5
 6981 151c 91       		.byte	0x91
 6982 151d C47D     		.sleb128 -316
 6983 151f 94       		.byte	0x94
 6984 1520 01       		.byte	0x1
 6985 1521 33       		.uleb128 0x33
 6986 1522 01       		.uleb128 0x1
 6987 1523 51       		.byte	0x51
 6988 1524 05       		.uleb128 0x5
 6989 1525 91       		.byte	0x91
 6990 1526 C87D     		.sleb128 -312
 6991 1528 94       		.byte	0x94
 6992 1529 01       		.byte	0x1
 6993 152a 33       		.uleb128 0x33
 6994 152b 01       		.uleb128 0x1
 6995 152c 52       		.byte	0x52
 6996 152d 04       		.uleb128 0x4
 6997 152e 91       		.byte	0x91
 6998 152f D07D     		.sleb128 -304
 6999 1531 06       		.byte	0x6
 7000 1532 33       		.uleb128 0x33
ARM GAS  C:\Users\rdn\AppData\Local\Temp\cco7w9JJ.s 			page 149


 7001 1533 02       		.uleb128 0x2
 7002 1534 7D       		.byte	0x7d
 7003 1535 00       		.sleb128 0
 7004 1536 02       		.uleb128 0x2
 7005 1537 77       		.byte	0x77
 7006 1538 00       		.sleb128 0
 7007 1539 33       		.uleb128 0x33
 7008 153a 02       		.uleb128 0x2
 7009 153b 7D       		.byte	0x7d
 7010 153c 04       		.sleb128 4
 7011 153d 02       		.uleb128 0x2
 7012 153e 74       		.byte	0x74
 7013 153f 00       		.sleb128 0
 7014 1540 33       		.uleb128 0x33
 7015 1541 02       		.uleb128 0x2
 7016 1542 7D       		.byte	0x7d
 7017 1543 08       		.sleb128 8
 7018 1544 02       		.uleb128 0x2
 7019 1545 76       		.byte	0x76
 7020 1546 00       		.sleb128 0
 7021 1547 33       		.uleb128 0x33
 7022 1548 02       		.uleb128 0x2
 7023 1549 7D       		.byte	0x7d
 7024 154a 0C       		.sleb128 12
 7025 154b 03       		.uleb128 0x3
 7026 154c 77       		.byte	0x77
 7027 154d D000     		.sleb128 80
 7028 154f 00       		.byte	0
 7029 1550 00       		.byte	0
 7030 1551 10       		.uleb128 0x10
 7031 1552 04       		.byte	0x4
 7032 1553 75070000 		.4byte	0x775
 7033 1557 0D       		.uleb128 0xd
 7034 1558 3E020000 		.4byte	0x23e
 7035 155c 67150000 		.4byte	0x1567
 7036 1560 0E       		.uleb128 0xe
 7037 1561 37020000 		.4byte	0x237
 7038 1565 3F       		.byte	0x3f
 7039 1566 00       		.byte	0
 7040 1567 18       		.uleb128 0x18
 7041 1568 35030000 		.4byte	.LASF164
 7042 156c 04       		.byte	0x4
 7043 156d D2       		.byte	0xd2
 7044 156e 03       		.byte	0x3
 7045 156f 88150000 		.4byte	0x1588
 7046 1573 19       		.uleb128 0x19
 7047 1574 01060000 		.4byte	.LASF138
 7048 1578 04       		.byte	0x4
 7049 1579 D2       		.byte	0xd2
 7050 157a 88150000 		.4byte	0x1588
 7051 157e 14       		.uleb128 0x14
 7052 157f 7600     		.ascii	"v\000"
 7053 1581 04       		.byte	0x4
 7054 1582 D2       		.byte	0xd2
 7055 1583 9F000000 		.4byte	0x9f
 7056 1587 00       		.byte	0
 7057 1588 10       		.uleb128 0x10
ARM GAS  C:\Users\rdn\AppData\Local\Temp\cco7w9JJ.s 			page 150


 7058 1589 04       		.byte	0x4
 7059 158a 0F060000 		.4byte	0x60f
 7060 158e 2E       		.uleb128 0x2e
 7061 158f 80000000 		.4byte	.LASF165
 7062 1593 01       		.byte	0x1
 7063 1594 5101     		.2byte	0x151
 7064 1596 00000000 		.4byte	.LFB37
 7065 159a B8000000 		.4byte	.LFE37-.LFB37
 7066 159e 01       		.uleb128 0x1
 7067 159f 9C       		.byte	0x9c
 7068 15a0 C2170000 		.4byte	0x17c2
 7069 15a4 29       		.uleb128 0x29
 7070 15a5 DC030000 		.4byte	.LASF147
 7071 15a9 01       		.byte	0x1
 7072 15aa 5101     		.2byte	0x151
 7073 15ac 82040000 		.4byte	0x482
 7074 15b0 18100000 		.4byte	.LLST113
 7075 15b4 29       		.uleb128 0x29
 7076 15b5 DD000000 		.4byte	.LASF161
 7077 15b9 01       		.byte	0x1
 7078 15ba 5201     		.2byte	0x152
 7079 15bc C2170000 		.4byte	0x17c2
 7080 15c0 47100000 		.4byte	.LLST114
 7081 15c4 29       		.uleb128 0x29
 7082 15c5 12030000 		.4byte	.LASF160
 7083 15c9 01       		.byte	0x1
 7084 15ca 5201     		.2byte	0x152
 7085 15cc 9F000000 		.4byte	0x9f
 7086 15d0 73100000 		.4byte	.LLST115
 7087 15d4 29       		.uleb128 0x29
 7088 15d5 6E000000 		.4byte	.LASF107
 7089 15d9 01       		.byte	0x1
 7090 15da 5201     		.2byte	0x152
 7091 15dc 95040000 		.4byte	0x495
 7092 15e0 9F100000 		.4byte	.LLST116
 7093 15e4 31       		.uleb128 0x31
 7094 15e5 647400   		.ascii	"dt\000"
 7095 15e8 01       		.byte	0x1
 7096 15e9 5401     		.2byte	0x154
 7097 15eb EF000000 		.4byte	0xef
 7098 15ef 03       		.uleb128 0x3
 7099 15f0 91       		.byte	0x91
 7100 15f1 A47F     		.sleb128 -92
 7101 15f3 2A       		.uleb128 0x2a
 7102 15f4 737200   		.ascii	"sr\000"
 7103 15f7 01       		.byte	0x1
 7104 15f8 5501     		.2byte	0x155
 7105 15fa 1E010000 		.4byte	0x11e
 7106 15fe CB100000 		.4byte	.LLST117
 7107 1602 2A       		.uleb128 0x2a
 7108 1603 786600   		.ascii	"xf\000"
 7109 1606 01       		.byte	0x1
 7110 1607 5701     		.2byte	0x157
 7111 1609 F60A0000 		.4byte	0xaf6
 7112 160d DE100000 		.4byte	.LLST118
 7113 1611 2A       		.uleb128 0x2a
 7114 1612 627700   		.ascii	"bw\000"
ARM GAS  C:\Users\rdn\AppData\Local\Temp\cco7w9JJ.s 			page 151


 7115 1615 01       		.byte	0x1
 7116 1616 5801     		.2byte	0x158
 7117 1618 A5040000 		.4byte	0x4a5
 7118 161c F1100000 		.4byte	.LLST119
 7119 1620 35       		.uleb128 0x35
 7120 1621 01060000 		.4byte	.LASF138
 7121 1625 01       		.byte	0x1
 7122 1626 5A01     		.2byte	0x15a
 7123 1628 0F060000 		.4byte	0x60f
 7124 162c 03       		.uleb128 0x3
 7125 162d 91       		.byte	0x91
 7126 162e B07F     		.sleb128 -80
 7127 1630 2C       		.uleb128 0x2c
 7128 1631 67150000 		.4byte	0x1567
 7129 1635 58000000 		.4byte	.LBB159
 7130 1639 1E000000 		.4byte	.LBE159-.LBB159
 7131 163d 01       		.byte	0x1
 7132 163e 6401     		.2byte	0x164
 7133 1640 AB160000 		.4byte	0x16ab
 7134 1644 23       		.uleb128 0x23
 7135 1645 7E150000 		.4byte	0x157e
 7136 1649 11110000 		.4byte	.LLST120
 7137 164d 23       		.uleb128 0x23
 7138 164e 73150000 		.4byte	0x1573
 7139 1652 41110000 		.4byte	.LLST121
 7140 1656 26       		.uleb128 0x26
 7141 1657 93080000 		.4byte	0x893
 7142 165b 58000000 		.4byte	.LBB161
 7143 165f 1E000000 		.4byte	.LBE161-.LBB161
 7144 1663 04       		.byte	0x4
 7145 1664 D4       		.byte	0xd4
 7146 1665 23       		.uleb128 0x23
 7147 1666 B3080000 		.4byte	0x8b3
 7148 166a 70110000 		.4byte	.LLST122
 7149 166e 23       		.uleb128 0x23
 7150 166f AA080000 		.4byte	0x8aa
 7151 1673 11110000 		.4byte	.LLST120
 7152 1677 23       		.uleb128 0x23
 7153 1678 9F080000 		.4byte	0x89f
 7154 167c 41110000 		.4byte	.LLST121
 7155 1680 24       		.uleb128 0x24
 7156 1681 58000000 		.4byte	.LBB162
 7157 1685 1E000000 		.4byte	.LBE162-.LBB162
 7158 1689 36       		.uleb128 0x36
 7159 168a BC080000 		.4byte	0x8bc
 7160 168e 03       		.uleb128 0x3
 7161 168f 91       		.byte	0x91
 7162 1690 4C       		.sleb128 -52
 7163 1691 9F       		.byte	0x9f
 7164 1692 34       		.uleb128 0x34
 7165 1693 76000000 		.4byte	.LVL281
 7166 1697 802E0000 		.4byte	0x2e80
 7167 169b 33       		.uleb128 0x33
 7168 169c 01       		.uleb128 0x1
 7169 169d 50       		.byte	0x50
 7170 169e 03       		.uleb128 0x3
 7171 169f 91       		.byte	0x91
ARM GAS  C:\Users\rdn\AppData\Local\Temp\cco7w9JJ.s 			page 152


 7172 16a0 B07F     		.sleb128 -80
 7173 16a2 33       		.uleb128 0x33
 7174 16a3 01       		.uleb128 0x1
 7175 16a4 52       		.byte	0x52
 7176 16a5 01       		.uleb128 0x1
 7177 16a6 31       		.byte	0x31
 7178 16a7 00       		.byte	0
 7179 16a8 00       		.byte	0
 7180 16a9 00       		.byte	0
 7181 16aa 00       		.byte	0
 7182 16ab 32       		.uleb128 0x32
 7183 16ac 32000000 		.4byte	.LVL271
 7184 16b0 8B2E0000 		.4byte	0x2e8b
 7185 16b4 D2160000 		.4byte	0x16d2
 7186 16b8 33       		.uleb128 0x33
 7187 16b9 01       		.uleb128 0x1
 7188 16ba 50       		.byte	0x50
 7189 16bb 03       		.uleb128 0x3
 7190 16bc 91       		.byte	0x91
 7191 16bd B07F     		.sleb128 -80
 7192 16bf 33       		.uleb128 0x33
 7193 16c0 01       		.uleb128 0x1
 7194 16c1 51       		.byte	0x51
 7195 16c2 01       		.uleb128 0x1
 7196 16c3 31       		.byte	0x31
 7197 16c4 33       		.uleb128 0x33
 7198 16c5 01       		.uleb128 0x1
 7199 16c6 52       		.byte	0x52
 7200 16c7 03       		.uleb128 0x3
 7201 16c8 F3       		.byte	0xf3
 7202 16c9 01       		.uleb128 0x1
 7203 16ca 53       		.byte	0x53
 7204 16cb 33       		.uleb128 0x33
 7205 16cc 01       		.uleb128 0x1
 7206 16cd 53       		.byte	0x53
 7207 16ce 02       		.uleb128 0x2
 7208 16cf 77       		.byte	0x77
 7209 16d0 00       		.sleb128 0
 7210 16d1 00       		.byte	0
 7211 16d2 32       		.uleb128 0x32
 7212 16d3 3C000000 		.4byte	.LVL272
 7213 16d7 962E0000 		.4byte	0x2e96
 7214 16db F3160000 		.4byte	0x16f3
 7215 16df 33       		.uleb128 0x33
 7216 16e0 01       		.uleb128 0x1
 7217 16e1 50       		.byte	0x50
 7218 16e2 03       		.uleb128 0x3
 7219 16e3 91       		.byte	0x91
 7220 16e4 B07F     		.sleb128 -80
 7221 16e6 33       		.uleb128 0x33
 7222 16e7 01       		.uleb128 0x1
 7223 16e8 51       		.byte	0x51
 7224 16e9 02       		.uleb128 0x2
 7225 16ea 74       		.byte	0x74
 7226 16eb 00       		.sleb128 0
 7227 16ec 33       		.uleb128 0x33
 7228 16ed 01       		.uleb128 0x1
ARM GAS  C:\Users\rdn\AppData\Local\Temp\cco7w9JJ.s 			page 153


 7229 16ee 52       		.byte	0x52
 7230 16ef 02       		.uleb128 0x2
 7231 16f0 75       		.byte	0x75
 7232 16f1 00       		.sleb128 0
 7233 16f2 00       		.byte	0
 7234 16f3 32       		.uleb128 0x32
 7235 16f4 4C000000 		.4byte	.LVL274
 7236 16f8 A12E0000 		.4byte	0x2ea1
 7237 16fc 1D170000 		.4byte	0x171d
 7238 1700 33       		.uleb128 0x33
 7239 1701 01       		.uleb128 0x1
 7240 1702 50       		.byte	0x50
 7241 1703 03       		.uleb128 0x3
 7242 1704 91       		.byte	0x91
 7243 1705 B07F     		.sleb128 -80
 7244 1707 33       		.uleb128 0x33
 7245 1708 01       		.uleb128 0x1
 7246 1709 51       		.byte	0x51
 7247 170a 05       		.uleb128 0x5
 7248 170b 91       		.byte	0x91
 7249 170c A47F     		.sleb128 -92
 7250 170e 94       		.byte	0x94
 7251 170f 01       		.byte	0x1
 7252 1710 33       		.uleb128 0x33
 7253 1711 01       		.uleb128 0x1
 7254 1712 52       		.byte	0x52
 7255 1713 02       		.uleb128 0x2
 7256 1714 74       		.byte	0x74
 7257 1715 00       		.sleb128 0
 7258 1716 33       		.uleb128 0x33
 7259 1717 01       		.uleb128 0x1
 7260 1718 53       		.byte	0x53
 7261 1719 02       		.uleb128 0x2
 7262 171a 75       		.byte	0x75
 7263 171b 00       		.sleb128 0
 7264 171c 00       		.byte	0
 7265 171d 32       		.uleb128 0x32
 7266 171e 56000000 		.4byte	.LVL275
 7267 1722 AC2E0000 		.4byte	0x2eac
 7268 1726 38170000 		.4byte	0x1738
 7269 172a 33       		.uleb128 0x33
 7270 172b 01       		.uleb128 0x1
 7271 172c 50       		.byte	0x50
 7272 172d 03       		.uleb128 0x3
 7273 172e 91       		.byte	0x91
 7274 172f B07F     		.sleb128 -80
 7275 1731 33       		.uleb128 0x33
 7276 1732 01       		.uleb128 0x1
 7277 1733 51       		.byte	0x51
 7278 1734 02       		.uleb128 0x2
 7279 1735 76       		.byte	0x76
 7280 1736 28       		.sleb128 40
 7281 1737 00       		.byte	0
 7282 1738 32       		.uleb128 0x32
 7283 1739 80000000 		.4byte	.LVL282
 7284 173d B72E0000 		.4byte	0x2eb7
 7285 1741 53170000 		.4byte	0x1753
ARM GAS  C:\Users\rdn\AppData\Local\Temp\cco7w9JJ.s 			page 154


 7286 1745 33       		.uleb128 0x33
 7287 1746 01       		.uleb128 0x1
 7288 1747 50       		.byte	0x50
 7289 1748 03       		.uleb128 0x3
 7290 1749 91       		.byte	0x91
 7291 174a B07F     		.sleb128 -80
 7292 174c 33       		.uleb128 0x33
 7293 174d 01       		.uleb128 0x1
 7294 174e 51       		.byte	0x51
 7295 174f 02       		.uleb128 0x2
 7296 1750 76       		.byte	0x76
 7297 1751 0C       		.sleb128 12
 7298 1752 00       		.byte	0
 7299 1753 32       		.uleb128 0x32
 7300 1754 8E000000 		.4byte	.LVL283
 7301 1758 C22E0000 		.4byte	0x2ec2
 7302 175c 6E170000 		.4byte	0x176e
 7303 1760 33       		.uleb128 0x33
 7304 1761 01       		.uleb128 0x1
 7305 1762 50       		.byte	0x50
 7306 1763 03       		.uleb128 0x3
 7307 1764 91       		.byte	0x91
 7308 1765 B07F     		.sleb128 -80
 7309 1767 33       		.uleb128 0x33
 7310 1768 01       		.uleb128 0x1
 7311 1769 51       		.byte	0x51
 7312 176a 02       		.uleb128 0x2
 7313 176b 76       		.byte	0x76
 7314 176c 04       		.sleb128 4
 7315 176d 00       		.byte	0
 7316 176e 32       		.uleb128 0x32
 7317 176f A2000000 		.4byte	.LVL284
 7318 1773 CD2E0000 		.4byte	0x2ecd
 7319 1777 B0170000 		.4byte	0x17b0
 7320 177b 33       		.uleb128 0x33
 7321 177c 01       		.uleb128 0x1
 7322 177d 50       		.byte	0x50
 7323 177e 03       		.uleb128 0x3
 7324 177f 91       		.byte	0x91
 7325 1780 B07F     		.sleb128 -80
 7326 1782 33       		.uleb128 0x33
 7327 1783 01       		.uleb128 0x1
 7328 1784 51       		.byte	0x51
 7329 1785 05       		.uleb128 0x5
 7330 1786 91       		.byte	0x91
 7331 1787 A47F     		.sleb128 -92
 7332 1789 94       		.byte	0x94
 7333 178a 01       		.byte	0x1
 7334 178b 33       		.uleb128 0x33
 7335 178c 01       		.uleb128 0x1
 7336 178d 52       		.byte	0x52
 7337 178e 02       		.uleb128 0x2
 7338 178f 74       		.byte	0x74
 7339 1790 00       		.sleb128 0
 7340 1791 33       		.uleb128 0x33
 7341 1792 01       		.uleb128 0x1
 7342 1793 53       		.byte	0x53
ARM GAS  C:\Users\rdn\AppData\Local\Temp\cco7w9JJ.s 			page 155


 7343 1794 05       		.uleb128 0x5
 7344 1795 91       		.byte	0x91
 7345 1796 A87F     		.sleb128 -88
 7346 1798 94       		.byte	0x94
 7347 1799 01       		.byte	0x1
 7348 179a 33       		.uleb128 0x33
 7349 179b 02       		.uleb128 0x2
 7350 179c 7D       		.byte	0x7d
 7351 179d 00       		.sleb128 0
 7352 179e 02       		.uleb128 0x2
 7353 179f 77       		.byte	0x77
 7354 17a0 00       		.sleb128 0
 7355 17a1 33       		.uleb128 0x33
 7356 17a2 02       		.uleb128 0x2
 7357 17a3 7D       		.byte	0x7d
 7358 17a4 04       		.sleb128 4
 7359 17a5 02       		.uleb128 0x2
 7360 17a6 75       		.byte	0x75
 7361 17a7 00       		.sleb128 0
 7362 17a8 33       		.uleb128 0x33
 7363 17a9 02       		.uleb128 0x2
 7364 17aa 7D       		.byte	0x7d
 7365 17ab 08       		.sleb128 8
 7366 17ac 02       		.uleb128 0x2
 7367 17ad 79       		.byte	0x79
 7368 17ae 00       		.sleb128 0
 7369 17af 00       		.byte	0
 7370 17b0 34       		.uleb128 0x34
 7371 17b1 A8000000 		.4byte	.LVL285
 7372 17b5 D82E0000 		.4byte	0x2ed8
 7373 17b9 33       		.uleb128 0x33
 7374 17ba 01       		.uleb128 0x1
 7375 17bb 50       		.byte	0x50
 7376 17bc 03       		.uleb128 0x3
 7377 17bd 91       		.byte	0x91
 7378 17be B07F     		.sleb128 -80
 7379 17c0 00       		.byte	0
 7380 17c1 00       		.byte	0
 7381 17c2 10       		.uleb128 0x10
 7382 17c3 04       		.byte	0x4
 7383 17c4 C8170000 		.4byte	0x17c8
 7384 17c8 12       		.uleb128 0x12
 7385 17c9 75070000 		.4byte	0x775
 7386 17cd 13       		.uleb128 0x13
 7387 17ce 60060000 		.4byte	.LASF166
 7388 17d2 04       		.byte	0x4
 7389 17d3 EA       		.byte	0xea
 7390 17d4 9F000000 		.4byte	0x9f
 7391 17d8 03       		.byte	0x3
 7392 17d9 E9170000 		.4byte	0x17e9
 7393 17dd 19       		.uleb128 0x19
 7394 17de 01060000 		.4byte	.LASF138
 7395 17e2 04       		.byte	0x4
 7396 17e3 EA       		.byte	0xea
 7397 17e4 88150000 		.4byte	0x1588
 7398 17e8 00       		.byte	0
 7399 17e9 37       		.uleb128 0x37
ARM GAS  C:\Users\rdn\AppData\Local\Temp\cco7w9JJ.s 			page 156


 7400 17ea B9080000 		.4byte	.LASF167
 7401 17ee 01       		.byte	0x1
 7402 17ef 3502     		.2byte	0x235
 7403 17f1 9F000000 		.4byte	0x9f
 7404 17f5 00000000 		.4byte	.LFB47
 7405 17f9 00010000 		.4byte	.LFE47-.LFB47
 7406 17fd 01       		.uleb128 0x1
 7407 17fe 9C       		.byte	0x9c
 7408 17ff B81A0000 		.4byte	0x1ab8
 7409 1803 29       		.uleb128 0x29
 7410 1804 E4030000 		.4byte	.LASF155
 7411 1808 01       		.byte	0x1
 7412 1809 3502     		.2byte	0x235
 7413 180b 88040000 		.4byte	0x488
 7414 180f 84110000 		.4byte	.LLST125
 7415 1813 29       		.uleb128 0x29
 7416 1814 23050000 		.4byte	.LASF168
 7417 1818 01       		.byte	0x1
 7418 1819 3602     		.2byte	0x236
 7419 181b DE0A0000 		.4byte	0xade
 7420 181f A5110000 		.4byte	.LLST126
 7421 1823 29       		.uleb128 0x29
 7422 1824 12030000 		.4byte	.LASF160
 7423 1828 01       		.byte	0x1
 7424 1829 3602     		.2byte	0x236
 7425 182b 9F000000 		.4byte	0x9f
 7426 182f D1110000 		.4byte	.LLST127
 7427 1833 29       		.uleb128 0x29
 7428 1834 DD000000 		.4byte	.LASF161
 7429 1838 01       		.byte	0x1
 7430 1839 3602     		.2byte	0x236
 7431 183b 51150000 		.4byte	0x1551
 7432 183f F1110000 		.4byte	.LLST128
 7433 1843 2A       		.uleb128 0x2a
 7434 1844 647400   		.ascii	"dt\000"
 7435 1847 01       		.byte	0x1
 7436 1848 3802     		.2byte	0x238
 7437 184a EF000000 		.4byte	0xef
 7438 184e 1D120000 		.4byte	.LLST129
 7439 1852 2A       		.uleb128 0x2a
 7440 1853 737200   		.ascii	"sr\000"
 7441 1856 01       		.byte	0x1
 7442 1857 3902     		.2byte	0x239
 7443 1859 1E010000 		.4byte	0x11e
 7444 185d 30120000 		.4byte	.LLST130
 7445 1861 2A       		.uleb128 0x2a
 7446 1862 786600   		.ascii	"xf\000"
 7447 1865 01       		.byte	0x1
 7448 1866 3B02     		.2byte	0x23b
 7449 1868 F60A0000 		.4byte	0xaf6
 7450 186c 43120000 		.4byte	.LLST131
 7451 1870 2B       		.uleb128 0x2b
 7452 1871 6E7300   		.ascii	"ns\000"
 7453 1874 01       		.byte	0x1
 7454 1875 3C02     		.2byte	0x23c
 7455 1877 9F000000 		.4byte	0x9f
 7456 187b 2B       		.uleb128 0x2b
ARM GAS  C:\Users\rdn\AppData\Local\Temp\cco7w9JJ.s 			page 157


 7457 187c 6E6500   		.ascii	"ne\000"
 7458 187f 01       		.byte	0x1
 7459 1880 3D02     		.2byte	0x23d
 7460 1882 9F000000 		.4byte	0x9f
 7461 1886 35       		.uleb128 0x35
 7462 1887 01060000 		.4byte	.LASF138
 7463 188b 01       		.byte	0x1
 7464 188c 3F02     		.2byte	0x23f
 7465 188e 0F060000 		.4byte	0x60f
 7466 1892 03       		.uleb128 0x3
 7467 1893 91       		.byte	0x91
 7468 1894 A87F     		.sleb128 -88
 7469 1896 2A       		.uleb128 0x2a
 7470 1897 72657400 		.ascii	"ret\000"
 7471 189b 01       		.byte	0x1
 7472 189c 4002     		.2byte	0x240
 7473 189e 9F000000 		.4byte	0x9f
 7474 18a2 56120000 		.4byte	.LLST132
 7475 18a6 2C       		.uleb128 0x2c
 7476 18a7 C9070000 		.4byte	0x7c9
 7477 18ab 22000000 		.4byte	.LBB172
 7478 18af 0E000000 		.4byte	.LBE172-.LBB172
 7479 18b3 01       		.byte	0x1
 7480 18b4 3C02     		.2byte	0x23c
 7481 18b6 CD180000 		.4byte	0x18cd
 7482 18ba 23       		.uleb128 0x23
 7483 18bb E3070000 		.4byte	0x7e3
 7484 18bf AC120000 		.4byte	.LLST133
 7485 18c3 23       		.uleb128 0x23
 7486 18c4 D9070000 		.4byte	0x7d9
 7487 18c8 BF120000 		.4byte	.LLST134
 7488 18cc 00       		.byte	0
 7489 18cd 2C       		.uleb128 0x2c
 7490 18ce 0F090000 		.4byte	0x90f
 7491 18d2 30000000 		.4byte	.LBB174
 7492 18d6 06000000 		.4byte	.LBE174-.LBB174
 7493 18da 01       		.byte	0x1
 7494 18db 3D02     		.2byte	0x23d
 7495 18dd F4180000 		.4byte	0x18f4
 7496 18e1 23       		.uleb128 0x23
 7497 18e2 29090000 		.4byte	0x929
 7498 18e6 D2120000 		.4byte	.LLST135
 7499 18ea 23       		.uleb128 0x23
 7500 18eb 1F090000 		.4byte	0x91f
 7501 18ef E5120000 		.4byte	.LLST136
 7502 18f3 00       		.byte	0
 7503 18f4 2C       		.uleb128 0x2c
 7504 18f5 CD170000 		.4byte	0x17cd
 7505 18f9 7C000000 		.4byte	.LBB176
 7506 18fd 1E000000 		.4byte	.LBE176-.LBB176
 7507 1901 01       		.byte	0x1
 7508 1902 4D02     		.2byte	0x24d
 7509 1904 74190000 		.4byte	0x1974
 7510 1908 23       		.uleb128 0x23
 7511 1909 DD170000 		.4byte	0x17dd
 7512 190d F8120000 		.4byte	.LLST137
 7513 1911 26       		.uleb128 0x26
ARM GAS  C:\Users\rdn\AppData\Local\Temp\cco7w9JJ.s 			page 158


 7514 1912 D4080000 		.4byte	0x8d4
 7515 1916 7C000000 		.4byte	.LBB178
 7516 191a 1E000000 		.4byte	.LBE178-.LBB178
 7517 191e 04       		.byte	0x4
 7518 191f EC       		.byte	0xec
 7519 1920 23       		.uleb128 0x23
 7520 1921 EF080000 		.4byte	0x8ef
 7521 1925 27130000 		.4byte	.LLST138
 7522 1929 23       		.uleb128 0x23
 7523 192a E4080000 		.4byte	0x8e4
 7524 192e F8120000 		.4byte	.LLST137
 7525 1932 24       		.uleb128 0x24
 7526 1933 7C000000 		.4byte	.LBB179
 7527 1937 1E000000 		.4byte	.LBE179-.LBB179
 7528 193b 38       		.uleb128 0x38
 7529 193c F8080000 		.4byte	0x8f8
 7530 1940 3B130000 		.4byte	.LLST140
 7531 1944 39       		.uleb128 0x39
 7532 1945 84000000 		.4byte	.LBB180
 7533 1949 0E000000 		.4byte	.LBE180-.LBB180
 7534 194d 5B190000 		.4byte	0x195b
 7535 1951 38       		.uleb128 0x38
 7536 1952 04090000 		.4byte	0x904
 7537 1956 50130000 		.4byte	.LLST141
 7538 195a 00       		.byte	0
 7539 195b 34       		.uleb128 0x34
 7540 195c 9A000000 		.4byte	.LVL311
 7541 1960 E32E0000 		.4byte	0x2ee3
 7542 1964 33       		.uleb128 0x33
 7543 1965 01       		.uleb128 0x1
 7544 1966 50       		.byte	0x50
 7545 1967 03       		.uleb128 0x3
 7546 1968 91       		.byte	0x91
 7547 1969 A87F     		.sleb128 -88
 7548 196b 33       		.uleb128 0x33
 7549 196c 01       		.uleb128 0x1
 7550 196d 51       		.byte	0x51
 7551 196e 01       		.uleb128 0x1
 7552 196f 31       		.byte	0x31
 7553 1970 00       		.byte	0
 7554 1971 00       		.byte	0
 7555 1972 00       		.byte	0
 7556 1973 00       		.byte	0
 7557 1974 32       		.uleb128 0x32
 7558 1975 42000000 		.4byte	.LVL300
 7559 1979 8B2E0000 		.4byte	0x2e8b
 7560 197d 9D190000 		.4byte	0x199d
 7561 1981 33       		.uleb128 0x33
 7562 1982 01       		.uleb128 0x1
 7563 1983 50       		.byte	0x50
 7564 1984 03       		.uleb128 0x3
 7565 1985 91       		.byte	0x91
 7566 1986 A87F     		.sleb128 -88
 7567 1988 33       		.uleb128 0x33
 7568 1989 01       		.uleb128 0x1
 7569 198a 51       		.byte	0x51
 7570 198b 01       		.uleb128 0x1
ARM GAS  C:\Users\rdn\AppData\Local\Temp\cco7w9JJ.s 			page 159


 7571 198c 30       		.byte	0x30
 7572 198d 33       		.uleb128 0x33
 7573 198e 01       		.uleb128 0x1
 7574 198f 52       		.byte	0x52
 7575 1990 03       		.uleb128 0x3
 7576 1991 F3       		.byte	0xf3
 7577 1992 01       		.uleb128 0x1
 7578 1993 51       		.byte	0x51
 7579 1994 33       		.uleb128 0x33
 7580 1995 01       		.uleb128 0x1
 7581 1996 53       		.byte	0x53
 7582 1997 04       		.uleb128 0x4
 7583 1998 91       		.byte	0x91
 7584 1999 A07F     		.sleb128 -96
 7585 199b 06       		.byte	0x6
 7586 199c 00       		.byte	0
 7587 199d 32       		.uleb128 0x32
 7588 199e 4C000000 		.4byte	.LVL301
 7589 19a2 EE2E0000 		.4byte	0x2eee
 7590 19a6 BE190000 		.4byte	0x19be
 7591 19aa 33       		.uleb128 0x33
 7592 19ab 01       		.uleb128 0x1
 7593 19ac 50       		.byte	0x50
 7594 19ad 03       		.uleb128 0x3
 7595 19ae 91       		.byte	0x91
 7596 19af A87F     		.sleb128 -88
 7597 19b1 33       		.uleb128 0x33
 7598 19b2 01       		.uleb128 0x1
 7599 19b3 51       		.byte	0x51
 7600 19b4 02       		.uleb128 0x2
 7601 19b5 78       		.byte	0x78
 7602 19b6 00       		.sleb128 0
 7603 19b7 33       		.uleb128 0x33
 7604 19b8 01       		.uleb128 0x1
 7605 19b9 52       		.byte	0x52
 7606 19ba 02       		.uleb128 0x2
 7607 19bb 75       		.byte	0x75
 7608 19bc 00       		.sleb128 0
 7609 19bd 00       		.byte	0
 7610 19be 32       		.uleb128 0x32
 7611 19bf 62000000 		.4byte	.LVL303
 7612 19c3 F92E0000 		.4byte	0x2ef9
 7613 19c7 E5190000 		.4byte	0x19e5
 7614 19cb 33       		.uleb128 0x33
 7615 19cc 01       		.uleb128 0x1
 7616 19cd 50       		.byte	0x50
 7617 19ce 03       		.uleb128 0x3
 7618 19cf 91       		.byte	0x91
 7619 19d0 A87F     		.sleb128 -88
 7620 19d2 33       		.uleb128 0x33
 7621 19d3 01       		.uleb128 0x1
 7622 19d4 51       		.byte	0x51
 7623 19d5 02       		.uleb128 0x2
 7624 19d6 76       		.byte	0x76
 7625 19d7 00       		.sleb128 0
 7626 19d8 33       		.uleb128 0x33
 7627 19d9 01       		.uleb128 0x1
ARM GAS  C:\Users\rdn\AppData\Local\Temp\cco7w9JJ.s 			page 160


 7628 19da 52       		.byte	0x52
 7629 19db 02       		.uleb128 0x2
 7630 19dc 78       		.byte	0x78
 7631 19dd 00       		.sleb128 0
 7632 19de 33       		.uleb128 0x33
 7633 19df 01       		.uleb128 0x1
 7634 19e0 53       		.byte	0x53
 7635 19e1 02       		.uleb128 0x2
 7636 19e2 7B       		.byte	0x7b
 7637 19e3 00       		.sleb128 0
 7638 19e4 00       		.byte	0
 7639 19e5 32       		.uleb128 0x32
 7640 19e6 78000000 		.4byte	.LVL305
 7641 19ea 042F0000 		.4byte	0x2f04
 7642 19ee 0F1A0000 		.4byte	0x1a0f
 7643 19f2 33       		.uleb128 0x33
 7644 19f3 01       		.uleb128 0x1
 7645 19f4 50       		.byte	0x50
 7646 19f5 03       		.uleb128 0x3
 7647 19f6 91       		.byte	0x91
 7648 19f7 A87F     		.sleb128 -88
 7649 19f9 33       		.uleb128 0x33
 7650 19fa 01       		.uleb128 0x1
 7651 19fb 51       		.byte	0x51
 7652 19fc 02       		.uleb128 0x2
 7653 19fd 76       		.byte	0x76
 7654 19fe 00       		.sleb128 0
 7655 19ff 33       		.uleb128 0x33
 7656 1a00 01       		.uleb128 0x1
 7657 1a01 53       		.byte	0x53
 7658 1a02 04       		.uleb128 0x4
 7659 1a03 91       		.byte	0x91
 7660 1a04 A07F     		.sleb128 -96
 7661 1a06 06       		.byte	0x6
 7662 1a07 33       		.uleb128 0x33
 7663 1a08 02       		.uleb128 0x2
 7664 1a09 7D       		.byte	0x7d
 7665 1a0a 00       		.sleb128 0
 7666 1a0b 02       		.uleb128 0x2
 7667 1a0c 75       		.byte	0x75
 7668 1a0d 28       		.sleb128 40
 7669 1a0e 00       		.byte	0
 7670 1a0f 32       		.uleb128 0x32
 7671 1a10 AA000000 		.4byte	.LVL312
 7672 1a14 0F2F0000 		.4byte	0x2f0f
 7673 1a18 2A1A0000 		.4byte	0x1a2a
 7674 1a1c 33       		.uleb128 0x33
 7675 1a1d 01       		.uleb128 0x1
 7676 1a1e 50       		.byte	0x50
 7677 1a1f 03       		.uleb128 0x3
 7678 1a20 91       		.byte	0x91
 7679 1a21 A87F     		.sleb128 -88
 7680 1a23 33       		.uleb128 0x33
 7681 1a24 01       		.uleb128 0x1
 7682 1a25 51       		.byte	0x51
 7683 1a26 02       		.uleb128 0x2
 7684 1a27 75       		.byte	0x75
ARM GAS  C:\Users\rdn\AppData\Local\Temp\cco7w9JJ.s 			page 161


 7685 1a28 0C       		.sleb128 12
 7686 1a29 00       		.byte	0
 7687 1a2a 32       		.uleb128 0x32
 7688 1a2b BC000000 		.4byte	.LVL314
 7689 1a2f 1A2F0000 		.4byte	0x2f1a
 7690 1a33 451A0000 		.4byte	0x1a45
 7691 1a37 33       		.uleb128 0x33
 7692 1a38 01       		.uleb128 0x1
 7693 1a39 50       		.byte	0x50
 7694 1a3a 03       		.uleb128 0x3
 7695 1a3b 91       		.byte	0x91
 7696 1a3c A87F     		.sleb128 -88
 7697 1a3e 33       		.uleb128 0x33
 7698 1a3f 01       		.uleb128 0x1
 7699 1a40 51       		.byte	0x51
 7700 1a41 02       		.uleb128 0x2
 7701 1a42 75       		.byte	0x75
 7702 1a43 04       		.sleb128 4
 7703 1a44 00       		.byte	0
 7704 1a45 32       		.uleb128 0x32
 7705 1a46 D2000000 		.4byte	.LVL315
 7706 1a4a 252F0000 		.4byte	0x2f25
 7707 1a4e 7D1A0000 		.4byte	0x1a7d
 7708 1a52 33       		.uleb128 0x33
 7709 1a53 01       		.uleb128 0x1
 7710 1a54 50       		.byte	0x50
 7711 1a55 03       		.uleb128 0x3
 7712 1a56 91       		.byte	0x91
 7713 1a57 A87F     		.sleb128 -88
 7714 1a59 33       		.uleb128 0x33
 7715 1a5a 01       		.uleb128 0x1
 7716 1a5b 51       		.byte	0x51
 7717 1a5c 02       		.uleb128 0x2
 7718 1a5d 76       		.byte	0x76
 7719 1a5e 00       		.sleb128 0
 7720 1a5f 33       		.uleb128 0x33
 7721 1a60 01       		.uleb128 0x1
 7722 1a61 52       		.byte	0x52
 7723 1a62 02       		.uleb128 0x2
 7724 1a63 78       		.byte	0x78
 7725 1a64 00       		.sleb128 0
 7726 1a65 33       		.uleb128 0x33
 7727 1a66 02       		.uleb128 0x2
 7728 1a67 7D       		.byte	0x7d
 7729 1a68 00       		.sleb128 0
 7730 1a69 04       		.uleb128 0x4
 7731 1a6a 91       		.byte	0x91
 7732 1a6b A07F     		.sleb128 -96
 7733 1a6d 06       		.byte	0x6
 7734 1a6e 33       		.uleb128 0x33
 7735 1a6f 02       		.uleb128 0x2
 7736 1a70 7D       		.byte	0x7d
 7737 1a71 04       		.sleb128 4
 7738 1a72 02       		.uleb128 0x2
 7739 1a73 7B       		.byte	0x7b
 7740 1a74 00       		.sleb128 0
 7741 1a75 33       		.uleb128 0x33
ARM GAS  C:\Users\rdn\AppData\Local\Temp\cco7w9JJ.s 			page 162


 7742 1a76 02       		.uleb128 0x2
 7743 1a77 7D       		.byte	0x7d
 7744 1a78 08       		.sleb128 8
 7745 1a79 02       		.uleb128 0x2
 7746 1a7a 74       		.byte	0x74
 7747 1a7b 00       		.sleb128 0
 7748 1a7c 00       		.byte	0
 7749 1a7d 32       		.uleb128 0x32
 7750 1a7e E6000000 		.4byte	.LVL317
 7751 1a82 302F0000 		.4byte	0x2f30
 7752 1a86 A61A0000 		.4byte	0x1aa6
 7753 1a8a 33       		.uleb128 0x33
 7754 1a8b 01       		.uleb128 0x1
 7755 1a8c 50       		.byte	0x50
 7756 1a8d 07       		.uleb128 0x7
 7757 1a8e 77       		.byte	0x77
 7758 1a8f 00       		.sleb128 0
 7759 1a90 32       		.byte	0x32
 7760 1a91 24       		.byte	0x24
 7761 1a92 74       		.byte	0x74
 7762 1a93 00       		.sleb128 0
 7763 1a94 22       		.byte	0x22
 7764 1a95 33       		.uleb128 0x33
 7765 1a96 01       		.uleb128 0x1
 7766 1a97 51       		.byte	0x51
 7767 1a98 01       		.uleb128 0x1
 7768 1a99 30       		.byte	0x30
 7769 1a9a 33       		.uleb128 0x33
 7770 1a9b 01       		.uleb128 0x1
 7771 1a9c 52       		.byte	0x52
 7772 1a9d 07       		.uleb128 0x7
 7773 1a9e 79       		.byte	0x79
 7774 1a9f 00       		.sleb128 0
 7775 1aa0 77       		.byte	0x77
 7776 1aa1 00       		.sleb128 0
 7777 1aa2 1C       		.byte	0x1c
 7778 1aa3 32       		.byte	0x32
 7779 1aa4 24       		.byte	0x24
 7780 1aa5 00       		.byte	0
 7781 1aa6 34       		.uleb128 0x34
 7782 1aa7 EC000000 		.4byte	.LVL318
 7783 1aab 392F0000 		.4byte	0x2f39
 7784 1aaf 33       		.uleb128 0x33
 7785 1ab0 01       		.uleb128 0x1
 7786 1ab1 50       		.byte	0x50
 7787 1ab2 03       		.uleb128 0x3
 7788 1ab3 91       		.byte	0x91
 7789 1ab4 A87F     		.sleb128 -88
 7790 1ab6 00       		.byte	0
 7791 1ab7 00       		.byte	0
 7792 1ab8 2E       		.uleb128 0x2e
 7793 1ab9 44040000 		.4byte	.LASF169
 7794 1abd 01       		.byte	0x1
 7795 1abe 6402     		.2byte	0x264
 7796 1ac0 00000000 		.4byte	.LFB48
 7797 1ac4 24010000 		.4byte	.LFE48-.LFB48
 7798 1ac8 01       		.uleb128 0x1
ARM GAS  C:\Users\rdn\AppData\Local\Temp\cco7w9JJ.s 			page 163


 7799 1ac9 9C       		.byte	0x9c
 7800 1aca 631D0000 		.4byte	0x1d63
 7801 1ace 29       		.uleb128 0x29
 7802 1acf E4030000 		.4byte	.LASF155
 7803 1ad3 01       		.byte	0x1
 7804 1ad4 6402     		.2byte	0x264
 7805 1ad6 88040000 		.4byte	0x488
 7806 1ada 63130000 		.4byte	.LLST142
 7807 1ade 29       		.uleb128 0x29
 7808 1adf DD000000 		.4byte	.LASF161
 7809 1ae3 01       		.byte	0x1
 7810 1ae4 6502     		.2byte	0x265
 7811 1ae6 C2170000 		.4byte	0x17c2
 7812 1aea 8F130000 		.4byte	.LLST143
 7813 1aee 29       		.uleb128 0x29
 7814 1aef 12030000 		.4byte	.LASF160
 7815 1af3 01       		.byte	0x1
 7816 1af4 6502     		.2byte	0x265
 7817 1af6 9F000000 		.4byte	0x9f
 7818 1afa EC130000 		.4byte	.LLST144
 7819 1afe 2A       		.uleb128 0x2a
 7820 1aff 647400   		.ascii	"dt\000"
 7821 1b02 01       		.byte	0x1
 7822 1b03 6702     		.2byte	0x267
 7823 1b05 EF000000 		.4byte	0xef
 7824 1b09 0B140000 		.4byte	.LLST145
 7825 1b0d 2A       		.uleb128 0x2a
 7826 1b0e 737200   		.ascii	"sr\000"
 7827 1b11 01       		.byte	0x1
 7828 1b12 6802     		.2byte	0x268
 7829 1b14 1E010000 		.4byte	0x11e
 7830 1b18 2A140000 		.4byte	.LLST146
 7831 1b1c 30       		.uleb128 0x30
 7832 1b1d AE020000 		.4byte	.LASF55
 7833 1b21 01       		.byte	0x1
 7834 1b22 6902     		.2byte	0x269
 7835 1b24 1E010000 		.4byte	0x11e
 7836 1b28 3D140000 		.4byte	.LLST147
 7837 1b2c 2A       		.uleb128 0x2a
 7838 1b2d 786600   		.ascii	"xf\000"
 7839 1b30 01       		.byte	0x1
 7840 1b31 6B02     		.2byte	0x26b
 7841 1b33 F60A0000 		.4byte	0xaf6
 7842 1b37 5C140000 		.4byte	.LLST148
 7843 1b3b 2B       		.uleb128 0x2b
 7844 1b3c 6E7300   		.ascii	"ns\000"
 7845 1b3f 01       		.byte	0x1
 7846 1b40 6C02     		.2byte	0x26c
 7847 1b42 9F000000 		.4byte	0x9f
 7848 1b46 2B       		.uleb128 0x2b
 7849 1b47 6E6500   		.ascii	"ne\000"
 7850 1b4a 01       		.byte	0x1
 7851 1b4b 6D02     		.2byte	0x26d
 7852 1b4d 9F000000 		.4byte	0x9f
 7853 1b51 2A       		.uleb128 0x2a
 7854 1b52 786700   		.ascii	"xg\000"
 7855 1b55 01       		.byte	0x1
ARM GAS  C:\Users\rdn\AppData\Local\Temp\cco7w9JJ.s 			page 164


 7856 1b56 6F02     		.2byte	0x26f
 7857 1b58 F60A0000 		.4byte	0xaf6
 7858 1b5c 6F140000 		.4byte	.LLST149
 7859 1b60 2A       		.uleb128 0x2a
 7860 1b61 787300   		.ascii	"xs\000"
 7861 1b64 01       		.byte	0x1
 7862 1b65 7002     		.2byte	0x270
 7863 1b67 F60A0000 		.4byte	0xaf6
 7864 1b6b 8E140000 		.4byte	.LLST150
 7865 1b6f 2A       		.uleb128 0x2a
 7866 1b70 786400   		.ascii	"xd\000"
 7867 1b73 01       		.byte	0x1
 7868 1b74 7202     		.2byte	0x272
 7869 1b76 F60A0000 		.4byte	0xaf6
 7870 1b7a A1140000 		.4byte	.LLST151
 7871 1b7e 2A       		.uleb128 0x2a
 7872 1b7f 786800   		.ascii	"xh\000"
 7873 1b82 01       		.byte	0x1
 7874 1b83 7302     		.2byte	0x273
 7875 1b85 F60A0000 		.4byte	0xaf6
 7876 1b89 B4140000 		.4byte	.LLST152
 7877 1b8d 2C       		.uleb128 0x2c
 7878 1b8e C9070000 		.4byte	0x7c9
 7879 1b92 2A000000 		.4byte	.LBB181
 7880 1b96 10000000 		.4byte	.LBE181-.LBB181
 7881 1b9a 01       		.byte	0x1
 7882 1b9b 6C02     		.2byte	0x26c
 7883 1b9d B41B0000 		.4byte	0x1bb4
 7884 1ba1 23       		.uleb128 0x23
 7885 1ba2 E3070000 		.4byte	0x7e3
 7886 1ba6 C7140000 		.4byte	.LLST153
 7887 1baa 23       		.uleb128 0x23
 7888 1bab D9070000 		.4byte	0x7d9
 7889 1baf E6140000 		.4byte	.LLST154
 7890 1bb3 00       		.byte	0
 7891 1bb4 2C       		.uleb128 0x2c
 7892 1bb5 0F090000 		.4byte	0x90f
 7893 1bb9 3A000000 		.4byte	.LBB183
 7894 1bbd 0A000000 		.4byte	.LBE183-.LBB183
 7895 1bc1 01       		.byte	0x1
 7896 1bc2 6D02     		.2byte	0x26d
 7897 1bc4 DB1B0000 		.4byte	0x1bdb
 7898 1bc8 23       		.uleb128 0x23
 7899 1bc9 29090000 		.4byte	0x929
 7900 1bcd F9140000 		.4byte	.LLST155
 7901 1bd1 23       		.uleb128 0x23
 7902 1bd2 1F090000 		.4byte	0x91f
 7903 1bd6 0C150000 		.4byte	.LLST156
 7904 1bda 00       		.byte	0
 7905 1bdb 39       		.uleb128 0x39
 7906 1bdc 66000000 		.4byte	.LBB185
 7907 1be0 44000000 		.4byte	.LBE185-.LBB185
 7908 1be4 9A1C0000 		.4byte	0x1c9a
 7909 1be8 2A       		.uleb128 0x2a
 7910 1be9 627700   		.ascii	"bw\000"
 7911 1bec 01       		.byte	0x1
 7912 1bed 7602     		.2byte	0x276
ARM GAS  C:\Users\rdn\AppData\Local\Temp\cco7w9JJ.s 			page 165


 7913 1bef A5040000 		.4byte	0x4a5
 7914 1bf3 20150000 		.4byte	.LLST157
 7915 1bf7 32       		.uleb128 0x32
 7916 1bf8 74000000 		.4byte	.LVL338
 7917 1bfc 442F0000 		.4byte	0x2f44
 7918 1c00 0C1C0000 		.4byte	0x1c0c
 7919 1c04 33       		.uleb128 0x33
 7920 1c05 01       		.uleb128 0x1
 7921 1c06 50       		.byte	0x50
 7922 1c07 03       		.uleb128 0x3
 7923 1c08 74       		.byte	0x74
 7924 1c09 9C01     		.sleb128 156
 7925 1c0b 00       		.byte	0
 7926 1c0c 32       		.uleb128 0x32
 7927 1c0d 84000000 		.4byte	.LVL339
 7928 1c11 4F2F0000 		.4byte	0x2f4f
 7929 1c15 341C0000 		.4byte	0x1c34
 7930 1c19 33       		.uleb128 0x33
 7931 1c1a 01       		.uleb128 0x1
 7932 1c1b 50       		.byte	0x50
 7933 1c1c 04       		.uleb128 0x4
 7934 1c1d 91       		.byte	0x91
 7935 1c1e 48       		.sleb128 -56
 7936 1c1f 94       		.byte	0x94
 7937 1c20 01       		.byte	0x1
 7938 1c21 33       		.uleb128 0x33
 7939 1c22 01       		.uleb128 0x1
 7940 1c23 51       		.byte	0x51
 7941 1c24 02       		.uleb128 0x2
 7942 1c25 7A       		.byte	0x7a
 7943 1c26 00       		.sleb128 0
 7944 1c27 33       		.uleb128 0x33
 7945 1c28 01       		.uleb128 0x1
 7946 1c29 52       		.byte	0x52
 7947 1c2a 02       		.uleb128 0x2
 7948 1c2b 76       		.byte	0x76
 7949 1c2c 28       		.sleb128 40
 7950 1c2d 33       		.uleb128 0x33
 7951 1c2e 01       		.uleb128 0x1
 7952 1c2f 53       		.byte	0x53
 7953 1c30 02       		.uleb128 0x2
 7954 1c31 75       		.byte	0x75
 7955 1c32 00       		.sleb128 0
 7956 1c33 00       		.byte	0
 7957 1c34 32       		.uleb128 0x32
 7958 1c35 98000000 		.4byte	.LVL340
 7959 1c39 5A2F0000 		.4byte	0x2f5a
 7960 1c3d 641C0000 		.4byte	0x1c64
 7961 1c41 33       		.uleb128 0x33
 7962 1c42 01       		.uleb128 0x1
 7963 1c43 50       		.byte	0x50
 7964 1c44 04       		.uleb128 0x4
 7965 1c45 91       		.byte	0x91
 7966 1c46 48       		.sleb128 -56
 7967 1c47 94       		.byte	0x94
 7968 1c48 01       		.byte	0x1
 7969 1c49 33       		.uleb128 0x33
ARM GAS  C:\Users\rdn\AppData\Local\Temp\cco7w9JJ.s 			page 166


 7970 1c4a 01       		.uleb128 0x1
 7971 1c4b 51       		.byte	0x51
 7972 1c4c 02       		.uleb128 0x2
 7973 1c4d 77       		.byte	0x77
 7974 1c4e 00       		.sleb128 0
 7975 1c4f 33       		.uleb128 0x33
 7976 1c50 01       		.uleb128 0x1
 7977 1c51 52       		.byte	0x52
 7978 1c52 02       		.uleb128 0x2
 7979 1c53 76       		.byte	0x76
 7980 1c54 0C       		.sleb128 12
 7981 1c55 33       		.uleb128 0x33
 7982 1c56 01       		.uleb128 0x1
 7983 1c57 53       		.byte	0x53
 7984 1c58 02       		.uleb128 0x2
 7985 1c59 75       		.byte	0x75
 7986 1c5a 00       		.sleb128 0
 7987 1c5b 33       		.uleb128 0x33
 7988 1c5c 02       		.uleb128 0x2
 7989 1c5d 7D       		.byte	0x7d
 7990 1c5e 00       		.sleb128 0
 7991 1c5f 03       		.uleb128 0x3
 7992 1c60 91       		.byte	0x91
 7993 1c61 4C       		.sleb128 -52
 7994 1c62 06       		.byte	0x6
 7995 1c63 00       		.byte	0
 7996 1c64 34       		.uleb128 0x34
 7997 1c65 AA000000 		.4byte	.LVL341
 7998 1c69 652F0000 		.4byte	0x2f65
 7999 1c6d 33       		.uleb128 0x33
 8000 1c6e 01       		.uleb128 0x1
 8001 1c6f 50       		.byte	0x50
 8002 1c70 04       		.uleb128 0x4
 8003 1c71 91       		.byte	0x91
 8004 1c72 48       		.sleb128 -56
 8005 1c73 94       		.byte	0x94
 8006 1c74 01       		.byte	0x1
 8007 1c75 33       		.uleb128 0x33
 8008 1c76 01       		.uleb128 0x1
 8009 1c77 51       		.byte	0x51
 8010 1c78 04       		.uleb128 0x4
 8011 1c79 91       		.byte	0x91
 8012 1c7a 50       		.sleb128 -48
 8013 1c7b 94       		.byte	0x94
 8014 1c7c 01       		.byte	0x1
 8015 1c7d 33       		.uleb128 0x33
 8016 1c7e 01       		.uleb128 0x1
 8017 1c7f 52       		.byte	0x52
 8018 1c80 02       		.uleb128 0x2
 8019 1c81 77       		.byte	0x77
 8020 1c82 00       		.sleb128 0
 8021 1c83 33       		.uleb128 0x33
 8022 1c84 01       		.uleb128 0x1
 8023 1c85 53       		.byte	0x53
 8024 1c86 03       		.uleb128 0x3
 8025 1c87 91       		.byte	0x91
 8026 1c88 4C       		.sleb128 -52
ARM GAS  C:\Users\rdn\AppData\Local\Temp\cco7w9JJ.s 			page 167


 8027 1c89 06       		.byte	0x6
 8028 1c8a 33       		.uleb128 0x33
 8029 1c8b 02       		.uleb128 0x2
 8030 1c8c 7D       		.byte	0x7d
 8031 1c8d 00       		.sleb128 0
 8032 1c8e 02       		.uleb128 0x2
 8033 1c8f 79       		.byte	0x79
 8034 1c90 00       		.sleb128 0
 8035 1c91 33       		.uleb128 0x33
 8036 1c92 02       		.uleb128 0x2
 8037 1c93 7D       		.byte	0x7d
 8038 1c94 04       		.sleb128 4
 8039 1c95 02       		.uleb128 0x2
 8040 1c96 75       		.byte	0x75
 8041 1c97 00       		.sleb128 0
 8042 1c98 00       		.byte	0
 8043 1c99 00       		.byte	0
 8044 1c9a 32       		.uleb128 0x32
 8045 1c9b BC000000 		.4byte	.LVL343
 8046 1c9f 702F0000 		.4byte	0x2f70
 8047 1ca3 CB1C0000 		.4byte	0x1ccb
 8048 1ca7 33       		.uleb128 0x33
 8049 1ca8 01       		.uleb128 0x1
 8050 1ca9 50       		.byte	0x50
 8051 1caa 04       		.uleb128 0x4
 8052 1cab 91       		.byte	0x91
 8053 1cac 48       		.sleb128 -56
 8054 1cad 94       		.byte	0x94
 8055 1cae 01       		.byte	0x1
 8056 1caf 33       		.uleb128 0x33
 8057 1cb0 01       		.uleb128 0x1
 8058 1cb1 51       		.byte	0x51
 8059 1cb2 02       		.uleb128 0x2
 8060 1cb3 77       		.byte	0x77
 8061 1cb4 00       		.sleb128 0
 8062 1cb5 33       		.uleb128 0x33
 8063 1cb6 01       		.uleb128 0x1
 8064 1cb7 52       		.byte	0x52
 8065 1cb8 03       		.uleb128 0x3
 8066 1cb9 74       		.byte	0x74
 8067 1cba 9C01     		.sleb128 156
 8068 1cbc 33       		.uleb128 0x33
 8069 1cbd 01       		.uleb128 0x1
 8070 1cbe 53       		.byte	0x53
 8071 1cbf 03       		.uleb128 0x3
 8072 1cc0 91       		.byte	0x91
 8073 1cc1 4C       		.sleb128 -52
 8074 1cc2 06       		.byte	0x6
 8075 1cc3 33       		.uleb128 0x33
 8076 1cc4 02       		.uleb128 0x2
 8077 1cc5 7D       		.byte	0x7d
 8078 1cc6 00       		.sleb128 0
 8079 1cc7 02       		.uleb128 0x2
 8080 1cc8 75       		.byte	0x75
 8081 1cc9 00       		.sleb128 0
 8082 1cca 00       		.byte	0
 8083 1ccb 32       		.uleb128 0x32
ARM GAS  C:\Users\rdn\AppData\Local\Temp\cco7w9JJ.s 			page 168


 8084 1ccc D0000000 		.4byte	.LVL344
 8085 1cd0 302F0000 		.4byte	0x2f30
 8086 1cd4 F41C0000 		.4byte	0x1cf4
 8087 1cd8 33       		.uleb128 0x33
 8088 1cd9 01       		.uleb128 0x1
 8089 1cda 50       		.byte	0x50
 8090 1cdb 07       		.uleb128 0x7
 8091 1cdc 7A       		.byte	0x7a
 8092 1cdd 00       		.sleb128 0
 8093 1cde 32       		.byte	0x32
 8094 1cdf 24       		.byte	0x24
 8095 1ce0 75       		.byte	0x75
 8096 1ce1 00       		.sleb128 0
 8097 1ce2 22       		.byte	0x22
 8098 1ce3 33       		.uleb128 0x33
 8099 1ce4 01       		.uleb128 0x1
 8100 1ce5 51       		.byte	0x51
 8101 1ce6 01       		.uleb128 0x1
 8102 1ce7 30       		.byte	0x30
 8103 1ce8 33       		.uleb128 0x33
 8104 1ce9 01       		.uleb128 0x1
 8105 1cea 52       		.byte	0x52
 8106 1ceb 07       		.uleb128 0x7
 8107 1cec 78       		.byte	0x78
 8108 1ced 00       		.sleb128 0
 8109 1cee 7A       		.byte	0x7a
 8110 1cef 00       		.sleb128 0
 8111 1cf0 1C       		.byte	0x1c
 8112 1cf1 32       		.byte	0x32
 8113 1cf2 24       		.byte	0x24
 8114 1cf3 00       		.byte	0
 8115 1cf4 32       		.uleb128 0x32
 8116 1cf5 E2000000 		.4byte	.LVL345
 8117 1cf9 652F0000 		.4byte	0x2f65
 8118 1cfd 2C1D0000 		.4byte	0x1d2c
 8119 1d01 33       		.uleb128 0x33
 8120 1d02 01       		.uleb128 0x1
 8121 1d03 50       		.byte	0x50
 8122 1d04 04       		.uleb128 0x4
 8123 1d05 91       		.byte	0x91
 8124 1d06 48       		.sleb128 -56
 8125 1d07 94       		.byte	0x94
 8126 1d08 01       		.byte	0x1
 8127 1d09 33       		.uleb128 0x33
 8128 1d0a 01       		.uleb128 0x1
 8129 1d0b 51       		.byte	0x51
 8130 1d0c 04       		.uleb128 0x4
 8131 1d0d 91       		.byte	0x91
 8132 1d0e 50       		.sleb128 -48
 8133 1d0f 94       		.byte	0x94
 8134 1d10 01       		.byte	0x1
 8135 1d11 33       		.uleb128 0x33
 8136 1d12 01       		.uleb128 0x1
 8137 1d13 52       		.byte	0x52
 8138 1d14 02       		.uleb128 0x2
 8139 1d15 77       		.byte	0x77
 8140 1d16 00       		.sleb128 0
ARM GAS  C:\Users\rdn\AppData\Local\Temp\cco7w9JJ.s 			page 169


 8141 1d17 33       		.uleb128 0x33
 8142 1d18 01       		.uleb128 0x1
 8143 1d19 53       		.byte	0x53
 8144 1d1a 02       		.uleb128 0x2
 8145 1d1b 75       		.byte	0x75
 8146 1d1c 00       		.sleb128 0
 8147 1d1d 33       		.uleb128 0x33
 8148 1d1e 02       		.uleb128 0x2
 8149 1d1f 7D       		.byte	0x7d
 8150 1d20 00       		.sleb128 0
 8151 1d21 02       		.uleb128 0x2
 8152 1d22 79       		.byte	0x79
 8153 1d23 00       		.sleb128 0
 8154 1d24 33       		.uleb128 0x33
 8155 1d25 02       		.uleb128 0x2
 8156 1d26 7D       		.byte	0x7d
 8157 1d27 04       		.sleb128 4
 8158 1d28 02       		.uleb128 0x2
 8159 1d29 75       		.byte	0x75
 8160 1d2a 00       		.sleb128 0
 8161 1d2b 00       		.byte	0
 8162 1d2c 34       		.uleb128 0x34
 8163 1d2d 0E010000 		.4byte	.LVL351
 8164 1d31 7B2F0000 		.4byte	0x2f7b
 8165 1d35 33       		.uleb128 0x33
 8166 1d36 01       		.uleb128 0x1
 8167 1d37 50       		.byte	0x50
 8168 1d38 04       		.uleb128 0x4
 8169 1d39 91       		.byte	0x91
 8170 1d3a 48       		.sleb128 -56
 8171 1d3b 94       		.byte	0x94
 8172 1d3c 01       		.byte	0x1
 8173 1d3d 33       		.uleb128 0x33
 8174 1d3e 01       		.uleb128 0x1
 8175 1d3f 51       		.byte	0x51
 8176 1d40 04       		.uleb128 0x4
 8177 1d41 91       		.byte	0x91
 8178 1d42 50       		.sleb128 -48
 8179 1d43 94       		.byte	0x94
 8180 1d44 01       		.byte	0x1
 8181 1d45 33       		.uleb128 0x33
 8182 1d46 01       		.uleb128 0x1
 8183 1d47 52       		.byte	0x52
 8184 1d48 03       		.uleb128 0x3
 8185 1d49 91       		.byte	0x91
 8186 1d4a 54       		.sleb128 -44
 8187 1d4b 06       		.byte	0x6
 8188 1d4c 33       		.uleb128 0x33
 8189 1d4d 02       		.uleb128 0x2
 8190 1d4e 7D       		.byte	0x7d
 8191 1d4f 00       		.sleb128 0
 8192 1d50 02       		.uleb128 0x2
 8193 1d51 76       		.byte	0x76
 8194 1d52 00       		.sleb128 0
 8195 1d53 33       		.uleb128 0x33
 8196 1d54 02       		.uleb128 0x2
 8197 1d55 7D       		.byte	0x7d
ARM GAS  C:\Users\rdn\AppData\Local\Temp\cco7w9JJ.s 			page 170


 8198 1d56 04       		.sleb128 4
 8199 1d57 02       		.uleb128 0x2
 8200 1d58 7B       		.byte	0x7b
 8201 1d59 00       		.sleb128 0
 8202 1d5a 33       		.uleb128 0x33
 8203 1d5b 02       		.uleb128 0x2
 8204 1d5c 7D       		.byte	0x7d
 8205 1d5d 08       		.sleb128 8
 8206 1d5e 02       		.uleb128 0x2
 8207 1d5f 75       		.byte	0x75
 8208 1d60 00       		.sleb128 0
 8209 1d61 00       		.byte	0
 8210 1d62 00       		.byte	0
 8211 1d63 2E       		.uleb128 0x2e
 8212 1d64 C0080000 		.4byte	.LASF170
 8213 1d68 01       		.byte	0x1
 8214 1d69 1D02     		.2byte	0x21d
 8215 1d6b 00000000 		.4byte	.LFB46
 8216 1d6f 5C000000 		.4byte	.LFE46-.LFB46
 8217 1d73 01       		.uleb128 0x1
 8218 1d74 9C       		.byte	0x9c
 8219 1d75 791E0000 		.4byte	0x1e79
 8220 1d79 29       		.uleb128 0x29
 8221 1d7a E4030000 		.4byte	.LASF155
 8222 1d7e 01       		.byte	0x1
 8223 1d7f 1E02     		.2byte	0x21e
 8224 1d81 88040000 		.4byte	0x488
 8225 1d85 33150000 		.4byte	.LLST158
 8226 1d89 29       		.uleb128 0x29
 8227 1d8a B3040000 		.4byte	.LASF148
 8228 1d8e 01       		.byte	0x1
 8229 1d8f 1E02     		.2byte	0x21e
 8230 1d91 95040000 		.4byte	0x495
 8231 1d95 54150000 		.4byte	.LLST159
 8232 1d99 29       		.uleb128 0x29
 8233 1d9a A9090000 		.4byte	.LASF149
 8234 1d9e 01       		.byte	0x1
 8235 1d9f 1E02     		.2byte	0x21e
 8236 1da1 9F000000 		.4byte	0x9f
 8237 1da5 80150000 		.4byte	.LLST160
 8238 1da9 2A       		.uleb128 0x2a
 8239 1daa 70636D00 		.ascii	"pcm\000"
 8240 1dae 01       		.byte	0x1
 8241 1daf 2002     		.2byte	0x220
 8242 1db1 F60A0000 		.4byte	0xaf6
 8243 1db5 AC150000 		.4byte	.LLST161
 8244 1db9 2A       		.uleb128 0x2a
 8245 1dba 647400   		.ascii	"dt\000"
 8246 1dbd 01       		.byte	0x1
 8247 1dbe 2202     		.2byte	0x222
 8248 1dc0 EF000000 		.4byte	0xef
 8249 1dc4 CA150000 		.4byte	.LLST162
 8250 1dc8 2A       		.uleb128 0x2a
 8251 1dc9 737200   		.ascii	"sr\000"
 8252 1dcc 01       		.byte	0x1
 8253 1dcd 2302     		.2byte	0x223
 8254 1dcf 1E010000 		.4byte	0x11e
ARM GAS  C:\Users\rdn\AppData\Local\Temp\cco7w9JJ.s 			page 171


 8255 1dd3 F6150000 		.4byte	.LLST163
 8256 1dd7 2A       		.uleb128 0x2a
 8257 1dd8 787300   		.ascii	"xs\000"
 8258 1ddb 01       		.byte	0x1
 8259 1ddc 2502     		.2byte	0x225
 8260 1dde F60A0000 		.4byte	0xaf6
 8261 1de2 15160000 		.4byte	.LLST164
 8262 1de6 2A       		.uleb128 0x2a
 8263 1de7 6E7300   		.ascii	"ns\000"
 8264 1dea 01       		.byte	0x1
 8265 1deb 2602     		.2byte	0x226
 8266 1ded 9F000000 		.4byte	0x9f
 8267 1df1 28160000 		.4byte	.LLST165
 8268 1df5 2C       		.uleb128 0x2c
 8269 1df6 C9070000 		.4byte	0x7c9
 8270 1dfa 16000000 		.4byte	.LBB186
 8271 1dfe 0A000000 		.4byte	.LBE186-.LBB186
 8272 1e02 01       		.byte	0x1
 8273 1e03 2602     		.2byte	0x226
 8274 1e05 1C1E0000 		.4byte	0x1e1c
 8275 1e09 23       		.uleb128 0x23
 8276 1e0a E3070000 		.4byte	0x7e3
 8277 1e0e 3B160000 		.4byte	.LLST166
 8278 1e12 23       		.uleb128 0x23
 8279 1e13 D9070000 		.4byte	0x7d9
 8280 1e17 5A160000 		.4byte	.LLST167
 8281 1e1b 00       		.byte	0
 8282 1e1c 24       		.uleb128 0x24
 8283 1e1d 22000000 		.4byte	.LBB188
 8284 1e21 20000000 		.4byte	.LBE188-.LBB188
 8285 1e25 2B       		.uleb128 0x2b
 8286 1e26 7300     		.ascii	"s\000"
 8287 1e28 01       		.byte	0x1
 8288 1e29 2902     		.2byte	0x229
 8289 1e2b 3E020000 		.4byte	0x23e
 8290 1e2f 2C       		.uleb128 0x2c
 8291 1e30 09080000 		.4byte	0x809
 8292 1e34 24000000 		.4byte	.LBB189
 8293 1e38 0E000000 		.4byte	.LBE189-.LBB189
 8294 1e3c 01       		.byte	0x1
 8295 1e3d 2902     		.2byte	0x229
 8296 1e3f 651E0000 		.4byte	0x1e65
 8297 1e43 23       		.uleb128 0x23
 8298 1e44 23080000 		.4byte	0x823
 8299 1e48 7A160000 		.4byte	.LLST168
 8300 1e4c 23       		.uleb128 0x23
 8301 1e4d 19080000 		.4byte	0x819
 8302 1e51 8F160000 		.4byte	.LLST169
 8303 1e55 24       		.uleb128 0x24
 8304 1e56 24000000 		.4byte	.LBB190
 8305 1e5a 0E000000 		.4byte	.LBE190-.LBB190
 8306 1e5e 27       		.uleb128 0x27
 8307 1e5f 49080000 		.4byte	0x849
 8308 1e63 00       		.byte	0
 8309 1e64 00       		.byte	0
 8310 1e65 3A       		.uleb128 0x3a
 8311 1e66 38000000 		.4byte	.LVL371
ARM GAS  C:\Users\rdn\AppData\Local\Temp\cco7w9JJ.s 			page 172


 8312 1e6a 862F0000 		.4byte	0x2f86
 8313 1e6e 3A       		.uleb128 0x3a
 8314 1e6f 40000000 		.4byte	.LVL372
 8315 1e73 922F0000 		.4byte	0x2f92
 8316 1e77 00       		.byte	0
 8317 1e78 00       		.byte	0
 8318 1e79 3B       		.uleb128 0x3b
 8319 1e7a 41030000 		.4byte	.LASF173
 8320 1e7e 01       		.byte	0x1
 8321 1e7f 59       		.byte	0x59
 8322 1e80 9F000000 		.4byte	0x9f
 8323 1e84 00000000 		.4byte	.LFB22
 8324 1e88 3C000000 		.4byte	.LFE22-.LFB22
 8325 1e8c 01       		.uleb128 0x1
 8326 1e8d 9C       		.byte	0x9c
 8327 1e8e 331F0000 		.4byte	0x1f33
 8328 1e92 20       		.uleb128 0x20
 8329 1e93 06060000 		.4byte	.LASF144
 8330 1e97 01       		.byte	0x1
 8331 1e98 59       		.byte	0x59
 8332 1e99 20020000 		.4byte	0x220
 8333 1e9d A2160000 		.4byte	.LLST170
 8334 1ea1 20       		.uleb128 0x20
 8335 1ea2 65040000 		.4byte	.LASF171
 8336 1ea6 01       		.byte	0x1
 8337 1ea7 59       		.byte	0x59
 8338 1ea8 9F000000 		.4byte	0x9f
 8339 1eac C3160000 		.4byte	.LLST171
 8340 1eb0 20       		.uleb128 0x20
 8341 1eb1 45010000 		.4byte	.LASF172
 8342 1eb5 01       		.byte	0x1
 8343 1eb6 59       		.byte	0x59
 8344 1eb7 9F000000 		.4byte	0x9f
 8345 1ebb EF160000 		.4byte	.LLST172
 8346 1ebf 21       		.uleb128 0x21
 8347 1ec0 647400   		.ascii	"dt\000"
 8348 1ec3 01       		.byte	0x1
 8349 1ec4 5B       		.byte	0x5b
 8350 1ec5 EF000000 		.4byte	0xef
 8351 1ec9 1B170000 		.4byte	.LLST173
 8352 1ecd 21       		.uleb128 0x21
 8353 1ece 737200   		.ascii	"sr\000"
 8354 1ed1 01       		.byte	0x1
 8355 1ed2 5C       		.byte	0x5c
 8356 1ed3 1E010000 		.4byte	0x11e
 8357 1ed7 39170000 		.4byte	.LLST174
 8358 1edb 22       		.uleb128 0x22
 8359 1edc C9070000 		.4byte	0x7c9
 8360 1ee0 20000000 		.4byte	.LBB191
 8361 1ee4 0A000000 		.4byte	.LBE191-.LBB191
 8362 1ee8 01       		.byte	0x1
 8363 1ee9 61       		.byte	0x61
 8364 1eea 011F0000 		.4byte	0x1f01
 8365 1eee 23       		.uleb128 0x23
 8366 1eef E3070000 		.4byte	0x7e3
 8367 1ef3 62170000 		.4byte	.LLST175
 8368 1ef7 23       		.uleb128 0x23
ARM GAS  C:\Users\rdn\AppData\Local\Temp\cco7w9JJ.s 			page 173


 8369 1ef8 D9070000 		.4byte	0x7d9
 8370 1efc 75170000 		.4byte	.LLST176
 8371 1f00 00       		.byte	0
 8372 1f01 32       		.uleb128 0x32
 8373 1f02 0E000000 		.4byte	.LVL383
 8374 1f06 A3090000 		.4byte	0x9a3
 8375 1f0a 1C1F0000 		.4byte	0x1f1c
 8376 1f0e 33       		.uleb128 0x33
 8377 1f0f 01       		.uleb128 0x1
 8378 1f10 50       		.byte	0x50
 8379 1f11 03       		.uleb128 0x3
 8380 1f12 F3       		.byte	0xf3
 8381 1f13 01       		.uleb128 0x1
 8382 1f14 51       		.byte	0x51
 8383 1f15 33       		.uleb128 0x33
 8384 1f16 01       		.uleb128 0x1
 8385 1f17 51       		.byte	0x51
 8386 1f18 02       		.uleb128 0x2
 8387 1f19 75       		.byte	0x75
 8388 1f1a 00       		.sleb128 0
 8389 1f1b 00       		.byte	0
 8390 1f1c 34       		.uleb128 0x34
 8391 1f1d 18000000 		.4byte	.LVL385
 8392 1f21 D8090000 		.4byte	0x9d8
 8393 1f25 33       		.uleb128 0x33
 8394 1f26 01       		.uleb128 0x1
 8395 1f27 50       		.byte	0x50
 8396 1f28 02       		.uleb128 0x2
 8397 1f29 77       		.byte	0x77
 8398 1f2a 00       		.sleb128 0
 8399 1f2b 33       		.uleb128 0x33
 8400 1f2c 01       		.uleb128 0x1
 8401 1f2d 51       		.byte	0x51
 8402 1f2e 02       		.uleb128 0x2
 8403 1f2f 75       		.byte	0x75
 8404 1f30 00       		.sleb128 0
 8405 1f31 00       		.byte	0
 8406 1f32 00       		.byte	0
 8407 1f33 3B       		.uleb128 0x3b
 8408 1f34 3A060000 		.4byte	.LASF174
 8409 1f38 01       		.byte	0x1
 8410 1f39 64       		.byte	0x64
 8411 1f3a 9F000000 		.4byte	0x9f
 8412 1f3e 00000000 		.4byte	.LFB23
 8413 1f42 0E000000 		.4byte	.LFE23-.LFB23
 8414 1f46 01       		.uleb128 0x1
 8415 1f47 9C       		.byte	0x9c
 8416 1f48 881F0000 		.4byte	0x1f88
 8417 1f4c 20       		.uleb128 0x20
 8418 1f4d 65040000 		.4byte	.LASF171
 8419 1f51 01       		.byte	0x1
 8420 1f52 64       		.byte	0x64
 8421 1f53 9F000000 		.4byte	0x9f
 8422 1f57 88170000 		.4byte	.LLST177
 8423 1f5b 20       		.uleb128 0x20
 8424 1f5c 45010000 		.4byte	.LASF172
 8425 1f60 01       		.byte	0x1
ARM GAS  C:\Users\rdn\AppData\Local\Temp\cco7w9JJ.s 			page 174


 8426 1f61 64       		.byte	0x64
 8427 1f62 9F000000 		.4byte	0x9f
 8428 1f66 B4170000 		.4byte	.LLST178
 8429 1f6a 34       		.uleb128 0x34
 8430 1f6b 0C000000 		.4byte	.LVL398
 8431 1f6f 791E0000 		.4byte	0x1e79
 8432 1f73 33       		.uleb128 0x33
 8433 1f74 01       		.uleb128 0x1
 8434 1f75 50       		.byte	0x50
 8435 1f76 01       		.uleb128 0x1
 8436 1f77 30       		.byte	0x30
 8437 1f78 33       		.uleb128 0x33
 8438 1f79 01       		.uleb128 0x1
 8439 1f7a 51       		.byte	0x51
 8440 1f7b 03       		.uleb128 0x3
 8441 1f7c F3       		.byte	0xf3
 8442 1f7d 01       		.uleb128 0x1
 8443 1f7e 50       		.byte	0x50
 8444 1f7f 33       		.uleb128 0x33
 8445 1f80 01       		.uleb128 0x1
 8446 1f81 52       		.byte	0x52
 8447 1f82 03       		.uleb128 0x3
 8448 1f83 F3       		.byte	0xf3
 8449 1f84 01       		.uleb128 0x1
 8450 1f85 51       		.byte	0x51
 8451 1f86 00       		.byte	0
 8452 1f87 00       		.byte	0
 8453 1f88 3C       		.uleb128 0x3c
 8454 1f89 7A060000 		.4byte	.LASF175
 8455 1f8d 01       		.byte	0x1
 8456 1f8e 6C       		.byte	0x6c
 8457 1f8f 9F000000 		.4byte	0x9f
 8458 1f93 00000000 		.4byte	.LFB24
 8459 1f97 24010000 		.4byte	.LFE24-.LFB24
 8460 1f9b 01       		.uleb128 0x1
 8461 1f9c 9C       		.byte	0x9c
 8462 1f9d 1E210000 		.4byte	0x211e
 8463 1fa1 20       		.uleb128 0x20
 8464 1fa2 06060000 		.4byte	.LASF144
 8465 1fa6 01       		.byte	0x1
 8466 1fa7 6D       		.byte	0x6d
 8467 1fa8 20020000 		.4byte	0x220
 8468 1fac E0170000 		.4byte	.LLST179
 8469 1fb0 20       		.uleb128 0x20
 8470 1fb1 65040000 		.4byte	.LASF171
 8471 1fb5 01       		.byte	0x1
 8472 1fb6 6D       		.byte	0x6d
 8473 1fb7 9F000000 		.4byte	0x9f
 8474 1fbb 01180000 		.4byte	.LLST180
 8475 1fbf 20       		.uleb128 0x20
 8476 1fc0 45010000 		.4byte	.LASF172
 8477 1fc4 01       		.byte	0x1
 8478 1fc5 6D       		.byte	0x6d
 8479 1fc6 9F000000 		.4byte	0x9f
 8480 1fca 2D180000 		.4byte	.LLST181
 8481 1fce 20       		.uleb128 0x20
 8482 1fcf 9A080000 		.4byte	.LASF176
ARM GAS  C:\Users\rdn\AppData\Local\Temp\cco7w9JJ.s 			page 175


 8483 1fd3 01       		.byte	0x1
 8484 1fd4 6D       		.byte	0x6d
 8485 1fd5 9F000000 		.4byte	0x9f
 8486 1fd9 59180000 		.4byte	.LLST182
 8487 1fdd 20       		.uleb128 0x20
 8488 1fde 9C020000 		.4byte	.LASF177
 8489 1fe2 01       		.byte	0x1
 8490 1fe3 6D       		.byte	0x6d
 8491 1fe4 9F000000 		.4byte	0x9f
 8492 1fe8 85180000 		.4byte	.LLST183
 8493 1fec 21       		.uleb128 0x21
 8494 1fed 647400   		.ascii	"dt\000"
 8495 1ff0 01       		.byte	0x1
 8496 1ff1 6F       		.byte	0x6f
 8497 1ff2 EF000000 		.4byte	0xef
 8498 1ff6 B0180000 		.4byte	.LLST184
 8499 1ffa 21       		.uleb128 0x21
 8500 1ffb 737200   		.ascii	"sr\000"
 8501 1ffe 01       		.byte	0x1
 8502 1fff 70       		.byte	0x70
 8503 2000 1E010000 		.4byte	0x11e
 8504 2004 E4180000 		.4byte	.LLST185
 8505 2008 22       		.uleb128 0x22
 8506 2009 34090000 		.4byte	0x934
 8507 200d 56000000 		.4byte	.LBB193
 8508 2011 14000000 		.4byte	.LBE193-.LBB193
 8509 2015 01       		.byte	0x1
 8510 2016 78       		.byte	0x78
 8511 2017 2E200000 		.4byte	0x202e
 8512 201b 23       		.uleb128 0x23
 8513 201c 4E090000 		.4byte	0x94e
 8514 2020 39190000 		.4byte	.LLST186
 8515 2024 23       		.uleb128 0x23
 8516 2025 44090000 		.4byte	0x944
 8517 2029 4C190000 		.4byte	.LLST187
 8518 202d 00       		.byte	0
 8519 202e 22       		.uleb128 0x22
 8520 202f 34090000 		.4byte	0x934
 8521 2033 70000000 		.4byte	.LBB195
 8522 2037 14000000 		.4byte	.LBE195-.LBB195
 8523 203b 01       		.byte	0x1
 8524 203c 78       		.byte	0x78
 8525 203d 54200000 		.4byte	0x2054
 8526 2041 23       		.uleb128 0x23
 8527 2042 4E090000 		.4byte	0x94e
 8528 2046 5F190000 		.4byte	.LLST188
 8529 204a 23       		.uleb128 0x23
 8530 204b 44090000 		.4byte	0x944
 8531 204f 72190000 		.4byte	.LLST189
 8532 2053 00       		.byte	0
 8533 2054 22       		.uleb128 0x22
 8534 2055 59090000 		.4byte	0x959
 8535 2059 8A000000 		.4byte	.LBB197
 8536 205d 18000000 		.4byte	.LBE197-.LBB197
 8537 2061 01       		.byte	0x1
 8538 2062 78       		.byte	0x78
 8539 2063 7A200000 		.4byte	0x207a
ARM GAS  C:\Users\rdn\AppData\Local\Temp\cco7w9JJ.s 			page 176


 8540 2067 23       		.uleb128 0x23
 8541 2068 73090000 		.4byte	0x973
 8542 206c 85190000 		.4byte	.LLST190
 8543 2070 23       		.uleb128 0x23
 8544 2071 69090000 		.4byte	0x969
 8545 2075 98190000 		.4byte	.LLST191
 8546 2079 00       		.byte	0
 8547 207a 22       		.uleb128 0x22
 8548 207b 34090000 		.4byte	0x934
 8549 207f A8000000 		.4byte	.LBB199
 8550 2083 14000000 		.4byte	.LBE199-.LBB199
 8551 2087 01       		.byte	0x1
 8552 2088 78       		.byte	0x78
 8553 2089 A0200000 		.4byte	0x20a0
 8554 208d 23       		.uleb128 0x23
 8555 208e 4E090000 		.4byte	0x94e
 8556 2092 AB190000 		.4byte	.LLST192
 8557 2096 23       		.uleb128 0x23
 8558 2097 44090000 		.4byte	0x944
 8559 209b BE190000 		.4byte	.LLST193
 8560 209f 00       		.byte	0
 8561 20a0 22       		.uleb128 0x22
 8562 20a1 34090000 		.4byte	0x934
 8563 20a5 C2000000 		.4byte	.LBB201
 8564 20a9 14000000 		.4byte	.LBE201-.LBB201
 8565 20ad 01       		.byte	0x1
 8566 20ae 78       		.byte	0x78
 8567 20af C6200000 		.4byte	0x20c6
 8568 20b3 23       		.uleb128 0x23
 8569 20b4 4E090000 		.4byte	0x94e
 8570 20b8 D1190000 		.4byte	.LLST194
 8571 20bc 23       		.uleb128 0x23
 8572 20bd 44090000 		.4byte	0x944
 8573 20c1 EF190000 		.4byte	.LLST195
 8574 20c5 00       		.byte	0
 8575 20c6 22       		.uleb128 0x22
 8576 20c7 59090000 		.4byte	0x959
 8577 20cb DA000000 		.4byte	.LBB203
 8578 20cf 18000000 		.4byte	.LBE203-.LBB203
 8579 20d3 01       		.byte	0x1
 8580 20d4 78       		.byte	0x78
 8581 20d5 EC200000 		.4byte	0x20ec
 8582 20d9 23       		.uleb128 0x23
 8583 20da 73090000 		.4byte	0x973
 8584 20de 0D1A0000 		.4byte	.LLST196
 8585 20e2 23       		.uleb128 0x23
 8586 20e3 69090000 		.4byte	0x969
 8587 20e7 2B1A0000 		.4byte	.LLST197
 8588 20eb 00       		.byte	0
 8589 20ec 32       		.uleb128 0x32
 8590 20ed 14000000 		.4byte	.LVL402
 8591 20f1 A3090000 		.4byte	0x9a3
 8592 20f5 07210000 		.4byte	0x2107
 8593 20f9 33       		.uleb128 0x33
 8594 20fa 01       		.uleb128 0x1
 8595 20fb 50       		.byte	0x50
 8596 20fc 03       		.uleb128 0x3
ARM GAS  C:\Users\rdn\AppData\Local\Temp\cco7w9JJ.s 			page 177


 8597 20fd F3       		.byte	0xf3
 8598 20fe 01       		.uleb128 0x1
 8599 20ff 51       		.byte	0x51
 8600 2100 33       		.uleb128 0x33
 8601 2101 01       		.uleb128 0x1
 8602 2102 51       		.byte	0x51
 8603 2103 02       		.uleb128 0x2
 8604 2104 74       		.byte	0x74
 8605 2105 00       		.sleb128 0
 8606 2106 00       		.byte	0
 8607 2107 34       		.uleb128 0x34
 8608 2108 1E000000 		.4byte	.LVL405
 8609 210c D8090000 		.4byte	0x9d8
 8610 2110 33       		.uleb128 0x33
 8611 2111 01       		.uleb128 0x1
 8612 2112 50       		.byte	0x50
 8613 2113 02       		.uleb128 0x2
 8614 2114 77       		.byte	0x77
 8615 2115 00       		.sleb128 0
 8616 2116 33       		.uleb128 0x33
 8617 2117 01       		.uleb128 0x1
 8618 2118 51       		.byte	0x51
 8619 2119 02       		.uleb128 0x2
 8620 211a 74       		.byte	0x74
 8621 211b 00       		.sleb128 0
 8622 211c 00       		.byte	0
 8623 211d 00       		.byte	0
 8624 211e 3B       		.uleb128 0x3b
 8625 211f 6B090000 		.4byte	.LASF178
 8626 2123 01       		.byte	0x1
 8627 2124 7D       		.byte	0x7d
 8628 2125 9F000000 		.4byte	0x9f
 8629 2129 00000000 		.4byte	.LFB25
 8630 212d 18000000 		.4byte	.LFE25-.LFB25
 8631 2131 01       		.uleb128 0x1
 8632 2132 9C       		.byte	0x9c
 8633 2133 91210000 		.4byte	0x2191
 8634 2137 20       		.uleb128 0x20
 8635 2138 65040000 		.4byte	.LASF171
 8636 213c 01       		.byte	0x1
 8637 213d 7D       		.byte	0x7d
 8638 213e 9F000000 		.4byte	0x9f
 8639 2142 3E1A0000 		.4byte	.LLST198
 8640 2146 20       		.uleb128 0x20
 8641 2147 9A080000 		.4byte	.LASF176
 8642 214b 01       		.byte	0x1
 8643 214c 7D       		.byte	0x7d
 8644 214d 9F000000 		.4byte	0x9f
 8645 2151 6A1A0000 		.4byte	.LLST199
 8646 2155 20       		.uleb128 0x20
 8647 2156 9C020000 		.4byte	.LASF177
 8648 215a 01       		.byte	0x1
 8649 215b 7D       		.byte	0x7d
 8650 215c 9F000000 		.4byte	0x9f
 8651 2160 961A0000 		.4byte	.LLST200
 8652 2164 34       		.uleb128 0x34
 8653 2165 14000000 		.4byte	.LVL444
ARM GAS  C:\Users\rdn\AppData\Local\Temp\cco7w9JJ.s 			page 178


 8654 2169 881F0000 		.4byte	0x1f88
 8655 216d 33       		.uleb128 0x33
 8656 216e 01       		.uleb128 0x1
 8657 216f 50       		.byte	0x50
 8658 2170 01       		.uleb128 0x1
 8659 2171 30       		.byte	0x30
 8660 2172 33       		.uleb128 0x33
 8661 2173 01       		.uleb128 0x1
 8662 2174 51       		.byte	0x51
 8663 2175 03       		.uleb128 0x3
 8664 2176 F3       		.byte	0xf3
 8665 2177 01       		.uleb128 0x1
 8666 2178 50       		.byte	0x50
 8667 2179 33       		.uleb128 0x33
 8668 217a 01       		.uleb128 0x1
 8669 217b 52       		.byte	0x52
 8670 217c 03       		.uleb128 0x3
 8671 217d 0A       		.byte	0xa
 8672 217e 401F     		.2byte	0x1f40
 8673 2180 33       		.uleb128 0x33
 8674 2181 01       		.uleb128 0x1
 8675 2182 53       		.byte	0x53
 8676 2183 03       		.uleb128 0x3
 8677 2184 F3       		.byte	0xf3
 8678 2185 01       		.uleb128 0x1
 8679 2186 51       		.byte	0x51
 8680 2187 33       		.uleb128 0x33
 8681 2188 02       		.uleb128 0x2
 8682 2189 7D       		.byte	0x7d
 8683 218a 00       		.sleb128 0
 8684 218b 03       		.uleb128 0x3
 8685 218c F3       		.byte	0xf3
 8686 218d 01       		.uleb128 0x1
 8687 218e 52       		.byte	0x52
 8688 218f 00       		.byte	0
 8689 2190 00       		.byte	0
 8690 2191 3B       		.uleb128 0x3b
 8691 2192 56070000 		.4byte	.LASF179
 8692 2196 01       		.byte	0x1
 8693 2197 82       		.byte	0x82
 8694 2198 9F000000 		.4byte	0x9f
 8695 219c 00000000 		.4byte	.LFB26
 8696 21a0 10000000 		.4byte	.LFE26-.LFB26
 8697 21a4 01       		.uleb128 0x1
 8698 21a5 9C       		.byte	0x9c
 8699 21a6 0C220000 		.4byte	0x220c
 8700 21aa 20       		.uleb128 0x20
 8701 21ab 06060000 		.4byte	.LASF144
 8702 21af 01       		.byte	0x1
 8703 21b0 83       		.byte	0x83
 8704 21b1 20020000 		.4byte	0x220
 8705 21b5 C31A0000 		.4byte	.LLST201
 8706 21b9 20       		.uleb128 0x20
 8707 21ba 65040000 		.4byte	.LASF171
 8708 21be 01       		.byte	0x1
 8709 21bf 83       		.byte	0x83
 8710 21c0 9F000000 		.4byte	0x9f
ARM GAS  C:\Users\rdn\AppData\Local\Temp\cco7w9JJ.s 			page 179


 8711 21c4 E41A0000 		.4byte	.LLST202
 8712 21c8 20       		.uleb128 0x20
 8713 21c9 45010000 		.4byte	.LASF172
 8714 21cd 01       		.byte	0x1
 8715 21ce 83       		.byte	0x83
 8716 21cf 9F000000 		.4byte	0x9f
 8717 21d3 051B0000 		.4byte	.LLST203
 8718 21d7 20       		.uleb128 0x20
 8719 21d8 9C020000 		.4byte	.LASF177
 8720 21dc 01       		.byte	0x1
 8721 21dd 83       		.byte	0x83
 8722 21de 9F000000 		.4byte	0x9f
 8723 21e2 261B0000 		.4byte	.LLST204
 8724 21e6 34       		.uleb128 0x34
 8725 21e7 0C000000 		.4byte	.LVL447
 8726 21eb 881F0000 		.4byte	0x1f88
 8727 21ef 33       		.uleb128 0x33
 8728 21f0 01       		.uleb128 0x1
 8729 21f1 51       		.byte	0x51
 8730 21f2 03       		.uleb128 0x3
 8731 21f3 F3       		.byte	0xf3
 8732 21f4 01       		.uleb128 0x1
 8733 21f5 51       		.byte	0x51
 8734 21f6 33       		.uleb128 0x33
 8735 21f7 01       		.uleb128 0x1
 8736 21f8 52       		.byte	0x52
 8737 21f9 03       		.uleb128 0x3
 8738 21fa F3       		.byte	0xf3
 8739 21fb 01       		.uleb128 0x1
 8740 21fc 52       		.byte	0x52
 8741 21fd 33       		.uleb128 0x33
 8742 21fe 01       		.uleb128 0x1
 8743 21ff 53       		.byte	0x53
 8744 2200 01       		.uleb128 0x1
 8745 2201 31       		.byte	0x31
 8746 2202 33       		.uleb128 0x33
 8747 2203 02       		.uleb128 0x2
 8748 2204 7D       		.byte	0x7d
 8749 2205 00       		.sleb128 0
 8750 2206 03       		.uleb128 0x3
 8751 2207 F3       		.byte	0xf3
 8752 2208 01       		.uleb128 0x1
 8753 2209 53       		.byte	0x53
 8754 220a 00       		.byte	0
 8755 220b 00       		.byte	0
 8756 220c 3B       		.uleb128 0x3b
 8757 220d 28050000 		.4byte	.LASF180
 8758 2211 01       		.byte	0x1
 8759 2212 88       		.byte	0x88
 8760 2213 9F000000 		.4byte	0x9f
 8761 2217 00000000 		.4byte	.LFB27
 8762 221b 12000000 		.4byte	.LFE27-.LFB27
 8763 221f 01       		.uleb128 0x1
 8764 2220 9C       		.byte	0x9c
 8765 2221 68220000 		.4byte	0x2268
 8766 2225 20       		.uleb128 0x20
 8767 2226 65040000 		.4byte	.LASF171
ARM GAS  C:\Users\rdn\AppData\Local\Temp\cco7w9JJ.s 			page 180


 8768 222a 01       		.byte	0x1
 8769 222b 88       		.byte	0x88
 8770 222c 9F000000 		.4byte	0x9f
 8771 2230 531B0000 		.4byte	.LLST205
 8772 2234 20       		.uleb128 0x20
 8773 2235 9C020000 		.4byte	.LASF177
 8774 2239 01       		.byte	0x1
 8775 223a 88       		.byte	0x88
 8776 223b 9F000000 		.4byte	0x9f
 8777 223f 7F1B0000 		.4byte	.LLST206
 8778 2243 34       		.uleb128 0x34
 8779 2244 10000000 		.4byte	.LVL451
 8780 2248 91210000 		.4byte	0x2191
 8781 224c 33       		.uleb128 0x33
 8782 224d 01       		.uleb128 0x1
 8783 224e 50       		.byte	0x50
 8784 224f 01       		.uleb128 0x1
 8785 2250 30       		.byte	0x30
 8786 2251 33       		.uleb128 0x33
 8787 2252 01       		.uleb128 0x1
 8788 2253 51       		.byte	0x51
 8789 2254 03       		.uleb128 0x3
 8790 2255 F3       		.byte	0xf3
 8791 2256 01       		.uleb128 0x1
 8792 2257 50       		.byte	0x50
 8793 2258 33       		.uleb128 0x33
 8794 2259 01       		.uleb128 0x1
 8795 225a 52       		.byte	0x52
 8796 225b 03       		.uleb128 0x3
 8797 225c 0A       		.byte	0xa
 8798 225d 401F     		.2byte	0x1f40
 8799 225f 33       		.uleb128 0x33
 8800 2260 01       		.uleb128 0x1
 8801 2261 53       		.byte	0x53
 8802 2262 03       		.uleb128 0x3
 8803 2263 F3       		.byte	0xf3
 8804 2264 01       		.uleb128 0x1
 8805 2265 51       		.byte	0x51
 8806 2266 00       		.byte	0
 8807 2267 00       		.byte	0
 8808 2268 3C       		.uleb128 0x3c
 8809 2269 B4060000 		.4byte	.LASF181
 8810 226d 01       		.byte	0x1
 8811 226e 90       		.byte	0x90
 8812 226f 9F000000 		.4byte	0x9f
 8813 2273 00000000 		.4byte	.LFB28
 8814 2277 6C000000 		.4byte	.LFE28-.LFB28
 8815 227b 01       		.uleb128 0x1
 8816 227c 9C       		.byte	0x9c
 8817 227d 0C230000 		.4byte	0x230c
 8818 2281 20       		.uleb128 0x20
 8819 2282 06060000 		.4byte	.LASF144
 8820 2286 01       		.byte	0x1
 8821 2287 91       		.byte	0x91
 8822 2288 20020000 		.4byte	0x220
 8823 228c AB1B0000 		.4byte	.LLST207
 8824 2290 20       		.uleb128 0x20
ARM GAS  C:\Users\rdn\AppData\Local\Temp\cco7w9JJ.s 			page 181


 8825 2291 65040000 		.4byte	.LASF171
 8826 2295 01       		.byte	0x1
 8827 2296 91       		.byte	0x91
 8828 2297 9F000000 		.4byte	0x9f
 8829 229b CC1B0000 		.4byte	.LLST208
 8830 229f 20       		.uleb128 0x20
 8831 22a0 45010000 		.4byte	.LASF172
 8832 22a4 01       		.byte	0x1
 8833 22a5 91       		.byte	0x91
 8834 22a6 9F000000 		.4byte	0x9f
 8835 22aa F81B0000 		.4byte	.LLST209
 8836 22ae 20       		.uleb128 0x20
 8837 22af 12030000 		.4byte	.LASF160
 8838 22b3 01       		.byte	0x1
 8839 22b4 91       		.byte	0x91
 8840 22b5 9F000000 		.4byte	0x9f
 8841 22b9 171C0000 		.4byte	.LLST210
 8842 22bd 21       		.uleb128 0x21
 8843 22be 647400   		.ascii	"dt\000"
 8844 22c1 01       		.byte	0x1
 8845 22c2 93       		.byte	0x93
 8846 22c3 EF000000 		.4byte	0xef
 8847 22c7 431C0000 		.4byte	.LLST211
 8848 22cb 21       		.uleb128 0x21
 8849 22cc 737200   		.ascii	"sr\000"
 8850 22cf 01       		.byte	0x1
 8851 22d0 94       		.byte	0x94
 8852 22d1 1E010000 		.4byte	0x11e
 8853 22d5 561C0000 		.4byte	.LLST212
 8854 22d9 32       		.uleb128 0x32
 8855 22da 12000000 		.4byte	.LVL455
 8856 22de A3090000 		.4byte	0x9a3
 8857 22e2 F4220000 		.4byte	0x22f4
 8858 22e6 33       		.uleb128 0x33
 8859 22e7 01       		.uleb128 0x1
 8860 22e8 50       		.byte	0x50
 8861 22e9 03       		.uleb128 0x3
 8862 22ea F3       		.byte	0xf3
 8863 22eb 01       		.uleb128 0x1
 8864 22ec 51       		.byte	0x51
 8865 22ed 33       		.uleb128 0x33
 8866 22ee 01       		.uleb128 0x1
 8867 22ef 51       		.byte	0x51
 8868 22f0 02       		.uleb128 0x2
 8869 22f1 76       		.byte	0x76
 8870 22f2 00       		.sleb128 0
 8871 22f3 00       		.byte	0
 8872 22f4 34       		.uleb128 0x34
 8873 22f5 1C000000 		.4byte	.LVL457
 8874 22f9 D8090000 		.4byte	0x9d8
 8875 22fd 33       		.uleb128 0x33
 8876 22fe 01       		.uleb128 0x1
 8877 22ff 50       		.byte	0x50
 8878 2300 03       		.uleb128 0x3
 8879 2301 91       		.byte	0x91
 8880 2302 64       		.sleb128 -28
 8881 2303 06       		.byte	0x6
ARM GAS  C:\Users\rdn\AppData\Local\Temp\cco7w9JJ.s 			page 182


 8882 2304 33       		.uleb128 0x33
 8883 2305 01       		.uleb128 0x1
 8884 2306 51       		.byte	0x51
 8885 2307 02       		.uleb128 0x2
 8886 2308 76       		.byte	0x76
 8887 2309 00       		.sleb128 0
 8888 230a 00       		.byte	0
 8889 230b 00       		.byte	0
 8890 230c 3B       		.uleb128 0x3b
 8891 230d 7F030000 		.4byte	.LASF182
 8892 2311 01       		.byte	0x1
 8893 2312 9C       		.byte	0x9c
 8894 2313 9F000000 		.4byte	0x9f
 8895 2317 00000000 		.4byte	.LFB29
 8896 231b 12000000 		.4byte	.LFE29-.LFB29
 8897 231f 01       		.uleb128 0x1
 8898 2320 9C       		.byte	0x9c
 8899 2321 68230000 		.4byte	0x2368
 8900 2325 20       		.uleb128 0x20
 8901 2326 65040000 		.4byte	.LASF171
 8902 232a 01       		.byte	0x1
 8903 232b 9C       		.byte	0x9c
 8904 232c 9F000000 		.4byte	0x9f
 8905 2330 8A1C0000 		.4byte	.LLST213
 8906 2334 20       		.uleb128 0x20
 8907 2335 12030000 		.4byte	.LASF160
 8908 2339 01       		.byte	0x1
 8909 233a 9C       		.byte	0x9c
 8910 233b 9F000000 		.4byte	0x9f
 8911 233f B61C0000 		.4byte	.LLST214
 8912 2343 34       		.uleb128 0x34
 8913 2344 10000000 		.4byte	.LVL472
 8914 2348 68220000 		.4byte	0x2268
 8915 234c 33       		.uleb128 0x33
 8916 234d 01       		.uleb128 0x1
 8917 234e 50       		.byte	0x50
 8918 234f 01       		.uleb128 0x1
 8919 2350 30       		.byte	0x30
 8920 2351 33       		.uleb128 0x33
 8921 2352 01       		.uleb128 0x1
 8922 2353 51       		.byte	0x51
 8923 2354 03       		.uleb128 0x3
 8924 2355 F3       		.byte	0xf3
 8925 2356 01       		.uleb128 0x1
 8926 2357 50       		.byte	0x50
 8927 2358 33       		.uleb128 0x33
 8928 2359 01       		.uleb128 0x1
 8929 235a 52       		.byte	0x52
 8930 235b 03       		.uleb128 0x3
 8931 235c 0A       		.byte	0xa
 8932 235d 401F     		.2byte	0x1f40
 8933 235f 33       		.uleb128 0x33
 8934 2360 01       		.uleb128 0x1
 8935 2361 53       		.byte	0x53
 8936 2362 03       		.uleb128 0x3
 8937 2363 F3       		.byte	0xf3
 8938 2364 01       		.uleb128 0x1
ARM GAS  C:\Users\rdn\AppData\Local\Temp\cco7w9JJ.s 			page 183


 8939 2365 51       		.byte	0x51
 8940 2366 00       		.byte	0
 8941 2367 00       		.byte	0
 8942 2368 3B       		.uleb128 0x3b
 8943 2369 94090000 		.4byte	.LASF183
 8944 236d 01       		.byte	0x1
 8945 236e A4       		.byte	0xa4
 8946 236f 9F000000 		.4byte	0x9f
 8947 2373 00000000 		.4byte	.LFB30
 8948 2377 54000000 		.4byte	.LFE30-.LFB30
 8949 237b 01       		.uleb128 0x1
 8950 237c 9C       		.byte	0x9c
 8951 237d 44240000 		.4byte	0x2444
 8952 2381 20       		.uleb128 0x20
 8953 2382 06060000 		.4byte	.LASF144
 8954 2386 01       		.byte	0x1
 8955 2387 A4       		.byte	0xa4
 8956 2388 20020000 		.4byte	0x220
 8957 238c E21C0000 		.4byte	.LLST215
 8958 2390 20       		.uleb128 0x20
 8959 2391 65040000 		.4byte	.LASF171
 8960 2395 01       		.byte	0x1
 8961 2396 A4       		.byte	0xa4
 8962 2397 9F000000 		.4byte	0x9f
 8963 239b 031D0000 		.4byte	.LLST216
 8964 239f 20       		.uleb128 0x20
 8965 23a0 45010000 		.4byte	.LASF172
 8966 23a4 01       		.byte	0x1
 8967 23a5 A4       		.byte	0xa4
 8968 23a6 9F000000 		.4byte	0x9f
 8969 23aa 2F1D0000 		.4byte	.LLST217
 8970 23ae 21       		.uleb128 0x21
 8971 23af 647400   		.ascii	"dt\000"
 8972 23b2 01       		.byte	0x1
 8973 23b3 A6       		.byte	0xa6
 8974 23b4 EF000000 		.4byte	0xef
 8975 23b8 5B1D0000 		.4byte	.LLST218
 8976 23bc 21       		.uleb128 0x21
 8977 23bd 737200   		.ascii	"sr\000"
 8978 23c0 01       		.byte	0x1
 8979 23c1 A7       		.byte	0xa7
 8980 23c2 1E010000 		.4byte	0x11e
 8981 23c6 791D0000 		.4byte	.LLST219
 8982 23ca 22       		.uleb128 0x22
 8983 23cb 7E090000 		.4byte	0x97e
 8984 23cf 22000000 		.4byte	.LBB205
 8985 23d3 18000000 		.4byte	.LBE205-.LBB205
 8986 23d7 01       		.byte	0x1
 8987 23d8 AC       		.byte	0xac
 8988 23d9 12240000 		.4byte	0x2412
 8989 23dd 23       		.uleb128 0x23
 8990 23de 98090000 		.4byte	0x998
 8991 23e2 A21D0000 		.4byte	.LLST220
 8992 23e6 23       		.uleb128 0x23
 8993 23e7 8E090000 		.4byte	0x98e
 8994 23eb B51D0000 		.4byte	.LLST221
 8995 23ef 26       		.uleb128 0x26
ARM GAS  C:\Users\rdn\AppData\Local\Temp\cco7w9JJ.s 			page 184


 8996 23f0 C9070000 		.4byte	0x7c9
 8997 23f4 22000000 		.4byte	.LBB207
 8998 23f8 0A000000 		.4byte	.LBE207-.LBB207
 8999 23fc 02       		.byte	0x2
 9000 23fd 37       		.byte	0x37
 9001 23fe 23       		.uleb128 0x23
 9002 23ff E3070000 		.4byte	0x7e3
 9003 2403 C81D0000 		.4byte	.LLST222
 9004 2407 23       		.uleb128 0x23
 9005 2408 D9070000 		.4byte	0x7d9
 9006 240c B51D0000 		.4byte	.LLST221
 9007 2410 00       		.byte	0
 9008 2411 00       		.byte	0
 9009 2412 32       		.uleb128 0x32
 9010 2413 0E000000 		.4byte	.LVL476
 9011 2417 A3090000 		.4byte	0x9a3
 9012 241b 2D240000 		.4byte	0x242d
 9013 241f 33       		.uleb128 0x33
 9014 2420 01       		.uleb128 0x1
 9015 2421 50       		.byte	0x50
 9016 2422 03       		.uleb128 0x3
 9017 2423 F3       		.byte	0xf3
 9018 2424 01       		.uleb128 0x1
 9019 2425 51       		.byte	0x51
 9020 2426 33       		.uleb128 0x33
 9021 2427 01       		.uleb128 0x1
 9022 2428 51       		.byte	0x51
 9023 2429 02       		.uleb128 0x2
 9024 242a 76       		.byte	0x76
 9025 242b 00       		.sleb128 0
 9026 242c 00       		.byte	0
 9027 242d 34       		.uleb128 0x34
 9028 242e 1A000000 		.4byte	.LVL478
 9029 2432 D8090000 		.4byte	0x9d8
 9030 2436 33       		.uleb128 0x33
 9031 2437 01       		.uleb128 0x1
 9032 2438 50       		.byte	0x50
 9033 2439 02       		.uleb128 0x2
 9034 243a 77       		.byte	0x77
 9035 243b 00       		.sleb128 0
 9036 243c 33       		.uleb128 0x33
 9037 243d 01       		.uleb128 0x1
 9038 243e 51       		.byte	0x51
 9039 243f 02       		.uleb128 0x2
 9040 2440 76       		.byte	0x76
 9041 2441 00       		.sleb128 0
 9042 2442 00       		.byte	0
 9043 2443 00       		.byte	0
 9044 2444 3B       		.uleb128 0x3b
 9045 2445 F30A0000 		.4byte	.LASF184
 9046 2449 01       		.byte	0x1
 9047 244a AF       		.byte	0xaf
 9048 244b 9F000000 		.4byte	0x9f
 9049 244f 00000000 		.4byte	.LFB31
 9050 2453 0E000000 		.4byte	.LFE31-.LFB31
 9051 2457 01       		.uleb128 0x1
 9052 2458 9C       		.byte	0x9c
ARM GAS  C:\Users\rdn\AppData\Local\Temp\cco7w9JJ.s 			page 185


 9053 2459 99240000 		.4byte	0x2499
 9054 245d 20       		.uleb128 0x20
 9055 245e 65040000 		.4byte	.LASF171
 9056 2462 01       		.byte	0x1
 9057 2463 AF       		.byte	0xaf
 9058 2464 9F000000 		.4byte	0x9f
 9059 2468 DB1D0000 		.4byte	.LLST224
 9060 246c 20       		.uleb128 0x20
 9061 246d 45010000 		.4byte	.LASF172
 9062 2471 01       		.byte	0x1
 9063 2472 AF       		.byte	0xaf
 9064 2473 9F000000 		.4byte	0x9f
 9065 2477 071E0000 		.4byte	.LLST225
 9066 247b 34       		.uleb128 0x34
 9067 247c 0C000000 		.4byte	.LVL492
 9068 2480 68230000 		.4byte	0x2368
 9069 2484 33       		.uleb128 0x33
 9070 2485 01       		.uleb128 0x1
 9071 2486 50       		.byte	0x50
 9072 2487 01       		.uleb128 0x1
 9073 2488 30       		.byte	0x30
 9074 2489 33       		.uleb128 0x33
 9075 248a 01       		.uleb128 0x1
 9076 248b 51       		.byte	0x51
 9077 248c 03       		.uleb128 0x3
 9078 248d F3       		.byte	0xf3
 9079 248e 01       		.uleb128 0x1
 9080 248f 50       		.byte	0x50
 9081 2490 33       		.uleb128 0x33
 9082 2491 01       		.uleb128 0x1
 9083 2492 52       		.byte	0x52
 9084 2493 03       		.uleb128 0x3
 9085 2494 F3       		.byte	0xf3
 9086 2495 01       		.uleb128 0x1
 9087 2496 51       		.byte	0x51
 9088 2497 00       		.byte	0
 9089 2498 00       		.byte	0
 9090 2499 3D       		.uleb128 0x3d
 9091 249a 1A090000 		.4byte	.LASF185
 9092 249e 01       		.byte	0x1
 9093 249f 7301     		.2byte	0x173
 9094 24a1 A6000000 		.4byte	0xa6
 9095 24a5 00000000 		.4byte	.LFB38
 9096 24a9 88000000 		.4byte	.LFE38-.LFB38
 9097 24ad 01       		.uleb128 0x1
 9098 24ae 9C       		.byte	0x9c
 9099 24af 14250000 		.4byte	0x2514
 9100 24b3 29       		.uleb128 0x29
 9101 24b4 06060000 		.4byte	.LASF144
 9102 24b8 01       		.byte	0x1
 9103 24b9 7301     		.2byte	0x173
 9104 24bb 20020000 		.4byte	0x220
 9105 24bf 331E0000 		.4byte	.LLST226
 9106 24c3 29       		.uleb128 0x29
 9107 24c4 65040000 		.4byte	.LASF171
 9108 24c8 01       		.byte	0x1
 9109 24c9 7301     		.2byte	0x173
ARM GAS  C:\Users\rdn\AppData\Local\Temp\cco7w9JJ.s 			page 186


 9110 24cb 9F000000 		.4byte	0x9f
 9111 24cf 541E0000 		.4byte	.LLST227
 9112 24d3 29       		.uleb128 0x29
 9113 24d4 45010000 		.4byte	.LASF172
 9114 24d8 01       		.byte	0x1
 9115 24d9 7301     		.2byte	0x173
 9116 24db 9F000000 		.4byte	0x9f
 9117 24df 801E0000 		.4byte	.LLST228
 9118 24e3 32       		.uleb128 0x32
 9119 24e4 10000000 		.4byte	.LVL496
 9120 24e8 A3090000 		.4byte	0x9a3
 9121 24ec FD240000 		.4byte	0x24fd
 9122 24f0 33       		.uleb128 0x33
 9123 24f1 01       		.uleb128 0x1
 9124 24f2 50       		.byte	0x50
 9125 24f3 02       		.uleb128 0x2
 9126 24f4 75       		.byte	0x75
 9127 24f5 00       		.sleb128 0
 9128 24f6 33       		.uleb128 0x33
 9129 24f7 01       		.uleb128 0x1
 9130 24f8 51       		.byte	0x51
 9131 24f9 02       		.uleb128 0x2
 9132 24fa 76       		.byte	0x76
 9133 24fb 00       		.sleb128 0
 9134 24fc 00       		.byte	0
 9135 24fd 34       		.uleb128 0x34
 9136 24fe 1C000000 		.4byte	.LVL497
 9137 2502 D8090000 		.4byte	0x9d8
 9138 2506 33       		.uleb128 0x33
 9139 2507 01       		.uleb128 0x1
 9140 2508 50       		.byte	0x50
 9141 2509 02       		.uleb128 0x2
 9142 250a 74       		.byte	0x74
 9143 250b 00       		.sleb128 0
 9144 250c 33       		.uleb128 0x33
 9145 250d 01       		.uleb128 0x1
 9146 250e 51       		.byte	0x51
 9147 250f 02       		.uleb128 0x2
 9148 2510 76       		.byte	0x76
 9149 2511 00       		.sleb128 0
 9150 2512 00       		.byte	0
 9151 2513 00       		.byte	0
 9152 2514 3E       		.uleb128 0x3e
 9153 2515 F3020000 		.4byte	.LASF186
 9154 2519 01       		.byte	0x1
 9155 251a 7D01     		.2byte	0x17d
 9156 251c A6000000 		.4byte	0xa6
 9157 2520 00000000 		.4byte	.LFB39
 9158 2524 0E000000 		.4byte	.LFE39-.LFB39
 9159 2528 01       		.uleb128 0x1
 9160 2529 9C       		.byte	0x9c
 9161 252a 6C250000 		.4byte	0x256c
 9162 252e 29       		.uleb128 0x29
 9163 252f 65040000 		.4byte	.LASF171
 9164 2533 01       		.byte	0x1
 9165 2534 7D01     		.2byte	0x17d
 9166 2536 9F000000 		.4byte	0x9f
ARM GAS  C:\Users\rdn\AppData\Local\Temp\cco7w9JJ.s 			page 187


 9167 253a AC1E0000 		.4byte	.LLST229
 9168 253e 29       		.uleb128 0x29
 9169 253f 45010000 		.4byte	.LASF172
 9170 2543 01       		.byte	0x1
 9171 2544 7D01     		.2byte	0x17d
 9172 2546 9F000000 		.4byte	0x9f
 9173 254a D81E0000 		.4byte	.LLST230
 9174 254e 34       		.uleb128 0x34
 9175 254f 0C000000 		.4byte	.LVL507
 9176 2553 99240000 		.4byte	0x2499
 9177 2557 33       		.uleb128 0x33
 9178 2558 01       		.uleb128 0x1
 9179 2559 50       		.byte	0x50
 9180 255a 01       		.uleb128 0x1
 9181 255b 30       		.byte	0x30
 9182 255c 33       		.uleb128 0x33
 9183 255d 01       		.uleb128 0x1
 9184 255e 51       		.byte	0x51
 9185 255f 03       		.uleb128 0x3
 9186 2560 F3       		.byte	0xf3
 9187 2561 01       		.uleb128 0x1
 9188 2562 50       		.byte	0x50
 9189 2563 33       		.uleb128 0x33
 9190 2564 01       		.uleb128 0x1
 9191 2565 52       		.byte	0x52
 9192 2566 03       		.uleb128 0x3
 9193 2567 F3       		.byte	0xf3
 9194 2568 01       		.uleb128 0x1
 9195 2569 51       		.byte	0x51
 9196 256a 00       		.byte	0
 9197 256b 00       		.byte	0
 9198 256c 3D       		.uleb128 0x3d
 9199 256d 32080000 		.4byte	.LASF187
 9200 2571 01       		.byte	0x1
 9201 2572 8501     		.2byte	0x185
 9202 2574 82040000 		.4byte	0x482
 9203 2578 00000000 		.4byte	.LFB40
 9204 257c 24010000 		.4byte	.LFE40-.LFB40
 9205 2580 01       		.uleb128 0x1
 9206 2581 9C       		.byte	0x9c
 9207 2582 F3260000 		.4byte	0x26f3
 9208 2586 29       		.uleb128 0x29
 9209 2587 06060000 		.4byte	.LASF144
 9210 258b 01       		.byte	0x1
 9211 258c 8601     		.2byte	0x186
 9212 258e 20020000 		.4byte	0x220
 9213 2592 041F0000 		.4byte	.LLST231
 9214 2596 29       		.uleb128 0x29
 9215 2597 65040000 		.4byte	.LASF171
 9216 259b 01       		.byte	0x1
 9217 259c 8601     		.2byte	0x186
 9218 259e 9F000000 		.4byte	0x9f
 9219 25a2 251F0000 		.4byte	.LLST232
 9220 25a6 29       		.uleb128 0x29
 9221 25a7 45010000 		.4byte	.LASF172
 9222 25ab 01       		.byte	0x1
 9223 25ac 8601     		.2byte	0x186
ARM GAS  C:\Users\rdn\AppData\Local\Temp\cco7w9JJ.s 			page 188


 9224 25ae 9F000000 		.4byte	0x9f
 9225 25b2 501F0000 		.4byte	.LLST233
 9226 25b6 29       		.uleb128 0x29
 9227 25b7 00020000 		.4byte	.LASF188
 9228 25bb 01       		.byte	0x1
 9229 25bc 8601     		.2byte	0x186
 9230 25be 9F000000 		.4byte	0x9f
 9231 25c2 7D1F0000 		.4byte	.LLST234
 9232 25c6 3F       		.uleb128 0x3f
 9233 25c7 6D656D00 		.ascii	"mem\000"
 9234 25cb 01       		.byte	0x1
 9235 25cc 8601     		.2byte	0x186
 9236 25ce 95040000 		.4byte	0x495
 9237 25d2 02       		.uleb128 0x2
 9238 25d3 91       		.byte	0x91
 9239 25d4 00       		.sleb128 0
 9240 25d5 2A       		.uleb128 0x2a
 9241 25d6 647400   		.ascii	"dt\000"
 9242 25d9 01       		.byte	0x1
 9243 25da 8B01     		.2byte	0x18b
 9244 25dc EF000000 		.4byte	0xef
 9245 25e0 9B1F0000 		.4byte	.LLST235
 9246 25e4 31       		.uleb128 0x31
 9247 25e5 737200   		.ascii	"sr\000"
 9248 25e8 01       		.byte	0x1
 9249 25e9 8C01     		.2byte	0x18c
 9250 25eb 1E010000 		.4byte	0x11e
 9251 25ef 02       		.uleb128 0x2
 9252 25f0 91       		.byte	0x91
 9253 25f1 5C       		.sleb128 -36
 9254 25f2 30       		.uleb128 0x30
 9255 25f3 AE020000 		.4byte	.LASF55
 9256 25f7 01       		.byte	0x1
 9257 25f8 8D01     		.2byte	0x18d
 9258 25fa 1E010000 		.4byte	0x11e
 9259 25fe B91F0000 		.4byte	.LLST236
 9260 2602 30       		.uleb128 0x30
 9261 2603 DC030000 		.4byte	.LASF147
 9262 2607 01       		.byte	0x1
 9263 2608 9201     		.2byte	0x192
 9264 260a 82040000 		.4byte	0x482
 9265 260e F81F0000 		.4byte	.LLST237
 9266 2612 2B       		.uleb128 0x2b
 9267 2613 6E7300   		.ascii	"ns\000"
 9268 2616 01       		.byte	0x1
 9269 2617 9301     		.2byte	0x193
 9270 2619 9F000000 		.4byte	0x9f
 9271 261d 2B       		.uleb128 0x2b
 9272 261e 6E7400   		.ascii	"nt\000"
 9273 2621 01       		.byte	0x1
 9274 2622 9401     		.2byte	0x194
 9275 2624 9F000000 		.4byte	0x9f
 9276 2628 2C       		.uleb128 0x2c
 9277 2629 C9070000 		.4byte	0x7c9
 9278 262d 4A000000 		.4byte	.LBB209
 9279 2631 0A000000 		.4byte	.LBE209-.LBB209
 9280 2635 01       		.byte	0x1
ARM GAS  C:\Users\rdn\AppData\Local\Temp\cco7w9JJ.s 			page 189


 9281 2636 9301     		.2byte	0x193
 9282 2638 4F260000 		.4byte	0x264f
 9283 263c 23       		.uleb128 0x23
 9284 263d E3070000 		.4byte	0x7e3
 9285 2641 0B200000 		.4byte	.LLST238
 9286 2645 23       		.uleb128 0x23
 9287 2646 D9070000 		.4byte	0x7d9
 9288 264a 1E200000 		.4byte	.LLST239
 9289 264e 00       		.byte	0
 9290 264f 2C       		.uleb128 0x2c
 9291 2650 78080000 		.4byte	0x878
 9292 2654 54000000 		.4byte	.LBB211
 9293 2658 04000000 		.4byte	.LBE211-.LBB211
 9294 265c 01       		.byte	0x1
 9295 265d 9401     		.2byte	0x194
 9296 265f 6D260000 		.4byte	0x266d
 9297 2663 23       		.uleb128 0x23
 9298 2664 88080000 		.4byte	0x888
 9299 2668 31200000 		.4byte	.LLST240
 9300 266c 00       		.byte	0
 9301 266d 32       		.uleb128 0x32
 9302 266e 22000000 		.4byte	.LVL512
 9303 2672 A3090000 		.4byte	0x9a3
 9304 2676 88260000 		.4byte	0x2688
 9305 267a 33       		.uleb128 0x33
 9306 267b 01       		.uleb128 0x1
 9307 267c 50       		.byte	0x50
 9308 267d 03       		.uleb128 0x3
 9309 267e 7D       		.byte	0x7d
 9310 267f 00       		.sleb128 0
 9311 2680 06       		.byte	0x6
 9312 2681 33       		.uleb128 0x33
 9313 2682 01       		.uleb128 0x1
 9314 2683 51       		.byte	0x51
 9315 2684 02       		.uleb128 0x2
 9316 2685 75       		.byte	0x75
 9317 2686 00       		.sleb128 0
 9318 2687 00       		.byte	0
 9319 2688 32       		.uleb128 0x32
 9320 2689 2C000000 		.4byte	.LVL514
 9321 268d D8090000 		.4byte	0x9d8
 9322 2691 A3260000 		.4byte	0x26a3
 9323 2695 33       		.uleb128 0x33
 9324 2696 01       		.uleb128 0x1
 9325 2697 50       		.byte	0x50
 9326 2698 03       		.uleb128 0x3
 9327 2699 91       		.byte	0x91
 9328 269a 5C       		.sleb128 -36
 9329 269b 06       		.byte	0x6
 9330 269c 33       		.uleb128 0x33
 9331 269d 01       		.uleb128 0x1
 9332 269e 51       		.byte	0x51
 9333 269f 02       		.uleb128 0x2
 9334 26a0 75       		.byte	0x75
 9335 26a1 00       		.sleb128 0
 9336 26a2 00       		.byte	0
 9337 26a3 32       		.uleb128 0x32
ARM GAS  C:\Users\rdn\AppData\Local\Temp\cco7w9JJ.s 			page 190


 9338 26a4 38000000 		.4byte	.LVL517
 9339 26a8 D8090000 		.4byte	0x9d8
 9340 26ac BD260000 		.4byte	0x26bd
 9341 26b0 33       		.uleb128 0x33
 9342 26b1 01       		.uleb128 0x1
 9343 26b2 50       		.byte	0x50
 9344 26b3 02       		.uleb128 0x2
 9345 26b4 76       		.byte	0x76
 9346 26b5 00       		.sleb128 0
 9347 26b6 33       		.uleb128 0x33
 9348 26b7 01       		.uleb128 0x1
 9349 26b8 51       		.byte	0x51
 9350 26b9 02       		.uleb128 0x2
 9351 26ba 75       		.byte	0x75
 9352 26bb 00       		.sleb128 0
 9353 26bc 00       		.byte	0
 9354 26bd 32       		.uleb128 0x32
 9355 26be 72000000 		.4byte	.LVL523
 9356 26c2 302F0000 		.4byte	0x2f30
 9357 26c6 DD260000 		.4byte	0x26dd
 9358 26ca 33       		.uleb128 0x33
 9359 26cb 01       		.uleb128 0x1
 9360 26cc 50       		.byte	0x50
 9361 26cd 02       		.uleb128 0x2
 9362 26ce 74       		.byte	0x74
 9363 26cf 00       		.sleb128 0
 9364 26d0 33       		.uleb128 0x33
 9365 26d1 01       		.uleb128 0x1
 9366 26d2 51       		.byte	0x51
 9367 26d3 01       		.uleb128 0x1
 9368 26d4 30       		.byte	0x30
 9369 26d5 33       		.uleb128 0x33
 9370 26d6 01       		.uleb128 0x1
 9371 26d7 52       		.byte	0x52
 9372 26d8 03       		.uleb128 0x3
 9373 26d9 0A       		.byte	0xa
 9374 26da B004     		.2byte	0x4b0
 9375 26dc 00       		.byte	0
 9376 26dd 34       		.uleb128 0x34
 9377 26de E8000000 		.4byte	.LVL529
 9378 26e2 302F0000 		.4byte	0x2f30
 9379 26e6 33       		.uleb128 0x33
 9380 26e7 01       		.uleb128 0x1
 9381 26e8 50       		.byte	0x50
 9382 26e9 02       		.uleb128 0x2
 9383 26ea 79       		.byte	0x79
 9384 26eb 00       		.sleb128 0
 9385 26ec 33       		.uleb128 0x33
 9386 26ed 01       		.uleb128 0x1
 9387 26ee 51       		.byte	0x51
 9388 26ef 01       		.uleb128 0x1
 9389 26f0 30       		.byte	0x30
 9390 26f1 00       		.byte	0
 9391 26f2 00       		.byte	0
 9392 26f3 3E       		.uleb128 0x3e
 9393 26f4 9E0A0000 		.4byte	.LASF189
 9394 26f8 01       		.byte	0x1
ARM GAS  C:\Users\rdn\AppData\Local\Temp\cco7w9JJ.s 			page 191


 9395 26f9 A501     		.2byte	0x1a5
 9396 26fb 82040000 		.4byte	0x482
 9397 26ff 00000000 		.4byte	.LFB41
 9398 2703 16000000 		.4byte	.LFE41-.LFB41
 9399 2707 01       		.uleb128 0x1
 9400 2708 9C       		.byte	0x9c
 9401 2709 7A270000 		.4byte	0x277a
 9402 270d 29       		.uleb128 0x29
 9403 270e 65040000 		.4byte	.LASF171
 9404 2712 01       		.byte	0x1
 9405 2713 A601     		.2byte	0x1a6
 9406 2715 9F000000 		.4byte	0x9f
 9407 2719 44200000 		.4byte	.LLST241
 9408 271d 29       		.uleb128 0x29
 9409 271e 45010000 		.4byte	.LASF172
 9410 2722 01       		.byte	0x1
 9411 2723 A601     		.2byte	0x1a6
 9412 2725 9F000000 		.4byte	0x9f
 9413 2729 70200000 		.4byte	.LLST242
 9414 272d 29       		.uleb128 0x29
 9415 272e 00020000 		.4byte	.LASF188
 9416 2732 01       		.byte	0x1
 9417 2733 A601     		.2byte	0x1a6
 9418 2735 9F000000 		.4byte	0x9f
 9419 2739 9C200000 		.4byte	.LLST243
 9420 273d 40       		.uleb128 0x40
 9421 273e 6D656D00 		.ascii	"mem\000"
 9422 2742 01       		.byte	0x1
 9423 2743 A601     		.2byte	0x1a6
 9424 2745 95040000 		.4byte	0x495
 9425 2749 C8200000 		.4byte	.LLST244
 9426 274d 34       		.uleb128 0x34
 9427 274e 12000000 		.4byte	.LVL545
 9428 2752 6C250000 		.4byte	0x256c
 9429 2756 33       		.uleb128 0x33
 9430 2757 01       		.uleb128 0x1
 9431 2758 50       		.byte	0x50
 9432 2759 01       		.uleb128 0x1
 9433 275a 30       		.byte	0x30
 9434 275b 33       		.uleb128 0x33
 9435 275c 01       		.uleb128 0x1
 9436 275d 51       		.byte	0x51
 9437 275e 03       		.uleb128 0x3
 9438 275f F3       		.byte	0xf3
 9439 2760 01       		.uleb128 0x1
 9440 2761 50       		.byte	0x50
 9441 2762 33       		.uleb128 0x33
 9442 2763 01       		.uleb128 0x1
 9443 2764 52       		.byte	0x52
 9444 2765 03       		.uleb128 0x3
 9445 2766 F3       		.byte	0xf3
 9446 2767 01       		.uleb128 0x1
 9447 2768 51       		.byte	0x51
 9448 2769 33       		.uleb128 0x33
 9449 276a 01       		.uleb128 0x1
 9450 276b 53       		.byte	0x53
 9451 276c 03       		.uleb128 0x3
ARM GAS  C:\Users\rdn\AppData\Local\Temp\cco7w9JJ.s 			page 192


 9452 276d F3       		.byte	0xf3
 9453 276e 01       		.uleb128 0x1
 9454 276f 52       		.byte	0x52
 9455 2770 33       		.uleb128 0x33
 9456 2771 02       		.uleb128 0x2
 9457 2772 7D       		.byte	0x7d
 9458 2773 00       		.sleb128 0
 9459 2774 03       		.uleb128 0x3
 9460 2775 F3       		.byte	0xf3
 9461 2776 01       		.uleb128 0x1
 9462 2777 53       		.byte	0x53
 9463 2778 00       		.byte	0
 9464 2779 00       		.byte	0
 9465 277a 3E       		.uleb128 0x3e
 9466 277b 4F040000 		.4byte	.LASF190
 9467 277f 01       		.byte	0x1
 9468 2780 AE01     		.2byte	0x1ae
 9469 2782 9F000000 		.4byte	0x9f
 9470 2786 00000000 		.4byte	.LFB42
 9471 278a 8C000000 		.4byte	.LFE42-.LFB42
 9472 278e 01       		.uleb128 0x1
 9473 278f 9C       		.byte	0x9c
 9474 2790 CA280000 		.4byte	0x28ca
 9475 2794 29       		.uleb128 0x29
 9476 2795 DC030000 		.4byte	.LASF147
 9477 2799 01       		.byte	0x1
 9478 279a AE01     		.2byte	0x1ae
 9479 279c 82040000 		.4byte	0x482
 9480 27a0 F5200000 		.4byte	.LLST245
 9481 27a4 40       		.uleb128 0x40
 9482 27a5 666D7400 		.ascii	"fmt\000"
 9483 27a9 01       		.byte	0x1
 9484 27aa AF01     		.2byte	0x1af
 9485 27ac 59040000 		.4byte	0x459
 9486 27b0 37210000 		.4byte	.LLST246
 9487 27b4 40       		.uleb128 0x40
 9488 27b5 70636D00 		.ascii	"pcm\000"
 9489 27b9 01       		.byte	0x1
 9490 27ba AF01     		.2byte	0x1af
 9491 27bc DE0A0000 		.4byte	0xade
 9492 27c0 71210000 		.4byte	.LLST247
 9493 27c4 29       		.uleb128 0x29
 9494 27c5 A9090000 		.4byte	.LASF149
 9495 27c9 01       		.byte	0x1
 9496 27ca AF01     		.2byte	0x1af
 9497 27cc 9F000000 		.4byte	0x9f
 9498 27d0 C9210000 		.4byte	.LLST248
 9499 27d4 2F       		.uleb128 0x2f
 9500 27d5 12030000 		.4byte	.LASF160
 9501 27d9 01       		.byte	0x1
 9502 27da AF01     		.2byte	0x1af
 9503 27dc 9F000000 		.4byte	0x9f
 9504 27e0 02       		.uleb128 0x2
 9505 27e1 91       		.byte	0x91
 9506 27e2 00       		.sleb128 0
 9507 27e3 3F       		.uleb128 0x3f
 9508 27e4 6F757400 		.ascii	"out\000"
ARM GAS  C:\Users\rdn\AppData\Local\Temp\cco7w9JJ.s 			page 193


 9509 27e8 01       		.byte	0x1
 9510 27e9 AF01     		.2byte	0x1af
 9511 27eb 95040000 		.4byte	0x495
 9512 27ef 02       		.uleb128 0x2
 9513 27f0 91       		.byte	0x91
 9514 27f1 04       		.sleb128 4
 9515 27f2 35       		.uleb128 0x35
 9516 27f3 E4010000 		.4byte	.LASF191
 9517 27f7 01       		.byte	0x1
 9518 27f8 B101     		.2byte	0x1b1
 9519 27fa FA280000 		.4byte	0x28fa
 9520 27fe 05       		.uleb128 0x5
 9521 27ff 03       		.byte	0x3
 9522 2800 00000000 		.4byte	load.5872
 9523 2804 35       		.uleb128 0x35
 9524 2805 DD000000 		.4byte	.LASF161
 9525 2809 01       		.byte	0x1
 9526 280a C001     		.2byte	0x1c0
 9527 280c 75070000 		.4byte	0x775
 9528 2810 03       		.uleb128 0x3
 9529 2811 91       		.byte	0x91
 9530 2812 E47E     		.sleb128 -156
 9531 2814 2C       		.uleb128 0x2c
 9532 2815 34090000 		.4byte	0x934
 9533 2819 10000000 		.4byte	.LBB213
 9534 281d 14000000 		.4byte	.LBE213-.LBB213
 9535 2821 01       		.byte	0x1
 9536 2822 BA01     		.2byte	0x1ba
 9537 2824 3B280000 		.4byte	0x283b
 9538 2828 23       		.uleb128 0x23
 9539 2829 4E090000 		.4byte	0x94e
 9540 282d 03220000 		.4byte	.LLST249
 9541 2831 23       		.uleb128 0x23
 9542 2832 44090000 		.4byte	0x944
 9543 2836 16220000 		.4byte	.LLST250
 9544 283a 00       		.byte	0
 9545 283b 2C       		.uleb128 0x2c
 9546 283c 59090000 		.4byte	0x959
 9547 2840 2A000000 		.4byte	.LBB215
 9548 2844 18000000 		.4byte	.LBE215-.LBB215
 9549 2848 01       		.byte	0x1
 9550 2849 BB01     		.2byte	0x1bb
 9551 284b 62280000 		.4byte	0x2862
 9552 284f 23       		.uleb128 0x23
 9553 2850 73090000 		.4byte	0x973
 9554 2854 29220000 		.4byte	.LLST251
 9555 2858 23       		.uleb128 0x23
 9556 2859 69090000 		.4byte	0x969
 9557 285d 60220000 		.4byte	.LLST252
 9558 2861 00       		.byte	0
 9559 2862 41       		.uleb128 0x41
 9560 2863 56000000 		.4byte	.LVL557
 9561 2867 02       		.uleb128 0x2
 9562 2868 77       		.byte	0x77
 9563 2869 00       		.sleb128 0
 9564 286a 82280000 		.4byte	0x2882
 9565 286e 33       		.uleb128 0x33
ARM GAS  C:\Users\rdn\AppData\Local\Temp\cco7w9JJ.s 			page 194


 9566 286f 01       		.uleb128 0x1
 9567 2870 50       		.byte	0x50
 9568 2871 02       		.uleb128 0x2
 9569 2872 76       		.byte	0x76
 9570 2873 00       		.sleb128 0
 9571 2874 33       		.uleb128 0x33
 9572 2875 01       		.uleb128 0x1
 9573 2876 51       		.byte	0x51
 9574 2877 02       		.uleb128 0x2
 9575 2878 75       		.byte	0x75
 9576 2879 00       		.sleb128 0
 9577 287a 33       		.uleb128 0x33
 9578 287b 01       		.uleb128 0x1
 9579 287c 52       		.byte	0x52
 9580 287d 03       		.uleb128 0x3
 9581 287e F3       		.byte	0xf3
 9582 287f 01       		.uleb128 0x1
 9583 2880 53       		.byte	0x53
 9584 2881 00       		.byte	0
 9585 2882 32       		.uleb128 0x32
 9586 2883 60000000 		.4byte	.LVL558
 9587 2887 22120000 		.4byte	0x1222
 9588 288b A4280000 		.4byte	0x28a4
 9589 288f 33       		.uleb128 0x33
 9590 2890 01       		.uleb128 0x1
 9591 2891 50       		.byte	0x50
 9592 2892 02       		.uleb128 0x2
 9593 2893 76       		.byte	0x76
 9594 2894 00       		.sleb128 0
 9595 2895 33       		.uleb128 0x33
 9596 2896 01       		.uleb128 0x1
 9597 2897 51       		.byte	0x51
 9598 2898 03       		.uleb128 0x3
 9599 2899 91       		.byte	0x91
 9600 289a 00       		.sleb128 0
 9601 289b 06       		.byte	0x6
 9602 289c 33       		.uleb128 0x33
 9603 289d 01       		.uleb128 0x1
 9604 289e 52       		.byte	0x52
 9605 289f 03       		.uleb128 0x3
 9606 28a0 91       		.byte	0x91
 9607 28a1 E47E     		.sleb128 -156
 9608 28a3 00       		.byte	0
 9609 28a4 34       		.uleb128 0x34
 9610 28a5 6C000000 		.4byte	.LVL559
 9611 28a9 8E150000 		.4byte	0x158e
 9612 28ad 33       		.uleb128 0x33
 9613 28ae 01       		.uleb128 0x1
 9614 28af 50       		.byte	0x50
 9615 28b0 02       		.uleb128 0x2
 9616 28b1 76       		.byte	0x76
 9617 28b2 00       		.sleb128 0
 9618 28b3 33       		.uleb128 0x33
 9619 28b4 01       		.uleb128 0x1
 9620 28b5 51       		.byte	0x51
 9621 28b6 03       		.uleb128 0x3
 9622 28b7 91       		.byte	0x91
ARM GAS  C:\Users\rdn\AppData\Local\Temp\cco7w9JJ.s 			page 195


 9623 28b8 E47E     		.sleb128 -156
 9624 28ba 33       		.uleb128 0x33
 9625 28bb 01       		.uleb128 0x1
 9626 28bc 52       		.byte	0x52
 9627 28bd 03       		.uleb128 0x3
 9628 28be 91       		.byte	0x91
 9629 28bf 00       		.sleb128 0
 9630 28c0 06       		.byte	0x6
 9631 28c1 33       		.uleb128 0x33
 9632 28c2 01       		.uleb128 0x1
 9633 28c3 53       		.byte	0x53
 9634 28c4 03       		.uleb128 0x3
 9635 28c5 91       		.byte	0x91
 9636 28c6 04       		.sleb128 4
 9637 28c7 06       		.byte	0x6
 9638 28c8 00       		.byte	0
 9639 28c9 00       		.byte	0
 9640 28ca 0D       		.uleb128 0xd
 9641 28cb F5280000 		.4byte	0x28f5
 9642 28cf DA280000 		.4byte	0x28da
 9643 28d3 0E       		.uleb128 0xe
 9644 28d4 37020000 		.4byte	0x237
 9645 28d8 03       		.byte	0x3
 9646 28d9 00       		.byte	0
 9647 28da 10       		.uleb128 0x10
 9648 28db 04       		.byte	0x4
 9649 28dc E0280000 		.4byte	0x28e0
 9650 28e0 42       		.uleb128 0x42
 9651 28e1 F5280000 		.4byte	0x28f5
 9652 28e5 43       		.uleb128 0x43
 9653 28e6 82040000 		.4byte	0x482
 9654 28ea 43       		.uleb128 0x43
 9655 28eb DE0A0000 		.4byte	0xade
 9656 28ef 43       		.uleb128 0x43
 9657 28f0 9F000000 		.4byte	0x9f
 9658 28f4 00       		.byte	0
 9659 28f5 12       		.uleb128 0x12
 9660 28f6 DA280000 		.4byte	0x28da
 9661 28fa 12       		.uleb128 0x12
 9662 28fb CA280000 		.4byte	0x28ca
 9663 28ff 3D       		.uleb128 0x3d
 9664 2900 0C0B0000 		.4byte	.LASF192
 9665 2904 01       		.byte	0x1
 9666 2905 9F02     		.2byte	0x29f
 9667 2907 A6000000 		.4byte	0xa6
 9668 290b 00000000 		.4byte	.LFB50
 9669 290f B4000000 		.4byte	.LFE50-.LFB50
 9670 2913 01       		.uleb128 0x1
 9671 2914 9C       		.byte	0x9c
 9672 2915 7A290000 		.4byte	0x297a
 9673 2919 29       		.uleb128 0x29
 9674 291a 06060000 		.4byte	.LASF144
 9675 291e 01       		.byte	0x1
 9676 291f 9F02     		.2byte	0x29f
 9677 2921 20020000 		.4byte	0x220
 9678 2925 73220000 		.4byte	.LLST253
 9679 2929 29       		.uleb128 0x29
ARM GAS  C:\Users\rdn\AppData\Local\Temp\cco7w9JJ.s 			page 196


 9680 292a 65040000 		.4byte	.LASF171
 9681 292e 01       		.byte	0x1
 9682 292f 9F02     		.2byte	0x29f
 9683 2931 9F000000 		.4byte	0x9f
 9684 2935 94220000 		.4byte	.LLST254
 9685 2939 29       		.uleb128 0x29
 9686 293a 45010000 		.4byte	.LASF172
 9687 293e 01       		.byte	0x1
 9688 293f 9F02     		.2byte	0x29f
 9689 2941 9F000000 		.4byte	0x9f
 9690 2945 C0220000 		.4byte	.LLST255
 9691 2949 32       		.uleb128 0x32
 9692 294a 14000000 		.4byte	.LVL569
 9693 294e A3090000 		.4byte	0x9a3
 9694 2952 63290000 		.4byte	0x2963
 9695 2956 33       		.uleb128 0x33
 9696 2957 01       		.uleb128 0x1
 9697 2958 50       		.byte	0x50
 9698 2959 02       		.uleb128 0x2
 9699 295a 75       		.byte	0x75
 9700 295b 00       		.sleb128 0
 9701 295c 33       		.uleb128 0x33
 9702 295d 01       		.uleb128 0x1
 9703 295e 51       		.byte	0x51
 9704 295f 02       		.uleb128 0x2
 9705 2960 76       		.byte	0x76
 9706 2961 00       		.sleb128 0
 9707 2962 00       		.byte	0
 9708 2963 34       		.uleb128 0x34
 9709 2964 20000000 		.4byte	.LVL570
 9710 2968 D8090000 		.4byte	0x9d8
 9711 296c 33       		.uleb128 0x33
 9712 296d 01       		.uleb128 0x1
 9713 296e 50       		.byte	0x50
 9714 296f 02       		.uleb128 0x2
 9715 2970 74       		.byte	0x74
 9716 2971 00       		.sleb128 0
 9717 2972 33       		.uleb128 0x33
 9718 2973 01       		.uleb128 0x1
 9719 2974 51       		.byte	0x51
 9720 2975 02       		.uleb128 0x2
 9721 2976 76       		.byte	0x76
 9722 2977 00       		.sleb128 0
 9723 2978 00       		.byte	0
 9724 2979 00       		.byte	0
 9725 297a 3E       		.uleb128 0x3e
 9726 297b D6050000 		.4byte	.LASF193
 9727 297f 01       		.byte	0x1
 9728 2980 A902     		.2byte	0x2a9
 9729 2982 A6000000 		.4byte	0xa6
 9730 2986 00000000 		.4byte	.LFB51
 9731 298a 0E000000 		.4byte	.LFE51-.LFB51
 9732 298e 01       		.uleb128 0x1
 9733 298f 9C       		.byte	0x9c
 9734 2990 D2290000 		.4byte	0x29d2
 9735 2994 29       		.uleb128 0x29
 9736 2995 65040000 		.4byte	.LASF171
ARM GAS  C:\Users\rdn\AppData\Local\Temp\cco7w9JJ.s 			page 197


 9737 2999 01       		.byte	0x1
 9738 299a A902     		.2byte	0x2a9
 9739 299c 9F000000 		.4byte	0x9f
 9740 29a0 EC220000 		.4byte	.LLST256
 9741 29a4 29       		.uleb128 0x29
 9742 29a5 45010000 		.4byte	.LASF172
 9743 29a9 01       		.byte	0x1
 9744 29aa A902     		.2byte	0x2a9
 9745 29ac 9F000000 		.4byte	0x9f
 9746 29b0 18230000 		.4byte	.LLST257
 9747 29b4 34       		.uleb128 0x34
 9748 29b5 0C000000 		.4byte	.LVL582
 9749 29b9 FF280000 		.4byte	0x28ff
 9750 29bd 33       		.uleb128 0x33
 9751 29be 01       		.uleb128 0x1
 9752 29bf 50       		.byte	0x50
 9753 29c0 01       		.uleb128 0x1
 9754 29c1 30       		.byte	0x30
 9755 29c2 33       		.uleb128 0x33
 9756 29c3 01       		.uleb128 0x1
 9757 29c4 51       		.byte	0x51
 9758 29c5 03       		.uleb128 0x3
 9759 29c6 F3       		.byte	0xf3
 9760 29c7 01       		.uleb128 0x1
 9761 29c8 50       		.byte	0x50
 9762 29c9 33       		.uleb128 0x33
 9763 29ca 01       		.uleb128 0x1
 9764 29cb 52       		.byte	0x52
 9765 29cc 03       		.uleb128 0x3
 9766 29cd F3       		.byte	0xf3
 9767 29ce 01       		.uleb128 0x1
 9768 29cf 51       		.byte	0x51
 9769 29d0 00       		.byte	0
 9770 29d1 00       		.byte	0
 9771 29d2 3D       		.uleb128 0x3d
 9772 29d3 57080000 		.4byte	.LASF194
 9773 29d7 01       		.byte	0x1
 9774 29d8 B102     		.2byte	0x2b1
 9775 29da 88040000 		.4byte	0x488
 9776 29de 00000000 		.4byte	.LFB52
 9777 29e2 74010000 		.4byte	.LFE52-.LFB52
 9778 29e6 01       		.uleb128 0x1
 9779 29e7 9C       		.byte	0x9c
 9780 29e8 A72B0000 		.4byte	0x2ba7
 9781 29ec 29       		.uleb128 0x29
 9782 29ed 06060000 		.4byte	.LASF144
 9783 29f1 01       		.byte	0x1
 9784 29f2 B202     		.2byte	0x2b2
 9785 29f4 20020000 		.4byte	0x220
 9786 29f8 44230000 		.4byte	.LLST258
 9787 29fc 29       		.uleb128 0x29
 9788 29fd 65040000 		.4byte	.LASF171
 9789 2a01 01       		.byte	0x1
 9790 2a02 B202     		.2byte	0x2b2
 9791 2a04 9F000000 		.4byte	0x9f
 9792 2a08 65230000 		.4byte	.LLST259
 9793 2a0c 29       		.uleb128 0x29
ARM GAS  C:\Users\rdn\AppData\Local\Temp\cco7w9JJ.s 			page 198


 9794 2a0d 45010000 		.4byte	.LASF172
 9795 2a11 01       		.byte	0x1
 9796 2a12 B202     		.2byte	0x2b2
 9797 2a14 9F000000 		.4byte	0x9f
 9798 2a18 91230000 		.4byte	.LLST260
 9799 2a1c 29       		.uleb128 0x29
 9800 2a1d 00020000 		.4byte	.LASF188
 9801 2a21 01       		.byte	0x1
 9802 2a22 B202     		.2byte	0x2b2
 9803 2a24 9F000000 		.4byte	0x9f
 9804 2a28 BE230000 		.4byte	.LLST261
 9805 2a2c 3F       		.uleb128 0x3f
 9806 2a2d 6D656D00 		.ascii	"mem\000"
 9807 2a31 01       		.byte	0x1
 9808 2a32 B202     		.2byte	0x2b2
 9809 2a34 95040000 		.4byte	0x495
 9810 2a38 02       		.uleb128 0x2
 9811 2a39 91       		.byte	0x91
 9812 2a3a 00       		.sleb128 0
 9813 2a3b 2A       		.uleb128 0x2a
 9814 2a3c 647400   		.ascii	"dt\000"
 9815 2a3f 01       		.byte	0x1
 9816 2a40 B702     		.2byte	0x2b7
 9817 2a42 EF000000 		.4byte	0xef
 9818 2a46 DC230000 		.4byte	.LLST262
 9819 2a4a 31       		.uleb128 0x31
 9820 2a4b 737200   		.ascii	"sr\000"
 9821 2a4e 01       		.byte	0x1
 9822 2a4f B802     		.2byte	0x2b8
 9823 2a51 1E010000 		.4byte	0x11e
 9824 2a55 02       		.uleb128 0x2
 9825 2a56 91       		.byte	0x91
 9826 2a57 54       		.sleb128 -44
 9827 2a58 30       		.uleb128 0x30
 9828 2a59 AE020000 		.4byte	.LASF55
 9829 2a5d 01       		.byte	0x1
 9830 2a5e B902     		.2byte	0x2b9
 9831 2a60 1E010000 		.4byte	0x11e
 9832 2a64 FC230000 		.4byte	.LLST263
 9833 2a68 30       		.uleb128 0x30
 9834 2a69 E4030000 		.4byte	.LASF155
 9835 2a6d 01       		.byte	0x1
 9836 2a6e BE02     		.2byte	0x2be
 9837 2a70 88040000 		.4byte	0x488
 9838 2a74 3B240000 		.4byte	.LLST264
 9839 2a78 2B       		.uleb128 0x2b
 9840 2a79 6E6800   		.ascii	"nh\000"
 9841 2a7c 01       		.byte	0x1
 9842 2a7d BF02     		.2byte	0x2bf
 9843 2a7f 9F000000 		.4byte	0x9f
 9844 2a83 2B       		.uleb128 0x2b
 9845 2a84 6E7300   		.ascii	"ns\000"
 9846 2a87 01       		.byte	0x1
 9847 2a88 C002     		.2byte	0x2c0
 9848 2a8a 9F000000 		.4byte	0x9f
 9849 2a8e 2B       		.uleb128 0x2b
 9850 2a8f 6E6400   		.ascii	"nd\000"
ARM GAS  C:\Users\rdn\AppData\Local\Temp\cco7w9JJ.s 			page 199


 9851 2a92 01       		.byte	0x1
 9852 2a93 C102     		.2byte	0x2c1
 9853 2a95 9F000000 		.4byte	0x9f
 9854 2a99 2C       		.uleb128 0x2c
 9855 2a9a 53080000 		.4byte	0x853
 9856 2a9e 4E000000 		.4byte	.LBB217
 9857 2aa2 1E000000 		.4byte	.LBE217-.LBB217
 9858 2aa6 01       		.byte	0x1
 9859 2aa7 BF02     		.2byte	0x2bf
 9860 2aa9 C02A0000 		.4byte	0x2ac0
 9861 2aad 23       		.uleb128 0x23
 9862 2aae 6D080000 		.4byte	0x86d
 9863 2ab2 4E240000 		.4byte	.LLST265
 9864 2ab6 23       		.uleb128 0x23
 9865 2ab7 63080000 		.4byte	0x863
 9866 2abb 61240000 		.4byte	.LLST266
 9867 2abf 00       		.byte	0
 9868 2ac0 2C       		.uleb128 0x2c
 9869 2ac1 C9070000 		.4byte	0x7c9
 9870 2ac5 6C000000 		.4byte	.LBB219
 9871 2ac9 0C000000 		.4byte	.LBE219-.LBB219
 9872 2acd 01       		.byte	0x1
 9873 2ace C002     		.2byte	0x2c0
 9874 2ad0 E72A0000 		.4byte	0x2ae7
 9875 2ad4 23       		.uleb128 0x23
 9876 2ad5 E3070000 		.4byte	0x7e3
 9877 2ad9 75240000 		.4byte	.LLST267
 9878 2add 23       		.uleb128 0x23
 9879 2ade D9070000 		.4byte	0x7d9
 9880 2ae2 88240000 		.4byte	.LLST268
 9881 2ae6 00       		.byte	0
 9882 2ae7 2C       		.uleb128 0x2c
 9883 2ae8 7E090000 		.4byte	0x97e
 9884 2aec 78000000 		.4byte	.LBB221
 9885 2af0 0E000000 		.4byte	.LBE221-.LBB221
 9886 2af4 01       		.byte	0x1
 9887 2af5 C102     		.2byte	0x2c1
 9888 2af7 0E2B0000 		.4byte	0x2b0e
 9889 2afb 23       		.uleb128 0x23
 9890 2afc 98090000 		.4byte	0x998
 9891 2b00 9C240000 		.4byte	.LLST269
 9892 2b04 23       		.uleb128 0x23
 9893 2b05 8E090000 		.4byte	0x98e
 9894 2b09 AF240000 		.4byte	.LLST270
 9895 2b0d 00       		.byte	0
 9896 2b0e 32       		.uleb128 0x32
 9897 2b0f 24000000 		.4byte	.LVL587
 9898 2b13 A3090000 		.4byte	0x9a3
 9899 2b17 282B0000 		.4byte	0x2b28
 9900 2b1b 33       		.uleb128 0x33
 9901 2b1c 01       		.uleb128 0x1
 9902 2b1d 50       		.byte	0x50
 9903 2b1e 02       		.uleb128 0x2
 9904 2b1f 79       		.byte	0x79
 9905 2b20 00       		.sleb128 0
 9906 2b21 33       		.uleb128 0x33
 9907 2b22 01       		.uleb128 0x1
ARM GAS  C:\Users\rdn\AppData\Local\Temp\cco7w9JJ.s 			page 200


 9908 2b23 51       		.byte	0x51
 9909 2b24 02       		.uleb128 0x2
 9910 2b25 75       		.byte	0x75
 9911 2b26 00       		.sleb128 0
 9912 2b27 00       		.byte	0
 9913 2b28 32       		.uleb128 0x32
 9914 2b29 30000000 		.4byte	.LVL589
 9915 2b2d D8090000 		.4byte	0x9d8
 9916 2b31 432B0000 		.4byte	0x2b43
 9917 2b35 33       		.uleb128 0x33
 9918 2b36 01       		.uleb128 0x1
 9919 2b37 50       		.byte	0x50
 9920 2b38 03       		.uleb128 0x3
 9921 2b39 91       		.byte	0x91
 9922 2b3a 54       		.sleb128 -44
 9923 2b3b 06       		.byte	0x6
 9924 2b3c 33       		.uleb128 0x33
 9925 2b3d 01       		.uleb128 0x1
 9926 2b3e 51       		.byte	0x51
 9927 2b3f 02       		.uleb128 0x2
 9928 2b40 75       		.byte	0x75
 9929 2b41 00       		.sleb128 0
 9930 2b42 00       		.byte	0
 9931 2b43 32       		.uleb128 0x32
 9932 2b44 3C000000 		.4byte	.LVL592
 9933 2b48 D8090000 		.4byte	0x9d8
 9934 2b4c 5D2B0000 		.4byte	0x2b5d
 9935 2b50 33       		.uleb128 0x33
 9936 2b51 01       		.uleb128 0x1
 9937 2b52 50       		.byte	0x50
 9938 2b53 02       		.uleb128 0x2
 9939 2b54 76       		.byte	0x76
 9940 2b55 00       		.sleb128 0
 9941 2b56 33       		.uleb128 0x33
 9942 2b57 01       		.uleb128 0x1
 9943 2b58 51       		.byte	0x51
 9944 2b59 02       		.uleb128 0x2
 9945 2b5a 75       		.byte	0x75
 9946 2b5b 00       		.sleb128 0
 9947 2b5c 00       		.byte	0
 9948 2b5d 32       		.uleb128 0x32
 9949 2b5e 98000000 		.4byte	.LVL599
 9950 2b62 302F0000 		.4byte	0x2f30
 9951 2b66 7C2B0000 		.4byte	0x2b7c
 9952 2b6a 33       		.uleb128 0x33
 9953 2b6b 01       		.uleb128 0x1
 9954 2b6c 50       		.byte	0x50
 9955 2b6d 02       		.uleb128 0x2
 9956 2b6e 74       		.byte	0x74
 9957 2b6f 00       		.sleb128 0
 9958 2b70 33       		.uleb128 0x33
 9959 2b71 01       		.uleb128 0x1
 9960 2b72 51       		.byte	0x51
 9961 2b73 01       		.uleb128 0x1
 9962 2b74 30       		.byte	0x30
 9963 2b75 33       		.uleb128 0x33
 9964 2b76 01       		.uleb128 0x1
ARM GAS  C:\Users\rdn\AppData\Local\Temp\cco7w9JJ.s 			page 201


 9965 2b77 52       		.byte	0x52
 9966 2b78 02       		.uleb128 0x2
 9967 2b79 08       		.byte	0x8
 9968 2b7a BC       		.byte	0xbc
 9969 2b7b 00       		.byte	0
 9970 2b7c 32       		.uleb128 0x32
 9971 2b7d BE000000 		.4byte	.LVL600
 9972 2b81 9E2F0000 		.4byte	0x2f9e
 9973 2b85 912B0000 		.4byte	0x2b91
 9974 2b89 33       		.uleb128 0x33
 9975 2b8a 01       		.uleb128 0x1
 9976 2b8b 50       		.byte	0x50
 9977 2b8c 03       		.uleb128 0x3
 9978 2b8d 74       		.byte	0x74
 9979 2b8e 9C01     		.sleb128 156
 9980 2b90 00       		.byte	0
 9981 2b91 34       		.uleb128 0x34
 9982 2b92 34010000 		.4byte	.LVL607
 9983 2b96 302F0000 		.4byte	0x2f30
 9984 2b9a 33       		.uleb128 0x33
 9985 2b9b 01       		.uleb128 0x1
 9986 2b9c 50       		.byte	0x50
 9987 2b9d 02       		.uleb128 0x2
 9988 2b9e 78       		.byte	0x78
 9989 2b9f 00       		.sleb128 0
 9990 2ba0 33       		.uleb128 0x33
 9991 2ba1 01       		.uleb128 0x1
 9992 2ba2 51       		.byte	0x51
 9993 2ba3 01       		.uleb128 0x1
 9994 2ba4 30       		.byte	0x30
 9995 2ba5 00       		.byte	0
 9996 2ba6 00       		.byte	0
 9997 2ba7 3E       		.uleb128 0x3e
 9998 2ba8 B00A0000 		.4byte	.LASF195
 9999 2bac 01       		.byte	0x1
 10000 2bad D502     		.2byte	0x2d5
 10001 2baf 88040000 		.4byte	0x488
 10002 2bb3 00000000 		.4byte	.LFB53
 10003 2bb7 16000000 		.4byte	.LFE53-.LFB53
 10004 2bbb 01       		.uleb128 0x1
 10005 2bbc 9C       		.byte	0x9c
 10006 2bbd 2E2C0000 		.4byte	0x2c2e
 10007 2bc1 29       		.uleb128 0x29
 10008 2bc2 65040000 		.4byte	.LASF171
 10009 2bc6 01       		.byte	0x1
 10010 2bc7 D602     		.2byte	0x2d6
 10011 2bc9 9F000000 		.4byte	0x9f
 10012 2bcd C3240000 		.4byte	.LLST271
 10013 2bd1 29       		.uleb128 0x29
 10014 2bd2 45010000 		.4byte	.LASF172
 10015 2bd6 01       		.byte	0x1
 10016 2bd7 D602     		.2byte	0x2d6
 10017 2bd9 9F000000 		.4byte	0x9f
 10018 2bdd EF240000 		.4byte	.LLST272
 10019 2be1 29       		.uleb128 0x29
 10020 2be2 00020000 		.4byte	.LASF188
 10021 2be6 01       		.byte	0x1
ARM GAS  C:\Users\rdn\AppData\Local\Temp\cco7w9JJ.s 			page 202


 10022 2be7 D602     		.2byte	0x2d6
 10023 2be9 9F000000 		.4byte	0x9f
 10024 2bed 1B250000 		.4byte	.LLST273
 10025 2bf1 40       		.uleb128 0x40
 10026 2bf2 6D656D00 		.ascii	"mem\000"
 10027 2bf6 01       		.byte	0x1
 10028 2bf7 D602     		.2byte	0x2d6
 10029 2bf9 95040000 		.4byte	0x495
 10030 2bfd 47250000 		.4byte	.LLST274
 10031 2c01 34       		.uleb128 0x34
 10032 2c02 12000000 		.4byte	.LVL624
 10033 2c06 D2290000 		.4byte	0x29d2
 10034 2c0a 33       		.uleb128 0x33
 10035 2c0b 01       		.uleb128 0x1
 10036 2c0c 50       		.byte	0x50
 10037 2c0d 01       		.uleb128 0x1
 10038 2c0e 30       		.byte	0x30
 10039 2c0f 33       		.uleb128 0x33
 10040 2c10 01       		.uleb128 0x1
 10041 2c11 51       		.byte	0x51
 10042 2c12 03       		.uleb128 0x3
 10043 2c13 F3       		.byte	0xf3
 10044 2c14 01       		.uleb128 0x1
 10045 2c15 50       		.byte	0x50
 10046 2c16 33       		.uleb128 0x33
 10047 2c17 01       		.uleb128 0x1
 10048 2c18 52       		.byte	0x52
 10049 2c19 03       		.uleb128 0x3
 10050 2c1a F3       		.byte	0xf3
 10051 2c1b 01       		.uleb128 0x1
 10052 2c1c 51       		.byte	0x51
 10053 2c1d 33       		.uleb128 0x33
 10054 2c1e 01       		.uleb128 0x1
 10055 2c1f 53       		.byte	0x53
 10056 2c20 03       		.uleb128 0x3
 10057 2c21 F3       		.byte	0xf3
 10058 2c22 01       		.uleb128 0x1
 10059 2c23 52       		.byte	0x52
 10060 2c24 33       		.uleb128 0x33
 10061 2c25 02       		.uleb128 0x2
 10062 2c26 7D       		.byte	0x7d
 10063 2c27 00       		.sleb128 0
 10064 2c28 03       		.uleb128 0x3
 10065 2c29 F3       		.byte	0xf3
 10066 2c2a 01       		.uleb128 0x1
 10067 2c2b 53       		.byte	0x53
 10068 2c2c 00       		.byte	0
 10069 2c2d 00       		.byte	0
 10070 2c2e 3E       		.uleb128 0x3e
 10071 2c2f 2F0C0000 		.4byte	.LASF196
 10072 2c33 01       		.byte	0x1
 10073 2c34 DE02     		.2byte	0x2de
 10074 2c36 9F000000 		.4byte	0x9f
 10075 2c3a 00000000 		.4byte	.LFB54
 10076 2c3e 9C000000 		.4byte	.LFE54-.LFB54
 10077 2c42 01       		.uleb128 0x1
 10078 2c43 9C       		.byte	0x9c
ARM GAS  C:\Users\rdn\AppData\Local\Temp\cco7w9JJ.s 			page 203


 10079 2c44 6C2D0000 		.4byte	0x2d6c
 10080 2c48 29       		.uleb128 0x29
 10081 2c49 E4030000 		.4byte	.LASF155
 10082 2c4d 01       		.byte	0x1
 10083 2c4e DE02     		.2byte	0x2de
 10084 2c50 88040000 		.4byte	0x488
 10085 2c54 74250000 		.4byte	.LLST275
 10086 2c58 40       		.uleb128 0x40
 10087 2c59 696E00   		.ascii	"in\000"
 10088 2c5c 01       		.byte	0x1
 10089 2c5d DF02     		.2byte	0x2df
 10090 2c5f DE0A0000 		.4byte	0xade
 10091 2c63 CC250000 		.4byte	.LLST276
 10092 2c67 29       		.uleb128 0x29
 10093 2c68 12030000 		.4byte	.LASF160
 10094 2c6c 01       		.byte	0x1
 10095 2c6d DF02     		.2byte	0x2df
 10096 2c6f 9F000000 		.4byte	0x9f
 10097 2c73 1F260000 		.4byte	.LLST277
 10098 2c77 40       		.uleb128 0x40
 10099 2c78 666D7400 		.ascii	"fmt\000"
 10100 2c7c 01       		.byte	0x1
 10101 2c7d DF02     		.2byte	0x2df
 10102 2c7f 59040000 		.4byte	0x459
 10103 2c83 77260000 		.4byte	.LLST278
 10104 2c87 3F       		.uleb128 0x3f
 10105 2c88 70636D00 		.ascii	"pcm\000"
 10106 2c8c 01       		.byte	0x1
 10107 2c8d DF02     		.2byte	0x2df
 10108 2c8f 95040000 		.4byte	0x495
 10109 2c93 02       		.uleb128 0x2
 10110 2c94 91       		.byte	0x91
 10111 2c95 00       		.sleb128 0
 10112 2c96 2F       		.uleb128 0x2f
 10113 2c97 A9090000 		.4byte	.LASF149
 10114 2c9b 01       		.byte	0x1
 10115 2c9c DF02     		.2byte	0x2df
 10116 2c9e 9F000000 		.4byte	0x9f
 10117 2ca2 02       		.uleb128 0x2
 10118 2ca3 91       		.byte	0x91
 10119 2ca4 04       		.sleb128 4
 10120 2ca5 35       		.uleb128 0x35
 10121 2ca6 64030000 		.4byte	.LASF197
 10122 2caa 01       		.byte	0x1
 10123 2cab E102     		.2byte	0x2e1
 10124 2cad 9C2D0000 		.4byte	0x2d9c
 10125 2cb1 05       		.uleb128 0x5
 10126 2cb2 03       		.byte	0x3
 10127 2cb3 10000000 		.4byte	store.6007
 10128 2cb7 35       		.uleb128 0x35
 10129 2cb8 DD000000 		.4byte	.LASF161
 10130 2cbc 01       		.byte	0x1
 10131 2cbd F302     		.2byte	0x2f3
 10132 2cbf 75070000 		.4byte	0x775
 10133 2cc3 03       		.uleb128 0x3
 10134 2cc4 91       		.byte	0x91
 10135 2cc5 E47E     		.sleb128 -156
ARM GAS  C:\Users\rdn\AppData\Local\Temp\cco7w9JJ.s 			page 204


 10136 2cc7 2A       		.uleb128 0x2a
 10137 2cc8 72657400 		.ascii	"ret\000"
 10138 2ccc 01       		.byte	0x1
 10139 2ccd F502     		.2byte	0x2f5
 10140 2ccf 9F000000 		.4byte	0x9f
 10141 2cd3 B1260000 		.4byte	.LLST279
 10142 2cd7 2C       		.uleb128 0x2c
 10143 2cd8 59090000 		.4byte	0x959
 10144 2cdc 1A000000 		.4byte	.LBB223
 10145 2ce0 18000000 		.4byte	.LBE223-.LBB223
 10146 2ce4 01       		.byte	0x1
 10147 2ce5 EE02     		.2byte	0x2ee
 10148 2ce7 FE2C0000 		.4byte	0x2cfe
 10149 2ceb 23       		.uleb128 0x23
 10150 2cec 73090000 		.4byte	0x973
 10151 2cf0 C4260000 		.4byte	.LLST280
 10152 2cf4 23       		.uleb128 0x23
 10153 2cf5 69090000 		.4byte	0x969
 10154 2cf9 07270000 		.4byte	.LLST281
 10155 2cfd 00       		.byte	0
 10156 2cfe 32       		.uleb128 0x32
 10157 2cff 44000000 		.4byte	.LVL634
 10158 2d03 E9170000 		.4byte	0x17e9
 10159 2d07 1F2D0000 		.4byte	0x2d1f
 10160 2d0b 33       		.uleb128 0x33
 10161 2d0c 01       		.uleb128 0x1
 10162 2d0d 50       		.byte	0x50
 10163 2d0e 02       		.uleb128 0x2
 10164 2d0f 74       		.byte	0x74
 10165 2d10 00       		.sleb128 0
 10166 2d11 33       		.uleb128 0x33
 10167 2d12 01       		.uleb128 0x1
 10168 2d13 52       		.byte	0x52
 10169 2d14 02       		.uleb128 0x2
 10170 2d15 76       		.byte	0x76
 10171 2d16 00       		.sleb128 0
 10172 2d17 33       		.uleb128 0x33
 10173 2d18 01       		.uleb128 0x1
 10174 2d19 53       		.byte	0x53
 10175 2d1a 03       		.uleb128 0x3
 10176 2d1b 91       		.byte	0x91
 10177 2d1c E47E     		.sleb128 -156
 10178 2d1e 00       		.byte	0
 10179 2d1f 32       		.uleb128 0x32
 10180 2d20 64000000 		.4byte	.LVL638
 10181 2d24 B81A0000 		.4byte	0x1ab8
 10182 2d28 392D0000 		.4byte	0x2d39
 10183 2d2c 33       		.uleb128 0x33
 10184 2d2d 01       		.uleb128 0x1
 10185 2d2e 50       		.byte	0x50
 10186 2d2f 02       		.uleb128 0x2
 10187 2d30 74       		.byte	0x74
 10188 2d31 00       		.sleb128 0
 10189 2d32 33       		.uleb128 0x33
 10190 2d33 01       		.uleb128 0x1
 10191 2d34 52       		.byte	0x52
 10192 2d35 02       		.uleb128 0x2
ARM GAS  C:\Users\rdn\AppData\Local\Temp\cco7w9JJ.s 			page 205


 10193 2d36 76       		.byte	0x76
 10194 2d37 00       		.sleb128 0
 10195 2d38 00       		.byte	0
 10196 2d39 41       		.uleb128 0x41
 10197 2d3a 74000000 		.4byte	.LVL639
 10198 2d3e 03       		.uleb128 0x3
 10199 2d3f 75       		.byte	0x75
 10200 2d40 10       		.sleb128 16
 10201 2d41 06       		.byte	0x6
 10202 2d42 5B2D0000 		.4byte	0x2d5b
 10203 2d46 33       		.uleb128 0x33
 10204 2d47 01       		.uleb128 0x1
 10205 2d48 50       		.byte	0x50
 10206 2d49 02       		.uleb128 0x2
 10207 2d4a 74       		.byte	0x74
 10208 2d4b 00       		.sleb128 0
 10209 2d4c 33       		.uleb128 0x33
 10210 2d4d 01       		.uleb128 0x1
 10211 2d4e 51       		.byte	0x51
 10212 2d4f 03       		.uleb128 0x3
 10213 2d50 91       		.byte	0x91
 10214 2d51 00       		.sleb128 0
 10215 2d52 06       		.byte	0x6
 10216 2d53 33       		.uleb128 0x33
 10217 2d54 01       		.uleb128 0x1
 10218 2d55 52       		.byte	0x52
 10219 2d56 03       		.uleb128 0x3
 10220 2d57 91       		.byte	0x91
 10221 2d58 04       		.sleb128 4
 10222 2d59 06       		.byte	0x6
 10223 2d5a 00       		.byte	0
 10224 2d5b 34       		.uleb128 0x34
 10225 2d5c 7A000000 		.4byte	.LVL640
 10226 2d60 7E110000 		.4byte	0x117e
 10227 2d64 33       		.uleb128 0x33
 10228 2d65 01       		.uleb128 0x1
 10229 2d66 50       		.byte	0x50
 10230 2d67 02       		.uleb128 0x2
 10231 2d68 74       		.byte	0x74
 10232 2d69 00       		.sleb128 0
 10233 2d6a 00       		.byte	0
 10234 2d6b 00       		.byte	0
 10235 2d6c 0D       		.uleb128 0xd
 10236 2d6d 972D0000 		.4byte	0x2d97
 10237 2d71 7C2D0000 		.4byte	0x2d7c
 10238 2d75 0E       		.uleb128 0xe
 10239 2d76 37020000 		.4byte	0x237
 10240 2d7a 03       		.byte	0x3
 10241 2d7b 00       		.byte	0
 10242 2d7c 10       		.uleb128 0x10
 10243 2d7d 04       		.byte	0x4
 10244 2d7e 822D0000 		.4byte	0x2d82
 10245 2d82 42       		.uleb128 0x42
 10246 2d83 972D0000 		.4byte	0x2d97
 10247 2d87 43       		.uleb128 0x43
 10248 2d88 88040000 		.4byte	0x488
 10249 2d8c 43       		.uleb128 0x43
ARM GAS  C:\Users\rdn\AppData\Local\Temp\cco7w9JJ.s 			page 206


 10250 2d8d 95040000 		.4byte	0x495
 10251 2d91 43       		.uleb128 0x43
 10252 2d92 9F000000 		.4byte	0x9f
 10253 2d96 00       		.byte	0
 10254 2d97 12       		.uleb128 0x12
 10255 2d98 7C2D0000 		.4byte	0x2d7c
 10256 2d9c 12       		.uleb128 0x12
 10257 2d9d 6C2D0000 		.4byte	0x2d6c
 10258 2da1 0D       		.uleb128 0xd
 10259 2da2 B12D0000 		.4byte	0x2db1
 10260 2da6 B12D0000 		.4byte	0x2db1
 10261 2daa 0E       		.uleb128 0xe
 10262 2dab 37020000 		.4byte	0x237
 10263 2daf 06       		.byte	0x6
 10264 2db0 00       		.byte	0
 10265 2db1 12       		.uleb128 0x12
 10266 2db2 9F000000 		.4byte	0x9f
 10267 2db6 44       		.uleb128 0x44
 10268 2db7 A2000000 		.4byte	.LASF198
 10269 2dbb 02       		.byte	0x2
 10270 2dbc 2A       		.byte	0x2a
 10271 2dbd C12D0000 		.4byte	0x2dc1
 10272 2dc1 12       		.uleb128 0x12
 10273 2dc2 A12D0000 		.4byte	0x2da1
 10274 2dc6 44       		.uleb128 0x44
 10275 2dc7 75000000 		.4byte	.LASF199
 10276 2dcb 02       		.byte	0x2
 10277 2dcc 2B       		.byte	0x2b
 10278 2dcd D12D0000 		.4byte	0x2dd1
 10279 2dd1 12       		.uleb128 0x12
 10280 2dd2 A12D0000 		.4byte	0x2da1
 10281 2dd6 44       		.uleb128 0x44
 10282 2dd7 7D010000 		.4byte	.LASF200
 10283 2ddb 02       		.byte	0x2
 10284 2ddc 2C       		.byte	0x2c
 10285 2ddd E12D0000 		.4byte	0x2de1
 10286 2de1 12       		.uleb128 0x12
 10287 2de2 A12D0000 		.4byte	0x2da1
 10288 2de6 0D       		.uleb128 0xd
 10289 2de7 B12D0000 		.4byte	0x2db1
 10290 2deb 022E0000 		.4byte	0x2e02
 10291 2def 0E       		.uleb128 0xe
 10292 2df0 37020000 		.4byte	0x237
 10293 2df4 03       		.byte	0x3
 10294 2df5 0E       		.uleb128 0xe
 10295 2df6 37020000 		.4byte	0x237
 10296 2dfa 01       		.byte	0x1
 10297 2dfb 0E       		.uleb128 0xe
 10298 2dfc 37020000 		.4byte	0x237
 10299 2e00 01       		.byte	0x1
 10300 2e01 00       		.byte	0
 10301 2e02 44       		.uleb128 0x44
 10302 2e03 130C0000 		.4byte	.LASF201
 10303 2e07 02       		.byte	0x2
 10304 2e08 4E       		.byte	0x4e
 10305 2e09 0D2E0000 		.4byte	0x2e0d
 10306 2e0d 12       		.uleb128 0x12
ARM GAS  C:\Users\rdn\AppData\Local\Temp\cco7w9JJ.s 			page 207


 10307 2e0e E62D0000 		.4byte	0x2de6
 10308 2e12 45       		.uleb128 0x45
 10309 2e13 FA040000 		.4byte	.LASF202
 10310 2e17 FA040000 		.4byte	.LASF202
 10311 2e1b 0E       		.byte	0xe
 10312 2e1c 21       		.byte	0x21
 10313 2e1d 45       		.uleb128 0x45
 10314 2e1e 5A090000 		.4byte	.LASF203
 10315 2e22 5A090000 		.4byte	.LASF203
 10316 2e26 0A       		.byte	0xa
 10317 2e27 35       		.byte	0x35
 10318 2e28 45       		.uleb128 0x45
 10319 2e29 BE090000 		.4byte	.LASF204
 10320 2e2d BE090000 		.4byte	.LASF204
 10321 2e31 0F       		.byte	0xf
 10322 2e32 18       		.byte	0x18
 10323 2e33 45       		.uleb128 0x45
 10324 2e34 FE000000 		.4byte	.LASF205
 10325 2e38 FE000000 		.4byte	.LASF205
 10326 2e3c 10       		.byte	0x10
 10327 2e3d 22       		.byte	0x22
 10328 2e3e 45       		.uleb128 0x45
 10329 2e3f FB090000 		.4byte	.LASF206
 10330 2e43 FB090000 		.4byte	.LASF206
 10331 2e47 11       		.byte	0x11
 10332 2e48 20       		.byte	0x20
 10333 2e49 45       		.uleb128 0x45
 10334 2e4a 19030000 		.4byte	.LASF207
 10335 2e4e 19030000 		.4byte	.LASF207
 10336 2e52 0A       		.byte	0xa
 10337 2e53 3C       		.byte	0x3c
 10338 2e54 45       		.uleb128 0x45
 10339 2e55 0E0A0000 		.4byte	.LASF208
 10340 2e59 0E0A0000 		.4byte	.LASF208
 10341 2e5d 12       		.byte	0x12
 10342 2e5e 20       		.byte	0x20
 10343 2e5f 45       		.uleb128 0x45
 10344 2e60 98040000 		.4byte	.LASF209
 10345 2e64 98040000 		.4byte	.LASF209
 10346 2e68 0B       		.byte	0xb
 10347 2e69 36       		.byte	0x36
 10348 2e6a 45       		.uleb128 0x45
 10349 2e6b 46070000 		.4byte	.LASF210
 10350 2e6f 46070000 		.4byte	.LASF210
 10351 2e73 0C       		.byte	0xc
 10352 2e74 32       		.byte	0x32
 10353 2e75 45       		.uleb128 0x45
 10354 2e76 CA0B0000 		.4byte	.LASF211
 10355 2e7a CA0B0000 		.4byte	.LASF211
 10356 2e7e 0D       		.byte	0xd
 10357 2e7f 33       		.byte	0x33
 10358 2e80 45       		.uleb128 0x45
 10359 2e81 69070000 		.4byte	.LASF212
 10360 2e85 69070000 		.4byte	.LASF212
 10361 2e89 04       		.byte	0x4
 10362 2e8a C8       		.byte	0xc8
 10363 2e8b 45       		.uleb128 0x45
ARM GAS  C:\Users\rdn\AppData\Local\Temp\cco7w9JJ.s 			page 208


 10364 2e8c 580C0000 		.4byte	.LASF213
 10365 2e90 580C0000 		.4byte	.LASF213
 10366 2e94 04       		.byte	0x4
 10367 2e95 7E       		.byte	0x7e
 10368 2e96 45       		.uleb128 0x45
 10369 2e97 0C070000 		.4byte	.LASF214
 10370 2e9b 0C070000 		.4byte	.LASF214
 10371 2e9f 12       		.byte	0x12
 10372 2ea0 30       		.byte	0x30
 10373 2ea1 45       		.uleb128 0x45
 10374 2ea2 C4050000 		.4byte	.LASF215
 10375 2ea6 C4050000 		.4byte	.LASF215
 10376 2eaa 0D       		.byte	0xd
 10377 2eab 3E       		.byte	0x3e
 10378 2eac 45       		.uleb128 0x45
 10379 2ead 7D0B0000 		.4byte	.LASF216
 10380 2eb1 7D0B0000 		.4byte	.LASF216
 10381 2eb5 0C       		.byte	0xc
 10382 2eb6 41       		.byte	0x41
 10383 2eb7 45       		.uleb128 0x45
 10384 2eb8 8B070000 		.4byte	.LASF217
 10385 2ebc 8B070000 		.4byte	.LASF217
 10386 2ec0 0B       		.byte	0xb
 10387 2ec1 46       		.byte	0x46
 10388 2ec2 45       		.uleb128 0x45
 10389 2ec3 98060000 		.4byte	.LASF218
 10390 2ec7 98060000 		.4byte	.LASF218
 10391 2ecb 0A       		.byte	0xa
 10392 2ecc 4A       		.byte	0x4a
 10393 2ecd 45       		.uleb128 0x45
 10394 2ece 47080000 		.4byte	.LASF219
 10395 2ed2 47080000 		.4byte	.LASF219
 10396 2ed6 0D       		.byte	0xd
 10397 2ed7 48       		.byte	0x48
 10398 2ed8 45       		.uleb128 0x45
 10399 2ed9 AD050000 		.4byte	.LASF220
 10400 2edd AD050000 		.4byte	.LASF220
 10401 2ee1 04       		.byte	0x4
 10402 2ee2 A9       		.byte	0xa9
 10403 2ee3 45       		.uleb128 0x45
 10404 2ee4 29040000 		.4byte	.LASF221
 10405 2ee8 29040000 		.4byte	.LASF221
 10406 2eec 04       		.byte	0x4
 10407 2eed C9       		.byte	0xc9
 10408 2eee 45       		.uleb128 0x45
 10409 2eef DB080000 		.4byte	.LASF222
 10410 2ef3 DB080000 		.4byte	.LASF222
 10411 2ef7 12       		.byte	0x12
 10412 2ef8 3A       		.byte	0x3a
 10413 2ef9 45       		.uleb128 0x45
 10414 2efa 3A0C0000 		.4byte	.LASF223
 10415 2efe 3A0C0000 		.4byte	.LASF223
 10416 2f02 0D       		.byte	0xd
 10417 2f03 58       		.byte	0x58
 10418 2f04 45       		.uleb128 0x45
 10419 2f05 6B040000 		.4byte	.LASF224
 10420 2f09 6B040000 		.4byte	.LASF224
ARM GAS  C:\Users\rdn\AppData\Local\Temp\cco7w9JJ.s 			page 209


 10421 2f0d 0C       		.byte	0xc
 10422 2f0e 50       		.byte	0x50
 10423 2f0f 45       		.uleb128 0x45
 10424 2f10 5C010000 		.4byte	.LASF225
 10425 2f14 5C010000 		.4byte	.LASF225
 10426 2f18 0B       		.byte	0xb
 10427 2f19 53       		.byte	0x53
 10428 2f1a 45       		.uleb128 0x45
 10429 2f1b FA030000 		.4byte	.LASF226
 10430 2f1f FA030000 		.4byte	.LASF226
 10431 2f23 0A       		.byte	0xa
 10432 2f24 55       		.byte	0x55
 10433 2f25 45       		.uleb128 0x45
 10434 2f26 35010000 		.4byte	.LASF227
 10435 2f2a 35010000 		.4byte	.LASF227
 10436 2f2e 0D       		.byte	0xd
 10437 2f2f 64       		.byte	0x64
 10438 2f30 46       		.uleb128 0x46
 10439 2f31 F5060000 		.4byte	.LASF241
 10440 2f35 F5060000 		.4byte	.LASF241
 10441 2f39 45       		.uleb128 0x45
 10442 2f3a 1D070000 		.4byte	.LASF228
 10443 2f3e 1D070000 		.4byte	.LASF228
 10444 2f42 04       		.byte	0x4
 10445 2f43 8D       		.byte	0x8d
 10446 2f44 45       		.uleb128 0x45
 10447 2f45 1C060000 		.4byte	.LASF229
 10448 2f49 1C060000 		.4byte	.LASF229
 10449 2f4d 13       		.byte	0x13
 10450 2f4e 23       		.byte	0x23
 10451 2f4f 45       		.uleb128 0x45
 10452 2f50 C9040000 		.4byte	.LASF230
 10453 2f54 C9040000 		.4byte	.LASF230
 10454 2f58 0C       		.byte	0xc
 10455 2f59 59       		.byte	0x59
 10456 2f5a 45       		.uleb128 0x45
 10457 2f5b 9A050000 		.4byte	.LASF231
 10458 2f5f 9A050000 		.4byte	.LASF231
 10459 2f63 0B       		.byte	0xb
 10460 2f64 5E       		.byte	0x5e
 10461 2f65 45       		.uleb128 0x45
 10462 2f66 E9010000 		.4byte	.LASF232
 10463 2f6a E9010000 		.4byte	.LASF232
 10464 2f6e 10       		.byte	0x10
 10465 2f6f 2F       		.byte	0x2f
 10466 2f70 45       		.uleb128 0x45
 10467 2f71 8E0B0000 		.4byte	.LASF233
 10468 2f75 8E0B0000 		.4byte	.LASF233
 10469 2f79 13       		.byte	0x13
 10470 2f7a 2E       		.byte	0x2e
 10471 2f7b 45       		.uleb128 0x45
 10472 2f7c BB030000 		.4byte	.LASF234
 10473 2f80 BB030000 		.4byte	.LASF234
 10474 2f84 0A       		.byte	0xa
 10475 2f85 63       		.byte	0x63
 10476 2f86 47       		.uleb128 0x47
 10477 2f87 00090000 		.4byte	.LASF235
ARM GAS  C:\Users\rdn\AppData\Local\Temp\cco7w9JJ.s 			page 210


 10478 2f8b 00090000 		.4byte	.LASF235
 10479 2f8f 14       		.byte	0x14
 10480 2f90 9701     		.2byte	0x197
 10481 2f92 47       		.uleb128 0x47
 10482 2f93 FC060000 		.4byte	.LASF236
 10483 2f97 FC060000 		.4byte	.LASF236
 10484 2f9b 14       		.byte	0x14
 10485 2f9c 9801     		.2byte	0x198
 10486 2f9e 45       		.uleb128 0x45
 10487 2f9f 6C060000 		.4byte	.LASF237
 10488 2fa3 6C060000 		.4byte	.LASF237
 10489 2fa7 13       		.byte	0x13
 10490 2fa8 1D       		.byte	0x1d
 10491 2fa9 00       		.byte	0
 10492              		.section	.debug_abbrev,"",%progbits
 10493              	.Ldebug_abbrev0:
 10494 0000 01       		.uleb128 0x1
 10495 0001 11       		.uleb128 0x11
 10496 0002 01       		.byte	0x1
 10497 0003 25       		.uleb128 0x25
 10498 0004 0E       		.uleb128 0xe
 10499 0005 13       		.uleb128 0x13
 10500 0006 0B       		.uleb128 0xb
 10501 0007 03       		.uleb128 0x3
 10502 0008 0E       		.uleb128 0xe
 10503 0009 1B       		.uleb128 0x1b
 10504 000a 0E       		.uleb128 0xe
 10505 000b 55       		.uleb128 0x55
 10506 000c 17       		.uleb128 0x17
 10507 000d 11       		.uleb128 0x11
 10508 000e 01       		.uleb128 0x1
 10509 000f 10       		.uleb128 0x10
 10510 0010 17       		.uleb128 0x17
 10511 0011 00       		.byte	0
 10512 0012 00       		.byte	0
 10513 0013 02       		.uleb128 0x2
 10514 0014 24       		.uleb128 0x24
 10515 0015 00       		.byte	0
 10516 0016 0B       		.uleb128 0xb
 10517 0017 0B       		.uleb128 0xb
 10518 0018 3E       		.uleb128 0x3e
 10519 0019 0B       		.uleb128 0xb
 10520 001a 03       		.uleb128 0x3
 10521 001b 0E       		.uleb128 0xe
 10522 001c 00       		.byte	0
 10523 001d 00       		.byte	0
 10524 001e 03       		.uleb128 0x3
 10525 001f 16       		.uleb128 0x16
 10526 0020 00       		.byte	0
 10527 0021 03       		.uleb128 0x3
 10528 0022 0E       		.uleb128 0xe
 10529 0023 3A       		.uleb128 0x3a
 10530 0024 0B       		.uleb128 0xb
 10531 0025 3B       		.uleb128 0x3b
 10532 0026 0B       		.uleb128 0xb
 10533 0027 49       		.uleb128 0x49
 10534 0028 13       		.uleb128 0x13
ARM GAS  C:\Users\rdn\AppData\Local\Temp\cco7w9JJ.s 			page 211


 10535 0029 00       		.byte	0
 10536 002a 00       		.byte	0
 10537 002b 04       		.uleb128 0x4
 10538 002c 24       		.uleb128 0x24
 10539 002d 00       		.byte	0
 10540 002e 0B       		.uleb128 0xb
 10541 002f 0B       		.uleb128 0xb
 10542 0030 3E       		.uleb128 0x3e
 10543 0031 0B       		.uleb128 0xb
 10544 0032 03       		.uleb128 0x3
 10545 0033 08       		.uleb128 0x8
 10546 0034 00       		.byte	0
 10547 0035 00       		.byte	0
 10548 0036 05       		.uleb128 0x5
 10549 0037 04       		.uleb128 0x4
 10550 0038 01       		.byte	0x1
 10551 0039 03       		.uleb128 0x3
 10552 003a 0E       		.uleb128 0xe
 10553 003b 0B       		.uleb128 0xb
 10554 003c 0B       		.uleb128 0xb
 10555 003d 49       		.uleb128 0x49
 10556 003e 13       		.uleb128 0x13
 10557 003f 3A       		.uleb128 0x3a
 10558 0040 0B       		.uleb128 0xb
 10559 0041 3B       		.uleb128 0x3b
 10560 0042 0B       		.uleb128 0xb
 10561 0043 01       		.uleb128 0x1
 10562 0044 13       		.uleb128 0x13
 10563 0045 00       		.byte	0
 10564 0046 00       		.byte	0
 10565 0047 06       		.uleb128 0x6
 10566 0048 28       		.uleb128 0x28
 10567 0049 00       		.byte	0
 10568 004a 03       		.uleb128 0x3
 10569 004b 0E       		.uleb128 0xe
 10570 004c 1C       		.uleb128 0x1c
 10571 004d 0B       		.uleb128 0xb
 10572 004e 00       		.byte	0
 10573 004f 00       		.byte	0
 10574 0050 07       		.uleb128 0x7
 10575 0051 13       		.uleb128 0x13
 10576 0052 01       		.byte	0x1
 10577 0053 03       		.uleb128 0x3
 10578 0054 0E       		.uleb128 0xe
 10579 0055 0B       		.uleb128 0xb
 10580 0056 0B       		.uleb128 0xb
 10581 0057 3A       		.uleb128 0x3a
 10582 0058 0B       		.uleb128 0xb
 10583 0059 3B       		.uleb128 0x3b
 10584 005a 0B       		.uleb128 0xb
 10585 005b 01       		.uleb128 0x1
 10586 005c 13       		.uleb128 0x13
 10587 005d 00       		.byte	0
 10588 005e 00       		.byte	0
 10589 005f 08       		.uleb128 0x8
 10590 0060 0D       		.uleb128 0xd
 10591 0061 00       		.byte	0
ARM GAS  C:\Users\rdn\AppData\Local\Temp\cco7w9JJ.s 			page 212


 10592 0062 03       		.uleb128 0x3
 10593 0063 08       		.uleb128 0x8
 10594 0064 3A       		.uleb128 0x3a
 10595 0065 0B       		.uleb128 0xb
 10596 0066 3B       		.uleb128 0x3b
 10597 0067 0B       		.uleb128 0xb
 10598 0068 49       		.uleb128 0x49
 10599 0069 13       		.uleb128 0x13
 10600 006a 38       		.uleb128 0x38
 10601 006b 0B       		.uleb128 0xb
 10602 006c 00       		.byte	0
 10603 006d 00       		.byte	0
 10604 006e 09       		.uleb128 0x9
 10605 006f 0D       		.uleb128 0xd
 10606 0070 00       		.byte	0
 10607 0071 03       		.uleb128 0x3
 10608 0072 0E       		.uleb128 0xe
 10609 0073 3A       		.uleb128 0x3a
 10610 0074 0B       		.uleb128 0xb
 10611 0075 3B       		.uleb128 0x3b
 10612 0076 0B       		.uleb128 0xb
 10613 0077 49       		.uleb128 0x49
 10614 0078 13       		.uleb128 0x13
 10615 0079 38       		.uleb128 0x38
 10616 007a 0B       		.uleb128 0xb
 10617 007b 00       		.byte	0
 10618 007c 00       		.byte	0
 10619 007d 0A       		.uleb128 0xa
 10620 007e 13       		.uleb128 0x13
 10621 007f 01       		.byte	0x1
 10622 0080 03       		.uleb128 0x3
 10623 0081 0E       		.uleb128 0xe
 10624 0082 0B       		.uleb128 0xb
 10625 0083 05       		.uleb128 0x5
 10626 0084 3A       		.uleb128 0x3a
 10627 0085 0B       		.uleb128 0xb
 10628 0086 3B       		.uleb128 0x3b
 10629 0087 0B       		.uleb128 0xb
 10630 0088 01       		.uleb128 0x1
 10631 0089 13       		.uleb128 0x13
 10632 008a 00       		.byte	0
 10633 008b 00       		.byte	0
 10634 008c 0B       		.uleb128 0xb
 10635 008d 0D       		.uleb128 0xd
 10636 008e 00       		.byte	0
 10637 008f 03       		.uleb128 0x3
 10638 0090 0E       		.uleb128 0xe
 10639 0091 3A       		.uleb128 0x3a
 10640 0092 0B       		.uleb128 0xb
 10641 0093 3B       		.uleb128 0x3b
 10642 0094 0B       		.uleb128 0xb
 10643 0095 49       		.uleb128 0x49
 10644 0096 13       		.uleb128 0x13
 10645 0097 38       		.uleb128 0x38
 10646 0098 05       		.uleb128 0x5
 10647 0099 00       		.byte	0
 10648 009a 00       		.byte	0
ARM GAS  C:\Users\rdn\AppData\Local\Temp\cco7w9JJ.s 			page 213


 10649 009b 0C       		.uleb128 0xc
 10650 009c 0D       		.uleb128 0xd
 10651 009d 00       		.byte	0
 10652 009e 03       		.uleb128 0x3
 10653 009f 08       		.uleb128 0x8
 10654 00a0 3A       		.uleb128 0x3a
 10655 00a1 0B       		.uleb128 0xb
 10656 00a2 3B       		.uleb128 0x3b
 10657 00a3 0B       		.uleb128 0xb
 10658 00a4 49       		.uleb128 0x49
 10659 00a5 13       		.uleb128 0x13
 10660 00a6 38       		.uleb128 0x38
 10661 00a7 05       		.uleb128 0x5
 10662 00a8 00       		.byte	0
 10663 00a9 00       		.byte	0
 10664 00aa 0D       		.uleb128 0xd
 10665 00ab 01       		.uleb128 0x1
 10666 00ac 01       		.byte	0x1
 10667 00ad 49       		.uleb128 0x49
 10668 00ae 13       		.uleb128 0x13
 10669 00af 01       		.uleb128 0x1
 10670 00b0 13       		.uleb128 0x13
 10671 00b1 00       		.byte	0
 10672 00b2 00       		.byte	0
 10673 00b3 0E       		.uleb128 0xe
 10674 00b4 21       		.uleb128 0x21
 10675 00b5 00       		.byte	0
 10676 00b6 49       		.uleb128 0x49
 10677 00b7 13       		.uleb128 0x13
 10678 00b8 2F       		.uleb128 0x2f
 10679 00b9 0B       		.uleb128 0xb
 10680 00ba 00       		.byte	0
 10681 00bb 00       		.byte	0
 10682 00bc 0F       		.uleb128 0xf
 10683 00bd 21       		.uleb128 0x21
 10684 00be 00       		.byte	0
 10685 00bf 49       		.uleb128 0x49
 10686 00c0 13       		.uleb128 0x13
 10687 00c1 2F       		.uleb128 0x2f
 10688 00c2 05       		.uleb128 0x5
 10689 00c3 00       		.byte	0
 10690 00c4 00       		.byte	0
 10691 00c5 10       		.uleb128 0x10
 10692 00c6 0F       		.uleb128 0xf
 10693 00c7 00       		.byte	0
 10694 00c8 0B       		.uleb128 0xb
 10695 00c9 0B       		.uleb128 0xb
 10696 00ca 49       		.uleb128 0x49
 10697 00cb 13       		.uleb128 0x13
 10698 00cc 00       		.byte	0
 10699 00cd 00       		.byte	0
 10700 00ce 11       		.uleb128 0x11
 10701 00cf 0F       		.uleb128 0xf
 10702 00d0 00       		.byte	0
 10703 00d1 0B       		.uleb128 0xb
 10704 00d2 0B       		.uleb128 0xb
 10705 00d3 00       		.byte	0
ARM GAS  C:\Users\rdn\AppData\Local\Temp\cco7w9JJ.s 			page 214


 10706 00d4 00       		.byte	0
 10707 00d5 12       		.uleb128 0x12
 10708 00d6 26       		.uleb128 0x26
 10709 00d7 00       		.byte	0
 10710 00d8 49       		.uleb128 0x49
 10711 00d9 13       		.uleb128 0x13
 10712 00da 00       		.byte	0
 10713 00db 00       		.byte	0
 10714 00dc 13       		.uleb128 0x13
 10715 00dd 2E       		.uleb128 0x2e
 10716 00de 01       		.byte	0x1
 10717 00df 03       		.uleb128 0x3
 10718 00e0 0E       		.uleb128 0xe
 10719 00e1 3A       		.uleb128 0x3a
 10720 00e2 0B       		.uleb128 0xb
 10721 00e3 3B       		.uleb128 0x3b
 10722 00e4 0B       		.uleb128 0xb
 10723 00e5 27       		.uleb128 0x27
 10724 00e6 19       		.uleb128 0x19
 10725 00e7 49       		.uleb128 0x49
 10726 00e8 13       		.uleb128 0x13
 10727 00e9 20       		.uleb128 0x20
 10728 00ea 0B       		.uleb128 0xb
 10729 00eb 01       		.uleb128 0x1
 10730 00ec 13       		.uleb128 0x13
 10731 00ed 00       		.byte	0
 10732 00ee 00       		.byte	0
 10733 00ef 14       		.uleb128 0x14
 10734 00f0 05       		.uleb128 0x5
 10735 00f1 00       		.byte	0
 10736 00f2 03       		.uleb128 0x3
 10737 00f3 08       		.uleb128 0x8
 10738 00f4 3A       		.uleb128 0x3a
 10739 00f5 0B       		.uleb128 0xb
 10740 00f6 3B       		.uleb128 0x3b
 10741 00f7 0B       		.uleb128 0xb
 10742 00f8 49       		.uleb128 0x49
 10743 00f9 13       		.uleb128 0x13
 10744 00fa 00       		.byte	0
 10745 00fb 00       		.byte	0
 10746 00fc 15       		.uleb128 0x15
 10747 00fd 17       		.uleb128 0x17
 10748 00fe 01       		.byte	0x1
 10749 00ff 0B       		.uleb128 0xb
 10750 0100 0B       		.uleb128 0xb
 10751 0101 3A       		.uleb128 0x3a
 10752 0102 0B       		.uleb128 0xb
 10753 0103 3B       		.uleb128 0x3b
 10754 0104 0B       		.uleb128 0xb
 10755 0105 01       		.uleb128 0x1
 10756 0106 13       		.uleb128 0x13
 10757 0107 00       		.byte	0
 10758 0108 00       		.byte	0
 10759 0109 16       		.uleb128 0x16
 10760 010a 0D       		.uleb128 0xd
 10761 010b 00       		.byte	0
 10762 010c 03       		.uleb128 0x3
ARM GAS  C:\Users\rdn\AppData\Local\Temp\cco7w9JJ.s 			page 215


 10763 010d 08       		.uleb128 0x8
 10764 010e 3A       		.uleb128 0x3a
 10765 010f 0B       		.uleb128 0xb
 10766 0110 3B       		.uleb128 0x3b
 10767 0111 0B       		.uleb128 0xb
 10768 0112 49       		.uleb128 0x49
 10769 0113 13       		.uleb128 0x13
 10770 0114 00       		.byte	0
 10771 0115 00       		.byte	0
 10772 0116 17       		.uleb128 0x17
 10773 0117 34       		.uleb128 0x34
 10774 0118 00       		.byte	0
 10775 0119 03       		.uleb128 0x3
 10776 011a 08       		.uleb128 0x8
 10777 011b 3A       		.uleb128 0x3a
 10778 011c 0B       		.uleb128 0xb
 10779 011d 3B       		.uleb128 0x3b
 10780 011e 0B       		.uleb128 0xb
 10781 011f 49       		.uleb128 0x49
 10782 0120 13       		.uleb128 0x13
 10783 0121 00       		.byte	0
 10784 0122 00       		.byte	0
 10785 0123 18       		.uleb128 0x18
 10786 0124 2E       		.uleb128 0x2e
 10787 0125 01       		.byte	0x1
 10788 0126 03       		.uleb128 0x3
 10789 0127 0E       		.uleb128 0xe
 10790 0128 3A       		.uleb128 0x3a
 10791 0129 0B       		.uleb128 0xb
 10792 012a 3B       		.uleb128 0x3b
 10793 012b 0B       		.uleb128 0xb
 10794 012c 27       		.uleb128 0x27
 10795 012d 19       		.uleb128 0x19
 10796 012e 20       		.uleb128 0x20
 10797 012f 0B       		.uleb128 0xb
 10798 0130 01       		.uleb128 0x1
 10799 0131 13       		.uleb128 0x13
 10800 0132 00       		.byte	0
 10801 0133 00       		.byte	0
 10802 0134 19       		.uleb128 0x19
 10803 0135 05       		.uleb128 0x5
 10804 0136 00       		.byte	0
 10805 0137 03       		.uleb128 0x3
 10806 0138 0E       		.uleb128 0xe
 10807 0139 3A       		.uleb128 0x3a
 10808 013a 0B       		.uleb128 0xb
 10809 013b 3B       		.uleb128 0x3b
 10810 013c 0B       		.uleb128 0xb
 10811 013d 49       		.uleb128 0x49
 10812 013e 13       		.uleb128 0x13
 10813 013f 00       		.byte	0
 10814 0140 00       		.byte	0
 10815 0141 1A       		.uleb128 0x1a
 10816 0142 34       		.uleb128 0x34
 10817 0143 00       		.byte	0
 10818 0144 03       		.uleb128 0x3
 10819 0145 0E       		.uleb128 0xe
ARM GAS  C:\Users\rdn\AppData\Local\Temp\cco7w9JJ.s 			page 216


 10820 0146 3A       		.uleb128 0x3a
 10821 0147 0B       		.uleb128 0xb
 10822 0148 3B       		.uleb128 0x3b
 10823 0149 0B       		.uleb128 0xb
 10824 014a 49       		.uleb128 0x49
 10825 014b 13       		.uleb128 0x13
 10826 014c 00       		.byte	0
 10827 014d 00       		.byte	0
 10828 014e 1B       		.uleb128 0x1b
 10829 014f 0B       		.uleb128 0xb
 10830 0150 01       		.byte	0x1
 10831 0151 00       		.byte	0
 10832 0152 00       		.byte	0
 10833 0153 1C       		.uleb128 0x1c
 10834 0154 2E       		.uleb128 0x2e
 10835 0155 01       		.byte	0x1
 10836 0156 03       		.uleb128 0x3
 10837 0157 0E       		.uleb128 0xe
 10838 0158 3A       		.uleb128 0x3a
 10839 0159 0B       		.uleb128 0xb
 10840 015a 3B       		.uleb128 0x3b
 10841 015b 0B       		.uleb128 0xb
 10842 015c 27       		.uleb128 0x27
 10843 015d 19       		.uleb128 0x19
 10844 015e 49       		.uleb128 0x49
 10845 015f 13       		.uleb128 0x13
 10846 0160 11       		.uleb128 0x11
 10847 0161 01       		.uleb128 0x1
 10848 0162 12       		.uleb128 0x12
 10849 0163 06       		.uleb128 0x6
 10850 0164 40       		.uleb128 0x40
 10851 0165 18       		.uleb128 0x18
 10852 0166 9742     		.uleb128 0x2117
 10853 0168 19       		.uleb128 0x19
 10854 0169 01       		.uleb128 0x1
 10855 016a 13       		.uleb128 0x13
 10856 016b 00       		.byte	0
 10857 016c 00       		.byte	0
 10858 016d 1D       		.uleb128 0x1d
 10859 016e 05       		.uleb128 0x5
 10860 016f 00       		.byte	0
 10861 0170 03       		.uleb128 0x3
 10862 0171 08       		.uleb128 0x8
 10863 0172 3A       		.uleb128 0x3a
 10864 0173 0B       		.uleb128 0xb
 10865 0174 3B       		.uleb128 0x3b
 10866 0175 0B       		.uleb128 0xb
 10867 0176 49       		.uleb128 0x49
 10868 0177 13       		.uleb128 0x13
 10869 0178 02       		.uleb128 0x2
 10870 0179 17       		.uleb128 0x17
 10871 017a 00       		.byte	0
 10872 017b 00       		.byte	0
 10873 017c 1E       		.uleb128 0x1e
 10874 017d 05       		.uleb128 0x5
 10875 017e 00       		.byte	0
 10876 017f 03       		.uleb128 0x3
ARM GAS  C:\Users\rdn\AppData\Local\Temp\cco7w9JJ.s 			page 217


 10877 0180 0E       		.uleb128 0xe
 10878 0181 3A       		.uleb128 0x3a
 10879 0182 0B       		.uleb128 0xb
 10880 0183 3B       		.uleb128 0x3b
 10881 0184 0B       		.uleb128 0xb
 10882 0185 49       		.uleb128 0x49
 10883 0186 13       		.uleb128 0x13
 10884 0187 02       		.uleb128 0x2
 10885 0188 18       		.uleb128 0x18
 10886 0189 00       		.byte	0
 10887 018a 00       		.byte	0
 10888 018b 1F       		.uleb128 0x1f
 10889 018c 2E       		.uleb128 0x2e
 10890 018d 01       		.byte	0x1
 10891 018e 03       		.uleb128 0x3
 10892 018f 0E       		.uleb128 0xe
 10893 0190 3A       		.uleb128 0x3a
 10894 0191 0B       		.uleb128 0xb
 10895 0192 3B       		.uleb128 0x3b
 10896 0193 0B       		.uleb128 0xb
 10897 0194 27       		.uleb128 0x27
 10898 0195 19       		.uleb128 0x19
 10899 0196 11       		.uleb128 0x11
 10900 0197 01       		.uleb128 0x1
 10901 0198 12       		.uleb128 0x12
 10902 0199 06       		.uleb128 0x6
 10903 019a 40       		.uleb128 0x40
 10904 019b 18       		.uleb128 0x18
 10905 019c 9642     		.uleb128 0x2116
 10906 019e 19       		.uleb128 0x19
 10907 019f 01       		.uleb128 0x1
 10908 01a0 13       		.uleb128 0x13
 10909 01a1 00       		.byte	0
 10910 01a2 00       		.byte	0
 10911 01a3 20       		.uleb128 0x20
 10912 01a4 05       		.uleb128 0x5
 10913 01a5 00       		.byte	0
 10914 01a6 03       		.uleb128 0x3
 10915 01a7 0E       		.uleb128 0xe
 10916 01a8 3A       		.uleb128 0x3a
 10917 01a9 0B       		.uleb128 0xb
 10918 01aa 3B       		.uleb128 0x3b
 10919 01ab 0B       		.uleb128 0xb
 10920 01ac 49       		.uleb128 0x49
 10921 01ad 13       		.uleb128 0x13
 10922 01ae 02       		.uleb128 0x2
 10923 01af 17       		.uleb128 0x17
 10924 01b0 00       		.byte	0
 10925 01b1 00       		.byte	0
 10926 01b2 21       		.uleb128 0x21
 10927 01b3 34       		.uleb128 0x34
 10928 01b4 00       		.byte	0
 10929 01b5 03       		.uleb128 0x3
 10930 01b6 08       		.uleb128 0x8
 10931 01b7 3A       		.uleb128 0x3a
 10932 01b8 0B       		.uleb128 0xb
 10933 01b9 3B       		.uleb128 0x3b
ARM GAS  C:\Users\rdn\AppData\Local\Temp\cco7w9JJ.s 			page 218


 10934 01ba 0B       		.uleb128 0xb
 10935 01bb 49       		.uleb128 0x49
 10936 01bc 13       		.uleb128 0x13
 10937 01bd 02       		.uleb128 0x2
 10938 01be 17       		.uleb128 0x17
 10939 01bf 00       		.byte	0
 10940 01c0 00       		.byte	0
 10941 01c1 22       		.uleb128 0x22
 10942 01c2 1D       		.uleb128 0x1d
 10943 01c3 01       		.byte	0x1
 10944 01c4 31       		.uleb128 0x31
 10945 01c5 13       		.uleb128 0x13
 10946 01c6 11       		.uleb128 0x11
 10947 01c7 01       		.uleb128 0x1
 10948 01c8 12       		.uleb128 0x12
 10949 01c9 06       		.uleb128 0x6
 10950 01ca 58       		.uleb128 0x58
 10951 01cb 0B       		.uleb128 0xb
 10952 01cc 59       		.uleb128 0x59
 10953 01cd 0B       		.uleb128 0xb
 10954 01ce 01       		.uleb128 0x1
 10955 01cf 13       		.uleb128 0x13
 10956 01d0 00       		.byte	0
 10957 01d1 00       		.byte	0
 10958 01d2 23       		.uleb128 0x23
 10959 01d3 05       		.uleb128 0x5
 10960 01d4 00       		.byte	0
 10961 01d5 31       		.uleb128 0x31
 10962 01d6 13       		.uleb128 0x13
 10963 01d7 02       		.uleb128 0x2
 10964 01d8 17       		.uleb128 0x17
 10965 01d9 00       		.byte	0
 10966 01da 00       		.byte	0
 10967 01db 24       		.uleb128 0x24
 10968 01dc 0B       		.uleb128 0xb
 10969 01dd 01       		.byte	0x1
 10970 01de 11       		.uleb128 0x11
 10971 01df 01       		.uleb128 0x1
 10972 01e0 12       		.uleb128 0x12
 10973 01e1 06       		.uleb128 0x6
 10974 01e2 00       		.byte	0
 10975 01e3 00       		.byte	0
 10976 01e4 25       		.uleb128 0x25
 10977 01e5 26       		.uleb128 0x26
 10978 01e6 00       		.byte	0
 10979 01e7 00       		.byte	0
 10980 01e8 00       		.byte	0
 10981 01e9 26       		.uleb128 0x26
 10982 01ea 1D       		.uleb128 0x1d
 10983 01eb 01       		.byte	0x1
 10984 01ec 31       		.uleb128 0x31
 10985 01ed 13       		.uleb128 0x13
 10986 01ee 11       		.uleb128 0x11
 10987 01ef 01       		.uleb128 0x1
 10988 01f0 12       		.uleb128 0x12
 10989 01f1 06       		.uleb128 0x6
 10990 01f2 58       		.uleb128 0x58
ARM GAS  C:\Users\rdn\AppData\Local\Temp\cco7w9JJ.s 			page 219


 10991 01f3 0B       		.uleb128 0xb
 10992 01f4 59       		.uleb128 0x59
 10993 01f5 0B       		.uleb128 0xb
 10994 01f6 00       		.byte	0
 10995 01f7 00       		.byte	0
 10996 01f8 27       		.uleb128 0x27
 10997 01f9 34       		.uleb128 0x34
 10998 01fa 00       		.byte	0
 10999 01fb 31       		.uleb128 0x31
 11000 01fc 13       		.uleb128 0x13
 11001 01fd 00       		.byte	0
 11002 01fe 00       		.byte	0
 11003 01ff 28       		.uleb128 0x28
 11004 0200 2E       		.uleb128 0x2e
 11005 0201 01       		.byte	0x1
 11006 0202 03       		.uleb128 0x3
 11007 0203 0E       		.uleb128 0xe
 11008 0204 3A       		.uleb128 0x3a
 11009 0205 0B       		.uleb128 0xb
 11010 0206 3B       		.uleb128 0x3b
 11011 0207 05       		.uleb128 0x5
 11012 0208 27       		.uleb128 0x27
 11013 0209 19       		.uleb128 0x19
 11014 020a 11       		.uleb128 0x11
 11015 020b 01       		.uleb128 0x1
 11016 020c 12       		.uleb128 0x12
 11017 020d 06       		.uleb128 0x6
 11018 020e 40       		.uleb128 0x40
 11019 020f 18       		.uleb128 0x18
 11020 0210 9642     		.uleb128 0x2116
 11021 0212 19       		.uleb128 0x19
 11022 0213 01       		.uleb128 0x1
 11023 0214 13       		.uleb128 0x13
 11024 0215 00       		.byte	0
 11025 0216 00       		.byte	0
 11026 0217 29       		.uleb128 0x29
 11027 0218 05       		.uleb128 0x5
 11028 0219 00       		.byte	0
 11029 021a 03       		.uleb128 0x3
 11030 021b 0E       		.uleb128 0xe
 11031 021c 3A       		.uleb128 0x3a
 11032 021d 0B       		.uleb128 0xb
 11033 021e 3B       		.uleb128 0x3b
 11034 021f 05       		.uleb128 0x5
 11035 0220 49       		.uleb128 0x49
 11036 0221 13       		.uleb128 0x13
 11037 0222 02       		.uleb128 0x2
 11038 0223 17       		.uleb128 0x17
 11039 0224 00       		.byte	0
 11040 0225 00       		.byte	0
 11041 0226 2A       		.uleb128 0x2a
 11042 0227 34       		.uleb128 0x34
 11043 0228 00       		.byte	0
 11044 0229 03       		.uleb128 0x3
 11045 022a 08       		.uleb128 0x8
 11046 022b 3A       		.uleb128 0x3a
 11047 022c 0B       		.uleb128 0xb
ARM GAS  C:\Users\rdn\AppData\Local\Temp\cco7w9JJ.s 			page 220


 11048 022d 3B       		.uleb128 0x3b
 11049 022e 05       		.uleb128 0x5
 11050 022f 49       		.uleb128 0x49
 11051 0230 13       		.uleb128 0x13
 11052 0231 02       		.uleb128 0x2
 11053 0232 17       		.uleb128 0x17
 11054 0233 00       		.byte	0
 11055 0234 00       		.byte	0
 11056 0235 2B       		.uleb128 0x2b
 11057 0236 34       		.uleb128 0x34
 11058 0237 00       		.byte	0
 11059 0238 03       		.uleb128 0x3
 11060 0239 08       		.uleb128 0x8
 11061 023a 3A       		.uleb128 0x3a
 11062 023b 0B       		.uleb128 0xb
 11063 023c 3B       		.uleb128 0x3b
 11064 023d 05       		.uleb128 0x5
 11065 023e 49       		.uleb128 0x49
 11066 023f 13       		.uleb128 0x13
 11067 0240 00       		.byte	0
 11068 0241 00       		.byte	0
 11069 0242 2C       		.uleb128 0x2c
 11070 0243 1D       		.uleb128 0x1d
 11071 0244 01       		.byte	0x1
 11072 0245 31       		.uleb128 0x31
 11073 0246 13       		.uleb128 0x13
 11074 0247 11       		.uleb128 0x11
 11075 0248 01       		.uleb128 0x1
 11076 0249 12       		.uleb128 0x12
 11077 024a 06       		.uleb128 0x6
 11078 024b 58       		.uleb128 0x58
 11079 024c 0B       		.uleb128 0xb
 11080 024d 59       		.uleb128 0x59
 11081 024e 05       		.uleb128 0x5
 11082 024f 01       		.uleb128 0x1
 11083 0250 13       		.uleb128 0x13
 11084 0251 00       		.byte	0
 11085 0252 00       		.byte	0
 11086 0253 2D       		.uleb128 0x2d
 11087 0254 1D       		.uleb128 0x1d
 11088 0255 01       		.byte	0x1
 11089 0256 31       		.uleb128 0x31
 11090 0257 13       		.uleb128 0x13
 11091 0258 11       		.uleb128 0x11
 11092 0259 01       		.uleb128 0x1
 11093 025a 12       		.uleb128 0x12
 11094 025b 06       		.uleb128 0x6
 11095 025c 58       		.uleb128 0x58
 11096 025d 0B       		.uleb128 0xb
 11097 025e 59       		.uleb128 0x59
 11098 025f 05       		.uleb128 0x5
 11099 0260 00       		.byte	0
 11100 0261 00       		.byte	0
 11101 0262 2E       		.uleb128 0x2e
 11102 0263 2E       		.uleb128 0x2e
 11103 0264 01       		.byte	0x1
 11104 0265 03       		.uleb128 0x3
ARM GAS  C:\Users\rdn\AppData\Local\Temp\cco7w9JJ.s 			page 221


 11105 0266 0E       		.uleb128 0xe
 11106 0267 3A       		.uleb128 0x3a
 11107 0268 0B       		.uleb128 0xb
 11108 0269 3B       		.uleb128 0x3b
 11109 026a 05       		.uleb128 0x5
 11110 026b 27       		.uleb128 0x27
 11111 026c 19       		.uleb128 0x19
 11112 026d 11       		.uleb128 0x11
 11113 026e 01       		.uleb128 0x1
 11114 026f 12       		.uleb128 0x12
 11115 0270 06       		.uleb128 0x6
 11116 0271 40       		.uleb128 0x40
 11117 0272 18       		.uleb128 0x18
 11118 0273 9742     		.uleb128 0x2117
 11119 0275 19       		.uleb128 0x19
 11120 0276 01       		.uleb128 0x1
 11121 0277 13       		.uleb128 0x13
 11122 0278 00       		.byte	0
 11123 0279 00       		.byte	0
 11124 027a 2F       		.uleb128 0x2f
 11125 027b 05       		.uleb128 0x5
 11126 027c 00       		.byte	0
 11127 027d 03       		.uleb128 0x3
 11128 027e 0E       		.uleb128 0xe
 11129 027f 3A       		.uleb128 0x3a
 11130 0280 0B       		.uleb128 0xb
 11131 0281 3B       		.uleb128 0x3b
 11132 0282 05       		.uleb128 0x5
 11133 0283 49       		.uleb128 0x49
 11134 0284 13       		.uleb128 0x13
 11135 0285 02       		.uleb128 0x2
 11136 0286 18       		.uleb128 0x18
 11137 0287 00       		.byte	0
 11138 0288 00       		.byte	0
 11139 0289 30       		.uleb128 0x30
 11140 028a 34       		.uleb128 0x34
 11141 028b 00       		.byte	0
 11142 028c 03       		.uleb128 0x3
 11143 028d 0E       		.uleb128 0xe
 11144 028e 3A       		.uleb128 0x3a
 11145 028f 0B       		.uleb128 0xb
 11146 0290 3B       		.uleb128 0x3b
 11147 0291 05       		.uleb128 0x5
 11148 0292 49       		.uleb128 0x49
 11149 0293 13       		.uleb128 0x13
 11150 0294 02       		.uleb128 0x2
 11151 0295 17       		.uleb128 0x17
 11152 0296 00       		.byte	0
 11153 0297 00       		.byte	0
 11154 0298 31       		.uleb128 0x31
 11155 0299 34       		.uleb128 0x34
 11156 029a 00       		.byte	0
 11157 029b 03       		.uleb128 0x3
 11158 029c 08       		.uleb128 0x8
 11159 029d 3A       		.uleb128 0x3a
 11160 029e 0B       		.uleb128 0xb
 11161 029f 3B       		.uleb128 0x3b
ARM GAS  C:\Users\rdn\AppData\Local\Temp\cco7w9JJ.s 			page 222


 11162 02a0 05       		.uleb128 0x5
 11163 02a1 49       		.uleb128 0x49
 11164 02a2 13       		.uleb128 0x13
 11165 02a3 02       		.uleb128 0x2
 11166 02a4 18       		.uleb128 0x18
 11167 02a5 00       		.byte	0
 11168 02a6 00       		.byte	0
 11169 02a7 32       		.uleb128 0x32
 11170 02a8 898201   		.uleb128 0x4109
 11171 02ab 01       		.byte	0x1
 11172 02ac 11       		.uleb128 0x11
 11173 02ad 01       		.uleb128 0x1
 11174 02ae 31       		.uleb128 0x31
 11175 02af 13       		.uleb128 0x13
 11176 02b0 01       		.uleb128 0x1
 11177 02b1 13       		.uleb128 0x13
 11178 02b2 00       		.byte	0
 11179 02b3 00       		.byte	0
 11180 02b4 33       		.uleb128 0x33
 11181 02b5 8A8201   		.uleb128 0x410a
 11182 02b8 00       		.byte	0
 11183 02b9 02       		.uleb128 0x2
 11184 02ba 18       		.uleb128 0x18
 11185 02bb 9142     		.uleb128 0x2111
 11186 02bd 18       		.uleb128 0x18
 11187 02be 00       		.byte	0
 11188 02bf 00       		.byte	0
 11189 02c0 34       		.uleb128 0x34
 11190 02c1 898201   		.uleb128 0x4109
 11191 02c4 01       		.byte	0x1
 11192 02c5 11       		.uleb128 0x11
 11193 02c6 01       		.uleb128 0x1
 11194 02c7 31       		.uleb128 0x31
 11195 02c8 13       		.uleb128 0x13
 11196 02c9 00       		.byte	0
 11197 02ca 00       		.byte	0
 11198 02cb 35       		.uleb128 0x35
 11199 02cc 34       		.uleb128 0x34
 11200 02cd 00       		.byte	0
 11201 02ce 03       		.uleb128 0x3
 11202 02cf 0E       		.uleb128 0xe
 11203 02d0 3A       		.uleb128 0x3a
 11204 02d1 0B       		.uleb128 0xb
 11205 02d2 3B       		.uleb128 0x3b
 11206 02d3 05       		.uleb128 0x5
 11207 02d4 49       		.uleb128 0x49
 11208 02d5 13       		.uleb128 0x13
 11209 02d6 02       		.uleb128 0x2
 11210 02d7 18       		.uleb128 0x18
 11211 02d8 00       		.byte	0
 11212 02d9 00       		.byte	0
 11213 02da 36       		.uleb128 0x36
 11214 02db 34       		.uleb128 0x34
 11215 02dc 00       		.byte	0
 11216 02dd 31       		.uleb128 0x31
 11217 02de 13       		.uleb128 0x13
 11218 02df 02       		.uleb128 0x2
ARM GAS  C:\Users\rdn\AppData\Local\Temp\cco7w9JJ.s 			page 223


 11219 02e0 18       		.uleb128 0x18
 11220 02e1 00       		.byte	0
 11221 02e2 00       		.byte	0
 11222 02e3 37       		.uleb128 0x37
 11223 02e4 2E       		.uleb128 0x2e
 11224 02e5 01       		.byte	0x1
 11225 02e6 03       		.uleb128 0x3
 11226 02e7 0E       		.uleb128 0xe
 11227 02e8 3A       		.uleb128 0x3a
 11228 02e9 0B       		.uleb128 0xb
 11229 02ea 3B       		.uleb128 0x3b
 11230 02eb 05       		.uleb128 0x5
 11231 02ec 27       		.uleb128 0x27
 11232 02ed 19       		.uleb128 0x19
 11233 02ee 49       		.uleb128 0x49
 11234 02ef 13       		.uleb128 0x13
 11235 02f0 11       		.uleb128 0x11
 11236 02f1 01       		.uleb128 0x1
 11237 02f2 12       		.uleb128 0x12
 11238 02f3 06       		.uleb128 0x6
 11239 02f4 40       		.uleb128 0x40
 11240 02f5 18       		.uleb128 0x18
 11241 02f6 9742     		.uleb128 0x2117
 11242 02f8 19       		.uleb128 0x19
 11243 02f9 01       		.uleb128 0x1
 11244 02fa 13       		.uleb128 0x13
 11245 02fb 00       		.byte	0
 11246 02fc 00       		.byte	0
 11247 02fd 38       		.uleb128 0x38
 11248 02fe 34       		.uleb128 0x34
 11249 02ff 00       		.byte	0
 11250 0300 31       		.uleb128 0x31
 11251 0301 13       		.uleb128 0x13
 11252 0302 02       		.uleb128 0x2
 11253 0303 17       		.uleb128 0x17
 11254 0304 00       		.byte	0
 11255 0305 00       		.byte	0
 11256 0306 39       		.uleb128 0x39
 11257 0307 0B       		.uleb128 0xb
 11258 0308 01       		.byte	0x1
 11259 0309 11       		.uleb128 0x11
 11260 030a 01       		.uleb128 0x1
 11261 030b 12       		.uleb128 0x12
 11262 030c 06       		.uleb128 0x6
 11263 030d 01       		.uleb128 0x1
 11264 030e 13       		.uleb128 0x13
 11265 030f 00       		.byte	0
 11266 0310 00       		.byte	0
 11267 0311 3A       		.uleb128 0x3a
 11268 0312 898201   		.uleb128 0x4109
 11269 0315 00       		.byte	0
 11270 0316 11       		.uleb128 0x11
 11271 0317 01       		.uleb128 0x1
 11272 0318 31       		.uleb128 0x31
 11273 0319 13       		.uleb128 0x13
 11274 031a 00       		.byte	0
 11275 031b 00       		.byte	0
ARM GAS  C:\Users\rdn\AppData\Local\Temp\cco7w9JJ.s 			page 224


 11276 031c 3B       		.uleb128 0x3b
 11277 031d 2E       		.uleb128 0x2e
 11278 031e 01       		.byte	0x1
 11279 031f 3F       		.uleb128 0x3f
 11280 0320 19       		.uleb128 0x19
 11281 0321 03       		.uleb128 0x3
 11282 0322 0E       		.uleb128 0xe
 11283 0323 3A       		.uleb128 0x3a
 11284 0324 0B       		.uleb128 0xb
 11285 0325 3B       		.uleb128 0x3b
 11286 0326 0B       		.uleb128 0xb
 11287 0327 27       		.uleb128 0x27
 11288 0328 19       		.uleb128 0x19
 11289 0329 49       		.uleb128 0x49
 11290 032a 13       		.uleb128 0x13
 11291 032b 11       		.uleb128 0x11
 11292 032c 01       		.uleb128 0x1
 11293 032d 12       		.uleb128 0x12
 11294 032e 06       		.uleb128 0x6
 11295 032f 40       		.uleb128 0x40
 11296 0330 18       		.uleb128 0x18
 11297 0331 9742     		.uleb128 0x2117
 11298 0333 19       		.uleb128 0x19
 11299 0334 01       		.uleb128 0x1
 11300 0335 13       		.uleb128 0x13
 11301 0336 00       		.byte	0
 11302 0337 00       		.byte	0
 11303 0338 3C       		.uleb128 0x3c
 11304 0339 2E       		.uleb128 0x2e
 11305 033a 01       		.byte	0x1
 11306 033b 3F       		.uleb128 0x3f
 11307 033c 19       		.uleb128 0x19
 11308 033d 03       		.uleb128 0x3
 11309 033e 0E       		.uleb128 0xe
 11310 033f 3A       		.uleb128 0x3a
 11311 0340 0B       		.uleb128 0xb
 11312 0341 3B       		.uleb128 0x3b
 11313 0342 0B       		.uleb128 0xb
 11314 0343 27       		.uleb128 0x27
 11315 0344 19       		.uleb128 0x19
 11316 0345 49       		.uleb128 0x49
 11317 0346 13       		.uleb128 0x13
 11318 0347 11       		.uleb128 0x11
 11319 0348 01       		.uleb128 0x1
 11320 0349 12       		.uleb128 0x12
 11321 034a 06       		.uleb128 0x6
 11322 034b 40       		.uleb128 0x40
 11323 034c 18       		.uleb128 0x18
 11324 034d 9642     		.uleb128 0x2116
 11325 034f 19       		.uleb128 0x19
 11326 0350 01       		.uleb128 0x1
 11327 0351 13       		.uleb128 0x13
 11328 0352 00       		.byte	0
 11329 0353 00       		.byte	0
 11330 0354 3D       		.uleb128 0x3d
 11331 0355 2E       		.uleb128 0x2e
 11332 0356 01       		.byte	0x1
ARM GAS  C:\Users\rdn\AppData\Local\Temp\cco7w9JJ.s 			page 225


 11333 0357 3F       		.uleb128 0x3f
 11334 0358 19       		.uleb128 0x19
 11335 0359 03       		.uleb128 0x3
 11336 035a 0E       		.uleb128 0xe
 11337 035b 3A       		.uleb128 0x3a
 11338 035c 0B       		.uleb128 0xb
 11339 035d 3B       		.uleb128 0x3b
 11340 035e 05       		.uleb128 0x5
 11341 035f 27       		.uleb128 0x27
 11342 0360 19       		.uleb128 0x19
 11343 0361 49       		.uleb128 0x49
 11344 0362 13       		.uleb128 0x13
 11345 0363 11       		.uleb128 0x11
 11346 0364 01       		.uleb128 0x1
 11347 0365 12       		.uleb128 0x12
 11348 0366 06       		.uleb128 0x6
 11349 0367 40       		.uleb128 0x40
 11350 0368 18       		.uleb128 0x18
 11351 0369 9642     		.uleb128 0x2116
 11352 036b 19       		.uleb128 0x19
 11353 036c 01       		.uleb128 0x1
 11354 036d 13       		.uleb128 0x13
 11355 036e 00       		.byte	0
 11356 036f 00       		.byte	0
 11357 0370 3E       		.uleb128 0x3e
 11358 0371 2E       		.uleb128 0x2e
 11359 0372 01       		.byte	0x1
 11360 0373 3F       		.uleb128 0x3f
 11361 0374 19       		.uleb128 0x19
 11362 0375 03       		.uleb128 0x3
 11363 0376 0E       		.uleb128 0xe
 11364 0377 3A       		.uleb128 0x3a
 11365 0378 0B       		.uleb128 0xb
 11366 0379 3B       		.uleb128 0x3b
 11367 037a 05       		.uleb128 0x5
 11368 037b 27       		.uleb128 0x27
 11369 037c 19       		.uleb128 0x19
 11370 037d 49       		.uleb128 0x49
 11371 037e 13       		.uleb128 0x13
 11372 037f 11       		.uleb128 0x11
 11373 0380 01       		.uleb128 0x1
 11374 0381 12       		.uleb128 0x12
 11375 0382 06       		.uleb128 0x6
 11376 0383 40       		.uleb128 0x40
 11377 0384 18       		.uleb128 0x18
 11378 0385 9742     		.uleb128 0x2117
 11379 0387 19       		.uleb128 0x19
 11380 0388 01       		.uleb128 0x1
 11381 0389 13       		.uleb128 0x13
 11382 038a 00       		.byte	0
 11383 038b 00       		.byte	0
 11384 038c 3F       		.uleb128 0x3f
 11385 038d 05       		.uleb128 0x5
 11386 038e 00       		.byte	0
 11387 038f 03       		.uleb128 0x3
 11388 0390 08       		.uleb128 0x8
 11389 0391 3A       		.uleb128 0x3a
ARM GAS  C:\Users\rdn\AppData\Local\Temp\cco7w9JJ.s 			page 226


 11390 0392 0B       		.uleb128 0xb
 11391 0393 3B       		.uleb128 0x3b
 11392 0394 05       		.uleb128 0x5
 11393 0395 49       		.uleb128 0x49
 11394 0396 13       		.uleb128 0x13
 11395 0397 02       		.uleb128 0x2
 11396 0398 18       		.uleb128 0x18
 11397 0399 00       		.byte	0
 11398 039a 00       		.byte	0
 11399 039b 40       		.uleb128 0x40
 11400 039c 05       		.uleb128 0x5
 11401 039d 00       		.byte	0
 11402 039e 03       		.uleb128 0x3
 11403 039f 08       		.uleb128 0x8
 11404 03a0 3A       		.uleb128 0x3a
 11405 03a1 0B       		.uleb128 0xb
 11406 03a2 3B       		.uleb128 0x3b
 11407 03a3 05       		.uleb128 0x5
 11408 03a4 49       		.uleb128 0x49
 11409 03a5 13       		.uleb128 0x13
 11410 03a6 02       		.uleb128 0x2
 11411 03a7 17       		.uleb128 0x17
 11412 03a8 00       		.byte	0
 11413 03a9 00       		.byte	0
 11414 03aa 41       		.uleb128 0x41
 11415 03ab 898201   		.uleb128 0x4109
 11416 03ae 01       		.byte	0x1
 11417 03af 11       		.uleb128 0x11
 11418 03b0 01       		.uleb128 0x1
 11419 03b1 9342     		.uleb128 0x2113
 11420 03b3 18       		.uleb128 0x18
 11421 03b4 01       		.uleb128 0x1
 11422 03b5 13       		.uleb128 0x13
 11423 03b6 00       		.byte	0
 11424 03b7 00       		.byte	0
 11425 03b8 42       		.uleb128 0x42
 11426 03b9 15       		.uleb128 0x15
 11427 03ba 01       		.byte	0x1
 11428 03bb 27       		.uleb128 0x27
 11429 03bc 19       		.uleb128 0x19
 11430 03bd 01       		.uleb128 0x1
 11431 03be 13       		.uleb128 0x13
 11432 03bf 00       		.byte	0
 11433 03c0 00       		.byte	0
 11434 03c1 43       		.uleb128 0x43
 11435 03c2 05       		.uleb128 0x5
 11436 03c3 00       		.byte	0
 11437 03c4 49       		.uleb128 0x49
 11438 03c5 13       		.uleb128 0x13
 11439 03c6 00       		.byte	0
 11440 03c7 00       		.byte	0
 11441 03c8 44       		.uleb128 0x44
 11442 03c9 34       		.uleb128 0x34
 11443 03ca 00       		.byte	0
 11444 03cb 03       		.uleb128 0x3
 11445 03cc 0E       		.uleb128 0xe
 11446 03cd 3A       		.uleb128 0x3a
ARM GAS  C:\Users\rdn\AppData\Local\Temp\cco7w9JJ.s 			page 227


 11447 03ce 0B       		.uleb128 0xb
 11448 03cf 3B       		.uleb128 0x3b
 11449 03d0 0B       		.uleb128 0xb
 11450 03d1 49       		.uleb128 0x49
 11451 03d2 13       		.uleb128 0x13
 11452 03d3 3F       		.uleb128 0x3f
 11453 03d4 19       		.uleb128 0x19
 11454 03d5 3C       		.uleb128 0x3c
 11455 03d6 19       		.uleb128 0x19
 11456 03d7 00       		.byte	0
 11457 03d8 00       		.byte	0
 11458 03d9 45       		.uleb128 0x45
 11459 03da 2E       		.uleb128 0x2e
 11460 03db 00       		.byte	0
 11461 03dc 3F       		.uleb128 0x3f
 11462 03dd 19       		.uleb128 0x19
 11463 03de 3C       		.uleb128 0x3c
 11464 03df 19       		.uleb128 0x19
 11465 03e0 6E       		.uleb128 0x6e
 11466 03e1 0E       		.uleb128 0xe
 11467 03e2 03       		.uleb128 0x3
 11468 03e3 0E       		.uleb128 0xe
 11469 03e4 3A       		.uleb128 0x3a
 11470 03e5 0B       		.uleb128 0xb
 11471 03e6 3B       		.uleb128 0x3b
 11472 03e7 0B       		.uleb128 0xb
 11473 03e8 00       		.byte	0
 11474 03e9 00       		.byte	0
 11475 03ea 46       		.uleb128 0x46
 11476 03eb 2E       		.uleb128 0x2e
 11477 03ec 00       		.byte	0
 11478 03ed 3F       		.uleb128 0x3f
 11479 03ee 19       		.uleb128 0x19
 11480 03ef 3C       		.uleb128 0x3c
 11481 03f0 19       		.uleb128 0x19
 11482 03f1 6E       		.uleb128 0x6e
 11483 03f2 0E       		.uleb128 0xe
 11484 03f3 03       		.uleb128 0x3
 11485 03f4 0E       		.uleb128 0xe
 11486 03f5 00       		.byte	0
 11487 03f6 00       		.byte	0
 11488 03f7 47       		.uleb128 0x47
 11489 03f8 2E       		.uleb128 0x2e
 11490 03f9 00       		.byte	0
 11491 03fa 3F       		.uleb128 0x3f
 11492 03fb 19       		.uleb128 0x19
 11493 03fc 3C       		.uleb128 0x3c
 11494 03fd 19       		.uleb128 0x19
 11495 03fe 6E       		.uleb128 0x6e
 11496 03ff 0E       		.uleb128 0xe
 11497 0400 03       		.uleb128 0x3
 11498 0401 0E       		.uleb128 0xe
 11499 0402 3A       		.uleb128 0x3a
 11500 0403 0B       		.uleb128 0xb
 11501 0404 3B       		.uleb128 0x3b
 11502 0405 05       		.uleb128 0x5
 11503 0406 00       		.byte	0
ARM GAS  C:\Users\rdn\AppData\Local\Temp\cco7w9JJ.s 			page 228


 11504 0407 00       		.byte	0
 11505 0408 00       		.byte	0
 11506              		.section	.debug_loc,"",%progbits
 11507              	.Ldebug_loc0:
 11508              	.LLST0:
 11509 0000 00000000 		.4byte	.LVL0
 11510 0004 1E000000 		.4byte	.LVL1
 11511 0008 0100     		.2byte	0x1
 11512 000a 50       		.byte	0x50
 11513 000b 1E000000 		.4byte	.LVL1
 11514 000f 20000000 		.4byte	.LVL2
 11515 0013 0400     		.2byte	0x4
 11516 0015 F3       		.byte	0xf3
 11517 0016 01       		.uleb128 0x1
 11518 0017 50       		.byte	0x50
 11519 0018 9F       		.byte	0x9f
 11520 0019 20000000 		.4byte	.LVL2
 11521 001d 22000000 		.4byte	.LVL3
 11522 0021 0100     		.2byte	0x1
 11523 0023 50       		.byte	0x50
 11524 0024 22000000 		.4byte	.LVL3
 11525 0028 24000000 		.4byte	.LVL4
 11526 002c 0400     		.2byte	0x4
 11527 002e F3       		.byte	0xf3
 11528 002f 01       		.uleb128 0x1
 11529 0030 50       		.byte	0x50
 11530 0031 9F       		.byte	0x9f
 11531 0032 24000000 		.4byte	.LVL4
 11532 0036 26000000 		.4byte	.LVL5
 11533 003a 0100     		.2byte	0x1
 11534 003c 50       		.byte	0x50
 11535 003d 26000000 		.4byte	.LVL5
 11536 0041 28000000 		.4byte	.LVL6
 11537 0045 0400     		.2byte	0x4
 11538 0047 F3       		.byte	0xf3
 11539 0048 01       		.uleb128 0x1
 11540 0049 50       		.byte	0x50
 11541 004a 9F       		.byte	0x9f
 11542 004b 28000000 		.4byte	.LVL6
 11543 004f 2A000000 		.4byte	.LVL7
 11544 0053 0100     		.2byte	0x1
 11545 0055 50       		.byte	0x50
 11546 0056 2A000000 		.4byte	.LVL7
 11547 005a 2C000000 		.4byte	.LVL8
 11548 005e 0400     		.2byte	0x4
 11549 0060 F3       		.byte	0xf3
 11550 0061 01       		.uleb128 0x1
 11551 0062 50       		.byte	0x50
 11552 0063 9F       		.byte	0x9f
 11553 0064 2C000000 		.4byte	.LVL8
 11554 0068 2E000000 		.4byte	.LVL9
 11555 006c 0100     		.2byte	0x1
 11556 006e 50       		.byte	0x50
 11557 006f 2E000000 		.4byte	.LVL9
 11558 0073 40000000 		.4byte	.LFE20
 11559 0077 0400     		.2byte	0x4
 11560 0079 F3       		.byte	0xf3
ARM GAS  C:\Users\rdn\AppData\Local\Temp\cco7w9JJ.s 			page 229


 11561 007a 01       		.uleb128 0x1
 11562 007b 50       		.byte	0x50
 11563 007c 9F       		.byte	0x9f
 11564 007d 00000000 		.4byte	0
 11565 0081 00000000 		.4byte	0
 11566              	.LLST1:
 11567 0085 00000000 		.4byte	.LVL10
 11568 0089 4E000000 		.4byte	.LVL11
 11569 008d 0100     		.2byte	0x1
 11570 008f 50       		.byte	0x50
 11571 0090 4E000000 		.4byte	.LVL11
 11572 0094 50000000 		.4byte	.LVL12
 11573 0098 0400     		.2byte	0x4
 11574 009a F3       		.byte	0xf3
 11575 009b 01       		.uleb128 0x1
 11576 009c 50       		.byte	0x50
 11577 009d 9F       		.byte	0x9f
 11578 009e 50000000 		.4byte	.LVL12
 11579 00a2 52000000 		.4byte	.LVL13
 11580 00a6 0100     		.2byte	0x1
 11581 00a8 50       		.byte	0x50
 11582 00a9 52000000 		.4byte	.LVL13
 11583 00ad 54000000 		.4byte	.LVL14
 11584 00b1 0400     		.2byte	0x4
 11585 00b3 F3       		.byte	0xf3
 11586 00b4 01       		.uleb128 0x1
 11587 00b5 50       		.byte	0x50
 11588 00b6 9F       		.byte	0x9f
 11589 00b7 54000000 		.4byte	.LVL14
 11590 00bb 56000000 		.4byte	.LVL15
 11591 00bf 0100     		.2byte	0x1
 11592 00c1 50       		.byte	0x50
 11593 00c2 56000000 		.4byte	.LVL15
 11594 00c6 58000000 		.4byte	.LVL16
 11595 00ca 0400     		.2byte	0x4
 11596 00cc F3       		.byte	0xf3
 11597 00cd 01       		.uleb128 0x1
 11598 00ce 50       		.byte	0x50
 11599 00cf 9F       		.byte	0x9f
 11600 00d0 58000000 		.4byte	.LVL16
 11601 00d4 5A000000 		.4byte	.LVL17
 11602 00d8 0100     		.2byte	0x1
 11603 00da 50       		.byte	0x50
 11604 00db 5A000000 		.4byte	.LVL17
 11605 00df 5C000000 		.4byte	.LVL18
 11606 00e3 0400     		.2byte	0x4
 11607 00e5 F3       		.byte	0xf3
 11608 00e6 01       		.uleb128 0x1
 11609 00e7 50       		.byte	0x50
 11610 00e8 9F       		.byte	0x9f
 11611 00e9 5C000000 		.4byte	.LVL18
 11612 00ed 5E000000 		.4byte	.LVL19
 11613 00f1 0100     		.2byte	0x1
 11614 00f3 50       		.byte	0x50
 11615 00f4 5E000000 		.4byte	.LVL19
 11616 00f8 60000000 		.4byte	.LVL20
 11617 00fc 0400     		.2byte	0x4
ARM GAS  C:\Users\rdn\AppData\Local\Temp\cco7w9JJ.s 			page 230


 11618 00fe F3       		.byte	0xf3
 11619 00ff 01       		.uleb128 0x1
 11620 0100 50       		.byte	0x50
 11621 0101 9F       		.byte	0x9f
 11622 0102 60000000 		.4byte	.LVL20
 11623 0106 62000000 		.4byte	.LVL21
 11624 010a 0100     		.2byte	0x1
 11625 010c 50       		.byte	0x50
 11626 010d 62000000 		.4byte	.LVL21
 11627 0111 64000000 		.4byte	.LVL22
 11628 0115 0400     		.2byte	0x4
 11629 0117 F3       		.byte	0xf3
 11630 0118 01       		.uleb128 0x1
 11631 0119 50       		.byte	0x50
 11632 011a 9F       		.byte	0x9f
 11633 011b 64000000 		.4byte	.LVL22
 11634 011f 66000000 		.4byte	.LVL23
 11635 0123 0100     		.2byte	0x1
 11636 0125 50       		.byte	0x50
 11637 0126 66000000 		.4byte	.LVL23
 11638 012a 68000000 		.4byte	.LVL24
 11639 012e 0400     		.2byte	0x4
 11640 0130 F3       		.byte	0xf3
 11641 0131 01       		.uleb128 0x1
 11642 0132 50       		.byte	0x50
 11643 0133 9F       		.byte	0x9f
 11644 0134 68000000 		.4byte	.LVL24
 11645 0138 6A000000 		.4byte	.LVL25
 11646 013c 0100     		.2byte	0x1
 11647 013e 50       		.byte	0x50
 11648 013f 6A000000 		.4byte	.LVL25
 11649 0143 6C000000 		.4byte	.LVL26
 11650 0147 0400     		.2byte	0x4
 11651 0149 F3       		.byte	0xf3
 11652 014a 01       		.uleb128 0x1
 11653 014b 50       		.byte	0x50
 11654 014c 9F       		.byte	0x9f
 11655 014d 6C000000 		.4byte	.LVL26
 11656 0151 6E000000 		.4byte	.LVL27
 11657 0155 0100     		.2byte	0x1
 11658 0157 50       		.byte	0x50
 11659 0158 6E000000 		.4byte	.LVL27
 11660 015c 7C000000 		.4byte	.LFE21
 11661 0160 0400     		.2byte	0x4
 11662 0162 F3       		.byte	0xf3
 11663 0163 01       		.uleb128 0x1
 11664 0164 50       		.byte	0x50
 11665 0165 9F       		.byte	0x9f
 11666 0166 00000000 		.4byte	0
 11667 016a 00000000 		.4byte	0
 11668              	.LLST2:
 11669 016e 00000000 		.4byte	.LVL28
 11670 0172 38000000 		.4byte	.LVL41
 11671 0176 0100     		.2byte	0x1
 11672 0178 50       		.byte	0x50
 11673 0179 38000000 		.4byte	.LVL41
 11674 017d 5E000000 		.4byte	.LVL47
ARM GAS  C:\Users\rdn\AppData\Local\Temp\cco7w9JJ.s 			page 231


 11675 0181 0400     		.2byte	0x4
 11676 0183 77       		.byte	0x77
 11677 0184 D476     		.sleb128 -1196
 11678 0186 9F       		.byte	0x9f
 11679 0187 5E000000 		.4byte	.LVL47
 11680 018b 78000000 		.4byte	.LFE32
 11681 018f 0400     		.2byte	0x4
 11682 0191 F3       		.byte	0xf3
 11683 0192 01       		.uleb128 0x1
 11684 0193 50       		.byte	0x50
 11685 0194 9F       		.byte	0x9f
 11686 0195 00000000 		.4byte	0
 11687 0199 00000000 		.4byte	0
 11688              	.LLST3:
 11689 019d 00000000 		.4byte	.LVL28
 11690 01a1 16000000 		.4byte	.LVL32
 11691 01a5 0100     		.2byte	0x1
 11692 01a7 51       		.byte	0x51
 11693 01a8 16000000 		.4byte	.LVL32
 11694 01ac 38000000 		.4byte	.LVL41
 11695 01b0 0100     		.2byte	0x1
 11696 01b2 56       		.byte	0x56
 11697 01b3 38000000 		.4byte	.LVL41
 11698 01b7 78000000 		.4byte	.LFE32
 11699 01bb 0400     		.2byte	0x4
 11700 01bd F3       		.byte	0xf3
 11701 01be 01       		.uleb128 0x1
 11702 01bf 51       		.byte	0x51
 11703 01c0 9F       		.byte	0x9f
 11704 01c1 00000000 		.4byte	0
 11705 01c5 00000000 		.4byte	0
 11706              	.LLST4:
 11707 01c9 00000000 		.4byte	.LVL28
 11708 01cd 14000000 		.4byte	.LVL31
 11709 01d1 0100     		.2byte	0x1
 11710 01d3 52       		.byte	0x52
 11711 01d4 14000000 		.4byte	.LVL31
 11712 01d8 5E000000 		.4byte	.LVL50
 11713 01dc 0100     		.2byte	0x1
 11714 01de 5B       		.byte	0x5b
 11715 01df 5E000000 		.4byte	.LVL50
 11716 01e3 78000000 		.4byte	.LFE32
 11717 01e7 0400     		.2byte	0x4
 11718 01e9 F3       		.byte	0xf3
 11719 01ea 01       		.uleb128 0x1
 11720 01eb 52       		.byte	0x52
 11721 01ec 9F       		.byte	0x9f
 11722 01ed 00000000 		.4byte	0
 11723 01f1 00000000 		.4byte	0
 11724              	.LLST5:
 11725 01f5 10000000 		.4byte	.LVL29
 11726 01f9 16000000 		.4byte	.LVL32
 11727 01fd 0100     		.2byte	0x1
 11728 01ff 51       		.byte	0x51
 11729 0200 16000000 		.4byte	.LVL32
 11730 0204 5E000000 		.4byte	.LVL46
 11731 0208 0100     		.2byte	0x1
ARM GAS  C:\Users\rdn\AppData\Local\Temp\cco7w9JJ.s 			page 232


 11732 020a 56       		.byte	0x56
 11733 020b 00000000 		.4byte	0
 11734 020f 00000000 		.4byte	0
 11735              	.LLST6:
 11736 0213 12000000 		.4byte	.LVL30
 11737 0217 30000000 		.4byte	.LVL38
 11738 021b 0100     		.2byte	0x1
 11739 021d 53       		.byte	0x53
 11740 021e 30000000 		.4byte	.LVL38
 11741 0222 32000000 		.4byte	.LVL39
 11742 0226 0300     		.2byte	0x3
 11743 0228 73       		.byte	0x73
 11744 0229 7F       		.sleb128 -1
 11745 022a 9F       		.byte	0x9f
 11746 022b 32000000 		.4byte	.LVL39
 11747 022f 38000000 		.4byte	.LVL41
 11748 0233 0200     		.2byte	0x2
 11749 0235 70       		.byte	0x70
 11750 0236 00       		.sleb128 0
 11751 0237 00000000 		.4byte	0
 11752 023b 00000000 		.4byte	0
 11753              	.LLST7:
 11754 023f 14000000 		.4byte	.LVL31
 11755 0243 2A000000 		.4byte	.LVL36
 11756 0247 0100     		.2byte	0x1
 11757 0249 52       		.byte	0x52
 11758 024a 2A000000 		.4byte	.LVL36
 11759 024e 38000000 		.4byte	.LVL41
 11760 0252 0200     		.2byte	0x2
 11761 0254 70       		.byte	0x70
 11762 0255 02       		.sleb128 2
 11763 0256 00000000 		.4byte	0
 11764 025a 00000000 		.4byte	0
 11765              	.LLST8:
 11766 025e 20000000 		.4byte	.LVL33
 11767 0262 22000000 		.4byte	.LVL34
 11768 0266 0600     		.2byte	0x6
 11769 0268 77       		.byte	0x77
 11770 0269 00       		.sleb128 0
 11771 026a 71       		.byte	0x71
 11772 026b 00       		.sleb128 0
 11773 026c 22       		.byte	0x22
 11774 026d 9F       		.byte	0x9f
 11775 026e 22000000 		.4byte	.LVL34
 11776 0272 5E000000 		.4byte	.LVL47
 11777 0276 0600     		.2byte	0x6
 11778 0278 77       		.byte	0x77
 11779 0279 00       		.sleb128 0
 11780 027a 7A       		.byte	0x7a
 11781 027b 00       		.sleb128 0
 11782 027c 22       		.byte	0x22
 11783 027d 9F       		.byte	0x9f
 11784 027e 5E000000 		.4byte	.LVL47
 11785 0282 5E000000 		.4byte	.LVL49
 11786 0286 0A00     		.2byte	0xa
 11787 0288 F3       		.byte	0xf3
 11788 0289 01       		.uleb128 0x1
ARM GAS  C:\Users\rdn\AppData\Local\Temp\cco7w9JJ.s 			page 233


 11789 028a 50       		.byte	0x50
 11790 028b 7A       		.byte	0x7a
 11791 028c 00       		.sleb128 0
 11792 028d 22       		.byte	0x22
 11793 028e 23       		.byte	0x23
 11794 028f AC09     		.uleb128 0x4ac
 11795 0291 9F       		.byte	0x9f
 11796 0292 00000000 		.4byte	0
 11797 0296 00000000 		.4byte	0
 11798              	.LLST9:
 11799 029a 28000000 		.4byte	.LVL35
 11800 029e 2C000000 		.4byte	.LVL37
 11801 02a2 0600     		.2byte	0x6
 11802 02a4 77       		.byte	0x77
 11803 02a5 00       		.sleb128 0
 11804 02a6 71       		.byte	0x71
 11805 02a7 00       		.sleb128 0
 11806 02a8 22       		.byte	0x22
 11807 02a9 9F       		.byte	0x9f
 11808 02aa 2C000000 		.4byte	.LVL37
 11809 02ae 5E000000 		.4byte	.LVL47
 11810 02b2 0600     		.2byte	0x6
 11811 02b4 77       		.byte	0x77
 11812 02b5 00       		.sleb128 0
 11813 02b6 79       		.byte	0x79
 11814 02b7 00       		.sleb128 0
 11815 02b8 22       		.byte	0x22
 11816 02b9 9F       		.byte	0x9f
 11817 02ba 5E000000 		.4byte	.LVL47
 11818 02be 5E000000 		.4byte	.LVL48
 11819 02c2 0A00     		.2byte	0xa
 11820 02c4 F3       		.byte	0xf3
 11821 02c5 01       		.uleb128 0x1
 11822 02c6 50       		.byte	0x50
 11823 02c7 79       		.byte	0x79
 11824 02c8 00       		.sleb128 0
 11825 02c9 22       		.byte	0x22
 11826 02ca 23       		.byte	0x23
 11827 02cb AC09     		.uleb128 0x4ac
 11828 02cd 9F       		.byte	0x9f
 11829 02ce 00000000 		.4byte	0
 11830 02d2 00000000 		.4byte	0
 11831              	.LLST10:
 11832 02d6 28000000 		.4byte	.LVL35
 11833 02da 2A000000 		.4byte	.LVL36
 11834 02de 0100     		.2byte	0x1
 11835 02e0 52       		.byte	0x52
 11836 02e1 2A000000 		.4byte	.LVL36
 11837 02e5 34000000 		.4byte	.LVL40
 11838 02e9 0200     		.2byte	0x2
 11839 02eb 70       		.byte	0x70
 11840 02ec 02       		.sleb128 2
 11841 02ed 00000000 		.4byte	0
 11842 02f1 00000000 		.4byte	0
 11843              	.LLST11:
 11844 02f5 28000000 		.4byte	.LVL35
 11845 02f9 30000000 		.4byte	.LVL38
ARM GAS  C:\Users\rdn\AppData\Local\Temp\cco7w9JJ.s 			page 234


 11846 02fd 0100     		.2byte	0x1
 11847 02ff 53       		.byte	0x53
 11848 0300 30000000 		.4byte	.LVL38
 11849 0304 32000000 		.4byte	.LVL39
 11850 0308 0300     		.2byte	0x3
 11851 030a 73       		.byte	0x73
 11852 030b 7F       		.sleb128 -1
 11853 030c 9F       		.byte	0x9f
 11854 030d 32000000 		.4byte	.LVL39
 11855 0311 34000000 		.4byte	.LVL40
 11856 0315 0200     		.2byte	0x2
 11857 0317 70       		.byte	0x70
 11858 0318 00       		.sleb128 0
 11859 0319 00000000 		.4byte	0
 11860 031d 00000000 		.4byte	0
 11861              	.LLST12:
 11862 0321 34000000 		.4byte	.LVL40
 11863 0325 38000000 		.4byte	.LVL41
 11864 0329 0200     		.2byte	0x2
 11865 032b 30       		.byte	0x30
 11866 032c 9F       		.byte	0x9f
 11867 032d 38000000 		.4byte	.LVL41
 11868 0331 5E000000 		.4byte	.LVL45
 11869 0335 0100     		.2byte	0x1
 11870 0337 55       		.byte	0x55
 11871 0338 00000000 		.4byte	0
 11872 033c 00000000 		.4byte	0
 11873              	.LLST13:
 11874 0340 00000000 		.4byte	.LVL51
 11875 0344 38000000 		.4byte	.LVL64
 11876 0348 0100     		.2byte	0x1
 11877 034a 50       		.byte	0x50
 11878 034b 38000000 		.4byte	.LVL64
 11879 034f 6C000000 		.4byte	.LVL72
 11880 0353 0400     		.2byte	0x4
 11881 0355 77       		.byte	0x77
 11882 0356 D476     		.sleb128 -1196
 11883 0358 9F       		.byte	0x9f
 11884 0359 6C000000 		.4byte	.LVL72
 11885 035d 84000000 		.4byte	.LFE33
 11886 0361 0400     		.2byte	0x4
 11887 0363 F3       		.byte	0xf3
 11888 0364 01       		.uleb128 0x1
 11889 0365 50       		.byte	0x50
 11890 0366 9F       		.byte	0x9f
 11891 0367 00000000 		.4byte	0
 11892 036b 00000000 		.4byte	0
 11893              	.LLST14:
 11894 036f 00000000 		.4byte	.LVL51
 11895 0373 16000000 		.4byte	.LVL55
 11896 0377 0100     		.2byte	0x1
 11897 0379 51       		.byte	0x51
 11898 037a 16000000 		.4byte	.LVL55
 11899 037e 38000000 		.4byte	.LVL64
 11900 0382 0100     		.2byte	0x1
 11901 0384 56       		.byte	0x56
 11902 0385 38000000 		.4byte	.LVL64
ARM GAS  C:\Users\rdn\AppData\Local\Temp\cco7w9JJ.s 			page 235


 11903 0389 84000000 		.4byte	.LFE33
 11904 038d 0400     		.2byte	0x4
 11905 038f F3       		.byte	0xf3
 11906 0390 01       		.uleb128 0x1
 11907 0391 51       		.byte	0x51
 11908 0392 9F       		.byte	0x9f
 11909 0393 00000000 		.4byte	0
 11910 0397 00000000 		.4byte	0
 11911              	.LLST15:
 11912 039b 00000000 		.4byte	.LVL51
 11913 039f 14000000 		.4byte	.LVL54
 11914 03a3 0100     		.2byte	0x1
 11915 03a5 52       		.byte	0x52
 11916 03a6 14000000 		.4byte	.LVL54
 11917 03aa 6C000000 		.4byte	.LVL75
 11918 03ae 0100     		.2byte	0x1
 11919 03b0 5B       		.byte	0x5b
 11920 03b1 6C000000 		.4byte	.LVL75
 11921 03b5 84000000 		.4byte	.LFE33
 11922 03b9 0400     		.2byte	0x4
 11923 03bb F3       		.byte	0xf3
 11924 03bc 01       		.uleb128 0x1
 11925 03bd 52       		.byte	0x52
 11926 03be 9F       		.byte	0x9f
 11927 03bf 00000000 		.4byte	0
 11928 03c3 00000000 		.4byte	0
 11929              	.LLST16:
 11930 03c7 10000000 		.4byte	.LVL52
 11931 03cb 16000000 		.4byte	.LVL55
 11932 03cf 0100     		.2byte	0x1
 11933 03d1 51       		.byte	0x51
 11934 03d2 16000000 		.4byte	.LVL55
 11935 03d6 6C000000 		.4byte	.LVL71
 11936 03da 0100     		.2byte	0x1
 11937 03dc 56       		.byte	0x56
 11938 03dd 00000000 		.4byte	0
 11939 03e1 00000000 		.4byte	0
 11940              	.LLST17:
 11941 03e5 12000000 		.4byte	.LVL53
 11942 03e9 30000000 		.4byte	.LVL61
 11943 03ed 0100     		.2byte	0x1
 11944 03ef 53       		.byte	0x53
 11945 03f0 30000000 		.4byte	.LVL61
 11946 03f4 32000000 		.4byte	.LVL62
 11947 03f8 0300     		.2byte	0x3
 11948 03fa 73       		.byte	0x73
 11949 03fb 7F       		.sleb128 -1
 11950 03fc 9F       		.byte	0x9f
 11951 03fd 32000000 		.4byte	.LVL62
 11952 0401 38000000 		.4byte	.LVL64
 11953 0405 0200     		.2byte	0x2
 11954 0407 70       		.byte	0x70
 11955 0408 00       		.sleb128 0
 11956 0409 00000000 		.4byte	0
 11957 040d 00000000 		.4byte	0
 11958              	.LLST18:
 11959 0411 14000000 		.4byte	.LVL54
ARM GAS  C:\Users\rdn\AppData\Local\Temp\cco7w9JJ.s 			page 236


 11960 0415 2A000000 		.4byte	.LVL59
 11961 0419 0100     		.2byte	0x1
 11962 041b 52       		.byte	0x52
 11963 041c 2A000000 		.4byte	.LVL59
 11964 0420 38000000 		.4byte	.LVL64
 11965 0424 0200     		.2byte	0x2
 11966 0426 70       		.byte	0x70
 11967 0427 02       		.sleb128 2
 11968 0428 00000000 		.4byte	0
 11969 042c 00000000 		.4byte	0
 11970              	.LLST19:
 11971 0430 20000000 		.4byte	.LVL56
 11972 0434 22000000 		.4byte	.LVL57
 11973 0438 0600     		.2byte	0x6
 11974 043a 77       		.byte	0x77
 11975 043b 00       		.sleb128 0
 11976 043c 71       		.byte	0x71
 11977 043d 00       		.sleb128 0
 11978 043e 22       		.byte	0x22
 11979 043f 9F       		.byte	0x9f
 11980 0440 22000000 		.4byte	.LVL57
 11981 0444 6C000000 		.4byte	.LVL72
 11982 0448 0600     		.2byte	0x6
 11983 044a 77       		.byte	0x77
 11984 044b 00       		.sleb128 0
 11985 044c 7A       		.byte	0x7a
 11986 044d 00       		.sleb128 0
 11987 044e 22       		.byte	0x22
 11988 044f 9F       		.byte	0x9f
 11989 0450 6C000000 		.4byte	.LVL72
 11990 0454 6C000000 		.4byte	.LVL74
 11991 0458 0A00     		.2byte	0xa
 11992 045a F3       		.byte	0xf3
 11993 045b 01       		.uleb128 0x1
 11994 045c 50       		.byte	0x50
 11995 045d 7A       		.byte	0x7a
 11996 045e 00       		.sleb128 0
 11997 045f 22       		.byte	0x22
 11998 0460 23       		.byte	0x23
 11999 0461 AC09     		.uleb128 0x4ac
 12000 0463 9F       		.byte	0x9f
 12001 0464 00000000 		.4byte	0
 12002 0468 00000000 		.4byte	0
 12003              	.LLST20:
 12004 046c 28000000 		.4byte	.LVL58
 12005 0470 2C000000 		.4byte	.LVL60
 12006 0474 0600     		.2byte	0x6
 12007 0476 77       		.byte	0x77
 12008 0477 00       		.sleb128 0
 12009 0478 71       		.byte	0x71
 12010 0479 00       		.sleb128 0
 12011 047a 22       		.byte	0x22
 12012 047b 9F       		.byte	0x9f
 12013 047c 2C000000 		.4byte	.LVL60
 12014 0480 6C000000 		.4byte	.LVL72
 12015 0484 0600     		.2byte	0x6
 12016 0486 77       		.byte	0x77
ARM GAS  C:\Users\rdn\AppData\Local\Temp\cco7w9JJ.s 			page 237


 12017 0487 00       		.sleb128 0
 12018 0488 79       		.byte	0x79
 12019 0489 00       		.sleb128 0
 12020 048a 22       		.byte	0x22
 12021 048b 9F       		.byte	0x9f
 12022 048c 6C000000 		.4byte	.LVL72
 12023 0490 6C000000 		.4byte	.LVL73
 12024 0494 0A00     		.2byte	0xa
 12025 0496 F3       		.byte	0xf3
 12026 0497 01       		.uleb128 0x1
 12027 0498 50       		.byte	0x50
 12028 0499 79       		.byte	0x79
 12029 049a 00       		.sleb128 0
 12030 049b 22       		.byte	0x22
 12031 049c 23       		.byte	0x23
 12032 049d AC09     		.uleb128 0x4ac
 12033 049f 9F       		.byte	0x9f
 12034 04a0 00000000 		.4byte	0
 12035 04a4 00000000 		.4byte	0
 12036              	.LLST21:
 12037 04a8 28000000 		.4byte	.LVL58
 12038 04ac 2A000000 		.4byte	.LVL59
 12039 04b0 0100     		.2byte	0x1
 12040 04b2 52       		.byte	0x52
 12041 04b3 2A000000 		.4byte	.LVL59
 12042 04b7 34000000 		.4byte	.LVL63
 12043 04bb 0200     		.2byte	0x2
 12044 04bd 70       		.byte	0x70
 12045 04be 02       		.sleb128 2
 12046 04bf 00000000 		.4byte	0
 12047 04c3 00000000 		.4byte	0
 12048              	.LLST22:
 12049 04c7 28000000 		.4byte	.LVL58
 12050 04cb 30000000 		.4byte	.LVL61
 12051 04cf 0100     		.2byte	0x1
 12052 04d1 53       		.byte	0x53
 12053 04d2 30000000 		.4byte	.LVL61
 12054 04d6 32000000 		.4byte	.LVL62
 12055 04da 0300     		.2byte	0x3
 12056 04dc 73       		.byte	0x73
 12057 04dd 7F       		.sleb128 -1
 12058 04de 9F       		.byte	0x9f
 12059 04df 32000000 		.4byte	.LVL62
 12060 04e3 34000000 		.4byte	.LVL63
 12061 04e7 0200     		.2byte	0x2
 12062 04e9 70       		.byte	0x70
 12063 04ea 00       		.sleb128 0
 12064 04eb 00000000 		.4byte	0
 12065 04ef 00000000 		.4byte	0
 12066              	.LLST23:
 12067 04f3 34000000 		.4byte	.LVL63
 12068 04f7 38000000 		.4byte	.LVL64
 12069 04fb 0200     		.2byte	0x2
 12070 04fd 30       		.byte	0x30
 12071 04fe 9F       		.byte	0x9f
 12072 04ff 38000000 		.4byte	.LVL64
 12073 0503 6C000000 		.4byte	.LVL70
ARM GAS  C:\Users\rdn\AppData\Local\Temp\cco7w9JJ.s 			page 238


 12074 0507 0100     		.2byte	0x1
 12075 0509 55       		.byte	0x55
 12076 050a 00000000 		.4byte	0
 12077 050e 00000000 		.4byte	0
 12078              	.LLST24:
 12079 0512 4E000000 		.4byte	.LVL65
 12080 0516 5E000000 		.4byte	.LVL67
 12081 051a 0300     		.2byte	0x3
 12082 051c 09       		.byte	0x9
 12083 051d F8       		.byte	0xf8
 12084 051e 9F       		.byte	0x9f
 12085 051f 00000000 		.4byte	0
 12086 0523 00000000 		.4byte	0
 12087              	.LLST25:
 12088 0527 4E000000 		.4byte	.LVL65
 12089 052b 5E000000 		.4byte	.LVL67
 12090 052f 0100     		.2byte	0x1
 12091 0531 50       		.byte	0x50
 12092 0532 00000000 		.4byte	0
 12093 0536 00000000 		.4byte	0
 12094              	.LLST26:
 12095 053a 00000000 		.4byte	.LVL76
 12096 053e 38000000 		.4byte	.LVL89
 12097 0542 0100     		.2byte	0x1
 12098 0544 50       		.byte	0x50
 12099 0545 38000000 		.4byte	.LVL89
 12100 0549 7A000000 		.4byte	.LVL98
 12101 054d 0400     		.2byte	0x4
 12102 054f 77       		.byte	0x77
 12103 0550 D476     		.sleb128 -1196
 12104 0552 9F       		.byte	0x9f
 12105 0553 7A000000 		.4byte	.LVL98
 12106 0557 94000000 		.4byte	.LFE34
 12107 055b 0400     		.2byte	0x4
 12108 055d F3       		.byte	0xf3
 12109 055e 01       		.uleb128 0x1
 12110 055f 50       		.byte	0x50
 12111 0560 9F       		.byte	0x9f
 12112 0561 00000000 		.4byte	0
 12113 0565 00000000 		.4byte	0
 12114              	.LLST27:
 12115 0569 00000000 		.4byte	.LVL76
 12116 056d 16000000 		.4byte	.LVL80
 12117 0571 0100     		.2byte	0x1
 12118 0573 51       		.byte	0x51
 12119 0574 16000000 		.4byte	.LVL80
 12120 0578 38000000 		.4byte	.LVL89
 12121 057c 0100     		.2byte	0x1
 12122 057e 56       		.byte	0x56
 12123 057f 38000000 		.4byte	.LVL89
 12124 0583 94000000 		.4byte	.LFE34
 12125 0587 0400     		.2byte	0x4
 12126 0589 F3       		.byte	0xf3
 12127 058a 01       		.uleb128 0x1
 12128 058b 51       		.byte	0x51
 12129 058c 9F       		.byte	0x9f
 12130 058d 00000000 		.4byte	0
ARM GAS  C:\Users\rdn\AppData\Local\Temp\cco7w9JJ.s 			page 239


 12131 0591 00000000 		.4byte	0
 12132              	.LLST28:
 12133 0595 00000000 		.4byte	.LVL76
 12134 0599 14000000 		.4byte	.LVL79
 12135 059d 0100     		.2byte	0x1
 12136 059f 52       		.byte	0x52
 12137 05a0 14000000 		.4byte	.LVL79
 12138 05a4 7A000000 		.4byte	.LVL99
 12139 05a8 0100     		.2byte	0x1
 12140 05aa 58       		.byte	0x58
 12141 05ab 7A000000 		.4byte	.LVL99
 12142 05af 94000000 		.4byte	.LFE34
 12143 05b3 0400     		.2byte	0x4
 12144 05b5 F3       		.byte	0xf3
 12145 05b6 01       		.uleb128 0x1
 12146 05b7 52       		.byte	0x52
 12147 05b8 9F       		.byte	0x9f
 12148 05b9 00000000 		.4byte	0
 12149 05bd 00000000 		.4byte	0
 12150              	.LLST29:
 12151 05c1 10000000 		.4byte	.LVL77
 12152 05c5 16000000 		.4byte	.LVL80
 12153 05c9 0100     		.2byte	0x1
 12154 05cb 51       		.byte	0x51
 12155 05cc 16000000 		.4byte	.LVL80
 12156 05d0 7A000000 		.4byte	.LVL97
 12157 05d4 0100     		.2byte	0x1
 12158 05d6 56       		.byte	0x56
 12159 05d7 00000000 		.4byte	0
 12160 05db 00000000 		.4byte	0
 12161              	.LLST30:
 12162 05df 12000000 		.4byte	.LVL78
 12163 05e3 30000000 		.4byte	.LVL86
 12164 05e7 0100     		.2byte	0x1
 12165 05e9 53       		.byte	0x53
 12166 05ea 30000000 		.4byte	.LVL86
 12167 05ee 32000000 		.4byte	.LVL87
 12168 05f2 0300     		.2byte	0x3
 12169 05f4 73       		.byte	0x73
 12170 05f5 7F       		.sleb128 -1
 12171 05f6 9F       		.byte	0x9f
 12172 05f7 32000000 		.4byte	.LVL87
 12173 05fb 38000000 		.4byte	.LVL89
 12174 05ff 0200     		.2byte	0x2
 12175 0601 70       		.byte	0x70
 12176 0602 00       		.sleb128 0
 12177 0603 00000000 		.4byte	0
 12178 0607 00000000 		.4byte	0
 12179              	.LLST31:
 12180 060b 14000000 		.4byte	.LVL79
 12181 060f 2A000000 		.4byte	.LVL84
 12182 0613 0100     		.2byte	0x1
 12183 0615 52       		.byte	0x52
 12184 0616 2A000000 		.4byte	.LVL84
 12185 061a 38000000 		.4byte	.LVL89
 12186 061e 0200     		.2byte	0x2
 12187 0620 70       		.byte	0x70
ARM GAS  C:\Users\rdn\AppData\Local\Temp\cco7w9JJ.s 			page 240


 12188 0621 02       		.sleb128 2
 12189 0622 00000000 		.4byte	0
 12190 0626 00000000 		.4byte	0
 12191              	.LLST32:
 12192 062a 20000000 		.4byte	.LVL81
 12193 062e 22000000 		.4byte	.LVL82
 12194 0632 0600     		.2byte	0x6
 12195 0634 77       		.byte	0x77
 12196 0635 00       		.sleb128 0
 12197 0636 71       		.byte	0x71
 12198 0637 00       		.sleb128 0
 12199 0638 22       		.byte	0x22
 12200 0639 9F       		.byte	0x9f
 12201 063a 22000000 		.4byte	.LVL82
 12202 063e 7A000000 		.4byte	.LVL98
 12203 0642 0600     		.2byte	0x6
 12204 0644 77       		.byte	0x77
 12205 0645 00       		.sleb128 0
 12206 0646 7B       		.byte	0x7b
 12207 0647 00       		.sleb128 0
 12208 0648 22       		.byte	0x22
 12209 0649 9F       		.byte	0x9f
 12210 064a 7A000000 		.4byte	.LVL98
 12211 064e 7A000000 		.4byte	.LVL101
 12212 0652 0A00     		.2byte	0xa
 12213 0654 F3       		.byte	0xf3
 12214 0655 01       		.uleb128 0x1
 12215 0656 50       		.byte	0x50
 12216 0657 7B       		.byte	0x7b
 12217 0658 00       		.sleb128 0
 12218 0659 22       		.byte	0x22
 12219 065a 23       		.byte	0x23
 12220 065b AC09     		.uleb128 0x4ac
 12221 065d 9F       		.byte	0x9f
 12222 065e 00000000 		.4byte	0
 12223 0662 00000000 		.4byte	0
 12224              	.LLST33:
 12225 0666 28000000 		.4byte	.LVL83
 12226 066a 2C000000 		.4byte	.LVL85
 12227 066e 0600     		.2byte	0x6
 12228 0670 77       		.byte	0x77
 12229 0671 00       		.sleb128 0
 12230 0672 71       		.byte	0x71
 12231 0673 00       		.sleb128 0
 12232 0674 22       		.byte	0x22
 12233 0675 9F       		.byte	0x9f
 12234 0676 2C000000 		.4byte	.LVL85
 12235 067a 7A000000 		.4byte	.LVL98
 12236 067e 0600     		.2byte	0x6
 12237 0680 77       		.byte	0x77
 12238 0681 00       		.sleb128 0
 12239 0682 7A       		.byte	0x7a
 12240 0683 00       		.sleb128 0
 12241 0684 22       		.byte	0x22
 12242 0685 9F       		.byte	0x9f
 12243 0686 7A000000 		.4byte	.LVL98
 12244 068a 7A000000 		.4byte	.LVL100
ARM GAS  C:\Users\rdn\AppData\Local\Temp\cco7w9JJ.s 			page 241


 12245 068e 0A00     		.2byte	0xa
 12246 0690 F3       		.byte	0xf3
 12247 0691 01       		.uleb128 0x1
 12248 0692 50       		.byte	0x50
 12249 0693 7A       		.byte	0x7a
 12250 0694 00       		.sleb128 0
 12251 0695 22       		.byte	0x22
 12252 0696 23       		.byte	0x23
 12253 0697 AC09     		.uleb128 0x4ac
 12254 0699 9F       		.byte	0x9f
 12255 069a 00000000 		.4byte	0
 12256 069e 00000000 		.4byte	0
 12257              	.LLST34:
 12258 06a2 28000000 		.4byte	.LVL83
 12259 06a6 2A000000 		.4byte	.LVL84
 12260 06aa 0100     		.2byte	0x1
 12261 06ac 52       		.byte	0x52
 12262 06ad 2A000000 		.4byte	.LVL84
 12263 06b1 34000000 		.4byte	.LVL88
 12264 06b5 0200     		.2byte	0x2
 12265 06b7 70       		.byte	0x70
 12266 06b8 02       		.sleb128 2
 12267 06b9 00000000 		.4byte	0
 12268 06bd 00000000 		.4byte	0
 12269              	.LLST35:
 12270 06c1 28000000 		.4byte	.LVL83
 12271 06c5 30000000 		.4byte	.LVL86
 12272 06c9 0100     		.2byte	0x1
 12273 06cb 53       		.byte	0x53
 12274 06cc 30000000 		.4byte	.LVL86
 12275 06d0 32000000 		.4byte	.LVL87
 12276 06d4 0300     		.2byte	0x3
 12277 06d6 73       		.byte	0x73
 12278 06d7 7F       		.sleb128 -1
 12279 06d8 9F       		.byte	0x9f
 12280 06d9 32000000 		.4byte	.LVL87
 12281 06dd 34000000 		.4byte	.LVL88
 12282 06e1 0200     		.2byte	0x2
 12283 06e3 70       		.byte	0x70
 12284 06e4 00       		.sleb128 0
 12285 06e5 00000000 		.4byte	0
 12286 06e9 00000000 		.4byte	0
 12287              	.LLST36:
 12288 06ed 34000000 		.4byte	.LVL88
 12289 06f1 38000000 		.4byte	.LVL89
 12290 06f5 0200     		.2byte	0x2
 12291 06f7 30       		.byte	0x30
 12292 06f8 9F       		.byte	0x9f
 12293 06f9 38000000 		.4byte	.LVL89
 12294 06fd 7A000000 		.4byte	.LVL96
 12295 0701 0100     		.2byte	0x1
 12296 0703 55       		.byte	0x55
 12297 0704 00000000 		.4byte	0
 12298 0708 00000000 		.4byte	0
 12299              	.LLST37:
 12300 070c 48000000 		.4byte	.LVL90
 12301 0710 59000000 		.4byte	.LVL91-1
ARM GAS  C:\Users\rdn\AppData\Local\Temp\cco7w9JJ.s 			page 242


 12302 0714 0100     		.2byte	0x1
 12303 0716 50       		.byte	0x50
 12304 0717 00000000 		.4byte	0
 12305 071b 00000000 		.4byte	0
 12306              	.LLST38:
 12307 071f 5A000000 		.4byte	.LVL91
 12308 0723 6A000000 		.4byte	.LVL93
 12309 0727 0300     		.2byte	0x3
 12310 0729 09       		.byte	0x9
 12311 072a F0       		.byte	0xf0
 12312 072b 9F       		.byte	0x9f
 12313 072c 00000000 		.4byte	0
 12314 0730 00000000 		.4byte	0
 12315              	.LLST39:
 12316 0734 5A000000 		.4byte	.LVL91
 12317 0738 6A000000 		.4byte	.LVL93
 12318 073c 0100     		.2byte	0x1
 12319 073e 50       		.byte	0x50
 12320 073f 00000000 		.4byte	0
 12321 0743 00000000 		.4byte	0
 12322              	.LLST40:
 12323 0747 00000000 		.4byte	.LVL102
 12324 074b 3A000000 		.4byte	.LVL114
 12325 074f 0100     		.2byte	0x1
 12326 0751 50       		.byte	0x50
 12327 0752 3A000000 		.4byte	.LVL114
 12328 0756 A4000000 		.4byte	.LFE35
 12329 075a 0400     		.2byte	0x4
 12330 075c F3       		.byte	0xf3
 12331 075d 01       		.uleb128 0x1
 12332 075e 50       		.byte	0x50
 12333 075f 9F       		.byte	0x9f
 12334 0760 00000000 		.4byte	0
 12335 0764 00000000 		.4byte	0
 12336              	.LLST41:
 12337 0768 00000000 		.4byte	.LVL102
 12338 076c 3A000000 		.4byte	.LVL114
 12339 0770 0100     		.2byte	0x1
 12340 0772 51       		.byte	0x51
 12341 0773 3A000000 		.4byte	.LVL114
 12342 0777 A4000000 		.4byte	.LFE35
 12343 077b 0400     		.2byte	0x4
 12344 077d F3       		.byte	0xf3
 12345 077e 01       		.uleb128 0x1
 12346 077f 51       		.byte	0x51
 12347 0780 9F       		.byte	0x9f
 12348 0781 00000000 		.4byte	0
 12349 0785 00000000 		.4byte	0
 12350              	.LLST42:
 12351 0789 00000000 		.4byte	.LVL102
 12352 078d 16000000 		.4byte	.LVL106
 12353 0791 0100     		.2byte	0x1
 12354 0793 52       		.byte	0x52
 12355 0794 16000000 		.4byte	.LVL106
 12356 0798 80000000 		.4byte	.LVL127
 12357 079c 0100     		.2byte	0x1
 12358 079e 5B       		.byte	0x5b
ARM GAS  C:\Users\rdn\AppData\Local\Temp\cco7w9JJ.s 			page 243


 12359 079f 80000000 		.4byte	.LVL127
 12360 07a3 A4000000 		.4byte	.LFE35
 12361 07a7 0400     		.2byte	0x4
 12362 07a9 F3       		.byte	0xf3
 12363 07aa 01       		.uleb128 0x1
 12364 07ab 52       		.byte	0x52
 12365 07ac 9F       		.byte	0x9f
 12366 07ad 00000000 		.4byte	0
 12367 07b1 00000000 		.4byte	0
 12368              	.LLST43:
 12369 07b5 10000000 		.4byte	.LVL103
 12370 07b9 3A000000 		.4byte	.LVL114
 12371 07bd 0100     		.2byte	0x1
 12372 07bf 51       		.byte	0x51
 12373 07c0 3A000000 		.4byte	.LVL114
 12374 07c4 80000000 		.4byte	.LVL124
 12375 07c8 0100     		.2byte	0x1
 12376 07ca 56       		.byte	0x56
 12377 07cb 00000000 		.4byte	0
 12378 07cf 00000000 		.4byte	0
 12379              	.LLST44:
 12380 07d3 12000000 		.4byte	.LVL104
 12381 07d7 34000000 		.4byte	.LVL112
 12382 07db 0100     		.2byte	0x1
 12383 07dd 57       		.byte	0x57
 12384 07de 34000000 		.4byte	.LVL112
 12385 07e2 36000000 		.4byte	.LVL113
 12386 07e6 0300     		.2byte	0x3
 12387 07e8 77       		.byte	0x77
 12388 07e9 7F       		.sleb128 -1
 12389 07ea 9F       		.byte	0x9f
 12390 07eb 36000000 		.4byte	.LVL113
 12391 07ef 3A000000 		.4byte	.LVL114
 12392 07f3 0200     		.2byte	0x2
 12393 07f5 70       		.byte	0x70
 12394 07f6 00       		.sleb128 0
 12395 07f7 00000000 		.4byte	0
 12396 07fb 00000000 		.4byte	0
 12397              	.LLST45:
 12398 07ff 14000000 		.4byte	.LVL105
 12399 0803 2E000000 		.4byte	.LVL110
 12400 0807 0100     		.2byte	0x1
 12401 0809 53       		.byte	0x53
 12402 080a 2E000000 		.4byte	.LVL110
 12403 080e 3A000000 		.4byte	.LVL114
 12404 0812 0200     		.2byte	0x2
 12405 0814 70       		.byte	0x70
 12406 0815 02       		.sleb128 2
 12407 0816 00000000 		.4byte	0
 12408 081a 00000000 		.4byte	0
 12409              	.LLST46:
 12410 081e 22000000 		.4byte	.LVL107
 12411 0822 24000000 		.4byte	.LVL108
 12412 0826 0600     		.2byte	0x6
 12413 0828 7A       		.byte	0x7a
 12414 0829 00       		.sleb128 0
 12415 082a 72       		.byte	0x72
ARM GAS  C:\Users\rdn\AppData\Local\Temp\cco7w9JJ.s 			page 244


 12416 082b 00       		.sleb128 0
 12417 082c 22       		.byte	0x22
 12418 082d 9F       		.byte	0x9f
 12419 082e 24000000 		.4byte	.LVL108
 12420 0832 80000000 		.4byte	.LVL126
 12421 0836 0600     		.2byte	0x6
 12422 0838 7A       		.byte	0x7a
 12423 0839 00       		.sleb128 0
 12424 083a 79       		.byte	0x79
 12425 083b 00       		.sleb128 0
 12426 083c 22       		.byte	0x22
 12427 083d 9F       		.byte	0x9f
 12428 083e 00000000 		.4byte	0
 12429 0842 00000000 		.4byte	0
 12430              	.LLST47:
 12431 0846 2C000000 		.4byte	.LVL109
 12432 084a 30000000 		.4byte	.LVL111
 12433 084e 0100     		.2byte	0x1
 12434 0850 52       		.byte	0x52
 12435 0851 30000000 		.4byte	.LVL111
 12436 0855 80000000 		.4byte	.LVL125
 12437 0859 0100     		.2byte	0x1
 12438 085b 58       		.byte	0x58
 12439 085c 00000000 		.4byte	0
 12440 0860 00000000 		.4byte	0
 12441              	.LLST48:
 12442 0864 2C000000 		.4byte	.LVL109
 12443 0868 2E000000 		.4byte	.LVL110
 12444 086c 0100     		.2byte	0x1
 12445 086e 53       		.byte	0x53
 12446 086f 2E000000 		.4byte	.LVL110
 12447 0873 36000000 		.4byte	.LVL113
 12448 0877 0200     		.2byte	0x2
 12449 0879 70       		.byte	0x70
 12450 087a 02       		.sleb128 2
 12451 087b 00000000 		.4byte	0
 12452 087f 00000000 		.4byte	0
 12453              	.LLST49:
 12454 0883 2C000000 		.4byte	.LVL109
 12455 0887 34000000 		.4byte	.LVL112
 12456 088b 0100     		.2byte	0x1
 12457 088d 57       		.byte	0x57
 12458 088e 34000000 		.4byte	.LVL112
 12459 0892 36000000 		.4byte	.LVL113
 12460 0896 0300     		.2byte	0x3
 12461 0898 77       		.byte	0x77
 12462 0899 7F       		.sleb128 -1
 12463 089a 9F       		.byte	0x9f
 12464 089b 00000000 		.4byte	0
 12465 089f 00000000 		.4byte	0
 12466              	.LLST50:
 12467 08a3 36000000 		.4byte	.LVL113
 12468 08a7 3A000000 		.4byte	.LVL114
 12469 08ab 0200     		.2byte	0x2
 12470 08ad 30       		.byte	0x30
 12471 08ae 9F       		.byte	0x9f
 12472 08af 3A000000 		.4byte	.LVL114
ARM GAS  C:\Users\rdn\AppData\Local\Temp\cco7w9JJ.s 			page 245


 12473 08b3 4C000000 		.4byte	.LVL117
 12474 08b7 0100     		.2byte	0x1
 12475 08b9 55       		.byte	0x55
 12476 08ba 4C000000 		.4byte	.LVL117
 12477 08be 56000000 		.4byte	.LVL119
 12478 08c2 0100     		.2byte	0x1
 12479 08c4 54       		.byte	0x54
 12480 08c5 56000000 		.4byte	.LVL119
 12481 08c9 80000000 		.4byte	.LVL123
 12482 08cd 0100     		.2byte	0x1
 12483 08cf 55       		.byte	0x55
 12484 08d0 00000000 		.4byte	0
 12485 08d4 00000000 		.4byte	0
 12486              	.LLST51:
 12487 08d8 42000000 		.4byte	.LVL115
 12488 08dc 52000000 		.4byte	.LVL118
 12489 08e0 0200     		.2byte	0x2
 12490 08e2 3F       		.byte	0x3f
 12491 08e3 9F       		.byte	0x9f
 12492 08e4 00000000 		.4byte	0
 12493 08e8 00000000 		.4byte	0
 12494              	.LLST52:
 12495 08ec 42000000 		.4byte	.LVL115
 12496 08f0 52000000 		.4byte	.LVL118
 12497 08f4 0100     		.2byte	0x1
 12498 08f6 52       		.byte	0x52
 12499 08f7 00000000 		.4byte	0
 12500 08fb 00000000 		.4byte	0
 12501              	.LLST53:
 12502 08ff 00000000 		.4byte	.LVL128
 12503 0903 26000000 		.4byte	.LVL138
 12504 0907 0100     		.2byte	0x1
 12505 0909 50       		.byte	0x50
 12506 090a 26000000 		.4byte	.LVL138
 12507 090e 8C000000 		.4byte	.LFE43
 12508 0912 0400     		.2byte	0x4
 12509 0914 F3       		.byte	0xf3
 12510 0915 01       		.uleb128 0x1
 12511 0916 50       		.byte	0x50
 12512 0917 9F       		.byte	0x9f
 12513 0918 00000000 		.4byte	0
 12514 091c 00000000 		.4byte	0
 12515              	.LLST54:
 12516 0920 00000000 		.4byte	.LVL128
 12517 0924 14000000 		.4byte	.LVL133
 12518 0928 0100     		.2byte	0x1
 12519 092a 51       		.byte	0x51
 12520 092b 14000000 		.4byte	.LVL133
 12521 092f 26000000 		.4byte	.LVL138
 12522 0933 0100     		.2byte	0x1
 12523 0935 56       		.byte	0x56
 12524 0936 26000000 		.4byte	.LVL138
 12525 093a 8C000000 		.4byte	.LFE43
 12526 093e 0400     		.2byte	0x4
 12527 0940 F3       		.byte	0xf3
 12528 0941 01       		.uleb128 0x1
 12529 0942 51       		.byte	0x51
ARM GAS  C:\Users\rdn\AppData\Local\Temp\cco7w9JJ.s 			page 246


 12530 0943 9F       		.byte	0x9f
 12531 0944 00000000 		.4byte	0
 12532 0948 00000000 		.4byte	0
 12533              	.LLST55:
 12534 094c 00000000 		.4byte	.LVL128
 12535 0950 10000000 		.4byte	.LVL132
 12536 0954 0100     		.2byte	0x1
 12537 0956 52       		.byte	0x52
 12538 0957 10000000 		.4byte	.LVL132
 12539 095b 76000000 		.4byte	.LVL153
 12540 095f 0100     		.2byte	0x1
 12541 0961 58       		.byte	0x58
 12542 0962 76000000 		.4byte	.LVL153
 12543 0966 8C000000 		.4byte	.LFE43
 12544 096a 0400     		.2byte	0x4
 12545 096c F3       		.byte	0xf3
 12546 096d 01       		.uleb128 0x1
 12547 096e 52       		.byte	0x52
 12548 096f 9F       		.byte	0x9f
 12549 0970 00000000 		.4byte	0
 12550 0974 00000000 		.4byte	0
 12551              	.LLST56:
 12552 0978 0A000000 		.4byte	.LVL129
 12553 097c 14000000 		.4byte	.LVL133
 12554 0980 0100     		.2byte	0x1
 12555 0982 51       		.byte	0x51
 12556 0983 14000000 		.4byte	.LVL133
 12557 0987 76000000 		.4byte	.LVL152
 12558 098b 0100     		.2byte	0x1
 12559 098d 56       		.byte	0x56
 12560 098e 00000000 		.4byte	0
 12561 0992 00000000 		.4byte	0
 12562              	.LLST57:
 12563 0996 0C000000 		.4byte	.LVL130
 12564 099a 22000000 		.4byte	.LVL136
 12565 099e 0100     		.2byte	0x1
 12566 09a0 54       		.byte	0x54
 12567 09a1 22000000 		.4byte	.LVL136
 12568 09a5 24000000 		.4byte	.LVL137
 12569 09a9 0300     		.2byte	0x3
 12570 09ab 74       		.byte	0x74
 12571 09ac 7F       		.sleb128 -1
 12572 09ad 9F       		.byte	0x9f
 12573 09ae 24000000 		.4byte	.LVL137
 12574 09b2 26000000 		.4byte	.LVL138
 12575 09b6 0200     		.2byte	0x2
 12576 09b8 70       		.byte	0x70
 12577 09b9 00       		.sleb128 0
 12578 09ba 00000000 		.4byte	0
 12579 09be 00000000 		.4byte	0
 12580              	.LLST58:
 12581 09c2 0E000000 		.4byte	.LVL131
 12582 09c6 1C000000 		.4byte	.LVL135
 12583 09ca 0100     		.2byte	0x1
 12584 09cc 53       		.byte	0x53
 12585 09cd 1C000000 		.4byte	.LVL135
 12586 09d1 26000000 		.4byte	.LVL138
ARM GAS  C:\Users\rdn\AppData\Local\Temp\cco7w9JJ.s 			page 247


 12587 09d5 0200     		.2byte	0x2
 12588 09d7 70       		.byte	0x70
 12589 09d8 02       		.sleb128 2
 12590 09d9 00000000 		.4byte	0
 12591 09dd 00000000 		.4byte	0
 12592              	.LLST59:
 12593 09e1 1A000000 		.4byte	.LVL134
 12594 09e5 76000000 		.4byte	.LVL151
 12595 09e9 0100     		.2byte	0x1
 12596 09eb 55       		.byte	0x55
 12597 09ec 00000000 		.4byte	0
 12598 09f0 00000000 		.4byte	0
 12599              	.LLST60:
 12600 09f4 26000000 		.4byte	.LVL138
 12601 09f8 76000000 		.4byte	.LVL150
 12602 09fc 0100     		.2byte	0x1
 12603 09fe 54       		.byte	0x54
 12604 09ff 00000000 		.4byte	0
 12605 0a03 00000000 		.4byte	0
 12606              	.LLST61:
 12607 0a07 1A000000 		.4byte	.LVL134
 12608 0a0b 1C000000 		.4byte	.LVL135
 12609 0a0f 0100     		.2byte	0x1
 12610 0a11 53       		.byte	0x53
 12611 0a12 1C000000 		.4byte	.LVL135
 12612 0a16 24000000 		.4byte	.LVL137
 12613 0a1a 0200     		.2byte	0x2
 12614 0a1c 70       		.byte	0x70
 12615 0a1d 02       		.sleb128 2
 12616 0a1e 00000000 		.4byte	0
 12617 0a22 00000000 		.4byte	0
 12618              	.LLST62:
 12619 0a26 1A000000 		.4byte	.LVL134
 12620 0a2a 22000000 		.4byte	.LVL136
 12621 0a2e 0100     		.2byte	0x1
 12622 0a30 54       		.byte	0x54
 12623 0a31 22000000 		.4byte	.LVL136
 12624 0a35 24000000 		.4byte	.LVL137
 12625 0a39 0300     		.2byte	0x3
 12626 0a3b 74       		.byte	0x74
 12627 0a3c 7F       		.sleb128 -1
 12628 0a3d 9F       		.byte	0x9f
 12629 0a3e 00000000 		.4byte	0
 12630 0a42 00000000 		.4byte	0
 12631              	.LLST63:
 12632 0a46 52000000 		.4byte	.LVL143
 12633 0a4a 60000000 		.4byte	.LVL144
 12634 0a4e 0100     		.2byte	0x1
 12635 0a50 50       		.byte	0x50
 12636 0a51 64000000 		.4byte	.LVL145
 12637 0a55 66000000 		.4byte	.LVL146
 12638 0a59 0100     		.2byte	0x1
 12639 0a5b 50       		.byte	0x50
 12640 0a5c 00000000 		.4byte	0
 12641 0a60 00000000 		.4byte	0
 12642              	.LLST64:
 12643 0a64 00000000 		.4byte	.LVL154
ARM GAS  C:\Users\rdn\AppData\Local\Temp\cco7w9JJ.s 			page 248


 12644 0a68 26000000 		.4byte	.LVL164
 12645 0a6c 0100     		.2byte	0x1
 12646 0a6e 50       		.byte	0x50
 12647 0a6f 26000000 		.4byte	.LVL164
 12648 0a73 A8000000 		.4byte	.LFE44
 12649 0a77 0400     		.2byte	0x4
 12650 0a79 F3       		.byte	0xf3
 12651 0a7a 01       		.uleb128 0x1
 12652 0a7b 50       		.byte	0x50
 12653 0a7c 9F       		.byte	0x9f
 12654 0a7d 00000000 		.4byte	0
 12655 0a81 00000000 		.4byte	0
 12656              	.LLST65:
 12657 0a85 00000000 		.4byte	.LVL154
 12658 0a89 14000000 		.4byte	.LVL159
 12659 0a8d 0100     		.2byte	0x1
 12660 0a8f 51       		.byte	0x51
 12661 0a90 14000000 		.4byte	.LVL159
 12662 0a94 26000000 		.4byte	.LVL164
 12663 0a98 0100     		.2byte	0x1
 12664 0a9a 57       		.byte	0x57
 12665 0a9b 26000000 		.4byte	.LVL164
 12666 0a9f A8000000 		.4byte	.LFE44
 12667 0aa3 0400     		.2byte	0x4
 12668 0aa5 F3       		.byte	0xf3
 12669 0aa6 01       		.uleb128 0x1
 12670 0aa7 51       		.byte	0x51
 12671 0aa8 9F       		.byte	0x9f
 12672 0aa9 00000000 		.4byte	0
 12673 0aad 00000000 		.4byte	0
 12674              	.LLST66:
 12675 0ab1 00000000 		.4byte	.LVL154
 12676 0ab5 10000000 		.4byte	.LVL158
 12677 0ab9 0100     		.2byte	0x1
 12678 0abb 52       		.byte	0x52
 12679 0abc 10000000 		.4byte	.LVL158
 12680 0ac0 90000000 		.4byte	.LVL185
 12681 0ac4 0100     		.2byte	0x1
 12682 0ac6 58       		.byte	0x58
 12683 0ac7 90000000 		.4byte	.LVL185
 12684 0acb A8000000 		.4byte	.LFE44
 12685 0acf 0400     		.2byte	0x4
 12686 0ad1 F3       		.byte	0xf3
 12687 0ad2 01       		.uleb128 0x1
 12688 0ad3 52       		.byte	0x52
 12689 0ad4 9F       		.byte	0x9f
 12690 0ad5 00000000 		.4byte	0
 12691 0ad9 00000000 		.4byte	0
 12692              	.LLST67:
 12693 0add 0A000000 		.4byte	.LVL155
 12694 0ae1 14000000 		.4byte	.LVL159
 12695 0ae5 0100     		.2byte	0x1
 12696 0ae7 51       		.byte	0x51
 12697 0ae8 14000000 		.4byte	.LVL159
 12698 0aec 90000000 		.4byte	.LVL184
 12699 0af0 0100     		.2byte	0x1
 12700 0af2 57       		.byte	0x57
ARM GAS  C:\Users\rdn\AppData\Local\Temp\cco7w9JJ.s 			page 249


 12701 0af3 00000000 		.4byte	0
 12702 0af7 00000000 		.4byte	0
 12703              	.LLST68:
 12704 0afb 0C000000 		.4byte	.LVL156
 12705 0aff 22000000 		.4byte	.LVL162
 12706 0b03 0100     		.2byte	0x1
 12707 0b05 55       		.byte	0x55
 12708 0b06 22000000 		.4byte	.LVL162
 12709 0b0a 24000000 		.4byte	.LVL163
 12710 0b0e 0300     		.2byte	0x3
 12711 0b10 75       		.byte	0x75
 12712 0b11 7F       		.sleb128 -1
 12713 0b12 9F       		.byte	0x9f
 12714 0b13 24000000 		.4byte	.LVL163
 12715 0b17 26000000 		.4byte	.LVL164
 12716 0b1b 0200     		.2byte	0x2
 12717 0b1d 70       		.byte	0x70
 12718 0b1e 00       		.sleb128 0
 12719 0b1f 00000000 		.4byte	0
 12720 0b23 00000000 		.4byte	0
 12721              	.LLST69:
 12722 0b27 0E000000 		.4byte	.LVL157
 12723 0b2b 1C000000 		.4byte	.LVL161
 12724 0b2f 0100     		.2byte	0x1
 12725 0b31 53       		.byte	0x53
 12726 0b32 1C000000 		.4byte	.LVL161
 12727 0b36 26000000 		.4byte	.LVL164
 12728 0b3a 0200     		.2byte	0x2
 12729 0b3c 70       		.byte	0x70
 12730 0b3d 02       		.sleb128 2
 12731 0b3e 00000000 		.4byte	0
 12732 0b42 00000000 		.4byte	0
 12733              	.LLST70:
 12734 0b46 1A000000 		.4byte	.LVL160
 12735 0b4a 90000000 		.4byte	.LVL183
 12736 0b4e 0100     		.2byte	0x1
 12737 0b50 56       		.byte	0x56
 12738 0b51 00000000 		.4byte	0
 12739 0b55 00000000 		.4byte	0
 12740              	.LLST71:
 12741 0b59 26000000 		.4byte	.LVL164
 12742 0b5d 90000000 		.4byte	.LVL182
 12743 0b61 0100     		.2byte	0x1
 12744 0b63 55       		.byte	0x55
 12745 0b64 00000000 		.4byte	0
 12746 0b68 00000000 		.4byte	0
 12747              	.LLST72:
 12748 0b6c 1A000000 		.4byte	.LVL160
 12749 0b70 1C000000 		.4byte	.LVL161
 12750 0b74 0100     		.2byte	0x1
 12751 0b76 53       		.byte	0x53
 12752 0b77 1C000000 		.4byte	.LVL161
 12753 0b7b 24000000 		.4byte	.LVL163
 12754 0b7f 0200     		.2byte	0x2
 12755 0b81 70       		.byte	0x70
 12756 0b82 02       		.sleb128 2
 12757 0b83 00000000 		.4byte	0
ARM GAS  C:\Users\rdn\AppData\Local\Temp\cco7w9JJ.s 			page 250


 12758 0b87 00000000 		.4byte	0
 12759              	.LLST73:
 12760 0b8b 1A000000 		.4byte	.LVL160
 12761 0b8f 22000000 		.4byte	.LVL162
 12762 0b93 0100     		.2byte	0x1
 12763 0b95 55       		.byte	0x55
 12764 0b96 22000000 		.4byte	.LVL162
 12765 0b9a 24000000 		.4byte	.LVL163
 12766 0b9e 0300     		.2byte	0x3
 12767 0ba0 75       		.byte	0x75
 12768 0ba1 7F       		.sleb128 -1
 12769 0ba2 9F       		.byte	0x9f
 12770 0ba3 00000000 		.4byte	0
 12771 0ba7 00000000 		.4byte	0
 12772              	.LLST74:
 12773 0bab 6E000000 		.4byte	.LVL175
 12774 0baf 7C000000 		.4byte	.LVL176
 12775 0bb3 0100     		.2byte	0x1
 12776 0bb5 50       		.byte	0x50
 12777 0bb6 7E000000 		.4byte	.LVL177
 12778 0bba 80000000 		.4byte	.LVL178
 12779 0bbe 0100     		.2byte	0x1
 12780 0bc0 50       		.byte	0x50
 12781 0bc1 00000000 		.4byte	0
 12782 0bc5 00000000 		.4byte	0
 12783              	.LLST75:
 12784 0bc9 34000000 		.4byte	.LVL166
 12785 0bcd 44000000 		.4byte	.LVL168
 12786 0bd1 0200     		.2byte	0x2
 12787 0bd3 38       		.byte	0x38
 12788 0bd4 9F       		.byte	0x9f
 12789 0bd5 00000000 		.4byte	0
 12790 0bd9 00000000 		.4byte	0
 12791              	.LLST76:
 12792 0bdd 34000000 		.4byte	.LVL166
 12793 0be1 44000000 		.4byte	.LVL168
 12794 0be5 0100     		.2byte	0x1
 12795 0be7 54       		.byte	0x54
 12796 0be8 00000000 		.4byte	0
 12797 0bec 00000000 		.4byte	0
 12798              	.LLST77:
 12799 0bf0 52000000 		.4byte	.LVL171
 12800 0bf4 62000000 		.4byte	.LVL173
 12801 0bf8 0200     		.2byte	0x2
 12802 0bfa 38       		.byte	0x38
 12803 0bfb 9F       		.byte	0x9f
 12804 0bfc 00000000 		.4byte	0
 12805 0c00 00000000 		.4byte	0
 12806              	.LLST78:
 12807 0c04 52000000 		.4byte	.LVL171
 12808 0c08 62000000 		.4byte	.LVL173
 12809 0c0c 0100     		.2byte	0x1
 12810 0c0e 54       		.byte	0x54
 12811 0c0f 00000000 		.4byte	0
 12812 0c13 00000000 		.4byte	0
 12813              	.LLST79:
 12814 0c17 00000000 		.4byte	.LVL186
ARM GAS  C:\Users\rdn\AppData\Local\Temp\cco7w9JJ.s 			page 251


 12815 0c1b 26000000 		.4byte	.LVL196
 12816 0c1f 0100     		.2byte	0x1
 12817 0c21 50       		.byte	0x50
 12818 0c22 26000000 		.4byte	.LVL196
 12819 0c26 B0000000 		.4byte	.LFE45
 12820 0c2a 0400     		.2byte	0x4
 12821 0c2c F3       		.byte	0xf3
 12822 0c2d 01       		.uleb128 0x1
 12823 0c2e 50       		.byte	0x50
 12824 0c2f 9F       		.byte	0x9f
 12825 0c30 00000000 		.4byte	0
 12826 0c34 00000000 		.4byte	0
 12827              	.LLST80:
 12828 0c38 00000000 		.4byte	.LVL186
 12829 0c3c 14000000 		.4byte	.LVL191
 12830 0c40 0100     		.2byte	0x1
 12831 0c42 51       		.byte	0x51
 12832 0c43 14000000 		.4byte	.LVL191
 12833 0c47 26000000 		.4byte	.LVL196
 12834 0c4b 0100     		.2byte	0x1
 12835 0c4d 54       		.byte	0x54
 12836 0c4e 26000000 		.4byte	.LVL196
 12837 0c52 B0000000 		.4byte	.LFE45
 12838 0c56 0400     		.2byte	0x4
 12839 0c58 F3       		.byte	0xf3
 12840 0c59 01       		.uleb128 0x1
 12841 0c5a 51       		.byte	0x51
 12842 0c5b 9F       		.byte	0x9f
 12843 0c5c 00000000 		.4byte	0
 12844 0c60 00000000 		.4byte	0
 12845              	.LLST81:
 12846 0c64 00000000 		.4byte	.LVL186
 12847 0c68 10000000 		.4byte	.LVL190
 12848 0c6c 0100     		.2byte	0x1
 12849 0c6e 52       		.byte	0x52
 12850 0c6f 10000000 		.4byte	.LVL190
 12851 0c73 9A000000 		.4byte	.LVL218
 12852 0c77 0100     		.2byte	0x1
 12853 0c79 58       		.byte	0x58
 12854 0c7a 9A000000 		.4byte	.LVL218
 12855 0c7e B0000000 		.4byte	.LFE45
 12856 0c82 0400     		.2byte	0x4
 12857 0c84 F3       		.byte	0xf3
 12858 0c85 01       		.uleb128 0x1
 12859 0c86 52       		.byte	0x52
 12860 0c87 9F       		.byte	0x9f
 12861 0c88 00000000 		.4byte	0
 12862 0c8c 00000000 		.4byte	0
 12863              	.LLST82:
 12864 0c90 0A000000 		.4byte	.LVL187
 12865 0c94 14000000 		.4byte	.LVL191
 12866 0c98 0100     		.2byte	0x1
 12867 0c9a 51       		.byte	0x51
 12868 0c9b 14000000 		.4byte	.LVL191
 12869 0c9f 9A000000 		.4byte	.LVL215
 12870 0ca3 0100     		.2byte	0x1
 12871 0ca5 54       		.byte	0x54
ARM GAS  C:\Users\rdn\AppData\Local\Temp\cco7w9JJ.s 			page 252


 12872 0ca6 00000000 		.4byte	0
 12873 0caa 00000000 		.4byte	0
 12874              	.LLST83:
 12875 0cae 0C000000 		.4byte	.LVL188
 12876 0cb2 22000000 		.4byte	.LVL194
 12877 0cb6 0100     		.2byte	0x1
 12878 0cb8 56       		.byte	0x56
 12879 0cb9 22000000 		.4byte	.LVL194
 12880 0cbd 24000000 		.4byte	.LVL195
 12881 0cc1 0300     		.2byte	0x3
 12882 0cc3 76       		.byte	0x76
 12883 0cc4 7F       		.sleb128 -1
 12884 0cc5 9F       		.byte	0x9f
 12885 0cc6 24000000 		.4byte	.LVL195
 12886 0cca 26000000 		.4byte	.LVL196
 12887 0cce 0200     		.2byte	0x2
 12888 0cd0 70       		.byte	0x70
 12889 0cd1 00       		.sleb128 0
 12890 0cd2 00000000 		.4byte	0
 12891 0cd6 00000000 		.4byte	0
 12892              	.LLST84:
 12893 0cda 0E000000 		.4byte	.LVL189
 12894 0cde 1C000000 		.4byte	.LVL193
 12895 0ce2 0100     		.2byte	0x1
 12896 0ce4 53       		.byte	0x53
 12897 0ce5 1C000000 		.4byte	.LVL193
 12898 0ce9 26000000 		.4byte	.LVL196
 12899 0ced 0200     		.2byte	0x2
 12900 0cef 70       		.byte	0x70
 12901 0cf0 02       		.sleb128 2
 12902 0cf1 00000000 		.4byte	0
 12903 0cf5 00000000 		.4byte	0
 12904              	.LLST85:
 12905 0cf9 1A000000 		.4byte	.LVL192
 12906 0cfd 9A000000 		.4byte	.LVL217
 12907 0d01 0100     		.2byte	0x1
 12908 0d03 57       		.byte	0x57
 12909 0d04 00000000 		.4byte	0
 12910 0d08 00000000 		.4byte	0
 12911              	.LLST86:
 12912 0d0c 26000000 		.4byte	.LVL196
 12913 0d10 9A000000 		.4byte	.LVL216
 12914 0d14 0100     		.2byte	0x1
 12915 0d16 56       		.byte	0x56
 12916 0d17 00000000 		.4byte	0
 12917 0d1b 00000000 		.4byte	0
 12918              	.LLST87:
 12919 0d1f 1A000000 		.4byte	.LVL192
 12920 0d23 1C000000 		.4byte	.LVL193
 12921 0d27 0100     		.2byte	0x1
 12922 0d29 53       		.byte	0x53
 12923 0d2a 1C000000 		.4byte	.LVL193
 12924 0d2e 24000000 		.4byte	.LVL195
 12925 0d32 0200     		.2byte	0x2
 12926 0d34 70       		.byte	0x70
 12927 0d35 02       		.sleb128 2
 12928 0d36 00000000 		.4byte	0
ARM GAS  C:\Users\rdn\AppData\Local\Temp\cco7w9JJ.s 			page 253


 12929 0d3a 00000000 		.4byte	0
 12930              	.LLST88:
 12931 0d3e 1A000000 		.4byte	.LVL192
 12932 0d42 22000000 		.4byte	.LVL194
 12933 0d46 0100     		.2byte	0x1
 12934 0d48 56       		.byte	0x56
 12935 0d49 22000000 		.4byte	.LVL194
 12936 0d4d 24000000 		.4byte	.LVL195
 12937 0d51 0300     		.2byte	0x3
 12938 0d53 76       		.byte	0x76
 12939 0d54 7F       		.sleb128 -1
 12940 0d55 9F       		.byte	0x9f
 12941 0d56 00000000 		.4byte	0
 12942 0d5a 00000000 		.4byte	0
 12943              	.LLST89:
 12944 0d5e 6E000000 		.4byte	.LVL207
 12945 0d62 7C000000 		.4byte	.LVL208
 12946 0d66 0100     		.2byte	0x1
 12947 0d68 50       		.byte	0x50
 12948 0d69 7E000000 		.4byte	.LVL209
 12949 0d6d 88000000 		.4byte	.LVL211
 12950 0d71 0100     		.2byte	0x1
 12951 0d73 50       		.byte	0x50
 12952 0d74 00000000 		.4byte	0
 12953 0d78 00000000 		.4byte	0
 12954              	.LLST90:
 12955 0d7c 34000000 		.4byte	.LVL198
 12956 0d80 44000000 		.4byte	.LVL200
 12957 0d84 0200     		.2byte	0x2
 12958 0d86 38       		.byte	0x38
 12959 0d87 9F       		.byte	0x9f
 12960 0d88 00000000 		.4byte	0
 12961 0d8c 00000000 		.4byte	0
 12962              	.LLST91:
 12963 0d90 34000000 		.4byte	.LVL198
 12964 0d94 44000000 		.4byte	.LVL200
 12965 0d98 0100     		.2byte	0x1
 12966 0d9a 55       		.byte	0x55
 12967 0d9b 00000000 		.4byte	0
 12968 0d9f 00000000 		.4byte	0
 12969              	.LLST92:
 12970 0da3 52000000 		.4byte	.LVL203
 12971 0da7 62000000 		.4byte	.LVL205
 12972 0dab 0200     		.2byte	0x2
 12973 0dad 38       		.byte	0x38
 12974 0dae 9F       		.byte	0x9f
 12975 0daf 00000000 		.4byte	0
 12976 0db3 00000000 		.4byte	0
 12977              	.LLST93:
 12978 0db7 52000000 		.4byte	.LVL203
 12979 0dbb 62000000 		.4byte	.LVL205
 12980 0dbf 0100     		.2byte	0x1
 12981 0dc1 55       		.byte	0x55
 12982 0dc2 00000000 		.4byte	0
 12983 0dc6 00000000 		.4byte	0
 12984              	.LLST94:
 12985 0dca 04000000 		.4byte	.LVL220
ARM GAS  C:\Users\rdn\AppData\Local\Temp\cco7w9JJ.s 			page 254


 12986 0dce 28000000 		.4byte	.LVL224
 12987 0dd2 0100     		.2byte	0x1
 12988 0dd4 53       		.byte	0x53
 12989 0dd5 28000000 		.4byte	.LVL224
 12990 0dd9 2A000000 		.4byte	.LVL225
 12991 0ddd 0300     		.2byte	0x3
 12992 0ddf 73       		.byte	0x73
 12993 0de0 7F       		.sleb128 -1
 12994 0de1 9F       		.byte	0x9f
 12995 0de2 2A000000 		.4byte	.LVL225
 12996 0de6 3E000000 		.4byte	.LVL226
 12997 0dea 0200     		.2byte	0x2
 12998 0dec 70       		.byte	0x70
 12999 0ded 00       		.sleb128 0
 13000 0dee 00000000 		.4byte	0
 13001 0df2 00000000 		.4byte	0
 13002              	.LLST95:
 13003 0df6 06000000 		.4byte	.LVL221
 13004 0dfa 22000000 		.4byte	.LVL223
 13005 0dfe 0100     		.2byte	0x1
 13006 0e00 52       		.byte	0x52
 13007 0e01 22000000 		.4byte	.LVL223
 13008 0e05 3E000000 		.4byte	.LVL226
 13009 0e09 0200     		.2byte	0x2
 13010 0e0b 70       		.byte	0x70
 13011 0e0c 02       		.sleb128 2
 13012 0e0d 00000000 		.4byte	0
 13013 0e11 00000000 		.4byte	0
 13014              	.LLST96:
 13015 0e15 06000000 		.4byte	.LVL221
 13016 0e19 20000000 		.4byte	.LVL222
 13017 0e1d 0100     		.2byte	0x1
 13018 0e1f 52       		.byte	0x52
 13019 0e20 00000000 		.4byte	0
 13020 0e24 00000000 		.4byte	0
 13021              	.LLST97:
 13022 0e28 06000000 		.4byte	.LVL221
 13023 0e2c 20000000 		.4byte	.LVL222
 13024 0e30 0100     		.2byte	0x1
 13025 0e32 53       		.byte	0x53
 13026 0e33 00000000 		.4byte	0
 13027 0e37 00000000 		.4byte	0
 13028              	.LLST98:
 13029 0e3b 20000000 		.4byte	.LVL222
 13030 0e3f 22000000 		.4byte	.LVL223
 13031 0e43 0100     		.2byte	0x1
 13032 0e45 52       		.byte	0x52
 13033 0e46 22000000 		.4byte	.LVL223
 13034 0e4a 2A000000 		.4byte	.LVL225
 13035 0e4e 0200     		.2byte	0x2
 13036 0e50 70       		.byte	0x70
 13037 0e51 02       		.sleb128 2
 13038 0e52 00000000 		.4byte	0
 13039 0e56 00000000 		.4byte	0
 13040              	.LLST99:
 13041 0e5a 20000000 		.4byte	.LVL222
 13042 0e5e 28000000 		.4byte	.LVL224
ARM GAS  C:\Users\rdn\AppData\Local\Temp\cco7w9JJ.s 			page 255


 13043 0e62 0100     		.2byte	0x1
 13044 0e64 53       		.byte	0x53
 13045 0e65 28000000 		.4byte	.LVL224
 13046 0e69 2A000000 		.4byte	.LVL225
 13047 0e6d 0300     		.2byte	0x3
 13048 0e6f 73       		.byte	0x73
 13049 0e70 7F       		.sleb128 -1
 13050 0e71 9F       		.byte	0x9f
 13051 0e72 00000000 		.4byte	0
 13052 0e76 00000000 		.4byte	0
 13053              	.LLST100:
 13054 0e7a 00000000 		.4byte	.LVL227
 13055 0e7e 18000000 		.4byte	.LVL228
 13056 0e82 0100     		.2byte	0x1
 13057 0e84 50       		.byte	0x50
 13058 0e85 18000000 		.4byte	.LVL228
 13059 0e89 0C010000 		.4byte	.LVL254
 13060 0e8d 0100     		.2byte	0x1
 13061 0e8f 54       		.byte	0x54
 13062 0e90 0C010000 		.4byte	.LVL254
 13063 0e94 1C010000 		.4byte	.LVL256
 13064 0e98 0400     		.2byte	0x4
 13065 0e9a 74       		.byte	0x74
 13066 0e9b E876     		.sleb128 -1176
 13067 0e9d 9F       		.byte	0x9f
 13068 0e9e 1C010000 		.4byte	.LVL256
 13069 0ea2 34010000 		.4byte	.LFE36
 13070 0ea6 0400     		.2byte	0x4
 13071 0ea8 F3       		.byte	0xf3
 13072 0ea9 01       		.uleb128 0x1
 13073 0eaa 50       		.byte	0x50
 13074 0eab 9F       		.byte	0x9f
 13075 0eac 00000000 		.4byte	0
 13076 0eb0 00000000 		.4byte	0
 13077              	.LLST101:
 13078 0eb4 00000000 		.4byte	.LVL227
 13079 0eb8 2A000000 		.4byte	.LVL232
 13080 0ebc 0100     		.2byte	0x1
 13081 0ebe 51       		.byte	0x51
 13082 0ebf 2A000000 		.4byte	.LVL232
 13083 0ec3 34010000 		.4byte	.LFE36
 13084 0ec7 0300     		.2byte	0x3
 13085 0ec9 91       		.byte	0x91
 13086 0eca D07D     		.sleb128 -304
 13087 0ecc 00000000 		.4byte	0
 13088 0ed0 00000000 		.4byte	0
 13089              	.LLST102:
 13090 0ed4 00000000 		.4byte	.LVL227
 13091 0ed8 24000000 		.4byte	.LVL231
 13092 0edc 0100     		.2byte	0x1
 13093 0ede 52       		.byte	0x52
 13094 0edf 24000000 		.4byte	.LVL231
 13095 0ee3 00010000 		.4byte	.LVL252
 13096 0ee7 0100     		.2byte	0x1
 13097 0ee9 55       		.byte	0x55
 13098 0eea 00010000 		.4byte	.LVL252
 13099 0eee 06010000 		.4byte	.LVL253
ARM GAS  C:\Users\rdn\AppData\Local\Temp\cco7w9JJ.s 			page 256


 13100 0ef2 0400     		.2byte	0x4
 13101 0ef4 75       		.byte	0x75
 13102 0ef5 887F     		.sleb128 -120
 13103 0ef7 9F       		.byte	0x9f
 13104 0ef8 06010000 		.4byte	.LVL253
 13105 0efc 19010000 		.4byte	.LVL255-1
 13106 0f00 0800     		.2byte	0x8
 13107 0f02 91       		.byte	0x91
 13108 0f03 BC7D     		.sleb128 -324
 13109 0f05 06       		.byte	0x6
 13110 0f06 08       		.byte	0x8
 13111 0f07 78       		.byte	0x78
 13112 0f08 1C       		.byte	0x1c
 13113 0f09 9F       		.byte	0x9f
 13114 0f0a 19010000 		.4byte	.LVL255-1
 13115 0f0e 1C010000 		.4byte	.LVL258
 13116 0f12 0300     		.2byte	0x3
 13117 0f14 77       		.byte	0x77
 13118 0f15 58       		.sleb128 -40
 13119 0f16 9F       		.byte	0x9f
 13120 0f17 1C010000 		.4byte	.LVL258
 13121 0f1b 1C010000 		.4byte	.LVL260
 13122 0f1f 0300     		.2byte	0x3
 13123 0f21 79       		.byte	0x79
 13124 0f22 7C       		.sleb128 -4
 13125 0f23 9F       		.byte	0x9f
 13126 0f24 1C010000 		.4byte	.LVL260
 13127 0f28 34010000 		.4byte	.LFE36
 13128 0f2c 0400     		.2byte	0x4
 13129 0f2e F3       		.byte	0xf3
 13130 0f2f 01       		.uleb128 0x1
 13131 0f30 52       		.byte	0x52
 13132 0f31 9F       		.byte	0x9f
 13133 0f32 00000000 		.4byte	0
 13134 0f36 00000000 		.4byte	0
 13135              	.LLST103:
 13136 0f3a 18000000 		.4byte	.LVL228
 13137 0f3e 61000000 		.4byte	.LVL238-1
 13138 0f42 0100     		.2byte	0x1
 13139 0f44 50       		.byte	0x50
 13140 0f45 61000000 		.4byte	.LVL238-1
 13141 0f49 E0000000 		.4byte	.LVL249
 13142 0f4d 0300     		.2byte	0x3
 13143 0f4f 91       		.byte	0x91
 13144 0f50 C47D     		.sleb128 -316
 13145 0f52 00000000 		.4byte	0
 13146 0f56 00000000 		.4byte	0
 13147              	.LLST104:
 13148 0f5a 20000000 		.4byte	.LVL230
 13149 0f5e B2000000 		.4byte	.LVL245
 13150 0f62 0300     		.2byte	0x3
 13151 0f64 91       		.byte	0x91
 13152 0f65 CC7D     		.sleb128 -308
 13153 0f67 00000000 		.4byte	0
 13154 0f6b 00000000 		.4byte	0
 13155              	.LLST105:
 13156 0f6f 2E000000 		.4byte	.LVL233
ARM GAS  C:\Users\rdn\AppData\Local\Temp\cco7w9JJ.s 			page 257


 13157 0f73 9E000000 		.4byte	.LVL242
 13158 0f77 0100     		.2byte	0x1
 13159 0f79 57       		.byte	0x57
 13160 0f7a 00000000 		.4byte	0
 13161 0f7e 00000000 		.4byte	0
 13162              	.LLST106:
 13163 0f82 36000000 		.4byte	.LVL234
 13164 0f86 1C010000 		.4byte	.LVL257
 13165 0f8a 0100     		.2byte	0x1
 13166 0f8c 56       		.byte	0x56
 13167 0f8d 00000000 		.4byte	0
 13168 0f91 00000000 		.4byte	0
 13169              	.LLST107:
 13170 0f95 54000000 		.4byte	.LVL237
 13171 0f99 1C010000 		.4byte	.LVL259
 13172 0f9d 0100     		.2byte	0x1
 13173 0f9f 58       		.byte	0x58
 13174 0fa0 00000000 		.4byte	0
 13175 0fa4 00000000 		.4byte	0
 13176              	.LLST108:
 13177 0fa8 54000000 		.4byte	.LVL237
 13178 0fac 1C010000 		.4byte	.LVL257
 13179 0fb0 0100     		.2byte	0x1
 13180 0fb2 56       		.byte	0x56
 13181 0fb3 00000000 		.4byte	0
 13182 0fb7 00000000 		.4byte	0
 13183              	.LLST109:
 13184 0fbb B2000000 		.4byte	.LVL245
 13185 0fbf B8000000 		.4byte	.LVL246
 13186 0fc3 0100     		.2byte	0x1
 13187 0fc5 50       		.byte	0x50
 13188 0fc6 B8000000 		.4byte	.LVL246
 13189 0fca 34010000 		.4byte	.LFE36
 13190 0fce 0300     		.2byte	0x3
 13191 0fd0 91       		.byte	0x91
 13192 0fd1 CC7D     		.sleb128 -308
 13193 0fd3 00000000 		.4byte	0
 13194 0fd7 00000000 		.4byte	0
 13195              	.LLST110:
 13196 0fdb 36000000 		.4byte	.LVL234
 13197 0fdf 44000000 		.4byte	.LVL235
 13198 0fe3 0300     		.2byte	0x3
 13199 0fe5 91       		.byte	0x91
 13200 0fe6 CC7D     		.sleb128 -308
 13201 0fe8 00000000 		.4byte	0
 13202 0fec 00000000 		.4byte	0
 13203              	.LLST111:
 13204 0ff0 36000000 		.4byte	.LVL234
 13205 0ff4 44000000 		.4byte	.LVL235
 13206 0ff8 0100     		.2byte	0x1
 13207 0ffa 50       		.byte	0x50
 13208 0ffb 00000000 		.4byte	0
 13209 0fff 00000000 		.4byte	0
 13210              	.LLST112:
 13211 1003 44000000 		.4byte	.LVL235
 13212 1007 48000000 		.4byte	.LVL236
 13213 100b 0300     		.2byte	0x3
ARM GAS  C:\Users\rdn\AppData\Local\Temp\cco7w9JJ.s 			page 258


 13214 100d 91       		.byte	0x91
 13215 100e CC7D     		.sleb128 -308
 13216 1010 00000000 		.4byte	0
 13217 1014 00000000 		.4byte	0
 13218              	.LLST113:
 13219 1018 00000000 		.4byte	.LVL261
 13220 101c 24000000 		.4byte	.LVL268
 13221 1020 0100     		.2byte	0x1
 13222 1022 50       		.byte	0x50
 13223 1023 24000000 		.4byte	.LVL268
 13224 1027 2C000000 		.4byte	.LVL270
 13225 102b 0400     		.2byte	0x4
 13226 102d 71       		.byte	0x71
 13227 102e D476     		.sleb128 -1196
 13228 1030 9F       		.byte	0x9f
 13229 1031 2C000000 		.4byte	.LVL270
 13230 1035 B8000000 		.4byte	.LFE37
 13231 1039 0400     		.2byte	0x4
 13232 103b F3       		.byte	0xf3
 13233 103c 01       		.uleb128 0x1
 13234 103d 50       		.byte	0x50
 13235 103e 9F       		.byte	0x9f
 13236 103f 00000000 		.4byte	0
 13237 1043 00000000 		.4byte	0
 13238              	.LLST114:
 13239 1047 00000000 		.4byte	.LVL261
 13240 104b 18000000 		.4byte	.LVL266
 13241 104f 0100     		.2byte	0x1
 13242 1051 51       		.byte	0x51
 13243 1052 18000000 		.4byte	.LVL266
 13244 1056 AA000000 		.4byte	.LVL287
 13245 105a 0100     		.2byte	0x1
 13246 105c 56       		.byte	0x56
 13247 105d AA000000 		.4byte	.LVL287
 13248 1061 B8000000 		.4byte	.LFE37
 13249 1065 0400     		.2byte	0x4
 13250 1067 F3       		.byte	0xf3
 13251 1068 01       		.uleb128 0x1
 13252 1069 51       		.byte	0x51
 13253 106a 9F       		.byte	0x9f
 13254 106b 00000000 		.4byte	0
 13255 106f 00000000 		.4byte	0
 13256              	.LLST115:
 13257 1073 00000000 		.4byte	.LVL261
 13258 1077 0E000000 		.4byte	.LVL262
 13259 107b 0100     		.2byte	0x1
 13260 107d 52       		.byte	0x52
 13261 107e 0E000000 		.4byte	.LVL262
 13262 1082 AA000000 		.4byte	.LVL288
 13263 1086 0100     		.2byte	0x1
 13264 1088 57       		.byte	0x57
 13265 1089 AA000000 		.4byte	.LVL288
 13266 108d B8000000 		.4byte	.LFE37
 13267 1091 0400     		.2byte	0x4
 13268 1093 F3       		.byte	0xf3
 13269 1094 01       		.uleb128 0x1
 13270 1095 52       		.byte	0x52
ARM GAS  C:\Users\rdn\AppData\Local\Temp\cco7w9JJ.s 			page 259


 13271 1096 9F       		.byte	0x9f
 13272 1097 00000000 		.4byte	0
 13273 109b 00000000 		.4byte	0
 13274              	.LLST116:
 13275 109f 00000000 		.4byte	.LVL261
 13276 10a3 10000000 		.4byte	.LVL263
 13277 10a7 0100     		.2byte	0x1
 13278 10a9 53       		.byte	0x53
 13279 10aa 10000000 		.4byte	.LVL263
 13280 10ae 31000000 		.4byte	.LVL271-1
 13281 10b2 0100     		.2byte	0x1
 13282 10b4 52       		.byte	0x52
 13283 10b5 31000000 		.4byte	.LVL271-1
 13284 10b9 B8000000 		.4byte	.LFE37
 13285 10bd 0400     		.2byte	0x4
 13286 10bf F3       		.byte	0xf3
 13287 10c0 01       		.uleb128 0x1
 13288 10c1 53       		.byte	0x53
 13289 10c2 9F       		.byte	0x9f
 13290 10c3 00000000 		.4byte	0
 13291 10c7 00000000 		.4byte	0
 13292              	.LLST117:
 13293 10cb 14000000 		.4byte	.LVL265
 13294 10cf AA000000 		.4byte	.LVL286
 13295 10d3 0100     		.2byte	0x1
 13296 10d5 54       		.byte	0x54
 13297 10d6 00000000 		.4byte	0
 13298 10da 00000000 		.4byte	0
 13299              	.LLST118:
 13300 10de 22000000 		.4byte	.LVL267
 13301 10e2 AA000000 		.4byte	.LVL289
 13302 10e6 0100     		.2byte	0x1
 13303 10e8 59       		.byte	0x59
 13304 10e9 00000000 		.4byte	0
 13305 10ed 00000000 		.4byte	0
 13306              	.LLST119:
 13307 10f1 28000000 		.4byte	.LVL269
 13308 10f5 3E000000 		.4byte	.LVL273
 13309 10f9 0100     		.2byte	0x1
 13310 10fb 55       		.byte	0x55
 13311 10fc 3E000000 		.4byte	.LVL273
 13312 1100 B8000000 		.4byte	.LFE37
 13313 1104 0300     		.2byte	0x3
 13314 1106 91       		.byte	0x91
 13315 1107 A87F     		.sleb128 -88
 13316 1109 00000000 		.4byte	0
 13317 110d 00000000 		.4byte	0
 13318              	.LLST120:
 13319 1111 58000000 		.4byte	.LVL276
 13320 1115 62000000 		.4byte	.LVL277
 13321 1119 0100     		.2byte	0x1
 13322 111b 51       		.byte	0x51
 13323 111c 62000000 		.4byte	.LVL277
 13324 1120 66000000 		.4byte	.LVL278
 13325 1124 0800     		.2byte	0x8
 13326 1126 76       		.byte	0x76
 13327 1127 01       		.sleb128 1
ARM GAS  C:\Users\rdn\AppData\Local\Temp\cco7w9JJ.s 			page 260


 13328 1128 94       		.byte	0x94
 13329 1129 01       		.byte	0x1
 13330 112a 08       		.byte	0x8
 13331 112b FF       		.byte	0xff
 13332 112c 1A       		.byte	0x1a
 13333 112d 9F       		.byte	0x9f
 13334 112e 6E000000 		.4byte	.LVL279
 13335 1132 75000000 		.4byte	.LVL281-1
 13336 1136 0100     		.2byte	0x1
 13337 1138 51       		.byte	0x51
 13338 1139 00000000 		.4byte	0
 13339 113d 00000000 		.4byte	0
 13340              	.LLST121:
 13341 1141 58000000 		.4byte	.LVL276
 13342 1145 72000000 		.4byte	.LVL280
 13343 1149 0400     		.2byte	0x4
 13344 114b 91       		.byte	0x91
 13345 114c B07F     		.sleb128 -80
 13346 114e 9F       		.byte	0x9f
 13347 114f 72000000 		.4byte	.LVL280
 13348 1153 75000000 		.4byte	.LVL281-1
 13349 1157 0100     		.2byte	0x1
 13350 1159 50       		.byte	0x50
 13351 115a 75000000 		.4byte	.LVL281-1
 13352 115e 76000000 		.4byte	.LVL281
 13353 1162 0400     		.2byte	0x4
 13354 1164 91       		.byte	0x91
 13355 1165 B07F     		.sleb128 -80
 13356 1167 9F       		.byte	0x9f
 13357 1168 00000000 		.4byte	0
 13358 116c 00000000 		.4byte	0
 13359              	.LLST122:
 13360 1170 58000000 		.4byte	.LVL276
 13361 1174 76000000 		.4byte	.LVL281
 13362 1178 0200     		.2byte	0x2
 13363 117a 31       		.byte	0x31
 13364 117b 9F       		.byte	0x9f
 13365 117c 00000000 		.4byte	0
 13366 1180 00000000 		.4byte	0
 13367              	.LLST125:
 13368 1184 00000000 		.4byte	.LVL290
 13369 1188 26000000 		.4byte	.LVL296
 13370 118c 0100     		.2byte	0x1
 13371 118e 50       		.byte	0x50
 13372 118f 26000000 		.4byte	.LVL296
 13373 1193 00010000 		.4byte	.LFE47
 13374 1197 0400     		.2byte	0x4
 13375 1199 F3       		.byte	0xf3
 13376 119a 01       		.uleb128 0x1
 13377 119b 50       		.byte	0x50
 13378 119c 9F       		.byte	0x9f
 13379 119d 00000000 		.4byte	0
 13380 11a1 00000000 		.4byte	0
 13381              	.LLST126:
 13382 11a5 00000000 		.4byte	.LVL290
 13383 11a9 3C000000 		.4byte	.LVL299
 13384 11ad 0100     		.2byte	0x1
ARM GAS  C:\Users\rdn\AppData\Local\Temp\cco7w9JJ.s 			page 261


 13385 11af 51       		.byte	0x51
 13386 11b0 3C000000 		.4byte	.LVL299
 13387 11b4 41000000 		.4byte	.LVL300-1
 13388 11b8 0100     		.2byte	0x1
 13389 11ba 52       		.byte	0x52
 13390 11bb 41000000 		.4byte	.LVL300-1
 13391 11bf 00010000 		.4byte	.LFE47
 13392 11c3 0400     		.2byte	0x4
 13393 11c5 F3       		.byte	0xf3
 13394 11c6 01       		.uleb128 0x1
 13395 11c7 51       		.byte	0x51
 13396 11c8 9F       		.byte	0x9f
 13397 11c9 00000000 		.4byte	0
 13398 11cd 00000000 		.4byte	0
 13399              	.LLST127:
 13400 11d1 00000000 		.4byte	.LVL290
 13401 11d5 1C000000 		.4byte	.LVL294
 13402 11d9 0100     		.2byte	0x1
 13403 11db 52       		.byte	0x52
 13404 11dc 1C000000 		.4byte	.LVL294
 13405 11e0 00010000 		.4byte	.LFE47
 13406 11e4 0300     		.2byte	0x3
 13407 11e6 91       		.byte	0x91
 13408 11e7 A07F     		.sleb128 -96
 13409 11e9 00000000 		.4byte	0
 13410 11ed 00000000 		.4byte	0
 13411              	.LLST128:
 13412 11f1 00000000 		.4byte	.LVL290
 13413 11f5 14000000 		.4byte	.LVL292
 13414 11f9 0100     		.2byte	0x1
 13415 11fb 53       		.byte	0x53
 13416 11fc 14000000 		.4byte	.LVL292
 13417 1200 EE000000 		.4byte	.LVL320
 13418 1204 0100     		.2byte	0x1
 13419 1206 55       		.byte	0x55
 13420 1207 EE000000 		.4byte	.LVL320
 13421 120b 00010000 		.4byte	.LFE47
 13422 120f 0400     		.2byte	0x4
 13423 1211 F3       		.byte	0xf3
 13424 1212 01       		.uleb128 0x1
 13425 1213 53       		.byte	0x53
 13426 1214 9F       		.byte	0x9f
 13427 1215 00000000 		.4byte	0
 13428 1219 00000000 		.4byte	0
 13429              	.LLST129:
 13430 121d 12000000 		.4byte	.LVL291
 13431 1221 EE000000 		.4byte	.LVL321
 13432 1225 0100     		.2byte	0x1
 13433 1227 56       		.byte	0x56
 13434 1228 00000000 		.4byte	0
 13435 122c 00000000 		.4byte	0
 13436              	.LLST130:
 13437 1230 16000000 		.4byte	.LVL293
 13438 1234 EE000000 		.4byte	.LVL322
 13439 1238 0100     		.2byte	0x1
 13440 123a 58       		.byte	0x58
 13441 123b 00000000 		.4byte	0
ARM GAS  C:\Users\rdn\AppData\Local\Temp\cco7w9JJ.s 			page 262


 13442 123f 00000000 		.4byte	0
 13443              	.LLST131:
 13444 1243 22000000 		.4byte	.LVL295
 13445 1247 EE000000 		.4byte	.LVL319
 13446 124b 0100     		.2byte	0x1
 13447 124d 54       		.byte	0x54
 13448 124e 00000000 		.4byte	0
 13449 1252 00000000 		.4byte	0
 13450              	.LLST132:
 13451 1256 36000000 		.4byte	.LVL298
 13452 125a 4C000000 		.4byte	.LVL301
 13453 125e 0200     		.2byte	0x2
 13454 1260 30       		.byte	0x30
 13455 1261 9F       		.byte	0x9f
 13456 1262 4C000000 		.4byte	.LVL301
 13457 1266 5E000000 		.4byte	.LVL302
 13458 126a 0100     		.2byte	0x1
 13459 126c 50       		.byte	0x50
 13460 126d 62000000 		.4byte	.LVL303
 13461 1271 74000000 		.4byte	.LVL304
 13462 1275 0100     		.2byte	0x1
 13463 1277 50       		.byte	0x50
 13464 1278 78000000 		.4byte	.LVL305
 13465 127c 8C000000 		.4byte	.LVL307
 13466 1280 0100     		.2byte	0x1
 13467 1282 50       		.byte	0x50
 13468 1283 92000000 		.4byte	.LVL309
 13469 1287 96000000 		.4byte	.LVL310
 13470 128b 0100     		.2byte	0x1
 13471 128d 50       		.byte	0x50
 13472 128e AA000000 		.4byte	.LVL312
 13473 1292 B8000000 		.4byte	.LVL313
 13474 1296 0100     		.2byte	0x1
 13475 1298 50       		.byte	0x50
 13476 1299 D2000000 		.4byte	.LVL315
 13477 129d D8000000 		.4byte	.LVL316
 13478 12a1 0100     		.2byte	0x1
 13479 12a3 50       		.byte	0x50
 13480 12a4 00000000 		.4byte	0
 13481 12a8 00000000 		.4byte	0
 13482              	.LLST133:
 13483 12ac 22000000 		.4byte	.LVL295
 13484 12b0 30000000 		.4byte	.LVL297
 13485 12b4 0100     		.2byte	0x1
 13486 12b6 58       		.byte	0x58
 13487 12b7 00000000 		.4byte	0
 13488 12bb 00000000 		.4byte	0
 13489              	.LLST134:
 13490 12bf 22000000 		.4byte	.LVL295
 13491 12c3 30000000 		.4byte	.LVL297
 13492 12c7 0100     		.2byte	0x1
 13493 12c9 56       		.byte	0x56
 13494 12ca 00000000 		.4byte	0
 13495 12ce 00000000 		.4byte	0
 13496              	.LLST135:
 13497 12d2 30000000 		.4byte	.LVL297
 13498 12d6 36000000 		.4byte	.LVL298
ARM GAS  C:\Users\rdn\AppData\Local\Temp\cco7w9JJ.s 			page 263


 13499 12da 0100     		.2byte	0x1
 13500 12dc 58       		.byte	0x58
 13501 12dd 00000000 		.4byte	0
 13502 12e1 00000000 		.4byte	0
 13503              	.LLST136:
 13504 12e5 30000000 		.4byte	.LVL297
 13505 12e9 36000000 		.4byte	.LVL298
 13506 12ed 0100     		.2byte	0x1
 13507 12ef 56       		.byte	0x56
 13508 12f0 00000000 		.4byte	0
 13509 12f4 00000000 		.4byte	0
 13510              	.LLST137:
 13511 12f8 7C000000 		.4byte	.LVL306
 13512 12fc 96000000 		.4byte	.LVL310
 13513 1300 0400     		.2byte	0x4
 13514 1302 91       		.byte	0x91
 13515 1303 A87F     		.sleb128 -88
 13516 1305 9F       		.byte	0x9f
 13517 1306 96000000 		.4byte	.LVL310
 13518 130a 99000000 		.4byte	.LVL311-1
 13519 130e 0100     		.2byte	0x1
 13520 1310 50       		.byte	0x50
 13521 1311 99000000 		.4byte	.LVL311-1
 13522 1315 9A000000 		.4byte	.LVL311
 13523 1319 0400     		.2byte	0x4
 13524 131b 91       		.byte	0x91
 13525 131c A87F     		.sleb128 -88
 13526 131e 9F       		.byte	0x9f
 13527 131f 00000000 		.4byte	0
 13528 1323 00000000 		.4byte	0
 13529              	.LLST138:
 13530 1327 7C000000 		.4byte	.LVL306
 13531 132b 9A000000 		.4byte	.LVL311
 13532 132f 0200     		.2byte	0x2
 13533 1331 31       		.byte	0x31
 13534 1332 9F       		.byte	0x9f
 13535 1333 00000000 		.4byte	0
 13536 1337 00000000 		.4byte	0
 13537              	.LLST140:
 13538 133b 7C000000 		.4byte	.LVL306
 13539 133f EC000000 		.4byte	.LVL318
 13540 1343 0300     		.2byte	0x3
 13541 1345 91       		.byte	0x91
 13542 1346 44       		.sleb128 -60
 13543 1347 9F       		.byte	0x9f
 13544 1348 00000000 		.4byte	0
 13545 134c 00000000 		.4byte	0
 13546              	.LLST141:
 13547 1350 8E000000 		.4byte	.LVL308
 13548 1354 92000000 		.4byte	.LVL309
 13549 1358 0100     		.2byte	0x1
 13550 135a 50       		.byte	0x50
 13551 135b 00000000 		.4byte	0
 13552 135f 00000000 		.4byte	0
 13553              	.LLST142:
 13554 1363 00000000 		.4byte	.LVL323
 13555 1367 18000000 		.4byte	.LVL324
ARM GAS  C:\Users\rdn\AppData\Local\Temp\cco7w9JJ.s 			page 264


 13556 136b 0100     		.2byte	0x1
 13557 136d 50       		.byte	0x50
 13558 136e 18000000 		.4byte	.LVL324
 13559 1372 10010000 		.4byte	.LVL352
 13560 1376 0100     		.2byte	0x1
 13561 1378 54       		.byte	0x54
 13562 1379 10010000 		.4byte	.LVL352
 13563 137d 24010000 		.4byte	.LFE48
 13564 1381 0400     		.2byte	0x4
 13565 1383 F3       		.byte	0xf3
 13566 1384 01       		.uleb128 0x1
 13567 1385 50       		.byte	0x50
 13568 1386 9F       		.byte	0x9f
 13569 1387 00000000 		.4byte	0
 13570 138b 00000000 		.4byte	0
 13571              	.LLST143:
 13572 138f 00000000 		.4byte	.LVL323
 13573 1393 1E000000 		.4byte	.LVL326
 13574 1397 0100     		.2byte	0x1
 13575 1399 51       		.byte	0x51
 13576 139a 1E000000 		.4byte	.LVL326
 13577 139e F4000000 		.4byte	.LVL346
 13578 13a2 0100     		.2byte	0x1
 13579 13a4 56       		.byte	0x56
 13580 13a5 F4000000 		.4byte	.LVL346
 13581 13a9 F6000000 		.4byte	.LVL347
 13582 13ad 0300     		.2byte	0x3
 13583 13af 76       		.byte	0x76
 13584 13b0 7C       		.sleb128 -4
 13585 13b1 9F       		.byte	0x9f
 13586 13b2 F6000000 		.4byte	.LVL347
 13587 13b6 F8000000 		.4byte	.LVL348
 13588 13ba 0100     		.2byte	0x1
 13589 13bc 56       		.byte	0x56
 13590 13bd F8000000 		.4byte	.LVL348
 13591 13c1 FA000000 		.4byte	.LVL349
 13592 13c5 0400     		.2byte	0x4
 13593 13c7 F3       		.byte	0xf3
 13594 13c8 01       		.uleb128 0x1
 13595 13c9 51       		.byte	0x51
 13596 13ca 9F       		.byte	0x9f
 13597 13cb FA000000 		.4byte	.LVL349
 13598 13cf FC000000 		.4byte	.LVL350
 13599 13d3 0100     		.2byte	0x1
 13600 13d5 56       		.byte	0x56
 13601 13d6 FC000000 		.4byte	.LVL350
 13602 13da 24010000 		.4byte	.LFE48
 13603 13de 0400     		.2byte	0x4
 13604 13e0 F3       		.byte	0xf3
 13605 13e1 01       		.uleb128 0x1
 13606 13e2 51       		.byte	0x51
 13607 13e3 9F       		.byte	0x9f
 13608 13e4 00000000 		.4byte	0
 13609 13e8 00000000 		.4byte	0
 13610              	.LLST144:
 13611 13ec 00000000 		.4byte	.LVL323
 13612 13f0 24000000 		.4byte	.LVL327
ARM GAS  C:\Users\rdn\AppData\Local\Temp\cco7w9JJ.s 			page 265


 13613 13f4 0100     		.2byte	0x1
 13614 13f6 52       		.byte	0x52
 13615 13f7 24000000 		.4byte	.LVL327
 13616 13fb 24010000 		.4byte	.LFE48
 13617 13ff 0200     		.2byte	0x2
 13618 1401 91       		.byte	0x91
 13619 1402 54       		.sleb128 -44
 13620 1403 00000000 		.4byte	0
 13621 1407 00000000 		.4byte	0
 13622              	.LLST145:
 13623 140b 18000000 		.4byte	.LVL324
 13624 140f 3C000000 		.4byte	.LVL331
 13625 1413 0100     		.2byte	0x1
 13626 1415 50       		.byte	0x50
 13627 1416 3C000000 		.4byte	.LVL331
 13628 141a 24010000 		.4byte	.LFE48
 13629 141e 0200     		.2byte	0x2
 13630 1420 91       		.byte	0x91
 13631 1421 48       		.sleb128 -56
 13632 1422 00000000 		.4byte	0
 13633 1426 00000000 		.4byte	0
 13634              	.LLST146:
 13635 142a 1A000000 		.4byte	.LVL325
 13636 142e 10010000 		.4byte	.LVL354
 13637 1432 0100     		.2byte	0x1
 13638 1434 57       		.byte	0x57
 13639 1435 00000000 		.4byte	0
 13640 1439 00000000 		.4byte	0
 13641              	.LLST147:
 13642 143d 1E000000 		.4byte	.LVL326
 13643 1441 2E000000 		.4byte	.LVL329
 13644 1445 0100     		.2byte	0x1
 13645 1447 51       		.byte	0x51
 13646 1448 2E000000 		.4byte	.LVL329
 13647 144c 24010000 		.4byte	.LFE48
 13648 1450 0200     		.2byte	0x2
 13649 1452 91       		.byte	0x91
 13650 1453 50       		.sleb128 -48
 13651 1454 00000000 		.4byte	0
 13652 1458 00000000 		.4byte	0
 13653              	.LLST148:
 13654 145c 2A000000 		.4byte	.LVL328
 13655 1460 10010000 		.4byte	.LVL353
 13656 1464 0100     		.2byte	0x1
 13657 1466 55       		.byte	0x55
 13658 1467 00000000 		.4byte	0
 13659 146b 00000000 		.4byte	0
 13660              	.LLST149:
 13661 146f 4E000000 		.4byte	.LVL333
 13662 1473 50000000 		.4byte	.LVL334
 13663 1477 0100     		.2byte	0x1
 13664 1479 52       		.byte	0x52
 13665 147a 50000000 		.4byte	.LVL334
 13666 147e 24010000 		.4byte	.LFE48
 13667 1482 0200     		.2byte	0x2
 13668 1484 91       		.byte	0x91
 13669 1485 4C       		.sleb128 -52
ARM GAS  C:\Users\rdn\AppData\Local\Temp\cco7w9JJ.s 			page 266


 13670 1486 00000000 		.4byte	0
 13671 148a 00000000 		.4byte	0
 13672              	.LLST150:
 13673 148e 4E000000 		.4byte	.LVL333
 13674 1492 10010000 		.4byte	.LVL353
 13675 1496 0100     		.2byte	0x1
 13676 1498 55       		.byte	0x55
 13677 1499 00000000 		.4byte	0
 13678 149d 00000000 		.4byte	0
 13679              	.LLST151:
 13680 14a1 58000000 		.4byte	.LVL335
 13681 14a5 10010000 		.4byte	.LVL355
 13682 14a9 0100     		.2byte	0x1
 13683 14ab 59       		.byte	0x59
 13684 14ac 00000000 		.4byte	0
 13685 14b0 00000000 		.4byte	0
 13686              	.LLST152:
 13687 14b4 62000000 		.4byte	.LVL336
 13688 14b8 10010000 		.4byte	.LVL356
 13689 14bc 0100     		.2byte	0x1
 13690 14be 5B       		.byte	0x5b
 13691 14bf 00000000 		.4byte	0
 13692 14c3 00000000 		.4byte	0
 13693              	.LLST153:
 13694 14c7 2A000000 		.4byte	.LVL328
 13695 14cb 2E000000 		.4byte	.LVL329
 13696 14cf 0100     		.2byte	0x1
 13697 14d1 51       		.byte	0x51
 13698 14d2 2E000000 		.4byte	.LVL329
 13699 14d6 3A000000 		.4byte	.LVL330
 13700 14da 0200     		.2byte	0x2
 13701 14dc 91       		.byte	0x91
 13702 14dd 50       		.sleb128 -48
 13703 14de 00000000 		.4byte	0
 13704 14e2 00000000 		.4byte	0
 13705              	.LLST154:
 13706 14e6 2A000000 		.4byte	.LVL328
 13707 14ea 3A000000 		.4byte	.LVL330
 13708 14ee 0100     		.2byte	0x1
 13709 14f0 50       		.byte	0x50
 13710 14f1 00000000 		.4byte	0
 13711 14f5 00000000 		.4byte	0
 13712              	.LLST155:
 13713 14f9 3A000000 		.4byte	.LVL330
 13714 14fd 44000000 		.4byte	.LVL332
 13715 1501 0100     		.2byte	0x1
 13716 1503 57       		.byte	0x57
 13717 1504 00000000 		.4byte	0
 13718 1508 00000000 		.4byte	0
 13719              	.LLST156:
 13720 150c 3A000000 		.4byte	.LVL330
 13721 1510 44000000 		.4byte	.LVL332
 13722 1514 0200     		.2byte	0x2
 13723 1516 91       		.byte	0x91
 13724 1517 48       		.sleb128 -56
 13725 1518 00000000 		.4byte	0
 13726 151c 00000000 		.4byte	0
ARM GAS  C:\Users\rdn\AppData\Local\Temp\cco7w9JJ.s 			page 267


 13727              	.LLST157:
 13728 1520 6A000000 		.4byte	.LVL337
 13729 1524 AC000000 		.4byte	.LVL342
 13730 1528 0100     		.2byte	0x1
 13731 152a 5A       		.byte	0x5a
 13732 152b 00000000 		.4byte	0
 13733 152f 00000000 		.4byte	0
 13734              	.LLST158:
 13735 1533 00000000 		.4byte	.LVL357
 13736 1537 22000000 		.4byte	.LVL367
 13737 153b 0100     		.2byte	0x1
 13738 153d 50       		.byte	0x50
 13739 153e 22000000 		.4byte	.LVL367
 13740 1542 5C000000 		.4byte	.LFE46
 13741 1546 0400     		.2byte	0x4
 13742 1548 F3       		.byte	0xf3
 13743 1549 01       		.uleb128 0x1
 13744 154a 50       		.byte	0x50
 13745 154b 9F       		.byte	0x9f
 13746 154c 00000000 		.4byte	0
 13747 1550 00000000 		.4byte	0
 13748              	.LLST159:
 13749 1554 00000000 		.4byte	.LVL357
 13750 1558 10000000 		.4byte	.LVL362
 13751 155c 0100     		.2byte	0x1
 13752 155e 51       		.byte	0x51
 13753 155f 10000000 		.4byte	.LVL362
 13754 1563 22000000 		.4byte	.LVL367
 13755 1567 0100     		.2byte	0x1
 13756 1569 56       		.byte	0x56
 13757 156a 22000000 		.4byte	.LVL367
 13758 156e 5C000000 		.4byte	.LFE46
 13759 1572 0400     		.2byte	0x4
 13760 1574 F3       		.byte	0xf3
 13761 1575 01       		.uleb128 0x1
 13762 1576 51       		.byte	0x51
 13763 1577 9F       		.byte	0x9f
 13764 1578 00000000 		.4byte	0
 13765 157c 00000000 		.4byte	0
 13766              	.LLST160:
 13767 1580 00000000 		.4byte	.LVL357
 13768 1584 0C000000 		.4byte	.LVL361
 13769 1588 0100     		.2byte	0x1
 13770 158a 52       		.byte	0x52
 13771 158b 0C000000 		.4byte	.LVL361
 13772 158f 4E000000 		.4byte	.LVL379
 13773 1593 0100     		.2byte	0x1
 13774 1595 57       		.byte	0x57
 13775 1596 4E000000 		.4byte	.LVL379
 13776 159a 5C000000 		.4byte	.LFE46
 13777 159e 0400     		.2byte	0x4
 13778 15a0 F3       		.byte	0xf3
 13779 15a1 01       		.uleb128 0x1
 13780 15a2 52       		.byte	0x52
 13781 15a3 9F       		.byte	0x9f
 13782 15a4 00000000 		.4byte	0
 13783 15a8 00000000 		.4byte	0
ARM GAS  C:\Users\rdn\AppData\Local\Temp\cco7w9JJ.s 			page 268


 13784              	.LLST161:
 13785 15ac 06000000 		.4byte	.LVL358
 13786 15b0 10000000 		.4byte	.LVL362
 13787 15b4 0100     		.2byte	0x1
 13788 15b6 51       		.byte	0x51
 13789 15b7 10000000 		.4byte	.LVL362
 13790 15bb 4E000000 		.4byte	.LVL378
 13791 15bf 0100     		.2byte	0x1
 13792 15c1 56       		.byte	0x56
 13793 15c2 00000000 		.4byte	0
 13794 15c6 00000000 		.4byte	0
 13795              	.LLST162:
 13796 15ca 08000000 		.4byte	.LVL359
 13797 15ce 1E000000 		.4byte	.LVL365
 13798 15d2 0100     		.2byte	0x1
 13799 15d4 54       		.byte	0x54
 13800 15d5 1E000000 		.4byte	.LVL365
 13801 15d9 20000000 		.4byte	.LVL366
 13802 15dd 0300     		.2byte	0x3
 13803 15df 74       		.byte	0x74
 13804 15e0 7F       		.sleb128 -1
 13805 15e1 9F       		.byte	0x9f
 13806 15e2 20000000 		.4byte	.LVL366
 13807 15e6 22000000 		.4byte	.LVL367
 13808 15ea 0200     		.2byte	0x2
 13809 15ec 70       		.byte	0x70
 13810 15ed 00       		.sleb128 0
 13811 15ee 00000000 		.4byte	0
 13812 15f2 00000000 		.4byte	0
 13813              	.LLST163:
 13814 15f6 0A000000 		.4byte	.LVL360
 13815 15fa 18000000 		.4byte	.LVL364
 13816 15fe 0100     		.2byte	0x1
 13817 1600 53       		.byte	0x53
 13818 1601 18000000 		.4byte	.LVL364
 13819 1605 22000000 		.4byte	.LVL367
 13820 1609 0200     		.2byte	0x2
 13821 160b 70       		.byte	0x70
 13822 160c 02       		.sleb128 2
 13823 160d 00000000 		.4byte	0
 13824 1611 00000000 		.4byte	0
 13825              	.LLST164:
 13826 1615 16000000 		.4byte	.LVL363
 13827 1619 4E000000 		.4byte	.LVL377
 13828 161d 0100     		.2byte	0x1
 13829 161f 55       		.byte	0x55
 13830 1620 00000000 		.4byte	0
 13831 1624 00000000 		.4byte	0
 13832              	.LLST165:
 13833 1628 22000000 		.4byte	.LVL367
 13834 162c 4E000000 		.4byte	.LVL376
 13835 1630 0100     		.2byte	0x1
 13836 1632 54       		.byte	0x54
 13837 1633 00000000 		.4byte	0
 13838 1637 00000000 		.4byte	0
 13839              	.LLST166:
 13840 163b 16000000 		.4byte	.LVL363
ARM GAS  C:\Users\rdn\AppData\Local\Temp\cco7w9JJ.s 			page 269


 13841 163f 18000000 		.4byte	.LVL364
 13842 1643 0100     		.2byte	0x1
 13843 1645 53       		.byte	0x53
 13844 1646 18000000 		.4byte	.LVL364
 13845 164a 20000000 		.4byte	.LVL366
 13846 164e 0200     		.2byte	0x2
 13847 1650 70       		.byte	0x70
 13848 1651 02       		.sleb128 2
 13849 1652 00000000 		.4byte	0
 13850 1656 00000000 		.4byte	0
 13851              	.LLST167:
 13852 165a 16000000 		.4byte	.LVL363
 13853 165e 1E000000 		.4byte	.LVL365
 13854 1662 0100     		.2byte	0x1
 13855 1664 54       		.byte	0x54
 13856 1665 1E000000 		.4byte	.LVL365
 13857 1669 20000000 		.4byte	.LVL366
 13858 166d 0300     		.2byte	0x3
 13859 166f 74       		.byte	0x74
 13860 1670 7F       		.sleb128 -1
 13861 1671 9F       		.byte	0x9f
 13862 1672 00000000 		.4byte	0
 13863 1676 00000000 		.4byte	0
 13864              	.LLST168:
 13865 167a 24000000 		.4byte	.LVL368
 13866 167e 32000000 		.4byte	.LVL370
 13867 1682 0300     		.2byte	0x3
 13868 1684 09       		.byte	0x9
 13869 1685 F1       		.byte	0xf1
 13870 1686 9F       		.byte	0x9f
 13871 1687 00000000 		.4byte	0
 13872 168b 00000000 		.4byte	0
 13873              	.LLST169:
 13874 168f 24000000 		.4byte	.LVL368
 13875 1693 32000000 		.4byte	.LVL370
 13876 1697 0100     		.2byte	0x1
 13877 1699 53       		.byte	0x53
 13878 169a 00000000 		.4byte	0
 13879 169e 00000000 		.4byte	0
 13880              	.LLST170:
 13881 16a2 00000000 		.4byte	.LVL380
 13882 16a6 06000000 		.4byte	.LVL381
 13883 16aa 0100     		.2byte	0x1
 13884 16ac 50       		.byte	0x50
 13885 16ad 06000000 		.4byte	.LVL381
 13886 16b1 3C000000 		.4byte	.LFE22
 13887 16b5 0400     		.2byte	0x4
 13888 16b7 F3       		.byte	0xf3
 13889 16b8 01       		.uleb128 0x1
 13890 16b9 50       		.byte	0x50
 13891 16ba 9F       		.byte	0x9f
 13892 16bb 00000000 		.4byte	0
 13893 16bf 00000000 		.4byte	0
 13894              	.LLST171:
 13895 16c3 00000000 		.4byte	.LVL380
 13896 16c7 0A000000 		.4byte	.LVL382
 13897 16cb 0100     		.2byte	0x1
ARM GAS  C:\Users\rdn\AppData\Local\Temp\cco7w9JJ.s 			page 270


 13898 16cd 51       		.byte	0x51
 13899 16ce 0A000000 		.4byte	.LVL382
 13900 16d2 0D000000 		.4byte	.LVL383-1
 13901 16d6 0100     		.2byte	0x1
 13902 16d8 50       		.byte	0x50
 13903 16d9 0D000000 		.4byte	.LVL383-1
 13904 16dd 3C000000 		.4byte	.LFE22
 13905 16e1 0400     		.2byte	0x4
 13906 16e3 F3       		.byte	0xf3
 13907 16e4 01       		.uleb128 0x1
 13908 16e5 51       		.byte	0x51
 13909 16e6 9F       		.byte	0x9f
 13910 16e7 00000000 		.4byte	0
 13911 16eb 00000000 		.4byte	0
 13912              	.LLST172:
 13913 16ef 00000000 		.4byte	.LVL380
 13914 16f3 0D000000 		.4byte	.LVL383-1
 13915 16f7 0100     		.2byte	0x1
 13916 16f9 52       		.byte	0x52
 13917 16fa 0D000000 		.4byte	.LVL383-1
 13918 16fe 36000000 		.4byte	.LVL394
 13919 1702 0100     		.2byte	0x1
 13920 1704 57       		.byte	0x57
 13921 1705 36000000 		.4byte	.LVL394
 13922 1709 3C000000 		.4byte	.LFE22
 13923 170d 0400     		.2byte	0x4
 13924 170f F3       		.byte	0xf3
 13925 1710 01       		.uleb128 0x1
 13926 1711 52       		.byte	0x52
 13927 1712 9F       		.byte	0x9f
 13928 1713 00000000 		.4byte	0
 13929 1717 00000000 		.4byte	0
 13930              	.LLST173:
 13931 171b 10000000 		.4byte	.LVL384
 13932 171f 28000000 		.4byte	.LVL388
 13933 1723 0100     		.2byte	0x1
 13934 1725 54       		.byte	0x54
 13935 1726 2C000000 		.4byte	.LVL389
 13936 172a 36000000 		.4byte	.LVL393
 13937 172e 0100     		.2byte	0x1
 13938 1730 54       		.byte	0x54
 13939 1731 00000000 		.4byte	0
 13940 1735 00000000 		.4byte	0
 13941              	.LLST174:
 13942 1739 18000000 		.4byte	.LVL385
 13943 173d 22000000 		.4byte	.LVL387
 13944 1741 0100     		.2byte	0x1
 13945 1743 50       		.byte	0x50
 13946 1744 2C000000 		.4byte	.LVL389
 13947 1748 2E000000 		.4byte	.LVL390
 13948 174c 0100     		.2byte	0x1
 13949 174e 50       		.byte	0x50
 13950 174f 32000000 		.4byte	.LVL391
 13951 1753 34000000 		.4byte	.LVL392
 13952 1757 0100     		.2byte	0x1
 13953 1759 50       		.byte	0x50
 13954 175a 00000000 		.4byte	0
ARM GAS  C:\Users\rdn\AppData\Local\Temp\cco7w9JJ.s 			page 271


 13955 175e 00000000 		.4byte	0
 13956              	.LLST175:
 13957 1762 20000000 		.4byte	.LVL386
 13958 1766 22000000 		.4byte	.LVL387
 13959 176a 0100     		.2byte	0x1
 13960 176c 50       		.byte	0x50
 13961 176d 00000000 		.4byte	0
 13962 1771 00000000 		.4byte	0
 13963              	.LLST176:
 13964 1775 20000000 		.4byte	.LVL386
 13965 1779 28000000 		.4byte	.LVL388
 13966 177d 0100     		.2byte	0x1
 13967 177f 54       		.byte	0x54
 13968 1780 00000000 		.4byte	0
 13969 1784 00000000 		.4byte	0
 13970              	.LLST177:
 13971 1788 00000000 		.4byte	.LVL395
 13972 178c 08000000 		.4byte	.LVL397
 13973 1790 0100     		.2byte	0x1
 13974 1792 50       		.byte	0x50
 13975 1793 08000000 		.4byte	.LVL397
 13976 1797 0B000000 		.4byte	.LVL398-1
 13977 179b 0100     		.2byte	0x1
 13978 179d 51       		.byte	0x51
 13979 179e 0B000000 		.4byte	.LVL398-1
 13980 17a2 0E000000 		.4byte	.LFE23
 13981 17a6 0400     		.2byte	0x4
 13982 17a8 F3       		.byte	0xf3
 13983 17a9 01       		.uleb128 0x1
 13984 17aa 50       		.byte	0x50
 13985 17ab 9F       		.byte	0x9f
 13986 17ac 00000000 		.4byte	0
 13987 17b0 00000000 		.4byte	0
 13988              	.LLST178:
 13989 17b4 00000000 		.4byte	.LVL395
 13990 17b8 06000000 		.4byte	.LVL396
 13991 17bc 0100     		.2byte	0x1
 13992 17be 51       		.byte	0x51
 13993 17bf 06000000 		.4byte	.LVL396
 13994 17c3 0B000000 		.4byte	.LVL398-1
 13995 17c7 0100     		.2byte	0x1
 13996 17c9 52       		.byte	0x52
 13997 17ca 0B000000 		.4byte	.LVL398-1
 13998 17ce 0E000000 		.4byte	.LFE23
 13999 17d2 0400     		.2byte	0x4
 14000 17d4 F3       		.byte	0xf3
 14001 17d5 01       		.uleb128 0x1
 14002 17d6 51       		.byte	0x51
 14003 17d7 9F       		.byte	0x9f
 14004 17d8 00000000 		.4byte	0
 14005 17dc 00000000 		.4byte	0
 14006              	.LLST179:
 14007 17e0 00000000 		.4byte	.LVL399
 14008 17e4 0A000000 		.4byte	.LVL400
 14009 17e8 0100     		.2byte	0x1
 14010 17ea 50       		.byte	0x50
 14011 17eb 0A000000 		.4byte	.LVL400
ARM GAS  C:\Users\rdn\AppData\Local\Temp\cco7w9JJ.s 			page 272


 14012 17ef 24010000 		.4byte	.LFE24
 14013 17f3 0400     		.2byte	0x4
 14014 17f5 F3       		.byte	0xf3
 14015 17f6 01       		.uleb128 0x1
 14016 17f7 50       		.byte	0x50
 14017 17f8 9F       		.byte	0x9f
 14018 17f9 00000000 		.4byte	0
 14019 17fd 00000000 		.4byte	0
 14020              	.LLST180:
 14021 1801 00000000 		.4byte	.LVL399
 14022 1805 10000000 		.4byte	.LVL401
 14023 1809 0100     		.2byte	0x1
 14024 180b 51       		.byte	0x51
 14025 180c 10000000 		.4byte	.LVL401
 14026 1810 13000000 		.4byte	.LVL402-1
 14027 1814 0100     		.2byte	0x1
 14028 1816 50       		.byte	0x50
 14029 1817 13000000 		.4byte	.LVL402-1
 14030 181b 24010000 		.4byte	.LFE24
 14031 181f 0400     		.2byte	0x4
 14032 1821 F3       		.byte	0xf3
 14033 1822 01       		.uleb128 0x1
 14034 1823 51       		.byte	0x51
 14035 1824 9F       		.byte	0x9f
 14036 1825 00000000 		.4byte	0
 14037 1829 00000000 		.4byte	0
 14038              	.LLST181:
 14039 182d 00000000 		.4byte	.LVL399
 14040 1831 13000000 		.4byte	.LVL402-1
 14041 1835 0100     		.2byte	0x1
 14042 1837 52       		.byte	0x52
 14043 1838 13000000 		.4byte	.LVL402-1
 14044 183c 22000000 		.4byte	.LVL406
 14045 1840 0100     		.2byte	0x1
 14046 1842 57       		.byte	0x57
 14047 1843 22000000 		.4byte	.LVL406
 14048 1847 24010000 		.4byte	.LFE24
 14049 184b 0400     		.2byte	0x4
 14050 184d F3       		.byte	0xf3
 14051 184e 01       		.uleb128 0x1
 14052 184f 52       		.byte	0x52
 14053 1850 9F       		.byte	0x9f
 14054 1851 00000000 		.4byte	0
 14055 1855 00000000 		.4byte	0
 14056              	.LLST182:
 14057 1859 00000000 		.4byte	.LVL399
 14058 185d 13000000 		.4byte	.LVL402-1
 14059 1861 0100     		.2byte	0x1
 14060 1863 53       		.byte	0x53
 14061 1864 13000000 		.4byte	.LVL402-1
 14062 1868 12010000 		.4byte	.LVL439
 14063 186c 0100     		.2byte	0x1
 14064 186e 55       		.byte	0x55
 14065 186f 12010000 		.4byte	.LVL439
 14066 1873 24010000 		.4byte	.LFE24
 14067 1877 0400     		.2byte	0x4
 14068 1879 F3       		.byte	0xf3
ARM GAS  C:\Users\rdn\AppData\Local\Temp\cco7w9JJ.s 			page 273


 14069 187a 01       		.uleb128 0x1
 14070 187b 53       		.byte	0x53
 14071 187c 9F       		.byte	0x9f
 14072 187d 00000000 		.4byte	0
 14073 1881 00000000 		.4byte	0
 14074              	.LLST183:
 14075 1885 00000000 		.4byte	.LVL399
 14076 1889 4A000000 		.4byte	.LVL409
 14077 188d 0200     		.2byte	0x2
 14078 188f 91       		.byte	0x91
 14079 1890 00       		.sleb128 0
 14080 1891 4A000000 		.4byte	.LVL409
 14081 1895 4E000000 		.4byte	.LVL410
 14082 1899 0100     		.2byte	0x1
 14083 189b 50       		.byte	0x50
 14084 189c F6000000 		.4byte	.LVL428
 14085 18a0 12010000 		.4byte	.LVL438
 14086 18a4 0200     		.2byte	0x2
 14087 18a6 91       		.byte	0x91
 14088 18a7 00       		.sleb128 0
 14089 18a8 00000000 		.4byte	0
 14090 18ac 00000000 		.4byte	0
 14091              	.LLST184:
 14092 18b0 16000000 		.4byte	.LVL403
 14093 18b4 1A000000 		.4byte	.LVL404
 14094 18b8 0100     		.2byte	0x1
 14095 18ba 50       		.byte	0x50
 14096 18bb 1A000000 		.4byte	.LVL404
 14097 18bf CA000000 		.4byte	.LVL421
 14098 18c3 0100     		.2byte	0x1
 14099 18c5 56       		.byte	0x56
 14100 18c6 D4000000 		.4byte	.LVL422
 14101 18ca D6000000 		.4byte	.LVL423
 14102 18ce 0100     		.2byte	0x1
 14103 18d0 56       		.byte	0x56
 14104 18d1 DA000000 		.4byte	.LVL424
 14105 18d5 12010000 		.4byte	.LVL438
 14106 18d9 0100     		.2byte	0x1
 14107 18db 56       		.byte	0x56
 14108 18dc 00000000 		.4byte	0
 14109 18e0 00000000 		.4byte	0
 14110              	.LLST185:
 14111 18e4 22000000 		.4byte	.LVL406
 14112 18e8 42000000 		.4byte	.LVL407
 14113 18ec 0100     		.2byte	0x1
 14114 18ee 50       		.byte	0x50
 14115 18ef 48000000 		.4byte	.LVL408
 14116 18f3 4A000000 		.4byte	.LVL409
 14117 18f7 0100     		.2byte	0x1
 14118 18f9 50       		.byte	0x50
 14119 18fa F6000000 		.4byte	.LVL428
 14120 18fe F8000000 		.4byte	.LVL429
 14121 1902 0100     		.2byte	0x1
 14122 1904 50       		.byte	0x50
 14123 1905 FC000000 		.4byte	.LVL430
 14124 1909 FE000000 		.4byte	.LVL431
 14125 190d 0100     		.2byte	0x1
ARM GAS  C:\Users\rdn\AppData\Local\Temp\cco7w9JJ.s 			page 274


 14126 190f 50       		.byte	0x50
 14127 1910 02010000 		.4byte	.LVL432
 14128 1914 04010000 		.4byte	.LVL433
 14129 1918 0100     		.2byte	0x1
 14130 191a 50       		.byte	0x50
 14131 191b 08010000 		.4byte	.LVL434
 14132 191f 0A010000 		.4byte	.LVL435
 14133 1923 0100     		.2byte	0x1
 14134 1925 50       		.byte	0x50
 14135 1926 0E010000 		.4byte	.LVL436
 14136 192a 10010000 		.4byte	.LVL437
 14137 192e 0100     		.2byte	0x1
 14138 1930 50       		.byte	0x50
 14139 1931 00000000 		.4byte	0
 14140 1935 00000000 		.4byte	0
 14141              	.LLST186:
 14142 1939 56000000 		.4byte	.LVL411
 14143 193d 6A000000 		.4byte	.LVL412
 14144 1941 0100     		.2byte	0x1
 14145 1943 54       		.byte	0x54
 14146 1944 00000000 		.4byte	0
 14147 1948 00000000 		.4byte	0
 14148              	.LLST187:
 14149 194c 56000000 		.4byte	.LVL411
 14150 1950 6A000000 		.4byte	.LVL412
 14151 1954 0100     		.2byte	0x1
 14152 1956 56       		.byte	0x56
 14153 1957 00000000 		.4byte	0
 14154 195b 00000000 		.4byte	0
 14155              	.LLST188:
 14156 195f 70000000 		.4byte	.LVL413
 14157 1963 84000000 		.4byte	.LVL414
 14158 1967 0100     		.2byte	0x1
 14159 1969 54       		.byte	0x54
 14160 196a 00000000 		.4byte	0
 14161 196e 00000000 		.4byte	0
 14162              	.LLST189:
 14163 1972 70000000 		.4byte	.LVL413
 14164 1976 84000000 		.4byte	.LVL414
 14165 197a 0100     		.2byte	0x1
 14166 197c 56       		.byte	0x56
 14167 197d 00000000 		.4byte	0
 14168 1981 00000000 		.4byte	0
 14169              	.LLST190:
 14170 1985 8A000000 		.4byte	.LVL415
 14171 1989 A2000000 		.4byte	.LVL416
 14172 198d 0100     		.2byte	0x1
 14173 198f 54       		.byte	0x54
 14174 1990 00000000 		.4byte	0
 14175 1994 00000000 		.4byte	0
 14176              	.LLST191:
 14177 1998 8A000000 		.4byte	.LVL415
 14178 199c A2000000 		.4byte	.LVL416
 14179 19a0 0100     		.2byte	0x1
 14180 19a2 56       		.byte	0x56
 14181 19a3 00000000 		.4byte	0
 14182 19a7 00000000 		.4byte	0
ARM GAS  C:\Users\rdn\AppData\Local\Temp\cco7w9JJ.s 			page 275


 14183              	.LLST192:
 14184 19ab A8000000 		.4byte	.LVL417
 14185 19af BC000000 		.4byte	.LVL418
 14186 19b3 0100     		.2byte	0x1
 14187 19b5 54       		.byte	0x54
 14188 19b6 00000000 		.4byte	0
 14189 19ba 00000000 		.4byte	0
 14190              	.LLST193:
 14191 19be A8000000 		.4byte	.LVL417
 14192 19c2 BC000000 		.4byte	.LVL418
 14193 19c6 0100     		.2byte	0x1
 14194 19c8 56       		.byte	0x56
 14195 19c9 00000000 		.4byte	0
 14196 19cd 00000000 		.4byte	0
 14197              	.LLST194:
 14198 19d1 C2000000 		.4byte	.LVL419
 14199 19d5 C8000000 		.4byte	.LVL420
 14200 19d9 0100     		.2byte	0x1
 14201 19db 54       		.byte	0x54
 14202 19dc D4000000 		.4byte	.LVL422
 14203 19e0 D6000000 		.4byte	.LVL423
 14204 19e4 0100     		.2byte	0x1
 14205 19e6 54       		.byte	0x54
 14206 19e7 00000000 		.4byte	0
 14207 19eb 00000000 		.4byte	0
 14208              	.LLST195:
 14209 19ef C2000000 		.4byte	.LVL419
 14210 19f3 CA000000 		.4byte	.LVL421
 14211 19f7 0100     		.2byte	0x1
 14212 19f9 56       		.byte	0x56
 14213 19fa D4000000 		.4byte	.LVL422
 14214 19fe D6000000 		.4byte	.LVL423
 14215 1a02 0100     		.2byte	0x1
 14216 1a04 56       		.byte	0x56
 14217 1a05 00000000 		.4byte	0
 14218 1a09 00000000 		.4byte	0
 14219              	.LLST196:
 14220 1a0d DA000000 		.4byte	.LVL424
 14221 1a11 E2000000 		.4byte	.LVL425
 14222 1a15 0100     		.2byte	0x1
 14223 1a17 54       		.byte	0x54
 14224 1a18 EE000000 		.4byte	.LVL426
 14225 1a1c F2000000 		.4byte	.LVL427
 14226 1a20 0100     		.2byte	0x1
 14227 1a22 54       		.byte	0x54
 14228 1a23 00000000 		.4byte	0
 14229 1a27 00000000 		.4byte	0
 14230              	.LLST197:
 14231 1a2b DA000000 		.4byte	.LVL424
 14232 1a2f F2000000 		.4byte	.LVL427
 14233 1a33 0100     		.2byte	0x1
 14234 1a35 56       		.byte	0x56
 14235 1a36 00000000 		.4byte	0
 14236 1a3a 00000000 		.4byte	0
 14237              	.LLST198:
 14238 1a3e 00000000 		.4byte	.LVL440
 14239 1a42 10000000 		.4byte	.LVL443
ARM GAS  C:\Users\rdn\AppData\Local\Temp\cco7w9JJ.s 			page 276


 14240 1a46 0100     		.2byte	0x1
 14241 1a48 50       		.byte	0x50
 14242 1a49 10000000 		.4byte	.LVL443
 14243 1a4d 13000000 		.4byte	.LVL444-1
 14244 1a51 0100     		.2byte	0x1
 14245 1a53 51       		.byte	0x51
 14246 1a54 13000000 		.4byte	.LVL444-1
 14247 1a58 18000000 		.4byte	.LFE25
 14248 1a5c 0400     		.2byte	0x4
 14249 1a5e F3       		.byte	0xf3
 14250 1a5f 01       		.uleb128 0x1
 14251 1a60 50       		.byte	0x50
 14252 1a61 9F       		.byte	0x9f
 14253 1a62 00000000 		.4byte	0
 14254 1a66 00000000 		.4byte	0
 14255              	.LLST199:
 14256 1a6a 00000000 		.4byte	.LVL440
 14257 1a6e 0E000000 		.4byte	.LVL442
 14258 1a72 0100     		.2byte	0x1
 14259 1a74 51       		.byte	0x51
 14260 1a75 0E000000 		.4byte	.LVL442
 14261 1a79 13000000 		.4byte	.LVL444-1
 14262 1a7d 0100     		.2byte	0x1
 14263 1a7f 53       		.byte	0x53
 14264 1a80 13000000 		.4byte	.LVL444-1
 14265 1a84 18000000 		.4byte	.LFE25
 14266 1a88 0400     		.2byte	0x4
 14267 1a8a F3       		.byte	0xf3
 14268 1a8b 01       		.uleb128 0x1
 14269 1a8c 51       		.byte	0x51
 14270 1a8d 9F       		.byte	0x9f
 14271 1a8e 00000000 		.4byte	0
 14272 1a92 00000000 		.4byte	0
 14273              	.LLST200:
 14274 1a96 00000000 		.4byte	.LVL440
 14275 1a9a 0A000000 		.4byte	.LVL441
 14276 1a9e 0100     		.2byte	0x1
 14277 1aa0 52       		.byte	0x52
 14278 1aa1 0A000000 		.4byte	.LVL441
 14279 1aa5 13000000 		.4byte	.LVL444-1
 14280 1aa9 0200     		.2byte	0x2
 14281 1aab 7D       		.byte	0x7d
 14282 1aac 00       		.sleb128 0
 14283 1aad 13000000 		.4byte	.LVL444-1
 14284 1ab1 18000000 		.4byte	.LFE25
 14285 1ab5 0400     		.2byte	0x4
 14286 1ab7 F3       		.byte	0xf3
 14287 1ab8 01       		.uleb128 0x1
 14288 1ab9 52       		.byte	0x52
 14289 1aba 9F       		.byte	0x9f
 14290 1abb 00000000 		.4byte	0
 14291 1abf 00000000 		.4byte	0
 14292              	.LLST201:
 14293 1ac3 00000000 		.4byte	.LVL445
 14294 1ac7 0B000000 		.4byte	.LVL447-1
 14295 1acb 0100     		.2byte	0x1
 14296 1acd 50       		.byte	0x50
ARM GAS  C:\Users\rdn\AppData\Local\Temp\cco7w9JJ.s 			page 277


 14297 1ace 0B000000 		.4byte	.LVL447-1
 14298 1ad2 10000000 		.4byte	.LFE26
 14299 1ad6 0400     		.2byte	0x4
 14300 1ad8 F3       		.byte	0xf3
 14301 1ad9 01       		.uleb128 0x1
 14302 1ada 50       		.byte	0x50
 14303 1adb 9F       		.byte	0x9f
 14304 1adc 00000000 		.4byte	0
 14305 1ae0 00000000 		.4byte	0
 14306              	.LLST202:
 14307 1ae4 00000000 		.4byte	.LVL445
 14308 1ae8 0B000000 		.4byte	.LVL447-1
 14309 1aec 0100     		.2byte	0x1
 14310 1aee 51       		.byte	0x51
 14311 1aef 0B000000 		.4byte	.LVL447-1
 14312 1af3 10000000 		.4byte	.LFE26
 14313 1af7 0400     		.2byte	0x4
 14314 1af9 F3       		.byte	0xf3
 14315 1afa 01       		.uleb128 0x1
 14316 1afb 51       		.byte	0x51
 14317 1afc 9F       		.byte	0x9f
 14318 1afd 00000000 		.4byte	0
 14319 1b01 00000000 		.4byte	0
 14320              	.LLST203:
 14321 1b05 00000000 		.4byte	.LVL445
 14322 1b09 0B000000 		.4byte	.LVL447-1
 14323 1b0d 0100     		.2byte	0x1
 14324 1b0f 52       		.byte	0x52
 14325 1b10 0B000000 		.4byte	.LVL447-1
 14326 1b14 10000000 		.4byte	.LFE26
 14327 1b18 0400     		.2byte	0x4
 14328 1b1a F3       		.byte	0xf3
 14329 1b1b 01       		.uleb128 0x1
 14330 1b1c 52       		.byte	0x52
 14331 1b1d 9F       		.byte	0x9f
 14332 1b1e 00000000 		.4byte	0
 14333 1b22 00000000 		.4byte	0
 14334              	.LLST204:
 14335 1b26 00000000 		.4byte	.LVL445
 14336 1b2a 08000000 		.4byte	.LVL446
 14337 1b2e 0100     		.2byte	0x1
 14338 1b30 53       		.byte	0x53
 14339 1b31 08000000 		.4byte	.LVL446
 14340 1b35 0B000000 		.4byte	.LVL447-1
 14341 1b39 0200     		.2byte	0x2
 14342 1b3b 7D       		.byte	0x7d
 14343 1b3c 00       		.sleb128 0
 14344 1b3d 0B000000 		.4byte	.LVL447-1
 14345 1b41 10000000 		.4byte	.LFE26
 14346 1b45 0400     		.2byte	0x4
 14347 1b47 F3       		.byte	0xf3
 14348 1b48 01       		.uleb128 0x1
 14349 1b49 53       		.byte	0x53
 14350 1b4a 9F       		.byte	0x9f
 14351 1b4b 00000000 		.4byte	0
 14352 1b4f 00000000 		.4byte	0
 14353              	.LLST205:
ARM GAS  C:\Users\rdn\AppData\Local\Temp\cco7w9JJ.s 			page 278


 14354 1b53 00000000 		.4byte	.LVL448
 14355 1b57 0C000000 		.4byte	.LVL450
 14356 1b5b 0100     		.2byte	0x1
 14357 1b5d 50       		.byte	0x50
 14358 1b5e 0C000000 		.4byte	.LVL450
 14359 1b62 0F000000 		.4byte	.LVL451-1
 14360 1b66 0100     		.2byte	0x1
 14361 1b68 51       		.byte	0x51
 14362 1b69 0F000000 		.4byte	.LVL451-1
 14363 1b6d 12000000 		.4byte	.LFE27
 14364 1b71 0400     		.2byte	0x4
 14365 1b73 F3       		.byte	0xf3
 14366 1b74 01       		.uleb128 0x1
 14367 1b75 50       		.byte	0x50
 14368 1b76 9F       		.byte	0x9f
 14369 1b77 00000000 		.4byte	0
 14370 1b7b 00000000 		.4byte	0
 14371              	.LLST206:
 14372 1b7f 00000000 		.4byte	.LVL448
 14373 1b83 0A000000 		.4byte	.LVL449
 14374 1b87 0100     		.2byte	0x1
 14375 1b89 51       		.byte	0x51
 14376 1b8a 0A000000 		.4byte	.LVL449
 14377 1b8e 0F000000 		.4byte	.LVL451-1
 14378 1b92 0100     		.2byte	0x1
 14379 1b94 53       		.byte	0x53
 14380 1b95 0F000000 		.4byte	.LVL451-1
 14381 1b99 12000000 		.4byte	.LFE27
 14382 1b9d 0400     		.2byte	0x4
 14383 1b9f F3       		.byte	0xf3
 14384 1ba0 01       		.uleb128 0x1
 14385 1ba1 51       		.byte	0x51
 14386 1ba2 9F       		.byte	0x9f
 14387 1ba3 00000000 		.4byte	0
 14388 1ba7 00000000 		.4byte	0
 14389              	.LLST207:
 14390 1bab 00000000 		.4byte	.LVL452
 14391 1baf 08000000 		.4byte	.LVL453
 14392 1bb3 0100     		.2byte	0x1
 14393 1bb5 50       		.byte	0x50
 14394 1bb6 08000000 		.4byte	.LVL453
 14395 1bba 6C000000 		.4byte	.LFE28
 14396 1bbe 0400     		.2byte	0x4
 14397 1bc0 F3       		.byte	0xf3
 14398 1bc1 01       		.uleb128 0x1
 14399 1bc2 50       		.byte	0x50
 14400 1bc3 9F       		.byte	0x9f
 14401 1bc4 00000000 		.4byte	0
 14402 1bc8 00000000 		.4byte	0
 14403              	.LLST208:
 14404 1bcc 00000000 		.4byte	.LVL452
 14405 1bd0 0E000000 		.4byte	.LVL454
 14406 1bd4 0100     		.2byte	0x1
 14407 1bd6 51       		.byte	0x51
 14408 1bd7 0E000000 		.4byte	.LVL454
 14409 1bdb 11000000 		.4byte	.LVL455-1
 14410 1bdf 0100     		.2byte	0x1
ARM GAS  C:\Users\rdn\AppData\Local\Temp\cco7w9JJ.s 			page 279


 14411 1be1 50       		.byte	0x50
 14412 1be2 11000000 		.4byte	.LVL455-1
 14413 1be6 6C000000 		.4byte	.LFE28
 14414 1bea 0400     		.2byte	0x4
 14415 1bec F3       		.byte	0xf3
 14416 1bed 01       		.uleb128 0x1
 14417 1bee 51       		.byte	0x51
 14418 1bef 9F       		.byte	0x9f
 14419 1bf0 00000000 		.4byte	0
 14420 1bf4 00000000 		.4byte	0
 14421              	.LLST209:
 14422 1bf8 00000000 		.4byte	.LVL452
 14423 1bfc 11000000 		.4byte	.LVL455-1
 14424 1c00 0100     		.2byte	0x1
 14425 1c02 52       		.byte	0x52
 14426 1c03 11000000 		.4byte	.LVL455-1
 14427 1c07 6C000000 		.4byte	.LFE28
 14428 1c0b 0200     		.2byte	0x2
 14429 1c0d 91       		.byte	0x91
 14430 1c0e 64       		.sleb128 -28
 14431 1c0f 00000000 		.4byte	0
 14432 1c13 00000000 		.4byte	0
 14433              	.LLST210:
 14434 1c17 00000000 		.4byte	.LVL452
 14435 1c1b 11000000 		.4byte	.LVL455-1
 14436 1c1f 0100     		.2byte	0x1
 14437 1c21 53       		.byte	0x53
 14438 1c22 11000000 		.4byte	.LVL455-1
 14439 1c26 66000000 		.4byte	.LVL468
 14440 1c2a 0100     		.2byte	0x1
 14441 1c2c 55       		.byte	0x55
 14442 1c2d 66000000 		.4byte	.LVL468
 14443 1c31 6C000000 		.4byte	.LFE28
 14444 1c35 0400     		.2byte	0x4
 14445 1c37 F3       		.byte	0xf3
 14446 1c38 01       		.uleb128 0x1
 14447 1c39 53       		.byte	0x53
 14448 1c3a 9F       		.byte	0x9f
 14449 1c3b 00000000 		.4byte	0
 14450 1c3f 00000000 		.4byte	0
 14451              	.LLST211:
 14452 1c43 14000000 		.4byte	.LVL456
 14453 1c47 66000000 		.4byte	.LVL467
 14454 1c4b 0100     		.2byte	0x1
 14455 1c4d 54       		.byte	0x54
 14456 1c4e 00000000 		.4byte	0
 14457 1c52 00000000 		.4byte	0
 14458              	.LLST212:
 14459 1c56 1C000000 		.4byte	.LVL457
 14460 1c5a 32000000 		.4byte	.LVL458
 14461 1c5e 0100     		.2byte	0x1
 14462 1c60 50       		.byte	0x50
 14463 1c61 54000000 		.4byte	.LVL461
 14464 1c65 56000000 		.4byte	.LVL462
 14465 1c69 0100     		.2byte	0x1
 14466 1c6b 50       		.byte	0x50
 14467 1c6c 5A000000 		.4byte	.LVL463
ARM GAS  C:\Users\rdn\AppData\Local\Temp\cco7w9JJ.s 			page 280


 14468 1c70 5C000000 		.4byte	.LVL464
 14469 1c74 0100     		.2byte	0x1
 14470 1c76 50       		.byte	0x50
 14471 1c77 60000000 		.4byte	.LVL465
 14472 1c7b 62000000 		.4byte	.LVL466
 14473 1c7f 0100     		.2byte	0x1
 14474 1c81 50       		.byte	0x50
 14475 1c82 00000000 		.4byte	0
 14476 1c86 00000000 		.4byte	0
 14477              	.LLST213:
 14478 1c8a 00000000 		.4byte	.LVL469
 14479 1c8e 0C000000 		.4byte	.LVL471
 14480 1c92 0100     		.2byte	0x1
 14481 1c94 50       		.byte	0x50
 14482 1c95 0C000000 		.4byte	.LVL471
 14483 1c99 0F000000 		.4byte	.LVL472-1
 14484 1c9d 0100     		.2byte	0x1
 14485 1c9f 51       		.byte	0x51
 14486 1ca0 0F000000 		.4byte	.LVL472-1
 14487 1ca4 12000000 		.4byte	.LFE29
 14488 1ca8 0400     		.2byte	0x4
 14489 1caa F3       		.byte	0xf3
 14490 1cab 01       		.uleb128 0x1
 14491 1cac 50       		.byte	0x50
 14492 1cad 9F       		.byte	0x9f
 14493 1cae 00000000 		.4byte	0
 14494 1cb2 00000000 		.4byte	0
 14495              	.LLST214:
 14496 1cb6 00000000 		.4byte	.LVL469
 14497 1cba 0A000000 		.4byte	.LVL470
 14498 1cbe 0100     		.2byte	0x1
 14499 1cc0 51       		.byte	0x51
 14500 1cc1 0A000000 		.4byte	.LVL470
 14501 1cc5 0F000000 		.4byte	.LVL472-1
 14502 1cc9 0100     		.2byte	0x1
 14503 1ccb 53       		.byte	0x53
 14504 1ccc 0F000000 		.4byte	.LVL472-1
 14505 1cd0 12000000 		.4byte	.LFE29
 14506 1cd4 0400     		.2byte	0x4
 14507 1cd6 F3       		.byte	0xf3
 14508 1cd7 01       		.uleb128 0x1
 14509 1cd8 51       		.byte	0x51
 14510 1cd9 9F       		.byte	0x9f
 14511 1cda 00000000 		.4byte	0
 14512 1cde 00000000 		.4byte	0
 14513              	.LLST215:
 14514 1ce2 00000000 		.4byte	.LVL473
 14515 1ce6 06000000 		.4byte	.LVL474
 14516 1cea 0100     		.2byte	0x1
 14517 1cec 50       		.byte	0x50
 14518 1ced 06000000 		.4byte	.LVL474
 14519 1cf1 54000000 		.4byte	.LFE30
 14520 1cf5 0400     		.2byte	0x4
 14521 1cf7 F3       		.byte	0xf3
 14522 1cf8 01       		.uleb128 0x1
 14523 1cf9 50       		.byte	0x50
 14524 1cfa 9F       		.byte	0x9f
ARM GAS  C:\Users\rdn\AppData\Local\Temp\cco7w9JJ.s 			page 281


 14525 1cfb 00000000 		.4byte	0
 14526 1cff 00000000 		.4byte	0
 14527              	.LLST216:
 14528 1d03 00000000 		.4byte	.LVL473
 14529 1d07 0A000000 		.4byte	.LVL475
 14530 1d0b 0100     		.2byte	0x1
 14531 1d0d 51       		.byte	0x51
 14532 1d0e 0A000000 		.4byte	.LVL475
 14533 1d12 0D000000 		.4byte	.LVL476-1
 14534 1d16 0100     		.2byte	0x1
 14535 1d18 50       		.byte	0x50
 14536 1d19 0D000000 		.4byte	.LVL476-1
 14537 1d1d 54000000 		.4byte	.LFE30
 14538 1d21 0400     		.2byte	0x4
 14539 1d23 F3       		.byte	0xf3
 14540 1d24 01       		.uleb128 0x1
 14541 1d25 51       		.byte	0x51
 14542 1d26 9F       		.byte	0x9f
 14543 1d27 00000000 		.4byte	0
 14544 1d2b 00000000 		.4byte	0
 14545              	.LLST217:
 14546 1d2f 00000000 		.4byte	.LVL473
 14547 1d33 0D000000 		.4byte	.LVL476-1
 14548 1d37 0100     		.2byte	0x1
 14549 1d39 52       		.byte	0x52
 14550 1d3a 0D000000 		.4byte	.LVL476-1
 14551 1d3e 4A000000 		.4byte	.LVL488
 14552 1d42 0100     		.2byte	0x1
 14553 1d44 57       		.byte	0x57
 14554 1d45 4A000000 		.4byte	.LVL488
 14555 1d49 54000000 		.4byte	.LFE30
 14556 1d4d 0400     		.2byte	0x4
 14557 1d4f F3       		.byte	0xf3
 14558 1d50 01       		.uleb128 0x1
 14559 1d51 52       		.byte	0x52
 14560 1d52 9F       		.byte	0x9f
 14561 1d53 00000000 		.4byte	0
 14562 1d57 00000000 		.4byte	0
 14563              	.LLST218:
 14564 1d5b 12000000 		.4byte	.LVL477
 14565 1d5f 2A000000 		.4byte	.LVL480
 14566 1d63 0100     		.2byte	0x1
 14567 1d65 54       		.byte	0x54
 14568 1d66 40000000 		.4byte	.LVL483
 14569 1d6a 4A000000 		.4byte	.LVL487
 14570 1d6e 0100     		.2byte	0x1
 14571 1d70 54       		.byte	0x54
 14572 1d71 00000000 		.4byte	0
 14573 1d75 00000000 		.4byte	0
 14574              	.LLST219:
 14575 1d79 1A000000 		.4byte	.LVL478
 14576 1d7d 32000000 		.4byte	.LVL482
 14577 1d81 0100     		.2byte	0x1
 14578 1d83 50       		.byte	0x50
 14579 1d84 40000000 		.4byte	.LVL483
 14580 1d88 42000000 		.4byte	.LVL484
 14581 1d8c 0100     		.2byte	0x1
ARM GAS  C:\Users\rdn\AppData\Local\Temp\cco7w9JJ.s 			page 282


 14582 1d8e 50       		.byte	0x50
 14583 1d8f 46000000 		.4byte	.LVL485
 14584 1d93 48000000 		.4byte	.LVL486
 14585 1d97 0100     		.2byte	0x1
 14586 1d99 50       		.byte	0x50
 14587 1d9a 00000000 		.4byte	0
 14588 1d9e 00000000 		.4byte	0
 14589              	.LLST220:
 14590 1da2 22000000 		.4byte	.LVL479
 14591 1da6 32000000 		.4byte	.LVL482
 14592 1daa 0100     		.2byte	0x1
 14593 1dac 50       		.byte	0x50
 14594 1dad 00000000 		.4byte	0
 14595 1db1 00000000 		.4byte	0
 14596              	.LLST221:
 14597 1db5 22000000 		.4byte	.LVL479
 14598 1db9 2A000000 		.4byte	.LVL480
 14599 1dbd 0100     		.2byte	0x1
 14600 1dbf 54       		.byte	0x54
 14601 1dc0 00000000 		.4byte	0
 14602 1dc4 00000000 		.4byte	0
 14603              	.LLST222:
 14604 1dc8 22000000 		.4byte	.LVL479
 14605 1dcc 2C000000 		.4byte	.LVL481
 14606 1dd0 0100     		.2byte	0x1
 14607 1dd2 50       		.byte	0x50
 14608 1dd3 00000000 		.4byte	0
 14609 1dd7 00000000 		.4byte	0
 14610              	.LLST224:
 14611 1ddb 00000000 		.4byte	.LVL489
 14612 1ddf 08000000 		.4byte	.LVL491
 14613 1de3 0100     		.2byte	0x1
 14614 1de5 50       		.byte	0x50
 14615 1de6 08000000 		.4byte	.LVL491
 14616 1dea 0B000000 		.4byte	.LVL492-1
 14617 1dee 0100     		.2byte	0x1
 14618 1df0 51       		.byte	0x51
 14619 1df1 0B000000 		.4byte	.LVL492-1
 14620 1df5 0E000000 		.4byte	.LFE31
 14621 1df9 0400     		.2byte	0x4
 14622 1dfb F3       		.byte	0xf3
 14623 1dfc 01       		.uleb128 0x1
 14624 1dfd 50       		.byte	0x50
 14625 1dfe 9F       		.byte	0x9f
 14626 1dff 00000000 		.4byte	0
 14627 1e03 00000000 		.4byte	0
 14628              	.LLST225:
 14629 1e07 00000000 		.4byte	.LVL489
 14630 1e0b 06000000 		.4byte	.LVL490
 14631 1e0f 0100     		.2byte	0x1
 14632 1e11 51       		.byte	0x51
 14633 1e12 06000000 		.4byte	.LVL490
 14634 1e16 0B000000 		.4byte	.LVL492-1
 14635 1e1a 0100     		.2byte	0x1
 14636 1e1c 52       		.byte	0x52
 14637 1e1d 0B000000 		.4byte	.LVL492-1
 14638 1e21 0E000000 		.4byte	.LFE31
ARM GAS  C:\Users\rdn\AppData\Local\Temp\cco7w9JJ.s 			page 283


 14639 1e25 0400     		.2byte	0x4
 14640 1e27 F3       		.byte	0xf3
 14641 1e28 01       		.uleb128 0x1
 14642 1e29 51       		.byte	0x51
 14643 1e2a 9F       		.byte	0x9f
 14644 1e2b 00000000 		.4byte	0
 14645 1e2f 00000000 		.4byte	0
 14646              	.LLST226:
 14647 1e33 00000000 		.4byte	.LVL493
 14648 1e37 0C000000 		.4byte	.LVL495
 14649 1e3b 0100     		.2byte	0x1
 14650 1e3d 50       		.byte	0x50
 14651 1e3e 0C000000 		.4byte	.LVL495
 14652 1e42 88000000 		.4byte	.LFE38
 14653 1e46 0400     		.2byte	0x4
 14654 1e48 F3       		.byte	0xf3
 14655 1e49 01       		.uleb128 0x1
 14656 1e4a 50       		.byte	0x50
 14657 1e4b 9F       		.byte	0x9f
 14658 1e4c 00000000 		.4byte	0
 14659 1e50 00000000 		.4byte	0
 14660              	.LLST227:
 14661 1e54 00000000 		.4byte	.LVL493
 14662 1e58 0A000000 		.4byte	.LVL494
 14663 1e5c 0100     		.2byte	0x1
 14664 1e5e 51       		.byte	0x51
 14665 1e5f 0A000000 		.4byte	.LVL494
 14666 1e63 74000000 		.4byte	.LVL503
 14667 1e67 0100     		.2byte	0x1
 14668 1e69 55       		.byte	0x55
 14669 1e6a 74000000 		.4byte	.LVL503
 14670 1e6e 88000000 		.4byte	.LFE38
 14671 1e72 0400     		.2byte	0x4
 14672 1e74 F3       		.byte	0xf3
 14673 1e75 01       		.uleb128 0x1
 14674 1e76 51       		.byte	0x51
 14675 1e77 9F       		.byte	0x9f
 14676 1e78 00000000 		.4byte	0
 14677 1e7c 00000000 		.4byte	0
 14678              	.LLST228:
 14679 1e80 00000000 		.4byte	.LVL493
 14680 1e84 0F000000 		.4byte	.LVL496-1
 14681 1e88 0100     		.2byte	0x1
 14682 1e8a 52       		.byte	0x52
 14683 1e8b 0F000000 		.4byte	.LVL496-1
 14684 1e8f 74000000 		.4byte	.LVL502
 14685 1e93 0100     		.2byte	0x1
 14686 1e95 54       		.byte	0x54
 14687 1e96 74000000 		.4byte	.LVL502
 14688 1e9a 88000000 		.4byte	.LFE38
 14689 1e9e 0400     		.2byte	0x4
 14690 1ea0 F3       		.byte	0xf3
 14691 1ea1 01       		.uleb128 0x1
 14692 1ea2 52       		.byte	0x52
 14693 1ea3 9F       		.byte	0x9f
 14694 1ea4 00000000 		.4byte	0
 14695 1ea8 00000000 		.4byte	0
ARM GAS  C:\Users\rdn\AppData\Local\Temp\cco7w9JJ.s 			page 284


 14696              	.LLST229:
 14697 1eac 00000000 		.4byte	.LVL504
 14698 1eb0 08000000 		.4byte	.LVL506
 14699 1eb4 0100     		.2byte	0x1
 14700 1eb6 50       		.byte	0x50
 14701 1eb7 08000000 		.4byte	.LVL506
 14702 1ebb 0B000000 		.4byte	.LVL507-1
 14703 1ebf 0100     		.2byte	0x1
 14704 1ec1 51       		.byte	0x51
 14705 1ec2 0B000000 		.4byte	.LVL507-1
 14706 1ec6 0E000000 		.4byte	.LFE39
 14707 1eca 0400     		.2byte	0x4
 14708 1ecc F3       		.byte	0xf3
 14709 1ecd 01       		.uleb128 0x1
 14710 1ece 50       		.byte	0x50
 14711 1ecf 9F       		.byte	0x9f
 14712 1ed0 00000000 		.4byte	0
 14713 1ed4 00000000 		.4byte	0
 14714              	.LLST230:
 14715 1ed8 00000000 		.4byte	.LVL504
 14716 1edc 06000000 		.4byte	.LVL505
 14717 1ee0 0100     		.2byte	0x1
 14718 1ee2 51       		.byte	0x51
 14719 1ee3 06000000 		.4byte	.LVL505
 14720 1ee7 0B000000 		.4byte	.LVL507-1
 14721 1eeb 0100     		.2byte	0x1
 14722 1eed 52       		.byte	0x52
 14723 1eee 0B000000 		.4byte	.LVL507-1
 14724 1ef2 0E000000 		.4byte	.LFE39
 14725 1ef6 0400     		.2byte	0x4
 14726 1ef8 F3       		.byte	0xf3
 14727 1ef9 01       		.uleb128 0x1
 14728 1efa 51       		.byte	0x51
 14729 1efb 9F       		.byte	0x9f
 14730 1efc 00000000 		.4byte	0
 14731 1f00 00000000 		.4byte	0
 14732              	.LLST231:
 14733 1f04 00000000 		.4byte	.LVL508
 14734 1f08 1E000000 		.4byte	.LVL511
 14735 1f0c 0100     		.2byte	0x1
 14736 1f0e 50       		.byte	0x50
 14737 1f0f 1E000000 		.4byte	.LVL511
 14738 1f13 24010000 		.4byte	.LFE40
 14739 1f17 0400     		.2byte	0x4
 14740 1f19 F3       		.byte	0xf3
 14741 1f1a 01       		.uleb128 0x1
 14742 1f1b 50       		.byte	0x50
 14743 1f1c 9F       		.byte	0x9f
 14744 1f1d 00000000 		.4byte	0
 14745 1f21 00000000 		.4byte	0
 14746              	.LLST232:
 14747 1f25 00000000 		.4byte	.LVL508
 14748 1f29 1C000000 		.4byte	.LVL510
 14749 1f2d 0100     		.2byte	0x1
 14750 1f2f 51       		.byte	0x51
 14751 1f30 1C000000 		.4byte	.LVL510
 14752 1f34 FC000000 		.4byte	.LVL538
ARM GAS  C:\Users\rdn\AppData\Local\Temp\cco7w9JJ.s 			page 285


 14753 1f38 0200     		.2byte	0x2
 14754 1f3a 7D       		.byte	0x7d
 14755 1f3b 00       		.sleb128 0
 14756 1f3c FC000000 		.4byte	.LVL538
 14757 1f40 24010000 		.4byte	.LFE40
 14758 1f44 0200     		.2byte	0x2
 14759 1f46 91       		.byte	0x91
 14760 1f47 58       		.sleb128 -40
 14761 1f48 00000000 		.4byte	0
 14762 1f4c 00000000 		.4byte	0
 14763              	.LLST233:
 14764 1f50 00000000 		.4byte	.LVL508
 14765 1f54 21000000 		.4byte	.LVL512-1
 14766 1f58 0100     		.2byte	0x1
 14767 1f5a 52       		.byte	0x52
 14768 1f5b 21000000 		.4byte	.LVL512-1
 14769 1f5f 2E000000 		.4byte	.LVL515
 14770 1f63 0200     		.2byte	0x2
 14771 1f65 91       		.byte	0x91
 14772 1f66 5C       		.sleb128 -36
 14773 1f67 2E000000 		.4byte	.LVL515
 14774 1f6b 24010000 		.4byte	.LFE40
 14775 1f6f 0400     		.2byte	0x4
 14776 1f71 F3       		.byte	0xf3
 14777 1f72 01       		.uleb128 0x1
 14778 1f73 52       		.byte	0x52
 14779 1f74 9F       		.byte	0x9f
 14780 1f75 00000000 		.4byte	0
 14781 1f79 00000000 		.4byte	0
 14782              	.LLST234:
 14783 1f7d 00000000 		.4byte	.LVL508
 14784 1f81 1A000000 		.4byte	.LVL509
 14785 1f85 0100     		.2byte	0x1
 14786 1f87 53       		.byte	0x53
 14787 1f88 1A000000 		.4byte	.LVL509
 14788 1f8c FC000000 		.4byte	.LVL539
 14789 1f90 0100     		.2byte	0x1
 14790 1f92 56       		.byte	0x56
 14791 1f93 00000000 		.4byte	0
 14792 1f97 00000000 		.4byte	0
 14793              	.LLST235:
 14794 1f9b 24000000 		.4byte	.LVL513
 14795 1f9f A4000000 		.4byte	.LVL525
 14796 1fa3 0100     		.2byte	0x1
 14797 1fa5 57       		.byte	0x57
 14798 1fa6 EC000000 		.4byte	.LVL530
 14799 1faa FA000000 		.4byte	.LVL537
 14800 1fae 0100     		.2byte	0x1
 14801 1fb0 57       		.byte	0x57
 14802 1fb1 00000000 		.4byte	0
 14803 1fb5 00000000 		.4byte	0
 14804              	.LLST236:
 14805 1fb9 3A000000 		.4byte	.LVL518
 14806 1fbd 6E000000 		.4byte	.LVL522
 14807 1fc1 0100     		.2byte	0x1
 14808 1fc3 50       		.byte	0x50
 14809 1fc4 EC000000 		.4byte	.LVL530
ARM GAS  C:\Users\rdn\AppData\Local\Temp\cco7w9JJ.s 			page 286


 14810 1fc8 EE000000 		.4byte	.LVL531
 14811 1fcc 0100     		.2byte	0x1
 14812 1fce 50       		.byte	0x50
 14813 1fcf F0000000 		.4byte	.LVL532
 14814 1fd3 F2000000 		.4byte	.LVL533
 14815 1fd7 0100     		.2byte	0x1
 14816 1fd9 50       		.byte	0x50
 14817 1fda F4000000 		.4byte	.LVL534
 14818 1fde F6000000 		.4byte	.LVL535
 14819 1fe2 0100     		.2byte	0x1
 14820 1fe4 50       		.byte	0x50
 14821 1fe5 F8000000 		.4byte	.LVL536
 14822 1fe9 FA000000 		.4byte	.LVL537
 14823 1fed 0100     		.2byte	0x1
 14824 1fef 50       		.byte	0x50
 14825 1ff0 00000000 		.4byte	0
 14826 1ff4 00000000 		.4byte	0
 14827              	.LLST237:
 14828 1ff8 4A000000 		.4byte	.LVL519
 14829 1ffc EC000000 		.4byte	.LVL530
 14830 2000 0100     		.2byte	0x1
 14831 2002 54       		.byte	0x54
 14832 2003 00000000 		.4byte	0
 14833 2007 00000000 		.4byte	0
 14834              	.LLST238:
 14835 200b 4A000000 		.4byte	.LVL519
 14836 200f 54000000 		.4byte	.LVL520
 14837 2013 0100     		.2byte	0x1
 14838 2015 50       		.byte	0x50
 14839 2016 00000000 		.4byte	0
 14840 201a 00000000 		.4byte	0
 14841              	.LLST239:
 14842 201e 4A000000 		.4byte	.LVL519
 14843 2022 54000000 		.4byte	.LVL520
 14844 2026 0100     		.2byte	0x1
 14845 2028 57       		.byte	0x57
 14846 2029 00000000 		.4byte	0
 14847 202d 00000000 		.4byte	0
 14848              	.LLST240:
 14849 2031 54000000 		.4byte	.LVL520
 14850 2035 58000000 		.4byte	.LVL521
 14851 2039 0100     		.2byte	0x1
 14852 203b 55       		.byte	0x55
 14853 203c 00000000 		.4byte	0
 14854 2040 00000000 		.4byte	0
 14855              	.LLST241:
 14856 2044 00000000 		.4byte	.LVL540
 14857 2048 0E000000 		.4byte	.LVL544
 14858 204c 0100     		.2byte	0x1
 14859 204e 50       		.byte	0x50
 14860 204f 0E000000 		.4byte	.LVL544
 14861 2053 11000000 		.4byte	.LVL545-1
 14862 2057 0100     		.2byte	0x1
 14863 2059 51       		.byte	0x51
 14864 205a 11000000 		.4byte	.LVL545-1
 14865 205e 16000000 		.4byte	.LFE41
 14866 2062 0400     		.2byte	0x4
ARM GAS  C:\Users\rdn\AppData\Local\Temp\cco7w9JJ.s 			page 287


 14867 2064 F3       		.byte	0xf3
 14868 2065 01       		.uleb128 0x1
 14869 2066 50       		.byte	0x50
 14870 2067 9F       		.byte	0x9f
 14871 2068 00000000 		.4byte	0
 14872 206c 00000000 		.4byte	0
 14873              	.LLST242:
 14874 2070 00000000 		.4byte	.LVL540
 14875 2074 0C000000 		.4byte	.LVL543
 14876 2078 0100     		.2byte	0x1
 14877 207a 51       		.byte	0x51
 14878 207b 0C000000 		.4byte	.LVL543
 14879 207f 11000000 		.4byte	.LVL545-1
 14880 2083 0100     		.2byte	0x1
 14881 2085 52       		.byte	0x52
 14882 2086 11000000 		.4byte	.LVL545-1
 14883 208a 16000000 		.4byte	.LFE41
 14884 208e 0400     		.2byte	0x4
 14885 2090 F3       		.byte	0xf3
 14886 2091 01       		.uleb128 0x1
 14887 2092 51       		.byte	0x51
 14888 2093 9F       		.byte	0x9f
 14889 2094 00000000 		.4byte	0
 14890 2098 00000000 		.4byte	0
 14891              	.LLST243:
 14892 209c 00000000 		.4byte	.LVL540
 14893 20a0 0A000000 		.4byte	.LVL542
 14894 20a4 0100     		.2byte	0x1
 14895 20a6 52       		.byte	0x52
 14896 20a7 0A000000 		.4byte	.LVL542
 14897 20ab 11000000 		.4byte	.LVL545-1
 14898 20af 0100     		.2byte	0x1
 14899 20b1 53       		.byte	0x53
 14900 20b2 11000000 		.4byte	.LVL545-1
 14901 20b6 16000000 		.4byte	.LFE41
 14902 20ba 0400     		.2byte	0x4
 14903 20bc F3       		.byte	0xf3
 14904 20bd 01       		.uleb128 0x1
 14905 20be 52       		.byte	0x52
 14906 20bf 9F       		.byte	0x9f
 14907 20c0 00000000 		.4byte	0
 14908 20c4 00000000 		.4byte	0
 14909              	.LLST244:
 14910 20c8 00000000 		.4byte	.LVL540
 14911 20cc 08000000 		.4byte	.LVL541
 14912 20d0 0100     		.2byte	0x1
 14913 20d2 53       		.byte	0x53
 14914 20d3 08000000 		.4byte	.LVL541
 14915 20d7 11000000 		.4byte	.LVL545-1
 14916 20db 0200     		.2byte	0x2
 14917 20dd 7D       		.byte	0x7d
 14918 20de 00       		.sleb128 0
 14919 20df 11000000 		.4byte	.LVL545-1
 14920 20e3 16000000 		.4byte	.LFE41
 14921 20e7 0400     		.2byte	0x4
 14922 20e9 F3       		.byte	0xf3
 14923 20ea 01       		.uleb128 0x1
ARM GAS  C:\Users\rdn\AppData\Local\Temp\cco7w9JJ.s 			page 288


 14924 20eb 53       		.byte	0x53
 14925 20ec 9F       		.byte	0x9f
 14926 20ed 00000000 		.4byte	0
 14927 20f1 00000000 		.4byte	0
 14928              	.LLST245:
 14929 20f5 00000000 		.4byte	.LVL546
 14930 20f9 10000000 		.4byte	.LVL547
 14931 20fd 0100     		.2byte	0x1
 14932 20ff 50       		.byte	0x50
 14933 2100 10000000 		.4byte	.LVL547
 14934 2104 70000000 		.4byte	.LVL560
 14935 2108 0100     		.2byte	0x1
 14936 210a 56       		.byte	0x56
 14937 210b 70000000 		.4byte	.LVL560
 14938 210f 72000000 		.4byte	.LVL561
 14939 2113 0100     		.2byte	0x1
 14940 2115 50       		.byte	0x50
 14941 2116 72000000 		.4byte	.LVL561
 14942 211a 82000000 		.4byte	.LVL565
 14943 211e 0100     		.2byte	0x1
 14944 2120 56       		.byte	0x56
 14945 2121 82000000 		.4byte	.LVL565
 14946 2125 8C000000 		.4byte	.LFE42
 14947 2129 0400     		.2byte	0x4
 14948 212b F3       		.byte	0xf3
 14949 212c 01       		.uleb128 0x1
 14950 212d 50       		.byte	0x50
 14951 212e 9F       		.byte	0x9f
 14952 212f 00000000 		.4byte	0
 14953 2133 00000000 		.4byte	0
 14954              	.LLST246:
 14955 2137 00000000 		.4byte	.LVL546
 14956 213b 4A000000 		.4byte	.LVL556
 14957 213f 0100     		.2byte	0x1
 14958 2141 51       		.byte	0x51
 14959 2142 4A000000 		.4byte	.LVL556
 14960 2146 70000000 		.4byte	.LVL560
 14961 214a 0400     		.2byte	0x4
 14962 214c F3       		.byte	0xf3
 14963 214d 01       		.uleb128 0x1
 14964 214e 51       		.byte	0x51
 14965 214f 9F       		.byte	0x9f
 14966 2150 70000000 		.4byte	.LVL560
 14967 2154 80000000 		.4byte	.LVL563
 14968 2158 0100     		.2byte	0x1
 14969 215a 51       		.byte	0x51
 14970 215b 80000000 		.4byte	.LVL563
 14971 215f 8C000000 		.4byte	.LFE42
 14972 2163 0400     		.2byte	0x4
 14973 2165 F3       		.byte	0xf3
 14974 2166 01       		.uleb128 0x1
 14975 2167 51       		.byte	0x51
 14976 2168 9F       		.byte	0x9f
 14977 2169 00000000 		.4byte	0
 14978 216d 00000000 		.4byte	0
 14979              	.LLST247:
 14980 2171 00000000 		.4byte	.LVL546
ARM GAS  C:\Users\rdn\AppData\Local\Temp\cco7w9JJ.s 			page 289


 14981 2175 16000000 		.4byte	.LVL548
 14982 2179 0100     		.2byte	0x1
 14983 217b 52       		.byte	0x52
 14984 217c 16000000 		.4byte	.LVL548
 14985 2180 22000000 		.4byte	.LVL549
 14986 2184 0100     		.2byte	0x1
 14987 2186 55       		.byte	0x55
 14988 2187 22000000 		.4byte	.LVL549
 14989 218b 24000000 		.4byte	.LVL550
 14990 218f 0100     		.2byte	0x1
 14991 2191 52       		.byte	0x52
 14992 2192 24000000 		.4byte	.LVL550
 14993 2196 70000000 		.4byte	.LVL560
 14994 219a 0100     		.2byte	0x1
 14995 219c 55       		.byte	0x55
 14996 219d 70000000 		.4byte	.LVL560
 14997 21a1 76000000 		.4byte	.LVL562
 14998 21a5 0100     		.2byte	0x1
 14999 21a7 52       		.byte	0x52
 15000 21a8 76000000 		.4byte	.LVL562
 15001 21ac 82000000 		.4byte	.LVL564
 15002 21b0 0100     		.2byte	0x1
 15003 21b2 55       		.byte	0x55
 15004 21b3 82000000 		.4byte	.LVL564
 15005 21b7 8C000000 		.4byte	.LFE42
 15006 21bb 0400     		.2byte	0x4
 15007 21bd F3       		.byte	0xf3
 15008 21be 01       		.uleb128 0x1
 15009 21bf 52       		.byte	0x52
 15010 21c0 9F       		.byte	0x9f
 15011 21c1 00000000 		.4byte	0
 15012 21c5 00000000 		.4byte	0
 15013              	.LLST248:
 15014 21c9 00000000 		.4byte	.LVL546
 15015 21cd 55000000 		.4byte	.LVL557-1
 15016 21d1 0100     		.2byte	0x1
 15017 21d3 53       		.byte	0x53
 15018 21d4 55000000 		.4byte	.LVL557-1
 15019 21d8 70000000 		.4byte	.LVL560
 15020 21dc 0400     		.2byte	0x4
 15021 21de F3       		.byte	0xf3
 15022 21df 01       		.uleb128 0x1
 15023 21e0 53       		.byte	0x53
 15024 21e1 9F       		.byte	0x9f
 15025 21e2 70000000 		.4byte	.LVL560
 15026 21e6 80000000 		.4byte	.LVL563
 15027 21ea 0100     		.2byte	0x1
 15028 21ec 53       		.byte	0x53
 15029 21ed 80000000 		.4byte	.LVL563
 15030 21f1 8C000000 		.4byte	.LFE42
 15031 21f5 0400     		.2byte	0x4
 15032 21f7 F3       		.byte	0xf3
 15033 21f8 01       		.uleb128 0x1
 15034 21f9 53       		.byte	0x53
 15035 21fa 9F       		.byte	0x9f
 15036 21fb 00000000 		.4byte	0
 15037 21ff 00000000 		.4byte	0
ARM GAS  C:\Users\rdn\AppData\Local\Temp\cco7w9JJ.s 			page 290


 15038              	.LLST249:
 15039 2203 10000000 		.4byte	.LVL547
 15040 2207 24000000 		.4byte	.LVL550
 15041 220b 0100     		.2byte	0x1
 15042 220d 50       		.byte	0x50
 15043 220e 00000000 		.4byte	0
 15044 2212 00000000 		.4byte	0
 15045              	.LLST250:
 15046 2216 10000000 		.4byte	.LVL547
 15047 221a 24000000 		.4byte	.LVL550
 15048 221e 0100     		.2byte	0x1
 15049 2220 57       		.byte	0x57
 15050 2221 00000000 		.4byte	0
 15051 2225 00000000 		.4byte	0
 15052              	.LLST251:
 15053 2229 2A000000 		.4byte	.LVL551
 15054 222d 32000000 		.4byte	.LVL552
 15055 2231 0100     		.2byte	0x1
 15056 2233 50       		.byte	0x50
 15057 2234 32000000 		.4byte	.LVL552
 15058 2238 38000000 		.4byte	.LVL553
 15059 223c 0300     		.2byte	0x3
 15060 223e 72       		.byte	0x72
 15061 223f 05       		.sleb128 5
 15062 2240 9F       		.byte	0x9f
 15063 2241 38000000 		.4byte	.LVL553
 15064 2245 3E000000 		.4byte	.LVL554
 15065 2249 0200     		.2byte	0x2
 15066 224b 76       		.byte	0x76
 15067 224c 01       		.sleb128 1
 15068 224d 3E000000 		.4byte	.LVL554
 15069 2251 42000000 		.4byte	.LVL555
 15070 2255 0100     		.2byte	0x1
 15071 2257 50       		.byte	0x50
 15072 2258 00000000 		.4byte	0
 15073 225c 00000000 		.4byte	0
 15074              	.LLST252:
 15075 2260 2A000000 		.4byte	.LVL551
 15076 2264 42000000 		.4byte	.LVL555
 15077 2268 0100     		.2byte	0x1
 15078 226a 57       		.byte	0x57
 15079 226b 00000000 		.4byte	0
 15080 226f 00000000 		.4byte	0
 15081              	.LLST253:
 15082 2273 00000000 		.4byte	.LVL566
 15083 2277 10000000 		.4byte	.LVL568
 15084 227b 0100     		.2byte	0x1
 15085 227d 50       		.byte	0x50
 15086 227e 10000000 		.4byte	.LVL568
 15087 2282 B4000000 		.4byte	.LFE50
 15088 2286 0400     		.2byte	0x4
 15089 2288 F3       		.byte	0xf3
 15090 2289 01       		.uleb128 0x1
 15091 228a 50       		.byte	0x50
 15092 228b 9F       		.byte	0x9f
 15093 228c 00000000 		.4byte	0
 15094 2290 00000000 		.4byte	0
ARM GAS  C:\Users\rdn\AppData\Local\Temp\cco7w9JJ.s 			page 291


 15095              	.LLST254:
 15096 2294 00000000 		.4byte	.LVL566
 15097 2298 0E000000 		.4byte	.LVL567
 15098 229c 0100     		.2byte	0x1
 15099 229e 51       		.byte	0x51
 15100 229f 0E000000 		.4byte	.LVL567
 15101 22a3 96000000 		.4byte	.LVL578
 15102 22a7 0100     		.2byte	0x1
 15103 22a9 55       		.byte	0x55
 15104 22aa 96000000 		.4byte	.LVL578
 15105 22ae B4000000 		.4byte	.LFE50
 15106 22b2 0400     		.2byte	0x4
 15107 22b4 F3       		.byte	0xf3
 15108 22b5 01       		.uleb128 0x1
 15109 22b6 51       		.byte	0x51
 15110 22b7 9F       		.byte	0x9f
 15111 22b8 00000000 		.4byte	0
 15112 22bc 00000000 		.4byte	0
 15113              	.LLST255:
 15114 22c0 00000000 		.4byte	.LVL566
 15115 22c4 13000000 		.4byte	.LVL569-1
 15116 22c8 0100     		.2byte	0x1
 15117 22ca 52       		.byte	0x52
 15118 22cb 13000000 		.4byte	.LVL569-1
 15119 22cf 96000000 		.4byte	.LVL577
 15120 22d3 0100     		.2byte	0x1
 15121 22d5 54       		.byte	0x54
 15122 22d6 96000000 		.4byte	.LVL577
 15123 22da B4000000 		.4byte	.LFE50
 15124 22de 0400     		.2byte	0x4
 15125 22e0 F3       		.byte	0xf3
 15126 22e1 01       		.uleb128 0x1
 15127 22e2 52       		.byte	0x52
 15128 22e3 9F       		.byte	0x9f
 15129 22e4 00000000 		.4byte	0
 15130 22e8 00000000 		.4byte	0
 15131              	.LLST256:
 15132 22ec 00000000 		.4byte	.LVL579
 15133 22f0 08000000 		.4byte	.LVL581
 15134 22f4 0100     		.2byte	0x1
 15135 22f6 50       		.byte	0x50
 15136 22f7 08000000 		.4byte	.LVL581
 15137 22fb 0B000000 		.4byte	.LVL582-1
 15138 22ff 0100     		.2byte	0x1
 15139 2301 51       		.byte	0x51
 15140 2302 0B000000 		.4byte	.LVL582-1
 15141 2306 0E000000 		.4byte	.LFE51
 15142 230a 0400     		.2byte	0x4
 15143 230c F3       		.byte	0xf3
 15144 230d 01       		.uleb128 0x1
 15145 230e 50       		.byte	0x50
 15146 230f 9F       		.byte	0x9f
 15147 2310 00000000 		.4byte	0
 15148 2314 00000000 		.4byte	0
 15149              	.LLST257:
 15150 2318 00000000 		.4byte	.LVL579
 15151 231c 06000000 		.4byte	.LVL580
ARM GAS  C:\Users\rdn\AppData\Local\Temp\cco7w9JJ.s 			page 292


 15152 2320 0100     		.2byte	0x1
 15153 2322 51       		.byte	0x51
 15154 2323 06000000 		.4byte	.LVL580
 15155 2327 0B000000 		.4byte	.LVL582-1
 15156 232b 0100     		.2byte	0x1
 15157 232d 52       		.byte	0x52
 15158 232e 0B000000 		.4byte	.LVL582-1
 15159 2332 0E000000 		.4byte	.LFE51
 15160 2336 0400     		.2byte	0x4
 15161 2338 F3       		.byte	0xf3
 15162 2339 01       		.uleb128 0x1
 15163 233a 51       		.byte	0x51
 15164 233b 9F       		.byte	0x9f
 15165 233c 00000000 		.4byte	0
 15166 2340 00000000 		.4byte	0
 15167              	.LLST258:
 15168 2344 00000000 		.4byte	.LVL583
 15169 2348 20000000 		.4byte	.LVL586
 15170 234c 0100     		.2byte	0x1
 15171 234e 50       		.byte	0x50
 15172 234f 20000000 		.4byte	.LVL586
 15173 2353 74010000 		.4byte	.LFE52
 15174 2357 0400     		.2byte	0x4
 15175 2359 F3       		.byte	0xf3
 15176 235a 01       		.uleb128 0x1
 15177 235b 50       		.byte	0x50
 15178 235c 9F       		.byte	0x9f
 15179 235d 00000000 		.4byte	0
 15180 2361 00000000 		.4byte	0
 15181              	.LLST259:
 15182 2365 00000000 		.4byte	.LVL583
 15183 2369 1E000000 		.4byte	.LVL585
 15184 236d 0100     		.2byte	0x1
 15185 236f 51       		.byte	0x51
 15186 2370 1E000000 		.4byte	.LVL585
 15187 2374 48010000 		.4byte	.LVL618
 15188 2378 0100     		.2byte	0x1
 15189 237a 59       		.byte	0x59
 15190 237b 48010000 		.4byte	.LVL618
 15191 237f 74010000 		.4byte	.LFE52
 15192 2383 0400     		.2byte	0x4
 15193 2385 F3       		.byte	0xf3
 15194 2386 01       		.uleb128 0x1
 15195 2387 51       		.byte	0x51
 15196 2388 9F       		.byte	0x9f
 15197 2389 00000000 		.4byte	0
 15198 238d 00000000 		.4byte	0
 15199              	.LLST260:
 15200 2391 00000000 		.4byte	.LVL583
 15201 2395 23000000 		.4byte	.LVL587-1
 15202 2399 0100     		.2byte	0x1
 15203 239b 52       		.byte	0x52
 15204 239c 23000000 		.4byte	.LVL587-1
 15205 23a0 32000000 		.4byte	.LVL590
 15206 23a4 0200     		.2byte	0x2
 15207 23a6 91       		.byte	0x91
 15208 23a7 54       		.sleb128 -44
ARM GAS  C:\Users\rdn\AppData\Local\Temp\cco7w9JJ.s 			page 293


 15209 23a8 32000000 		.4byte	.LVL590
 15210 23ac 74010000 		.4byte	.LFE52
 15211 23b0 0400     		.2byte	0x4
 15212 23b2 F3       		.byte	0xf3
 15213 23b3 01       		.uleb128 0x1
 15214 23b4 52       		.byte	0x52
 15215 23b5 9F       		.byte	0x9f
 15216 23b6 00000000 		.4byte	0
 15217 23ba 00000000 		.4byte	0
 15218              	.LLST261:
 15219 23be 00000000 		.4byte	.LVL583
 15220 23c2 1C000000 		.4byte	.LVL584
 15221 23c6 0100     		.2byte	0x1
 15222 23c8 53       		.byte	0x53
 15223 23c9 1C000000 		.4byte	.LVL584
 15224 23cd 48010000 		.4byte	.LVL617
 15225 23d1 0100     		.2byte	0x1
 15226 23d3 56       		.byte	0x56
 15227 23d4 00000000 		.4byte	0
 15228 23d8 00000000 		.4byte	0
 15229              	.LLST262:
 15230 23dc 28000000 		.4byte	.LVL588
 15231 23e0 48010000 		.4byte	.LVL616
 15232 23e4 0200     		.2byte	0x2
 15233 23e6 7D       		.byte	0x7d
 15234 23e7 00       		.sleb128 0
 15235 23e8 48010000 		.4byte	.LVL616
 15236 23ec 74010000 		.4byte	.LFE52
 15237 23f0 0200     		.2byte	0x2
 15238 23f2 91       		.byte	0x91
 15239 23f3 50       		.sleb128 -48
 15240 23f4 00000000 		.4byte	0
 15241 23f8 00000000 		.4byte	0
 15242              	.LLST263:
 15243 23fc 3E000000 		.4byte	.LVL593
 15244 2400 94000000 		.4byte	.LVL598
 15245 2404 0100     		.2byte	0x1
 15246 2406 50       		.byte	0x50
 15247 2407 38010000 		.4byte	.LVL608
 15248 240b 3A010000 		.4byte	.LVL609
 15249 240f 0100     		.2byte	0x1
 15250 2411 50       		.byte	0x50
 15251 2412 3C010000 		.4byte	.LVL610
 15252 2416 3E010000 		.4byte	.LVL611
 15253 241a 0100     		.2byte	0x1
 15254 241c 50       		.byte	0x50
 15255 241d 40010000 		.4byte	.LVL612
 15256 2421 42010000 		.4byte	.LVL613
 15257 2425 0100     		.2byte	0x1
 15258 2427 50       		.byte	0x50
 15259 2428 44010000 		.4byte	.LVL614
 15260 242c 46010000 		.4byte	.LVL615
 15261 2430 0100     		.2byte	0x1
 15262 2432 50       		.byte	0x50
 15263 2433 00000000 		.4byte	0
 15264 2437 00000000 		.4byte	0
 15265              	.LLST264:
ARM GAS  C:\Users\rdn\AppData\Local\Temp\cco7w9JJ.s 			page 294


 15266 243b 4E000000 		.4byte	.LVL594
 15267 243f 38010000 		.4byte	.LVL608
 15268 2443 0100     		.2byte	0x1
 15269 2445 54       		.byte	0x54
 15270 2446 00000000 		.4byte	0
 15271 244a 00000000 		.4byte	0
 15272              	.LLST265:
 15273 244e 4E000000 		.4byte	.LVL594
 15274 2452 6C000000 		.4byte	.LVL595
 15275 2456 0100     		.2byte	0x1
 15276 2458 50       		.byte	0x50
 15277 2459 00000000 		.4byte	0
 15278 245d 00000000 		.4byte	0
 15279              	.LLST266:
 15280 2461 4E000000 		.4byte	.LVL594
 15281 2465 6C000000 		.4byte	.LVL595
 15282 2469 0200     		.2byte	0x2
 15283 246b 7D       		.byte	0x7d
 15284 246c 00       		.sleb128 0
 15285 246d 00000000 		.4byte	0
 15286 2471 00000000 		.4byte	0
 15287              	.LLST267:
 15288 2475 6C000000 		.4byte	.LVL595
 15289 2479 78000000 		.4byte	.LVL596
 15290 247d 0100     		.2byte	0x1
 15291 247f 55       		.byte	0x55
 15292 2480 00000000 		.4byte	0
 15293 2484 00000000 		.4byte	0
 15294              	.LLST268:
 15295 2488 6C000000 		.4byte	.LVL595
 15296 248c 78000000 		.4byte	.LVL596
 15297 2490 0200     		.2byte	0x2
 15298 2492 7D       		.byte	0x7d
 15299 2493 00       		.sleb128 0
 15300 2494 00000000 		.4byte	0
 15301 2498 00000000 		.4byte	0
 15302              	.LLST269:
 15303 249c 78000000 		.4byte	.LVL596
 15304 24a0 86000000 		.4byte	.LVL597
 15305 24a4 0100     		.2byte	0x1
 15306 24a6 55       		.byte	0x55
 15307 24a7 00000000 		.4byte	0
 15308 24ab 00000000 		.4byte	0
 15309              	.LLST270:
 15310 24af 78000000 		.4byte	.LVL596
 15311 24b3 86000000 		.4byte	.LVL597
 15312 24b7 0200     		.2byte	0x2
 15313 24b9 7D       		.byte	0x7d
 15314 24ba 00       		.sleb128 0
 15315 24bb 00000000 		.4byte	0
 15316 24bf 00000000 		.4byte	0
 15317              	.LLST271:
 15318 24c3 00000000 		.4byte	.LVL619
 15319 24c7 0E000000 		.4byte	.LVL623
 15320 24cb 0100     		.2byte	0x1
 15321 24cd 50       		.byte	0x50
 15322 24ce 0E000000 		.4byte	.LVL623
ARM GAS  C:\Users\rdn\AppData\Local\Temp\cco7w9JJ.s 			page 295


 15323 24d2 11000000 		.4byte	.LVL624-1
 15324 24d6 0100     		.2byte	0x1
 15325 24d8 51       		.byte	0x51
 15326 24d9 11000000 		.4byte	.LVL624-1
 15327 24dd 16000000 		.4byte	.LFE53
 15328 24e1 0400     		.2byte	0x4
 15329 24e3 F3       		.byte	0xf3
 15330 24e4 01       		.uleb128 0x1
 15331 24e5 50       		.byte	0x50
 15332 24e6 9F       		.byte	0x9f
 15333 24e7 00000000 		.4byte	0
 15334 24eb 00000000 		.4byte	0
 15335              	.LLST272:
 15336 24ef 00000000 		.4byte	.LVL619
 15337 24f3 0C000000 		.4byte	.LVL622
 15338 24f7 0100     		.2byte	0x1
 15339 24f9 51       		.byte	0x51
 15340 24fa 0C000000 		.4byte	.LVL622
 15341 24fe 11000000 		.4byte	.LVL624-1
 15342 2502 0100     		.2byte	0x1
 15343 2504 52       		.byte	0x52
 15344 2505 11000000 		.4byte	.LVL624-1
 15345 2509 16000000 		.4byte	.LFE53
 15346 250d 0400     		.2byte	0x4
 15347 250f F3       		.byte	0xf3
 15348 2510 01       		.uleb128 0x1
 15349 2511 51       		.byte	0x51
 15350 2512 9F       		.byte	0x9f
 15351 2513 00000000 		.4byte	0
 15352 2517 00000000 		.4byte	0
 15353              	.LLST273:
 15354 251b 00000000 		.4byte	.LVL619
 15355 251f 0A000000 		.4byte	.LVL621
 15356 2523 0100     		.2byte	0x1
 15357 2525 52       		.byte	0x52
 15358 2526 0A000000 		.4byte	.LVL621
 15359 252a 11000000 		.4byte	.LVL624-1
 15360 252e 0100     		.2byte	0x1
 15361 2530 53       		.byte	0x53
 15362 2531 11000000 		.4byte	.LVL624-1
 15363 2535 16000000 		.4byte	.LFE53
 15364 2539 0400     		.2byte	0x4
 15365 253b F3       		.byte	0xf3
 15366 253c 01       		.uleb128 0x1
 15367 253d 52       		.byte	0x52
 15368 253e 9F       		.byte	0x9f
 15369 253f 00000000 		.4byte	0
 15370 2543 00000000 		.4byte	0
 15371              	.LLST274:
 15372 2547 00000000 		.4byte	.LVL619
 15373 254b 08000000 		.4byte	.LVL620
 15374 254f 0100     		.2byte	0x1
 15375 2551 53       		.byte	0x53
 15376 2552 08000000 		.4byte	.LVL620
 15377 2556 11000000 		.4byte	.LVL624-1
 15378 255a 0200     		.2byte	0x2
 15379 255c 7D       		.byte	0x7d
ARM GAS  C:\Users\rdn\AppData\Local\Temp\cco7w9JJ.s 			page 296


 15380 255d 00       		.sleb128 0
 15381 255e 11000000 		.4byte	.LVL624-1
 15382 2562 16000000 		.4byte	.LFE53
 15383 2566 0400     		.2byte	0x4
 15384 2568 F3       		.byte	0xf3
 15385 2569 01       		.uleb128 0x1
 15386 256a 53       		.byte	0x53
 15387 256b 9F       		.byte	0x9f
 15388 256c 00000000 		.4byte	0
 15389 2570 00000000 		.4byte	0
 15390              	.LLST275:
 15391 2574 00000000 		.4byte	.LVL625
 15392 2578 18000000 		.4byte	.LVL626
 15393 257c 0100     		.2byte	0x1
 15394 257e 50       		.byte	0x50
 15395 257f 18000000 		.4byte	.LVL626
 15396 2583 7E000000 		.4byte	.LVL641
 15397 2587 0100     		.2byte	0x1
 15398 2589 54       		.byte	0x54
 15399 258a 7E000000 		.4byte	.LVL641
 15400 258e 80000000 		.4byte	.LVL642
 15401 2592 0100     		.2byte	0x1
 15402 2594 50       		.byte	0x50
 15403 2595 80000000 		.4byte	.LVL642
 15404 2599 84000000 		.4byte	.LVL643
 15405 259d 0100     		.2byte	0x1
 15406 259f 54       		.byte	0x54
 15407 25a0 84000000 		.4byte	.LVL643
 15408 25a4 86000000 		.4byte	.LVL644
 15409 25a8 0100     		.2byte	0x1
 15410 25aa 50       		.byte	0x50
 15411 25ab 86000000 		.4byte	.LVL644
 15412 25af 90000000 		.4byte	.LVL647
 15413 25b3 0100     		.2byte	0x1
 15414 25b5 54       		.byte	0x54
 15415 25b6 90000000 		.4byte	.LVL647
 15416 25ba 9C000000 		.4byte	.LFE54
 15417 25be 0400     		.2byte	0x4
 15418 25c0 F3       		.byte	0xf3
 15419 25c1 01       		.uleb128 0x1
 15420 25c2 50       		.byte	0x50
 15421 25c3 9F       		.byte	0x9f
 15422 25c4 00000000 		.4byte	0
 15423 25c8 00000000 		.4byte	0
 15424              	.LLST276:
 15425 25cc 00000000 		.4byte	.LVL625
 15426 25d0 43000000 		.4byte	.LVL634-1
 15427 25d4 0100     		.2byte	0x1
 15428 25d6 51       		.byte	0x51
 15429 25d7 43000000 		.4byte	.LVL634-1
 15430 25db 4C000000 		.4byte	.LVL635
 15431 25df 0400     		.2byte	0x4
 15432 25e1 F3       		.byte	0xf3
 15433 25e2 01       		.uleb128 0x1
 15434 25e3 51       		.byte	0x51
 15435 25e4 9F       		.byte	0x9f
 15436 25e5 4C000000 		.4byte	.LVL635
ARM GAS  C:\Users\rdn\AppData\Local\Temp\cco7w9JJ.s 			page 297


 15437 25e9 50000000 		.4byte	.LVL636
 15438 25ed 0100     		.2byte	0x1
 15439 25ef 51       		.byte	0x51
 15440 25f0 50000000 		.4byte	.LVL636
 15441 25f4 7E000000 		.4byte	.LVL641
 15442 25f8 0400     		.2byte	0x4
 15443 25fa F3       		.byte	0xf3
 15444 25fb 01       		.uleb128 0x1
 15445 25fc 51       		.byte	0x51
 15446 25fd 9F       		.byte	0x9f
 15447 25fe 7E000000 		.4byte	.LVL641
 15448 2602 8E000000 		.4byte	.LVL646
 15449 2606 0100     		.2byte	0x1
 15450 2608 51       		.byte	0x51
 15451 2609 8E000000 		.4byte	.LVL646
 15452 260d 9C000000 		.4byte	.LFE54
 15453 2611 0400     		.2byte	0x4
 15454 2613 F3       		.byte	0xf3
 15455 2614 01       		.uleb128 0x1
 15456 2615 51       		.byte	0x51
 15457 2616 9F       		.byte	0x9f
 15458 2617 00000000 		.4byte	0
 15459 261b 00000000 		.4byte	0
 15460              	.LLST277:
 15461 261f 00000000 		.4byte	.LVL625
 15462 2623 20000000 		.4byte	.LVL628
 15463 2627 0100     		.2byte	0x1
 15464 2629 52       		.byte	0x52
 15465 262a 20000000 		.4byte	.LVL628
 15466 262e 2E000000 		.4byte	.LVL631
 15467 2632 0100     		.2byte	0x1
 15468 2634 56       		.byte	0x56
 15469 2635 2E000000 		.4byte	.LVL631
 15470 2639 32000000 		.4byte	.LVL633
 15471 263d 0100     		.2byte	0x1
 15472 263f 52       		.byte	0x52
 15473 2640 32000000 		.4byte	.LVL633
 15474 2644 7E000000 		.4byte	.LVL641
 15475 2648 0100     		.2byte	0x1
 15476 264a 56       		.byte	0x56
 15477 264b 7E000000 		.4byte	.LVL641
 15478 264f 8A000000 		.4byte	.LVL645
 15479 2653 0100     		.2byte	0x1
 15480 2655 52       		.byte	0x52
 15481 2656 8A000000 		.4byte	.LVL645
 15482 265a 90000000 		.4byte	.LVL648
 15483 265e 0100     		.2byte	0x1
 15484 2660 56       		.byte	0x56
 15485 2661 90000000 		.4byte	.LVL648
 15486 2665 9C000000 		.4byte	.LFE54
 15487 2669 0400     		.2byte	0x4
 15488 266b F3       		.byte	0xf3
 15489 266c 01       		.uleb128 0x1
 15490 266d 52       		.byte	0x52
 15491 266e 9F       		.byte	0x9f
 15492 266f 00000000 		.4byte	0
 15493 2673 00000000 		.4byte	0
ARM GAS  C:\Users\rdn\AppData\Local\Temp\cco7w9JJ.s 			page 298


 15494              	.LLST278:
 15495 2677 00000000 		.4byte	.LVL625
 15496 267b 1A000000 		.4byte	.LVL627
 15497 267f 0100     		.2byte	0x1
 15498 2681 53       		.byte	0x53
 15499 2682 1A000000 		.4byte	.LVL627
 15500 2686 7E000000 		.4byte	.LVL641
 15501 268a 0400     		.2byte	0x4
 15502 268c F3       		.byte	0xf3
 15503 268d 01       		.uleb128 0x1
 15504 268e 53       		.byte	0x53
 15505 268f 9F       		.byte	0x9f
 15506 2690 7E000000 		.4byte	.LVL641
 15507 2694 8A000000 		.4byte	.LVL645
 15508 2698 0100     		.2byte	0x1
 15509 269a 53       		.byte	0x53
 15510 269b 8A000000 		.4byte	.LVL645
 15511 269f 9C000000 		.4byte	.LFE54
 15512 26a3 0400     		.2byte	0x4
 15513 26a5 F3       		.byte	0xf3
 15514 26a6 01       		.uleb128 0x1
 15515 26a7 53       		.byte	0x53
 15516 26a8 9F       		.byte	0x9f
 15517 26a9 00000000 		.4byte	0
 15518 26ad 00000000 		.4byte	0
 15519              	.LLST279:
 15520 26b1 52000000 		.4byte	.LVL637
 15521 26b5 7E000000 		.4byte	.LVL641
 15522 26b9 0100     		.2byte	0x1
 15523 26bb 57       		.byte	0x57
 15524 26bc 00000000 		.4byte	0
 15525 26c0 00000000 		.4byte	0
 15526              	.LLST280:
 15527 26c4 1A000000 		.4byte	.LVL627
 15528 26c8 22000000 		.4byte	.LVL629
 15529 26cc 0100     		.2byte	0x1
 15530 26ce 53       		.byte	0x53
 15531 26cf 22000000 		.4byte	.LVL629
 15532 26d3 28000000 		.4byte	.LVL630
 15533 26d7 0300     		.2byte	0x3
 15534 26d9 72       		.byte	0x72
 15535 26da 05       		.sleb128 5
 15536 26db 9F       		.byte	0x9f
 15537 26dc 28000000 		.4byte	.LVL630
 15538 26e0 2E000000 		.4byte	.LVL631
 15539 26e4 0200     		.2byte	0x2
 15540 26e6 74       		.byte	0x74
 15541 26e7 01       		.sleb128 1
 15542 26e8 2E000000 		.4byte	.LVL631
 15543 26ec 30000000 		.4byte	.LVL632
 15544 26f0 0100     		.2byte	0x1
 15545 26f2 53       		.byte	0x53
 15546 26f3 30000000 		.4byte	.LVL632
 15547 26f7 32000000 		.4byte	.LVL633
 15548 26fb 0200     		.2byte	0x2
 15549 26fd 74       		.byte	0x74
 15550 26fe 01       		.sleb128 1
ARM GAS  C:\Users\rdn\AppData\Local\Temp\cco7w9JJ.s 			page 299


 15551 26ff 00000000 		.4byte	0
 15552 2703 00000000 		.4byte	0
 15553              	.LLST281:
 15554 2707 1A000000 		.4byte	.LVL627
 15555 270b 32000000 		.4byte	.LVL633
 15556 270f 0100     		.2byte	0x1
 15557 2711 50       		.byte	0x50
 15558 2712 00000000 		.4byte	0
 15559 2716 00000000 		.4byte	0
 15560              		.section	.debug_aranges,"",%progbits
 15561 0000 2C010000 		.4byte	0x12c
 15562 0004 0200     		.2byte	0x2
 15563 0006 00000000 		.4byte	.Ldebug_info0
 15564 000a 04       		.byte	0x4
 15565 000b 00       		.byte	0
 15566 000c 0000     		.2byte	0
 15567 000e 0000     		.2byte	0
 15568 0010 00000000 		.4byte	.LFB20
 15569 0014 40000000 		.4byte	.LFE20-.LFB20
 15570 0018 00000000 		.4byte	.LFB21
 15571 001c 7C000000 		.4byte	.LFE21-.LFB21
 15572 0020 00000000 		.4byte	.LFB32
 15573 0024 78000000 		.4byte	.LFE32-.LFB32
 15574 0028 00000000 		.4byte	.LFB33
 15575 002c 84000000 		.4byte	.LFE33-.LFB33
 15576 0030 00000000 		.4byte	.LFB34
 15577 0034 94000000 		.4byte	.LFE34-.LFB34
 15578 0038 00000000 		.4byte	.LFB35
 15579 003c A4000000 		.4byte	.LFE35-.LFB35
 15580 0040 00000000 		.4byte	.LFB43
 15581 0044 8C000000 		.4byte	.LFE43-.LFB43
 15582 0048 00000000 		.4byte	.LFB44
 15583 004c A8000000 		.4byte	.LFE44-.LFB44
 15584 0050 00000000 		.4byte	.LFB45
 15585 0054 B0000000 		.4byte	.LFE45-.LFB45
 15586 0058 00000000 		.4byte	.LFB49
 15587 005c 44000000 		.4byte	.LFE49-.LFB49
 15588 0060 00000000 		.4byte	.LFB36
 15589 0064 34010000 		.4byte	.LFE36-.LFB36
 15590 0068 00000000 		.4byte	.LFB37
 15591 006c B8000000 		.4byte	.LFE37-.LFB37
 15592 0070 00000000 		.4byte	.LFB47
 15593 0074 00010000 		.4byte	.LFE47-.LFB47
 15594 0078 00000000 		.4byte	.LFB48
 15595 007c 24010000 		.4byte	.LFE48-.LFB48
 15596 0080 00000000 		.4byte	.LFB46
 15597 0084 5C000000 		.4byte	.LFE46-.LFB46
 15598 0088 00000000 		.4byte	.LFB22
 15599 008c 3C000000 		.4byte	.LFE22-.LFB22
 15600 0090 00000000 		.4byte	.LFB23
 15601 0094 0E000000 		.4byte	.LFE23-.LFB23
 15602 0098 00000000 		.4byte	.LFB24
 15603 009c 24010000 		.4byte	.LFE24-.LFB24
 15604 00a0 00000000 		.4byte	.LFB25
 15605 00a4 18000000 		.4byte	.LFE25-.LFB25
 15606 00a8 00000000 		.4byte	.LFB26
 15607 00ac 10000000 		.4byte	.LFE26-.LFB26
ARM GAS  C:\Users\rdn\AppData\Local\Temp\cco7w9JJ.s 			page 300


 15608 00b0 00000000 		.4byte	.LFB27
 15609 00b4 12000000 		.4byte	.LFE27-.LFB27
 15610 00b8 00000000 		.4byte	.LFB28
 15611 00bc 6C000000 		.4byte	.LFE28-.LFB28
 15612 00c0 00000000 		.4byte	.LFB29
 15613 00c4 12000000 		.4byte	.LFE29-.LFB29
 15614 00c8 00000000 		.4byte	.LFB30
 15615 00cc 54000000 		.4byte	.LFE30-.LFB30
 15616 00d0 00000000 		.4byte	.LFB31
 15617 00d4 0E000000 		.4byte	.LFE31-.LFB31
 15618 00d8 00000000 		.4byte	.LFB38
 15619 00dc 88000000 		.4byte	.LFE38-.LFB38
 15620 00e0 00000000 		.4byte	.LFB39
 15621 00e4 0E000000 		.4byte	.LFE39-.LFB39
 15622 00e8 00000000 		.4byte	.LFB40
 15623 00ec 24010000 		.4byte	.LFE40-.LFB40
 15624 00f0 00000000 		.4byte	.LFB41
 15625 00f4 16000000 		.4byte	.LFE41-.LFB41
 15626 00f8 00000000 		.4byte	.LFB42
 15627 00fc 8C000000 		.4byte	.LFE42-.LFB42
 15628 0100 00000000 		.4byte	.LFB50
 15629 0104 B4000000 		.4byte	.LFE50-.LFB50
 15630 0108 00000000 		.4byte	.LFB51
 15631 010c 0E000000 		.4byte	.LFE51-.LFB51
 15632 0110 00000000 		.4byte	.LFB52
 15633 0114 74010000 		.4byte	.LFE52-.LFB52
 15634 0118 00000000 		.4byte	.LFB53
 15635 011c 16000000 		.4byte	.LFE53-.LFB53
 15636 0120 00000000 		.4byte	.LFB54
 15637 0124 9C000000 		.4byte	.LFE54-.LFB54
 15638 0128 00000000 		.4byte	0
 15639 012c 00000000 		.4byte	0
 15640              		.section	.debug_ranges,"",%progbits
 15641              	.Ldebug_ranges0:
 15642 0000 00000000 		.4byte	.LFB20
 15643 0004 40000000 		.4byte	.LFE20
 15644 0008 00000000 		.4byte	.LFB21
 15645 000c 7C000000 		.4byte	.LFE21
 15646 0010 00000000 		.4byte	.LFB32
 15647 0014 78000000 		.4byte	.LFE32
 15648 0018 00000000 		.4byte	.LFB33
 15649 001c 84000000 		.4byte	.LFE33
 15650 0020 00000000 		.4byte	.LFB34
 15651 0024 94000000 		.4byte	.LFE34
 15652 0028 00000000 		.4byte	.LFB35
 15653 002c A4000000 		.4byte	.LFE35
 15654 0030 00000000 		.4byte	.LFB43
 15655 0034 8C000000 		.4byte	.LFE43
 15656 0038 00000000 		.4byte	.LFB44
 15657 003c A8000000 		.4byte	.LFE44
 15658 0040 00000000 		.4byte	.LFB45
 15659 0044 B0000000 		.4byte	.LFE45
 15660 0048 00000000 		.4byte	.LFB49
 15661 004c 44000000 		.4byte	.LFE49
 15662 0050 00000000 		.4byte	.LFB36
 15663 0054 34010000 		.4byte	.LFE36
 15664 0058 00000000 		.4byte	.LFB37
ARM GAS  C:\Users\rdn\AppData\Local\Temp\cco7w9JJ.s 			page 301


 15665 005c B8000000 		.4byte	.LFE37
 15666 0060 00000000 		.4byte	.LFB47
 15667 0064 00010000 		.4byte	.LFE47
 15668 0068 00000000 		.4byte	.LFB48
 15669 006c 24010000 		.4byte	.LFE48
 15670 0070 00000000 		.4byte	.LFB46
 15671 0074 5C000000 		.4byte	.LFE46
 15672 0078 00000000 		.4byte	.LFB22
 15673 007c 3C000000 		.4byte	.LFE22
 15674 0080 00000000 		.4byte	.LFB23
 15675 0084 0E000000 		.4byte	.LFE23
 15676 0088 00000000 		.4byte	.LFB24
 15677 008c 24010000 		.4byte	.LFE24
 15678 0090 00000000 		.4byte	.LFB25
 15679 0094 18000000 		.4byte	.LFE25
 15680 0098 00000000 		.4byte	.LFB26
 15681 009c 10000000 		.4byte	.LFE26
 15682 00a0 00000000 		.4byte	.LFB27
 15683 00a4 12000000 		.4byte	.LFE27
 15684 00a8 00000000 		.4byte	.LFB28
 15685 00ac 6C000000 		.4byte	.LFE28
 15686 00b0 00000000 		.4byte	.LFB29
 15687 00b4 12000000 		.4byte	.LFE29
 15688 00b8 00000000 		.4byte	.LFB30
 15689 00bc 54000000 		.4byte	.LFE30
 15690 00c0 00000000 		.4byte	.LFB31
 15691 00c4 0E000000 		.4byte	.LFE31
 15692 00c8 00000000 		.4byte	.LFB38
 15693 00cc 88000000 		.4byte	.LFE38
 15694 00d0 00000000 		.4byte	.LFB39
 15695 00d4 0E000000 		.4byte	.LFE39
 15696 00d8 00000000 		.4byte	.LFB40
 15697 00dc 24010000 		.4byte	.LFE40
 15698 00e0 00000000 		.4byte	.LFB41
 15699 00e4 16000000 		.4byte	.LFE41
 15700 00e8 00000000 		.4byte	.LFB42
 15701 00ec 8C000000 		.4byte	.LFE42
 15702 00f0 00000000 		.4byte	.LFB50
 15703 00f4 B4000000 		.4byte	.LFE50
 15704 00f8 00000000 		.4byte	.LFB51
 15705 00fc 0E000000 		.4byte	.LFE51
 15706 0100 00000000 		.4byte	.LFB52
 15707 0104 74010000 		.4byte	.LFE52
 15708 0108 00000000 		.4byte	.LFB53
 15709 010c 16000000 		.4byte	.LFE53
 15710 0110 00000000 		.4byte	.LFB54
 15711 0114 9C000000 		.4byte	.LFE54
 15712 0118 00000000 		.4byte	0
 15713 011c 00000000 		.4byte	0
 15714              		.section	.debug_line,"",%progbits
 15715              	.Ldebug_line0:
 15716 0000 E2090000 		.section	.debug_str,"MS",%progbits,1
 15716      02006202 
 15716      00000201 
 15716      FB0E0D00 
 15716      01010101 
 15717              	.LASF142:
ARM GAS  C:\Users\rdn\AppData\Local\Temp\cco7w9JJ.s 			page 302


 15718 0000 6C63335F 		.ascii	"lc3_max_frame_bytes\000"
 15718      6D61785F 
 15718      6672616D 
 15718      655F6279 
 15718      74657300 
 15719              	.LASF143:
 15720 0014 6C63335F 		.ascii	"lc3_nd\000"
 15720      6E6400
 15721              	.LASF30:
 15722 001b 4C43335F 		.ascii	"LC3_SRATE_24K\000"
 15722      53524154 
 15722      455F3234 
 15722      4B00
 15723              	.LASF136:
 15724 0029 6C63335F 		.ascii	"lc3_nh\000"
 15724      6E6800
 15725              	.LASF86:
 15726 0030 4C43335F 		.ascii	"LC3_BANDWIDTH_FB_HR\000"
 15726      42414E44 
 15726      57494454 
 15726      485F4642 
 15726      5F485200 
 15727              	.LASF82:
 15728 0044 4C43335F 		.ascii	"LC3_BANDWIDTH_WB\000"
 15728      42414E44 
 15728      57494454 
 15728      485F5742 
 15728      00
 15729              	.LASF125:
 15730 0055 72635F6F 		.ascii	"rc_order\000"
 15730      72646572 
 15730      00
 15731              	.LASF100:
 15732 005e 6C63335F 		.ascii	"lc3_bits_buffer\000"
 15732      62697473 
 15732      5F627566 
 15732      66657200 
 15733              	.LASF107:
 15734 006e 62756666 		.ascii	"buffer\000"
 15734      657200
 15735              	.LASF199:
 15736 0075 6C63335F 		.ascii	"lc3_ne_2m5\000"
 15736      6E655F32 
 15736      6D3500
 15737              	.LASF165:
 15738 0080 656E636F 		.ascii	"encode\000"
 15738      646500
 15739              	.LASF14:
 15740 0087 756E7369 		.ascii	"unsigned int\000"
 15740      676E6564 
 15740      20696E74 
 15740      00
 15741              	.LASF32:
 15742 0094 4C43335F 		.ascii	"LC3_SRATE_48K\000"
 15742      53524154 
 15742      455F3438 
 15742      4B00
ARM GAS  C:\Users\rdn\AppData\Local\Temp\cco7w9JJ.s 			page 303


 15743              	.LASF198:
 15744 00a2 6C63335F 		.ascii	"lc3_ns_2m5\000"
 15744      6E735F32 
 15744      6D3500
 15745              	.LASF7:
 15746 00ad 5F5F696E 		.ascii	"__int32_t\000"
 15746      7433325F 
 15746      7400
 15747              	.LASF150:
 15748 00b7 6C6F6164 		.ascii	"load_s16\000"
 15748      5F733136 
 15748      00
 15749              	.LASF42:
 15750 00c0 70697463 		.ascii	"pitch\000"
 15750      6800
 15751              	.LASF75:
 15752 00c6 4C43335F 		.ascii	"LC3_PCM_FORMAT_S24_3LE\000"
 15752      50434D5F 
 15752      464F524D 
 15752      41545F53 
 15752      32345F33 
 15753              	.LASF161:
 15754 00dd 73696465 		.ascii	"side\000"
 15754      00
 15755              	.LASF139:
 15756 00e2 6C63335F 		.ascii	"lc3_get_bits\000"
 15756      6765745F 
 15756      62697473 
 15756      00
 15757              	.LASF126:
 15758 00ef 6C63335F 		.ascii	"lc3_tns_data_t\000"
 15758      746E735F 
 15758      64617461 
 15758      5F7400
 15759              	.LASF205:
 15760 00fe 6C63335F 		.ascii	"lc3_mdct_forward\000"
 15760      6D646374 
 15760      5F666F72 
 15760      77617264 
 15760      00
 15761              	.LASF39:
 15762 010f 6C63335F 		.ascii	"lc3_ltpf_hp50_state\000"
 15762      6C747066 
 15762      5F687035 
 15762      305F7374 
 15762      61746500 
 15763              	.LASF99:
 15764 0123 6572726F 		.ascii	"error\000"
 15764      7200
 15765              	.LASF105:
 15766 0129 6D6F6465 		.ascii	"mode\000"
 15766      00
 15767              	.LASF26:
 15768 012e 6C63335F 		.ascii	"lc3_dt\000"
 15768      647400
 15769              	.LASF227:
 15770 0135 6C63335F 		.ascii	"lc3_spec_decode\000"
ARM GAS  C:\Users\rdn\AppData\Local\Temp\cco7w9JJ.s 			page 304


 15770      73706563 
 15770      5F646563 
 15770      6F646500 
 15771              	.LASF172:
 15772 0145 73725F68 		.ascii	"sr_hz\000"
 15772      7A00
 15773              	.LASF33:
 15774 014b 4C43335F 		.ascii	"LC3_SRATE_48K_HR\000"
 15774      53524154 
 15774      455F3438 
 15774      4B5F4852 
 15774      00
 15775              	.LASF225:
 15776 015c 6C63335F 		.ascii	"lc3_sns_get_data\000"
 15776      736E735F 
 15776      6765745F 
 15776      64617461 
 15776      00
 15777              	.LASF56:
 15778 016d 61747464 		.ascii	"attdet\000"
 15778      657400
 15779              	.LASF151:
 15780 0174 6C6F6164 		.ascii	"load_s24\000"
 15780      5F733234 
 15780      00
 15781              	.LASF200:
 15782 017d 6C63335F 		.ascii	"lc3_ns_4m\000"
 15782      6E735F34 
 15782      6D00
 15783              	.LASF89:
 15784 0187 6C63335F 		.ascii	"lc3_bits_mode\000"
 15784      62697473 
 15784      5F6D6F64 
 15784      6500
 15785              	.LASF41:
 15786 0195 61637469 		.ascii	"active\000"
 15786      766500
 15787              	.LASF44:
 15788 019c 785F3132 		.ascii	"x_12k8\000"
 15788      6B3800
 15789              	.LASF122:
 15790 01a3 6C63335F 		.ascii	"lc3_tns_data\000"
 15790      746E735F 
 15790      64617461 
 15790      00
 15791              	.LASF128:
 15792 01b0 675F6964 		.ascii	"g_idx\000"
 15792      7800
 15793              	.LASF130:
 15794 01b6 6C63335F 		.ascii	"lc3_spec_side_t\000"
 15794      73706563 
 15794      5F736964 
 15794      655F7400 
 15795              	.LASF22:
 15796 01c6 4C43335F 		.ascii	"LC3_DT_5M\000"
 15796      44545F35 
 15796      4D00
ARM GAS  C:\Users\rdn\AppData\Local\Temp\cco7w9JJ.s 			page 305


 15797              	.LASF19:
 15798 01d0 75696E74 		.ascii	"uint32_t\000"
 15798      33325F74 
 15798      00
 15799              	.LASF135:
 15800 01d9 6C63335F 		.ascii	"lc3_ldexpf\000"
 15800      6C646578 
 15800      706600
 15801              	.LASF191:
 15802 01e4 6C6F6164 		.ascii	"load\000"
 15802      00
 15803              	.LASF232:
 15804 01e9 6C63335F 		.ascii	"lc3_mdct_inverse\000"
 15804      6D646374 
 15804      5F696E76 
 15804      65727365 
 15804      00
 15805              	.LASF48:
 15806 01fa 666C6F61 		.ascii	"float\000"
 15806      7400
 15807              	.LASF188:
 15808 0200 73725F70 		.ascii	"sr_pcm_hz\000"
 15808      636D5F68 
 15808      7A00
 15809              	.LASF238:
 15810 020a 474E5520 		.ascii	"GNU C11 5.4.1 20160609 (release) [ARM/embedded-5-br"
 15810      43313120 
 15810      352E342E 
 15810      31203230 
 15810      31363036 
 15811 023d 616E6368 		.ascii	"anch revision 237715] -mcpu=cortex-m0plus -mthumb -"
 15811      20726576 
 15811      6973696F 
 15811      6E203233 
 15811      37373135 
 15812 0270 67202D4F 		.ascii	"g -Og -ffunction-sections -ffat-lto-objects\000"
 15812      67202D66 
 15812      66756E63 
 15812      74696F6E 
 15812      2D736563 
 15813              	.LASF177:
 15814 029c 62697472 		.ascii	"bitrate\000"
 15814      61746500 
 15815              	.LASF156:
 15816 02a4 73746F72 		.ascii	"store_s24\000"
 15816      655F7332 
 15816      3400
 15817              	.LASF55:
 15818 02ae 73725F70 		.ascii	"sr_pcm\000"
 15818      636D00
 15819              	.LASF66:
 15820 02b5 636F756E 		.ascii	"count\000"
 15820      7400
 15821              	.LASF97:
 15822 02bb 63617272 		.ascii	"carry\000"
 15822      7900
 15823              	.LASF16:
ARM GAS  C:\Users\rdn\AppData\Local\Temp\cco7w9JJ.s 			page 306


 15824 02c1 696E7431 		.ascii	"int16_t\000"
 15824      365F7400 
 15825              	.LASF13:
 15826 02c9 6C6F6E67 		.ascii	"long long unsigned int\000"
 15826      206C6F6E 
 15826      6720756E 
 15826      7369676E 
 15826      65642069 
 15827              	.LASF113:
 15828 02e0 6C666362 		.ascii	"lfcb\000"
 15828      00
 15829              	.LASF132:
 15830 02e5 70697463 		.ascii	"pitch_present\000"
 15830      685F7072 
 15830      6573656E 
 15830      7400
 15831              	.LASF186:
 15832 02f3 6C63335F 		.ascii	"lc3_encoder_size\000"
 15832      656E636F 
 15832      6465725F 
 15832      73697A65 
 15832      00
 15833              	.LASF64:
 15834 0304 6C63335F 		.ascii	"lc3_plc_state\000"
 15834      706C635F 
 15834      73746174 
 15834      6500
 15835              	.LASF160:
 15836 0312 6E627974 		.ascii	"nbytes\000"
 15836      657300
 15837              	.LASF207:
 15838 0319 6C63335F 		.ascii	"lc3_ltpf_disable\000"
 15838      6C747066 
 15838      5F646973 
 15838      61626C65 
 15838      00
 15839              	.LASF5:
 15840 032a 5F5F7569 		.ascii	"__uint16_t\000"
 15840      6E743136 
 15840      5F7400
 15841              	.LASF164:
 15842 0335 6C63335F 		.ascii	"lc3_put_bit\000"
 15842      7075745F 
 15842      62697400 
 15843              	.LASF173:
 15844 0341 6C63335F 		.ascii	"lc3_hr_frame_samples\000"
 15844      68725F66 
 15844      72616D65 
 15844      5F73616D 
 15844      706C6573 
 15845              	.LASF31:
 15846 0356 4C43335F 		.ascii	"LC3_SRATE_32K\000"
 15846      53524154 
 15846      455F3332 
 15846      4B00
 15847              	.LASF197:
 15848 0364 73746F72 		.ascii	"store\000"
ARM GAS  C:\Users\rdn\AppData\Local\Temp\cco7w9JJ.s 			page 307


 15848      6500
 15849              	.LASF76:
 15850 036a 4C43335F 		.ascii	"LC3_PCM_FORMAT_FLOAT\000"
 15850      50434D5F 
 15850      464F524D 
 15850      41545F46 
 15850      4C4F4154 
 15851              	.LASF182:
 15852 037f 6C63335F 		.ascii	"lc3_resolve_bitrate\000"
 15852      7265736F 
 15852      6C76655F 
 15852      62697472 
 15852      61746500 
 15853              	.LASF37:
 15854 0393 6C63335F 		.ascii	"lc3_attdet_analysis_t\000"
 15854      61747464 
 15854      65745F61 
 15854      6E616C79 
 15854      7369735F 
 15855              	.LASF25:
 15856 03a9 4C43335F 		.ascii	"LC3_NUM_DT\000"
 15856      4E554D5F 
 15856      445400
 15857              	.LASF59:
 15858 03b4 78745F6F 		.ascii	"xt_off\000"
 15858      666600
 15859              	.LASF234:
 15860 03bb 6C63335F 		.ascii	"lc3_ltpf_synthesize\000"
 15860      6C747066 
 15860      5F73796E 
 15860      74686573 
 15860      697A6500 
 15861              	.LASF163:
 15862 03cf 6C63335F 		.ascii	"lc3_put_bits\000"
 15862      7075745F 
 15862      62697473 
 15862      00
 15863              	.LASF147:
 15864 03dc 656E636F 		.ascii	"encoder\000"
 15864      64657200 
 15865              	.LASF155:
 15866 03e4 6465636F 		.ascii	"decoder\000"
 15866      64657200 
 15867              	.LASF45:
 15868 03ec 785F366B 		.ascii	"x_6k4\000"
 15868      3400
 15869              	.LASF20:
 15870 03f2 696E7436 		.ascii	"int64_t\000"
 15870      345F7400 
 15871              	.LASF226:
 15872 03fa 6C63335F 		.ascii	"lc3_ltpf_get_data\000"
 15872      6C747066 
 15872      5F676574 
 15872      5F646174 
 15872      6100
 15873              	.LASF110:
 15874 040c 70697463 		.ascii	"pitch_index\000"
ARM GAS  C:\Users\rdn\AppData\Local\Temp\cco7w9JJ.s 			page 308


 15874      685F696E 
 15874      64657800 
 15875              	.LASF98:
 15876 0418 63617272 		.ascii	"carry_count\000"
 15876      795F636F 
 15876      756E7400 
 15877              	.LASF57:
 15878 0424 6C747066 		.ascii	"ltpf\000"
 15878      00
 15879              	.LASF221:
 15880 0429 6C63335F 		.ascii	"lc3_get_bits_generic\000"
 15880      6765745F 
 15880      62697473 
 15880      5F67656E 
 15880      65726963 
 15881              	.LASF46:
 15882 043e 5F426F6F 		.ascii	"_Bool\000"
 15882      6C00
 15883              	.LASF169:
 15884 0444 73796E74 		.ascii	"synthesize\000"
 15884      68657369 
 15884      7A6500
 15885              	.LASF190:
 15886 044f 6C63335F 		.ascii	"lc3_encode\000"
 15886      656E636F 
 15886      646500
 15887              	.LASF108:
 15888 045a 6C63335F 		.ascii	"lc3_bits_t\000"
 15888      62697473 
 15888      5F7400
 15889              	.LASF171:
 15890 0465 64745F75 		.ascii	"dt_us\000"
 15890      7300
 15891              	.LASF224:
 15892 046b 6C63335F 		.ascii	"lc3_tns_get_data\000"
 15892      746E735F 
 15892      6765745F 
 15892      64617461 
 15892      00
 15893              	.LASF158:
 15894 047c 636F6D70 		.ascii	"complete\000"
 15894      6C657465 
 15894      00
 15895              	.LASF73:
 15896 0485 4C43335F 		.ascii	"LC3_PCM_FORMAT_S16\000"
 15896      50434D5F 
 15896      464F524D 
 15896      41545F53 
 15896      313600
 15897              	.LASF209:
 15898 0498 6C63335F 		.ascii	"lc3_sns_analyze\000"
 15898      736E735F 
 15898      616E616C 
 15898      797A6500 
 15899              	.LASF24:
 15900 04a8 4C43335F 		.ascii	"LC3_DT_10M\000"
 15900      44545F31 
ARM GAS  C:\Users\rdn\AppData\Local\Temp\cco7w9JJ.s 			page 309


 15900      304D00
 15901              	.LASF148:
 15902 04b3 5F70636D 		.ascii	"_pcm\000"
 15902      00
 15903              	.LASF134:
 15904 04b8 6C63335F 		.ascii	"lc3_hr\000"
 15904      687200
 15905              	.LASF106:
 15906 04bf 61636375 		.ascii	"accu\000"
 15906      00
 15907              	.LASF78:
 15908 04c4 63686172 		.ascii	"char\000"
 15908      00
 15909              	.LASF230:
 15910 04c9 6C63335F 		.ascii	"lc3_tns_synthesize\000"
 15910      746E735F 
 15910      73796E74 
 15910      68657369 
 15910      7A6500
 15911              	.LASF153:
 15912 04dc 6C6F6164 		.ascii	"load_float\000"
 15912      5F666C6F 
 15912      617400
 15913              	.LASF62:
 15914 04e7 6C63335F 		.ascii	"lc3_ltpf_synthesis\000"
 15914      6C747066 
 15914      5F73796E 
 15914      74686573 
 15914      697300
 15915              	.LASF202:
 15916 04fa 6C63335F 		.ascii	"lc3_attdet_run\000"
 15916      61747464 
 15916      65745F72 
 15916      756E00
 15917              	.LASF92:
 15918 0509 6C63335F 		.ascii	"lc3_bits_accu\000"
 15918      62697473 
 15918      5F616363 
 15918      7500
 15919              	.LASF52:
 15920 0517 6E626974 		.ascii	"nbits_spare\000"
 15920      735F7370 
 15920      61726500 
 15921              	.LASF168:
 15922 0523 64617461 		.ascii	"data\000"
 15922      00
 15923              	.LASF180:
 15924 0528 6C63335F 		.ascii	"lc3_frame_bytes\000"
 15924      6672616D 
 15924      655F6279 
 15924      74657300 
 15925              	.LASF240:
 15926 0538 433A5C55 		.ascii	"C:\\Users\\rdn\\Documents\\PSoC Creator\\SEES\\ble_"
 15926      73657273 
 15926      5C72646E 
 15926      5C446F63 
 15926      756D656E 
ARM GAS  C:\Users\rdn\AppData\Local\Temp\cco7w9JJ.s 			page 310


 15927 0565 74657374 		.ascii	"test.cydsn\000"
 15927      2E637964 
 15927      736E00
 15928              	.LASF93:
 15929 0570 6E6F7665 		.ascii	"nover\000"
 15929      7200
 15930              	.LASF81:
 15931 0576 4C43335F 		.ascii	"LC3_BANDWIDTH_NB\000"
 15931      42414E44 
 15931      57494454 
 15931      485F4E42 
 15931      00
 15932              	.LASF74:
 15933 0587 4C43335F 		.ascii	"LC3_PCM_FORMAT_S24\000"
 15933      50434D5F 
 15933      464F524D 
 15933      41545F53 
 15933      323400
 15934              	.LASF231:
 15935 059a 6C63335F 		.ascii	"lc3_sns_synthesize\000"
 15935      736E735F 
 15935      73796E74 
 15935      68657369 
 15935      7A6500
 15936              	.LASF220:
 15937 05ad 6C63335F 		.ascii	"lc3_flush_bits\000"
 15937      666C7573 
 15937      685F6269 
 15937      747300
 15938              	.LASF15:
 15939 05bc 75696E74 		.ascii	"uint8_t\000"
 15939      385F7400 
 15940              	.LASF215:
 15941 05c4 6C63335F 		.ascii	"lc3_spec_put_side\000"
 15941      73706563 
 15941      5F707574 
 15941      5F736964 
 15941      6500
 15942              	.LASF193:
 15943 05d6 6C63335F 		.ascii	"lc3_decoder_size\000"
 15943      6465636F 
 15943      6465725F 
 15943      73697A65 
 15943      00
 15944              	.LASF116:
 15945 05e7 6761696E 		.ascii	"gain\000"
 15945      00
 15946              	.LASF68:
 15947 05ec 6C63335F 		.ascii	"lc3_plc_state_t\000"
 15947      706C635F 
 15947      73746174 
 15947      655F7400 
 15948              	.LASF103:
 15949 05fc 705F6277 		.ascii	"p_bw\000"
 15949      00
 15950              	.LASF138:
 15951 0601 62697473 		.ascii	"bits\000"
ARM GAS  C:\Users\rdn\AppData\Local\Temp\cco7w9JJ.s 			page 311


 15951      00
 15952              	.LASF144:
 15953 0606 68726D6F 		.ascii	"hrmode\000"
 15953      646500
 15954              	.LASF70:
 15955 060d 78685F6F 		.ascii	"xh_off\000"
 15955      666600
 15956              	.LASF162:
 15957 0614 6E6E5F66 		.ascii	"nn_flag\000"
 15957      6C616700 
 15958              	.LASF229:
 15959 061c 6C63335F 		.ascii	"lc3_plc_suspend\000"
 15959      706C635F 
 15959      73757370 
 15959      656E6400 
 15960              	.LASF12:
 15961 062c 6C6F6E67 		.ascii	"long long int\000"
 15961      206C6F6E 
 15961      6720696E 
 15961      7400
 15962              	.LASF174:
 15963 063a 6C63335F 		.ascii	"lc3_frame_samples\000"
 15963      6672616D 
 15963      655F7361 
 15963      6D706C65 
 15963      7300
 15964              	.LASF38:
 15965 064c 6C63335F 		.ascii	"lc3_attdet_analysis\000"
 15965      61747464 
 15965      65745F61 
 15965      6E616C79 
 15965      73697300 
 15966              	.LASF166:
 15967 0660 6C63335F 		.ascii	"lc3_get_bit\000"
 15967      6765745F 
 15967      62697400 
 15968              	.LASF237:
 15969 066c 6C63335F 		.ascii	"lc3_plc_reset\000"
 15969      706C635F 
 15969      72657365 
 15969      7400
 15970              	.LASF175:
 15971 067a 6C63335F 		.ascii	"lc3_hr_frame_block_bytes\000"
 15971      68725F66 
 15971      72616D65 
 15971      5F626C6F 
 15971      636B5F62 
 15972              	.LASF43:
 15973 0693 68703530 		.ascii	"hp50\000"
 15973      00
 15974              	.LASF218:
 15975 0698 6C63335F 		.ascii	"lc3_ltpf_put_data\000"
 15975      6C747066 
 15975      5F707574 
 15975      5F646174 
 15975      6100
 15976              	.LASF51:
ARM GAS  C:\Users\rdn\AppData\Local\Temp\cco7w9JJ.s 			page 312


 15977 06aa 6E626974 		.ascii	"nbits_off\000"
 15977      735F6F66 
 15977      6600
 15978              	.LASF181:
 15979 06b4 6C63335F 		.ascii	"lc3_hr_resolve_bitrate\000"
 15979      68725F72 
 15979      65736F6C 
 15979      76655F62 
 15979      69747261 
 15980              	.LASF3:
 15981 06cb 5F5F696E 		.ascii	"__int16_t\000"
 15981      7431365F 
 15981      7400
 15982              	.LASF84:
 15983 06d5 4C43335F 		.ascii	"LC3_BANDWIDTH_SWB\000"
 15983      42414E44 
 15983      57494454 
 15983      485F5357 
 15983      4200
 15984              	.LASF109:
 15985 06e7 6C63335F 		.ascii	"lc3_ltpf_data\000"
 15985      6C747066 
 15985      5F646174 
 15985      6100
 15986              	.LASF241:
 15987 06f5 6D656D73 		.ascii	"memset\000"
 15987      657400
 15988              	.LASF236:
 15989 06fc 666D696E 		.ascii	"fminf\000"
 15989      6600
 15990              	.LASF154:
 15991 0702 73746F72 		.ascii	"store_s16\000"
 15991      655F7331 
 15991      3600
 15992              	.LASF214:
 15993 070c 6C63335F 		.ascii	"lc3_bwdet_put_bw\000"
 15993      62776465 
 15993      745F7075 
 15993      745F6277 
 15993      00
 15994              	.LASF228:
 15995 071d 6C63335F 		.ascii	"lc3_check_bits\000"
 15995      63686563 
 15995      6B5F6269 
 15995      747300
 15996              	.LASF49:
 15997 072c 6C63335F 		.ascii	"lc3_ltpf_analysis_t\000"
 15997      6C747066 
 15997      5F616E61 
 15997      6C797369 
 15997      735F7400 
 15998              	.LASF95:
 15999 0740 72616E67 		.ascii	"range\000"
 15999      6500
 16000              	.LASF210:
 16001 0746 6C63335F 		.ascii	"lc3_tns_analyze\000"
 16001      746E735F 
ARM GAS  C:\Users\rdn\AppData\Local\Temp\cco7w9JJ.s 			page 313


 16001      616E616C 
 16001      797A6500 
 16002              	.LASF179:
 16003 0756 6C63335F 		.ascii	"lc3_hr_frame_bytes\000"
 16003      68725F66 
 16003      72616D65 
 16003      5F627974 
 16003      657300
 16004              	.LASF212:
 16005 0769 6C63335F 		.ascii	"lc3_put_bits_generic\000"
 16005      7075745F 
 16005      62697473 
 16005      5F67656E 
 16005      65726963 
 16006              	.LASF152:
 16007 077e 6C6F6164 		.ascii	"load_s24_3le\000"
 16007      5F733234 
 16007      5F336C65 
 16007      00
 16008              	.LASF217:
 16009 078b 6C63335F 		.ascii	"lc3_sns_put_data\000"
 16009      736E735F 
 16009      7075745F 
 16009      64617461 
 16009      00
 16010              	.LASF65:
 16011 079c 73656564 		.ascii	"seed\000"
 16011      00
 16012              	.LASF87:
 16013 07a1 4C43335F 		.ascii	"LC3_BANDWIDTH_UB_HR\000"
 16013      42414E44 
 16013      57494454 
 16013      485F5542 
 16013      5F485200 
 16014              	.LASF96:
 16015 07b5 63616368 		.ascii	"cache\000"
 16015      6500
 16016              	.LASF127:
 16017 07bb 6C63335F 		.ascii	"lc3_spec_side\000"
 16017      73706563 
 16017      5F736964 
 16017      6500
 16018              	.LASF54:
 16019 07c9 6C63335F 		.ascii	"lc3_encoder\000"
 16019      656E636F 
 16019      64657200 
 16020              	.LASF104:
 16021 07d5 6C63335F 		.ascii	"lc3_bits\000"
 16021      62697473 
 16021      00
 16022              	.LASF69:
 16023 07de 6C63335F 		.ascii	"lc3_decoder\000"
 16023      6465636F 
 16023      64657200 
 16024              	.LASF72:
 16025 07ea 6C63335F 		.ascii	"lc3_pcm_format\000"
 16025      70636D5F 
ARM GAS  C:\Users\rdn\AppData\Local\Temp\cco7w9JJ.s 			page 314


 16025      666F726D 
 16025      617400
 16026              	.LASF114:
 16027 07f9 68666362 		.ascii	"hfcb\000"
 16027      00
 16028              	.LASF11:
 16029 07fe 5F5F696E 		.ascii	"__int64_t\000"
 16029      7436345F 
 16029      7400
 16030              	.LASF63:
 16031 0808 6C63335F 		.ascii	"lc3_ltpf_synthesis_t\000"
 16031      6C747066 
 16031      5F73796E 
 16031      74686573 
 16031      69735F74 
 16032              	.LASF77:
 16033 081d 6C6F6E67 		.ascii	"long double\000"
 16033      20646F75 
 16033      626C6500 
 16034              	.LASF17:
 16035 0829 75696E74 		.ascii	"uint16_t\000"
 16035      31365F74 
 16035      00
 16036              	.LASF187:
 16037 0832 6C63335F 		.ascii	"lc3_hr_setup_encoder\000"
 16037      68725F73 
 16037      65747570 
 16037      5F656E63 
 16037      6F646572 
 16038              	.LASF219:
 16039 0847 6C63335F 		.ascii	"lc3_spec_encode\000"
 16039      73706563 
 16039      5F656E63 
 16039      6F646500 
 16040              	.LASF194:
 16041 0857 6C63335F 		.ascii	"lc3_hr_setup_decoder\000"
 16041      68725F73 
 16041      65747570 
 16041      5F646563 
 16041      6F646572 
 16042              	.LASF35:
 16043 086c 4C43335F 		.ascii	"LC3_NUM_SRATE\000"
 16043      4E554D5F 
 16043      53524154 
 16043      4500
 16044              	.LASF157:
 16045 087a 73746F72 		.ascii	"store_s24_3le\000"
 16045      655F7332 
 16045      345F336C 
 16045      6500
 16046              	.LASF60:
 16047 0888 78735F6F 		.ascii	"xs_off\000"
 16047      666600
 16048              	.LASF23:
 16049 088f 4C43335F 		.ascii	"LC3_DT_7M5\000"
 16049      44545F37 
 16049      4D3500
ARM GAS  C:\Users\rdn\AppData\Local\Temp\cco7w9JJ.s 			page 315


 16050              	.LASF176:
 16051 089a 6E636861 		.ascii	"nchannels\000"
 16051      6E6E656C 
 16051      7300
 16052              	.LASF4:
 16053 08a4 73686F72 		.ascii	"short int\000"
 16053      7420696E 
 16053      7400
 16054              	.LASF21:
 16055 08ae 4C43335F 		.ascii	"LC3_DT_2M5\000"
 16055      44545F32 
 16055      4D3500
 16056              	.LASF167:
 16057 08b9 6465636F 		.ascii	"decode\000"
 16057      646500
 16058              	.LASF170:
 16059 08c0 73746F72 		.ascii	"store_float\000"
 16059      655F666C 
 16059      6F617400 
 16060              	.LASF8:
 16061 08cc 6C6F6E67 		.ascii	"long int\000"
 16061      20696E74 
 16061      00
 16062              	.LASF115:
 16063 08d5 73686170 		.ascii	"shape\000"
 16063      6500
 16064              	.LASF222:
 16065 08db 6C63335F 		.ascii	"lc3_bwdet_get_bw\000"
 16065      62776465 
 16065      745F6765 
 16065      745F6277 
 16065      00
 16066              	.LASF53:
 16067 08ec 6C63335F 		.ascii	"lc3_spec_analysis_t\000"
 16067      73706563 
 16067      5F616E61 
 16067      6C797369 
 16067      735F7400 
 16068              	.LASF235:
 16069 0900 666D6178 		.ascii	"fmaxf\000"
 16069      6600
 16070              	.LASF91:
 16071 0906 4C43335F 		.ascii	"LC3_BITS_MODE_WRITE\000"
 16071      42495453 
 16071      5F4D4F44 
 16071      455F5752 
 16071      49544500 
 16072              	.LASF185:
 16073 091a 6C63335F 		.ascii	"lc3_hr_encoder_size\000"
 16073      68725F65 
 16073      6E636F64 
 16073      65725F73 
 16073      697A6500 
 16074              	.LASF146:
 16075 092e 7265736F 		.ascii	"resolve_srate\000"
 16075      6C76655F 
 16075      73726174 
ARM GAS  C:\Users\rdn\AppData\Local\Temp\cco7w9JJ.s 			page 316


 16075      6500
 16076              	.LASF2:
 16077 093c 5F5F7569 		.ascii	"__uint8_t\000"
 16077      6E74385F 
 16077      7400
 16078              	.LASF101:
 16079 0946 73746172 		.ascii	"start\000"
 16079      7400
 16080              	.LASF29:
 16081 094c 4C43335F 		.ascii	"LC3_SRATE_16K\000"
 16081      53524154 
 16081      455F3136 
 16081      4B00
 16082              	.LASF203:
 16083 095a 6C63335F 		.ascii	"lc3_ltpf_analyse\000"
 16083      6C747066 
 16083      5F616E61 
 16083      6C797365 
 16083      00
 16084              	.LASF178:
 16085 096b 6C63335F 		.ascii	"lc3_frame_bock_bytes\000"
 16085      6672616D 
 16085      655F626F 
 16085      636B5F62 
 16085      79746573 
 16086              	.LASF123:
 16087 0980 6E66696C 		.ascii	"nfilters\000"
 16087      74657273 
 16087      00
 16088              	.LASF145:
 16089 0989 7265736F 		.ascii	"resolve_dt\000"
 16089      6C76655F 
 16089      647400
 16090              	.LASF183:
 16091 0994 6C63335F 		.ascii	"lc3_hr_delay_samples\000"
 16091      68725F64 
 16091      656C6179 
 16091      5F73616D 
 16091      706C6573 
 16092              	.LASF149:
 16093 09a9 73747269 		.ascii	"stride\000"
 16093      646500
 16094              	.LASF124:
 16095 09b0 6C70635F 		.ascii	"lpc_weighting\000"
 16095      77656967 
 16095      6874696E 
 16095      6700
 16096              	.LASF204:
 16097 09be 6D656D6D 		.ascii	"memmove\000"
 16097      6F766500 
 16098              	.LASF83:
 16099 09c6 4C43335F 		.ascii	"LC3_BANDWIDTH_SSWB\000"
 16099      42414E44 
 16099      57494454 
 16099      485F5353 
 16099      574200
 16100              	.LASF47:
ARM GAS  C:\Users\rdn\AppData\Local\Temp\cco7w9JJ.s 			page 317


 16101 09d9 73697A65 		.ascii	"sizetype\000"
 16101      74797065 
 16101      00
 16102              	.LASF140:
 16103 09e2 6C63335F 		.ascii	"lc3_ne\000"
 16103      6E6500
 16104              	.LASF10:
 16105 09e9 6C6F6E67 		.ascii	"long unsigned int\000"
 16105      20756E73 
 16105      69676E65 
 16105      6420696E 
 16105      7400
 16106              	.LASF206:
 16107 09fb 6C63335F 		.ascii	"lc3_energy_compute\000"
 16107      656E6572 
 16107      67795F63 
 16107      6F6D7075 
 16107      746500
 16108              	.LASF208:
 16109 0a0e 6C63335F 		.ascii	"lc3_bwdet_run\000"
 16109      62776465 
 16109      745F7275 
 16109      6E00
 16110              	.LASF67:
 16111 0a1c 616C7068 		.ascii	"alpha\000"
 16111      6100
 16112              	.LASF133:
 16113 0a22 6C63335F 		.ascii	"lc3_ns\000"
 16113      6E7300
 16114              	.LASF137:
 16115 0a29 6C63335F 		.ascii	"lc3_nt\000"
 16115      6E7400
 16116              	.LASF18:
 16117 0a30 696E7433 		.ascii	"int32_t\000"
 16117      325F7400 
 16118              	.LASF112:
 16119 0a38 6C63335F 		.ascii	"lc3_sns_data\000"
 16119      736E735F 
 16119      64617461 
 16119      00
 16120              	.LASF119:
 16121 0a45 6C735F61 		.ascii	"ls_a\000"
 16121      00
 16122              	.LASF120:
 16123 0a4a 6C735F62 		.ascii	"ls_b\000"
 16123      00
 16124              	.LASF129:
 16125 0a4f 6C73625F 		.ascii	"lsb_mode\000"
 16125      6D6F6465 
 16125      00
 16126              	.LASF131:
 16127 0a58 73696465 		.ascii	"side_data\000"
 16127      5F646174 
 16127      6100
 16128              	.LASF27:
 16129 0a62 6C63335F 		.ascii	"lc3_srate\000"
 16129      73726174 
ARM GAS  C:\Users\rdn\AppData\Local\Temp\cco7w9JJ.s 			page 318


 16129      6500
 16130              	.LASF50:
 16131 0a6c 6C63335F 		.ascii	"lc3_spec_analysis\000"
 16131      73706563 
 16131      5F616E61 
 16131      6C797369 
 16131      7300
 16132              	.LASF1:
 16133 0a7e 756E7369 		.ascii	"unsigned char\000"
 16133      676E6564 
 16133      20636861 
 16133      7200
 16134              	.LASF9:
 16135 0a8c 5F5F7569 		.ascii	"__uint32_t\000"
 16135      6E743332 
 16135      5F7400
 16136              	.LASF71:
 16137 0a97 78675F6F 		.ascii	"xg_off\000"
 16137      666600
 16138              	.LASF189:
 16139 0a9e 6C63335F 		.ascii	"lc3_setup_encoder\000"
 16139      73657475 
 16139      705F656E 
 16139      636F6465 
 16139      7200
 16140              	.LASF195:
 16141 0ab0 6C63335F 		.ascii	"lc3_setup_decoder\000"
 16141      73657475 
 16141      705F6465 
 16141      636F6465 
 16141      7200
 16142              	.LASF80:
 16143 0ac2 6C63335F 		.ascii	"lc3_bandwidth\000"
 16143      62616E64 
 16143      77696474 
 16143      6800
 16144              	.LASF111:
 16145 0ad0 6C63335F 		.ascii	"lc3_ltpf_data_t\000"
 16145      6C747066 
 16145      5F646174 
 16145      615F7400 
 16146              	.LASF90:
 16147 0ae0 4C43335F 		.ascii	"LC3_BITS_MODE_READ\000"
 16147      42495453 
 16147      5F4D4F44 
 16147      455F5245 
 16147      414400
 16148              	.LASF184:
 16149 0af3 6C63335F 		.ascii	"lc3_delay_samples\000"
 16149      64656C61 
 16149      795F7361 
 16149      6D706C65 
 16149      7300
 16150              	.LASF61:
 16151 0b05 78645F6F 		.ascii	"xd_off\000"
 16151      666600
 16152              	.LASF192:
ARM GAS  C:\Users\rdn\AppData\Local\Temp\cco7w9JJ.s 			page 319


 16153 0b0c 6C63335F 		.ascii	"lc3_hr_decoder_size\000"
 16153      68725F64 
 16153      65636F64 
 16153      65725F73 
 16153      697A6500 
 16154              	.LASF121:
 16155 0b20 6C63335F 		.ascii	"lc3_sns_data_t\000"
 16155      736E735F 
 16155      64617461 
 16155      5F7400
 16156              	.LASF239:
 16157 0b2f 2E2E5C2E 		.ascii	"..\\..\\..\\liblc3\\src\\lc3.c\000"
 16157      2E5C2E2E 
 16157      5C6C6962 
 16157      6C63335C 
 16157      7372635C 
 16158              	.LASF159:
 16159 0b49 616E616C 		.ascii	"analyze\000"
 16159      797A6500 
 16160              	.LASF28:
 16161 0b51 4C43335F 		.ascii	"LC3_SRATE_8K\000"
 16161      53524154 
 16161      455F384B 
 16161      00
 16162              	.LASF0:
 16163 0b5e 7369676E 		.ascii	"signed char\000"
 16163      65642063 
 16163      68617200 
 16164              	.LASF6:
 16165 0b6a 73686F72 		.ascii	"short unsigned int\000"
 16165      7420756E 
 16165      7369676E 
 16165      65642069 
 16165      6E7400
 16166              	.LASF216:
 16167 0b7d 6C63335F 		.ascii	"lc3_tns_put_data\000"
 16167      746E735F 
 16167      7075745F 
 16167      64617461 
 16167      00
 16168              	.LASF233:
 16169 0b8e 6C63335F 		.ascii	"lc3_plc_synthesize\000"
 16169      706C635F 
 16169      73796E74 
 16169      68657369 
 16169      7A6500
 16170              	.LASF36:
 16171 0ba1 705F6174 		.ascii	"p_att\000"
 16171      7400
 16172              	.LASF85:
 16173 0ba7 4C43335F 		.ascii	"LC3_BANDWIDTH_FB\000"
 16173      42414E44 
 16173      57494454 
 16173      485F4642 
 16173      00
 16174              	.LASF88:
 16175 0bb8 4C43335F 		.ascii	"LC3_NUM_BANDWIDTH\000"
ARM GAS  C:\Users\rdn\AppData\Local\Temp\cco7w9JJ.s 			page 320


 16175      4E554D5F 
 16175      42414E44 
 16175      57494454 
 16175      4800
 16176              	.LASF211:
 16177 0bca 6C63335F 		.ascii	"lc3_spec_analyze\000"
 16177      73706563 
 16177      5F616E61 
 16177      6C797A65 
 16177      00
 16178              	.LASF79:
 16179 0bdb 646F7562 		.ascii	"double\000"
 16179      6C6500
 16180              	.LASF34:
 16181 0be2 4C43335F 		.ascii	"LC3_SRATE_96K_HR\000"
 16181      53524154 
 16181      455F3936 
 16181      4B5F4852 
 16181      00
 16182              	.LASF94:
 16183 0bf3 6C63335F 		.ascii	"lc3_bits_ac\000"
 16183      62697473 
 16183      5F616300 
 16184              	.LASF141:
 16185 0bff 6C63335F 		.ascii	"lc3_min_frame_bytes\000"
 16185      6D696E5F 
 16185      6672616D 
 16185      655F6279 
 16185      74657300 
 16186              	.LASF201:
 16187 0c13 6C63335F 		.ascii	"lc3_frame_bytes_hr_lim\000"
 16187      6672616D 
 16187      655F6279 
 16187      7465735F 
 16187      68725F6C 
 16188              	.LASF58:
 16189 0c2a 73706563 		.ascii	"spec\000"
 16189      00
 16190              	.LASF196:
 16191 0c2f 6C63335F 		.ascii	"lc3_decode\000"
 16191      6465636F 
 16191      646500
 16192              	.LASF223:
 16193 0c3a 6C63335F 		.ascii	"lc3_spec_get_side\000"
 16193      73706563 
 16193      5F676574 
 16193      5F736964 
 16193      6500
 16194              	.LASF117:
 16195 0c4c 6964785F 		.ascii	"idx_a\000"
 16195      6100
 16196              	.LASF118:
 16197 0c52 6964785F 		.ascii	"idx_b\000"
 16197      6200
 16198              	.LASF213:
 16199 0c58 6C63335F 		.ascii	"lc3_setup_bits\000"
 16199      73657475 
ARM GAS  C:\Users\rdn\AppData\Local\Temp\cco7w9JJ.s 			page 321


 16199      705F6269 
 16199      747300
 16200              	.LASF40:
 16201 0c67 6C63335F 		.ascii	"lc3_ltpf_analysis\000"
 16201      6C747066 
 16201      5F616E61 
 16201      6C797369 
 16201      7300
 16202              	.LASF102:
 16203 0c79 705F6677 		.ascii	"p_fw\000"
 16203      00
 16204              		.ident	"GCC: (GNU Tools for ARM Embedded Processors) 5.4.1 20160609 (release) [ARM/embedded-5-bran
