ARM GAS  C:\Users\rdn\AppData\Local\Temp\ccCJgMYD.s 			page 1


   1              		.syntax unified
   2              		.cpu cortex-m0plus
   3              		.fpu softvfp
   4              		.eabi_attribute 20, 1
   5              		.eabi_attribute 21, 1
   6              		.eabi_attribute 23, 3
   7              		.eabi_attribute 24, 1
   8              		.eabi_attribute 25, 1
   9              		.eabi_attribute 26, 1
  10              		.eabi_attribute 30, 1
  11              		.eabi_attribute 34, 0
  12              		.eabi_attribute 18, 4
  13              		.thumb
  14              		.syntax unified
  15              		.file	"mdct.c"
  16              		.text
  17              	.Ltext0:
  18              		.cfi_sections	.debug_frame
  19              		.global	__aeabi_idiv
  20              		.global	__aeabi_fadd
  21              		.global	__aeabi_fsub
  22              		.global	__aeabi_fmul
  23              		.section	.text.fft,"ax",%progbits
  24              		.align	2
  25              		.code	16
  26              		.thumb_func
  27              		.type	fft, %function
  28              	fft:
  29              	.LFB23:
  30              		.file 1 "..\\..\\..\\liblc3\\src\\mdct.c"
   1:..\..\..\liblc3\src/mdct.c **** /******************************************************************************
   2:..\..\..\liblc3\src/mdct.c ****  *
   3:..\..\..\liblc3\src/mdct.c ****  *  Copyright 2022 Google LLC
   4:..\..\..\liblc3\src/mdct.c ****  *
   5:..\..\..\liblc3\src/mdct.c ****  *  Licensed under the Apache License, Version 2.0 (the "License");
   6:..\..\..\liblc3\src/mdct.c ****  *  you may not use this file except in compliance with the License.
   7:..\..\..\liblc3\src/mdct.c ****  *  You may obtain a copy of the License at:
   8:..\..\..\liblc3\src/mdct.c ****  *
   9:..\..\..\liblc3\src/mdct.c ****  *  http://www.apache.org/licenses/LICENSE-2.0
  10:..\..\..\liblc3\src/mdct.c ****  *
  11:..\..\..\liblc3\src/mdct.c ****  *  Unless required by applicable law or agreed to in writing, software
  12:..\..\..\liblc3\src/mdct.c ****  *  distributed under the License is distributed on an "AS IS" BASIS,
  13:..\..\..\liblc3\src/mdct.c ****  *  WITHOUT WARRANTIES OR CONDITIONS OF ANY KIND, either express or implied.
  14:..\..\..\liblc3\src/mdct.c ****  *  See the License for the specific language governing permissions and
  15:..\..\..\liblc3\src/mdct.c ****  *  limitations under the License.
  16:..\..\..\liblc3\src/mdct.c ****  *
  17:..\..\..\liblc3\src/mdct.c ****  ******************************************************************************/
  18:..\..\..\liblc3\src/mdct.c **** 
  19:..\..\..\liblc3\src/mdct.c **** #include "mdct.h"
  20:..\..\..\liblc3\src/mdct.c **** #include "tables.h"
  21:..\..\..\liblc3\src/mdct.c **** 
  22:..\..\..\liblc3\src/mdct.c **** #include "mdct_neon.h"
  23:..\..\..\liblc3\src/mdct.c **** 
  24:..\..\..\liblc3\src/mdct.c **** 
  25:..\..\..\liblc3\src/mdct.c **** /* ----------------------------------------------------------------------------
  26:..\..\..\liblc3\src/mdct.c ****  *  FFT processing
  27:..\..\..\liblc3\src/mdct.c ****  * -------------------------------------------------------------------------- */
ARM GAS  C:\Users\rdn\AppData\Local\Temp\ccCJgMYD.s 			page 2


  28:..\..\..\liblc3\src/mdct.c **** 
  29:..\..\..\liblc3\src/mdct.c **** /**
  30:..\..\..\liblc3\src/mdct.c ****  * FFT 5 Points
  31:..\..\..\liblc3\src/mdct.c ****  * x, y            Input and output coefficients, of size 5xn
  32:..\..\..\liblc3\src/mdct.c ****  * n               Number of interleaved transform to perform (n % 2 = 0)
  33:..\..\..\liblc3\src/mdct.c ****  */
  34:..\..\..\liblc3\src/mdct.c **** #ifndef fft_5
  35:..\..\..\liblc3\src/mdct.c **** LC3_HOT static inline void fft_5(
  36:..\..\..\liblc3\src/mdct.c ****     const struct lc3_complex *x, struct lc3_complex *y, int n)
  37:..\..\..\liblc3\src/mdct.c **** {
  38:..\..\..\liblc3\src/mdct.c ****     static const float cos1 =  0.3090169944;  /* cos(-2Pi 1/5) */
  39:..\..\..\liblc3\src/mdct.c ****     static const float cos2 = -0.8090169944;  /* cos(-2Pi 2/5) */
  40:..\..\..\liblc3\src/mdct.c **** 
  41:..\..\..\liblc3\src/mdct.c ****     static const float sin1 = -0.9510565163;  /* sin(-2Pi 1/5) */
  42:..\..\..\liblc3\src/mdct.c ****     static const float sin2 = -0.5877852523;  /* sin(-2Pi 2/5) */
  43:..\..\..\liblc3\src/mdct.c **** 
  44:..\..\..\liblc3\src/mdct.c ****     for (int i = 0; i < n; i++, x++, y+= 5) {
  45:..\..\..\liblc3\src/mdct.c **** 
  46:..\..\..\liblc3\src/mdct.c ****         struct lc3_complex s14 =
  47:..\..\..\liblc3\src/mdct.c ****             { x[1*n].re + x[4*n].re, x[1*n].im + x[4*n].im };
  48:..\..\..\liblc3\src/mdct.c ****         struct lc3_complex d14 =
  49:..\..\..\liblc3\src/mdct.c ****             { x[1*n].re - x[4*n].re, x[1*n].im - x[4*n].im };
  50:..\..\..\liblc3\src/mdct.c **** 
  51:..\..\..\liblc3\src/mdct.c ****         struct lc3_complex s23 =
  52:..\..\..\liblc3\src/mdct.c ****             { x[2*n].re + x[3*n].re, x[2*n].im + x[3*n].im };
  53:..\..\..\liblc3\src/mdct.c ****         struct lc3_complex d23 =
  54:..\..\..\liblc3\src/mdct.c ****             { x[2*n].re - x[3*n].re, x[2*n].im - x[3*n].im };
  55:..\..\..\liblc3\src/mdct.c **** 
  56:..\..\..\liblc3\src/mdct.c ****         y[0].re = x[0].re + s14.re + s23.re;
  57:..\..\..\liblc3\src/mdct.c **** 
  58:..\..\..\liblc3\src/mdct.c ****         y[0].im = x[0].im + s14.im + s23.im;
  59:..\..\..\liblc3\src/mdct.c **** 
  60:..\..\..\liblc3\src/mdct.c ****         y[1].re = x[0].re + s14.re * cos1 - d14.im * sin1
  61:..\..\..\liblc3\src/mdct.c ****                           + s23.re * cos2 - d23.im * sin2;
  62:..\..\..\liblc3\src/mdct.c **** 
  63:..\..\..\liblc3\src/mdct.c ****         y[1].im = x[0].im + s14.im * cos1 + d14.re * sin1
  64:..\..\..\liblc3\src/mdct.c ****                           + s23.im * cos2 + d23.re * sin2;
  65:..\..\..\liblc3\src/mdct.c **** 
  66:..\..\..\liblc3\src/mdct.c ****         y[2].re = x[0].re + s14.re * cos2 - d14.im * sin2
  67:..\..\..\liblc3\src/mdct.c ****                           + s23.re * cos1 + d23.im * sin1;
  68:..\..\..\liblc3\src/mdct.c **** 
  69:..\..\..\liblc3\src/mdct.c ****         y[2].im = x[0].im + s14.im * cos2 + d14.re * sin2
  70:..\..\..\liblc3\src/mdct.c ****                           + s23.im * cos1 - d23.re * sin1;
  71:..\..\..\liblc3\src/mdct.c **** 
  72:..\..\..\liblc3\src/mdct.c ****         y[3].re = x[0].re + s14.re * cos2 + d14.im * sin2
  73:..\..\..\liblc3\src/mdct.c ****                           + s23.re * cos1 - d23.im * sin1;
  74:..\..\..\liblc3\src/mdct.c **** 
  75:..\..\..\liblc3\src/mdct.c ****         y[3].im = x[0].im + s14.im * cos2 - d14.re * sin2
  76:..\..\..\liblc3\src/mdct.c ****                           + s23.im * cos1 + d23.re * sin1;
  77:..\..\..\liblc3\src/mdct.c **** 
  78:..\..\..\liblc3\src/mdct.c ****         y[4].re = x[0].re + s14.re * cos1 + d14.im * sin1
  79:..\..\..\liblc3\src/mdct.c ****                           + s23.re * cos2 + d23.im * sin2;
  80:..\..\..\liblc3\src/mdct.c **** 
  81:..\..\..\liblc3\src/mdct.c ****         y[4].im = x[0].im + s14.im * cos1 - d14.re * sin1
  82:..\..\..\liblc3\src/mdct.c ****                           + s23.im * cos2 - d23.re * sin2;
  83:..\..\..\liblc3\src/mdct.c ****     }
  84:..\..\..\liblc3\src/mdct.c **** }
ARM GAS  C:\Users\rdn\AppData\Local\Temp\ccCJgMYD.s 			page 3


  85:..\..\..\liblc3\src/mdct.c **** #endif /* fft_5 */
  86:..\..\..\liblc3\src/mdct.c **** 
  87:..\..\..\liblc3\src/mdct.c **** /**
  88:..\..\..\liblc3\src/mdct.c ****  * FFT Butterfly 3 Points
  89:..\..\..\liblc3\src/mdct.c ****  * x, y            Input and output coefficients
  90:..\..\..\liblc3\src/mdct.c ****  * twiddles        Twiddles factors, determine size of transform
  91:..\..\..\liblc3\src/mdct.c ****  * n               Number of interleaved transforms
  92:..\..\..\liblc3\src/mdct.c ****  */
  93:..\..\..\liblc3\src/mdct.c **** #ifndef fft_bf3
  94:..\..\..\liblc3\src/mdct.c **** LC3_HOT static inline void fft_bf3(
  95:..\..\..\liblc3\src/mdct.c ****     const struct lc3_fft_bf3_twiddles *twiddles,
  96:..\..\..\liblc3\src/mdct.c ****     const struct lc3_complex *x, struct lc3_complex *y, int n)
  97:..\..\..\liblc3\src/mdct.c **** {
  98:..\..\..\liblc3\src/mdct.c ****     int n3 = twiddles->n3;
  99:..\..\..\liblc3\src/mdct.c ****     const struct lc3_complex (*w0)[2] = twiddles->t;
 100:..\..\..\liblc3\src/mdct.c ****     const struct lc3_complex (*w1)[2] = w0 + n3, (*w2)[2] = w1 + n3;
 101:..\..\..\liblc3\src/mdct.c **** 
 102:..\..\..\liblc3\src/mdct.c ****     const struct lc3_complex *x0 = x, *x1 = x0 + n*n3, *x2 = x1 + n*n3;
 103:..\..\..\liblc3\src/mdct.c ****     struct lc3_complex *y0 = y, *y1 = y0 + n3, *y2 = y1 + n3;
 104:..\..\..\liblc3\src/mdct.c **** 
 105:..\..\..\liblc3\src/mdct.c ****     for (int i = 0; i < n; i++, y0 += 3*n3, y1 += 3*n3, y2 += 3*n3)
 106:..\..\..\liblc3\src/mdct.c ****         for (int j = 0; j < n3; j++, x0++, x1++, x2++) {
 107:..\..\..\liblc3\src/mdct.c **** 
 108:..\..\..\liblc3\src/mdct.c ****             y0[j].re = x0->re + x1->re * w0[j][0].re - x1->im * w0[j][0].im
 109:..\..\..\liblc3\src/mdct.c ****                               + x2->re * w0[j][1].re - x2->im * w0[j][1].im;
 110:..\..\..\liblc3\src/mdct.c **** 
 111:..\..\..\liblc3\src/mdct.c ****             y0[j].im = x0->im + x1->im * w0[j][0].re + x1->re * w0[j][0].im
 112:..\..\..\liblc3\src/mdct.c ****                               + x2->im * w0[j][1].re + x2->re * w0[j][1].im;
 113:..\..\..\liblc3\src/mdct.c **** 
 114:..\..\..\liblc3\src/mdct.c ****             y1[j].re = x0->re + x1->re * w1[j][0].re - x1->im * w1[j][0].im
 115:..\..\..\liblc3\src/mdct.c ****                               + x2->re * w1[j][1].re - x2->im * w1[j][1].im;
 116:..\..\..\liblc3\src/mdct.c **** 
 117:..\..\..\liblc3\src/mdct.c ****             y1[j].im = x0->im + x1->im * w1[j][0].re + x1->re * w1[j][0].im
 118:..\..\..\liblc3\src/mdct.c ****                               + x2->im * w1[j][1].re + x2->re * w1[j][1].im;
 119:..\..\..\liblc3\src/mdct.c **** 
 120:..\..\..\liblc3\src/mdct.c ****             y2[j].re = x0->re + x1->re * w2[j][0].re - x1->im * w2[j][0].im
 121:..\..\..\liblc3\src/mdct.c ****                               + x2->re * w2[j][1].re - x2->im * w2[j][1].im;
 122:..\..\..\liblc3\src/mdct.c **** 
 123:..\..\..\liblc3\src/mdct.c ****             y2[j].im = x0->im + x1->im * w2[j][0].re + x1->re * w2[j][0].im
 124:..\..\..\liblc3\src/mdct.c ****                               + x2->im * w2[j][1].re + x2->re * w2[j][1].im;
 125:..\..\..\liblc3\src/mdct.c ****         }
 126:..\..\..\liblc3\src/mdct.c **** }
 127:..\..\..\liblc3\src/mdct.c **** #endif /* fft_bf3 */
 128:..\..\..\liblc3\src/mdct.c **** 
 129:..\..\..\liblc3\src/mdct.c **** /**
 130:..\..\..\liblc3\src/mdct.c ****  * FFT Butterfly 2 Points
 131:..\..\..\liblc3\src/mdct.c ****  * twiddles        Twiddles factors, determine size of transform
 132:..\..\..\liblc3\src/mdct.c ****  * x, y            Input and output coefficients
 133:..\..\..\liblc3\src/mdct.c ****  * n               Number of interleaved transforms
 134:..\..\..\liblc3\src/mdct.c ****  */
 135:..\..\..\liblc3\src/mdct.c **** #ifndef fft_bf2
 136:..\..\..\liblc3\src/mdct.c **** LC3_HOT static inline void fft_bf2(
 137:..\..\..\liblc3\src/mdct.c ****     const struct lc3_fft_bf2_twiddles *twiddles,
 138:..\..\..\liblc3\src/mdct.c ****     const struct lc3_complex *x, struct lc3_complex *y, int n)
 139:..\..\..\liblc3\src/mdct.c **** {
 140:..\..\..\liblc3\src/mdct.c ****     int n2 = twiddles->n2;
 141:..\..\..\liblc3\src/mdct.c ****     const struct lc3_complex *w = twiddles->t;
ARM GAS  C:\Users\rdn\AppData\Local\Temp\ccCJgMYD.s 			page 4


 142:..\..\..\liblc3\src/mdct.c **** 
 143:..\..\..\liblc3\src/mdct.c ****     const struct lc3_complex *x0 = x, *x1 = x0 + n*n2;
 144:..\..\..\liblc3\src/mdct.c ****     struct lc3_complex *y0 = y, *y1 = y0 + n2;
 145:..\..\..\liblc3\src/mdct.c **** 
 146:..\..\..\liblc3\src/mdct.c ****     for (int i = 0; i < n; i++, y0 += 2*n2, y1 += 2*n2) {
 147:..\..\..\liblc3\src/mdct.c **** 
 148:..\..\..\liblc3\src/mdct.c ****         for (int j = 0; j < n2; j++, x0++, x1++) {
 149:..\..\..\liblc3\src/mdct.c **** 
 150:..\..\..\liblc3\src/mdct.c ****             y0[j].re = x0->re + x1->re * w[j].re - x1->im * w[j].im;
 151:..\..\..\liblc3\src/mdct.c ****             y0[j].im = x0->im + x1->im * w[j].re + x1->re * w[j].im;
 152:..\..\..\liblc3\src/mdct.c **** 
 153:..\..\..\liblc3\src/mdct.c ****             y1[j].re = x0->re - x1->re * w[j].re + x1->im * w[j].im;
 154:..\..\..\liblc3\src/mdct.c ****             y1[j].im = x0->im - x1->im * w[j].re - x1->re * w[j].im;
 155:..\..\..\liblc3\src/mdct.c ****         }
 156:..\..\..\liblc3\src/mdct.c ****     }
 157:..\..\..\liblc3\src/mdct.c **** }
 158:..\..\..\liblc3\src/mdct.c **** #endif /* fft_bf2 */
 159:..\..\..\liblc3\src/mdct.c **** 
 160:..\..\..\liblc3\src/mdct.c **** /**
 161:..\..\..\liblc3\src/mdct.c ****  * Perform FFT
 162:..\..\..\liblc3\src/mdct.c ****  * x, y0, y1       Input, and 2 scratch buffers of size `n`
 163:..\..\..\liblc3\src/mdct.c ****  * n               Number of points 30, 40, 60, 80, 90, 120, 160, 180, 240, 480
 164:..\..\..\liblc3\src/mdct.c ****  * return          The buffer `y0` or `y1` that hold the result
 165:..\..\..\liblc3\src/mdct.c ****  *
 166:..\..\..\liblc3\src/mdct.c ****  * Input `x` can be the same as the `y0` second scratch buffer
 167:..\..\..\liblc3\src/mdct.c ****  */
 168:..\..\..\liblc3\src/mdct.c **** static struct lc3_complex *fft(const struct lc3_complex *x, int n,
 169:..\..\..\liblc3\src/mdct.c ****     struct lc3_complex *y0, struct lc3_complex *y1)
 170:..\..\..\liblc3\src/mdct.c **** {
  31              		.loc 1 170 0
  32              		.cfi_startproc
  33              		@ args = 0, pretend = 0, frame = 56
  34              		@ frame_needed = 0, uses_anonymous_args = 0
  35              	.LVL0:
  36 0000 F0B5     		push	{r4, r5, r6, r7, lr}
  37              		.cfi_def_cfa_offset 20
  38              		.cfi_offset 4, -20
  39              		.cfi_offset 5, -16
  40              		.cfi_offset 6, -12
  41              		.cfi_offset 7, -8
  42              		.cfi_offset 14, -4
  43 0002 5F46     		mov	r7, fp
  44 0004 5646     		mov	r6, r10
  45 0006 4D46     		mov	r5, r9
  46 0008 4446     		mov	r4, r8
  47 000a F0B4     		push	{r4, r5, r6, r7}
  48              		.cfi_def_cfa_offset 36
  49              		.cfi_offset 8, -36
  50              		.cfi_offset 9, -32
  51              		.cfi_offset 10, -28
  52              		.cfi_offset 11, -24
  53 000c 8FB0     		sub	sp, sp, #60
  54              		.cfi_def_cfa_offset 96
  55 000e 0400     		movs	r4, r0
  56 0010 0800     		movs	r0, r1
  57              	.LVL1:
  58 0012 1F00     		movs	r7, r3
ARM GAS  C:\Users\rdn\AppData\Local\Temp\ccCJgMYD.s 			page 5


 171:..\..\..\liblc3\src/mdct.c ****     struct lc3_complex *y[2] = { y1, y0 };
  59              		.loc 1 171 0
  60 0014 0C93     		str	r3, [sp, #48]
  61 0016 0D92     		str	r2, [sp, #52]
  62              	.LVL2:
 172:..\..\..\liblc3\src/mdct.c ****     int i2, i3, is = 0;
 173:..\..\..\liblc3\src/mdct.c **** 
 174:..\..\..\liblc3\src/mdct.c ****     /* The number of points `n` can be decomposed as :
 175:..\..\..\liblc3\src/mdct.c ****      *
 176:..\..\..\liblc3\src/mdct.c ****      *   n = 5^1 * 3^n3 * 2^n2
 177:..\..\..\liblc3\src/mdct.c ****      *
 178:..\..\..\liblc3\src/mdct.c ****      *   for n = 10, 20, 40, 80, 160    n3 = 0, n2 = [1..5]
 179:..\..\..\liblc3\src/mdct.c ****      *       n = 30, 60, 120, 240, 480  n3 = 1, n2 = [1..5]
 180:..\..\..\liblc3\src/mdct.c ****      *       n = 90, 180                n3 = 2, n2 = [1..2]
 181:..\..\..\liblc3\src/mdct.c ****      *
 182:..\..\..\liblc3\src/mdct.c ****      * Note that the expression `n & (n-1) == 0` is equivalent
 183:..\..\..\liblc3\src/mdct.c ****      * to the check that `n` is a power of 2. */
 184:..\..\..\liblc3\src/mdct.c **** 
 185:..\..\..\liblc3\src/mdct.c ****     fft_5(x, y[is], n /= 5);
  63              		.loc 1 185 0
  64 0018 0521     		movs	r1, #5
  65              	.LVL3:
  66 001a FFF7FEFF 		bl	__aeabi_idiv
  67              	.LVL4:
  68 001e 0990     		str	r0, [sp, #36]
  69              	.LVL5:
  70              	.LBB36:
  71              	.LBB37:
  72              	.LBB38:
  44:..\..\..\liblc3\src/mdct.c **** 
  73              		.loc 1 44 0
  74 0020 0023     		movs	r3, #0
  75 0022 9846     		mov	r8, r3
  76 0024 8346     		mov	fp, r0
  77 0026 BA46     		mov	r10, r7
  78 0028 2700     		movs	r7, r4
  79              	.LVL6:
  80 002a 6BE1     		b	.L2
  81              	.LVL7:
  82              	.L3:
  83              	.LBB39:
  47:..\..\..\liblc3\src/mdct.c ****         struct lc3_complex d14 =
  84              		.loc 1 47 0
  85 002c 5B46     		mov	r3, fp
  86 002e DD00     		lsls	r5, r3, #3
  87 0030 7D19     		adds	r5, r7, r5
  88 0032 2C68     		ldr	r4, [r5]
  89 0034 5E01     		lsls	r6, r3, #5
  90 0036 BE19     		adds	r6, r7, r6
  91 0038 3368     		ldr	r3, [r6]
  92 003a 0093     		str	r3, [sp]
  93 003c 191C     		adds	r1, r3, #0
  94 003e 201C     		adds	r0, r4, #0
  95 0040 FFF7FEFF 		bl	__aeabi_fadd
  96              	.LVL8:
  97 0044 0290     		str	r0, [sp, #8]
  98 0046 6D68     		ldr	r5, [r5, #4]
ARM GAS  C:\Users\rdn\AppData\Local\Temp\ccCJgMYD.s 			page 6


  99 0048 7668     		ldr	r6, [r6, #4]
 100 004a 311C     		adds	r1, r6, #0
 101 004c 281C     		adds	r0, r5, #0
 102 004e FFF7FEFF 		bl	__aeabi_fadd
 103              	.LVL9:
 104 0052 0390     		str	r0, [sp, #12]
  49:..\..\..\liblc3\src/mdct.c **** 
 105              		.loc 1 49 0
 106 0054 0099     		ldr	r1, [sp]
 107 0056 201C     		adds	r0, r4, #0
 108 0058 FFF7FEFF 		bl	__aeabi_fsub
 109              	.LVL10:
 110 005c 0090     		str	r0, [sp]
 111 005e 311C     		adds	r1, r6, #0
 112 0060 281C     		adds	r0, r5, #0
 113 0062 FFF7FEFF 		bl	__aeabi_fsub
 114              	.LVL11:
 115 0066 0190     		str	r0, [sp, #4]
  52:..\..\..\liblc3\src/mdct.c ****         struct lc3_complex d23 =
 116              		.loc 1 52 0
 117 0068 5B46     		mov	r3, fp
 118 006a 1D01     		lsls	r5, r3, #4
 119 006c 7D19     		adds	r5, r7, r5
 120 006e 2C68     		ldr	r4, [r5]
 121 0070 5B00     		lsls	r3, r3, #1
 122 0072 5B44     		add	r3, r3, fp
 123 0074 DE00     		lsls	r6, r3, #3
 124 0076 BE19     		adds	r6, r7, r6
 125 0078 3368     		ldr	r3, [r6]
 126 007a 0693     		str	r3, [sp, #24]
 127 007c 191C     		adds	r1, r3, #0
 128 007e 201C     		adds	r0, r4, #0
 129 0080 FFF7FEFF 		bl	__aeabi_fadd
 130              	.LVL12:
 131 0084 0490     		str	r0, [sp, #16]
 132 0086 6D68     		ldr	r5, [r5, #4]
 133 0088 7668     		ldr	r6, [r6, #4]
 134 008a 311C     		adds	r1, r6, #0
 135 008c 281C     		adds	r0, r5, #0
 136 008e FFF7FEFF 		bl	__aeabi_fadd
 137              	.LVL13:
 138 0092 0590     		str	r0, [sp, #20]
  54:..\..\..\liblc3\src/mdct.c **** 
 139              		.loc 1 54 0
 140 0094 0699     		ldr	r1, [sp, #24]
 141 0096 201C     		adds	r0, r4, #0
 142 0098 FFF7FEFF 		bl	__aeabi_fsub
 143              	.LVL14:
 144 009c 0690     		str	r0, [sp, #24]
 145 009e 311C     		adds	r1, r6, #0
 146 00a0 281C     		adds	r0, r5, #0
 147 00a2 FFF7FEFF 		bl	__aeabi_fsub
 148              	.LVL15:
 149 00a6 051C     		adds	r5, r0, #0
  56:..\..\..\liblc3\src/mdct.c **** 
 150              		.loc 1 56 0
 151 00a8 3968     		ldr	r1, [r7]
ARM GAS  C:\Users\rdn\AppData\Local\Temp\ccCJgMYD.s 			page 7


 152 00aa 0298     		ldr	r0, [sp, #8]
 153 00ac FFF7FEFF 		bl	__aeabi_fadd
 154              	.LVL16:
 155 00b0 011C     		adds	r1, r0, #0
 156 00b2 0498     		ldr	r0, [sp, #16]
 157 00b4 FFF7FEFF 		bl	__aeabi_fadd
 158              	.LVL17:
 159 00b8 5346     		mov	r3, r10
 160 00ba 1860     		str	r0, [r3]
  58:..\..\..\liblc3\src/mdct.c **** 
 161              		.loc 1 58 0
 162 00bc 7968     		ldr	r1, [r7, #4]
 163 00be 0398     		ldr	r0, [sp, #12]
 164 00c0 FFF7FEFF 		bl	__aeabi_fadd
 165              	.LVL18:
 166 00c4 011C     		adds	r1, r0, #0
 167 00c6 059E     		ldr	r6, [sp, #20]
 168 00c8 301C     		adds	r0, r6, #0
 169 00ca FFF7FEFF 		bl	__aeabi_fadd
 170              	.LVL19:
 171 00ce 5346     		mov	r3, r10
 172 00d0 5860     		str	r0, [r3, #4]
  60:..\..\..\liblc3\src/mdct.c ****                           + s23.re * cos2 - d23.im * sin2;
 173              		.loc 1 60 0
 174 00d2 3C68     		ldr	r4, [r7]
 175 00d4 A949     		ldr	r1, .L16
 176 00d6 0298     		ldr	r0, [sp, #8]
 177 00d8 FFF7FEFF 		bl	__aeabi_fmul
 178              	.LVL20:
 179 00dc 0790     		str	r0, [sp, #28]
 180 00de 011C     		adds	r1, r0, #0
 181 00e0 201C     		adds	r0, r4, #0
 182 00e2 FFF7FEFF 		bl	__aeabi_fadd
 183              	.LVL21:
 184 00e6 041C     		adds	r4, r0, #0
 185 00e8 A549     		ldr	r1, .L16+4
 186 00ea 0198     		ldr	r0, [sp, #4]
 187 00ec FFF7FEFF 		bl	__aeabi_fmul
 188              	.LVL22:
 189 00f0 011C     		adds	r1, r0, #0
 190 00f2 201C     		adds	r0, r4, #0
 191 00f4 FFF7FEFF 		bl	__aeabi_fadd
 192              	.LVL23:
 193 00f8 041C     		adds	r4, r0, #0
  61:..\..\..\liblc3\src/mdct.c **** 
 194              		.loc 1 61 0
 195 00fa A249     		ldr	r1, .L16+8
 196 00fc 0498     		ldr	r0, [sp, #16]
 197 00fe FFF7FEFF 		bl	__aeabi_fmul
 198              	.LVL24:
 199 0102 0890     		str	r0, [sp, #32]
 200 0104 011C     		adds	r1, r0, #0
 201 0106 201C     		adds	r0, r4, #0
 202 0108 FFF7FEFF 		bl	__aeabi_fadd
 203              	.LVL25:
 204 010c 041C     		adds	r4, r0, #0
 205 010e 9E49     		ldr	r1, .L16+12
ARM GAS  C:\Users\rdn\AppData\Local\Temp\ccCJgMYD.s 			page 8


 206 0110 281C     		adds	r0, r5, #0
 207 0112 FFF7FEFF 		bl	__aeabi_fmul
 208              	.LVL26:
 209 0116 011C     		adds	r1, r0, #0
 210 0118 201C     		adds	r0, r4, #0
 211 011a FFF7FEFF 		bl	__aeabi_fadd
 212              	.LVL27:
  60:..\..\..\liblc3\src/mdct.c ****                           + s23.re * cos2 - d23.im * sin2;
 213              		.loc 1 60 0
 214 011e 5246     		mov	r2, r10
 215 0120 9060     		str	r0, [r2, #8]
  63:..\..\..\liblc3\src/mdct.c ****                           + s23.im * cos2 + d23.re * sin2;
 216              		.loc 1 63 0
 217 0122 7C68     		ldr	r4, [r7, #4]
 218 0124 9549     		ldr	r1, .L16
 219 0126 0398     		ldr	r0, [sp, #12]
 220 0128 FFF7FEFF 		bl	__aeabi_fmul
 221              	.LVL28:
 222 012c 0A90     		str	r0, [sp, #40]
 223 012e 011C     		adds	r1, r0, #0
 224 0130 201C     		adds	r0, r4, #0
 225 0132 FFF7FEFF 		bl	__aeabi_fadd
 226              	.LVL29:
 227 0136 041C     		adds	r4, r0, #0
 228 0138 9449     		ldr	r1, .L16+16
 229 013a 0098     		ldr	r0, [sp]
 230 013c FFF7FEFF 		bl	__aeabi_fmul
 231              	.LVL30:
 232 0140 011C     		adds	r1, r0, #0
 233 0142 201C     		adds	r0, r4, #0
 234 0144 FFF7FEFF 		bl	__aeabi_fadd
 235              	.LVL31:
 236 0148 041C     		adds	r4, r0, #0
  64:..\..\..\liblc3\src/mdct.c **** 
 237              		.loc 1 64 0
 238 014a 8E49     		ldr	r1, .L16+8
 239 014c 0596     		str	r6, [sp, #20]
 240 014e 301C     		adds	r0, r6, #0
 241 0150 FFF7FEFF 		bl	__aeabi_fmul
 242              	.LVL32:
 243 0154 0B90     		str	r0, [sp, #44]
 244 0156 011C     		adds	r1, r0, #0
 245 0158 201C     		adds	r0, r4, #0
 246 015a FFF7FEFF 		bl	__aeabi_fadd
 247              	.LVL33:
 248 015e 041C     		adds	r4, r0, #0
 249 0160 8B49     		ldr	r1, .L16+20
 250 0162 0698     		ldr	r0, [sp, #24]
 251 0164 FFF7FEFF 		bl	__aeabi_fmul
 252              	.LVL34:
 253 0168 011C     		adds	r1, r0, #0
 254 016a 201C     		adds	r0, r4, #0
 255 016c FFF7FEFF 		bl	__aeabi_fadd
 256              	.LVL35:
  63:..\..\..\liblc3\src/mdct.c ****                           + s23.im * cos2 + d23.re * sin2;
 257              		.loc 1 63 0
 258 0170 5246     		mov	r2, r10
ARM GAS  C:\Users\rdn\AppData\Local\Temp\ccCJgMYD.s 			page 9


 259 0172 D060     		str	r0, [r2, #12]
  66:..\..\..\liblc3\src/mdct.c ****                           + s23.re * cos1 + d23.im * sin1;
 260              		.loc 1 66 0
 261 0174 3C68     		ldr	r4, [r7]
 262 0176 8349     		ldr	r1, .L16+8
 263 0178 0298     		ldr	r0, [sp, #8]
 264 017a FFF7FEFF 		bl	__aeabi_fmul
 265              	.LVL36:
 266 017e 061C     		adds	r6, r0, #0
 267 0180 011C     		adds	r1, r0, #0
 268 0182 201C     		adds	r0, r4, #0
 269 0184 FFF7FEFF 		bl	__aeabi_fadd
 270              	.LVL37:
 271 0188 041C     		adds	r4, r0, #0
 272 018a 7F49     		ldr	r1, .L16+12
 273 018c 0198     		ldr	r0, [sp, #4]
 274 018e FFF7FEFF 		bl	__aeabi_fmul
 275              	.LVL38:
 276 0192 011C     		adds	r1, r0, #0
 277 0194 201C     		adds	r0, r4, #0
 278 0196 FFF7FEFF 		bl	__aeabi_fadd
 279              	.LVL39:
 280 019a 041C     		adds	r4, r0, #0
  67:..\..\..\liblc3\src/mdct.c **** 
 281              		.loc 1 67 0
 282 019c 7749     		ldr	r1, .L16
 283 019e 0498     		ldr	r0, [sp, #16]
 284 01a0 FFF7FEFF 		bl	__aeabi_fmul
 285              	.LVL40:
 286 01a4 0290     		str	r0, [sp, #8]
 287 01a6 011C     		adds	r1, r0, #0
 288 01a8 201C     		adds	r0, r4, #0
 289 01aa FFF7FEFF 		bl	__aeabi_fadd
 290              	.LVL41:
 291 01ae 041C     		adds	r4, r0, #0
 292 01b0 7649     		ldr	r1, .L16+16
 293 01b2 281C     		adds	r0, r5, #0
 294 01b4 FFF7FEFF 		bl	__aeabi_fmul
 295              	.LVL42:
 296 01b8 011C     		adds	r1, r0, #0
 297 01ba 201C     		adds	r0, r4, #0
 298 01bc FFF7FEFF 		bl	__aeabi_fadd
 299              	.LVL43:
  66:..\..\..\liblc3\src/mdct.c ****                           + s23.re * cos1 + d23.im * sin1;
 300              		.loc 1 66 0
 301 01c0 5246     		mov	r2, r10
 302 01c2 1061     		str	r0, [r2, #16]
  69:..\..\..\liblc3\src/mdct.c ****                           + s23.im * cos1 - d23.re * sin1;
 303              		.loc 1 69 0
 304 01c4 7C68     		ldr	r4, [r7, #4]
 305 01c6 6F49     		ldr	r1, .L16+8
 306 01c8 0398     		ldr	r0, [sp, #12]
 307 01ca FFF7FEFF 		bl	__aeabi_fmul
 308              	.LVL44:
 309 01ce 0390     		str	r0, [sp, #12]
 310 01d0 011C     		adds	r1, r0, #0
 311 01d2 201C     		adds	r0, r4, #0
ARM GAS  C:\Users\rdn\AppData\Local\Temp\ccCJgMYD.s 			page 10


 312 01d4 FFF7FEFF 		bl	__aeabi_fadd
 313              	.LVL45:
 314 01d8 041C     		adds	r4, r0, #0
 315 01da 6D49     		ldr	r1, .L16+20
 316 01dc 0098     		ldr	r0, [sp]
 317 01de FFF7FEFF 		bl	__aeabi_fmul
 318              	.LVL46:
 319 01e2 011C     		adds	r1, r0, #0
 320 01e4 201C     		adds	r0, r4, #0
 321 01e6 FFF7FEFF 		bl	__aeabi_fadd
 322              	.LVL47:
 323 01ea 041C     		adds	r4, r0, #0
  70:..\..\..\liblc3\src/mdct.c **** 
 324              		.loc 1 70 0
 325 01ec 6349     		ldr	r1, .L16
 326 01ee 0598     		ldr	r0, [sp, #20]
 327 01f0 FFF7FEFF 		bl	__aeabi_fmul
 328              	.LVL48:
 329 01f4 0490     		str	r0, [sp, #16]
 330 01f6 011C     		adds	r1, r0, #0
 331 01f8 201C     		adds	r0, r4, #0
 332 01fa FFF7FEFF 		bl	__aeabi_fadd
 333              	.LVL49:
 334 01fe 041C     		adds	r4, r0, #0
 335 0200 5F49     		ldr	r1, .L16+4
 336 0202 0698     		ldr	r0, [sp, #24]
 337 0204 FFF7FEFF 		bl	__aeabi_fmul
 338              	.LVL50:
 339 0208 011C     		adds	r1, r0, #0
 340 020a 201C     		adds	r0, r4, #0
 341 020c FFF7FEFF 		bl	__aeabi_fadd
 342              	.LVL51:
  69:..\..\..\liblc3\src/mdct.c ****                           + s23.im * cos1 - d23.re * sin1;
 343              		.loc 1 69 0
 344 0210 5246     		mov	r2, r10
 345 0212 5061     		str	r0, [r2, #20]
  72:..\..\..\liblc3\src/mdct.c ****                           + s23.re * cos1 - d23.im * sin1;
 346              		.loc 1 72 0
 347 0214 3968     		ldr	r1, [r7]
 348 0216 301C     		adds	r0, r6, #0
 349 0218 FFF7FEFF 		bl	__aeabi_fadd
 350              	.LVL52:
 351 021c 041C     		adds	r4, r0, #0
 352 021e 5C49     		ldr	r1, .L16+20
 353 0220 0198     		ldr	r0, [sp, #4]
 354 0222 FFF7FEFF 		bl	__aeabi_fmul
 355              	.LVL53:
 356 0226 011C     		adds	r1, r0, #0
 357 0228 201C     		adds	r0, r4, #0
 358 022a FFF7FEFF 		bl	__aeabi_fadd
 359              	.LVL54:
 360 022e 011C     		adds	r1, r0, #0
  73:..\..\..\liblc3\src/mdct.c **** 
 361              		.loc 1 73 0
 362 0230 0298     		ldr	r0, [sp, #8]
 363 0232 FFF7FEFF 		bl	__aeabi_fadd
 364              	.LVL55:
ARM GAS  C:\Users\rdn\AppData\Local\Temp\ccCJgMYD.s 			page 11


 365 0236 041C     		adds	r4, r0, #0
 366 0238 5149     		ldr	r1, .L16+4
 367 023a 281C     		adds	r0, r5, #0
 368 023c FFF7FEFF 		bl	__aeabi_fmul
 369              	.LVL56:
 370 0240 011C     		adds	r1, r0, #0
 371 0242 201C     		adds	r0, r4, #0
 372 0244 FFF7FEFF 		bl	__aeabi_fadd
 373              	.LVL57:
  72:..\..\..\liblc3\src/mdct.c ****                           + s23.re * cos1 - d23.im * sin1;
 374              		.loc 1 72 0
 375 0248 5246     		mov	r2, r10
 376 024a 9061     		str	r0, [r2, #24]
  75:..\..\..\liblc3\src/mdct.c ****                           + s23.im * cos1 + d23.re * sin1;
 377              		.loc 1 75 0
 378 024c 7968     		ldr	r1, [r7, #4]
 379 024e 0398     		ldr	r0, [sp, #12]
 380 0250 FFF7FEFF 		bl	__aeabi_fadd
 381              	.LVL58:
 382 0254 041C     		adds	r4, r0, #0
 383 0256 4C49     		ldr	r1, .L16+12
 384 0258 0098     		ldr	r0, [sp]
 385 025a FFF7FEFF 		bl	__aeabi_fmul
 386              	.LVL59:
 387 025e 011C     		adds	r1, r0, #0
 388 0260 201C     		adds	r0, r4, #0
 389 0262 FFF7FEFF 		bl	__aeabi_fadd
 390              	.LVL60:
 391 0266 011C     		adds	r1, r0, #0
  76:..\..\..\liblc3\src/mdct.c **** 
 392              		.loc 1 76 0
 393 0268 0498     		ldr	r0, [sp, #16]
 394 026a FFF7FEFF 		bl	__aeabi_fadd
 395              	.LVL61:
 396 026e 041C     		adds	r4, r0, #0
 397 0270 4649     		ldr	r1, .L16+16
 398 0272 069E     		ldr	r6, [sp, #24]
 399 0274 301C     		adds	r0, r6, #0
 400 0276 FFF7FEFF 		bl	__aeabi_fmul
 401              	.LVL62:
 402 027a 011C     		adds	r1, r0, #0
 403 027c 201C     		adds	r0, r4, #0
 404 027e FFF7FEFF 		bl	__aeabi_fadd
 405              	.LVL63:
  75:..\..\..\liblc3\src/mdct.c ****                           + s23.im * cos1 + d23.re * sin1;
 406              		.loc 1 75 0
 407 0282 5246     		mov	r2, r10
 408 0284 D061     		str	r0, [r2, #28]
  78:..\..\..\liblc3\src/mdct.c ****                           + s23.re * cos2 + d23.im * sin2;
 409              		.loc 1 78 0
 410 0286 3968     		ldr	r1, [r7]
 411 0288 0798     		ldr	r0, [sp, #28]
 412 028a FFF7FEFF 		bl	__aeabi_fadd
 413              	.LVL64:
 414 028e 041C     		adds	r4, r0, #0
 415 0290 3E49     		ldr	r1, .L16+16
 416 0292 0198     		ldr	r0, [sp, #4]
ARM GAS  C:\Users\rdn\AppData\Local\Temp\ccCJgMYD.s 			page 12


 417 0294 FFF7FEFF 		bl	__aeabi_fmul
 418              	.LVL65:
 419 0298 011C     		adds	r1, r0, #0
 420 029a 201C     		adds	r0, r4, #0
 421 029c FFF7FEFF 		bl	__aeabi_fadd
 422              	.LVL66:
 423 02a0 011C     		adds	r1, r0, #0
  79:..\..\..\liblc3\src/mdct.c **** 
 424              		.loc 1 79 0
 425 02a2 0898     		ldr	r0, [sp, #32]
 426 02a4 FFF7FEFF 		bl	__aeabi_fadd
 427              	.LVL67:
 428 02a8 041C     		adds	r4, r0, #0
 429 02aa 3949     		ldr	r1, .L16+20
 430 02ac 281C     		adds	r0, r5, #0
 431 02ae FFF7FEFF 		bl	__aeabi_fmul
 432              	.LVL68:
 433 02b2 011C     		adds	r1, r0, #0
 434 02b4 201C     		adds	r0, r4, #0
 435 02b6 FFF7FEFF 		bl	__aeabi_fadd
 436              	.LVL69:
  78:..\..\..\liblc3\src/mdct.c ****                           + s23.re * cos2 + d23.im * sin2;
 437              		.loc 1 78 0
 438 02ba 5246     		mov	r2, r10
 439 02bc 1062     		str	r0, [r2, #32]
  81:..\..\..\liblc3\src/mdct.c ****                           + s23.im * cos2 - d23.re * sin2;
 440              		.loc 1 81 0
 441 02be 7968     		ldr	r1, [r7, #4]
 442 02c0 0A98     		ldr	r0, [sp, #40]
 443 02c2 FFF7FEFF 		bl	__aeabi_fadd
 444              	.LVL70:
 445 02c6 041C     		adds	r4, r0, #0
 446 02c8 2D49     		ldr	r1, .L16+4
 447 02ca 0098     		ldr	r0, [sp]
 448 02cc FFF7FEFF 		bl	__aeabi_fmul
 449              	.LVL71:
 450 02d0 011C     		adds	r1, r0, #0
 451 02d2 201C     		adds	r0, r4, #0
 452 02d4 FFF7FEFF 		bl	__aeabi_fadd
 453              	.LVL72:
 454 02d8 011C     		adds	r1, r0, #0
  82:..\..\..\liblc3\src/mdct.c ****     }
 455              		.loc 1 82 0
 456 02da 0B98     		ldr	r0, [sp, #44]
 457 02dc FFF7FEFF 		bl	__aeabi_fadd
 458              	.LVL73:
 459 02e0 041C     		adds	r4, r0, #0
 460 02e2 2949     		ldr	r1, .L16+12
 461 02e4 301C     		adds	r0, r6, #0
 462 02e6 FFF7FEFF 		bl	__aeabi_fmul
 463              	.LVL74:
 464 02ea 011C     		adds	r1, r0, #0
 465 02ec 201C     		adds	r0, r4, #0
 466 02ee FFF7FEFF 		bl	__aeabi_fadd
 467              	.LVL75:
  81:..\..\..\liblc3\src/mdct.c ****                           + s23.im * cos2 - d23.re * sin2;
 468              		.loc 1 81 0
ARM GAS  C:\Users\rdn\AppData\Local\Temp\ccCJgMYD.s 			page 13


 469 02f2 5346     		mov	r3, r10
 470 02f4 5862     		str	r0, [r3, #36]
 471              	.LBE39:
  44:..\..\..\liblc3\src/mdct.c **** 
 472              		.loc 1 44 0
 473 02f6 0123     		movs	r3, #1
 474 02f8 9C46     		mov	ip, r3
 475 02fa E044     		add	r8, r8, ip
 476              	.LVL76:
 477 02fc 0837     		adds	r7, r7, #8
 478              	.LVL77:
 479 02fe 2733     		adds	r3, r3, #39
 480 0300 9C46     		mov	ip, r3
 481 0302 E244     		add	r10, r10, ip
 482              	.LVL78:
 483              	.L2:
 484 0304 C345     		cmp	fp, r8
 485 0306 00DD     		ble	.LCB489
 486 0308 90E6     		b	.L3	@long jump
 487              	.LCB489:
 488              	.LBE38:
 489              	.LBE37:
 490              	.LBE36:
 172:..\..\..\liblc3\src/mdct.c **** 
 491              		.loc 1 172 0
 492 030a 0023     		movs	r3, #0
 493 030c 0A93     		str	r3, [sp, #40]
 186:..\..\..\liblc3\src/mdct.c **** 
 187:..\..\..\liblc3\src/mdct.c ****     for (i3 = 0; n & (n-1); i3++, is ^= 1)
 494              		.loc 1 187 0
 495 030e 0B93     		str	r3, [sp, #44]
 496 0310 76E1     		b	.L4
 497              	.LVL79:
 498              	.L8:
 188:..\..\..\liblc3\src/mdct.c ****         fft_bf3(lc3_fft_twiddles_bf3[i3], y[is], y[is ^ 1], n /= 3);
 499              		.loc 1 188 0 discriminator 3
 500 0312 0B9B     		ldr	r3, [sp, #44]
 501 0314 9B00     		lsls	r3, r3, #2
 502 0316 1F4A     		ldr	r2, .L16+24
 503              	.LVL80:
 504 0318 9C58     		ldr	r4, [r3, r2]
 505 031a 0A9A     		ldr	r2, [sp, #40]
 506 031c 9300     		lsls	r3, r2, #2
 507 031e 0CA9     		add	r1, sp, #48
 508              	.LVL81:
 509 0320 5B58     		ldr	r3, [r3, r1]
 510 0322 9A46     		mov	r10, r3
 511 0324 0123     		movs	r3, #1
 512 0326 5A40     		eors	r2, r3
 513 0328 0A92     		str	r2, [sp, #40]
 514              	.LVL82:
 515 032a 9300     		lsls	r3, r2, #2
 516 032c 5B58     		ldr	r3, [r3, r1]
 517 032e 1D00     		movs	r5, r3
 518 0330 0293     		str	r3, [sp, #8]
 519 0332 0321     		movs	r1, #3
 520              	.LVL83:
ARM GAS  C:\Users\rdn\AppData\Local\Temp\ccCJgMYD.s 			page 14


 521 0334 0998     		ldr	r0, [sp, #36]
 522 0336 FFF7FEFF 		bl	__aeabi_idiv
 523              	.LVL84:
 524 033a 0990     		str	r0, [sp, #36]
 525              	.LVL85:
 526              	.LBB40:
 527              	.LBB41:
  98:..\..\..\liblc3\src/mdct.c ****     const struct lc3_complex (*w0)[2] = twiddles->t;
 528              		.loc 1 98 0 discriminator 3
 529 033c 2368     		ldr	r3, [r4]
 530 033e 1A00     		movs	r2, r3
 531 0340 0193     		str	r3, [sp, #4]
 532              	.LVL86:
  99:..\..\..\liblc3\src/mdct.c ****     const struct lc3_complex (*w1)[2] = w0 + n3, (*w2)[2] = w1 + n3;
 533              		.loc 1 99 0 discriminator 3
 534 0342 6368     		ldr	r3, [r4, #4]
 535 0344 1900     		movs	r1, r3
 536 0346 0593     		str	r3, [sp, #20]
 537              	.LVL87:
 100:..\..\..\liblc3\src/mdct.c **** 
 538              		.loc 1 100 0 discriminator 3
 539 0348 1301     		lsls	r3, r2, #4
 540 034a 8C46     		mov	ip, r1
 541 034c 9C44     		add	ip, ip, r3
 542 034e 6146     		mov	r1, ip
 543              	.LVL88:
 544 0350 0691     		str	r1, [sp, #24]
 545              	.LVL89:
 546 0352 6344     		add	r3, r3, ip
 547 0354 0793     		str	r3, [sp, #28]
 548              	.LVL90:
 102:..\..\..\liblc3\src/mdct.c ****     struct lc3_complex *y0 = y, *y1 = y0 + n3, *y2 = y1 + n3;
 549              		.loc 1 102 0 discriminator 3
 550 0356 0300     		movs	r3, r0
 551              	.LVL91:
 552 0358 5343     		muls	r3, r2
 553 035a DB00     		lsls	r3, r3, #3
 554 035c 9B46     		mov	fp, r3
 555 035e D344     		add	fp, fp, r10
 556              	.LVL92:
 557 0360 5B44     		add	r3, r3, fp
 558 0362 1E00     		movs	r6, r3
 559              	.LVL93:
 103:..\..\..\liblc3\src/mdct.c **** 
 560              		.loc 1 103 0 discriminator 3
 561 0364 D300     		lsls	r3, r2, #3
 562              	.LVL94:
 563 0366 AC46     		mov	ip, r5
 564 0368 9C44     		add	ip, ip, r3
 565 036a 6246     		mov	r2, ip
 566              	.LVL95:
 567 036c 0392     		str	r2, [sp, #12]
 568              	.LVL96:
 569 036e 6344     		add	r3, r3, ip
 570 0370 0493     		str	r3, [sp, #16]
 571              	.LVL97:
 572              	.LBB42:
ARM GAS  C:\Users\rdn\AppData\Local\Temp\ccCJgMYD.s 			page 15


 105:..\..\..\liblc3\src/mdct.c ****         for (int j = 0; j < n3; j++, x0++, x1++, x2++) {
 573              		.loc 1 105 0 discriminator 3
 574 0372 0023     		movs	r3, #0
 575              	.LVL98:
 576 0374 0893     		str	r3, [sp, #32]
 577 0376 5F46     		mov	r7, fp
 578 0378 3BE1     		b	.L5
 579              	.L17:
 580 037a C046     		.align	2
 581              	.L16:
 582 037c 7A379E3E 		.word	1050556282
 583 0380 7178733F 		.word	1064532081
 584 0384 BD1B4FBF 		.word	-1085334595
 585 0388 1879163F 		.word	1058437400
 586 038c 717873BF 		.word	-1082951567
 587 0390 187916BF 		.word	-1089046248
 588 0394 00000000 		.word	lc3_fft_twiddles_bf3
 589              	.LVL99:
 590              	.L6:
 591              	.LBB43:
 108:..\..\..\liblc3\src/mdct.c ****                               + x2->re * w0[j][1].re - x2->im * w0[j][1].im;
 592              		.loc 1 108 0
 593 0398 4B46     		mov	r3, r9
 594 039a DB00     		lsls	r3, r3, #3
 595 039c 029A     		ldr	r2, [sp, #8]
 596 039e 9046     		mov	r8, r2
 597 03a0 0093     		str	r3, [sp]
 598 03a2 9C46     		mov	ip, r3
 599 03a4 E044     		add	r8, r8, ip
 600 03a6 5146     		mov	r1, r10
 601 03a8 0D68     		ldr	r5, [r1]
 602 03aa 4946     		mov	r1, r9
 603 03ac 0901     		lsls	r1, r1, #4
 604 03ae 8B46     		mov	fp, r1
 605 03b0 0599     		ldr	r1, [sp, #20]
 606 03b2 5944     		add	r1, r1, fp
 607 03b4 0C00     		movs	r4, r1
 608 03b6 0968     		ldr	r1, [r1]
 609 03b8 3868     		ldr	r0, [r7]
 610 03ba FFF7FEFF 		bl	__aeabi_fmul
 611              	.LVL100:
 612 03be 011C     		adds	r1, r0, #0
 613 03c0 281C     		adds	r0, r5, #0
 614 03c2 FFF7FEFF 		bl	__aeabi_fadd
 615              	.LVL101:
 616 03c6 051C     		adds	r5, r0, #0
 617 03c8 6168     		ldr	r1, [r4, #4]
 618 03ca 7868     		ldr	r0, [r7, #4]
 619 03cc FFF7FEFF 		bl	__aeabi_fmul
 620              	.LVL102:
 621 03d0 011C     		adds	r1, r0, #0
 622 03d2 281C     		adds	r0, r5, #0
 623 03d4 FFF7FEFF 		bl	__aeabi_fsub
 624              	.LVL103:
 625 03d8 051C     		adds	r5, r0, #0
 109:..\..\..\liblc3\src/mdct.c **** 
 626              		.loc 1 109 0
ARM GAS  C:\Users\rdn\AppData\Local\Temp\ccCJgMYD.s 			page 16


 627 03da A168     		ldr	r1, [r4, #8]
 628 03dc 3068     		ldr	r0, [r6]
 629 03de FFF7FEFF 		bl	__aeabi_fmul
 630              	.LVL104:
 631 03e2 011C     		adds	r1, r0, #0
 632 03e4 281C     		adds	r0, r5, #0
 633 03e6 FFF7FEFF 		bl	__aeabi_fadd
 634              	.LVL105:
 635 03ea 051C     		adds	r5, r0, #0
 636 03ec E168     		ldr	r1, [r4, #12]
 637 03ee 7068     		ldr	r0, [r6, #4]
 638 03f0 FFF7FEFF 		bl	__aeabi_fmul
 639              	.LVL106:
 640 03f4 011C     		adds	r1, r0, #0
 641 03f6 281C     		adds	r0, r5, #0
 642 03f8 FFF7FEFF 		bl	__aeabi_fsub
 643              	.LVL107:
 108:..\..\..\liblc3\src/mdct.c ****                               + x2->re * w0[j][1].re - x2->im * w0[j][1].im;
 644              		.loc 1 108 0
 645 03fc 4146     		mov	r1, r8
 646 03fe 0860     		str	r0, [r1]
 111:..\..\..\liblc3\src/mdct.c ****                               + x2->im * w0[j][1].re + x2->re * w0[j][1].im;
 647              		.loc 1 111 0
 648 0400 5146     		mov	r1, r10
 649 0402 4D68     		ldr	r5, [r1, #4]
 650 0404 2168     		ldr	r1, [r4]
 651 0406 7868     		ldr	r0, [r7, #4]
 652 0408 FFF7FEFF 		bl	__aeabi_fmul
 653              	.LVL108:
 654 040c 011C     		adds	r1, r0, #0
 655 040e 281C     		adds	r0, r5, #0
 656 0410 FFF7FEFF 		bl	__aeabi_fadd
 657              	.LVL109:
 658 0414 051C     		adds	r5, r0, #0
 659 0416 6168     		ldr	r1, [r4, #4]
 660 0418 3868     		ldr	r0, [r7]
 661 041a FFF7FEFF 		bl	__aeabi_fmul
 662              	.LVL110:
 663 041e 011C     		adds	r1, r0, #0
 664 0420 281C     		adds	r0, r5, #0
 665 0422 FFF7FEFF 		bl	__aeabi_fadd
 666              	.LVL111:
 667 0426 051C     		adds	r5, r0, #0
 112:..\..\..\liblc3\src/mdct.c **** 
 668              		.loc 1 112 0
 669 0428 A168     		ldr	r1, [r4, #8]
 670 042a 7068     		ldr	r0, [r6, #4]
 671 042c FFF7FEFF 		bl	__aeabi_fmul
 672              	.LVL112:
 673 0430 011C     		adds	r1, r0, #0
 674 0432 281C     		adds	r0, r5, #0
 675 0434 FFF7FEFF 		bl	__aeabi_fadd
 676              	.LVL113:
 677 0438 051C     		adds	r5, r0, #0
 678 043a E168     		ldr	r1, [r4, #12]
 679 043c 3068     		ldr	r0, [r6]
 680 043e FFF7FEFF 		bl	__aeabi_fmul
ARM GAS  C:\Users\rdn\AppData\Local\Temp\ccCJgMYD.s 			page 17


 681              	.LVL114:
 682 0442 011C     		adds	r1, r0, #0
 683 0444 281C     		adds	r0, r5, #0
 684 0446 FFF7FEFF 		bl	__aeabi_fadd
 685              	.LVL115:
 111:..\..\..\liblc3\src/mdct.c ****                               + x2->im * w0[j][1].re + x2->re * w0[j][1].im;
 686              		.loc 1 111 0
 687 044a 4146     		mov	r1, r8
 688 044c 4860     		str	r0, [r1, #4]
 114:..\..\..\liblc3\src/mdct.c ****                               + x2->re * w1[j][1].re - x2->im * w1[j][1].im;
 689              		.loc 1 114 0
 690 044e 0399     		ldr	r1, [sp, #12]
 691 0450 009B     		ldr	r3, [sp]
 692 0452 9C46     		mov	ip, r3
 693 0454 6144     		add	r1, r1, ip
 694 0456 8846     		mov	r8, r1
 695 0458 5246     		mov	r2, r10
 696 045a 1568     		ldr	r5, [r2]
 697 045c 069A     		ldr	r2, [sp, #24]
 698 045e 5A44     		add	r2, r2, fp
 699 0460 1400     		movs	r4, r2
 700 0462 1168     		ldr	r1, [r2]
 701 0464 3868     		ldr	r0, [r7]
 702 0466 FFF7FEFF 		bl	__aeabi_fmul
 703              	.LVL116:
 704 046a 011C     		adds	r1, r0, #0
 705 046c 281C     		adds	r0, r5, #0
 706 046e FFF7FEFF 		bl	__aeabi_fadd
 707              	.LVL117:
 708 0472 051C     		adds	r5, r0, #0
 709 0474 6168     		ldr	r1, [r4, #4]
 710 0476 7868     		ldr	r0, [r7, #4]
 711 0478 FFF7FEFF 		bl	__aeabi_fmul
 712              	.LVL118:
 713 047c 011C     		adds	r1, r0, #0
 714 047e 281C     		adds	r0, r5, #0
 715 0480 FFF7FEFF 		bl	__aeabi_fsub
 716              	.LVL119:
 717 0484 051C     		adds	r5, r0, #0
 115:..\..\..\liblc3\src/mdct.c **** 
 718              		.loc 1 115 0
 719 0486 A168     		ldr	r1, [r4, #8]
 720 0488 3068     		ldr	r0, [r6]
 721 048a FFF7FEFF 		bl	__aeabi_fmul
 722              	.LVL120:
 723 048e 011C     		adds	r1, r0, #0
 724 0490 281C     		adds	r0, r5, #0
 725 0492 FFF7FEFF 		bl	__aeabi_fadd
 726              	.LVL121:
 727 0496 051C     		adds	r5, r0, #0
 728 0498 E168     		ldr	r1, [r4, #12]
 729 049a 7068     		ldr	r0, [r6, #4]
 730 049c FFF7FEFF 		bl	__aeabi_fmul
 731              	.LVL122:
 732 04a0 011C     		adds	r1, r0, #0
 733 04a2 281C     		adds	r0, r5, #0
 734 04a4 FFF7FEFF 		bl	__aeabi_fsub
ARM GAS  C:\Users\rdn\AppData\Local\Temp\ccCJgMYD.s 			page 18


 735              	.LVL123:
 114:..\..\..\liblc3\src/mdct.c ****                               + x2->re * w1[j][1].re - x2->im * w1[j][1].im;
 736              		.loc 1 114 0
 737 04a8 4246     		mov	r2, r8
 738 04aa 1060     		str	r0, [r2]
 117:..\..\..\liblc3\src/mdct.c ****                               + x2->im * w1[j][1].re + x2->re * w1[j][1].im;
 739              		.loc 1 117 0
 740 04ac 5246     		mov	r2, r10
 741 04ae 5568     		ldr	r5, [r2, #4]
 742 04b0 2168     		ldr	r1, [r4]
 743 04b2 7868     		ldr	r0, [r7, #4]
 744 04b4 FFF7FEFF 		bl	__aeabi_fmul
 745              	.LVL124:
 746 04b8 011C     		adds	r1, r0, #0
 747 04ba 281C     		adds	r0, r5, #0
 748 04bc FFF7FEFF 		bl	__aeabi_fadd
 749              	.LVL125:
 750 04c0 051C     		adds	r5, r0, #0
 751 04c2 6168     		ldr	r1, [r4, #4]
 752 04c4 3868     		ldr	r0, [r7]
 753 04c6 FFF7FEFF 		bl	__aeabi_fmul
 754              	.LVL126:
 755 04ca 011C     		adds	r1, r0, #0
 756 04cc 281C     		adds	r0, r5, #0
 757 04ce FFF7FEFF 		bl	__aeabi_fadd
 758              	.LVL127:
 759 04d2 051C     		adds	r5, r0, #0
 118:..\..\..\liblc3\src/mdct.c **** 
 760              		.loc 1 118 0
 761 04d4 A168     		ldr	r1, [r4, #8]
 762 04d6 7068     		ldr	r0, [r6, #4]
 763 04d8 FFF7FEFF 		bl	__aeabi_fmul
 764              	.LVL128:
 765 04dc 011C     		adds	r1, r0, #0
 766 04de 281C     		adds	r0, r5, #0
 767 04e0 FFF7FEFF 		bl	__aeabi_fadd
 768              	.LVL129:
 769 04e4 051C     		adds	r5, r0, #0
 770 04e6 E168     		ldr	r1, [r4, #12]
 771 04e8 3068     		ldr	r0, [r6]
 772 04ea FFF7FEFF 		bl	__aeabi_fmul
 773              	.LVL130:
 774 04ee 011C     		adds	r1, r0, #0
 775 04f0 281C     		adds	r0, r5, #0
 776 04f2 FFF7FEFF 		bl	__aeabi_fadd
 777              	.LVL131:
 117:..\..\..\liblc3\src/mdct.c ****                               + x2->im * w1[j][1].re + x2->re * w1[j][1].im;
 778              		.loc 1 117 0
 779 04f6 4246     		mov	r2, r8
 780 04f8 5060     		str	r0, [r2, #4]
 120:..\..\..\liblc3\src/mdct.c ****                               + x2->re * w2[j][1].re - x2->im * w2[j][1].im;
 781              		.loc 1 120 0
 782 04fa 009B     		ldr	r3, [sp]
 783 04fc 049A     		ldr	r2, [sp, #16]
 784 04fe 9446     		mov	ip, r2
 785 0500 6344     		add	r3, r3, ip
 786 0502 9846     		mov	r8, r3
ARM GAS  C:\Users\rdn\AppData\Local\Temp\ccCJgMYD.s 			page 19


 787 0504 5346     		mov	r3, r10
 788 0506 1D68     		ldr	r5, [r3]
 789 0508 079B     		ldr	r3, [sp, #28]
 790 050a 5B44     		add	r3, r3, fp
 791 050c 1C00     		movs	r4, r3
 792 050e 1968     		ldr	r1, [r3]
 793 0510 3868     		ldr	r0, [r7]
 794 0512 FFF7FEFF 		bl	__aeabi_fmul
 795              	.LVL132:
 796 0516 011C     		adds	r1, r0, #0
 797 0518 281C     		adds	r0, r5, #0
 798 051a FFF7FEFF 		bl	__aeabi_fadd
 799              	.LVL133:
 800 051e 051C     		adds	r5, r0, #0
 801 0520 6168     		ldr	r1, [r4, #4]
 802 0522 7868     		ldr	r0, [r7, #4]
 803 0524 FFF7FEFF 		bl	__aeabi_fmul
 804              	.LVL134:
 805 0528 011C     		adds	r1, r0, #0
 806 052a 281C     		adds	r0, r5, #0
 807 052c FFF7FEFF 		bl	__aeabi_fsub
 808              	.LVL135:
 809 0530 051C     		adds	r5, r0, #0
 121:..\..\..\liblc3\src/mdct.c **** 
 810              		.loc 1 121 0
 811 0532 A168     		ldr	r1, [r4, #8]
 812 0534 3068     		ldr	r0, [r6]
 813 0536 FFF7FEFF 		bl	__aeabi_fmul
 814              	.LVL136:
 815 053a 011C     		adds	r1, r0, #0
 816 053c 281C     		adds	r0, r5, #0
 817 053e FFF7FEFF 		bl	__aeabi_fadd
 818              	.LVL137:
 819 0542 051C     		adds	r5, r0, #0
 820 0544 E168     		ldr	r1, [r4, #12]
 821 0546 7068     		ldr	r0, [r6, #4]
 822 0548 FFF7FEFF 		bl	__aeabi_fmul
 823              	.LVL138:
 824 054c 011C     		adds	r1, r0, #0
 825 054e 281C     		adds	r0, r5, #0
 826 0550 FFF7FEFF 		bl	__aeabi_fsub
 827              	.LVL139:
 120:..\..\..\liblc3\src/mdct.c ****                               + x2->re * w2[j][1].re - x2->im * w2[j][1].im;
 828              		.loc 1 120 0
 829 0554 4346     		mov	r3, r8
 830 0556 1860     		str	r0, [r3]
 123:..\..\..\liblc3\src/mdct.c ****                               + x2->im * w2[j][1].re + x2->re * w2[j][1].im;
 831              		.loc 1 123 0
 832 0558 5346     		mov	r3, r10
 833 055a 5D68     		ldr	r5, [r3, #4]
 834 055c 2168     		ldr	r1, [r4]
 835 055e 7868     		ldr	r0, [r7, #4]
 836 0560 FFF7FEFF 		bl	__aeabi_fmul
 837              	.LVL140:
 838 0564 011C     		adds	r1, r0, #0
 839 0566 281C     		adds	r0, r5, #0
 840 0568 FFF7FEFF 		bl	__aeabi_fadd
ARM GAS  C:\Users\rdn\AppData\Local\Temp\ccCJgMYD.s 			page 20


 841              	.LVL141:
 842 056c 051C     		adds	r5, r0, #0
 843 056e 6168     		ldr	r1, [r4, #4]
 844 0570 3868     		ldr	r0, [r7]
 845 0572 FFF7FEFF 		bl	__aeabi_fmul
 846              	.LVL142:
 847 0576 011C     		adds	r1, r0, #0
 848 0578 281C     		adds	r0, r5, #0
 849 057a FFF7FEFF 		bl	__aeabi_fadd
 850              	.LVL143:
 851 057e 051C     		adds	r5, r0, #0
 124:..\..\..\liblc3\src/mdct.c ****         }
 852              		.loc 1 124 0
 853 0580 A168     		ldr	r1, [r4, #8]
 854 0582 7068     		ldr	r0, [r6, #4]
 855 0584 FFF7FEFF 		bl	__aeabi_fmul
 856              	.LVL144:
 857 0588 011C     		adds	r1, r0, #0
 858 058a 281C     		adds	r0, r5, #0
 859 058c FFF7FEFF 		bl	__aeabi_fadd
 860              	.LVL145:
 861 0590 051C     		adds	r5, r0, #0
 862 0592 E168     		ldr	r1, [r4, #12]
 863 0594 3068     		ldr	r0, [r6]
 864 0596 FFF7FEFF 		bl	__aeabi_fmul
 865              	.LVL146:
 866 059a 011C     		adds	r1, r0, #0
 867 059c 281C     		adds	r0, r5, #0
 868 059e FFF7FEFF 		bl	__aeabi_fadd
 869              	.LVL147:
 123:..\..\..\liblc3\src/mdct.c ****                               + x2->im * w2[j][1].re + x2->re * w2[j][1].im;
 870              		.loc 1 123 0
 871 05a2 4346     		mov	r3, r8
 872 05a4 5860     		str	r0, [r3, #4]
 106:..\..\..\liblc3\src/mdct.c **** 
 873              		.loc 1 106 0
 874 05a6 0123     		movs	r3, #1
 875 05a8 9C46     		mov	ip, r3
 876 05aa E144     		add	r9, r9, ip
 877              	.LVL148:
 878 05ac 0733     		adds	r3, r3, #7
 879 05ae 9C46     		mov	ip, r3
 880 05b0 E244     		add	r10, r10, ip
 881              	.LVL149:
 882 05b2 0837     		adds	r7, r7, #8
 883              	.LVL150:
 884 05b4 0836     		adds	r6, r6, #8
 885              	.LVL151:
 886 05b6 01E0     		b	.L7
 887              	.LVL152:
 888              	.L14:
 889              	.LBE43:
 105:..\..\..\liblc3\src/mdct.c ****         for (int j = 0; j < n3; j++, x0++, x1++, x2++) {
 890              		.loc 1 105 0
 891 05b8 0023     		movs	r3, #0
 892 05ba 9946     		mov	r9, r3
 893              	.LVL153:
ARM GAS  C:\Users\rdn\AppData\Local\Temp\ccCJgMYD.s 			page 21


 894              	.L7:
 895              	.LBB44:
 106:..\..\..\liblc3\src/mdct.c **** 
 896              		.loc 1 106 0
 897 05bc 019B     		ldr	r3, [sp, #4]
 898 05be 4B45     		cmp	r3, r9
 899 05c0 00DD     		ble	.LCB974
 900 05c2 E9E6     		b	.L6	@long jump
 901              	.LCB974:
 902              	.LBE44:
 105:..\..\..\liblc3\src/mdct.c ****         for (int j = 0; j < n3; j++, x0++, x1++, x2++) {
 903              		.loc 1 105 0
 904 05c4 089B     		ldr	r3, [sp, #32]
 905 05c6 0133     		adds	r3, r3, #1
 906 05c8 0893     		str	r3, [sp, #32]
 907              	.LVL154:
 908 05ca 019B     		ldr	r3, [sp, #4]
 909              	.LVL155:
 910 05cc 5A00     		lsls	r2, r3, #1
 911 05ce 9C46     		mov	ip, r3
 912 05d0 6244     		add	r2, r2, ip
 913 05d2 D300     		lsls	r3, r2, #3
 914 05d4 029A     		ldr	r2, [sp, #8]
 915 05d6 9446     		mov	ip, r2
 916 05d8 9C44     		add	ip, ip, r3
 917 05da 6246     		mov	r2, ip
 918 05dc 0292     		str	r2, [sp, #8]
 919              	.LVL156:
 920 05de 039A     		ldr	r2, [sp, #12]
 921              	.LVL157:
 922 05e0 9446     		mov	ip, r2
 923              	.LVL158:
 924 05e2 9C44     		add	ip, ip, r3
 925 05e4 6246     		mov	r2, ip
 926 05e6 0392     		str	r2, [sp, #12]
 927              	.LVL159:
 928 05e8 049A     		ldr	r2, [sp, #16]
 929              	.LVL160:
 930 05ea 9446     		mov	ip, r2
 931              	.LVL161:
 932 05ec 9C44     		add	ip, ip, r3
 933 05ee 6346     		mov	r3, ip
 934 05f0 0493     		str	r3, [sp, #16]
 935              	.LVL162:
 936              	.L5:
 937 05f2 099B     		ldr	r3, [sp, #36]
 938 05f4 089A     		ldr	r2, [sp, #32]
 939 05f6 9342     		cmp	r3, r2
 940 05f8 DEDC     		bgt	.L14
 941              	.LVL163:
 942              	.LBE42:
 943              	.LBE41:
 944              	.LBE40:
 187:..\..\..\liblc3\src/mdct.c ****         fft_bf3(lc3_fft_twiddles_bf3[i3], y[is], y[is ^ 1], n /= 3);
 945              		.loc 1 187 0 discriminator 3
 946 05fa 0B9B     		ldr	r3, [sp, #44]
 947 05fc 0133     		adds	r3, r3, #1
ARM GAS  C:\Users\rdn\AppData\Local\Temp\ccCJgMYD.s 			page 22


 948 05fe 0B93     		str	r3, [sp, #44]
 949              	.LVL164:
 950              	.L4:
 187:..\..\..\liblc3\src/mdct.c ****         fft_bf3(lc3_fft_twiddles_bf3[i3], y[is], y[is ^ 1], n /= 3);
 951              		.loc 1 187 0 is_stmt 0 discriminator 1
 952 0600 099A     		ldr	r2, [sp, #36]
 953 0602 1300     		movs	r3, r2
 954 0604 013B     		subs	r3, r3, #1
 955 0606 1342     		tst	r3, r2
 956 0608 00D0     		beq	.LCB1077
 957 060a 82E6     		b	.L8	@long jump
 958              	.LCB1077:
 959 060c 0023     		movs	r3, #0
 960 060e 0493     		str	r3, [sp, #16]
 961 0610 A2E0     		b	.L9
 962              	.LVL165:
 963              	.L13:
 189:..\..\..\liblc3\src/mdct.c **** 
 190:..\..\..\liblc3\src/mdct.c ****     for (i2 = 0; n > 1; i2++, is ^= 1)
 191:..\..\..\liblc3\src/mdct.c ****         fft_bf2(lc3_fft_twiddles_bf2[i2][i3], y[is], y[is ^ 1], n >>= 1);
 964              		.loc 1 191 0 is_stmt 1 discriminator 3
 965 0612 049A     		ldr	r2, [sp, #16]
 966 0614 5300     		lsls	r3, r2, #1
 967              	.LVL166:
 968 0616 9446     		mov	ip, r2
 969 0618 6344     		add	r3, r3, ip
 970 061a 0B9A     		ldr	r2, [sp, #44]
 971 061c 9446     		mov	ip, r2
 972 061e 6344     		add	r3, r3, ip
 973 0620 9B00     		lsls	r3, r3, #2
 974 0622 554A     		ldr	r2, .L18
 975 0624 9B58     		ldr	r3, [r3, r2]
 976 0626 0A99     		ldr	r1, [sp, #40]
 977 0628 8A00     		lsls	r2, r1, #2
 978 062a 0CA8     		add	r0, sp, #48
 979              	.LVL167:
 980 062c 1658     		ldr	r6, [r2, r0]
 981 062e 0122     		movs	r2, #1
 982 0630 5140     		eors	r1, r2
 983 0632 0A91     		str	r1, [sp, #40]
 984              	.LVL168:
 985 0634 8A00     		lsls	r2, r1, #2
 986 0636 1258     		ldr	r2, [r2, r0]
 987 0638 1100     		movs	r1, r2
 988 063a 0092     		str	r2, [sp]
 989 063c 099A     		ldr	r2, [sp, #36]
 990 063e 5210     		asrs	r2, r2, #1
 991 0640 0992     		str	r2, [sp, #36]
 992              	.LVL169:
 993              	.LBB45:
 994              	.LBB46:
 140:..\..\..\liblc3\src/mdct.c ****     const struct lc3_complex *w = twiddles->t;
 995              		.loc 1 140 0 discriminator 3
 996 0642 1868     		ldr	r0, [r3]
 997              	.LVL170:
 998 0644 8346     		mov	fp, r0
 999              	.LVL171:
ARM GAS  C:\Users\rdn\AppData\Local\Temp\ccCJgMYD.s 			page 23


 141:..\..\..\liblc3\src/mdct.c **** 
 1000              		.loc 1 141 0 discriminator 3
 1001 0646 5B68     		ldr	r3, [r3, #4]
 1002              	.LVL172:
 1003 0648 0293     		str	r3, [sp, #8]
 1004              	.LVL173:
 143:..\..\..\liblc3\src/mdct.c ****     struct lc3_complex *y0 = y, *y1 = y0 + n2;
 1005              		.loc 1 143 0 discriminator 3
 1006 064a 1400     		movs	r4, r2
 1007 064c 4443     		muls	r4, r0
 1008 064e E400     		lsls	r4, r4, #3
 1009 0650 3419     		adds	r4, r6, r4
 1010              	.LVL174:
 144:..\..\..\liblc3\src/mdct.c **** 
 1011              		.loc 1 144 0 discriminator 3
 1012 0652 C300     		lsls	r3, r0, #3
 1013              	.LVL175:
 1014 0654 8C46     		mov	ip, r1
 1015              	.LVL176:
 1016 0656 6344     		add	r3, r3, ip
 1017 0658 0193     		str	r3, [sp, #4]
 1018              	.LVL177:
 1019              	.LBB47:
 146:..\..\..\liblc3\src/mdct.c **** 
 1020              		.loc 1 146 0 discriminator 3
 1021 065a 0023     		movs	r3, #0
 1022              	.LVL178:
 1023 065c 0393     		str	r3, [sp, #12]
 1024 065e 74E0     		b	.L10
 1025              	.LVL179:
 1026              	.L11:
 1027              	.LBB48:
 150:..\..\..\liblc3\src/mdct.c ****             y0[j].im = x0->im + x1->im * w[j].re + x1->re * w[j].im;
 1028              		.loc 1 150 0
 1029 0660 4346     		mov	r3, r8
 1030 0662 DB00     		lsls	r3, r3, #3
 1031 0664 9946     		mov	r9, r3
 1032 0666 009B     		ldr	r3, [sp]
 1033 0668 4B44     		add	r3, r3, r9
 1034 066a 9A46     		mov	r10, r3
 1035 066c 3768     		ldr	r7, [r6]
 1036 066e 029B     		ldr	r3, [sp, #8]
 1037 0670 4B44     		add	r3, r3, r9
 1038 0672 1D00     		movs	r5, r3
 1039 0674 1968     		ldr	r1, [r3]
 1040 0676 2068     		ldr	r0, [r4]
 1041 0678 FFF7FEFF 		bl	__aeabi_fmul
 1042              	.LVL180:
 1043 067c 011C     		adds	r1, r0, #0
 1044 067e 381C     		adds	r0, r7, #0
 1045 0680 FFF7FEFF 		bl	__aeabi_fadd
 1046              	.LVL181:
 1047 0684 071C     		adds	r7, r0, #0
 1048 0686 6968     		ldr	r1, [r5, #4]
 1049 0688 6068     		ldr	r0, [r4, #4]
 1050 068a FFF7FEFF 		bl	__aeabi_fmul
 1051              	.LVL182:
ARM GAS  C:\Users\rdn\AppData\Local\Temp\ccCJgMYD.s 			page 24


 1052 068e 011C     		adds	r1, r0, #0
 1053 0690 381C     		adds	r0, r7, #0
 1054 0692 FFF7FEFF 		bl	__aeabi_fsub
 1055              	.LVL183:
 1056 0696 5346     		mov	r3, r10
 1057 0698 1860     		str	r0, [r3]
 151:..\..\..\liblc3\src/mdct.c **** 
 1058              		.loc 1 151 0
 1059 069a 7768     		ldr	r7, [r6, #4]
 1060 069c 2968     		ldr	r1, [r5]
 1061 069e 6068     		ldr	r0, [r4, #4]
 1062 06a0 FFF7FEFF 		bl	__aeabi_fmul
 1063              	.LVL184:
 1064 06a4 011C     		adds	r1, r0, #0
 1065 06a6 381C     		adds	r0, r7, #0
 1066 06a8 FFF7FEFF 		bl	__aeabi_fadd
 1067              	.LVL185:
 1068 06ac 071C     		adds	r7, r0, #0
 1069 06ae 6968     		ldr	r1, [r5, #4]
 1070 06b0 2068     		ldr	r0, [r4]
 1071 06b2 FFF7FEFF 		bl	__aeabi_fmul
 1072              	.LVL186:
 1073 06b6 011C     		adds	r1, r0, #0
 1074 06b8 381C     		adds	r0, r7, #0
 1075 06ba FFF7FEFF 		bl	__aeabi_fadd
 1076              	.LVL187:
 1077 06be 5346     		mov	r3, r10
 1078 06c0 5860     		str	r0, [r3, #4]
 153:..\..\..\liblc3\src/mdct.c ****             y1[j].im = x0->im - x1->im * w[j].re - x1->re * w[j].im;
 1079              		.loc 1 153 0
 1080 06c2 019B     		ldr	r3, [sp, #4]
 1081 06c4 9C46     		mov	ip, r3
 1082 06c6 E144     		add	r9, r9, ip
 1083 06c8 3768     		ldr	r7, [r6]
 1084 06ca 2968     		ldr	r1, [r5]
 1085 06cc 2068     		ldr	r0, [r4]
 1086 06ce FFF7FEFF 		bl	__aeabi_fmul
 1087              	.LVL188:
 1088 06d2 011C     		adds	r1, r0, #0
 1089 06d4 381C     		adds	r0, r7, #0
 1090 06d6 FFF7FEFF 		bl	__aeabi_fsub
 1091              	.LVL189:
 1092 06da 071C     		adds	r7, r0, #0
 1093 06dc 6968     		ldr	r1, [r5, #4]
 1094 06de 6068     		ldr	r0, [r4, #4]
 1095 06e0 FFF7FEFF 		bl	__aeabi_fmul
 1096              	.LVL190:
 1097 06e4 011C     		adds	r1, r0, #0
 1098 06e6 381C     		adds	r0, r7, #0
 1099 06e8 FFF7FEFF 		bl	__aeabi_fadd
 1100              	.LVL191:
 1101 06ec 4B46     		mov	r3, r9
 1102 06ee 1860     		str	r0, [r3]
 154:..\..\..\liblc3\src/mdct.c ****         }
 1103              		.loc 1 154 0
 1104 06f0 7768     		ldr	r7, [r6, #4]
 1105 06f2 2968     		ldr	r1, [r5]
ARM GAS  C:\Users\rdn\AppData\Local\Temp\ccCJgMYD.s 			page 25


 1106 06f4 6068     		ldr	r0, [r4, #4]
 1107 06f6 FFF7FEFF 		bl	__aeabi_fmul
 1108              	.LVL192:
 1109 06fa 011C     		adds	r1, r0, #0
 1110 06fc 381C     		adds	r0, r7, #0
 1111 06fe FFF7FEFF 		bl	__aeabi_fsub
 1112              	.LVL193:
 1113 0702 071C     		adds	r7, r0, #0
 1114 0704 6968     		ldr	r1, [r5, #4]
 1115 0706 2068     		ldr	r0, [r4]
 1116 0708 FFF7FEFF 		bl	__aeabi_fmul
 1117              	.LVL194:
 1118 070c 011C     		adds	r1, r0, #0
 1119 070e 381C     		adds	r0, r7, #0
 1120 0710 FFF7FEFF 		bl	__aeabi_fsub
 1121              	.LVL195:
 1122 0714 4B46     		mov	r3, r9
 1123 0716 5860     		str	r0, [r3, #4]
 148:..\..\..\liblc3\src/mdct.c **** 
 1124              		.loc 1 148 0
 1125 0718 0123     		movs	r3, #1
 1126 071a 9C46     		mov	ip, r3
 1127 071c E044     		add	r8, r8, ip
 1128              	.LVL196:
 1129 071e 0836     		adds	r6, r6, #8
 1130              	.LVL197:
 1131 0720 0834     		adds	r4, r4, #8
 1132              	.LVL198:
 1133 0722 01E0     		b	.L12
 1134              	.LVL199:
 1135              	.L15:
 1136              	.LBE48:
 146:..\..\..\liblc3\src/mdct.c **** 
 1137              		.loc 1 146 0
 1138 0724 0023     		movs	r3, #0
 1139 0726 9846     		mov	r8, r3
 1140              	.LVL200:
 1141              	.L12:
 1142              	.LBB49:
 148:..\..\..\liblc3\src/mdct.c **** 
 1143              		.loc 1 148 0
 1144 0728 C345     		cmp	fp, r8
 1145 072a 99DC     		bgt	.L11
 1146              	.LBE49:
 146:..\..\..\liblc3\src/mdct.c **** 
 1147              		.loc 1 146 0
 1148 072c 039B     		ldr	r3, [sp, #12]
 1149 072e 0133     		adds	r3, r3, #1
 1150 0730 0393     		str	r3, [sp, #12]
 1151              	.LVL201:
 1152 0732 5B46     		mov	r3, fp
 1153              	.LVL202:
 1154 0734 1B01     		lsls	r3, r3, #4
 1155 0736 009A     		ldr	r2, [sp]
 1156 0738 9446     		mov	ip, r2
 1157 073a 9C44     		add	ip, ip, r3
 1158 073c 6246     		mov	r2, ip
ARM GAS  C:\Users\rdn\AppData\Local\Temp\ccCJgMYD.s 			page 26


 1159 073e 0092     		str	r2, [sp]
 1160              	.LVL203:
 1161 0740 019A     		ldr	r2, [sp, #4]
 1162              	.LVL204:
 1163 0742 9446     		mov	ip, r2
 1164              	.LVL205:
 1165 0744 9C44     		add	ip, ip, r3
 1166 0746 6346     		mov	r3, ip
 1167 0748 0193     		str	r3, [sp, #4]
 1168              	.LVL206:
 1169              	.L10:
 1170 074a 099B     		ldr	r3, [sp, #36]
 1171 074c 039A     		ldr	r2, [sp, #12]
 1172 074e 9342     		cmp	r3, r2
 1173 0750 E8DC     		bgt	.L15
 1174              	.LVL207:
 1175              	.LBE47:
 1176              	.LBE46:
 1177              	.LBE45:
 190:..\..\..\liblc3\src/mdct.c ****         fft_bf2(lc3_fft_twiddles_bf2[i2][i3], y[is], y[is ^ 1], n >>= 1);
 1178              		.loc 1 190 0 discriminator 3
 1179 0752 049B     		ldr	r3, [sp, #16]
 1180 0754 0133     		adds	r3, r3, #1
 1181 0756 0493     		str	r3, [sp, #16]
 1182              	.LVL208:
 1183              	.L9:
 190:..\..\..\liblc3\src/mdct.c ****         fft_bf2(lc3_fft_twiddles_bf2[i2][i3], y[is], y[is ^ 1], n >>= 1);
 1184              		.loc 1 190 0 is_stmt 0 discriminator 1
 1185 0758 099B     		ldr	r3, [sp, #36]
 1186 075a 012B     		cmp	r3, #1
 1187 075c 00DD     		ble	.LCB1385
 1188 075e 58E7     		b	.L13	@long jump
 1189              	.LCB1385:
 192:..\..\..\liblc3\src/mdct.c **** 
 193:..\..\..\liblc3\src/mdct.c ****     return y[is];
 1190              		.loc 1 193 0 is_stmt 1
 1191 0760 0A9B     		ldr	r3, [sp, #40]
 1192 0762 9B00     		lsls	r3, r3, #2
 1193 0764 0CAA     		add	r2, sp, #48
 1194              	.LVL209:
 1195 0766 9858     		ldr	r0, [r3, r2]
 194:..\..\..\liblc3\src/mdct.c **** }
 1196              		.loc 1 194 0
 1197 0768 0FB0     		add	sp, sp, #60
 1198              		@ sp needed
 1199 076a 3CBC     		pop	{r2, r3, r4, r5}
 1200 076c 9046     		mov	r8, r2
 1201 076e 9946     		mov	r9, r3
 1202 0770 A246     		mov	r10, r4
 1203 0772 AB46     		mov	fp, r5
 1204 0774 F0BD     		pop	{r4, r5, r6, r7, pc}
 1205              	.L19:
 1206 0776 C046     		.align	2
 1207              	.L18:
 1208 0778 00000000 		.word	lc3_fft_twiddles_bf2
 1209              		.cfi_endproc
 1210              	.LFE23:
ARM GAS  C:\Users\rdn\AppData\Local\Temp\ccCJgMYD.s 			page 27


 1211              		.size	fft, .-fft
 1212              		.section	.text.mdct_window,"ax",%progbits
 1213              		.align	2
 1214              		.code	16
 1215              		.thumb_func
 1216              		.type	mdct_window, %function
 1217              	mdct_window:
 1218              	.LFB24:
 195:..\..\..\liblc3\src/mdct.c **** 
 196:..\..\..\liblc3\src/mdct.c **** 
 197:..\..\..\liblc3\src/mdct.c **** /* ----------------------------------------------------------------------------
 198:..\..\..\liblc3\src/mdct.c ****  *  MDCT processing
 199:..\..\..\liblc3\src/mdct.c ****  * -------------------------------------------------------------------------- */
 200:..\..\..\liblc3\src/mdct.c **** 
 201:..\..\..\liblc3\src/mdct.c **** /**
 202:..\..\..\liblc3\src/mdct.c ****  * Windowing of samples before MDCT
 203:..\..\..\liblc3\src/mdct.c ****  * dt, sr          Duration and samplerate
 204:..\..\..\liblc3\src/mdct.c ****  * x, y            Input current and delayed samples
 205:..\..\..\liblc3\src/mdct.c ****  * y, d            Output windowed samples, and delayed ones
 206:..\..\..\liblc3\src/mdct.c ****  */
 207:..\..\..\liblc3\src/mdct.c **** LC3_HOT static void mdct_window(
 208:..\..\..\liblc3\src/mdct.c ****     enum lc3_dt dt, enum lc3_srate sr,
 209:..\..\..\liblc3\src/mdct.c ****     const float *x, float *d, float *y)
 210:..\..\..\liblc3\src/mdct.c **** {
 1219              		.loc 1 210 0
 1220              		.cfi_startproc
 1221              		@ args = 4, pretend = 0, frame = 32
 1222              		@ frame_needed = 0, uses_anonymous_args = 0
 1223              	.LVL210:
 1224 0000 F0B5     		push	{r4, r5, r6, r7, lr}
 1225              		.cfi_def_cfa_offset 20
 1226              		.cfi_offset 4, -20
 1227              		.cfi_offset 5, -16
 1228              		.cfi_offset 6, -12
 1229              		.cfi_offset 7, -8
 1230              		.cfi_offset 14, -4
 1231 0002 5F46     		mov	r7, fp
 1232 0004 5646     		mov	r6, r10
 1233 0006 4D46     		mov	r5, r9
 1234 0008 4446     		mov	r4, r8
 1235 000a F0B4     		push	{r4, r5, r6, r7}
 1236              		.cfi_def_cfa_offset 36
 1237              		.cfi_offset 8, -36
 1238              		.cfi_offset 9, -32
 1239              		.cfi_offset 10, -28
 1240              		.cfi_offset 11, -24
 1241 000c 89B0     		sub	sp, sp, #36
 1242              		.cfi_def_cfa_offset 72
 1243 000e 9146     		mov	r9, r2
 1244 0010 9B46     		mov	fp, r3
 211:..\..\..\liblc3\src/mdct.c ****     const float *win = lc3_mdct_win[dt][sr];
 1245              		.loc 1 211 0
 1246 0012 C300     		lsls	r3, r0, #3
 1247              	.LVL211:
 1248 0014 1B1A     		subs	r3, r3, r0
 1249 0016 5B18     		adds	r3, r3, r1
 1250 0018 9B00     		lsls	r3, r3, #2
ARM GAS  C:\Users\rdn\AppData\Local\Temp\ccCJgMYD.s 			page 28


 1251 001a 914A     		ldr	r2, .L26
 1252              	.LVL212:
 1253 001c 9D58     		ldr	r5, [r3, r2]
 1254              	.LVL213:
 1255              	.LBB50:
 1256              	.LBB51:
 1257              		.file 2 "..\\..\\..\\liblc3\\src\\tables.h"
   1:..\..\..\liblc3\src/tables.h **** /******************************************************************************
   2:..\..\..\liblc3\src/tables.h ****  *
   3:..\..\..\liblc3\src/tables.h ****  *  Copyright 2022 Google LLC
   4:..\..\..\liblc3\src/tables.h ****  *
   5:..\..\..\liblc3\src/tables.h ****  *  Licensed under the Apache License, Version 2.0 (the "License");
   6:..\..\..\liblc3\src/tables.h ****  *  you may not use this file except in compliance with the License.
   7:..\..\..\liblc3\src/tables.h ****  *  You may obtain a copy of the License at:
   8:..\..\..\liblc3\src/tables.h ****  *
   9:..\..\..\liblc3\src/tables.h ****  *  http://www.apache.org/licenses/LICENSE-2.0
  10:..\..\..\liblc3\src/tables.h ****  *
  11:..\..\..\liblc3\src/tables.h ****  *  Unless required by applicable law or agreed to in writing, software
  12:..\..\..\liblc3\src/tables.h ****  *  distributed under the License is distributed on an "AS IS" BASIS,
  13:..\..\..\liblc3\src/tables.h ****  *  WITHOUT WARRANTIES OR CONDITIONS OF ANY KIND, either express or implied.
  14:..\..\..\liblc3\src/tables.h ****  *  See the License for the specific language governing permissions and
  15:..\..\..\liblc3\src/tables.h ****  *  limitations under the License.
  16:..\..\..\liblc3\src/tables.h ****  *
  17:..\..\..\liblc3\src/tables.h ****  ******************************************************************************/
  18:..\..\..\liblc3\src/tables.h **** 
  19:..\..\..\liblc3\src/tables.h **** #ifndef __LC3_TABLES_H
  20:..\..\..\liblc3\src/tables.h **** #define __LC3_TABLES_H
  21:..\..\..\liblc3\src/tables.h **** 
  22:..\..\..\liblc3\src/tables.h **** #include "common.h"
  23:..\..\..\liblc3\src/tables.h **** #include "bits.h"
  24:..\..\..\liblc3\src/tables.h **** 
  25:..\..\..\liblc3\src/tables.h **** 
  26:..\..\..\liblc3\src/tables.h **** /**
  27:..\..\..\liblc3\src/tables.h ****  * Characteristics
  28:..\..\..\liblc3\src/tables.h ****  *
  29:..\..\..\liblc3\src/tables.h ****  *   ns   Number of temporal samples / frequency coefficients within a frame
  30:..\..\..\liblc3\src/tables.h ****  *
  31:..\..\..\liblc3\src/tables.h ****  *   ne   Number of encoded frequency coefficients
  32:..\..\..\liblc3\src/tables.h ****  *
  33:..\..\..\liblc3\src/tables.h ****  *   nd   Number of MDCT delayed samples, sum of half a frame and an ovelap
  34:..\..\..\liblc3\src/tables.h ****  *        of future by 1.25 ms (2.5ms, 5ms and 10ms frame durations),
  35:..\..\..\liblc3\src/tables.h ****  *        or 2 ms (7.5ms frame duration).
  36:..\..\..\liblc3\src/tables.h ****  *
  37:..\..\..\liblc3\src/tables.h ****  *   nh   Number of 18 ms samples of the history buffer, aligned on a frame
  38:..\..\..\liblc3\src/tables.h ****  *
  39:..\..\..\liblc3\src/tables.h ****  *   nt   Number of 1.25 ms previous samples
  40:..\..\..\liblc3\src/tables.h ****  */
  41:..\..\..\liblc3\src/tables.h **** 
  42:..\..\..\liblc3\src/tables.h **** extern const int lc3_ns_2m5[LC3_NUM_SRATE];
  43:..\..\..\liblc3\src/tables.h **** extern const int lc3_ne_2m5[LC3_NUM_SRATE];
  44:..\..\..\liblc3\src/tables.h **** extern const int lc3_ns_4m [LC3_NUM_SRATE];
  45:..\..\..\liblc3\src/tables.h **** 
  46:..\..\..\liblc3\src/tables.h **** static inline int lc3_ns(enum lc3_dt dt, enum lc3_srate sr) {
  47:..\..\..\liblc3\src/tables.h ****     return lc3_ns_2m5[sr] * (1 + dt);
 1258              		.loc 2 47 0
 1259 001e 8A00     		lsls	r2, r1, #2
 1260 0020 904B     		ldr	r3, .L26+4
ARM GAS  C:\Users\rdn\AppData\Local\Temp\ccCJgMYD.s 			page 29


 1261 0022 D258     		ldr	r2, [r2, r3]
 1262 0024 431C     		adds	r3, r0, #1
 1263 0026 5343     		muls	r3, r2
 1264              	.LVL214:
 1265              	.LBE51:
 1266              	.LBE50:
 1267              	.LBB52:
 1268              	.LBB53:
  48:..\..\..\liblc3\src/tables.h **** }
  49:..\..\..\liblc3\src/tables.h **** 
  50:..\..\..\liblc3\src/tables.h **** static inline int lc3_ne(enum lc3_dt dt, enum lc3_srate sr) {
  51:..\..\..\liblc3\src/tables.h ****     return lc3_ne_2m5[sr] * (1 + dt);
  52:..\..\..\liblc3\src/tables.h **** }
  53:..\..\..\liblc3\src/tables.h **** 
  54:..\..\..\liblc3\src/tables.h **** static inline int lc3_nd(enum lc3_dt dt, enum lc3_srate sr) {
  55:..\..\..\liblc3\src/tables.h ****     return ( lc3_ns(dt, sr) +
  56:..\..\..\liblc3\src/tables.h ****         (dt == LC3_DT_7M5 ? lc3_ns_4m[sr] : lc3_ns_2m5[sr]) ) >> 1;
 1269              		.loc 2 56 0
 1270 0028 0228     		cmp	r0, #2
 1271 002a 02D1     		bne	.L21
 1272 002c 8900     		lsls	r1, r1, #2
 1273              	.LVL215:
 1274 002e 8E4A     		ldr	r2, .L26+8
 1275 0030 8A58     		ldr	r2, [r1, r2]
 1276              	.L21:
  55:..\..\..\liblc3\src/tables.h ****         (dt == LC3_DT_7M5 ? lc3_ns_4m[sr] : lc3_ns_2m5[sr]) ) >> 1;
 1277              		.loc 2 55 0
 1278 0032 D218     		adds	r2, r2, r3
 1279 0034 5210     		asrs	r2, r2, #1
 1280              	.LVL216:
 1281              	.LBE53:
 1282              	.LBE52:
 212:..\..\..\liblc3\src/mdct.c ****     int ns = lc3_ns(dt, sr), nd = lc3_nd(dt, sr);
 213:..\..\..\liblc3\src/mdct.c **** 
 214:..\..\..\liblc3\src/mdct.c ****     const float *w0 = win, *w1 = w0 + ns;
 1283              		.loc 1 214 0
 1284 0036 9900     		lsls	r1, r3, #2
 1285 0038 0791     		str	r1, [sp, #28]
 1286 003a 8C46     		mov	ip, r1
 1287 003c AC44     		add	ip, ip, r5
 1288 003e 6146     		mov	r1, ip
 1289              	.LVL217:
 215:..\..\..\liblc3\src/mdct.c ****     const float *w2 = w1, *w3 = w2 + nd;
 1290              		.loc 1 215 0
 1291 0040 9400     		lsls	r4, r2, #2
 1292 0042 A444     		add	ip, ip, r4
 1293 0044 6046     		mov	r0, ip
 1294              	.LVL218:
 1295 0046 0290     		str	r0, [sp, #8]
 1296              	.LVL219:
 216:..\..\..\liblc3\src/mdct.c **** 
 217:..\..\..\liblc3\src/mdct.c ****     const float *x0 = x + ns-nd, *x1 = x0;
 1297              		.loc 1 217 0
 1298 0048 9A1A     		subs	r2, r3, r2
 1299 004a 9200     		lsls	r2, r2, #2
 1300 004c 4A44     		add	r2, r2, r9
 1301 004e 9046     		mov	r8, r2
ARM GAS  C:\Users\rdn\AppData\Local\Temp\ccCJgMYD.s 			page 30


 1302              	.LVL220:
 218:..\..\..\liblc3\src/mdct.c ****     float *y0 = y + ns/2, *y1 = y0;
 1303              		.loc 1 218 0
 1304 0050 DE0F     		lsrs	r6, r3, #31
 1305 0052 F618     		adds	r6, r6, r3
 1306 0054 7610     		asrs	r6, r6, #1
 1307 0056 B600     		lsls	r6, r6, #2
 1308 0058 3300     		movs	r3, r6
 1309 005a 129A     		ldr	r2, [sp, #72]
 1310              	.LVL221:
 1311 005c 9446     		mov	ip, r2
 1312 005e 6344     		add	r3, r3, ip
 1313              	.LVL222:
 219:..\..\..\liblc3\src/mdct.c ****     float *d0 = d, *d1 = d + nd;
 1314              		.loc 1 219 0
 1315 0060 2200     		movs	r2, r4
 1316 0062 5A44     		add	r2, r2, fp
 1317 0064 0692     		str	r2, [sp, #24]
 1318              	.LVL223:
 218:..\..\..\liblc3\src/mdct.c ****     float *y0 = y + ns/2, *y1 = y0;
 1319              		.loc 1 218 0
 1320 0066 9A46     		mov	r10, r3
 217:..\..\..\liblc3\src/mdct.c ****     float *y0 = y + ns/2, *y1 = y0;
 1321              		.loc 1 217 0
 1322 0068 4446     		mov	r4, r8
 215:..\..\..\liblc3\src/mdct.c **** 
 1323              		.loc 1 215 0
 1324 006a 0F00     		movs	r7, r1
 1325 006c 4A46     		mov	r2, r9
 1326              	.LVL224:
 1327 006e 0592     		str	r2, [sp, #20]
 1328 0070 8946     		mov	r9, r1
 1329              	.LVL225:
 1330 0072 5E46     		mov	r6, fp
 1331 0074 9B46     		mov	fp, r3
 1332              	.LVL226:
 220:..\..\..\liblc3\src/mdct.c **** 
 221:..\..\..\liblc3\src/mdct.c ****     while (x1 > x) {
 1333              		.loc 1 221 0
 1334 0076 54E0     		b	.L22
 1335              	.LVL227:
 1336              	.L23:
 222:..\..\..\liblc3\src/mdct.c ****         *(--y0) = *d0 * *(w0++) - *(--x1) * *(--w1);
 1337              		.loc 1 222 0
 1338 0078 2968     		ldr	r1, [r5]
 1339 007a 3068     		ldr	r0, [r6]
 1340 007c FFF7FEFF 		bl	__aeabi_fmul
 1341              	.LVL228:
 1342 0080 0090     		str	r0, [sp]
 1343              	.LVL229:
 1344 0082 231F     		subs	r3, r4, #4
 1345              	.LVL230:
 1346 0084 1868     		ldr	r0, [r3]
 1347              	.LVL231:
 1348 0086 4B46     		mov	r3, r9
 1349              	.LVL232:
 1350 0088 043B     		subs	r3, r3, #4
ARM GAS  C:\Users\rdn\AppData\Local\Temp\ccCJgMYD.s 			page 31


 1351              	.LVL233:
 1352 008a 1968     		ldr	r1, [r3]
 1353 008c FFF7FEFF 		bl	__aeabi_fmul
 1354              	.LVL234:
 1355 0090 011C     		adds	r1, r0, #0
 1356 0092 0098     		ldr	r0, [sp]
 1357 0094 FFF7FEFF 		bl	__aeabi_fsub
 1358              	.LVL235:
 1359 0098 5B46     		mov	r3, fp
 1360 009a 043B     		subs	r3, r3, #4
 1361              	.LVL236:
 1362 009c 1860     		str	r0, [r3]
 1363              	.LVL237:
 223:..\..\..\liblc3\src/mdct.c ****         *(y1++) = (*(d0++) = *(x0++)) * *(w2++);
 1364              		.loc 1 223 0
 1365 009e 4346     		mov	r3, r8
 1366              	.LVL238:
 1367 00a0 1868     		ldr	r0, [r3]
 1368 00a2 3060     		str	r0, [r6]
 1369              	.LVL239:
 1370 00a4 3968     		ldr	r1, [r7]
 1371 00a6 FFF7FEFF 		bl	__aeabi_fmul
 1372              	.LVL240:
 1373 00aa 5346     		mov	r3, r10
 1374 00ac 1860     		str	r0, [r3]
 224:..\..\..\liblc3\src/mdct.c **** 
 225:..\..\..\liblc3\src/mdct.c ****         *(--y0) = *d0 * *(w0++) - *(--x1) * *(--w1);
 1375              		.loc 1 225 0
 1376 00ae 0823     		movs	r3, #8
 1377 00b0 5B42     		rsbs	r3, r3, #0
 1378 00b2 9C46     		mov	ip, r3
 1379 00b4 E344     		add	fp, fp, ip
 1380              	.LVL241:
 1381 00b6 1033     		adds	r3, r3, #16
 1382 00b8 9C46     		mov	ip, r3
 1383 00ba AC44     		add	ip, ip, r5
 1384 00bc 6346     		mov	r3, ip
 1385 00be 0093     		str	r3, [sp]
 1386              	.LVL242:
 1387 00c0 6968     		ldr	r1, [r5, #4]
 1388 00c2 7068     		ldr	r0, [r6, #4]
 1389 00c4 FFF7FEFF 		bl	__aeabi_fmul
 1390              	.LVL243:
 1391 00c8 0190     		str	r0, [sp, #4]
 1392 00ca 083C     		subs	r4, r4, #8
 1393              	.LVL244:
 1394 00cc 4B46     		mov	r3, r9
 1395 00ce 083B     		subs	r3, r3, #8
 1396 00d0 1D00     		movs	r5, r3
 1397              	.LVL245:
 1398 00d2 1968     		ldr	r1, [r3]
 1399 00d4 2068     		ldr	r0, [r4]
 1400 00d6 FFF7FEFF 		bl	__aeabi_fmul
 1401              	.LVL246:
 1402 00da 011C     		adds	r1, r0, #0
 1403 00dc 0198     		ldr	r0, [sp, #4]
 1404 00de FFF7FEFF 		bl	__aeabi_fsub
ARM GAS  C:\Users\rdn\AppData\Local\Temp\ccCJgMYD.s 			page 32


 1405              	.LVL247:
 1406 00e2 5A46     		mov	r2, fp
 1407 00e4 1060     		str	r0, [r2]
 226:..\..\..\liblc3\src/mdct.c ****         *(y1++) = (*(d0++) = *(x0++)) * *(w2++);
 1408              		.loc 1 226 0
 1409 00e6 0823     		movs	r3, #8
 1410 00e8 5344     		add	r3, r3, r10
 1411 00ea 0193     		str	r3, [sp, #4]
 1412              	.LVL248:
 1413 00ec 0822     		movs	r2, #8
 1414 00ee 9446     		mov	ip, r2
 1415 00f0 B444     		add	ip, ip, r6
 1416 00f2 6246     		mov	r2, ip
 1417 00f4 0392     		str	r2, [sp, #12]
 1418              	.LVL249:
 1419 00f6 0822     		movs	r2, #8
 1420              	.LVL250:
 1421 00f8 4244     		add	r2, r2, r8
 1422 00fa 0492     		str	r2, [sp, #16]
 1423              	.LVL251:
 1424 00fc 4146     		mov	r1, r8
 1425 00fe 4868     		ldr	r0, [r1, #4]
 1426 0100 7060     		str	r0, [r6, #4]
 1427 0102 0821     		movs	r1, #8
 1428 0104 8946     		mov	r9, r1
 1429 0106 B944     		add	r9, r9, r7
 1430              	.LVL252:
 1431 0108 7968     		ldr	r1, [r7, #4]
 1432 010a FFF7FEFF 		bl	__aeabi_fmul
 1433              	.LVL253:
 1434 010e 5146     		mov	r1, r10
 1435 0110 4860     		str	r0, [r1, #4]
 1436 0112 039E     		ldr	r6, [sp, #12]
 1437 0114 019B     		ldr	r3, [sp, #4]
 1438 0116 9A46     		mov	r10, r3
 1439 0118 049A     		ldr	r2, [sp, #16]
 1440 011a 9046     		mov	r8, r2
 1441 011c 4F46     		mov	r7, r9
 225:..\..\..\liblc3\src/mdct.c ****         *(y1++) = (*(d0++) = *(x0++)) * *(w2++);
 1442              		.loc 1 225 0
 1443 011e A946     		mov	r9, r5
 1444              	.LVL254:
 1445 0120 009D     		ldr	r5, [sp]
 1446              	.LVL255:
 1447              	.L22:
 221:..\..\..\liblc3\src/mdct.c ****         *(--y0) = *d0 * *(w0++) - *(--x1) * *(--w1);
 1448              		.loc 1 221 0
 1449 0122 059B     		ldr	r3, [sp, #20]
 1450              	.LVL256:
 1451 0124 9C42     		cmp	r4, r3
 1452 0126 A7D8     		bhi	.L23
 1453 0128 4B46     		mov	r3, r9
 1454 012a 0193     		str	r3, [sp, #4]
 1455 012c 5B46     		mov	r3, fp
 1456 012e B346     		mov	fp, r6
 1457              	.LVL257:
 227:..\..\..\liblc3\src/mdct.c ****     }
ARM GAS  C:\Users\rdn\AppData\Local\Temp\ccCJgMYD.s 			page 33


 228:..\..\..\liblc3\src/mdct.c **** 
 229:..\..\..\liblc3\src/mdct.c ****     for (x1 += ns; x0 < x1; ) {
 1458              		.loc 1 229 0
 1459 0130 079A     		ldr	r2, [sp, #28]
 1460 0132 9446     		mov	ip, r2
 1461 0134 A444     		add	ip, ip, r4
 1462 0136 6246     		mov	r2, ip
 1463 0138 0092     		str	r2, [sp]
 1464              	.LVL258:
 1465 013a 4646     		mov	r6, r8
 1466              	.LVL259:
 1467 013c 069A     		ldr	r2, [sp, #24]
 1468              	.LVL260:
 1469 013e 9046     		mov	r8, r2
 1470              	.LVL261:
 1471 0140 5C46     		mov	r4, fp
 1472 0142 9B46     		mov	fp, r3
 1473              	.LVL262:
 1474 0144 81E0     		b	.L24
 1475              	.LVL263:
 1476              	.L25:
 230:..\..\..\liblc3\src/mdct.c ****         *(--y0) = *d0 * *(w0++) - *(--d1) * *(--w1);
 1477              		.loc 1 230 0
 1478 0146 2968     		ldr	r1, [r5]
 1479 0148 2068     		ldr	r0, [r4]
 1480 014a FFF7FEFF 		bl	__aeabi_fmul
 1481              	.LVL264:
 1482 014e 0390     		str	r0, [sp, #12]
 1483              	.LVL265:
 1484 0150 0423     		movs	r3, #4
 1485 0152 5B42     		rsbs	r3, r3, #0
 1486 0154 4344     		add	r3, r3, r8
 1487 0156 9946     		mov	r9, r3
 1488              	.LVL266:
 1489 0158 019B     		ldr	r3, [sp, #4]
 1490 015a 043B     		subs	r3, r3, #4
 1491              	.LVL267:
 1492 015c 1968     		ldr	r1, [r3]
 1493 015e 4A46     		mov	r2, r9
 1494 0160 1068     		ldr	r0, [r2]
 1495 0162 FFF7FEFF 		bl	__aeabi_fmul
 1496              	.LVL268:
 1497 0166 011C     		adds	r1, r0, #0
 1498 0168 0398     		ldr	r0, [sp, #12]
 1499 016a FFF7FEFF 		bl	__aeabi_fsub
 1500              	.LVL269:
 1501 016e 5A46     		mov	r2, fp
 1502 0170 131F     		subs	r3, r2, #4
 1503              	.LVL270:
 1504 0172 1860     		str	r0, [r3]
 1505              	.LVL271:
 231:..\..\..\liblc3\src/mdct.c ****         *(y1++) = (*(d0++) = *(x0++)) * *(w2++) + (*d1 = *(--x1)) * *(--w3);
 1506              		.loc 1 231 0
 1507 0174 3068     		ldr	r0, [r6]
 1508 0176 2060     		str	r0, [r4]
 1509              	.LVL272:
 1510 0178 3968     		ldr	r1, [r7]
ARM GAS  C:\Users\rdn\AppData\Local\Temp\ccCJgMYD.s 			page 34


 1511 017a FFF7FEFF 		bl	__aeabi_fmul
 1512              	.LVL273:
 1513 017e 0390     		str	r0, [sp, #12]
 1514              	.LVL274:
 1515 0180 009B     		ldr	r3, [sp]
 1516 0182 043B     		subs	r3, r3, #4
 1517              	.LVL275:
 1518 0184 1868     		ldr	r0, [r3]
 1519 0186 4A46     		mov	r2, r9
 1520 0188 1060     		str	r0, [r2]
 1521              	.LVL276:
 1522 018a 029A     		ldr	r2, [sp, #8]
 1523 018c 131F     		subs	r3, r2, #4
 1524              	.LVL277:
 1525 018e 1968     		ldr	r1, [r3]
 1526 0190 FFF7FEFF 		bl	__aeabi_fmul
 1527              	.LVL278:
 1528 0194 011C     		adds	r1, r0, #0
 1529 0196 0398     		ldr	r0, [sp, #12]
 1530 0198 FFF7FEFF 		bl	__aeabi_fadd
 1531              	.LVL279:
 1532 019c 5146     		mov	r1, r10
 1533 019e 0860     		str	r0, [r1]
 232:..\..\..\liblc3\src/mdct.c **** 
 233:..\..\..\liblc3\src/mdct.c ****         *(--y0) = *d0 * *(w0++) - *(--d1) * *(--w1);
 1534              		.loc 1 233 0
 1535 01a0 0820     		movs	r0, #8
 1536 01a2 4042     		rsbs	r0, r0, #0
 1537 01a4 8446     		mov	ip, r0
 1538 01a6 E344     		add	fp, fp, ip
 1539              	.LVL280:
 1540 01a8 1030     		adds	r0, r0, #16
 1541 01aa 8446     		mov	ip, r0
 1542 01ac AC44     		add	ip, ip, r5
 1543 01ae 6046     		mov	r0, ip
 1544 01b0 0390     		str	r0, [sp, #12]
 1545              	.LVL281:
 1546 01b2 6968     		ldr	r1, [r5, #4]
 1547 01b4 6068     		ldr	r0, [r4, #4]
 1548              	.LVL282:
 1549 01b6 FFF7FEFF 		bl	__aeabi_fmul
 1550              	.LVL283:
 1551 01ba 051C     		adds	r5, r0, #0
 1552 01bc 0821     		movs	r1, #8
 1553 01be 4942     		rsbs	r1, r1, #0
 1554 01c0 8C46     		mov	ip, r1
 1555 01c2 E044     		add	r8, r8, ip
 1556              	.LVL284:
 1557 01c4 0199     		ldr	r1, [sp, #4]
 1558 01c6 8946     		mov	r9, r1
 1559 01c8 E144     		add	r9, r9, ip
 1560              	.LVL285:
 1561 01ca 4946     		mov	r1, r9
 1562 01cc 0968     		ldr	r1, [r1]
 1563 01ce 4046     		mov	r0, r8
 1564 01d0 0068     		ldr	r0, [r0]
 1565 01d2 FFF7FEFF 		bl	__aeabi_fmul
ARM GAS  C:\Users\rdn\AppData\Local\Temp\ccCJgMYD.s 			page 35


 1566              	.LVL286:
 1567 01d6 011C     		adds	r1, r0, #0
 1568 01d8 281C     		adds	r0, r5, #0
 1569 01da FFF7FEFF 		bl	__aeabi_fsub
 1570              	.LVL287:
 1571 01de 5946     		mov	r1, fp
 1572 01e0 0860     		str	r0, [r1]
 234:..\..\..\liblc3\src/mdct.c ****         *(y1++) = (*(d0++) = *(x0++)) * *(w2++) + (*d1 = *(--x1)) * *(--w3);
 1573              		.loc 1 234 0
 1574 01e2 0821     		movs	r1, #8
 1575 01e4 5144     		add	r1, r1, r10
 1576 01e6 0191     		str	r1, [sp, #4]
 1577              	.LVL288:
 1578 01e8 0820     		movs	r0, #8
 1579 01ea 8446     		mov	ip, r0
 1580 01ec A444     		add	ip, ip, r4
 1581 01ee 6046     		mov	r0, ip
 1582 01f0 0490     		str	r0, [sp, #16]
 1583              	.LVL289:
 1584 01f2 0825     		movs	r5, #8
 1585 01f4 AC46     		mov	ip, r5
 1586 01f6 B444     		add	ip, ip, r6
 1587 01f8 6546     		mov	r5, ip
 1588 01fa 0595     		str	r5, [sp, #20]
 1589              	.LVL290:
 1590 01fc 7068     		ldr	r0, [r6, #4]
 1591              	.LVL291:
 1592 01fe 6060     		str	r0, [r4, #4]
 1593 0200 0824     		movs	r4, #8
 1594 0202 A446     		mov	ip, r4
 1595 0204 BC44     		add	ip, ip, r7
 1596 0206 6446     		mov	r4, ip
 1597 0208 0694     		str	r4, [sp, #24]
 1598              	.LVL292:
 1599 020a 7968     		ldr	r1, [r7, #4]
 1600              	.LVL293:
 1601 020c FFF7FEFF 		bl	__aeabi_fmul
 1602              	.LVL294:
 1603 0210 041C     		adds	r4, r0, #0
 1604              	.LVL295:
 1605 0212 009B     		ldr	r3, [sp]
 1606 0214 083B     		subs	r3, r3, #8
 1607 0216 1E00     		movs	r6, r3
 1608              	.LVL296:
 1609 0218 1868     		ldr	r0, [r3]
 1610 021a 4346     		mov	r3, r8
 1611              	.LVL297:
 1612 021c 1860     		str	r0, [r3]
 1613 021e 029A     		ldr	r2, [sp, #8]
 1614 0220 083A     		subs	r2, r2, #8
 1615 0222 1500     		movs	r5, r2
 1616              	.LVL298:
 1617 0224 1168     		ldr	r1, [r2]
 1618 0226 FFF7FEFF 		bl	__aeabi_fmul
 1619              	.LVL299:
 1620 022a 011C     		adds	r1, r0, #0
 1621 022c 201C     		adds	r0, r4, #0
ARM GAS  C:\Users\rdn\AppData\Local\Temp\ccCJgMYD.s 			page 36


 1622 022e FFF7FEFF 		bl	__aeabi_fadd
 1623              	.LVL300:
 1624 0232 5346     		mov	r3, r10
 1625 0234 5860     		str	r0, [r3, #4]
 1626 0236 049C     		ldr	r4, [sp, #16]
 1627 0238 0199     		ldr	r1, [sp, #4]
 1628 023a 8A46     		mov	r10, r1
 1629 023c 0096     		str	r6, [sp]
 1630 023e 059E     		ldr	r6, [sp, #20]
 1631              	.LVL301:
 1632 0240 0295     		str	r5, [sp, #8]
 1633 0242 069F     		ldr	r7, [sp, #24]
 233:..\..\..\liblc3\src/mdct.c ****         *(y1++) = (*(d0++) = *(x0++)) * *(w2++) + (*d1 = *(--x1)) * *(--w3);
 1634              		.loc 1 233 0
 1635 0244 4B46     		mov	r3, r9
 1636 0246 0193     		str	r3, [sp, #4]
 1637              	.LVL302:
 1638 0248 039D     		ldr	r5, [sp, #12]
 1639              	.LVL303:
 1640              	.L24:
 229:..\..\..\liblc3\src/mdct.c ****         *(--y0) = *d0 * *(w0++) - *(--d1) * *(--w1);
 1641              		.loc 1 229 0 discriminator 1
 1642 024a 009B     		ldr	r3, [sp]
 1643 024c 9E42     		cmp	r6, r3
 1644 024e 00D2     		bcs	.LCB1963
 1645 0250 79E7     		b	.L25	@long jump
 1646              	.LCB1963:
 235:..\..\..\liblc3\src/mdct.c ****     }
 236:..\..\..\liblc3\src/mdct.c **** }
 1647              		.loc 1 236 0
 1648 0252 09B0     		add	sp, sp, #36
 1649              	.LVL304:
 1650              		@ sp needed
 1651              	.LVL305:
 1652              	.LVL306:
 1653              	.LVL307:
 1654              	.LVL308:
 1655              	.LVL309:
 1656              	.LVL310:
 1657              	.LVL311:
 1658 0254 3CBC     		pop	{r2, r3, r4, r5}
 1659 0256 9046     		mov	r8, r2
 1660 0258 9946     		mov	r9, r3
 1661 025a A246     		mov	r10, r4
 1662 025c AB46     		mov	fp, r5
 1663 025e F0BD     		pop	{r4, r5, r6, r7, pc}
 1664              	.L27:
 1665              		.align	2
 1666              	.L26:
 1667 0260 00000000 		.word	lc3_mdct_win
 1668 0264 00000000 		.word	lc3_ns_2m5
 1669 0268 00000000 		.word	lc3_ns_4m
 1670              		.cfi_endproc
 1671              	.LFE24:
 1672              		.size	mdct_window, .-mdct_window
 1673              		.section	.text.mdct_pre_fft,"ax",%progbits
 1674              		.align	2
ARM GAS  C:\Users\rdn\AppData\Local\Temp\ccCJgMYD.s 			page 37


 1675              		.code	16
 1676              		.thumb_func
 1677              		.type	mdct_pre_fft, %function
 1678              	mdct_pre_fft:
 1679              	.LFB25:
 237:..\..\..\liblc3\src/mdct.c **** 
 238:..\..\..\liblc3\src/mdct.c **** /**
 239:..\..\..\liblc3\src/mdct.c ****  * Pre-rotate MDCT coefficients of N/2 points, before FFT N/4 points FFT
 240:..\..\..\liblc3\src/mdct.c ****  * def             Size and twiddles factors
 241:..\..\..\liblc3\src/mdct.c ****  * x, y            Input and output coefficients
 242:..\..\..\liblc3\src/mdct.c ****  *
 243:..\..\..\liblc3\src/mdct.c ****  * `x` and y` can be the same buffer
 244:..\..\..\liblc3\src/mdct.c ****  */
 245:..\..\..\liblc3\src/mdct.c **** LC3_HOT static void mdct_pre_fft(const struct lc3_mdct_rot_def *def,
 246:..\..\..\liblc3\src/mdct.c ****     const float *x, struct lc3_complex *y)
 247:..\..\..\liblc3\src/mdct.c **** {
 1680              		.loc 1 247 0
 1681              		.cfi_startproc
 1682              		@ args = 0, pretend = 0, frame = 48
 1683              		@ frame_needed = 0, uses_anonymous_args = 0
 1684              	.LVL312:
 1685 0000 F0B5     		push	{r4, r5, r6, r7, lr}
 1686              		.cfi_def_cfa_offset 20
 1687              		.cfi_offset 4, -20
 1688              		.cfi_offset 5, -16
 1689              		.cfi_offset 6, -12
 1690              		.cfi_offset 7, -8
 1691              		.cfi_offset 14, -4
 1692 0002 5F46     		mov	r7, fp
 1693 0004 5646     		mov	r6, r10
 1694 0006 4D46     		mov	r5, r9
 1695 0008 4446     		mov	r4, r8
 1696 000a F0B4     		push	{r4, r5, r6, r7}
 1697              		.cfi_def_cfa_offset 36
 1698              		.cfi_offset 8, -36
 1699              		.cfi_offset 9, -32
 1700              		.cfi_offset 10, -28
 1701              		.cfi_offset 11, -24
 1702 000c 8DB0     		sub	sp, sp, #52
 1703              		.cfi_def_cfa_offset 88
 1704 000e 8B46     		mov	fp, r1
 1705 0010 1600     		movs	r6, r2
 1706              	.LVL313:
 248:..\..\..\liblc3\src/mdct.c ****     int n4 = def->n4;
 249:..\..\..\liblc3\src/mdct.c **** 
 250:..\..\..\liblc3\src/mdct.c ****     const float *x0 = x, *x1 = x0 + 2*n4;
 1707              		.loc 1 250 0
 1708 0012 0368     		ldr	r3, [r0]
 1709 0014 DA00     		lsls	r2, r3, #3
 1710              	.LVL314:
 1711 0016 8C18     		adds	r4, r1, r2
 1712              	.LVL315:
 251:..\..\..\liblc3\src/mdct.c ****     const struct lc3_complex *w0 = def->w, *w1 = w0 + n4;
 1713              		.loc 1 251 0
 1714 0018 4368     		ldr	r3, [r0, #4]
 1715              	.LVL316:
 1716 001a 9F18     		adds	r7, r3, r2
ARM GAS  C:\Users\rdn\AppData\Local\Temp\ccCJgMYD.s 			page 38


 1717              	.LVL317:
 252:..\..\..\liblc3\src/mdct.c ****     struct lc3_complex *y0 = y, *y1 = y0 + n4;
 1718              		.loc 1 252 0
 1719 001c 9246     		mov	r10, r2
 1720 001e B244     		add	r10, r10, r6
 1721              	.LVL318:
 1722 0020 B846     		mov	r8, r7
 1723 0022 2700     		movs	r7, r4
 1724              	.LVL319:
 1725 0024 D146     		mov	r9, r10
 1726 0026 B246     		mov	r10, r6
 1727              	.LVL320:
 253:..\..\..\liblc3\src/mdct.c **** 
 254:..\..\..\liblc3\src/mdct.c ****     while (x0 < x1) {
 1728              		.loc 1 254 0
 1729 0028 75E0     		b	.L29
 1730              	.LVL321:
 1731              	.L30:
 1732              	.LBB54:
 255:..\..\..\liblc3\src/mdct.c ****         struct lc3_complex u, uw = *(w0++);
 1733              		.loc 1 255 0
 1734 002a 0822     		movs	r2, #8
 1735 002c 9446     		mov	ip, r2
 1736 002e 9C44     		add	ip, ip, r3
 1737 0030 6246     		mov	r2, ip
 1738 0032 0092     		str	r2, [sp]
 1739              	.LVL322:
 1740 0034 06AD     		add	r5, sp, #24
 1741 0036 2900     		movs	r1, r5
 1742 0038 11CB     		ldmia	r3!, {r0, r4}
 1743 003a 11C1     		stmia	r1!, {r0, r4}
 1744              	.LVL323:
 256:..\..\..\liblc3\src/mdct.c ****         u.re = - *(--x1) * uw.re + *x0 * uw.im;
 1745              		.loc 1 256 0
 1746 003c 3B1F     		subs	r3, r7, #4
 1747              	.LVL324:
 1748 003e 1E68     		ldr	r6, [r3]
 1749 0040 8021     		movs	r1, #128
 1750 0042 0906     		lsls	r1, r1, #24
 1751 0044 7018     		adds	r0, r6, r1
 1752 0046 069A     		ldr	r2, [sp, #24]
 1753              	.LVL325:
 1754 0048 0192     		str	r2, [sp, #4]
 1755 004a 111C     		adds	r1, r2, #0
 1756 004c FFF7FEFF 		bl	__aeabi_fmul
 1757              	.LVL326:
 1758 0050 041C     		adds	r4, r0, #0
 1759 0052 5946     		mov	r1, fp
 1760 0054 0968     		ldr	r1, [r1]
 1761 0056 0B1C     		adds	r3, r1, #0
 1762 0058 6D68     		ldr	r5, [r5, #4]
 1763 005a 291C     		adds	r1, r5, #0
 1764 005c 0293     		str	r3, [sp, #8]
 1765 005e 181C     		adds	r0, r3, #0
 1766 0060 FFF7FEFF 		bl	__aeabi_fmul
 1767              	.LVL327:
 1768 0064 011C     		adds	r1, r0, #0
ARM GAS  C:\Users\rdn\AppData\Local\Temp\ccCJgMYD.s 			page 39


 1769 0066 201C     		adds	r0, r4, #0
 1770 0068 FFF7FEFF 		bl	__aeabi_fadd
 1771              	.LVL328:
 1772 006c 04AC     		add	r4, sp, #16
 1773 006e 0490     		str	r0, [sp, #16]
 1774              	.LVL329:
 257:..\..\..\liblc3\src/mdct.c ****         u.im =   *(x0++) * uw.re + *x1 * uw.im;
 1775              		.loc 1 257 0
 1776 0070 0299     		ldr	r1, [sp, #8]
 1777 0072 0198     		ldr	r0, [sp, #4]
 1778 0074 FFF7FEFF 		bl	__aeabi_fmul
 1779              	.LVL330:
 1780 0078 0190     		str	r0, [sp, #4]
 1781 007a 291C     		adds	r1, r5, #0
 1782 007c 301C     		adds	r0, r6, #0
 1783 007e FFF7FEFF 		bl	__aeabi_fmul
 1784              	.LVL331:
 1785 0082 011C     		adds	r1, r0, #0
 1786 0084 0198     		ldr	r0, [sp, #4]
 1787 0086 FFF7FEFF 		bl	__aeabi_fadd
 1788              	.LVL332:
 1789 008a 6060     		str	r0, [r4, #4]
 258:..\..\..\liblc3\src/mdct.c **** 
 259:..\..\..\liblc3\src/mdct.c ****         struct lc3_complex v, vw = *(--w1);
 1790              		.loc 1 259 0
 1791 008c 0821     		movs	r1, #8
 1792 008e 4942     		rsbs	r1, r1, #0
 1793 0090 8C46     		mov	ip, r1
 1794 0092 E044     		add	r8, r8, ip
 1795              	.LVL333:
 1796 0094 0AAB     		add	r3, sp, #40
 1797 0096 1900     		movs	r1, r3
 1798 0098 4046     		mov	r0, r8
 1799 009a 60C8     		ldmia	r0!, {r5, r6}
 1800 009c 60C1     		stmia	r1!, {r5, r6}
 260:..\..\..\liblc3\src/mdct.c ****         v.re = - *(--x1) * vw.im + *x0 * vw.re;
 1801              		.loc 1 260 0
 1802 009e 6744     		add	r7, r7, ip
 1803              	.LVL334:
 1804 00a0 3968     		ldr	r1, [r7]
 1805 00a2 8022     		movs	r2, #128
 1806 00a4 1206     		lsls	r2, r2, #24
 1807 00a6 0191     		str	r1, [sp, #4]
 1808 00a8 8C46     		mov	ip, r1
 1809 00aa 6244     		add	r2, r2, ip
 1810 00ac 1000     		movs	r0, r2
 1811 00ae 0B9A     		ldr	r2, [sp, #44]
 1812 00b0 0292     		str	r2, [sp, #8]
 1813 00b2 111C     		adds	r1, r2, #0
 1814 00b4 FFF7FEFF 		bl	__aeabi_fmul
 1815              	.LVL335:
 1816 00b8 061C     		adds	r6, r0, #0
 1817 00ba 5D46     		mov	r5, fp
 1818 00bc 6D68     		ldr	r5, [r5, #4]
 1819 00be 0A99     		ldr	r1, [sp, #40]
 1820 00c0 0391     		str	r1, [sp, #12]
 1821 00c2 281C     		adds	r0, r5, #0
ARM GAS  C:\Users\rdn\AppData\Local\Temp\ccCJgMYD.s 			page 40


 1822 00c4 FFF7FEFF 		bl	__aeabi_fmul
 1823              	.LVL336:
 1824 00c8 011C     		adds	r1, r0, #0
 1825 00ca 301C     		adds	r0, r6, #0
 1826 00cc FFF7FEFF 		bl	__aeabi_fadd
 1827              	.LVL337:
 1828 00d0 08AE     		add	r6, sp, #32
 1829 00d2 0890     		str	r0, [sp, #32]
 261:..\..\..\liblc3\src/mdct.c ****         v.im = - *(x0++) * vw.im - *x1 * vw.re;
 1830              		.loc 1 261 0
 1831 00d4 0823     		movs	r3, #8
 1832 00d6 9C46     		mov	ip, r3
 1833 00d8 E344     		add	fp, fp, ip
 1834              	.LVL338:
 1835 00da 8023     		movs	r3, #128
 1836 00dc 1B06     		lsls	r3, r3, #24
 1837 00de E918     		adds	r1, r5, r3
 1838 00e0 0298     		ldr	r0, [sp, #8]
 1839 00e2 FFF7FEFF 		bl	__aeabi_fmul
 1840              	.LVL339:
 1841 00e6 051C     		adds	r5, r0, #0
 1842 00e8 0399     		ldr	r1, [sp, #12]
 1843 00ea 0198     		ldr	r0, [sp, #4]
 1844 00ec FFF7FEFF 		bl	__aeabi_fmul
 1845              	.LVL340:
 1846 00f0 011C     		adds	r1, r0, #0
 1847 00f2 281C     		adds	r0, r5, #0
 1848 00f4 FFF7FEFF 		bl	__aeabi_fsub
 1849              	.LVL341:
 1850 00f8 7060     		str	r0, [r6, #4]
 1851              	.LVL342:
 262:..\..\..\liblc3\src/mdct.c **** 
 263:..\..\..\liblc3\src/mdct.c ****         *(y0++) = u;
 1852              		.loc 1 263 0
 1853 00fa 5146     		mov	r1, r10
 1854 00fc 21CC     		ldmia	r4!, {r0, r5}
 1855 00fe 21C1     		stmia	r1!, {r0, r5}
 1856              	.LVL343:
 264:..\..\..\liblc3\src/mdct.c ****         *(--y1) = v;
 1857              		.loc 1 264 0
 1858 0100 0821     		movs	r1, #8
 1859              	.LVL344:
 1860 0102 4942     		rsbs	r1, r1, #0
 1861 0104 8C46     		mov	ip, r1
 1862 0106 E144     		add	r9, r9, ip
 1863              	.LVL345:
 1864 0108 4946     		mov	r1, r9
 1865 010a 11CE     		ldmia	r6!, {r0, r4}
 1866 010c 11C1     		stmia	r1!, {r0, r4}
 263:..\..\..\liblc3\src/mdct.c ****         *(--y1) = v;
 1867              		.loc 1 263 0
 1868 010e 0821     		movs	r1, #8
 1869 0110 8C46     		mov	ip, r1
 1870 0112 E244     		add	r10, r10, ip
 1871              	.LVL346:
 255:..\..\..\liblc3\src/mdct.c ****         u.re = - *(--x1) * uw.re + *x0 * uw.im;
 1872              		.loc 1 255 0
ARM GAS  C:\Users\rdn\AppData\Local\Temp\ccCJgMYD.s 			page 41


 1873 0114 009B     		ldr	r3, [sp]
 1874              	.L29:
 1875              	.LVL347:
 1876              	.LBE54:
 254:..\..\..\liblc3\src/mdct.c ****         struct lc3_complex u, uw = *(w0++);
 1877              		.loc 1 254 0
 1878 0116 BB45     		cmp	fp, r7
 1879 0118 87D3     		bcc	.L30
 265:..\..\..\liblc3\src/mdct.c ****     }
 266:..\..\..\liblc3\src/mdct.c **** }
 1880              		.loc 1 266 0
 1881 011a 0DB0     		add	sp, sp, #52
 1882              		@ sp needed
 1883              	.LVL348:
 1884              	.LVL349:
 1885              	.LVL350:
 1886              	.LVL351:
 1887              	.LVL352:
 1888 011c 3CBC     		pop	{r2, r3, r4, r5}
 1889 011e 9046     		mov	r8, r2
 1890 0120 9946     		mov	r9, r3
 1891 0122 A246     		mov	r10, r4
 1892 0124 AB46     		mov	fp, r5
 1893 0126 F0BD     		pop	{r4, r5, r6, r7, pc}
 1894              		.cfi_endproc
 1895              	.LFE25:
 1896              		.size	mdct_pre_fft, .-mdct_pre_fft
 1897              		.section	.text.mdct_post_fft,"ax",%progbits
 1898              		.align	2
 1899              		.code	16
 1900              		.thumb_func
 1901              		.type	mdct_post_fft, %function
 1902              	mdct_post_fft:
 1903              	.LFB26:
 267:..\..\..\liblc3\src/mdct.c **** 
 268:..\..\..\liblc3\src/mdct.c **** /**
 269:..\..\..\liblc3\src/mdct.c ****  * Post-rotate FFT N/4 points coefficients, resulting MDCT N points
 270:..\..\..\liblc3\src/mdct.c ****  * def             Size and twiddles factors
 271:..\..\..\liblc3\src/mdct.c ****  * x, y            Input and output coefficients
 272:..\..\..\liblc3\src/mdct.c ****  *
 273:..\..\..\liblc3\src/mdct.c ****  * `x` and y` can be the same buffer
 274:..\..\..\liblc3\src/mdct.c ****  */
 275:..\..\..\liblc3\src/mdct.c **** LC3_HOT static void mdct_post_fft(const struct lc3_mdct_rot_def *def,
 276:..\..\..\liblc3\src/mdct.c ****     const struct lc3_complex *x, float *y)
 277:..\..\..\liblc3\src/mdct.c **** {
 1904              		.loc 1 277 0
 1905              		.cfi_startproc
 1906              		@ args = 0, pretend = 0, frame = 40
 1907              		@ frame_needed = 0, uses_anonymous_args = 0
 1908              	.LVL353:
 1909 0000 F0B5     		push	{r4, r5, r6, r7, lr}
 1910              		.cfi_def_cfa_offset 20
 1911              		.cfi_offset 4, -20
 1912              		.cfi_offset 5, -16
 1913              		.cfi_offset 6, -12
 1914              		.cfi_offset 7, -8
 1915              		.cfi_offset 14, -4
ARM GAS  C:\Users\rdn\AppData\Local\Temp\ccCJgMYD.s 			page 42


 1916 0002 5F46     		mov	r7, fp
 1917 0004 5646     		mov	r6, r10
 1918 0006 4D46     		mov	r5, r9
 1919 0008 4446     		mov	r4, r8
 1920 000a F0B4     		push	{r4, r5, r6, r7}
 1921              		.cfi_def_cfa_offset 36
 1922              		.cfi_offset 8, -36
 1923              		.cfi_offset 9, -32
 1924              		.cfi_offset 10, -28
 1925              		.cfi_offset 11, -24
 1926 000c 8BB0     		sub	sp, sp, #44
 1927              		.cfi_def_cfa_offset 80
 1928 000e 9146     		mov	r9, r2
 278:..\..\..\liblc3\src/mdct.c ****     int n4 = def->n4, n8 = n4 >> 1;
 1929              		.loc 1 278 0
 1930 0010 0368     		ldr	r3, [r0]
 1931              	.LVL354:
 1932 0012 5A10     		asrs	r2, r3, #1
 1933              	.LVL355:
 279:..\..\..\liblc3\src/mdct.c **** 
 280:..\..\..\liblc3\src/mdct.c ****     const struct lc3_complex *w0 = def->w + n8, *w1 = w0 - 1;
 1934              		.loc 1 280 0
 1935 0014 4068     		ldr	r0, [r0, #4]
 1936              	.LVL356:
 1937 0016 D200     		lsls	r2, r2, #3
 1938              	.LVL357:
 1939 0018 8046     		mov	r8, r0
 1940 001a 9044     		add	r8, r8, r2
 1941              	.LVL358:
 1942 001c 0820     		movs	r0, #8
 1943 001e 4042     		rsbs	r0, r0, #0
 1944 0020 4044     		add	r0, r0, r8
 1945              	.LVL359:
 281:..\..\..\liblc3\src/mdct.c ****     const struct lc3_complex *x0 = x + n8, *x1 = x0 - 1;
 1946              		.loc 1 281 0
 1947 0022 8B46     		mov	fp, r1
 1948 0024 9344     		add	fp, fp, r2
 1949              	.LVL360:
 1950 0026 5E46     		mov	r6, fp
 1951 0028 083E     		subs	r6, r6, #8
 1952              	.LVL361:
 282:..\..\..\liblc3\src/mdct.c **** 
 283:..\..\..\liblc3\src/mdct.c ****     float *y0 = y + n4, *y1 = y0;
 1953              		.loc 1 283 0
 1954 002a 9B00     		lsls	r3, r3, #2
 1955              	.LVL362:
 1956 002c 4B44     		add	r3, r3, r9
 1957              	.LVL363:
 1958 002e 0700     		movs	r7, r0
 1959 0030 4546     		mov	r5, r8
 1960 0032 CA46     		mov	r10, r9
 1961 0034 9946     		mov	r9, r3
 1962              	.LVL364:
 1963 0036 5C46     		mov	r4, fp
 1964 0038 9846     		mov	r8, r3
 1965              	.LVL365:
 284:..\..\..\liblc3\src/mdct.c **** 
ARM GAS  C:\Users\rdn\AppData\Local\Temp\ccCJgMYD.s 			page 43


 285:..\..\..\liblc3\src/mdct.c ****     for ( ; y1 > y; x0++, x1--, w0++, w1--) {
 1966              		.loc 1 285 0
 1967 003a 59E0     		b	.L32
 1968              	.LVL366:
 1969              	.L33:
 1970              	.LBB55:
 286:..\..\..\liblc3\src/mdct.c **** 
 287:..\..\..\liblc3\src/mdct.c ****         float u0 = x0->im * w0->im + x0->re * w0->re;
 1971              		.loc 1 287 0 discriminator 2
 1972 003c 6368     		ldr	r3, [r4, #4]
 1973 003e 6A68     		ldr	r2, [r5, #4]
 1974 0040 0192     		str	r2, [sp, #4]
 1975 0042 111C     		adds	r1, r2, #0
 1976 0044 0093     		str	r3, [sp]
 1977 0046 181C     		adds	r0, r3, #0
 1978 0048 FFF7FEFF 		bl	__aeabi_fmul
 1979              	.LVL367:
 1980 004c 0490     		str	r0, [sp, #16]
 1981 004e 2168     		ldr	r1, [r4]
 1982 0050 0B1C     		adds	r3, r1, #0
 1983 0052 2968     		ldr	r1, [r5]
 1984 0054 0391     		str	r1, [sp, #12]
 1985 0056 0293     		str	r3, [sp, #8]
 1986 0058 181C     		adds	r0, r3, #0
 1987 005a FFF7FEFF 		bl	__aeabi_fmul
 1988              	.LVL368:
 1989 005e 011C     		adds	r1, r0, #0
 1990 0060 0498     		ldr	r0, [sp, #16]
 1991 0062 FFF7FEFF 		bl	__aeabi_fadd
 1992              	.LVL369:
 1993 0066 0890     		str	r0, [sp, #32]
 1994              	.LVL370:
 288:..\..\..\liblc3\src/mdct.c ****         float u1 = x1->re * w1->im - x1->im * w1->re;
 1995              		.loc 1 288 0 discriminator 2
 1996 0068 3268     		ldr	r2, [r6]
 1997 006a 7B68     		ldr	r3, [r7, #4]
 1998 006c 0593     		str	r3, [sp, #20]
 1999 006e 191C     		adds	r1, r3, #0
 2000 0070 0492     		str	r2, [sp, #16]
 2001 0072 101C     		adds	r0, r2, #0
 2002              	.LVL371:
 2003 0074 FFF7FEFF 		bl	__aeabi_fmul
 2004              	.LVL372:
 2005 0078 0990     		str	r0, [sp, #36]
 2006 007a 7268     		ldr	r2, [r6, #4]
 2007 007c 3B68     		ldr	r3, [r7]
 2008 007e 0793     		str	r3, [sp, #28]
 2009 0080 191C     		adds	r1, r3, #0
 2010 0082 0692     		str	r2, [sp, #24]
 2011 0084 101C     		adds	r0, r2, #0
 2012 0086 FFF7FEFF 		bl	__aeabi_fmul
 2013              	.LVL373:
 2014 008a 011C     		adds	r1, r0, #0
 2015 008c 0998     		ldr	r0, [sp, #36]
 2016 008e FFF7FEFF 		bl	__aeabi_fsub
 2017              	.LVL374:
 2018 0092 0990     		str	r0, [sp, #36]
ARM GAS  C:\Users\rdn\AppData\Local\Temp\ccCJgMYD.s 			page 44


 2019              	.LVL375:
 289:..\..\..\liblc3\src/mdct.c **** 
 290:..\..\..\liblc3\src/mdct.c ****         float v0 = x0->re * w0->im - x0->im * w0->re;
 2020              		.loc 1 290 0 discriminator 2
 2021 0094 0299     		ldr	r1, [sp, #8]
 2022 0096 0198     		ldr	r0, [sp, #4]
 2023              	.LVL376:
 2024 0098 FFF7FEFF 		bl	__aeabi_fmul
 2025              	.LVL377:
 2026 009c 0190     		str	r0, [sp, #4]
 2027 009e 0399     		ldr	r1, [sp, #12]
 2028 00a0 0098     		ldr	r0, [sp]
 2029 00a2 FFF7FEFF 		bl	__aeabi_fmul
 2030              	.LVL378:
 2031 00a6 011C     		adds	r1, r0, #0
 2032 00a8 0198     		ldr	r0, [sp, #4]
 2033 00aa FFF7FEFF 		bl	__aeabi_fsub
 2034              	.LVL379:
 2035 00ae 8346     		mov	fp, r0
 2036              	.LVL380:
 291:..\..\..\liblc3\src/mdct.c ****         float v1 = x1->im * w1->im + x1->re * w1->re;
 2037              		.loc 1 291 0 discriminator 2
 2038 00b0 0699     		ldr	r1, [sp, #24]
 2039 00b2 0598     		ldr	r0, [sp, #20]
 2040              	.LVL381:
 2041 00b4 FFF7FEFF 		bl	__aeabi_fmul
 2042              	.LVL382:
 2043 00b8 0090     		str	r0, [sp]
 2044 00ba 0799     		ldr	r1, [sp, #28]
 2045 00bc 0498     		ldr	r0, [sp, #16]
 2046 00be FFF7FEFF 		bl	__aeabi_fmul
 2047              	.LVL383:
 2048 00c2 011C     		adds	r1, r0, #0
 2049 00c4 0098     		ldr	r0, [sp]
 2050 00c6 FFF7FEFF 		bl	__aeabi_fadd
 2051              	.LVL384:
 292:..\..\..\liblc3\src/mdct.c **** 
 293:..\..\..\liblc3\src/mdct.c ****         *(y0++) = u0;  *(y0++) = u1;
 2052              		.loc 1 293 0 discriminator 2
 2053 00ca 4B46     		mov	r3, r9
 2054 00cc 089A     		ldr	r2, [sp, #32]
 2055 00ce 1A60     		str	r2, [r3]
 2056              	.LVL385:
 2057 00d0 099A     		ldr	r2, [sp, #36]
 2058 00d2 5A60     		str	r2, [r3, #4]
 2059              	.LVL386:
 294:..\..\..\liblc3\src/mdct.c ****         *(--y1) = v0;  *(--y1) = v1;
 2060              		.loc 1 294 0 discriminator 2
 2061 00d4 4346     		mov	r3, r8
 2062 00d6 043B     		subs	r3, r3, #4
 2063              	.LVL387:
 2064 00d8 5A46     		mov	r2, fp
 2065 00da 1A60     		str	r2, [r3]
 2066 00dc 043B     		subs	r3, r3, #4
 2067              	.LVL388:
 2068 00de 1860     		str	r0, [r3]
 2069              	.LBE55:
ARM GAS  C:\Users\rdn\AppData\Local\Temp\ccCJgMYD.s 			page 45


 285:..\..\..\liblc3\src/mdct.c **** 
 2070              		.loc 1 285 0 discriminator 2
 2071 00e0 0834     		adds	r4, r4, #8
 2072              	.LVL389:
 2073 00e2 083E     		subs	r6, r6, #8
 2074              	.LVL390:
 2075 00e4 0835     		adds	r5, r5, #8
 2076              	.LVL391:
 2077 00e6 083F     		subs	r7, r7, #8
 2078              	.LVL392:
 2079              	.LBB56:
 2080              		.loc 1 294 0 discriminator 2
 2081 00e8 9846     		mov	r8, r3
 293:..\..\..\liblc3\src/mdct.c ****         *(--y1) = v0;  *(--y1) = v1;
 2082              		.loc 1 293 0 discriminator 2
 2083 00ea 0823     		movs	r3, #8
 2084              	.LVL393:
 2085 00ec 9C46     		mov	ip, r3
 2086 00ee E144     		add	r9, r9, ip
 2087              	.LVL394:
 2088              	.L32:
 2089              	.LBE56:
 285:..\..\..\liblc3\src/mdct.c **** 
 2090              		.loc 1 285 0 discriminator 1
 2091 00f0 D045     		cmp	r8, r10
 2092 00f2 A3D8     		bhi	.L33
 295:..\..\..\liblc3\src/mdct.c ****     }
 296:..\..\..\liblc3\src/mdct.c **** }
 2093              		.loc 1 296 0
 2094 00f4 0BB0     		add	sp, sp, #44
 2095              		@ sp needed
 2096              	.LVL395:
 2097              	.LVL396:
 2098              	.LVL397:
 2099              	.LVL398:
 2100              	.LVL399:
 2101              	.LVL400:
 2102              	.LVL401:
 2103 00f6 3CBC     		pop	{r2, r3, r4, r5}
 2104 00f8 9046     		mov	r8, r2
 2105 00fa 9946     		mov	r9, r3
 2106 00fc A246     		mov	r10, r4
 2107 00fe AB46     		mov	fp, r5
 2108 0100 F0BD     		pop	{r4, r5, r6, r7, pc}
 2109              		.cfi_endproc
 2110              	.LFE26:
 2111              		.size	mdct_post_fft, .-mdct_post_fft
 2112 0102 C046     		.section	.text.imdct_pre_fft,"ax",%progbits
 2113              		.align	2
 2114              		.code	16
 2115              		.thumb_func
 2116              		.type	imdct_pre_fft, %function
 2117              	imdct_pre_fft:
 2118              	.LFB27:
 297:..\..\..\liblc3\src/mdct.c **** 
 298:..\..\..\liblc3\src/mdct.c **** /**
 299:..\..\..\liblc3\src/mdct.c ****  * Pre-rotate IMDCT coefficients of N points, before FFT N/4 points FFT
ARM GAS  C:\Users\rdn\AppData\Local\Temp\ccCJgMYD.s 			page 46


 300:..\..\..\liblc3\src/mdct.c ****  * def             Size and twiddles factors
 301:..\..\..\liblc3\src/mdct.c ****  * x, y            Input and output coefficients
 302:..\..\..\liblc3\src/mdct.c ****  *
 303:..\..\..\liblc3\src/mdct.c ****  * `x` and `y` can be the same buffer
 304:..\..\..\liblc3\src/mdct.c ****  * The real and imaginary parts of `y` are swapped,
 305:..\..\..\liblc3\src/mdct.c ****  * to operate on FFT instead of IFFT
 306:..\..\..\liblc3\src/mdct.c ****  */
 307:..\..\..\liblc3\src/mdct.c **** LC3_HOT static void imdct_pre_fft(const struct lc3_mdct_rot_def *def,
 308:..\..\..\liblc3\src/mdct.c ****     const float *x, struct lc3_complex *y)
 309:..\..\..\liblc3\src/mdct.c **** {
 2119              		.loc 1 309 0
 2120              		.cfi_startproc
 2121              		@ args = 0, pretend = 0, frame = 48
 2122              		@ frame_needed = 0, uses_anonymous_args = 0
 2123              	.LVL402:
 2124 0000 F0B5     		push	{r4, r5, r6, r7, lr}
 2125              		.cfi_def_cfa_offset 20
 2126              		.cfi_offset 4, -20
 2127              		.cfi_offset 5, -16
 2128              		.cfi_offset 6, -12
 2129              		.cfi_offset 7, -8
 2130              		.cfi_offset 14, -4
 2131 0002 5F46     		mov	r7, fp
 2132 0004 5646     		mov	r6, r10
 2133 0006 4D46     		mov	r5, r9
 2134 0008 4446     		mov	r4, r8
 2135 000a F0B4     		push	{r4, r5, r6, r7}
 2136              		.cfi_def_cfa_offset 36
 2137              		.cfi_offset 8, -36
 2138              		.cfi_offset 9, -32
 2139              		.cfi_offset 10, -28
 2140              		.cfi_offset 11, -24
 2141 000c 8DB0     		sub	sp, sp, #52
 2142              		.cfi_def_cfa_offset 88
 2143 000e 1700     		movs	r7, r2
 2144              	.LVL403:
 310:..\..\..\liblc3\src/mdct.c ****     int n4 = def->n4;
 311:..\..\..\liblc3\src/mdct.c **** 
 312:..\..\..\liblc3\src/mdct.c ****     const float *x0 = x, *x1 = x0 + 2*n4;
 2145              		.loc 1 312 0
 2146 0010 0368     		ldr	r3, [r0]
 2147 0012 DA00     		lsls	r2, r3, #3
 2148              	.LVL404:
 2149 0014 8C18     		adds	r4, r1, r2
 2150              	.LVL405:
 313:..\..\..\liblc3\src/mdct.c **** 
 314:..\..\..\liblc3\src/mdct.c ****     const struct lc3_complex *w0 = def->w, *w1 = w0 + n4;
 2151              		.loc 1 314 0
 2152 0016 4368     		ldr	r3, [r0, #4]
 2153              	.LVL406:
 2154 0018 9818     		adds	r0, r3, r2
 2155              	.LVL407:
 315:..\..\..\liblc3\src/mdct.c ****     struct lc3_complex *y0 = y, *y1 = y0 + n4;
 2156              		.loc 1 315 0
 2157 001a BD18     		adds	r5, r7, r2
 2158              	.LVL408:
 2159 001c 0600     		movs	r6, r0
ARM GAS  C:\Users\rdn\AppData\Local\Temp\ccCJgMYD.s 			page 47


 316:..\..\..\liblc3\src/mdct.c **** 
 317:..\..\..\liblc3\src/mdct.c ****     while (x0 < x1) {
 2160              		.loc 1 317 0
 2161 001e 7AE0     		b	.L35
 2162              	.LVL409:
 2163              	.L36:
 2164              	.LBB57:
 318:..\..\..\liblc3\src/mdct.c ****         float u0 = *(x0++), u1 = *(--x1);
 2165              		.loc 1 318 0
 2166 0020 0A68     		ldr	r2, [r1]
 2167 0022 9246     		mov	r10, r2
 2168              	.LVL410:
 2169 0024 221F     		subs	r2, r4, #4
 2170              	.LVL411:
 2171 0026 1268     		ldr	r2, [r2]
 2172              	.LVL412:
 2173 0028 0192     		str	r2, [sp, #4]
 2174              	.LVL413:
 319:..\..\..\liblc3\src/mdct.c ****         float v0 = *(x0++), v1 = *(--x1);
 2175              		.loc 1 319 0
 2176 002a 0820     		movs	r0, #8
 2177 002c 8446     		mov	ip, r0
 2178 002e 8C44     		add	ip, ip, r1
 2179 0030 6046     		mov	r0, ip
 2180 0032 0290     		str	r0, [sp, #8]
 2181              	.LVL414:
 2182 0034 4A68     		ldr	r2, [r1, #4]
 2183              	.LVL415:
 2184 0036 0392     		str	r2, [sp, #12]
 2185              	.LVL416:
 2186 0038 0821     		movs	r1, #8
 2187 003a 4942     		rsbs	r1, r1, #0
 2188 003c 8846     		mov	r8, r1
 2189 003e A044     		add	r8, r8, r4
 2190              	.LVL417:
 2191 0040 4446     		mov	r4, r8
 2192              	.LVL418:
 2193 0042 2468     		ldr	r4, [r4]
 2194 0044 A346     		mov	fp, r4
 2195              	.LVL419:
 320:..\..\..\liblc3\src/mdct.c ****         struct lc3_complex uw = *(w0++), vw = *(--w1);
 2196              		.loc 1 320 0
 2197 0046 0824     		movs	r4, #8
 2198              	.LVL420:
 2199 0048 A446     		mov	ip, r4
 2200 004a 9C44     		add	ip, ip, r3
 2201 004c 6446     		mov	r4, ip
 2202 004e 0494     		str	r4, [sp, #16]
 2203              	.LVL421:
 2204 0050 08AA     		add	r2, sp, #32
 2205              	.LVL422:
 2206 0052 9146     		mov	r9, r2
 2207 0054 1100     		movs	r1, r2
 2208 0056 11CB     		ldmia	r3!, {r0, r4}
 2209 0058 11C1     		stmia	r1!, {r0, r4}
 2210              	.LVL423:
 2211 005a 083E     		subs	r6, r6, #8
ARM GAS  C:\Users\rdn\AppData\Local\Temp\ccCJgMYD.s 			page 48


 2212              	.LVL424:
 2213 005c 0AAC     		add	r4, sp, #40
 2214 005e 2300     		movs	r3, r4
 2215 0060 3100     		movs	r1, r6
 2216 0062 05C9     		ldmia	r1!, {r0, r2}
 2217 0064 05C3     		stmia	r3!, {r0, r2}
 321:..\..\..\liblc3\src/mdct.c **** 
 322:..\..\..\liblc3\src/mdct.c ****         (y0  )->re = - u0 * uw.re - u1 * uw.im;
 2218              		.loc 1 322 0
 2219 0066 8022     		movs	r2, #128
 2220 0068 1206     		lsls	r2, r2, #24
 2221 006a 5244     		add	r2, r2, r10
 2222 006c 1000     		movs	r0, r2
 2223 006e 089A     		ldr	r2, [sp, #32]
 2224 0070 0592     		str	r2, [sp, #20]
 2225 0072 111C     		adds	r1, r2, #0
 2226 0074 FFF7FEFF 		bl	__aeabi_fmul
 2227              	.LVL425:
 2228 0078 0790     		str	r0, [sp, #28]
 2229 007a 4B46     		mov	r3, r9
 2230 007c 5B68     		ldr	r3, [r3, #4]
 2231 007e 0693     		str	r3, [sp, #24]
 2232 0080 191C     		adds	r1, r3, #0
 2233 0082 0198     		ldr	r0, [sp, #4]
 2234 0084 FFF7FEFF 		bl	__aeabi_fmul
 2235              	.LVL426:
 2236 0088 011C     		adds	r1, r0, #0
 2237 008a 0798     		ldr	r0, [sp, #28]
 2238 008c FFF7FEFF 		bl	__aeabi_fsub
 2239              	.LVL427:
 2240 0090 3860     		str	r0, [r7]
 323:..\..\..\liblc3\src/mdct.c ****         (y0++)->im = - u1 * uw.re + u0 * uw.im;
 2241              		.loc 1 323 0
 2242 0092 0821     		movs	r1, #8
 2243 0094 8946     		mov	r9, r1
 2244 0096 B944     		add	r9, r9, r7
 2245              	.LVL428:
 2246 0098 0199     		ldr	r1, [sp, #4]
 2247 009a 8020     		movs	r0, #128
 2248 009c 0006     		lsls	r0, r0, #24
 2249 009e 8446     		mov	ip, r0
 2250 00a0 6144     		add	r1, r1, ip
 2251 00a2 0598     		ldr	r0, [sp, #20]
 2252 00a4 FFF7FEFF 		bl	__aeabi_fmul
 2253              	.LVL429:
 2254 00a8 0190     		str	r0, [sp, #4]
 2255              	.LVL430:
 2256 00aa 0699     		ldr	r1, [sp, #24]
 2257 00ac 5046     		mov	r0, r10
 2258 00ae FFF7FEFF 		bl	__aeabi_fmul
 2259              	.LVL431:
 2260 00b2 011C     		adds	r1, r0, #0
 2261 00b4 0198     		ldr	r0, [sp, #4]
 2262 00b6 FFF7FEFF 		bl	__aeabi_fadd
 2263              	.LVL432:
 2264 00ba 7860     		str	r0, [r7, #4]
 324:..\..\..\liblc3\src/mdct.c **** 
ARM GAS  C:\Users\rdn\AppData\Local\Temp\ccCJgMYD.s 			page 49


 325:..\..\..\liblc3\src/mdct.c ****         (--y1)->re = - v1 * vw.re - v0 * vw.im;
 2265              		.loc 1 325 0
 2266 00bc 083D     		subs	r5, r5, #8
 2267              	.LVL433:
 2268 00be 8022     		movs	r2, #128
 2269 00c0 1206     		lsls	r2, r2, #24
 2270 00c2 5A44     		add	r2, r2, fp
 2271 00c4 1000     		movs	r0, r2
 2272 00c6 0A9F     		ldr	r7, [sp, #40]
 2273 00c8 391C     		adds	r1, r7, #0
 2274 00ca FFF7FEFF 		bl	__aeabi_fmul
 2275              	.LVL434:
 2276 00ce 0190     		str	r0, [sp, #4]
 2277 00d0 6468     		ldr	r4, [r4, #4]
 2278 00d2 211C     		adds	r1, r4, #0
 2279 00d4 039A     		ldr	r2, [sp, #12]
 2280 00d6 9246     		mov	r10, r2
 2281              	.LVL435:
 2282 00d8 101C     		adds	r0, r2, #0
 2283 00da FFF7FEFF 		bl	__aeabi_fmul
 2284              	.LVL436:
 2285 00de 011C     		adds	r1, r0, #0
 2286 00e0 0198     		ldr	r0, [sp, #4]
 2287 00e2 FFF7FEFF 		bl	__aeabi_fsub
 2288              	.LVL437:
 2289 00e6 2860     		str	r0, [r5]
 326:..\..\..\liblc3\src/mdct.c ****         (  y1)->im = - v0 * vw.re + v1 * vw.im;
 2290              		.loc 1 326 0
 2291 00e8 5246     		mov	r2, r10
 2292 00ea 8023     		movs	r3, #128
 2293 00ec 1B06     		lsls	r3, r3, #24
 2294 00ee 9C46     		mov	ip, r3
 2295 00f0 6244     		add	r2, r2, ip
 2296 00f2 1100     		movs	r1, r2
 2297 00f4 381C     		adds	r0, r7, #0
 2298 00f6 FFF7FEFF 		bl	__aeabi_fmul
 2299              	.LVL438:
 2300 00fa 071C     		adds	r7, r0, #0
 2301 00fc 211C     		adds	r1, r4, #0
 2302 00fe 5846     		mov	r0, fp
 2303 0100 FFF7FEFF 		bl	__aeabi_fmul
 2304              	.LVL439:
 2305 0104 011C     		adds	r1, r0, #0
 2306 0106 381C     		adds	r0, r7, #0
 2307 0108 FFF7FEFF 		bl	__aeabi_fadd
 2308              	.LVL440:
 2309 010c 6860     		str	r0, [r5, #4]
 323:..\..\..\liblc3\src/mdct.c ****         (y0++)->im = - u1 * uw.re + u0 * uw.im;
 2310              		.loc 1 323 0
 2311 010e 4F46     		mov	r7, r9
 320:..\..\..\liblc3\src/mdct.c **** 
 2312              		.loc 1 320 0
 2313 0110 049B     		ldr	r3, [sp, #16]
 319:..\..\..\liblc3\src/mdct.c ****         struct lc3_complex uw = *(w0++), vw = *(--w1);
 2314              		.loc 1 319 0
 2315 0112 4446     		mov	r4, r8
 2316 0114 0299     		ldr	r1, [sp, #8]
ARM GAS  C:\Users\rdn\AppData\Local\Temp\ccCJgMYD.s 			page 50


 2317              	.LVL441:
 2318              	.L35:
 2319              	.LBE57:
 317:..\..\..\liblc3\src/mdct.c ****         float u0 = *(x0++), u1 = *(--x1);
 2320              		.loc 1 317 0
 2321 0116 A142     		cmp	r1, r4
 2322 0118 82D3     		bcc	.L36
 327:..\..\..\liblc3\src/mdct.c ****     }
 328:..\..\..\liblc3\src/mdct.c **** }
 2323              		.loc 1 328 0
 2324 011a 0DB0     		add	sp, sp, #52
 2325              		@ sp needed
 2326              	.LVL442:
 2327              	.LVL443:
 2328              	.LVL444:
 2329              	.LVL445:
 2330 011c 3CBC     		pop	{r2, r3, r4, r5}
 2331 011e 9046     		mov	r8, r2
 2332 0120 9946     		mov	r9, r3
 2333 0122 A246     		mov	r10, r4
 2334 0124 AB46     		mov	fp, r5
 2335 0126 F0BD     		pop	{r4, r5, r6, r7, pc}
 2336              		.cfi_endproc
 2337              	.LFE27:
 2338              		.size	imdct_pre_fft, .-imdct_pre_fft
 2339              		.section	.text.imdct_post_fft,"ax",%progbits
 2340              		.align	2
 2341              		.code	16
 2342              		.thumb_func
 2343              		.type	imdct_post_fft, %function
 2344              	imdct_post_fft:
 2345              	.LFB28:
 329:..\..\..\liblc3\src/mdct.c **** 
 330:..\..\..\liblc3\src/mdct.c **** /**
 331:..\..\..\liblc3\src/mdct.c ****  * Post-rotate FFT N/4 points coefficients, resulting IMDCT N points
 332:..\..\..\liblc3\src/mdct.c ****  * def             Size and twiddles factors
 333:..\..\..\liblc3\src/mdct.c ****  * x, y            Input and output coefficients
 334:..\..\..\liblc3\src/mdct.c ****  *
 335:..\..\..\liblc3\src/mdct.c ****  * `x` and y` can be the same buffer
 336:..\..\..\liblc3\src/mdct.c ****  * The real and imaginary parts of `x` are swapped,
 337:..\..\..\liblc3\src/mdct.c ****  * to operate on FFT instead of IFFT
 338:..\..\..\liblc3\src/mdct.c ****  */
 339:..\..\..\liblc3\src/mdct.c **** LC3_HOT static void imdct_post_fft(const struct lc3_mdct_rot_def *def,
 340:..\..\..\liblc3\src/mdct.c ****     const struct lc3_complex *x, float *y)
 341:..\..\..\liblc3\src/mdct.c **** {
 2346              		.loc 1 341 0
 2347              		.cfi_startproc
 2348              		@ args = 0, pretend = 0, frame = 56
 2349              		@ frame_needed = 0, uses_anonymous_args = 0
 2350              	.LVL446:
 2351 0000 F0B5     		push	{r4, r5, r6, r7, lr}
 2352              		.cfi_def_cfa_offset 20
 2353              		.cfi_offset 4, -20
 2354              		.cfi_offset 5, -16
 2355              		.cfi_offset 6, -12
 2356              		.cfi_offset 7, -8
 2357              		.cfi_offset 14, -4
ARM GAS  C:\Users\rdn\AppData\Local\Temp\ccCJgMYD.s 			page 51


 2358 0002 5F46     		mov	r7, fp
 2359 0004 5646     		mov	r6, r10
 2360 0006 4D46     		mov	r5, r9
 2361 0008 4446     		mov	r4, r8
 2362 000a F0B4     		push	{r4, r5, r6, r7}
 2363              		.cfi_def_cfa_offset 36
 2364              		.cfi_offset 8, -36
 2365              		.cfi_offset 9, -32
 2366              		.cfi_offset 10, -28
 2367              		.cfi_offset 11, -24
 2368 000c 8FB0     		sub	sp, sp, #60
 2369              		.cfi_def_cfa_offset 96
 2370 000e 9346     		mov	fp, r2
 342:..\..\..\liblc3\src/mdct.c ****     int n4 = def->n4;
 2371              		.loc 1 342 0
 2372 0010 0268     		ldr	r2, [r0]
 2373              	.LVL447:
 343:..\..\..\liblc3\src/mdct.c **** 
 344:..\..\..\liblc3\src/mdct.c ****     const struct lc3_complex *w0 = def->w, *w1 = w0 + n4;
 2374              		.loc 1 344 0
 2375 0012 4368     		ldr	r3, [r0, #4]
 2376              	.LVL448:
 2377 0014 D200     		lsls	r2, r2, #3
 2378              	.LVL449:
 2379 0016 9E18     		adds	r6, r3, r2
 2380              	.LVL450:
 345:..\..\..\liblc3\src/mdct.c ****     const struct lc3_complex *x0 = x, *x1 = x0 + n4;
 2381              		.loc 1 345 0
 2382 0018 8F18     		adds	r7, r1, r2
 2383              	.LVL451:
 346:..\..\..\liblc3\src/mdct.c **** 
 347:..\..\..\liblc3\src/mdct.c ****     float *y0 = y, *y1 = y0 + 2*n4;
 2384              		.loc 1 347 0
 2385 001a 5A44     		add	r2, r2, fp
 2386 001c 1400     		movs	r4, r2
 2387              	.LVL452:
 2388 001e B246     		mov	r10, r6
 2389 0020 B846     		mov	r8, r7
 348:..\..\..\liblc3\src/mdct.c **** 
 349:..\..\..\liblc3\src/mdct.c ****     while (x0 < x1) {
 2390              		.loc 1 349 0
 2391 0022 72E0     		b	.L38
 2392              	.LVL453:
 2393              	.L39:
 2394              	.LBB58:
 350:..\..\..\liblc3\src/mdct.c ****         struct lc3_complex uz = *(x0++), vz = *(--x1);
 2395              		.loc 1 350 0
 2396 0024 0822     		movs	r2, #8
 2397 0026 9446     		mov	ip, r2
 2398 0028 8C44     		add	ip, ip, r1
 2399 002a 6246     		mov	r2, ip
 2400 002c 0192     		str	r2, [sp, #4]
 2401              	.LVL454:
 2402 002e 06AD     		add	r5, sp, #24
 2403 0030 2800     		movs	r0, r5
 2404 0032 C0C9     		ldmia	r1!, {r6, r7}
 2405 0034 C0C0     		stmia	r0!, {r6, r7}
ARM GAS  C:\Users\rdn\AppData\Local\Temp\ccCJgMYD.s 			page 52


 2406 0036 0820     		movs	r0, #8
 2407 0038 4042     		rsbs	r0, r0, #0
 2408 003a 8446     		mov	ip, r0
 2409 003c E044     		add	r8, r8, ip
 2410              	.LVL455:
 2411 003e 08AA     		add	r2, sp, #32
 2412              	.LVL456:
 2413 0040 9146     		mov	r9, r2
 2414 0042 1000     		movs	r0, r2
 2415 0044 4746     		mov	r7, r8
 2416 0046 06CF     		ldmia	r7!, {r1, r2}
 2417 0048 06C0     		stmia	r0!, {r1, r2}
 2418              	.LVL457:
 351:..\..\..\liblc3\src/mdct.c ****         struct lc3_complex uw = *(w0++), vw = *(--w1);
 2419              		.loc 1 351 0
 2420 004a 0820     		movs	r0, #8
 2421 004c 8446     		mov	ip, r0
 2422 004e 9C44     		add	ip, ip, r3
 2423 0050 6046     		mov	r0, ip
 2424 0052 0290     		str	r0, [sp, #8]
 2425              	.LVL458:
 2426 0054 0AAA     		add	r2, sp, #40
 2427 0056 1700     		movs	r7, r2
 2428 0058 03CB     		ldmia	r3!, {r0, r1}
 2429 005a 03C7     		stmia	r7!, {r0, r1}
 2430              	.LVL459:
 2431 005c 0827     		movs	r7, #8
 2432 005e 7F42     		rsbs	r7, r7, #0
 2433 0060 BC46     		mov	ip, r7
 2434              	.LVL460:
 2435 0062 E244     		add	r10, r10, ip
 2436              	.LVL461:
 2437 0064 0CAF     		add	r7, sp, #48
 2438 0066 3B00     		movs	r3, r7
 2439              	.LVL462:
 2440 0068 5146     		mov	r1, r10
 2441 006a 41C9     		ldmia	r1!, {r0, r6}
 2442 006c 41C3     		stmia	r3!, {r0, r6}
 2443              	.LVL463:
 352:..\..\..\liblc3\src/mdct.c **** 
 353:..\..\..\liblc3\src/mdct.c ****         *(y0++) = uz.re * uw.im - uz.im * uw.re;
 2444              		.loc 1 353 0
 2445 006e 0698     		ldr	r0, [sp, #24]
 2446 0070 0B9A     		ldr	r2, [sp, #44]
 2447 0072 0492     		str	r2, [sp, #16]
 2448 0074 111C     		adds	r1, r2, #0
 2449 0076 0390     		str	r0, [sp, #12]
 2450 0078 FFF7FEFF 		bl	__aeabi_fmul
 2451              	.LVL464:
 2452 007c 0590     		str	r0, [sp, #20]
 2453 007e 6D68     		ldr	r5, [r5, #4]
 2454 0080 2E1C     		adds	r6, r5, #0
 2455 0082 0A9D     		ldr	r5, [sp, #40]
 2456 0084 291C     		adds	r1, r5, #0
 2457 0086 301C     		adds	r0, r6, #0
 2458 0088 FFF7FEFF 		bl	__aeabi_fmul
 2459              	.LVL465:
ARM GAS  C:\Users\rdn\AppData\Local\Temp\ccCJgMYD.s 			page 53


 2460 008c 011C     		adds	r1, r0, #0
 2461 008e 0598     		ldr	r0, [sp, #20]
 2462 0090 FFF7FEFF 		bl	__aeabi_fsub
 2463              	.LVL466:
 2464 0094 5B46     		mov	r3, fp
 2465 0096 1860     		str	r0, [r3]
 2466              	.LVL467:
 354:..\..\..\liblc3\src/mdct.c ****         *(--y1) = uz.re * uw.re + uz.im * uw.im;
 2467              		.loc 1 354 0
 2468 0098 291C     		adds	r1, r5, #0
 2469 009a 0398     		ldr	r0, [sp, #12]
 2470 009c FFF7FEFF 		bl	__aeabi_fmul
 2471              	.LVL468:
 2472 00a0 051C     		adds	r5, r0, #0
 2473 00a2 311C     		adds	r1, r6, #0
 2474 00a4 0498     		ldr	r0, [sp, #16]
 2475 00a6 FFF7FEFF 		bl	__aeabi_fmul
 2476              	.LVL469:
 2477 00aa 011C     		adds	r1, r0, #0
 2478 00ac 281C     		adds	r0, r5, #0
 2479 00ae FFF7FEFF 		bl	__aeabi_fadd
 2480              	.LVL470:
 2481 00b2 231F     		subs	r3, r4, #4
 2482              	.LVL471:
 2483 00b4 1860     		str	r0, [r3]
 355:..\..\..\liblc3\src/mdct.c **** 
 356:..\..\..\liblc3\src/mdct.c ****         *(--y1) = vz.re * vw.im - vz.im * vw.re;
 2484              		.loc 1 356 0
 2485 00b6 083C     		subs	r4, r4, #8
 2486              	.LVL472:
 2487 00b8 089A     		ldr	r2, [sp, #32]
 2488 00ba 7D68     		ldr	r5, [r7, #4]
 2489 00bc 291C     		adds	r1, r5, #0
 2490 00be 0392     		str	r2, [sp, #12]
 2491 00c0 101C     		adds	r0, r2, #0
 2492 00c2 FFF7FEFF 		bl	__aeabi_fmul
 2493              	.LVL473:
 2494 00c6 0490     		str	r0, [sp, #16]
 2495 00c8 4A46     		mov	r2, r9
 2496 00ca 5668     		ldr	r6, [r2, #4]
 2497 00cc 0C9F     		ldr	r7, [sp, #48]
 2498 00ce 391C     		adds	r1, r7, #0
 2499 00d0 301C     		adds	r0, r6, #0
 2500 00d2 FFF7FEFF 		bl	__aeabi_fmul
 2501              	.LVL474:
 2502 00d6 011C     		adds	r1, r0, #0
 2503 00d8 0498     		ldr	r0, [sp, #16]
 2504 00da FFF7FEFF 		bl	__aeabi_fsub
 2505              	.LVL475:
 2506 00de 2060     		str	r0, [r4]
 357:..\..\..\liblc3\src/mdct.c ****         *(y0++) = vz.re * vw.re + vz.im * vw.im;
 2507              		.loc 1 357 0
 2508 00e0 0823     		movs	r3, #8
 2509 00e2 5B44     		add	r3, r3, fp
 2510 00e4 9946     		mov	r9, r3
 2511              	.LVL476:
 2512 00e6 391C     		adds	r1, r7, #0
ARM GAS  C:\Users\rdn\AppData\Local\Temp\ccCJgMYD.s 			page 54


 2513 00e8 0398     		ldr	r0, [sp, #12]
 2514 00ea FFF7FEFF 		bl	__aeabi_fmul
 2515              	.LVL477:
 2516 00ee 071C     		adds	r7, r0, #0
 2517 00f0 311C     		adds	r1, r6, #0
 2518 00f2 281C     		adds	r0, r5, #0
 2519 00f4 FFF7FEFF 		bl	__aeabi_fmul
 2520              	.LVL478:
 2521 00f8 011C     		adds	r1, r0, #0
 2522 00fa 381C     		adds	r0, r7, #0
 2523 00fc FFF7FEFF 		bl	__aeabi_fadd
 2524              	.LVL479:
 2525 0100 5D46     		mov	r5, fp
 2526 0102 6860     		str	r0, [r5, #4]
 2527 0104 CB46     		mov	fp, r9
 350:..\..\..\liblc3\src/mdct.c ****         struct lc3_complex uw = *(w0++), vw = *(--w1);
 2528              		.loc 1 350 0
 2529 0106 0199     		ldr	r1, [sp, #4]
 351:..\..\..\liblc3\src/mdct.c **** 
 2530              		.loc 1 351 0
 2531 0108 029B     		ldr	r3, [sp, #8]
 2532              	.LVL480:
 2533              	.L38:
 2534              	.LBE58:
 349:..\..\..\liblc3\src/mdct.c ****         struct lc3_complex uz = *(x0++), vz = *(--x1);
 2535              		.loc 1 349 0
 2536 010a 4145     		cmp	r1, r8
 2537 010c 8AD3     		bcc	.L39
 358:..\..\..\liblc3\src/mdct.c ****     }
 359:..\..\..\liblc3\src/mdct.c **** }
 2538              		.loc 1 359 0
 2539 010e 0FB0     		add	sp, sp, #60
 2540              		@ sp needed
 2541              	.LVL481:
 2542              	.LVL482:
 2543              	.LVL483:
 2544              	.LVL484:
 2545 0110 3CBC     		pop	{r2, r3, r4, r5}
 2546 0112 9046     		mov	r8, r2
 2547 0114 9946     		mov	r9, r3
 2548 0116 A246     		mov	r10, r4
 2549 0118 AB46     		mov	fp, r5
 2550 011a F0BD     		pop	{r4, r5, r6, r7, pc}
 2551              		.cfi_endproc
 2552              	.LFE28:
 2553              		.size	imdct_post_fft, .-imdct_post_fft
 2554              		.section	.text.imdct_window,"ax",%progbits
 2555              		.align	2
 2556              		.code	16
 2557              		.thumb_func
 2558              		.type	imdct_window, %function
 2559              	imdct_window:
 2560              	.LFB29:
 360:..\..\..\liblc3\src/mdct.c **** 
 361:..\..\..\liblc3\src/mdct.c **** /**
 362:..\..\..\liblc3\src/mdct.c ****  * Apply windowing of samples
 363:..\..\..\liblc3\src/mdct.c ****  * dt, sr          Duration and samplerate
ARM GAS  C:\Users\rdn\AppData\Local\Temp\ccCJgMYD.s 			page 55


 364:..\..\..\liblc3\src/mdct.c ****  * x, d            Middle half of IMDCT coefficients and delayed samples
 365:..\..\..\liblc3\src/mdct.c ****  * y, d            Output samples and delayed ones
 366:..\..\..\liblc3\src/mdct.c ****  */
 367:..\..\..\liblc3\src/mdct.c **** LC3_HOT static void imdct_window(
 368:..\..\..\liblc3\src/mdct.c ****     enum lc3_dt dt, enum lc3_srate sr,
 369:..\..\..\liblc3\src/mdct.c ****     const float *x, float *d, float *y)
 370:..\..\..\liblc3\src/mdct.c **** {
 2561              		.loc 1 370 0
 2562              		.cfi_startproc
 2563              		@ args = 4, pretend = 0, frame = 32
 2564              		@ frame_needed = 0, uses_anonymous_args = 0
 2565              	.LVL485:
 2566 0000 F0B5     		push	{r4, r5, r6, r7, lr}
 2567              		.cfi_def_cfa_offset 20
 2568              		.cfi_offset 4, -20
 2569              		.cfi_offset 5, -16
 2570              		.cfi_offset 6, -12
 2571              		.cfi_offset 7, -8
 2572              		.cfi_offset 14, -4
 2573 0002 5F46     		mov	r7, fp
 2574 0004 5646     		mov	r6, r10
 2575 0006 4D46     		mov	r5, r9
 2576 0008 4446     		mov	r4, r8
 2577 000a F0B4     		push	{r4, r5, r6, r7}
 2578              		.cfi_def_cfa_offset 36
 2579              		.cfi_offset 8, -36
 2580              		.cfi_offset 9, -32
 2581              		.cfi_offset 10, -28
 2582              		.cfi_offset 11, -24
 2583 000c 89B0     		sub	sp, sp, #36
 2584              		.cfi_def_cfa_offset 72
 2585 000e 1400     		movs	r4, r2
 2586 0010 9A46     		mov	r10, r3
 371:..\..\..\liblc3\src/mdct.c ****     /* The full MDCT coefficients is given by symmetry :
 372:..\..\..\liblc3\src/mdct.c ****      *   T[   0 ..  n/4-1] = -half[n/4-1 .. 0    ]
 373:..\..\..\liblc3\src/mdct.c ****      *   T[ n/4 ..  n/2-1] =  half[0     .. n/4-1]
 374:..\..\..\liblc3\src/mdct.c ****      *   T[ n/2 .. 3n/4-1] =  half[n/4   .. n/2-1]
 375:..\..\..\liblc3\src/mdct.c ****      *   T[3n/4 ..    n-1] =  half[n/2-1 .. n/4  ]  */
 376:..\..\..\liblc3\src/mdct.c **** 
 377:..\..\..\liblc3\src/mdct.c ****     const float *win = lc3_mdct_win[dt][sr];
 2587              		.loc 1 377 0
 2588 0012 C300     		lsls	r3, r0, #3
 2589              	.LVL486:
 2590 0014 1B1A     		subs	r3, r3, r0
 2591 0016 5B18     		adds	r3, r3, r1
 2592 0018 9B00     		lsls	r3, r3, #2
 2593 001a 924A     		ldr	r2, .L50
 2594              	.LVL487:
 2595 001c 9F58     		ldr	r7, [r3, r2]
 2596              	.LVL488:
 2597              	.LBB59:
 2598              	.LBB60:
  47:..\..\..\liblc3\src/tables.h **** }
 2599              		.loc 2 47 0
 2600 001e 8A00     		lsls	r2, r1, #2
 2601 0020 914B     		ldr	r3, .L50+4
 2602 0022 D558     		ldr	r5, [r2, r3]
ARM GAS  C:\Users\rdn\AppData\Local\Temp\ccCJgMYD.s 			page 56


 2603 0024 421C     		adds	r2, r0, #1
 2604 0026 1300     		movs	r3, r2
 2605 0028 6B43     		muls	r3, r5
 2606              	.LVL489:
 2607              	.LBE60:
 2608              	.LBE59:
 378:..\..\..\liblc3\src/mdct.c ****     int n4 = lc3_ns(dt, sr) >> 1, nd = lc3_nd(dt, sr);
 2609              		.loc 1 378 0
 2610 002a 5A10     		asrs	r2, r3, #1
 2611 002c 0392     		str	r2, [sp, #12]
 2612              	.LVL490:
 2613              	.LBB61:
 2614              	.LBB62:
 2615              		.loc 2 56 0
 2616 002e 0228     		cmp	r0, #2
 2617 0030 02D1     		bne	.L41
 2618 0032 8900     		lsls	r1, r1, #2
 2619              	.LVL491:
 2620 0034 8D4A     		ldr	r2, .L50+8
 2621              	.LVL492:
 2622 0036 8D58     		ldr	r5, [r1, r2]
 2623              	.L41:
  55:..\..\..\liblc3\src/tables.h ****         (dt == LC3_DT_7M5 ? lc3_ns_4m[sr] : lc3_ns_2m5[sr]) ) >> 1;
 2624              		.loc 2 55 0
 2625 0038 EB18     		adds	r3, r5, r3
 2626 003a 5B10     		asrs	r3, r3, #1
 2627              	.LVL493:
 2628              	.LBE62:
 2629              	.LBE61:
 379:..\..\..\liblc3\src/mdct.c ****     const float *w2 = win, *w0 = w2 + 3*n4, *w1 = w0;
 2630              		.loc 1 379 0
 2631 003c 0398     		ldr	r0, [sp, #12]
 2632              	.LVL494:
 2633 003e 4200     		lsls	r2, r0, #1
 2634 0040 8446     		mov	ip, r0
 2635 0042 6244     		add	r2, r2, ip
 2636 0044 9100     		lsls	r1, r2, #2
 2637 0046 8846     		mov	r8, r1
 2638 0048 B844     		add	r8, r8, r7
 2639              	.LVL495:
 380:..\..\..\liblc3\src/mdct.c **** 
 381:..\..\..\liblc3\src/mdct.c ****     const float *x0 = d + nd-n4, *x1 = x0;
 2640              		.loc 1 381 0
 2641 004a 1E1A     		subs	r6, r3, r0
 2642 004c B600     		lsls	r6, r6, #2
 2643 004e 3200     		movs	r2, r6
 2644 0050 5244     		add	r2, r2, r10
 2645              	.LVL496:
 382:..\..\..\liblc3\src/mdct.c ****     float *y0 = y + nd-n4, *y1 = y0, *y2 = d + nd, *y3 = d;
 2646              		.loc 1 382 0
 2647 0052 3100     		movs	r1, r6
 2648 0054 1298     		ldr	r0, [sp, #72]
 2649 0056 8446     		mov	ip, r0
 2650 0058 6144     		add	r1, r1, ip
 2651              	.LVL497:
 2652 005a 9B00     		lsls	r3, r3, #2
 2653 005c 0593     		str	r3, [sp, #20]
ARM GAS  C:\Users\rdn\AppData\Local\Temp\ccCJgMYD.s 			page 57


 2654 005e 5344     		add	r3, r3, r10
 2655 0060 0493     		str	r3, [sp, #16]
 2656              	.LVL498:
 381:..\..\..\liblc3\src/mdct.c ****     float *y0 = y + nd-n4, *y1 = y0, *y2 = d + nd, *y3 = d;
 2657              		.loc 1 381 0
 2658 0062 1300     		movs	r3, r2
 2659              	.LVL499:
 2660 0064 0697     		str	r7, [sp, #24]
 2661 0066 4746     		mov	r7, r8
 2662              	.LVL500:
 2663 0068 9146     		mov	r9, r2
 2664 006a 0D00     		movs	r5, r1
 2665 006c 1E00     		movs	r6, r3
 2666 006e C346     		mov	fp, r8
 2667 0070 5346     		mov	r3, r10
 2668 0072 0793     		str	r3, [sp, #28]
 2669 0074 8846     		mov	r8, r1
 2670              	.LVL501:
 383:..\..\..\liblc3\src/mdct.c **** 
 384:..\..\..\liblc3\src/mdct.c ****     while (y0 > y) {
 2671              		.loc 1 384 0
 2672 0076 4DE0     		b	.L42
 2673              	.LVL502:
 2674              	.L43:
 385:..\..\..\liblc3\src/mdct.c ****         *(--y0) = *(--x0) - *(x  ) * *(w1++);
 2675              		.loc 1 385 0
 2676 0078 4B46     		mov	r3, r9
 2677 007a 043B     		subs	r3, r3, #4
 2678              	.LVL503:
 2679 007c 1B68     		ldr	r3, [r3]
 2680              	.LVL504:
 2681 007e 9A46     		mov	r10, r3
 2682              	.LVL505:
 2683 0080 3968     		ldr	r1, [r7]
 2684 0082 2068     		ldr	r0, [r4]
 2685 0084 FFF7FEFF 		bl	__aeabi_fmul
 2686              	.LVL506:
 2687 0088 011C     		adds	r1, r0, #0
 2688 008a 5046     		mov	r0, r10
 2689 008c FFF7FEFF 		bl	__aeabi_fsub
 2690              	.LVL507:
 2691 0090 2B1F     		subs	r3, r5, #4
 2692              	.LVL508:
 2693 0092 1860     		str	r0, [r3]
 2694              	.LVL509:
 386:..\..\..\liblc3\src/mdct.c ****         *(y1++) = *(x1++) + *(x++) * *(--w0);
 2695              		.loc 1 386 0
 2696 0094 3368     		ldr	r3, [r6]
 2697              	.LVL510:
 2698 0096 9A46     		mov	r10, r3
 2699              	.LVL511:
 2700 0098 5B46     		mov	r3, fp
 2701 009a 043B     		subs	r3, r3, #4
 2702              	.LVL512:
 2703 009c 1968     		ldr	r1, [r3]
 2704 009e 2068     		ldr	r0, [r4]
 2705 00a0 FFF7FEFF 		bl	__aeabi_fmul
ARM GAS  C:\Users\rdn\AppData\Local\Temp\ccCJgMYD.s 			page 58


 2706              	.LVL513:
 2707 00a4 011C     		adds	r1, r0, #0
 2708 00a6 5046     		mov	r0, r10
 2709 00a8 FFF7FEFF 		bl	__aeabi_fadd
 2710              	.LVL514:
 2711 00ac 4346     		mov	r3, r8
 2712 00ae 1860     		str	r0, [r3]
 387:..\..\..\liblc3\src/mdct.c **** 
 388:..\..\..\liblc3\src/mdct.c ****         *(--y0) = *(--x0) - *(x  ) * *(w1++);
 2713              		.loc 1 388 0
 2714 00b0 083D     		subs	r5, r5, #8
 2715              	.LVL515:
 2716 00b2 0823     		movs	r3, #8
 2717 00b4 5B42     		rsbs	r3, r3, #0
 2718 00b6 9C46     		mov	ip, r3
 2719 00b8 E144     		add	r9, r9, ip
 2720              	.LVL516:
 2721 00ba 4B46     		mov	r3, r9
 2722 00bc 1B68     		ldr	r3, [r3]
 2723 00be 9A46     		mov	r10, r3
 2724 00c0 0823     		movs	r3, #8
 2725 00c2 9C46     		mov	ip, r3
 2726 00c4 BC44     		add	ip, ip, r7
 2727 00c6 6346     		mov	r3, ip
 2728 00c8 0193     		str	r3, [sp, #4]
 2729              	.LVL517:
 2730 00ca 7968     		ldr	r1, [r7, #4]
 2731 00cc 6068     		ldr	r0, [r4, #4]
 2732 00ce FFF7FEFF 		bl	__aeabi_fmul
 2733              	.LVL518:
 2734 00d2 011C     		adds	r1, r0, #0
 2735 00d4 5046     		mov	r0, r10
 2736 00d6 FFF7FEFF 		bl	__aeabi_fsub
 2737              	.LVL519:
 2738 00da 2860     		str	r0, [r5]
 389:..\..\..\liblc3\src/mdct.c ****         *(y1++) = *(x1++) + *(x++) * *(--w0);
 2739              		.loc 1 389 0
 2740 00dc 0823     		movs	r3, #8
 2741 00de 4344     		add	r3, r3, r8
 2742 00e0 0293     		str	r3, [sp, #8]
 2743              	.LVL520:
 2744 00e2 3200     		movs	r2, r6
 2745 00e4 0832     		adds	r2, r2, #8
 2746 00e6 1700     		movs	r7, r2
 2747              	.LVL521:
 2748 00e8 7668     		ldr	r6, [r6, #4]
 2749 00ea 0822     		movs	r2, #8
 2750              	.LVL522:
 2751 00ec 9246     		mov	r10, r2
 2752 00ee A244     		add	r10, r10, r4
 2753              	.LVL523:
 2754 00f0 6068     		ldr	r0, [r4, #4]
 2755 00f2 5C46     		mov	r4, fp
 2756 00f4 083C     		subs	r4, r4, #8
 2757              	.LVL524:
 2758 00f6 2168     		ldr	r1, [r4]
 2759 00f8 FFF7FEFF 		bl	__aeabi_fmul
ARM GAS  C:\Users\rdn\AppData\Local\Temp\ccCJgMYD.s 			page 59


 2760              	.LVL525:
 2761 00fc 011C     		adds	r1, r0, #0
 2762 00fe 301C     		adds	r0, r6, #0
 2763 0100 FFF7FEFF 		bl	__aeabi_fadd
 2764              	.LVL526:
 2765 0104 4246     		mov	r2, r8
 2766 0106 5060     		str	r0, [r2, #4]
 2767 0108 029B     		ldr	r3, [sp, #8]
 2768 010a 9846     		mov	r8, r3
 2769 010c 3E00     		movs	r6, r7
 388:..\..\..\liblc3\src/mdct.c ****         *(y1++) = *(x1++) + *(x++) * *(--w0);
 2770              		.loc 1 388 0
 2771 010e 019F     		ldr	r7, [sp, #4]
 2772              	.LVL527:
 2773              		.loc 1 389 0
 2774 0110 A346     		mov	fp, r4
 2775 0112 5446     		mov	r4, r10
 2776              	.LVL528:
 2777              	.L42:
 384:..\..\..\liblc3\src/mdct.c ****         *(--y0) = *(--x0) - *(x  ) * *(w1++);
 2778              		.loc 1 384 0
 2779 0114 129B     		ldr	r3, [sp, #72]
 2780 0116 9D42     		cmp	r5, r3
 2781 0118 AED8     		bhi	.L43
 2782 011a 069F     		ldr	r7, [sp, #24]
 2783              	.LVL529:
 2784 011c 4346     		mov	r3, r8
 2785 011e D846     		mov	r8, fp
 2786              	.LVL530:
 2787 0120 B346     		mov	fp, r6
 2788              	.LVL531:
 2789 0122 079A     		ldr	r2, [sp, #28]
 2790 0124 9246     		mov	r10, r2
 2791 0126 1E00     		movs	r6, r3
 2792              	.LVL532:
 2793 0128 B946     		mov	r9, r7
 2794              	.LVL533:
 2795 012a 4546     		mov	r5, r8
 2796              	.LVL534:
 2797 012c 5F46     		mov	r7, fp
 2798 012e 059B     		ldr	r3, [sp, #20]
 2799              	.LVL535:
 2800 0130 9B46     		mov	fp, r3
 2801              	.LVL536:
 2802 0132 26E0     		b	.L44
 2803              	.LVL537:
 2804              	.L45:
 390:..\..\..\liblc3\src/mdct.c ****     }
 391:..\..\..\liblc3\src/mdct.c **** 
 392:..\..\..\liblc3\src/mdct.c ****     while (y1 < y + nd) {
 393:..\..\..\liblc3\src/mdct.c ****         *(y1++) = *(x1++) + *(x++) * *(--w0);
 2805              		.loc 1 393 0
 2806 0134 3B68     		ldr	r3, [r7]
 2807 0136 9846     		mov	r8, r3
 2808              	.LVL538:
 2809 0138 2B1F     		subs	r3, r5, #4
 2810              	.LVL539:
ARM GAS  C:\Users\rdn\AppData\Local\Temp\ccCJgMYD.s 			page 60


 2811 013a 1968     		ldr	r1, [r3]
 2812 013c 2068     		ldr	r0, [r4]
 2813 013e FFF7FEFF 		bl	__aeabi_fmul
 2814              	.LVL540:
 2815 0142 011C     		adds	r1, r0, #0
 2816 0144 4046     		mov	r0, r8
 2817 0146 FFF7FEFF 		bl	__aeabi_fadd
 2818              	.LVL541:
 2819 014a 3060     		str	r0, [r6]
 394:..\..\..\liblc3\src/mdct.c ****         *(y1++) = *(x1++) + *(x++) * *(--w0);
 2820              		.loc 1 394 0
 2821 014c 0823     		movs	r3, #8
 2822 014e 9C46     		mov	ip, r3
 2823 0150 B444     		add	ip, ip, r6
 2824 0152 6346     		mov	r3, ip
 2825 0154 0193     		str	r3, [sp, #4]
 2826              	.LVL542:
 2827 0156 0822     		movs	r2, #8
 2828 0158 9446     		mov	ip, r2
 2829 015a BC44     		add	ip, ip, r7
 2830 015c 6246     		mov	r2, ip
 2831 015e 0292     		str	r2, [sp, #8]
 2832              	.LVL543:
 2833 0160 7F68     		ldr	r7, [r7, #4]
 2834 0162 0821     		movs	r1, #8
 2835 0164 8846     		mov	r8, r1
 2836 0166 A044     		add	r8, r8, r4
 2837              	.LVL544:
 2838 0168 6068     		ldr	r0, [r4, #4]
 2839 016a 083D     		subs	r5, r5, #8
 2840              	.LVL545:
 2841 016c 2968     		ldr	r1, [r5]
 2842 016e FFF7FEFF 		bl	__aeabi_fmul
 2843              	.LVL546:
 2844 0172 011C     		adds	r1, r0, #0
 2845 0174 381C     		adds	r0, r7, #0
 2846 0176 FFF7FEFF 		bl	__aeabi_fadd
 2847              	.LVL547:
 2848 017a 7060     		str	r0, [r6, #4]
 2849 017c 019E     		ldr	r6, [sp, #4]
 2850 017e 029F     		ldr	r7, [sp, #8]
 2851 0180 4446     		mov	r4, r8
 2852              	.LVL548:
 2853              	.L44:
 392:..\..\..\liblc3\src/mdct.c ****         *(y1++) = *(x1++) + *(x++) * *(--w0);
 2854              		.loc 1 392 0
 2855 0182 129B     		ldr	r3, [sp, #72]
 2856 0184 5B44     		add	r3, r3, fp
 2857 0186 9E42     		cmp	r6, r3
 2858 0188 D4D3     		bcc	.L45
 2859 018a C846     		mov	r8, r9
 2860 018c 3700     		movs	r7, r6
 2861              	.LVL549:
 2862 018e 049E     		ldr	r6, [sp, #16]
 2863              	.LVL550:
 2864 0190 039B     		ldr	r3, [sp, #12]
 2865 0192 9946     		mov	r9, r3
ARM GAS  C:\Users\rdn\AppData\Local\Temp\ccCJgMYD.s 			page 61


 2866 0194 D346     		mov	fp, r10
 2867 0196 129B     		ldr	r3, [sp, #72]
 2868 0198 9A46     		mov	r10, r3
 2869 019a 29E0     		b	.L46
 2870              	.LVL551:
 2871              	.L47:
 395:..\..\..\liblc3\src/mdct.c ****     }
 396:..\..\..\liblc3\src/mdct.c **** 
 397:..\..\..\liblc3\src/mdct.c ****     while (y1 < y + 2*n4) {
 398:..\..\..\liblc3\src/mdct.c ****         *(y1++) = *(x  ) * *(--w0);
 2872              		.loc 1 398 0
 2873 019c 2B1F     		subs	r3, r5, #4
 2874              	.LVL552:
 2875 019e 1968     		ldr	r1, [r3]
 2876 01a0 2068     		ldr	r0, [r4]
 2877 01a2 FFF7FEFF 		bl	__aeabi_fmul
 2878              	.LVL553:
 2879 01a6 3860     		str	r0, [r7]
 2880              	.LVL554:
 399:..\..\..\liblc3\src/mdct.c ****         *(--y2) = *(x++) * *(w2++);
 2881              		.loc 1 399 0
 2882 01a8 4346     		mov	r3, r8
 2883 01aa 1968     		ldr	r1, [r3]
 2884 01ac 2068     		ldr	r0, [r4]
 2885 01ae FFF7FEFF 		bl	__aeabi_fmul
 2886              	.LVL555:
 2887 01b2 331F     		subs	r3, r6, #4
 2888              	.LVL556:
 2889 01b4 1860     		str	r0, [r3]
 400:..\..\..\liblc3\src/mdct.c **** 
 401:..\..\..\liblc3\src/mdct.c ****         *(y1++) = *(x  ) * *(--w0);
 2890              		.loc 1 401 0
 2891 01b6 0823     		movs	r3, #8
 2892              	.LVL557:
 2893 01b8 9C46     		mov	ip, r3
 2894 01ba BC44     		add	ip, ip, r7
 2895 01bc 6346     		mov	r3, ip
 2896 01be 0193     		str	r3, [sp, #4]
 2897              	.LVL558:
 2898 01c0 083D     		subs	r5, r5, #8
 2899              	.LVL559:
 2900 01c2 2968     		ldr	r1, [r5]
 2901 01c4 6068     		ldr	r0, [r4, #4]
 2902 01c6 FFF7FEFF 		bl	__aeabi_fmul
 2903              	.LVL560:
 2904 01ca 7860     		str	r0, [r7, #4]
 402:..\..\..\liblc3\src/mdct.c ****         *(--y2) = *(x++) * *(w2++);
 2905              		.loc 1 402 0
 2906 01cc 083E     		subs	r6, r6, #8
 2907              	.LVL561:
 2908 01ce 0822     		movs	r2, #8
 2909 01d0 9446     		mov	ip, r2
 2910 01d2 A444     		add	ip, ip, r4
 2911 01d4 6246     		mov	r2, ip
 2912 01d6 0292     		str	r2, [sp, #8]
 2913              	.LVL562:
 2914 01d8 6068     		ldr	r0, [r4, #4]
ARM GAS  C:\Users\rdn\AppData\Local\Temp\ccCJgMYD.s 			page 62


 2915 01da 4346     		mov	r3, r8
 2916 01dc 0833     		adds	r3, r3, #8
 2917 01de 1C00     		movs	r4, r3
 2918              	.LVL563:
 2919 01e0 4146     		mov	r1, r8
 2920 01e2 4968     		ldr	r1, [r1, #4]
 2921 01e4 FFF7FEFF 		bl	__aeabi_fmul
 2922              	.LVL564:
 2923 01e8 3060     		str	r0, [r6]
 401:..\..\..\liblc3\src/mdct.c ****         *(--y2) = *(x++) * *(w2++);
 2924              		.loc 1 401 0
 2925 01ea 019F     		ldr	r7, [sp, #4]
 2926              		.loc 1 402 0
 2927 01ec A046     		mov	r8, r4
 2928 01ee 029C     		ldr	r4, [sp, #8]
 2929              	.LVL565:
 2930              	.L46:
 397:..\..\..\liblc3\src/mdct.c ****         *(y1++) = *(x  ) * *(--w0);
 2931              		.loc 1 397 0
 2932 01f0 4B46     		mov	r3, r9
 2933 01f2 DB00     		lsls	r3, r3, #3
 2934 01f4 5344     		add	r3, r3, r10
 2935 01f6 9F42     		cmp	r7, r3
 2936 01f8 D0D3     		bcc	.L47
 2937 01fa 4746     		mov	r7, r8
 2938              	.LVL566:
 2939 01fc A846     		mov	r8, r5
 2940              	.LVL567:
 2941 01fe 3500     		movs	r5, r6
 2942              	.LVL568:
 2943 0200 4646     		mov	r6, r8
 2944              	.LVL569:
 2945 0202 B846     		mov	r8, r7
 2946              	.LVL570:
 2947 0204 5F46     		mov	r7, fp
 2948              	.LVL571:
 2949 0206 24E0     		b	.L48
 2950              	.LVL572:
 2951              	.L49:
 403:..\..\..\liblc3\src/mdct.c ****     }
 404:..\..\..\liblc3\src/mdct.c **** 
 405:..\..\..\liblc3\src/mdct.c ****     while (y2 > y3) {
 406:..\..\..\liblc3\src/mdct.c ****         *(y3++) = *(x  ) * *(--w0);
 2952              		.loc 1 406 0
 2953 0208 331F     		subs	r3, r6, #4
 2954              	.LVL573:
 2955 020a 1968     		ldr	r1, [r3]
 2956 020c 2068     		ldr	r0, [r4]
 2957 020e FFF7FEFF 		bl	__aeabi_fmul
 2958              	.LVL574:
 2959 0212 3860     		str	r0, [r7]
 2960              	.LVL575:
 407:..\..\..\liblc3\src/mdct.c ****         *(--y2) = *(x++) * *(w2++);
 2961              		.loc 1 407 0
 2962 0214 4346     		mov	r3, r8
 2963 0216 1968     		ldr	r1, [r3]
 2964 0218 2068     		ldr	r0, [r4]
ARM GAS  C:\Users\rdn\AppData\Local\Temp\ccCJgMYD.s 			page 63


 2965 021a FFF7FEFF 		bl	__aeabi_fmul
 2966              	.LVL576:
 2967 021e 2B1F     		subs	r3, r5, #4
 2968              	.LVL577:
 2969 0220 1860     		str	r0, [r3]
 408:..\..\..\liblc3\src/mdct.c **** 
 409:..\..\..\liblc3\src/mdct.c ****         *(y3++) = *(x  ) * *(--w0);
 2970              		.loc 1 409 0
 2971 0222 0823     		movs	r3, #8
 2972              	.LVL578:
 2973 0224 9A46     		mov	r10, r3
 2974 0226 BA44     		add	r10, r10, r7
 2975              	.LVL579:
 2976 0228 083E     		subs	r6, r6, #8
 2977              	.LVL580:
 2978 022a 3168     		ldr	r1, [r6]
 2979 022c 6068     		ldr	r0, [r4, #4]
 2980 022e FFF7FEFF 		bl	__aeabi_fmul
 2981              	.LVL581:
 2982 0232 7860     		str	r0, [r7, #4]
 410:..\..\..\liblc3\src/mdct.c ****         *(--y2) = *(x++) * *(w2++);
 2983              		.loc 1 410 0
 2984 0234 083D     		subs	r5, r5, #8
 2985              	.LVL582:
 2986 0236 0823     		movs	r3, #8
 2987 0238 9946     		mov	r9, r3
 2988 023a A144     		add	r9, r9, r4
 2989              	.LVL583:
 2990 023c 6068     		ldr	r0, [r4, #4]
 2991 023e 4446     		mov	r4, r8
 2992 0240 0834     		adds	r4, r4, #8
 2993              	.LVL584:
 2994 0242 4346     		mov	r3, r8
 2995 0244 5968     		ldr	r1, [r3, #4]
 2996 0246 FFF7FEFF 		bl	__aeabi_fmul
 2997              	.LVL585:
 2998 024a 2860     		str	r0, [r5]
 409:..\..\..\liblc3\src/mdct.c ****         *(--y2) = *(x++) * *(w2++);
 2999              		.loc 1 409 0
 3000 024c 5746     		mov	r7, r10
 3001              		.loc 1 410 0
 3002 024e A046     		mov	r8, r4
 3003 0250 4C46     		mov	r4, r9
 3004              	.LVL586:
 3005              	.L48:
 405:..\..\..\liblc3\src/mdct.c ****         *(y3++) = *(x  ) * *(--w0);
 3006              		.loc 1 405 0
 3007 0252 BD42     		cmp	r5, r7
 3008 0254 D8D8     		bhi	.L49
 411:..\..\..\liblc3\src/mdct.c ****     }
 412:..\..\..\liblc3\src/mdct.c **** }
 3009              		.loc 1 412 0
 3010 0256 09B0     		add	sp, sp, #36
 3011              		@ sp needed
 3012              	.LVL587:
 3013              	.LVL588:
 3014              	.LVL589:
ARM GAS  C:\Users\rdn\AppData\Local\Temp\ccCJgMYD.s 			page 64


 3015              	.LVL590:
 3016              	.LVL591:
 3017 0258 3CBC     		pop	{r2, r3, r4, r5}
 3018 025a 9046     		mov	r8, r2
 3019 025c 9946     		mov	r9, r3
 3020 025e A246     		mov	r10, r4
 3021 0260 AB46     		mov	fp, r5
 3022 0262 F0BD     		pop	{r4, r5, r6, r7, pc}
 3023              	.L51:
 3024              		.align	2
 3025              	.L50:
 3026 0264 00000000 		.word	lc3_mdct_win
 3027 0268 00000000 		.word	lc3_ns_2m5
 3028 026c 00000000 		.word	lc3_ns_4m
 3029              		.cfi_endproc
 3030              	.LFE29:
 3031              		.size	imdct_window, .-imdct_window
 3032              		.section	.text.rescale,"ax",%progbits
 3033              		.align	2
 3034              		.code	16
 3035              		.thumb_func
 3036              		.type	rescale, %function
 3037              	rescale:
 3038              	.LFB30:
 413:..\..\..\liblc3\src/mdct.c **** 
 414:..\..\..\liblc3\src/mdct.c **** /**
 415:..\..\..\liblc3\src/mdct.c ****  * Rescale samples
 416:..\..\..\liblc3\src/mdct.c ****  * x, n            Input and count of samples, scaled as output
 417:..\..\..\liblc3\src/mdct.c ****  * scale           Scale factor
 418:..\..\..\liblc3\src/mdct.c ****  */
 419:..\..\..\liblc3\src/mdct.c **** LC3_HOT static void rescale(float *x, int n, float f)
 420:..\..\..\liblc3\src/mdct.c **** {
 3039              		.loc 1 420 0
 3040              		.cfi_startproc
 3041              		@ args = 0, pretend = 0, frame = 8
 3042              		@ frame_needed = 0, uses_anonymous_args = 0
 3043              	.LVL592:
 3044 0000 F0B5     		push	{r4, r5, r6, r7, lr}
 3045              		.cfi_def_cfa_offset 20
 3046              		.cfi_offset 4, -20
 3047              		.cfi_offset 5, -16
 3048              		.cfi_offset 6, -12
 3049              		.cfi_offset 7, -8
 3050              		.cfi_offset 14, -4
 3051 0002 83B0     		sub	sp, sp, #12
 3052              		.cfi_def_cfa_offset 32
 3053 0004 0400     		movs	r4, r0
 3054 0006 0D00     		movs	r5, r1
 3055 0008 0192     		str	r2, [sp, #4]
 3056              	.LVL593:
 3057              	.LBB63:
 421:..\..\..\liblc3\src/mdct.c ****     for (int i = 0; i < (n >> 2); i++) {
 3058              		.loc 1 421 0
 3059 000a 0026     		movs	r6, #0
 3060 000c 1AE0     		b	.L53
 3061              	.LVL594:
 3062              	.L54:
ARM GAS  C:\Users\rdn\AppData\Local\Temp\ccCJgMYD.s 			page 65


 422:..\..\..\liblc3\src/mdct.c ****         *(x++) *= f; *(x++) *= f;
 3063              		.loc 1 422 0 discriminator 3
 3064 000e 019F     		ldr	r7, [sp, #4]
 3065 0010 391C     		adds	r1, r7, #0
 3066 0012 2068     		ldr	r0, [r4]
 3067 0014 FFF7FEFF 		bl	__aeabi_fmul
 3068              	.LVL595:
 3069 0018 2060     		str	r0, [r4]
 3070              	.LVL596:
 3071 001a 391C     		adds	r1, r7, #0
 3072 001c 6068     		ldr	r0, [r4, #4]
 3073 001e FFF7FEFF 		bl	__aeabi_fmul
 3074              	.LVL597:
 3075 0022 6060     		str	r0, [r4, #4]
 3076              	.LVL598:
 423:..\..\..\liblc3\src/mdct.c ****         *(x++) *= f; *(x++) *= f;
 3077              		.loc 1 423 0 discriminator 3
 3078 0024 0197     		str	r7, [sp, #4]
 3079 0026 391C     		adds	r1, r7, #0
 3080 0028 A068     		ldr	r0, [r4, #8]
 3081 002a FFF7FEFF 		bl	__aeabi_fmul
 3082              	.LVL599:
 3083 002e A060     		str	r0, [r4, #8]
 3084 0030 2300     		movs	r3, r4
 3085 0032 1033     		adds	r3, r3, #16
 3086 0034 1F00     		movs	r7, r3
 3087              	.LVL600:
 3088 0036 0199     		ldr	r1, [sp, #4]
 3089 0038 E068     		ldr	r0, [r4, #12]
 3090 003a FFF7FEFF 		bl	__aeabi_fmul
 3091              	.LVL601:
 3092 003e E060     		str	r0, [r4, #12]
 421:..\..\..\liblc3\src/mdct.c ****     for (int i = 0; i < (n >> 2); i++) {
 3093              		.loc 1 421 0 discriminator 3
 3094 0040 0136     		adds	r6, r6, #1
 3095              	.LVL602:
 3096              		.loc 1 423 0 discriminator 3
 3097 0042 3C00     		movs	r4, r7
 3098              	.LVL603:
 3099              	.L53:
 421:..\..\..\liblc3\src/mdct.c ****     for (int i = 0; i < (n >> 2); i++) {
 3100              		.loc 1 421 0 discriminator 1
 3101 0044 AB10     		asrs	r3, r5, #2
 3102 0046 9E42     		cmp	r6, r3
 3103 0048 E1DB     		blt	.L54
 3104              	.LBE63:
 424:..\..\..\liblc3\src/mdct.c ****     }
 425:..\..\..\liblc3\src/mdct.c **** }
 3105              		.loc 1 425 0
 3106 004a 03B0     		add	sp, sp, #12
 3107              		@ sp needed
 3108              	.LVL604:
 3109              	.LVL605:
 3110              	.LVL606:
 3111 004c F0BD     		pop	{r4, r5, r6, r7, pc}
 3112              		.cfi_endproc
 3113              	.LFE30:
ARM GAS  C:\Users\rdn\AppData\Local\Temp\ccCJgMYD.s 			page 66


 3114              		.size	rescale, .-rescale
 3115              		.global	__aeabi_i2f
 3116              		.global	__aeabi_fdiv
 3117 004e C046     		.section	.text.lc3_mdct_forward,"ax",%progbits
 3118              		.align	2
 3119              		.global	lc3_mdct_forward
 3120              		.code	16
 3121              		.thumb_func
 3122              		.type	lc3_mdct_forward, %function
 3123              	lc3_mdct_forward:
 3124              	.LFB31:
 426:..\..\..\liblc3\src/mdct.c **** 
 427:..\..\..\liblc3\src/mdct.c **** /**
 428:..\..\..\liblc3\src/mdct.c ****  * Forward MDCT transformation
 429:..\..\..\liblc3\src/mdct.c ****  */
 430:..\..\..\liblc3\src/mdct.c **** void lc3_mdct_forward(
 431:..\..\..\liblc3\src/mdct.c ****     enum lc3_dt dt, enum lc3_srate sr, enum lc3_srate sr_dst,
 432:..\..\..\liblc3\src/mdct.c ****     const float *x, float *d, float *y)
 433:..\..\..\liblc3\src/mdct.c **** {
 3125              		.loc 1 433 0
 3126              		.cfi_startproc
 3127              		@ args = 8, pretend = 0, frame = 3848
 3128              		@ frame_needed = 0, uses_anonymous_args = 0
 3129              	.LVL607:
 3130 0000 F0B5     		push	{r4, r5, r6, r7, lr}
 3131              		.cfi_def_cfa_offset 20
 3132              		.cfi_offset 4, -20
 3133              		.cfi_offset 5, -16
 3134              		.cfi_offset 6, -12
 3135              		.cfi_offset 7, -8
 3136              		.cfi_offset 14, -4
 3137 0002 294C     		ldr	r4, .L57
 3138 0004 A544     		add	sp, sp, r4
 3139              		.cfi_def_cfa_offset 3880
 3140 0006 0393     		str	r3, [sp, #12]
 434:..\..\..\liblc3\src/mdct.c ****     const struct lc3_mdct_rot_def *rot = lc3_mdct_rot[dt][sr];
 3141              		.loc 1 434 0
 3142 0008 C300     		lsls	r3, r0, #3
 3143              	.LVL608:
 3144 000a 1B1A     		subs	r3, r3, r0
 3145 000c 5B18     		adds	r3, r3, r1
 3146 000e 9B00     		lsls	r3, r3, #2
 3147 0010 264C     		ldr	r4, .L57+4
 3148 0012 1F59     		ldr	r7, [r3, r4]
 3149              	.LVL609:
 3150              	.LBB64:
 3151              	.LBB65:
  47:..\..\..\liblc3\src/tables.h **** }
 3152              		.loc 2 47 0
 3153 0014 264C     		ldr	r4, .L57+8
 3154 0016 9200     		lsls	r2, r2, #2
 3155              	.LVL610:
 3156 0018 1259     		ldr	r2, [r2, r4]
 3157 001a 431C     		adds	r3, r0, #1
 3158 001c 1600     		movs	r6, r2
 3159 001e 5E43     		muls	r6, r3
 3160              	.LVL611:
ARM GAS  C:\Users\rdn\AppData\Local\Temp\ccCJgMYD.s 			page 67


 3161              	.LBE65:
 3162              	.LBE64:
 3163              	.LBB66:
 3164              	.LBB67:
 3165 0020 8A00     		lsls	r2, r1, #2
 3166 0022 1459     		ldr	r4, [r2, r4]
 3167 0024 5C43     		muls	r4, r3
 3168              	.LVL612:
 3169              	.LBE67:
 3170              	.LBE66:
 435:..\..\..\liblc3\src/mdct.c ****     int ns_dst = lc3_ns(dt, sr_dst);
 436:..\..\..\liblc3\src/mdct.c ****     int ns = lc3_ns(dt, sr);
 437:..\..\..\liblc3\src/mdct.c **** 
 438:..\..\..\liblc3\src/mdct.c ****     struct lc3_complex buffer[LC3_MAX_NS / 2];
 439:..\..\..\liblc3\src/mdct.c ****     struct lc3_complex *z = (struct lc3_complex *)y;
 440:..\..\..\liblc3\src/mdct.c ****     union { float *f; struct lc3_complex *z; } u = { .z = buffer };
 441:..\..\..\liblc3\src/mdct.c **** 
 442:..\..\..\liblc3\src/mdct.c ****     mdct_window(dt, sr, x, d, u.f);
 3171              		.loc 1 442 0
 3172 0026 04AD     		add	r5, sp, #16
 3173 0028 0095     		str	r5, [sp]
 3174 002a F223     		movs	r3, #242
 3175 002c 1B01     		lsls	r3, r3, #4
 3176 002e 02AA     		add	r2, sp, #8
 3177 0030 9446     		mov	ip, r2
 3178 0032 6344     		add	r3, r3, ip
 3179 0034 1B68     		ldr	r3, [r3]
 3180 0036 039A     		ldr	r2, [sp, #12]
 3181 0038 FFF7FEFF 		bl	mdct_window
 3182              	.LVL613:
 443:..\..\..\liblc3\src/mdct.c **** 
 444:..\..\..\liblc3\src/mdct.c ****     mdct_pre_fft(rot, u.f, u.z);
 3183              		.loc 1 444 0
 3184 003c 2A00     		movs	r2, r5
 3185 003e 2900     		movs	r1, r5
 3186 0040 3800     		movs	r0, r7
 3187 0042 FFF7FEFF 		bl	mdct_pre_fft
 3188              	.LVL614:
 445:..\..\..\liblc3\src/mdct.c ****     u.z = fft(u.z, ns/2, u.z, z);
 3189              		.loc 1 445 0
 3190 0046 E10F     		lsrs	r1, r4, #31
 3191 0048 0919     		adds	r1, r1, r4
 3192 004a 4910     		asrs	r1, r1, #1
 3193 004c 194B     		ldr	r3, .L57+12
 3194 004e 02AA     		add	r2, sp, #8
 3195 0050 9446     		mov	ip, r2
 3196 0052 6344     		add	r3, r3, ip
 3197 0054 1B68     		ldr	r3, [r3]
 3198 0056 2A00     		movs	r2, r5
 3199 0058 2800     		movs	r0, r5
 3200 005a FFF7FEFF 		bl	fft
 3201              	.LVL615:
 3202 005e 0100     		movs	r1, r0
 446:..\..\..\liblc3\src/mdct.c ****     mdct_post_fft(rot, u.z, y);
 3203              		.loc 1 446 0
 3204 0060 144B     		ldr	r3, .L57+12
 3205 0062 02AA     		add	r2, sp, #8
ARM GAS  C:\Users\rdn\AppData\Local\Temp\ccCJgMYD.s 			page 68


 3206 0064 9446     		mov	ip, r2
 3207 0066 6344     		add	r3, r3, ip
 3208 0068 1A68     		ldr	r2, [r3]
 3209 006a 3800     		movs	r0, r7
 3210 006c FFF7FEFF 		bl	mdct_post_fft
 3211              	.LVL616:
 447:..\..\..\liblc3\src/mdct.c **** 
 448:..\..\..\liblc3\src/mdct.c ****     if (ns != ns_dst)
 3212              		.loc 1 448 0
 3213 0070 B442     		cmp	r4, r6
 3214 0072 15D0     		beq	.L55
 449:..\..\..\liblc3\src/mdct.c ****         rescale(y, ns_dst, sqrtf((float)ns_dst / ns));
 3215              		.loc 1 449 0
 3216 0074 3000     		movs	r0, r6
 3217 0076 FFF7FEFF 		bl	__aeabi_i2f
 3218              	.LVL617:
 3219 007a 051C     		adds	r5, r0, #0
 3220 007c 2000     		movs	r0, r4
 3221 007e FFF7FEFF 		bl	__aeabi_i2f
 3222              	.LVL618:
 3223 0082 011C     		adds	r1, r0, #0
 3224 0084 281C     		adds	r0, r5, #0
 3225 0086 FFF7FEFF 		bl	__aeabi_fdiv
 3226              	.LVL619:
 3227 008a FFF7FEFF 		bl	sqrtf
 3228              	.LVL620:
 3229 008e 021C     		adds	r2, r0, #0
 3230 0090 3100     		movs	r1, r6
 3231 0092 084B     		ldr	r3, .L57+12
 3232 0094 02A8     		add	r0, sp, #8
 3233 0096 8446     		mov	ip, r0
 3234 0098 6344     		add	r3, r3, ip
 3235 009a 1868     		ldr	r0, [r3]
 3236 009c FFF7FEFF 		bl	rescale
 3237              	.LVL621:
 3238              	.L55:
 450:..\..\..\liblc3\src/mdct.c **** }
 3239              		.loc 1 450 0
 3240 00a0 054B     		ldr	r3, .L57+16
 3241 00a2 9D44     		add	sp, sp, r3
 3242              		@ sp needed
 3243              	.LVL622:
 3244 00a4 F0BD     		pop	{r4, r5, r6, r7, pc}
 3245              	.L58:
 3246 00a6 C046     		.align	2
 3247              	.L57:
 3248 00a8 ECF0FFFF 		.word	-3860
 3249 00ac 00000000 		.word	lc3_mdct_rot
 3250 00b0 00000000 		.word	lc3_ns_2m5
 3251 00b4 240F0000 		.word	3876
 3252 00b8 140F0000 		.word	3860
 3253              		.cfi_endproc
 3254              	.LFE31:
 3255              		.size	lc3_mdct_forward, .-lc3_mdct_forward
 3256              		.section	.text.lc3_mdct_inverse,"ax",%progbits
 3257              		.align	2
 3258              		.global	lc3_mdct_inverse
ARM GAS  C:\Users\rdn\AppData\Local\Temp\ccCJgMYD.s 			page 69


 3259              		.code	16
 3260              		.thumb_func
 3261              		.type	lc3_mdct_inverse, %function
 3262              	lc3_mdct_inverse:
 3263              	.LFB32:
 451:..\..\..\liblc3\src/mdct.c **** 
 452:..\..\..\liblc3\src/mdct.c **** /**
 453:..\..\..\liblc3\src/mdct.c ****  * Inverse MDCT transformation
 454:..\..\..\liblc3\src/mdct.c ****  */
 455:..\..\..\liblc3\src/mdct.c **** void lc3_mdct_inverse(
 456:..\..\..\liblc3\src/mdct.c ****     enum lc3_dt dt, enum lc3_srate sr, enum lc3_srate sr_src,
 457:..\..\..\liblc3\src/mdct.c ****     const float *x, float *d, float *y)
 458:..\..\..\liblc3\src/mdct.c **** {
 3264              		.loc 1 458 0
 3265              		.cfi_startproc
 3266              		@ args = 8, pretend = 0, frame = 3848
 3267              		@ frame_needed = 0, uses_anonymous_args = 0
 3268              	.LVL623:
 3269 0000 F0B5     		push	{r4, r5, r6, r7, lr}
 3270              		.cfi_def_cfa_offset 20
 3271              		.cfi_offset 4, -20
 3272              		.cfi_offset 5, -16
 3273              		.cfi_offset 6, -12
 3274              		.cfi_offset 7, -8
 3275              		.cfi_offset 14, -4
 3276 0002 2C4C     		ldr	r4, .L61
 3277 0004 A544     		add	sp, sp, r4
 3278              		.cfi_def_cfa_offset 3880
 3279 0006 0500     		movs	r5, r0
 3280 0008 0F00     		movs	r7, r1
 459:..\..\..\liblc3\src/mdct.c ****     const struct lc3_mdct_rot_def *rot = lc3_mdct_rot[dt][sr];
 3281              		.loc 1 459 0
 3282 000a C000     		lsls	r0, r0, #3
 3283              	.LVL624:
 3284 000c 401B     		subs	r0, r0, r5
 3285 000e 4018     		adds	r0, r0, r1
 3286 0010 8000     		lsls	r0, r0, #2
 3287 0012 2949     		ldr	r1, .L61+4
 3288              	.LVL625:
 3289 0014 4158     		ldr	r1, [r0, r1]
 3290 0016 0391     		str	r1, [sp, #12]
 3291              	.LVL626:
 3292              	.LBB68:
 3293              	.LBB69:
  47:..\..\..\liblc3\src/tables.h **** }
 3294              		.loc 2 47 0
 3295 0018 2849     		ldr	r1, .L61+8
 3296              	.LVL627:
 3297 001a 9200     		lsls	r2, r2, #2
 3298              	.LVL628:
 3299 001c 5058     		ldr	r0, [r2, r1]
 3300              	.LVL629:
 3301 001e 6A1C     		adds	r2, r5, #1
 3302 0020 5043     		muls	r0, r2
 3303 0022 0600     		movs	r6, r0
 3304              	.LVL630:
 3305              	.LBE69:
ARM GAS  C:\Users\rdn\AppData\Local\Temp\ccCJgMYD.s 			page 70


 3306              	.LBE68:
 3307              	.LBB70:
 3308              	.LBB71:
 3309 0024 B800     		lsls	r0, r7, #2
 3310 0026 4458     		ldr	r4, [r0, r1]
 3311 0028 5443     		muls	r4, r2
 3312              	.LVL631:
 3313              	.LBE71:
 3314              	.LBE70:
 460:..\..\..\liblc3\src/mdct.c ****     int ns_src = lc3_ns(dt, sr_src);
 461:..\..\..\liblc3\src/mdct.c ****     int ns = lc3_ns(dt, sr);
 462:..\..\..\liblc3\src/mdct.c **** 
 463:..\..\..\liblc3\src/mdct.c ****     struct lc3_complex buffer[LC3_MAX_NS / 2];
 464:..\..\..\liblc3\src/mdct.c ****     struct lc3_complex *z = (struct lc3_complex *)y;
 465:..\..\..\liblc3\src/mdct.c ****     union { float *f; struct lc3_complex *z; } u = { .z = buffer };
 466:..\..\..\liblc3\src/mdct.c **** 
 467:..\..\..\liblc3\src/mdct.c ****     imdct_pre_fft(rot, x, z);
 3315              		.loc 1 467 0
 3316 002a 254A     		ldr	r2, .L61+12
 3317 002c 02A9     		add	r1, sp, #8
 3318 002e 8C46     		mov	ip, r1
 3319 0030 6244     		add	r2, r2, ip
 3320 0032 1268     		ldr	r2, [r2]
 3321 0034 1900     		movs	r1, r3
 3322 0036 0398     		ldr	r0, [sp, #12]
 3323 0038 FFF7FEFF 		bl	imdct_pre_fft
 3324              	.LVL632:
 468:..\..\..\liblc3\src/mdct.c ****     z = fft(z, ns/2, z, u.z);
 3325              		.loc 1 468 0
 3326 003c E10F     		lsrs	r1, r4, #31
 3327 003e 0919     		adds	r1, r1, r4
 3328 0040 4910     		asrs	r1, r1, #1
 3329 0042 04AB     		add	r3, sp, #16
 3330 0044 1E4A     		ldr	r2, .L61+12
 3331 0046 02A8     		add	r0, sp, #8
 3332 0048 8446     		mov	ip, r0
 3333 004a 6244     		add	r2, r2, ip
 3334 004c 1268     		ldr	r2, [r2]
 3335 004e 1C48     		ldr	r0, .L61+12
 3336 0050 0290     		str	r0, [sp, #8]
 3337 0052 0298     		ldr	r0, [sp, #8]
 3338 0054 6044     		add	r0, r0, ip
 3339 0056 0290     		str	r0, [sp, #8]
 3340 0058 1000     		movs	r0, r2
 3341 005a FFF7FEFF 		bl	fft
 3342              	.LVL633:
 3343 005e 0100     		movs	r1, r0
 3344              	.LVL634:
 469:..\..\..\liblc3\src/mdct.c ****     imdct_post_fft(rot, z, u.f);
 3345              		.loc 1 469 0
 3346 0060 04AA     		add	r2, sp, #16
 3347 0062 0398     		ldr	r0, [sp, #12]
 3348              	.LVL635:
 3349 0064 FFF7FEFF 		bl	imdct_post_fft
 3350              	.LVL636:
 470:..\..\..\liblc3\src/mdct.c **** 
 471:..\..\..\liblc3\src/mdct.c ****     if (ns != ns_src)
ARM GAS  C:\Users\rdn\AppData\Local\Temp\ccCJgMYD.s 			page 71


 3351              		.loc 1 471 0
 3352 0068 B442     		cmp	r4, r6
 3353 006a 11D0     		beq	.L60
 472:..\..\..\liblc3\src/mdct.c ****         rescale(u.f, ns, sqrtf((float)ns / ns_src));
 3354              		.loc 1 472 0
 3355 006c 2000     		movs	r0, r4
 3356 006e FFF7FEFF 		bl	__aeabi_i2f
 3357              	.LVL637:
 3358 0072 0390     		str	r0, [sp, #12]
 3359              	.LVL638:
 3360 0074 3000     		movs	r0, r6
 3361 0076 FFF7FEFF 		bl	__aeabi_i2f
 3362              	.LVL639:
 3363 007a 011C     		adds	r1, r0, #0
 3364 007c 0398     		ldr	r0, [sp, #12]
 3365 007e FFF7FEFF 		bl	__aeabi_fdiv
 3366              	.LVL640:
 3367 0082 FFF7FEFF 		bl	sqrtf
 3368              	.LVL641:
 3369 0086 021C     		adds	r2, r0, #0
 3370 0088 2100     		movs	r1, r4
 3371 008a 04A8     		add	r0, sp, #16
 3372 008c FFF7FEFF 		bl	rescale
 3373              	.LVL642:
 3374              	.L60:
 473:..\..\..\liblc3\src/mdct.c **** 
 474:..\..\..\liblc3\src/mdct.c ****     imdct_window(dt, sr, u.f, d, y);
 3375              		.loc 1 474 0
 3376 0090 0B4B     		ldr	r3, .L61+12
 3377 0092 02AA     		add	r2, sp, #8
 3378 0094 9446     		mov	ip, r2
 3379 0096 6344     		add	r3, r3, ip
 3380 0098 1B68     		ldr	r3, [r3]
 3381 009a 0093     		str	r3, [sp]
 3382 009c F223     		movs	r3, #242
 3383 009e 1B01     		lsls	r3, r3, #4
 3384 00a0 6344     		add	r3, r3, ip
 3385 00a2 1B68     		ldr	r3, [r3]
 3386 00a4 04AA     		add	r2, sp, #16
 3387 00a6 3900     		movs	r1, r7
 3388 00a8 2800     		movs	r0, r5
 3389 00aa FFF7FEFF 		bl	imdct_window
 3390              	.LVL643:
 475:..\..\..\liblc3\src/mdct.c **** }
 3391              		.loc 1 475 0
 3392 00ae 054B     		ldr	r3, .L61+16
 3393 00b0 9D44     		add	sp, sp, r3
 3394              		@ sp needed
 3395 00b2 F0BD     		pop	{r4, r5, r6, r7, pc}
 3396              	.L62:
 3397              		.align	2
 3398              	.L61:
 3399 00b4 ECF0FFFF 		.word	-3860
 3400 00b8 00000000 		.word	lc3_mdct_rot
 3401 00bc 00000000 		.word	lc3_ns_2m5
 3402 00c0 240F0000 		.word	3876
 3403 00c4 140F0000 		.word	3860
ARM GAS  C:\Users\rdn\AppData\Local\Temp\ccCJgMYD.s 			page 72


 3404              		.cfi_endproc
 3405              	.LFE32:
 3406              		.size	lc3_mdct_inverse, .-lc3_mdct_inverse
 3407              		.text
 3408              	.Letext0:
 3409              		.file 3 ".\\liblc3\\include/lc3_private.h"
 3410              		.file 4 "..\\..\\..\\liblc3\\src\\common.h"
 3411              		.file 5 "c:\\program files (x86)\\cypress\\psoc creator\\4.4\\psoc creator\\import\\gnu\\arm\\5.4.
 3412              		.section	.debug_info,"",%progbits
 3413              	.Ldebug_info0:
 3414 0000 11120000 		.4byte	0x1211
 3415 0004 0400     		.2byte	0x4
 3416 0006 00000000 		.4byte	.Ldebug_abbrev0
 3417 000a 04       		.byte	0x4
 3418 000b 01       		.uleb128 0x1
 3419 000c 6A000000 		.4byte	.LASF66
 3420 0010 0C       		.byte	0xc
 3421 0011 FC010000 		.4byte	.LASF67
 3422 0015 69020000 		.4byte	.LASF68
 3423 0019 48000000 		.4byte	.Ldebug_ranges0+0x48
 3424 001d 00000000 		.4byte	0
 3425 0021 00000000 		.4byte	.Ldebug_line0
 3426 0025 02       		.uleb128 0x2
 3427 0026 04       		.byte	0x4
 3428 0027 04       		.byte	0x4
 3429 0028 AB010000 		.4byte	.LASF0
 3430 002c 02       		.uleb128 0x2
 3431 002d 01       		.byte	0x1
 3432 002e 06       		.byte	0x6
 3433 002f 46020000 		.4byte	.LASF1
 3434 0033 02       		.uleb128 0x2
 3435 0034 01       		.byte	0x1
 3436 0035 08       		.byte	0x8
 3437 0036 38020000 		.4byte	.LASF2
 3438 003a 02       		.uleb128 0x2
 3439 003b 02       		.byte	0x2
 3440 003c 05       		.byte	0x5
 3441 003d 2E000000 		.4byte	.LASF3
 3442 0041 02       		.uleb128 0x2
 3443 0042 02       		.byte	0x2
 3444 0043 07       		.byte	0x7
 3445 0044 FA020000 		.4byte	.LASF4
 3446 0048 02       		.uleb128 0x2
 3447 0049 04       		.byte	0x4
 3448 004a 05       		.byte	0x5
 3449 004b DC020000 		.4byte	.LASF5
 3450 004f 02       		.uleb128 0x2
 3451 0050 04       		.byte	0x4
 3452 0051 07       		.byte	0x7
 3453 0052 32030000 		.4byte	.LASF6
 3454 0056 02       		.uleb128 0x2
 3455 0057 08       		.byte	0x8
 3456 0058 05       		.byte	0x5
 3457 0059 B1010000 		.4byte	.LASF7
 3458 005d 02       		.uleb128 0x2
 3459 005e 08       		.byte	0x8
 3460 005f 07       		.byte	0x7
ARM GAS  C:\Users\rdn\AppData\Local\Temp\ccCJgMYD.s 			page 73


 3461 0060 52020000 		.4byte	.LASF8
 3462 0064 03       		.uleb128 0x3
 3463 0065 04       		.byte	0x4
 3464 0066 05       		.byte	0x5
 3465 0067 696E7400 		.ascii	"int\000"
 3466 006b 02       		.uleb128 0x2
 3467 006c 04       		.byte	0x4
 3468 006d 07       		.byte	0x7
 3469 006e A1020000 		.4byte	.LASF9
 3470 0072 04       		.uleb128 0x4
 3471 0073 04010000 		.4byte	.LASF15
 3472 0077 01       		.byte	0x1
 3473 0078 33000000 		.4byte	0x33
 3474 007c 03       		.byte	0x3
 3475 007d 3B       		.byte	0x3b
 3476 007e A1000000 		.4byte	0xa1
 3477 0082 05       		.uleb128 0x5
 3478 0083 59030000 		.4byte	.LASF10
 3479 0087 00       		.byte	0
 3480 0088 05       		.uleb128 0x5
 3481 0089 DA030000 		.4byte	.LASF11
 3482 008d 01       		.byte	0x1
 3483 008e 05       		.uleb128 0x5
 3484 008f 4F010000 		.4byte	.LASF12
 3485 0093 02       		.byte	0x2
 3486 0094 05       		.uleb128 0x5
 3487 0095 83010000 		.4byte	.LASF13
 3488 0099 03       		.byte	0x3
 3489 009a 05       		.uleb128 0x5
 3490 009b 99030000 		.4byte	.LASF14
 3491 009f 04       		.byte	0x4
 3492 00a0 00       		.byte	0
 3493 00a1 04       		.uleb128 0x4
 3494 00a2 0F000000 		.4byte	.LASF16
 3495 00a6 01       		.byte	0x1
 3496 00a7 33000000 		.4byte	0x33
 3497 00ab 03       		.byte	0x3
 3498 00ac 49       		.byte	0x49
 3499 00ad E2000000 		.4byte	0xe2
 3500 00b1 05       		.uleb128 0x5
 3501 00b2 65010000 		.4byte	.LASF17
 3502 00b6 00       		.byte	0
 3503 00b7 05       		.uleb128 0x5
 3504 00b8 4B030000 		.4byte	.LASF18
 3505 00bc 01       		.byte	0x1
 3506 00bd 05       		.uleb128 0x5
 3507 00be C9020000 		.4byte	.LASF19
 3508 00c2 02       		.byte	0x2
 3509 00c3 05       		.uleb128 0x5
 3510 00c4 D4010000 		.4byte	.LASF20
 3511 00c8 03       		.byte	0x3
 3512 00c9 05       		.uleb128 0x5
 3513 00ca 71030000 		.4byte	.LASF21
 3514 00ce 04       		.byte	0x4
 3515 00cf 05       		.uleb128 0x5
 3516 00d0 0B010000 		.4byte	.LASF22
 3517 00d4 05       		.byte	0x5
ARM GAS  C:\Users\rdn\AppData\Local\Temp\ccCJgMYD.s 			page 74


 3518 00d5 05       		.uleb128 0x5
 3519 00d6 72010000 		.4byte	.LASF23
 3520 00da 06       		.byte	0x6
 3521 00db 05       		.uleb128 0x5
 3522 00dc EC020000 		.4byte	.LASF24
 3523 00e0 07       		.byte	0x7
 3524 00e1 00       		.byte	0
 3525 00e2 02       		.uleb128 0x2
 3526 00e3 01       		.byte	0x1
 3527 00e4 02       		.byte	0x2
 3528 00e5 0D030000 		.4byte	.LASF25
 3529 00e9 02       		.uleb128 0x2
 3530 00ea 04       		.byte	0x4
 3531 00eb 07       		.byte	0x7
 3532 00ec 3F000000 		.4byte	.LASF26
 3533 00f0 02       		.uleb128 0x2
 3534 00f1 08       		.byte	0x8
 3535 00f2 04       		.byte	0x4
 3536 00f3 17020000 		.4byte	.LASF27
 3537 00f7 02       		.uleb128 0x2
 3538 00f8 01       		.byte	0x1
 3539 00f9 08       		.byte	0x8
 3540 00fa D7020000 		.4byte	.LASF28
 3541 00fe 02       		.uleb128 0x2
 3542 00ff 08       		.byte	0x8
 3543 0100 04       		.byte	0x4
 3544 0101 08000000 		.4byte	.LASF29
 3545 0105 06       		.uleb128 0x6
 3546 0106 BD020000 		.4byte	.LASF30
 3547 010a 08       		.byte	0x8
 3548 010b 04       		.byte	0x4
 3549 010c 88       		.byte	0x88
 3550 010d 28010000 		.4byte	0x128
 3551 0111 07       		.uleb128 0x7
 3552 0112 726500   		.ascii	"re\000"
 3553 0115 04       		.byte	0x4
 3554 0116 8A       		.byte	0x8a
 3555 0117 25000000 		.4byte	0x25
 3556 011b 00       		.byte	0
 3557 011c 07       		.uleb128 0x7
 3558 011d 696D00   		.ascii	"im\000"
 3559 0120 04       		.byte	0x4
 3560 0121 8A       		.byte	0x8a
 3561 0122 25000000 		.4byte	0x25
 3562 0126 04       		.byte	0x4
 3563 0127 00       		.byte	0
 3564 0128 06       		.uleb128 0x6
 3565 0129 BC030000 		.4byte	.LASF31
 3566 012d 08       		.byte	0x8
 3567 012e 02       		.byte	0x2
 3568 012f 60       		.byte	0x60
 3569 0130 4A010000 		.4byte	0x14a
 3570 0134 07       		.uleb128 0x7
 3571 0135 6E3300   		.ascii	"n3\000"
 3572 0138 02       		.byte	0x2
 3573 0139 60       		.byte	0x60
 3574 013a 64000000 		.4byte	0x64
ARM GAS  C:\Users\rdn\AppData\Local\Temp\ccCJgMYD.s 			page 75


 3575 013e 00       		.byte	0
 3576 013f 07       		.uleb128 0x7
 3577 0140 7400     		.ascii	"t\000"
 3578 0142 02       		.byte	0x2
 3579 0143 60       		.byte	0x60
 3580 0144 5F010000 		.4byte	0x15f
 3581 0148 04       		.byte	0x4
 3582 0149 00       		.byte	0
 3583 014a 08       		.uleb128 0x8
 3584 014b 5A010000 		.4byte	0x15a
 3585 014f 5A010000 		.4byte	0x15a
 3586 0153 09       		.uleb128 0x9
 3587 0154 E9000000 		.4byte	0xe9
 3588 0158 01       		.byte	0x1
 3589 0159 00       		.byte	0
 3590 015a 0A       		.uleb128 0xa
 3591 015b 05010000 		.4byte	0x105
 3592 015f 0B       		.uleb128 0xb
 3593 0160 04       		.byte	0x4
 3594 0161 4A010000 		.4byte	0x14a
 3595 0165 06       		.uleb128 0x6
 3596 0166 BF010000 		.4byte	.LASF32
 3597 016a 08       		.byte	0x8
 3598 016b 02       		.byte	0x2
 3599 016c 61       		.byte	0x61
 3600 016d 87010000 		.4byte	0x187
 3601 0171 07       		.uleb128 0x7
 3602 0172 6E3200   		.ascii	"n2\000"
 3603 0175 02       		.byte	0x2
 3604 0176 61       		.byte	0x61
 3605 0177 64000000 		.4byte	0x64
 3606 017b 00       		.byte	0
 3607 017c 07       		.uleb128 0x7
 3608 017d 7400     		.ascii	"t\000"
 3609 017f 02       		.byte	0x2
 3610 0180 61       		.byte	0x61
 3611 0181 87010000 		.4byte	0x187
 3612 0185 04       		.byte	0x4
 3613 0186 00       		.byte	0
 3614 0187 0B       		.uleb128 0xb
 3615 0188 04       		.byte	0x4
 3616 0189 5A010000 		.4byte	0x15a
 3617 018d 06       		.uleb128 0x6
 3618 018e 48000000 		.4byte	.LASF33
 3619 0192 08       		.byte	0x8
 3620 0193 02       		.byte	0x2
 3621 0194 62       		.byte	0x62
 3622 0195 AF010000 		.4byte	0x1af
 3623 0199 07       		.uleb128 0x7
 3624 019a 6E3400   		.ascii	"n4\000"
 3625 019d 02       		.byte	0x2
 3626 019e 62       		.byte	0x62
 3627 019f 64000000 		.4byte	0x64
 3628 01a3 00       		.byte	0
 3629 01a4 07       		.uleb128 0x7
 3630 01a5 7700     		.ascii	"w\000"
 3631 01a7 02       		.byte	0x2
ARM GAS  C:\Users\rdn\AppData\Local\Temp\ccCJgMYD.s 			page 76


 3632 01a8 62       		.byte	0x62
 3633 01a9 87010000 		.4byte	0x187
 3634 01ad 04       		.byte	0x4
 3635 01ae 00       		.byte	0
 3636 01af 0B       		.uleb128 0xb
 3637 01b0 04       		.byte	0x4
 3638 01b1 B5010000 		.4byte	0x1b5
 3639 01b5 0A       		.uleb128 0xa
 3640 01b6 25000000 		.4byte	0x25
 3641 01ba 0C       		.uleb128 0xc
 3642 01bb A4030000 		.4byte	.LASF34
 3643 01bf 02       		.byte	0x2
 3644 01c0 2E       		.byte	0x2e
 3645 01c1 64000000 		.4byte	0x64
 3646 01c5 03       		.byte	0x3
 3647 01c6 DF010000 		.4byte	0x1df
 3648 01ca 0D       		.uleb128 0xd
 3649 01cb 647400   		.ascii	"dt\000"
 3650 01ce 02       		.byte	0x2
 3651 01cf 2E       		.byte	0x2e
 3652 01d0 72000000 		.4byte	0x72
 3653 01d4 0D       		.uleb128 0xd
 3654 01d5 737200   		.ascii	"sr\000"
 3655 01d8 02       		.byte	0x2
 3656 01d9 2E       		.byte	0x2e
 3657 01da A1000000 		.4byte	0xa1
 3658 01de 00       		.byte	0
 3659 01df 0C       		.uleb128 0xc
 3660 01e0 44030000 		.4byte	.LASF35
 3661 01e4 02       		.byte	0x2
 3662 01e5 36       		.byte	0x36
 3663 01e6 64000000 		.4byte	0x64
 3664 01ea 03       		.byte	0x3
 3665 01eb 04020000 		.4byte	0x204
 3666 01ef 0D       		.uleb128 0xd
 3667 01f0 647400   		.ascii	"dt\000"
 3668 01f3 02       		.byte	0x2
 3669 01f4 36       		.byte	0x36
 3670 01f5 72000000 		.4byte	0x72
 3671 01f9 0D       		.uleb128 0xd
 3672 01fa 737200   		.ascii	"sr\000"
 3673 01fd 02       		.byte	0x2
 3674 01fe 36       		.byte	0x36
 3675 01ff A1000000 		.4byte	0xa1
 3676 0203 00       		.byte	0
 3677 0204 0E       		.uleb128 0xe
 3678 0205 F6010000 		.4byte	.LASF40
 3679 0209 01       		.byte	0x1
 3680 020a 23       		.byte	0x23
 3681 020b 03       		.byte	0x3
 3682 020c A5020000 		.4byte	0x2a5
 3683 0210 0D       		.uleb128 0xd
 3684 0211 7800     		.ascii	"x\000"
 3685 0213 01       		.byte	0x1
 3686 0214 24       		.byte	0x24
 3687 0215 87010000 		.4byte	0x187
 3688 0219 0D       		.uleb128 0xd
ARM GAS  C:\Users\rdn\AppData\Local\Temp\ccCJgMYD.s 			page 77


 3689 021a 7900     		.ascii	"y\000"
 3690 021c 01       		.byte	0x1
 3691 021d 24       		.byte	0x24
 3692 021e A5020000 		.4byte	0x2a5
 3693 0222 0D       		.uleb128 0xd
 3694 0223 6E00     		.ascii	"n\000"
 3695 0225 01       		.byte	0x1
 3696 0226 24       		.byte	0x24
 3697 0227 64000000 		.4byte	0x64
 3698 022b 0F       		.uleb128 0xf
 3699 022c E2010000 		.4byte	.LASF36
 3700 0230 01       		.byte	0x1
 3701 0231 26       		.byte	0x26
 3702 0232 B5010000 		.4byte	0x1b5
 3703 0236 04       		.byte	0x4
 3704 0237 7A379E3E 		.4byte	0x3e9e377a
 3705 023b 0F       		.uleb128 0xf
 3706 023c E7010000 		.4byte	.LASF37
 3707 0240 01       		.byte	0x1
 3708 0241 27       		.byte	0x27
 3709 0242 B5010000 		.4byte	0x1b5
 3710 0246 04       		.byte	0x4
 3711 0247 BD1B4FBF 		.4byte	0xbf4f1bbd
 3712 024b 0F       		.uleb128 0xf
 3713 024c EC010000 		.4byte	.LASF38
 3714 0250 01       		.byte	0x1
 3715 0251 29       		.byte	0x29
 3716 0252 B5010000 		.4byte	0x1b5
 3717 0256 04       		.byte	0x4
 3718 0257 717873BF 		.4byte	0xbf737871
 3719 025b 0F       		.uleb128 0xf
 3720 025c F1010000 		.4byte	.LASF39
 3721 0260 01       		.byte	0x1
 3722 0261 2A       		.byte	0x2a
 3723 0262 B5010000 		.4byte	0x1b5
 3724 0266 04       		.byte	0x4
 3725 0267 187916BF 		.4byte	0xbf167918
 3726 026b 10       		.uleb128 0x10
 3727 026c 11       		.uleb128 0x11
 3728 026d 6900     		.ascii	"i\000"
 3729 026f 01       		.byte	0x1
 3730 0270 2C       		.byte	0x2c
 3731 0271 64000000 		.4byte	0x64
 3732 0275 10       		.uleb128 0x10
 3733 0276 11       		.uleb128 0x11
 3734 0277 73313400 		.ascii	"s14\000"
 3735 027b 01       		.byte	0x1
 3736 027c 2E       		.byte	0x2e
 3737 027d 05010000 		.4byte	0x105
 3738 0281 11       		.uleb128 0x11
 3739 0282 64313400 		.ascii	"d14\000"
 3740 0286 01       		.byte	0x1
 3741 0287 30       		.byte	0x30
 3742 0288 05010000 		.4byte	0x105
 3743 028c 11       		.uleb128 0x11
 3744 028d 73323300 		.ascii	"s23\000"
 3745 0291 01       		.byte	0x1
ARM GAS  C:\Users\rdn\AppData\Local\Temp\ccCJgMYD.s 			page 78


 3746 0292 33       		.byte	0x33
 3747 0293 05010000 		.4byte	0x105
 3748 0297 11       		.uleb128 0x11
 3749 0298 64323300 		.ascii	"d23\000"
 3750 029c 01       		.byte	0x1
 3751 029d 35       		.byte	0x35
 3752 029e 05010000 		.4byte	0x105
 3753 02a2 00       		.byte	0
 3754 02a3 00       		.byte	0
 3755 02a4 00       		.byte	0
 3756 02a5 0B       		.uleb128 0xb
 3757 02a6 04       		.byte	0x4
 3758 02a7 05010000 		.4byte	0x105
 3759 02ab 0E       		.uleb128 0xe
 3760 02ac 00000000 		.4byte	.LASF41
 3761 02b0 01       		.byte	0x1
 3762 02b1 5E       		.byte	0x5e
 3763 02b2 03       		.byte	0x3
 3764 02b3 58030000 		.4byte	0x358
 3765 02b7 12       		.uleb128 0x12
 3766 02b8 D1030000 		.4byte	.LASF42
 3767 02bc 01       		.byte	0x1
 3768 02bd 5F       		.byte	0x5f
 3769 02be 58030000 		.4byte	0x358
 3770 02c2 0D       		.uleb128 0xd
 3771 02c3 7800     		.ascii	"x\000"
 3772 02c5 01       		.byte	0x1
 3773 02c6 60       		.byte	0x60
 3774 02c7 87010000 		.4byte	0x187
 3775 02cb 0D       		.uleb128 0xd
 3776 02cc 7900     		.ascii	"y\000"
 3777 02ce 01       		.byte	0x1
 3778 02cf 60       		.byte	0x60
 3779 02d0 A5020000 		.4byte	0x2a5
 3780 02d4 0D       		.uleb128 0xd
 3781 02d5 6E00     		.ascii	"n\000"
 3782 02d7 01       		.byte	0x1
 3783 02d8 60       		.byte	0x60
 3784 02d9 64000000 		.4byte	0x64
 3785 02dd 11       		.uleb128 0x11
 3786 02de 6E3300   		.ascii	"n3\000"
 3787 02e1 01       		.byte	0x1
 3788 02e2 62       		.byte	0x62
 3789 02e3 64000000 		.4byte	0x64
 3790 02e7 11       		.uleb128 0x11
 3791 02e8 773000   		.ascii	"w0\000"
 3792 02eb 01       		.byte	0x1
 3793 02ec 63       		.byte	0x63
 3794 02ed 5F010000 		.4byte	0x15f
 3795 02f1 11       		.uleb128 0x11
 3796 02f2 773100   		.ascii	"w1\000"
 3797 02f5 01       		.byte	0x1
 3798 02f6 64       		.byte	0x64
 3799 02f7 5F010000 		.4byte	0x15f
 3800 02fb 11       		.uleb128 0x11
 3801 02fc 773200   		.ascii	"w2\000"
 3802 02ff 01       		.byte	0x1
ARM GAS  C:\Users\rdn\AppData\Local\Temp\ccCJgMYD.s 			page 79


 3803 0300 64       		.byte	0x64
 3804 0301 5F010000 		.4byte	0x15f
 3805 0305 11       		.uleb128 0x11
 3806 0306 783000   		.ascii	"x0\000"
 3807 0309 01       		.byte	0x1
 3808 030a 66       		.byte	0x66
 3809 030b 87010000 		.4byte	0x187
 3810 030f 11       		.uleb128 0x11
 3811 0310 783100   		.ascii	"x1\000"
 3812 0313 01       		.byte	0x1
 3813 0314 66       		.byte	0x66
 3814 0315 87010000 		.4byte	0x187
 3815 0319 11       		.uleb128 0x11
 3816 031a 783200   		.ascii	"x2\000"
 3817 031d 01       		.byte	0x1
 3818 031e 66       		.byte	0x66
 3819 031f 87010000 		.4byte	0x187
 3820 0323 11       		.uleb128 0x11
 3821 0324 793000   		.ascii	"y0\000"
 3822 0327 01       		.byte	0x1
 3823 0328 67       		.byte	0x67
 3824 0329 A5020000 		.4byte	0x2a5
 3825 032d 11       		.uleb128 0x11
 3826 032e 793100   		.ascii	"y1\000"
 3827 0331 01       		.byte	0x1
 3828 0332 67       		.byte	0x67
 3829 0333 A5020000 		.4byte	0x2a5
 3830 0337 11       		.uleb128 0x11
 3831 0338 793200   		.ascii	"y2\000"
 3832 033b 01       		.byte	0x1
 3833 033c 67       		.byte	0x67
 3834 033d A5020000 		.4byte	0x2a5
 3835 0341 10       		.uleb128 0x10
 3836 0342 11       		.uleb128 0x11
 3837 0343 6900     		.ascii	"i\000"
 3838 0345 01       		.byte	0x1
 3839 0346 69       		.byte	0x69
 3840 0347 64000000 		.4byte	0x64
 3841 034b 10       		.uleb128 0x10
 3842 034c 11       		.uleb128 0x11
 3843 034d 6A00     		.ascii	"j\000"
 3844 034f 01       		.byte	0x1
 3845 0350 6A       		.byte	0x6a
 3846 0351 64000000 		.4byte	0x64
 3847 0355 00       		.byte	0
 3848 0356 00       		.byte	0
 3849 0357 00       		.byte	0
 3850 0358 0B       		.uleb128 0xb
 3851 0359 04       		.byte	0x4
 3852 035a 5E030000 		.4byte	0x35e
 3853 035e 0A       		.uleb128 0xa
 3854 035f 28010000 		.4byte	0x128
 3855 0363 0E       		.uleb128 0xe
 3856 0364 26000000 		.4byte	.LASF43
 3857 0368 01       		.byte	0x1
 3858 0369 88       		.byte	0x88
 3859 036a 03       		.byte	0x3
ARM GAS  C:\Users\rdn\AppData\Local\Temp\ccCJgMYD.s 			page 80


 3860 036b E7030000 		.4byte	0x3e7
 3861 036f 12       		.uleb128 0x12
 3862 0370 D1030000 		.4byte	.LASF42
 3863 0374 01       		.byte	0x1
 3864 0375 89       		.byte	0x89
 3865 0376 E7030000 		.4byte	0x3e7
 3866 037a 0D       		.uleb128 0xd
 3867 037b 7800     		.ascii	"x\000"
 3868 037d 01       		.byte	0x1
 3869 037e 8A       		.byte	0x8a
 3870 037f 87010000 		.4byte	0x187
 3871 0383 0D       		.uleb128 0xd
 3872 0384 7900     		.ascii	"y\000"
 3873 0386 01       		.byte	0x1
 3874 0387 8A       		.byte	0x8a
 3875 0388 A5020000 		.4byte	0x2a5
 3876 038c 0D       		.uleb128 0xd
 3877 038d 6E00     		.ascii	"n\000"
 3878 038f 01       		.byte	0x1
 3879 0390 8A       		.byte	0x8a
 3880 0391 64000000 		.4byte	0x64
 3881 0395 11       		.uleb128 0x11
 3882 0396 6E3200   		.ascii	"n2\000"
 3883 0399 01       		.byte	0x1
 3884 039a 8C       		.byte	0x8c
 3885 039b 64000000 		.4byte	0x64
 3886 039f 11       		.uleb128 0x11
 3887 03a0 7700     		.ascii	"w\000"
 3888 03a2 01       		.byte	0x1
 3889 03a3 8D       		.byte	0x8d
 3890 03a4 87010000 		.4byte	0x187
 3891 03a8 11       		.uleb128 0x11
 3892 03a9 783000   		.ascii	"x0\000"
 3893 03ac 01       		.byte	0x1
 3894 03ad 8F       		.byte	0x8f
 3895 03ae 87010000 		.4byte	0x187
 3896 03b2 11       		.uleb128 0x11
 3897 03b3 783100   		.ascii	"x1\000"
 3898 03b6 01       		.byte	0x1
 3899 03b7 8F       		.byte	0x8f
 3900 03b8 87010000 		.4byte	0x187
 3901 03bc 11       		.uleb128 0x11
 3902 03bd 793000   		.ascii	"y0\000"
 3903 03c0 01       		.byte	0x1
 3904 03c1 90       		.byte	0x90
 3905 03c2 A5020000 		.4byte	0x2a5
 3906 03c6 11       		.uleb128 0x11
 3907 03c7 793100   		.ascii	"y1\000"
 3908 03ca 01       		.byte	0x1
 3909 03cb 90       		.byte	0x90
 3910 03cc A5020000 		.4byte	0x2a5
 3911 03d0 10       		.uleb128 0x10
 3912 03d1 11       		.uleb128 0x11
 3913 03d2 6900     		.ascii	"i\000"
 3914 03d4 01       		.byte	0x1
 3915 03d5 92       		.byte	0x92
 3916 03d6 64000000 		.4byte	0x64
ARM GAS  C:\Users\rdn\AppData\Local\Temp\ccCJgMYD.s 			page 81


 3917 03da 10       		.uleb128 0x10
 3918 03db 11       		.uleb128 0x11
 3919 03dc 6A00     		.ascii	"j\000"
 3920 03de 01       		.byte	0x1
 3921 03df 94       		.byte	0x94
 3922 03e0 64000000 		.4byte	0x64
 3923 03e4 00       		.byte	0
 3924 03e5 00       		.byte	0
 3925 03e6 00       		.byte	0
 3926 03e7 0B       		.uleb128 0xb
 3927 03e8 04       		.byte	0x4
 3928 03e9 ED030000 		.4byte	0x3ed
 3929 03ed 0A       		.uleb128 0xa
 3930 03ee 65010000 		.4byte	0x165
 3931 03f2 13       		.uleb128 0x13
 3932 03f3 66667400 		.ascii	"fft\000"
 3933 03f7 01       		.byte	0x1
 3934 03f8 A8       		.byte	0xa8
 3935 03f9 A5020000 		.4byte	0x2a5
 3936 03fd 00000000 		.4byte	.LFB23
 3937 0401 7C070000 		.4byte	.LFE23-.LFB23
 3938 0405 01       		.uleb128 0x1
 3939 0406 9C       		.byte	0x9c
 3940 0407 5D060000 		.4byte	0x65d
 3941 040b 14       		.uleb128 0x14
 3942 040c 7800     		.ascii	"x\000"
 3943 040e 01       		.byte	0x1
 3944 040f A8       		.byte	0xa8
 3945 0410 87010000 		.4byte	0x187
 3946 0414 00000000 		.4byte	.LLST0
 3947 0418 14       		.uleb128 0x14
 3948 0419 6E00     		.ascii	"n\000"
 3949 041b 01       		.byte	0x1
 3950 041c A8       		.byte	0xa8
 3951 041d 64000000 		.4byte	0x64
 3952 0421 2C000000 		.4byte	.LLST1
 3953 0425 14       		.uleb128 0x14
 3954 0426 793000   		.ascii	"y0\000"
 3955 0429 01       		.byte	0x1
 3956 042a A9       		.byte	0xa9
 3957 042b A5020000 		.4byte	0x2a5
 3958 042f CA000000 		.4byte	.LLST2
 3959 0433 14       		.uleb128 0x14
 3960 0434 793100   		.ascii	"y1\000"
 3961 0437 01       		.byte	0x1
 3962 0438 A9       		.byte	0xa9
 3963 0439 A5020000 		.4byte	0x2a5
 3964 043d E9000000 		.4byte	.LLST3
 3965 0441 15       		.uleb128 0x15
 3966 0442 7900     		.ascii	"y\000"
 3967 0444 01       		.byte	0x1
 3968 0445 AB       		.byte	0xab
 3969 0446 5D060000 		.4byte	0x65d
 3970 044a 02       		.uleb128 0x2
 3971 044b 91       		.byte	0x91
 3972 044c 50       		.sleb128 -48
 3973 044d 15       		.uleb128 0x15
ARM GAS  C:\Users\rdn\AppData\Local\Temp\ccCJgMYD.s 			page 82


 3974 044e 693200   		.ascii	"i2\000"
 3975 0451 01       		.byte	0x1
 3976 0452 AC       		.byte	0xac
 3977 0453 64000000 		.4byte	0x64
 3978 0457 03       		.uleb128 0x3
 3979 0458 91       		.byte	0x91
 3980 0459 B07F     		.sleb128 -80
 3981 045b 15       		.uleb128 0x15
 3982 045c 693300   		.ascii	"i3\000"
 3983 045f 01       		.byte	0x1
 3984 0460 AC       		.byte	0xac
 3985 0461 64000000 		.4byte	0x64
 3986 0465 02       		.uleb128 0x2
 3987 0466 91       		.byte	0x91
 3988 0467 4C       		.sleb128 -52
 3989 0468 16       		.uleb128 0x16
 3990 0469 697300   		.ascii	"is\000"
 3991 046c 01       		.byte	0x1
 3992 046d AC       		.byte	0xac
 3993 046e 64000000 		.4byte	0x64
 3994 0472 5A010000 		.4byte	.LLST4
 3995 0476 17       		.uleb128 0x17
 3996 0477 04020000 		.4byte	0x204
 3997 047b 20000000 		.4byte	.LBB36
 3998 047f EA020000 		.4byte	.LBE36-.LBB36
 3999 0483 01       		.byte	0x1
 4000 0484 B9       		.byte	0xb9
 4001 0485 08050000 		.4byte	0x508
 4002 0489 18       		.uleb128 0x18
 4003 048a 22020000 		.4byte	0x222
 4004 048e 92010000 		.4byte	.LLST5
 4005 0492 18       		.uleb128 0x18
 4006 0493 19020000 		.4byte	0x219
 4007 0497 B0010000 		.4byte	.LLST6
 4008 049b 18       		.uleb128 0x18
 4009 049c 10020000 		.4byte	0x210
 4010 04a0 CE010000 		.4byte	.LLST7
 4011 04a4 19       		.uleb128 0x19
 4012 04a5 20000000 		.4byte	.LBB37
 4013 04a9 EA020000 		.4byte	.LBE37-.LBB37
 4014 04ad 1A       		.uleb128 0x1a
 4015 04ae 2B020000 		.4byte	0x22b
 4016 04b2 04       		.byte	0x4
 4017 04b3 7A379E3E 		.4byte	0x3e9e377a
 4018 04b7 1A       		.uleb128 0x1a
 4019 04b8 3B020000 		.4byte	0x23b
 4020 04bc 04       		.byte	0x4
 4021 04bd BD1B4FBF 		.4byte	0xbf4f1bbd
 4022 04c1 1A       		.uleb128 0x1a
 4023 04c2 4B020000 		.4byte	0x24b
 4024 04c6 04       		.byte	0x4
 4025 04c7 717873BF 		.4byte	0xbf737871
 4026 04cb 1A       		.uleb128 0x1a
 4027 04cc 5B020000 		.4byte	0x25b
 4028 04d0 04       		.byte	0x4
 4029 04d1 187916BF 		.4byte	0xbf167918
 4030 04d5 19       		.uleb128 0x19
ARM GAS  C:\Users\rdn\AppData\Local\Temp\ccCJgMYD.s 			page 83


 4031 04d6 20000000 		.4byte	.LBB38
 4032 04da EA020000 		.4byte	.LBE38-.LBB38
 4033 04de 1B       		.uleb128 0x1b
 4034 04df 6C020000 		.4byte	0x26c
 4035 04e3 EC010000 		.4byte	.LLST8
 4036 04e7 19       		.uleb128 0x19
 4037 04e8 2C000000 		.4byte	.LBB39
 4038 04ec CA020000 		.4byte	.LBE39-.LBB39
 4039 04f0 1C       		.uleb128 0x1c
 4040 04f1 76020000 		.4byte	0x276
 4041 04f5 1C       		.uleb128 0x1c
 4042 04f6 81020000 		.4byte	0x281
 4043 04fa 1C       		.uleb128 0x1c
 4044 04fb 8C020000 		.4byte	0x28c
 4045 04ff 1C       		.uleb128 0x1c
 4046 0500 97020000 		.4byte	0x297
 4047 0504 00       		.byte	0
 4048 0505 00       		.byte	0
 4049 0506 00       		.byte	0
 4050 0507 00       		.byte	0
 4051 0508 17       		.uleb128 0x17
 4052 0509 AB020000 		.4byte	0x2ab
 4053 050d 3C030000 		.4byte	.LBB40
 4054 0511 BE020000 		.4byte	.LBE40-.LBB40
 4055 0515 01       		.byte	0x1
 4056 0516 BC       		.byte	0xbc
 4057 0517 C6050000 		.4byte	0x5c6
 4058 051b 18       		.uleb128 0x18
 4059 051c D4020000 		.4byte	0x2d4
 4060 0520 0B020000 		.4byte	.LLST9
 4061 0524 18       		.uleb128 0x18
 4062 0525 CB020000 		.4byte	0x2cb
 4063 0529 2A020000 		.4byte	.LLST10
 4064 052d 18       		.uleb128 0x18
 4065 052e C2020000 		.4byte	0x2c2
 4066 0532 52020000 		.4byte	.LLST11
 4067 0536 18       		.uleb128 0x18
 4068 0537 B7020000 		.4byte	0x2b7
 4069 053b 7C020000 		.4byte	.LLST12
 4070 053f 19       		.uleb128 0x19
 4071 0540 3C030000 		.4byte	.LBB41
 4072 0544 BE020000 		.4byte	.LBE41-.LBB41
 4073 0548 1B       		.uleb128 0x1b
 4074 0549 DD020000 		.4byte	0x2dd
 4075 054d 8F020000 		.4byte	.LLST13
 4076 0551 1B       		.uleb128 0x1b
 4077 0552 E7020000 		.4byte	0x2e7
 4078 0556 AF020000 		.4byte	.LLST14
 4079 055a 1B       		.uleb128 0x1b
 4080 055b F1020000 		.4byte	0x2f1
 4081 055f CF020000 		.4byte	.LLST15
 4082 0563 1B       		.uleb128 0x1b
 4083 0564 FB020000 		.4byte	0x2fb
 4084 0568 EF020000 		.4byte	.LLST16
 4085 056c 1B       		.uleb128 0x1b
 4086 056d 05030000 		.4byte	0x305
 4087 0571 0F030000 		.4byte	.LLST17
ARM GAS  C:\Users\rdn\AppData\Local\Temp\ccCJgMYD.s 			page 84


 4088 0575 1B       		.uleb128 0x1b
 4089 0576 0F030000 		.4byte	0x30f
 4090 057a 22030000 		.4byte	.LLST18
 4091 057e 1B       		.uleb128 0x1b
 4092 057f 19030000 		.4byte	0x319
 4093 0583 40030000 		.4byte	.LLST19
 4094 0587 1B       		.uleb128 0x1b
 4095 0588 23030000 		.4byte	0x323
 4096 058c 5E030000 		.4byte	.LLST20
 4097 0590 1B       		.uleb128 0x1b
 4098 0591 2D030000 		.4byte	0x32d
 4099 0595 A1030000 		.4byte	.LLST21
 4100 0599 1B       		.uleb128 0x1b
 4101 059a 37030000 		.4byte	0x337
 4102 059e E4030000 		.4byte	.LLST22
 4103 05a2 19       		.uleb128 0x19
 4104 05a3 72030000 		.4byte	.LBB42
 4105 05a7 88020000 		.4byte	.LBE42-.LBB42
 4106 05ab 1B       		.uleb128 0x1b
 4107 05ac 42030000 		.4byte	0x342
 4108 05b0 04040000 		.4byte	.LLST23
 4109 05b4 1D       		.uleb128 0x1d
 4110 05b5 00000000 		.4byte	.Ldebug_ranges0+0
 4111 05b9 1B       		.uleb128 0x1b
 4112 05ba 4C030000 		.4byte	0x34c
 4113 05be 52040000 		.4byte	.LLST24
 4114 05c2 00       		.byte	0
 4115 05c3 00       		.byte	0
 4116 05c4 00       		.byte	0
 4117 05c5 00       		.byte	0
 4118 05c6 1E       		.uleb128 0x1e
 4119 05c7 63030000 		.4byte	0x363
 4120 05cb 42060000 		.4byte	.LBB45
 4121 05cf 10010000 		.4byte	.LBE45-.LBB45
 4122 05d3 01       		.byte	0x1
 4123 05d4 BF       		.byte	0xbf
 4124 05d5 18       		.uleb128 0x18
 4125 05d6 8C030000 		.4byte	0x38c
 4126 05da 70040000 		.4byte	.LLST25
 4127 05de 18       		.uleb128 0x18
 4128 05df 83030000 		.4byte	0x383
 4129 05e3 8F040000 		.4byte	.LLST26
 4130 05e7 18       		.uleb128 0x18
 4131 05e8 7A030000 		.4byte	0x37a
 4132 05ec B7040000 		.4byte	.LLST27
 4133 05f0 18       		.uleb128 0x18
 4134 05f1 6F030000 		.4byte	0x36f
 4135 05f5 E1040000 		.4byte	.LLST28
 4136 05f9 19       		.uleb128 0x19
 4137 05fa 42060000 		.4byte	.LBB46
 4138 05fe 10010000 		.4byte	.LBE46-.LBB46
 4139 0602 1B       		.uleb128 0x1b
 4140 0603 95030000 		.4byte	0x395
 4141 0607 F4040000 		.4byte	.LLST29
 4142 060b 1B       		.uleb128 0x1b
 4143 060c 9F030000 		.4byte	0x39f
 4144 0610 12050000 		.4byte	.LLST30
ARM GAS  C:\Users\rdn\AppData\Local\Temp\ccCJgMYD.s 			page 85


 4145 0614 1B       		.uleb128 0x1b
 4146 0615 A8030000 		.4byte	0x3a8
 4147 0619 32050000 		.4byte	.LLST31
 4148 061d 1B       		.uleb128 0x1b
 4149 061e B2030000 		.4byte	0x3b2
 4150 0622 45050000 		.4byte	.LLST32
 4151 0626 1B       		.uleb128 0x1b
 4152 0627 BC030000 		.4byte	0x3bc
 4153 062b 58050000 		.4byte	.LLST33
 4154 062f 1B       		.uleb128 0x1b
 4155 0630 C6030000 		.4byte	0x3c6
 4156 0634 99050000 		.4byte	.LLST34
 4157 0638 19       		.uleb128 0x19
 4158 0639 5A060000 		.4byte	.LBB47
 4159 063d F8000000 		.4byte	.LBE47-.LBB47
 4160 0641 1B       		.uleb128 0x1b
 4161 0642 D1030000 		.4byte	0x3d1
 4162 0646 B9050000 		.4byte	.LLST35
 4163 064a 1D       		.uleb128 0x1d
 4164 064b 18000000 		.4byte	.Ldebug_ranges0+0x18
 4165 064f 1B       		.uleb128 0x1b
 4166 0650 DB030000 		.4byte	0x3db
 4167 0654 0A060000 		.4byte	.LLST36
 4168 0658 00       		.byte	0
 4169 0659 00       		.byte	0
 4170 065a 00       		.byte	0
 4171 065b 00       		.byte	0
 4172 065c 00       		.byte	0
 4173 065d 08       		.uleb128 0x8
 4174 065e A5020000 		.4byte	0x2a5
 4175 0662 6D060000 		.4byte	0x66d
 4176 0666 09       		.uleb128 0x9
 4177 0667 E9000000 		.4byte	0xe9
 4178 066b 01       		.byte	0x1
 4179 066c 00       		.byte	0
 4180 066d 1F       		.uleb128 0x1f
 4181 066e 8E010000 		.4byte	.LASF44
 4182 0672 01       		.byte	0x1
 4183 0673 CF       		.byte	0xcf
 4184 0674 00000000 		.4byte	.LFB24
 4185 0678 6C020000 		.4byte	.LFE24-.LFB24
 4186 067c 01       		.uleb128 0x1
 4187 067d 9C       		.byte	0x9c
 4188 067e BC070000 		.4byte	0x7bc
 4189 0682 14       		.uleb128 0x14
 4190 0683 647400   		.ascii	"dt\000"
 4191 0686 01       		.byte	0x1
 4192 0687 D0       		.byte	0xd0
 4193 0688 72000000 		.4byte	0x72
 4194 068c 28060000 		.4byte	.LLST37
 4195 0690 14       		.uleb128 0x14
 4196 0691 737200   		.ascii	"sr\000"
 4197 0694 01       		.byte	0x1
 4198 0695 D0       		.byte	0xd0
 4199 0696 A1000000 		.4byte	0xa1
 4200 069a 49060000 		.4byte	.LLST38
 4201 069e 14       		.uleb128 0x14
ARM GAS  C:\Users\rdn\AppData\Local\Temp\ccCJgMYD.s 			page 86


 4202 069f 7800     		.ascii	"x\000"
 4203 06a1 01       		.byte	0x1
 4204 06a2 D1       		.byte	0xd1
 4205 06a3 AF010000 		.4byte	0x1af
 4206 06a7 6A060000 		.4byte	.LLST39
 4207 06ab 14       		.uleb128 0x14
 4208 06ac 6400     		.ascii	"d\000"
 4209 06ae 01       		.byte	0x1
 4210 06af D1       		.byte	0xd1
 4211 06b0 BC070000 		.4byte	0x7bc
 4212 06b4 AD060000 		.4byte	.LLST40
 4213 06b8 20       		.uleb128 0x20
 4214 06b9 7900     		.ascii	"y\000"
 4215 06bb 01       		.byte	0x1
 4216 06bc D1       		.byte	0xd1
 4217 06bd BC070000 		.4byte	0x7bc
 4218 06c1 02       		.uleb128 0x2
 4219 06c2 91       		.byte	0x91
 4220 06c3 00       		.sleb128 0
 4221 06c4 16       		.uleb128 0x16
 4222 06c5 77696E00 		.ascii	"win\000"
 4223 06c9 01       		.byte	0x1
 4224 06ca D3       		.byte	0xd3
 4225 06cb AF010000 		.4byte	0x1af
 4226 06cf E4060000 		.4byte	.LLST41
 4227 06d3 11       		.uleb128 0x11
 4228 06d4 6E7300   		.ascii	"ns\000"
 4229 06d7 01       		.byte	0x1
 4230 06d8 D4       		.byte	0xd4
 4231 06d9 64000000 		.4byte	0x64
 4232 06dd 11       		.uleb128 0x11
 4233 06de 6E6400   		.ascii	"nd\000"
 4234 06e1 01       		.byte	0x1
 4235 06e2 D4       		.byte	0xd4
 4236 06e3 64000000 		.4byte	0x64
 4237 06e7 16       		.uleb128 0x16
 4238 06e8 773000   		.ascii	"w0\000"
 4239 06eb 01       		.byte	0x1
 4240 06ec D6       		.byte	0xd6
 4241 06ed AF010000 		.4byte	0x1af
 4242 06f1 F7060000 		.4byte	.LLST42
 4243 06f5 16       		.uleb128 0x16
 4244 06f6 773100   		.ascii	"w1\000"
 4245 06f9 01       		.byte	0x1
 4246 06fa D6       		.byte	0xd6
 4247 06fb AF010000 		.4byte	0x1af
 4248 06ff 73070000 		.4byte	.LLST43
 4249 0703 16       		.uleb128 0x16
 4250 0704 773200   		.ascii	"w2\000"
 4251 0707 01       		.byte	0x1
 4252 0708 D7       		.byte	0xd7
 4253 0709 AF010000 		.4byte	0x1af
 4254 070d 29080000 		.4byte	.LLST44
 4255 0711 16       		.uleb128 0x16
 4256 0712 773300   		.ascii	"w3\000"
 4257 0715 01       		.byte	0x1
 4258 0716 D7       		.byte	0xd7
ARM GAS  C:\Users\rdn\AppData\Local\Temp\ccCJgMYD.s 			page 87


 4259 0717 AF010000 		.4byte	0x1af
 4260 071b 99080000 		.4byte	.LLST45
 4261 071f 16       		.uleb128 0x16
 4262 0720 783000   		.ascii	"x0\000"
 4263 0723 01       		.byte	0x1
 4264 0724 D9       		.byte	0xd9
 4265 0725 AF010000 		.4byte	0x1af
 4266 0729 05090000 		.4byte	.LLST46
 4267 072d 16       		.uleb128 0x16
 4268 072e 783100   		.ascii	"x1\000"
 4269 0731 01       		.byte	0x1
 4270 0732 D9       		.byte	0xd9
 4271 0733 AF010000 		.4byte	0x1af
 4272 0737 8C090000 		.4byte	.LLST47
 4273 073b 16       		.uleb128 0x16
 4274 073c 793000   		.ascii	"y0\000"
 4275 073f 01       		.byte	0x1
 4276 0740 DA       		.byte	0xda
 4277 0741 BC070000 		.4byte	0x7bc
 4278 0745 6A0A0000 		.4byte	.LLST48
 4279 0749 16       		.uleb128 0x16
 4280 074a 793100   		.ascii	"y1\000"
 4281 074d 01       		.byte	0x1
 4282 074e DA       		.byte	0xda
 4283 074f BC070000 		.4byte	0x7bc
 4284 0753 E80A0000 		.4byte	.LLST49
 4285 0757 16       		.uleb128 0x16
 4286 0758 643000   		.ascii	"d0\000"
 4287 075b 01       		.byte	0x1
 4288 075c DB       		.byte	0xdb
 4289 075d BC070000 		.4byte	0x7bc
 4290 0761 7C0B0000 		.4byte	.LLST50
 4291 0765 16       		.uleb128 0x16
 4292 0766 643100   		.ascii	"d1\000"
 4293 0769 01       		.byte	0x1
 4294 076a DB       		.byte	0xdb
 4295 076b BC070000 		.4byte	0x7bc
 4296 076f 190C0000 		.4byte	.LLST51
 4297 0773 17       		.uleb128 0x17
 4298 0774 BA010000 		.4byte	0x1ba
 4299 0778 1E000000 		.4byte	.LBB50
 4300 077c 0A000000 		.4byte	.LBE50-.LBB50
 4301 0780 01       		.byte	0x1
 4302 0781 D4       		.byte	0xd4
 4303 0782 99070000 		.4byte	0x799
 4304 0786 18       		.uleb128 0x18
 4305 0787 D4010000 		.4byte	0x1d4
 4306 078b 5B0C0000 		.4byte	.LLST52
 4307 078f 18       		.uleb128 0x18
 4308 0790 CA010000 		.4byte	0x1ca
 4309 0794 6E0C0000 		.4byte	.LLST53
 4310 0798 00       		.byte	0
 4311 0799 1E       		.uleb128 0x1e
 4312 079a DF010000 		.4byte	0x1df
 4313 079e 28000000 		.4byte	.LBB52
 4314 07a2 0E000000 		.4byte	.LBE52-.LBB52
 4315 07a6 01       		.byte	0x1
ARM GAS  C:\Users\rdn\AppData\Local\Temp\ccCJgMYD.s 			page 88


 4316 07a7 D4       		.byte	0xd4
 4317 07a8 18       		.uleb128 0x18
 4318 07a9 F9010000 		.4byte	0x1f9
 4319 07ad 810C0000 		.4byte	.LLST54
 4320 07b1 18       		.uleb128 0x18
 4321 07b2 EF010000 		.4byte	0x1ef
 4322 07b6 940C0000 		.4byte	.LLST55
 4323 07ba 00       		.byte	0
 4324 07bb 00       		.byte	0
 4325 07bc 0B       		.uleb128 0xb
 4326 07bd 04       		.byte	0x4
 4327 07be 25000000 		.4byte	0x25
 4328 07c2 1F       		.uleb128 0x1f
 4329 07c3 64030000 		.4byte	.LASF45
 4330 07c7 01       		.byte	0x1
 4331 07c8 F5       		.byte	0xf5
 4332 07c9 00000000 		.4byte	.LFB25
 4333 07cd 28010000 		.4byte	.LFE25-.LFB25
 4334 07d1 01       		.uleb128 0x1
 4335 07d2 9C       		.byte	0x9c
 4336 07d3 A2080000 		.4byte	0x8a2
 4337 07d7 14       		.uleb128 0x14
 4338 07d8 64656600 		.ascii	"def\000"
 4339 07dc 01       		.byte	0x1
 4340 07dd F5       		.byte	0xf5
 4341 07de A2080000 		.4byte	0x8a2
 4342 07e2 A70C0000 		.4byte	.LLST56
 4343 07e6 14       		.uleb128 0x14
 4344 07e7 7800     		.ascii	"x\000"
 4345 07e9 01       		.byte	0x1
 4346 07ea F6       		.byte	0xf6
 4347 07eb AF010000 		.4byte	0x1af
 4348 07ef C80C0000 		.4byte	.LLST57
 4349 07f3 14       		.uleb128 0x14
 4350 07f4 7900     		.ascii	"y\000"
 4351 07f6 01       		.byte	0x1
 4352 07f7 F6       		.byte	0xf6
 4353 07f8 A5020000 		.4byte	0x2a5
 4354 07fc E90C0000 		.4byte	.LLST58
 4355 0800 16       		.uleb128 0x16
 4356 0801 6E3400   		.ascii	"n4\000"
 4357 0804 01       		.byte	0x1
 4358 0805 F8       		.byte	0xf8
 4359 0806 64000000 		.4byte	0x64
 4360 080a 150D0000 		.4byte	.LLST59
 4361 080e 16       		.uleb128 0x16
 4362 080f 783000   		.ascii	"x0\000"
 4363 0812 01       		.byte	0x1
 4364 0813 FA       		.byte	0xfa
 4365 0814 AF010000 		.4byte	0x1af
 4366 0818 290D0000 		.4byte	.LLST60
 4367 081c 16       		.uleb128 0x16
 4368 081d 783100   		.ascii	"x1\000"
 4369 0820 01       		.byte	0x1
 4370 0821 FA       		.byte	0xfa
 4371 0822 AF010000 		.4byte	0x1af
 4372 0826 5F0D0000 		.4byte	.LLST61
ARM GAS  C:\Users\rdn\AppData\Local\Temp\ccCJgMYD.s 			page 89


 4373 082a 16       		.uleb128 0x16
 4374 082b 773000   		.ascii	"w0\000"
 4375 082e 01       		.byte	0x1
 4376 082f FB       		.byte	0xfb
 4377 0830 87010000 		.4byte	0x187
 4378 0834 AD0D0000 		.4byte	.LLST62
 4379 0838 16       		.uleb128 0x16
 4380 0839 773100   		.ascii	"w1\000"
 4381 083c 01       		.byte	0x1
 4382 083d FB       		.byte	0xfb
 4383 083e 87010000 		.4byte	0x187
 4384 0842 ED0D0000 		.4byte	.LLST63
 4385 0846 16       		.uleb128 0x16
 4386 0847 793000   		.ascii	"y0\000"
 4387 084a 01       		.byte	0x1
 4388 084b FC       		.byte	0xfc
 4389 084c A5020000 		.4byte	0x2a5
 4390 0850 0B0E0000 		.4byte	.LLST64
 4391 0854 16       		.uleb128 0x16
 4392 0855 793100   		.ascii	"y1\000"
 4393 0858 01       		.byte	0x1
 4394 0859 FC       		.byte	0xfc
 4395 085a A5020000 		.4byte	0x2a5
 4396 085e 590E0000 		.4byte	.LLST65
 4397 0862 19       		.uleb128 0x19
 4398 0863 2A000000 		.4byte	.LBB54
 4399 0867 EC000000 		.4byte	.LBE54-.LBB54
 4400 086b 15       		.uleb128 0x15
 4401 086c 7500     		.ascii	"u\000"
 4402 086e 01       		.byte	0x1
 4403 086f FF       		.byte	0xff
 4404 0870 05010000 		.4byte	0x105
 4405 0874 03       		.uleb128 0x3
 4406 0875 91       		.byte	0x91
 4407 0876 B87F     		.sleb128 -72
 4408 0878 15       		.uleb128 0x15
 4409 0879 757700   		.ascii	"uw\000"
 4410 087c 01       		.byte	0x1
 4411 087d FF       		.byte	0xff
 4412 087e 05010000 		.4byte	0x105
 4413 0882 02       		.uleb128 0x2
 4414 0883 91       		.byte	0x91
 4415 0884 40       		.sleb128 -64
 4416 0885 21       		.uleb128 0x21
 4417 0886 7600     		.ascii	"v\000"
 4418 0888 01       		.byte	0x1
 4419 0889 0301     		.2byte	0x103
 4420 088b 05010000 		.4byte	0x105
 4421 088f 02       		.uleb128 0x2
 4422 0890 91       		.byte	0x91
 4423 0891 48       		.sleb128 -56
 4424 0892 21       		.uleb128 0x21
 4425 0893 767700   		.ascii	"vw\000"
 4426 0896 01       		.byte	0x1
 4427 0897 0301     		.2byte	0x103
 4428 0899 05010000 		.4byte	0x105
 4429 089d 02       		.uleb128 0x2
ARM GAS  C:\Users\rdn\AppData\Local\Temp\ccCJgMYD.s 			page 90


 4430 089e 91       		.byte	0x91
 4431 089f 50       		.sleb128 -48
 4432 08a0 00       		.byte	0
 4433 08a1 00       		.byte	0
 4434 08a2 0B       		.uleb128 0xb
 4435 08a3 04       		.byte	0x4
 4436 08a4 A8080000 		.4byte	0x8a8
 4437 08a8 0A       		.uleb128 0xa
 4438 08a9 8D010000 		.4byte	0x18d
 4439 08ad 22       		.uleb128 0x22
 4440 08ae 1C010000 		.4byte	.LASF46
 4441 08b2 01       		.byte	0x1
 4442 08b3 1301     		.2byte	0x113
 4443 08b5 00000000 		.4byte	.LFB26
 4444 08b9 02010000 		.4byte	.LFE26-.LFB26
 4445 08bd 01       		.uleb128 0x1
 4446 08be 9C       		.byte	0x9c
 4447 08bf AA090000 		.4byte	0x9aa
 4448 08c3 23       		.uleb128 0x23
 4449 08c4 64656600 		.ascii	"def\000"
 4450 08c8 01       		.byte	0x1
 4451 08c9 1301     		.2byte	0x113
 4452 08cb A2080000 		.4byte	0x8a2
 4453 08cf 770E0000 		.4byte	.LLST66
 4454 08d3 23       		.uleb128 0x23
 4455 08d4 7800     		.ascii	"x\000"
 4456 08d6 01       		.byte	0x1
 4457 08d7 1401     		.2byte	0x114
 4458 08d9 87010000 		.4byte	0x187
 4459 08dd 980E0000 		.4byte	.LLST67
 4460 08e1 23       		.uleb128 0x23
 4461 08e2 7900     		.ascii	"y\000"
 4462 08e4 01       		.byte	0x1
 4463 08e5 1401     		.2byte	0x114
 4464 08e7 BC070000 		.4byte	0x7bc
 4465 08eb B90E0000 		.4byte	.LLST68
 4466 08ef 24       		.uleb128 0x24
 4467 08f0 6E3400   		.ascii	"n4\000"
 4468 08f3 01       		.byte	0x1
 4469 08f4 1601     		.2byte	0x116
 4470 08f6 64000000 		.4byte	0x64
 4471 08fa F00E0000 		.4byte	.LLST69
 4472 08fe 24       		.uleb128 0x24
 4473 08ff 6E3800   		.ascii	"n8\000"
 4474 0902 01       		.byte	0x1
 4475 0903 1601     		.2byte	0x116
 4476 0905 64000000 		.4byte	0x64
 4477 0909 100F0000 		.4byte	.LLST70
 4478 090d 24       		.uleb128 0x24
 4479 090e 773000   		.ascii	"w0\000"
 4480 0911 01       		.byte	0x1
 4481 0912 1801     		.2byte	0x118
 4482 0914 87010000 		.4byte	0x187
 4483 0918 430F0000 		.4byte	.LLST71
 4484 091c 24       		.uleb128 0x24
 4485 091d 773100   		.ascii	"w1\000"
 4486 0920 01       		.byte	0x1
ARM GAS  C:\Users\rdn\AppData\Local\Temp\ccCJgMYD.s 			page 91


 4487 0921 1801     		.2byte	0x118
 4488 0923 87010000 		.4byte	0x187
 4489 0927 610F0000 		.4byte	.LLST72
 4490 092b 24       		.uleb128 0x24
 4491 092c 783000   		.ascii	"x0\000"
 4492 092f 01       		.byte	0x1
 4493 0930 1901     		.2byte	0x119
 4494 0932 87010000 		.4byte	0x187
 4495 0936 7F0F0000 		.4byte	.LLST73
 4496 093a 24       		.uleb128 0x24
 4497 093b 783100   		.ascii	"x1\000"
 4498 093e 01       		.byte	0x1
 4499 093f 1901     		.2byte	0x119
 4500 0941 87010000 		.4byte	0x187
 4501 0945 9D0F0000 		.4byte	.LLST74
 4502 0949 24       		.uleb128 0x24
 4503 094a 793000   		.ascii	"y0\000"
 4504 094d 01       		.byte	0x1
 4505 094e 1B01     		.2byte	0x11b
 4506 0950 BC070000 		.4byte	0x7bc
 4507 0954 B00F0000 		.4byte	.LLST75
 4508 0958 24       		.uleb128 0x24
 4509 0959 793100   		.ascii	"y1\000"
 4510 095c 01       		.byte	0x1
 4511 095d 1B01     		.2byte	0x11b
 4512 095f BC070000 		.4byte	0x7bc
 4513 0963 F30F0000 		.4byte	.LLST76
 4514 0967 1D       		.uleb128 0x1d
 4515 0968 30000000 		.4byte	.Ldebug_ranges0+0x30
 4516 096c 24       		.uleb128 0x24
 4517 096d 753000   		.ascii	"u0\000"
 4518 0970 01       		.byte	0x1
 4519 0971 1F01     		.2byte	0x11f
 4520 0973 25000000 		.4byte	0x25
 4521 0977 34100000 		.4byte	.LLST77
 4522 097b 24       		.uleb128 0x24
 4523 097c 753100   		.ascii	"u1\000"
 4524 097f 01       		.byte	0x1
 4525 0980 2001     		.2byte	0x120
 4526 0982 25000000 		.4byte	0x25
 4527 0986 53100000 		.4byte	.LLST78
 4528 098a 24       		.uleb128 0x24
 4529 098b 763000   		.ascii	"v0\000"
 4530 098e 01       		.byte	0x1
 4531 098f 2201     		.2byte	0x122
 4532 0991 25000000 		.4byte	0x25
 4533 0995 72100000 		.4byte	.LLST79
 4534 0999 24       		.uleb128 0x24
 4535 099a 763100   		.ascii	"v1\000"
 4536 099d 01       		.byte	0x1
 4537 099e 2301     		.2byte	0x123
 4538 09a0 25000000 		.4byte	0x25
 4539 09a4 90100000 		.4byte	.LLST80
 4540 09a8 00       		.byte	0
 4541 09a9 00       		.byte	0
 4542 09aa 22       		.uleb128 0x22
 4543 09ab 2A010000 		.4byte	.LASF47
ARM GAS  C:\Users\rdn\AppData\Local\Temp\ccCJgMYD.s 			page 92


 4544 09af 01       		.byte	0x1
 4545 09b0 3301     		.2byte	0x133
 4546 09b2 00000000 		.4byte	.LFB27
 4547 09b6 28010000 		.4byte	.LFE27-.LFB27
 4548 09ba 01       		.uleb128 0x1
 4549 09bb 9C       		.byte	0x9c
 4550 09bc B80A0000 		.4byte	0xab8
 4551 09c0 23       		.uleb128 0x23
 4552 09c1 64656600 		.ascii	"def\000"
 4553 09c5 01       		.byte	0x1
 4554 09c6 3301     		.2byte	0x133
 4555 09c8 A2080000 		.4byte	0x8a2
 4556 09cc A3100000 		.4byte	.LLST81
 4557 09d0 23       		.uleb128 0x23
 4558 09d1 7800     		.ascii	"x\000"
 4559 09d3 01       		.byte	0x1
 4560 09d4 3401     		.2byte	0x134
 4561 09d6 AF010000 		.4byte	0x1af
 4562 09da C4100000 		.4byte	.LLST82
 4563 09de 23       		.uleb128 0x23
 4564 09df 7900     		.ascii	"y\000"
 4565 09e1 01       		.byte	0x1
 4566 09e2 3401     		.2byte	0x134
 4567 09e4 A5020000 		.4byte	0x2a5
 4568 09e8 E5100000 		.4byte	.LLST83
 4569 09ec 24       		.uleb128 0x24
 4570 09ed 6E3400   		.ascii	"n4\000"
 4571 09f0 01       		.byte	0x1
 4572 09f1 3601     		.2byte	0x136
 4573 09f3 64000000 		.4byte	0x64
 4574 09f7 11110000 		.4byte	.LLST84
 4575 09fb 24       		.uleb128 0x24
 4576 09fc 783000   		.ascii	"x0\000"
 4577 09ff 01       		.byte	0x1
 4578 0a00 3801     		.2byte	0x138
 4579 0a02 AF010000 		.4byte	0x1af
 4580 0a06 32110000 		.4byte	.LLST85
 4581 0a0a 24       		.uleb128 0x24
 4582 0a0b 783100   		.ascii	"x1\000"
 4583 0a0e 01       		.byte	0x1
 4584 0a0f 3801     		.2byte	0x138
 4585 0a11 AF010000 		.4byte	0x1af
 4586 0a15 75110000 		.4byte	.LLST86
 4587 0a19 24       		.uleb128 0x24
 4588 0a1a 773000   		.ascii	"w0\000"
 4589 0a1d 01       		.byte	0x1
 4590 0a1e 3A01     		.2byte	0x13a
 4591 0a20 87010000 		.4byte	0x187
 4592 0a24 C3110000 		.4byte	.LLST87
 4593 0a28 24       		.uleb128 0x24
 4594 0a29 773100   		.ascii	"w1\000"
 4595 0a2c 01       		.byte	0x1
 4596 0a2d 3A01     		.2byte	0x13a
 4597 0a2f 87010000 		.4byte	0x187
 4598 0a33 04120000 		.4byte	.LLST88
 4599 0a37 24       		.uleb128 0x24
 4600 0a38 793000   		.ascii	"y0\000"
ARM GAS  C:\Users\rdn\AppData\Local\Temp\ccCJgMYD.s 			page 93


 4601 0a3b 01       		.byte	0x1
 4602 0a3c 3B01     		.2byte	0x13b
 4603 0a3e A5020000 		.4byte	0x2a5
 4604 0a42 22120000 		.4byte	.LLST89
 4605 0a46 24       		.uleb128 0x24
 4606 0a47 793100   		.ascii	"y1\000"
 4607 0a4a 01       		.byte	0x1
 4608 0a4b 3B01     		.2byte	0x13b
 4609 0a4d A5020000 		.4byte	0x2a5
 4610 0a51 4B120000 		.4byte	.LLST90
 4611 0a55 19       		.uleb128 0x19
 4612 0a56 20000000 		.4byte	.LBB57
 4613 0a5a F6000000 		.4byte	.LBE57-.LBB57
 4614 0a5e 24       		.uleb128 0x24
 4615 0a5f 753000   		.ascii	"u0\000"
 4616 0a62 01       		.byte	0x1
 4617 0a63 3E01     		.2byte	0x13e
 4618 0a65 25000000 		.4byte	0x25
 4619 0a69 5E120000 		.4byte	.LLST91
 4620 0a6d 24       		.uleb128 0x24
 4621 0a6e 753100   		.ascii	"u1\000"
 4622 0a71 01       		.byte	0x1
 4623 0a72 3E01     		.2byte	0x13e
 4624 0a74 25000000 		.4byte	0x25
 4625 0a78 7C120000 		.4byte	.LLST92
 4626 0a7c 24       		.uleb128 0x24
 4627 0a7d 763000   		.ascii	"v0\000"
 4628 0a80 01       		.byte	0x1
 4629 0a81 3F01     		.2byte	0x13f
 4630 0a83 25000000 		.4byte	0x25
 4631 0a87 A8120000 		.4byte	.LLST93
 4632 0a8b 24       		.uleb128 0x24
 4633 0a8c 763100   		.ascii	"v1\000"
 4634 0a8f 01       		.byte	0x1
 4635 0a90 3F01     		.2byte	0x13f
 4636 0a92 25000000 		.4byte	0x25
 4637 0a96 C8120000 		.4byte	.LLST94
 4638 0a9a 21       		.uleb128 0x21
 4639 0a9b 757700   		.ascii	"uw\000"
 4640 0a9e 01       		.byte	0x1
 4641 0a9f 4001     		.2byte	0x140
 4642 0aa1 05010000 		.4byte	0x105
 4643 0aa5 02       		.uleb128 0x2
 4644 0aa6 91       		.byte	0x91
 4645 0aa7 48       		.sleb128 -56
 4646 0aa8 21       		.uleb128 0x21
 4647 0aa9 767700   		.ascii	"vw\000"
 4648 0aac 01       		.byte	0x1
 4649 0aad 4001     		.2byte	0x140
 4650 0aaf 05010000 		.4byte	0x105
 4651 0ab3 02       		.uleb128 0x2
 4652 0ab4 91       		.byte	0x91
 4653 0ab5 50       		.sleb128 -48
 4654 0ab6 00       		.byte	0
 4655 0ab7 00       		.byte	0
 4656 0ab8 22       		.uleb128 0x22
 4657 0ab9 AE020000 		.4byte	.LASF48
ARM GAS  C:\Users\rdn\AppData\Local\Temp\ccCJgMYD.s 			page 94


 4658 0abd 01       		.byte	0x1
 4659 0abe 5301     		.2byte	0x153
 4660 0ac0 00000000 		.4byte	.LFB28
 4661 0ac4 1C010000 		.4byte	.LFE28-.LFB28
 4662 0ac8 01       		.uleb128 0x1
 4663 0ac9 9C       		.byte	0x9c
 4664 0aca A70B0000 		.4byte	0xba7
 4665 0ace 23       		.uleb128 0x23
 4666 0acf 64656600 		.ascii	"def\000"
 4667 0ad3 01       		.byte	0x1
 4668 0ad4 5301     		.2byte	0x153
 4669 0ad6 A2080000 		.4byte	0x8a2
 4670 0ada E6120000 		.4byte	.LLST95
 4671 0ade 23       		.uleb128 0x23
 4672 0adf 7800     		.ascii	"x\000"
 4673 0ae1 01       		.byte	0x1
 4674 0ae2 5401     		.2byte	0x154
 4675 0ae4 87010000 		.4byte	0x187
 4676 0ae8 07130000 		.4byte	.LLST96
 4677 0aec 23       		.uleb128 0x23
 4678 0aed 7900     		.ascii	"y\000"
 4679 0aef 01       		.byte	0x1
 4680 0af0 5401     		.2byte	0x154
 4681 0af2 BC070000 		.4byte	0x7bc
 4682 0af6 28130000 		.4byte	.LLST97
 4683 0afa 24       		.uleb128 0x24
 4684 0afb 6E3400   		.ascii	"n4\000"
 4685 0afe 01       		.byte	0x1
 4686 0aff 5601     		.2byte	0x156
 4687 0b01 64000000 		.4byte	0x64
 4688 0b05 54130000 		.4byte	.LLST98
 4689 0b09 24       		.uleb128 0x24
 4690 0b0a 773000   		.ascii	"w0\000"
 4691 0b0d 01       		.byte	0x1
 4692 0b0e 5801     		.2byte	0x158
 4693 0b10 87010000 		.4byte	0x187
 4694 0b14 73130000 		.4byte	.LLST99
 4695 0b18 24       		.uleb128 0x24
 4696 0b19 773100   		.ascii	"w1\000"
 4697 0b1c 01       		.byte	0x1
 4698 0b1d 5801     		.2byte	0x158
 4699 0b1f 87010000 		.4byte	0x187
 4700 0b23 BF130000 		.4byte	.LLST100
 4701 0b27 24       		.uleb128 0x24
 4702 0b28 783000   		.ascii	"x0\000"
 4703 0b2b 01       		.byte	0x1
 4704 0b2c 5901     		.2byte	0x159
 4705 0b2e 87010000 		.4byte	0x187
 4706 0b32 DD130000 		.4byte	.LLST101
 4707 0b36 24       		.uleb128 0x24
 4708 0b37 783100   		.ascii	"x1\000"
 4709 0b3a 01       		.byte	0x1
 4710 0b3b 5901     		.2byte	0x159
 4711 0b3d 87010000 		.4byte	0x187
 4712 0b41 1E140000 		.4byte	.LLST102
 4713 0b45 24       		.uleb128 0x24
 4714 0b46 793000   		.ascii	"y0\000"
ARM GAS  C:\Users\rdn\AppData\Local\Temp\ccCJgMYD.s 			page 95


 4715 0b49 01       		.byte	0x1
 4716 0b4a 5B01     		.2byte	0x15b
 4717 0b4c BC070000 		.4byte	0x7bc
 4718 0b50 3C140000 		.4byte	.LLST103
 4719 0b54 24       		.uleb128 0x24
 4720 0b55 793100   		.ascii	"y1\000"
 4721 0b58 01       		.byte	0x1
 4722 0b59 5B01     		.2byte	0x15b
 4723 0b5b BC070000 		.4byte	0x7bc
 4724 0b5f 7D140000 		.4byte	.LLST104
 4725 0b63 19       		.uleb128 0x19
 4726 0b64 24000000 		.4byte	.LBB58
 4727 0b68 E6000000 		.4byte	.LBE58-.LBB58
 4728 0b6c 21       		.uleb128 0x21
 4729 0b6d 757A00   		.ascii	"uz\000"
 4730 0b70 01       		.byte	0x1
 4731 0b71 5E01     		.2byte	0x15e
 4732 0b73 05010000 		.4byte	0x105
 4733 0b77 03       		.uleb128 0x3
 4734 0b78 91       		.byte	0x91
 4735 0b79 B87F     		.sleb128 -72
 4736 0b7b 21       		.uleb128 0x21
 4737 0b7c 767A00   		.ascii	"vz\000"
 4738 0b7f 01       		.byte	0x1
 4739 0b80 5E01     		.2byte	0x15e
 4740 0b82 05010000 		.4byte	0x105
 4741 0b86 02       		.uleb128 0x2
 4742 0b87 91       		.byte	0x91
 4743 0b88 40       		.sleb128 -64
 4744 0b89 21       		.uleb128 0x21
 4745 0b8a 757700   		.ascii	"uw\000"
 4746 0b8d 01       		.byte	0x1
 4747 0b8e 5F01     		.2byte	0x15f
 4748 0b90 05010000 		.4byte	0x105
 4749 0b94 02       		.uleb128 0x2
 4750 0b95 91       		.byte	0x91
 4751 0b96 48       		.sleb128 -56
 4752 0b97 21       		.uleb128 0x21
 4753 0b98 767700   		.ascii	"vw\000"
 4754 0b9b 01       		.byte	0x1
 4755 0b9c 5F01     		.2byte	0x15f
 4756 0b9e 05010000 		.4byte	0x105
 4757 0ba2 02       		.uleb128 0x2
 4758 0ba3 91       		.byte	0x91
 4759 0ba4 50       		.sleb128 -48
 4760 0ba5 00       		.byte	0
 4761 0ba6 00       		.byte	0
 4762 0ba7 22       		.uleb128 0x22
 4763 0ba8 8C030000 		.4byte	.LASF49
 4764 0bac 01       		.byte	0x1
 4765 0bad 6F01     		.2byte	0x16f
 4766 0baf 00000000 		.4byte	.LFB29
 4767 0bb3 70020000 		.4byte	.LFE29-.LFB29
 4768 0bb7 01       		.uleb128 0x1
 4769 0bb8 9C       		.byte	0x9c
 4770 0bb9 000D0000 		.4byte	0xd00
 4771 0bbd 23       		.uleb128 0x23
ARM GAS  C:\Users\rdn\AppData\Local\Temp\ccCJgMYD.s 			page 96


 4772 0bbe 647400   		.ascii	"dt\000"
 4773 0bc1 01       		.byte	0x1
 4774 0bc2 7001     		.2byte	0x170
 4775 0bc4 72000000 		.4byte	0x72
 4776 0bc8 BE140000 		.4byte	.LLST105
 4777 0bcc 23       		.uleb128 0x23
 4778 0bcd 737200   		.ascii	"sr\000"
 4779 0bd0 01       		.byte	0x1
 4780 0bd1 7001     		.2byte	0x170
 4781 0bd3 A1000000 		.4byte	0xa1
 4782 0bd7 DF140000 		.4byte	.LLST106
 4783 0bdb 23       		.uleb128 0x23
 4784 0bdc 7800     		.ascii	"x\000"
 4785 0bde 01       		.byte	0x1
 4786 0bdf 7101     		.2byte	0x171
 4787 0be1 AF010000 		.4byte	0x1af
 4788 0be5 00150000 		.4byte	.LLST107
 4789 0be9 23       		.uleb128 0x23
 4790 0bea 6400     		.ascii	"d\000"
 4791 0bec 01       		.byte	0x1
 4792 0bed 7101     		.2byte	0x171
 4793 0bef BC070000 		.4byte	0x7bc
 4794 0bf3 B6150000 		.4byte	.LLST108
 4795 0bf7 25       		.uleb128 0x25
 4796 0bf8 7900     		.ascii	"y\000"
 4797 0bfa 01       		.byte	0x1
 4798 0bfb 7101     		.2byte	0x171
 4799 0bfd BC070000 		.4byte	0x7bc
 4800 0c01 02       		.uleb128 0x2
 4801 0c02 91       		.byte	0x91
 4802 0c03 00       		.sleb128 0
 4803 0c04 24       		.uleb128 0x24
 4804 0c05 77696E00 		.ascii	"win\000"
 4805 0c09 01       		.byte	0x1
 4806 0c0a 7901     		.2byte	0x179
 4807 0c0c AF010000 		.4byte	0x1af
 4808 0c10 E0150000 		.4byte	.LLST109
 4809 0c14 24       		.uleb128 0x24
 4810 0c15 6E3400   		.ascii	"n4\000"
 4811 0c18 01       		.byte	0x1
 4812 0c19 7A01     		.2byte	0x17a
 4813 0c1b 64000000 		.4byte	0x64
 4814 0c1f FF150000 		.4byte	.LLST110
 4815 0c23 26       		.uleb128 0x26
 4816 0c24 6E6400   		.ascii	"nd\000"
 4817 0c27 01       		.byte	0x1
 4818 0c28 7A01     		.2byte	0x17a
 4819 0c2a 64000000 		.4byte	0x64
 4820 0c2e 24       		.uleb128 0x24
 4821 0c2f 773200   		.ascii	"w2\000"
 4822 0c32 01       		.byte	0x1
 4823 0c33 7B01     		.2byte	0x17b
 4824 0c35 AF010000 		.4byte	0x1af
 4825 0c39 1E160000 		.4byte	.LLST111
 4826 0c3d 24       		.uleb128 0x24
 4827 0c3e 773000   		.ascii	"w0\000"
 4828 0c41 01       		.byte	0x1
ARM GAS  C:\Users\rdn\AppData\Local\Temp\ccCJgMYD.s 			page 97


 4829 0c42 7B01     		.2byte	0x17b
 4830 0c44 AF010000 		.4byte	0x1af
 4831 0c48 AF160000 		.4byte	.LLST112
 4832 0c4c 24       		.uleb128 0x24
 4833 0c4d 773100   		.ascii	"w1\000"
 4834 0c50 01       		.byte	0x1
 4835 0c51 7B01     		.2byte	0x17b
 4836 0c53 AF010000 		.4byte	0x1af
 4837 0c57 CF170000 		.4byte	.LLST113
 4838 0c5b 24       		.uleb128 0x24
 4839 0c5c 783000   		.ascii	"x0\000"
 4840 0c5f 01       		.byte	0x1
 4841 0c60 7D01     		.2byte	0x17d
 4842 0c62 AF010000 		.4byte	0x1af
 4843 0c66 1D180000 		.4byte	.LLST114
 4844 0c6a 24       		.uleb128 0x24
 4845 0c6b 783100   		.ascii	"x1\000"
 4846 0c6e 01       		.byte	0x1
 4847 0c6f 7D01     		.2byte	0x17d
 4848 0c71 AF010000 		.4byte	0x1af
 4849 0c75 60180000 		.4byte	.LLST115
 4850 0c79 24       		.uleb128 0x24
 4851 0c7a 793000   		.ascii	"y0\000"
 4852 0c7d 01       		.byte	0x1
 4853 0c7e 7E01     		.2byte	0x17e
 4854 0c80 BC070000 		.4byte	0x7bc
 4855 0c84 F1180000 		.4byte	.LLST116
 4856 0c88 24       		.uleb128 0x24
 4857 0c89 793100   		.ascii	"y1\000"
 4858 0c8c 01       		.byte	0x1
 4859 0c8d 7E01     		.2byte	0x17e
 4860 0c8f BC070000 		.4byte	0x7bc
 4861 0c93 34190000 		.4byte	.LLST117
 4862 0c97 24       		.uleb128 0x24
 4863 0c98 793200   		.ascii	"y2\000"
 4864 0c9b 01       		.byte	0x1
 4865 0c9c 7E01     		.2byte	0x17e
 4866 0c9e BC070000 		.4byte	0x7bc
 4867 0ca2 021A0000 		.4byte	.LLST118
 4868 0ca6 24       		.uleb128 0x24
 4869 0ca7 793300   		.ascii	"y3\000"
 4870 0caa 01       		.byte	0x1
 4871 0cab 7E01     		.2byte	0x17e
 4872 0cad BC070000 		.4byte	0x7bc
 4873 0cb1 971A0000 		.4byte	.LLST119
 4874 0cb5 27       		.uleb128 0x27
 4875 0cb6 BA010000 		.4byte	0x1ba
 4876 0cba 1E000000 		.4byte	.LBB59
 4877 0cbe 0C000000 		.4byte	.LBE59-.LBB59
 4878 0cc2 01       		.byte	0x1
 4879 0cc3 7A01     		.2byte	0x17a
 4880 0cc5 DC0C0000 		.4byte	0xcdc
 4881 0cc9 18       		.uleb128 0x18
 4882 0cca D4010000 		.4byte	0x1d4
 4883 0cce D91A0000 		.4byte	.LLST120
 4884 0cd2 18       		.uleb128 0x18
 4885 0cd3 CA010000 		.4byte	0x1ca
ARM GAS  C:\Users\rdn\AppData\Local\Temp\ccCJgMYD.s 			page 98


 4886 0cd7 EC1A0000 		.4byte	.LLST121
 4887 0cdb 00       		.byte	0
 4888 0cdc 28       		.uleb128 0x28
 4889 0cdd DF010000 		.4byte	0x1df
 4890 0ce1 2E000000 		.4byte	.LBB61
 4891 0ce5 0E000000 		.4byte	.LBE61-.LBB61
 4892 0ce9 01       		.byte	0x1
 4893 0cea 7A01     		.2byte	0x17a
 4894 0cec 18       		.uleb128 0x18
 4895 0ced F9010000 		.4byte	0x1f9
 4896 0cf1 FF1A0000 		.4byte	.LLST122
 4897 0cf5 18       		.uleb128 0x18
 4898 0cf6 EF010000 		.4byte	0x1ef
 4899 0cfa 121B0000 		.4byte	.LLST123
 4900 0cfe 00       		.byte	0
 4901 0cff 00       		.byte	0
 4902 0d00 22       		.uleb128 0x22
 4903 0d01 FC000000 		.4byte	.LASF50
 4904 0d05 01       		.byte	0x1
 4905 0d06 A301     		.2byte	0x1a3
 4906 0d08 00000000 		.4byte	.LFB30
 4907 0d0c 4E000000 		.4byte	.LFE30-.LFB30
 4908 0d10 01       		.uleb128 0x1
 4909 0d11 9C       		.byte	0x9c
 4910 0d12 590D0000 		.4byte	0xd59
 4911 0d16 23       		.uleb128 0x23
 4912 0d17 7800     		.ascii	"x\000"
 4913 0d19 01       		.byte	0x1
 4914 0d1a A301     		.2byte	0x1a3
 4915 0d1c BC070000 		.4byte	0x7bc
 4916 0d20 251B0000 		.4byte	.LLST124
 4917 0d24 23       		.uleb128 0x23
 4918 0d25 6E00     		.ascii	"n\000"
 4919 0d27 01       		.byte	0x1
 4920 0d28 A301     		.2byte	0x1a3
 4921 0d2a 64000000 		.4byte	0x64
 4922 0d2e 801B0000 		.4byte	.LLST125
 4923 0d32 23       		.uleb128 0x23
 4924 0d33 6600     		.ascii	"f\000"
 4925 0d35 01       		.byte	0x1
 4926 0d36 A301     		.2byte	0x1a3
 4927 0d38 25000000 		.4byte	0x25
 4928 0d3c AC1B0000 		.4byte	.LLST126
 4929 0d40 19       		.uleb128 0x19
 4930 0d41 0A000000 		.4byte	.LBB63
 4931 0d45 40000000 		.4byte	.LBE63-.LBB63
 4932 0d49 24       		.uleb128 0x24
 4933 0d4a 6900     		.ascii	"i\000"
 4934 0d4c 01       		.byte	0x1
 4935 0d4d A501     		.2byte	0x1a5
 4936 0d4f 64000000 		.4byte	0x64
 4937 0d53 CF1B0000 		.4byte	.LLST127
 4938 0d57 00       		.byte	0
 4939 0d58 00       		.byte	0
 4940 0d59 29       		.uleb128 0x29
 4941 0d5a 59000000 		.4byte	.LASF54
 4942 0d5e 01       		.byte	0x1
ARM GAS  C:\Users\rdn\AppData\Local\Temp\ccCJgMYD.s 			page 99


 4943 0d5f AE01     		.2byte	0x1ae
 4944 0d61 00000000 		.4byte	.LFB31
 4945 0d65 BC000000 		.4byte	.LFE31-.LFB31
 4946 0d69 01       		.uleb128 0x1
 4947 0d6a 9C       		.byte	0x9c
 4948 0d6b 2D0F0000 		.4byte	0xf2d
 4949 0d6f 23       		.uleb128 0x23
 4950 0d70 647400   		.ascii	"dt\000"
 4951 0d73 01       		.byte	0x1
 4952 0d74 AF01     		.2byte	0x1af
 4953 0d76 72000000 		.4byte	0x72
 4954 0d7a EE1B0000 		.4byte	.LLST128
 4955 0d7e 23       		.uleb128 0x23
 4956 0d7f 737200   		.ascii	"sr\000"
 4957 0d82 01       		.byte	0x1
 4958 0d83 AF01     		.2byte	0x1af
 4959 0d85 A1000000 		.4byte	0xa1
 4960 0d89 0F1C0000 		.4byte	.LLST129
 4961 0d8d 2A       		.uleb128 0x2a
 4962 0d8e 13030000 		.4byte	.LASF51
 4963 0d92 01       		.byte	0x1
 4964 0d93 AF01     		.2byte	0x1af
 4965 0d95 A1000000 		.4byte	0xa1
 4966 0d99 301C0000 		.4byte	.LLST130
 4967 0d9d 23       		.uleb128 0x23
 4968 0d9e 7800     		.ascii	"x\000"
 4969 0da0 01       		.byte	0x1
 4970 0da1 B001     		.2byte	0x1b0
 4971 0da3 AF010000 		.4byte	0x1af
 4972 0da7 511C0000 		.4byte	.LLST131
 4973 0dab 25       		.uleb128 0x25
 4974 0dac 6400     		.ascii	"d\000"
 4975 0dae 01       		.byte	0x1
 4976 0daf B001     		.2byte	0x1b0
 4977 0db1 BC070000 		.4byte	0x7bc
 4978 0db5 02       		.uleb128 0x2
 4979 0db6 91       		.byte	0x91
 4980 0db7 00       		.sleb128 0
 4981 0db8 25       		.uleb128 0x25
 4982 0db9 7900     		.ascii	"y\000"
 4983 0dbb 01       		.byte	0x1
 4984 0dbc B001     		.2byte	0x1b0
 4985 0dbe BC070000 		.4byte	0x7bc
 4986 0dc2 02       		.uleb128 0x2
 4987 0dc3 91       		.byte	0x91
 4988 0dc4 04       		.sleb128 4
 4989 0dc5 24       		.uleb128 0x24
 4990 0dc6 726F7400 		.ascii	"rot\000"
 4991 0dca 01       		.byte	0x1
 4992 0dcb B201     		.2byte	0x1b2
 4993 0dcd A2080000 		.4byte	0x8a2
 4994 0dd1 711C0000 		.4byte	.LLST132
 4995 0dd5 2B       		.uleb128 0x2b
 4996 0dd6 38000000 		.4byte	.LASF52
 4997 0dda 01       		.byte	0x1
 4998 0ddb B301     		.2byte	0x1b3
 4999 0ddd 64000000 		.4byte	0x64
ARM GAS  C:\Users\rdn\AppData\Local\Temp\ccCJgMYD.s 			page 100


 5000 0de1 26       		.uleb128 0x26
 5001 0de2 6E7300   		.ascii	"ns\000"
 5002 0de5 01       		.byte	0x1
 5003 0de6 B401     		.2byte	0x1b4
 5004 0de8 64000000 		.4byte	0x64
 5005 0dec 2C       		.uleb128 0x2c
 5006 0ded 1A030000 		.4byte	.LASF53
 5007 0df1 01       		.byte	0x1
 5008 0df2 B601     		.2byte	0x1b6
 5009 0df4 2D0F0000 		.4byte	0xf2d
 5010 0df8 03       		.uleb128 0x3
 5011 0df9 91       		.byte	0x91
 5012 0dfa E861     		.sleb128 -3864
 5013 0dfc 21       		.uleb128 0x21
 5014 0dfd 7A00     		.ascii	"z\000"
 5015 0dff 01       		.byte	0x1
 5016 0e00 B701     		.2byte	0x1b7
 5017 0e02 A5020000 		.4byte	0x2a5
 5018 0e06 02       		.uleb128 0x2
 5019 0e07 91       		.byte	0x91
 5020 0e08 04       		.sleb128 4
 5021 0e09 2D       		.uleb128 0x2d
 5022 0e0a 04       		.byte	0x4
 5023 0e0b 01       		.byte	0x1
 5024 0e0c B801     		.2byte	0x1b8
 5025 0e0e 270E0000 		.4byte	0xe27
 5026 0e12 2E       		.uleb128 0x2e
 5027 0e13 6600     		.ascii	"f\000"
 5028 0e15 01       		.byte	0x1
 5029 0e16 B801     		.2byte	0x1b8
 5030 0e18 BC070000 		.4byte	0x7bc
 5031 0e1c 2E       		.uleb128 0x2e
 5032 0e1d 7A00     		.ascii	"z\000"
 5033 0e1f 01       		.byte	0x1
 5034 0e20 B801     		.2byte	0x1b8
 5035 0e22 A5020000 		.4byte	0x2a5
 5036 0e26 00       		.byte	0
 5037 0e27 26       		.uleb128 0x26
 5038 0e28 7500     		.ascii	"u\000"
 5039 0e2a 01       		.byte	0x1
 5040 0e2b B801     		.2byte	0x1b8
 5041 0e2d 090E0000 		.4byte	0xe09
 5042 0e31 27       		.uleb128 0x27
 5043 0e32 BA010000 		.4byte	0x1ba
 5044 0e36 14000000 		.4byte	.LBB64
 5045 0e3a 0C000000 		.4byte	.LBE64-.LBB64
 5046 0e3e 01       		.byte	0x1
 5047 0e3f B301     		.2byte	0x1b3
 5048 0e41 580E0000 		.4byte	0xe58
 5049 0e45 18       		.uleb128 0x18
 5050 0e46 D4010000 		.4byte	0x1d4
 5051 0e4a 841C0000 		.4byte	.LLST133
 5052 0e4e 18       		.uleb128 0x18
 5053 0e4f CA010000 		.4byte	0x1ca
 5054 0e53 A51C0000 		.4byte	.LLST134
 5055 0e57 00       		.byte	0
 5056 0e58 27       		.uleb128 0x27
ARM GAS  C:\Users\rdn\AppData\Local\Temp\ccCJgMYD.s 			page 101


 5057 0e59 BA010000 		.4byte	0x1ba
 5058 0e5d 20000000 		.4byte	.LBB66
 5059 0e61 06000000 		.4byte	.LBE66-.LBB66
 5060 0e65 01       		.byte	0x1
 5061 0e66 B401     		.2byte	0x1b4
 5062 0e68 7F0E0000 		.4byte	0xe7f
 5063 0e6c 18       		.uleb128 0x18
 5064 0e6d D4010000 		.4byte	0x1d4
 5065 0e71 B81C0000 		.4byte	.LLST135
 5066 0e75 18       		.uleb128 0x18
 5067 0e76 CA010000 		.4byte	0x1ca
 5068 0e7a CB1C0000 		.4byte	.LLST136
 5069 0e7e 00       		.byte	0
 5070 0e7f 2F       		.uleb128 0x2f
 5071 0e80 3C000000 		.4byte	.LVL613
 5072 0e84 6D060000 		.4byte	0x66d
 5073 0e88 A30E0000 		.4byte	0xea3
 5074 0e8c 30       		.uleb128 0x30
 5075 0e8d 01       		.uleb128 0x1
 5076 0e8e 52       		.byte	0x52
 5077 0e8f 04       		.uleb128 0x4
 5078 0e90 91       		.byte	0x91
 5079 0e91 E461     		.sleb128 -3868
 5080 0e93 06       		.byte	0x6
 5081 0e94 30       		.uleb128 0x30
 5082 0e95 01       		.uleb128 0x1
 5083 0e96 53       		.byte	0x53
 5084 0e97 03       		.uleb128 0x3
 5085 0e98 91       		.byte	0x91
 5086 0e99 00       		.sleb128 0
 5087 0e9a 06       		.byte	0x6
 5088 0e9b 30       		.uleb128 0x30
 5089 0e9c 02       		.uleb128 0x2
 5090 0e9d 7D       		.byte	0x7d
 5091 0e9e 00       		.sleb128 0
 5092 0e9f 02       		.uleb128 0x2
 5093 0ea0 75       		.byte	0x75
 5094 0ea1 00       		.sleb128 0
 5095 0ea2 00       		.byte	0
 5096 0ea3 2F       		.uleb128 0x2f
 5097 0ea4 46000000 		.4byte	.LVL614
 5098 0ea8 C2070000 		.4byte	0x7c2
 5099 0eac C30E0000 		.4byte	0xec3
 5100 0eb0 30       		.uleb128 0x30
 5101 0eb1 01       		.uleb128 0x1
 5102 0eb2 50       		.byte	0x50
 5103 0eb3 02       		.uleb128 0x2
 5104 0eb4 77       		.byte	0x77
 5105 0eb5 00       		.sleb128 0
 5106 0eb6 30       		.uleb128 0x30
 5107 0eb7 01       		.uleb128 0x1
 5108 0eb8 51       		.byte	0x51
 5109 0eb9 02       		.uleb128 0x2
 5110 0eba 75       		.byte	0x75
 5111 0ebb 00       		.sleb128 0
 5112 0ebc 30       		.uleb128 0x30
 5113 0ebd 01       		.uleb128 0x1
ARM GAS  C:\Users\rdn\AppData\Local\Temp\ccCJgMYD.s 			page 102


 5114 0ebe 52       		.byte	0x52
 5115 0ebf 02       		.uleb128 0x2
 5116 0ec0 75       		.byte	0x75
 5117 0ec1 00       		.sleb128 0
 5118 0ec2 00       		.byte	0
 5119 0ec3 2F       		.uleb128 0x2f
 5120 0ec4 5E000000 		.4byte	.LVL615
 5121 0ec8 F2030000 		.4byte	0x3f2
 5122 0ecc F10E0000 		.4byte	0xef1
 5123 0ed0 30       		.uleb128 0x30
 5124 0ed1 01       		.uleb128 0x1
 5125 0ed2 50       		.byte	0x50
 5126 0ed3 02       		.uleb128 0x2
 5127 0ed4 75       		.byte	0x75
 5128 0ed5 00       		.sleb128 0
 5129 0ed6 30       		.uleb128 0x30
 5130 0ed7 01       		.uleb128 0x1
 5131 0ed8 51       		.byte	0x51
 5132 0ed9 09       		.uleb128 0x9
 5133 0eda 74       		.byte	0x74
 5134 0edb 00       		.sleb128 0
 5135 0edc 4F       		.byte	0x4f
 5136 0edd 25       		.byte	0x25
 5137 0ede 74       		.byte	0x74
 5138 0edf 00       		.sleb128 0
 5139 0ee0 22       		.byte	0x22
 5140 0ee1 31       		.byte	0x31
 5141 0ee2 26       		.byte	0x26
 5142 0ee3 30       		.uleb128 0x30
 5143 0ee4 01       		.uleb128 0x1
 5144 0ee5 52       		.byte	0x52
 5145 0ee6 02       		.uleb128 0x2
 5146 0ee7 75       		.byte	0x75
 5147 0ee8 00       		.sleb128 0
 5148 0ee9 30       		.uleb128 0x30
 5149 0eea 01       		.uleb128 0x1
 5150 0eeb 53       		.byte	0x53
 5151 0eec 03       		.uleb128 0x3
 5152 0eed 91       		.byte	0x91
 5153 0eee 04       		.sleb128 4
 5154 0eef 06       		.byte	0x6
 5155 0ef0 00       		.byte	0
 5156 0ef1 2F       		.uleb128 0x2f
 5157 0ef2 70000000 		.4byte	.LVL616
 5158 0ef6 AD080000 		.4byte	0x8ad
 5159 0efa 0C0F0000 		.4byte	0xf0c
 5160 0efe 30       		.uleb128 0x30
 5161 0eff 01       		.uleb128 0x1
 5162 0f00 50       		.byte	0x50
 5163 0f01 02       		.uleb128 0x2
 5164 0f02 77       		.byte	0x77
 5165 0f03 00       		.sleb128 0
 5166 0f04 30       		.uleb128 0x30
 5167 0f05 01       		.uleb128 0x1
 5168 0f06 52       		.byte	0x52
 5169 0f07 03       		.uleb128 0x3
 5170 0f08 91       		.byte	0x91
ARM GAS  C:\Users\rdn\AppData\Local\Temp\ccCJgMYD.s 			page 103


 5171 0f09 04       		.sleb128 4
 5172 0f0a 06       		.byte	0x6
 5173 0f0b 00       		.byte	0
 5174 0f0c 31       		.uleb128 0x31
 5175 0f0d 8E000000 		.4byte	.LVL620
 5176 0f11 08120000 		.4byte	0x1208
 5177 0f15 32       		.uleb128 0x32
 5178 0f16 A0000000 		.4byte	.LVL621
 5179 0f1a 000D0000 		.4byte	0xd00
 5180 0f1e 30       		.uleb128 0x30
 5181 0f1f 01       		.uleb128 0x1
 5182 0f20 50       		.byte	0x50
 5183 0f21 03       		.uleb128 0x3
 5184 0f22 91       		.byte	0x91
 5185 0f23 04       		.sleb128 4
 5186 0f24 06       		.byte	0x6
 5187 0f25 30       		.uleb128 0x30
 5188 0f26 01       		.uleb128 0x1
 5189 0f27 51       		.byte	0x51
 5190 0f28 02       		.uleb128 0x2
 5191 0f29 76       		.byte	0x76
 5192 0f2a 00       		.sleb128 0
 5193 0f2b 00       		.byte	0
 5194 0f2c 00       		.byte	0
 5195 0f2d 08       		.uleb128 0x8
 5196 0f2e 05010000 		.4byte	0x105
 5197 0f32 3E0F0000 		.4byte	0xf3e
 5198 0f36 33       		.uleb128 0x33
 5199 0f37 E9000000 		.4byte	0xe9
 5200 0f3b DF01     		.2byte	0x1df
 5201 0f3d 00       		.byte	0
 5202 0f3e 29       		.uleb128 0x29
 5203 0f3f 9A010000 		.4byte	.LASF55
 5204 0f43 01       		.byte	0x1
 5205 0f44 C701     		.2byte	0x1c7
 5206 0f46 00000000 		.4byte	.LFB32
 5207 0f4a C8000000 		.4byte	.LFE32-.LFB32
 5208 0f4e 01       		.uleb128 0x1
 5209 0f4f 9C       		.byte	0x9c
 5210 0f50 23110000 		.4byte	0x1123
 5211 0f54 23       		.uleb128 0x23
 5212 0f55 647400   		.ascii	"dt\000"
 5213 0f58 01       		.byte	0x1
 5214 0f59 C801     		.2byte	0x1c8
 5215 0f5b 72000000 		.4byte	0x72
 5216 0f5f DE1C0000 		.4byte	.LLST137
 5217 0f63 23       		.uleb128 0x23
 5218 0f64 737200   		.ascii	"sr\000"
 5219 0f67 01       		.byte	0x1
 5220 0f68 C801     		.2byte	0x1c8
 5221 0f6a A1000000 		.4byte	0xa1
 5222 0f6e FF1C0000 		.4byte	.LLST138
 5223 0f72 2A       		.uleb128 0x2a
 5224 0f73 E5020000 		.4byte	.LASF56
 5225 0f77 01       		.byte	0x1
 5226 0f78 C801     		.2byte	0x1c8
 5227 0f7a A1000000 		.4byte	0xa1
ARM GAS  C:\Users\rdn\AppData\Local\Temp\ccCJgMYD.s 			page 104


 5228 0f7e 201D0000 		.4byte	.LLST139
 5229 0f82 23       		.uleb128 0x23
 5230 0f83 7800     		.ascii	"x\000"
 5231 0f85 01       		.byte	0x1
 5232 0f86 C901     		.2byte	0x1c9
 5233 0f88 AF010000 		.4byte	0x1af
 5234 0f8c 411D0000 		.4byte	.LLST140
 5235 0f90 25       		.uleb128 0x25
 5236 0f91 6400     		.ascii	"d\000"
 5237 0f93 01       		.byte	0x1
 5238 0f94 C901     		.2byte	0x1c9
 5239 0f96 BC070000 		.4byte	0x7bc
 5240 0f9a 02       		.uleb128 0x2
 5241 0f9b 91       		.byte	0x91
 5242 0f9c 00       		.sleb128 0
 5243 0f9d 25       		.uleb128 0x25
 5244 0f9e 7900     		.ascii	"y\000"
 5245 0fa0 01       		.byte	0x1
 5246 0fa1 C901     		.2byte	0x1c9
 5247 0fa3 BC070000 		.4byte	0x7bc
 5248 0fa7 02       		.uleb128 0x2
 5249 0fa8 91       		.byte	0x91
 5250 0fa9 04       		.sleb128 4
 5251 0faa 24       		.uleb128 0x24
 5252 0fab 726F7400 		.ascii	"rot\000"
 5253 0faf 01       		.byte	0x1
 5254 0fb0 CB01     		.2byte	0x1cb
 5255 0fb2 A2080000 		.4byte	0x8a2
 5256 0fb6 621D0000 		.4byte	.LLST141
 5257 0fba 2B       		.uleb128 0x2b
 5258 0fbb 21030000 		.4byte	.LASF57
 5259 0fbf 01       		.byte	0x1
 5260 0fc0 CC01     		.2byte	0x1cc
 5261 0fc2 64000000 		.4byte	0x64
 5262 0fc6 26       		.uleb128 0x26
 5263 0fc7 6E7300   		.ascii	"ns\000"
 5264 0fca 01       		.byte	0x1
 5265 0fcb CD01     		.2byte	0x1cd
 5266 0fcd 64000000 		.4byte	0x64
 5267 0fd1 2C       		.uleb128 0x2c
 5268 0fd2 1A030000 		.4byte	.LASF53
 5269 0fd6 01       		.byte	0x1
 5270 0fd7 CF01     		.2byte	0x1cf
 5271 0fd9 2D0F0000 		.4byte	0xf2d
 5272 0fdd 03       		.uleb128 0x3
 5273 0fde 91       		.byte	0x91
 5274 0fdf E861     		.sleb128 -3864
 5275 0fe1 24       		.uleb128 0x24
 5276 0fe2 7A00     		.ascii	"z\000"
 5277 0fe4 01       		.byte	0x1
 5278 0fe5 D001     		.2byte	0x1d0
 5279 0fe7 A5020000 		.4byte	0x2a5
 5280 0feb 821D0000 		.4byte	.LLST142
 5281 0fef 2D       		.uleb128 0x2d
 5282 0ff0 04       		.byte	0x4
 5283 0ff1 01       		.byte	0x1
 5284 0ff2 D101     		.2byte	0x1d1
ARM GAS  C:\Users\rdn\AppData\Local\Temp\ccCJgMYD.s 			page 105


 5285 0ff4 0D100000 		.4byte	0x100d
 5286 0ff8 2E       		.uleb128 0x2e
 5287 0ff9 6600     		.ascii	"f\000"
 5288 0ffb 01       		.byte	0x1
 5289 0ffc D101     		.2byte	0x1d1
 5290 0ffe BC070000 		.4byte	0x7bc
 5291 1002 2E       		.uleb128 0x2e
 5292 1003 7A00     		.ascii	"z\000"
 5293 1005 01       		.byte	0x1
 5294 1006 D101     		.2byte	0x1d1
 5295 1008 A5020000 		.4byte	0x2a5
 5296 100c 00       		.byte	0
 5297 100d 26       		.uleb128 0x26
 5298 100e 7500     		.ascii	"u\000"
 5299 1010 01       		.byte	0x1
 5300 1011 D101     		.2byte	0x1d1
 5301 1013 EF0F0000 		.4byte	0xfef
 5302 1017 27       		.uleb128 0x27
 5303 1018 BA010000 		.4byte	0x1ba
 5304 101c 18000000 		.4byte	.LBB68
 5305 1020 0C000000 		.4byte	.LBE68-.LBB68
 5306 1024 01       		.byte	0x1
 5307 1025 CC01     		.2byte	0x1cc
 5308 1027 3E100000 		.4byte	0x103e
 5309 102b 18       		.uleb128 0x18
 5310 102c D4010000 		.4byte	0x1d4
 5311 1030 AC1D0000 		.4byte	.LLST143
 5312 1034 18       		.uleb128 0x18
 5313 1035 CA010000 		.4byte	0x1ca
 5314 1039 CD1D0000 		.4byte	.LLST144
 5315 103d 00       		.byte	0
 5316 103e 27       		.uleb128 0x27
 5317 103f BA010000 		.4byte	0x1ba
 5318 1043 24000000 		.4byte	.LBB70
 5319 1047 06000000 		.4byte	.LBE70-.LBB70
 5320 104b 01       		.byte	0x1
 5321 104c CD01     		.2byte	0x1cd
 5322 104e 65100000 		.4byte	0x1065
 5323 1052 18       		.uleb128 0x18
 5324 1053 D4010000 		.4byte	0x1d4
 5325 1057 E01D0000 		.4byte	.LLST145
 5326 105b 18       		.uleb128 0x18
 5327 105c CA010000 		.4byte	0x1ca
 5328 1060 F31D0000 		.4byte	.LLST146
 5329 1064 00       		.byte	0
 5330 1065 2F       		.uleb128 0x2f
 5331 1066 3C000000 		.4byte	.LVL632
 5332 106a AA090000 		.4byte	0x9aa
 5333 106e 89100000 		.4byte	0x1089
 5334 1072 30       		.uleb128 0x30
 5335 1073 01       		.uleb128 0x1
 5336 1074 50       		.byte	0x50
 5337 1075 04       		.uleb128 0x4
 5338 1076 91       		.byte	0x91
 5339 1077 E461     		.sleb128 -3868
 5340 1079 06       		.byte	0x6
 5341 107a 30       		.uleb128 0x30
ARM GAS  C:\Users\rdn\AppData\Local\Temp\ccCJgMYD.s 			page 106


 5342 107b 01       		.uleb128 0x1
 5343 107c 51       		.byte	0x51
 5344 107d 03       		.uleb128 0x3
 5345 107e F3       		.byte	0xf3
 5346 107f 01       		.uleb128 0x1
 5347 1080 53       		.byte	0x53
 5348 1081 30       		.uleb128 0x30
 5349 1082 01       		.uleb128 0x1
 5350 1083 52       		.byte	0x52
 5351 1084 03       		.uleb128 0x3
 5352 1085 91       		.byte	0x91
 5353 1086 04       		.sleb128 4
 5354 1087 06       		.byte	0x6
 5355 1088 00       		.byte	0
 5356 1089 2F       		.uleb128 0x2f
 5357 108a 5E000000 		.4byte	.LVL633
 5358 108e F2030000 		.4byte	0x3f2
 5359 1092 BD100000 		.4byte	0x10bd
 5360 1096 30       		.uleb128 0x30
 5361 1097 01       		.uleb128 0x1
 5362 1098 50       		.byte	0x50
 5363 1099 05       		.uleb128 0x5
 5364 109a 91       		.byte	0x91
 5365 109b E061     		.sleb128 -3872
 5366 109d 06       		.byte	0x6
 5367 109e 06       		.byte	0x6
 5368 109f 30       		.uleb128 0x30
 5369 10a0 01       		.uleb128 0x1
 5370 10a1 51       		.byte	0x51
 5371 10a2 09       		.uleb128 0x9
 5372 10a3 74       		.byte	0x74
 5373 10a4 00       		.sleb128 0
 5374 10a5 4F       		.byte	0x4f
 5375 10a6 25       		.byte	0x25
 5376 10a7 74       		.byte	0x74
 5377 10a8 00       		.sleb128 0
 5378 10a9 22       		.byte	0x22
 5379 10aa 31       		.byte	0x31
 5380 10ab 26       		.byte	0x26
 5381 10ac 30       		.uleb128 0x30
 5382 10ad 01       		.uleb128 0x1
 5383 10ae 52       		.byte	0x52
 5384 10af 05       		.uleb128 0x5
 5385 10b0 91       		.byte	0x91
 5386 10b1 E061     		.sleb128 -3872
 5387 10b3 06       		.byte	0x6
 5388 10b4 06       		.byte	0x6
 5389 10b5 30       		.uleb128 0x30
 5390 10b6 01       		.uleb128 0x1
 5391 10b7 53       		.byte	0x53
 5392 10b8 03       		.uleb128 0x3
 5393 10b9 91       		.byte	0x91
 5394 10ba E861     		.sleb128 -3864
 5395 10bc 00       		.byte	0
 5396 10bd 2F       		.uleb128 0x2f
 5397 10be 68000000 		.4byte	.LVL636
 5398 10c2 B80A0000 		.4byte	0xab8
ARM GAS  C:\Users\rdn\AppData\Local\Temp\ccCJgMYD.s 			page 107


 5399 10c6 DA100000 		.4byte	0x10da
 5400 10ca 30       		.uleb128 0x30
 5401 10cb 01       		.uleb128 0x1
 5402 10cc 50       		.byte	0x50
 5403 10cd 04       		.uleb128 0x4
 5404 10ce 91       		.byte	0x91
 5405 10cf E461     		.sleb128 -3868
 5406 10d1 06       		.byte	0x6
 5407 10d2 30       		.uleb128 0x30
 5408 10d3 01       		.uleb128 0x1
 5409 10d4 52       		.byte	0x52
 5410 10d5 03       		.uleb128 0x3
 5411 10d6 91       		.byte	0x91
 5412 10d7 E861     		.sleb128 -3864
 5413 10d9 00       		.byte	0
 5414 10da 31       		.uleb128 0x31
 5415 10db 86000000 		.4byte	.LVL641
 5416 10df 08120000 		.4byte	0x1208
 5417 10e3 2F       		.uleb128 0x2f
 5418 10e4 90000000 		.4byte	.LVL642
 5419 10e8 000D0000 		.4byte	0xd00
 5420 10ec FE100000 		.4byte	0x10fe
 5421 10f0 30       		.uleb128 0x30
 5422 10f1 01       		.uleb128 0x1
 5423 10f2 50       		.byte	0x50
 5424 10f3 03       		.uleb128 0x3
 5425 10f4 91       		.byte	0x91
 5426 10f5 E861     		.sleb128 -3864
 5427 10f7 30       		.uleb128 0x30
 5428 10f8 01       		.uleb128 0x1
 5429 10f9 51       		.byte	0x51
 5430 10fa 02       		.uleb128 0x2
 5431 10fb 74       		.byte	0x74
 5432 10fc 00       		.sleb128 0
 5433 10fd 00       		.byte	0
 5434 10fe 32       		.uleb128 0x32
 5435 10ff AE000000 		.4byte	.LVL643
 5436 1103 A70B0000 		.4byte	0xba7
 5437 1107 30       		.uleb128 0x30
 5438 1108 01       		.uleb128 0x1
 5439 1109 50       		.byte	0x50
 5440 110a 02       		.uleb128 0x2
 5441 110b 75       		.byte	0x75
 5442 110c 00       		.sleb128 0
 5443 110d 30       		.uleb128 0x30
 5444 110e 01       		.uleb128 0x1
 5445 110f 51       		.byte	0x51
 5446 1110 02       		.uleb128 0x2
 5447 1111 77       		.byte	0x77
 5448 1112 00       		.sleb128 0
 5449 1113 30       		.uleb128 0x30
 5450 1114 01       		.uleb128 0x1
 5451 1115 52       		.byte	0x52
 5452 1116 03       		.uleb128 0x3
 5453 1117 91       		.byte	0x91
 5454 1118 E861     		.sleb128 -3864
 5455 111a 30       		.uleb128 0x30
ARM GAS  C:\Users\rdn\AppData\Local\Temp\ccCJgMYD.s 			page 108


 5456 111b 01       		.uleb128 0x1
 5457 111c 53       		.byte	0x53
 5458 111d 03       		.uleb128 0x3
 5459 111e 91       		.byte	0x91
 5460 111f 00       		.sleb128 0
 5461 1120 06       		.byte	0x6
 5462 1121 00       		.byte	0
 5463 1122 00       		.byte	0
 5464 1123 08       		.uleb128 0x8
 5465 1124 33110000 		.4byte	0x1133
 5466 1128 33110000 		.4byte	0x1133
 5467 112c 09       		.uleb128 0x9
 5468 112d E9000000 		.4byte	0xe9
 5469 1131 06       		.byte	0x6
 5470 1132 00       		.byte	0
 5471 1133 0A       		.uleb128 0xa
 5472 1134 64000000 		.4byte	0x64
 5473 1138 34       		.uleb128 0x34
 5474 1139 B1030000 		.4byte	.LASF58
 5475 113d 02       		.byte	0x2
 5476 113e 2A       		.byte	0x2a
 5477 113f 43110000 		.4byte	0x1143
 5478 1143 0A       		.uleb128 0xa
 5479 1144 23110000 		.4byte	0x1123
 5480 1148 34       		.uleb128 0x34
 5481 1149 5A010000 		.4byte	.LASF59
 5482 114d 02       		.byte	0x2
 5483 114e 2B       		.byte	0x2b
 5484 114f 53110000 		.4byte	0x1153
 5485 1153 0A       		.uleb128 0xa
 5486 1154 23110000 		.4byte	0x1123
 5487 1158 34       		.uleb128 0x34
 5488 1159 28030000 		.4byte	.LASF60
 5489 115d 02       		.byte	0x2
 5490 115e 2C       		.byte	0x2c
 5491 115f 63110000 		.4byte	0x1163
 5492 1163 0A       		.uleb128 0xa
 5493 1164 23110000 		.4byte	0x1123
 5494 1168 08       		.uleb128 0x8
 5495 1169 33110000 		.4byte	0x1133
 5496 116d 84110000 		.4byte	0x1184
 5497 1171 09       		.uleb128 0x9
 5498 1172 E9000000 		.4byte	0xe9
 5499 1176 03       		.byte	0x3
 5500 1177 09       		.uleb128 0x9
 5501 1178 E9000000 		.4byte	0xe9
 5502 117c 01       		.byte	0x1
 5503 117d 09       		.uleb128 0x9
 5504 117e E9000000 		.4byte	0xe9
 5505 1182 01       		.byte	0x1
 5506 1183 00       		.byte	0
 5507 1184 34       		.uleb128 0x34
 5508 1185 38010000 		.4byte	.LASF61
 5509 1189 02       		.byte	0x2
 5510 118a 4E       		.byte	0x4e
 5511 118b 8F110000 		.4byte	0x118f
 5512 118f 0A       		.uleb128 0xa
ARM GAS  C:\Users\rdn\AppData\Local\Temp\ccCJgMYD.s 			page 109


 5513 1190 68110000 		.4byte	0x1168
 5514 1194 08       		.uleb128 0x8
 5515 1195 58030000 		.4byte	0x358
 5516 1199 9F110000 		.4byte	0x119f
 5517 119d 35       		.uleb128 0x35
 5518 119e 00       		.byte	0
 5519 119f 34       		.uleb128 0x34
 5520 11a0 23020000 		.4byte	.LASF62
 5521 11a4 02       		.byte	0x2
 5522 11a5 64       		.byte	0x64
 5523 11a6 94110000 		.4byte	0x1194
 5524 11aa 08       		.uleb128 0x8
 5525 11ab E7030000 		.4byte	0x3e7
 5526 11af BB110000 		.4byte	0x11bb
 5527 11b3 35       		.uleb128 0x35
 5528 11b4 09       		.uleb128 0x9
 5529 11b5 E9000000 		.4byte	0xe9
 5530 11b9 02       		.byte	0x2
 5531 11ba 00       		.byte	0
 5532 11bb 34       		.uleb128 0x34
 5533 11bc E4030000 		.4byte	.LASF63
 5534 11c0 02       		.byte	0x2
 5535 11c1 65       		.byte	0x65
 5536 11c2 AA110000 		.4byte	0x11aa
 5537 11c6 08       		.uleb128 0x8
 5538 11c7 A2080000 		.4byte	0x8a2
 5539 11cb DC110000 		.4byte	0x11dc
 5540 11cf 09       		.uleb128 0x9
 5541 11d0 E9000000 		.4byte	0xe9
 5542 11d4 03       		.byte	0x3
 5543 11d5 09       		.uleb128 0x9
 5544 11d6 E9000000 		.4byte	0xe9
 5545 11da 06       		.byte	0x6
 5546 11db 00       		.byte	0
 5547 11dc 34       		.uleb128 0x34
 5548 11dd 19000000 		.4byte	.LASF64
 5549 11e1 02       		.byte	0x2
 5550 11e2 66       		.byte	0x66
 5551 11e3 C6110000 		.4byte	0x11c6
 5552 11e7 08       		.uleb128 0x8
 5553 11e8 AF010000 		.4byte	0x1af
 5554 11ec FD110000 		.4byte	0x11fd
 5555 11f0 09       		.uleb128 0x9
 5556 11f1 E9000000 		.4byte	0xe9
 5557 11f5 03       		.byte	0x3
 5558 11f6 09       		.uleb128 0x9
 5559 11f7 E9000000 		.4byte	0xe9
 5560 11fb 06       		.byte	0x6
 5561 11fc 00       		.byte	0
 5562 11fd 34       		.uleb128 0x34
 5563 11fe 7F030000 		.4byte	.LASF65
 5564 1202 02       		.byte	0x2
 5565 1203 68       		.byte	0x68
 5566 1204 E7110000 		.4byte	0x11e7
 5567 1208 36       		.uleb128 0x36
 5568 1209 AB030000 		.4byte	.LASF69
 5569 120d AB030000 		.4byte	.LASF69
ARM GAS  C:\Users\rdn\AppData\Local\Temp\ccCJgMYD.s 			page 110


 5570 1211 05       		.byte	0x5
 5571 1212 8501     		.2byte	0x185
 5572 1214 00       		.byte	0
 5573              		.section	.debug_abbrev,"",%progbits
 5574              	.Ldebug_abbrev0:
 5575 0000 01       		.uleb128 0x1
 5576 0001 11       		.uleb128 0x11
 5577 0002 01       		.byte	0x1
 5578 0003 25       		.uleb128 0x25
 5579 0004 0E       		.uleb128 0xe
 5580 0005 13       		.uleb128 0x13
 5581 0006 0B       		.uleb128 0xb
 5582 0007 03       		.uleb128 0x3
 5583 0008 0E       		.uleb128 0xe
 5584 0009 1B       		.uleb128 0x1b
 5585 000a 0E       		.uleb128 0xe
 5586 000b 55       		.uleb128 0x55
 5587 000c 17       		.uleb128 0x17
 5588 000d 11       		.uleb128 0x11
 5589 000e 01       		.uleb128 0x1
 5590 000f 10       		.uleb128 0x10
 5591 0010 17       		.uleb128 0x17
 5592 0011 00       		.byte	0
 5593 0012 00       		.byte	0
 5594 0013 02       		.uleb128 0x2
 5595 0014 24       		.uleb128 0x24
 5596 0015 00       		.byte	0
 5597 0016 0B       		.uleb128 0xb
 5598 0017 0B       		.uleb128 0xb
 5599 0018 3E       		.uleb128 0x3e
 5600 0019 0B       		.uleb128 0xb
 5601 001a 03       		.uleb128 0x3
 5602 001b 0E       		.uleb128 0xe
 5603 001c 00       		.byte	0
 5604 001d 00       		.byte	0
 5605 001e 03       		.uleb128 0x3
 5606 001f 24       		.uleb128 0x24
 5607 0020 00       		.byte	0
 5608 0021 0B       		.uleb128 0xb
 5609 0022 0B       		.uleb128 0xb
 5610 0023 3E       		.uleb128 0x3e
 5611 0024 0B       		.uleb128 0xb
 5612 0025 03       		.uleb128 0x3
 5613 0026 08       		.uleb128 0x8
 5614 0027 00       		.byte	0
 5615 0028 00       		.byte	0
 5616 0029 04       		.uleb128 0x4
 5617 002a 04       		.uleb128 0x4
 5618 002b 01       		.byte	0x1
 5619 002c 03       		.uleb128 0x3
 5620 002d 0E       		.uleb128 0xe
 5621 002e 0B       		.uleb128 0xb
 5622 002f 0B       		.uleb128 0xb
 5623 0030 49       		.uleb128 0x49
 5624 0031 13       		.uleb128 0x13
 5625 0032 3A       		.uleb128 0x3a
 5626 0033 0B       		.uleb128 0xb
ARM GAS  C:\Users\rdn\AppData\Local\Temp\ccCJgMYD.s 			page 111


 5627 0034 3B       		.uleb128 0x3b
 5628 0035 0B       		.uleb128 0xb
 5629 0036 01       		.uleb128 0x1
 5630 0037 13       		.uleb128 0x13
 5631 0038 00       		.byte	0
 5632 0039 00       		.byte	0
 5633 003a 05       		.uleb128 0x5
 5634 003b 28       		.uleb128 0x28
 5635 003c 00       		.byte	0
 5636 003d 03       		.uleb128 0x3
 5637 003e 0E       		.uleb128 0xe
 5638 003f 1C       		.uleb128 0x1c
 5639 0040 0B       		.uleb128 0xb
 5640 0041 00       		.byte	0
 5641 0042 00       		.byte	0
 5642 0043 06       		.uleb128 0x6
 5643 0044 13       		.uleb128 0x13
 5644 0045 01       		.byte	0x1
 5645 0046 03       		.uleb128 0x3
 5646 0047 0E       		.uleb128 0xe
 5647 0048 0B       		.uleb128 0xb
 5648 0049 0B       		.uleb128 0xb
 5649 004a 3A       		.uleb128 0x3a
 5650 004b 0B       		.uleb128 0xb
 5651 004c 3B       		.uleb128 0x3b
 5652 004d 0B       		.uleb128 0xb
 5653 004e 01       		.uleb128 0x1
 5654 004f 13       		.uleb128 0x13
 5655 0050 00       		.byte	0
 5656 0051 00       		.byte	0
 5657 0052 07       		.uleb128 0x7
 5658 0053 0D       		.uleb128 0xd
 5659 0054 00       		.byte	0
 5660 0055 03       		.uleb128 0x3
 5661 0056 08       		.uleb128 0x8
 5662 0057 3A       		.uleb128 0x3a
 5663 0058 0B       		.uleb128 0xb
 5664 0059 3B       		.uleb128 0x3b
 5665 005a 0B       		.uleb128 0xb
 5666 005b 49       		.uleb128 0x49
 5667 005c 13       		.uleb128 0x13
 5668 005d 38       		.uleb128 0x38
 5669 005e 0B       		.uleb128 0xb
 5670 005f 00       		.byte	0
 5671 0060 00       		.byte	0
 5672 0061 08       		.uleb128 0x8
 5673 0062 01       		.uleb128 0x1
 5674 0063 01       		.byte	0x1
 5675 0064 49       		.uleb128 0x49
 5676 0065 13       		.uleb128 0x13
 5677 0066 01       		.uleb128 0x1
 5678 0067 13       		.uleb128 0x13
 5679 0068 00       		.byte	0
 5680 0069 00       		.byte	0
 5681 006a 09       		.uleb128 0x9
 5682 006b 21       		.uleb128 0x21
 5683 006c 00       		.byte	0
ARM GAS  C:\Users\rdn\AppData\Local\Temp\ccCJgMYD.s 			page 112


 5684 006d 49       		.uleb128 0x49
 5685 006e 13       		.uleb128 0x13
 5686 006f 2F       		.uleb128 0x2f
 5687 0070 0B       		.uleb128 0xb
 5688 0071 00       		.byte	0
 5689 0072 00       		.byte	0
 5690 0073 0A       		.uleb128 0xa
 5691 0074 26       		.uleb128 0x26
 5692 0075 00       		.byte	0
 5693 0076 49       		.uleb128 0x49
 5694 0077 13       		.uleb128 0x13
 5695 0078 00       		.byte	0
 5696 0079 00       		.byte	0
 5697 007a 0B       		.uleb128 0xb
 5698 007b 0F       		.uleb128 0xf
 5699 007c 00       		.byte	0
 5700 007d 0B       		.uleb128 0xb
 5701 007e 0B       		.uleb128 0xb
 5702 007f 49       		.uleb128 0x49
 5703 0080 13       		.uleb128 0x13
 5704 0081 00       		.byte	0
 5705 0082 00       		.byte	0
 5706 0083 0C       		.uleb128 0xc
 5707 0084 2E       		.uleb128 0x2e
 5708 0085 01       		.byte	0x1
 5709 0086 03       		.uleb128 0x3
 5710 0087 0E       		.uleb128 0xe
 5711 0088 3A       		.uleb128 0x3a
 5712 0089 0B       		.uleb128 0xb
 5713 008a 3B       		.uleb128 0x3b
 5714 008b 0B       		.uleb128 0xb
 5715 008c 27       		.uleb128 0x27
 5716 008d 19       		.uleb128 0x19
 5717 008e 49       		.uleb128 0x49
 5718 008f 13       		.uleb128 0x13
 5719 0090 20       		.uleb128 0x20
 5720 0091 0B       		.uleb128 0xb
 5721 0092 01       		.uleb128 0x1
 5722 0093 13       		.uleb128 0x13
 5723 0094 00       		.byte	0
 5724 0095 00       		.byte	0
 5725 0096 0D       		.uleb128 0xd
 5726 0097 05       		.uleb128 0x5
 5727 0098 00       		.byte	0
 5728 0099 03       		.uleb128 0x3
 5729 009a 08       		.uleb128 0x8
 5730 009b 3A       		.uleb128 0x3a
 5731 009c 0B       		.uleb128 0xb
 5732 009d 3B       		.uleb128 0x3b
 5733 009e 0B       		.uleb128 0xb
 5734 009f 49       		.uleb128 0x49
 5735 00a0 13       		.uleb128 0x13
 5736 00a1 00       		.byte	0
 5737 00a2 00       		.byte	0
 5738 00a3 0E       		.uleb128 0xe
 5739 00a4 2E       		.uleb128 0x2e
 5740 00a5 01       		.byte	0x1
ARM GAS  C:\Users\rdn\AppData\Local\Temp\ccCJgMYD.s 			page 113


 5741 00a6 03       		.uleb128 0x3
 5742 00a7 0E       		.uleb128 0xe
 5743 00a8 3A       		.uleb128 0x3a
 5744 00a9 0B       		.uleb128 0xb
 5745 00aa 3B       		.uleb128 0x3b
 5746 00ab 0B       		.uleb128 0xb
 5747 00ac 27       		.uleb128 0x27
 5748 00ad 19       		.uleb128 0x19
 5749 00ae 20       		.uleb128 0x20
 5750 00af 0B       		.uleb128 0xb
 5751 00b0 01       		.uleb128 0x1
 5752 00b1 13       		.uleb128 0x13
 5753 00b2 00       		.byte	0
 5754 00b3 00       		.byte	0
 5755 00b4 0F       		.uleb128 0xf
 5756 00b5 34       		.uleb128 0x34
 5757 00b6 00       		.byte	0
 5758 00b7 03       		.uleb128 0x3
 5759 00b8 0E       		.uleb128 0xe
 5760 00b9 3A       		.uleb128 0x3a
 5761 00ba 0B       		.uleb128 0xb
 5762 00bb 3B       		.uleb128 0x3b
 5763 00bc 0B       		.uleb128 0xb
 5764 00bd 49       		.uleb128 0x49
 5765 00be 13       		.uleb128 0x13
 5766 00bf 1C       		.uleb128 0x1c
 5767 00c0 0A       		.uleb128 0xa
 5768 00c1 00       		.byte	0
 5769 00c2 00       		.byte	0
 5770 00c3 10       		.uleb128 0x10
 5771 00c4 0B       		.uleb128 0xb
 5772 00c5 01       		.byte	0x1
 5773 00c6 00       		.byte	0
 5774 00c7 00       		.byte	0
 5775 00c8 11       		.uleb128 0x11
 5776 00c9 34       		.uleb128 0x34
 5777 00ca 00       		.byte	0
 5778 00cb 03       		.uleb128 0x3
 5779 00cc 08       		.uleb128 0x8
 5780 00cd 3A       		.uleb128 0x3a
 5781 00ce 0B       		.uleb128 0xb
 5782 00cf 3B       		.uleb128 0x3b
 5783 00d0 0B       		.uleb128 0xb
 5784 00d1 49       		.uleb128 0x49
 5785 00d2 13       		.uleb128 0x13
 5786 00d3 00       		.byte	0
 5787 00d4 00       		.byte	0
 5788 00d5 12       		.uleb128 0x12
 5789 00d6 05       		.uleb128 0x5
 5790 00d7 00       		.byte	0
 5791 00d8 03       		.uleb128 0x3
 5792 00d9 0E       		.uleb128 0xe
 5793 00da 3A       		.uleb128 0x3a
 5794 00db 0B       		.uleb128 0xb
 5795 00dc 3B       		.uleb128 0x3b
 5796 00dd 0B       		.uleb128 0xb
 5797 00de 49       		.uleb128 0x49
ARM GAS  C:\Users\rdn\AppData\Local\Temp\ccCJgMYD.s 			page 114


 5798 00df 13       		.uleb128 0x13
 5799 00e0 00       		.byte	0
 5800 00e1 00       		.byte	0
 5801 00e2 13       		.uleb128 0x13
 5802 00e3 2E       		.uleb128 0x2e
 5803 00e4 01       		.byte	0x1
 5804 00e5 03       		.uleb128 0x3
 5805 00e6 08       		.uleb128 0x8
 5806 00e7 3A       		.uleb128 0x3a
 5807 00e8 0B       		.uleb128 0xb
 5808 00e9 3B       		.uleb128 0x3b
 5809 00ea 0B       		.uleb128 0xb
 5810 00eb 27       		.uleb128 0x27
 5811 00ec 19       		.uleb128 0x19
 5812 00ed 49       		.uleb128 0x49
 5813 00ee 13       		.uleb128 0x13
 5814 00ef 11       		.uleb128 0x11
 5815 00f0 01       		.uleb128 0x1
 5816 00f1 12       		.uleb128 0x12
 5817 00f2 06       		.uleb128 0x6
 5818 00f3 40       		.uleb128 0x40
 5819 00f4 18       		.uleb128 0x18
 5820 00f5 9642     		.uleb128 0x2116
 5821 00f7 19       		.uleb128 0x19
 5822 00f8 01       		.uleb128 0x1
 5823 00f9 13       		.uleb128 0x13
 5824 00fa 00       		.byte	0
 5825 00fb 00       		.byte	0
 5826 00fc 14       		.uleb128 0x14
 5827 00fd 05       		.uleb128 0x5
 5828 00fe 00       		.byte	0
 5829 00ff 03       		.uleb128 0x3
 5830 0100 08       		.uleb128 0x8
 5831 0101 3A       		.uleb128 0x3a
 5832 0102 0B       		.uleb128 0xb
 5833 0103 3B       		.uleb128 0x3b
 5834 0104 0B       		.uleb128 0xb
 5835 0105 49       		.uleb128 0x49
 5836 0106 13       		.uleb128 0x13
 5837 0107 02       		.uleb128 0x2
 5838 0108 17       		.uleb128 0x17
 5839 0109 00       		.byte	0
 5840 010a 00       		.byte	0
 5841 010b 15       		.uleb128 0x15
 5842 010c 34       		.uleb128 0x34
 5843 010d 00       		.byte	0
 5844 010e 03       		.uleb128 0x3
 5845 010f 08       		.uleb128 0x8
 5846 0110 3A       		.uleb128 0x3a
 5847 0111 0B       		.uleb128 0xb
 5848 0112 3B       		.uleb128 0x3b
 5849 0113 0B       		.uleb128 0xb
 5850 0114 49       		.uleb128 0x49
 5851 0115 13       		.uleb128 0x13
 5852 0116 02       		.uleb128 0x2
 5853 0117 18       		.uleb128 0x18
 5854 0118 00       		.byte	0
ARM GAS  C:\Users\rdn\AppData\Local\Temp\ccCJgMYD.s 			page 115


 5855 0119 00       		.byte	0
 5856 011a 16       		.uleb128 0x16
 5857 011b 34       		.uleb128 0x34
 5858 011c 00       		.byte	0
 5859 011d 03       		.uleb128 0x3
 5860 011e 08       		.uleb128 0x8
 5861 011f 3A       		.uleb128 0x3a
 5862 0120 0B       		.uleb128 0xb
 5863 0121 3B       		.uleb128 0x3b
 5864 0122 0B       		.uleb128 0xb
 5865 0123 49       		.uleb128 0x49
 5866 0124 13       		.uleb128 0x13
 5867 0125 02       		.uleb128 0x2
 5868 0126 17       		.uleb128 0x17
 5869 0127 00       		.byte	0
 5870 0128 00       		.byte	0
 5871 0129 17       		.uleb128 0x17
 5872 012a 1D       		.uleb128 0x1d
 5873 012b 01       		.byte	0x1
 5874 012c 31       		.uleb128 0x31
 5875 012d 13       		.uleb128 0x13
 5876 012e 11       		.uleb128 0x11
 5877 012f 01       		.uleb128 0x1
 5878 0130 12       		.uleb128 0x12
 5879 0131 06       		.uleb128 0x6
 5880 0132 58       		.uleb128 0x58
 5881 0133 0B       		.uleb128 0xb
 5882 0134 59       		.uleb128 0x59
 5883 0135 0B       		.uleb128 0xb
 5884 0136 01       		.uleb128 0x1
 5885 0137 13       		.uleb128 0x13
 5886 0138 00       		.byte	0
 5887 0139 00       		.byte	0
 5888 013a 18       		.uleb128 0x18
 5889 013b 05       		.uleb128 0x5
 5890 013c 00       		.byte	0
 5891 013d 31       		.uleb128 0x31
 5892 013e 13       		.uleb128 0x13
 5893 013f 02       		.uleb128 0x2
 5894 0140 17       		.uleb128 0x17
 5895 0141 00       		.byte	0
 5896 0142 00       		.byte	0
 5897 0143 19       		.uleb128 0x19
 5898 0144 0B       		.uleb128 0xb
 5899 0145 01       		.byte	0x1
 5900 0146 11       		.uleb128 0x11
 5901 0147 01       		.uleb128 0x1
 5902 0148 12       		.uleb128 0x12
 5903 0149 06       		.uleb128 0x6
 5904 014a 00       		.byte	0
 5905 014b 00       		.byte	0
 5906 014c 1A       		.uleb128 0x1a
 5907 014d 34       		.uleb128 0x34
 5908 014e 00       		.byte	0
 5909 014f 31       		.uleb128 0x31
 5910 0150 13       		.uleb128 0x13
 5911 0151 1C       		.uleb128 0x1c
ARM GAS  C:\Users\rdn\AppData\Local\Temp\ccCJgMYD.s 			page 116


 5912 0152 0A       		.uleb128 0xa
 5913 0153 00       		.byte	0
 5914 0154 00       		.byte	0
 5915 0155 1B       		.uleb128 0x1b
 5916 0156 34       		.uleb128 0x34
 5917 0157 00       		.byte	0
 5918 0158 31       		.uleb128 0x31
 5919 0159 13       		.uleb128 0x13
 5920 015a 02       		.uleb128 0x2
 5921 015b 17       		.uleb128 0x17
 5922 015c 00       		.byte	0
 5923 015d 00       		.byte	0
 5924 015e 1C       		.uleb128 0x1c
 5925 015f 34       		.uleb128 0x34
 5926 0160 00       		.byte	0
 5927 0161 31       		.uleb128 0x31
 5928 0162 13       		.uleb128 0x13
 5929 0163 00       		.byte	0
 5930 0164 00       		.byte	0
 5931 0165 1D       		.uleb128 0x1d
 5932 0166 0B       		.uleb128 0xb
 5933 0167 01       		.byte	0x1
 5934 0168 55       		.uleb128 0x55
 5935 0169 17       		.uleb128 0x17
 5936 016a 00       		.byte	0
 5937 016b 00       		.byte	0
 5938 016c 1E       		.uleb128 0x1e
 5939 016d 1D       		.uleb128 0x1d
 5940 016e 01       		.byte	0x1
 5941 016f 31       		.uleb128 0x31
 5942 0170 13       		.uleb128 0x13
 5943 0171 11       		.uleb128 0x11
 5944 0172 01       		.uleb128 0x1
 5945 0173 12       		.uleb128 0x12
 5946 0174 06       		.uleb128 0x6
 5947 0175 58       		.uleb128 0x58
 5948 0176 0B       		.uleb128 0xb
 5949 0177 59       		.uleb128 0x59
 5950 0178 0B       		.uleb128 0xb
 5951 0179 00       		.byte	0
 5952 017a 00       		.byte	0
 5953 017b 1F       		.uleb128 0x1f
 5954 017c 2E       		.uleb128 0x2e
 5955 017d 01       		.byte	0x1
 5956 017e 03       		.uleb128 0x3
 5957 017f 0E       		.uleb128 0xe
 5958 0180 3A       		.uleb128 0x3a
 5959 0181 0B       		.uleb128 0xb
 5960 0182 3B       		.uleb128 0x3b
 5961 0183 0B       		.uleb128 0xb
 5962 0184 27       		.uleb128 0x27
 5963 0185 19       		.uleb128 0x19
 5964 0186 11       		.uleb128 0x11
 5965 0187 01       		.uleb128 0x1
 5966 0188 12       		.uleb128 0x12
 5967 0189 06       		.uleb128 0x6
 5968 018a 40       		.uleb128 0x40
ARM GAS  C:\Users\rdn\AppData\Local\Temp\ccCJgMYD.s 			page 117


 5969 018b 18       		.uleb128 0x18
 5970 018c 9642     		.uleb128 0x2116
 5971 018e 19       		.uleb128 0x19
 5972 018f 01       		.uleb128 0x1
 5973 0190 13       		.uleb128 0x13
 5974 0191 00       		.byte	0
 5975 0192 00       		.byte	0
 5976 0193 20       		.uleb128 0x20
 5977 0194 05       		.uleb128 0x5
 5978 0195 00       		.byte	0
 5979 0196 03       		.uleb128 0x3
 5980 0197 08       		.uleb128 0x8
 5981 0198 3A       		.uleb128 0x3a
 5982 0199 0B       		.uleb128 0xb
 5983 019a 3B       		.uleb128 0x3b
 5984 019b 0B       		.uleb128 0xb
 5985 019c 49       		.uleb128 0x49
 5986 019d 13       		.uleb128 0x13
 5987 019e 02       		.uleb128 0x2
 5988 019f 18       		.uleb128 0x18
 5989 01a0 00       		.byte	0
 5990 01a1 00       		.byte	0
 5991 01a2 21       		.uleb128 0x21
 5992 01a3 34       		.uleb128 0x34
 5993 01a4 00       		.byte	0
 5994 01a5 03       		.uleb128 0x3
 5995 01a6 08       		.uleb128 0x8
 5996 01a7 3A       		.uleb128 0x3a
 5997 01a8 0B       		.uleb128 0xb
 5998 01a9 3B       		.uleb128 0x3b
 5999 01aa 05       		.uleb128 0x5
 6000 01ab 49       		.uleb128 0x49
 6001 01ac 13       		.uleb128 0x13
 6002 01ad 02       		.uleb128 0x2
 6003 01ae 18       		.uleb128 0x18
 6004 01af 00       		.byte	0
 6005 01b0 00       		.byte	0
 6006 01b1 22       		.uleb128 0x22
 6007 01b2 2E       		.uleb128 0x2e
 6008 01b3 01       		.byte	0x1
 6009 01b4 03       		.uleb128 0x3
 6010 01b5 0E       		.uleb128 0xe
 6011 01b6 3A       		.uleb128 0x3a
 6012 01b7 0B       		.uleb128 0xb
 6013 01b8 3B       		.uleb128 0x3b
 6014 01b9 05       		.uleb128 0x5
 6015 01ba 27       		.uleb128 0x27
 6016 01bb 19       		.uleb128 0x19
 6017 01bc 11       		.uleb128 0x11
 6018 01bd 01       		.uleb128 0x1
 6019 01be 12       		.uleb128 0x12
 6020 01bf 06       		.uleb128 0x6
 6021 01c0 40       		.uleb128 0x40
 6022 01c1 18       		.uleb128 0x18
 6023 01c2 9642     		.uleb128 0x2116
 6024 01c4 19       		.uleb128 0x19
 6025 01c5 01       		.uleb128 0x1
ARM GAS  C:\Users\rdn\AppData\Local\Temp\ccCJgMYD.s 			page 118


 6026 01c6 13       		.uleb128 0x13
 6027 01c7 00       		.byte	0
 6028 01c8 00       		.byte	0
 6029 01c9 23       		.uleb128 0x23
 6030 01ca 05       		.uleb128 0x5
 6031 01cb 00       		.byte	0
 6032 01cc 03       		.uleb128 0x3
 6033 01cd 08       		.uleb128 0x8
 6034 01ce 3A       		.uleb128 0x3a
 6035 01cf 0B       		.uleb128 0xb
 6036 01d0 3B       		.uleb128 0x3b
 6037 01d1 05       		.uleb128 0x5
 6038 01d2 49       		.uleb128 0x49
 6039 01d3 13       		.uleb128 0x13
 6040 01d4 02       		.uleb128 0x2
 6041 01d5 17       		.uleb128 0x17
 6042 01d6 00       		.byte	0
 6043 01d7 00       		.byte	0
 6044 01d8 24       		.uleb128 0x24
 6045 01d9 34       		.uleb128 0x34
 6046 01da 00       		.byte	0
 6047 01db 03       		.uleb128 0x3
 6048 01dc 08       		.uleb128 0x8
 6049 01dd 3A       		.uleb128 0x3a
 6050 01de 0B       		.uleb128 0xb
 6051 01df 3B       		.uleb128 0x3b
 6052 01e0 05       		.uleb128 0x5
 6053 01e1 49       		.uleb128 0x49
 6054 01e2 13       		.uleb128 0x13
 6055 01e3 02       		.uleb128 0x2
 6056 01e4 17       		.uleb128 0x17
 6057 01e5 00       		.byte	0
 6058 01e6 00       		.byte	0
 6059 01e7 25       		.uleb128 0x25
 6060 01e8 05       		.uleb128 0x5
 6061 01e9 00       		.byte	0
 6062 01ea 03       		.uleb128 0x3
 6063 01eb 08       		.uleb128 0x8
 6064 01ec 3A       		.uleb128 0x3a
 6065 01ed 0B       		.uleb128 0xb
 6066 01ee 3B       		.uleb128 0x3b
 6067 01ef 05       		.uleb128 0x5
 6068 01f0 49       		.uleb128 0x49
 6069 01f1 13       		.uleb128 0x13
 6070 01f2 02       		.uleb128 0x2
 6071 01f3 18       		.uleb128 0x18
 6072 01f4 00       		.byte	0
 6073 01f5 00       		.byte	0
 6074 01f6 26       		.uleb128 0x26
 6075 01f7 34       		.uleb128 0x34
 6076 01f8 00       		.byte	0
 6077 01f9 03       		.uleb128 0x3
 6078 01fa 08       		.uleb128 0x8
 6079 01fb 3A       		.uleb128 0x3a
 6080 01fc 0B       		.uleb128 0xb
 6081 01fd 3B       		.uleb128 0x3b
 6082 01fe 05       		.uleb128 0x5
ARM GAS  C:\Users\rdn\AppData\Local\Temp\ccCJgMYD.s 			page 119


 6083 01ff 49       		.uleb128 0x49
 6084 0200 13       		.uleb128 0x13
 6085 0201 00       		.byte	0
 6086 0202 00       		.byte	0
 6087 0203 27       		.uleb128 0x27
 6088 0204 1D       		.uleb128 0x1d
 6089 0205 01       		.byte	0x1
 6090 0206 31       		.uleb128 0x31
 6091 0207 13       		.uleb128 0x13
 6092 0208 11       		.uleb128 0x11
 6093 0209 01       		.uleb128 0x1
 6094 020a 12       		.uleb128 0x12
 6095 020b 06       		.uleb128 0x6
 6096 020c 58       		.uleb128 0x58
 6097 020d 0B       		.uleb128 0xb
 6098 020e 59       		.uleb128 0x59
 6099 020f 05       		.uleb128 0x5
 6100 0210 01       		.uleb128 0x1
 6101 0211 13       		.uleb128 0x13
 6102 0212 00       		.byte	0
 6103 0213 00       		.byte	0
 6104 0214 28       		.uleb128 0x28
 6105 0215 1D       		.uleb128 0x1d
 6106 0216 01       		.byte	0x1
 6107 0217 31       		.uleb128 0x31
 6108 0218 13       		.uleb128 0x13
 6109 0219 11       		.uleb128 0x11
 6110 021a 01       		.uleb128 0x1
 6111 021b 12       		.uleb128 0x12
 6112 021c 06       		.uleb128 0x6
 6113 021d 58       		.uleb128 0x58
 6114 021e 0B       		.uleb128 0xb
 6115 021f 59       		.uleb128 0x59
 6116 0220 05       		.uleb128 0x5
 6117 0221 00       		.byte	0
 6118 0222 00       		.byte	0
 6119 0223 29       		.uleb128 0x29
 6120 0224 2E       		.uleb128 0x2e
 6121 0225 01       		.byte	0x1
 6122 0226 3F       		.uleb128 0x3f
 6123 0227 19       		.uleb128 0x19
 6124 0228 03       		.uleb128 0x3
 6125 0229 0E       		.uleb128 0xe
 6126 022a 3A       		.uleb128 0x3a
 6127 022b 0B       		.uleb128 0xb
 6128 022c 3B       		.uleb128 0x3b
 6129 022d 05       		.uleb128 0x5
 6130 022e 27       		.uleb128 0x27
 6131 022f 19       		.uleb128 0x19
 6132 0230 11       		.uleb128 0x11
 6133 0231 01       		.uleb128 0x1
 6134 0232 12       		.uleb128 0x12
 6135 0233 06       		.uleb128 0x6
 6136 0234 40       		.uleb128 0x40
 6137 0235 18       		.uleb128 0x18
 6138 0236 9642     		.uleb128 0x2116
 6139 0238 19       		.uleb128 0x19
ARM GAS  C:\Users\rdn\AppData\Local\Temp\ccCJgMYD.s 			page 120


 6140 0239 01       		.uleb128 0x1
 6141 023a 13       		.uleb128 0x13
 6142 023b 00       		.byte	0
 6143 023c 00       		.byte	0
 6144 023d 2A       		.uleb128 0x2a
 6145 023e 05       		.uleb128 0x5
 6146 023f 00       		.byte	0
 6147 0240 03       		.uleb128 0x3
 6148 0241 0E       		.uleb128 0xe
 6149 0242 3A       		.uleb128 0x3a
 6150 0243 0B       		.uleb128 0xb
 6151 0244 3B       		.uleb128 0x3b
 6152 0245 05       		.uleb128 0x5
 6153 0246 49       		.uleb128 0x49
 6154 0247 13       		.uleb128 0x13
 6155 0248 02       		.uleb128 0x2
 6156 0249 17       		.uleb128 0x17
 6157 024a 00       		.byte	0
 6158 024b 00       		.byte	0
 6159 024c 2B       		.uleb128 0x2b
 6160 024d 34       		.uleb128 0x34
 6161 024e 00       		.byte	0
 6162 024f 03       		.uleb128 0x3
 6163 0250 0E       		.uleb128 0xe
 6164 0251 3A       		.uleb128 0x3a
 6165 0252 0B       		.uleb128 0xb
 6166 0253 3B       		.uleb128 0x3b
 6167 0254 05       		.uleb128 0x5
 6168 0255 49       		.uleb128 0x49
 6169 0256 13       		.uleb128 0x13
 6170 0257 00       		.byte	0
 6171 0258 00       		.byte	0
 6172 0259 2C       		.uleb128 0x2c
 6173 025a 34       		.uleb128 0x34
 6174 025b 00       		.byte	0
 6175 025c 03       		.uleb128 0x3
 6176 025d 0E       		.uleb128 0xe
 6177 025e 3A       		.uleb128 0x3a
 6178 025f 0B       		.uleb128 0xb
 6179 0260 3B       		.uleb128 0x3b
 6180 0261 05       		.uleb128 0x5
 6181 0262 49       		.uleb128 0x49
 6182 0263 13       		.uleb128 0x13
 6183 0264 02       		.uleb128 0x2
 6184 0265 18       		.uleb128 0x18
 6185 0266 00       		.byte	0
 6186 0267 00       		.byte	0
 6187 0268 2D       		.uleb128 0x2d
 6188 0269 17       		.uleb128 0x17
 6189 026a 01       		.byte	0x1
 6190 026b 0B       		.uleb128 0xb
 6191 026c 0B       		.uleb128 0xb
 6192 026d 3A       		.uleb128 0x3a
 6193 026e 0B       		.uleb128 0xb
 6194 026f 3B       		.uleb128 0x3b
 6195 0270 05       		.uleb128 0x5
 6196 0271 01       		.uleb128 0x1
ARM GAS  C:\Users\rdn\AppData\Local\Temp\ccCJgMYD.s 			page 121


 6197 0272 13       		.uleb128 0x13
 6198 0273 00       		.byte	0
 6199 0274 00       		.byte	0
 6200 0275 2E       		.uleb128 0x2e
 6201 0276 0D       		.uleb128 0xd
 6202 0277 00       		.byte	0
 6203 0278 03       		.uleb128 0x3
 6204 0279 08       		.uleb128 0x8
 6205 027a 3A       		.uleb128 0x3a
 6206 027b 0B       		.uleb128 0xb
 6207 027c 3B       		.uleb128 0x3b
 6208 027d 05       		.uleb128 0x5
 6209 027e 49       		.uleb128 0x49
 6210 027f 13       		.uleb128 0x13
 6211 0280 00       		.byte	0
 6212 0281 00       		.byte	0
 6213 0282 2F       		.uleb128 0x2f
 6214 0283 898201   		.uleb128 0x4109
 6215 0286 01       		.byte	0x1
 6216 0287 11       		.uleb128 0x11
 6217 0288 01       		.uleb128 0x1
 6218 0289 31       		.uleb128 0x31
 6219 028a 13       		.uleb128 0x13
 6220 028b 01       		.uleb128 0x1
 6221 028c 13       		.uleb128 0x13
 6222 028d 00       		.byte	0
 6223 028e 00       		.byte	0
 6224 028f 30       		.uleb128 0x30
 6225 0290 8A8201   		.uleb128 0x410a
 6226 0293 00       		.byte	0
 6227 0294 02       		.uleb128 0x2
 6228 0295 18       		.uleb128 0x18
 6229 0296 9142     		.uleb128 0x2111
 6230 0298 18       		.uleb128 0x18
 6231 0299 00       		.byte	0
 6232 029a 00       		.byte	0
 6233 029b 31       		.uleb128 0x31
 6234 029c 898201   		.uleb128 0x4109
 6235 029f 00       		.byte	0
 6236 02a0 11       		.uleb128 0x11
 6237 02a1 01       		.uleb128 0x1
 6238 02a2 31       		.uleb128 0x31
 6239 02a3 13       		.uleb128 0x13
 6240 02a4 00       		.byte	0
 6241 02a5 00       		.byte	0
 6242 02a6 32       		.uleb128 0x32
 6243 02a7 898201   		.uleb128 0x4109
 6244 02aa 01       		.byte	0x1
 6245 02ab 11       		.uleb128 0x11
 6246 02ac 01       		.uleb128 0x1
 6247 02ad 31       		.uleb128 0x31
 6248 02ae 13       		.uleb128 0x13
 6249 02af 00       		.byte	0
 6250 02b0 00       		.byte	0
 6251 02b1 33       		.uleb128 0x33
 6252 02b2 21       		.uleb128 0x21
 6253 02b3 00       		.byte	0
ARM GAS  C:\Users\rdn\AppData\Local\Temp\ccCJgMYD.s 			page 122


 6254 02b4 49       		.uleb128 0x49
 6255 02b5 13       		.uleb128 0x13
 6256 02b6 2F       		.uleb128 0x2f
 6257 02b7 05       		.uleb128 0x5
 6258 02b8 00       		.byte	0
 6259 02b9 00       		.byte	0
 6260 02ba 34       		.uleb128 0x34
 6261 02bb 34       		.uleb128 0x34
 6262 02bc 00       		.byte	0
 6263 02bd 03       		.uleb128 0x3
 6264 02be 0E       		.uleb128 0xe
 6265 02bf 3A       		.uleb128 0x3a
 6266 02c0 0B       		.uleb128 0xb
 6267 02c1 3B       		.uleb128 0x3b
 6268 02c2 0B       		.uleb128 0xb
 6269 02c3 49       		.uleb128 0x49
 6270 02c4 13       		.uleb128 0x13
 6271 02c5 3F       		.uleb128 0x3f
 6272 02c6 19       		.uleb128 0x19
 6273 02c7 3C       		.uleb128 0x3c
 6274 02c8 19       		.uleb128 0x19
 6275 02c9 00       		.byte	0
 6276 02ca 00       		.byte	0
 6277 02cb 35       		.uleb128 0x35
 6278 02cc 21       		.uleb128 0x21
 6279 02cd 00       		.byte	0
 6280 02ce 00       		.byte	0
 6281 02cf 00       		.byte	0
 6282 02d0 36       		.uleb128 0x36
 6283 02d1 2E       		.uleb128 0x2e
 6284 02d2 00       		.byte	0
 6285 02d3 3F       		.uleb128 0x3f
 6286 02d4 19       		.uleb128 0x19
 6287 02d5 3C       		.uleb128 0x3c
 6288 02d6 19       		.uleb128 0x19
 6289 02d7 6E       		.uleb128 0x6e
 6290 02d8 0E       		.uleb128 0xe
 6291 02d9 03       		.uleb128 0x3
 6292 02da 0E       		.uleb128 0xe
 6293 02db 3A       		.uleb128 0x3a
 6294 02dc 0B       		.uleb128 0xb
 6295 02dd 3B       		.uleb128 0x3b
 6296 02de 05       		.uleb128 0x5
 6297 02df 00       		.byte	0
 6298 02e0 00       		.byte	0
 6299 02e1 00       		.byte	0
 6300              		.section	.debug_loc,"",%progbits
 6301              	.Ldebug_loc0:
 6302              	.LLST0:
 6303 0000 00000000 		.4byte	.LVL0
 6304 0004 12000000 		.4byte	.LVL1
 6305 0008 0100     		.2byte	0x1
 6306 000a 50       		.byte	0x50
 6307 000b 12000000 		.4byte	.LVL1
 6308 000f 2C000000 		.4byte	.LVL7
 6309 0013 0100     		.2byte	0x1
 6310 0015 54       		.byte	0x54
ARM GAS  C:\Users\rdn\AppData\Local\Temp\ccCJgMYD.s 			page 123


 6311 0016 2C000000 		.4byte	.LVL7
 6312 001a 7C070000 		.4byte	.LFE23
 6313 001e 0400     		.2byte	0x4
 6314 0020 F3       		.byte	0xf3
 6315 0021 01       		.uleb128 0x1
 6316 0022 50       		.byte	0x50
 6317 0023 9F       		.byte	0x9f
 6318 0024 00000000 		.4byte	0
 6319 0028 00000000 		.4byte	0
 6320              	.LLST1:
 6321 002c 00000000 		.4byte	.LVL0
 6322 0030 1A000000 		.4byte	.LVL3
 6323 0034 0100     		.2byte	0x1
 6324 0036 51       		.byte	0x51
 6325 0037 1A000000 		.4byte	.LVL3
 6326 003b 1D000000 		.4byte	.LVL4-1
 6327 003f 0100     		.2byte	0x1
 6328 0041 50       		.byte	0x50
 6329 0042 1D000000 		.4byte	.LVL4-1
 6330 0046 20000000 		.4byte	.LVL5
 6331 004a 0400     		.2byte	0x4
 6332 004c F3       		.byte	0xf3
 6333 004d 01       		.uleb128 0x1
 6334 004e 51       		.byte	0x51
 6335 004f 9F       		.byte	0x9f
 6336 0050 20000000 		.4byte	.LVL5
 6337 0054 2C000000 		.4byte	.LVL7
 6338 0058 0100     		.2byte	0x1
 6339 005a 50       		.byte	0x50
 6340 005b 2C000000 		.4byte	.LVL7
 6341 005f 12030000 		.4byte	.LVL79
 6342 0063 0100     		.2byte	0x1
 6343 0065 5B       		.byte	0x5b
 6344 0066 12030000 		.4byte	.LVL79
 6345 006a 18030000 		.4byte	.LVL80
 6346 006e 0100     		.2byte	0x1
 6347 0070 52       		.byte	0x52
 6348 0071 18030000 		.4byte	.LVL80
 6349 0075 3C030000 		.4byte	.LVL85
 6350 0079 0200     		.2byte	0x2
 6351 007b 91       		.byte	0x91
 6352 007c 44       		.sleb128 -60
 6353 007d 3C030000 		.4byte	.LVL85
 6354 0081 98030000 		.4byte	.LVL99
 6355 0085 0100     		.2byte	0x1
 6356 0087 50       		.byte	0x50
 6357 0088 98030000 		.4byte	.LVL99
 6358 008c 12060000 		.4byte	.LVL165
 6359 0090 0200     		.2byte	0x2
 6360 0092 91       		.byte	0x91
 6361 0093 44       		.sleb128 -60
 6362 0094 12060000 		.4byte	.LVL165
 6363 0098 16060000 		.4byte	.LVL166
 6364 009c 0100     		.2byte	0x1
 6365 009e 53       		.byte	0x53
 6366 009f 16060000 		.4byte	.LVL166
 6367 00a3 42060000 		.4byte	.LVL169
ARM GAS  C:\Users\rdn\AppData\Local\Temp\ccCJgMYD.s 			page 124


 6368 00a7 0200     		.2byte	0x2
 6369 00a9 91       		.byte	0x91
 6370 00aa 44       		.sleb128 -60
 6371 00ab 42060000 		.4byte	.LVL169
 6372 00af 60060000 		.4byte	.LVL179
 6373 00b3 0100     		.2byte	0x1
 6374 00b5 52       		.byte	0x52
 6375 00b6 60060000 		.4byte	.LVL179
 6376 00ba 7C070000 		.4byte	.LFE23
 6377 00be 0200     		.2byte	0x2
 6378 00c0 91       		.byte	0x91
 6379 00c1 44       		.sleb128 -60
 6380 00c2 00000000 		.4byte	0
 6381 00c6 00000000 		.4byte	0
 6382              	.LLST2:
 6383 00ca 00000000 		.4byte	.LVL0
 6384 00ce 1D000000 		.4byte	.LVL4-1
 6385 00d2 0100     		.2byte	0x1
 6386 00d4 52       		.byte	0x52
 6387 00d5 1D000000 		.4byte	.LVL4-1
 6388 00d9 7C070000 		.4byte	.LFE23
 6389 00dd 0200     		.2byte	0x2
 6390 00df 91       		.byte	0x91
 6391 00e0 54       		.sleb128 -44
 6392 00e1 00000000 		.4byte	0
 6393 00e5 00000000 		.4byte	0
 6394              	.LLST3:
 6395 00e9 00000000 		.4byte	.LVL0
 6396 00ed 1D000000 		.4byte	.LVL4-1
 6397 00f1 0100     		.2byte	0x1
 6398 00f3 53       		.byte	0x53
 6399 00f4 1D000000 		.4byte	.LVL4-1
 6400 00f8 2A000000 		.4byte	.LVL6
 6401 00fc 0100     		.2byte	0x1
 6402 00fe 57       		.byte	0x57
 6403 00ff 2A000000 		.4byte	.LVL6
 6404 0103 2C000000 		.4byte	.LVL7
 6405 0107 0100     		.2byte	0x1
 6406 0109 5A       		.byte	0x5a
 6407 010a 2C000000 		.4byte	.LVL7
 6408 010e 20030000 		.4byte	.LVL81
 6409 0112 0200     		.2byte	0x2
 6410 0114 91       		.byte	0x91
 6411 0115 50       		.sleb128 -48
 6412 0116 20030000 		.4byte	.LVL81
 6413 011a 34030000 		.4byte	.LVL83
 6414 011e 0200     		.2byte	0x2
 6415 0120 71       		.byte	0x71
 6416 0121 00       		.sleb128 0
 6417 0122 34030000 		.4byte	.LVL83
 6418 0126 2C060000 		.4byte	.LVL167
 6419 012a 0200     		.2byte	0x2
 6420 012c 91       		.byte	0x91
 6421 012d 50       		.sleb128 -48
 6422 012e 2C060000 		.4byte	.LVL167
 6423 0132 44060000 		.4byte	.LVL170
 6424 0136 0200     		.2byte	0x2
ARM GAS  C:\Users\rdn\AppData\Local\Temp\ccCJgMYD.s 			page 125


 6425 0138 70       		.byte	0x70
 6426 0139 00       		.sleb128 0
 6427 013a 44060000 		.4byte	.LVL170
 6428 013e 66070000 		.4byte	.LVL209
 6429 0142 0200     		.2byte	0x2
 6430 0144 91       		.byte	0x91
 6431 0145 50       		.sleb128 -48
 6432 0146 66070000 		.4byte	.LVL209
 6433 014a 7C070000 		.4byte	.LFE23
 6434 014e 0200     		.2byte	0x2
 6435 0150 72       		.byte	0x72
 6436 0151 00       		.sleb128 0
 6437 0152 00000000 		.4byte	0
 6438 0156 00000000 		.4byte	0
 6439              	.LLST4:
 6440 015a 18000000 		.4byte	.LVL2
 6441 015e 12030000 		.4byte	.LVL79
 6442 0162 0200     		.2byte	0x2
 6443 0164 30       		.byte	0x30
 6444 0165 9F       		.byte	0x9f
 6445 0166 12030000 		.4byte	.LVL79
 6446 016a 2A030000 		.4byte	.LVL82
 6447 016e 0200     		.2byte	0x2
 6448 0170 91       		.byte	0x91
 6449 0171 48       		.sleb128 -56
 6450 0172 00060000 		.4byte	.LVL164
 6451 0176 34060000 		.4byte	.LVL168
 6452 017a 0200     		.2byte	0x2
 6453 017c 91       		.byte	0x91
 6454 017d 48       		.sleb128 -56
 6455 017e 58070000 		.4byte	.LVL208
 6456 0182 7C070000 		.4byte	.LFE23
 6457 0186 0200     		.2byte	0x2
 6458 0188 91       		.byte	0x91
 6459 0189 48       		.sleb128 -56
 6460 018a 00000000 		.4byte	0
 6461 018e 00000000 		.4byte	0
 6462              	.LLST5:
 6463 0192 20000000 		.4byte	.LVL5
 6464 0196 2C000000 		.4byte	.LVL7
 6465 019a 0100     		.2byte	0x1
 6466 019c 50       		.byte	0x50
 6467 019d 2C000000 		.4byte	.LVL7
 6468 01a1 12030000 		.4byte	.LVL79
 6469 01a5 0100     		.2byte	0x1
 6470 01a7 5B       		.byte	0x5b
 6471 01a8 00000000 		.4byte	0
 6472 01ac 00000000 		.4byte	0
 6473              	.LLST6:
 6474 01b0 20000000 		.4byte	.LVL5
 6475 01b4 2A000000 		.4byte	.LVL6
 6476 01b8 0100     		.2byte	0x1
 6477 01ba 57       		.byte	0x57
 6478 01bb 2A000000 		.4byte	.LVL6
 6479 01bf 12030000 		.4byte	.LVL79
 6480 01c3 0100     		.2byte	0x1
 6481 01c5 5A       		.byte	0x5a
ARM GAS  C:\Users\rdn\AppData\Local\Temp\ccCJgMYD.s 			page 126


 6482 01c6 00000000 		.4byte	0
 6483 01ca 00000000 		.4byte	0
 6484              	.LLST7:
 6485 01ce 20000000 		.4byte	.LVL5
 6486 01d2 2C000000 		.4byte	.LVL7
 6487 01d6 0100     		.2byte	0x1
 6488 01d8 54       		.byte	0x54
 6489 01d9 2C000000 		.4byte	.LVL7
 6490 01dd 12030000 		.4byte	.LVL79
 6491 01e1 0100     		.2byte	0x1
 6492 01e3 57       		.byte	0x57
 6493 01e4 00000000 		.4byte	0
 6494 01e8 00000000 		.4byte	0
 6495              	.LLST8:
 6496 01ec 20000000 		.4byte	.LVL5
 6497 01f0 2C000000 		.4byte	.LVL7
 6498 01f4 0200     		.2byte	0x2
 6499 01f6 30       		.byte	0x30
 6500 01f7 9F       		.byte	0x9f
 6501 01f8 2C000000 		.4byte	.LVL7
 6502 01fc 12030000 		.4byte	.LVL79
 6503 0200 0100     		.2byte	0x1
 6504 0202 58       		.byte	0x58
 6505 0203 00000000 		.4byte	0
 6506 0207 00000000 		.4byte	0
 6507              	.LLST9:
 6508 020b 3C030000 		.4byte	.LVL85
 6509 020f 98030000 		.4byte	.LVL99
 6510 0213 0100     		.2byte	0x1
 6511 0215 50       		.byte	0x50
 6512 0216 98030000 		.4byte	.LVL99
 6513 021a FA050000 		.4byte	.LVL163
 6514 021e 0200     		.2byte	0x2
 6515 0220 91       		.byte	0x91
 6516 0221 44       		.sleb128 -60
 6517 0222 00000000 		.4byte	0
 6518 0226 00000000 		.4byte	0
 6519              	.LLST10:
 6520 022a 3C030000 		.4byte	.LVL85
 6521 022e 98030000 		.4byte	.LVL99
 6522 0232 0100     		.2byte	0x1
 6523 0234 55       		.byte	0x55
 6524 0235 98030000 		.4byte	.LVL99
 6525 0239 FA050000 		.4byte	.LVL163
 6526 023d 0B00     		.2byte	0xb
 6527 023f 91       		.byte	0x91
 6528 0240 48       		.sleb128 -56
 6529 0241 06       		.byte	0x6
 6530 0242 32       		.byte	0x32
 6531 0243 24       		.byte	0x24
 6532 0244 91       		.byte	0x91
 6533 0245 00       		.sleb128 0
 6534 0246 22       		.byte	0x22
 6535 0247 08       		.byte	0x8
 6536 0248 30       		.byte	0x30
 6537 0249 1C       		.byte	0x1c
 6538 024a 00000000 		.4byte	0
ARM GAS  C:\Users\rdn\AppData\Local\Temp\ccCJgMYD.s 			page 127


 6539 024e 00000000 		.4byte	0
 6540              	.LLST11:
 6541 0252 3C030000 		.4byte	.LVL85
 6542 0256 98030000 		.4byte	.LVL99
 6543 025a 0100     		.2byte	0x1
 6544 025c 5A       		.byte	0x5a
 6545 025d 98030000 		.4byte	.LVL99
 6546 0261 FA050000 		.4byte	.LVL163
 6547 0265 0D00     		.2byte	0xd
 6548 0267 91       		.byte	0x91
 6549 0268 48       		.sleb128 -56
 6550 0269 06       		.byte	0x6
 6551 026a 31       		.byte	0x31
 6552 026b 27       		.byte	0x27
 6553 026c 32       		.byte	0x32
 6554 026d 24       		.byte	0x24
 6555 026e 91       		.byte	0x91
 6556 026f 00       		.sleb128 0
 6557 0270 22       		.byte	0x22
 6558 0271 08       		.byte	0x8
 6559 0272 30       		.byte	0x30
 6560 0273 1C       		.byte	0x1c
 6561 0274 00000000 		.4byte	0
 6562 0278 00000000 		.4byte	0
 6563              	.LLST12:
 6564 027c 3C030000 		.4byte	.LVL85
 6565 0280 98030000 		.4byte	.LVL99
 6566 0284 0100     		.2byte	0x1
 6567 0286 54       		.byte	0x54
 6568 0287 00000000 		.4byte	0
 6569 028b 00000000 		.4byte	0
 6570              	.LLST13:
 6571 028f 42030000 		.4byte	.LVL86
 6572 0293 6C030000 		.4byte	.LVL95
 6573 0297 0100     		.2byte	0x1
 6574 0299 52       		.byte	0x52
 6575 029a 6C030000 		.4byte	.LVL95
 6576 029e FA050000 		.4byte	.LVL163
 6577 02a2 0300     		.2byte	0x3
 6578 02a4 91       		.byte	0x91
 6579 02a5 A47F     		.sleb128 -92
 6580 02a7 00000000 		.4byte	0
 6581 02ab 00000000 		.4byte	0
 6582              	.LLST14:
 6583 02af 48030000 		.4byte	.LVL87
 6584 02b3 50030000 		.4byte	.LVL88
 6585 02b7 0100     		.2byte	0x1
 6586 02b9 51       		.byte	0x51
 6587 02ba 50030000 		.4byte	.LVL88
 6588 02be FA050000 		.4byte	.LVL163
 6589 02c2 0300     		.2byte	0x3
 6590 02c4 91       		.byte	0x91
 6591 02c5 B47F     		.sleb128 -76
 6592 02c7 00000000 		.4byte	0
 6593 02cb 00000000 		.4byte	0
 6594              	.LLST15:
 6595 02cf 52030000 		.4byte	.LVL89
ARM GAS  C:\Users\rdn\AppData\Local\Temp\ccCJgMYD.s 			page 128


 6596 02d3 98030000 		.4byte	.LVL99
 6597 02d7 0100     		.2byte	0x1
 6598 02d9 51       		.byte	0x51
 6599 02da 98030000 		.4byte	.LVL99
 6600 02de FA050000 		.4byte	.LVL163
 6601 02e2 0300     		.2byte	0x3
 6602 02e4 91       		.byte	0x91
 6603 02e5 B87F     		.sleb128 -72
 6604 02e7 00000000 		.4byte	0
 6605 02eb 00000000 		.4byte	0
 6606              	.LLST16:
 6607 02ef 56030000 		.4byte	.LVL90
 6608 02f3 58030000 		.4byte	.LVL91
 6609 02f7 0100     		.2byte	0x1
 6610 02f9 53       		.byte	0x53
 6611 02fa 58030000 		.4byte	.LVL91
 6612 02fe FA050000 		.4byte	.LVL163
 6613 0302 0300     		.2byte	0x3
 6614 0304 91       		.byte	0x91
 6615 0305 BC7F     		.sleb128 -68
 6616 0307 00000000 		.4byte	0
 6617 030b 00000000 		.4byte	0
 6618              	.LLST17:
 6619 030f 56030000 		.4byte	.LVL90
 6620 0313 00060000 		.4byte	.LVL164
 6621 0317 0100     		.2byte	0x1
 6622 0319 5A       		.byte	0x5a
 6623 031a 00000000 		.4byte	0
 6624 031e 00000000 		.4byte	0
 6625              	.LLST18:
 6626 0322 60030000 		.4byte	.LVL92
 6627 0326 98030000 		.4byte	.LVL99
 6628 032a 0100     		.2byte	0x1
 6629 032c 5B       		.byte	0x5b
 6630 032d 98030000 		.4byte	.LVL99
 6631 0331 FA050000 		.4byte	.LVL163
 6632 0335 0100     		.2byte	0x1
 6633 0337 57       		.byte	0x57
 6634 0338 00000000 		.4byte	0
 6635 033c 00000000 		.4byte	0
 6636              	.LLST19:
 6637 0340 64030000 		.4byte	.LVL93
 6638 0344 66030000 		.4byte	.LVL94
 6639 0348 0100     		.2byte	0x1
 6640 034a 53       		.byte	0x53
 6641 034b 66030000 		.4byte	.LVL94
 6642 034f FA050000 		.4byte	.LVL163
 6643 0353 0100     		.2byte	0x1
 6644 0355 56       		.byte	0x56
 6645 0356 00000000 		.4byte	0
 6646 035a 00000000 		.4byte	0
 6647              	.LLST20:
 6648 035e 64030000 		.4byte	.LVL93
 6649 0362 98030000 		.4byte	.LVL99
 6650 0366 0100     		.2byte	0x1
 6651 0368 55       		.byte	0x55
 6652 0369 98030000 		.4byte	.LVL99
ARM GAS  C:\Users\rdn\AppData\Local\Temp\ccCJgMYD.s 			page 129


 6653 036d DE050000 		.4byte	.LVL156
 6654 0371 0300     		.2byte	0x3
 6655 0373 91       		.byte	0x91
 6656 0374 A87F     		.sleb128 -88
 6657 0376 DE050000 		.4byte	.LVL156
 6658 037a E0050000 		.4byte	.LVL157
 6659 037e 0100     		.2byte	0x1
 6660 0380 52       		.byte	0x52
 6661 0381 E0050000 		.4byte	.LVL157
 6662 0385 E2050000 		.4byte	.LVL158
 6663 0389 0100     		.2byte	0x1
 6664 038b 5C       		.byte	0x5c
 6665 038c E2050000 		.4byte	.LVL158
 6666 0390 00060000 		.4byte	.LVL164
 6667 0394 0300     		.2byte	0x3
 6668 0396 91       		.byte	0x91
 6669 0397 A87F     		.sleb128 -88
 6670 0399 00000000 		.4byte	0
 6671 039d 00000000 		.4byte	0
 6672              	.LLST21:
 6673 03a1 6E030000 		.4byte	.LVL96
 6674 03a5 98030000 		.4byte	.LVL99
 6675 03a9 0100     		.2byte	0x1
 6676 03ab 52       		.byte	0x52
 6677 03ac 98030000 		.4byte	.LVL99
 6678 03b0 E8050000 		.4byte	.LVL159
 6679 03b4 0300     		.2byte	0x3
 6680 03b6 91       		.byte	0x91
 6681 03b7 AC7F     		.sleb128 -84
 6682 03b9 E8050000 		.4byte	.LVL159
 6683 03bd EA050000 		.4byte	.LVL160
 6684 03c1 0100     		.2byte	0x1
 6685 03c3 52       		.byte	0x52
 6686 03c4 EA050000 		.4byte	.LVL160
 6687 03c8 EC050000 		.4byte	.LVL161
 6688 03cc 0100     		.2byte	0x1
 6689 03ce 5C       		.byte	0x5c
 6690 03cf EC050000 		.4byte	.LVL161
 6691 03d3 FA050000 		.4byte	.LVL163
 6692 03d7 0300     		.2byte	0x3
 6693 03d9 91       		.byte	0x91
 6694 03da AC7F     		.sleb128 -84
 6695 03dc 00000000 		.4byte	0
 6696 03e0 00000000 		.4byte	0
 6697              	.LLST22:
 6698 03e4 72030000 		.4byte	.LVL97
 6699 03e8 74030000 		.4byte	.LVL98
 6700 03ec 0100     		.2byte	0x1
 6701 03ee 53       		.byte	0x53
 6702 03ef 74030000 		.4byte	.LVL98
 6703 03f3 FA050000 		.4byte	.LVL163
 6704 03f7 0300     		.2byte	0x3
 6705 03f9 91       		.byte	0x91
 6706 03fa B07F     		.sleb128 -80
 6707 03fc 00000000 		.4byte	0
 6708 0400 00000000 		.4byte	0
 6709              	.LLST23:
ARM GAS  C:\Users\rdn\AppData\Local\Temp\ccCJgMYD.s 			page 130


 6710 0404 72030000 		.4byte	.LVL97
 6711 0408 98030000 		.4byte	.LVL99
 6712 040c 0200     		.2byte	0x2
 6713 040e 30       		.byte	0x30
 6714 040f 9F       		.byte	0x9f
 6715 0410 98030000 		.4byte	.LVL99
 6716 0414 B8050000 		.4byte	.LVL152
 6717 0418 0200     		.2byte	0x2
 6718 041a 91       		.byte	0x91
 6719 041b 40       		.sleb128 -64
 6720 041c B8050000 		.4byte	.LVL152
 6721 0420 BC050000 		.4byte	.LVL153
 6722 0424 0100     		.2byte	0x1
 6723 0426 52       		.byte	0x52
 6724 0427 BC050000 		.4byte	.LVL153
 6725 042b CA050000 		.4byte	.LVL154
 6726 042f 0200     		.2byte	0x2
 6727 0431 91       		.byte	0x91
 6728 0432 40       		.sleb128 -64
 6729 0433 CA050000 		.4byte	.LVL154
 6730 0437 CC050000 		.4byte	.LVL155
 6731 043b 0100     		.2byte	0x1
 6732 043d 53       		.byte	0x53
 6733 043e CC050000 		.4byte	.LVL155
 6734 0442 FA050000 		.4byte	.LVL163
 6735 0446 0200     		.2byte	0x2
 6736 0448 91       		.byte	0x91
 6737 0449 40       		.sleb128 -64
 6738 044a 00000000 		.4byte	0
 6739 044e 00000000 		.4byte	0
 6740              	.LLST24:
 6741 0452 98030000 		.4byte	.LVL99
 6742 0456 B8050000 		.4byte	.LVL152
 6743 045a 0100     		.2byte	0x1
 6744 045c 59       		.byte	0x59
 6745 045d BC050000 		.4byte	.LVL153
 6746 0461 F2050000 		.4byte	.LVL162
 6747 0465 0100     		.2byte	0x1
 6748 0467 59       		.byte	0x59
 6749 0468 00000000 		.4byte	0
 6750 046c 00000000 		.4byte	0
 6751              	.LLST25:
 6752 0470 42060000 		.4byte	.LVL169
 6753 0474 60060000 		.4byte	.LVL179
 6754 0478 0100     		.2byte	0x1
 6755 047a 52       		.byte	0x52
 6756 047b 60060000 		.4byte	.LVL179
 6757 047f 52070000 		.4byte	.LVL207
 6758 0483 0200     		.2byte	0x2
 6759 0485 91       		.byte	0x91
 6760 0486 44       		.sleb128 -60
 6761 0487 00000000 		.4byte	0
 6762 048b 00000000 		.4byte	0
 6763              	.LLST26:
 6764 048f 42060000 		.4byte	.LVL169
 6765 0493 60060000 		.4byte	.LVL179
 6766 0497 0100     		.2byte	0x1
ARM GAS  C:\Users\rdn\AppData\Local\Temp\ccCJgMYD.s 			page 131


 6767 0499 51       		.byte	0x51
 6768 049a 60060000 		.4byte	.LVL179
 6769 049e 52070000 		.4byte	.LVL207
 6770 04a2 0B00     		.2byte	0xb
 6771 04a4 91       		.byte	0x91
 6772 04a5 48       		.sleb128 -56
 6773 04a6 06       		.byte	0x6
 6774 04a7 32       		.byte	0x32
 6775 04a8 24       		.byte	0x24
 6776 04a9 91       		.byte	0x91
 6777 04aa 00       		.sleb128 0
 6778 04ab 22       		.byte	0x22
 6779 04ac 08       		.byte	0x8
 6780 04ad 30       		.byte	0x30
 6781 04ae 1C       		.byte	0x1c
 6782 04af 00000000 		.4byte	0
 6783 04b3 00000000 		.4byte	0
 6784              	.LLST27:
 6785 04b7 42060000 		.4byte	.LVL169
 6786 04bb 60060000 		.4byte	.LVL179
 6787 04bf 0100     		.2byte	0x1
 6788 04c1 56       		.byte	0x56
 6789 04c2 60060000 		.4byte	.LVL179
 6790 04c6 52070000 		.4byte	.LVL207
 6791 04ca 0D00     		.2byte	0xd
 6792 04cc 91       		.byte	0x91
 6793 04cd 48       		.sleb128 -56
 6794 04ce 06       		.byte	0x6
 6795 04cf 31       		.byte	0x31
 6796 04d0 27       		.byte	0x27
 6797 04d1 32       		.byte	0x32
 6798 04d2 24       		.byte	0x24
 6799 04d3 91       		.byte	0x91
 6800 04d4 00       		.sleb128 0
 6801 04d5 22       		.byte	0x22
 6802 04d6 08       		.byte	0x8
 6803 04d7 30       		.byte	0x30
 6804 04d8 1C       		.byte	0x1c
 6805 04d9 00000000 		.4byte	0
 6806 04dd 00000000 		.4byte	0
 6807              	.LLST28:
 6808 04e1 42060000 		.4byte	.LVL169
 6809 04e5 48060000 		.4byte	.LVL172
 6810 04e9 0100     		.2byte	0x1
 6811 04eb 53       		.byte	0x53
 6812 04ec 00000000 		.4byte	0
 6813 04f0 00000000 		.4byte	0
 6814              	.LLST29:
 6815 04f4 46060000 		.4byte	.LVL171
 6816 04f8 60060000 		.4byte	.LVL179
 6817 04fc 0100     		.2byte	0x1
 6818 04fe 50       		.byte	0x50
 6819 04ff 60060000 		.4byte	.LVL179
 6820 0503 52070000 		.4byte	.LVL207
 6821 0507 0100     		.2byte	0x1
 6822 0509 5B       		.byte	0x5b
 6823 050a 00000000 		.4byte	0
ARM GAS  C:\Users\rdn\AppData\Local\Temp\ccCJgMYD.s 			page 132


 6824 050e 00000000 		.4byte	0
 6825              	.LLST30:
 6826 0512 4A060000 		.4byte	.LVL173
 6827 0516 54060000 		.4byte	.LVL175
 6828 051a 0100     		.2byte	0x1
 6829 051c 53       		.byte	0x53
 6830 051d 54060000 		.4byte	.LVL175
 6831 0521 52070000 		.4byte	.LVL207
 6832 0525 0300     		.2byte	0x3
 6833 0527 91       		.byte	0x91
 6834 0528 A87F     		.sleb128 -88
 6835 052a 00000000 		.4byte	0
 6836 052e 00000000 		.4byte	0
 6837              	.LLST31:
 6838 0532 4A060000 		.4byte	.LVL173
 6839 0536 58070000 		.4byte	.LVL208
 6840 053a 0100     		.2byte	0x1
 6841 053c 56       		.byte	0x56
 6842 053d 00000000 		.4byte	0
 6843 0541 00000000 		.4byte	0
 6844              	.LLST32:
 6845 0545 52060000 		.4byte	.LVL174
 6846 0549 52070000 		.4byte	.LVL207
 6847 054d 0100     		.2byte	0x1
 6848 054f 54       		.byte	0x54
 6849 0550 00000000 		.4byte	0
 6850 0554 00000000 		.4byte	0
 6851              	.LLST33:
 6852 0558 52060000 		.4byte	.LVL174
 6853 055c 60060000 		.4byte	.LVL179
 6854 0560 0100     		.2byte	0x1
 6855 0562 51       		.byte	0x51
 6856 0563 60060000 		.4byte	.LVL179
 6857 0567 40070000 		.4byte	.LVL203
 6858 056b 0200     		.2byte	0x2
 6859 056d 7D       		.byte	0x7d
 6860 056e 00       		.sleb128 0
 6861 056f 40070000 		.4byte	.LVL203
 6862 0573 42070000 		.4byte	.LVL204
 6863 0577 0100     		.2byte	0x1
 6864 0579 52       		.byte	0x52
 6865 057a 42070000 		.4byte	.LVL204
 6866 057e 44070000 		.4byte	.LVL205
 6867 0582 0100     		.2byte	0x1
 6868 0584 5C       		.byte	0x5c
 6869 0585 44070000 		.4byte	.LVL205
 6870 0589 58070000 		.4byte	.LVL208
 6871 058d 0200     		.2byte	0x2
 6872 058f 7D       		.byte	0x7d
 6873 0590 00       		.sleb128 0
 6874 0591 00000000 		.4byte	0
 6875 0595 00000000 		.4byte	0
 6876              	.LLST34:
 6877 0599 5A060000 		.4byte	.LVL177
 6878 059d 5C060000 		.4byte	.LVL178
 6879 05a1 0100     		.2byte	0x1
 6880 05a3 53       		.byte	0x53
ARM GAS  C:\Users\rdn\AppData\Local\Temp\ccCJgMYD.s 			page 133


 6881 05a4 5C060000 		.4byte	.LVL178
 6882 05a8 52070000 		.4byte	.LVL207
 6883 05ac 0300     		.2byte	0x3
 6884 05ae 91       		.byte	0x91
 6885 05af A47F     		.sleb128 -92
 6886 05b1 00000000 		.4byte	0
 6887 05b5 00000000 		.4byte	0
 6888              	.LLST35:
 6889 05b9 5A060000 		.4byte	.LVL177
 6890 05bd 60060000 		.4byte	.LVL179
 6891 05c1 0200     		.2byte	0x2
 6892 05c3 30       		.byte	0x30
 6893 05c4 9F       		.byte	0x9f
 6894 05c5 60060000 		.4byte	.LVL179
 6895 05c9 24070000 		.4byte	.LVL199
 6896 05cd 0300     		.2byte	0x3
 6897 05cf 91       		.byte	0x91
 6898 05d0 AC7F     		.sleb128 -84
 6899 05d2 24070000 		.4byte	.LVL199
 6900 05d6 28070000 		.4byte	.LVL200
 6901 05da 0100     		.2byte	0x1
 6902 05dc 52       		.byte	0x52
 6903 05dd 28070000 		.4byte	.LVL200
 6904 05e1 32070000 		.4byte	.LVL201
 6905 05e5 0300     		.2byte	0x3
 6906 05e7 91       		.byte	0x91
 6907 05e8 AC7F     		.sleb128 -84
 6908 05ea 32070000 		.4byte	.LVL201
 6909 05ee 34070000 		.4byte	.LVL202
 6910 05f2 0100     		.2byte	0x1
 6911 05f4 53       		.byte	0x53
 6912 05f5 34070000 		.4byte	.LVL202
 6913 05f9 52070000 		.4byte	.LVL207
 6914 05fd 0300     		.2byte	0x3
 6915 05ff 91       		.byte	0x91
 6916 0600 AC7F     		.sleb128 -84
 6917 0602 00000000 		.4byte	0
 6918 0606 00000000 		.4byte	0
 6919              	.LLST36:
 6920 060a 60060000 		.4byte	.LVL179
 6921 060e 24070000 		.4byte	.LVL199
 6922 0612 0100     		.2byte	0x1
 6923 0614 58       		.byte	0x58
 6924 0615 28070000 		.4byte	.LVL200
 6925 0619 4A070000 		.4byte	.LVL206
 6926 061d 0100     		.2byte	0x1
 6927 061f 58       		.byte	0x58
 6928 0620 00000000 		.4byte	0
 6929 0624 00000000 		.4byte	0
 6930              	.LLST37:
 6931 0628 00000000 		.4byte	.LVL210
 6932 062c 46000000 		.4byte	.LVL218
 6933 0630 0100     		.2byte	0x1
 6934 0632 50       		.byte	0x50
 6935 0633 46000000 		.4byte	.LVL218
 6936 0637 6C020000 		.4byte	.LFE24
 6937 063b 0400     		.2byte	0x4
ARM GAS  C:\Users\rdn\AppData\Local\Temp\ccCJgMYD.s 			page 134


 6938 063d F3       		.byte	0xf3
 6939 063e 01       		.uleb128 0x1
 6940 063f 50       		.byte	0x50
 6941 0640 9F       		.byte	0x9f
 6942 0641 00000000 		.4byte	0
 6943 0645 00000000 		.4byte	0
 6944              	.LLST38:
 6945 0649 00000000 		.4byte	.LVL210
 6946 064d 2E000000 		.4byte	.LVL215
 6947 0651 0100     		.2byte	0x1
 6948 0653 51       		.byte	0x51
 6949 0654 2E000000 		.4byte	.LVL215
 6950 0658 6C020000 		.4byte	.LFE24
 6951 065c 0400     		.2byte	0x4
 6952 065e F3       		.byte	0xf3
 6953 065f 01       		.uleb128 0x1
 6954 0660 51       		.byte	0x51
 6955 0661 9F       		.byte	0x9f
 6956 0662 00000000 		.4byte	0
 6957 0666 00000000 		.4byte	0
 6958              	.LLST39:
 6959 066a 00000000 		.4byte	.LVL210
 6960 066e 1C000000 		.4byte	.LVL212
 6961 0672 0100     		.2byte	0x1
 6962 0674 52       		.byte	0x52
 6963 0675 1C000000 		.4byte	.LVL212
 6964 0679 72000000 		.4byte	.LVL225
 6965 067d 0100     		.2byte	0x1
 6966 067f 59       		.byte	0x59
 6967 0680 72000000 		.4byte	.LVL225
 6968 0684 78000000 		.4byte	.LVL227
 6969 0688 0100     		.2byte	0x1
 6970 068a 52       		.byte	0x52
 6971 068b 78000000 		.4byte	.LVL227
 6972 068f 46010000 		.4byte	.LVL263
 6973 0693 0200     		.2byte	0x2
 6974 0695 91       		.byte	0x91
 6975 0696 4C       		.sleb128 -52
 6976 0697 46010000 		.4byte	.LVL263
 6977 069b 6C020000 		.4byte	.LFE24
 6978 069f 0400     		.2byte	0x4
 6979 06a1 F3       		.byte	0xf3
 6980 06a2 01       		.uleb128 0x1
 6981 06a3 52       		.byte	0x52
 6982 06a4 9F       		.byte	0x9f
 6983 06a5 00000000 		.4byte	0
 6984 06a9 00000000 		.4byte	0
 6985              	.LLST40:
 6986 06ad 00000000 		.4byte	.LVL210
 6987 06b1 14000000 		.4byte	.LVL211
 6988 06b5 0100     		.2byte	0x1
 6989 06b7 53       		.byte	0x53
 6990 06b8 14000000 		.4byte	.LVL211
 6991 06bc 76000000 		.4byte	.LVL226
 6992 06c0 0100     		.2byte	0x1
 6993 06c2 5B       		.byte	0x5b
 6994 06c3 76000000 		.4byte	.LVL226
ARM GAS  C:\Users\rdn\AppData\Local\Temp\ccCJgMYD.s 			page 135


 6995 06c7 78000000 		.4byte	.LVL227
 6996 06cb 0100     		.2byte	0x1
 6997 06cd 56       		.byte	0x56
 6998 06ce 78000000 		.4byte	.LVL227
 6999 06d2 6C020000 		.4byte	.LFE24
 7000 06d6 0400     		.2byte	0x4
 7001 06d8 F3       		.byte	0xf3
 7002 06d9 01       		.uleb128 0x1
 7003 06da 53       		.byte	0x53
 7004 06db 9F       		.byte	0x9f
 7005 06dc 00000000 		.4byte	0
 7006 06e0 00000000 		.4byte	0
 7007              	.LLST41:
 7008 06e4 1E000000 		.4byte	.LVL213
 7009 06e8 78000000 		.4byte	.LVL227
 7010 06ec 0100     		.2byte	0x1
 7011 06ee 55       		.byte	0x55
 7012 06ef 00000000 		.4byte	0
 7013 06f3 00000000 		.4byte	0
 7014              	.LLST42:
 7015 06f7 36000000 		.4byte	.LVL216
 7016 06fb 78000000 		.4byte	.LVL227
 7017 06ff 0100     		.2byte	0x1
 7018 0701 55       		.byte	0x55
 7019 0702 78000000 		.4byte	.LVL227
 7020 0706 C0000000 		.4byte	.LVL242
 7021 070a 0300     		.2byte	0x3
 7022 070c 75       		.byte	0x75
 7023 070d 04       		.sleb128 4
 7024 070e 9F       		.byte	0x9f
 7025 070f C0000000 		.4byte	.LVL242
 7026 0713 C7000000 		.4byte	.LVL243-1
 7027 0717 0100     		.2byte	0x1
 7028 0719 53       		.byte	0x53
 7029 071a C7000000 		.4byte	.LVL243-1
 7030 071e 22010000 		.4byte	.LVL255
 7031 0722 0200     		.2byte	0x2
 7032 0724 7D       		.byte	0x7d
 7033 0725 00       		.sleb128 0
 7034 0726 22010000 		.4byte	.LVL255
 7035 072a 46010000 		.4byte	.LVL263
 7036 072e 0100     		.2byte	0x1
 7037 0730 55       		.byte	0x55
 7038 0731 46010000 		.4byte	.LVL263
 7039 0735 B2010000 		.4byte	.LVL281
 7040 0739 0300     		.2byte	0x3
 7041 073b 75       		.byte	0x75
 7042 073c 04       		.sleb128 4
 7043 073d 9F       		.byte	0x9f
 7044 073e B2010000 		.4byte	.LVL281
 7045 0742 B6010000 		.4byte	.LVL282
 7046 0746 0100     		.2byte	0x1
 7047 0748 50       		.byte	0x50
 7048 0749 B6010000 		.4byte	.LVL282
 7049 074d B9010000 		.4byte	.LVL283-1
 7050 0751 0100     		.2byte	0x1
 7051 0753 5C       		.byte	0x5c
ARM GAS  C:\Users\rdn\AppData\Local\Temp\ccCJgMYD.s 			page 136


 7052 0754 B9010000 		.4byte	.LVL283-1
 7053 0758 4A020000 		.4byte	.LVL303
 7054 075c 0200     		.2byte	0x2
 7055 075e 91       		.byte	0x91
 7056 075f 44       		.sleb128 -60
 7057 0760 4A020000 		.4byte	.LVL303
 7058 0764 54020000 		.4byte	.LVL306
 7059 0768 0100     		.2byte	0x1
 7060 076a 55       		.byte	0x55
 7061 076b 00000000 		.4byte	0
 7062 076f 00000000 		.4byte	0
 7063              	.LLST43:
 7064 0773 40000000 		.4byte	.LVL217
 7065 0777 78000000 		.4byte	.LVL227
 7066 077b 0100     		.2byte	0x1
 7067 077d 51       		.byte	0x51
 7068 077e 78000000 		.4byte	.LVL227
 7069 0782 86000000 		.4byte	.LVL231
 7070 0786 0100     		.2byte	0x1
 7071 0788 59       		.byte	0x59
 7072 0789 86000000 		.4byte	.LVL231
 7073 078d 8A000000 		.4byte	.LVL233
 7074 0791 0300     		.2byte	0x3
 7075 0793 79       		.byte	0x79
 7076 0794 7C       		.sleb128 -4
 7077 0795 9F       		.byte	0x9f
 7078 0796 8A000000 		.4byte	.LVL233
 7079 079a 8F000000 		.4byte	.LVL234-1
 7080 079e 0100     		.2byte	0x1
 7081 07a0 53       		.byte	0x53
 7082 07a1 8F000000 		.4byte	.LVL234-1
 7083 07a5 D2000000 		.4byte	.LVL245
 7084 07a9 0300     		.2byte	0x3
 7085 07ab 79       		.byte	0x79
 7086 07ac 7C       		.sleb128 -4
 7087 07ad 9F       		.byte	0x9f
 7088 07ae D2000000 		.4byte	.LVL245
 7089 07b2 D9000000 		.4byte	.LVL246-1
 7090 07b6 0100     		.2byte	0x1
 7091 07b8 53       		.byte	0x53
 7092 07b9 D9000000 		.4byte	.LVL246-1
 7093 07bd 22010000 		.4byte	.LVL255
 7094 07c1 0100     		.2byte	0x1
 7095 07c3 55       		.byte	0x55
 7096 07c4 22010000 		.4byte	.LVL255
 7097 07c8 46010000 		.4byte	.LVL263
 7098 07cc 0100     		.2byte	0x1
 7099 07ce 59       		.byte	0x59
 7100 07cf 46010000 		.4byte	.LVL263
 7101 07d3 58010000 		.4byte	.LVL266
 7102 07d7 0300     		.2byte	0x3
 7103 07d9 91       		.byte	0x91
 7104 07da BC7F     		.sleb128 -68
 7105 07dc 58010000 		.4byte	.LVL266
 7106 07e0 5C010000 		.4byte	.LVL267
 7107 07e4 0700     		.2byte	0x7
 7108 07e6 91       		.byte	0x91
ARM GAS  C:\Users\rdn\AppData\Local\Temp\ccCJgMYD.s 			page 137


 7109 07e7 BC7F     		.sleb128 -68
 7110 07e9 06       		.byte	0x6
 7111 07ea 34       		.byte	0x34
 7112 07eb 1C       		.byte	0x1c
 7113 07ec 9F       		.byte	0x9f
 7114 07ed 5C010000 		.4byte	.LVL267
 7115 07f1 65010000 		.4byte	.LVL268-1
 7116 07f5 0100     		.2byte	0x1
 7117 07f7 53       		.byte	0x53
 7118 07f8 65010000 		.4byte	.LVL268-1
 7119 07fc CA010000 		.4byte	.LVL285
 7120 0800 0700     		.2byte	0x7
 7121 0802 91       		.byte	0x91
 7122 0803 BC7F     		.sleb128 -68
 7123 0805 06       		.byte	0x6
 7124 0806 34       		.byte	0x34
 7125 0807 1C       		.byte	0x1c
 7126 0808 9F       		.byte	0x9f
 7127 0809 CA010000 		.4byte	.LVL285
 7128 080d 4A020000 		.4byte	.LVL303
 7129 0811 0100     		.2byte	0x1
 7130 0813 59       		.byte	0x59
 7131 0814 4A020000 		.4byte	.LVL303
 7132 0818 6C020000 		.4byte	.LFE24
 7133 081c 0300     		.2byte	0x3
 7134 081e 91       		.byte	0x91
 7135 081f BC7F     		.sleb128 -68
 7136 0821 00000000 		.4byte	0
 7137 0825 00000000 		.4byte	0
 7138              	.LLST44:
 7139 0829 40000000 		.4byte	.LVL217
 7140 082d 78000000 		.4byte	.LVL227
 7141 0831 0100     		.2byte	0x1
 7142 0833 51       		.byte	0x51
 7143 0834 78000000 		.4byte	.LVL227
 7144 0838 A4000000 		.4byte	.LVL239
 7145 083c 0100     		.2byte	0x1
 7146 083e 57       		.byte	0x57
 7147 083f A4000000 		.4byte	.LVL239
 7148 0843 08010000 		.4byte	.LVL252
 7149 0847 0300     		.2byte	0x3
 7150 0849 77       		.byte	0x77
 7151 084a 04       		.sleb128 4
 7152 084b 9F       		.byte	0x9f
 7153 084c 08010000 		.4byte	.LVL252
 7154 0850 20010000 		.4byte	.LVL254
 7155 0854 0100     		.2byte	0x1
 7156 0856 59       		.byte	0x59
 7157 0857 20010000 		.4byte	.LVL254
 7158 085b 78010000 		.4byte	.LVL272
 7159 085f 0100     		.2byte	0x1
 7160 0861 57       		.byte	0x57
 7161 0862 78010000 		.4byte	.LVL272
 7162 0866 0A020000 		.4byte	.LVL292
 7163 086a 0300     		.2byte	0x3
 7164 086c 77       		.byte	0x77
 7165 086d 04       		.sleb128 4
ARM GAS  C:\Users\rdn\AppData\Local\Temp\ccCJgMYD.s 			page 138


 7166 086e 9F       		.byte	0x9f
 7167 086f 0A020000 		.4byte	.LVL292
 7168 0873 12020000 		.4byte	.LVL295
 7169 0877 0100     		.2byte	0x1
 7170 0879 54       		.byte	0x54
 7171 087a 12020000 		.4byte	.LVL295
 7172 087e 4A020000 		.4byte	.LVL303
 7173 0882 0200     		.2byte	0x2
 7174 0884 91       		.byte	0x91
 7175 0885 50       		.sleb128 -48
 7176 0886 4A020000 		.4byte	.LVL303
 7177 088a 54020000 		.4byte	.LVL308
 7178 088e 0100     		.2byte	0x1
 7179 0890 57       		.byte	0x57
 7180 0891 00000000 		.4byte	0
 7181 0895 00000000 		.4byte	0
 7182              	.LLST45:
 7183 0899 48000000 		.4byte	.LVL219
 7184 089d 78000000 		.4byte	.LVL227
 7185 08a1 0100     		.2byte	0x1
 7186 08a3 50       		.byte	0x50
 7187 08a4 78000000 		.4byte	.LVL227
 7188 08a8 8A010000 		.4byte	.LVL276
 7189 08ac 0200     		.2byte	0x2
 7190 08ae 91       		.byte	0x91
 7191 08af 40       		.sleb128 -64
 7192 08b0 8A010000 		.4byte	.LVL276
 7193 08b4 8E010000 		.4byte	.LVL277
 7194 08b8 0600     		.2byte	0x6
 7195 08ba 91       		.byte	0x91
 7196 08bb 40       		.sleb128 -64
 7197 08bc 06       		.byte	0x6
 7198 08bd 34       		.byte	0x34
 7199 08be 1C       		.byte	0x1c
 7200 08bf 9F       		.byte	0x9f
 7201 08c0 8E010000 		.4byte	.LVL277
 7202 08c4 93010000 		.4byte	.LVL278-1
 7203 08c8 0100     		.2byte	0x1
 7204 08ca 53       		.byte	0x53
 7205 08cb 93010000 		.4byte	.LVL278-1
 7206 08cf 24020000 		.4byte	.LVL298
 7207 08d3 0600     		.2byte	0x6
 7208 08d5 91       		.byte	0x91
 7209 08d6 40       		.sleb128 -64
 7210 08d7 06       		.byte	0x6
 7211 08d8 34       		.byte	0x34
 7212 08d9 1C       		.byte	0x1c
 7213 08da 9F       		.byte	0x9f
 7214 08db 24020000 		.4byte	.LVL298
 7215 08df 29020000 		.4byte	.LVL299-1
 7216 08e3 0100     		.2byte	0x1
 7217 08e5 52       		.byte	0x52
 7218 08e6 29020000 		.4byte	.LVL299-1
 7219 08ea 4A020000 		.4byte	.LVL303
 7220 08ee 0100     		.2byte	0x1
 7221 08f0 55       		.byte	0x55
 7222 08f1 4A020000 		.4byte	.LVL303
ARM GAS  C:\Users\rdn\AppData\Local\Temp\ccCJgMYD.s 			page 139


 7223 08f5 6C020000 		.4byte	.LFE24
 7224 08f9 0200     		.2byte	0x2
 7225 08fb 91       		.byte	0x91
 7226 08fc 40       		.sleb128 -64
 7227 08fd 00000000 		.4byte	0
 7228 0901 00000000 		.4byte	0
 7229              	.LLST46:
 7230 0905 50000000 		.4byte	.LVL220
 7231 0909 5C000000 		.4byte	.LVL221
 7232 090d 0100     		.2byte	0x1
 7233 090f 52       		.byte	0x52
 7234 0910 5C000000 		.4byte	.LVL221
 7235 0914 9E000000 		.4byte	.LVL237
 7236 0918 0100     		.2byte	0x1
 7237 091a 58       		.byte	0x58
 7238 091b 9E000000 		.4byte	.LVL237
 7239 091f FC000000 		.4byte	.LVL251
 7240 0923 0300     		.2byte	0x3
 7241 0925 78       		.byte	0x78
 7242 0926 04       		.sleb128 4
 7243 0927 9F       		.byte	0x9f
 7244 0928 FC000000 		.4byte	.LVL251
 7245 092c 0D010000 		.4byte	.LVL253-1
 7246 0930 0100     		.2byte	0x1
 7247 0932 52       		.byte	0x52
 7248 0933 0D010000 		.4byte	.LVL253-1
 7249 0937 22010000 		.4byte	.LVL255
 7250 093b 0200     		.2byte	0x2
 7251 093d 91       		.byte	0x91
 7252 093e 48       		.sleb128 -56
 7253 093f 22010000 		.4byte	.LVL255
 7254 0943 40010000 		.4byte	.LVL261
 7255 0947 0100     		.2byte	0x1
 7256 0949 58       		.byte	0x58
 7257 094a 40010000 		.4byte	.LVL261
 7258 094e 74010000 		.4byte	.LVL271
 7259 0952 0100     		.2byte	0x1
 7260 0954 56       		.byte	0x56
 7261 0955 74010000 		.4byte	.LVL271
 7262 0959 FC010000 		.4byte	.LVL290
 7263 095d 0300     		.2byte	0x3
 7264 095f 76       		.byte	0x76
 7265 0960 04       		.sleb128 4
 7266 0961 9F       		.byte	0x9f
 7267 0962 FC010000 		.4byte	.LVL290
 7268 0966 24020000 		.4byte	.LVL298
 7269 096a 0100     		.2byte	0x1
 7270 096c 55       		.byte	0x55
 7271 096d 24020000 		.4byte	.LVL298
 7272 0971 4A020000 		.4byte	.LVL303
 7273 0975 0200     		.2byte	0x2
 7274 0977 91       		.byte	0x91
 7275 0978 4C       		.sleb128 -52
 7276 0979 4A020000 		.4byte	.LVL303
 7277 097d 54020000 		.4byte	.LVL307
 7278 0981 0100     		.2byte	0x1
 7279 0983 56       		.byte	0x56
ARM GAS  C:\Users\rdn\AppData\Local\Temp\ccCJgMYD.s 			page 140


 7280 0984 00000000 		.4byte	0
 7281 0988 00000000 		.4byte	0
 7282              	.LLST47:
 7283 098c 50000000 		.4byte	.LVL220
 7284 0990 5C000000 		.4byte	.LVL221
 7285 0994 0100     		.2byte	0x1
 7286 0996 52       		.byte	0x52
 7287 0997 5C000000 		.4byte	.LVL221
 7288 099b 78000000 		.4byte	.LVL227
 7289 099f 0100     		.2byte	0x1
 7290 09a1 58       		.byte	0x58
 7291 09a2 78000000 		.4byte	.LVL227
 7292 09a6 82000000 		.4byte	.LVL229
 7293 09aa 0100     		.2byte	0x1
 7294 09ac 54       		.byte	0x54
 7295 09ad 82000000 		.4byte	.LVL229
 7296 09b1 84000000 		.4byte	.LVL230
 7297 09b5 0300     		.2byte	0x3
 7298 09b7 74       		.byte	0x74
 7299 09b8 7C       		.sleb128 -4
 7300 09b9 9F       		.byte	0x9f
 7301 09ba 84000000 		.4byte	.LVL230
 7302 09be 88000000 		.4byte	.LVL232
 7303 09c2 0100     		.2byte	0x1
 7304 09c4 53       		.byte	0x53
 7305 09c5 88000000 		.4byte	.LVL232
 7306 09c9 CC000000 		.4byte	.LVL244
 7307 09cd 0300     		.2byte	0x3
 7308 09cf 74       		.byte	0x74
 7309 09d0 7C       		.sleb128 -4
 7310 09d1 9F       		.byte	0x9f
 7311 09d2 CC000000 		.4byte	.LVL244
 7312 09d6 3A010000 		.4byte	.LVL258
 7313 09da 0100     		.2byte	0x1
 7314 09dc 54       		.byte	0x54
 7315 09dd 3A010000 		.4byte	.LVL258
 7316 09e1 3E010000 		.4byte	.LVL260
 7317 09e5 0100     		.2byte	0x1
 7318 09e7 52       		.byte	0x52
 7319 09e8 3E010000 		.4byte	.LVL260
 7320 09ec 46010000 		.4byte	.LVL263
 7321 09f0 0100     		.2byte	0x1
 7322 09f2 5C       		.byte	0x5c
 7323 09f3 46010000 		.4byte	.LVL263
 7324 09f7 4D010000 		.4byte	.LVL264-1
 7325 09fb 0100     		.2byte	0x1
 7326 09fd 53       		.byte	0x53
 7327 09fe 4D010000 		.4byte	.LVL264-1
 7328 0a02 80010000 		.4byte	.LVL274
 7329 0a06 0200     		.2byte	0x2
 7330 0a08 7D       		.byte	0x7d
 7331 0a09 00       		.sleb128 0
 7332 0a0a 80010000 		.4byte	.LVL274
 7333 0a0e 84010000 		.4byte	.LVL275
 7334 0a12 0600     		.2byte	0x6
 7335 0a14 7D       		.byte	0x7d
 7336 0a15 00       		.sleb128 0
ARM GAS  C:\Users\rdn\AppData\Local\Temp\ccCJgMYD.s 			page 141


 7337 0a16 06       		.byte	0x6
 7338 0a17 34       		.byte	0x34
 7339 0a18 1C       		.byte	0x1c
 7340 0a19 9F       		.byte	0x9f
 7341 0a1a 84010000 		.4byte	.LVL275
 7342 0a1e 8E010000 		.4byte	.LVL277
 7343 0a22 0100     		.2byte	0x1
 7344 0a24 53       		.byte	0x53
 7345 0a25 8E010000 		.4byte	.LVL277
 7346 0a29 18020000 		.4byte	.LVL296
 7347 0a2d 0600     		.2byte	0x6
 7348 0a2f 7D       		.byte	0x7d
 7349 0a30 00       		.sleb128 0
 7350 0a31 06       		.byte	0x6
 7351 0a32 34       		.byte	0x34
 7352 0a33 1C       		.byte	0x1c
 7353 0a34 9F       		.byte	0x9f
 7354 0a35 18020000 		.4byte	.LVL296
 7355 0a39 1C020000 		.4byte	.LVL297
 7356 0a3d 0100     		.2byte	0x1
 7357 0a3f 53       		.byte	0x53
 7358 0a40 1C020000 		.4byte	.LVL297
 7359 0a44 40020000 		.4byte	.LVL301
 7360 0a48 0100     		.2byte	0x1
 7361 0a4a 56       		.byte	0x56
 7362 0a4b 40020000 		.4byte	.LVL301
 7363 0a4f 54020000 		.4byte	.LVL304
 7364 0a53 0200     		.2byte	0x2
 7365 0a55 7D       		.byte	0x7d
 7366 0a56 00       		.sleb128 0
 7367 0a57 54020000 		.4byte	.LVL304
 7368 0a5b 6C020000 		.4byte	.LFE24
 7369 0a5f 0100     		.2byte	0x1
 7370 0a61 53       		.byte	0x53
 7371 0a62 00000000 		.4byte	0
 7372 0a66 00000000 		.4byte	0
 7373              	.LLST48:
 7374 0a6a 60000000 		.4byte	.LVL222
 7375 0a6e 78000000 		.4byte	.LVL227
 7376 0a72 0100     		.2byte	0x1
 7377 0a74 53       		.byte	0x53
 7378 0a75 78000000 		.4byte	.LVL227
 7379 0a79 9C000000 		.4byte	.LVL236
 7380 0a7d 0300     		.2byte	0x3
 7381 0a7f 7B       		.byte	0x7b
 7382 0a80 7C       		.sleb128 -4
 7383 0a81 9F       		.byte	0x9f
 7384 0a82 9C000000 		.4byte	.LVL236
 7385 0a86 A0000000 		.4byte	.LVL238
 7386 0a8a 0100     		.2byte	0x1
 7387 0a8c 53       		.byte	0x53
 7388 0a8d A0000000 		.4byte	.LVL238
 7389 0a91 B6000000 		.4byte	.LVL241
 7390 0a95 0300     		.2byte	0x3
 7391 0a97 7B       		.byte	0x7b
 7392 0a98 7C       		.sleb128 -4
 7393 0a99 9F       		.byte	0x9f
ARM GAS  C:\Users\rdn\AppData\Local\Temp\ccCJgMYD.s 			page 142


 7394 0a9a B6000000 		.4byte	.LVL241
 7395 0a9e 30010000 		.4byte	.LVL257
 7396 0aa2 0100     		.2byte	0x1
 7397 0aa4 5B       		.byte	0x5b
 7398 0aa5 30010000 		.4byte	.LVL257
 7399 0aa9 46010000 		.4byte	.LVL263
 7400 0aad 0100     		.2byte	0x1
 7401 0aaf 53       		.byte	0x53
 7402 0ab0 46010000 		.4byte	.LVL263
 7403 0ab4 72010000 		.4byte	.LVL270
 7404 0ab8 0300     		.2byte	0x3
 7405 0aba 7B       		.byte	0x7b
 7406 0abb 7C       		.sleb128 -4
 7407 0abc 9F       		.byte	0x9f
 7408 0abd 72010000 		.4byte	.LVL270
 7409 0ac1 7D010000 		.4byte	.LVL273-1
 7410 0ac5 0100     		.2byte	0x1
 7411 0ac7 53       		.byte	0x53
 7412 0ac8 7D010000 		.4byte	.LVL273-1
 7413 0acc A8010000 		.4byte	.LVL280
 7414 0ad0 0300     		.2byte	0x3
 7415 0ad2 7B       		.byte	0x7b
 7416 0ad3 7C       		.sleb128 -4
 7417 0ad4 9F       		.byte	0x9f
 7418 0ad5 A8010000 		.4byte	.LVL280
 7419 0ad9 54020000 		.4byte	.LVL311
 7420 0add 0100     		.2byte	0x1
 7421 0adf 5B       		.byte	0x5b
 7422 0ae0 00000000 		.4byte	0
 7423 0ae4 00000000 		.4byte	0
 7424              	.LLST49:
 7425 0ae8 60000000 		.4byte	.LVL222
 7426 0aec 78000000 		.4byte	.LVL227
 7427 0af0 0100     		.2byte	0x1
 7428 0af2 53       		.byte	0x53
 7429 0af3 78000000 		.4byte	.LVL227
 7430 0af7 9E000000 		.4byte	.LVL237
 7431 0afb 0100     		.2byte	0x1
 7432 0afd 5A       		.byte	0x5a
 7433 0afe 9E000000 		.4byte	.LVL237
 7434 0b02 EC000000 		.4byte	.LVL248
 7435 0b06 0300     		.2byte	0x3
 7436 0b08 7A       		.byte	0x7a
 7437 0b09 04       		.sleb128 4
 7438 0b0a 9F       		.byte	0x9f
 7439 0b0b EC000000 		.4byte	.LVL248
 7440 0b0f 0D010000 		.4byte	.LVL253-1
 7441 0b13 0100     		.2byte	0x1
 7442 0b15 53       		.byte	0x53
 7443 0b16 0D010000 		.4byte	.LVL253-1
 7444 0b1a 22010000 		.4byte	.LVL255
 7445 0b1e 0300     		.2byte	0x3
 7446 0b20 91       		.byte	0x91
 7447 0b21 BC7F     		.sleb128 -68
 7448 0b23 22010000 		.4byte	.LVL255
 7449 0b27 24010000 		.4byte	.LVL256
 7450 0b2b 0100     		.2byte	0x1
ARM GAS  C:\Users\rdn\AppData\Local\Temp\ccCJgMYD.s 			page 143


 7451 0b2d 53       		.byte	0x53
 7452 0b2e 24010000 		.4byte	.LVL256
 7453 0b32 74010000 		.4byte	.LVL271
 7454 0b36 0100     		.2byte	0x1
 7455 0b38 5A       		.byte	0x5a
 7456 0b39 74010000 		.4byte	.LVL271
 7457 0b3d E8010000 		.4byte	.LVL288
 7458 0b41 0300     		.2byte	0x3
 7459 0b43 7A       		.byte	0x7a
 7460 0b44 04       		.sleb128 4
 7461 0b45 9F       		.byte	0x9f
 7462 0b46 E8010000 		.4byte	.LVL288
 7463 0b4a 0C020000 		.4byte	.LVL293
 7464 0b4e 0100     		.2byte	0x1
 7465 0b50 51       		.byte	0x51
 7466 0b51 0C020000 		.4byte	.LVL293
 7467 0b55 48020000 		.4byte	.LVL302
 7468 0b59 0300     		.2byte	0x3
 7469 0b5b 91       		.byte	0x91
 7470 0b5c BC7F     		.sleb128 -68
 7471 0b5e 48020000 		.4byte	.LVL302
 7472 0b62 4A020000 		.4byte	.LVL303
 7473 0b66 0100     		.2byte	0x1
 7474 0b68 51       		.byte	0x51
 7475 0b69 4A020000 		.4byte	.LVL303
 7476 0b6d 54020000 		.4byte	.LVL310
 7477 0b71 0100     		.2byte	0x1
 7478 0b73 5A       		.byte	0x5a
 7479 0b74 00000000 		.4byte	0
 7480 0b78 00000000 		.4byte	0
 7481              	.LLST50:
 7482 0b7c 60000000 		.4byte	.LVL222
 7483 0b80 76000000 		.4byte	.LVL226
 7484 0b84 0100     		.2byte	0x1
 7485 0b86 5B       		.byte	0x5b
 7486 0b87 76000000 		.4byte	.LVL226
 7487 0b8b 9E000000 		.4byte	.LVL237
 7488 0b8f 0100     		.2byte	0x1
 7489 0b91 56       		.byte	0x56
 7490 0b92 9E000000 		.4byte	.LVL237
 7491 0b96 F6000000 		.4byte	.LVL249
 7492 0b9a 0300     		.2byte	0x3
 7493 0b9c 76       		.byte	0x76
 7494 0b9d 04       		.sleb128 4
 7495 0b9e 9F       		.byte	0x9f
 7496 0b9f F6000000 		.4byte	.LVL249
 7497 0ba3 F8000000 		.4byte	.LVL250
 7498 0ba7 0100     		.2byte	0x1
 7499 0ba9 52       		.byte	0x52
 7500 0baa F8000000 		.4byte	.LVL250
 7501 0bae 0D010000 		.4byte	.LVL253-1
 7502 0bb2 0100     		.2byte	0x1
 7503 0bb4 5C       		.byte	0x5c
 7504 0bb5 0D010000 		.4byte	.LVL253-1
 7505 0bb9 22010000 		.4byte	.LVL255
 7506 0bbd 0200     		.2byte	0x2
 7507 0bbf 91       		.byte	0x91
ARM GAS  C:\Users\rdn\AppData\Local\Temp\ccCJgMYD.s 			page 144


 7508 0bc0 44       		.sleb128 -60
 7509 0bc1 22010000 		.4byte	.LVL255
 7510 0bc5 3C010000 		.4byte	.LVL259
 7511 0bc9 0100     		.2byte	0x1
 7512 0bcb 56       		.byte	0x56
 7513 0bcc 3C010000 		.4byte	.LVL259
 7514 0bd0 44010000 		.4byte	.LVL262
 7515 0bd4 0100     		.2byte	0x1
 7516 0bd6 5B       		.byte	0x5b
 7517 0bd7 44010000 		.4byte	.LVL262
 7518 0bdb 74010000 		.4byte	.LVL271
 7519 0bdf 0100     		.2byte	0x1
 7520 0be1 54       		.byte	0x54
 7521 0be2 74010000 		.4byte	.LVL271
 7522 0be6 F2010000 		.4byte	.LVL289
 7523 0bea 0300     		.2byte	0x3
 7524 0bec 74       		.byte	0x74
 7525 0bed 04       		.sleb128 4
 7526 0bee 9F       		.byte	0x9f
 7527 0bef F2010000 		.4byte	.LVL289
 7528 0bf3 FE010000 		.4byte	.LVL291
 7529 0bf7 0100     		.2byte	0x1
 7530 0bf9 50       		.byte	0x50
 7531 0bfa FE010000 		.4byte	.LVL291
 7532 0bfe 4A020000 		.4byte	.LVL303
 7533 0c02 0200     		.2byte	0x2
 7534 0c04 91       		.byte	0x91
 7535 0c05 48       		.sleb128 -56
 7536 0c06 4A020000 		.4byte	.LVL303
 7537 0c0a 54020000 		.4byte	.LVL305
 7538 0c0e 0100     		.2byte	0x1
 7539 0c10 54       		.byte	0x54
 7540 0c11 00000000 		.4byte	0
 7541 0c15 00000000 		.4byte	0
 7542              	.LLST51:
 7543 0c19 66000000 		.4byte	.LVL223
 7544 0c1d 6E000000 		.4byte	.LVL224
 7545 0c21 0100     		.2byte	0x1
 7546 0c23 52       		.byte	0x52
 7547 0c24 6E000000 		.4byte	.LVL224
 7548 0c28 46010000 		.4byte	.LVL263
 7549 0c2c 0200     		.2byte	0x2
 7550 0c2e 91       		.byte	0x91
 7551 0c2f 50       		.sleb128 -48
 7552 0c30 46010000 		.4byte	.LVL263
 7553 0c34 50010000 		.4byte	.LVL265
 7554 0c38 0100     		.2byte	0x1
 7555 0c3a 58       		.byte	0x58
 7556 0c3b 50010000 		.4byte	.LVL265
 7557 0c3f C4010000 		.4byte	.LVL284
 7558 0c43 0300     		.2byte	0x3
 7559 0c45 78       		.byte	0x78
 7560 0c46 7C       		.sleb128 -4
 7561 0c47 9F       		.byte	0x9f
 7562 0c48 C4010000 		.4byte	.LVL284
 7563 0c4c 54020000 		.4byte	.LVL309
 7564 0c50 0100     		.2byte	0x1
ARM GAS  C:\Users\rdn\AppData\Local\Temp\ccCJgMYD.s 			page 145


 7565 0c52 58       		.byte	0x58
 7566 0c53 00000000 		.4byte	0
 7567 0c57 00000000 		.4byte	0
 7568              	.LLST52:
 7569 0c5b 1E000000 		.4byte	.LVL213
 7570 0c5f 28000000 		.4byte	.LVL214
 7571 0c63 0100     		.2byte	0x1
 7572 0c65 51       		.byte	0x51
 7573 0c66 00000000 		.4byte	0
 7574 0c6a 00000000 		.4byte	0
 7575              	.LLST53:
 7576 0c6e 1E000000 		.4byte	.LVL213
 7577 0c72 28000000 		.4byte	.LVL214
 7578 0c76 0100     		.2byte	0x1
 7579 0c78 50       		.byte	0x50
 7580 0c79 00000000 		.4byte	0
 7581 0c7d 00000000 		.4byte	0
 7582              	.LLST54:
 7583 0c81 28000000 		.4byte	.LVL214
 7584 0c85 2E000000 		.4byte	.LVL215
 7585 0c89 0100     		.2byte	0x1
 7586 0c8b 51       		.byte	0x51
 7587 0c8c 00000000 		.4byte	0
 7588 0c90 00000000 		.4byte	0
 7589              	.LLST55:
 7590 0c94 28000000 		.4byte	.LVL214
 7591 0c98 36000000 		.4byte	.LVL216
 7592 0c9c 0100     		.2byte	0x1
 7593 0c9e 50       		.byte	0x50
 7594 0c9f 00000000 		.4byte	0
 7595 0ca3 00000000 		.4byte	0
 7596              	.LLST56:
 7597 0ca7 00000000 		.4byte	.LVL312
 7598 0cab 2A000000 		.4byte	.LVL321
 7599 0caf 0100     		.2byte	0x1
 7600 0cb1 50       		.byte	0x50
 7601 0cb2 2A000000 		.4byte	.LVL321
 7602 0cb6 28010000 		.4byte	.LFE25
 7603 0cba 0400     		.2byte	0x4
 7604 0cbc F3       		.byte	0xf3
 7605 0cbd 01       		.uleb128 0x1
 7606 0cbe 50       		.byte	0x50
 7607 0cbf 9F       		.byte	0x9f
 7608 0cc0 00000000 		.4byte	0
 7609 0cc4 00000000 		.4byte	0
 7610              	.LLST57:
 7611 0cc8 00000000 		.4byte	.LVL312
 7612 0ccc 2A000000 		.4byte	.LVL321
 7613 0cd0 0100     		.2byte	0x1
 7614 0cd2 51       		.byte	0x51
 7615 0cd3 2A000000 		.4byte	.LVL321
 7616 0cd7 28010000 		.4byte	.LFE25
 7617 0cdb 0400     		.2byte	0x4
 7618 0cdd F3       		.byte	0xf3
 7619 0cde 01       		.uleb128 0x1
 7620 0cdf 51       		.byte	0x51
 7621 0ce0 9F       		.byte	0x9f
ARM GAS  C:\Users\rdn\AppData\Local\Temp\ccCJgMYD.s 			page 146


 7622 0ce1 00000000 		.4byte	0
 7623 0ce5 00000000 		.4byte	0
 7624              	.LLST58:
 7625 0ce9 00000000 		.4byte	.LVL312
 7626 0ced 16000000 		.4byte	.LVL314
 7627 0cf1 0100     		.2byte	0x1
 7628 0cf3 52       		.byte	0x52
 7629 0cf4 16000000 		.4byte	.LVL314
 7630 0cf8 2A000000 		.4byte	.LVL321
 7631 0cfc 0100     		.2byte	0x1
 7632 0cfe 56       		.byte	0x56
 7633 0cff 2A000000 		.4byte	.LVL321
 7634 0d03 28010000 		.4byte	.LFE25
 7635 0d07 0400     		.2byte	0x4
 7636 0d09 F3       		.byte	0xf3
 7637 0d0a 01       		.uleb128 0x1
 7638 0d0b 52       		.byte	0x52
 7639 0d0c 9F       		.byte	0x9f
 7640 0d0d 00000000 		.4byte	0
 7641 0d11 00000000 		.4byte	0
 7642              	.LLST59:
 7643 0d15 12000000 		.4byte	.LVL313
 7644 0d19 2A000000 		.4byte	.LVL321
 7645 0d1d 0200     		.2byte	0x2
 7646 0d1f 70       		.byte	0x70
 7647 0d20 00       		.sleb128 0
 7648 0d21 00000000 		.4byte	0
 7649 0d25 00000000 		.4byte	0
 7650              	.LLST60:
 7651 0d29 12000000 		.4byte	.LVL313
 7652 0d2d 2A000000 		.4byte	.LVL321
 7653 0d31 0100     		.2byte	0x1
 7654 0d33 51       		.byte	0x51
 7655 0d34 2A000000 		.4byte	.LVL321
 7656 0d38 70000000 		.4byte	.LVL329
 7657 0d3c 0100     		.2byte	0x1
 7658 0d3e 5B       		.byte	0x5b
 7659 0d3f 70000000 		.4byte	.LVL329
 7660 0d43 DA000000 		.4byte	.LVL338
 7661 0d47 0300     		.2byte	0x3
 7662 0d49 7B       		.byte	0x7b
 7663 0d4a 04       		.sleb128 4
 7664 0d4b 9F       		.byte	0x9f
 7665 0d4c DA000000 		.4byte	.LVL338
 7666 0d50 1C010000 		.4byte	.LVL352
 7667 0d54 0100     		.2byte	0x1
 7668 0d56 5B       		.byte	0x5b
 7669 0d57 00000000 		.4byte	0
 7670 0d5b 00000000 		.4byte	0
 7671              	.LLST61:
 7672 0d5f 18000000 		.4byte	.LVL315
 7673 0d63 2A000000 		.4byte	.LVL321
 7674 0d67 0100     		.2byte	0x1
 7675 0d69 54       		.byte	0x54
 7676 0d6a 2A000000 		.4byte	.LVL321
 7677 0d6e 3C000000 		.4byte	.LVL323
 7678 0d72 0100     		.2byte	0x1
ARM GAS  C:\Users\rdn\AppData\Local\Temp\ccCJgMYD.s 			page 147


 7679 0d74 57       		.byte	0x57
 7680 0d75 3C000000 		.4byte	.LVL323
 7681 0d79 3E000000 		.4byte	.LVL324
 7682 0d7d 0300     		.2byte	0x3
 7683 0d7f 77       		.byte	0x77
 7684 0d80 7C       		.sleb128 -4
 7685 0d81 9F       		.byte	0x9f
 7686 0d82 3E000000 		.4byte	.LVL324
 7687 0d86 4F000000 		.4byte	.LVL326-1
 7688 0d8a 0100     		.2byte	0x1
 7689 0d8c 53       		.byte	0x53
 7690 0d8d 4F000000 		.4byte	.LVL326-1
 7691 0d91 A0000000 		.4byte	.LVL334
 7692 0d95 0300     		.2byte	0x3
 7693 0d97 77       		.byte	0x77
 7694 0d98 7C       		.sleb128 -4
 7695 0d99 9F       		.byte	0x9f
 7696 0d9a A0000000 		.4byte	.LVL334
 7697 0d9e 1C010000 		.4byte	.LVL348
 7698 0da2 0100     		.2byte	0x1
 7699 0da4 57       		.byte	0x57
 7700 0da5 00000000 		.4byte	0
 7701 0da9 00000000 		.4byte	0
 7702              	.LLST62:
 7703 0dad 1A000000 		.4byte	.LVL316
 7704 0db1 34000000 		.4byte	.LVL322
 7705 0db5 0100     		.2byte	0x1
 7706 0db7 53       		.byte	0x53
 7707 0db8 34000000 		.4byte	.LVL322
 7708 0dbc 48000000 		.4byte	.LVL325
 7709 0dc0 0100     		.2byte	0x1
 7710 0dc2 52       		.byte	0x52
 7711 0dc3 48000000 		.4byte	.LVL325
 7712 0dc7 4F000000 		.4byte	.LVL326-1
 7713 0dcb 0100     		.2byte	0x1
 7714 0dcd 5C       		.byte	0x5c
 7715 0dce 4F000000 		.4byte	.LVL326-1
 7716 0dd2 00010000 		.4byte	.LVL343
 7717 0dd6 0200     		.2byte	0x2
 7718 0dd8 7D       		.byte	0x7d
 7719 0dd9 00       		.sleb128 0
 7720 0dda 16010000 		.4byte	.LVL347
 7721 0dde 28010000 		.4byte	.LFE25
 7722 0de2 0100     		.2byte	0x1
 7723 0de4 53       		.byte	0x53
 7724 0de5 00000000 		.4byte	0
 7725 0de9 00000000 		.4byte	0
 7726              	.LLST63:
 7727 0ded 1C000000 		.4byte	.LVL317
 7728 0df1 24000000 		.4byte	.LVL319
 7729 0df5 0100     		.2byte	0x1
 7730 0df7 57       		.byte	0x57
 7731 0df8 24000000 		.4byte	.LVL319
 7732 0dfc 1C010000 		.4byte	.LVL349
 7733 0e00 0100     		.2byte	0x1
 7734 0e02 58       		.byte	0x58
 7735 0e03 00000000 		.4byte	0
ARM GAS  C:\Users\rdn\AppData\Local\Temp\ccCJgMYD.s 			page 148


 7736 0e07 00000000 		.4byte	0
 7737              	.LLST64:
 7738 0e0b 1C000000 		.4byte	.LVL317
 7739 0e0f 2A000000 		.4byte	.LVL321
 7740 0e13 0100     		.2byte	0x1
 7741 0e15 56       		.byte	0x56
 7742 0e16 2A000000 		.4byte	.LVL321
 7743 0e1a FA000000 		.4byte	.LVL342
 7744 0e1e 0100     		.2byte	0x1
 7745 0e20 5A       		.byte	0x5a
 7746 0e21 FA000000 		.4byte	.LVL342
 7747 0e25 00010000 		.4byte	.LVL343
 7748 0e29 0300     		.2byte	0x3
 7749 0e2b 7A       		.byte	0x7a
 7750 0e2c 08       		.sleb128 8
 7751 0e2d 9F       		.byte	0x9f
 7752 0e2e 00010000 		.4byte	.LVL343
 7753 0e32 02010000 		.4byte	.LVL344
 7754 0e36 0100     		.2byte	0x1
 7755 0e38 51       		.byte	0x51
 7756 0e39 02010000 		.4byte	.LVL344
 7757 0e3d 14010000 		.4byte	.LVL346
 7758 0e41 0300     		.2byte	0x3
 7759 0e43 7A       		.byte	0x7a
 7760 0e44 08       		.sleb128 8
 7761 0e45 9F       		.byte	0x9f
 7762 0e46 14010000 		.4byte	.LVL346
 7763 0e4a 1C010000 		.4byte	.LVL351
 7764 0e4e 0100     		.2byte	0x1
 7765 0e50 5A       		.byte	0x5a
 7766 0e51 00000000 		.4byte	0
 7767 0e55 00000000 		.4byte	0
 7768              	.LLST65:
 7769 0e59 20000000 		.4byte	.LVL318
 7770 0e5d 28000000 		.4byte	.LVL320
 7771 0e61 0100     		.2byte	0x1
 7772 0e63 5A       		.byte	0x5a
 7773 0e64 28000000 		.4byte	.LVL320
 7774 0e68 1C010000 		.4byte	.LVL350
 7775 0e6c 0100     		.2byte	0x1
 7776 0e6e 59       		.byte	0x59
 7777 0e6f 00000000 		.4byte	0
 7778 0e73 00000000 		.4byte	0
 7779              	.LLST66:
 7780 0e77 00000000 		.4byte	.LVL353
 7781 0e7b 16000000 		.4byte	.LVL356
 7782 0e7f 0100     		.2byte	0x1
 7783 0e81 50       		.byte	0x50
 7784 0e82 16000000 		.4byte	.LVL356
 7785 0e86 02010000 		.4byte	.LFE26
 7786 0e8a 0400     		.2byte	0x4
 7787 0e8c F3       		.byte	0xf3
 7788 0e8d 01       		.uleb128 0x1
 7789 0e8e 50       		.byte	0x50
 7790 0e8f 9F       		.byte	0x9f
 7791 0e90 00000000 		.4byte	0
 7792 0e94 00000000 		.4byte	0
ARM GAS  C:\Users\rdn\AppData\Local\Temp\ccCJgMYD.s 			page 149


 7793              	.LLST67:
 7794 0e98 00000000 		.4byte	.LVL353
 7795 0e9c 3C000000 		.4byte	.LVL366
 7796 0ea0 0100     		.2byte	0x1
 7797 0ea2 51       		.byte	0x51
 7798 0ea3 3C000000 		.4byte	.LVL366
 7799 0ea7 02010000 		.4byte	.LFE26
 7800 0eab 0400     		.2byte	0x4
 7801 0ead F3       		.byte	0xf3
 7802 0eae 01       		.uleb128 0x1
 7803 0eaf 51       		.byte	0x51
 7804 0eb0 9F       		.byte	0x9f
 7805 0eb1 00000000 		.4byte	0
 7806 0eb5 00000000 		.4byte	0
 7807              	.LLST68:
 7808 0eb9 00000000 		.4byte	.LVL353
 7809 0ebd 14000000 		.4byte	.LVL355
 7810 0ec1 0100     		.2byte	0x1
 7811 0ec3 52       		.byte	0x52
 7812 0ec4 14000000 		.4byte	.LVL355
 7813 0ec8 36000000 		.4byte	.LVL364
 7814 0ecc 0100     		.2byte	0x1
 7815 0ece 59       		.byte	0x59
 7816 0ecf 36000000 		.4byte	.LVL364
 7817 0ed3 F6000000 		.4byte	.LVL401
 7818 0ed7 0100     		.2byte	0x1
 7819 0ed9 5A       		.byte	0x5a
 7820 0eda F6000000 		.4byte	.LVL401
 7821 0ede 02010000 		.4byte	.LFE26
 7822 0ee2 0400     		.2byte	0x4
 7823 0ee4 F3       		.byte	0xf3
 7824 0ee5 01       		.uleb128 0x1
 7825 0ee6 52       		.byte	0x52
 7826 0ee7 9F       		.byte	0x9f
 7827 0ee8 00000000 		.4byte	0
 7828 0eec 00000000 		.4byte	0
 7829              	.LLST69:
 7830 0ef0 12000000 		.4byte	.LVL354
 7831 0ef4 2C000000 		.4byte	.LVL362
 7832 0ef8 0100     		.2byte	0x1
 7833 0efa 53       		.byte	0x53
 7834 0efb 2C000000 		.4byte	.LVL362
 7835 0eff 3C000000 		.4byte	.LVL366
 7836 0f03 0300     		.2byte	0x3
 7837 0f05 F3       		.byte	0xf3
 7838 0f06 01       		.uleb128 0x1
 7839 0f07 50       		.byte	0x50
 7840 0f08 00000000 		.4byte	0
 7841 0f0c 00000000 		.4byte	0
 7842              	.LLST70:
 7843 0f10 14000000 		.4byte	.LVL355
 7844 0f14 18000000 		.4byte	.LVL357
 7845 0f18 0100     		.2byte	0x1
 7846 0f1a 52       		.byte	0x52
 7847 0f1b 18000000 		.4byte	.LVL357
 7848 0f1f 2C000000 		.4byte	.LVL362
 7849 0f23 0500     		.2byte	0x5
ARM GAS  C:\Users\rdn\AppData\Local\Temp\ccCJgMYD.s 			page 150


 7850 0f25 73       		.byte	0x73
 7851 0f26 00       		.sleb128 0
 7852 0f27 31       		.byte	0x31
 7853 0f28 26       		.byte	0x26
 7854 0f29 9F       		.byte	0x9f
 7855 0f2a 2C000000 		.4byte	.LVL362
 7856 0f2e 3C000000 		.4byte	.LVL366
 7857 0f32 0700     		.2byte	0x7
 7858 0f34 F3       		.byte	0xf3
 7859 0f35 01       		.uleb128 0x1
 7860 0f36 50       		.byte	0x50
 7861 0f37 06       		.byte	0x6
 7862 0f38 31       		.byte	0x31
 7863 0f39 26       		.byte	0x26
 7864 0f3a 9F       		.byte	0x9f
 7865 0f3b 00000000 		.4byte	0
 7866 0f3f 00000000 		.4byte	0
 7867              	.LLST71:
 7868 0f43 1C000000 		.4byte	.LVL358
 7869 0f47 3A000000 		.4byte	.LVL365
 7870 0f4b 0100     		.2byte	0x1
 7871 0f4d 58       		.byte	0x58
 7872 0f4e 3A000000 		.4byte	.LVL365
 7873 0f52 F6000000 		.4byte	.LVL396
 7874 0f56 0100     		.2byte	0x1
 7875 0f58 55       		.byte	0x55
 7876 0f59 00000000 		.4byte	0
 7877 0f5d 00000000 		.4byte	0
 7878              	.LLST72:
 7879 0f61 22000000 		.4byte	.LVL359
 7880 0f65 3C000000 		.4byte	.LVL366
 7881 0f69 0100     		.2byte	0x1
 7882 0f6b 50       		.byte	0x50
 7883 0f6c 3C000000 		.4byte	.LVL366
 7884 0f70 F6000000 		.4byte	.LVL398
 7885 0f74 0100     		.2byte	0x1
 7886 0f76 57       		.byte	0x57
 7887 0f77 00000000 		.4byte	0
 7888 0f7b 00000000 		.4byte	0
 7889              	.LLST73:
 7890 0f7f 26000000 		.4byte	.LVL360
 7891 0f83 3C000000 		.4byte	.LVL366
 7892 0f87 0100     		.2byte	0x1
 7893 0f89 5B       		.byte	0x5b
 7894 0f8a 3C000000 		.4byte	.LVL366
 7895 0f8e F6000000 		.4byte	.LVL395
 7896 0f92 0100     		.2byte	0x1
 7897 0f94 54       		.byte	0x54
 7898 0f95 00000000 		.4byte	0
 7899 0f99 00000000 		.4byte	0
 7900              	.LLST74:
 7901 0f9d 2A000000 		.4byte	.LVL361
 7902 0fa1 F6000000 		.4byte	.LVL397
 7903 0fa5 0100     		.2byte	0x1
 7904 0fa7 56       		.byte	0x56
 7905 0fa8 00000000 		.4byte	0
 7906 0fac 00000000 		.4byte	0
ARM GAS  C:\Users\rdn\AppData\Local\Temp\ccCJgMYD.s 			page 151


 7907              	.LLST75:
 7908 0fb0 2E000000 		.4byte	.LVL363
 7909 0fb4 3C000000 		.4byte	.LVL366
 7910 0fb8 0100     		.2byte	0x1
 7911 0fba 53       		.byte	0x53
 7912 0fbb 3C000000 		.4byte	.LVL366
 7913 0fbf CA000000 		.4byte	.LVL384
 7914 0fc3 0100     		.2byte	0x1
 7915 0fc5 59       		.byte	0x59
 7916 0fc6 CA000000 		.4byte	.LVL384
 7917 0fca D0000000 		.4byte	.LVL385
 7918 0fce 0300     		.2byte	0x3
 7919 0fd0 79       		.byte	0x79
 7920 0fd1 04       		.sleb128 4
 7921 0fd2 9F       		.byte	0x9f
 7922 0fd3 D0000000 		.4byte	.LVL385
 7923 0fd7 F0000000 		.4byte	.LVL394
 7924 0fdb 0300     		.2byte	0x3
 7925 0fdd 79       		.byte	0x79
 7926 0fde 08       		.sleb128 8
 7927 0fdf 9F       		.byte	0x9f
 7928 0fe0 F0000000 		.4byte	.LVL394
 7929 0fe4 F6000000 		.4byte	.LVL400
 7930 0fe8 0100     		.2byte	0x1
 7931 0fea 59       		.byte	0x59
 7932 0feb 00000000 		.4byte	0
 7933 0fef 00000000 		.4byte	0
 7934              	.LLST76:
 7935 0ff3 2E000000 		.4byte	.LVL363
 7936 0ff7 3C000000 		.4byte	.LVL366
 7937 0ffb 0100     		.2byte	0x1
 7938 0ffd 53       		.byte	0x53
 7939 0ffe 3C000000 		.4byte	.LVL366
 7940 1002 D4000000 		.4byte	.LVL386
 7941 1006 0100     		.2byte	0x1
 7942 1008 58       		.byte	0x58
 7943 1009 D4000000 		.4byte	.LVL386
 7944 100d D8000000 		.4byte	.LVL387
 7945 1011 0300     		.2byte	0x3
 7946 1013 78       		.byte	0x78
 7947 1014 7C       		.sleb128 -4
 7948 1015 9F       		.byte	0x9f
 7949 1016 D8000000 		.4byte	.LVL387
 7950 101a EC000000 		.4byte	.LVL393
 7951 101e 0100     		.2byte	0x1
 7952 1020 53       		.byte	0x53
 7953 1021 EC000000 		.4byte	.LVL393
 7954 1025 F6000000 		.4byte	.LVL399
 7955 1029 0100     		.2byte	0x1
 7956 102b 58       		.byte	0x58
 7957 102c 00000000 		.4byte	0
 7958 1030 00000000 		.4byte	0
 7959              	.LLST77:
 7960 1034 68000000 		.4byte	.LVL370
 7961 1038 74000000 		.4byte	.LVL371
 7962 103c 0100     		.2byte	0x1
 7963 103e 50       		.byte	0x50
ARM GAS  C:\Users\rdn\AppData\Local\Temp\ccCJgMYD.s 			page 152


 7964 103f 74000000 		.4byte	.LVL371
 7965 1043 F0000000 		.4byte	.LVL394
 7966 1047 0200     		.2byte	0x2
 7967 1049 91       		.byte	0x91
 7968 104a 50       		.sleb128 -48
 7969 104b 00000000 		.4byte	0
 7970 104f 00000000 		.4byte	0
 7971              	.LLST78:
 7972 1053 94000000 		.4byte	.LVL375
 7973 1057 98000000 		.4byte	.LVL376
 7974 105b 0100     		.2byte	0x1
 7975 105d 50       		.byte	0x50
 7976 105e 98000000 		.4byte	.LVL376
 7977 1062 F0000000 		.4byte	.LVL394
 7978 1066 0200     		.2byte	0x2
 7979 1068 91       		.byte	0x91
 7980 1069 54       		.sleb128 -44
 7981 106a 00000000 		.4byte	0
 7982 106e 00000000 		.4byte	0
 7983              	.LLST79:
 7984 1072 B0000000 		.4byte	.LVL380
 7985 1076 B4000000 		.4byte	.LVL381
 7986 107a 0100     		.2byte	0x1
 7987 107c 50       		.byte	0x50
 7988 107d B4000000 		.4byte	.LVL381
 7989 1081 F0000000 		.4byte	.LVL394
 7990 1085 0100     		.2byte	0x1
 7991 1087 5B       		.byte	0x5b
 7992 1088 00000000 		.4byte	0
 7993 108c 00000000 		.4byte	0
 7994              	.LLST80:
 7995 1090 CA000000 		.4byte	.LVL384
 7996 1094 F0000000 		.4byte	.LVL394
 7997 1098 0100     		.2byte	0x1
 7998 109a 50       		.byte	0x50
 7999 109b 00000000 		.4byte	0
 8000 109f 00000000 		.4byte	0
 8001              	.LLST81:
 8002 10a3 00000000 		.4byte	.LVL402
 8003 10a7 1A000000 		.4byte	.LVL407
 8004 10ab 0100     		.2byte	0x1
 8005 10ad 50       		.byte	0x50
 8006 10ae 1A000000 		.4byte	.LVL407
 8007 10b2 28010000 		.4byte	.LFE27
 8008 10b6 0400     		.2byte	0x4
 8009 10b8 F3       		.byte	0xf3
 8010 10b9 01       		.uleb128 0x1
 8011 10ba 50       		.byte	0x50
 8012 10bb 9F       		.byte	0x9f
 8013 10bc 00000000 		.4byte	0
 8014 10c0 00000000 		.4byte	0
 8015              	.LLST82:
 8016 10c4 00000000 		.4byte	.LVL402
 8017 10c8 20000000 		.4byte	.LVL409
 8018 10cc 0100     		.2byte	0x1
 8019 10ce 51       		.byte	0x51
 8020 10cf 20000000 		.4byte	.LVL409
ARM GAS  C:\Users\rdn\AppData\Local\Temp\ccCJgMYD.s 			page 153


 8021 10d3 28010000 		.4byte	.LFE27
 8022 10d7 0400     		.2byte	0x4
 8023 10d9 F3       		.byte	0xf3
 8024 10da 01       		.uleb128 0x1
 8025 10db 51       		.byte	0x51
 8026 10dc 9F       		.byte	0x9f
 8027 10dd 00000000 		.4byte	0
 8028 10e1 00000000 		.4byte	0
 8029              	.LLST83:
 8030 10e5 00000000 		.4byte	.LVL402
 8031 10e9 14000000 		.4byte	.LVL404
 8032 10ed 0100     		.2byte	0x1
 8033 10ef 52       		.byte	0x52
 8034 10f0 14000000 		.4byte	.LVL404
 8035 10f4 20000000 		.4byte	.LVL409
 8036 10f8 0100     		.2byte	0x1
 8037 10fa 57       		.byte	0x57
 8038 10fb 20000000 		.4byte	.LVL409
 8039 10ff 28010000 		.4byte	.LFE27
 8040 1103 0400     		.2byte	0x4
 8041 1105 F3       		.byte	0xf3
 8042 1106 01       		.uleb128 0x1
 8043 1107 52       		.byte	0x52
 8044 1108 9F       		.byte	0x9f
 8045 1109 00000000 		.4byte	0
 8046 110d 00000000 		.4byte	0
 8047              	.LLST84:
 8048 1111 10000000 		.4byte	.LVL403
 8049 1115 1A000000 		.4byte	.LVL407
 8050 1119 0200     		.2byte	0x2
 8051 111b 70       		.byte	0x70
 8052 111c 00       		.sleb128 0
 8053 111d 1A000000 		.4byte	.LVL407
 8054 1121 20000000 		.4byte	.LVL409
 8055 1125 0300     		.2byte	0x3
 8056 1127 F3       		.byte	0xf3
 8057 1128 01       		.uleb128 0x1
 8058 1129 50       		.byte	0x50
 8059 112a 00000000 		.4byte	0
 8060 112e 00000000 		.4byte	0
 8061              	.LLST85:
 8062 1132 10000000 		.4byte	.LVL403
 8063 1136 20000000 		.4byte	.LVL409
 8064 113a 0100     		.2byte	0x1
 8065 113c 51       		.byte	0x51
 8066 113d 20000000 		.4byte	.LVL409
 8067 1141 34000000 		.4byte	.LVL414
 8068 1145 0300     		.2byte	0x3
 8069 1147 71       		.byte	0x71
 8070 1148 04       		.sleb128 4
 8071 1149 9F       		.byte	0x9f
 8072 114a 34000000 		.4byte	.LVL414
 8073 114e 5A000000 		.4byte	.LVL423
 8074 1152 0100     		.2byte	0x1
 8075 1154 50       		.byte	0x50
 8076 1155 5A000000 		.4byte	.LVL423
 8077 1159 16010000 		.4byte	.LVL441
ARM GAS  C:\Users\rdn\AppData\Local\Temp\ccCJgMYD.s 			page 154


 8078 115d 0300     		.2byte	0x3
 8079 115f 91       		.byte	0x91
 8080 1160 B07F     		.sleb128 -80
 8081 1162 16010000 		.4byte	.LVL441
 8082 1166 28010000 		.4byte	.LFE27
 8083 116a 0100     		.2byte	0x1
 8084 116c 51       		.byte	0x51
 8085 116d 00000000 		.4byte	0
 8086 1171 00000000 		.4byte	0
 8087              	.LLST86:
 8088 1175 16000000 		.4byte	.LVL405
 8089 1179 24000000 		.4byte	.LVL410
 8090 117d 0100     		.2byte	0x1
 8091 117f 54       		.byte	0x54
 8092 1180 24000000 		.4byte	.LVL410
 8093 1184 26000000 		.4byte	.LVL411
 8094 1188 0300     		.2byte	0x3
 8095 118a 74       		.byte	0x74
 8096 118b 7C       		.sleb128 -4
 8097 118c 9F       		.byte	0x9f
 8098 118d 26000000 		.4byte	.LVL411
 8099 1191 28000000 		.4byte	.LVL412
 8100 1195 0100     		.2byte	0x1
 8101 1197 52       		.byte	0x52
 8102 1198 28000000 		.4byte	.LVL412
 8103 119c 40000000 		.4byte	.LVL417
 8104 11a0 0300     		.2byte	0x3
 8105 11a2 74       		.byte	0x74
 8106 11a3 7C       		.sleb128 -4
 8107 11a4 9F       		.byte	0x9f
 8108 11a5 40000000 		.4byte	.LVL417
 8109 11a9 16010000 		.4byte	.LVL441
 8110 11ad 0100     		.2byte	0x1
 8111 11af 58       		.byte	0x58
 8112 11b0 16010000 		.4byte	.LVL441
 8113 11b4 1C010000 		.4byte	.LVL442
 8114 11b8 0100     		.2byte	0x1
 8115 11ba 54       		.byte	0x54
 8116 11bb 00000000 		.4byte	0
 8117 11bf 00000000 		.4byte	0
 8118              	.LLST87:
 8119 11c3 18000000 		.4byte	.LVL406
 8120 11c7 50000000 		.4byte	.LVL421
 8121 11cb 0100     		.2byte	0x1
 8122 11cd 53       		.byte	0x53
 8123 11ce 50000000 		.4byte	.LVL421
 8124 11d2 5A000000 		.4byte	.LVL423
 8125 11d6 0100     		.2byte	0x1
 8126 11d8 54       		.byte	0x54
 8127 11d9 5A000000 		.4byte	.LVL423
 8128 11dd 77000000 		.4byte	.LVL425-1
 8129 11e1 0100     		.2byte	0x1
 8130 11e3 5C       		.byte	0x5c
 8131 11e4 77000000 		.4byte	.LVL425-1
 8132 11e8 16010000 		.4byte	.LVL441
 8133 11ec 0300     		.2byte	0x3
 8134 11ee 91       		.byte	0x91
ARM GAS  C:\Users\rdn\AppData\Local\Temp\ccCJgMYD.s 			page 155


 8135 11ef B87F     		.sleb128 -72
 8136 11f1 16010000 		.4byte	.LVL441
 8137 11f5 28010000 		.4byte	.LFE27
 8138 11f9 0100     		.2byte	0x1
 8139 11fb 53       		.byte	0x53
 8140 11fc 00000000 		.4byte	0
 8141 1200 00000000 		.4byte	0
 8142              	.LLST88:
 8143 1204 1A000000 		.4byte	.LVL407
 8144 1208 20000000 		.4byte	.LVL409
 8145 120c 0100     		.2byte	0x1
 8146 120e 50       		.byte	0x50
 8147 120f 20000000 		.4byte	.LVL409
 8148 1213 1C010000 		.4byte	.LVL444
 8149 1217 0100     		.2byte	0x1
 8150 1219 56       		.byte	0x56
 8151 121a 00000000 		.4byte	0
 8152 121e 00000000 		.4byte	0
 8153              	.LLST89:
 8154 1222 1A000000 		.4byte	.LVL407
 8155 1226 98000000 		.4byte	.LVL428
 8156 122a 0100     		.2byte	0x1
 8157 122c 57       		.byte	0x57
 8158 122d 98000000 		.4byte	.LVL428
 8159 1231 16010000 		.4byte	.LVL441
 8160 1235 0100     		.2byte	0x1
 8161 1237 59       		.byte	0x59
 8162 1238 16010000 		.4byte	.LVL441
 8163 123c 1C010000 		.4byte	.LVL445
 8164 1240 0100     		.2byte	0x1
 8165 1242 57       		.byte	0x57
 8166 1243 00000000 		.4byte	0
 8167 1247 00000000 		.4byte	0
 8168              	.LLST90:
 8169 124b 1C000000 		.4byte	.LVL408
 8170 124f 1C010000 		.4byte	.LVL443
 8171 1253 0100     		.2byte	0x1
 8172 1255 55       		.byte	0x55
 8173 1256 00000000 		.4byte	0
 8174 125a 00000000 		.4byte	0
 8175              	.LLST91:
 8176 125e 24000000 		.4byte	.LVL410
 8177 1262 26000000 		.4byte	.LVL411
 8178 1266 0100     		.2byte	0x1
 8179 1268 52       		.byte	0x52
 8180 1269 26000000 		.4byte	.LVL411
 8181 126d D8000000 		.4byte	.LVL435
 8182 1271 0100     		.2byte	0x1
 8183 1273 5A       		.byte	0x5a
 8184 1274 00000000 		.4byte	0
 8185 1278 00000000 		.4byte	0
 8186              	.LLST92:
 8187 127c 2A000000 		.4byte	.LVL413
 8188 1280 36000000 		.4byte	.LVL415
 8189 1284 0100     		.2byte	0x1
 8190 1286 52       		.byte	0x52
 8191 1287 36000000 		.4byte	.LVL415
ARM GAS  C:\Users\rdn\AppData\Local\Temp\ccCJgMYD.s 			page 156


 8192 128b 42000000 		.4byte	.LVL418
 8193 128f 0200     		.2byte	0x2
 8194 1291 74       		.byte	0x74
 8195 1292 7C       		.sleb128 -4
 8196 1293 42000000 		.4byte	.LVL418
 8197 1297 AA000000 		.4byte	.LVL430
 8198 129b 0300     		.2byte	0x3
 8199 129d 91       		.byte	0x91
 8200 129e AC7F     		.sleb128 -84
 8201 12a0 00000000 		.4byte	0
 8202 12a4 00000000 		.4byte	0
 8203              	.LLST93:
 8204 12a8 38000000 		.4byte	.LVL416
 8205 12ac 52000000 		.4byte	.LVL422
 8206 12b0 0100     		.2byte	0x1
 8207 12b2 52       		.byte	0x52
 8208 12b3 52000000 		.4byte	.LVL422
 8209 12b7 16010000 		.4byte	.LVL441
 8210 12bb 0300     		.2byte	0x3
 8211 12bd 91       		.byte	0x91
 8212 12be B47F     		.sleb128 -76
 8213 12c0 00000000 		.4byte	0
 8214 12c4 00000000 		.4byte	0
 8215              	.LLST94:
 8216 12c8 46000000 		.4byte	.LVL419
 8217 12cc 48000000 		.4byte	.LVL420
 8218 12d0 0100     		.2byte	0x1
 8219 12d2 54       		.byte	0x54
 8220 12d3 48000000 		.4byte	.LVL420
 8221 12d7 16010000 		.4byte	.LVL441
 8222 12db 0100     		.2byte	0x1
 8223 12dd 5B       		.byte	0x5b
 8224 12de 00000000 		.4byte	0
 8225 12e2 00000000 		.4byte	0
 8226              	.LLST95:
 8227 12e6 00000000 		.4byte	.LVL446
 8228 12ea 24000000 		.4byte	.LVL453
 8229 12ee 0100     		.2byte	0x1
 8230 12f0 50       		.byte	0x50
 8231 12f1 24000000 		.4byte	.LVL453
 8232 12f5 1C010000 		.4byte	.LFE28
 8233 12f9 0400     		.2byte	0x4
 8234 12fb F3       		.byte	0xf3
 8235 12fc 01       		.uleb128 0x1
 8236 12fd 50       		.byte	0x50
 8237 12fe 9F       		.byte	0x9f
 8238 12ff 00000000 		.4byte	0
 8239 1303 00000000 		.4byte	0
 8240              	.LLST96:
 8241 1307 00000000 		.4byte	.LVL446
 8242 130b 24000000 		.4byte	.LVL453
 8243 130f 0100     		.2byte	0x1
 8244 1311 51       		.byte	0x51
 8245 1312 24000000 		.4byte	.LVL453
 8246 1316 1C010000 		.4byte	.LFE28
 8247 131a 0400     		.2byte	0x4
 8248 131c F3       		.byte	0xf3
ARM GAS  C:\Users\rdn\AppData\Local\Temp\ccCJgMYD.s 			page 157


 8249 131d 01       		.uleb128 0x1
 8250 131e 51       		.byte	0x51
 8251 131f 9F       		.byte	0x9f
 8252 1320 00000000 		.4byte	0
 8253 1324 00000000 		.4byte	0
 8254              	.LLST97:
 8255 1328 00000000 		.4byte	.LVL446
 8256 132c 12000000 		.4byte	.LVL447
 8257 1330 0100     		.2byte	0x1
 8258 1332 52       		.byte	0x52
 8259 1333 12000000 		.4byte	.LVL447
 8260 1337 24000000 		.4byte	.LVL453
 8261 133b 0100     		.2byte	0x1
 8262 133d 5B       		.byte	0x5b
 8263 133e 24000000 		.4byte	.LVL453
 8264 1342 1C010000 		.4byte	.LFE28
 8265 1346 0400     		.2byte	0x4
 8266 1348 F3       		.byte	0xf3
 8267 1349 01       		.uleb128 0x1
 8268 134a 52       		.byte	0x52
 8269 134b 9F       		.byte	0x9f
 8270 134c 00000000 		.4byte	0
 8271 1350 00000000 		.4byte	0
 8272              	.LLST98:
 8273 1354 12000000 		.4byte	.LVL447
 8274 1358 16000000 		.4byte	.LVL449
 8275 135c 0100     		.2byte	0x1
 8276 135e 52       		.byte	0x52
 8277 135f 16000000 		.4byte	.LVL449
 8278 1363 24000000 		.4byte	.LVL453
 8279 1367 0200     		.2byte	0x2
 8280 1369 70       		.byte	0x70
 8281 136a 00       		.sleb128 0
 8282 136b 00000000 		.4byte	0
 8283 136f 00000000 		.4byte	0
 8284              	.LLST99:
 8285 1373 14000000 		.4byte	.LVL448
 8286 1377 54000000 		.4byte	.LVL458
 8287 137b 0100     		.2byte	0x1
 8288 137d 53       		.byte	0x53
 8289 137e 54000000 		.4byte	.LVL458
 8290 1382 5C000000 		.4byte	.LVL459
 8291 1386 0100     		.2byte	0x1
 8292 1388 50       		.byte	0x50
 8293 1389 5C000000 		.4byte	.LVL459
 8294 138d 62000000 		.4byte	.LVL460
 8295 1391 0100     		.2byte	0x1
 8296 1393 5C       		.byte	0x5c
 8297 1394 62000000 		.4byte	.LVL460
 8298 1398 68000000 		.4byte	.LVL462
 8299 139c 0100     		.2byte	0x1
 8300 139e 53       		.byte	0x53
 8301 139f 68000000 		.4byte	.LVL462
 8302 13a3 0A010000 		.4byte	.LVL480
 8303 13a7 0300     		.2byte	0x3
 8304 13a9 91       		.byte	0x91
 8305 13aa A87F     		.sleb128 -88
ARM GAS  C:\Users\rdn\AppData\Local\Temp\ccCJgMYD.s 			page 158


 8306 13ac 0A010000 		.4byte	.LVL480
 8307 13b0 1C010000 		.4byte	.LFE28
 8308 13b4 0100     		.2byte	0x1
 8309 13b6 53       		.byte	0x53
 8310 13b7 00000000 		.4byte	0
 8311 13bb 00000000 		.4byte	0
 8312              	.LLST100:
 8313 13bf 18000000 		.4byte	.LVL450
 8314 13c3 24000000 		.4byte	.LVL453
 8315 13c7 0100     		.2byte	0x1
 8316 13c9 56       		.byte	0x56
 8317 13ca 24000000 		.4byte	.LVL453
 8318 13ce 10010000 		.4byte	.LVL483
 8319 13d2 0100     		.2byte	0x1
 8320 13d4 5A       		.byte	0x5a
 8321 13d5 00000000 		.4byte	0
 8322 13d9 00000000 		.4byte	0
 8323              	.LLST101:
 8324 13dd 18000000 		.4byte	.LVL450
 8325 13e1 2E000000 		.4byte	.LVL454
 8326 13e5 0100     		.2byte	0x1
 8327 13e7 51       		.byte	0x51
 8328 13e8 2E000000 		.4byte	.LVL454
 8329 13ec 40000000 		.4byte	.LVL456
 8330 13f0 0100     		.2byte	0x1
 8331 13f2 52       		.byte	0x52
 8332 13f3 40000000 		.4byte	.LVL456
 8333 13f7 4A000000 		.4byte	.LVL457
 8334 13fb 0100     		.2byte	0x1
 8335 13fd 51       		.byte	0x51
 8336 13fe 4A000000 		.4byte	.LVL457
 8337 1402 0A010000 		.4byte	.LVL480
 8338 1406 0300     		.2byte	0x3
 8339 1408 91       		.byte	0x91
 8340 1409 A47F     		.sleb128 -92
 8341 140b 0A010000 		.4byte	.LVL480
 8342 140f 1C010000 		.4byte	.LFE28
 8343 1413 0100     		.2byte	0x1
 8344 1415 51       		.byte	0x51
 8345 1416 00000000 		.4byte	0
 8346 141a 00000000 		.4byte	0
 8347              	.LLST102:
 8348 141e 1A000000 		.4byte	.LVL451
 8349 1422 24000000 		.4byte	.LVL453
 8350 1426 0100     		.2byte	0x1
 8351 1428 57       		.byte	0x57
 8352 1429 24000000 		.4byte	.LVL453
 8353 142d 10010000 		.4byte	.LVL482
 8354 1431 0100     		.2byte	0x1
 8355 1433 58       		.byte	0x58
 8356 1434 00000000 		.4byte	0
 8357 1438 00000000 		.4byte	0
 8358              	.LLST103:
 8359 143c 1A000000 		.4byte	.LVL451
 8360 1440 6E000000 		.4byte	.LVL463
 8361 1444 0100     		.2byte	0x1
 8362 1446 5B       		.byte	0x5b
ARM GAS  C:\Users\rdn\AppData\Local\Temp\ccCJgMYD.s 			page 159


 8363 1447 6E000000 		.4byte	.LVL463
 8364 144b E6000000 		.4byte	.LVL476
 8365 144f 0300     		.2byte	0x3
 8366 1451 7B       		.byte	0x7b
 8367 1452 04       		.sleb128 4
 8368 1453 9F       		.byte	0x9f
 8369 1454 E6000000 		.4byte	.LVL476
 8370 1458 ED000000 		.4byte	.LVL477-1
 8371 145c 0100     		.2byte	0x1
 8372 145e 53       		.byte	0x53
 8373 145f ED000000 		.4byte	.LVL477-1
 8374 1463 0A010000 		.4byte	.LVL480
 8375 1467 0100     		.2byte	0x1
 8376 1469 59       		.byte	0x59
 8377 146a 0A010000 		.4byte	.LVL480
 8378 146e 10010000 		.4byte	.LVL484
 8379 1472 0100     		.2byte	0x1
 8380 1474 5B       		.byte	0x5b
 8381 1475 00000000 		.4byte	0
 8382 1479 00000000 		.4byte	0
 8383              	.LLST104:
 8384 147d 1E000000 		.4byte	.LVL452
 8385 1481 24000000 		.4byte	.LVL453
 8386 1485 0100     		.2byte	0x1
 8387 1487 52       		.byte	0x52
 8388 1488 24000000 		.4byte	.LVL453
 8389 148c 98000000 		.4byte	.LVL467
 8390 1490 0100     		.2byte	0x1
 8391 1492 54       		.byte	0x54
 8392 1493 98000000 		.4byte	.LVL467
 8393 1497 B4000000 		.4byte	.LVL471
 8394 149b 0300     		.2byte	0x3
 8395 149d 74       		.byte	0x74
 8396 149e 7C       		.sleb128 -4
 8397 149f 9F       		.byte	0x9f
 8398 14a0 B4000000 		.4byte	.LVL471
 8399 14a4 B8000000 		.4byte	.LVL472
 8400 14a8 0100     		.2byte	0x1
 8401 14aa 53       		.byte	0x53
 8402 14ab B8000000 		.4byte	.LVL472
 8403 14af 10010000 		.4byte	.LVL481
 8404 14b3 0100     		.2byte	0x1
 8405 14b5 54       		.byte	0x54
 8406 14b6 00000000 		.4byte	0
 8407 14ba 00000000 		.4byte	0
 8408              	.LLST105:
 8409 14be 00000000 		.4byte	.LVL485
 8410 14c2 3E000000 		.4byte	.LVL494
 8411 14c6 0100     		.2byte	0x1
 8412 14c8 50       		.byte	0x50
 8413 14c9 3E000000 		.4byte	.LVL494
 8414 14cd 70020000 		.4byte	.LFE29
 8415 14d1 0400     		.2byte	0x4
 8416 14d3 F3       		.byte	0xf3
 8417 14d4 01       		.uleb128 0x1
 8418 14d5 50       		.byte	0x50
 8419 14d6 9F       		.byte	0x9f
ARM GAS  C:\Users\rdn\AppData\Local\Temp\ccCJgMYD.s 			page 160


 8420 14d7 00000000 		.4byte	0
 8421 14db 00000000 		.4byte	0
 8422              	.LLST106:
 8423 14df 00000000 		.4byte	.LVL485
 8424 14e3 34000000 		.4byte	.LVL491
 8425 14e7 0100     		.2byte	0x1
 8426 14e9 51       		.byte	0x51
 8427 14ea 34000000 		.4byte	.LVL491
 8428 14ee 70020000 		.4byte	.LFE29
 8429 14f2 0400     		.2byte	0x4
 8430 14f4 F3       		.byte	0xf3
 8431 14f5 01       		.uleb128 0x1
 8432 14f6 51       		.byte	0x51
 8433 14f7 9F       		.byte	0x9f
 8434 14f8 00000000 		.4byte	0
 8435 14fc 00000000 		.4byte	0
 8436              	.LLST107:
 8437 1500 00000000 		.4byte	.LVL485
 8438 1504 1C000000 		.4byte	.LVL487
 8439 1508 0100     		.2byte	0x1
 8440 150a 52       		.byte	0x52
 8441 150b 1C000000 		.4byte	.LVL487
 8442 150f 98000000 		.4byte	.LVL511
 8443 1513 0100     		.2byte	0x1
 8444 1515 54       		.byte	0x54
 8445 1516 98000000 		.4byte	.LVL511
 8446 151a F0000000 		.4byte	.LVL523
 8447 151e 0300     		.2byte	0x3
 8448 1520 74       		.byte	0x74
 8449 1521 04       		.sleb128 4
 8450 1522 9F       		.byte	0x9f
 8451 1523 F0000000 		.4byte	.LVL523
 8452 1527 14010000 		.4byte	.LVL528
 8453 152b 0100     		.2byte	0x1
 8454 152d 5A       		.byte	0x5a
 8455 152e 14010000 		.4byte	.LVL528
 8456 1532 38010000 		.4byte	.LVL538
 8457 1536 0100     		.2byte	0x1
 8458 1538 54       		.byte	0x54
 8459 1539 38010000 		.4byte	.LVL538
 8460 153d 68010000 		.4byte	.LVL544
 8461 1541 0300     		.2byte	0x3
 8462 1543 74       		.byte	0x74
 8463 1544 04       		.sleb128 4
 8464 1545 9F       		.byte	0x9f
 8465 1546 68010000 		.4byte	.LVL544
 8466 154a 82010000 		.4byte	.LVL548
 8467 154e 0100     		.2byte	0x1
 8468 1550 58       		.byte	0x58
 8469 1551 82010000 		.4byte	.LVL548
 8470 1555 A8010000 		.4byte	.LVL554
 8471 1559 0100     		.2byte	0x1
 8472 155b 54       		.byte	0x54
 8473 155c A8010000 		.4byte	.LVL554
 8474 1560 D8010000 		.4byte	.LVL562
 8475 1564 0300     		.2byte	0x3
 8476 1566 74       		.byte	0x74
ARM GAS  C:\Users\rdn\AppData\Local\Temp\ccCJgMYD.s 			page 161


 8477 1567 04       		.sleb128 4
 8478 1568 9F       		.byte	0x9f
 8479 1569 D8010000 		.4byte	.LVL562
 8480 156d E7010000 		.4byte	.LVL564-1
 8481 1571 0100     		.2byte	0x1
 8482 1573 52       		.byte	0x52
 8483 1574 E7010000 		.4byte	.LVL564-1
 8484 1578 F0010000 		.4byte	.LVL565
 8485 157c 0200     		.2byte	0x2
 8486 157e 91       		.byte	0x91
 8487 157f 40       		.sleb128 -64
 8488 1580 F0010000 		.4byte	.LVL565
 8489 1584 14020000 		.4byte	.LVL575
 8490 1588 0100     		.2byte	0x1
 8491 158a 54       		.byte	0x54
 8492 158b 14020000 		.4byte	.LVL575
 8493 158f 3C020000 		.4byte	.LVL583
 8494 1593 0300     		.2byte	0x3
 8495 1595 74       		.byte	0x74
 8496 1596 04       		.sleb128 4
 8497 1597 9F       		.byte	0x9f
 8498 1598 3C020000 		.4byte	.LVL583
 8499 159c 52020000 		.4byte	.LVL586
 8500 15a0 0100     		.2byte	0x1
 8501 15a2 59       		.byte	0x59
 8502 15a3 52020000 		.4byte	.LVL586
 8503 15a7 58020000 		.4byte	.LVL587
 8504 15ab 0100     		.2byte	0x1
 8505 15ad 54       		.byte	0x54
 8506 15ae 00000000 		.4byte	0
 8507 15b2 00000000 		.4byte	0
 8508              	.LLST108:
 8509 15b6 00000000 		.4byte	.LVL485
 8510 15ba 14000000 		.4byte	.LVL486
 8511 15be 0100     		.2byte	0x1
 8512 15c0 53       		.byte	0x53
 8513 15c1 14000000 		.4byte	.LVL486
 8514 15c5 78000000 		.4byte	.LVL502
 8515 15c9 0100     		.2byte	0x1
 8516 15cb 5A       		.byte	0x5a
 8517 15cc 78000000 		.4byte	.LVL502
 8518 15d0 70020000 		.4byte	.LFE29
 8519 15d4 0200     		.2byte	0x2
 8520 15d6 91       		.byte	0x91
 8521 15d7 54       		.sleb128 -44
 8522 15d8 00000000 		.4byte	0
 8523 15dc 00000000 		.4byte	0
 8524              	.LLST109:
 8525 15e0 1E000000 		.4byte	.LVL488
 8526 15e4 68000000 		.4byte	.LVL500
 8527 15e8 0100     		.2byte	0x1
 8528 15ea 57       		.byte	0x57
 8529 15eb 68000000 		.4byte	.LVL500
 8530 15ef 70020000 		.4byte	.LFE29
 8531 15f3 0200     		.2byte	0x2
 8532 15f5 91       		.byte	0x91
 8533 15f6 50       		.sleb128 -48
ARM GAS  C:\Users\rdn\AppData\Local\Temp\ccCJgMYD.s 			page 162


 8534 15f7 00000000 		.4byte	0
 8535 15fb 00000000 		.4byte	0
 8536              	.LLST110:
 8537 15ff 2E000000 		.4byte	.LVL490
 8538 1603 36000000 		.4byte	.LVL492
 8539 1607 0100     		.2byte	0x1
 8540 1609 52       		.byte	0x52
 8541 160a 36000000 		.4byte	.LVL492
 8542 160e 70020000 		.4byte	.LFE29
 8543 1612 0200     		.2byte	0x2
 8544 1614 91       		.byte	0x91
 8545 1615 44       		.sleb128 -60
 8546 1616 00000000 		.4byte	0
 8547 161a 00000000 		.4byte	0
 8548              	.LLST111:
 8549 161e 3C000000 		.4byte	.LVL493
 8550 1622 68000000 		.4byte	.LVL500
 8551 1626 0100     		.2byte	0x1
 8552 1628 57       		.byte	0x57
 8553 1629 68000000 		.4byte	.LVL500
 8554 162d 9C010000 		.4byte	.LVL551
 8555 1631 0200     		.2byte	0x2
 8556 1633 91       		.byte	0x91
 8557 1634 50       		.sleb128 -48
 8558 1635 9C010000 		.4byte	.LVL551
 8559 1639 A8010000 		.4byte	.LVL554
 8560 163d 0100     		.2byte	0x1
 8561 163f 58       		.byte	0x58
 8562 1640 A8010000 		.4byte	.LVL554
 8563 1644 E0010000 		.4byte	.LVL563
 8564 1648 0300     		.2byte	0x3
 8565 164a 78       		.byte	0x78
 8566 164b 04       		.sleb128 4
 8567 164c 9F       		.byte	0x9f
 8568 164d E0010000 		.4byte	.LVL563
 8569 1651 E7010000 		.4byte	.LVL564-1
 8570 1655 0100     		.2byte	0x1
 8571 1657 53       		.byte	0x53
 8572 1658 E7010000 		.4byte	.LVL564-1
 8573 165c F0010000 		.4byte	.LVL565
 8574 1660 0100     		.2byte	0x1
 8575 1662 54       		.byte	0x54
 8576 1663 F0010000 		.4byte	.LVL565
 8577 1667 FE010000 		.4byte	.LVL567
 8578 166b 0100     		.2byte	0x1
 8579 166d 58       		.byte	0x58
 8580 166e FE010000 		.4byte	.LVL567
 8581 1672 06020000 		.4byte	.LVL571
 8582 1676 0100     		.2byte	0x1
 8583 1678 57       		.byte	0x57
 8584 1679 06020000 		.4byte	.LVL571
 8585 167d 14020000 		.4byte	.LVL575
 8586 1681 0100     		.2byte	0x1
 8587 1683 58       		.byte	0x58
 8588 1684 14020000 		.4byte	.LVL575
 8589 1688 42020000 		.4byte	.LVL584
 8590 168c 0300     		.2byte	0x3
ARM GAS  C:\Users\rdn\AppData\Local\Temp\ccCJgMYD.s 			page 163


 8591 168e 78       		.byte	0x78
 8592 168f 04       		.sleb128 4
 8593 1690 9F       		.byte	0x9f
 8594 1691 42020000 		.4byte	.LVL584
 8595 1695 52020000 		.4byte	.LVL586
 8596 1699 0100     		.2byte	0x1
 8597 169b 54       		.byte	0x54
 8598 169c 52020000 		.4byte	.LVL586
 8599 16a0 58020000 		.4byte	.LVL591
 8600 16a4 0100     		.2byte	0x1
 8601 16a6 58       		.byte	0x58
 8602 16a7 00000000 		.4byte	0
 8603 16ab 00000000 		.4byte	0
 8604              	.LLST112:
 8605 16af 4A000000 		.4byte	.LVL495
 8606 16b3 76000000 		.4byte	.LVL501
 8607 16b7 0100     		.2byte	0x1
 8608 16b9 58       		.byte	0x58
 8609 16ba 76000000 		.4byte	.LVL501
 8610 16be 78000000 		.4byte	.LVL502
 8611 16c2 0100     		.2byte	0x1
 8612 16c4 57       		.byte	0x57
 8613 16c5 78000000 		.4byte	.LVL502
 8614 16c9 98000000 		.4byte	.LVL511
 8615 16cd 0100     		.2byte	0x1
 8616 16cf 5B       		.byte	0x5b
 8617 16d0 98000000 		.4byte	.LVL511
 8618 16d4 9C000000 		.4byte	.LVL512
 8619 16d8 0300     		.2byte	0x3
 8620 16da 7B       		.byte	0x7b
 8621 16db 7C       		.sleb128 -4
 8622 16dc 9F       		.byte	0x9f
 8623 16dd 9C000000 		.4byte	.LVL512
 8624 16e1 A3000000 		.4byte	.LVL513-1
 8625 16e5 0100     		.2byte	0x1
 8626 16e7 53       		.byte	0x53
 8627 16e8 A3000000 		.4byte	.LVL513-1
 8628 16ec F6000000 		.4byte	.LVL524
 8629 16f0 0300     		.2byte	0x3
 8630 16f2 7B       		.byte	0x7b
 8631 16f3 7C       		.sleb128 -4
 8632 16f4 9F       		.byte	0x9f
 8633 16f5 F6000000 		.4byte	.LVL524
 8634 16f9 14010000 		.4byte	.LVL528
 8635 16fd 0100     		.2byte	0x1
 8636 16ff 54       		.byte	0x54
 8637 1700 14010000 		.4byte	.LVL528
 8638 1704 22010000 		.4byte	.LVL531
 8639 1708 0100     		.2byte	0x1
 8640 170a 5B       		.byte	0x5b
 8641 170b 22010000 		.4byte	.LVL531
 8642 170f 34010000 		.4byte	.LVL537
 8643 1713 0100     		.2byte	0x1
 8644 1715 58       		.byte	0x58
 8645 1716 34010000 		.4byte	.LVL537
 8646 171a 38010000 		.4byte	.LVL538
 8647 171e 0100     		.2byte	0x1
ARM GAS  C:\Users\rdn\AppData\Local\Temp\ccCJgMYD.s 			page 164


 8648 1720 55       		.byte	0x55
 8649 1721 38010000 		.4byte	.LVL538
 8650 1725 3A010000 		.4byte	.LVL539
 8651 1729 0300     		.2byte	0x3
 8652 172b 75       		.byte	0x75
 8653 172c 7C       		.sleb128 -4
 8654 172d 9F       		.byte	0x9f
 8655 172e 3A010000 		.4byte	.LVL539
 8656 1732 41010000 		.4byte	.LVL540-1
 8657 1736 0100     		.2byte	0x1
 8658 1738 53       		.byte	0x53
 8659 1739 41010000 		.4byte	.LVL540-1
 8660 173d 6C010000 		.4byte	.LVL545
 8661 1741 0300     		.2byte	0x3
 8662 1743 75       		.byte	0x75
 8663 1744 7C       		.sleb128 -4
 8664 1745 9F       		.byte	0x9f
 8665 1746 6C010000 		.4byte	.LVL545
 8666 174a 9C010000 		.4byte	.LVL551
 8667 174e 0100     		.2byte	0x1
 8668 1750 55       		.byte	0x55
 8669 1751 9C010000 		.4byte	.LVL551
 8670 1755 9E010000 		.4byte	.LVL552
 8671 1759 0300     		.2byte	0x3
 8672 175b 75       		.byte	0x75
 8673 175c 7C       		.sleb128 -4
 8674 175d 9F       		.byte	0x9f
 8675 175e 9E010000 		.4byte	.LVL552
 8676 1762 A5010000 		.4byte	.LVL553-1
 8677 1766 0100     		.2byte	0x1
 8678 1768 53       		.byte	0x53
 8679 1769 A5010000 		.4byte	.LVL553-1
 8680 176d C2010000 		.4byte	.LVL559
 8681 1771 0300     		.2byte	0x3
 8682 1773 75       		.byte	0x75
 8683 1774 7C       		.sleb128 -4
 8684 1775 9F       		.byte	0x9f
 8685 1776 C2010000 		.4byte	.LVL559
 8686 177a 00020000 		.4byte	.LVL568
 8687 177e 0100     		.2byte	0x1
 8688 1780 55       		.byte	0x55
 8689 1781 00020000 		.4byte	.LVL568
 8690 1785 04020000 		.4byte	.LVL570
 8691 1789 0100     		.2byte	0x1
 8692 178b 58       		.byte	0x58
 8693 178c 04020000 		.4byte	.LVL570
 8694 1790 08020000 		.4byte	.LVL572
 8695 1794 0100     		.2byte	0x1
 8696 1796 56       		.byte	0x56
 8697 1797 08020000 		.4byte	.LVL572
 8698 179b 0A020000 		.4byte	.LVL573
 8699 179f 0300     		.2byte	0x3
 8700 17a1 76       		.byte	0x76
 8701 17a2 7C       		.sleb128 -4
 8702 17a3 9F       		.byte	0x9f
 8703 17a4 0A020000 		.4byte	.LVL573
 8704 17a8 11020000 		.4byte	.LVL574-1
ARM GAS  C:\Users\rdn\AppData\Local\Temp\ccCJgMYD.s 			page 165


 8705 17ac 0100     		.2byte	0x1
 8706 17ae 53       		.byte	0x53
 8707 17af 11020000 		.4byte	.LVL574-1
 8708 17b3 2A020000 		.4byte	.LVL580
 8709 17b7 0300     		.2byte	0x3
 8710 17b9 76       		.byte	0x76
 8711 17ba 7C       		.sleb128 -4
 8712 17bb 9F       		.byte	0x9f
 8713 17bc 2A020000 		.4byte	.LVL580
 8714 17c0 58020000 		.4byte	.LVL589
 8715 17c4 0100     		.2byte	0x1
 8716 17c6 56       		.byte	0x56
 8717 17c7 00000000 		.4byte	0
 8718 17cb 00000000 		.4byte	0
 8719              	.LLST113:
 8720 17cf 4A000000 		.4byte	.LVL495
 8721 17d3 76000000 		.4byte	.LVL501
 8722 17d7 0100     		.2byte	0x1
 8723 17d9 58       		.byte	0x58
 8724 17da 76000000 		.4byte	.LVL501
 8725 17de 80000000 		.4byte	.LVL505
 8726 17e2 0100     		.2byte	0x1
 8727 17e4 57       		.byte	0x57
 8728 17e5 80000000 		.4byte	.LVL505
 8729 17e9 CA000000 		.4byte	.LVL517
 8730 17ed 0300     		.2byte	0x3
 8731 17ef 77       		.byte	0x77
 8732 17f0 04       		.sleb128 4
 8733 17f1 9F       		.byte	0x9f
 8734 17f2 CA000000 		.4byte	.LVL517
 8735 17f6 D1000000 		.4byte	.LVL518-1
 8736 17fa 0100     		.2byte	0x1
 8737 17fc 53       		.byte	0x53
 8738 17fd D1000000 		.4byte	.LVL518-1
 8739 1801 14010000 		.4byte	.LVL528
 8740 1805 0300     		.2byte	0x3
 8741 1807 91       		.byte	0x91
 8742 1808 BC7F     		.sleb128 -68
 8743 180a 14010000 		.4byte	.LVL528
 8744 180e 1C010000 		.4byte	.LVL529
 8745 1812 0100     		.2byte	0x1
 8746 1814 57       		.byte	0x57
 8747 1815 00000000 		.4byte	0
 8748 1819 00000000 		.4byte	0
 8749              	.LLST114:
 8750 181d 52000000 		.4byte	.LVL496
 8751 1821 78000000 		.4byte	.LVL502
 8752 1825 0100     		.2byte	0x1
 8753 1827 52       		.byte	0x52
 8754 1828 78000000 		.4byte	.LVL502
 8755 182c 7C000000 		.4byte	.LVL503
 8756 1830 0300     		.2byte	0x3
 8757 1832 79       		.byte	0x79
 8758 1833 7C       		.sleb128 -4
 8759 1834 9F       		.byte	0x9f
 8760 1835 7C000000 		.4byte	.LVL503
 8761 1839 7E000000 		.4byte	.LVL504
ARM GAS  C:\Users\rdn\AppData\Local\Temp\ccCJgMYD.s 			page 166


 8762 183d 0100     		.2byte	0x1
 8763 183f 53       		.byte	0x53
 8764 1840 7E000000 		.4byte	.LVL504
 8765 1844 BA000000 		.4byte	.LVL516
 8766 1848 0300     		.2byte	0x3
 8767 184a 79       		.byte	0x79
 8768 184b 7C       		.sleb128 -4
 8769 184c 9F       		.byte	0x9f
 8770 184d BA000000 		.4byte	.LVL516
 8771 1851 2A010000 		.4byte	.LVL533
 8772 1855 0100     		.2byte	0x1
 8773 1857 59       		.byte	0x59
 8774 1858 00000000 		.4byte	0
 8775 185c 00000000 		.4byte	0
 8776              	.LLST115:
 8777 1860 52000000 		.4byte	.LVL496
 8778 1864 78000000 		.4byte	.LVL502
 8779 1868 0100     		.2byte	0x1
 8780 186a 52       		.byte	0x52
 8781 186b 78000000 		.4byte	.LVL502
 8782 186f 94000000 		.4byte	.LVL509
 8783 1873 0100     		.2byte	0x1
 8784 1875 56       		.byte	0x56
 8785 1876 94000000 		.4byte	.LVL509
 8786 187a E8000000 		.4byte	.LVL521
 8787 187e 0300     		.2byte	0x3
 8788 1880 76       		.byte	0x76
 8789 1881 04       		.sleb128 4
 8790 1882 9F       		.byte	0x9f
 8791 1883 E8000000 		.4byte	.LVL521
 8792 1887 EC000000 		.4byte	.LVL522
 8793 188b 0100     		.2byte	0x1
 8794 188d 52       		.byte	0x52
 8795 188e EC000000 		.4byte	.LVL522
 8796 1892 10010000 		.4byte	.LVL527
 8797 1896 0100     		.2byte	0x1
 8798 1898 57       		.byte	0x57
 8799 1899 10010000 		.4byte	.LVL527
 8800 189d 28010000 		.4byte	.LVL532
 8801 18a1 0100     		.2byte	0x1
 8802 18a3 56       		.byte	0x56
 8803 18a4 28010000 		.4byte	.LVL532
 8804 18a8 32010000 		.4byte	.LVL536
 8805 18ac 0100     		.2byte	0x1
 8806 18ae 5B       		.byte	0x5b
 8807 18af 32010000 		.4byte	.LVL536
 8808 18b3 34010000 		.4byte	.LVL537
 8809 18b7 0100     		.2byte	0x1
 8810 18b9 57       		.byte	0x57
 8811 18ba 34010000 		.4byte	.LVL537
 8812 18be 60010000 		.4byte	.LVL543
 8813 18c2 0300     		.2byte	0x3
 8814 18c4 77       		.byte	0x77
 8815 18c5 04       		.sleb128 4
 8816 18c6 9F       		.byte	0x9f
 8817 18c7 60010000 		.4byte	.LVL543
 8818 18cb 71010000 		.4byte	.LVL546-1
ARM GAS  C:\Users\rdn\AppData\Local\Temp\ccCJgMYD.s 			page 167


 8819 18cf 0100     		.2byte	0x1
 8820 18d1 52       		.byte	0x52
 8821 18d2 71010000 		.4byte	.LVL546-1
 8822 18d6 82010000 		.4byte	.LVL548
 8823 18da 0200     		.2byte	0x2
 8824 18dc 91       		.byte	0x91
 8825 18dd 40       		.sleb128 -64
 8826 18de 82010000 		.4byte	.LVL548
 8827 18e2 8E010000 		.4byte	.LVL549
 8828 18e6 0100     		.2byte	0x1
 8829 18e8 57       		.byte	0x57
 8830 18e9 00000000 		.4byte	0
 8831 18ed 00000000 		.4byte	0
 8832              	.LLST116:
 8833 18f1 5A000000 		.4byte	.LVL497
 8834 18f5 78000000 		.4byte	.LVL502
 8835 18f9 0100     		.2byte	0x1
 8836 18fb 51       		.byte	0x51
 8837 18fc 78000000 		.4byte	.LVL502
 8838 1900 92000000 		.4byte	.LVL508
 8839 1904 0300     		.2byte	0x3
 8840 1906 75       		.byte	0x75
 8841 1907 7C       		.sleb128 -4
 8842 1908 9F       		.byte	0x9f
 8843 1909 92000000 		.4byte	.LVL508
 8844 190d 96000000 		.4byte	.LVL510
 8845 1911 0100     		.2byte	0x1
 8846 1913 53       		.byte	0x53
 8847 1914 96000000 		.4byte	.LVL510
 8848 1918 B2000000 		.4byte	.LVL515
 8849 191c 0300     		.2byte	0x3
 8850 191e 75       		.byte	0x75
 8851 191f 7C       		.sleb128 -4
 8852 1920 9F       		.byte	0x9f
 8853 1921 B2000000 		.4byte	.LVL515
 8854 1925 2C010000 		.4byte	.LVL534
 8855 1929 0100     		.2byte	0x1
 8856 192b 55       		.byte	0x55
 8857 192c 00000000 		.4byte	0
 8858 1930 00000000 		.4byte	0
 8859              	.LLST117:
 8860 1934 5A000000 		.4byte	.LVL497
 8861 1938 78000000 		.4byte	.LVL502
 8862 193c 0100     		.2byte	0x1
 8863 193e 51       		.byte	0x51
 8864 193f 78000000 		.4byte	.LVL502
 8865 1943 94000000 		.4byte	.LVL509
 8866 1947 0100     		.2byte	0x1
 8867 1949 58       		.byte	0x58
 8868 194a 94000000 		.4byte	.LVL509
 8869 194e E2000000 		.4byte	.LVL520
 8870 1952 0300     		.2byte	0x3
 8871 1954 78       		.byte	0x78
 8872 1955 04       		.sleb128 4
 8873 1956 9F       		.byte	0x9f
 8874 1957 E2000000 		.4byte	.LVL520
 8875 195b FB000000 		.4byte	.LVL525-1
ARM GAS  C:\Users\rdn\AppData\Local\Temp\ccCJgMYD.s 			page 168


 8876 195f 0100     		.2byte	0x1
 8877 1961 53       		.byte	0x53
 8878 1962 FB000000 		.4byte	.LVL525-1
 8879 1966 14010000 		.4byte	.LVL528
 8880 196a 0200     		.2byte	0x2
 8881 196c 91       		.byte	0x91
 8882 196d 40       		.sleb128 -64
 8883 196e 14010000 		.4byte	.LVL528
 8884 1972 20010000 		.4byte	.LVL530
 8885 1976 0100     		.2byte	0x1
 8886 1978 58       		.byte	0x58
 8887 1979 20010000 		.4byte	.LVL530
 8888 197d 30010000 		.4byte	.LVL535
 8889 1981 0100     		.2byte	0x1
 8890 1983 53       		.byte	0x53
 8891 1984 30010000 		.4byte	.LVL535
 8892 1988 34010000 		.4byte	.LVL537
 8893 198c 0100     		.2byte	0x1
 8894 198e 56       		.byte	0x56
 8895 198f 34010000 		.4byte	.LVL537
 8896 1993 56010000 		.4byte	.LVL542
 8897 1997 0300     		.2byte	0x3
 8898 1999 76       		.byte	0x76
 8899 199a 04       		.sleb128 4
 8900 199b 9F       		.byte	0x9f
 8901 199c 56010000 		.4byte	.LVL542
 8902 19a0 71010000 		.4byte	.LVL546-1
 8903 19a4 0100     		.2byte	0x1
 8904 19a6 53       		.byte	0x53
 8905 19a7 71010000 		.4byte	.LVL546-1
 8906 19ab 82010000 		.4byte	.LVL548
 8907 19af 0300     		.2byte	0x3
 8908 19b1 91       		.byte	0x91
 8909 19b2 BC7F     		.sleb128 -68
 8910 19b4 82010000 		.4byte	.LVL548
 8911 19b8 90010000 		.4byte	.LVL550
 8912 19bc 0100     		.2byte	0x1
 8913 19be 56       		.byte	0x56
 8914 19bf 90010000 		.4byte	.LVL550
 8915 19c3 9C010000 		.4byte	.LVL551
 8916 19c7 0100     		.2byte	0x1
 8917 19c9 57       		.byte	0x57
 8918 19ca 9C010000 		.4byte	.LVL551
 8919 19ce C0010000 		.4byte	.LVL558
 8920 19d2 0300     		.2byte	0x3
 8921 19d4 77       		.byte	0x77
 8922 19d5 04       		.sleb128 4
 8923 19d6 9F       		.byte	0x9f
 8924 19d7 C0010000 		.4byte	.LVL558
 8925 19db C9010000 		.4byte	.LVL560-1
 8926 19df 0100     		.2byte	0x1
 8927 19e1 53       		.byte	0x53
 8928 19e2 C9010000 		.4byte	.LVL560-1
 8929 19e6 F0010000 		.4byte	.LVL565
 8930 19ea 0300     		.2byte	0x3
 8931 19ec 91       		.byte	0x91
 8932 19ed BC7F     		.sleb128 -68
ARM GAS  C:\Users\rdn\AppData\Local\Temp\ccCJgMYD.s 			page 169


 8933 19ef F0010000 		.4byte	.LVL565
 8934 19f3 FC010000 		.4byte	.LVL566
 8935 19f7 0100     		.2byte	0x1
 8936 19f9 57       		.byte	0x57
 8937 19fa 00000000 		.4byte	0
 8938 19fe 00000000 		.4byte	0
 8939              	.LLST118:
 8940 1a02 62000000 		.4byte	.LVL498
 8941 1a06 64000000 		.4byte	.LVL499
 8942 1a0a 0100     		.2byte	0x1
 8943 1a0c 53       		.byte	0x53
 8944 1a0d 64000000 		.4byte	.LVL499
 8945 1a11 9C010000 		.4byte	.LVL551
 8946 1a15 0200     		.2byte	0x2
 8947 1a17 91       		.byte	0x91
 8948 1a18 48       		.sleb128 -56
 8949 1a19 9C010000 		.4byte	.LVL551
 8950 1a1d A8010000 		.4byte	.LVL554
 8951 1a21 0100     		.2byte	0x1
 8952 1a23 56       		.byte	0x56
 8953 1a24 A8010000 		.4byte	.LVL554
 8954 1a28 B4010000 		.4byte	.LVL556
 8955 1a2c 0300     		.2byte	0x3
 8956 1a2e 76       		.byte	0x76
 8957 1a2f 7C       		.sleb128 -4
 8958 1a30 9F       		.byte	0x9f
 8959 1a31 B4010000 		.4byte	.LVL556
 8960 1a35 B8010000 		.4byte	.LVL557
 8961 1a39 0100     		.2byte	0x1
 8962 1a3b 53       		.byte	0x53
 8963 1a3c B8010000 		.4byte	.LVL557
 8964 1a40 CE010000 		.4byte	.LVL561
 8965 1a44 0300     		.2byte	0x3
 8966 1a46 76       		.byte	0x76
 8967 1a47 7C       		.sleb128 -4
 8968 1a48 9F       		.byte	0x9f
 8969 1a49 CE010000 		.4byte	.LVL561
 8970 1a4d 02020000 		.4byte	.LVL569
 8971 1a51 0100     		.2byte	0x1
 8972 1a53 56       		.byte	0x56
 8973 1a54 02020000 		.4byte	.LVL569
 8974 1a58 14020000 		.4byte	.LVL575
 8975 1a5c 0100     		.2byte	0x1
 8976 1a5e 55       		.byte	0x55
 8977 1a5f 14020000 		.4byte	.LVL575
 8978 1a63 20020000 		.4byte	.LVL577
 8979 1a67 0300     		.2byte	0x3
 8980 1a69 75       		.byte	0x75
 8981 1a6a 7C       		.sleb128 -4
 8982 1a6b 9F       		.byte	0x9f
 8983 1a6c 20020000 		.4byte	.LVL577
 8984 1a70 24020000 		.4byte	.LVL578
 8985 1a74 0100     		.2byte	0x1
 8986 1a76 53       		.byte	0x53
 8987 1a77 24020000 		.4byte	.LVL578
 8988 1a7b 36020000 		.4byte	.LVL582
 8989 1a7f 0300     		.2byte	0x3
ARM GAS  C:\Users\rdn\AppData\Local\Temp\ccCJgMYD.s 			page 170


 8990 1a81 75       		.byte	0x75
 8991 1a82 7C       		.sleb128 -4
 8992 1a83 9F       		.byte	0x9f
 8993 1a84 36020000 		.4byte	.LVL582
 8994 1a88 58020000 		.4byte	.LVL588
 8995 1a8c 0100     		.2byte	0x1
 8996 1a8e 55       		.byte	0x55
 8997 1a8f 00000000 		.4byte	0
 8998 1a93 00000000 		.4byte	0
 8999              	.LLST119:
 9000 1a97 62000000 		.4byte	.LVL498
 9001 1a9b 78000000 		.4byte	.LVL502
 9002 1a9f 0100     		.2byte	0x1
 9003 1aa1 5A       		.byte	0x5a
 9004 1aa2 78000000 		.4byte	.LVL502
 9005 1aa6 08020000 		.4byte	.LVL572
 9006 1aaa 0200     		.2byte	0x2
 9007 1aac 91       		.byte	0x91
 9008 1aad 54       		.sleb128 -44
 9009 1aae 08020000 		.4byte	.LVL572
 9010 1ab2 28020000 		.4byte	.LVL579
 9011 1ab6 0300     		.2byte	0x3
 9012 1ab8 77       		.byte	0x77
 9013 1ab9 04       		.sleb128 4
 9014 1aba 9F       		.byte	0x9f
 9015 1abb 28020000 		.4byte	.LVL579
 9016 1abf 52020000 		.4byte	.LVL586
 9017 1ac3 0100     		.2byte	0x1
 9018 1ac5 5A       		.byte	0x5a
 9019 1ac6 52020000 		.4byte	.LVL586
 9020 1aca 58020000 		.4byte	.LVL590
 9021 1ace 0100     		.2byte	0x1
 9022 1ad0 57       		.byte	0x57
 9023 1ad1 00000000 		.4byte	0
 9024 1ad5 00000000 		.4byte	0
 9025              	.LLST120:
 9026 1ad9 1E000000 		.4byte	.LVL488
 9027 1add 2A000000 		.4byte	.LVL489
 9028 1ae1 0100     		.2byte	0x1
 9029 1ae3 51       		.byte	0x51
 9030 1ae4 00000000 		.4byte	0
 9031 1ae8 00000000 		.4byte	0
 9032              	.LLST121:
 9033 1aec 1E000000 		.4byte	.LVL488
 9034 1af0 2A000000 		.4byte	.LVL489
 9035 1af4 0100     		.2byte	0x1
 9036 1af6 50       		.byte	0x50
 9037 1af7 00000000 		.4byte	0
 9038 1afb 00000000 		.4byte	0
 9039              	.LLST122:
 9040 1aff 2E000000 		.4byte	.LVL490
 9041 1b03 34000000 		.4byte	.LVL491
 9042 1b07 0100     		.2byte	0x1
 9043 1b09 51       		.byte	0x51
 9044 1b0a 00000000 		.4byte	0
 9045 1b0e 00000000 		.4byte	0
 9046              	.LLST123:
ARM GAS  C:\Users\rdn\AppData\Local\Temp\ccCJgMYD.s 			page 171


 9047 1b12 2E000000 		.4byte	.LVL490
 9048 1b16 3C000000 		.4byte	.LVL493
 9049 1b1a 0100     		.2byte	0x1
 9050 1b1c 50       		.byte	0x50
 9051 1b1d 00000000 		.4byte	0
 9052 1b21 00000000 		.4byte	0
 9053              	.LLST124:
 9054 1b25 00000000 		.4byte	.LVL592
 9055 1b29 0E000000 		.4byte	.LVL594
 9056 1b2d 0100     		.2byte	0x1
 9057 1b2f 50       		.byte	0x50
 9058 1b30 0E000000 		.4byte	.LVL594
 9059 1b34 1A000000 		.4byte	.LVL596
 9060 1b38 0300     		.2byte	0x3
 9061 1b3a 74       		.byte	0x74
 9062 1b3b 04       		.sleb128 4
 9063 1b3c 9F       		.byte	0x9f
 9064 1b3d 1A000000 		.4byte	.LVL596
 9065 1b41 24000000 		.4byte	.LVL598
 9066 1b45 0300     		.2byte	0x3
 9067 1b47 74       		.byte	0x74
 9068 1b48 08       		.sleb128 8
 9069 1b49 9F       		.byte	0x9f
 9070 1b4a 24000000 		.4byte	.LVL598
 9071 1b4e 36000000 		.4byte	.LVL600
 9072 1b52 0300     		.2byte	0x3
 9073 1b54 74       		.byte	0x74
 9074 1b55 0C       		.sleb128 12
 9075 1b56 9F       		.byte	0x9f
 9076 1b57 36000000 		.4byte	.LVL600
 9077 1b5b 3D000000 		.4byte	.LVL601-1
 9078 1b5f 0100     		.2byte	0x1
 9079 1b61 53       		.byte	0x53
 9080 1b62 3D000000 		.4byte	.LVL601-1
 9081 1b66 44000000 		.4byte	.LVL603
 9082 1b6a 0100     		.2byte	0x1
 9083 1b6c 57       		.byte	0x57
 9084 1b6d 44000000 		.4byte	.LVL603
 9085 1b71 4C000000 		.4byte	.LVL604
 9086 1b75 0100     		.2byte	0x1
 9087 1b77 54       		.byte	0x54
 9088 1b78 00000000 		.4byte	0
 9089 1b7c 00000000 		.4byte	0
 9090              	.LLST125:
 9091 1b80 00000000 		.4byte	.LVL592
 9092 1b84 0E000000 		.4byte	.LVL594
 9093 1b88 0100     		.2byte	0x1
 9094 1b8a 51       		.byte	0x51
 9095 1b8b 0E000000 		.4byte	.LVL594
 9096 1b8f 4C000000 		.4byte	.LVL605
 9097 1b93 0100     		.2byte	0x1
 9098 1b95 55       		.byte	0x55
 9099 1b96 4C000000 		.4byte	.LVL605
 9100 1b9a 4E000000 		.4byte	.LFE30
 9101 1b9e 0400     		.2byte	0x4
 9102 1ba0 F3       		.byte	0xf3
 9103 1ba1 01       		.uleb128 0x1
ARM GAS  C:\Users\rdn\AppData\Local\Temp\ccCJgMYD.s 			page 172


 9104 1ba2 51       		.byte	0x51
 9105 1ba3 9F       		.byte	0x9f
 9106 1ba4 00000000 		.4byte	0
 9107 1ba8 00000000 		.4byte	0
 9108              	.LLST126:
 9109 1bac 00000000 		.4byte	.LVL592
 9110 1bb0 0E000000 		.4byte	.LVL594
 9111 1bb4 0100     		.2byte	0x1
 9112 1bb6 52       		.byte	0x52
 9113 1bb7 0E000000 		.4byte	.LVL594
 9114 1bbb 4E000000 		.4byte	.LFE30
 9115 1bbf 0600     		.2byte	0x6
 9116 1bc1 F3       		.byte	0xf3
 9117 1bc2 03       		.uleb128 0x3
 9118 1bc3 F5       		.byte	0xf5
 9119 1bc4 02       		.uleb128 0x2
 9120 1bc5 25       		.uleb128 0x25
 9121 1bc6 9F       		.byte	0x9f
 9122 1bc7 00000000 		.4byte	0
 9123 1bcb 00000000 		.4byte	0
 9124              	.LLST127:
 9125 1bcf 0A000000 		.4byte	.LVL593
 9126 1bd3 0E000000 		.4byte	.LVL594
 9127 1bd7 0200     		.2byte	0x2
 9128 1bd9 30       		.byte	0x30
 9129 1bda 9F       		.byte	0x9f
 9130 1bdb 0E000000 		.4byte	.LVL594
 9131 1bdf 4C000000 		.4byte	.LVL606
 9132 1be3 0100     		.2byte	0x1
 9133 1be5 56       		.byte	0x56
 9134 1be6 00000000 		.4byte	0
 9135 1bea 00000000 		.4byte	0
 9136              	.LLST128:
 9137 1bee 00000000 		.4byte	.LVL607
 9138 1bf2 3B000000 		.4byte	.LVL613-1
 9139 1bf6 0100     		.2byte	0x1
 9140 1bf8 50       		.byte	0x50
 9141 1bf9 3B000000 		.4byte	.LVL613-1
 9142 1bfd BC000000 		.4byte	.LFE31
 9143 1c01 0400     		.2byte	0x4
 9144 1c03 F3       		.byte	0xf3
 9145 1c04 01       		.uleb128 0x1
 9146 1c05 50       		.byte	0x50
 9147 1c06 9F       		.byte	0x9f
 9148 1c07 00000000 		.4byte	0
 9149 1c0b 00000000 		.4byte	0
 9150              	.LLST129:
 9151 1c0f 00000000 		.4byte	.LVL607
 9152 1c13 3B000000 		.4byte	.LVL613-1
 9153 1c17 0100     		.2byte	0x1
 9154 1c19 51       		.byte	0x51
 9155 1c1a 3B000000 		.4byte	.LVL613-1
 9156 1c1e BC000000 		.4byte	.LFE31
 9157 1c22 0400     		.2byte	0x4
 9158 1c24 F3       		.byte	0xf3
 9159 1c25 01       		.uleb128 0x1
 9160 1c26 51       		.byte	0x51
ARM GAS  C:\Users\rdn\AppData\Local\Temp\ccCJgMYD.s 			page 173


 9161 1c27 9F       		.byte	0x9f
 9162 1c28 00000000 		.4byte	0
 9163 1c2c 00000000 		.4byte	0
 9164              	.LLST130:
 9165 1c30 00000000 		.4byte	.LVL607
 9166 1c34 18000000 		.4byte	.LVL610
 9167 1c38 0100     		.2byte	0x1
 9168 1c3a 52       		.byte	0x52
 9169 1c3b 18000000 		.4byte	.LVL610
 9170 1c3f BC000000 		.4byte	.LFE31
 9171 1c43 0400     		.2byte	0x4
 9172 1c45 F3       		.byte	0xf3
 9173 1c46 01       		.uleb128 0x1
 9174 1c47 52       		.byte	0x52
 9175 1c48 9F       		.byte	0x9f
 9176 1c49 00000000 		.4byte	0
 9177 1c4d 00000000 		.4byte	0
 9178              	.LLST131:
 9179 1c51 00000000 		.4byte	.LVL607
 9180 1c55 0A000000 		.4byte	.LVL608
 9181 1c59 0100     		.2byte	0x1
 9182 1c5b 53       		.byte	0x53
 9183 1c5c 0A000000 		.4byte	.LVL608
 9184 1c60 BC000000 		.4byte	.LFE31
 9185 1c64 0300     		.2byte	0x3
 9186 1c66 91       		.byte	0x91
 9187 1c67 E461     		.sleb128 -3868
 9188 1c69 00000000 		.4byte	0
 9189 1c6d 00000000 		.4byte	0
 9190              	.LLST132:
 9191 1c71 14000000 		.4byte	.LVL609
 9192 1c75 A4000000 		.4byte	.LVL622
 9193 1c79 0100     		.2byte	0x1
 9194 1c7b 57       		.byte	0x57
 9195 1c7c 00000000 		.4byte	0
 9196 1c80 00000000 		.4byte	0
 9197              	.LLST133:
 9198 1c84 14000000 		.4byte	.LVL609
 9199 1c88 18000000 		.4byte	.LVL610
 9200 1c8c 0100     		.2byte	0x1
 9201 1c8e 52       		.byte	0x52
 9202 1c8f 18000000 		.4byte	.LVL610
 9203 1c93 20000000 		.4byte	.LVL611
 9204 1c97 0400     		.2byte	0x4
 9205 1c99 F3       		.byte	0xf3
 9206 1c9a 01       		.uleb128 0x1
 9207 1c9b 52       		.byte	0x52
 9208 1c9c 9F       		.byte	0x9f
 9209 1c9d 00000000 		.4byte	0
 9210 1ca1 00000000 		.4byte	0
 9211              	.LLST134:
 9212 1ca5 14000000 		.4byte	.LVL609
 9213 1ca9 20000000 		.4byte	.LVL611
 9214 1cad 0100     		.2byte	0x1
 9215 1caf 50       		.byte	0x50
 9216 1cb0 00000000 		.4byte	0
 9217 1cb4 00000000 		.4byte	0
ARM GAS  C:\Users\rdn\AppData\Local\Temp\ccCJgMYD.s 			page 174


 9218              	.LLST135:
 9219 1cb8 20000000 		.4byte	.LVL611
 9220 1cbc 26000000 		.4byte	.LVL612
 9221 1cc0 0100     		.2byte	0x1
 9222 1cc2 51       		.byte	0x51
 9223 1cc3 00000000 		.4byte	0
 9224 1cc7 00000000 		.4byte	0
 9225              	.LLST136:
 9226 1ccb 20000000 		.4byte	.LVL611
 9227 1ccf 26000000 		.4byte	.LVL612
 9228 1cd3 0100     		.2byte	0x1
 9229 1cd5 50       		.byte	0x50
 9230 1cd6 00000000 		.4byte	0
 9231 1cda 00000000 		.4byte	0
 9232              	.LLST137:
 9233 1cde 00000000 		.4byte	.LVL623
 9234 1ce2 0C000000 		.4byte	.LVL624
 9235 1ce6 0100     		.2byte	0x1
 9236 1ce8 50       		.byte	0x50
 9237 1ce9 0C000000 		.4byte	.LVL624
 9238 1ced C8000000 		.4byte	.LFE32
 9239 1cf1 0400     		.2byte	0x4
 9240 1cf3 F3       		.byte	0xf3
 9241 1cf4 01       		.uleb128 0x1
 9242 1cf5 50       		.byte	0x50
 9243 1cf6 9F       		.byte	0x9f
 9244 1cf7 00000000 		.4byte	0
 9245 1cfb 00000000 		.4byte	0
 9246              	.LLST138:
 9247 1cff 00000000 		.4byte	.LVL623
 9248 1d03 14000000 		.4byte	.LVL625
 9249 1d07 0100     		.2byte	0x1
 9250 1d09 51       		.byte	0x51
 9251 1d0a 14000000 		.4byte	.LVL625
 9252 1d0e C8000000 		.4byte	.LFE32
 9253 1d12 0400     		.2byte	0x4
 9254 1d14 F3       		.byte	0xf3
 9255 1d15 01       		.uleb128 0x1
 9256 1d16 51       		.byte	0x51
 9257 1d17 9F       		.byte	0x9f
 9258 1d18 00000000 		.4byte	0
 9259 1d1c 00000000 		.4byte	0
 9260              	.LLST139:
 9261 1d20 00000000 		.4byte	.LVL623
 9262 1d24 1C000000 		.4byte	.LVL628
 9263 1d28 0100     		.2byte	0x1
 9264 1d2a 52       		.byte	0x52
 9265 1d2b 1C000000 		.4byte	.LVL628
 9266 1d2f C8000000 		.4byte	.LFE32
 9267 1d33 0400     		.2byte	0x4
 9268 1d35 F3       		.byte	0xf3
 9269 1d36 01       		.uleb128 0x1
 9270 1d37 52       		.byte	0x52
 9271 1d38 9F       		.byte	0x9f
 9272 1d39 00000000 		.4byte	0
 9273 1d3d 00000000 		.4byte	0
 9274              	.LLST140:
ARM GAS  C:\Users\rdn\AppData\Local\Temp\ccCJgMYD.s 			page 175


 9275 1d41 00000000 		.4byte	.LVL623
 9276 1d45 3B000000 		.4byte	.LVL632-1
 9277 1d49 0100     		.2byte	0x1
 9278 1d4b 53       		.byte	0x53
 9279 1d4c 3B000000 		.4byte	.LVL632-1
 9280 1d50 C8000000 		.4byte	.LFE32
 9281 1d54 0400     		.2byte	0x4
 9282 1d56 F3       		.byte	0xf3
 9283 1d57 01       		.uleb128 0x1
 9284 1d58 53       		.byte	0x53
 9285 1d59 9F       		.byte	0x9f
 9286 1d5a 00000000 		.4byte	0
 9287 1d5e 00000000 		.4byte	0
 9288              	.LLST141:
 9289 1d62 18000000 		.4byte	.LVL626
 9290 1d66 1A000000 		.4byte	.LVL627
 9291 1d6a 0100     		.2byte	0x1
 9292 1d6c 51       		.byte	0x51
 9293 1d6d 3B000000 		.4byte	.LVL632-1
 9294 1d71 74000000 		.4byte	.LVL638
 9295 1d75 0300     		.2byte	0x3
 9296 1d77 91       		.byte	0x91
 9297 1d78 E461     		.sleb128 -3868
 9298 1d7a 00000000 		.4byte	0
 9299 1d7e 00000000 		.4byte	0
 9300              	.LLST142:
 9301 1d82 2A000000 		.4byte	.LVL631
 9302 1d86 60000000 		.4byte	.LVL634
 9303 1d8a 0200     		.2byte	0x2
 9304 1d8c 91       		.byte	0x91
 9305 1d8d 04       		.sleb128 4
 9306 1d8e 60000000 		.4byte	.LVL634
 9307 1d92 64000000 		.4byte	.LVL635
 9308 1d96 0100     		.2byte	0x1
 9309 1d98 50       		.byte	0x50
 9310 1d99 64000000 		.4byte	.LVL635
 9311 1d9d 67000000 		.4byte	.LVL636-1
 9312 1da1 0100     		.2byte	0x1
 9313 1da3 51       		.byte	0x51
 9314 1da4 00000000 		.4byte	0
 9315 1da8 00000000 		.4byte	0
 9316              	.LLST143:
 9317 1dac 18000000 		.4byte	.LVL626
 9318 1db0 1C000000 		.4byte	.LVL628
 9319 1db4 0100     		.2byte	0x1
 9320 1db6 52       		.byte	0x52
 9321 1db7 1C000000 		.4byte	.LVL628
 9322 1dbb 24000000 		.4byte	.LVL630
 9323 1dbf 0400     		.2byte	0x4
 9324 1dc1 F3       		.byte	0xf3
 9325 1dc2 01       		.uleb128 0x1
 9326 1dc3 52       		.byte	0x52
 9327 1dc4 9F       		.byte	0x9f
 9328 1dc5 00000000 		.4byte	0
 9329 1dc9 00000000 		.4byte	0
 9330              	.LLST144:
 9331 1dcd 18000000 		.4byte	.LVL626
ARM GAS  C:\Users\rdn\AppData\Local\Temp\ccCJgMYD.s 			page 176


 9332 1dd1 24000000 		.4byte	.LVL630
 9333 1dd5 0100     		.2byte	0x1
 9334 1dd7 55       		.byte	0x55
 9335 1dd8 00000000 		.4byte	0
 9336 1ddc 00000000 		.4byte	0
 9337              	.LLST145:
 9338 1de0 24000000 		.4byte	.LVL630
 9339 1de4 2A000000 		.4byte	.LVL631
 9340 1de8 0100     		.2byte	0x1
 9341 1dea 57       		.byte	0x57
 9342 1deb 00000000 		.4byte	0
 9343 1def 00000000 		.4byte	0
 9344              	.LLST146:
 9345 1df3 24000000 		.4byte	.LVL630
 9346 1df7 2A000000 		.4byte	.LVL631
 9347 1dfb 0100     		.2byte	0x1
 9348 1dfd 55       		.byte	0x55
 9349 1dfe 00000000 		.4byte	0
 9350 1e02 00000000 		.4byte	0
 9351              		.section	.debug_aranges,"",%progbits
 9352 0000 64000000 		.4byte	0x64
 9353 0004 0200     		.2byte	0x2
 9354 0006 00000000 		.4byte	.Ldebug_info0
 9355 000a 04       		.byte	0x4
 9356 000b 00       		.byte	0
 9357 000c 0000     		.2byte	0
 9358 000e 0000     		.2byte	0
 9359 0010 00000000 		.4byte	.LFB23
 9360 0014 7C070000 		.4byte	.LFE23-.LFB23
 9361 0018 00000000 		.4byte	.LFB24
 9362 001c 6C020000 		.4byte	.LFE24-.LFB24
 9363 0020 00000000 		.4byte	.LFB25
 9364 0024 28010000 		.4byte	.LFE25-.LFB25
 9365 0028 00000000 		.4byte	.LFB26
 9366 002c 02010000 		.4byte	.LFE26-.LFB26
 9367 0030 00000000 		.4byte	.LFB27
 9368 0034 28010000 		.4byte	.LFE27-.LFB27
 9369 0038 00000000 		.4byte	.LFB28
 9370 003c 1C010000 		.4byte	.LFE28-.LFB28
 9371 0040 00000000 		.4byte	.LFB29
 9372 0044 70020000 		.4byte	.LFE29-.LFB29
 9373 0048 00000000 		.4byte	.LFB30
 9374 004c 4E000000 		.4byte	.LFE30-.LFB30
 9375 0050 00000000 		.4byte	.LFB31
 9376 0054 BC000000 		.4byte	.LFE31-.LFB31
 9377 0058 00000000 		.4byte	.LFB32
 9378 005c C8000000 		.4byte	.LFE32-.LFB32
 9379 0060 00000000 		.4byte	0
 9380 0064 00000000 		.4byte	0
 9381              		.section	.debug_ranges,"",%progbits
 9382              	.Ldebug_ranges0:
 9383 0000 98030000 		.4byte	.LBB43
 9384 0004 B8050000 		.4byte	.LBE43
 9385 0008 BC050000 		.4byte	.LBB44
 9386 000c C4050000 		.4byte	.LBE44
 9387 0010 00000000 		.4byte	0
 9388 0014 00000000 		.4byte	0
ARM GAS  C:\Users\rdn\AppData\Local\Temp\ccCJgMYD.s 			page 177


 9389 0018 60060000 		.4byte	.LBB48
 9390 001c 24070000 		.4byte	.LBE48
 9391 0020 28070000 		.4byte	.LBB49
 9392 0024 2C070000 		.4byte	.LBE49
 9393 0028 00000000 		.4byte	0
 9394 002c 00000000 		.4byte	0
 9395 0030 3C000000 		.4byte	.LBB55
 9396 0034 E0000000 		.4byte	.LBE55
 9397 0038 E8000000 		.4byte	.LBB56
 9398 003c F0000000 		.4byte	.LBE56
 9399 0040 00000000 		.4byte	0
 9400 0044 00000000 		.4byte	0
 9401 0048 00000000 		.4byte	.LFB23
 9402 004c 7C070000 		.4byte	.LFE23
 9403 0050 00000000 		.4byte	.LFB24
 9404 0054 6C020000 		.4byte	.LFE24
 9405 0058 00000000 		.4byte	.LFB25
 9406 005c 28010000 		.4byte	.LFE25
 9407 0060 00000000 		.4byte	.LFB26
 9408 0064 02010000 		.4byte	.LFE26
 9409 0068 00000000 		.4byte	.LFB27
 9410 006c 28010000 		.4byte	.LFE27
 9411 0070 00000000 		.4byte	.LFB28
 9412 0074 1C010000 		.4byte	.LFE28
 9413 0078 00000000 		.4byte	.LFB29
 9414 007c 70020000 		.4byte	.LFE29
 9415 0080 00000000 		.4byte	.LFB30
 9416 0084 4E000000 		.4byte	.LFE30
 9417 0088 00000000 		.4byte	.LFB31
 9418 008c BC000000 		.4byte	.LFE31
 9419 0090 00000000 		.4byte	.LFB32
 9420 0094 C8000000 		.4byte	.LFE32
 9421 0098 00000000 		.4byte	0
 9422 009c 00000000 		.4byte	0
 9423              		.section	.debug_line,"",%progbits
 9424              	.Ldebug_line0:
 9425 0000 8F030000 		.section	.debug_str,"MS",%progbits,1
 9425      0200DD00 
 9425      00000201 
 9425      FB0E0D00 
 9425      01010101 
 9426              	.LASF41:
 9427 0000 6666745F 		.ascii	"fft_bf3\000"
 9427      62663300 
 9428              	.LASF29:
 9429 0008 646F7562 		.ascii	"double\000"
 9429      6C6500
 9430              	.LASF16:
 9431 000f 6C63335F 		.ascii	"lc3_srate\000"
 9431      73726174 
 9431      6500
 9432              	.LASF64:
 9433 0019 6C63335F 		.ascii	"lc3_mdct_rot\000"
 9433      6D646374 
 9433      5F726F74 
 9433      00
 9434              	.LASF43:
ARM GAS  C:\Users\rdn\AppData\Local\Temp\ccCJgMYD.s 			page 178


 9435 0026 6666745F 		.ascii	"fft_bf2\000"
 9435      62663200 
 9436              	.LASF3:
 9437 002e 73686F72 		.ascii	"short int\000"
 9437      7420696E 
 9437      7400
 9438              	.LASF52:
 9439 0038 6E735F64 		.ascii	"ns_dst\000"
 9439      737400
 9440              	.LASF26:
 9441 003f 73697A65 		.ascii	"sizetype\000"
 9441      74797065 
 9441      00
 9442              	.LASF33:
 9443 0048 6C63335F 		.ascii	"lc3_mdct_rot_def\000"
 9443      6D646374 
 9443      5F726F74 
 9443      5F646566 
 9443      00
 9444              	.LASF54:
 9445 0059 6C63335F 		.ascii	"lc3_mdct_forward\000"
 9445      6D646374 
 9445      5F666F72 
 9445      77617264 
 9445      00
 9446              	.LASF66:
 9447 006a 474E5520 		.ascii	"GNU C11 5.4.1 20160609 (release) [ARM/embedded-5-br"
 9447      43313120 
 9447      352E342E 
 9447      31203230 
 9447      31363036 
 9448 009d 616E6368 		.ascii	"anch revision 237715] -mcpu=cortex-m0plus -mthumb -"
 9448      20726576 
 9448      6973696F 
 9448      6E203233 
 9448      37373135 
 9449 00d0 67202D4F 		.ascii	"g -Og -ffunction-sections -ffat-lto-objects\000"
 9449      67202D66 
 9449      66756E63 
 9449      74696F6E 
 9449      2D736563 
 9450              	.LASF50:
 9451 00fc 72657363 		.ascii	"rescale\000"
 9451      616C6500 
 9452              	.LASF15:
 9453 0104 6C63335F 		.ascii	"lc3_dt\000"
 9453      647400
 9454              	.LASF22:
 9455 010b 4C43335F 		.ascii	"LC3_SRATE_48K_HR\000"
 9455      53524154 
 9455      455F3438 
 9455      4B5F4852 
 9455      00
 9456              	.LASF46:
 9457 011c 6D646374 		.ascii	"mdct_post_fft\000"
 9457      5F706F73 
 9457      745F6666 
ARM GAS  C:\Users\rdn\AppData\Local\Temp\ccCJgMYD.s 			page 179


 9457      7400
 9458              	.LASF47:
 9459 012a 696D6463 		.ascii	"imdct_pre_fft\000"
 9459      745F7072 
 9459      655F6666 
 9459      7400
 9460              	.LASF61:
 9461 0138 6C63335F 		.ascii	"lc3_frame_bytes_hr_lim\000"
 9461      6672616D 
 9461      655F6279 
 9461      7465735F 
 9461      68725F6C 
 9462              	.LASF12:
 9463 014f 4C43335F 		.ascii	"LC3_DT_7M5\000"
 9463      44545F37 
 9463      4D3500
 9464              	.LASF59:
 9465 015a 6C63335F 		.ascii	"lc3_ne_2m5\000"
 9465      6E655F32 
 9465      6D3500
 9466              	.LASF17:
 9467 0165 4C43335F 		.ascii	"LC3_SRATE_8K\000"
 9467      53524154 
 9467      455F384B 
 9467      00
 9468              	.LASF23:
 9469 0172 4C43335F 		.ascii	"LC3_SRATE_96K_HR\000"
 9469      53524154 
 9469      455F3936 
 9469      4B5F4852 
 9469      00
 9470              	.LASF13:
 9471 0183 4C43335F 		.ascii	"LC3_DT_10M\000"
 9471      44545F31 
 9471      304D00
 9472              	.LASF44:
 9473 018e 6D646374 		.ascii	"mdct_window\000"
 9473      5F77696E 
 9473      646F7700 
 9474              	.LASF55:
 9475 019a 6C63335F 		.ascii	"lc3_mdct_inverse\000"
 9475      6D646374 
 9475      5F696E76 
 9475      65727365 
 9475      00
 9476              	.LASF0:
 9477 01ab 666C6F61 		.ascii	"float\000"
 9477      7400
 9478              	.LASF7:
 9479 01b1 6C6F6E67 		.ascii	"long long int\000"
 9479      206C6F6E 
 9479      6720696E 
 9479      7400
 9480              	.LASF32:
 9481 01bf 6C63335F 		.ascii	"lc3_fft_bf2_twiddles\000"
 9481      6666745F 
 9481      6266325F 
ARM GAS  C:\Users\rdn\AppData\Local\Temp\ccCJgMYD.s 			page 180


 9481      74776964 
 9481      646C6573 
 9482              	.LASF20:
 9483 01d4 4C43335F 		.ascii	"LC3_SRATE_32K\000"
 9483      53524154 
 9483      455F3332 
 9483      4B00
 9484              	.LASF36:
 9485 01e2 636F7331 		.ascii	"cos1\000"
 9485      00
 9486              	.LASF37:
 9487 01e7 636F7332 		.ascii	"cos2\000"
 9487      00
 9488              	.LASF38:
 9489 01ec 73696E31 		.ascii	"sin1\000"
 9489      00
 9490              	.LASF39:
 9491 01f1 73696E32 		.ascii	"sin2\000"
 9491      00
 9492              	.LASF40:
 9493 01f6 6666745F 		.ascii	"fft_5\000"
 9493      3500
 9494              	.LASF67:
 9495 01fc 2E2E5C2E 		.ascii	"..\\..\\..\\liblc3\\src\\mdct.c\000"
 9495      2E5C2E2E 
 9495      5C6C6962 
 9495      6C63335C 
 9495      7372635C 
 9496              	.LASF27:
 9497 0217 6C6F6E67 		.ascii	"long double\000"
 9497      20646F75 
 9497      626C6500 
 9498              	.LASF62:
 9499 0223 6C63335F 		.ascii	"lc3_fft_twiddles_bf3\000"
 9499      6666745F 
 9499      74776964 
 9499      646C6573 
 9499      5F626633 
 9500              	.LASF2:
 9501 0238 756E7369 		.ascii	"unsigned char\000"
 9501      676E6564 
 9501      20636861 
 9501      7200
 9502              	.LASF1:
 9503 0246 7369676E 		.ascii	"signed char\000"
 9503      65642063 
 9503      68617200 
 9504              	.LASF8:
 9505 0252 6C6F6E67 		.ascii	"long long unsigned int\000"
 9505      206C6F6E 
 9505      6720756E 
 9505      7369676E 
 9505      65642069 
 9506              	.LASF68:
 9507 0269 433A5C55 		.ascii	"C:\\Users\\rdn\\Documents\\PSoC Creator\\SEES\\ble_"
 9507      73657273 
 9507      5C72646E 
ARM GAS  C:\Users\rdn\AppData\Local\Temp\ccCJgMYD.s 			page 181


 9507      5C446F63 
 9507      756D656E 
 9508 0296 74657374 		.ascii	"test.cydsn\000"
 9508      2E637964 
 9508      736E00
 9509              	.LASF9:
 9510 02a1 756E7369 		.ascii	"unsigned int\000"
 9510      676E6564 
 9510      20696E74 
 9510      00
 9511              	.LASF48:
 9512 02ae 696D6463 		.ascii	"imdct_post_fft\000"
 9512      745F706F 
 9512      73745F66 
 9512      667400
 9513              	.LASF30:
 9514 02bd 6C63335F 		.ascii	"lc3_complex\000"
 9514      636F6D70 
 9514      6C657800 
 9515              	.LASF19:
 9516 02c9 4C43335F 		.ascii	"LC3_SRATE_24K\000"
 9516      53524154 
 9516      455F3234 
 9516      4B00
 9517              	.LASF28:
 9518 02d7 63686172 		.ascii	"char\000"
 9518      00
 9519              	.LASF5:
 9520 02dc 6C6F6E67 		.ascii	"long int\000"
 9520      20696E74 
 9520      00
 9521              	.LASF56:
 9522 02e5 73725F73 		.ascii	"sr_src\000"
 9522      726300
 9523              	.LASF24:
 9524 02ec 4C43335F 		.ascii	"LC3_NUM_SRATE\000"
 9524      4E554D5F 
 9524      53524154 
 9524      4500
 9525              	.LASF4:
 9526 02fa 73686F72 		.ascii	"short unsigned int\000"
 9526      7420756E 
 9526      7369676E 
 9526      65642069 
 9526      6E7400
 9527              	.LASF25:
 9528 030d 5F426F6F 		.ascii	"_Bool\000"
 9528      6C00
 9529              	.LASF51:
 9530 0313 73725F64 		.ascii	"sr_dst\000"
 9530      737400
 9531              	.LASF53:
 9532 031a 62756666 		.ascii	"buffer\000"
 9532      657200
 9533              	.LASF57:
 9534 0321 6E735F73 		.ascii	"ns_src\000"
 9534      726300
ARM GAS  C:\Users\rdn\AppData\Local\Temp\ccCJgMYD.s 			page 182


 9535              	.LASF60:
 9536 0328 6C63335F 		.ascii	"lc3_ns_4m\000"
 9536      6E735F34 
 9536      6D00
 9537              	.LASF6:
 9538 0332 6C6F6E67 		.ascii	"long unsigned int\000"
 9538      20756E73 
 9538      69676E65 
 9538      6420696E 
 9538      7400
 9539              	.LASF35:
 9540 0344 6C63335F 		.ascii	"lc3_nd\000"
 9540      6E6400
 9541              	.LASF18:
 9542 034b 4C43335F 		.ascii	"LC3_SRATE_16K\000"
 9542      53524154 
 9542      455F3136 
 9542      4B00
 9543              	.LASF10:
 9544 0359 4C43335F 		.ascii	"LC3_DT_2M5\000"
 9544      44545F32 
 9544      4D3500
 9545              	.LASF45:
 9546 0364 6D646374 		.ascii	"mdct_pre_fft\000"
 9546      5F707265 
 9546      5F666674 
 9546      00
 9547              	.LASF21:
 9548 0371 4C43335F 		.ascii	"LC3_SRATE_48K\000"
 9548      53524154 
 9548      455F3438 
 9548      4B00
 9549              	.LASF65:
 9550 037f 6C63335F 		.ascii	"lc3_mdct_win\000"
 9550      6D646374 
 9550      5F77696E 
 9550      00
 9551              	.LASF49:
 9552 038c 696D6463 		.ascii	"imdct_window\000"
 9552      745F7769 
 9552      6E646F77 
 9552      00
 9553              	.LASF14:
 9554 0399 4C43335F 		.ascii	"LC3_NUM_DT\000"
 9554      4E554D5F 
 9554      445400
 9555              	.LASF34:
 9556 03a4 6C63335F 		.ascii	"lc3_ns\000"
 9556      6E7300
 9557              	.LASF69:
 9558 03ab 73717274 		.ascii	"sqrtf\000"
 9558      6600
 9559              	.LASF58:
 9560 03b1 6C63335F 		.ascii	"lc3_ns_2m5\000"
 9560      6E735F32 
 9560      6D3500
 9561              	.LASF31:
ARM GAS  C:\Users\rdn\AppData\Local\Temp\ccCJgMYD.s 			page 183


 9562 03bc 6C63335F 		.ascii	"lc3_fft_bf3_twiddles\000"
 9562      6666745F 
 9562      6266335F 
 9562      74776964 
 9562      646C6573 
 9563              	.LASF42:
 9564 03d1 74776964 		.ascii	"twiddles\000"
 9564      646C6573 
 9564      00
 9565              	.LASF11:
 9566 03da 4C43335F 		.ascii	"LC3_DT_5M\000"
 9566      44545F35 
 9566      4D00
 9567              	.LASF63:
 9568 03e4 6C63335F 		.ascii	"lc3_fft_twiddles_bf2\000"
 9568      6666745F 
 9568      74776964 
 9568      646C6573 
 9568      5F626632 
 9569              		.ident	"GCC: (GNU Tools for ARM Embedded Processors) 5.4.1 20160609 (release) [ARM/embedded-5-bran
