ARM GAS  C:\Users\rdn\AppData\Local\Temp\ccCJgMYD.s 			page 1


   1              		.syntax unified
   2              		.cpu cortex-m0plus
   3              		.fpu softvfp
   4              		.eabi_attribute 20, 1
   5              		.eabi_attribute 21, 1
   6              		.eabi_attribute 23, 3
   7              		.eabi_attribute 24, 1
   8              		.eabi_attribute 25, 1
   9              		.eabi_attribute 26, 1
  10              		.eabi_attribute 30, 1
  11              		.eabi_attribute 34, 0
  12              		.eabi_attribute 18, 4
  13              		.thumb
  14              		.syntax unified
  15              		.file	"mdct.c"
  16              		.text
  17              	.Ltext0:
  18              		.cfi_sections	.debug_frame
  19              		.global	__aeabi_idiv
  20              		.global	__aeabi_fadd
  21              		.global	__aeabi_fsub
  22              		.global	__aeabi_fmul
  23              		.section	.text.fft,"ax",%progbits
  24              		.align	2
  25              		.code	16
  26              		.thumb_func
  27              		.type	fft, %function
  28              	fft:
  29              	.LFB23:
  30              		.file 1 "..\\..\\..\\liblc3\\src\\mdct.c"
   1:..\..\..\liblc3\src/mdct.c **** /******************************************************************************
   2:..\..\..\liblc3\src/mdct.c ****  *
   3:..\..\..\liblc3\src/mdct.c ****  *  Copyright 2022 Google LLC
   4:..\..\..\liblc3\src/mdct.c ****  *
   5:..\..\..\liblc3\src/mdct.c ****  *  Licensed under the Apache License, Version 2.0 (the "License");
   6:..\..\..\liblc3\src/mdct.c ****  *  you may not use this file except in compliance with the License.
   7:..\..\..\liblc3\src/mdct.c ****  *  You may obtain a copy of the License at:
   8:..\..\..\liblc3\src/mdct.c ****  *
   9:..\..\..\liblc3\src/mdct.c ****  *  http://www.apache.org/licenses/LICENSE-2.0
  10:..\..\..\liblc3\src/mdct.c ****  *
  11:..\..\..\liblc3\src/mdct.c ****  *  Unless required by applicable law or agreed to in writing, software
  12:..\..\..\liblc3\src/mdct.c ****  *  distributed under the License is distributed on an "AS IS" BASIS,
  13:..\..\..\liblc3\src/mdct.c ****  *  WITHOUT WARRANTIES OR CONDITIONS OF ANY KIND, either express or implied.
  14:..\..\..\liblc3\src/mdct.c ****  *  See the License for the specific language governing permissions and
  15:..\..\..\liblc3\src/mdct.c ****  *  limitations under the License.
  16:..\..\..\liblc3\src/mdct.c ****  *
  17:..\..\..\liblc3\src/mdct.c ****  ******************************************************************************/
  18:..\..\..\liblc3\src/mdct.c **** 
  19:..\..\..\liblc3\src/mdct.c **** #include "mdct.h"
  20:..\..\..\liblc3\src/mdct.c **** #include "tables.h"
  21:..\..\..\liblc3\src/mdct.c **** 
  22:..\..\..\liblc3\src/mdct.c **** #include "mdct_neon.h"
  23:..\..\..\liblc3\src/mdct.c **** 
  24:..\..\..\liblc3\src/mdct.c **** 
  25:..\..\..\liblc3\src/mdct.c **** /* ----------------------------------------------------------------------------
  26:..\..\..\liblc3\src/mdct.c ****  *  FFT processing
  27:..\..\..\liblc3\src/mdct.c ****  * -------------------------------------------------------------------------- */
ARM GAS  C:\Users\rdn\AppData\Local\Temp\ccCJgMYD.s 			page 2


  28:..\..\..\liblc3\src/mdct.c **** 
  29:..\..\..\liblc3\src/mdct.c **** /**
  30:..\..\..\liblc3\src/mdct.c ****  * FFT 5 Points
  31:..\..\..\liblc3\src/mdct.c ****  * x, y            Input and output coefficients, of size 5xn
  32:..\..\..\liblc3\src/mdct.c ****  * n               Number of interleaved transform to perform (n % 2 = 0)
  33:..\..\..\liblc3\src/mdct.c ****  */
  34:..\..\..\liblc3\src/mdct.c **** #ifndef fft_5
  35:..\..\..\liblc3\src/mdct.c **** LC3_HOT static inline void fft_5(
  36:..\..\..\liblc3\src/mdct.c ****     const struct lc3_complex *x, struct lc3_complex *y, int n)
  37:..\..\..\liblc3\src/mdct.c **** {
  38:..\..\..\liblc3\src/mdct.c ****     static const float cos1 =  0.3090169944;  /* cos(-2Pi 1/5) */
  39:..\..\..\liblc3\src/mdct.c ****     static const float cos2 = -0.8090169944;  /* cos(-2Pi 2/5) */
  40:..\..\..\liblc3\src/mdct.c **** 
  41:..\..\..\liblc3\src/mdct.c ****     static const float sin1 = -0.9510565163;  /* sin(-2Pi 1/5) */
  42:..\..\..\liblc3\src/mdct.c ****     static const float sin2 = -0.5877852523;  /* sin(-2Pi 2/5) */
  43:..\..\..\liblc3\src/mdct.c **** 
  44:..\..\..\liblc3\src/mdct.c ****     for (int i = 0; i < n; i++, x++, y+= 5) {
  45:..\..\..\liblc3\src/mdct.c **** 
  46:..\..\..\liblc3\src/mdct.c ****         struct lc3_complex s14 =
  47:..\..\..\liblc3\src/mdct.c ****             { x[1*n].re + x[4*n].re, x[1*n].im + x[4*n].im };
  48:..\..\..\liblc3\src/mdct.c ****         struct lc3_complex d14 =
  49:..\..\..\liblc3\src/mdct.c ****             { x[1*n].re - x[4*n].re, x[1*n].im - x[4*n].im };
  50:..\..\..\liblc3\src/mdct.c **** 
  51:..\..\..\liblc3\src/mdct.c ****         struct lc3_complex s23 =
  52:..\..\..\liblc3\src/mdct.c ****             { x[2*n].re + x[3*n].re, x[2*n].im + x[3*n].im };
  53:..\..\..\liblc3\src/mdct.c ****         struct lc3_complex d23 =
  54:..\..\..\liblc3\src/mdct.c ****             { x[2*n].re - x[3*n].re, x[2*n].im - x[3*n].im };
  55:..\..\..\liblc3\src/mdct.c **** 
  56:..\..\..\liblc3\src/mdct.c ****         y[0].re = x[0].re + s14.re + s23.re;
  57:..\..\..\liblc3\src/mdct.c **** 
  58:..\..\..\liblc3\src/mdct.c ****         y[0].im = x[0].im + s14.im + s23.im;
  59:..\..\..\liblc3\src/mdct.c **** 
  60:..\..\..\liblc3\src/mdct.c ****         y[1].re = x[0].re + s14.re * cos1 - d14.im * sin1
  61:..\..\..\liblc3\src/mdct.c ****                           + s23.re * cos2 - d23.im * sin2;
  62:..\..\..\liblc3\src/mdct.c **** 
  63:..\..\..\liblc3\src/mdct.c ****         y[1].im = x[0].im + s14.im * cos1 + d14.re * sin1
  64:..\..\..\liblc3\src/mdct.c ****                           + s23.im * cos2 + d23.re * sin2;
  65:..\..\..\liblc3\src/mdct.c **** 
  66:..\..\..\liblc3\src/mdct.c ****         y[2].re = x[0].re + s14.re * cos2 - d14.im * sin2
  67:..\..\..\liblc3\src/mdct.c ****                           + s23.re * cos1 + d23.im * sin1;
  68:..\..\..\liblc3\src/mdct.c **** 
  69:..\..\..\liblc3\src/mdct.c ****         y[2].im = x[0].im + s14.im * cos2 + d14.re * sin2
  70:..\..\..\liblc3\src/mdct.c ****                           + s23.im * cos1 - d23.re * sin1;
  71:..\..\..\liblc3\src/mdct.c **** 
  72:..\..\..\liblc3\src/mdct.c ****         y[3].re = x[0].re + s14.re * cos2 + d14.im * sin2
  73:..\..\..\liblc3\src/mdct.c ****                           + s23.re * cos1 - d23.im * sin1;
  74:..\..\..\liblc3\src/mdct.c **** 
  75:..\..\..\liblc3\src/mdct.c ****         y[3].im = x[0].im + s14.im * cos2 - d14.re * sin2
  76:..\..\..\liblc3\src/mdct.c ****                           + s23.im * cos1 + d23.re * sin1;
  77:..\..\..\liblc3\src/mdct.c **** 
  78:..\..\..\liblc3\src/mdct.c ****         y[4].re = x[0].re + s14.re * cos1 + d14.im * sin1
  79:..\..\..\liblc3\src/mdct.c ****                           + s23.re * cos2 + d23.im * sin2;
  80:..\..\..\liblc3\src/mdct.c **** 
  81:..\..\..\liblc3\src/mdct.c ****         y[4].im = x[0].im + s14.im * cos1 - d14.re * sin1
  82:..\..\..\liblc3\src/mdct.c ****                           + s23.im * cos2 - d23.re * sin2;
  83:..\..\..\liblc3\src/mdct.c ****     }
  84:..\..\..\liblc3\src/mdct.c **** }
ARM GAS  C:\Users\rdn\AppData\Local\Temp\ccCJgMYD.s 			page 3


  85:..\..\..\liblc3\src/mdct.c **** #endif /* fft_5 */
  86:..\..\..\liblc3\src/mdct.c **** 
  87:..\..\..\liblc3\src/mdct.c **** /**
  88:..\..\..\liblc3\src/mdct.c ****  * FFT Butterfly 3 Points
  89:..\..\..\liblc3\src/mdct.c ****  * x, y            Input and output coefficients
  90:..\..\..\liblc3\src/mdct.c ****  * twiddles        Twiddles factors, determine size of transform
  91:..\..\..\liblc3\src/mdct.c ****  * n               Number of interleaved transforms
  92:..\..\..\liblc3\src/mdct.c ****  */
  93:..\..\..\liblc3\src/mdct.c **** #ifndef fft_bf3
  94:..\..\..\liblc3\src/mdct.c **** LC3_HOT static inline void fft_bf3(
  95:..\..\..\liblc3\src/mdct.c ****     const struct lc3_fft_bf3_twiddles *twiddles,
  96:..\..\..\liblc3\src/mdct.c ****     const struct lc3_complex *x, struct lc3_complex *y, int n)
  97:..\..\..\liblc3\src/mdct.c **** {
  98:..\..\..\liblc3\src/mdct.c ****     int n3 = twiddles->n3;
  99:..\..\..\liblc3\src/mdct.c ****     const struct lc3_complex (*w0)[2] = twiddles->t;
 100:..\..\..\liblc3\src/mdct.c ****     const struct lc3_complex (*w1)[2] = w0 + n3, (*w2)[2] = w1 + n3;
 101:..\..\..\liblc3\src/mdct.c **** 
 102:..\..\..\liblc3\src/mdct.c ****     const struct lc3_complex *x0 = x, *x1 = x0 + n*n3, *x2 = x1 + n*n3;
 103:..\..\..\liblc3\src/mdct.c ****     struct lc3_complex *y0 = y, *y1 = y0 + n3, *y2 = y1 + n3;
 104:..\..\..\liblc3\src/mdct.c **** 
 105:..\..\..\liblc3\src/mdct.c ****     for (int i = 0; i < n; i++, y0 += 3*n3, y1 += 3*n3, y2 += 3*n3)
 106:..\..\..\liblc3\src/mdct.c ****         for (int j = 0; j < n3; j++, x0++, x1++, x2++) {
 107:..\..\..\liblc3\src/mdct.c **** 
 108:..\..\..\liblc3\src/mdct.c ****             y0[j].re = x0->re + x1->re * w0[j][0].re - x1->im * w0[j][0].im
 109:..\..\..\liblc3\src/mdct.c ****                               + x2->re * w0[j][1].re - x2->im * w0[j][1].im;
 110:..\..\..\liblc3\src/mdct.c **** 
 111:..\..\..\liblc3\src/mdct.c ****             y0[j].im = x0->im + x1->im * w0[j][0].re + x1->re * w0[j][0].im
 112:..\..\..\liblc3\src/mdct.c ****                               + x2->im * w0[j][1].re + x2->re * w0[j][1].im;
 113:..\..\..\liblc3\src/mdct.c **** 
 114:..\..\..\liblc3\src/mdct.c ****             y1[j].re = x0->re + x1->re * w1[j][0].re - x1->im * w1[j][0].im
 115:..\..\..\liblc3\src/mdct.c ****                               + x2->re * w1[j][1].re - x2->im * w1[j][1].im;
 116:..\..\..\liblc3\src/mdct.c **** 
 117:..\..\..\liblc3\src/mdct.c ****             y1[j].im = x0->im + x1->im * w1[j][0].re + x1->re * w1[j][0].im
 118:..\..\..\liblc3\src/mdct.c ****                               + x2->im * w1[j][1].re + x2->re * w1[j][1].im;
 119:..\..\..\liblc3\src/mdct.c **** 
 120:..\..\..\liblc3\src/mdct.c ****             y2[j].re = x0->re + x1->re * w2[j][0].re - x1->im * w2[j][0].im
 121:..\..\..\liblc3\src/mdct.c ****                               + x2->re * w2[j][1].re - x2->im * w2[j][1].im;
 122:..\..\..\liblc3\src/mdct.c **** 
 123:..\..\..\liblc3\src/mdct.c ****             y2[j].im = x0->im + x1->im * w2[j][0].re + x1->re * w2[j][0].im
 124:..\..\..\liblc3\src/mdct.c ****                               + x2->im * w2[j][1].re + x2->re * w2[j][1].im;
 125:..\..\..\liblc3\src/mdct.c ****         }
 126:..\..\..\liblc3\src/mdct.c **** }
 127:..\..\..\liblc3\src/mdct.c **** #endif /* fft_bf3 */
 128:..\..\..\liblc3\src/mdct.c **** 
 129:..\..\..\liblc3\src/mdct.c **** /**
 130:..\..\..\liblc3\src/mdct.c ****  * FFT Butterfly 2 Points
 131:..\..\..\liblc3\src/mdct.c ****  * twiddles        Twiddles factors, determine size of transform
 132:..\..\..\liblc3\src/mdct.c ****  * x, y            Input and output coefficients
 133:..\..\..\liblc3\src/mdct.c ****  * n               Number of interleaved transforms
 134:..\..\..\liblc3\src/mdct.c ****  */
 135:..\..\..\liblc3\src/mdct.c **** #ifndef fft_bf2
 136:..\..\..\liblc3\src/mdct.c **** LC3_HOT static inline void fft_bf2(
 137:..\..\..\liblc3\src/mdct.c ****     const struct lc3_fft_bf2_twiddles *twiddles,
 138:..\..\..\liblc3\src/mdct.c ****     const struct lc3_complex *x, struct lc3_complex *y, int n)
 139:..\..\..\liblc3\src/mdct.c **** {
 140:..\..\..\liblc3\src/mdct.c ****     int n2 = twiddles->n2;
 141:..\..\..\liblc3\src/mdct.c ****     const struct lc3_complex *w = twiddles->t;
ARM GAS  C:\Users\rdn\AppData\Local\Temp\ccCJgMYD.s 			page 4


 142:..\..\..\liblc3\src/mdct.c **** 
 143:..\..\..\liblc3\src/mdct.c ****     const struct lc3_complex *x0 = x, *x1 = x0 + n*n2;
 144:..\..\..\liblc3\src/mdct.c ****     struct lc3_complex *y0 = y, *y1 = y0 + n2;
 145:..\..\..\liblc3\src/mdct.c **** 
 146:..\..\..\liblc3\src/mdct.c ****     for (int i = 0; i < n; i++, y0 += 2*n2, y1 += 2*n2) {
 147:..\..\..\liblc3\src/mdct.c **** 
 148:..\..\..\liblc3\src/mdct.c ****         for (int j = 0; j < n2; j++, x0++, x1++) {
 149:..\..\..\liblc3\src/mdct.c **** 
 150:..\..\..\liblc3\src/mdct.c ****             y0[j].re = x0->re + x1->re * w[j].re - x1->im * w[j].im;
 151:..\..\..\liblc3\src/mdct.c ****             y0[j].im = x0->im + x1->im * w[j].re + x1->re * w[j].im;
 152:..\..\..\liblc3\src/mdct.c **** 
 153:..\..\..\liblc3\src/mdct.c ****             y1[j].re = x0->re - x1->re * w[j].re + x1->im * w[j].im;
 154:..\..\..\liblc3\src/mdct.c ****             y1[j].im = x0->im - x1->im * w[j].re - x1->re * w[j].im;
 155:..\..\..\liblc3\src/mdct.c ****         }
 156:..\..\..\liblc3\src/mdct.c ****     }
 157:..\..\..\liblc3\src/mdct.c **** }
 158:..\..\..\liblc3\src/mdct.c **** #endif /* fft_bf2 */
 159:..\..\..\liblc3\src/mdct.c **** 
 160:..\..\..\liblc3\src/mdct.c **** /**
 161:..\..\..\liblc3\src/mdct.c ****  * Perform FFT
 162:..\..\..\liblc3\src/mdct.c ****  * x, y0, y1       Input, and 2 scratch buffers of size `n`
 163:..\..\..\liblc3\src/mdct.c ****  * n               Number of points 30, 40, 60, 80, 90, 120, 160, 180, 240, 480
 164:..\..\..\liblc3\src/mdct.c ****  * return          The buffer `y0` or `y1` that hold the result
 165:..\..\..\liblc3\src/mdct.c ****  *
 166:..\..\..\liblc3\src/mdct.c ****  * Input `x` can be the same as the `y0` second scratch buffer
 167:..\..\..\liblc3\src/mdct.c ****  */
 168:..\..\..\liblc3\src/mdct.c **** static struct lc3_complex *fft(const struct lc3_complex *x, int n,
 169:..\..\..\liblc3\src/mdct.c ****     struct lc3_complex *y0, struct lc3_complex *y1)
 170:..\..\..\liblc3\src/mdct.c **** {
  31              		.loc 1 170 0
  32              		.cfi_startproc
  33              		@ args = 0, pretend = 0, frame = 56
  34              		@ frame_needed = 0, uses_anonymous_args = 0
  35              	.LVL0:
  36 0000 F0B5     		push	{r4, r5, r6, r7, lr}
  37              		.cfi_def_cfa_offset 20
  38              		.cfi_offset 4, -20
  39              		.cfi_offset 5, -16
  40              		.cfi_offset 6, -12
  41              		.cfi_offset 7, -8
  42              		.cfi_offset 14, -4
  43 0002 5F46     		mov	r7, fp
  44 0004 5646     		mov	r6, r10
  45 0006 4D46     		mov	r5, r9
  46 0008 4446     		mov	r4, r8
  47 000a F0B4     		push	{r4, r5, r6, r7}
  48              		.cfi_def_cfa_offset 36
  49              		.cfi_offset 8, -36
  50              		.cfi_offset 9, -32
  51              		.cfi_offset 10, -28
  52              		.cfi_offset 11, -24
  53 000c 8FB0     		sub	sp, sp, #60
  54              		.cfi_def_cfa_offset 96
  55 000e 0400     		movs	r4, r0
  56 0010 0800     		movs	r0, r1
  57              	.LVL1:
  58 0012 1F00     		movs	r7, r3
ARM GAS  C:\Users\rdn\AppData\Local\Temp\ccCJgMYD.s 			page 5


 171:..\..\..\liblc3\src/mdct.c ****     struct lc3_complex *y[2] = { y1, y0 };
  59              		.loc 1 171 0
  60 0014 0C93     		str	r3, [sp, #48]
  61 0016 0D92     		str	r2, [sp, #52]
  62              	.LVL2:
 172:..\..\..\liblc3\src/mdct.c ****     int i2, i3, is = 0;
 173:..\..\..\liblc3\src/mdct.c **** 
 174:..\..\..\liblc3\src/mdct.c ****     /* The number of points `n` can be decomposed as :
 175:..\..\..\liblc3\src/mdct.c ****      *
 176:..\..\..\liblc3\src/mdct.c ****      *   n = 5^1 * 3^n3 * 2^n2
 177:..\..\..\liblc3\src/mdct.c ****      *
 178:..\..\..\liblc3\src/mdct.c ****      *   for n = 10, 20, 40, 80, 160    n3 = 0, n2 = [1..5]
 179:..\..\..\liblc3\src/mdct.c ****      *       n = 30, 60, 120, 240, 480  n3 = 1, n2 = [1..5]
 180:..\..\..\liblc3\src/mdct.c ****      *       n = 90, 180                n3 = 2, n2 = [1..2]
 181:..\..\..\liblc3\src/mdct.c ****      *
 182:..\..\..\liblc3\src/mdct.c ****      * Note that the expression `n & (n-1) == 0` is equivalent
 183:..\..\..\liblc3\src/mdct.c ****      * to the check that `n` is a power of 2. */
 184:..\..\..\liblc3\src/mdct.c **** 
 185:..\..\..\liblc3\src/mdct.c ****     fft_5(x, y[is], n /= 5);
  63              		.loc 1 185 0
  64 0018 0521     		movs	r1, #5
  65              	.LVL3:
  66 001a FFF7FEFF 		bl	__aeabi_idiv
  67              	.LVL4:
  68 001e 0990     		str	r0, [sp, #36]
  69              	.LVL5:
  70              	.LBB36:
  71              	.LBB37:
  72              	.LBB38:
  44:..\..\..\liblc3\src/mdct.c **** 
  73              		.loc 1 44 0
  74 0020 0023     		movs	r3, #0
  75 0022 9846     		mov	r8, r3
  76 0024 8346     		mov	fp, r0
  77 0026 BA46     		mov	r10, r7
  78 0028 2700     		movs	r7, r4
  79              	.LVL6:
  80 002a 6BE1     		b	.L2
  81              	.LVL7:
  82              	.L3:
  83              	.LBB39:
  47:..\..\..\liblc3\src/mdct.c ****         struct lc3_complex d14 =
  84              		.loc 1 47 0
  85 002c 5B46     		mov	r3, fp
  86 002e DD00     		lsls	r5, r3, #3
  87 0030 7D19     		adds	r5, r7, r5
  88 0032 2C68     		ldr	r4, [r5]
  89 0034 5E01     		lsls	r6, r3, #5
  90 0036 BE19     		adds	r6, r7, r6
  91 0038 3368     		ldr	r3, [r6]
  92 003a 0093     		str	r3, [sp]
  93 003c 191C     		adds	r1, r3, #0
  94 003e 201C     		adds	r0, r4, #0
  95 0040 FFF7FEFF 		bl	__aeabi_fadd
  96              	.LVL8:
  97 0044 0290     		str	r0, [sp, #8]
  98 0046 6D68     		ldr	r5, [r5, #4]
ARM GAS  C:\Users\rdn\AppData\Local\Temp\ccCJgMYD.s 			page 6


  99 0048 7668     		ldr	r6, [r6, #4]
 100 004a 311C     		adds	r1, r6, #0
 101 004c 281C     		adds	r0, r5, #0
 102 004e FFF7FEFF 		bl	__aeabi_fadd
 103              	.LVL9:
 104 0052 0390     		str	r0, [sp, #12]
  49:..\..\..\liblc3\src/mdct.c **** 
 105              		.loc 1 49 0
 106 0054 0099     		ldr	r1, [sp]
 107 0056 201C     		adds	r0, r4, #0
 108 0058 FFF7FEFF 		bl	__aeabi_fsub
 109              	.LVL10:
 110 005c 0090     		str	r0, [sp]
 111 005e 311C     		adds	r1, r6, #0
 112 0060 281C     		adds	r0, r5, #0
 113 0062 FFF7FEFF 		bl	__aeabi_fsub
 114              	.LVL11:
 115 0066 0190     		str	r0, [sp, #4]
  52:..\..\..\liblc3\src/mdct.c ****         struct lc3_complex d23 =
 116              		.loc 1 52 0
 117 0068 5B46     		mov	r3, fp
 118 006a 1D01     		lsls	r5, r3, #4
 119 006c 7D19     		adds	r5, r7, r5
 120 006e 2C68     		ldr	r4, [r5]
 121 0070 5B00     		lsls	r3, r3, #1
 122 0072 5B44     		add	r3, r3, fp
 123 0074 DE00     		lsls	r6, r3, #3
 124 0076 BE19     		adds	r6, r7, r6
 125 0078 3368     		ldr	r3, [r6]
 126 007a 0693     		str	r3, [sp, #24]
 127 007c 191C     		adds	r1, r3, #0
 128 007e 201C     		adds	r0, r4, #0
 129 0080 FFF7FEFF 		bl	__aeabi_fadd
 130              	.LVL12:
 131 0084 0490     		str	r0, [sp, #16]
 132 0086 6D68     		ldr	r5, [r5, #4]
 133 0088 7668     		ldr	r6, [r6, #4]
 134 008a 311C     		adds	r1, r6, #0
 135 008c 281C     		adds	r0, r5, #0
 136 008e FFF7FEFF 		bl	__aeabi_fadd
 137              	.LVL13:
 138 0092 0590     		str	r0, [sp, #20]
  54:..\..\..\liblc3\src/mdct.c **** 
 139              		.loc 1 54 0
 140 0094 0699     		ldr	r1, [sp, #24]
 141 0096 201C     		adds	r0, r4, #0
 142 0098 FFF7FEFF 		bl	__aeabi_fsub
 143              	.LVL14:
 144 009c 0690     		str	r0, [sp, #24]
 145 009e 311C     		adds	r1, r6, #0
 146 00a0 281C     		adds	r0, r5, #0
 147 00a2 FFF7FEFF 		bl	__aeabi_fsub
 148              	.LVL15:
 149 00a6 051C     		adds	r5, r0, #0
  56:..\..\..\liblc3\src/mdct.c **** 
 150              		.loc 1 56 0
 151 00a8 3968     		ldr	r1, [r7]
ARM GAS  C:\Users\rdn\AppData\Local\Temp\ccCJgMYD.s 			page 7


 152 00aa 0298     		ldr	r0, [sp, #8]
 153 00ac FFF7FEFF 		bl	__aeabi_fadd
 154              	.LVL16:
 155 00b0 011C     		adds	r1, r0, #0
 156 00b2 0498     		ldr	r0, [sp, #16]
 157 00b4 FFF7FEFF 		bl	__aeabi_fadd
 158              	.LVL17:
 159 00b8 5346     		mov	r3, r10
 160 00ba 1860     		str	r0, [r3]
  58:..\..\..\liblc3\src/mdct.c **** 
 161              		.loc 1 58 0
 162 00bc 7968     		ldr	r1, [r7, #4]
 163 00be 0398     		ldr	r0, [sp, #12]
 164 00c0 FFF7FEFF 		bl	__aeabi_fadd
 165              	.LVL18:
 166 00c4 011C     		adds	r1, r0, #0
 167 00c6 059E     		ldr	r6, [sp, #20]
 168 00c8 301C     		adds	r0, r6, #0
 169 00ca FFF7FEFF 		bl	__aeabi_fadd
 170              	.LVL19:
 171 00ce 5346     		mov	r3, r10
 172 00d0 5860     		str	r0, [r3, #4]
  60:..\..\..\liblc3\src/mdct.c ****                           + s23.re * cos2 - d23.im * sin2;
 173              		.loc 1 60 0
 174 00d2 3C68     		ldr	r4, [r7]
 175 00d4 A949     		ldr	r1, .L16
 176 00d6 0298     		ldr	r0, [sp, #8]
 177 00d8 FFF7FEFF 		bl	__aeabi_fmul
 178              	.LVL20:
 179 00dc 0790     		str	r0, [sp, #28]
 180 00de 011C     		adds	r1, r0, #0
 181 00e0 201C     		adds	r0, r4, #0
 182 00e2 FFF7FEFF 		bl	__aeabi_fadd
 183              	.LVL21:
 184 00e6 041C     		adds	r4, r0, #0
 185 00e8 A549     		ldr	r1, .L16+4
 186 00ea 0198     		ldr	r0, [sp, #4]
 187 00ec FFF7FEFF 		bl	__aeabi_fmul
 188              	.LVL22:
 189 00f0 011C     		adds	r1, r0, #0
 190 00f2 201C     		adds	r0, r4, #0
 191 00f4 FFF7FEFF 		bl	__aeabi_fadd
 192              	.LVL23:
 193 00f8 041C     		adds	r4, r0, #0
  61:..\..\..\liblc3\src/mdct.c **** 
 194              		.loc 1 61 0
 195 00fa A249     		ldr	r1, .L16+8
 196 00fc 0498     		ldr	r0, [sp, #16]
 197 00fe FFF7FEFF 		bl	__aeabi_fmul
 198              	.LVL24:
 199 0102 0890     		str	r0, [sp, #32]
 200 0104 011C     		adds	r1, r0, #0
 201 0106 201C     		adds	r0, r4, #0
 202 0108 FFF7FEFF 		bl	__aeabi_fadd
 203              	.LVL25:
 204 010c 041C     		adds	r4, r0, #0
 205 010e 9E49     		ldr	r1, .L16+12
ARM GAS  C:\Users\rdn\AppData\Local\Temp\ccCJgMYD.s 			page 8


 206 0110 281C     		adds	r0, r5, #0
 207 0112 FFF7FEFF 		bl	__aeabi_fmul
 208              	.LVL26:
 209 0116 011C     		adds	r1, r0, #0
 210 0118 201C     		adds	r0, r4, #0
 211 011a FFF7FEFF 		bl	__aeabi_fadd
 212              	.LVL27:
  60:..\..\..\liblc3\src/mdct.c ****                           + s23.re * cos2 - d23.im * sin2;
 213              		.loc 1 60 0
 214 011e 5246     		mov	r2, r10
 215 0120 9060     		str	r0, [r2, #8]
  63:..\..\..\liblc3\src/mdct.c ****                           + s23.im * cos2 + d23.re * sin2;
 216              		.loc 1 63 0
 217 0122 7C68     		ldr	r4, [r7, #4]
 218 0124 9549     		ldr	r1, .L16
 219 0126 0398     		ldr	r0, [sp, #12]
 220 0128 FFF7FEFF 		bl	__aeabi_fmul
 221              	.LVL28:
 222 012c 0A90     		str	r0, [sp, #40]
 223 012e 011C     		adds	r1, r0, #0
 224 0130 201C     		adds	r0, r4, #0
 225 0132 FFF7FEFF 		bl	__aeabi_fadd
 226              	.LVL29:
 227 0136 041C     		adds	r4, r0, #0
 228 0138 9449     		ldr	r1, .L16+16
 229 013a 0098     		ldr	r0, [sp]
 230 013c FFF7FEFF 		bl	__aeabi_fmul
 231              	.LVL30:
 232 0140 011C     		adds	r1, r0, #0
 233 0142 201C     		adds	r0, r4, #0
 234 0144 FFF7FEFF 		bl	__aeabi_fadd
 235              	.LVL31:
 236 0148 041C     		adds	r4, r0, #0
  64:..\..\..\liblc3\src/mdct.c **** 
 237              		.loc 1 64 0
 238 014a 8E49     		ldr	r1, .L16+8
 239 014c 0596     		str	r6, [sp, #20]
 240 014e 301C     		adds	r0, r6, #0
 241 0150 FFF7FEFF 		bl	__aeabi_fmul
 242              	.LVL32:
 243 0154 0B90     		str	r0, [sp, #44]
 244 0156 011C     		adds	r1, r0, #0
 245 0158 201C     		adds	r0, r4, #0
 246 015a FFF7FEFF 		bl	__aeabi_fadd
 247              	.LVL33:
 248 015e 041C     		adds	r4, r0, #0
 249 0160 8B49     		ldr	r1, .L16+20
 250 0162 0698     		ldr	r0, [sp, #24]
 251 0164 FFF7FEFF 		bl	__aeabi_fmul
 252              	.LVL34:
 253 0168 011C     		adds	r1, r0, #0
 254 016a 201C     		adds	r0, r4, #0
 255 016c FFF7FEFF 		bl	__aeabi_fadd
 256              	.LVL35:
  63:..\..\..\liblc3\src/mdct.c ****                           + s23.im * cos2 + d23.re * sin2;
 257              		.loc 1 63 0
 258 0170 5246     		mov	r2, r10
ARM GAS  C:\Users\rdn\AppData\Local\Temp\ccCJgMYD.s 			page 9


 259 0172 D060     		str	r0, [r2, #12]
  66:..\..\..\liblc3\src/mdct.c ****                           + s23.re * cos1 + d23.im * sin1;
 260              		.loc 1 66 0
 261 0174 3C68     		ldr	r4, [r7]
 262 0176 8349     		ldr	r1, .L16+8
 263 0178 0298     		ldr	r0, [sp, #8]
 264 017a FFF7FEFF 		bl	__aeabi_fmul
 265              	.LVL36:
 266 017e 061C     		adds	r6, r0, #0
 267 0180 011C     		adds	r1, r0, #0
 268 0182 201C     		adds	r0, r4, #0
 269 0184 FFF7FEFF 		bl	__aeabi_fadd
 270              	.LVL37:
 271 0188 041C     		adds	r4, r0, #0
 272 018a 7F49     		ldr	r1, .L16+12
 273 018c 0198     		ldr	r0, [sp, #4]
 274 018e FFF7FEFF 		bl	__aeabi_fmul
 275              	.LVL38:
 276 0192 011C     		adds	r1, r0, #0
 277 0194 201C     		adds	r0, r4, #0
 278 0196 FFF7FEFF 		bl	__aeabi_fadd
 279              	.LVL39:
 280 019a 041C     		adds	r4, r0, #0
  67:..\..\..\liblc3\src/mdct.c **** 
 281              		.loc 1 67 0
 282 019c 7749     		ldr	r1, .L16
 283 019e 0498     		ldr	r0, [sp, #16]
 284 01a0 FFF7FEFF 		bl	__aeabi_fmul
 285              	.LVL40:
 286 01a4 0290     		str	r0, [sp, #8]
 287 01a6 011C     		adds	r1, r0, #0
 288 01a8 201C     		adds	r0, r4, #0
 289 01aa FFF7FEFF 		bl	__aeabi_fadd
 290              	.LVL41:
 291 01ae 041C     		adds	r4, r0, #0
 292 01b0 7649     		ldr	r1, .L16+16
 293 01b2 281C     		adds	r0, r5, #0
 294 01b4 FFF7FEFF 		bl	__aeabi_fmul
 295              	.LVL42:
 296 01b8 011C     		adds	r1, r0, #0
 297 01ba 201C     		adds	r0, r4, #0
 298 01bc FFF7FEFF 		bl	__aeabi_fadd
 299              	.LVL43:
  66:..\..\..\liblc3\src/mdct.c ****                           + s23.re * cos1 + d23.im * sin1;
 300              		.loc 1 66 0
 301 01c0 5246     		mov	r2, r10
 302 01c2 1061     		str	r0, [r2, #16]
  69:..\..\..\liblc3\src/mdct.c ****                           + s23.im * cos1 - d23.re * sin1;
 303              		.loc 1 69 0
 304 01c4 7C68     		ldr	r4, [r7, #4]
 305 01c6 6F49     		ldr	r1, .L16+8
 306 01c8 0398     		ldr	r0, [sp, #12]
 307 01ca FFF7FEFF 		bl	__aeabi_fmul
 308              	.LVL44:
 309 01ce 0390     		str	r0, [sp, #12]
 310 01d0 011C     		adds	r1, r0, #0
 311 01d2 201C     		adds	r0, r4, #0
ARM GAS  C:\Users\rdn\AppData\Local\Temp\ccCJgMYD.s 			page 10


 312 01d4 FFF7FEFF 		bl	__aeabi_fadd
 313              	.LVL45:
 314 01d8 041C     		adds	r4, r0, #0
 315 01da 6D49     		ldr	r1, .L16+20
 316 01dc 0098     		ldr	r0, [sp]
 317 01de FFF7FEFF 		bl	__aeabi_fmul
 318              	.LVL46:
 319 01e2 011C     		adds	r1, r0, #0
 320 01e4 201C     		adds	r0, r4, #0
 321 01e6 FFF7FEFF 		bl	__aeabi_fadd
 322              	.LVL47:
 323 01ea 041C     		adds	r4, r0, #0
  70:..\..\..\liblc3\src/mdct.c **** 
 324              		.loc 1 70 0
 325 01ec 6349     		ldr	r1, .L16
 326 01ee 0598     		ldr	r0, [sp, #20]
 327 01f0 FFF7FEFF 		bl	__aeabi_fmul
 328              	.LVL48:
 329 01f4 0490     		str	r0, [sp, #16]
 330 01f6 011C     		adds	r1, r0, #0
 331 01f8 201C     		adds	r0, r4, #0
 332 01fa FFF7FEFF 		bl	__aeabi_fadd
 333              	.LVL49:
 334 01fe 041C     		adds	r4, r0, #0
 335 0200 5F49     		ldr	r1, .L16+4
 336 0202 0698     		ldr	r0, [sp, #24]
 337 0204 FFF7FEFF 		bl	__aeabi_fmul
 338              	.LVL50:
 339 0208 011C     		adds	r1, r0, #0
 340 020a 201C     		adds	r0, r4, #0
 341 020c FFF7FEFF 		bl	__aeabi_fadd
 342              	.LVL51:
  69:..\..\..\liblc3\src/mdct.c ****                           + s23.im * cos1 - d23.re * sin1;
 343              		.loc 1 69 0
 344 0210 5246     		mov	r2, r10
 345 0212 5061     		str	r0, [r2, #20]
  72:..\..\..\liblc3\src/mdct.c ****                           + s23.re * cos1 - d23.im * sin1;
 346              		.loc 1 72 0
 347 0214 3968     		ldr	r1, [r7]
 348 0216 301C     		adds	r0, r6, #0
 349 0218 FFF7FEFF 		bl	__aeabi_fadd
 350              	.LVL52:
 351 021c 041C     		adds	r4, r0, #0
 352 021e 5C49     		ldr	r1, .L16+20
 353 0220 0198     		ldr	r0, [sp, #4]
 354 0222 FFF7FEFF 		bl	__aeabi_fmul
 355              	.LVL53:
 356 0226 011C     		adds	r1, r0, #0
 357 0228 201C     		adds	r0, r4, #0
 358 022a FFF7FEFF 		bl	__aeabi_fadd
 359              	.LVL54:
 360 022e 011C     		adds	r1, r0, #0
  73:..\..\..\liblc3\src/mdct.c **** 
 361              		.loc 1 73 0
 362 0230 0298     		ldr	r0, [sp, #8]
 363 0232 FFF7FEFF 		bl	__aeabi_fadd
 364              	.LVL55:
ARM GAS  C:\Users\rdn\AppData\Local\Temp\ccCJgMYD.s 			page 11


 365 0236 041C     		adds	r4, r0, #0
 366 0238 5149     		ldr	r1, .L16+4
 367 023a 281C     		adds	r0, r5, #0
 368 023c FFF7FEFF 		bl	__aeabi_fmul
 369              	.LVL56:
 370 0240 011C     		adds	r1, r0, #0
 371 0242 201C     		adds	r0, r4, #0
 372 0244 FFF7FEFF 		bl	__aeabi_fadd
 373              	.LVL57:
  72:..\..\..\liblc3\src/mdct.c ****                           + s23.re * cos1 - d23.im * sin1;
 374              		.loc 1 72 0
 375 0248 5246     		mov	r2, r10
 376 024a 9061     		str	r0, [r2, #24]
  75:..\..\..\liblc3\src/mdct.c ****                           + s23.im * cos1 + d23.re * sin1;
 377              		.loc 1 75 0
 378 024c 7968     		ldr	r1, [r7, #4]
 379 024e 0398     		ldr	r0, [sp, #12]
 380 0250 FFF7FEFF 		bl	__aeabi_fadd
 381              	.LVL58:
 382 0254 041C     		adds	r4, r0, #0
 383 0256 4C49     		ldr	r1, .L16+12
 384 0258 0098     		ldr	r0, [sp]
 385 025a FFF7FEFF 		bl	__aeabi_fmul
 386              	.LVL59:
 387 025e 011C     		adds	r1, r0, #0
 388 0260 201C     		adds	r0, r4, #0
 389 0262 FFF7FEFF 		bl	__aeabi_fadd
 390              	.LVL60:
 391 0266 011C     		adds	r1, r0, #0
  76:..\..\..\liblc3\src/mdct.c **** 
 392              		.loc 1 76 0
 393 0268 0498     		ldr	r0, [sp, #16]
 394 026a FFF7FEFF 		bl	__aeabi_fadd
 395              	.LVL61:
 396 026e 041C     		adds	r4, r0, #0
 397 0270 4649     		ldr	r1, .L16+16
 398 0272 069E     		ldr	r6, [sp, #24]
 399 0274 301C     		adds	r0, r6, #0
 400 0276 FFF7FEFF 		bl	__aeabi_fmul
 401              	.LVL62:
 402 027a 011C     		adds	r1, r0, #0
 403 027c 201C     		adds	r0, r4, #0
 404 027e FFF7FEFF 		bl	__aeabi_fadd
 405              	.LVL63:
  75:..\..\..\liblc3\src/mdct.c ****                           + s23.im * cos1 + d23.re * sin1;
 406              		.loc 1 75 0
 407 0282 5246     		mov	r2, r10
 408 0284 D061     		str	r0, [r2, #28]
  78:..\..\..\liblc3\src/mdct.c ****                           + s23.re * cos2 + d23.im * sin2;
 409              		.loc 1 78 0
 410 0286 3968     		ldr	r1, [r7]
 411 0288 0798     		ldr	r0, [sp, #28]
 412 028a FFF7FEFF 		bl	__aeabi_fadd
 413              	.LVL64:
 414 028e 041C     		adds	r4, r0, #0
 415 0290 3E49     		ldr	r1, .L16+16
 416 0292 0198     		ldr	r0, [sp, #4]
ARM GAS  C:\Users\rdn\AppData\Local\Temp\ccCJgMYD.s 			page 12


 417 0294 FFF7FEFF 		bl	__aeabi_fmul
 418              	.LVL65:
 419 0298 011C     		adds	r1, r0, #0
 420 029a 201C     		adds	r0, r4, #0
 421 029c FFF7FEFF 		bl	__aeabi_fadd
 422              	.LVL66:
 423 02a0 011C     		adds	r1, r0, #0
  79:..\..\..\liblc3\src/mdct.c **** 
 424              		.loc 1 79 0
 425 02a2 0898     		ldr	r0, [sp, #32]
 426 02a4 FFF7FEFF 		bl	__aeabi_fadd
 427              	.LVL67:
 428 02a8 041C     		adds	r4, r0, #0
 429 02aa 3949     		ldr	r1, .L16+20
 430 02ac 281C     		adds	r0, r5, #0
 431 02ae FFF7FEFF 		bl	__aeabi_fmul
 432              	.LVL68:
 433 02b2 011C     		adds	r1, r0, #0
 434 02b4 201C     		adds	r0, r4, #0
 435 02b6 FFF7FEFF 		bl	__aeabi_fadd
 436              	.LVL69:
  78:..\..\..\liblc3\src/mdct.c ****                           + s23.re * cos2 + d23.im * sin2;
 437              		.loc 1 78 0
 438 02ba 5246     		mov	r2, r10
 439 02bc 1062     		str	r0, [r2, #32]
  81:..\..\..\liblc3\src/mdct.c ****                           + s23.im * cos2 - d23.re * sin2;
 440              		.loc 1 81 0
 441 02be 7968     		ldr	r1, [r7, #4]
 442 02c0 0A98     		ldr	r0, [sp, #40]
 443 02c2 FFF7FEFF 		bl	__aeabi_fadd
 444              	.LVL70:
 445 02c6 041C     		adds	r4, r0, #0
 446 02c8 2D49     		ldr	r1, .L16+4
 447 02ca 0098     		ldr	r0, [sp]
 448 02cc FFF7FEFF 		bl	__aeabi_fmul
 449              	.LVL71:
 450 02d0 011C     		adds	r1, r0, #0
 451 02d2 201C     		adds	r0, r4, #0
 452 02d4 FFF7FEFF 		bl	__aeabi_fadd
 453              	.LVL72:
 454 02d8 011C     		adds	r1, r0, #0
  82:..\..\..\liblc3\src/mdct.c ****     }
 455              		.loc 1 82 0
 456 02da 0B98     		ldr	r0, [sp, #44]
 457 02dc FFF7FEFF 		bl	__aeabi_fadd
 458              	.LVL73:
 459 02e0 041C     		adds	r4, r0, #0
 460 02e2 2949     		ldr	r1, .L16+12
 461 02e4 301C     		adds	r0, r6, #0
 462 02e6 FFF7FEFF 		bl	__aeabi_fmul
 463              	.LVL74:
 464 02ea 011C     		adds	r1, r0, #0
 465 02ec 201C     		adds	r0, r4, #0
 466 02ee FFF7FEFF 		bl	__aeabi_fadd
 467              	.LVL75:
  81:..\..\..\liblc3\src/mdct.c ****                           + s23.im * cos2 - d23.re * sin2;
 468              		.loc 1 81 0
ARM GAS  C:\Users\rdn\AppData\Local\Temp\ccCJgMYD.s 			page 13


 469 02f2 5346     		mov	r3, r10
 470 02f4 5862     		str	r0, [r3, #36]
 471              	.LBE39:
  44:..\..\..\liblc3\src/mdct.c **** 
 472              		.loc 1 44 0
 473 02f6 0123     		movs	r3, #1
 474 02f8 9C46     		mov	ip, r3
 475 02fa E044     		add	r8, r8, ip
 476              	.LVL76:
 477 02fc 0837     		adds	r7, r7, #8
 478              	.LVL77:
 479 02fe 2733     		adds	r3, r3, #39
 480 0300 9C46     		mov	ip, r3
 481 0302 E244     		add	r10, r10, ip
 482              	.LVL78:
 483              	.L2:
 484 0304 C345     		cmp	fp, r8
 485 0306 00DD     		ble	.LCB489
 486 0308 90E6     		b	.L3	@long jump
 487              	.LCB489:
 488              	.LBE38:
 489              	.LBE37:
 490              	.LBE36:
 172:..\..\..\liblc3\src/mdct.c **** 
 491              		.loc 1 172 0
 492 030a 0023     		movs	r3, #0
 493 030c 0A93     		str	r3, [sp, #40]
 186:..\..\..\liblc3\src/mdct.c **** 
 187:..\..\..\liblc3\src/mdct.c ****     for (i3 = 0; n & (n-1); i3++, is ^= 1)
 494              		.loc 1 187 0
 495 030e 0B93     		str	r3, [sp, #44]
 496 0310 76E1     		b	.L4
 497              	.LVL79:
 498              	.L8:
 188:..\..\..\liblc3\src/mdct.c ****         fft_bf3(lc3_fft_twiddles_bf3[i3], y[is], y[is ^ 1], n /= 3);
 499              		.loc 1 188 0 discriminator 3
 500 0312 0B9B     		ldr	r3, [sp, #44]
 501 0314 9B00     		lsls	r3, r3, #2
 502 0316 1F4A     		ldr	r2, .L16+24
 503              	.LVL80:
 504 0318 9C58     		ldr	r4, [r3, r2]
 505 031a 0A9A     		ldr	r2, [sp, #40]
 506 031c 9300     		lsls	r3, r2, #2
 507 031e 0CA9     		add	r1, sp, #48
 508              	.LVL81:
 509 0320 5B58     		ldr	r3, [r3, r1]
 510 0322 9A46     		mov	r10, r3
 511 0324 0123     		movs	r3, #1
 512 0326 5A40     		eors	r2, r3
 513 0328 0A92     		str	r2, [sp, #40]
 514              	.LVL82:
 515 032a 9300     		lsls	r3, r2, #2
 516 032c 5B58     		ldr	r3, [r3, r1]
 517 032e 1D00     		movs	r5, r3
 518 0330 0293     		str	r3, [sp, #8]
 519 0332 0321     		movs	r1, #3
 520              	.LVL83:
ARM GAS  C:\Users\rdn\AppData\Local\Temp\ccCJgMYD.s 			page 14


 521 0334 0998     		ldr	r0, [sp, #36]
 522 0336 FFF7FEFF 		bl	__aeabi_idiv
 523              	.LVL84:
 524 033a 0990     		str	r0, [sp, #36]
 525              	.LVL85:
 526              	.LBB40:
 527              	.LBB41:
  98:..\..\..\liblc3\src/mdct.c ****     const struct lc3_complex (*w0)[2] = twiddles->t;
 528              		.loc 1 98 0 discriminator 3
 529 033c 2368     		ldr	r3, [r4]
 530 033e 1A00     		movs	r2, r3
 531 0340 0193     		str	r3, [sp, #4]
 532              	.LVL86:
  99:..\..\..\liblc3\src/mdct.c ****     const struct lc3_complex (*w1)[2] = w0 + n3, (*w2)[2] = w1 + n3;
 533              		.loc 1 99 0 discriminator 3
 534 0342 6368     		ldr	r3, [r4, #4]
 535 0344 1900     		movs	r1, r3
 536 0346 0593     		str	r3, [sp, #20]
 537              	.LVL87:
 100:..\..\..\liblc3\src/mdct.c **** 
 538              		.loc 1 100 0 discriminator 3
 539 0348 1301     		lsls	r3, r2, #4
 540 034a 8C46     		mov	ip, r1
 541 034c 9C44     		add	ip, ip, r3
 542 034e 6146     		mov	r1, ip
 543              	.LVL88:
 544 0350 0691     		str	r1, [sp, #24]
 545              	.LVL89:
 546 0352 6344     		add	r3, r3, ip
 547 0354 0793     		str	r3, [sp, #28]
 548              	.LVL90:
 102:..\..\..\liblc3\src/mdct.c ****     struct lc3_complex *y0 = y, *y1 = y0 + n3, *y2 = y1 + n3;
 549              		.loc 1 102 0 discriminator 3
 550 0356 0300     		movs	r3, r0
 551              	.LVL91:
 552 0358 5343     		muls	r3, r2
 553 035a DB00     		lsls	r3, r3, #3
 554 035c 9B46     		mov	fp, r3
 555 035e D344     		add	fp, fp, r10
 556              	.LVL92:
 557 0360 5B44     		add	r3, r3, fp
 558 0362 1E00     		movs	r6, r3
 559              	.LVL93:
 103:..\..\..\liblc3\src/mdct.c **** 
 560              		.loc 1 103 0 discriminator 3
 561 0364 D300     		lsls	r3, r2, #3
 562              	.LVL94:
 563 0366 AC46     		mov	ip, r5
 564 0368 9C44     		add	ip, ip, r3
 565 036a 6246     		mov	r2, ip
 566              	.LVL95:
 567 036c 0392     		str	r2, [sp, #12]
 568              	.LVL96:
 569 036e 6344     		add	r3, r3, ip
 570 0370 0493     		str	r3, [sp, #16]
 571              	.LVL97:
 572              	.LBB42:
ARM GAS  C:\Users\rdn\AppData\Local\Temp\ccCJgMYD.s 			page 15


 105:..\..\..\liblc3\src/mdct.c ****         for (int j = 0; j < n3; j++, x0++, x1++, x2++) {
 573              		.loc 1 105 0 discriminator 3
 574 0372 0023     		movs	r3, #0
 575              	.LVL98:
 576 0374 0893     		str	r3, [sp, #32]
 577 0376 5F46     		mov	r7, fp
 578 0378 3BE1     		b	.L5
 579              	.L17:
 580 037a C046     		.align	2
 581              	.L16:
 582 037c 7A379E3E 		.word	1050556282
 583 0380 7178733F 		.word	1064532081
 584 0384 BD1B4FBF 		.word	-1085334595
 585 0388 1879163F 		.word	1058437400
 586 038c 717873BF 		.word	-1082951567
 587 0390 187916BF 		.word	-1089046248
 588 0394 00000000 		.word	lc3_fft_twiddles_bf3
 589              	.LVL99:
 590              	.L6:
 591              	.LBB43:
 108:..\..\..\liblc3\src/mdct.c ****                               + x2->re * w0[j][1].re - x2->im * w0[j][1].im;
 592              		.loc 1 108 0
 593 0398 4B46     		mov	r3, r9
 594 039a DB00     		lsls	r3, r3, #3
 595 039c 029A     		ldr	r2, [sp, #8]
 596 039e 9046     		mov	r8, r2
 597 03a0 0093     		str	r3, [sp]
 598 03a2 9C46     		mov	ip, r3
 599 03a4 E044     		add	r8, r8, ip
 600 03a6 5146     		mov	r1, r10
 601 03a8 0D68     		ldr	r5, [r1]
 602 03aa 4946     		mov	r1, r9
 603 03ac 0901     		lsls	r1, r1, #4
 604 03ae 8B46     		mov	fp, r1
 605 03b0 0599     		ldr	r1, [sp, #20]
 606 03b2 5944     		add	r1, r1, fp
 607 03b4 0C00     		movs	r4, r1
 608 03b6 0968     		ldr	r1, [r1]
 609 03b8 3868     		ldr	r0, [r7]
 610 03ba FFF7FEFF 		bl	__aeabi_fmul
 611              	.LVL100:
 612 03be 011C     		adds	r1, r0, #0
 613 03c0 281C     		adds	r0, r5, #0
 614 03c2 FFF7FEFF 		bl	__aeabi_fadd
 615              	.LVL101:
 616 03c6 051C     		adds	r5, r0, #0
 617 03c8 6168     		ldr	r1, [r4, #4]
 618 03ca 7868     		ldr	r0, [r7, #4]
 619 03cc FFF7FEFF 		bl	__aeabi_fmul
 620              	.LVL102:
 621 03d0 011C     		adds	r1, r0, #0
 622 03d2 281C     		adds	r0, r5, #0
 623 03d4 FFF7FEFF 		bl	__aeabi_fsub
 624              	.LVL103:
 625 03d8 051C     		adds	r5, r0, #0
 109:..\..\..\liblc3\src/mdct.c **** 
 626              		.loc 1 109 0
ARM GAS  C:\Users\rdn\AppData\Local\Temp\ccCJgMYD.s 			page 16


 627 03da A168     		ldr	r1, [r4, #8]
 628 03dc 3068     		ldr	r0, [r6]
 629 03de FFF7FEFF 		bl	__aeabi_fmul
 630              	.LVL104:
 631 03e2 011C     		adds	r1, r0, #0
 632 03e4 281C     		adds	r0, r5, #0
 633 03e6 FFF7FEFF 		bl	__aeabi_fadd
 634              	.LVL105:
 635 03ea 051C     		adds	r5, r0, #0
 636 03ec E168     		ldr	r1, [r4, #12]
 637 03ee 7068     		ldr	r0, [r6, #4]
 638 03f0 FFF7FEFF 		bl	__aeabi_fmul
 639              	.LVL106:
 640 03f4 011C     		adds	r1, r0, #0
 641 03f6 281C     		adds	r0, r5, #0
 642 03f8 FFF7FEFF 		bl	__aeabi_fsub
 643              	.LVL107:
 108:..\..\..\liblc3\src/mdct.c ****                               + x2->re * w0[j][1].re - x2->im * w0[j][1].im;
 644              		.loc 1 108 0
 645 03fc 4146     		mov	r1, r8
 646 03fe 0860     		str	r0, [r1]
 111:..\..\..\liblc3\src/mdct.c ****                               + x2->im * w0[j][1].re + x2->re * w0[j][1].im;
 647              		.loc 1 111 0
 648 0400 5146     		mov	r1, r10
 649 0402 4D68     		ldr	r5, [r1, #4]
 650 0404 2168     		ldr	r1, [r4]
 651 0406 7868     		ldr	r0, [r7, #4]
 652 0408 FFF7FEFF 		bl	__aeabi_fmul
 653              	.LVL108:
 654 040c 011C     		adds	r1, r0, #0
 655 040e 281C     		adds	r0, r5, #0
 656 0410 FFF7FEFF 		bl	__aeabi_fadd
 657              	.LVL109:
 658 0414 051C     		adds	r5, r0, #0
 659 0416 6168     		ldr	r1, [r4, #4]
 660 0418 3868     		ldr	r0, [r7]
 661 041a FFF7FEFF 		bl	__aeabi_fmul
 662              	.LVL110:
 663 041e 011C     		adds	r1, r0, #0
 664 0420 281C     		adds	r0, r5, #0
 665 0422 FFF7FEFF 		bl	__aeabi_fadd
 666              	.LVL111:
 667 0426 051C     		adds	r5, r0, #0
 112:..\..\..\liblc3\src/mdct.c **** 
 668              		.loc 1 112 0
 669 0428 A168     		ldr	r1, [r4, #8]
 670 042a 7068     		ldr	r0, [r6, #4]
 671 042c FFF7FEFF 		bl	__aeabi_fmul
 672              	.LVL112:
 673 0430 011C     		adds	r1, r0, #0
 674 0432 281C     		adds	r0, r5, #0
 675 0434 FFF7FEFF 		bl	__aeabi_fadd
 676              	.LVL113:
 677 0438 051C     		adds	r5, r0, #0
 678 043a E168     		ldr	r1, [r4, #12]
 679 043c 3068     		ldr	r0, [r6]
 680 043e FFF7FEFF 		bl	__aeabi_fmul
ARM GAS  C:\Users\rdn\AppData\Local\Temp\ccCJgMYD.s 			page 17


 681              	.LVL114:
 682 0442 011C     		adds	r1, r0, #0
 683 0444 281C     		adds	r0, r5, #0
 684 0446 FFF7FEFF 		bl	__aeabi_fadd
 685              	.LVL115:
 111:..\..\..\liblc3\src/mdct.c ****                               + x2->im * w0[j][1].re + x2->re * w0[j][1].im;
 686              		.loc 1 111 0
 687 044a 4146     		mov	r1, r8
 688 044c 4860     		str	r0, [r1, #4]
 114:..\..\..\liblc3\src/mdct.c ****                               + x2->re * w1[j][1].re - x2->im * w1[j][1].im;
 689              		.loc 1 114 0
 690 044e 0399     		ldr	r1, [sp, #12]
 691 0450 009B     		ldr	r3, [sp]
 692 0452 9C46     		mov	ip, r3
 693 0454 6144     		add	r1, r1, ip
 694 0456 8846     		mov	r8, r1
 695 0458 5246     		mov	r2, r10
 696 045a 1568     		ldr	r5, [r2]
 697 045c 069A     		ldr	r2, [sp, #24]
 698 045e 5A44     		add	r2, r2, fp
 699 0460 1400     		movs	r4, r2
 700 0462 1168     		ldr	r1, [r2]
 701 0464 3868     		ldr	r0, [r7]
 702 0466 FFF7FEFF 		bl	__aeabi_fmul
 703              	.LVL116:
 704 046a 011C     		adds	r1, r0, #0
 705 046c 281C     		adds	r0, r5, #0
 706 046e FFF7FEFF 		bl	__aeabi_fadd
 707              	.LVL117:
 708 0472 051C     		adds	r5, r0, #0
 709 0474 6168     		ldr	r1, [r4, #4]
 710 0476 7868     		ldr	r0, [r7, #4]
 711 0478 FFF7FEFF 		bl	__aeabi_fmul
 712              	.LVL118:
 713 047c 011C     		adds	r1, r0, #0
 714 047e 281C     		adds	r0, r5, #0
 715 0480 FFF7FEFF 		bl	__aeabi_fsub
 716              	.LVL119:
 717 0484 051C     		adds	r5, r0, #0
 115:..\..\..\liblc3\src/mdct.c **** 
 718              		.loc 1 115 0
 719 0486 A168     		ldr	r1, [r4, #8]
 720 0488 3068     		ldr	r0, [r6]
 721 048a FFF7FEFF 		bl	__aeabi_fmul
 722              	.LVL120:
 723 048e 011C     		adds	r1, r0, #0
 724 0490 281C     		adds	r0, r5, #0
 725 0492 FFF7FEFF 		bl	__aeabi_fadd
 726              	.LVL121:
 727 0496 051C     		adds	r5, r0, #0
 728 0498 E168     		ldr	r1, [r4, #12]
 729 049a 7068     		ldr	r0, [r6, #4]
 730 049c FFF7FEFF 		bl	__aeabi_fmul
 731              	.LVL122:
 732 04a0 011C     		adds	r1, r0, #0
 733 04a2 281C     		adds	r0, r5, #0
 734 04a4 FFF7FEFF 		bl	__aeabi_fsub
ARM GAS  C:\Users\rdn\AppData\Local\Temp\ccCJgMYD.s 			page 18


 735              	.LVL123:
 114:..\..\..\liblc3\src/mdct.c ****                               + x2->re * w1[j][1].re - x2->im * w1[j][1].im;
 736              		.loc 1 114 0
 737 04a8 4246     		mov	r2, r8
 738 04aa 1060     		str	r0, [r2]
 117:..\..\..\liblc3\src/mdct.c ****                               + x2->im * w1[j][1].re + x2->re * w1[j][1].im;
 739              		.loc 1 117 0
 740 04ac 5246     		mov	r2, r10
 741 04ae 5568     		ldr	r5, [r2, #4]
 742 04b0 2168     		ldr	r1, [r4]
 743 04b2 7868     		ldr	r0, [r7, #4]
 744 04b4 FFF7FEFF 		bl	__aeabi_fmul
 745              	.LVL124:
 746 04b8 011C     		adds	r1, r0, #0
 747 04ba 281C     		adds	r0, r5, #0
 748 04bc FFF7FEFF 		bl	__aeabi_fadd
 749              	.LVL125:
 750 04c0 051C     		adds	r5, r0, #0
 751 04c2 6168     		ldr	r1, [r4, #4]
 752 04c4 3868     		ldr	r0, [r7]
 753 04c6 FFF7FEFF 		bl	__aeabi_fmul
 754              	.LVL126:
 755 04ca 011C     		adds	r1, r0, #0
 756 04cc 281C     		adds	r0, r5, #0
 757 04ce FFF7FEFF 		bl	__aeabi_fadd
 758              	.LVL127:
 759 04d2 051C     		adds	r5, r0, #0
 118:..\..\..\liblc3\src/mdct.c **** 
 760              		.loc 1 118 0
 761 04d4 A168     		ldr	r1, [r4, #8]
 762 04d6 7068     		ldr	r0, [r6, #4]
 763 04d8 FFF7FEFF 		bl	__aeabi_fmul
 764              	.LVL128:
 765 04dc 011C     		adds	r1, r0, #0
 766 04de 281C     		adds	r0, r5, #0
 767 04e0 FFF7FEFF 		bl	__aeabi_fadd
 768              	.LVL129:
 769 04e4 051C     		adds	r5, r0, #0
 770 04e6 E168     		ldr	r1, [r4, #12]
 771 04e8 3068     		ldr	r0, [r6]
 772 04ea FFF7FEFF 		bl	__aeabi_fmul
 773              	.LVL130:
 774 04ee 011C     		adds	r1, r0, #0
 775 04f0 281C     		adds	r0, r5, #0
 776 04f2 FFF7FEFF 		bl	__aeabi_fadd
 777              	.LVL131:
 117:..\..\..\liblc3\src/mdct.c ****                               + x2->im * w1[j][1].re + x2->re * w1[j][1].im;
 778              		.loc 1 117 0
 779 04f6 4246     		mov	r2, r8
 780 04f8 5060     		str	r0, [r2, #4]
 120:..\..\..\liblc3\src/mdct.c ****                               + x2->re * w2[j][1].re - x2->im * w2[j][1].im;
 781              		.loc 1 120 0
 782 04fa 009B     		ldr	r3, [sp]
 783 04fc 049A     		ldr	r2, [sp, #16]
 784 04fe 9446     		mov	ip, r2
 785 0500 6344     		add	r3, r3, ip
 786 0502 9846     		mov	r8, r3
ARM GAS  C:\Users\rdn\AppData\Local\Temp\ccCJgMYD.s 			page 19


 787 0504 5346     		mov	r3, r10
 788 0506 1D68     		ldr	r5, [r3]
 789 0508 079B     		ldr	r3, [sp, #28]
 790 050a 5B44     		add	r3, r3, fp
 791 050c 1C00     		movs	r4, r3
 792 050e 1968     		ldr	r1, [r3]
 793 0510 3868     		ldr	r0, [r7]
 794 0512 FFF7FEFF 		bl	__aeabi_fmul
 795              	.LVL132:
 796 0516 011C     		adds	r1, r0, #0
 797 0518 281C     		adds	r0, r5, #0
 798 051a FFF7FEFF 		bl	__aeabi_fadd
 799              	.LVL133:
 800 051e 051C     		adds	r5, r0, #0
 801 0520 6168     		ldr	r1, [r4, #4]
 802 0522 7868     		ldr	r0, [r7, #4]
 803 0524 FFF7FEFF 		bl	__aeabi_fmul
 804              	.LVL134:
 805 0528 011C     		adds	r1, r0, #0
 806 052a 281C     		adds	r0, r5, #0
 807 052c FFF7FEFF 		bl	__aeabi_fsub
 808              	.LVL135:
 809 0530 051C     		adds	r5, r0, #0
 121:..\..\..\liblc3\src/mdct.c **** 
 810              		.loc 1 121 0
 811 0532 A168     		ldr	r1, [r4, #8]
 812 0534 3068     		ldr	r0, [r6]
 813 0536 FFF7FEFF 		bl	__aeabi_fmul
 814              	.LVL136:
 815 053a 011C     		adds	r1, r0, #0
 816 053c 281C     		adds	r0, r5, #0
 817 053e FFF7FEFF 		bl	__aeabi_fadd
 818              	.LVL137:
 819 0542 051C     		adds	r5, r0, #0
 820 0544 E168     		ldr	r1, [r4, #12]
 821 0546 7068     		ldr	r0, [r6, #4]
 822 0548 FFF7FEFF 		bl	__aeabi_fmul
 823              	.LVL138:
 824 054c 011C     		adds	r1, r0, #0
 825 054e 281C     		adds	r0, r5, #0
 826 0550 FFF7FEFF 		bl	__aeabi_fsub
 827              	.LVL139:
 120:..\..\..\liblc3\src/mdct.c ****                               + x2->re * w2[j][1].re - x2->im * w2[j][1].im;
 828              		.loc 1 120 0
 829 0554 4346     		mov	r3, r8
 830 0556 1860     		str	r0, [r3]
 123:..\..\..\liblc3\src/mdct.c ****                               + x2->im * w2[j][1].re + x2->re * w2[j][1].im;
 831              		.loc 1 123 0
 832 0558 5346     		mov	r3, r10
 833 055a 5D68     		ldr	r5, [r3, #4]
 834 055c 2168     		ldr	r1, [r4]
 835 055e 7868     		ldr	r0, [r7, #4]
 836 0560 FFF7FEFF 		bl	__aeabi_fmul
 837              	.LVL140:
 838 0564 011C     		adds	r1, r0, #0
 839 0566 281C     		adds	r0, r5, #0
 840 0568 FFF7FEFF 		bl	__aeabi_fadd
ARM GAS  C:\Users\rdn\AppData\Local\Temp\ccCJgMYD.s 			page 20


 841              	.LVL141:
 842 056c 051C     		adds	r5, r0, #0
 843 056e 6168     		ldr	r1, [r4, #4]
 844 0570 3868     		ldr	r0, [r7]
 845 0572 FFF7FEFF 		bl	__aeabi_fmul
 846              	.LVL142:
 847 0576 011C     		adds	r1, r0, #0
 848 0578 281C     		adds	r0, r5, #0
 849 057a FFF7FEFF 		bl	__aeabi_fadd
 850              	.LVL143:
 851 057e 051C     		adds	r5, r0, #0
 124:..\..\..\liblc3\src/mdct.c ****         }
 852              		.loc 1 124 0
 853 0580 A168     		ldr	r1, [r4, #8]
 854 0582 7068     		ldr	r0, [r6, #4]
 855 0584 FFF7FEFF 		bl	__aeabi_fmul
 856              	.LVL144:
 857 0588 011C     		adds	r1, r0, #0
 858 058a 281C     		adds	r0, r5, #0
 859 058c FFF7FEFF 		bl	__aeabi_fadd
 860              	.LVL145:
 861 0590 051C     		adds	r5, r0, #0
 862 0592 E168     		ldr	r1, [r4, #12]
 863 0594 3068     		ldr	r0, [r6]
 864 0596 FFF7FEFF 		bl	__aeabi_fmul
 865              	.LVL146:
 866 059a 011C     		adds	r1, r0, #0
 867 059c 281C     		adds	r0, r5, #0
 868 059e FFF7FEFF 		bl	__aeabi_fadd
 869              	.LVL147:
 123:..\..\..\liblc3\src/mdct.c ****                               + x2->im * w2[j][1].re + x2->re * w2[j][1].im;
 870              		.loc 1 123 0
 871 05a2 4346     		mov	r3, r8
 872 05a4 5860     		str	r0, [r3, #4]
 106:..\..\..\liblc3\src/mdct.c **** 
 873              		.loc 1 106 0
 874 05a6 0123     		movs	r3, #1
 875 05a8 9C46     		mov	ip, r3
 876 05aa E144     		add	r9, r9, ip
 877              	.LVL148:
 878 05ac 0733     		adds	r3, r3, #7
 879 05ae 9C46     		mov	ip, r3
 880 05b0 E244     		add	r10, r10, ip
 881              	.LVL149:
 882 05b2 0837     		adds	r7, r7, #8
 883              	.LVL150:
 884 05b4 0836     		adds	r6, r6, #8
 885              	.LVL151:
 886 05b6 01E0     		b	.L7
 887              	.LVL152:
 888              	.L14:
 889              	.LBE43:
 105:..\..\..\liblc3\src/mdct.c ****         for (int j = 0; j < n3; j++, x0++, x1++, x2++) {
 890              		.loc 1 105 0
 891 05b8 0023     		movs	r3, #0
 892 05ba 9946     		mov	r9, r3
 893              	.LVL153:
ARM GAS  C:\Users\rdn\AppData\Local\Temp\ccCJgMYD.s 			page 21


 894              	.L7:
 895              	.LBB44:
 106:..\..\..\liblc3\src/mdct.c **** 
 896              		.loc 1 106 0
 897 05bc 019B     		ldr	r3, [sp, #4]
 898 05be 4B45     		cmp	r3, r9
 899 05c0 00DD     		ble	.LCB974
 900 05c2 E9E6     		b	.L6	@long jump
 901              	.LCB974:
 902              	.LBE44:
 105:..\..\..\liblc3\src/mdct.c ****         for (int j = 0; j < n3; j++, x0++, x1++, x2++) {
 903              		.loc 1 105 0
 904 05c4 089B     		ldr	r3, [sp, #32]
 905 05c6 0133     		adds	r3, r3, #1
 906 05c8 0893     		str	r3, [sp, #32]
 907              	.LVL154:
 908 05ca 019B     		ldr	r3, [sp, #4]
 909              	.LVL155:
 910 05cc 5A00     		lsls	r2, r3, #1
 911 05ce 9C46     		mov	ip, r3
 912 05d0 6244     		add	r2, r2, ip
 913 05d2 D300     		lsls	r3, r2, #3
 914 05d4 029A     		ldr	r2, [sp, #8]
 915 05d6 9446     		mov	ip, r2
 916 05d8 9C44     		add	ip, ip, r3
 917 05da 6246     		mov	r2, ip
 918 05dc 0292     		str	r2, [sp, #8]
 919              	.LVL156:
 920 05de 039A     		ldr	r2, [sp, #12]
 921              	.LVL157:
 922 05e0 9446     		mov	ip, r2
 923              	.LVL158:
 924 05e2 9C44     		add	ip, ip, r3
 925 05e4 6246     		mov	r2, ip
 926 05e6 0392     		str	r2, [sp, #12]
 927              	.LVL159:
 928 05e8 049A     		ldr	r2, [sp, #16]
 929              	.LVL160:
 930 05ea 9446     		mov	ip, r2
 931              	.LVL161:
 932 05ec 9C44     		add	ip, ip, r3
 933 05ee 6346     		mov	r3, ip
 934 05f0 0493     		str	r3, [sp, #16]
 935              	.LVL162:
 936              	.L5:
 937 05f2 099B     		ldr	r3, [sp, #36]
 938 05f4 089A     		ldr	r2, [sp, #32]
 939 05f6 9342     		cmp	r3, r2
 940 05f8 DEDC     		bgt	.L14
 941              	.LVL163:
 942              	.LBE42:
 943              	.LBE41:
 944              	.LBE40:
 187:..\..\..\liblc3\src/mdct.c ****         fft_bf3(lc3_fft_twiddles_bf3[i3], y[is], y[is ^ 1], n /= 3);
 945              		.loc 1 187 0 discriminator 3
 946 05fa 0B9B     		ldr	r3, [sp, #44]
 947 05fc 0133     		adds	r3, r3, #1
ARM GAS  C:\Users\rdn\AppData\Local\Temp\ccCJgMYD.s 			page 22


 948 05fe 0B93     		str	r3, [sp, #44]
 949              	.LVL164:
 950              	.L4:
 187:..\..\..\liblc3\src/mdct.c ****         fft_bf3(lc3_fft_twiddles_bf3[i3], y[is], y[is ^ 1], n /= 3);
 951              		.loc 1 187 0 is_stmt 0 discriminator 1
 952 0600 099A     		ldr	r2, [sp, #36]
 953 0602 1300     		movs	r3, r2
 954 0604 013B     		subs	r3, r3, #1
 955 0606 1342     		tst	r3, r2
 956 0608 00D0     		beq	.LCB1077
 957 060a 82E6     		b	.L8	@long jump
 958              	.LCB1077:
 959 060c 0023     		movs	r3, #0
 960 060e 0493     		str	r3, [sp, #16]
 961 0610 A2E0     		b	.L9
 962              	.LVL165:
 963              	.L13:
 189:..\..\..\liblc3\src/mdct.c **** 
 190:..\..\..\liblc3\src/mdct.c ****     for (i2 = 0; n > 1; i2++, is ^= 1)
 191:..\..\..\liblc3\src/mdct.c ****         fft_bf2(lc3_fft_twiddles_bf2[i2][i3], y[is], y[is ^ 1], n >>= 1);
 964              		.loc 1 191 0 is_stmt 1 discriminator 3
 965 0612 049A     		ldr	r2, [sp, #16]
 966 0614 5300     		lsls	r3, r2, #1
 967              	.LVL166:
 968 0616 9446     		mov	ip, r2
 969 0618 6344     		add	r3, r3, ip
 970 061a 0B9A     		ldr	r2, [sp, #44]
 971 061c 9446     		mov	ip, r2
 972 061e 6344     		add	r3, r3, ip
 973 0620 9B00     		lsls	r3, r3, #2
 974 0622 554A     		ldr	r2, .L18
 975 0624 9B58     		ldr	r3, [r3, r2]
 976 0626 0A99     		ldr	r1, [sp, #40]
 977 0628 8A00     		lsls	r2, r1, #2
 978 062a 0CA8     		add	r0, sp, #48
 979              	.LVL167:
 980 062c 1658     		ldr	r6, [r2, r0]
 981 062e 0122     		movs	r2, #1
 982 0630 5140     		eors	r1, r2
 983 0632 0A91     		str	r1, [sp, #40]
 984              	.LVL168:
 985 0634 8A00     		lsls	r2, r1, #2
 986 0636 1258     		ldr	r2, [r2, r0]
 987 0638 1100     		movs	r1, r2
 988 063a 0092     		str	r2, [sp]
 989 063c 099A     		ldr	r2, [sp, #36]
 990 063e 5210     		asrs	r2, r2, #1
 991 0640 0992     		str	r2, [sp, #36]
 992              	.LVL169:
 993              	.LBB45:
 994              	.LBB46:
 140:..\..\..\liblc3\src/mdct.c ****     const struct lc3_complex *w = twiddles->t;
 995              		.loc 1 140 0 discriminator 3
 996 0642 1868     		ldr	r0, [r3]
 997              	.LVL170:
 998 0644 8346     		mov	fp, r0
 999              	.LVL171:
ARM GAS  C:\Users\rdn\AppData\Local\Temp\ccCJgMYD.s 			page 23


 141:..\..\..\liblc3\src/mdct.c **** 
 1000              		.loc 1 141 0 discriminator 3
 1001 0646 5B68     		ldr	r3, [r3, #4]
 1002              	.LVL172:
 1003 0648 0293     		str	r3, [sp, #8]
 1004              	.LVL173:
 143:..\..\..\liblc3\src/mdct.c ****     struct lc3_complex *y0 = y, *y1 = y0 + n2;
 1005              		.loc 1 143 0 discriminator 3
 1006 064a 1400     		movs	r4, r2
 1007 064c 4443     		muls	r4, r0
 1008 064e E400     		lsls	r4, r4, #3
 1009 0650 3419     		adds	r4, r6, r4
 1010              	.LVL174:
 144:..\..\..\liblc3\src/mdct.c **** 
 1011              		.loc 1 144 0 discriminator 3
 1012 0652 C300     		lsls	r3, r0, #3
 1013              	.LVL175:
 1014 0654 8C46     		mov	ip, r1
 1015              	.LVL176:
 1016 0656 6344     		add	r3, r3, ip
 1017 0658 0193     		str	r3, [sp, #4]
 1018              	.LVL177:
 1019              	.LBB47:
 146:..\..\..\liblc3\src/mdct.c **** 
 1020              		.loc 1 146 0 discriminator 3
 1021 065a 0023     		movs	r3, #0
 1022              	.LVL178:
 1023 065c 0393     		str	r3, [sp, #12]
 1024 065e 74E0     		b	.L10
 1025              	.LVL179:
 1026              	.L11:
 1027              	.LBB48:
 150:..\..\..\liblc3\src/mdct.c ****             y0[j].im = x0->im + x1->im * w[j].re + x1->re * w[j].im;
 1028              		.loc 1 150 0
 1029 0660 4346     		mov	r3, r8
 1030 0662 DB00     		lsls	r3, r3, #3
 1031 0664 9946     		mov	r9, r3
 1032 0666 009B     		ldr	r3, [sp]
 1033 0668 4B44     		add	r3, r3, r9
 1034 066a 9A46     		mov	r10, r3
 1035 066c 3768     		ldr	r7, [r6]
 1036 066e 029B     		ldr	r3, [sp, #8]
 1037 0670 4B44     		add	r3, r3, r9
 1038 0672 1D00     		movs	r5, r3
 1039 0674 1968     		ldr	r1, [r3]
 1040 0676 2068     		ldr	r0, [r4]
 1041 0678 FFF7FEFF 		bl	__aeabi_fmul
 1042              	.LVL180:
 1043 067c 011C     		adds	r1, r0, #0
 1044 067e 381C     		adds	r0, r7, #0
 1045 0680 FFF7FEFF 		bl	__aeabi_fadd
 1046              	.LVL181:
 1047 0684 071C     		adds	r7, r0, #0
 1048 0686 6968     		ldr	r1, [r5, #4]
 1049 0688 6068     		ldr	r0, [r4, #4]
 1050 068a FFF7FEFF 		bl	__aeabi_fmul
 1051              	.LVL182:
ARM GAS  C:\Users\rdn\AppData\Local\Temp\ccCJgMYD.s 			page 24


 1052 068e 011C     		adds	r1, r0, #0
 1053 0690 381C     		adds	r0, r7, #0
 1054 0692 FFF7FEFF 		bl	__aeabi_fsub
 1055              	.LVL183:
 1056 0696 5346     		mov	r3, r10
 1057 0698 1860     		str	r0, [r3]
 151:..\..\..\liblc3\src/mdct.c **** 
 1058              		.loc 1 151 0
 1059 069a 7768     		ldr	r7, [r6, #4]
 1060 069c 2968     		ldr	r1, [r5]
 1061 069e 6068     		ldr	r0, [r4, #4]
 1062 06a0 FFF7FEFF 		bl	__aeabi_fmul
 1063              	.LVL184:
 1064 06a4 011C     		adds	r1, r0, #0
 1065 06a6 381C     		adds	r0, r7, #0
 1066 06a8 FFF7FEFF 		bl	__aeabi_fadd
 1067              	.LVL185:
 1068 06ac 071C     		adds	r7, r0, #0
 1069 06ae 6968     		ldr	r1, [r5, #4]
 1070 06b0 2068     		ldr	r0, [r4]
 1071 06b2 FFF7FEFF 		bl	__aeabi_fmul
 1072              	.LVL186:
 1073 06b6 011C     		adds	r1, r0, #0
 1074 06b8 381C     		adds	r0, r7, #0
 1075 06ba FFF7FEFF 		bl	__aeabi_fadd
 1076              	.LVL187:
 1077 06be 5346     		mov	r3, r10
 1078 06c0 5860     		str	r0, [r3, #4]
 153:..\..\..\liblc3\src/mdct.c ****             y1[j].im = x0->im - x1->im * w[j].re - x1->re * w[j].im;
 1079              		.loc 1 153 0
 1080 06c2 019B     		ldr	r3, [sp, #4]
 1081 06c4 9C46     		mov	ip, r3
 1082 06c6 E144     		add	r9, r9, ip
 1083 06c8 3768     		ldr	r7, [r6]
 1084 06ca 2968     		ldr	r1, [r5]
 1085 06cc 2068     		ldr	r0, [r4]
 1086 06ce FFF7FEFF 		bl	__aeabi_fmul
 1087              	.LVL188:
 1088 06d2 011C     		adds	r1, r0, #0
 1089 06d4 381C     		adds	r0, r7, #0
 1090 06d6 FFF7FEFF 		bl	__aeabi_fsub
 1091              	.LVL189:
 1092 06da 071C     		adds	r7, r0, #0
 1093 06dc 6968     		ldr	r1, [r5, #4]
 1094 06de 6068     		ldr	r0, [r4, #4]
 1095 06e0 FFF7FEFF 		bl	__aeabi_fmul
 1096              	.LVL190:
 1097 06e4 011C     		adds	r1, r0, #0
 1098 06e6 381C     		adds	r0, r7, #0
 1099 06e8 FFF7FEFF 		bl	__aeabi_fadd
 1100              	.LVL191:
 1101 06ec 4B46     		mov	r3, r9
 1102 06ee 1860     		str	r0, [r3]
 154:..\..\..\liblc3\src/mdct.c ****         }
 1103              		.loc 1 154 0
 1104 06f0 7768     		ldr	r7, [r6, #4]
 1105 06f2 2968     		ldr	r1, [r5]
ARM GAS  C:\Users\rdn\AppData\Local\Temp\ccCJgMYD.s 			page 25


 1106 06f4 6068     		ldr	r0, [r4, #4]
 1107 06f6 FFF7FEFF 		bl	__aeabi_fmul
 1108              	.LVL192:
 1109 06fa 011C     		adds	r1, r0, #0
 1110 06fc 381C     		adds	r0, r7, #0
 1111 06fe FFF7FEFF 		bl	__aeabi_fsub
 1112              	.LVL193:
 1113 0702 071C     		adds	r7, r0, #0
 1114 0704 6968     		ldr	r1, [r5, #4]
 1115 0706 2068     		ldr	r0, [r4]
 1116 0708 FFF7FEFF 		bl	__aeabi_fmul
 1117              	.LVL194:
 1118 070c 011C     		adds	r1, r0, #0
 1119 070e 381C     		adds	r0, r7, #0
 1120 0710 FFF7FEFF 		bl	__aeabi_fsub
 1121              	.LVL195:
 1122 0714 4B46     		mov	r3, r9
 1123 0716 5860     		str	r0, [r3, #4]
 148:..\..\..\liblc3\src/mdct.c **** 
 1124              		.loc 1 148 0
 1125 0718 0123     		movs	r3, #1
 1126 071a 9C46     		mov	ip, r3
 1127 071c E044     		add	r8, r8, ip
 1128              	.LVL196:
 1129 071e 0836     		adds	r6, r6, #8
 1130              	.LVL197:
 1131 0720 0834     		adds	r4, r4, #8
 1132              	.LVL198:
 1133 0722 01E0     		b	.L12
 1134              	.LVL199:
 1135              	.L15:
 1136              	.LBE48:
 146:..\..\..\liblc3\src/mdct.c **** 
 1137              		.loc 1 146 0
 1138 0724 0023     		movs	r3, #0
 1139 0726 9846     		mov	r8, r3
 1140              	.LVL200:
 1141              	.L12:
 1142              	.LBB49:
 148:..\..\..\liblc3\src/mdct.c **** 
 1143              		.loc 1 148 0
 1144 0728 C345     		cmp	fp, r8
 1145 072a 99DC     		bgt	.L11
 1146              	.LBE49:
 146:..\..\..\liblc3\src/mdct.c **** 
 1147              		.loc 1 146 0
 1148 072c 039B     		ldr	r3, [sp, #12]
 1149 072e 0133     		adds	r3, r3, #1
 1150 0730 0393     		str	r3, [sp, #12]
 1151              	.LVL201:
 1152 0732 5B46     		mov	r3, fp
 1153              	.LVL202:
 1154 0734 1B01     		lsls	r3, r3, #4
 1155 0736 009A     		ldr	r2, [sp]
 1156 0738 9446     		mov	ip, r2
 1157 073a 9C44     		add	ip, ip, r3
 1158 073c 6246     		mov	r2, ip
ARM GAS  C:\Users\rdn\AppData\Local\Temp\ccCJgMYD.s 			page 26


 1159 073e 0092     		str	r2, [sp]
 1160              	.LVL203:
 1161 0740 019A     		ldr	r2, [sp, #4]
 1162              	.LVL204:
 1163 0742 9446     		mov	ip, r2
 1164              	.LVL205:
 1165 0744 9C44     		add	ip, ip, r3
 1166 0746 6346     		mov	r3, ip
 1167 0748 0193     		str	r3, [sp, #4]
 1168              	.LVL206:
 1169              	.L10:
 1170 074a 099B     		ldr	r3, [sp, #36]
 1171 074c 039A     		ldr	r2, [sp, #12]
 1172 074e 9342     		cmp	r3, r2
 1173 0750 E8DC     		bgt	.L15
 1174              	.LVL207:
 1175              	.LBE47:
 1176              	.LBE46:
 1177              	.LBE45:
 190:..\..\..\liblc3\src/mdct.c ****         fft_bf2(lc3_fft_twiddles_bf2[i2][i3], y[is], y[is ^ 1], n >>= 1);
 1178              		.loc 1 190 0 discriminator 3
 1179 0752 049B     		ldr	r3, [sp, #16]
 1180 0754 0133     		adds	r3, r3, #1
 1181 0756 0493     		str	r3, [sp, #16]
 1182              	.LVL208:
 1183              	.L9:
 190:..\..\..\liblc3\src/mdct.c ****         fft_bf2(lc3_fft_twiddles_bf2[i2][i3], y[is], y[is ^ 1], n >>= 1);
 1184              		.loc 1 190 0 is_stmt 0 discriminator 1
 1185 0758 099B     		ldr	r3, [sp, #36]
 1186 075a 012B     		cmp	r3, #1
 1187 075c 00DD     		ble	.LCB1385
 1188 075e 58E7     		b	.L13	@long jump
 1189              	.LCB1385:
 192:..\..\..\liblc3\src/mdct.c **** 
 193:..\..\..\liblc3\src/mdct.c ****     return y[is];
 1190              		.loc 1 193 0 is_stmt 1
 1191 0760 0A9B     		ldr	r3, [sp, #40]
 1192 0762 9B00     		lsls	r3, r3, #2
 1193 0764 0CAA     		add	r2, sp, #48
 1194              	.LVL209:
 1195 0766 9858     		ldr	r0, [r3, r2]
 194:..\..\..\liblc3\src/mdct.c **** }
 1196              		.loc 1 194 0
 1197 0768 0FB0     		add	sp, sp, #60
 1198              		@ sp needed
 1199 076a 3CBC     		pop	{r2, r3, r4, r5}
 1200 076c 9046     		mov	r8, r2
 1201 076e 9946     		mov	r9, r3
 1202 0770 A246     		mov	r10, r4
 1203 0772 AB46     		mov	fp, r5
 1204 0774 F0BD     		pop	{r4, r5, r6, r7, pc}
 1205              	.L19:
 1206 0776 C046     		.align	2
 1207              	.L18:
 1208 0778 00000000 		.word	lc3_fft_twiddles_bf2
 1209              		.cfi_endproc
 1210              	.LFE23:
ARM GAS  C:\Users\rdn\AppData\Local\Temp\ccCJgMYD.s 			page 27


 1211              		.size	fft, .-fft
 1212              		.section	.text.mdct_window,"ax",%progbits
 1213              		.align	2
 1214              		.code	16
 1215              		.thumb_func
 1216              		.type	mdct_window, %function
 1217              	mdct_window:
 1218              	.LFB24:
 195:..\..\..\liblc3\src/mdct.c **** 
 196:..\..\..\liblc3\src/mdct.c **** 
 197:..\..\..\liblc3\src/mdct.c **** /* ----------------------------------------------------------------------------
 198:..\..\..\liblc3\src/mdct.c ****  *  MDCT processing
 199:..\..\..\liblc3\src/mdct.c ****  * -------------------------------------------------------------------------- */
 200:..\..\..\liblc3\src/mdct.c **** 
 201:..\..\..\liblc3\src/mdct.c **** /**
 202:..\..\..\liblc3\src/mdct.c ****  * Windowing of samples before MDCT
 203:..\..\..\liblc3\src/mdct.c ****  * dt, sr          Duration and samplerate
 204:..\..\..\liblc3\src/mdct.c ****  * x, y            Input current and delayed samples
 205:..\..\..\liblc3\src/mdct.c ****  * y, d            Output windowed samples, and delayed ones
 206:..\..\..\liblc3\src/mdct.c ****  */
 207:..\..\..\liblc3\src/mdct.c **** LC3_HOT static void mdct_window(
 208:..\..\..\liblc3\src/mdct.c ****     enum lc3_dt dt, enum lc3_srate sr,
 209:..\..\..\liblc3\src/mdct.c ****     const float *x, float *d, float *y)
 210:..\..\..\liblc3\src/mdct.c **** {
 1219              		.loc 1 210 0
 1220              		.cfi_startproc
 1221              		@ args = 4, pretend = 0, frame = 32
 1222              		@ frame_needed = 0, uses_anonymous_args = 0
 1223              	.LVL210:
 1224 0000 F0B5     		push	{r4, r5, r6, r7, lr}
 1225              		.cfi_def_cfa_offset 20
 1226              		.cfi_offset 4, -20
 1227              		.cfi_offset 5, -16
 1228              		.cfi_offset 6, -12
 1229              		.cfi_offset 7, -8
 1230              		.cfi_offset 14, -4
 1231 0002 5F46     		mov	r7, fp
 1232 0004 5646     		mov	r6, r10
 1233 0006 4D46     		mov	r5, r9
 1234 0008 4446     		mov	r4, r8
 1235 000a F0B4     		push	{r4, r5, r6, r7}
 1236              		.cfi_def_cfa_offset 36
 1237              		.cfi_offset 8, -36
 1238              		.cfi_offset 9, -32
 1239              		.cfi_offset 10, -28
 1240              		.cfi_offset 11, -24
 1241 000c 89B0     		sub	sp, sp, #36
 1242              		.cfi_def_cfa_offset 72
 1243 000e 9146     		mov	r9, r2
 1244 0010 9B46     		mov	fp, r3
 211:..\..\..\liblc3\src/mdct.c ****     const float *win = lc3_mdct_win[dt][sr];
 1245              		.loc 1 211 0
 1246 0012 C300     		lsls	r3, r0, #3
 1247              	.LVL211:
 1248 0014 1B1A     		subs	r3, r3, r0
 1249 0016 5B18     		adds	r3, r3, r1
 1250 0018 9B00     		lsls	r3, r3, #2
ARM GAS  C:\Users\rdn\AppData\Local\Temp\ccCJgMYD.s 			page 28


 1251 001a 914A     		ldr	r2, .L26
 1252              	.LVL212:
 1253 001c 9D58     		ldr	r5, [r3, r2]
 1254              	.LVL213:
 1255              	.LBB50:
 1256              	.LBB51:
 1257              		.file 2 "..\\..\\..\\liblc3\\src\\tables.h"
   1:..\..\..\liblc3\src/tables.h **** /******************************************************************************
   2:..\..\..\liblc3\src/tables.h ****  *
   3:..\..\..\liblc3\src/tables.h ****  *  Copyright 2022 Google LLC
   4:..\..\..\liblc3\src/tables.h ****  *
   5:..\..\..\liblc3\src/tables.h ****  *  Licensed under the Apache License, Version 2.0 (the "License");
   6:..\..\..\liblc3\src/tables.h ****  *  you may not use this file except in compliance with the License.
   7:..\..\..\liblc3\src/tables.h ****  *  You may obtain a copy of the License at:
   8:..\..\..\liblc3\src/tables.h ****  *
   9:..\..\..\liblc3\src/tables.h ****  *  http://www.apache.org/licenses/LICENSE-2.0
  10:..\..\..\liblc3\src/tables.h ****  *
  11:..\..\..\liblc3\src/tables.h ****  *  Unless required by applicable law or agreed to in writing, software
  12:..\..\..\liblc3\src/tables.h ****  *  distributed under the License is distributed on an "AS IS" BASIS,
  13:..\..\..\liblc3\src/tables.h ****  *  WITHOUT WARRANTIES OR CONDITIONS OF ANY KIND, either express or implied.
  14:..\..\..\liblc3\src/tables.h ****  *  See the License for the specific language governing permissions and
  15:..\..\..\liblc3\src/tables.h ****  *  limitations under the License.
  16:..\..\..\liblc3\src/tables.h ****  *
  17:..\..\..\liblc3\src/tables.h ****  ******************************************************************************/
  18:..\..\..\liblc3\src/tables.h **** 
  19:..\..\..\liblc3\src/tables.h **** #ifndef __LC3_TABLES_H
  20:..\..\..\liblc3\src/tables.h **** #define __LC3_TABLES_H
  21:..\..\..\liblc3\src/tables.h **** 
  22:..\..\..\liblc3\src/tables.h **** #include "common.h"
  23:..\..\..\liblc3\src/tables.h **** #include "bits.h"
  24:..\..\..\liblc3\src/tables.h **** 
  25:..\..\..\liblc3\src/tables.h **** 
  26:..\..\..\liblc3\src/tables.h **** /**
  27:..\..\..\liblc3\src/tables.h ****  * Characteristics
  28:..\..\..\liblc3\src/tables.h ****  *
  29:..\..\..\liblc3\src/tables.h ****  *   ns   Number of temporal samples / frequency coefficients within a frame
  30:..\..\..\liblc3\src/tables.h ****  *
  31:..\..\..\liblc3\src/tables.h ****  *   ne   Number of encoded frequency coefficients
  32:..\..\..\liblc3\src/tables.h ****  *
  33:..\..\..\liblc3\src/tables.h ****  *   nd   Number of MDCT delayed samples, sum of half a frame and an ovelap
  34:..\..\..\liblc3\src/tables.h ****  *        of future by 1.25 ms (2.5ms, 5ms and 10ms frame durations),
  35:..\..\..\liblc3\src/tables.h ****  *        or 2 ms (7.5ms frame duration).
  36:..\..\..\liblc3\src/tables.h ****  *
  37:..\..\..\liblc3\src/tables.h ****  *   nh   Number of 18 ms samples of the history buffer, aligned on a frame
  38:..\..\..\liblc3\src/tables.h ****  *
  39:..\..\..\liblc3\src/tables.h ****  *   nt   Number of 1.25 ms previous samples
  40:..\..\..\liblc3\src/tables.h ****  */
  41:..\..\..\liblc3\src/tables.h **** 
  42:..\..\..\liblc3\src/tables.h **** extern const int lc3_ns_2m5[LC3_NUM_SRATE];
  43:..\..\..\liblc3\src/tables.h **** extern const int lc3_ne_2m5[LC3_NUM_SRATE];
  44:..\..\..\liblc3\src/tables.h **** extern const int lc3_ns_4m [LC3_NUM_SRATE];
  45:..\..\..\liblc3\src/tables.h **** 
  46:..\..\..\liblc3\src/tables.h **** static inline int lc3_ns(enum lc3_dt dt, enum lc3_srate sr) {
  47:..\..\..\liblc3\src/tables.h ****     return lc3_ns_2m5[sr] * (1 + dt);
 1258              		.loc 2 47 0
 1259 001e 8A00     		lsls	r2, r1, #2
 1260 0020 904B     		ldr	r3, .L26+4
ARM GAS  C:\Users\rdn\AppData\Local\Temp\ccCJgMYD.s 			page 29


 1261 0022 D258     		ldr	r2, [r2, r3]
 1262 0024 431C     		adds	r3, r0, #1
 1263 0026 5343     		muls	r3, r2
 1264              	.LVL214:
 1265              	.LBE51:
 1266              	.LBE50:
 1267              	.LBB52:
 1268              	.LBB53:
  48:..\..\..\liblc3\src/tables.h **** }
  49:..\..\..\liblc3\src/tables.h **** 
  50:..\..\..\liblc3\src/tables.h **** static inline int lc3_ne(enum lc3_dt dt, enum lc3_srate sr) {
  51:..\..\..\liblc3\src/tables.h ****     return lc3_ne_2m5[sr] * (1 + dt);
  52:..\..\..\liblc3\src/tables.h **** }
  53:..\..\..\liblc3\src/tables.h **** 
  54:..\..\..\liblc3\src/tables.h **** static inline int lc3_nd(enum lc3_dt dt, enum lc3_srate sr) {
  55:..\..\..\liblc3\src/tables.h ****     return ( lc3_ns(dt, sr) +
  56:..\..\..\liblc3\src/tables.h ****         (dt == LC3_DT_7M5 ? lc3_ns_4m[sr] : lc3_ns_2m5[sr]) ) >> 1;
 1269              		.loc 2 56 0
 1270 0028 0228     		cmp	r0, #2
 1271 002a 02D1     		bne	.L21
 1272 002c 8900     		lsls	r1, r1, #2
 1273              	.LVL215:
 1274 002e 8E4A     		ldr	r2, .L26+8
 1275 0030 8A58     		ldr	r2, [r1, r2]
 1276              	.L21:
  55:..\..\..\liblc3\src/tables.h ****         (dt == LC3_DT_7M5 ? lc3_ns_4m[sr] : lc3_ns_2m5[sr]) ) >> 1;
 1277              		.loc 2 55 0
 1278 0032 D218     		adds	r2, r2, r3
 1279 0034 5210     		asrs	r2, r2, #1
 1280              	.LVL216:
 1281              	.LBE53:
 1282              	.LBE52:
 212:..\..\..\liblc3\src/mdct.c ****     int ns = lc3_ns(dt, sr), nd = lc3_nd(dt, sr);
 213:..\..\..\liblc3\src/mdct.c **** 
 214:..\..\..\liblc3\src/mdct.c ****     const float *w0 = win, *w1 = w0 + ns;
 1283              		.loc 1 214 0
 1284 0036 9900     		lsls	r1, r3, #2
 1285 0038 0791     		str	r1, [sp, #28]
 1286 003a 8C46     		mov	ip, r1
 1287 003c AC44     		add	ip, ip, r5
 1288 003e 6146     		mov	r1, ip
 1289              	.LVL217:
 215:..\..\..\liblc3\src/mdct.c ****     const float *w2 = w1, *w3 = w2 + nd;
 1290              		.loc 1 215 0
 1291 0040 9400     		lsls	r4, r2, #2
 1292 0042 A444     		add	ip, ip, r4
 1293 0044 6046     		mov	r0, ip
 1294              	.LVL218:
 1295 0046 0290     		str	r0, [sp, #8]
 1296              	.LVL219:
 216:..\..\..\liblc3\src/mdct.c **** 
 217:..\..\..\liblc3\src/mdct.c ****     const float *x0 = x + ns-nd, *x1 = x0;
 1297              		.loc 1 217 0
 1298 0048 9A1A     		subs	r2, r3, r2
 1299 004a 9200     		lsls	r2, r2, #2
 1300 004c 4A44     		add	r2, r2, r9
 1301 004e 9046     		mov	r8, r2
ARM GAS  C:\Users\rdn\AppData\Local\Temp\ccCJgMYD.s 			page 30


 1302              	.LVL220:
 218:..\..\..\liblc3\src/mdct.c ****     float *y0 = y + ns/2, *y1 = y0;
 1303              		.loc 1 218 0
 1304 0050 DE0F     		lsrs	r6, r3, #31
 1305 0052 F618     		adds	r6, r6, r3
 1306 0054 7610     		asrs	r6, r6, #1
 1307 0056 B600     		lsls	r6, r6, #2
 1308 0058 3300     		movs	r3, r6
 1309 005a 129A     		ldr	r2, [sp, #72]
 1310              	.LVL221:
 1311 005c 9446     		mov	ip, r2
 1312 005e 6344     		add	r3, r3, ip
 1313              	.LVL222:
 219:..\..\..\liblc3\src/mdct.c ****     float *d0 = d, *d1 = d + nd;
 1314              		.loc 1 219 0
 1315 0060 2200     		movs	r2, r4
 1316 0062 5A44     		add	r2, r2, fp
 1317 0064 0692     		str	r2, [sp, #24]
 1318              	.LVL223:
 218:..\..\..\liblc3\src/mdct.c ****     float *y0 = y + ns/2, *y1 = y0;
 1319              		.loc 1 218 0
 1320 0066 9A46     		mov	r10, r3
 217:..\..\..\liblc3\src/mdct.c ****     float *y0 = y + ns/2, *y1 = y0;
 1321              		.loc 1 217 0
 1322 0068 4446     		mov	r4, r8
 215:..\..\..\liblc3\src/mdct.c **** 
 1323              		.loc 1 215 0
 1324 006a 0F00     		movs	r7, r1
 1325 006c 4A46     		mov	r2, r9
 1326              	.LVL224:
 1327 006e 0592     		str	r2, [sp, #20]
 1328 0070 8946     		mov	r9, r1
 1329              	.LVL225:
 1330 0072 5E46     		mov	r6, fp
 1331 0074 9B46     		mov	fp, r3
 1332              	.LVL226:
 220:..\..\..\liblc3\src/mdct.c **** 
 221:..\..\..\liblc3\src/mdct.c ****     while (x1 > x) {
 1333              		.loc 1 221 0
 1334 0076 54E0     		b	.L22
 1335              	.LVL227:
 1336              	.L23:
 222:..\..\..\liblc3\src/mdct.c ****         *(--y0) = *d0 * *(w0++) - *(--x1) * *(--w1);
 1337              		.loc 1 222 0
 1338 0078 2968     		ldr	r1, [r5]
 1339 007a 3068     		ldr	r0, [r6]
 1340 007c FFF7FEFF 		bl	__aeabi_fmul
 1341              	.LVL228:
 1342 0080 0090     		str	r0, [sp]
 1343              	.LVL229:
 1344 0082 231F     		subs	r3, r4, #4
 1345              	.LVL230:
 1346 0084 1868     		ldr	r0, [r3]
 1347              	.LVL231:
 1348 0086 4B46     		mov	r3, r9
 1349              	.LVL232:
 1350 0088 043B     		subs	r3, r3, #4
ARM GAS  C:\Users\rdn\AppData\Local\Temp\ccCJgMYD.s 			page 31


 1351              	.LVL233:
 1352 008a 1968     		ldr	r1, [r3]
 1353 008c FFF7FEFF 		bl	__aeabi_fmul
 1354              	.LVL234:
 1355 0090 011C     		adds	r1, r0, #0
 1356 0092 0098     		ldr	r0, [sp]
 1357 0094 FFF7FEFF 		bl	__aeabi_fsub
 1358              	.LVL235:
 1359 0098 5B46     		mov	r3, fp
 1360 009a 043B     		subs	r3, r3, #4
 1361              	.LVL236:
 1362 009c 1860     		str	r0, [r3]
 1363              	.LVL237:
 223:..\..\..\liblc3\src/mdct.c ****         *(y1++) = (*(d0++) = *(x0++)) * *(w2++);
 1364              		.loc 1 223 0
 1365 009e 4346     		mov	r3, r8
 1366              	.LVL238:
 1367 00a0 1868     		ldr	r0, [r3]
 1368 00a2 3060     		str	r0, [r6]
 1369              	.LVL239:
 1370 00a4 3968     		ldr	r1, [r7]
 1371 00a6 FFF7FEFF 		bl	__aeabi_fmul
 1372              	.LVL240:
 1373 00aa 5346     		mov	r3, r10
 1374 00ac 1860     		str	r0, [r3]
 224:..\..\..\liblc3\src/mdct.c **** 
 225:..\..\..\liblc3\src/mdct.c ****         *(--y0) = *d0 * *(w0++) - *(--x1) * *(--w1);
 1375              		.loc 1 225 0
 1376 00ae 0823     		movs	r3, #8
 1377 00b0 5B42     		rsbs	r3, r3, #0
 1378 00b2 9C46     		mov	ip, r3
 1379 00b4 E344     		add	fp, fp, ip
 1380              	.LVL241:
 1381 00b6 1033     		adds	r3, r3, #16
 1382 00b8 9C46     		mov	ip, r3
 1383 00ba AC44     		add	ip, ip, r5
 1384 00bc 6346     		mov	r3, ip
 1385 00be 0093     		str	r3, [sp]
 1386              	.LVL242:
 1387 00c0 6968     		ldr	r1, [r5, #4]
 1388 00c2 7068     		ldr	r0, [r6, #4]
 1389 00c4 FFF7FEFF 		bl	__aeabi_fmul
 1390              	.LVL243:
 1391 00c8 0190     		str	r0, [sp, #4]
 1392 00ca 083C     		subs	r4, r4, #8
 1393              	.LVL244:
 1394 00cc 4B46     		mov	r3, r9
 1395 00ce 083B     		subs	r3, r3, #8
 1396 00d0 1D00     		movs	r5, r3
 1397              	.LVL245:
 1398 00d2 1968     		ldr	r1, [r3]
 1399 00d4 2068     		ldr	r0, [r4]
 1400 00d6 FFF7FEFF 		bl	__aeabi_fmul
 1401              	.LVL246:
 1402 00da 011C     		adds	r1, r0, #0
 1403 00dc 0198     		ldr	r0, [sp, #4]
 1404 00de FFF7FEFF 		bl	__aeabi_fsub
ARM GAS  C:\Users\rdn\AppData\Local\Temp\ccCJgMYD.s 			page 32


 1405              	.LVL247:
 1406 00e2 5A46     		mov	r2, fp
 1407 00e4 1060     		str	r0, [r2]
 226:..\..\..\liblc3\src/mdct.c ****         *(y1++) = (*(d0++) = *(x0++)) * *(w2++);
 1408              		.loc 1 226 0
 1409 00e6 0823     		movs	r3, #8
 1410 00e8 5344     		add	r3, r3, r10
 1411 00ea 0193     		str	r3, [sp, #4]
 1412              	.LVL248:
 1413 00ec 0822     		movs	r2, #8
 1414 00ee 9446     		mov	ip, r2
 1415 00f0 B444     		add	ip, ip, r6
 1416 00f2 6246     		mov	r2, ip
 1417 00f4 0392     		str	r2, [sp, #12]
 1418              	.LVL249:
 1419 00f6 0822     		movs	r2, #8
 1420              	.LVL250:
 1421 00f8 4244     		add	r2, r2, r8
 1422 00fa 0492     		str	r2, [sp, #16]
 1423              	.LVL251:
 1424 00fc 4146     		mov	r1, r8
 1425 00fe 4868     		ldr	r0, [r1, #4]
 1426 0100 7060     		str	r0, [r6, #4]
 1427 0102 0821     		movs	r1, #8
 1428 0104 8946     		mov	r9, r1
 1429 0106 B944     		add	r9, r9, r7
 1430              	.LVL252:
 1431 0108 7968     		ldr	r1, [r7, #4]
 1432 010a FFF7FEFF 		bl	__aeabi_fmul
 1433              	.LVL253:
 1434 010e 5146     		mov	r1, r10
 1435 0110 4860     		str	r0, [r1, #4]
 1436 0112 039E     		ldr	r6, [sp, #12]
 1437 0114 019B     		ldr	r3, [sp, #4]
 1438 0116 9A46     		mov	r10, r3
 1439 0118 049A     		ldr	r2, [sp, #16]
 1440 011a 9046     		mov	r8, r2
 1441 011c 4F46     		mov	r7, r9
 225:..\..\..\liblc3\src/mdct.c ****         *(y1++) = (*(d0++) = *(x0++)) * *(w2++);
 1442              		.loc 1 225 0
 1443 011e A946     		mov	r9, r5
 1444              	.LVL254:
 1445 0120 009D     		ldr	r5, [sp]
 1446              	.LVL255:
 1447              	.L22:
 221:..\..\..\liblc3\src/mdct.c ****         *(--y0) = *d0 * *(w0++) - *(--x1) * *(--w1);
 1448              		.loc 1 221 0
 1449 0122 059B     		ldr	r3, [sp, #20]
 1450              	.LVL256:
 1451 0124 9C42     		cmp	r4, r3
 1452 0126 A7D8     		bhi	.L23
 1453 0128 4B46     		mov	r3, r9
 1454 012a 0193     		str	r3, [sp, #4]
 1455 012c 5B46     		mov	r3, fp
 1456 012e B346     		mov	fp, r6
 1457              	.LVL257:
 227:..\..\..\liblc3\src/mdct.c ****     }
ARM GAS  C:\Users\rdn\AppData\Local\Temp\ccCJgMYD.s 			page 33


 228:..\..\..\liblc3\src/mdct.c **** 
 229:..\..\..\liblc3\src/mdct.c ****     for (x1 += ns; x0 < x1; ) {
 1458              		.loc 1 229 0
 1459 0130 079A     		ldr	r2, [sp, #28]
 1460 0132 9446     		mov	ip, r2
 1461 0134 A444     		add	ip, ip, r4
 1462 0136 6246     		mov	r2, ip
 1463 0138 0092     		str	r2, [sp]
 1464              	.LVL258:
 1465 013a 4646     		mov	r6, r8
 1466              	.LVL259:
 1467 013c 069A     		ldr	r2, [sp, #24]
 1468              	.LVL260:
 1469 013e 9046     		mov	r8, r2
 1470              	.LVL261:
 1471 0140 5C46     		mov	r4, fp
 1472 0142 9B46     		mov	fp, r3
 1473              	.LVL262:
 1474 0144 81E0     		b	.L24
 1475              	.LVL263:
 1476              	.L25:
 230:..\..\..\liblc3\src/mdct.c ****         *(--y0) = *d0 * *(w0++) - *(--d1) * *(--w1);
 1477              		.loc 1 230 0
 1478 0146 2968     		ldr	r1, [r5]
 1479 0148 2068     		ldr	r0, [r4]
 1480 014a FFF7FEFF 		bl	__aeabi_fmul
 1481              	.LVL264:
 1482 014e 0390     		str	r0, [sp, #12]
 1483              	.LVL265:
 1484 0150 0423     		movs	r3, #4
 1485 0152 5B42     		rsbs	r3, r3, #0
 1486 0154 4344     		add	r3, r3, r8
 1487 0156 9946     		mov	r9, r3
 1488              	.LVL266:
 1489 0158 019B     		ldr	r3, [sp, #4]
 1490 015a 043B     		subs	r3, r3, #4
 1491              	.LVL267:
 1492 015c 1968     		ldr	r1, [r3]
 1493 015e 4A46     		mov	r2, r9
 1494 0160 1068     		ldr	r0, [r2]
 1495 0162 FFF7FEFF 		bl	__aeabi_fmul
 1496              	.LVL268:
 1497 0166 011C     		adds	r1, r0, #0
 1498 0168 0398     		ldr	r0, [sp, #12]
 1499 016a FFF7FEFF 		bl	__aeabi_fsub
 1500              	.LVL269:
 1501 016e 5A46     		mov	r2, fp
 1502 0170 131F     		subs	r3, r2, #4
 1503              	.LVL270:
 1504 0172 1860     		str	r0, [r3]
 1505              	.LVL271:
 231:..\..\..\liblc3\src/mdct.c ****         *(y1++) = (*(d0++) = *(x0++)) * *(w2++) + (*d1 = *(--x1)) * *(--w3);
 1506              		.loc 1 231 0
 1507 0174 3068     		ldr	r0, [r6]
 1508 0176 2060     		str	r0, [r4]
 1509              	.LVL272:
 1510 0178 3968     		ldr	r1, [r7]
ARM GAS  C:\Users\rdn\AppData\Local\Temp\ccCJgMYD.s 			page 34


 1511 017a FFF7FEFF 		bl	__aeabi_fmul
 1512              	.LVL273:
 1513 017e 0390     		str	r0, [sp, #12]
 1514              	.LVL274:
 1515 0180 009B     		ldr	r3, [sp]
 1516 0182 043B     		subs	r3, r3, #4
 1517              	.LVL275:
 1518 0184 1868     		ldr	r0, [r3]
 1519 0186 4A46     		mov	r2, r9
 1520 0188 1060     		str	r0, [r2]
 1521              	.LVL276:
 1522 018a 029A     		ldr	r2, [sp, #8]
 1523 018c 131F     		subs	r3, r2, #4
 1524              	.LVL277:
 1525 018e 1968     		ldr	r1, [r3]
 1526 0190 FFF7FEFF 		bl	__aeabi_fmul
 1527              	.LVL278:
 1528 0194 011C     		adds	r1, r0, #0
 1529 0196 0398     		ldr	r0, [sp, #12]
 1530 0198 FFF7FEFF 		bl	__aeabi_fadd
 1531              	.LVL279:
 1532 019c 5146     		mov	r1, r10
 1533 019e 0860     		str	r0, [r1]
 232:..\..\..\liblc3\src/mdct.c **** 
 233:..\..\..\liblc3\src/mdct.c ****         *(--y0) = *d0 * *(w0++) - *(--d1) * *(--w1);
 1534              		.loc 1 233 0
 1535 01a0 0820     		movs	r0, #8
 1536 01a2 4042     		rsbs	r0, r0, #0
 1537 01a4 8446     		mov	ip, r0
 1538 01a6 E344     		add	fp, fp, ip
 1539              	.LVL280:
 1540 01a8 1030     		adds	r0, r0, #16
 1541 01aa 8446     		mov	ip, r0
 1542 01ac AC44     		add	ip, ip, r5
 1543 01ae 6046     		mov	r0, ip
 1544 01b0 0390     		str	r0, [sp, #12]
 1545              	.LVL281:
 1546 01b2 6968     		ldr	r1, [r5, #4]
 1547 01b4 6068     		ldr	r0, [r4, #4]
 1548              	.LVL282:
 1549 01b6 FFF7FEFF 		bl	__aeabi_fmul
 1550              	.LVL283:
 1551 01ba 051C     		adds	r5, r0, #0
 1552 01bc 0821     		movs	r1, #8
 1553 01be 4942     		rsbs	r1, r1, #0
 1554 01c0 8C46     		mov	ip, r1
 1555 01c2 E044     		add	r8, r8, ip
 1556              	.LVL284:
 1557 01c4 0199     		ldr	r1, [sp, #4]
 1558 01c6 8946     		mov	r9, r1
 1559 01c8 E144     		add	r9, r9, ip
 1560              	.LVL285:
 1561 01ca 4946     		mov	r1, r9
 1562 01cc 0968     		ldr	r1, [r1]
 1563 01ce 4046     		mov	r0, r8
 1564 01d0 0068     		ldr	r0, [r0]
 1565 01d2 FFF7FEFF 		bl	__aeabi_fmul
ARM GAS  C:\Users\rdn\AppData\Local\Temp\ccCJgMYD.s 			page 35


 1566              	.LVL286:
 1567 01d6 011C     		adds	r1, r0, #0
 1568 01d8 281C     		adds	r0, r5, #0
 1569 01da FFF7FEFF 		bl	__aeabi_fsub
 1570              	.LVL287:
 1571 01de 5946     		mov	r1, fp
 1572 01e0 0860     		str	r0, [r1]
 234:..\..\..\liblc3\src/mdct.c ****         *(y1++) = (*(d0++) = *(x0++)) * *(w2++) + (*d1 = *(--x1)) * *(--w3);
 1573              		.loc 1 234 0
 1574 01e2 0821     		movs	r1, #8
 1575 01e4 5144     		add	r1, r1, r10
 1576 01e6 0191     		str	r1, [sp, #4]
 1577              	.LVL288:
 1578 01e8 0820     		movs	r0, #8
 1579 01ea 8446     		mov	ip, r0
 1580 01ec A444     		add	ip, ip, r4
 1581 01ee 6046     		mov	r0, ip
 1582 01f0 0490     		str	r0, [sp, #16]
 1583              	.LVL289:
 1584 01f2 0825     		movs	r5, #8
 1585 01f4 AC46     		mov	ip, r5
 1586 01f6 B444     		add	ip, ip, r6
 1587 01f8 6546     		mov	r5, ip
 1588 01fa 0595     		str	r5, [sp, #20]
 1589              	.LVL290:
 1590 01fc 7068     		ldr	r0, [r6, #4]
 1591              	.LVL291:
 1592 01fe 6060     		str	r0, [r4, #4]
 1593 0200 0824     		movs	r4, #8
 1594 0202 A446     		mov	ip, r4
 1595 0204 BC44     		add	ip, ip, r7
 1596 0206 6446     		mov	r4, ip
 1597 0208 0694     		str	r4, [sp, #24]
 1598              	.LVL292:
 1599 020a 7968     		ldr	r1, [r7, #4]
 1600              	.LVL293:
 1601 020c FFF7FEFF 		bl	__aeabi_fmul
 1602              	.LVL294:
 1603 0210 041C     		adds	r4, r0, #0
 1604              	.LVL295:
 1605 0212 009B     		ldr	r3, [sp]
 1606 0214 083B     		subs	r3, r3, #8
 1607 0216 1E00     		movs	r6, r3
 1608              	.LVL296:
 1609 0218 1868     		ldr	r0, [r3]
 1610 021a 4346     		mov	r3, r8
 1611              	.LVL297:
 1612 021c 1860     		str	r0, [r3]
 1613 021e 029A     		ldr	r2, [sp, #8]
 1614 0220 083A     		subs	r2, r2, #8
 1615 0222 1500     		movs	r5, r2
 1616              	.LVL298:
 1617 0224 1168     		ldr	r1, [r2]
 1618 0226 FFF7FEFF 		bl	__aeabi_fmul
 1619              	.LVL299:
 1620 022a 011C     		adds	r1, r0, #0
 1621 022c 201C     		adds	r0, r4, #0
ARM GAS  C:\Users\rdn\AppData\Local\Temp\ccCJgMYD.s 			page 36


 1622 022e FFF7FEFF 		bl	__aeabi_fadd
 1623              	.LVL300:
 1624 0232 5346     		mov	r3, r10
 1625 0234 5860     		str	r0, [r3, #4]
 1626 0236 049C     		ldr	r4, [sp, #16]
 1627 0238 0199     		ldr	r1, [sp, #4]
 1628 023a 8A46     		mov	r10, r1
 1629 023c 0096     		str	r6, [sp]
 1630 023e 059E     		ldr	r6, [sp, #20]
 1631              	.LVL301:
 1632 0240 0295     		str	r5, [sp, #8]
 1633 0242 069F     		ldr	r7, [sp, #24]
 233:..\..\..\liblc3\src/mdct.c ****         *(y1++) = (*(d0++) = *(x0++)) * *(w2++) + (*d1 = *(--x1)) * *(--w3);
 1634              		.loc 1 233 0
 1635 0244 4B46     		mov	r3, r9
 1636 0246 0193     		str	r3, [sp, #4]
 1637              	.LVL302:
 1638 0248 039D     		ldr	r5, [sp, #12]
 1639              	.LVL303:
 1640              	.L24:
 229:..\..\..\liblc3\src/mdct.c ****         *(--y0) = *d0 * *(w0++) - *(--d1) * *(--w1);
 1641              		.loc 1 229 0 discriminator 1
 1642 024a 009B     		ldr	r3, [sp]
 1643 024c 9E42     		cmp	r6, r3
 1644 024e 00D2     		bcs	.LCB1963
 1645 0250 79E7     		b	.L25	@long jump
 1646              	.LCB1963:
 235:..\..\..\liblc3\src/mdct.c ****     }
 236:..\..\..\liblc3\src/mdct.c **** }
 1647              		.loc 1 236 0
 1648 0252 09B0     		add	sp, sp, #36
 1649              	.LVL304:
 1650              		@ sp needed
 1651              	.LVL305:
 1652              	.LVL306:
 1653              	.LVL307:
 1654              	.LVL308:
 1655              	.LVL309:
 1656              	.LVL310:
 1657              	.LVL311:
 1658 0254 3CBC     		pop	{r2, r3, r4, r5}
 1659 0256 9046     		mov	r8, r2
 1660 0258 9946     		mov	r9, r3
 1661 025a A246     		mov	r10, r4
 1662 025c AB46     		mov	fp, r5
 1663 025e F0BD     		pop	{r4, r5, r6, r7, pc}
 1664              	.L27:
 1665              		.align	2
 1666              	.L26:
 1667 0260 00000000 		.word	lc3_mdct_win
 1668 0264 00000000 		.word	lc3_ns_2m5
 1669 0268 00000000 		.word	lc3_ns_4m
 1670              		.cfi_endproc
 1671              	.LFE24:
 1672              		.size	mdct_window, .-mdct_window
 1673              		.section	.text.mdct_pre_fft,"ax",%progbits
 1674              		.align	2
ARM GAS  C:\Users\rdn\AppData\Local\Temp\ccCJgMYD.s 			page 37


 1675              		.code	16
 1676              		.thumb_func
 1677              		.type	mdct_pre_fft, %function
 1678              	mdct_pre_fft:
 1679              	.LFB25:
 237:..\..\..\liblc3\src/mdct.c **** 
 238:..\..\..\liblc3\src/mdct.c **** /**
 239:..\..\..\liblc3\src/mdct.c ****  * Pre-rotate MDCT coefficients of N/2 points, before FFT N/4 points FFT
 240:..\..\..\liblc3\src/mdct.c ****  * def             Size and twiddles factors
 241:..\..\..\liblc3\src/mdct.c ****  * x, y            Input and output coefficients
 242:..\..\..\liblc3\src/mdct.c ****  *
 243:..\..\..\liblc3\src/mdct.c ****  * `x` and y` can be the same buffer
 244:..\..\..\liblc3\src/mdct.c ****  */
 245:..\..\..\liblc3\src/mdct.c **** LC3_HOT static void mdct_pre_fft(const struct lc3_mdct_rot_def *def,
 246:..\..\..\liblc3\src/mdct.c ****     const float *x, struct lc3_complex *y)
 247:..\..\..\liblc3\src/mdct.c **** {
 1680              		.loc 1 247 0
 1681              		.cfi_startproc
 1682              		@ args = 0, pretend = 0, frame = 48
 1683              		@ frame_needed = 0, uses_anonymous_args = 0
 1684              	.LVL312:
 1685 0000 F0B5     		push	{r4, r5, r6, r7, lr}
 1686              		.cfi_def_cfa_offset 20
 1687              		.cfi_offset 4, -20
 1688              		.cfi_offset 5, -16
 1689              		.cfi_offset 6, -12
 1690              		.cfi_offset 7, -8
 1691              		.cfi_offset 14, -4
 1692 0002 5F46     		mov	r7, fp
 1693 0004 5646     		mov	r6, r10
 1694 0006 4D46     		mov	r5, r9
 1695 0008 4446     		mov	r4, r8
 1696 000a F0B4     		push	{r4, r5, r6, r7}
 1697              		.cfi_def_cfa_offset 36
 1698              		.cfi_offset 8, -36
 1699              		.cfi_offset 9, -32
 1700              		.cfi_offset 10, -28
 1701              		.cfi_offset 11, -24
 1702 000c 8DB0     		sub	sp, sp, #52
 1703              		.cfi_def_cfa_offset 88
 1704 000e 8B46     		mov	fp, r1
 1705 0010 1600     		movs	r6, r2
 1706              	.LVL313:
 248:..\..\..\liblc3\src/mdct.c ****     int n4 = def->n4;
 249:..\..\..\liblc3\src/mdct.c **** 
 250:..\..\..\liblc3\src/mdct.c ****     const float *x0 = x, *x1 = x0 + 2*n4;
 1707              		.loc 1 250 0
 1708 0012 0368     		ldr	r3, [r0]
 1709 0014 DA00     		lsls	r2, r3, #3
 1710              	.LVL314:
 1711 0016 8C18     		adds	r4, r1, r2
 1712              	.LVL315:
 251:..\..\..\liblc3\src/mdct.c ****     const struct lc3_complex *w0 = def->w, *w1 = w0 + n4;
 1713              		.loc 1 251 0
 1714 0018 4368     		ldr	r3, [r0, #4]
 1715              	.LVL316:
 1716 001a 9F18     		adds	r7, r3, r2
ARM GAS  C:\Users\rdn\AppData\Local\Temp\ccCJgMYD.s 			page 38


 1717              	.LVL317:
 252:..\..\..\liblc3\src/mdct.c ****     struct lc3_complex *y0 = y, *y1 = y0 + n4;
 1718              		.loc 1 252 0
 1719 001c 9246     		mov	r10, r2
 1720 001e B244     		add	r10, r10, r6
 1721              	.LVL318:
 1722 0020 B846     		mov	r8, r7
 1723 0022 2700     		movs	r7, r4
 1724              	.LVL319:
 1725 0024 D146     		mov	r9, r10
 1726 0026 B246     		mov	r10, r6
 1727              	.LVL320:
 253:..\..\..\liblc3\src/mdct.c **** 
 254:..\..\..\liblc3\src/mdct.c ****     while (x0 < x1) {
 1728              		.loc 1 254 0
 1729 0028 75E0     		b	.L29
 1730              	.LVL321:
 1731              	.L30:
 1732              	.LBB54:
 255:..\..\..\liblc3\src/mdct.c ****         struct lc3_complex u, uw = *(w0++);
 1733              		.loc 1 255 0
 1734 002a 0822     		movs	r2, #8
 1735 002c 9446     		mov	ip, r2
 1736 002e 9C44     		add	ip, ip, r3
 1737 0030 6246     		mov	r2, ip
 1738 0032 0092     		str	r2, [sp]
 1739              	.LVL322:
 1740 0034 06AD     		add	r5, sp, #24
 1741 0036 2900     		movs	r1, r5
 1742 0038 11CB     		ldmia	r3!, {r0, r4}
 1743 003a 11C1     		stmia	r1!, {r0, r4}
 1744              	.LVL323:
 256:..\..\..\liblc3\src/mdct.c ****         u.re = - *(--x1) * uw.re + *x0 * uw.im;
 1745              		.loc 1 256 0
 1746 003c 3B1F     		subs	r3, r7, #4
 1747              	.LVL324:
 1748 003e 1E68     		ldr	r6, [r3]
 1749 0040 8021     		movs	r1, #128
 1750 0042 0906     		lsls	r1, r1, #24
 1751 0044 7018     		adds	r0, r6, r1
 1752 0046 069A     		ldr	r2, [sp, #24]
 1753              	.LVL325:
 1754 0048 0192     		str	r2, [sp, #4]
 1755 004a 111C     		adds	r1, r2, #0
 1756 004c FFF7FEFF 		bl	__aeabi_fmul
 1757              	.LVL326:
 1758 0050 041C     		adds	r4, r0, #0
 1759 0052 5946     		mov	r1, fp
 1760 0054 0968     		ldr	r1, [r1]
 1761 0056 0B1C     		adds	r3, r1, #0
 1762 0058 6D68     		ldr	r5, [r5, #4]
 1763 005a 291C     		adds	r1, r5, #0
 1764 005c 0293     		str	r3, [sp, #8]
 1765 005e 181C     		adds	r0, r3, #0
 1766 0060 FFF7FEFF 		bl	__aeabi_fmul
 1767              	.LVL327:
 1768 0064 011C     		adds	r1, r0, #0
ARM GAS  C:\Users\rdn\AppData\Local\Temp\ccCJgMYD.s 			page 39


 1769 0066 201C     		adds	r0, r4, #0
 1770 0068 FFF7FEFF 		bl	__aeabi_fadd
 1771              	.LVL328:
 1772 006c 04AC     		add	r4, sp, #16
 1773 006e 0490     		str	r0, [sp, #16]
 1774              	.LVL329:
 257:..\..\..\liblc3\src/mdct.c ****         u.im =   *(x0++) * uw.re + *x1 * uw.im;
 1775              		.loc 1 257 0
 1776 0070 0299     		ldr	r1, [sp, #8]
 1777 0072 0198     		ldr	r0, [sp, #4]
 1778 0074 FFF7FEFF 		bl	__aeabi_fmul
 1779              	.LVL330:
 1780 0078 0190     		str	r0, [sp, #4]
 1781 007a 291C     		adds	r1, r5, #0
 1782 007c 301C     		adds	r0, r6, #0
 1783 007e FFF7FEFF 		bl	__aeabi_fmul
 1784              	.LVL331:
 1785 0082 011C     		adds	r1, r0, #0
 1786 0084 0198     		ldr	r0, [sp, #4]
 1787 0086 FFF7FEFF 		bl	__aeabi_fadd
 1788              	.LVL332:
 1789 008a 6060     		str	r0, [r4, #4]
 258:..\..\..\liblc3\src/mdct.c **** 
 259:..\..\..\liblc3\src/mdct.c ****         struct lc3_complex v, vw = *(--w1);
 1790              		.loc 1 259 0
 1791 008c 0821     		movs	r1, #8
 1792 008e 4942     		rsbs	r1, r1, #0
 1793 0090 8C46     		mov	ip, r1
 1794 0092 E044     		add	r8, r8, ip
 1795              	.LVL333:
 1796 0094 0AAB     		add	r3, sp, #40
 1797 0096 1900     		movs	r1, r3
 1798 0098 4046     		mov	r0, r8
 1799 009a 60C8     		ldmia	r0!, {r5, r6}
 1800 009c 60C1     		stmia	r1!, {r5, r6}
 260:..\..\..\liblc3\src/mdct.c ****         v.re = - *(--x1) * vw.im + *x0 * vw.re;
 1801              		.loc 1 260 0
 1802 009e 6744     		add	r7, r7, ip
 1803              	.LVL334:
 1804 00a0 3968     		ldr	r1, [r7]
 1805 00a2 8022     		movs	r2, #128
 1806 00a4 1206     		lsls	r2, r2, #24
 1807 00a6 0191     		str	r1, [sp, #4]
 1808 00a8 8C46     		mov	ip, r1
 1809 00aa 6244     		add	r2, r2, ip
 1810 00ac 1000     		movs	r0, r2
 1811 00ae 0B9A     		ldr	r2, [sp, #44]
 1812 00b0 0292     		str	r2, [sp, #8]
 1813 00b2 111C     		adds	r1, r2, #0
 1814 00b4 FFF7FEFF 		bl	__aeabi_fmul
 1815              	.LVL335:
 1816 00b8 061C     		adds	r6, r0, #0
 1817 00ba 5D46     		mov	r5, fp
 1818 00bc 6D68     		ldr	r5, [r5, #4]
 1819 00be 0A99     		ldr	r1, [sp, #40]
 1820 00c0 0391     		str	r1, [sp, #12]
 1821 00c2 281C     		adds	r0, r5, #0
ARM GAS  C:\Users\rdn\AppData\Local\Temp\ccCJgMYD.s 			page 40


 1822 00c4 FFF7FEFF 		bl	__aeabi_fmul
 1823              	.LVL336:
 1824 00c8 011C     		adds	r1, r0, #0
 1825 00ca 301C     		adds	r0, r6, #0
 1826 00cc FFF7FEFF 		bl	__aeabi_fadd
 1827              	.LVL337:
 1828 00d0 08AE     		add	r6, sp, #32
 1829 00d2 0890     		str	r0, [sp, #32]
 261:..\..\..\liblc3\src/mdct.c ****         v.im = - *(x0++) * vw.im - *x1 * vw.re;
 1830              		.loc 1 261 0
 1831 00d4 0823     		movs	r3, #8
 1832 00d6 9C46     		mov	ip, r3
 1833 00d8 E344     		add	fp, fp, ip
 1834              	.LVL338:
 1835 00da 8023     		movs	r3, #128
 1836 00dc 1B06     		lsls	r3, r3, #24
 1837 00de E918     		adds	r1, r5, r3
 1838 00e0 0298     		ldr	r0, [sp, #8]
 1839 00e2 FFF7FEFF 		bl	__aeabi_fmul
 1840              	.LVL339:
 1841 00e6 051C     		adds	r5, r0, #0
 1842 00e8 0399     		ldr	r1, [sp, #12]
 1843 00ea 0198     		ldr	r0, [sp, #4]
 1844 00ec FFF7FEFF 		bl	__aeabi_fmul
 1845              	.LVL340:
 1846 00f0 011C     		adds	r1, r0, #0
 1847 00f2 281C     		adds	r0, r5, #0
 1848 00f4 FFF7FEFF 		bl	__aeabi_fsub
 1849              	.LVL341:
 1850 00f8 7060     		str	r0, [r6, #4]
 1851              	.LVL342:
 262:..\..\..\liblc3\src/mdct.c **** 
 263:..\..\..\liblc3\src/mdct.c ****         *(y0++) = u;
 1852              		.loc 1 263 0
 1853 00fa 5146     		mov	r1, r10
 1854 00fc 21CC     		ldmia	r4!, {r0, r5}
 1855 00fe 21C1     		stmia	r1!, {r0, r5}
 1856              	.LVL343:
 264:..\..\..\liblc3\src/mdct.c ****         *(--y1) = v;
 1857              		.loc 1 264 0
 1858 0100 0821     		movs	r1, #8
 1859              	.LVL344:
 1860 0102 4942     		rsbs	r1, r1, #0
 1861 0104 8C46     		mov	ip, r1
 1862 0106 E144     		add	r9, r9, ip
 1863              	.LVL345:
 1864 0108 4946     		mov	r1, r9
 1865 010a 11CE     		ldmia	r6!, {r0, r4}
 1866 010c 11C1     		stmia	r1!, {r0, r4}
 263:..\..\..\liblc3\src/mdct.c ****         *(--y1) = v;
 1867              		.loc 1 263 0
 1868 010e 0821     		movs	r1, #8
 1869 0110 8C46     		mov	ip, r1
 1870 0112 E244     		add	r10, r10, ip
 1871              	.LVL346:
 255:..\..\..\liblc3\src/mdct.c ****         u.re = - *(--x1) * uw.re + *x0 * uw.im;
 1872              		.loc 1 255 0
ARM GAS  C:\Users\rdn\AppData\Local\Temp\ccCJgMYD.s 			page 41


 1873 0114 009B     		ldr	r3, [sp]
 1874              	.L29:
 1875              	.LVL347:
 1876              	.LBE54:
 254:..\..\..\liblc3\src/mdct.c ****         struct lc3_complex u, uw = *(w0++);
 1877              		.loc 1 254 0
 1878 0116 BB45     		cmp	fp, r7
 1879 0118 87D3     		bcc	.L30
 265:..\..\..\liblc3\src/mdct.c ****     }
 266:..\..\..\liblc3\src/mdct.c **** }
 1880              		.loc 1 266 0
 1881 011a 0DB0     		add	sp, sp, #52
 1882              		@ sp needed
 1883              	.LVL348:
 1884              	.LVL349:
 1885              	.LVL350:
 1886              	.LVL351:
 1887              	.LVL352:
 1888 011c 3CBC     		pop	{r2, r3, r4, r5}
 1889 011e 9046     		mov	r8, r2
 1890 0120 9946     		mov	r9, r3
 1891 0122 A246     		mov	r10, r4
 1892 0124 AB46     		mov	fp, r5
 1893 0126 F0BD     		pop	{r4, r5, r6, r7, pc}
 1894              		.cfi_endproc
 1895              	.LFE25:
 1896              		.size	mdct_pre_fft, .-mdct_pre_fft
 1897              		.section	.text.mdct_post_fft,"ax",%progbits
 1898              		.align	2
 1899              		.code	16
 1900              		.thumb_func
 1901              		.type	mdct_post_fft, %function
 1902              	mdct_post_fft:
 1903              	.LFB26:
 267:..\..\..\liblc3\src/mdct.c **** 
 268:..\..\..\liblc3\src/mdct.c **** /**
 269:..\..\..\liblc3\src/mdct.c ****  * Post-rotate FFT N/4 points coefficients, resulting MDCT N points
 270:..\..\..\liblc3\src/mdct.c ****  * def             Size and twiddles factors
 271:..\..\..\liblc3\src/mdct.c ****  * x, y            Input and output coefficients
 272:..\..\..\liblc3\src/mdct.c ****  *
 273:..\..\..\liblc3\src/mdct.c ****  * `x` and y` can be the same buffer
 274:..\..\..\liblc3\src/mdct.c ****  */
 275:..\..\..\liblc3\src/mdct.c **** LC3_HOT static void mdct_post_fft(const struct lc3_mdct_rot_def *def,
 276:..\..\..\liblc3\src/mdct.c ****     const struct lc3_complex *x, float *y)
 277:..\..\..\liblc3\src/mdct.c **** {
 1904              		.loc 1 277 0
 1905              		.cfi_startproc
 1906              		@ args = 0, pretend = 0, frame = 40
 1907              		@ frame_needed = 0, uses_anonymous_args = 0
 1908              	.LVL353:
 1909 0000 F0B5     		push	{r4, r5, r6, r7, lr}
 1910              		.cfi_def_cfa_offset 20
 1911              		.cfi_offset 4, -20
 1912              		.cfi_offset 5, -16
 1913              		.cfi_offset 6, -12
 1914              		.cfi_offset 7, -8
 1915              		.cfi_offset 14, -4
ARM GAS  C:\Users\rdn\AppData\Local\Temp\ccCJgMYD.s 			page 42


 1916 0002 5F46     		mov	r7, fp
 1917 0004 5646     		mov	r6, r10
 1918 0006 4D46     		mov	r5, r9
 1919 0008 4446     		mov	r4, r8
 1920 000a F0B4     		push	{r4, r5, r6, r7}
 1921              		.cfi_def_cfa_offset 36
 1922              		.cfi_offset 8, -36
 1923              		.cfi_offset 9, -32
 1924              		.cfi_offset 10, -28
 1925              		.cfi_offset 11, -24
 1926 000c 8BB0     		sub	sp, sp, #44
 1927              		.cfi_def_cfa_offset 80
 1928 000e 9146     		mov	r9, r2
 278:..\..\..\liblc3\src/mdct.c ****     int n4 = def->n4, n8 = n4 >> 1;
 1929              		.loc 1 278 0
 1930 0010 0368     		ldr	r3, [r0]
 1931              	.LVL354:
 1932 0012 5A10     		asrs	r2, r3, #1
 1933              	.LVL355:
 279:..\..\..\liblc3\src/mdct.c **** 
 280:..\..\..\liblc3\src/mdct.c ****     const struct lc3_complex *w0 = def->w + n8, *w1 = w0 - 1;
 1934              		.loc 1 280 0
 1935 0014 4068     		ldr	r0, [r0, #4]
 1936              	.LVL356:
 1937 0016 D200     		lsls	r2, r2, #3
 1938              	.LVL357:
 1939 0018 8046     		mov	r8, r0
 1940 001a 9044     		add	r8, r8, r2
 1941              	.LVL358:
 1942 001c 0820     		movs	r0, #8
 1943 001e 4042     		rsbs	r0, r0, #0
 1944 0020 4044     		add	r0, r0, r8
 1945              	.LVL359:
 281:..\..\..\liblc3\src/mdct.c ****     const struct lc3_complex *x0 = x + n8, *x1 = x0 - 1;
 1946              		.loc 1 281 0
 1947 0022 8B46     		mov	fp, r1
 1948 0024 9344     		add	fp, fp, r2
 1949              	.LVL360:
 1950 0026 5E46     		mov	r6, fp
 1951 0028 083E     		subs	r6, r6, #8
 1952              	.LVL361:
 282:..\..\..\liblc3\src/mdct.c **** 
 283:..\..\..\liblc3\src/mdct.c ****     float *y0 = y + n4, *y1 = y0;
 1953              		.loc 1 283 0
 1954 002a 9B00     		lsls	r3, r3, #2
 1955              	.LVL362:
 1956 002c 4B44     		add	r3, r3, r9
 1957              	.LVL363:
 1958 002e 0700     		movs	r7, r0
 1959 0030 4546     		mov	r5, r8
 1960 0032 CA46     		mov	r10, r9
 1961 0034 9946     		mov	r9, r3
 1962              	.LVL364:
 1963 0036 5C46     		mov	r4, fp
 1964 0038 9846     		mov	r8, r3
 1965              	.LVL365:
 284:..\..\..\liblc3\src/mdct.c **** 
ARM GAS  C:\Users\rdn\AppData\Local\Temp\ccCJgMYD.s 			page 43


 285:..\..\..\liblc3\src/mdct.c ****     for ( ; y1 > y; x0++, x1--, w0++, w1--) {
 1966              		.loc 1 285 0
 1967 003a 59E0     		b	.L32
 1968              	.LVL366:
 1969              	.L33:
 1970              	.LBB55:
 286:..\..\..\liblc3\src/mdct.c **** 
 287:..\..\..\liblc3\src/mdct.c ****         float u0 = x0->im * w0->im + x0->re * w0->re;
 1971              		.loc 1 287 0 discriminator 2
 1972 003c 6368     		ldr	r3, [r4, #4]
 1973 003e 6A68     		ldr	r2, [r5, #4]
 1974 0040 0192     		str	r2, [sp, #4]
 1975 0042 111C     		adds	r1, r2, #0
 1976 0044 0093     		str	r3, [sp]
 1977 0046 181C     		adds	r0, r3, #0
 1978 0048 FFF7FEFF 		bl	__aeabi_fmul
 1979              	.LVL367:
 1980 004c 0490     		str	r0, [sp, #16]
 1981 004e 2168     		ldr	r1, [r4]
 1982 0050 0B1C     		adds	r3, r1, #0
 1983 0052 2968     		ldr	r1, [r5]
 1984 0054 0391     		str	r1, [sp, #12]
 1985 0056 0293     		str	r3, [sp, #8]
 1986 0058 181C     		adds	r0, r3, #0
 1987 005a FFF7FEFF 		bl	__aeabi_fmul
 1988              	.LVL368:
 1989 005e 011C     		adds	r1, r0, #0
 1990 0060 0498     		ldr	r0, [sp, #16]
 1991 0062 FFF7FEFF 		bl	__aeabi_fadd
 1992              	.LVL369:
 1993 0066 0890     		str	r0, [sp, #32]
 1994              	.LVL370:
 288:..\..\..\liblc3\src/mdct.c ****         float u1 = x1->re * w1->im - x1->im * w1->re;
 1995              		.loc 1 288 0 discriminator 2
 1996 0068 3268     		ldr	r2, [r6]
 1997 006a 7B68     		ldr	r3, [r7, #4]
 1998 006c 0593     		str	r3, [sp, #20]
 1999 006e 191C     		adds	r1, r3, #0
 2000 0070 0492     		str	r2, [sp, #16]
 2001 0072 101C     		adds	r0, r2, #0
 2002              	.LVL371:
 2003 0074 FFF7FEFF 		bl	__aeabi_fmul
 2004              	.LVL372:
 2005 0078 0990     		str	r0, [sp, #36]
 2006 007a 7268     		ldr	r2, [r6, #4]
 2007 007c 3B68     		ldr	r3, [r7]
 2008 007e 0793     		str	r3, [sp, #28]
 2009 0080 191C     		adds	r1, r3, #0
 2010 0082 0692     		str	r2, [sp, #24]
 2011 0084 101C     		adds	r0, r2, #0
 2012 0086 FFF7FEFF 		bl	__aeabi_fmul
 2013              	.LVL373:
 2014 008a 011C     		adds	r1, r0, #0
 2015 008c 0998     		ldr	r0, [sp, #36]
 2016 008e FFF7FEFF 		bl	__aeabi_fsub
 2017              	.LVL374:
 2018 0092 0990     		str	r0, [sp, #36]
ARM GAS  C:\Users\rdn\AppData\Local\Temp\ccCJgMYD.s 			page 44


 2019              	.LVL375:
 289:..\..\..\liblc3\src/mdct.c **** 
 290:..\..\..\liblc3\src/mdct.c ****         float v0 = x0->re * w0->im - x0->im * w0->re;
 2020              		.loc 1 290 0 discriminator 2
 2021 0094 0299     		ldr	r1, [sp, #8]
 2022 0096 0198     		ldr	r0, [sp, #4]
 2023              	.LVL376:
 2024 0098 FFF7FEFF 		bl	__aeabi_fmul
 2025              	.LVL377:
 2026 009c 0190     		str	r0, [sp, #4]
 2027 009e 0399     		ldr	r1, [sp, #12]
 2028 00a0 0098     		ldr	r0, [sp]
 2029 00a2 FFF7FEFF 		bl	__aeabi_fmul
 2030              	.LVL378:
 2031 00a6 011C     		adds	r1, r0, #0
 2032 00a8 0198     		ldr	r0, [sp, #4]
 2033 00aa FFF7FEFF 		bl	__aeabi_fsub
 2034              	.LVL379:
 2035 00ae 8346     		mov	fp, r0
 2036              	.LVL380:
 291:..\..\..\liblc3\src/mdct.c ****         float v1 = x1->im * w1->im + x1->re * w1->re;
 2037              		.loc 1 291 0 discriminator 2
 2038 00b0 0699     		ldr	r1, [sp, #24]
 2039 00b2 0598     		ldr	r0, [sp, #20]
 2040              	.LVL381:
 2041 00b4 FFF7FEFF 		bl	__aeabi_fmul
 2042              	.LVL382:
 2043 00b8 0090     		str	r0, [sp]
 2044 00ba 0799     		ldr	r1, [sp, #28]
 2045 00bc 0498     		ldr	r0, [sp, #16]
 2046 00be FFF7FEFF 		bl	__aeabi_fmul
 2047              	.LVL383:
 2048 00c2 011C     		adds	r1, r0, #0
 2049 00c4 0098     		ldr	r0, [sp]
 2050 00c6 FFF7FEFF 		bl	__aeabi_fadd
 2051              	.LVL384:
 292:..\..\..\liblc3\src/mdct.c **** 
 293:..\..\..\liblc3\src/mdct.c ****         *(y0++) = u0;  *(y0++) = u1;
 2052              		.loc 1 293 0 discriminator 2
 2053 00ca 4B46     		mov	r3, r9
 2054 00cc 089A     		ldr	r2, [sp, #32]
 2055 00ce 1A60     		str	r2, [r3]
 2056              	.LVL385:
 2057 00d0 099A     		ldr	r2, [sp, #36]
 2058 00d2 5A60     		str	r2, [r3, #4]
 2059              	.LVL386:
 294:..\..\..\liblc3\src/mdct.c ****         *(--y1) = v0;  *(--y1) = v1;
 2060              		.loc 1 294 0 discriminator 2
 2061 00d4 4346     		mov	r3, r8
 2062 00d6 043B     		subs	r3, r3, #4
 2063              	.LVL387:
 2064 00d8 5A46     		mov	r2, fp
 2065 00da 1A60     		str	r2, [r3]
 2066 00dc 043B     		subs	r3, r3, #4
 2067              	.LVL388:
 2068 00de 1860     		str	r0, [r3]
 2069              	.LBE55:
ARM GAS  C:\Users\rdn\AppData\Local\Temp\ccCJgMYD.s 			page 45


 285:..\..\..\liblc3\src/mdct.c **** 
 2070              		.loc 1 285 0 discriminator 2
 2071 00e0 0834     		adds	r4, r4, #8
 2072              	.LVL389:
 2073 00e2 083E     		subs	r6, r6, #8
 2074              	.LVL390:
 2075 00e4 0835     		adds	r5, r5, #8
 2076              	.LVL391:
 2077 00e6 083F     		subs	r7, r7, #8
 2078              	.LVL392:
 2079              	.LBB56:
 2080              		.loc 1 294 0 discriminator 2
 2081 00e8 9846     		mov	r8, r3
 293:..\..\..\liblc3\src/mdct.c ****         *(--y1) = v0;  *(--y1) = v1;
 2082              		.loc 1 293 0 discriminator 2
 2083 00ea 0823     		movs	r3, #8
 2084              	.LVL393:
 2085 00ec 9C46     		mov	ip, r3
 2086 00ee E144     		add	r9, r9, ip
 2087              	.LVL394:
 2088              	.L32:
 2089              	.LBE56:
 285:..\..\..\liblc3\src/mdct.c **** 
 2090              		.loc 1 285 0 discriminator 1
 2091 00f0 D045     		cmp	r8, r10
 2092 00f2 A3D8     		bhi	.L33
 295:..\..\..\liblc3\src/mdct.c ****     }
 296:..\..\..\liblc3\src/mdct.c **** }
 2093              		.loc 1 296 0
 2094 00f4 0BB0     		add	sp, sp, #44
 2095              		@ sp needed
 2096              	.LVL395:
 2097              	.LVL396:
 2098              	.LVL397:
 2099              	.LVL398:
 2100              	.LVL399:
 2101              	.LVL400:
 2102              	.LVL401:
 2103 00f6 3CBC     		pop	{r2, r3, r4, r5}
 2104 00f8 9046     		mov	r8, r2
 2105 00fa 9946     		mov	r9, r3
 2106 00fc A246     		mov	r10, r4
 2107 00fe AB46     		mov	fp, r5
 2108 0100 F0BD     		pop	{r4, r5, r6, r7, pc}
 2109              		.cfi_endproc
 2110              	.LFE26:
 2111              		.size	mdct_post_fft, .-mdct_post_fft
 2112 0102 C046     		.section	.text.imdct_pre_fft,"ax",%progbits
 2113              		.align	2
 2114              		.code	16
 2115              		.thumb_func
 2116              		.type	imdct_pre_fft, %function
 2117              	imdct_pre_fft:
 2118              	.LFB27:
 297:..\..\..\liblc3\src/mdct.c **** 
 298:..\..\..\liblc3\src/mdct.c **** /**
 299:..\..\..\liblc3\src/mdct.c ****  * Pre-rotate IMDCT coefficients of N points, before FFT N/4 points FFT
ARM GAS  C:\Users\rdn\AppData\Local\Temp\ccCJgMYD.s 			page 46


 300:..\..\..\liblc3\src/mdct.c ****  * def             Size and twiddles factors
 301:..\..\..\liblc3\src/mdct.c ****  * x, y            Input and output coefficients
 302:..\..\..\liblc3\src/mdct.c ****  *
 303:..\..\..\liblc3\src/mdct.c ****  * `x` and `y` can be the same buffer
 304:..\..\..\liblc3\src/mdct.c ****  * The real and imaginary parts of `y` are swapped,
 305:..\..\..\liblc3\src/mdct.c ****  * to operate on FFT instead of IFFT
 306:..\..\..\liblc3\src/mdct.c ****  */
 307:..\..\..\liblc3\src/mdct.c **** LC3_HOT static void imdct_pre_fft(const struct lc3_mdct_rot_def *def,
 308:..\..\..\liblc3\src/mdct.c ****     const float *x, struct lc3_complex *y)
 309:..\..\..\liblc3\src/mdct.c **** {
 2119              		.loc 1 309 0
 2120              		.cfi_startproc
 2121              		@ args = 0, pretend = 0, frame = 48
 2122              		@ frame_needed = 0, uses_anonymous_args = 0
 2123              	.LVL402:
 2124 0000 F0B5     		push	{r4, r5, r6, r7, lr}
 2125              		.cfi_def_cfa_offset 20
 2126              		.cfi_offset 4, -20
 2127              		.cfi_offset 5, -16
 2128              		.cfi_offset 6, -12
 2129              		.cfi_offset 7, -8
 2130              		.cfi_offset 14, -4
 2131 0002 5F46     		mov	r7, fp
 2132 0004 5646     		mov	r6, r10
 2133 0006 4D46     		mov	r5, r9
 2134 0008 4446     		mov	r4, r8
 2135 000a F0B4     		push	{r4, r5, r6, r7}
 2136              		.cfi_def_cfa_offset 36
 2137              		.cfi_offset 8, -36
 2138              		.cfi_offset 9, -32
 2139              		.cfi_offset 10, -28
 2140              		.cfi_offset 11, -24
 2141 000c 8DB0     		sub	sp, sp, #52
 2142              		.cfi_def_cfa_offset 88
 2143 000e 1700     		movs	r7, r2
 2144              	.LVL403:
 310:..\..\..\liblc3\src/mdct.c ****     int n4 = def->n4;
 311:..\..\..\liblc3\src/mdct.c **** 
 312:..\..\..\liblc3\src/mdct.c ****     const float *x0 = x, *x1 = x0 + 2*n4;
 2145              		.loc 1 312 0
 2146 0010 0368     		ldr	r3, [r0]
 2147 0012 DA00     		lsls	r2, r3, #3
 2148              	.LVL404:
 2149 0014 8C18     		adds	r4, r1, r2
 2150              	.LVL405:
 313:..\..\..\liblc3\src/mdct.c **** 
 314:..\..\..\liblc3\src/mdct.c ****     const struct lc3_complex *w0 = def->w, *w1 = w0 + n4;
 2151              		.loc 1 314 0
 2152 0016 4368     		ldr	r3, [r0, #4]
 2153              	.LVL406:
 2154 0018 9818     		adds	r0, r3, r2
 2155              	.LVL407:
 315:..\..\..\liblc3\src/mdct.c ****     struct lc3_complex *y0 = y, *y1 = y0 + n4;
 2156              		.loc 1 315 0
 2157 001a BD18     		adds	r5, r7, r2
 2158              	.LVL408:
 2159 001c 0600     		movs	r6, r0
ARM GAS  C:\Users\rdn\AppData\Local\Temp\ccCJgMYD.s 			page 47


 316:..\..\..\liblc3\src/mdct.c **** 
 317:..\..\..\liblc3\src/mdct.c ****     while (x0 < x1) {
 2160              		.loc 1 317 0
 2161 001e 7AE0     		b	.L35
 2162              	.LVL409:
 2163              	.L36:
 2164              	.LBB57:
 318:..\..\..\liblc3\src/mdct.c ****         float u0 = *(x0++), u1 = *(--x1);
 2165              		.loc 1 318 0
 2166 0020 0A68     		ldr	r2, [r1]
 2167 0022 9246     		mov	r10, r2
 2168              	.LVL410:
 2169 0024 221F     		subs	r2, r4, #4
 2170              	.LVL411:
 2171 0026 1268     		ldr	r2, [r2]
 2172              	.LVL412:
 2173 0028 0192     		str	r2, [sp, #4]
 2174              	.LVL413:
 319:..\..\..\liblc3\src/mdct.c ****         float v0 = *(x0++), v1 = *(--x1);
 2175              		.loc 1 319 0
 2176 002a 0820     		movs	r0, #8
 2177 002c 8446     		mov	ip, r0
 2178 002e 8C44     		add	ip, ip, r1
 2179 0030 6046     		mov	r0, ip
 2180 0032 0290     		str	r0, [sp, #8]
 2181              	.LVL414:
 2182 0034 4A68     		ldr	r2, [r1, #4]
 2183              	.LVL415:
 2184 0036 0392     		str	r2, [sp, #12]
 2185              	.LVL416:
 2186 0038 0821     		movs	r1, #8
 2187 003a 4942     		rsbs	r1, r1, #0
 2188 003c 8846     		mov	r8, r1
 2189 003e A044     		add	r8, r8, r4
 2190              	.LVL417:
 2191 0040 4446     		mov	r4, r8
 2192              	.LVL418:
 2193 0042 2468     		ldr	r4, [r4]
 2194 0044 A346     		mov	fp, r4
 2195              	.LVL419:
 320:..\..\..\liblc3\src/mdct.c ****         struct lc3_complex uw = *(w0++), vw = *(--w1);
 2196              		.loc 1 320 0
 2197 0046 0824     		movs	r4, #8
 2198              	.LVL420:
 2199 0048 A446     		mov	ip, r4
 2200 004a 9C44     		add	ip, ip, r3
 2201 004c 6446     		mov	r4, ip
 2202 004e 0494     		str	r4, [sp, #16]
 2203              	.LVL421:
 2204 0050 08AA     		add	r2, sp, #32
 2205              	.LVL422:
 2206 0052 9146     		mov	r9, r2
 2207 0054 1100     		movs	r1, r2
 2208 0056 11CB     		ldmia	r3!, {r0, r4}
 2209 0058 11C1     		stmia	r1!, {r0, r4}
 2210              	.LVL423:
 2211 005a 083E     		subs	r6, r6, #8
ARM GAS  C:\Users\rdn\AppData\Local\Temp\ccCJgMYD.s 			page 48


 2212              	.LVL424:
 2213 005c 0AAC     		add	r4, sp, #40
 2214 005e 2300     		movs	r3, r4
 2215 0060 3100     		movs	r1, r6
 2216 0062 05C9     		ldmia	r1!, {r0, r2}
 2217 0064 05C3     		stmia	r3!, {r0, r2}
 321:..\..\..\liblc3\src/mdct.c **** 
 322:..\..\..\liblc3\src/mdct.c ****         (y0  )->re = - u0 * uw.re - u1 * uw.im;
 2218              		.loc 1 322 0
 2219 0066 8022     		movs	r2, #128
 2220 0068 1206     		lsls	r2, r2, #24
 2221 006a 5244     		add	r2, r2, r10
 2222 006c 1000     		movs	r0, r2
 2223 006e 089A     		ldr	r2, [sp, #32]
 2224 0070 0592     		str	r2, [sp, #20]
 2225 0072 111C     		adds	r1, r2, #0
 2226 0074 FFF7FEFF 		bl	__aeabi_fmul
 2227              	.LVL425:
 2228 0078 0790     		str	r0, [sp, #28]
 2229 007a 4B46     		mov	r3, r9
 2230 007c 5B68     		ldr	r3, [r3, #4]
 2231 007e 0693     		str	r3, [sp, #24]
 2232 0080 191C     		adds	r1, r3, #0
 2233 0082 0198     		ldr	r0, [sp, #4]
 2234 0084 FFF7FEFF 		bl	__aeabi_fmul
 2235              	.LVL426:
 2236 0088 011C     		adds	r1, r0, #0
 2237 008a 0798     		ldr	r0, [sp, #28]
 2238 008c FFF7FEFF 		bl	__aeabi_fsub
 2239              	.LVL427:
 2240 0090 3860     		str	r0, [r7]
 323:..\..\..\liblc3\src/mdct.c ****         (y0++)->im = - u1 * uw.re + u0 * uw.im;
 2241              		.loc 1 323 0
 2242 0092 0821     		movs	r1, #8
 2243 0094 8946     		mov	r9, r1
 2244 0096 B944     		add	r9, r9, r7
 2245              	.LVL428:
 2246 0098 0199     		ldr	r1, [sp, #4]
 2247 009a 8020     		movs	r0, #128
 2248 009c 0006     		lsls	r0, r0, #24
 2249 009e 8446     		mov	ip, r0
 2250 00a0 6144     		add	r1, r1, ip
 2251 00a2 0598     		ldr	r0, [sp, #20]
 2252 00a4 FFF7FEFF 		bl	__aeabi_fmul
 2253              	.LVL429:
 2254 00a8 0190     		str	r0, [sp, #4]
 2255              	.LVL430:
 2256 00aa 0699     		ldr	r1, [sp, #24]
 2257 00ac 5046     		mov	r0, r10
 2258 00ae FFF7FEFF 		bl	__aeabi_fmul
 2259              	.LVL431:
 2260 00b2 011C     		adds	r1, r0, #0
 2261 00b4 0198     		ldr	r0, [sp, #4]
 2262 00b6 FFF7FEFF 		bl	__aeabi_fadd
 2263              	.LVL432:
 2264 00ba 7860     		str	r0, [r7, #4]
 324:..\..\..\liblc3\src/mdct.c **** 
ARM GAS  C:\Users\rdn\AppData\Local\Temp\ccCJgMYD.s 			page 49


 325:..\..\..\liblc3\src/mdct.c ****         (--y1)->re = - v1 * vw.re - v0 * vw.im;
 2265              		.loc 1 325 0
 2266 00bc 083D     		subs	r5, r5, #8
 2267              	.LVL433:
 2268 00be 8022     		movs	r2, #128
 2269 00c0 1206     		lsls	r2, r2, #24
 2270 00c2 5A44     		add	r2, r2, fp
 2271 00c4 1000     		movs	r0, r2
 2272 00c6 0A9F     		ldr	r7, [sp, #40]
 2273 00c8 391C     		adds	r1, r7, #0
 2274 00ca FFF7FEFF 		bl	__aeabi_fmul
 2275              	.LVL434:
 2276 00ce 0190     		str	r0, [sp, #4]
 2277 00d0 6468     		ldr	r4, [r4, #4]
 2278 00d2 211C     		adds	r1, r4, #0
 2279 00d4 039A     		ldr	r2, [sp, #12]
 2280 00d6 9246     		mov	r10, r2
 2281              	.LVL435:
 2282 00d8 101C     		adds	r0, r2, #0
 2283 00da FFF7FEFF 		bl	__aeabi_fmul
 2284              	.LVL436:
 2285 00de 011C     		adds	r1, r0, #0
 2286 00e0 0198     		ldr	r0, [sp, #4]
 2287 00e2 FFF7FEFF 		bl	__aeabi_fsub
 2288              	.LVL437:
 2289 00e6 2860     		str	r0, [r5]
 326:..\..\..\liblc3\src/mdct.c ****         (  y1)->im = - v0 * vw.re + v1 * vw.im;
 2290              		.loc 1 326 0
 2291 00e8 5246     		mov	r2, r10
 2292 00ea 8023     		movs	r3, #128
 2293 00ec 1B06     		lsls	r3, r3, #24
 2294 00ee 9C46     		mov	ip, r3
 2295 00f0 6244     		add	r2, r2, ip
 2296 00f2 1100     		movs	r1, r2
 2297 00f4 381C     		adds	r0, r7, #0
 2298 00f6 FFF7FEFF 		bl	__aeabi_fmul
 2299              	.LVL438:
 2300 00fa 071C     		adds	r7, r0, #0
 2301 00fc 211C     		adds	r1, r4, #0
 2302 00fe 5846     		mov	r0, fp
 2303 0100 FFF7FEFF 		bl	__aeabi_fmul
 2304              	.LVL439:
 2305 0104 011C     		adds	r1, r0, #0
 2306 0106 381C     		adds	r0, r7, #0
 2307 0108 FFF7FEFF 		bl	__aeabi_fadd
 2308              	.LVL440:
 2309 010c 6860     		str	r0, [r5, #4]
 323:..\..\..\liblc3\src/mdct.c ****         (y0++)->im = - u1 * uw.re + u0 * uw.im;
 2310              		.loc 1 323 0
 2311 010e 4F46     		mov	r7, r9
 320:..\..\..\liblc3\src/mdct.c **** 
 2312              		.loc 1 320 0
 2313 0110 049B     		ldr	r3, [sp, #16]
 319:..\..\..\liblc3\src/mdct.c ****         struct lc3_complex uw = *(w0++), vw = *(--w1);
 2314              		.loc 1 319 0
 2315 0112 4446     		mov	r4, r8
 2316 0114 0299     		ldr	r1, [sp, #8]
ARM GAS  C:\Users\rdn\AppData\Local\Temp\ccCJgMYD.s 			page 50


 2317              	.LVL441:
 2318              	.L35:
 2319              	.LBE57:
 317:..\..\..\liblc3\src/mdct.c ****         float u0 = *(x0++), u1 = *(--x1);
 2320              		.loc 1 317 0
 2321 0116 A142     		cmp	r1, r4
 2322 0118 82D3     		bcc	.L36
 327:..\..\..\liblc3\src/mdct.c ****     }
 328:..\..\..\liblc3\src/mdct.c **** }
 2323              		.loc 1 328 0
 2324 011a 0DB0     		add	sp, sp, #52
 2325              		@ sp needed
 2326              	.LVL442:
 2327              	.LVL443:
 2328              	.LVL444:
 2329              	.LVL445:
 2330 011c 3CBC     		pop	{r2, r3, r4, r5}
 2331 011e 9046     		mov	r8, r2
 2332 0120 9946     		mov	r9, r3
 2333 0122 A246     		mov	r10, r4
 2334 0124 AB46     		mov	fp, r5
 2335 0126 F0BD     		pop	{r4, r5, r6, r7, pc}
 2336              		.cfi_endproc
 2337              	.LFE27:
 2338              		.size	imdct_pre_fft, .-imdct_pre_fft
 2339              		.section	.text.imdct_post_fft,"ax",%progbits
 2340              		.align	2
 2341              		.code	16
 2342              		.thumb_func
 2343              		.type	imdct_post_fft, %function
 2344              	imdct_post_fft:
 2345              	.LFB28:
 329:..\..\..\liblc3\src/mdct.c **** 
 330:..\..\..\liblc3\src/mdct.c **** /**
 331:..\..\..\liblc3\src/mdct.c ****  * Post-rotate FFT N/4 points coefficients, resulting IMDCT N points
 332:..\..\..\liblc3\src/mdct.c ****  * def             Size and twiddles factors
 333:..\..\..\liblc3\src/mdct.c ****  * x, y            Input and output coefficients
 334:..\..\..\liblc3\src/mdct.c ****  *
 335:..\..\..\liblc3\src/mdct.c ****  * `x` and y` can be the same buffer
 336:..\..\..\liblc3\src/mdct.c ****  * The real and imaginary parts of `x` are swapped,
 337:..\..\..\liblc3\src/mdct.c ****  * to operate on FFT instead of IFFT
 338:..\..\..\liblc3\src/mdct.c ****  */
 339:..\..\..\liblc3\src/mdct.c **** LC3_HOT static void imdct_post_fft(const struct lc3_mdct_rot_def *def,
 340:..\..\..\liblc3\src/mdct.c ****     const struct lc3_complex *x, float *y)
 341:..\..\..\liblc3\src/mdct.c **** {
 2346              		.loc 1 341 0
 2347              		.cfi_startproc
 2348              		@ args = 0, pretend = 0, frame = 56
 2349              		@ frame_needed = 0, uses_anonymous_args = 0
 2350              	.LVL446:
 2351 0000 F0B5     		push	{r4, r5, r6, r7, lr}
 2352              		.cfi_def_cfa_offset 20
 2353              		.cfi_offset 4, -20
 2354              		.cfi_offset 5, -16
 2355              		.cfi_offset 6, -12
 2356              		.cfi_offset 7, -8
 2357              		.cfi_offset 14, -4
ARM GAS  C:\Users\rdn\AppData\Local\Temp\ccCJgMYD.s 			page 51


 2358 0002 5F46     		mov	r7, fp
 2359 0004 5646     		mov	r6, r10
 2360 0006 4D46     		mov	r5, r9
 2361 0008 4446     		mov	r4, r8
 2362 000a F0B4     		push	{r4, r5, r6, r7}
 2363              		.cfi_def_cfa_offset 36
 2364              		.cfi_offset 8, -36
 2365              		.cfi_offset 9, -32
 2366              		.cfi_offset 10, -28
 2367              		.cfi_offset 11, -24
 2368 000c 8FB0     		sub	sp, sp, #60
 2369              		.cfi_def_cfa_offset 96
 2370 000e 9346     		mov	fp, r2
 342:..\..\..\liblc3\src/mdct.c ****     int n4 = def->n4;
 2371              		.loc 1 342 0
 2372 0010 0268     		ldr	r2, [r0]
 2373              	.LVL447:
 343:..\..\..\liblc3\src/mdct.c **** 
 344:..\..\..\liblc3\src/mdct.c ****     const struct lc3_complex *w0 = def->w, *w1 = w0 + n4;
 2374              		.loc 1 344 0
 2375 0012 4368     		ldr	r3, [r0, #4]
 2376              	.LVL448:
 2377 0014 D200     		lsls	r2, r2, #3
 2378              	.LVL449:
 2379 0016 9E18     		adds	r6, r3, r2
 2380              	.LVL450:
 345:..\..\..\liblc3\src/mdct.c ****     const struct lc3_complex *x0 = x, *x1 = x0 + n4;
 2381              		.loc 1 345 0
 2382 0018 8F18     		adds	r7, r1, r2
 2383              	.LVL451:
 346:..\..\..\liblc3\src/mdct.c **** 
 347:..\..\..\liblc3\src/mdct.c ****     float *y0 = y, *y1 = y0 + 2*n4;
 2384              		.loc 1 347 0
 2385 001a 5A44     		add	r2, r2, fp
 2386 001c 1400     		movs	r4, r2
 2387              	.LVL452:
 2388 001e B246     		mov	r10, r6
 2389 0020 B846     		mov	r8, r7
 348:..\..\..\liblc3\src/mdct.c **** 
 349:..\..\..\liblc3\src/mdct.c ****     while (x0 < x1) {
 2390              		.loc 1 349 0
 2391 0022 72E0     		b	.L38
 2392              	.LVL453:
 2393              	.L39:
 2394              	.LBB58:
 350:..\..\..\liblc3\src/mdct.c ****         struct lc3_complex uz = *(x0++), vz = *(--x1);
 2395              		.loc 1 350 0
 2396 0024 0822     		movs	r2, #8
 2397 0026 9446     		mov	ip, r2
 2398 0028 8C44     		add	ip, ip, r1
 2399 002a 6246     		mov	r2, ip
 2400 002c 0192     		str	r2, [sp, #4]
 2401              	.LVL454:
 2402 002e 06AD     		add	r5, sp, #24
 2403 0030 2800     		movs	r0, r5
 2404 0032 C0C9     		ldmia	r1!, {r6, r7}
 2405 0034 C0C0     		stmia	r0!, {r6, r7}
ARM GAS  C:\Users\rdn\AppData\Local\Temp\ccCJgMYD.s 			page 52


 2406 0036 0820     		movs	r0, #8
 2407 0038 4042     		rsbs	r0, r0, #0
 2408 003a 8446     		mov	ip, r0
 2409 003c E044     		add	r8, r8, ip
 2410              	.LVL455:
 2411 003e 08AA     		add	r2, sp, #32
 2412              	.LVL456:
 2413 0040 9146     		mov	r9, r2
 2414 0042 1000     		movs	r0, r2
 2415 0044 4746     		mov	r7, r8
 2416 0046 06CF     		ldmia	r7!, {r1, r2}
 2417 0048 06C0     		stmia	r0!, {r1, r2}
 2418              	.LVL457:
 351:..\..\..\liblc3\src/mdct.c ****         struct lc3_complex uw = *(w0++), vw = *(--w1);
 2419              		.loc 1 351 0
 2420 004a 0820     		movs	r0, #8
 2421 004c 8446     		mov	ip, r0
 2422 004e 9C44     		add	ip, ip, r3
 2423 0050 6046     		mov	r0, ip
 2424 0052 0290     		str	r0, [sp, #8]
 2425              	.LVL458:
 2426 0054 0AAA     		add	r2, sp, #40
 2427 0056 1700     		movs	r7, r2
 2428 0058 03CB     		ldmia	r3!, {r0, r1}
 2429 005a 03C7     		stmia	r7!, {r0, r1}
 2430              	.LVL459:
 2431 005c 0827     		movs	r7, #8
 2432 005e 7F42     		rsbs	r7, r7, #0
 2433 0060 BC46     		mov	ip, r7
 2434              	.LVL460:
 2435 0062 E244     		add	r10, r10, ip
 2436              	.LVL461:
 2437 0064 0CAF     		add	r7, sp, #48
 2438 0066 3B00     		movs	r3, r7
 2439              	.LVL462:
 2440 0068 5146     		mov	r1, r10
 2441 006a 41C9     		ldmia	r1!, {r0, r6}
 2442 006c 41C3     		stmia	r3!, {r0, r6}
 2443              	.LVL463:
 352:..\..\..\liblc3\src/mdct.c **** 
 353:..\..\..\liblc3\src/mdct.c ****         *(y0++) = uz.re * uw.im - uz.im * uw.re;
 2444              		.loc 1 353 0
 2445 006e 0698     		ldr	r0, [sp, #24]
 2446 0070 0B9A     		ldr	r2, [sp, #44]
 2447 0072 0492     		str	r2, [sp, #16]
 2448 0074 111C     		adds	r1, r2, #0
 2449 0076 0390     		str	r0, [sp, #12]
 2450 0078 FFF7FEFF 		bl	__aeabi_fmul
 2451              	.LVL464:
 2452 007c 0590     		str	r0, [sp, #20]
 2453 007e 6D68     		ldr	r5, [r5, #4]
 2454 0080 2E1C     		adds	r6, r5, #0
 2455 0082 0A9D     		ldr	r5, [sp, #40]
 2456 0084 291C     		adds	r1, r5, #0
 2457 0086 301C     		adds	r0, r6, #0
 2458 0088 FFF7FEFF 		bl	__aeabi_fmul
 2459              	.LVL465:
ARM GAS  C:\Users\rdn\AppData\Local\Temp\ccCJgMYD.s 			page 53


 2460 008c 011C     		adds	r1, r0, #0
 2461 008e 0598     		ldr	r0, [sp, #20]
 2462 0090 FFF7FEFF 		bl	__aeabi_fsub
 2463              	.LVL466:
 2464 0094 5B46     		mov	r3, fp
 2465 0096 1860     		str	r0, [r3]
 2466              	.LVL467:
 354:..\..\..\liblc3\src/mdct.c ****         *(--y1) = uz.re * uw.re + uz.im * uw.im;
 2467              		.loc 1 354 0
 2468 0098 291C     		adds	r1, r5, #0
 2469 009a 0398     		ldr	r0, [sp, #12]
 2470 009c FFF7FEFF 		bl	__aeabi_fmul
 2471              	.LVL468:
 2472 00a0 051C     		adds	r5, r0, #0
 2473 00a2 311C     		adds	r1, r6, #0
 2474 00a4 0498     		ldr	r0, [sp, #16]
 2475 00a6 FFF7FEFF 		bl	__aeabi_fmul
 2476              	.LVL469:
 2477 00aa 011C     		adds	r1, r0, #0
 2478 00ac 281C     		adds	r0, r5, #0
 2479 00ae FFF7FEFF 		bl	__aeabi_fadd
 2480              	.LVL470:
 2481 00b2 231F     		subs	r3, r4, #4
 2482              	.LVL471:
 2483 00b4 1860     		str	r0, [r3]
 355:..\..\..\liblc3\src/mdct.c **** 
 356:..\..\..\liblc3\src/mdct.c ****         *(--y1) = vz.re * vw.im - vz.im * vw.re;
 2484              		.loc 1 356 0
 2485 00b6 083C     		subs	r4, r4, #8
 2486              	.LVL472:
 2487 00b8 089A     		ldr	r2, [sp, #32]
 2488 00ba 7D68     		ldr	r5, [r7, #4]
 2489 00bc 291C     		adds	r1, r5, #0
 2490 00be 0392     		str	r2, [sp, #12]
 2491 00c0 101C     		adds	r0, r2, #0
 2492 00c2 FFF7FEFF 		bl	__aeabi_fmul
 2493              	.LVL473:
 2494 00c6 0490     		str	r0, [sp, #16]
 2495 00c8 4A46     		mov	r2, r9
 2496 00ca 5668     		ldr	r6, [r2, #4]
 2497 00cc 0C9F     		ldr	r7, [sp, #48]
 2498 00ce 391C     		adds	r1, r7, #0
 2499 00d0 301C     		adds	r0, r6, #0
 2500 00d2 FFF7FEFF 		bl	__aeabi_fmul
 2501              	.LVL474:
 2502 00d6 011C     		adds	r1, r0, #0
 2503 00d8 0498     		ldr	r0, [sp, #16]
 2504 00da FFF7FEFF 		bl	__aeabi_fsub
 2505              	.LVL475:
 2506 00de 2060     		str	r0, [r4]
 357:..\..\..\liblc3\src/mdct.c ****         *(y0++) = vz.re * vw.re + vz.im * vw.im;
 2507              		.loc 1 357 0
 2508 00e0 0823     		movs	r3, #8
 2509 00e2 5B44     		add	r3, r3, fp
 2510 00e4 9946     		mov	r9, r3
 2511              	.LVL476:
 2512 00e6 391C     		adds	r1, r7, #0
ARM GAS  C:\Users\rdn\AppData\Local\Temp\ccCJgMYD.s 			page 54


 2513 00e8 0398     		ldr	r0, [sp, #12]
 2514 00ea FFF7FEFF 		bl	__aeabi_fmul
 2515              	.LVL477:
 2516 00ee 071C     		adds	r7, r0, #0
 2517 00f0 311C     		adds	r1, r6, #0
 2518 00f2 281C     		adds	r0, r5, #0
 2519 00f4 FFF7FEFF 		bl	__aeabi_fmul
 2520              	.LVL478:
 2521 00f8 011C     		adds	r1, r0, #0
 2522 00fa 381C     		adds	r0, r7, #0
 2523 00fc FFF7FEFF 		bl	__aeabi_fadd
 2524              	.LVL479:
 2525 0100 5D46     		mov	r5, fp
 2526 0102 6860     		str	r0, [r5, #4]
 2527 0104 CB46     		mov	fp, r9
 350:..\..\..\liblc3\src/mdct.c ****         struct lc3_complex uw = *(w0++), vw = *(--w1);
 2528              		.loc 1 350 0
 2529 0106 0199     		ldr	r1, [sp, #4]
 351:..\..\..\liblc3\src/mdct.c **** 
 2530              		.loc 1 351 0
 2531 0108 029B     		ldr	r3, [sp, #8]
 2532              	.LVL480:
 2533              	.L38:
 2534              	.LBE58:
 349:..\..\..\liblc3\src/mdct.c ****         struct lc3_complex uz = *(x0++), vz = *(--x1);
 2535              		.loc 1 349 0
 2536 010a 4145     		cmp	r1, r8
 2537 010c 8AD3     		bcc	.L39
 358:..\..\..\liblc3\src/mdct.c ****     }
 359:..\..\..\liblc3\src/mdct.c **** }
 2538              		.loc 1 359 0
 2539 010e 0FB0     		add	sp, sp, #60
 2540              		@ sp needed
 2541              	.LVL481:
 2542              	.LVL482:
 2543              	.LVL483:
 2544              	.LVL484:
 2545 0110 3CBC     		pop	{r2, r3, r4, r5}
 2546 0112 9046     		mov	r8, r2
 2547 0114 9946     		mov	r9, r3
 2548 0116 A246     		mov	r10, r4
 2549 0118 AB46     		mov	fp, r5
 2550 011a F0BD     		pop	{r4, r5, r6, r7, pc}
 2551              		.cfi_endproc
 2552              	.LFE28:
 2553              		.size	imdct_post_fft, .-imdct_post_fft
 2554              		.section	.text.imdct_window,"ax",%progbits
 2555              		.align	2
 2556              		.code	16
 2557              		.thumb_func
 2558              		.type	imdct_window, %function
 2559              	imdct_window:
 2560              	.LFB29:
 360:..\..\..\liblc3\src/mdct.c **** 
 361:..\..\..\liblc3\src/mdct.c **** /**
 362:..\..\..\liblc3\src/mdct.c ****  * Apply windowing of samples
 363:..\..\..\liblc3\src/mdct.c ****  * dt, sr          Duration and samplerate
ARM GAS  C:\Users\rdn\AppData\Local\Temp\ccCJgMYD.s 			page 55


 364:..\..\..\liblc3\src/mdct.c ****  * x, d            Middle half of IMDCT coefficients and delayed samples
 365:..\..\..\liblc3\src/mdct.c ****  * y, d            Output samples and delayed ones
 366:..\..\..\liblc3\src/mdct.c ****  */
 367:..\..\..\liblc3\src/mdct.c **** LC3_HOT static void imdct_window(
 368:..\..\..\liblc3\src/mdct.c ****     enum lc3_dt dt, enum lc3_srate sr,
 369:..\..\..\liblc3\src/mdct.c ****     const float *x, float *d, float *y)
 370:..\..\..\liblc3\src/mdct.c **** {
 2561              		.loc 1 370 0
 2562              		.cfi_startproc
 2563              		@ args = 4, pretend = 0, frame = 32
 2564              		@ frame_needed = 0, uses_anonymous_args = 0
 2565              	.LVL485:
 2566 0000 F0B5     		push	{r4, r5, r6, r7, lr}
 2567              		.cfi_def_cfa_offset 20
 2568              		.cfi_offset 4, -20
 2569              		.cfi_offset 5, -16
 2570              		.cfi_offset 6, -12
 2571              		.cfi_offset 7, -8
 2572              		.cfi_offset 14, -4
 2573 0002 5F46     		mov	r7, fp
 2574 0004 5646     		mov	r6, r10
 2575 0006 4D46     		mov	r5, r9
 2576 0008 4446     		mov	r4, r8
 2577 000a F0B4     		push	{r4, r5, r6, r7}
 2578              		.cfi_def_cfa_offset 36
 2579              		.cfi_offset 8, -36
 2580              		.cfi_offset 9, -32
 2581              		.cfi_offset 10, -28
 2582              		.cfi_offset 11, -24
 2583 000c 89B0     		sub	sp, sp, #36
 2584              		.cfi_def_cfa_offset 72
 2585 000e 1400     		movs	r4, r2
 2586 0010 9A46     		mov	r10, r3
 371:..\..\..\liblc3\src/mdct.c ****     /* The full MDCT coefficients is given by symmetry :
 372:..\..\..\liblc3\src/mdct.c ****      *   T[   0 ..  n/4-1] = -half[n/4-1 .. 0    ]
 373:..\..\..\liblc3\src/mdct.c ****      *   T[ n/4 ..  n/2-1] =  half[0     .. n/4-1]
 374:..\..\..\liblc3\src/mdct.c ****      *   T[ n/2 .. 3n/4-1] =  half[n/4   .. n/2-1]
 375:..\..\..\liblc3\src/mdct.c ****      *   T[3n/4 ..    n-1] =  half[n/2-1 .. n/4  ]  */
 376:..\..\..\liblc3\src/mdct.c **** 
 377:..\..\..\liblc3\src/mdct.c ****     const float *win = lc3_mdct_win[dt][sr];
 2587              		.loc 1 377 0
 2588 0012 C300     		lsls	r3, r0, #3
 2589              	.LVL486:
 2590 0014 1B1A     		subs	r3, r3, r0
 2591 0016 5B18     		adds	r3, r3, r1
 2592 0018 9B00     		lsls	r3, r3, #2
 2593 001a 924A     		ldr	r2, .L50
 2594              	.LVL487:
 2595 001c 9F58     		ldr	r7, [r3, r2]
 2596              	.LVL488:
 2597              	.LBB59:
 2598              	.LBB60:
  47:..\..\..\liblc3\src/tables.h **** }
 2599              		.loc 2 47 0
 2600 001e 8A00     		lsls	r2, r1, #2
 2601 0020 914B     		ldr	r3, .L50+4
 2602 0022 D558     		ldr	r5, [r2, r3]
ARM GAS  C:\Users\rdn\AppData\Local\Temp\ccCJgMYD.s 			page 56


 2603 0024 421C     		adds	r2, r0, #1
 2604 0026 1300     		movs	r3, r2
 2605 0028 6B43     		muls	r3, r5
 2606              	.LVL489:
 2607              	.LBE60:
 2608              	.LBE59:
 378:..\..\..\liblc3\src/mdct.c ****     int n4 = lc3_ns(dt, sr) >> 1, nd = lc3_nd(dt, sr);
 2609              		.loc 1 378 0
 2610 002a 5A10     		asrs	r2, r3, #1
 2611 002c 0392     		str	r2, [sp, #12]
 2612              	.LVL490:
 2613              	.LBB61:
 2614              	.LBB62:
 2615              		.loc 2 56 0
 2616 002e 0228     		cmp	r0, #2
 2617 0030 02D1     		bne	.L41
 2618 0032 8900     		lsls	r1, r1, #2
 2619              	.LVL491:
 2620 0034 8D4A     		ldr	r2, .L50+8
 2621              	.LVL492:
 2622 0036 8D58     		ldr	r5, [r1, r2]
 2623              	.L41:
  55:..\..\..\liblc3\src/tables.h ****         (dt == LC3_DT_7M5 ? lc3_ns_4m[sr] : lc3_ns_2m5[sr]) ) >> 1;
 2624              		.loc 2 55 0
 2625 0038 EB18     		adds	r3, r5, r3
 2626 003a 5B10     		asrs	r3, r3, #1
 2627              	.LVL493:
 2628              	.LBE62:
 2629              	.LBE61:
 379:..\..\..\liblc3\src/mdct.c ****     const float *w2 = win, *w0 = w2 + 3*n4, *w1 = w0;
 2630              		.loc 1 379 0
 2631 003c 0398     		ldr	r0, [sp, #12]
 2632              	.LVL494:
 2633 003e 4200     		lsls	r2, r0, #1
 2634 0040 8446     		mov	ip, r0
 2635 0042 6244     		add	r2, r2, ip
 2636 0044 9100     		lsls	r1, r2, #2
 2637 0046 8846     		mov	r8, r1
 2638 0048 B844     		add	r8, r8, r7
 2639              	.LVL495:
 380:..\..\..\liblc3\src/mdct.c **** 
 381:..\..\..\liblc3\src/mdct.c ****     const float *x0 = d + nd-n4, *x1 = x0;
 2640              		.loc 1 381 0
 2641 004a 1E1A     		subs	r6, r3, r0
 2642 004c B600     		lsls	r6, r6, #2
 2643 004e 3200     		movs	r2, r6
 2644 0050 5244     		add	r2, r2, r10
 2645              	.LVL496:
 382:..\..\..\liblc3\src/mdct.c ****     float *y0 = y + nd-n4, *y1 = y0, *y2 = d + nd, *y3 = d;
 2646              		.loc 1 382 0
 2647 0052 3100     		movs	r1, r6
 2648 0054 1298     		ldr	r0, [sp, #72]
 2649 0056 8446     		mov	ip, r0
 2650 0058 6144     		add	r1, r1, ip
 2651              	.LVL497:
 2652 005a 9B00     		lsls	r3, r3, #2
 2653 005c 0593     		str	r3, [sp, #20]
ARM GAS  C:\Users\rdn\AppData\Local\Temp\ccCJgMYD.s 			page 57


 2654 005e 5344     		add	r3, r3, r10
 2655 0060 0493     		str	r3, [sp, #16]
 2656              	.LVL498:
 381:..\..\..\liblc3\src/mdct.c ****     float *y0 = y + nd-n4, *y1 = y0, *y2 = d + nd, *y3 = d;
 2657              		.loc 1 381 0
 2658 0062 1300     		movs	r3, r2
 2659              	.LVL499:
 2660 0064 0697     		str	r7, [sp, #24]
 2661 0066 4746     		mov	r7, r8
 2662              	.LVL500:
 2663 0068 9146     		mov	r9, r2
 2664 006a 0D00     		movs	r5, r1
 2665 006c 1E00     		movs	r6, r3
 2666 006e C346     		mov	fp, r8
 2667 0070 5346     		mov	r3, r10
 2668 0072 0793     		str	r3, [sp, #28]
 2669 0074 8846     		mov	r8, r1
 2670              	.LVL501:
 383:..\..\..\liblc3\src/mdct.c **** 
 384:..\..\..\liblc3\src/mdct.c ****     while (y0 > y) {
 2671              		.loc 1 384 0
 2672 0076 4DE0     		b	.L42
 2673              	.LVL502:
 2674              	.L43:
 385:..\..\..\liblc3\src/mdct.c ****         *(--y0) = *(--x0) - *(x  ) * *(w1++);
 2675              		.loc 1 385 0
 2676 0078 4B46     		mov	r3, r9
 2677 007a 043B     		subs	r3, r3, #4
 2678              	.LVL503:
 2679 007c 1B68     		ldr	r3, [r3]
 2680              	.LVL504:
 2681 007e 9A46     		mov	r10, r3
 2682              	.LVL505:
 2683 0080 3968     		ldr	r1, [r7]
 2684 0082 2068     		ldr	r0, [r4]
 2685 0084 FFF7FEFF 		bl	__aeabi_fmul
 2686              	.LVL506:
 2687 0088 011C     		adds	r1, r0, #0
 2688 008a 5046     		mov	r0, r10
 2689 008c FFF7FEFF 		bl	__aeabi_fsub
 2690              	.LVL507:
 2691 0090 2B1F     		subs	r3, r5, #4
 2692              	.LVL508:
 2693 0092 1860     		str	r0, [r3]
 2694              	.LVL509:
 386:..\..\..\liblc3\src/mdct.c ****         *(y1++) = *(x1++) + *(x++) * *(--w0);
 2695              		.loc 1 386 0
 2696 0094 3368     		ldr	r3, [r6]
 2697              	.LVL510:
 2698 0096 9A46     		mov	r10, r3
 2699              	.LVL511:
 2700 0098 5B46     		mov	r3, fp
 2701 009a 043B     		subs	r3, r3, #4
 2702              	.LVL512:
 2703 009c 1968     		ldr	r1, [r3]
 2704 009e 2068     		ldr	r0, [r4]
 2705 00a0 FFF7FEFF 		bl	__aeabi_fmul
ARM GAS  C:\Users\rdn\AppData\Local\Temp\ccCJgMYD.s 			page 58


 2706              	.LVL513:
 2707 00a4 011C     		adds	r1, r0, #0
 2708 00a6 5046     		mov	r0, r10
 2709 00a8 FFF7FEFF 		bl	__aeabi_fadd
 2710              	.LVL514:
 2711 00ac 4346     		mov	r3, r8
 2712 00ae 1860     		str	r0, [r3]
 387:..\..\..\liblc3\src/mdct.c **** 
 388:..\..\..\liblc3\src/mdct.c ****         *(--y0) = *(--x0) - *(x  ) * *(w1++);
 2713              		.loc 1 388 0
 2714 00b0 083D     		subs	r5, r5, #8
 2715              	.LVL515:
 2716 00b2 0823     		movs	r3, #8
 2717 00b4 5B42     		rsbs	r3, r3, #0
 2718 00b6 9C46     		mov	ip, r3
 2719 00b8 E144     		add	r9, r9, ip
 2720              	.LVL516:
 2721 00ba 4B46     		mov	r3, r9
 2722 00bc 1B68     		ldr	r3, [r3]
 2723 00be 9A46     		mov	r10, r3
 2724 00c0 0823     		movs	r3, #8
 2725 00c2 9C46     		mov	ip, r3
 2726 00c4 BC44     		add	ip, ip, r7
 2727 00c6 6346     		mov	r3, ip
 2728 00c8 0193     		str	r3, [sp, #4]
 2729              	.LVL517:
 2730 00ca 7968     		ldr	r1, [r7, #4]
 2731 00cc 6068     		ldr	r0, [r4, #4]
 2732 00ce FFF7FEFF 		bl	__aeabi_fmul
 2733              	.LVL518:
 2734 00d2 011C     		adds	r1, r0, #0
 2735 00d4 5046     		mov	r0, r10
 2736 00d6 FFF7FEFF 		bl	__aeabi_fsub
 2737              	.LVL519:
 2738 00da 2860     		str	r0, [r5]
 389:..\..\..\liblc3\src/mdct.c ****         *(y1++) = *(x1++) + *(x++) * *(--w0);
 2739              		.loc 1 389 0
 2740 00dc 0823     		movs	r3, #8
 2741 00de 4344     		add	r3, r3, r8
 2742 00e0 0293     		str	r3, [sp, #8]
 2743              	.LVL520:
 2744 00e2 3200     		movs	r2, r6
 2745 00e4 0832     		adds	r2, r2, #8
 2746 00e6 1700     		movs	r7, r2
 2747              	.LVL521:
 2748 00e8 7668     		ldr	r6, [r6, #4]
 2749 00ea 0822     		movs	r2, #8
 2750              	.LVL522:
 2751 00ec 9246     		mov	r10, r2
 2752 00ee A244     		add	r10, r10, r4
 2753              	.LVL523:
 2754 00f0 6068     		ldr	r0, [r4, #4]
 2755 00f2 5C46     		mov	r4, fp
 2756 00f4 083C     		subs	r4, r4, #8
 2757              	.LVL524:
 2758 00f6 2168     		ldr	r1, [r4]
 2759 00f8 FFF7FEFF 		bl	__aeabi_fmul
ARM GAS  C:\Users\rdn\AppData\Local\Temp\ccCJgMYD.s 			page 59


 2760              	.LVL525:
 2761 00fc 011C     		adds	r1, r0, #0
 2762 00fe 301C     		adds	r0, r6, #0
 2763 0100 FFF7FEFF 		bl	__aeabi_fadd
 2764              	.LVL526:
 2765 0104 4246     		mov	r2, r8
 2766 0106 5060     		str	r0, [r2, #4]
 2767 0108 029B     		ldr	r3, [sp, #8]
 2768 010a 9846     		mov	r8, r3
 2769 010c 3E00     		movs	r6, r7
 388:..\..\..\liblc3\src/mdct.c ****         *(y1++) = *(x1++) + *(x++) * *(--w0);
 2770              		.loc 1 388 0
 2771 010e 019F     		ldr	r7, [sp, #4]
 2772              	.LVL527:
 2773              		.loc 1 389 0
 2774 0110 A346     		mov	fp, r4
 2775 0112 5446     		mov	r4, r10
 2776              	.LVL528:
 2777              	.L42:
 384:..\..\..\liblc3\src/mdct.c ****         *(--y0) = *(--x0) - *(x  ) * *(w1++);
 2778              		.loc 1 384 0
 2779 0114 129B     		ldr	r3, [sp, #72]
 2780 0116 9D42     		cmp	r5, r3
 2781 0118 AED8     		bhi	.L43
 2782 011a 069F     		ldr	r7, [sp, #24]
 2783              	.LVL529:
 2784 011c 4346     		mov	r3, r8
 2785 011e D846     		mov	r8, fp
 2786              	.LVL530:
 2787 0120 B346     		mov	fp, r6
 2788              	.LVL531:
 2789 0122 079A     		ldr	r2, [sp, #28]
 2790 0124 9246     		mov	r10, r2
 2791 0126 1E00     		movs	r6, r3
 2792              	.LVL532:
 2793 0128 B946     		mov	r9, r7
 2794              	.LVL533:
 2795 012a 4546     		mov	r5, r8
 2796              	.LVL534:
 2797 012c 5F46     		mov	r7, fp
 2798 012e 059B     		ldr	r3, [sp, #20]
 2799              	.LVL535:
 2800 0130 9B46     		mov	fp, r3
 2801              	.LVL536:
 2802 0132 26E0     		b	.L44
 2803              	.LVL537:
 2804              	.L45:
 390:..\..\..\liblc3\src/mdct.c ****     }
 391:..\..\..\liblc3\src/mdct.c **** 
 392:..\..\..\liblc3\src/mdct.c ****     while (y1 < y + nd) {
 393:..\..\..\liblc3\src/mdct.c ****         *(y1++) = *(x1++) + *(x++) * *(--w0);
 2805              		.loc 1 393 0
 2806 0134 3B68     		ldr	r3, [r7]
 2807 0136 9846     		mov	r8, r3
 2808              	.LVL538:
 2809 0138 2B1F     		subs	r3, r5, #4
 2810              	.LVL539:
ARM GAS  C:\Users\rdn\AppData\Local\Temp\ccCJgMYD.s 			page 60


 2811 013a 1968     		ldr	r1, [r3]
 2812 013c 2068     		ldr	r0, [r4]
 2813 013e FFF7FEFF 		bl	__aeabi_fmul
 2814              	.LVL540:
 2815 0142 011C     		adds	r1, r0, #0
 2816 0144 4046     		mov	r0, r8
 2817 0146 FFF7FEFF 		bl	__aeabi_fadd
 2818              	.LVL541:
 2819 014a 3060     		str	r0, [r6]
 394:..\..\..\liblc3\src/mdct.c ****         *(y1++) = *(x1++) + *(x++) * *(--w0);
 2820              		.loc 1 394 0
 2821 014c 0823     		movs	r3, #8
 2822 014e 9C46     		mov	ip, r3
 2823 0150 B444     		add	ip, ip, r6
 2824 0152 6346     		mov	r3, ip
 2825 0154 0193     		str	r3, [sp, #4]
 2826              	.LVL542:
 2827 0156 0822     		movs	r2, #8
 2828 0158 9446     		mov	ip, r2
 2829 015a BC44     		add	ip, ip, r7
 2830 015c 6246     		mov	r2, ip
 2831 015e 0292     		str	r2, [sp, #8]
 2832              	.LVL543:
 2833 0160 7F68     		ldr	r7, [r7, #4]
 2834 0162 0821     		movs	r1, #8
 2835 0164 8846     		mov	r8, r1
 2836 0166 A044     		add	r8, r8, r4
 2837              	.LVL544:
 2838 0168 6068     		ldr	r0, [r4, #4]
 2839 016a 083D     		subs	r5, r5, #8
 2840              	.LVL545:
 2841 016c 2968     		ldr	r1, [r5]
 2842 016e FFF7FEFF 		bl	__aeabi_fmul
 2843              	.LVL546:
 2844 0172 011C     		adds	r1, r0, #0
 2845 0174 381C     		adds	r0, r7, #0
 2846 0176 FFF7FEFF 		bl	__aeabi_fadd
 2847              	.LVL547:
 2848 017a 7060     		str	r0, [r6, #4]
 2849 017c 019E     		ldr	r6, [sp, #4]
 2850 017e 029F     		ldr	r7, [sp, #8]
 2851 0180 4446     		mov	r4, r8
 2852              	.LVL548:
 2853              	.L44:
 392:..\..\..\liblc3\src/mdct.c ****         *(y1++) = *(x1++) + *(x++) * *(--w0);
 2854              		.loc 1 392 0
 2855 0182 129B     		ldr	r3, [sp, #72]
 2856 0184 5B44     		add	r3, r3, fp
 2857 0186 9E42     		cmp	r6, r3
 2858 0188 D4D3     		bcc	.L45
 2859 018a C846     		mov	r8, r9
 2860 018c 3700     		movs	r7, r6
 2861              	.LVL549:
 2862 018e 049E     		ldr	r6, [sp, #16]
 2863              	.LVL550:
 2864 0190 039B     		ldr	r3, [sp, #12]
 2865 0192 9946     		mov	r9, r3
ARM GAS  C:\Users\rdn\AppData\Local\Temp\ccCJgMYD.s 			page 61


 2866 0194 D346     		mov	fp, r10
 2867 0196 129B     		ldr	r3, [sp, #72]
 2868 0198 9A46     		mov	r10, r3
 2869 019a 29E0     		b	.L46
 2870              	.LVL551:
 2871              	.L47:
 395:..\..\..\liblc3\src/mdct.c ****     }
 396:..\..\..\liblc3\src/mdct.c **** 
 397:..\..\..\liblc3\src/mdct.c ****     while (y1 < y + 2*n4) {
 398:..\..\..\liblc3\src/mdct.c ****         *(y1++) = *(x  ) * *(--w0);
 2872              		.loc 1 398 0
 2873 019c 2B1F     		subs	r3, r5, #4
 2874              	.LVL552:
 2875 019e 1968     		ldr	r1, [r3]
 2876 01a0 2068     		ldr	r0, [r4]
 2877 01a2 FFF7FEFF 		bl	__aeabi_fmul
 2878              	.LVL553:
 2879 01a6 3860     		str	r0, [r7]
 2880              	.LVL554:
 399:..\..\..\liblc3\src/mdct.c ****         *(--y2) = *(x++) * *(w2++);
 2881              		.loc 1 399 0
 2882 01a8 4346     		mov	r3, r8
 2883 01aa 1968     		ldr	r1, [r3]
 2884 01ac 2068     		ldr	r0, [r4]
 2885 01ae FFF7FEFF 		bl	__aeabi_fmul
 2886              	.LVL555:
 2887 01b2 331F     		subs	r3, r6, #4
 2888              	.LVL556:
 2889 01b4 1860     		str	r0, [r3]
 400:..\..\..\liblc3\src/mdct.c **** 
 401:..\..\..\liblc3\src/mdct.c ****         *(y1++) = *(x  ) * *(--w0);
 2890              		.loc 1 401 0
 2891 01b6 0823     		movs	r3, #8
 2892              	.LVL557:
 2893 01b8 9C46     		mov	ip, r3
 2894 01ba BC44     		add	ip, ip, r7
 2895 01bc 6346     		mov	r3, ip
 2896 01be 0193     		str	r3, [sp, #4]
 2897              	.LVL558:
 2898 01c0 083D     		subs	r5, r5, #8
 2899              	.LVL559:
 2900 01c2 2968     		ldr	r1, [r5]
 2901 01c4 6068     		ldr	r0, [r4, #4]
 2902 01c6 FFF7FEFF 		bl	__aeabi_fmul
 2903              	.LVL560:
 2904 01ca 7860     		str	r0, [r7, #4]
 402:..\..\..\liblc3\src/mdct.c ****         *(--y2) = *(x++) * *(w2++);
 2905              		.loc 1 402 0
 2906 01cc 083E     		subs	r6, r6, #8
 2907              	.LVL561:
 2908 01ce 0822     		movs	r2, #8
 2909 01d0 9446     		mov	ip, r2
 2910 01d2 A444     		add	ip, ip, r4
 2911 01d4 6246     		mov	r2, ip
 2912 01d6 0292     		str	r2, [sp, #8]
 2913              	.LVL562:
 2914 01d8 6068     		ldr	r0, [r4, #4]
ARM GAS  C:\Users\rdn\AppData\Local\Temp\ccCJgMYD.s 			page 62


 2915 01da 4346     		mov	r3, r8
 2916 01dc 0833     		adds	r3, r3, #8
 2917 01de 1C00     		movs	r4, r3
 2918              	.LVL563:
 2919 01e0 4146     		mov	r1, r8
 2920 01e2 4968     		ldr	r1, [r1, #4]
 2921 01e4 FFF7FEFF 		bl	__aeabi_fmul
 2922              	.LVL564:
 2923 01e8 3060     		str	r0, [r6]
 401:..\..\..\liblc3\src/mdct.c ****         *(--y2) = *(x++) * *(w2++);
 2924              		.loc 1 401 0
 2925 01ea 019F     		ldr	r7, [sp, #4]
 2926              		.loc 1 402 0
 2927 01ec A046     		mov	r8, r4
 2928 01ee 029C     		ldr	r4, [sp, #8]
 2929              	.LVL565:
 2930              	.L46:
 397:..\..\..\liblc3\src/mdct.c ****         *(y1++) = *(x  ) * *(--w0);
 2931              		.loc 1 397 0
 2932 01f0 4B46     		mov	r3, r9
 2933 01f2 DB00     		lsls	r3, r3, #3
 2934 01f4 5344     		add	r3, r3, r10
 2935 01f6 9F42     		cmp	r7, r3
 2936 01f8 D0D3     		bcc	.L47
 2937 01fa 4746     		mov	r7, r8
 2938              	.LVL566:
 2939 01fc A846     		mov	r8, r5
 2940              	.LVL567:
 2941 01fe 3500     		movs	r5, r6
 2942              	.LVL568:
 2943 0200 4646     		mov	r6, r8
 2944              	.LVL569:
 2945 0202 B846     		mov	r8, r7
 2946              	.LVL570:
 2947 0204 5F46     		mov	r7, fp
 2948              	.LVL571:
 2949 0206 24E0     		b	.L48
 2950              	.LVL572:
 2951              	.L49:
 403:..\..\..\liblc3\src/mdct.c ****     }
 404:..\..\..\liblc3\src/mdct.c **** 
 405:..\..\..\liblc3\src/mdct.c ****     while (y2 > y3) {
 406:..\..\..\liblc3\src/mdct.c ****         *(y3++) = *(x  ) * *(--w0);
 2952              		.loc 1 406 0
 2953 0208 331F     		subs	r3, r6, #4
 2954              	.LVL573:
 2955 020a 1968     		ldr	r1, [r3]
 2956 020c 2068     		ldr	r0, [r4]
 2957 020e FFF7FEFF 		bl	__aeabi_fmul
 2958              	.LVL574:
 2959 0212 3860     		str	r0, [r7]
 2960              	.LVL575:
 407:..\..\..\liblc3\src/mdct.c ****         *(--y2) = *(x++) * *(w2++);
 2961              		.loc 1 407 0
 2962 0214 4346     		mov	r3, r8
 2963 0216 1968     		ldr	r1, [r3]
 2964 0218 2068     		ldr	r0, [r4]
ARM GAS  C:\Users\rdn\AppData\Local\Temp\ccCJgMYD.s 			page 63


 2965 021a FFF7FEFF 		bl	__aeabi_fmul
 2966              	.LVL576:
 2967 021e 2B1F     		subs	r3, r5, #4
 2968              	.LVL577:
 2969 0220 1860     		str	r0, [r3]
 408:..\..\..\liblc3\src/mdct.c **** 
 409:..\..\..\liblc3\src/mdct.c ****         *(y3++) = *(x  ) * *(--w0);
 2970              		.loc 1 409 0
 2971 0222 0823     		movs	r3, #8
 2972              	.LVL578:
 2973 0224 9A46     		mov	r10, r3
 2974 0226 BA44     		add	r10, r10, r7
 2975              	.LVL579:
 2976 0228 083E     		subs	r6, r6, #8
 2977              	.LVL580:
 2978 022a 3168     		ldr	r1, [r6]
 2979 022c 6068     		ldr	r0, [r4, #4]
 2980 022e FFF7FEFF 		bl	__aeabi_fmul
 2981              	.LVL581:
 2982 0232 7860     		str	r0, [r7, #4]
 410:..\..\..\liblc3\src/mdct.c ****         *(--y2) = *(x++) * *(w2++);
 2983              		.loc 1 410 0
 2984 0234 083D     		subs	r5, r5, #8
 2985              	.LVL582:
 2986 0236 0823     		movs	r3, #8
 2987 0238 9946     		mov	r9, r3
 2988 023a A144     		add	r9, r9, r4
 2989              	.LVL583:
 2990 023c 6068     		ldr	r0, [r4, #4]
 2991 023e 4446     		mov	r4, r8
 2992 0240 0834     		adds	r4, r4, #8
 2993              	.LVL584:
 2994 0242 4346     		mov	r3, r8
 2995 0244 5968     		ldr	r1, [r3, #4]
 2996 0246 FFF7FEFF 		bl	__aeabi_fmul
 2997              	.LVL585:
 2998 024a 2860     		str	r0, [r5]
 409:..\..\..\liblc3\src/mdct.c ****         *(--y2) = *(x++) * *(w2++);
 2999              		.loc 1 409 0
 3000 024c 5746     		mov	r7, r10
 3001              		.loc 1 410 0
 3002 024e A046     		mov	r8, r4
 3003 0250 4C46     		mov	r4, r9
 3004              	.LVL586:
 3005              	.L48:
 405:..\..\..\liblc3\src/mdct.c ****         *(y3++) = *(x  ) * *(--w0);
 3006              		.loc 1 405 0
 3007 0252 BD42     		cmp	r5, r7
 3008 0254 D8D8     		bhi	.L49
 411:..\..\..\liblc3\src/mdct.c ****     }
 412:..\..\..\liblc3\src/mdct.c **** }
 3009              		.loc 1 412 0
 3010 0256 09B0     		add	sp, sp, #36
 3011              		@ sp needed
 3012              	.LVL587:
 3013              	.LVL588:
 3014              	.LVL589:
ARM GAS  C:\Users\rdn\AppData\Local\Temp\ccCJgMYD.s 			page 64


 3015              	.LVL590:
 3016              	.LVL591:
 3017 0258 3CBC     		pop	{r2, r3, r4, r5}
 3018 025a 9046     		mov	r8, r2
 3019 025c 9946     		mov	r9, r3
 3020 025e A246     		mov	r10, r4
 3021 0260 AB46     		mov	fp, r5
 3022 0262 F0BD     		pop	{r4, r5, r6, r7, pc}
 3023              	.L51:
 3024              		.align	2
 3025              	.L50:
 3026 0264 00000000 		.word	lc3_mdct_win
 3027 0268 00000000 		.word	lc3_ns_2m5
 3028 026c 00000000 		.word	lc3_ns_4m
 3029              		.cfi_endproc
 3030              	.LFE29:
 3031              		.size	imdct_window, .-imdct_window
 3032              		.section	.text.rescale,"ax",%progbits
 3033              		.align	2
 3034              		.code	16
 3035              		.thumb_func
 3036              		.type	rescale, %function
 3037              	rescale:
 3038              	.LFB30:
 413:..\..\..\liblc3\src/mdct.c **** 
 414:..\..\..\liblc3\src/mdct.c **** /**
 415:..\..\..\liblc3\src/mdct.c ****  * Rescale samples
 416:..\..\..\liblc3\src/mdct.c ****  * x, n            Input and count of samples, scaled as output
 417:..\..\..\liblc3\src/mdct.c ****  * scale           Scale factor
 418:..\..\..\liblc3\src/mdct.c ****  */
 419:..\..\..\liblc3\src/mdct.c **** LC3_HOT static void rescale(float *x, int n, float f)
 420:..\..\..\liblc3\src/mdct.c **** {
 3039              		.loc 1 420 0
 3040              		.cfi_startproc
 3041              		@ args = 0, pretend = 0, frame = 8
 3042              		@ frame_needed = 0, uses_anonymous_args = 0
 3043              	.LVL592:
 3044 0000 F0B5     		push	{r4, r5, r6, r7, lr}
 3045              		.cfi_def_cfa_offset 20
 3046              		.cfi_offset 4, -20
 3047              		.cfi_offset 5, -16
 3048              		.cfi_offset 6, -12
 3049              		.cfi_offset 7, -8
 3050              		.cfi_offset 14, -4
 3051 0002 83B0     		sub	sp, sp, #12
 3052              		.cfi_def_cfa_offset 32
 3053 0004 0400     		movs	r4, r0
 3054 0006 0D00     		movs	r5, r1
 3055 0008 0192     		str	r2, [sp, #4]
 3056              	.LVL593:
 3057              	.LBB63:
 421:..\..\..\liblc3\src/mdct.c ****     for (int i = 0; i < (n >> 2); i++) {
 3058              		.loc 1 421 0
 3059 000a 0026     		movs	r6, #0
 3060 000c 1AE0     		b	.L53
 3061              	.LVL594:
 3062              	.L54:
ARM GAS  C:\Users\rdn\AppData\Local\Temp\ccCJgMYD.s 			page 65


 422:..\..\..\liblc3\src/mdct.c ****         *(x++) *= f; *(x++) *= f;
 3063              		.loc 1 422 0 discriminator 3
 3064 000e 019F     		ldr	r7, [sp, #4]
 3065 0010 391C     		adds	r1, r7, #0
 3066 0012 2068     		ldr	r0, [r4]
 3067 0014 FFF7FEFF 		bl	__aeabi_fmul
 3068              	.LVL595:
 3069 0018 2060     		str	r0, [r4]
 3070              	.LVL596:
 3071 001a 391C     		adds	r1, r7, #0
 3072 001c 6068     		ldr	r0, [r4, #4]
 3073 001e FFF7FEFF 		bl	__aeabi_fmul
 3074              	.LVL597:
 3075 0022 6060     		str	r0, [r4, #4]
 3076              	.LVL598:
 423:..\..\..\liblc3\src/mdct.c ****         *(x++) *= f; *(x++) *= f;
 3077              		.loc 1 423 0 discriminator 3
 3078 0024 0197     		str	r7, [sp, #4]
 3079 0026 391C     		adds	r1, r7, #0
 3080 0028 A068     		ldr	r0, [r4, #8]
 3081 002a FFF7FEFF 		bl	__aeabi_fmul
 3082              	.LVL599:
 3083 002e A060     		str	r0, [r4, #8]
 3084 0030 2300     		movs	r3, r4
 3085 0032 1033     		adds	r3, r3, #16
 3086 0034 1F00     		movs	r7, r3
 3087              	.LVL600:
 3088 0036 0199     		ldr	r1, [sp, #4]
 3089 0038 E068     		ldr	r0, [r4, #12]
 3090 003a FFF7FEFF 		bl	__aeabi_fmul
 3091              	.LVL601:
 3092 003e E060     		str	r0, [r4, #12]
 421:..\..\..\liblc3\src/mdct.c ****     for (int i = 0; i < (n >> 2); i++) {
 3093              		.loc 1 421 0 discriminator 3
 3094 0040 0136     		adds	r6, r6, #1
 3095              	.LVL602:
 3096              		.loc 1 423 0 discriminator 3
 3097 0042 3C00     		movs	r4, r7
 3098              	.LVL603:
 3099              	.L53:
 421:..\..\..\liblc3\src/mdct.c ****     for (int i = 0; i < (n >> 2); i++) {
 3100              		.loc 1 421 0 discriminator 1
 3101 0044 AB10     		asrs	r3, r5, #2
 3102 0046 9E42     		cmp	r6, r3
 3103 0048 E1DB     		blt	.L54
 3104              	.LBE63:
 424:..\..\..\liblc3\src/mdct.c ****     }
 425:..\..\..\liblc3\src/mdct.c **** }
 3105              		.loc 1 425 0
 3106 004a 03B0     		add	sp, sp, #12
 3107              		@ sp needed
 3108              	.LVL604:
 3109              	.LVL605:
 3110              	.LVL606:
 3111 004c F0BD     		pop	{r4, r5, r6, r7, pc}
 3112              		.cfi_endproc
 3113              	.LFE30:
ARM GAS  C:\Users\rdn\AppData\Local\Temp\ccCJgMYD.s 			page 66


 3114              		.size	rescale, .-rescale
 3115              		.global	__aeabi_i2f
 3116              		.global	__aeabi_fdiv
 3117 004e C046     		.section	.text.lc3_mdct_forward,"ax",%progbits
 3118              		.align	2
 3119              		.global	lc3_mdct_forward
 3120              		.code	16
 3121              		.thumb_func
 3122              		.type	lc3_mdct_forward, %function
 3123              	lc3_mdct_forward:
 3124              	.LFB31:
 426:..\..\..\liblc3\src/mdct.c **** 
 427:..\..\..\liblc3\src/mdct.c **** /**
 428:..\..\..\liblc3\src/mdct.c ****  * Forward MDCT transformation
 429:..\..\..\liblc3\src/mdct.c ****  */
 430:..\..\..\liblc3\src/mdct.c **** void lc3_mdct_forward(
 431:..\..\..\liblc3\src/mdct.c ****     enum lc3_dt dt, enum lc3_srate sr, enum lc3_srate sr_dst,
 432:..\..\..\liblc3\src/mdct.c ****     const float *x, float *d, float *y)
 433:..\..\..\liblc3\src/mdct.c **** {
 3125              		.loc 1 433 0
 3126              		.cfi_startproc
 3127              		@ args = 8, pretend = 0, frame = 3848
 3128              		@ frame_needed = 0, uses_anonymous_args = 0
 3129              	.LVL607:
 3130 0000 F0B5     		push	{r4, r5, r6, r7, lr}
 3131              		.cfi_def_cfa_offset 20
 3132              		.cfi_offset 4, -20
 3133              		.cfi_offset 5, -16
 3134              		.cfi_offset 6, -12
 3135              		.cfi_offset 7, -8
 3136              		.cfi_offset 14, -4
 3137 0002 294C     		ldr	r4, .L57
 3138 0004 A544     		add	sp, sp, r4
 3139              		.cfi_def_cfa_offset 3880
 3140 0006 0393     		str	r3, [sp, #12]
 434:..\..\..\liblc3\src/mdct.c ****     const struct lc3_mdct_rot_def *rot = lc3_mdct_rot[dt][sr];
 3141              		.loc 1 434 0
 3142 0008 C300     		lsls	r3, r0, #3
 3143              	.LVL608:
 3144 000a 1B1A     		subs	r3, r3, r0
 3145 000c 5B18     		adds	r3, r3, r1
 3146 000e 9B00     		lsls	r3, r3, #2
 3147 0010 264C     		ldr	r4, .L57+4
 3148 0012 1F59     		ldr	r7, [r3, r4]
 3149              	.LVL609:
 3150              	.LBB64:
 3151              	.LBB65:
  47:..\..\..\liblc3\src/tables.h **** }
 3152              		.loc 2 47 0
 3153 0014 264C     		ldr	r4, .L57+8
 3154 0016 9200     		lsls	r2, r2, #2
 3155              	.LVL610:
 3156 0018 1259     		ldr	r2, [r2, r4]
 3157 001a 431C     		adds	r3, r0, #1
 3158 001c 1600     		movs	r6, r2
 3159 001e 5E43     		muls	r6, r3
 3160              	.LVL611:
ARM GAS  C:\Users\rdn\AppData\Local\Temp\ccCJgMYD.s 			page 67


 3161              	.LBE65:
 3162              	.LBE64:
 3163              	.LBB66:
 3164              	.LBB67:
 3165 0020 8A00     		lsls	r2, r1, #2
 3166 0022 1459     		ldr	r4, [r2, r4]
 3167 0024 5C43     		muls	r4, r3
 3168              	.LVL612:
 3169              	.LBE67:
 3170              	.LBE66:
 435:..\..\..\liblc3\src/mdct.c ****     int ns_dst = lc3_ns(dt, sr_dst);
 436:..\..\..\liblc3\src/mdct.c ****     int ns = lc3_ns(dt, sr);
 437:..\..\..\liblc3\src/mdct.c **** 
 438:..\..\..\liblc3\src/mdct.c ****     struct lc3_complex buffer[LC3_MAX_NS / 2];
 439:..\..\..\liblc3\src/mdct.c ****     struct lc3_complex *z = (struct lc3_complex *)y;
 440:..\..\..\liblc3\src/mdct.c ****     union { float *f; struct lc3_complex *z; } u = { .z = buffer };
 441:..\..\..\liblc3\src/mdct.c **** 
 442:..\..\..\liblc3\src/mdct.c ****     mdct_window(dt, sr, x, d, u.f);
 3171              		.loc 1 442 0
 3172 0026 04AD     		add	r5, sp, #16
 3173 0028 0095     		str	r5, [sp]
 3174 002a F223     		movs	r3, #242
 3175 002c 1B01     		lsls	r3, r3, #4
 3176 002e 02AA     		add	r2, sp, #8
 3177 0030 9446     		mov	ip, r2
 3178 0032 6344     		add	r3, r3, ip
 3179 0034 1B68     		ldr	r3, [r3]
 3180 0036 039A     		ldr	r2, [sp, #12]
 3181 0038 FFF7FEFF 		bl	mdct_window
 3182              	.LVL613:
 443:..\..\..\liblc3\src/mdct.c **** 
 444:..\..\..\liblc3\src/mdct.c ****     mdct_pre_fft(rot, u.f, u.z);
 3183              		.loc 1 444 0
 3184 003c 2A00     		movs	r2, r5
 3185 003e 2900     		movs	r1, r5
 3186 0040 3800     		movs	r0, r7
 3187 0042 FFF7FEFF 		bl	mdct_pre_fft
 3188              	.LVL614:
 445:..\..\..\liblc3\src/mdct.c ****     u.z = fft(u.z, ns/2, u.z, z);
 3189              		.loc 1 445 0
 3190 0046 E10F     		lsrs	r1, r4, #31
 3191 0048 0919     		adds	r1, r1, r4
 3192 004a 4910     		asrs	r1, r1, #1
 3193 004c 194B     		ldr	r3, .L57+12
 3194 004e 02AA     		add	r2, sp, #8
 3195 0050 9446     		mov	ip, r2
 3196 0052 6344     		add	r3, r3, ip
 3197 0054 1B68     		ldr	r3, [r3]
 3198 0056 2A00     		movs	r2, r5
 3199 0058 2800     		movs	r0, r5
 3200 005a FFF7FEFF 		bl	fft
 3201              	.LVL615:
 3202 005e 0100     		movs	r1, r0
 446:..\..\..\liblc3\src/mdct.c ****     mdct_post_fft(rot, u.z, y);
 3203              		.loc 1 446 0
 3204 0060 144B     		ldr	r3, .L57+12
 3205 0062 02AA     		add	r2, sp, #8
ARM GAS  C:\Users\rdn\AppData\Local\Temp\ccCJgMYD.s 			page 68


 3206 0064 9446     		mov	ip, r2
 3207 0066 6344     		add	r3, r3, ip
 3208 0068 1A68     		ldr	r2, [r3]
 3209 006a 3800     		movs	r0, r7
 3210 006c FFF7FEFF 		bl	mdct_post_fft
 3211              	.LVL616:
 447:..\..\..\liblc3\src/mdct.c **** 
 448:..\..\..\liblc3\src/mdct.c ****     if (ns != ns_dst)
 3212              		.loc 1 448 0
 3213 0070 B442     		cmp	r4, r6
 3214 0072 15D0     		beq	.L55
 449:..\..\..\liblc3\src/mdct.c ****         rescale(y, ns_dst, sqrtf((float)ns_dst / ns));
 3215              		.loc 1 449 0
 3216 0074 3000     		movs	r0, r6
 3217 0076 FFF7FEFF 		bl	__aeabi_i2f
 3218              	.LVL617:
 3219 007a 051C     		adds	r5, r0, #0
 3220 007c 2000     		movs	r0, r4
 3221 007e FFF7FEFF 		bl	__aeabi_i2f
 3222              	.LVL618:
 3223 0082 011C     		adds	r1, r0, #0
 3224 0084 281C     		adds	r0, r5, #0
 3225 0086 FFF7FEFF 		bl	__aeabi_fdiv
 3226              	.LVL619:
 3227 008a FFF7FEFF 		bl	sqrtf
 3228              	.LVL620:
 3229 008e 021C     		adds	r2, r0, #0
 3230 0090 3100     		movs	r1, r6
 3231 0092 084B     		ldr	r3, .L57+12
 3232 0094 02A8     		add	r0, sp, #8
 3233 0096 8446     		mov	ip, r0
 3234 0098 6344     		add	r3, r3, ip
 3235 009a 1868     		ldr	r0, [r3]
 3236 009c FFF7FEFF 		bl	rescale
 3237              	.LVL621:
 3238              	.L55:
 450:..\..\..\liblc3\src/mdct.c **** }
 3239              		.loc 1 450 0
 3240 00a0 054B     		ldr	r3, .L57+16
 3241 00a2 9D44     		add	sp, sp, r3
 3242              		@ sp needed
 3243              	.LVL622:
 3244 00a4 F0BD     		pop	{r4, r5, r6, r7, pc}
 3245              	.L58:
 3246 00a6 C046     		.align	2
 3247              	.L57:
 3248 00a8 ECF0FFFF 		.word	-3860
 3249 00ac 00000000 		.word	lc3_mdct_rot
 3250 00b0 00000000 		.word	lc3_ns_2m5
 3251 00b4 240F0000 		.word	3876
 3252 00b8 140F0000 		.word	3860
 3253              		.cfi_endproc
 3254              	.LFE31:
 3255              		.size	lc3_mdct_forward, .-lc3_mdct_forward
 3256              		.section	.text.lc3_mdct_inverse,"ax",%progbits
 3257              		.align	2
 3258              		.global	lc3_mdct_inverse
ARM GAS  C:\Users\rdn\AppData\Local\Temp\ccCJgMYD.s 			page 69


 3259              		.code	16
 3260              		.thumb_func
 3261              		.type	lc3_mdct_inverse, %function
 3262              	lc3_mdct_inverse:
 3263              	.LFB32:
 451:..\..\..\liblc3\src/mdct.c **** 
 452:..\..\..\liblc3\src/mdct.c **** /**
 453:..\..\..\liblc3\src/mdct.c ****  * Inverse MDCT transformation
 454:..\..\..\liblc3\src/mdct.c ****  */
 455:..\..\..\liblc3\src/mdct.c **** void lc3_mdct_inverse(
 456:..\..\..\liblc3\src/mdct.c ****     enum lc3_dt dt, enum lc3_srate sr, enum lc3_srate sr_src,
 457:..\..\..\liblc3\src/mdct.c ****     const float *x, float *d, float *y)
 458:..\..\..\liblc3\src/mdct.c **** {
 3264              		.loc 1 458 0
 3265              		.cfi_startproc
 3266              		@ args = 8, pretend = 0, frame = 3848
 3267              		@ frame_needed = 0, uses_anonymous_args = 0
 3268              	.LVL623:
 3269 0000 F0B5     		push	{r4, r5, r6, r7, lr}
 3270              		.cfi_def_cfa_offset 20
 3271              		.cfi_offset 4, -20
 3272              		.cfi_offset 5, -16
 3273              		.cfi_offset 6, -12
 3274              		.cfi_offset 7, -8
 3275              		.cfi_offset 14, -4
 3276 0002 2C4C     		ldr	r4, .L61
 3277 0004 A544     		add	sp, sp, r4
 3278              		.cfi_def_cfa_offset 3880
 3279 0006 0500     		movs	r5, r0
 3280 0008 0F00     		movs	r7, r1
 459:..\..\..\liblc3\src/mdct.c ****     const struct lc3_mdct_rot_def *rot = lc3_mdct_rot[dt][sr];
 3281              		.loc 1 459 0
 3282 000a C000     		lsls	r0, r0, #3
 3283              	.LVL624:
 3284 000c 401B     		subs	r0, r0, r5
 3285 000e 4018     		adds	r0, r0, r1
 3286 0010 8000     		lsls	r0, r0, #2
 3287 0012 2949     		ldr	r1, .L61+4
 3288              	.LVL625:
 3289 0014 4158     		ldr	r1, [r0, r1]
 3290 0016 0391     		str	r1, [sp, #12]
 3291              	.LVL626:
 3292              	.LBB68:
 3293              	.LBB69:
  47:..\..\..\liblc3\src/tables.h **** }
 3294              		.loc 2 47 0
 3295 0018 2849     		ldr	r1, .L61+8
 3296              	.LVL627:
 3297 001a 9200     		lsls	r2, r2, #2
 3298              	.LVL628:
 3299 001c 5058     		ldr	r0, [r2, r1]
 3300              	.LVL629:
 3301 001e 6A1C     		adds	r2, r5, #1
 3302 0020 5043     		muls	r0, r2
 3303 0022 0600     		movs	r6, r0
 3304              	.LVL630:
 3305              	.LBE69:
ARM GAS  C:\Users\rdn\AppData\Local\Temp\ccCJgMYD.s 			page 70


 3306              	.LBE68:
 3307              	.LBB70:
 3308              	.LBB71:
 3309 0024 B800     		lsls	r0, r7, #2
 3310 0026 4458     		ldr	r4, [r0, r1]
 3311 0028 5443     		muls	r4, r2
 3312              	.LVL631:
 3313              	.LBE71:
 3314              	.LBE70:
 460:..\..\..\liblc3\src/mdct.c ****     int ns_src = lc3_ns(dt, sr_src);
 461:..\..\..\liblc3\src/mdct.c ****     int ns = lc3_ns(dt, sr);
 462:..\..\..\liblc3\src/mdct.c **** 
 463:..\..\..\liblc3\src/mdct.c ****     struct lc3_complex buffer[LC3_MAX_NS / 2];
 464:..\..\..\liblc3\src/mdct.c ****     struct lc3_complex *z = (struct lc3_complex *)y;
 465:..\..\..\liblc3\src/mdct.c ****     union { float *f; struct lc3_complex *z; } u = { .z = buffer };
 466:..\..\..\liblc3\src/mdct.c **** 
 467:..\..\..\liblc3\src/mdct.c ****     imdct_pre_fft(rot, x, z);
 3315              		.loc 1 467 0
 3316 002a 254A     		ldr	r2, .L61+12
 3317 002c 02A9     		add	r1, sp, #8
 3318 002e 8C46     		mov	ip, r1
 3319 0030 6244     		add	r2, r2, ip
 3320 0032 1268     		ldr	r2, [r2]
 3321 0034 1900     		movs	r1, r3
 3322 0036 0398     		ldr	r0, [sp, #12]
 3323 0038 FFF7FEFF 		bl	imdct_pre_fft
 3324              	.LVL632:
 468:..\..\..\liblc3\src/mdct.c ****     z = fft(z, ns/2, z, u.z);
 3325              		.loc 1 468 0
 3326 003c E10F     		lsrs	r1, r4, #31
 3327 003e 0919     		adds	r1, r1, r4
 3328 0040 4910     		asrs	r1, r1, #1
 3329 0042 04AB     		add	r3, sp, #16
 3330 0044 1E4A     		ldr	r2, .L61+12
 3331 0046 02A8     		add	r0, sp, #8
 3332 0048 8446     		mov	ip, r0
 3333 004a 6244     		add	r2, r2, ip
 3334 004c 1268     		ldr	r2, [r2]
 3335 004e 1C48     		ldr	r0, .L61+12
 3336 0050 0290     		str	r0, [sp, #8]
 3337 0052 0298     		ldr	r0, [sp, #8]
 3338 0054 6044     		add	r0, r0, ip
 3339 0056 0290     		str	r0, [sp, #8]
 3340 0058 1000     		movs	r0, r2
 3341 005a FFF7FEFF 		bl	fft
 3342              	.LVL633:
 3343 005e 0100     		movs	r1, r0
 3344              	.LVL634:
 469:..\..\..\liblc3\src/mdct.c ****     imdct_post_fft(rot, z, u.f);
 3345              		.loc 1 469 0
 3346 0060 04AA     		add	r2, sp, #16
 3347 0062 0398     		ldr	r0, [sp, #12]
 3348              	.LVL635:
 3349 0064 FFF7FEFF 		bl	imdct_post_fft
 3350              	.LVL636:
 470:..\..\..\liblc3\src/mdct.c **** 
 471:..\..\..\liblc3\src/mdct.c ****     if (ns != ns_src)
ARM GAS  C:\Users\rdn\AppData\Local\Temp\ccCJgMYD.s 			page 71


 3351              		.loc 1 471 0
 3352 0068 B442     		cmp	r4, r6
 3353 006a 11D0     		beq	.L60
 472:..\..\..\liblc3\src/mdct.c ****         rescale(u.f, ns, sqrtf((float)ns / ns_src));
 3354              		.loc 1 472 0
 3355 006c 2000     		movs	r0, r4
 3356 006e FFF7FEFF 		bl	__aeabi_i2f
 3357              	.LVL637:
 3358 0072 0390     		str	r0, [sp, #12]
 3359              	.LVL638:
 3360 0074 3000     		movs	r0, r6
 3361 0076 FFF7FEFF 		bl	__aeabi_i2f
 3362              	.LVL639:
 3363 007a 011C     		adds	r1, r0, #0
 3364 007c 0398     		ldr	r0, [sp, #12]
 3365 007e FFF7FEFF 		bl	__aeabi_fdiv
 3366              	.LVL640:
 3367 0082 FFF7FEFF 		bl	sqrtf
 3368              	.LVL641:
 3369 0086 021C     		adds	r2, r0, #0
 3370 0088 2100     		movs	r1, r4
 3371 008a 04A8     		add	r0, sp, #16
 3372 008c FFF7FEFF 		bl	rescale
 3373              	.LVL642:
 3374              	.L60:
 473:..\..\..\liblc3\src/mdct.c **** 
 474:..\..\..\liblc3\src/mdct.c ****     imdct_window(dt, sr, u.f, d, y);
 3375              		.loc 1 474 0
 3376 0090 0B4B     		ldr	r3, .L61+12
 3377 0092 02AA     		add	r2, sp, #8
 3378 0094 9446     		mov	ip, r2
 3379 0096 6344     		add	r3, r3, ip
 3380 0098 1B68     		ldr	r3, [r3]
 3381 009a 0093     		str	r3, [sp]
 3382 009c F223     		movs	r3, #242
 3383 009e 1B01     		lsls	r3, r3, #4
 3384 00a0 6344     		add	r3, r3, ip
 3385 00a2 1B68     		ldr	r3, [r3]
 3386 00a4 04AA     		add	r2, sp, #16
 3387 00a6 3900     		movs	r1, r7
 3388 00a8 2800     		movs	r0, r5
 3389 00aa FFF7FEFF 		bl	imdct_window
 3390              	.LVL643:
 475:..\..\..\liblc3\src/mdct.c **** }
 3391              		.loc 1 475 0
 3392 00ae 054B     		ldr	r3, .L61+16
 3393 00b0 9D44     		add	sp, sp, r3
 3394              		@ sp needed
 3395 00b2 F0BD     		pop	{r4, r5, r6, r7, pc}
 3396              	.L62:
 3397              		.align	2
 3398              	.L61:
 3399 00b4 ECF0FFFF 		.word	-3860
 3400 00b8 00000000 		.word	lc3_mdct_rot
 3401 00bc 00000000 		.word	lc3_ns_2m5
 3402 00c0 240F0000 		.word	3876
 3403 00c4 140F0000 		.word	3860
ARM GAS  C:\Users\rdn\AppData\Local\Temp\ccCJgMYD.s 			page 72


 3404              		.cfi_endproc
 3405              	.LFE32:
 3406              		.size	lc3_mdct_inverse, .-lc3_mdct_inverse
 3407              		.text
 3408              	.Letext0:
 3409              		.file 3 ".\\liblc3\\include/lc3_private.h"
 3410              		.file 4 "..\\..\\..\\liblc3\\src\\common.h"
 3411              		.file 5 "c:\\program files (x86)\\cypress\\psoc creator\\4.4\\psoc creator\\import\\gnu\\arm\\5.4.