ARM GAS  C:\Users\rdn\AppData\Local\Temp\ccFEeGTH.s 			page 1


   1              		.syntax unified
   2              		.cpu cortex-m0plus
   3              		.fpu softvfp
   4              		.eabi_attribute 20, 1
   5              		.eabi_attribute 21, 1
   6              		.eabi_attribute 23, 3
   7              		.eabi_attribute 24, 1
   8              		.eabi_attribute 25, 1
   9              		.eabi_attribute 26, 1
  10              		.eabi_attribute 30, 1
  11              		.eabi_attribute 34, 0
  12              		.eabi_attribute 18, 4
  13              		.thumb
  14              		.syntax unified
  15              		.file	"sns.c"
  16              		.text
  17              	.Ltext0:
  18              		.cfi_sections	.debug_frame
  19              		.global	__aeabi_fmul
  20              		.global	__aeabi_fadd
  21              		.section	.text.dct16_forward,"ax",%progbits
  22              		.align	2
  23              		.code	16
  24              		.thumb_func
  25              		.type	dct16_forward, %function
  26              	dct16_forward:
  27              	.LFB20:
  28              		.file 1 "..\\..\\..\\liblc3\\src\\sns.c"
   1:..\..\..\liblc3\src/sns.c **** /******************************************************************************
   2:..\..\..\liblc3\src/sns.c ****  *
   3:..\..\..\liblc3\src/sns.c ****  *  Copyright 2022 Google LLC
   4:..\..\..\liblc3\src/sns.c ****  *
   5:..\..\..\liblc3\src/sns.c ****  *  Licensed under the Apache License, Version 2.0 (the "License");
   6:..\..\..\liblc3\src/sns.c ****  *  you may not use this file except in compliance with the License.
   7:..\..\..\liblc3\src/sns.c ****  *  You may obtain a copy of the License at:
   8:..\..\..\liblc3\src/sns.c ****  *
   9:..\..\..\liblc3\src/sns.c ****  *  http://www.apache.org/licenses/LICENSE-2.0
  10:..\..\..\liblc3\src/sns.c ****  *
  11:..\..\..\liblc3\src/sns.c ****  *  Unless required by applicable law or agreed to in writing, software
  12:..\..\..\liblc3\src/sns.c ****  *  distributed under the License is distributed on an "AS IS" BASIS,
  13:..\..\..\liblc3\src/sns.c ****  *  WITHOUT WARRANTIES OR CONDITIONS OF ANY KIND, either express or implied.
  14:..\..\..\liblc3\src/sns.c ****  *  See the License for the specific language governing permissions and
  15:..\..\..\liblc3\src/sns.c ****  *  limitations under the License.
  16:..\..\..\liblc3\src/sns.c ****  *
  17:..\..\..\liblc3\src/sns.c ****  ******************************************************************************/
  18:..\..\..\liblc3\src/sns.c **** 
  19:..\..\..\liblc3\src/sns.c **** #include "sns.h"
  20:..\..\..\liblc3\src/sns.c **** #include "tables.h"
  21:..\..\..\liblc3\src/sns.c **** 
  22:..\..\..\liblc3\src/sns.c **** 
  23:..\..\..\liblc3\src/sns.c **** /* ----------------------------------------------------------------------------
  24:..\..\..\liblc3\src/sns.c ****  *  DCT-16
  25:..\..\..\liblc3\src/sns.c ****  * -------------------------------------------------------------------------- */
  26:..\..\..\liblc3\src/sns.c **** 
  27:..\..\..\liblc3\src/sns.c **** /**
  28:..\..\..\liblc3\src/sns.c ****  * Matrix of DCT-16 coefficients
  29:..\..\..\liblc3\src/sns.c ****  *
ARM GAS  C:\Users\rdn\AppData\Local\Temp\ccFEeGTH.s 			page 2


  30:..\..\..\liblc3\src/sns.c ****  * M[n][k] = 2f cos( Pi k (2n + 1) / 2N )
  31:..\..\..\liblc3\src/sns.c ****  *
  32:..\..\..\liblc3\src/sns.c ****  *   k = [0..N-1], n = [0..N-1], N = 16
  33:..\..\..\liblc3\src/sns.c ****  *   f = sqrt(1/4N) for k=0, sqrt(1/2N) otherwise
  34:..\..\..\liblc3\src/sns.c ****  */
  35:..\..\..\liblc3\src/sns.c **** static const float dct16_m[16][16] = {
  36:..\..\..\liblc3\src/sns.c **** 
  37:..\..\..\liblc3\src/sns.c ****     {  2.50000000e-01,  3.51850934e-01,  3.46759961e-01,  3.38329500e-01,
  38:..\..\..\liblc3\src/sns.c ****        3.26640741e-01,  3.11806253e-01,  2.93968901e-01,  2.73300467e-01,
  39:..\..\..\liblc3\src/sns.c ****        2.50000000e-01,  2.24291897e-01,  1.96423740e-01,  1.66663915e-01,
  40:..\..\..\liblc3\src/sns.c ****        1.35299025e-01,  1.02631132e-01,  6.89748448e-02,  3.46542923e-02 },
  41:..\..\..\liblc3\src/sns.c **** 
  42:..\..\..\liblc3\src/sns.c ****     {  2.50000000e-01,  3.38329500e-01,  2.93968901e-01,  2.24291897e-01,
  43:..\..\..\liblc3\src/sns.c ****        1.35299025e-01,  3.46542923e-02, -6.89748448e-02, -1.66663915e-01,
  44:..\..\..\liblc3\src/sns.c ****       -2.50000000e-01, -3.11806253e-01, -3.46759961e-01, -3.51850934e-01,
  45:..\..\..\liblc3\src/sns.c ****       -3.26640741e-01, -2.73300467e-01, -1.96423740e-01, -1.02631132e-01 },
  46:..\..\..\liblc3\src/sns.c **** 
  47:..\..\..\liblc3\src/sns.c ****      { 2.50000000e-01,  3.11806253e-01,  1.96423740e-01,  3.46542923e-02,
  48:..\..\..\liblc3\src/sns.c ****       -1.35299025e-01, -2.73300467e-01, -3.46759961e-01, -3.38329500e-01,
  49:..\..\..\liblc3\src/sns.c ****       -2.50000000e-01, -1.02631132e-01,  6.89748448e-02,  2.24291897e-01,
  50:..\..\..\liblc3\src/sns.c ****        3.26640741e-01,  3.51850934e-01,  2.93968901e-01,  1.66663915e-01 },
  51:..\..\..\liblc3\src/sns.c **** 
  52:..\..\..\liblc3\src/sns.c ****      { 2.50000000e-01,  2.73300467e-01,  6.89748448e-02, -1.66663915e-01,
  53:..\..\..\liblc3\src/sns.c ****       -3.26640741e-01, -3.38329500e-01, -1.96423740e-01,  3.46542923e-02,
  54:..\..\..\liblc3\src/sns.c ****        2.50000000e-01,  3.51850934e-01,  2.93968901e-01,  1.02631132e-01,
  55:..\..\..\liblc3\src/sns.c ****       -1.35299025e-01, -3.11806253e-01, -3.46759961e-01, -2.24291897e-01 },
  56:..\..\..\liblc3\src/sns.c **** 
  57:..\..\..\liblc3\src/sns.c ****     {  2.50000000e-01,  2.24291897e-01, -6.89748448e-02, -3.11806253e-01,
  58:..\..\..\liblc3\src/sns.c ****       -3.26640741e-01, -1.02631132e-01,  1.96423740e-01,  3.51850934e-01,
  59:..\..\..\liblc3\src/sns.c ****        2.50000000e-01, -3.46542923e-02, -2.93968901e-01, -3.38329500e-01,
  60:..\..\..\liblc3\src/sns.c ****       -1.35299025e-01,  1.66663915e-01,  3.46759961e-01,  2.73300467e-01 },
  61:..\..\..\liblc3\src/sns.c **** 
  62:..\..\..\liblc3\src/sns.c ****     {  2.50000000e-01,  1.66663915e-01, -1.96423740e-01, -3.51850934e-01,
  63:..\..\..\liblc3\src/sns.c ****       -1.35299025e-01,  2.24291897e-01,  3.46759961e-01,  1.02631132e-01,
  64:..\..\..\liblc3\src/sns.c ****       -2.50000000e-01, -3.38329500e-01, -6.89748448e-02,  2.73300467e-01,
  65:..\..\..\liblc3\src/sns.c ****        3.26640741e-01,  3.46542923e-02, -2.93968901e-01, -3.11806253e-01 },
  66:..\..\..\liblc3\src/sns.c **** 
  67:..\..\..\liblc3\src/sns.c ****     {  2.50000000e-01,  1.02631132e-01, -2.93968901e-01, -2.73300467e-01,
  68:..\..\..\liblc3\src/sns.c ****        1.35299025e-01,  3.51850934e-01,  6.89748448e-02, -3.11806253e-01,
  69:..\..\..\liblc3\src/sns.c ****       -2.50000000e-01,  1.66663915e-01,  3.46759961e-01,  3.46542923e-02,
  70:..\..\..\liblc3\src/sns.c ****       -3.26640741e-01, -2.24291897e-01,  1.96423740e-01,  3.38329500e-01 },
  71:..\..\..\liblc3\src/sns.c **** 
  72:..\..\..\liblc3\src/sns.c ****     {  2.50000000e-01,  3.46542923e-02, -3.46759961e-01, -1.02631132e-01,
  73:..\..\..\liblc3\src/sns.c ****        3.26640741e-01,  1.66663915e-01, -2.93968901e-01, -2.24291897e-01,
  74:..\..\..\liblc3\src/sns.c ****        2.50000000e-01,  2.73300467e-01, -1.96423740e-01, -3.11806253e-01,
  75:..\..\..\liblc3\src/sns.c ****        1.35299025e-01,  3.38329500e-01, -6.89748448e-02, -3.51850934e-01 },
  76:..\..\..\liblc3\src/sns.c **** 
  77:..\..\..\liblc3\src/sns.c ****     {  2.50000000e-01, -3.46542923e-02, -3.46759961e-01,  1.02631132e-01,
  78:..\..\..\liblc3\src/sns.c ****        3.26640741e-01, -1.66663915e-01, -2.93968901e-01,  2.24291897e-01,
  79:..\..\..\liblc3\src/sns.c ****        2.50000000e-01, -2.73300467e-01, -1.96423740e-01,  3.11806253e-01,
  80:..\..\..\liblc3\src/sns.c ****        1.35299025e-01, -3.38329500e-01, -6.89748448e-02,  3.51850934e-01 },
  81:..\..\..\liblc3\src/sns.c **** 
  82:..\..\..\liblc3\src/sns.c ****     {  2.50000000e-01, -1.02631132e-01, -2.93968901e-01,  2.73300467e-01,
  83:..\..\..\liblc3\src/sns.c ****        1.35299025e-01, -3.51850934e-01,  6.89748448e-02,  3.11806253e-01,
  84:..\..\..\liblc3\src/sns.c ****       -2.50000000e-01, -1.66663915e-01,  3.46759961e-01, -3.46542923e-02,
  85:..\..\..\liblc3\src/sns.c ****       -3.26640741e-01,  2.24291897e-01,  1.96423740e-01, -3.38329500e-01 },
  86:..\..\..\liblc3\src/sns.c **** 
ARM GAS  C:\Users\rdn\AppData\Local\Temp\ccFEeGTH.s 			page 3


  87:..\..\..\liblc3\src/sns.c ****     {  2.50000000e-01, -1.66663915e-01, -1.96423740e-01,  3.51850934e-01,
  88:..\..\..\liblc3\src/sns.c ****       -1.35299025e-01, -2.24291897e-01,  3.46759961e-01, -1.02631132e-01,
  89:..\..\..\liblc3\src/sns.c ****       -2.50000000e-01,  3.38329500e-01, -6.89748448e-02, -2.73300467e-01,
  90:..\..\..\liblc3\src/sns.c ****        3.26640741e-01, -3.46542923e-02, -2.93968901e-01,  3.11806253e-01 },
  91:..\..\..\liblc3\src/sns.c **** 
  92:..\..\..\liblc3\src/sns.c ****     {  2.50000000e-01, -2.24291897e-01, -6.89748448e-02,  3.11806253e-01,
  93:..\..\..\liblc3\src/sns.c ****       -3.26640741e-01,  1.02631132e-01,  1.96423740e-01, -3.51850934e-01,
  94:..\..\..\liblc3\src/sns.c ****        2.50000000e-01,  3.46542923e-02, -2.93968901e-01,  3.38329500e-01,
  95:..\..\..\liblc3\src/sns.c ****       -1.35299025e-01, -1.66663915e-01,  3.46759961e-01, -2.73300467e-01 },
  96:..\..\..\liblc3\src/sns.c **** 
  97:..\..\..\liblc3\src/sns.c ****     {  2.50000000e-01, -2.73300467e-01,  6.89748448e-02,  1.66663915e-01,
  98:..\..\..\liblc3\src/sns.c ****       -3.26640741e-01,  3.38329500e-01, -1.96423740e-01, -3.46542923e-02,
  99:..\..\..\liblc3\src/sns.c ****        2.50000000e-01, -3.51850934e-01,  2.93968901e-01, -1.02631132e-01,
 100:..\..\..\liblc3\src/sns.c ****       -1.35299025e-01,  3.11806253e-01, -3.46759961e-01,  2.24291897e-01 },
 101:..\..\..\liblc3\src/sns.c **** 
 102:..\..\..\liblc3\src/sns.c ****     {  2.50000000e-01, -3.11806253e-01,  1.96423740e-01, -3.46542923e-02,
 103:..\..\..\liblc3\src/sns.c ****       -1.35299025e-01,  2.73300467e-01, -3.46759961e-01,  3.38329500e-01,
 104:..\..\..\liblc3\src/sns.c ****       -2.50000000e-01,  1.02631132e-01,  6.89748448e-02, -2.24291897e-01,
 105:..\..\..\liblc3\src/sns.c ****        3.26640741e-01, -3.51850934e-01,  2.93968901e-01, -1.66663915e-01 },
 106:..\..\..\liblc3\src/sns.c **** 
 107:..\..\..\liblc3\src/sns.c ****     {  2.50000000e-01, -3.38329500e-01,  2.93968901e-01, -2.24291897e-01,
 108:..\..\..\liblc3\src/sns.c ****        1.35299025e-01, -3.46542923e-02, -6.89748448e-02,  1.66663915e-01,
 109:..\..\..\liblc3\src/sns.c ****       -2.50000000e-01,  3.11806253e-01, -3.46759961e-01,  3.51850934e-01,
 110:..\..\..\liblc3\src/sns.c ****       -3.26640741e-01,  2.73300467e-01, -1.96423740e-01,  1.02631132e-01 },
 111:..\..\..\liblc3\src/sns.c **** 
 112:..\..\..\liblc3\src/sns.c ****     {  2.50000000e-01, -3.51850934e-01,  3.46759961e-01, -3.38329500e-01,
 113:..\..\..\liblc3\src/sns.c ****        3.26640741e-01, -3.11806253e-01,  2.93968901e-01, -2.73300467e-01,
 114:..\..\..\liblc3\src/sns.c ****        2.50000000e-01, -2.24291897e-01,  1.96423740e-01, -1.66663915e-01,
 115:..\..\..\liblc3\src/sns.c ****        1.35299025e-01, -1.02631132e-01,  6.89748448e-02, -3.46542923e-02 },
 116:..\..\..\liblc3\src/sns.c **** 
 117:..\..\..\liblc3\src/sns.c **** };
 118:..\..\..\liblc3\src/sns.c **** 
 119:..\..\..\liblc3\src/sns.c **** /**
 120:..\..\..\liblc3\src/sns.c ****  * Forward DCT-16 transformation
 121:..\..\..\liblc3\src/sns.c ****  * x, y            Input and output 16 values
 122:..\..\..\liblc3\src/sns.c ****  */
 123:..\..\..\liblc3\src/sns.c **** LC3_HOT static void dct16_forward(const float *x, float *y)
 124:..\..\..\liblc3\src/sns.c **** {
  29              		.loc 1 124 0
  30              		.cfi_startproc
  31              		@ args = 0, pretend = 0, frame = 0
  32              		@ frame_needed = 0, uses_anonymous_args = 0
  33              	.LVL0:
  34 0000 F0B5     		push	{r4, r5, r6, r7, lr}
  35              		.cfi_def_cfa_offset 20
  36              		.cfi_offset 4, -20
  37              		.cfi_offset 5, -16
  38              		.cfi_offset 6, -12
  39              		.cfi_offset 7, -8
  40              		.cfi_offset 14, -4
  41 0002 4746     		mov	r7, r8
  42 0004 80B4     		push	{r7}
  43              		.cfi_def_cfa_offset 24
  44              		.cfi_offset 8, -24
  45 0006 0700     		movs	r7, r0
  46 0008 8846     		mov	r8, r1
  47              	.LVL1:
ARM GAS  C:\Users\rdn\AppData\Local\Temp\ccFEeGTH.s 			page 4


  48              	.LBB51:
 125:..\..\..\liblc3\src/sns.c ****     for (int i = 0, j; i < 16; i++)
  49              		.loc 1 125 0
  50 000a 0026     		movs	r6, #0
  51 000c 17E0     		b	.L2
  52              	.LVL2:
  53              	.L5:
 126:..\..\..\liblc3\src/sns.c ****         for (y[i] = 0, j = 0; j < 16; j++)
  54              		.loc 1 126 0
  55 000e B500     		lsls	r5, r6, #2
  56 0010 4544     		add	r5, r5, r8
  57 0012 0023     		movs	r3, #0
  58 0014 2B60     		str	r3, [r5]
  59              	.LVL3:
  60 0016 0024     		movs	r4, #0
  61 0018 0EE0     		b	.L3
  62              	.LVL4:
  63              	.L4:
 127:..\..\..\liblc3\src/sns.c ****             y[i] += x[j] * dct16_m[j][i];
  64              		.loc 1 127 0 discriminator 3
  65 001a A300     		lsls	r3, r4, #2
  66 001c D859     		ldr	r0, [r3, r7]
  67 001e 2301     		lsls	r3, r4, #4
  68 0020 9B19     		adds	r3, r3, r6
  69 0022 9B00     		lsls	r3, r3, #2
  70 0024 084A     		ldr	r2, .L6
  71 0026 9958     		ldr	r1, [r3, r2]
  72 0028 FFF7FEFF 		bl	__aeabi_fmul
  73              	.LVL5:
  74 002c 011C     		adds	r1, r0, #0
  75 002e 2868     		ldr	r0, [r5]
  76 0030 FFF7FEFF 		bl	__aeabi_fadd
  77              	.LVL6:
  78 0034 2860     		str	r0, [r5]
 126:..\..\..\liblc3\src/sns.c ****         for (y[i] = 0, j = 0; j < 16; j++)
  79              		.loc 1 126 0 discriminator 3
  80 0036 0134     		adds	r4, r4, #1
  81              	.LVL7:
  82              	.L3:
 126:..\..\..\liblc3\src/sns.c ****         for (y[i] = 0, j = 0; j < 16; j++)
  83              		.loc 1 126 0 is_stmt 0 discriminator 1
  84 0038 0F2C     		cmp	r4, #15
  85 003a EEDD     		ble	.L4
 125:..\..\..\liblc3\src/sns.c ****     for (int i = 0, j; i < 16; i++)
  86              		.loc 1 125 0 is_stmt 1 discriminator 2
  87 003c 0136     		adds	r6, r6, #1
  88              	.LVL8:
  89              	.L2:
 125:..\..\..\liblc3\src/sns.c ****     for (int i = 0, j; i < 16; i++)
  90              		.loc 1 125 0 is_stmt 0 discriminator 1
  91 003e 0F2E     		cmp	r6, #15
  92 0040 E5DD     		ble	.L5
  93              	.LBE51:
 128:..\..\..\liblc3\src/sns.c **** }
  94              		.loc 1 128 0 is_stmt 1
  95              		@ sp needed
  96              	.LVL9:
ARM GAS  C:\Users\rdn\AppData\Local\Temp\ccFEeGTH.s 			page 5


  97              	.LVL10:
  98              	.LVL11:
  99 0042 04BC     		pop	{r2}
 100 0044 9046     		mov	r8, r2
 101 0046 F0BD     		pop	{r4, r5, r6, r7, pc}
 102              	.L7:
 103              		.align	2
 104              	.L6:
 105 0048 00000000 		.word	.LANCHOR0
 106              		.cfi_endproc
 107              	.LFE20:
 108              		.size	dct16_forward, .-dct16_forward
 109              		.section	.text.dct16_inverse,"ax",%progbits
 110              		.align	2
 111              		.code	16
 112              		.thumb_func
 113              		.type	dct16_inverse, %function
 114              	dct16_inverse:
 115              	.LFB21:
 129:..\..\..\liblc3\src/sns.c **** 
 130:..\..\..\liblc3\src/sns.c **** /**
 131:..\..\..\liblc3\src/sns.c ****  * Inverse DCT-16 transformation
 132:..\..\..\liblc3\src/sns.c ****  * x, y            Input and output 16 values
 133:..\..\..\liblc3\src/sns.c ****  */
 134:..\..\..\liblc3\src/sns.c **** LC3_HOT static void dct16_inverse(const float *x, float *y)
 135:..\..\..\liblc3\src/sns.c **** {
 116              		.loc 1 135 0
 117              		.cfi_startproc
 118              		@ args = 0, pretend = 0, frame = 0
 119              		@ frame_needed = 0, uses_anonymous_args = 0
 120              	.LVL12:
 121 0000 F0B5     		push	{r4, r5, r6, r7, lr}
 122              		.cfi_def_cfa_offset 20
 123              		.cfi_offset 4, -20
 124              		.cfi_offset 5, -16
 125              		.cfi_offset 6, -12
 126              		.cfi_offset 7, -8
 127              		.cfi_offset 14, -4
 128 0002 4746     		mov	r7, r8
 129 0004 80B4     		push	{r7}
 130              		.cfi_def_cfa_offset 24
 131              		.cfi_offset 8, -24
 132 0006 0700     		movs	r7, r0
 133 0008 8846     		mov	r8, r1
 134              	.LVL13:
 135              	.LBB52:
 136:..\..\..\liblc3\src/sns.c ****     for (int i = 0, j; i < 16; i++)
 136              		.loc 1 136 0
 137 000a 0026     		movs	r6, #0
 138 000c 17E0     		b	.L9
 139              	.LVL14:
 140              	.L12:
 137:..\..\..\liblc3\src/sns.c ****         for (y[i] = 0, j = 0; j < 16; j++)
 141              		.loc 1 137 0
 142 000e B500     		lsls	r5, r6, #2
 143 0010 4544     		add	r5, r5, r8
 144 0012 0023     		movs	r3, #0
ARM GAS  C:\Users\rdn\AppData\Local\Temp\ccFEeGTH.s 			page 6


 145 0014 2B60     		str	r3, [r5]
 146              	.LVL15:
 147 0016 0024     		movs	r4, #0
 148 0018 0EE0     		b	.L10
 149              	.LVL16:
 150              	.L11:
 138:..\..\..\liblc3\src/sns.c ****             y[i] += x[j] * dct16_m[i][j];
 151              		.loc 1 138 0 discriminator 3
 152 001a A300     		lsls	r3, r4, #2
 153 001c D859     		ldr	r0, [r3, r7]
 154 001e 3301     		lsls	r3, r6, #4
 155 0020 1B19     		adds	r3, r3, r4
 156 0022 9B00     		lsls	r3, r3, #2
 157 0024 084A     		ldr	r2, .L13
 158 0026 9958     		ldr	r1, [r3, r2]
 159 0028 FFF7FEFF 		bl	__aeabi_fmul
 160              	.LVL17:
 161 002c 011C     		adds	r1, r0, #0
 162 002e 2868     		ldr	r0, [r5]
 163 0030 FFF7FEFF 		bl	__aeabi_fadd
 164              	.LVL18:
 165 0034 2860     		str	r0, [r5]
 137:..\..\..\liblc3\src/sns.c ****         for (y[i] = 0, j = 0; j < 16; j++)
 166              		.loc 1 137 0 discriminator 3
 167 0036 0134     		adds	r4, r4, #1
 168              	.LVL19:
 169              	.L10:
 137:..\..\..\liblc3\src/sns.c ****         for (y[i] = 0, j = 0; j < 16; j++)
 170              		.loc 1 137 0 is_stmt 0 discriminator 1
 171 0038 0F2C     		cmp	r4, #15
 172 003a EEDD     		ble	.L11
 136:..\..\..\liblc3\src/sns.c ****     for (int i = 0, j; i < 16; i++)
 173              		.loc 1 136 0 is_stmt 1 discriminator 2
 174 003c 0136     		adds	r6, r6, #1
 175              	.LVL20:
 176              	.L9:
 136:..\..\..\liblc3\src/sns.c ****     for (int i = 0, j; i < 16; i++)
 177              		.loc 1 136 0 is_stmt 0 discriminator 1
 178 003e 0F2E     		cmp	r6, #15
 179 0040 E5DD     		ble	.L12
 180              	.LBE52:
 139:..\..\..\liblc3\src/sns.c **** }
 181              		.loc 1 139 0 is_stmt 1
 182              		@ sp needed
 183              	.LVL21:
 184              	.LVL22:
 185              	.LVL23:
 186 0042 04BC     		pop	{r2}
 187 0044 9046     		mov	r8, r2
 188 0046 F0BD     		pop	{r4, r5, r6, r7, pc}
 189              	.L14:
 190              		.align	2
 191              	.L13:
 192 0048 00000000 		.word	.LANCHOR0
 193              		.cfi_endproc
 194              	.LFE21:
 195              		.size	dct16_inverse, .-dct16_inverse
ARM GAS  C:\Users\rdn\AppData\Local\Temp\ccFEeGTH.s 			page 7


 196              		.global	__aeabi_fsub
 197              		.global	__aeabi_fcmpgt
 198              		.section	.text.resolve_codebooks,"ax",%progbits
 199              		.align	2
 200              		.code	16
 201              		.thumb_func
 202              		.type	resolve_codebooks, %function
 203              	resolve_codebooks:
 204              	.LFB23:
 140:..\..\..\liblc3\src/sns.c **** 
 141:..\..\..\liblc3\src/sns.c **** 
 142:..\..\..\liblc3\src/sns.c **** /* ----------------------------------------------------------------------------
 143:..\..\..\liblc3\src/sns.c ****  *  Scale factors
 144:..\..\..\liblc3\src/sns.c ****  * -------------------------------------------------------------------------- */
 145:..\..\..\liblc3\src/sns.c **** 
 146:..\..\..\liblc3\src/sns.c **** /**
 147:..\..\..\liblc3\src/sns.c ****  * Scale factors
 148:..\..\..\liblc3\src/sns.c ****  * dt, sr          Duration and samplerate of the frame
 149:..\..\..\liblc3\src/sns.c ****  * nbytes          Size in bytes of the frame
 150:..\..\..\liblc3\src/sns.c ****  * eb              Energy estimation per bands
 151:..\..\..\liblc3\src/sns.c ****  * att             1: Attack detected  0: Otherwise
 152:..\..\..\liblc3\src/sns.c ****  * scf             Output 16 scale factors
 153:..\..\..\liblc3\src/sns.c ****  */
 154:..\..\..\liblc3\src/sns.c **** LC3_HOT static void compute_scale_factors(
 155:..\..\..\liblc3\src/sns.c ****     enum lc3_dt dt, enum lc3_srate sr, int nbytes,
 156:..\..\..\liblc3\src/sns.c ****     const float *eb, bool att, float *scf)
 157:..\..\..\liblc3\src/sns.c **** {
 158:..\..\..\liblc3\src/sns.c ****     /* Pre-emphasis gain table :
 159:..\..\..\liblc3\src/sns.c ****      * Ge[b] = 10 ^ (b * g_tilt) / 630 , b = [0..63] */
 160:..\..\..\liblc3\src/sns.c **** 
 161:..\..\..\liblc3\src/sns.c ****     static const float ge_14[LC3_MAX_BANDS] = { /* g_tilt = 14 */
 162:..\..\..\liblc3\src/sns.c ****         1.00000000e+00, 1.05250029e+00, 1.10775685e+00, 1.16591440e+00,
 163:..\..\..\liblc3\src/sns.c ****         1.22712524e+00, 1.29154967e+00, 1.35935639e+00, 1.43072299e+00,
 164:..\..\..\liblc3\src/sns.c ****         1.50583635e+00, 1.58489319e+00, 1.66810054e+00, 1.75567629e+00,
 165:..\..\..\liblc3\src/sns.c ****         1.84784980e+00, 1.94486244e+00, 2.04696827e+00, 2.15443469e+00,
 166:..\..\..\liblc3\src/sns.c ****         2.26754313e+00, 2.38658979e+00, 2.51188643e+00, 2.64376119e+00,
 167:..\..\..\liblc3\src/sns.c ****         2.78255940e+00, 2.92864456e+00, 3.08239924e+00, 3.24422608e+00,
 168:..\..\..\liblc3\src/sns.c ****         3.41454887e+00, 3.59381366e+00, 3.78248991e+00, 3.98107171e+00,
 169:..\..\..\liblc3\src/sns.c ****         4.19007911e+00, 4.41005945e+00, 4.64158883e+00, 4.88527357e+00,
 170:..\..\..\liblc3\src/sns.c ****         5.14175183e+00, 5.41169527e+00, 5.69581081e+00, 5.99484250e+00,
 171:..\..\..\liblc3\src/sns.c ****         6.30957344e+00, 6.64082785e+00, 6.98947321e+00, 7.35642254e+00,
 172:..\..\..\liblc3\src/sns.c ****         7.74263683e+00, 8.14912747e+00, 8.57695899e+00, 9.02725178e+00,
 173:..\..\..\liblc3\src/sns.c ****         9.50118507e+00, 1.00000000e+01, 1.05250029e+01, 1.10775685e+01,
 174:..\..\..\liblc3\src/sns.c ****         1.16591440e+01, 1.22712524e+01, 1.29154967e+01, 1.35935639e+01,
 175:..\..\..\liblc3\src/sns.c ****         1.43072299e+01, 1.50583635e+01, 1.58489319e+01, 1.66810054e+01,
 176:..\..\..\liblc3\src/sns.c ****         1.75567629e+01, 1.84784980e+01, 1.94486244e+01, 2.04696827e+01,
 177:..\..\..\liblc3\src/sns.c ****         2.15443469e+01, 2.26754313e+01, 2.38658979e+01, 2.51188643e+01 };
 178:..\..\..\liblc3\src/sns.c **** 
 179:..\..\..\liblc3\src/sns.c ****     static const float ge_18[LC3_MAX_BANDS] = { /* g_tilt = 18 */
 180:..\..\..\liblc3\src/sns.c ****         1.00000000e+00, 1.06800043e+00, 1.14062492e+00, 1.21818791e+00,
 181:..\..\..\liblc3\src/sns.c ****         1.30102522e+00, 1.38949549e+00, 1.48398179e+00, 1.58489319e+00,
 182:..\..\..\liblc3\src/sns.c ****         1.69266662e+00, 1.80776868e+00, 1.93069773e+00, 2.06198601e+00,
 183:..\..\..\liblc3\src/sns.c ****         2.20220195e+00, 2.35195264e+00, 2.51188643e+00, 2.68269580e+00,
 184:..\..\..\liblc3\src/sns.c ****         2.86512027e+00, 3.05994969e+00, 3.26802759e+00, 3.49025488e+00,
 185:..\..\..\liblc3\src/sns.c ****         3.72759372e+00, 3.98107171e+00, 4.25178630e+00, 4.54090961e+00,
 186:..\..\..\liblc3\src/sns.c ****         4.84969343e+00, 5.17947468e+00, 5.53168120e+00, 5.90783791e+00,
 187:..\..\..\liblc3\src/sns.c ****         6.30957344e+00, 6.73862717e+00, 7.19685673e+00, 7.68624610e+00,
ARM GAS  C:\Users\rdn\AppData\Local\Temp\ccFEeGTH.s 			page 8


 188:..\..\..\liblc3\src/sns.c ****         8.20891416e+00, 8.76712387e+00, 9.36329209e+00, 1.00000000e+01,
 189:..\..\..\liblc3\src/sns.c ****         1.06800043e+01, 1.14062492e+01, 1.21818791e+01, 1.30102522e+01,
 190:..\..\..\liblc3\src/sns.c ****         1.38949549e+01, 1.48398179e+01, 1.58489319e+01, 1.69266662e+01,
 191:..\..\..\liblc3\src/sns.c ****         1.80776868e+01, 1.93069773e+01, 2.06198601e+01, 2.20220195e+01,
 192:..\..\..\liblc3\src/sns.c ****         2.35195264e+01, 2.51188643e+01, 2.68269580e+01, 2.86512027e+01,
 193:..\..\..\liblc3\src/sns.c ****         3.05994969e+01, 3.26802759e+01, 3.49025488e+01, 3.72759372e+01,
 194:..\..\..\liblc3\src/sns.c ****         3.98107171e+01, 4.25178630e+01, 4.54090961e+01, 4.84969343e+01,
 195:..\..\..\liblc3\src/sns.c ****         5.17947468e+01, 5.53168120e+01, 5.90783791e+01, 6.30957344e+01 };
 196:..\..\..\liblc3\src/sns.c **** 
 197:..\..\..\liblc3\src/sns.c ****     static const float ge_22[LC3_MAX_BANDS] = { /* g_tilt = 22 */
 198:..\..\..\liblc3\src/sns.c ****         1.00000000e+00, 1.08372885e+00, 1.17446822e+00, 1.27280509e+00,
 199:..\..\..\liblc3\src/sns.c ****         1.37937560e+00, 1.49486913e+00, 1.62003281e+00, 1.75567629e+00,
 200:..\..\..\liblc3\src/sns.c ****         1.90267705e+00, 2.06198601e+00, 2.23463373e+00, 2.42173704e+00,
 201:..\..\..\liblc3\src/sns.c ****         2.62450630e+00, 2.84425319e+00, 3.08239924e+00, 3.34048498e+00,
 202:..\..\..\liblc3\src/sns.c ****         3.62017995e+00, 3.92329345e+00, 4.25178630e+00, 4.60778348e+00,
 203:..\..\..\liblc3\src/sns.c ****         4.99358789e+00, 5.41169527e+00, 5.86481029e+00, 6.35586411e+00,
 204:..\..\..\liblc3\src/sns.c ****         6.88803330e+00, 7.46476041e+00, 8.08977621e+00, 8.76712387e+00,
 205:..\..\..\liblc3\src/sns.c ****         9.50118507e+00, 1.02967084e+01, 1.11588399e+01, 1.20931568e+01,
 206:..\..\..\liblc3\src/sns.c ****         1.31057029e+01, 1.42030283e+01, 1.53922315e+01, 1.66810054e+01,
 207:..\..\..\liblc3\src/sns.c ****         1.80776868e+01, 1.95913107e+01, 2.12316686e+01, 2.30093718e+01,
 208:..\..\..\liblc3\src/sns.c ****         2.49359200e+01, 2.70237760e+01, 2.92864456e+01, 3.17385661e+01,
 209:..\..\..\liblc3\src/sns.c ****         3.43959997e+01, 3.72759372e+01, 4.03970086e+01, 4.37794036e+01,
 210:..\..\..\liblc3\src/sns.c ****         4.74450028e+01, 5.14175183e+01, 5.57226480e+01, 6.03882412e+01,
 211:..\..\..\liblc3\src/sns.c ****         6.54444792e+01, 7.09240702e+01, 7.68624610e+01, 8.32980665e+01,
 212:..\..\..\liblc3\src/sns.c ****         9.02725178e+01, 9.78309319e+01, 1.06022203e+02, 1.14899320e+02,
 213:..\..\..\liblc3\src/sns.c ****         1.24519708e+02, 1.34945600e+02, 1.46244440e+02, 1.58489319e+02 };
 214:..\..\..\liblc3\src/sns.c **** 
 215:..\..\..\liblc3\src/sns.c ****     static const float ge_26[LC3_MAX_BANDS] = { /* g_tilt = 26 */
 216:..\..\..\liblc3\src/sns.c ****         1.00000000e+00, 1.09968890e+00, 1.20931568e+00, 1.32987103e+00,
 217:..\..\..\liblc3\src/sns.c ****         1.46244440e+00, 1.60823388e+00, 1.76855694e+00, 1.94486244e+00,
 218:..\..\..\liblc3\src/sns.c ****         2.13874364e+00, 2.35195264e+00, 2.58641621e+00, 2.84425319e+00,
 219:..\..\..\liblc3\src/sns.c ****         3.12779366e+00, 3.43959997e+00, 3.78248991e+00, 4.15956216e+00,
 220:..\..\..\liblc3\src/sns.c ****         4.57422434e+00, 5.03022373e+00, 5.53168120e+00, 6.08312841e+00,
 221:..\..\..\liblc3\src/sns.c ****         6.68954879e+00, 7.35642254e+00, 8.08977621e+00, 8.89623710e+00,
 222:..\..\..\liblc3\src/sns.c ****         9.78309319e+00, 1.07583590e+01, 1.18308480e+01, 1.30102522e+01,
 223:..\..\..\liblc3\src/sns.c ****         1.43072299e+01, 1.57335019e+01, 1.73019574e+01, 1.90267705e+01,
 224:..\..\..\liblc3\src/sns.c ****         2.09235283e+01, 2.30093718e+01, 2.53031508e+01, 2.78255940e+01,
 225:..\..\..\liblc3\src/sns.c ****         3.05994969e+01, 3.36499270e+01, 3.70044512e+01, 4.06933843e+01,
 226:..\..\..\liblc3\src/sns.c ****         4.47500630e+01, 4.92111475e+01, 5.41169527e+01, 5.95118121e+01,
 227:..\..\..\liblc3\src/sns.c ****         6.54444792e+01, 7.19685673e+01, 7.91430346e+01, 8.70327166e+01,
 228:..\..\..\liblc3\src/sns.c ****         9.57089124e+01, 1.05250029e+02, 1.15742288e+02, 1.27280509e+02,
 229:..\..\..\liblc3\src/sns.c ****         1.39968963e+02, 1.53922315e+02, 1.69266662e+02, 1.86140669e+02,
 230:..\..\..\liblc3\src/sns.c ****         2.04696827e+02, 2.25102829e+02, 2.47543082e+02, 2.72220379e+02,
 231:..\..\..\liblc3\src/sns.c ****         2.99357729e+02, 3.29200372e+02, 3.62017995e+02, 3.98107171e+02 };
 232:..\..\..\liblc3\src/sns.c **** 
 233:..\..\..\liblc3\src/sns.c ****     static const float ge_30[LC3_MAX_BANDS] = { /* g_tilt = 30 */
 234:..\..\..\liblc3\src/sns.c ****         1.00000000e+00, 1.11588399e+00, 1.24519708e+00, 1.38949549e+00,
 235:..\..\..\liblc3\src/sns.c ****         1.55051578e+00, 1.73019574e+00, 1.93069773e+00, 2.15443469e+00,
 236:..\..\..\liblc3\src/sns.c ****         2.40409918e+00, 2.68269580e+00, 2.99357729e+00, 3.34048498e+00,
 237:..\..\..\liblc3\src/sns.c ****         3.72759372e+00, 4.15956216e+00, 4.64158883e+00, 5.17947468e+00,
 238:..\..\..\liblc3\src/sns.c ****         5.77969288e+00, 6.44946677e+00, 7.19685673e+00, 8.03085722e+00,
 239:..\..\..\liblc3\src/sns.c ****         8.96150502e+00, 1.00000000e+01, 1.11588399e+01, 1.24519708e+01,
 240:..\..\..\liblc3\src/sns.c ****         1.38949549e+01, 1.55051578e+01, 1.73019574e+01, 1.93069773e+01,
 241:..\..\..\liblc3\src/sns.c ****         2.15443469e+01, 2.40409918e+01, 2.68269580e+01, 2.99357729e+01,
 242:..\..\..\liblc3\src/sns.c ****         3.34048498e+01, 3.72759372e+01, 4.15956216e+01, 4.64158883e+01,
 243:..\..\..\liblc3\src/sns.c ****         5.17947468e+01, 5.77969288e+01, 6.44946677e+01, 7.19685673e+01,
 244:..\..\..\liblc3\src/sns.c ****         8.03085722e+01, 8.96150502e+01, 1.00000000e+02, 1.11588399e+02,
ARM GAS  C:\Users\rdn\AppData\Local\Temp\ccFEeGTH.s 			page 9


 245:..\..\..\liblc3\src/sns.c ****         1.24519708e+02, 1.38949549e+02, 1.55051578e+02, 1.73019574e+02,
 246:..\..\..\liblc3\src/sns.c ****         1.93069773e+02, 2.15443469e+02, 2.40409918e+02, 2.68269580e+02,
 247:..\..\..\liblc3\src/sns.c ****         2.99357729e+02, 3.34048498e+02, 3.72759372e+02, 4.15956216e+02,
 248:..\..\..\liblc3\src/sns.c ****         4.64158883e+02, 5.17947468e+02, 5.77969288e+02, 6.44946677e+02,
 249:..\..\..\liblc3\src/sns.c ****         7.19685673e+02, 8.03085722e+02, 8.96150502e+02, 1.00000000e+03 };
 250:..\..\..\liblc3\src/sns.c **** 
 251:..\..\..\liblc3\src/sns.c **** #if LC3_PLUS_HR
 252:..\..\..\liblc3\src/sns.c **** 
 253:..\..\..\liblc3\src/sns.c ****     static const float ge_34[LC3_MAX_BANDS] = { /* g_tilt = 34 */
 254:..\..\..\liblc3\src/sns.c ****         1.00000000e+00, 1.13231759e+00, 1.28214312e+00, 1.45179321e+00,
 255:..\..\..\liblc3\src/sns.c ****         1.64389099e+00, 1.86140669e+00, 2.10770353e+00, 2.38658979e+00,
 256:..\..\..\liblc3\src/sns.c ****         2.70237760e+00, 3.05994969e+00, 3.46483486e+00, 3.92329345e+00,
 257:..\..\..\liblc3\src/sns.c ****         4.44241419e+00, 5.03022373e+00, 5.69581081e+00, 6.44946677e+00,
 258:..\..\..\liblc3\src/sns.c ****         7.30284467e+00, 8.26913948e+00, 9.36329209e+00, 1.06022203e+01,
 259:..\..\..\liblc3\src/sns.c ****         1.20050806e+01, 1.35935639e+01, 1.53922315e+01, 1.74288945e+01,
 260:..\..\..\liblc3\src/sns.c ****         1.97350438e+01, 2.23463373e+01, 2.53031508e+01, 2.86512027e+01,
 261:..\..\..\liblc3\src/sns.c ****         3.24422608e+01, 3.67349426e+01, 4.15956216e+01, 4.70994540e+01,
 262:..\..\..\liblc3\src/sns.c ****         5.33315403e+01, 6.03882412e+01, 6.83786677e+01, 7.74263683e+01,
 263:..\..\..\liblc3\src/sns.c ****         8.76712387e+01, 9.92716858e+01, 1.12407076e+02, 1.27280509e+02,
 264:..\..\..\liblc3\src/sns.c ****         1.44121960e+02, 1.63191830e+02, 1.84784980e+02, 2.09235283e+02,
 265:..\..\..\liblc3\src/sns.c ****         2.36920791e+02, 2.68269580e+02, 3.03766364e+02, 3.43959997e+02,
 266:..\..\..\liblc3\src/sns.c ****         3.89471955e+02, 4.41005945e+02, 4.99358789e+02, 5.65432741e+02,
 267:..\..\..\liblc3\src/sns.c ****         6.40249439e+02, 7.24965701e+02, 8.20891416e+02, 9.29509790e+02,
 268:..\..\..\liblc3\src/sns.c ****         1.05250029e+03, 1.19176459e+03, 1.34945600e+03, 1.52801277e+03,
 269:..\..\..\liblc3\src/sns.c ****         1.73019574e+03, 1.95913107e+03, 2.21835857e+03, 2.51188643e+03 };
 270:..\..\..\liblc3\src/sns.c **** 
 271:..\..\..\liblc3\src/sns.c **** #endif /* LC3_PLUS_HR */
 272:..\..\..\liblc3\src/sns.c **** 
 273:..\..\..\liblc3\src/sns.c ****     static const float *ge_table[LC3_NUM_SRATE] = {
 274:..\..\..\liblc3\src/sns.c ****         [LC3_SRATE_8K    ] = ge_14, [LC3_SRATE_16K   ] = ge_18,
 275:..\..\..\liblc3\src/sns.c ****         [LC3_SRATE_24K   ] = ge_22, [LC3_SRATE_32K   ] = ge_26,
 276:..\..\..\liblc3\src/sns.c ****         [LC3_SRATE_48K   ] = ge_30,
 277:..\..\..\liblc3\src/sns.c **** 
 278:..\..\..\liblc3\src/sns.c **** #if LC3_PLUS_HR
 279:..\..\..\liblc3\src/sns.c ****         [LC3_SRATE_48K_HR] = ge_30, [LC3_SRATE_96K_HR] = ge_34,
 280:..\..\..\liblc3\src/sns.c **** #endif /* LC3_PLUS_HR */
 281:..\..\..\liblc3\src/sns.c **** 
 282:..\..\..\liblc3\src/sns.c ****     };
 283:..\..\..\liblc3\src/sns.c **** 
 284:..\..\..\liblc3\src/sns.c ****     float e[LC3_MAX_BANDS];
 285:..\..\..\liblc3\src/sns.c **** 
 286:..\..\..\liblc3\src/sns.c ****     /* --- Copy and padding --- */
 287:..\..\..\liblc3\src/sns.c **** 
 288:..\..\..\liblc3\src/sns.c ****     int nb = lc3_num_bands[dt][sr];
 289:..\..\..\liblc3\src/sns.c ****     int n4 = nb < 32 ? 32 % nb : 0;
 290:..\..\..\liblc3\src/sns.c ****     int n2 = nb < 32 ? nb - n4 : LC3_MAX_BANDS - nb;
 291:..\..\..\liblc3\src/sns.c **** 
 292:..\..\..\liblc3\src/sns.c ****     for (int i4 = 0; i4 < n4; i4++)
 293:..\..\..\liblc3\src/sns.c ****         e[4*i4 + 0] = e[4*i4 + 1] =
 294:..\..\..\liblc3\src/sns.c ****         e[4*i4 + 2] = e[4*i4 + 3] = eb[i4];
 295:..\..\..\liblc3\src/sns.c **** 
 296:..\..\..\liblc3\src/sns.c ****     for (int i2 = n4; i2 < n4+n2; i2++)
 297:..\..\..\liblc3\src/sns.c ****         e[2*(n4+i2) + 0] = e[2*(n4+i2) + 1] = eb[i2];
 298:..\..\..\liblc3\src/sns.c **** 
 299:..\..\..\liblc3\src/sns.c ****     memcpy(e + 4*n4 + 2*n2, eb + n4 + n2, (nb - n4 - n2) * sizeof(float));
 300:..\..\..\liblc3\src/sns.c **** 
 301:..\..\..\liblc3\src/sns.c ****     /* --- Smoothing, pre-emphasis and logarithm --- */
ARM GAS  C:\Users\rdn\AppData\Local\Temp\ccFEeGTH.s 			page 10


 302:..\..\..\liblc3\src/sns.c **** 
 303:..\..\..\liblc3\src/sns.c ****     const float *ge = ge_table[sr];
 304:..\..\..\liblc3\src/sns.c **** 
 305:..\..\..\liblc3\src/sns.c ****     float e0 = e[0], e1 = e[0], e2;
 306:..\..\..\liblc3\src/sns.c ****     float e_sum = 0;
 307:..\..\..\liblc3\src/sns.c **** 
 308:..\..\..\liblc3\src/sns.c ****     for (int i = 0; i < LC3_MAX_BANDS-1; ) {
 309:..\..\..\liblc3\src/sns.c ****         e[i] = (e0 * 0.25f + e1 * 0.5f + (e2 = e[i+1]) * 0.25f) * ge[i];
 310:..\..\..\liblc3\src/sns.c ****         e_sum += e[i++];
 311:..\..\..\liblc3\src/sns.c **** 
 312:..\..\..\liblc3\src/sns.c ****         e[i] = (e1 * 0.25f + e2 * 0.5f + (e0 = e[i+1]) * 0.25f) * ge[i];
 313:..\..\..\liblc3\src/sns.c ****         e_sum += e[i++];
 314:..\..\..\liblc3\src/sns.c **** 
 315:..\..\..\liblc3\src/sns.c ****         e[i] = (e2 * 0.25f + e0 * 0.5f + (e1 = e[i+1]) * 0.25f) * ge[i];
 316:..\..\..\liblc3\src/sns.c ****         e_sum += e[i++];
 317:..\..\..\liblc3\src/sns.c ****     }
 318:..\..\..\liblc3\src/sns.c **** 
 319:..\..\..\liblc3\src/sns.c ****     e[LC3_MAX_BANDS-1] = (e0 * 0.25f + e1 * 0.75f) * ge[LC3_MAX_BANDS-1];
 320:..\..\..\liblc3\src/sns.c ****     e_sum += e[LC3_MAX_BANDS-1];
 321:..\..\..\liblc3\src/sns.c **** 
 322:..\..\..\liblc3\src/sns.c ****     float noise_floor = fmaxf(e_sum * (1e-4f / 64), 0x1p-32f);
 323:..\..\..\liblc3\src/sns.c **** 
 324:..\..\..\liblc3\src/sns.c ****     for (int i = 0; i < LC3_MAX_BANDS; i++)
 325:..\..\..\liblc3\src/sns.c ****         e[i] = lc3_log2f(fmaxf(e[i], noise_floor)) * 0.5f;
 326:..\..\..\liblc3\src/sns.c **** 
 327:..\..\..\liblc3\src/sns.c ****     /* --- Grouping & scaling --- */
 328:..\..\..\liblc3\src/sns.c **** 
 329:..\..\..\liblc3\src/sns.c ****     float scf_sum;
 330:..\..\..\liblc3\src/sns.c **** 
 331:..\..\..\liblc3\src/sns.c ****     scf[0] = (e[0] + e[4]) * 1.f/12 +
 332:..\..\..\liblc3\src/sns.c ****              (e[0] + e[3]) * 2.f/12 +
 333:..\..\..\liblc3\src/sns.c ****              (e[1] + e[2]) * 3.f/12  ;
 334:..\..\..\liblc3\src/sns.c ****     scf_sum = scf[0];
 335:..\..\..\liblc3\src/sns.c **** 
 336:..\..\..\liblc3\src/sns.c ****     for (int i = 1; i < 15; i++) {
 337:..\..\..\liblc3\src/sns.c ****         scf[i] = (e[4*i-1] + e[4*i+4]) * 1.f/12 +
 338:..\..\..\liblc3\src/sns.c ****                  (e[4*i  ] + e[4*i+3]) * 2.f/12 +
 339:..\..\..\liblc3\src/sns.c ****                  (e[4*i+1] + e[4*i+2]) * 3.f/12  ;
 340:..\..\..\liblc3\src/sns.c ****         scf_sum += scf[i];
 341:..\..\..\liblc3\src/sns.c ****     }
 342:..\..\..\liblc3\src/sns.c **** 
 343:..\..\..\liblc3\src/sns.c ****     scf[15] = (e[59] + e[63]) * 1.f/12 +
 344:..\..\..\liblc3\src/sns.c ****               (e[60] + e[63]) * 2.f/12 +
 345:..\..\..\liblc3\src/sns.c ****               (e[61] + e[62]) * 3.f/12  ;
 346:..\..\..\liblc3\src/sns.c ****     scf_sum += scf[15];
 347:..\..\..\liblc3\src/sns.c **** 
 348:..\..\..\liblc3\src/sns.c ****     float cf = lc3_hr(sr) ? 0.6f : 0.85f;
 349:..\..\..\liblc3\src/sns.c ****     if (lc3_hr(sr) && 8 * nbytes >
 350:..\..\..\liblc3\src/sns.c ****             (dt < LC3_DT_10M ? 1150 * (int)(1 + dt) : 4400))
 351:..\..\..\liblc3\src/sns.c ****         cf *= dt < LC3_DT_10M ? 0.25f : 0.35f;
 352:..\..\..\liblc3\src/sns.c **** 
 353:..\..\..\liblc3\src/sns.c ****     for (int i = 0; i < 16; i++)
 354:..\..\..\liblc3\src/sns.c ****         scf[i] = cf * (scf[i] - scf_sum * 1.f/16);
 355:..\..\..\liblc3\src/sns.c **** 
 356:..\..\..\liblc3\src/sns.c ****     /* --- Attack handling --- */
 357:..\..\..\liblc3\src/sns.c **** 
 358:..\..\..\liblc3\src/sns.c ****     if (!att)
ARM GAS  C:\Users\rdn\AppData\Local\Temp\ccFEeGTH.s 			page 11


 359:..\..\..\liblc3\src/sns.c ****         return;
 360:..\..\..\liblc3\src/sns.c **** 
 361:..\..\..\liblc3\src/sns.c ****     float s0, s1 = scf[0], s2 = scf[1], s3 = scf[2], s4 = scf[3];
 362:..\..\..\liblc3\src/sns.c ****     float sn = s1 + s2;
 363:..\..\..\liblc3\src/sns.c **** 
 364:..\..\..\liblc3\src/sns.c ****     scf[0] = (sn += s3) * 1.f/3;
 365:..\..\..\liblc3\src/sns.c ****     scf[1] = (sn += s4) * 1.f/4;
 366:..\..\..\liblc3\src/sns.c ****     scf_sum = scf[0] + scf[1];
 367:..\..\..\liblc3\src/sns.c **** 
 368:..\..\..\liblc3\src/sns.c ****     for (int i = 2; i < 14; i++, sn -= s0) {
 369:..\..\..\liblc3\src/sns.c ****         s0 = s1, s1 = s2, s2 = s3, s3 = s4, s4 = scf[i+2];
 370:..\..\..\liblc3\src/sns.c ****         scf[i] = (sn += s4) * 1.f/5;
 371:..\..\..\liblc3\src/sns.c ****         scf_sum += scf[i];
 372:..\..\..\liblc3\src/sns.c ****     }
 373:..\..\..\liblc3\src/sns.c **** 
 374:..\..\..\liblc3\src/sns.c ****     scf[14] = (sn      ) * 1.f/4;
 375:..\..\..\liblc3\src/sns.c ****     scf[15] = (sn -= s1) * 1.f/3;
 376:..\..\..\liblc3\src/sns.c ****     scf_sum += scf[14] + scf[15];
 377:..\..\..\liblc3\src/sns.c **** 
 378:..\..\..\liblc3\src/sns.c ****     for (int i = 0; i < 16; i++)
 379:..\..\..\liblc3\src/sns.c ****         scf[i] = (dt == LC3_DT_7M5 ? 0.3f : 0.5f) *
 380:..\..\..\liblc3\src/sns.c ****                  (scf[i] - scf_sum * 1.f/16);
 381:..\..\..\liblc3\src/sns.c **** }
 382:..\..\..\liblc3\src/sns.c **** 
 383:..\..\..\liblc3\src/sns.c **** /**
 384:..\..\..\liblc3\src/sns.c ****  * Codebooks
 385:..\..\..\liblc3\src/sns.c ****  * scf             Input 16 scale factors
 386:..\..\..\liblc3\src/sns.c ****  * lf/hfcb_idx     Output the low and high frequency codebooks index
 387:..\..\..\liblc3\src/sns.c ****  */
 388:..\..\..\liblc3\src/sns.c **** LC3_HOT static void resolve_codebooks(
 389:..\..\..\liblc3\src/sns.c ****     const float *scf, int *lfcb_idx, int *hfcb_idx)
 390:..\..\..\liblc3\src/sns.c **** {
 205              		.loc 1 390 0
 206              		.cfi_startproc
 207              		@ args = 0, pretend = 0, frame = 16
 208              		@ frame_needed = 0, uses_anonymous_args = 0
 209              	.LVL24:
 210 0000 F0B5     		push	{r4, r5, r6, r7, lr}
 211              		.cfi_def_cfa_offset 20
 212              		.cfi_offset 4, -20
 213              		.cfi_offset 5, -16
 214              		.cfi_offset 6, -12
 215              		.cfi_offset 7, -8
 216              		.cfi_offset 14, -4
 217 0002 5F46     		mov	r7, fp
 218 0004 5646     		mov	r6, r10
 219 0006 4D46     		mov	r5, r9
 220 0008 4446     		mov	r4, r8
 221 000a F0B4     		push	{r4, r5, r6, r7}
 222              		.cfi_def_cfa_offset 36
 223              		.cfi_offset 8, -36
 224              		.cfi_offset 9, -32
 225              		.cfi_offset 10, -28
 226              		.cfi_offset 11, -24
 227 000c 85B0     		sub	sp, sp, #20
 228              		.cfi_def_cfa_offset 56
 229              	.LVL25:
ARM GAS  C:\Users\rdn\AppData\Local\Temp\ccFEeGTH.s 			page 12


 391:..\..\..\liblc3\src/sns.c ****     float dlfcb_max = 0, dhfcb_max = 0;
 392:..\..\..\liblc3\src/sns.c ****     *lfcb_idx = *hfcb_idx = 0;
 230              		.loc 1 392 0
 231 000e 0023     		movs	r3, #0
 232 0010 1360     		str	r3, [r2]
 233 0012 0B60     		str	r3, [r1]
 234              	.LVL26:
 235              	.LBB53:
 393:..\..\..\liblc3\src/sns.c **** 
 394:..\..\..\liblc3\src/sns.c ****     for (int icb = 0; icb < 32; icb++) {
 236              		.loc 1 394 0
 237 0014 9846     		mov	r8, r3
 238              	.LBE53:
 391:..\..\..\liblc3\src/sns.c ****     float dlfcb_max = 0, dhfcb_max = 0;
 239              		.loc 1 391 0
 240 0016 0023     		movs	r3, #0
 241 0018 0393     		str	r3, [sp, #12]
 242 001a 0293     		str	r3, [sp, #8]
 243 001c 0700     		movs	r7, r0
 244 001e C346     		mov	fp, r8
 245 0020 9146     		mov	r9, r2
 246 0022 8846     		mov	r8, r1
 247              	.LBB57:
 248              		.loc 1 394 0
 249 0024 4AE0     		b	.L16
 250              	.LVL27:
 251              	.L25:
 252              	.LBB54:
 395:..\..\..\liblc3\src/sns.c ****         const float *lfcb = lc3_sns_lfcb[icb];
 253              		.loc 1 395 0
 254 0026 5B46     		mov	r3, fp
 255              	.LVL28:
 256 0028 5B01     		lsls	r3, r3, #5
 257 002a 294A     		ldr	r2, .L26
 258 002c 9E18     		adds	r6, r3, r2
 259              	.LVL29:
 396:..\..\..\liblc3\src/sns.c ****         const float *hfcb = lc3_sns_hfcb[icb];
 260              		.loc 1 396 0
 261 002e 294A     		ldr	r2, .L26+4
 262 0030 9A46     		mov	r10, r3
 263 0032 9244     		add	r10, r10, r2
 264              	.LVL30:
 265              	.LBB55:
 397:..\..\..\liblc3\src/sns.c ****         float dlfcb = 0, dhfcb = 0;
 398:..\..\..\liblc3\src/sns.c **** 
 399:..\..\..\liblc3\src/sns.c ****         for (int i = 0; i < 8; i++) {
 266              		.loc 1 399 0
 267 0034 0024     		movs	r4, #0
 268              	.LBE55:
 397:..\..\..\liblc3\src/sns.c ****         float dlfcb = 0, dhfcb = 0;
 269              		.loc 1 397 0
 270 0036 0023     		movs	r3, #0
 271 0038 0193     		str	r3, [sp, #4]
 272 003a 0093     		str	r3, [sp]
 273              	.LBB56:
 274              		.loc 1 399 0
 275 003c 1DE0     		b	.L17
ARM GAS  C:\Users\rdn\AppData\Local\Temp\ccFEeGTH.s 			page 13


 276              	.LVL31:
 277              	.L18:
 400:..\..\..\liblc3\src/sns.c ****             dlfcb += (scf[  i] - lfcb[i]) * (scf[  i] - lfcb[i]);
 278              		.loc 1 400 0 discriminator 3
 279 003e A500     		lsls	r5, r4, #2
 280 0040 7159     		ldr	r1, [r6, r5]
 281 0042 7859     		ldr	r0, [r7, r5]
 282 0044 FFF7FEFF 		bl	__aeabi_fsub
 283              	.LVL32:
 284 0048 011C     		adds	r1, r0, #0
 285 004a FFF7FEFF 		bl	__aeabi_fmul
 286              	.LVL33:
 287 004e 011C     		adds	r1, r0, #0
 288 0050 0098     		ldr	r0, [sp]
 289 0052 FFF7FEFF 		bl	__aeabi_fadd
 290              	.LVL34:
 291 0056 0090     		str	r0, [sp]
 292              	.LVL35:
 401:..\..\..\liblc3\src/sns.c ****             dhfcb += (scf[8+i] - hfcb[i]) * (scf[8+i] - hfcb[i]);
 293              		.loc 1 401 0 discriminator 3
 294 0058 2300     		movs	r3, r4
 295 005a 0833     		adds	r3, r3, #8
 296 005c 9B00     		lsls	r3, r3, #2
 297 005e D859     		ldr	r0, [r3, r7]
 298              	.LVL36:
 299 0060 5346     		mov	r3, r10
 300 0062 5959     		ldr	r1, [r3, r5]
 301 0064 FFF7FEFF 		bl	__aeabi_fsub
 302              	.LVL37:
 303 0068 011C     		adds	r1, r0, #0
 304 006a FFF7FEFF 		bl	__aeabi_fmul
 305              	.LVL38:
 306 006e 011C     		adds	r1, r0, #0
 307 0070 0198     		ldr	r0, [sp, #4]
 308 0072 FFF7FEFF 		bl	__aeabi_fadd
 309              	.LVL39:
 310 0076 0190     		str	r0, [sp, #4]
 311              	.LVL40:
 399:..\..\..\liblc3\src/sns.c ****             dlfcb += (scf[  i] - lfcb[i]) * (scf[  i] - lfcb[i]);
 312              		.loc 1 399 0 discriminator 3
 313 0078 0134     		adds	r4, r4, #1
 314              	.LVL41:
 315              	.L17:
 399:..\..\..\liblc3\src/sns.c ****             dlfcb += (scf[  i] - lfcb[i]) * (scf[  i] - lfcb[i]);
 316              		.loc 1 399 0 is_stmt 0 discriminator 1
 317 007a 072C     		cmp	r4, #7
 318 007c DFDD     		ble	.L18
 319              	.LBE56:
 402:..\..\..\liblc3\src/sns.c ****         }
 403:..\..\..\liblc3\src/sns.c **** 
 404:..\..\..\liblc3\src/sns.c ****         if (icb == 0 || dlfcb < dlfcb_max)
 320              		.loc 1 404 0 is_stmt 1
 321 007e 5B46     		mov	r3, fp
 322 0080 002B     		cmp	r3, #0
 323 0082 05D0     		beq	.L19
 324              	.LVL42:
 325              		.loc 1 404 0 is_stmt 0 discriminator 1
ARM GAS  C:\Users\rdn\AppData\Local\Temp\ccFEeGTH.s 			page 14


 326 0084 0099     		ldr	r1, [sp]
 327 0086 0298     		ldr	r0, [sp, #8]
 328 0088 FFF7FEFF 		bl	__aeabi_fcmpgt
 329              	.LVL43:
 330 008c 0028     		cmp	r0, #0
 331 008e 04D0     		beq	.L20
 332              	.L19:
 405:..\..\..\liblc3\src/sns.c ****             *lfcb_idx = icb, dlfcb_max = dlfcb;
 333              		.loc 1 405 0 is_stmt 1
 334 0090 4346     		mov	r3, r8
 335 0092 5A46     		mov	r2, fp
 336 0094 1A60     		str	r2, [r3]
 337              	.LVL44:
 338 0096 009B     		ldr	r3, [sp]
 339 0098 0293     		str	r3, [sp, #8]
 340              	.LVL45:
 341              	.L20:
 406:..\..\..\liblc3\src/sns.c **** 
 407:..\..\..\liblc3\src/sns.c ****         if (icb == 0 || dhfcb < dhfcb_max)
 342              		.loc 1 407 0
 343 009a 5B46     		mov	r3, fp
 344 009c 002B     		cmp	r3, #0
 345 009e 05D0     		beq	.L22
 346              	.LVL46:
 347              		.loc 1 407 0 is_stmt 0 discriminator 1
 348 00a0 0199     		ldr	r1, [sp, #4]
 349 00a2 0398     		ldr	r0, [sp, #12]
 350 00a4 FFF7FEFF 		bl	__aeabi_fcmpgt
 351              	.LVL47:
 352 00a8 0028     		cmp	r0, #0
 353 00aa 04D0     		beq	.L23
 354              	.L22:
 408:..\..\..\liblc3\src/sns.c ****             *hfcb_idx = icb, dhfcb_max = dhfcb;
 355              		.loc 1 408 0 is_stmt 1
 356 00ac 4B46     		mov	r3, r9
 357 00ae 5A46     		mov	r2, fp
 358 00b0 1A60     		str	r2, [r3]
 359              	.LVL48:
 360 00b2 019B     		ldr	r3, [sp, #4]
 361 00b4 0393     		str	r3, [sp, #12]
 362              	.LVL49:
 363              	.L23:
 364              	.LBE54:
 394:..\..\..\liblc3\src/sns.c ****         const float *lfcb = lc3_sns_lfcb[icb];
 365              		.loc 1 394 0 discriminator 2
 366 00b6 0123     		movs	r3, #1
 367 00b8 9C46     		mov	ip, r3
 368 00ba E344     		add	fp, fp, ip
 369              	.LVL50:
 370              	.L16:
 394:..\..\..\liblc3\src/sns.c ****         const float *lfcb = lc3_sns_lfcb[icb];
 371              		.loc 1 394 0 is_stmt 0 discriminator 1
 372 00bc 5B46     		mov	r3, fp
 373 00be 1F2B     		cmp	r3, #31
 374 00c0 B1DD     		ble	.L25
 375              	.LBE57:
 409:..\..\..\liblc3\src/sns.c ****     }
ARM GAS  C:\Users\rdn\AppData\Local\Temp\ccFEeGTH.s 			page 15


 410:..\..\..\liblc3\src/sns.c **** }
 376              		.loc 1 410 0 is_stmt 1
 377 00c2 05B0     		add	sp, sp, #20
 378              		@ sp needed
 379              	.LVL51:
 380              	.LVL52:
 381              	.LVL53:
 382              	.LVL54:
 383 00c4 3CBC     		pop	{r2, r3, r4, r5}
 384 00c6 9046     		mov	r8, r2
 385 00c8 9946     		mov	r9, r3
 386 00ca A246     		mov	r10, r4
 387 00cc AB46     		mov	fp, r5
 388 00ce F0BD     		pop	{r4, r5, r6, r7, pc}
 389              	.L27:
 390              		.align	2
 391              	.L26:
 392 00d0 00000000 		.word	lc3_sns_lfcb
 393 00d4 00000000 		.word	lc3_sns_hfcb
 394              		.cfi_endproc
 395              	.LFE23:
 396              		.size	resolve_codebooks, .-resolve_codebooks
 397              		.global	__aeabi_i2f
 398              		.section	.text.add_pulse,"ax",%progbits
 399              		.align	2
 400              		.code	16
 401              		.thumb_func
 402              		.type	add_pulse, %function
 403              	add_pulse:
 404              	.LFB25:
 411:..\..\..\liblc3\src/sns.c **** 
 412:..\..\..\liblc3\src/sns.c **** /**
 413:..\..\..\liblc3\src/sns.c ****  * Unit energy normalize pulse configuration
 414:..\..\..\liblc3\src/sns.c ****  * c               Pulse configuration
 415:..\..\..\liblc3\src/sns.c ****  * cn              Normalized pulse configuration
 416:..\..\..\liblc3\src/sns.c ****  */
 417:..\..\..\liblc3\src/sns.c **** LC3_HOT static void normalize(const int *c, float *cn)
 418:..\..\..\liblc3\src/sns.c **** {
 419:..\..\..\liblc3\src/sns.c ****     int c2_sum = 0;
 420:..\..\..\liblc3\src/sns.c ****     for (int i = 0; i < 16; i++)
 421:..\..\..\liblc3\src/sns.c ****         c2_sum += c[i] * c[i];
 422:..\..\..\liblc3\src/sns.c **** 
 423:..\..\..\liblc3\src/sns.c ****     float c_norm = 1.f / sqrtf(c2_sum);
 424:..\..\..\liblc3\src/sns.c **** 
 425:..\..\..\liblc3\src/sns.c ****     for (int i = 0; i < 16; i++)
 426:..\..\..\liblc3\src/sns.c ****         cn[i] = c[i] * c_norm;
 427:..\..\..\liblc3\src/sns.c **** }
 428:..\..\..\liblc3\src/sns.c **** 
 429:..\..\..\liblc3\src/sns.c **** /**
 430:..\..\..\liblc3\src/sns.c ****  * Sub-procedure of `quantize()`, add unit pulse
 431:..\..\..\liblc3\src/sns.c ****  * x, y, n         Transformed residual, and vector of pulses with length
 432:..\..\..\liblc3\src/sns.c ****  * start, end      Current number of pulses, limit to reach
 433:..\..\..\liblc3\src/sns.c ****  * corr, energy    Correlation (x,y) and y energy, updated at output
 434:..\..\..\liblc3\src/sns.c ****  */
 435:..\..\..\liblc3\src/sns.c **** LC3_HOT static void add_pulse(const float *x, int *y, int n,
 436:..\..\..\liblc3\src/sns.c ****     int start, int end, float *corr, float *energy)
 437:..\..\..\liblc3\src/sns.c **** {
ARM GAS  C:\Users\rdn\AppData\Local\Temp\ccFEeGTH.s 			page 16


 405              		.loc 1 437 0
 406              		.cfi_startproc
 407              		@ args = 12, pretend = 0, frame = 32
 408              		@ frame_needed = 0, uses_anonymous_args = 0
 409              	.LVL55:
 410 0000 F0B5     		push	{r4, r5, r6, r7, lr}
 411              		.cfi_def_cfa_offset 20
 412              		.cfi_offset 4, -20
 413              		.cfi_offset 5, -16
 414              		.cfi_offset 6, -12
 415              		.cfi_offset 7, -8
 416              		.cfi_offset 14, -4
 417 0002 5F46     		mov	r7, fp
 418 0004 5646     		mov	r6, r10
 419 0006 4D46     		mov	r5, r9
 420 0008 4446     		mov	r4, r8
 421 000a F0B4     		push	{r4, r5, r6, r7}
 422              		.cfi_def_cfa_offset 36
 423              		.cfi_offset 8, -36
 424              		.cfi_offset 9, -32
 425              		.cfi_offset 10, -28
 426              		.cfi_offset 11, -24
 427 000c 89B0     		sub	sp, sp, #36
 428              		.cfi_def_cfa_offset 72
 429 000e 9246     		mov	r10, r2
 430 0010 139A     		ldr	r2, [sp, #76]
 431              	.LVL56:
 432 0012 9046     		mov	r8, r2
 433 0014 149A     		ldr	r2, [sp, #80]
 434 0016 9146     		mov	r9, r2
 435              	.LVL57:
 436 0018 0D00     		movs	r5, r1
 437 001a 0700     		movs	r7, r0
 438 001c C346     		mov	fp, r8
 439 001e 9846     		mov	r8, r3
 440              	.LBB58:
 438:..\..\..\liblc3\src/sns.c ****     for (int k = start; k < end; k++) {
 441              		.loc 1 438 0
 442 0020 66E0     		b	.L29
 443              	.LVL58:
 444              	.L33:
 445              	.LBB59:
 439:..\..\..\liblc3\src/sns.c ****         float best_c2 = (*corr + x[0]) * (*corr + x[0]);
 446              		.loc 1 439 0
 447 0022 5B46     		mov	r3, fp
 448 0024 1B68     		ldr	r3, [r3]
 449 0026 0593     		str	r3, [sp, #20]
 450 0028 3968     		ldr	r1, [r7]
 451 002a 181C     		adds	r0, r3, #0
 452 002c FFF7FEFF 		bl	__aeabi_fadd
 453              	.LVL59:
 454 0030 011C     		adds	r1, r0, #0
 455 0032 FFF7FEFF 		bl	__aeabi_fmul
 456              	.LVL60:
 457 0036 0390     		str	r0, [sp, #12]
 458              	.LVL61:
 440:..\..\..\liblc3\src/sns.c ****         float best_e = *energy + 2*y[0] + 1;
ARM GAS  C:\Users\rdn\AppData\Local\Temp\ccFEeGTH.s 			page 17


 459              		.loc 1 440 0
 460 0038 4B46     		mov	r3, r9
 461 003a 1B68     		ldr	r3, [r3]
 462 003c 1C1C     		adds	r4, r3, #0
 463 003e 0693     		str	r3, [sp, #24]
 464 0040 2B68     		ldr	r3, [r5]
 465 0042 5800     		lsls	r0, r3, #1
 466              	.LVL62:
 467 0044 FFF7FEFF 		bl	__aeabi_i2f
 468              	.LVL63:
 469 0048 211C     		adds	r1, r4, #0
 470 004a FFF7FEFF 		bl	__aeabi_fadd
 471              	.LVL64:
 472 004e FE21     		movs	r1, #254
 473 0050 8905     		lsls	r1, r1, #22
 474 0052 FFF7FEFF 		bl	__aeabi_fadd
 475              	.LVL65:
 476 0056 0490     		str	r0, [sp, #16]
 477              	.LVL66:
 478              	.LBB60:
 441:..\..\..\liblc3\src/sns.c ****         int nbest = 0;
 442:..\..\..\liblc3\src/sns.c **** 
 443:..\..\..\liblc3\src/sns.c ****         for (int i = 1; i < n; i++) {
 479              		.loc 1 443 0
 480 0058 0124     		movs	r4, #1
 481              	.LBE60:
 441:..\..\..\liblc3\src/sns.c ****         int nbest = 0;
 482              		.loc 1 441 0
 483 005a 0023     		movs	r3, #0
 484 005c 0793     		str	r3, [sp, #28]
 485 005e 2E00     		movs	r6, r5
 486              	.LBB62:
 487              		.loc 1 443 0
 488 0060 28E0     		b	.L30
 489              	.LVL67:
 490              	.L32:
 491              	.LBB61:
 444:..\..\..\liblc3\src/sns.c ****             float c2 = (*corr + x[i]) * (*corr + x[i]);
 492              		.loc 1 444 0
 493 0062 A500     		lsls	r5, r4, #2
 494 0064 7959     		ldr	r1, [r7, r5]
 495 0066 0598     		ldr	r0, [sp, #20]
 496 0068 FFF7FEFF 		bl	__aeabi_fadd
 497              	.LVL68:
 498 006c 011C     		adds	r1, r0, #0
 499 006e FFF7FEFF 		bl	__aeabi_fmul
 500              	.LVL69:
 501 0072 0190     		str	r0, [sp, #4]
 502              	.LVL70:
 445:..\..\..\liblc3\src/sns.c ****             float e  = *energy + 2*y[i] + 1;
 503              		.loc 1 445 0
 504 0074 7059     		ldr	r0, [r6, r5]
 505              	.LVL71:
 506 0076 4000     		lsls	r0, r0, #1
 507 0078 FFF7FEFF 		bl	__aeabi_i2f
 508              	.LVL72:
 509 007c 0699     		ldr	r1, [sp, #24]
ARM GAS  C:\Users\rdn\AppData\Local\Temp\ccFEeGTH.s 			page 18


 510 007e FFF7FEFF 		bl	__aeabi_fadd
 511              	.LVL73:
 512 0082 FE21     		movs	r1, #254
 513 0084 8905     		lsls	r1, r1, #22
 514 0086 FFF7FEFF 		bl	__aeabi_fadd
 515              	.LVL74:
 516 008a 051C     		adds	r5, r0, #0
 517              	.LVL75:
 446:..\..\..\liblc3\src/sns.c **** 
 447:..\..\..\liblc3\src/sns.c ****             if (c2 * best_e > e * best_c2)
 518              		.loc 1 447 0
 519 008c 0199     		ldr	r1, [sp, #4]
 520 008e 0498     		ldr	r0, [sp, #16]
 521              	.LVL76:
 522 0090 FFF7FEFF 		bl	__aeabi_fmul
 523              	.LVL77:
 524 0094 0290     		str	r0, [sp, #8]
 525 0096 291C     		adds	r1, r5, #0
 526 0098 0398     		ldr	r0, [sp, #12]
 527 009a FFF7FEFF 		bl	__aeabi_fmul
 528              	.LVL78:
 529 009e 011C     		adds	r1, r0, #0
 530 00a0 0298     		ldr	r0, [sp, #8]
 531 00a2 FFF7FEFF 		bl	__aeabi_fcmpgt
 532              	.LVL79:
 533 00a6 0028     		cmp	r0, #0
 534 00a8 03D0     		beq	.L31
 448:..\..\..\liblc3\src/sns.c ****                 best_c2 = c2, best_e = e, nbest = i;
 535              		.loc 1 448 0
 536 00aa 0794     		str	r4, [sp, #28]
 537              	.LVL80:
 538 00ac 0495     		str	r5, [sp, #16]
 539              	.LVL81:
 540 00ae 019B     		ldr	r3, [sp, #4]
 541 00b0 0393     		str	r3, [sp, #12]
 542              	.LVL82:
 543              	.L31:
 544              	.LBE61:
 443:..\..\..\liblc3\src/sns.c ****             float c2 = (*corr + x[i]) * (*corr + x[i]);
 545              		.loc 1 443 0 discriminator 2
 546 00b2 0134     		adds	r4, r4, #1
 547              	.LVL83:
 548              	.L30:
 443:..\..\..\liblc3\src/sns.c ****             float c2 = (*corr + x[i]) * (*corr + x[i]);
 549              		.loc 1 443 0 is_stmt 0 discriminator 1
 550 00b4 5445     		cmp	r4, r10
 551 00b6 D4DB     		blt	.L32
 552 00b8 3500     		movs	r5, r6
 553              	.LBE62:
 449:..\..\..\liblc3\src/sns.c ****         }
 450:..\..\..\liblc3\src/sns.c **** 
 451:..\..\..\liblc3\src/sns.c ****         *corr += x[nbest];
 554              		.loc 1 451 0 is_stmt 1 discriminator 2
 555 00ba 079B     		ldr	r3, [sp, #28]
 556 00bc 9C00     		lsls	r4, r3, #2
 557              	.LVL84:
 558 00be 3959     		ldr	r1, [r7, r4]
ARM GAS  C:\Users\rdn\AppData\Local\Temp\ccFEeGTH.s 			page 19


 559 00c0 0598     		ldr	r0, [sp, #20]
 560 00c2 FFF7FEFF 		bl	__aeabi_fadd
 561              	.LVL85:
 562 00c6 5B46     		mov	r3, fp
 563 00c8 1860     		str	r0, [r3]
 452:..\..\..\liblc3\src/sns.c ****         *energy += 2*y[nbest] + 1;
 564              		.loc 1 452 0 discriminator 2
 565 00ca 3419     		adds	r4, r6, r4
 566 00cc 2368     		ldr	r3, [r4]
 567 00ce 5800     		lsls	r0, r3, #1
 568 00d0 0130     		adds	r0, r0, #1
 569 00d2 FFF7FEFF 		bl	__aeabi_i2f
 570              	.LVL86:
 571 00d6 011C     		adds	r1, r0, #0
 572 00d8 4B46     		mov	r3, r9
 573 00da 1868     		ldr	r0, [r3]
 574 00dc FFF7FEFF 		bl	__aeabi_fadd
 575              	.LVL87:
 576 00e0 4B46     		mov	r3, r9
 577 00e2 1860     		str	r0, [r3]
 453:..\..\..\liblc3\src/sns.c ****         y[nbest]++;
 578              		.loc 1 453 0 discriminator 2
 579 00e4 2368     		ldr	r3, [r4]
 580 00e6 0133     		adds	r3, r3, #1
 581 00e8 2360     		str	r3, [r4]
 582              	.LBE59:
 438:..\..\..\liblc3\src/sns.c ****         float best_c2 = (*corr + x[0]) * (*corr + x[0]);
 583              		.loc 1 438 0 discriminator 2
 584 00ea 0123     		movs	r3, #1
 585 00ec 9C46     		mov	ip, r3
 586 00ee E044     		add	r8, r8, ip
 587              	.LVL88:
 588              	.L29:
 438:..\..\..\liblc3\src/sns.c ****         float best_c2 = (*corr + x[0]) * (*corr + x[0]);
 589              		.loc 1 438 0 is_stmt 0 discriminator 1
 590 00f0 129B     		ldr	r3, [sp, #72]
 591 00f2 9845     		cmp	r8, r3
 592 00f4 95DB     		blt	.L33
 593              	.LBE58:
 454:..\..\..\liblc3\src/sns.c ****     }
 455:..\..\..\liblc3\src/sns.c **** }
 594              		.loc 1 455 0 is_stmt 1
 595 00f6 09B0     		add	sp, sp, #36
 596              		@ sp needed
 597              	.LVL89:
 598              	.LVL90:
 599              	.LVL91:
 600              	.LVL92:
 601 00f8 3CBC     		pop	{r2, r3, r4, r5}
 602 00fa 9046     		mov	r8, r2
 603 00fc 9946     		mov	r9, r3
 604 00fe A246     		mov	r10, r4
 605 0100 AB46     		mov	fp, r5
 606 0102 F0BD     		pop	{r4, r5, r6, r7, pc}
 607              		.cfi_endproc
 608              	.LFE25:
 609              		.size	add_pulse, .-add_pulse
ARM GAS  C:\Users\rdn\AppData\Local\Temp\ccFEeGTH.s 			page 20


 610              		.section	.text.unquantize,"ax",%progbits
 611              		.align	2
 612              		.code	16
 613              		.thumb_func
 614              		.type	unquantize, %function
 615              	unquantize:
 616              	.LFB27:
 456:..\..\..\liblc3\src/sns.c **** 
 457:..\..\..\liblc3\src/sns.c **** /**
 458:..\..\..\liblc3\src/sns.c ****  * Quantization of codebooks residual
 459:..\..\..\liblc3\src/sns.c ****  * scf             Input 16 scale factors, output quantized version
 460:..\..\..\liblc3\src/sns.c ****  * lf/hfcb_idx     Codebooks index
 461:..\..\..\liblc3\src/sns.c ****  * c, cn           Output 4 pulse configurations candidates, normalized
 462:..\..\..\liblc3\src/sns.c ****  * shape/gain_idx  Output selected shape/gain indexes
 463:..\..\..\liblc3\src/sns.c ****  */
 464:..\..\..\liblc3\src/sns.c **** LC3_HOT static void quantize(const float *scf, int lfcb_idx, int hfcb_idx,
 465:..\..\..\liblc3\src/sns.c ****     int (*c)[16], float (*cn)[16], int *shape_idx, int *gain_idx)
 466:..\..\..\liblc3\src/sns.c **** {
 467:..\..\..\liblc3\src/sns.c ****     /* --- Residual --- */
 468:..\..\..\liblc3\src/sns.c **** 
 469:..\..\..\liblc3\src/sns.c ****     const float *lfcb = lc3_sns_lfcb[lfcb_idx];
 470:..\..\..\liblc3\src/sns.c ****     const float *hfcb = lc3_sns_hfcb[hfcb_idx];
 471:..\..\..\liblc3\src/sns.c ****     float r[16], x[16];
 472:..\..\..\liblc3\src/sns.c **** 
 473:..\..\..\liblc3\src/sns.c ****     for (int i = 0; i < 8; i++) {
 474:..\..\..\liblc3\src/sns.c ****         r[  i] = scf[  i] - lfcb[i];
 475:..\..\..\liblc3\src/sns.c ****         r[8+i] = scf[8+i] - hfcb[i];
 476:..\..\..\liblc3\src/sns.c ****     }
 477:..\..\..\liblc3\src/sns.c **** 
 478:..\..\..\liblc3\src/sns.c ****     dct16_forward(r, x);
 479:..\..\..\liblc3\src/sns.c **** 
 480:..\..\..\liblc3\src/sns.c ****     /* --- Shape 3 candidate ---
 481:..\..\..\liblc3\src/sns.c ****      * Project to or below pyramid N = 16, K = 6,
 482:..\..\..\liblc3\src/sns.c ****      * then add unit pulses until you reach K = 6, over N = 16 */
 483:..\..\..\liblc3\src/sns.c **** 
 484:..\..\..\liblc3\src/sns.c ****     float xm[16];
 485:..\..\..\liblc3\src/sns.c ****     float xm_sum = 0;
 486:..\..\..\liblc3\src/sns.c **** 
 487:..\..\..\liblc3\src/sns.c ****     for (int i = 0; i < 16; i++) {
 488:..\..\..\liblc3\src/sns.c ****         xm[i] = fabsf(x[i]);
 489:..\..\..\liblc3\src/sns.c ****         xm_sum += xm[i];
 490:..\..\..\liblc3\src/sns.c ****     }
 491:..\..\..\liblc3\src/sns.c **** 
 492:..\..\..\liblc3\src/sns.c ****     float proj_factor = (6 - 1) / fmaxf(xm_sum, 1e-31f);
 493:..\..\..\liblc3\src/sns.c ****     float corr = 0, energy = 0;
 494:..\..\..\liblc3\src/sns.c ****     int npulses = 0;
 495:..\..\..\liblc3\src/sns.c **** 
 496:..\..\..\liblc3\src/sns.c ****     for (int i = 0; i < 16; i++) {
 497:..\..\..\liblc3\src/sns.c ****         c[3][i] = floorf(xm[i] * proj_factor);
 498:..\..\..\liblc3\src/sns.c ****         npulses += c[3][i];
 499:..\..\..\liblc3\src/sns.c ****         corr    += c[3][i] * xm[i];
 500:..\..\..\liblc3\src/sns.c ****         energy  += c[3][i] * c[3][i];
 501:..\..\..\liblc3\src/sns.c ****     }
 502:..\..\..\liblc3\src/sns.c **** 
 503:..\..\..\liblc3\src/sns.c ****     add_pulse(xm, c[3], 16, npulses, 6, &corr, &energy);
 504:..\..\..\liblc3\src/sns.c ****     npulses = 6;
 505:..\..\..\liblc3\src/sns.c **** 
ARM GAS  C:\Users\rdn\AppData\Local\Temp\ccFEeGTH.s 			page 21


 506:..\..\..\liblc3\src/sns.c ****     /* --- Shape 2 candidate ---
 507:..\..\..\liblc3\src/sns.c ****      * Add unit pulses until you reach K = 8 on shape 3 */
 508:..\..\..\liblc3\src/sns.c **** 
 509:..\..\..\liblc3\src/sns.c ****     memcpy(c[2], c[3], sizeof(c[2]));
 510:..\..\..\liblc3\src/sns.c **** 
 511:..\..\..\liblc3\src/sns.c ****     add_pulse(xm, c[2], 16, npulses, 8, &corr, &energy);
 512:..\..\..\liblc3\src/sns.c ****     npulses = 8;
 513:..\..\..\liblc3\src/sns.c **** 
 514:..\..\..\liblc3\src/sns.c ****     /* --- Shape 1 candidate ---
 515:..\..\..\liblc3\src/sns.c ****      * Remove any unit pulses from shape 2 that are not part of 0 to 9
 516:..\..\..\liblc3\src/sns.c ****      * Update energy and correlation terms accordingly
 517:..\..\..\liblc3\src/sns.c ****      * Add unit pulses until you reach K = 10, over N = 10 */
 518:..\..\..\liblc3\src/sns.c **** 
 519:..\..\..\liblc3\src/sns.c ****     memcpy(c[1], c[2], sizeof(c[1]));
 520:..\..\..\liblc3\src/sns.c **** 
 521:..\..\..\liblc3\src/sns.c ****     for (int i = 10; i < 16; i++) {
 522:..\..\..\liblc3\src/sns.c ****         c[1][i] = 0;
 523:..\..\..\liblc3\src/sns.c ****         npulses -= c[2][i];
 524:..\..\..\liblc3\src/sns.c ****         corr    -= c[2][i] * xm[i];
 525:..\..\..\liblc3\src/sns.c ****         energy  -= c[2][i] * c[2][i];
 526:..\..\..\liblc3\src/sns.c ****     }
 527:..\..\..\liblc3\src/sns.c **** 
 528:..\..\..\liblc3\src/sns.c ****     add_pulse(xm, c[1], 10, npulses, 10, &corr, &energy);
 529:..\..\..\liblc3\src/sns.c ****     npulses = 10;
 530:..\..\..\liblc3\src/sns.c **** 
 531:..\..\..\liblc3\src/sns.c ****     /* --- Shape 0 candidate ---
 532:..\..\..\liblc3\src/sns.c ****      * Add unit pulses until you reach K = 1, on shape 1 */
 533:..\..\..\liblc3\src/sns.c **** 
 534:..\..\..\liblc3\src/sns.c ****     memcpy(c[0], c[1], sizeof(c[0]));
 535:..\..\..\liblc3\src/sns.c **** 
 536:..\..\..\liblc3\src/sns.c ****     add_pulse(xm + 10, c[0] + 10, 6, 0, 1, &corr, &energy);
 537:..\..\..\liblc3\src/sns.c **** 
 538:..\..\..\liblc3\src/sns.c ****     /* --- Add sign and unit energy normalize --- */
 539:..\..\..\liblc3\src/sns.c **** 
 540:..\..\..\liblc3\src/sns.c ****     for (int j = 0; j < 16; j++)
 541:..\..\..\liblc3\src/sns.c ****         for (int i = 0; i < 4; i++)
 542:..\..\..\liblc3\src/sns.c ****             c[i][j] = x[j] < 0 ? -c[i][j] : c[i][j];
 543:..\..\..\liblc3\src/sns.c **** 
 544:..\..\..\liblc3\src/sns.c ****     for (int i = 0; i < 4; i++)
 545:..\..\..\liblc3\src/sns.c ****         normalize(c[i], cn[i]);
 546:..\..\..\liblc3\src/sns.c **** 
 547:..\..\..\liblc3\src/sns.c ****     /* --- Determe shape & gain index ---
 548:..\..\..\liblc3\src/sns.c ****      * Search the Mean Square Error, within (shape, gain) combinations */
 549:..\..\..\liblc3\src/sns.c **** 
 550:..\..\..\liblc3\src/sns.c ****     float mse_min = INFINITY;
 551:..\..\..\liblc3\src/sns.c ****     *shape_idx = *gain_idx = 0;
 552:..\..\..\liblc3\src/sns.c **** 
 553:..\..\..\liblc3\src/sns.c ****     for (int ic = 0; ic < 4; ic++) {
 554:..\..\..\liblc3\src/sns.c ****         const struct lc3_sns_vq_gains *cgains = lc3_sns_vq_gains + ic;
 555:..\..\..\liblc3\src/sns.c ****         float cmse_min = INFINITY;
 556:..\..\..\liblc3\src/sns.c ****         int cgain_idx = 0;
 557:..\..\..\liblc3\src/sns.c **** 
 558:..\..\..\liblc3\src/sns.c ****         for (int ig = 0; ig < cgains->count; ig++) {
 559:..\..\..\liblc3\src/sns.c ****             float g = cgains->v[ig];
 560:..\..\..\liblc3\src/sns.c **** 
 561:..\..\..\liblc3\src/sns.c ****             float mse = 0;
 562:..\..\..\liblc3\src/sns.c ****             for (int i = 0; i < 16; i++)
ARM GAS  C:\Users\rdn\AppData\Local\Temp\ccFEeGTH.s 			page 22


 563:..\..\..\liblc3\src/sns.c ****                 mse += (x[i] - g * cn[ic][i]) * (x[i] - g * cn[ic][i]);
 564:..\..\..\liblc3\src/sns.c **** 
 565:..\..\..\liblc3\src/sns.c ****             if (mse < cmse_min) {
 566:..\..\..\liblc3\src/sns.c ****                 cgain_idx = ig,
 567:..\..\..\liblc3\src/sns.c ****                 cmse_min = mse;
 568:..\..\..\liblc3\src/sns.c ****             }
 569:..\..\..\liblc3\src/sns.c ****         }
 570:..\..\..\liblc3\src/sns.c **** 
 571:..\..\..\liblc3\src/sns.c ****         if (cmse_min < mse_min) {
 572:..\..\..\liblc3\src/sns.c ****             *shape_idx = ic, *gain_idx = cgain_idx;
 573:..\..\..\liblc3\src/sns.c ****             mse_min = cmse_min;
 574:..\..\..\liblc3\src/sns.c ****         }
 575:..\..\..\liblc3\src/sns.c ****     }
 576:..\..\..\liblc3\src/sns.c **** }
 577:..\..\..\liblc3\src/sns.c **** 
 578:..\..\..\liblc3\src/sns.c **** /**
 579:..\..\..\liblc3\src/sns.c ****  * Unquantization of codebooks residual
 580:..\..\..\liblc3\src/sns.c ****  * lf/hfcb_idx     Low and high frequency codebooks index
 581:..\..\..\liblc3\src/sns.c ****  * c               Table of normalized pulse configuration
 582:..\..\..\liblc3\src/sns.c ****  * shape/gain      Selected shape/gain indexes
 583:..\..\..\liblc3\src/sns.c ****  * scf             Return unquantized scale factors
 584:..\..\..\liblc3\src/sns.c ****  */
 585:..\..\..\liblc3\src/sns.c **** LC3_HOT static void unquantize(int lfcb_idx, int hfcb_idx,
 586:..\..\..\liblc3\src/sns.c ****     const float *c, int shape, int gain, float *scf)
 587:..\..\..\liblc3\src/sns.c **** {
 617              		.loc 1 587 0
 618              		.cfi_startproc
 619              		@ args = 8, pretend = 0, frame = 8
 620              		@ frame_needed = 0, uses_anonymous_args = 0
 621              	.LVL93:
 622 0000 F0B5     		push	{r4, r5, r6, r7, lr}
 623              		.cfi_def_cfa_offset 20
 624              		.cfi_offset 4, -20
 625              		.cfi_offset 5, -16
 626              		.cfi_offset 6, -12
 627              		.cfi_offset 7, -8
 628              		.cfi_offset 14, -4
 629 0002 5746     		mov	r7, r10
 630 0004 4E46     		mov	r6, r9
 631 0006 C0B4     		push	{r6, r7}
 632              		.cfi_def_cfa_offset 28
 633              		.cfi_offset 9, -28
 634              		.cfi_offset 10, -24
 635 0008 83B0     		sub	sp, sp, #12
 636              		.cfi_def_cfa_offset 40
 637 000a 0B9E     		ldr	r6, [sp, #44]
 588:..\..\..\liblc3\src/sns.c ****     const float *lfcb = lc3_sns_lfcb[lfcb_idx];
 638              		.loc 1 588 0
 639 000c 4001     		lsls	r0, r0, #5
 640              	.LVL94:
 641 000e 1F4C     		ldr	r4, .L40
 642 0010 8146     		mov	r9, r0
 643 0012 A144     		add	r9, r9, r4
 644              	.LVL95:
 589:..\..\..\liblc3\src/sns.c ****     const float *hfcb = lc3_sns_hfcb[hfcb_idx];
 645              		.loc 1 589 0
 646 0014 4901     		lsls	r1, r1, #5
ARM GAS  C:\Users\rdn\AppData\Local\Temp\ccFEeGTH.s 			page 23


 647              	.LVL96:
 648 0016 1E4F     		ldr	r7, .L40+4
 649 0018 CF19     		adds	r7, r1, r7
 650              	.LVL97:
 590:..\..\..\liblc3\src/sns.c ****     float g = lc3_sns_vq_gains[shape].v[gain];
 651              		.loc 1 590 0
 652 001a DB00     		lsls	r3, r3, #3
 653              	.LVL98:
 654 001c 1D49     		ldr	r1, .L40+8
 655 001e CB18     		adds	r3, r1, r3
 656 0020 5968     		ldr	r1, [r3, #4]
 657 0022 0A9B     		ldr	r3, [sp, #40]
 658 0024 9B00     		lsls	r3, r3, #2
 659 0026 CB58     		ldr	r3, [r1, r3]
 660 0028 0193     		str	r3, [sp, #4]
 661              	.LVL99:
 591:..\..\..\liblc3\src/sns.c **** 
 592:..\..\..\liblc3\src/sns.c ****     dct16_inverse(c, scf);
 662              		.loc 1 592 0
 663 002a 3100     		movs	r1, r6
 664 002c 1000     		movs	r0, r2
 665 002e FFF7FEFF 		bl	dct16_inverse
 666              	.LVL100:
 667              	.LBB63:
 593:..\..\..\liblc3\src/sns.c **** 
 594:..\..\..\liblc3\src/sns.c ****     for (int i = 0; i < 8; i++)
 668              		.loc 1 594 0
 669 0032 0025     		movs	r5, #0
 670 0034 0EE0     		b	.L36
 671              	.LVL101:
 672              	.L37:
 595:..\..\..\liblc3\src/sns.c ****         scf[i] = lfcb[i] + g * scf[i];
 673              		.loc 1 595 0 discriminator 3
 674 0036 AC00     		lsls	r4, r5, #2
 675 0038 4B46     		mov	r3, r9
 676 003a 1B59     		ldr	r3, [r3, r4]
 677 003c 9A46     		mov	r10, r3
 678 003e 3419     		adds	r4, r6, r4
 679 0040 2168     		ldr	r1, [r4]
 680 0042 0198     		ldr	r0, [sp, #4]
 681 0044 FFF7FEFF 		bl	__aeabi_fmul
 682              	.LVL102:
 683 0048 011C     		adds	r1, r0, #0
 684 004a 5046     		mov	r0, r10
 685 004c FFF7FEFF 		bl	__aeabi_fadd
 686              	.LVL103:
 687 0050 2060     		str	r0, [r4]
 594:..\..\..\liblc3\src/sns.c ****         scf[i] = lfcb[i] + g * scf[i];
 688              		.loc 1 594 0 discriminator 3
 689 0052 0135     		adds	r5, r5, #1
 690              	.LVL104:
 691              	.L36:
 594:..\..\..\liblc3\src/sns.c ****         scf[i] = lfcb[i] + g * scf[i];
 692              		.loc 1 594 0 is_stmt 0 discriminator 1
 693 0054 072D     		cmp	r5, #7
 694 0056 EEDD     		ble	.L37
 695 0058 0825     		movs	r5, #8
ARM GAS  C:\Users\rdn\AppData\Local\Temp\ccFEeGTH.s 			page 24


 696              	.LVL105:
 697 005a 10E0     		b	.L38
 698              	.LVL106:
 699              	.L39:
 700              	.LBE63:
 701              	.LBB64:
 596:..\..\..\liblc3\src/sns.c **** 
 597:..\..\..\liblc3\src/sns.c ****     for (int i = 8; i < 16; i++)
 598:..\..\..\liblc3\src/sns.c ****         scf[i] = hfcb[i-8] + g * scf[i];
 702              		.loc 1 598 0 is_stmt 1 discriminator 3
 703 005c AC00     		lsls	r4, r5, #2
 704 005e 0E4B     		ldr	r3, .L40+12
 705 0060 EB18     		adds	r3, r5, r3
 706 0062 9B00     		lsls	r3, r3, #2
 707 0064 DB59     		ldr	r3, [r3, r7]
 708 0066 9946     		mov	r9, r3
 709 0068 3419     		adds	r4, r6, r4
 710 006a 2168     		ldr	r1, [r4]
 711 006c 0198     		ldr	r0, [sp, #4]
 712 006e FFF7FEFF 		bl	__aeabi_fmul
 713              	.LVL107:
 714 0072 011C     		adds	r1, r0, #0
 715 0074 4846     		mov	r0, r9
 716 0076 FFF7FEFF 		bl	__aeabi_fadd
 717              	.LVL108:
 718 007a 2060     		str	r0, [r4]
 597:..\..\..\liblc3\src/sns.c ****         scf[i] = hfcb[i-8] + g * scf[i];
 719              		.loc 1 597 0 discriminator 3
 720 007c 0135     		adds	r5, r5, #1
 721              	.LVL109:
 722              	.L38:
 597:..\..\..\liblc3\src/sns.c ****         scf[i] = hfcb[i-8] + g * scf[i];
 723              		.loc 1 597 0 is_stmt 0 discriminator 1
 724 007e 0F2D     		cmp	r5, #15
 725 0080 ECDD     		ble	.L39
 726              	.LBE64:
 599:..\..\..\liblc3\src/sns.c **** }
 727              		.loc 1 599 0 is_stmt 1
 728 0082 03B0     		add	sp, sp, #12
 729              		@ sp needed
 730              	.LVL110:
 731              	.LVL111:
 732 0084 0CBC     		pop	{r2, r3}
 733 0086 9146     		mov	r9, r2
 734 0088 9A46     		mov	r10, r3
 735 008a F0BD     		pop	{r4, r5, r6, r7, pc}
 736              	.L41:
 737              		.align	2
 738              	.L40:
 739 008c 00000000 		.word	lc3_sns_lfcb
 740 0090 00000000 		.word	lc3_sns_hfcb
 741 0094 00000000 		.word	lc3_sns_vq_gains
 742 0098 F8FFFF3F 		.word	1073741816
 743              		.cfi_endproc
 744              	.LFE27:
 745              		.size	unquantize, .-unquantize
 746              		.section	.text.enum_mvpq,"ax",%progbits
ARM GAS  C:\Users\rdn\AppData\Local\Temp\ccFEeGTH.s 			page 25


 747              		.align	2
 748              		.code	16
 749              		.thumb_func
 750              		.type	enum_mvpq, %function
 751              	enum_mvpq:
 752              	.LFB28:
 600:..\..\..\liblc3\src/sns.c **** 
 601:..\..\..\liblc3\src/sns.c **** /**
 602:..\..\..\liblc3\src/sns.c ****  * Sub-procedure of `sns_enumerate()`, enumeration of a vector
 603:..\..\..\liblc3\src/sns.c ****  * c, n            Table of pulse configuration, and length
 604:..\..\..\liblc3\src/sns.c ****  * idx, ls         Return enumeration set
 605:..\..\..\liblc3\src/sns.c ****  */
 606:..\..\..\liblc3\src/sns.c **** static void enum_mvpq(const int *c, int n, int *idx, bool *ls)
 607:..\..\..\liblc3\src/sns.c **** {
 753              		.loc 1 607 0
 754              		.cfi_startproc
 755              		@ args = 0, pretend = 0, frame = 0
 756              		@ frame_needed = 0, uses_anonymous_args = 0
 757              	.LVL112:
 758 0000 F0B5     		push	{r4, r5, r6, r7, lr}
 759              		.cfi_def_cfa_offset 20
 760              		.cfi_offset 4, -20
 761              		.cfi_offset 5, -16
 762              		.cfi_offset 6, -12
 763              		.cfi_offset 7, -8
 764              		.cfi_offset 14, -4
 765 0002 4746     		mov	r7, r8
 766 0004 80B4     		push	{r7}
 767              		.cfi_def_cfa_offset 24
 768              		.cfi_offset 8, -24
 769 0006 9C46     		mov	ip, r3
 770              	.LVL113:
 608:..\..\..\liblc3\src/sns.c ****     int ci, i;
 609:..\..\..\liblc3\src/sns.c **** 
 610:..\..\..\liblc3\src/sns.c ****     /* --- Scan for 1st significant coeff --- */
 611:..\..\..\liblc3\src/sns.c **** 
 612:..\..\..\liblc3\src/sns.c ****     for (i = 0, c += n; (ci = *(--c)) == 0 && i < 15; i++);
 771              		.loc 1 612 0
 772 0008 8B00     		lsls	r3, r1, #2
 773              	.LVL114:
 774 000a C018     		adds	r0, r0, r3
 775              	.LVL115:
 776 000c 0024     		movs	r4, #0
 777 000e 00E0     		b	.L43
 778              	.LVL116:
 779              	.L45:
 780              		.loc 1 612 0 is_stmt 0 discriminator 4
 781 0010 0134     		adds	r4, r4, #1
 782              	.LVL117:
 783              	.L43:
 784              		.loc 1 612 0 discriminator 1
 785 0012 0438     		subs	r0, r0, #4
 786              	.LVL118:
 787 0014 0768     		ldr	r7, [r0]
 788              	.LVL119:
 789 0016 002F     		cmp	r7, #0
 790 0018 01D1     		bne	.L44
ARM GAS  C:\Users\rdn\AppData\Local\Temp\ccFEeGTH.s 			page 26


 791              		.loc 1 612 0 discriminator 3
 792 001a 0E2C     		cmp	r4, #14
 793 001c F8DD     		ble	.L45
 794              	.L44:
 613:..\..\..\liblc3\src/sns.c **** 
 614:..\..\..\liblc3\src/sns.c ****     *idx = 0;
 795              		.loc 1 614 0 is_stmt 1
 796 001e 0023     		movs	r3, #0
 797 0020 1360     		str	r3, [r2]
 615:..\..\..\liblc3\src/sns.c ****     *ls = ci < 0;
 798              		.loc 1 615 0
 799 0022 FB0F     		lsrs	r3, r7, #31
 800 0024 6546     		mov	r5, ip
 801 0026 2B70     		strb	r3, [r5]
 616:..\..\..\liblc3\src/sns.c **** 
 617:..\..\..\liblc3\src/sns.c ****     /* --- Scan remaining coefficients --- */
 618:..\..\..\liblc3\src/sns.c **** 
 619:..\..\..\liblc3\src/sns.c ****     unsigned j = LC3_ABS(ci);
 802              		.loc 1 619 0
 803 0028 FB17     		asrs	r3, r7, #31
 804 002a FF18     		adds	r7, r7, r3
 805              	.LVL120:
 806 002c 5F40     		eors	r7, r3
 807              	.LVL121:
 620:..\..\..\liblc3\src/sns.c **** 
 621:..\..\..\liblc3\src/sns.c ****     for (i++; i < n; i++, j += LC3_ABS(ci)) {
 808              		.loc 1 621 0
 809 002e 0134     		adds	r4, r4, #1
 810              	.LVL122:
 811 0030 21E0     		b	.L46
 812              	.LVL123:
 813              	.L49:
 622:..\..\..\liblc3\src/sns.c **** 
 623:..\..\..\liblc3\src/sns.c ****         if ((ci = *(--c)) != 0) {
 814              		.loc 1 623 0
 815 0032 0438     		subs	r0, r0, #4
 816              	.LVL124:
 817 0034 0368     		ldr	r3, [r0]
 818              	.LVL125:
 819 0036 002B     		cmp	r3, #0
 820 0038 08D0     		beq	.L47
 624:..\..\..\liblc3\src/sns.c ****             *idx = (*idx << 1) | *ls;
 821              		.loc 1 624 0
 822 003a 1568     		ldr	r5, [r2]
 823 003c 6D00     		lsls	r5, r5, #1
 824 003e 6646     		mov	r6, ip
 825 0040 3678     		ldrb	r6, [r6]
 826 0042 3543     		orrs	r5, r6
 827 0044 1560     		str	r5, [r2]
 625:..\..\..\liblc3\src/sns.c ****             *ls = ci < 0;
 828              		.loc 1 625 0
 829 0046 DD0F     		lsrs	r5, r3, #31
 830 0048 6646     		mov	r6, ip
 831 004a 3570     		strb	r5, [r6]
 832              	.L47:
 626:..\..\..\liblc3\src/sns.c ****         }
 627:..\..\..\liblc3\src/sns.c **** 
ARM GAS  C:\Users\rdn\AppData\Local\Temp\ccFEeGTH.s 			page 27


 628:..\..\..\liblc3\src/sns.c ****         *idx += lc3_sns_mpvq_offsets[i][LC3_MIN(j, 10)];
 833              		.loc 1 628 0 discriminator 2
 834 004c 3E00     		movs	r6, r7
 835 004e 0A2F     		cmp	r7, #10
 836 0050 00D9     		bls	.L48
 837              	.LVL126:
 838 0052 0A26     		movs	r6, #10
 839              	.LVL127:
 840              	.L48:
 841 0054 A500     		lsls	r5, r4, #2
 842 0056 2D19     		adds	r5, r5, r4
 843 0058 6D00     		lsls	r5, r5, #1
 844 005a 2D19     		adds	r5, r5, r4
 845 005c AD19     		adds	r5, r5, r6
 846 005e AD00     		lsls	r5, r5, #2
 847 0060 074E     		ldr	r6, .L50
 848 0062 AD59     		ldr	r5, [r5, r6]
 849 0064 1668     		ldr	r6, [r2]
 850 0066 B046     		mov	r8, r6
 851 0068 4544     		add	r5, r5, r8
 852 006a 1560     		str	r5, [r2]
 621:..\..\..\liblc3\src/sns.c **** 
 853              		.loc 1 621 0 discriminator 2
 854 006c 0134     		adds	r4, r4, #1
 855              	.LVL128:
 856 006e DD17     		asrs	r5, r3, #31
 857 0070 5B19     		adds	r3, r3, r5
 858              	.LVL129:
 859 0072 6B40     		eors	r3, r5
 860 0074 FF18     		adds	r7, r7, r3
 861              	.LVL130:
 862              	.L46:
 621:..\..\..\liblc3\src/sns.c **** 
 863              		.loc 1 621 0 is_stmt 0 discriminator 1
 864 0076 8C42     		cmp	r4, r1
 865 0078 DBDB     		blt	.L49
 629:..\..\..\liblc3\src/sns.c ****     }
 630:..\..\..\liblc3\src/sns.c **** }
 866              		.loc 1 630 0 is_stmt 1
 867              		@ sp needed
 868              	.LVL131:
 869              	.LVL132:
 870 007a 04BC     		pop	{r2}
 871 007c 9046     		mov	r8, r2
 872 007e F0BD     		pop	{r4, r5, r6, r7, pc}
 873              	.L51:
 874              		.align	2
 875              	.L50:
 876 0080 00000000 		.word	lc3_sns_mpvq_offsets
 877              		.cfi_endproc
 878              	.LFE28:
 879              		.size	enum_mvpq, .-enum_mvpq
 880              		.section	.text.deenum_mvpq,"ax",%progbits
 881              		.align	2
 882              		.code	16
 883              		.thumb_func
 884              		.type	deenum_mvpq, %function
ARM GAS  C:\Users\rdn\AppData\Local\Temp\ccFEeGTH.s 			page 28


 885              	deenum_mvpq:
 886              	.LFB29:
 631:..\..\..\liblc3\src/sns.c **** 
 632:..\..\..\liblc3\src/sns.c **** /**
 633:..\..\..\liblc3\src/sns.c ****  * Sub-procedure of `sns_deenumerate()`, deenumeration of a vector
 634:..\..\..\liblc3\src/sns.c ****  * idx, ls         Enumeration set
 635:..\..\..\liblc3\src/sns.c ****  * npulses         Number of pulses in the set
 636:..\..\..\liblc3\src/sns.c ****  * c, n            Table of pulses configuration, and length
 637:..\..\..\liblc3\src/sns.c ****  */
 638:..\..\..\liblc3\src/sns.c **** static void deenum_mvpq(int idx, bool ls, int npulses, int *c, int n)
 639:..\..\..\liblc3\src/sns.c **** {
 887              		.loc 1 639 0
 888              		.cfi_startproc
 889              		@ args = 4, pretend = 0, frame = 0
 890              		@ frame_needed = 0, uses_anonymous_args = 0
 891              	.LVL133:
 892 0000 F0B5     		push	{r4, r5, r6, r7, lr}
 893              		.cfi_def_cfa_offset 20
 894              		.cfi_offset 4, -20
 895              		.cfi_offset 5, -16
 896              		.cfi_offset 6, -12
 897              		.cfi_offset 7, -8
 898              		.cfi_offset 14, -4
 899 0002 8C46     		mov	ip, r1
 640:..\..\..\liblc3\src/sns.c ****     int i;
 641:..\..\..\liblc3\src/sns.c **** 
 642:..\..\..\liblc3\src/sns.c ****     /* --- Scan for coefficients --- */
 643:..\..\..\liblc3\src/sns.c **** 
 644:..\..\..\liblc3\src/sns.c ****     for (i = n-1; i >= 0 && idx; i--) {
 900              		.loc 1 644 0
 901 0004 0599     		ldr	r1, [sp, #20]
 902              	.LVL134:
 903 0006 4D1E     		subs	r5, r1, #1
 904              	.LVL135:
 905 0008 1FE0     		b	.L53
 906              	.LVL136:
 907              	.L54:
 908              	.LBB65:
 645:..\..\..\liblc3\src/sns.c **** 
 646:..\..\..\liblc3\src/sns.c ****         int ci = 0;
 647:..\..\..\liblc3\src/sns.c **** 
 648:..\..\..\liblc3\src/sns.c ****         for (ci = 0; idx < lc3_sns_mpvq_offsets[i][npulses - ci]; ci++);
 909              		.loc 1 648 0 discriminator 3
 910 000a 0136     		adds	r6, r6, #1
 911              	.LVL137:
 912 000c 00E0     		b	.L58
 913              	.LVL138:
 914              	.L64:
 915              	.LBE65:
 916 000e 0026     		movs	r6, #0
 917              	.L58:
 918              	.LVL139:
 919              	.LBB66:
 920              		.loc 1 648 0 is_stmt 0 discriminator 1
 921 0010 971B     		subs	r7, r2, r6
 922 0012 AC00     		lsls	r4, r5, #2
 923 0014 6419     		adds	r4, r4, r5
ARM GAS  C:\Users\rdn\AppData\Local\Temp\ccFEeGTH.s 			page 29


 924 0016 6400     		lsls	r4, r4, #1
 925 0018 6419     		adds	r4, r4, r5
 926 001a E419     		adds	r4, r4, r7
 927 001c A400     		lsls	r4, r4, #2
 928 001e 1749     		ldr	r1, .L67
 929 0020 6458     		ldr	r4, [r4, r1]
 930 0022 A042     		cmp	r0, r4
 931 0024 F1DB     		blt	.L54
 649:..\..\..\liblc3\src/sns.c ****         idx -= lc3_sns_mpvq_offsets[i][npulses - ci];
 932              		.loc 1 649 0 is_stmt 1
 933 0026 001B     		subs	r0, r0, r4
 934              	.LVL140:
 650:..\..\..\liblc3\src/sns.c **** 
 651:..\..\..\liblc3\src/sns.c ****         *(c++) = ls ? -ci : ci;
 935              		.loc 1 651 0
 936 0028 1A1D     		adds	r2, r3, #4
 937              	.LVL141:
 938 002a 6146     		mov	r1, ip
 939 002c 0029     		cmp	r1, #0
 940 002e 01D0     		beq	.L63
 941              		.loc 1 651 0 is_stmt 0 discriminator 1
 942 0030 7442     		rsbs	r4, r6, #0
 943 0032 00E0     		b	.L55
 944              	.L63:
 945              		.loc 1 651 0
 946 0034 3400     		movs	r4, r6
 947              	.L55:
 948              		.loc 1 651 0 discriminator 4
 949 0036 1C60     		str	r4, [r3]
 950              	.LVL142:
 652:..\..\..\liblc3\src/sns.c ****         npulses -= ci;
 653:..\..\..\liblc3\src/sns.c ****         if (ci > 0) {
 951              		.loc 1 653 0 is_stmt 1 discriminator 4
 952 0038 002E     		cmp	r6, #0
 953 003a 03DD     		ble	.L56
 654:..\..\..\liblc3\src/sns.c ****             ls = idx & 1;
 954              		.loc 1 654 0
 955 003c 0121     		movs	r1, #1
 956 003e 0140     		ands	r1, r0
 957 0040 8C46     		mov	ip, r1
 958              	.LVL143:
 655:..\..\..\liblc3\src/sns.c ****             idx >>= 1;
 959              		.loc 1 655 0
 960 0042 4010     		asrs	r0, r0, #1
 961              	.LVL144:
 962              	.L56:
 963              	.LBE66:
 644:..\..\..\liblc3\src/sns.c **** 
 964              		.loc 1 644 0 discriminator 2
 965 0044 013D     		subs	r5, r5, #1
 966              	.LVL145:
 967              	.LBB67:
 651:..\..\..\liblc3\src/sns.c ****         npulses -= ci;
 968              		.loc 1 651 0 discriminator 2
 969 0046 1300     		movs	r3, r2
 652:..\..\..\liblc3\src/sns.c ****         if (ci > 0) {
 970              		.loc 1 652 0 discriminator 2
ARM GAS  C:\Users\rdn\AppData\Local\Temp\ccFEeGTH.s 			page 30


 971 0048 3A00     		movs	r2, r7
 972              	.LVL146:
 973              	.L53:
 974              	.LBE67:
 644:..\..\..\liblc3\src/sns.c **** 
 975              		.loc 1 644 0 discriminator 1
 976 004a 002D     		cmp	r5, #0
 977 004c 01DB     		blt	.L57
 644:..\..\..\liblc3\src/sns.c **** 
 978              		.loc 1 644 0 is_stmt 0 discriminator 3
 979 004e 0028     		cmp	r0, #0
 980 0050 DDD1     		bne	.L64
 981              	.L57:
 982              	.LVL147:
 656:..\..\..\liblc3\src/sns.c ****         }
 657:..\..\..\liblc3\src/sns.c ****     }
 658:..\..\..\liblc3\src/sns.c **** 
 659:..\..\..\liblc3\src/sns.c ****     /* --- Set last significant --- */
 660:..\..\..\liblc3\src/sns.c **** 
 661:..\..\..\liblc3\src/sns.c ****     int ci = npulses;
 662:..\..\..\liblc3\src/sns.c **** 
 663:..\..\..\liblc3\src/sns.c ****     if (i-- >= 0)
 983              		.loc 1 663 0 is_stmt 1
 984 0052 681E     		subs	r0, r5, #1
 985              	.LVL148:
 986 0054 002D     		cmp	r5, #0
 987 0056 06DB     		blt	.L65
 664:..\..\..\liblc3\src/sns.c ****         *(c++) = ls ? -ci : ci;
 988              		.loc 1 664 0
 989 0058 1C1D     		adds	r4, r3, #4
 990              	.LVL149:
 991 005a 6146     		mov	r1, ip
 992 005c 0029     		cmp	r1, #0
 993 005e 00D0     		beq	.L60
 994              		.loc 1 664 0 is_stmt 0 discriminator 1
 995 0060 5242     		rsbs	r2, r2, #0
 996              	.LVL150:
 997              	.L60:
 998              		.loc 1 664 0 discriminator 4
 999 0062 1A60     		str	r2, [r3]
 1000 0064 05E0     		b	.L61
 1001              	.LVL151:
 1002              	.L65:
 1003 0066 1C00     		movs	r4, r3
 1004 0068 03E0     		b	.L61
 1005              	.LVL152:
 1006              	.L62:
 665:..\..\..\liblc3\src/sns.c **** 
 666:..\..\..\liblc3\src/sns.c ****     while (i-- >= 0)
 667:..\..\..\liblc3\src/sns.c ****         *(c++) = 0;
 1007              		.loc 1 667 0 is_stmt 1
 1008 006a 0022     		movs	r2, #0
 1009 006c 2260     		str	r2, [r4]
 666:..\..\..\liblc3\src/sns.c ****         *(c++) = 0;
 1010              		.loc 1 666 0
 1011 006e 1800     		movs	r0, r3
 1012              		.loc 1 667 0
ARM GAS  C:\Users\rdn\AppData\Local\Temp\ccFEeGTH.s 			page 31


 1013 0070 0434     		adds	r4, r4, #4
 1014              	.LVL153:
 1015              	.L61:
 666:..\..\..\liblc3\src/sns.c ****         *(c++) = 0;
 1016              		.loc 1 666 0
 1017 0072 431E     		subs	r3, r0, #1
 1018              	.LVL154:
 1019 0074 0028     		cmp	r0, #0
 1020 0076 F8DA     		bge	.L62
 668:..\..\..\liblc3\src/sns.c **** }
 1021              		.loc 1 668 0
 1022              		@ sp needed
 1023              	.LVL155:
 1024 0078 F0BD     		pop	{r4, r5, r6, r7, pc}
 1025              	.L68:
 1026 007a C046     		.align	2
 1027              	.L67:
 1028 007c 00000000 		.word	lc3_sns_mpvq_offsets
 1029              		.cfi_endproc
 1030              	.LFE29:
 1031              		.size	deenum_mvpq, .-deenum_mvpq
 1032              		.section	.text.enumerate,"ax",%progbits
 1033              		.align	2
 1034              		.code	16
 1035              		.thumb_func
 1036              		.type	enumerate, %function
 1037              	enumerate:
 1038              	.LFB30:
 669:..\..\..\liblc3\src/sns.c **** 
 670:..\..\..\liblc3\src/sns.c **** /**
 671:..\..\..\liblc3\src/sns.c ****  * SNS Enumeration of PVQ configuration
 672:..\..\..\liblc3\src/sns.c ****  * shape           Selected shape index
 673:..\..\..\liblc3\src/sns.c ****  * c               Selected pulse configuration
 674:..\..\..\liblc3\src/sns.c ****  * idx_a, ls_a     Return enumeration set A
 675:..\..\..\liblc3\src/sns.c ****  * idx_b, ls_b     Return enumeration set B (shape = 0)
 676:..\..\..\liblc3\src/sns.c ****  */
 677:..\..\..\liblc3\src/sns.c **** static void enumerate(int shape, const int *c,
 678:..\..\..\liblc3\src/sns.c ****     int *idx_a, bool *ls_a, int *idx_b, bool *ls_b)
 679:..\..\..\liblc3\src/sns.c **** {
 1039              		.loc 1 679 0
 1040              		.cfi_startproc
 1041              		@ args = 8, pretend = 0, frame = 0
 1042              		@ frame_needed = 0, uses_anonymous_args = 0
 1043              	.LVL156:
 1044 0000 70B5     		push	{r4, r5, r6, lr}
 1045              		.cfi_def_cfa_offset 16
 1046              		.cfi_offset 4, -16
 1047              		.cfi_offset 5, -12
 1048              		.cfi_offset 6, -8
 1049              		.cfi_offset 14, -4
 1050 0002 0500     		movs	r5, r0
 1051 0004 0C00     		movs	r4, r1
 680:..\..\..\liblc3\src/sns.c ****     enum_mvpq(c, shape < 2 ? 10 : 16, idx_a, ls_a);
 1052              		.loc 1 680 0
 1053 0006 0128     		cmp	r0, #1
 1054 0008 01DC     		bgt	.L72
 1055 000a 0A21     		movs	r1, #10
ARM GAS  C:\Users\rdn\AppData\Local\Temp\ccFEeGTH.s 			page 32


 1056              	.LVL157:
 1057 000c 00E0     		b	.L70
 1058              	.LVL158:
 1059              	.L72:
 1060 000e 1021     		movs	r1, #16
 1061              	.LVL159:
 1062              	.L70:
 1063              		.loc 1 680 0 is_stmt 0 discriminator 4
 1064 0010 2000     		movs	r0, r4
 1065              	.LVL160:
 1066 0012 FFF7FEFF 		bl	enum_mvpq
 1067              	.LVL161:
 681:..\..\..\liblc3\src/sns.c **** 
 682:..\..\..\liblc3\src/sns.c ****     if (shape == 0)
 1068              		.loc 1 682 0 is_stmt 1 discriminator 4
 1069 0016 002D     		cmp	r5, #0
 1070 0018 06D1     		bne	.L69
 683:..\..\..\liblc3\src/sns.c ****         enum_mvpq(c + 10, 6, idx_b, ls_b);
 1071              		.loc 1 683 0
 1072 001a 2000     		movs	r0, r4
 1073 001c 2830     		adds	r0, r0, #40
 1074 001e 059B     		ldr	r3, [sp, #20]
 1075 0020 049A     		ldr	r2, [sp, #16]
 1076 0022 0621     		movs	r1, #6
 1077 0024 FFF7FEFF 		bl	enum_mvpq
 1078              	.LVL162:
 1079              	.L69:
 684:..\..\..\liblc3\src/sns.c **** }
 1080              		.loc 1 684 0
 1081              		@ sp needed
 1082              	.LVL163:
 1083              	.LVL164:
 1084 0028 70BD     		pop	{r4, r5, r6, pc}
 1085              		.cfi_endproc
 1086              	.LFE30:
 1087              		.size	enumerate, .-enumerate
 1088              		.global	__aeabi_idivmod
 1089              		.global	__aeabi_fdiv
 1090 002a C046     		.section	.text.compute_scale_factors,"ax",%progbits
 1091              		.align	2
 1092              		.code	16
 1093              		.thumb_func
 1094              		.type	compute_scale_factors, %function
 1095              	compute_scale_factors:
 1096              	.LFB22:
 157:..\..\..\liblc3\src/sns.c ****     /* Pre-emphasis gain table :
 1097              		.loc 1 157 0
 1098              		.cfi_startproc
 1099              		@ args = 8, pretend = 0, frame = 280
 1100              		@ frame_needed = 0, uses_anonymous_args = 0
 1101              	.LVL165:
 1102 0000 F0B5     		push	{r4, r5, r6, r7, lr}
 1103              		.cfi_def_cfa_offset 20
 1104              		.cfi_offset 4, -20
 1105              		.cfi_offset 5, -16
 1106              		.cfi_offset 6, -12
 1107              		.cfi_offset 7, -8
ARM GAS  C:\Users\rdn\AppData\Local\Temp\ccFEeGTH.s 			page 33


 1108              		.cfi_offset 14, -4
 1109 0002 5F46     		mov	r7, fp
 1110 0004 5646     		mov	r6, r10
 1111 0006 4D46     		mov	r5, r9
 1112 0008 4446     		mov	r4, r8
 1113 000a F0B4     		push	{r4, r5, r6, r7}
 1114              		.cfi_def_cfa_offset 36
 1115              		.cfi_offset 8, -36
 1116              		.cfi_offset 9, -32
 1117              		.cfi_offset 10, -28
 1118              		.cfi_offset 11, -24
 1119 000c C7B0     		sub	sp, sp, #284
 1120              		.cfi_def_cfa_offset 320
 1121 000e 8346     		mov	fp, r0
 1122 0010 8946     		mov	r9, r1
 1123 0012 0492     		str	r2, [sp, #16]
 1124 0014 1C00     		movs	r4, r3
 1125 0016 50AB     		add	r3, sp, #320
 1126              	.LVL166:
 1127 0018 1B78     		ldrb	r3, [r3]
 1128              	.LVL167:
 1129 001a 0393     		str	r3, [sp, #12]
 1130 001c 519B     		ldr	r3, [sp, #324]
 1131 001e 9846     		mov	r8, r3
 288:..\..\..\liblc3\src/sns.c ****     int n4 = nb < 32 ? 32 % nb : 0;
 1132              		.loc 1 288 0
 1133 0020 C300     		lsls	r3, r0, #3
 1134 0022 1B1A     		subs	r3, r3, r0
 1135 0024 4B44     		add	r3, r3, r9
 1136 0026 9B00     		lsls	r3, r3, #2
 1137 0028 E94A     		ldr	r2, .L105
 1138              	.LVL168:
 1139 002a 9D58     		ldr	r5, [r3, r2]
 1140              	.LVL169:
 289:..\..\..\liblc3\src/sns.c ****     int n2 = nb < 32 ? nb - n4 : LC3_MAX_BANDS - nb;
 1141              		.loc 1 289 0
 1142 002c 1F2D     		cmp	r5, #31
 1143 002e 05DC     		bgt	.L100
 289:..\..\..\liblc3\src/sns.c ****     int n2 = nb < 32 ? nb - n4 : LC3_MAX_BANDS - nb;
 1144              		.loc 1 289 0 is_stmt 0 discriminator 1
 1145 0030 2900     		movs	r1, r5
 1146              	.LVL170:
 1147 0032 2020     		movs	r0, #32
 1148              	.LVL171:
 1149 0034 FFF7FEFF 		bl	__aeabi_idivmod
 1150              	.LVL172:
 1151 0038 0B00     		movs	r3, r1
 1152 003a 00E0     		b	.L74
 1153              	.LVL173:
 1154              	.L100:
 289:..\..\..\liblc3\src/sns.c ****     int n2 = nb < 32 ? nb - n4 : LC3_MAX_BANDS - nb;
 1155              		.loc 1 289 0
 1156 003c 0023     		movs	r3, #0
 1157              	.LVL174:
 1158              	.L74:
 290:..\..\..\liblc3\src/sns.c **** 
 1159              		.loc 1 290 0 is_stmt 1 discriminator 4
ARM GAS  C:\Users\rdn\AppData\Local\Temp\ccFEeGTH.s 			page 34


 1160 003e 1F2D     		cmp	r5, #31
 1161 0040 02DC     		bgt	.L75
 290:..\..\..\liblc3\src/sns.c **** 
 1162              		.loc 1 290 0 is_stmt 0 discriminator 1
 1163 0042 EA1A     		subs	r2, r5, r3
 1164 0044 9446     		mov	ip, r2
 1165 0046 02E0     		b	.L76
 1166              	.L75:
 290:..\..\..\liblc3\src/sns.c **** 
 1167              		.loc 1 290 0 discriminator 2
 1168 0048 4022     		movs	r2, #64
 1169 004a 521B     		subs	r2, r2, r5
 1170 004c 9446     		mov	ip, r2
 1171              	.L76:
 1172              	.LVL175:
 1173              	.LBB68:
 292:..\..\..\liblc3\src/sns.c ****         e[4*i4 + 0] = e[4*i4 + 1] =
 1174              		.loc 1 292 0 is_stmt 1 discriminator 4
 1175 004e 0022     		movs	r2, #0
 1176 0050 AA46     		mov	r10, r5
 1177 0052 0EE0     		b	.L77
 1178              	.LVL176:
 1179              	.L78:
 293:..\..\..\liblc3\src/sns.c ****         e[4*i4 + 2] = e[4*i4 + 3] = eb[i4];
 1180              		.loc 1 293 0 discriminator 3
 1181 0054 9100     		lsls	r1, r2, #2
 1182 0056 481C     		adds	r0, r1, #1
 294:..\..\..\liblc3\src/sns.c **** 
 1183              		.loc 1 294 0 discriminator 3
 1184 0058 8E1C     		adds	r6, r1, #2
 1185 005a CF1C     		adds	r7, r1, #3
 1186 005c 0959     		ldr	r1, [r1, r4]
 1187 005e BF00     		lsls	r7, r7, #2
 1188 0060 06AD     		add	r5, sp, #24
 1189 0062 7951     		str	r1, [r7, r5]
 1190 0064 B600     		lsls	r6, r6, #2
 1191 0066 7151     		str	r1, [r6, r5]
 293:..\..\..\liblc3\src/sns.c ****         e[4*i4 + 2] = e[4*i4 + 3] = eb[i4];
 1192              		.loc 1 293 0 discriminator 3
 1193 0068 8000     		lsls	r0, r0, #2
 1194 006a 4151     		str	r1, [r0, r5]
 1195 006c 1001     		lsls	r0, r2, #4
 1196 006e 4151     		str	r1, [r0, r5]
 292:..\..\..\liblc3\src/sns.c ****         e[4*i4 + 0] = e[4*i4 + 1] =
 1197              		.loc 1 292 0 discriminator 3
 1198 0070 0132     		adds	r2, r2, #1
 1199              	.LVL177:
 1200              	.L77:
 292:..\..\..\liblc3\src/sns.c ****         e[4*i4 + 0] = e[4*i4 + 1] =
 1201              		.loc 1 292 0 is_stmt 0 discriminator 1
 1202 0072 9A42     		cmp	r2, r3
 1203 0074 EEDB     		blt	.L78
 1204 0076 1800     		movs	r0, r3
 1205 0078 6746     		mov	r7, ip
 1206 007a 0AE0     		b	.L79
 1207              	.LVL178:
 1208              	.L80:
ARM GAS  C:\Users\rdn\AppData\Local\Temp\ccFEeGTH.s 			page 35


 1209              	.LBE68:
 1210              	.LBB69:
 297:..\..\..\liblc3\src/sns.c **** 
 1211              		.loc 1 297 0 is_stmt 1 discriminator 3
 1212 007c C118     		adds	r1, r0, r3
 1213 007e 4A00     		lsls	r2, r1, #1
 1214 0080 0132     		adds	r2, r2, #1
 1215 0082 8600     		lsls	r6, r0, #2
 1216 0084 3659     		ldr	r6, [r6, r4]
 1217 0086 9200     		lsls	r2, r2, #2
 1218 0088 06AD     		add	r5, sp, #24
 1219 008a 5651     		str	r6, [r2, r5]
 1220 008c C900     		lsls	r1, r1, #3
 1221 008e 4E51     		str	r6, [r1, r5]
 296:..\..\..\liblc3\src/sns.c ****         e[2*(n4+i2) + 0] = e[2*(n4+i2) + 1] = eb[i2];
 1222              		.loc 1 296 0 discriminator 3
 1223 0090 0130     		adds	r0, r0, #1
 1224              	.LVL179:
 1225              	.L79:
 296:..\..\..\liblc3\src/sns.c ****         e[2*(n4+i2) + 0] = e[2*(n4+i2) + 1] = eb[i2];
 1226              		.loc 1 296 0 is_stmt 0 discriminator 1
 1227 0092 DA19     		adds	r2, r3, r7
 1228 0094 9042     		cmp	r0, r2
 1229 0096 F1DB     		blt	.L80
 1230 0098 5546     		mov	r5, r10
 1231              	.LBE69:
 299:..\..\..\liblc3\src/sns.c **** 
 1232              		.loc 1 299 0 is_stmt 1
 1233 009a 1801     		lsls	r0, r3, #4
 1234              	.LVL180:
 1235 009c FA00     		lsls	r2, r7, #3
 1236 009e 8018     		adds	r0, r0, r2
 1237 00a0 06AA     		add	r2, sp, #24
 1238 00a2 9246     		mov	r10, r2
 1239              	.LVL181:
 1240 00a4 5044     		add	r0, r0, r10
 1241 00a6 D919     		adds	r1, r3, r7
 1242 00a8 8900     		lsls	r1, r1, #2
 1243 00aa 6118     		adds	r1, r4, r1
 1244 00ac EA1A     		subs	r2, r5, r3
 1245 00ae D21B     		subs	r2, r2, r7
 1246 00b0 9200     		lsls	r2, r2, #2
 1247 00b2 FFF7FEFF 		bl	memcpy
 1248              	.LVL182:
 303:..\..\..\liblc3\src/sns.c **** 
 1249              		.loc 1 303 0
 1250 00b6 4B46     		mov	r3, r9
 1251 00b8 9B00     		lsls	r3, r3, #2
 1252 00ba C64A     		ldr	r2, .L105+4
 1253 00bc 9C58     		ldr	r4, [r3, r2]
 1254              	.LVL183:
 305:..\..\..\liblc3\src/sns.c ****     float e_sum = 0;
 1255              		.loc 1 305 0
 1256 00be 069B     		ldr	r3, [sp, #24]
 1257              	.LVL184:
 1258 00c0 0093     		str	r3, [sp]
 1259              	.LBB70:
ARM GAS  C:\Users\rdn\AppData\Local\Temp\ccFEeGTH.s 			page 36


 308:..\..\..\liblc3\src/sns.c ****         e[i] = (e0 * 0.25f + e1 * 0.5f + (e2 = e[i+1]) * 0.25f) * ge[i];
 1260              		.loc 1 308 0
 1261 00c2 0026     		movs	r6, #0
 1262              	.LBE70:
 306:..\..\..\liblc3\src/sns.c **** 
 1263              		.loc 1 306 0
 1264 00c4 0022     		movs	r2, #0
 1265 00c6 0192     		str	r2, [sp, #4]
 1266 00c8 1D1C     		adds	r5, r3, #0
 1267 00ca 2700     		movs	r7, r4
 1268              	.LVL185:
 1269              	.LBB71:
 308:..\..\..\liblc3\src/sns.c ****         e[i] = (e0 * 0.25f + e1 * 0.5f + (e2 = e[i+1]) * 0.25f) * ge[i];
 1270              		.loc 1 308 0
 1271 00cc 75E0     		b	.L81
 1272              	.LVL186:
 1273              	.L82:
 309:..\..\..\liblc3\src/sns.c ****         e_sum += e[i++];
 1274              		.loc 1 309 0
 1275 00ce FA21     		movs	r1, #250
 1276 00d0 8905     		lsls	r1, r1, #22
 1277 00d2 281C     		adds	r0, r5, #0
 1278 00d4 FFF7FEFF 		bl	__aeabi_fmul
 1279              	.LVL187:
 1280 00d8 051C     		adds	r5, r0, #0
 1281              	.LVL188:
 1282 00da FC21     		movs	r1, #252
 1283 00dc 8905     		lsls	r1, r1, #22
 1284 00de 0098     		ldr	r0, [sp]
 1285 00e0 FFF7FEFF 		bl	__aeabi_fmul
 1286              	.LVL189:
 1287 00e4 011C     		adds	r1, r0, #0
 1288 00e6 281C     		adds	r0, r5, #0
 1289 00e8 FFF7FEFF 		bl	__aeabi_fadd
 1290              	.LVL190:
 1291 00ec 041C     		adds	r4, r0, #0
 1292 00ee 731C     		adds	r3, r6, #1
 1293 00f0 9B00     		lsls	r3, r3, #2
 1294 00f2 9A46     		mov	r10, r3
 1295 00f4 06AB     		add	r3, sp, #24
 1296 00f6 5246     		mov	r2, r10
 1297 00f8 D558     		ldr	r5, [r2, r3]
 1298              	.LVL191:
 1299 00fa FA21     		movs	r1, #250
 1300 00fc 8905     		lsls	r1, r1, #22
 1301 00fe 281C     		adds	r0, r5, #0
 1302 0100 FFF7FEFF 		bl	__aeabi_fmul
 1303              	.LVL192:
 1304 0104 0290     		str	r0, [sp, #8]
 1305 0106 011C     		adds	r1, r0, #0
 1306 0108 201C     		adds	r0, r4, #0
 1307 010a FFF7FEFF 		bl	__aeabi_fadd
 1308              	.LVL193:
 1309 010e B400     		lsls	r4, r6, #2
 1310 0110 E159     		ldr	r1, [r4, r7]
 1311 0112 FFF7FEFF 		bl	__aeabi_fmul
 1312              	.LVL194:
ARM GAS  C:\Users\rdn\AppData\Local\Temp\ccFEeGTH.s 			page 37


 1313 0116 011C     		adds	r1, r0, #0
 1314 0118 06AA     		add	r2, sp, #24
 1315 011a A050     		str	r0, [r4, r2]
 1316              	.LVL195:
 310:..\..\..\liblc3\src/sns.c **** 
 1317              		.loc 1 310 0
 1318 011c 0198     		ldr	r0, [sp, #4]
 1319 011e FFF7FEFF 		bl	__aeabi_fadd
 1320              	.LVL196:
 1321 0122 0190     		str	r0, [sp, #4]
 1322              	.LVL197:
 312:..\..\..\liblc3\src/sns.c ****         e_sum += e[i++];
 1323              		.loc 1 312 0
 1324 0124 FA21     		movs	r1, #250
 1325 0126 8905     		lsls	r1, r1, #22
 1326 0128 0098     		ldr	r0, [sp]
 1327              	.LVL198:
 1328 012a FFF7FEFF 		bl	__aeabi_fmul
 1329              	.LVL199:
 1330 012e 041C     		adds	r4, r0, #0
 1331 0130 FC21     		movs	r1, #252
 1332 0132 8905     		lsls	r1, r1, #22
 1333 0134 281C     		adds	r0, r5, #0
 1334 0136 FFF7FEFF 		bl	__aeabi_fmul
 1335              	.LVL200:
 1336 013a 011C     		adds	r1, r0, #0
 1337 013c 201C     		adds	r0, r4, #0
 1338 013e FFF7FEFF 		bl	__aeabi_fadd
 1339              	.LVL201:
 1340 0142 0090     		str	r0, [sp]
 1341              	.LVL202:
 1342 0144 B31C     		adds	r3, r6, #2
 1343 0146 9C00     		lsls	r4, r3, #2
 1344 0148 06AA     		add	r2, sp, #24
 1345 014a A558     		ldr	r5, [r4, r2]
 1346              	.LVL203:
 1347 014c FA21     		movs	r1, #250
 1348 014e 8905     		lsls	r1, r1, #22
 1349 0150 281C     		adds	r0, r5, #0
 1350 0152 FFF7FEFF 		bl	__aeabi_fmul
 1351              	.LVL204:
 1352 0156 011C     		adds	r1, r0, #0
 1353 0158 0098     		ldr	r0, [sp]
 1354 015a FFF7FEFF 		bl	__aeabi_fadd
 1355              	.LVL205:
 1356 015e 5246     		mov	r2, r10
 1357 0160 D159     		ldr	r1, [r2, r7]
 1358 0162 FFF7FEFF 		bl	__aeabi_fmul
 1359              	.LVL206:
 1360 0166 011C     		adds	r1, r0, #0
 1361 0168 06AA     		add	r2, sp, #24
 1362 016a 5346     		mov	r3, r10
 1363 016c 9850     		str	r0, [r3, r2]
 1364              	.LVL207:
 313:..\..\..\liblc3\src/sns.c **** 
 1365              		.loc 1 313 0
 1366 016e 0198     		ldr	r0, [sp, #4]
ARM GAS  C:\Users\rdn\AppData\Local\Temp\ccFEeGTH.s 			page 38


 1367 0170 FFF7FEFF 		bl	__aeabi_fadd
 1368              	.LVL208:
 1369 0174 0190     		str	r0, [sp, #4]
 1370              	.LVL209:
 315:..\..\..\liblc3\src/sns.c ****         e_sum += e[i++];
 1371              		.loc 1 315 0
 1372 0176 FC21     		movs	r1, #252
 1373 0178 8905     		lsls	r1, r1, #22
 1374 017a 281C     		adds	r0, r5, #0
 1375              	.LVL210:
 1376 017c FFF7FEFF 		bl	__aeabi_fmul
 1377              	.LVL211:
 1378 0180 011C     		adds	r1, r0, #0
 1379 0182 0298     		ldr	r0, [sp, #8]
 1380 0184 FFF7FEFF 		bl	__aeabi_fadd
 1381              	.LVL212:
 1382 0188 0290     		str	r0, [sp, #8]
 1383 018a 0336     		adds	r6, r6, #3
 1384              	.LVL213:
 1385 018c B300     		lsls	r3, r6, #2
 1386 018e 06AA     		add	r2, sp, #24
 1387 0190 9B58     		ldr	r3, [r3, r2]
 1388 0192 0093     		str	r3, [sp]
 1389              	.LVL214:
 1390 0194 FA21     		movs	r1, #250
 1391 0196 8905     		lsls	r1, r1, #22
 1392 0198 181C     		adds	r0, r3, #0
 1393 019a FFF7FEFF 		bl	__aeabi_fmul
 1394              	.LVL215:
 1395 019e 011C     		adds	r1, r0, #0
 1396 01a0 0298     		ldr	r0, [sp, #8]
 1397 01a2 FFF7FEFF 		bl	__aeabi_fadd
 1398              	.LVL216:
 1399 01a6 E159     		ldr	r1, [r4, r7]
 1400 01a8 FFF7FEFF 		bl	__aeabi_fmul
 1401              	.LVL217:
 1402 01ac 011C     		adds	r1, r0, #0
 1403 01ae 06AB     		add	r3, sp, #24
 1404 01b0 E050     		str	r0, [r4, r3]
 1405              	.LVL218:
 316:..\..\..\liblc3\src/sns.c ****     }
 1406              		.loc 1 316 0
 1407 01b2 0198     		ldr	r0, [sp, #4]
 1408 01b4 FFF7FEFF 		bl	__aeabi_fadd
 1409              	.LVL219:
 1410 01b8 0190     		str	r0, [sp, #4]
 1411              	.LVL220:
 1412              	.L81:
 308:..\..\..\liblc3\src/sns.c ****         e[i] = (e0 * 0.25f + e1 * 0.5f + (e2 = e[i+1]) * 0.25f) * ge[i];
 1413              		.loc 1 308 0 discriminator 1
 1414 01ba 3E2E     		cmp	r6, #62
 1415 01bc 87DD     		ble	.L82
 1416 01be 281C     		adds	r0, r5, #0
 1417              	.LBE71:
 319:..\..\..\liblc3\src/sns.c ****     e_sum += e[LC3_MAX_BANDS-1];
 1418              		.loc 1 319 0
 1419 01c0 FA21     		movs	r1, #250
ARM GAS  C:\Users\rdn\AppData\Local\Temp\ccFEeGTH.s 			page 39


 1420 01c2 8905     		lsls	r1, r1, #22
 1421 01c4 FFF7FEFF 		bl	__aeabi_fmul
 1422              	.LVL221:
 1423 01c8 051C     		adds	r5, r0, #0
 1424              	.LVL222:
 1425 01ca FD21     		movs	r1, #253
 1426 01cc 8905     		lsls	r1, r1, #22
 1427 01ce 0098     		ldr	r0, [sp]
 1428 01d0 FFF7FEFF 		bl	__aeabi_fmul
 1429              	.LVL223:
 1430 01d4 011C     		adds	r1, r0, #0
 1431 01d6 281C     		adds	r0, r5, #0
 1432 01d8 FFF7FEFF 		bl	__aeabi_fadd
 1433              	.LVL224:
 1434 01dc FC25     		movs	r5, #252
 1435 01de 7959     		ldr	r1, [r7, r5]
 1436 01e0 FFF7FEFF 		bl	__aeabi_fmul
 1437              	.LVL225:
 1438 01e4 011C     		adds	r1, r0, #0
 1439 01e6 06AB     		add	r3, sp, #24
 1440 01e8 5851     		str	r0, [r3, r5]
 320:..\..\..\liblc3\src/sns.c **** 
 1441              		.loc 1 320 0
 1442 01ea 0198     		ldr	r0, [sp, #4]
 1443 01ec FFF7FEFF 		bl	__aeabi_fadd
 1444              	.LVL226:
 322:..\..\..\liblc3\src/sns.c **** 
 1445              		.loc 1 322 0
 1446 01f0 7949     		ldr	r1, .L105+8
 1447 01f2 FFF7FEFF 		bl	__aeabi_fmul
 1448              	.LVL227:
 1449 01f6 BE21     		movs	r1, #190
 1450 01f8 8905     		lsls	r1, r1, #22
 1451 01fa FFF7FEFF 		bl	fmaxf
 1452              	.LVL228:
 1453 01fe 0190     		str	r0, [sp, #4]
 1454              	.LVL229:
 1455              	.LBB72:
 324:..\..\..\liblc3\src/sns.c ****         e[i] = lc3_log2f(fmaxf(e[i], noise_floor)) * 0.5f;
 1456              		.loc 1 324 0
 1457 0200 0027     		movs	r7, #0
 1458              	.LVL230:
 1459 0202 3BE0     		b	.L83
 1460              	.LVL231:
 1461              	.L84:
 325:..\..\..\liblc3\src/sns.c **** 
 1462              		.loc 1 325 0 discriminator 3
 1463 0204 BE00     		lsls	r6, r7, #2
 1464 0206 06AB     		add	r3, sp, #24
 1465 0208 F358     		ldr	r3, [r6, r3]
 1466 020a 0093     		str	r3, [sp]
 1467 020c 0199     		ldr	r1, [sp, #4]
 1468 020e 181C     		adds	r0, r3, #0
 1469 0210 FFF7FEFF 		bl	fmaxf
 1470              	.LVL232:
 1471              	.LBB73:
 1472              	.LBB74:
ARM GAS  C:\Users\rdn\AppData\Local\Temp\ccFEeGTH.s 			page 40


 1473              	.LBB75:
 1474              	.LBB76:
 1475              		.file 2 "..\\..\\..\\liblc3\\src\\fastmath.h"
   1:..\..\..\liblc3\src/fastmath.h **** /******************************************************************************
   2:..\..\..\liblc3\src/fastmath.h ****  *
   3:..\..\..\liblc3\src/fastmath.h ****  *  Copyright 2022 Google LLC
   4:..\..\..\liblc3\src/fastmath.h ****  *
   5:..\..\..\liblc3\src/fastmath.h ****  *  Licensed under the Apache License, Version 2.0 (the "License");
   6:..\..\..\liblc3\src/fastmath.h ****  *  you may not use this file except in compliance with the License.
   7:..\..\..\liblc3\src/fastmath.h ****  *  You may obtain a copy of the License at:
   8:..\..\..\liblc3\src/fastmath.h ****  *
   9:..\..\..\liblc3\src/fastmath.h ****  *  http://www.apache.org/licenses/LICENSE-2.0
  10:..\..\..\liblc3\src/fastmath.h ****  *
  11:..\..\..\liblc3\src/fastmath.h ****  *  Unless required by applicable law or agreed to in writing, software
  12:..\..\..\liblc3\src/fastmath.h ****  *  distributed under the License is distributed on an "AS IS" BASIS,
  13:..\..\..\liblc3\src/fastmath.h ****  *  WITHOUT WARRANTIES OR CONDITIONS OF ANY KIND, either express or implied.
  14:..\..\..\liblc3\src/fastmath.h ****  *  See the License for the specific language governing permissions and
  15:..\..\..\liblc3\src/fastmath.h ****  *  limitations under the License.
  16:..\..\..\liblc3\src/fastmath.h ****  *
  17:..\..\..\liblc3\src/fastmath.h ****  ******************************************************************************/
  18:..\..\..\liblc3\src/fastmath.h **** 
  19:..\..\..\liblc3\src/fastmath.h **** #ifndef __LC3_FASTMATH_H
  20:..\..\..\liblc3\src/fastmath.h **** #define __LC3_FASTMATH_H
  21:..\..\..\liblc3\src/fastmath.h **** 
  22:..\..\..\liblc3\src/fastmath.h **** #include <stdint.h>
  23:..\..\..\liblc3\src/fastmath.h **** #include <math.h>
  24:..\..\..\liblc3\src/fastmath.h **** 
  25:..\..\..\liblc3\src/fastmath.h **** 
  26:..\..\..\liblc3\src/fastmath.h **** /**
  27:..\..\..\liblc3\src/fastmath.h ****  * IEEE 754 Floating point representation
  28:..\..\..\liblc3\src/fastmath.h ****  */
  29:..\..\..\liblc3\src/fastmath.h **** 
  30:..\..\..\liblc3\src/fastmath.h **** #define LC3_IEEE754_SIGN_SHL   (31)
  31:..\..\..\liblc3\src/fastmath.h **** #define LC3_IEEE754_SIGN_MASK  (1 << LC3_IEEE754_SIGN_SHL)
  32:..\..\..\liblc3\src/fastmath.h **** 
  33:..\..\..\liblc3\src/fastmath.h **** #define LC3_IEEE754_EXP_SHL    (23)
  34:..\..\..\liblc3\src/fastmath.h **** #define LC3_IEEE754_EXP_MASK   (0xff << LC3_IEEE754_EXP_SHL)
  35:..\..\..\liblc3\src/fastmath.h **** #define LC3_IEEE754_EXP_BIAS   (127)
  36:..\..\..\liblc3\src/fastmath.h **** 
  37:..\..\..\liblc3\src/fastmath.h **** 
  38:..\..\..\liblc3\src/fastmath.h **** /**
  39:..\..\..\liblc3\src/fastmath.h ****  * Fast multiply floating-point number by integral power of 2
  40:..\..\..\liblc3\src/fastmath.h ****  * x               Operand, finite number
  41:..\..\..\liblc3\src/fastmath.h ****  * exp             Exponent such that 2^x is finite
  42:..\..\..\liblc3\src/fastmath.h ****  * return          2^exp
  43:..\..\..\liblc3\src/fastmath.h ****  */
  44:..\..\..\liblc3\src/fastmath.h **** static inline float lc3_ldexpf(float _x, int exp) {
  45:..\..\..\liblc3\src/fastmath.h ****     union { float f; int32_t s; } x = { .f = _x };
  46:..\..\..\liblc3\src/fastmath.h **** 
  47:..\..\..\liblc3\src/fastmath.h ****     if (x.s & LC3_IEEE754_EXP_MASK)
  48:..\..\..\liblc3\src/fastmath.h ****         x.s += exp << LC3_IEEE754_EXP_SHL;
  49:..\..\..\liblc3\src/fastmath.h **** 
  50:..\..\..\liblc3\src/fastmath.h ****     return x.f;
  51:..\..\..\liblc3\src/fastmath.h **** }
  52:..\..\..\liblc3\src/fastmath.h **** 
  53:..\..\..\liblc3\src/fastmath.h **** /**
  54:..\..\..\liblc3\src/fastmath.h ****  * Fast convert floating-point number to fractional and integral components
ARM GAS  C:\Users\rdn\AppData\Local\Temp\ccFEeGTH.s 			page 41


  55:..\..\..\liblc3\src/fastmath.h ****  * x               Operand, finite number
  56:..\..\..\liblc3\src/fastmath.h ****  * exp             Return the exponent part
  57:..\..\..\liblc3\src/fastmath.h ****  * return          The normalized fraction in [0.5:1[
  58:..\..\..\liblc3\src/fastmath.h ****  */
  59:..\..\..\liblc3\src/fastmath.h **** static inline float lc3_frexpf(float _x, int *exp) {
  60:..\..\..\liblc3\src/fastmath.h ****     union { float f; uint32_t u; } x = { .f = _x };
  61:..\..\..\liblc3\src/fastmath.h **** 
  62:..\..\..\liblc3\src/fastmath.h ****     int e = (x.u & LC3_IEEE754_EXP_MASK) >> LC3_IEEE754_EXP_SHL;
 1476              		.loc 2 62 0 discriminator 3
 1477 0214 C30D     		lsrs	r3, r0, #23
 1478 0216 FF25     		movs	r5, #255
 1479 0218 1D40     		ands	r5, r3
 1480              	.LVL233:
  63:..\..\..\liblc3\src/fastmath.h ****     *exp = e - (LC3_IEEE754_EXP_BIAS - 1);
 1481              		.loc 2 63 0 discriminator 3
 1482 021a 7E3D     		subs	r5, r5, #126
 1483              	.LVL234:
  64:..\..\..\liblc3\src/fastmath.h **** 
  65:..\..\..\liblc3\src/fastmath.h ****     x.u = (x.u & ~LC3_IEEE754_EXP_MASK) |
 1484              		.loc 2 65 0 discriminator 3
 1485 021c 6F4C     		ldr	r4, .L105+12
 1486 021e 2040     		ands	r0, r4
 1487              	.LVL235:
 1488 0220 FC24     		movs	r4, #252
 1489 0222 A405     		lsls	r4, r4, #22
 1490 0224 0443     		orrs	r4, r0
 1491              	.LVL236:
 1492              	.LBE76:
 1493              	.LBE75:
  66:..\..\..\liblc3\src/fastmath.h ****         ((LC3_IEEE754_EXP_BIAS - 1) << LC3_IEEE754_EXP_SHL);
  67:..\..\..\liblc3\src/fastmath.h **** 
  68:..\..\..\liblc3\src/fastmath.h ****     return x.f;
  69:..\..\..\liblc3\src/fastmath.h **** }
  70:..\..\..\liblc3\src/fastmath.h **** 
  71:..\..\..\liblc3\src/fastmath.h **** /**
  72:..\..\..\liblc3\src/fastmath.h ****  * Fast 2^n approximation
  73:..\..\..\liblc3\src/fastmath.h ****  * x               Operand, range -100 to 100
  74:..\..\..\liblc3\src/fastmath.h ****  * return          2^x approximation (max relative error ~ 4e-7)
  75:..\..\..\liblc3\src/fastmath.h ****  */
  76:..\..\..\liblc3\src/fastmath.h **** static inline float lc3_exp2f(float x)
  77:..\..\..\liblc3\src/fastmath.h **** {
  78:..\..\..\liblc3\src/fastmath.h ****     /* --- 2^(i/8) for i from 0 to 7 --- */
  79:..\..\..\liblc3\src/fastmath.h **** 
  80:..\..\..\liblc3\src/fastmath.h ****     static const float e[] = {
  81:..\..\..\liblc3\src/fastmath.h ****         1.00000000e+00, 1.09050773e+00, 1.18920712e+00, 1.29683955e+00,
  82:..\..\..\liblc3\src/fastmath.h ****         1.41421356e+00, 1.54221083e+00, 1.68179283e+00, 1.83400809e+00 };
  83:..\..\..\liblc3\src/fastmath.h **** 
  84:..\..\..\liblc3\src/fastmath.h ****     /* --- Polynomial approx in range 0 to 1/8 --- */
  85:..\..\..\liblc3\src/fastmath.h **** 
  86:..\..\..\liblc3\src/fastmath.h ****     static const float p[] = {
  87:..\..\..\liblc3\src/fastmath.h ****         1.00448128e-02, 5.54563260e-02, 2.40228756e-01, 6.93147140e-01 };
  88:..\..\..\liblc3\src/fastmath.h **** 
  89:..\..\..\liblc3\src/fastmath.h ****     /* --- Split the operand ---
  90:..\..\..\liblc3\src/fastmath.h ****      *
  91:..\..\..\liblc3\src/fastmath.h ****      * Such as x = k/8 + y, with k an integer, and |y| < 0.5/8
  92:..\..\..\liblc3\src/fastmath.h ****      *
  93:..\..\..\liblc3\src/fastmath.h ****      * Note that `fast-math` compiler option leads to rounding error,
ARM GAS  C:\Users\rdn\AppData\Local\Temp\ccFEeGTH.s 			page 42


  94:..\..\..\liblc3\src/fastmath.h ****      * disable optimisation with `volatile`. */
  95:..\..\..\liblc3\src/fastmath.h **** 
  96:..\..\..\liblc3\src/fastmath.h ****     volatile union { float f; int32_t s; } v;
  97:..\..\..\liblc3\src/fastmath.h **** 
  98:..\..\..\liblc3\src/fastmath.h ****     v.f = x + 0x1.8p20f;
  99:..\..\..\liblc3\src/fastmath.h ****     int k = v.s;
 100:..\..\..\liblc3\src/fastmath.h ****     x -= v.f - 0x1.8p20f;
 101:..\..\..\liblc3\src/fastmath.h **** 
 102:..\..\..\liblc3\src/fastmath.h ****     /* --- Compute 2^x, with |x| < 1 ---
 103:..\..\..\liblc3\src/fastmath.h ****      * Perform polynomial approximation in range -0.5/8 to 0.5/8,
 104:..\..\..\liblc3\src/fastmath.h ****      * and muplity by precomputed value of 2^(i/8), i in [0:7] */
 105:..\..\..\liblc3\src/fastmath.h **** 
 106:..\..\..\liblc3\src/fastmath.h ****     union { float f; int32_t s; } y;
 107:..\..\..\liblc3\src/fastmath.h **** 
 108:..\..\..\liblc3\src/fastmath.h ****     y.f = (      p[0]) * x;
 109:..\..\..\liblc3\src/fastmath.h ****     y.f = (y.f + p[1]) * x;
 110:..\..\..\liblc3\src/fastmath.h ****     y.f = (y.f + p[2]) * x;
 111:..\..\..\liblc3\src/fastmath.h ****     y.f = (y.f + p[3]) * x;
 112:..\..\..\liblc3\src/fastmath.h ****     y.f = (y.f +  1.f) * e[k & 7];
 113:..\..\..\liblc3\src/fastmath.h **** 
 114:..\..\..\liblc3\src/fastmath.h ****     /* --- Add the exponent --- */
 115:..\..\..\liblc3\src/fastmath.h **** 
 116:..\..\..\liblc3\src/fastmath.h ****     y.s += (k >> 3) << LC3_IEEE754_EXP_SHL;
 117:..\..\..\liblc3\src/fastmath.h **** 
 118:..\..\..\liblc3\src/fastmath.h ****     return y.f;
 119:..\..\..\liblc3\src/fastmath.h **** }
 120:..\..\..\liblc3\src/fastmath.h **** 
 121:..\..\..\liblc3\src/fastmath.h **** /**
 122:..\..\..\liblc3\src/fastmath.h ****  * Fast log2(x) approximation
 123:..\..\..\liblc3\src/fastmath.h ****  * x               Operand, greater than 0
 124:..\..\..\liblc3\src/fastmath.h ****  * return          log2(x) approximation (max absolute error ~ 1e-4)
 125:..\..\..\liblc3\src/fastmath.h ****  */
 126:..\..\..\liblc3\src/fastmath.h **** static inline float lc3_log2f(float x)
 127:..\..\..\liblc3\src/fastmath.h **** {
 128:..\..\..\liblc3\src/fastmath.h ****     float y;
 129:..\..\..\liblc3\src/fastmath.h ****     int e;
 130:..\..\..\liblc3\src/fastmath.h **** 
 131:..\..\..\liblc3\src/fastmath.h ****     /* --- Polynomial approx in range 0.5 to 1 --- */
 132:..\..\..\liblc3\src/fastmath.h **** 
 133:..\..\..\liblc3\src/fastmath.h ****     static const float c[] = {
 134:..\..\..\liblc3\src/fastmath.h ****         -1.29479677, 5.11769018, -8.42295281, 8.10557963, -3.50567360 };
 135:..\..\..\liblc3\src/fastmath.h **** 
 136:..\..\..\liblc3\src/fastmath.h ****     x = lc3_frexpf(x, &e);
 137:..\..\..\liblc3\src/fastmath.h **** 
 138:..\..\..\liblc3\src/fastmath.h ****     y = (    c[0]) * x;
 1494              		.loc 2 138 0 discriminator 3
 1495 0226 6E49     		ldr	r1, .L105+16
 1496 0228 201C     		adds	r0, r4, #0
 1497 022a FFF7FEFF 		bl	__aeabi_fmul
 1498              	.LVL237:
 139:..\..\..\liblc3\src/fastmath.h ****     y = (y + c[1]) * x;
 1499              		.loc 2 139 0 discriminator 3
 1500 022e 6D49     		ldr	r1, .L105+20
 1501 0230 FFF7FEFF 		bl	__aeabi_fadd
 1502              	.LVL238:
 1503 0234 011C     		adds	r1, r0, #0
 1504 0236 201C     		adds	r0, r4, #0
ARM GAS  C:\Users\rdn\AppData\Local\Temp\ccFEeGTH.s 			page 43


 1505 0238 FFF7FEFF 		bl	__aeabi_fmul
 1506              	.LVL239:
 140:..\..\..\liblc3\src/fastmath.h ****     y = (y + c[2]) * x;
 1507              		.loc 2 140 0 discriminator 3
 1508 023c 6A49     		ldr	r1, .L105+24
 1509 023e FFF7FEFF 		bl	__aeabi_fsub
 1510              	.LVL240:
 1511 0242 011C     		adds	r1, r0, #0
 1512 0244 201C     		adds	r0, r4, #0
 1513 0246 FFF7FEFF 		bl	__aeabi_fmul
 1514              	.LVL241:
 141:..\..\..\liblc3\src/fastmath.h ****     y = (y + c[3]) * x;
 1515              		.loc 2 141 0 discriminator 3
 1516 024a 6849     		ldr	r1, .L105+28
 1517 024c FFF7FEFF 		bl	__aeabi_fadd
 1518              	.LVL242:
 1519 0250 011C     		adds	r1, r0, #0
 1520 0252 201C     		adds	r0, r4, #0
 1521 0254 FFF7FEFF 		bl	__aeabi_fmul
 1522              	.LVL243:
 142:..\..\..\liblc3\src/fastmath.h ****     y = (y + c[4]);
 1523              		.loc 2 142 0 discriminator 3
 1524 0258 6549     		ldr	r1, .L105+32
 1525 025a FFF7FEFF 		bl	__aeabi_fsub
 1526              	.LVL244:
 1527 025e 041C     		adds	r4, r0, #0
 1528              	.LVL245:
 143:..\..\..\liblc3\src/fastmath.h **** 
 144:..\..\..\liblc3\src/fastmath.h ****     /* --- Add log2f(2^e) and return --- */
 145:..\..\..\liblc3\src/fastmath.h **** 
 146:..\..\..\liblc3\src/fastmath.h ****     return e + y;
 1529              		.loc 2 146 0 discriminator 3
 1530 0260 2800     		movs	r0, r5
 1531              	.LVL246:
 1532 0262 FFF7FEFF 		bl	__aeabi_i2f
 1533              	.LVL247:
 1534 0266 011C     		adds	r1, r0, #0
 1535 0268 201C     		adds	r0, r4, #0
 1536 026a FFF7FEFF 		bl	__aeabi_fadd
 1537              	.LVL248:
 1538              	.LBE74:
 1539              	.LBE73:
 325:..\..\..\liblc3\src/sns.c **** 
 1540              		.loc 1 325 0 discriminator 3
 1541 026e FC21     		movs	r1, #252
 1542 0270 8905     		lsls	r1, r1, #22
 1543 0272 FFF7FEFF 		bl	__aeabi_fmul
 1544              	.LVL249:
 1545 0276 06AB     		add	r3, sp, #24
 1546 0278 F050     		str	r0, [r6, r3]
 324:..\..\..\liblc3\src/sns.c ****         e[i] = lc3_log2f(fmaxf(e[i], noise_floor)) * 0.5f;
 1547              		.loc 1 324 0 discriminator 3
 1548 027a 0137     		adds	r7, r7, #1
 1549              	.LVL250:
 1550              	.L83:
 324:..\..\..\liblc3\src/sns.c ****         e[i] = lc3_log2f(fmaxf(e[i], noise_floor)) * 0.5f;
 1551              		.loc 1 324 0 is_stmt 0 discriminator 1
ARM GAS  C:\Users\rdn\AppData\Local\Temp\ccFEeGTH.s 			page 44


 1552 027c 3F2F     		cmp	r7, #63
 1553 027e C1DD     		ble	.L84
 1554              	.LBE72:
 331:..\..\..\liblc3\src/sns.c ****              (e[0] + e[3]) * 2.f/12 +
 1555              		.loc 1 331 0 is_stmt 1
 1556 0280 069C     		ldr	r4, [sp, #24]
 1557 0282 0A9B     		ldr	r3, [sp, #40]
 1558 0284 0093     		str	r3, [sp]
 1559 0286 191C     		adds	r1, r3, #0
 1560 0288 201C     		adds	r0, r4, #0
 1561 028a FFF7FEFF 		bl	__aeabi_fadd
 1562              	.LVL251:
 1563 028e 5949     		ldr	r1, .L105+36
 1564 0290 FFF7FEFF 		bl	__aeabi_fdiv
 1565              	.LVL252:
 1566 0294 051C     		adds	r5, r0, #0
 332:..\..\..\liblc3\src/sns.c ****              (e[1] + e[2]) * 3.f/12  ;
 1567              		.loc 1 332 0
 1568 0296 099B     		ldr	r3, [sp, #36]
 1569 0298 0093     		str	r3, [sp]
 1570 029a 191C     		adds	r1, r3, #0
 1571 029c 201C     		adds	r0, r4, #0
 1572 029e FFF7FEFF 		bl	__aeabi_fadd
 1573              	.LVL253:
 1574 02a2 011C     		adds	r1, r0, #0
 1575 02a4 FFF7FEFF 		bl	__aeabi_fadd
 1576              	.LVL254:
 1577 02a8 5249     		ldr	r1, .L105+36
 1578 02aa FFF7FEFF 		bl	__aeabi_fdiv
 1579              	.LVL255:
 1580 02ae 011C     		adds	r1, r0, #0
 331:..\..\..\liblc3\src/sns.c ****              (e[0] + e[3]) * 2.f/12 +
 1581              		.loc 1 331 0
 1582 02b0 281C     		adds	r0, r5, #0
 1583 02b2 FFF7FEFF 		bl	__aeabi_fadd
 1584              	.LVL256:
 1585 02b6 041C     		adds	r4, r0, #0
 333:..\..\..\liblc3\src/sns.c ****     scf_sum = scf[0];
 1586              		.loc 1 333 0
 1587 02b8 0798     		ldr	r0, [sp, #28]
 1588 02ba 0899     		ldr	r1, [sp, #32]
 1589 02bc FFF7FEFF 		bl	__aeabi_fadd
 1590              	.LVL257:
 1591 02c0 4D49     		ldr	r1, .L105+40
 1592 02c2 FFF7FEFF 		bl	__aeabi_fmul
 1593              	.LVL258:
 1594 02c6 4B49     		ldr	r1, .L105+36
 1595 02c8 FFF7FEFF 		bl	__aeabi_fdiv
 1596              	.LVL259:
 1597 02cc 011C     		adds	r1, r0, #0
 332:..\..\..\liblc3\src/sns.c ****              (e[1] + e[2]) * 3.f/12  ;
 1598              		.loc 1 332 0
 1599 02ce 201C     		adds	r0, r4, #0
 1600 02d0 FFF7FEFF 		bl	__aeabi_fadd
 1601              	.LVL260:
 1602 02d4 0090     		str	r0, [sp]
 331:..\..\..\liblc3\src/sns.c ****              (e[0] + e[3]) * 2.f/12 +
ARM GAS  C:\Users\rdn\AppData\Local\Temp\ccFEeGTH.s 			page 45


 1603              		.loc 1 331 0
 1604 02d6 4246     		mov	r2, r8
 1605 02d8 1060     		str	r0, [r2]
 1606              	.LVL261:
 1607              	.LBB77:
 336:..\..\..\liblc3\src/sns.c ****         scf[i] = (e[4*i-1] + e[4*i+4]) * 1.f/12 +
 1608              		.loc 1 336 0
 1609 02da 0127     		movs	r7, #1
 1610              	.LVL262:
 1611 02dc 4546     		mov	r5, r8
 1612 02de 3AE0     		b	.L85
 1613              	.LVL263:
 1614              	.L86:
 337:..\..\..\liblc3\src/sns.c ****                  (e[4*i  ] + e[4*i+3]) * 2.f/12 +
 1615              		.loc 1 337 0 discriminator 3
 1616 02e0 BC00     		lsls	r4, r7, #2
 1617 02e2 2E19     		adds	r6, r5, r4
 1618 02e4 631E     		subs	r3, r4, #1
 1619 02e6 9B00     		lsls	r3, r3, #2
 1620 02e8 06AA     		add	r2, sp, #24
 1621 02ea 9858     		ldr	r0, [r3, r2]
 1622 02ec 0137     		adds	r7, r7, #1
 1623              	.LVL264:
 1624 02ee 3B01     		lsls	r3, r7, #4
 1625 02f0 9958     		ldr	r1, [r3, r2]
 1626 02f2 FFF7FEFF 		bl	__aeabi_fadd
 1627              	.LVL265:
 1628 02f6 3F49     		ldr	r1, .L105+36
 1629 02f8 FFF7FEFF 		bl	__aeabi_fdiv
 1630              	.LVL266:
 1631 02fc 0190     		str	r0, [sp, #4]
 338:..\..\..\liblc3\src/sns.c ****                  (e[4*i+1] + e[4*i+2]) * 3.f/12  ;
 1632              		.loc 1 338 0 discriminator 3
 1633 02fe A300     		lsls	r3, r4, #2
 1634 0300 06AA     		add	r2, sp, #24
 1635 0302 9858     		ldr	r0, [r3, r2]
 1636 0304 E31C     		adds	r3, r4, #3
 1637 0306 9B00     		lsls	r3, r3, #2
 1638 0308 9958     		ldr	r1, [r3, r2]
 1639 030a FFF7FEFF 		bl	__aeabi_fadd
 1640              	.LVL267:
 1641 030e 011C     		adds	r1, r0, #0
 1642 0310 FFF7FEFF 		bl	__aeabi_fadd
 1643              	.LVL268:
 1644 0314 3749     		ldr	r1, .L105+36
 1645 0316 FFF7FEFF 		bl	__aeabi_fdiv
 1646              	.LVL269:
 1647 031a 011C     		adds	r1, r0, #0
 337:..\..\..\liblc3\src/sns.c ****                  (e[4*i  ] + e[4*i+3]) * 2.f/12 +
 1648              		.loc 1 337 0 discriminator 3
 1649 031c 0198     		ldr	r0, [sp, #4]
 1650 031e FFF7FEFF 		bl	__aeabi_fadd
 1651              	.LVL270:
 1652 0322 0190     		str	r0, [sp, #4]
 339:..\..\..\liblc3\src/sns.c ****         scf_sum += scf[i];
 1653              		.loc 1 339 0 discriminator 3
 1654 0324 631C     		adds	r3, r4, #1
ARM GAS  C:\Users\rdn\AppData\Local\Temp\ccFEeGTH.s 			page 46


 1655 0326 9B00     		lsls	r3, r3, #2
 1656 0328 06AA     		add	r2, sp, #24
 1657 032a 9858     		ldr	r0, [r3, r2]
 1658 032c 0234     		adds	r4, r4, #2
 1659 032e A400     		lsls	r4, r4, #2
 1660 0330 A158     		ldr	r1, [r4, r2]
 1661 0332 FFF7FEFF 		bl	__aeabi_fadd
 1662              	.LVL271:
 1663 0336 3049     		ldr	r1, .L105+40
 1664 0338 FFF7FEFF 		bl	__aeabi_fmul
 1665              	.LVL272:
 1666 033c 2D49     		ldr	r1, .L105+36
 1667 033e FFF7FEFF 		bl	__aeabi_fdiv
 1668              	.LVL273:
 1669 0342 011C     		adds	r1, r0, #0
 338:..\..\..\liblc3\src/sns.c ****                  (e[4*i+1] + e[4*i+2]) * 3.f/12  ;
 1670              		.loc 1 338 0 discriminator 3
 1671 0344 0198     		ldr	r0, [sp, #4]
 1672 0346 FFF7FEFF 		bl	__aeabi_fadd
 1673              	.LVL274:
 1674 034a 011C     		adds	r1, r0, #0
 337:..\..\..\liblc3\src/sns.c ****                  (e[4*i  ] + e[4*i+3]) * 2.f/12 +
 1675              		.loc 1 337 0 discriminator 3
 1676 034c 3060     		str	r0, [r6]
 340:..\..\..\liblc3\src/sns.c ****     }
 1677              		.loc 1 340 0 discriminator 3
 1678 034e 0098     		ldr	r0, [sp]
 1679 0350 FFF7FEFF 		bl	__aeabi_fadd
 1680              	.LVL275:
 1681 0354 0090     		str	r0, [sp]
 1682              	.LVL276:
 1683              	.L85:
 336:..\..\..\liblc3\src/sns.c ****         scf[i] = (e[4*i-1] + e[4*i+4]) * 1.f/12 +
 1684              		.loc 1 336 0 discriminator 1
 1685 0356 0E2F     		cmp	r7, #14
 1686 0358 C2DD     		ble	.L86
 1687 035a A846     		mov	r8, r5
 1688              	.LBE77:
 343:..\..\..\liblc3\src/sns.c ****               (e[60] + e[63]) * 2.f/12 +
 1689              		.loc 1 343 0
 1690 035c EC23     		movs	r3, #236
 1691 035e 06AA     		add	r2, sp, #24
 1692 0360 D058     		ldr	r0, [r2, r3]
 1693 0362 1033     		adds	r3, r3, #16
 1694 0364 D458     		ldr	r4, [r2, r3]
 1695 0366 211C     		adds	r1, r4, #0
 1696 0368 FFF7FEFF 		bl	__aeabi_fadd
 1697              	.LVL277:
 1698 036c 2149     		ldr	r1, .L105+36
 1699 036e FFF7FEFF 		bl	__aeabi_fdiv
 1700              	.LVL278:
 1701 0372 061C     		adds	r6, r0, #0
 344:..\..\..\liblc3\src/sns.c ****               (e[61] + e[62]) * 3.f/12  ;
 1702              		.loc 1 344 0
 1703 0374 F023     		movs	r3, #240
 1704 0376 06AA     		add	r2, sp, #24
 1705 0378 D158     		ldr	r1, [r2, r3]
ARM GAS  C:\Users\rdn\AppData\Local\Temp\ccFEeGTH.s 			page 47


 1706 037a 201C     		adds	r0, r4, #0
 1707 037c FFF7FEFF 		bl	__aeabi_fadd
 1708              	.LVL279:
 1709 0380 011C     		adds	r1, r0, #0
 1710 0382 FFF7FEFF 		bl	__aeabi_fadd
 1711              	.LVL280:
 1712 0386 1B49     		ldr	r1, .L105+36
 1713 0388 FFF7FEFF 		bl	__aeabi_fdiv
 1714              	.LVL281:
 1715 038c 011C     		adds	r1, r0, #0
 343:..\..\..\liblc3\src/sns.c ****               (e[60] + e[63]) * 2.f/12 +
 1716              		.loc 1 343 0
 1717 038e 301C     		adds	r0, r6, #0
 1718 0390 FFF7FEFF 		bl	__aeabi_fadd
 1719              	.LVL282:
 1720 0394 041C     		adds	r4, r0, #0
 345:..\..\..\liblc3\src/sns.c ****     scf_sum += scf[15];
 1721              		.loc 1 345 0
 1722 0396 F423     		movs	r3, #244
 1723 0398 06AA     		add	r2, sp, #24
 1724 039a D058     		ldr	r0, [r2, r3]
 1725 039c 0433     		adds	r3, r3, #4
 1726 039e D158     		ldr	r1, [r2, r3]
 1727 03a0 FFF7FEFF 		bl	__aeabi_fadd
 1728              	.LVL283:
 1729 03a4 1449     		ldr	r1, .L105+40
 1730 03a6 FFF7FEFF 		bl	__aeabi_fmul
 1731              	.LVL284:
 1732 03aa 1249     		ldr	r1, .L105+36
 1733 03ac FFF7FEFF 		bl	__aeabi_fdiv
 1734              	.LVL285:
 1735 03b0 011C     		adds	r1, r0, #0
 344:..\..\..\liblc3\src/sns.c ****               (e[61] + e[62]) * 3.f/12  ;
 1736              		.loc 1 344 0
 1737 03b2 201C     		adds	r0, r4, #0
 1738 03b4 FFF7FEFF 		bl	__aeabi_fadd
 1739              	.LVL286:
 1740 03b8 011C     		adds	r1, r0, #0
 343:..\..\..\liblc3\src/sns.c ****               (e[60] + e[63]) * 2.f/12 +
 1741              		.loc 1 343 0
 1742 03ba 2B00     		movs	r3, r5
 1743 03bc D863     		str	r0, [r3, #60]
 346:..\..\..\liblc3\src/sns.c **** 
 1744              		.loc 1 346 0
 1745 03be 0098     		ldr	r0, [sp]
 1746 03c0 FFF7FEFF 		bl	__aeabi_fadd
 1747              	.LVL287:
 1748 03c4 0090     		str	r0, [sp]
 1749              	.LVL288:
 348:..\..\..\liblc3\src/sns.c ****     if (lc3_hr(sr) && 8 * nbytes >
 1750              		.loc 1 348 0
 1751 03c6 4B46     		mov	r3, r9
 1752 03c8 042B     		cmp	r3, #4
 1753 03ca 19D9     		bls	.L101
 1754              	.LVL289:
 1755 03cc 0B4D     		ldr	r5, .L105+44
 1756 03ce 18E0     		b	.L87
ARM GAS  C:\Users\rdn\AppData\Local\Temp\ccFEeGTH.s 			page 48


 1757              	.L106:
 1758              		.align	2
 1759              	.L105:
 1760 03d0 00000000 		.word	lc3_num_bands
 1761 03d4 00040000 		.word	.LANCHOR1
 1762 03d8 17B7D135 		.word	902936343
 1763 03dc FFFF7F80 		.word	-2139095041
 1764 03e0 E7BBA5BF 		.word	-1079657497
 1765 03e4 1EC4A340 		.word	1084474398
 1766 03e8 6AC40641 		.word	1090962538
 1767 03ec 74B00141 		.word	1090629748
 1768 03f0 F55C6040 		.word	1080057077
 1769 03f4 00004041 		.word	1094713344
 1770 03f8 00004040 		.word	1077936128
 1771 03fc 9A99193F 		.word	1058642330
 1772              	.L101:
 1773 0400 634D     		ldr	r5, .L107
 1774              	.L87:
 1775              	.LVL290:
 349:..\..\..\liblc3\src/sns.c ****             (dt < LC3_DT_10M ? 1150 * (int)(1 + dt) : 4400))
 1776              		.loc 1 349 0 discriminator 4
 1777 0402 4B46     		mov	r3, r9
 1778              	.LVL291:
 1779 0404 042B     		cmp	r3, #4
 1780 0406 16D9     		bls	.L88
 1781              	.LVL292:
 349:..\..\..\liblc3\src/sns.c ****             (dt < LC3_DT_10M ? 1150 * (int)(1 + dt) : 4400))
 1782              		.loc 1 349 0 is_stmt 0 discriminator 1
 1783 0408 049B     		ldr	r3, [sp, #16]
 1784              	.LVL293:
 1785 040a DB00     		lsls	r3, r3, #3
 350:..\..\..\liblc3\src/sns.c ****         cf *= dt < LC3_DT_10M ? 0.25f : 0.35f;
 1786              		.loc 1 350 0 is_stmt 1 discriminator 1
 1787 040c 5A46     		mov	r2, fp
 1788 040e 022A     		cmp	r2, #2
 1789 0410 03D8     		bhi	.L102
 1790              	.LVL294:
 1791 0412 511C     		adds	r1, r2, #1
 1792 0414 5F4A     		ldr	r2, .L107+4
 1793              	.LVL295:
 1794 0416 4A43     		muls	r2, r1
 1795 0418 00E0     		b	.L89
 1796              	.LVL296:
 1797              	.L102:
 350:..\..\..\liblc3\src/sns.c ****         cf *= dt < LC3_DT_10M ? 0.25f : 0.35f;
 1798              		.loc 1 350 0 is_stmt 0
 1799 041a 5F4A     		ldr	r2, .L107+8
 1800              	.LVL297:
 1801              	.L89:
 349:..\..\..\liblc3\src/sns.c ****             (dt < LC3_DT_10M ? 1150 * (int)(1 + dt) : 4400))
 1802              		.loc 1 349 0 is_stmt 1
 1803 041c 9A42     		cmp	r2, r3
 1804 041e 0ADA     		bge	.L88
 351:..\..\..\liblc3\src/sns.c **** 
 1805              		.loc 1 351 0
 1806 0420 5B46     		mov	r3, fp
 1807 0422 022B     		cmp	r3, #2
ARM GAS  C:\Users\rdn\AppData\Local\Temp\ccFEeGTH.s 			page 49


 1808 0424 02D8     		bhi	.L103
 1809              	.LVL298:
 1810 0426 FA21     		movs	r1, #250
 1811 0428 8905     		lsls	r1, r1, #22
 1812 042a 00E0     		b	.L90
 1813              	.L103:
 1814 042c 5B49     		ldr	r1, .L107+12
 1815              	.L90:
 351:..\..\..\liblc3\src/sns.c **** 
 1816              		.loc 1 351 0 is_stmt 0 discriminator 4
 1817 042e 281C     		adds	r0, r5, #0
 1818              	.LVL299:
 1819 0430 FFF7FEFF 		bl	__aeabi_fmul
 1820              	.LVL300:
 1821 0434 051C     		adds	r5, r0, #0
 1822              	.LVL301:
 1823              	.L88:
 1824              	.LBB78:
 353:..\..\..\liblc3\src/sns.c ****         scf[i] = cf * (scf[i] - scf_sum * 1.f/16);
 1825              		.loc 1 353 0 is_stmt 1
 1826 0436 0027     		movs	r7, #0
 1827              	.LVL302:
 1828 0438 0195     		str	r5, [sp, #4]
 1829 043a 4646     		mov	r6, r8
 1830 043c 11E0     		b	.L91
 1831              	.LVL303:
 1832              	.L92:
 354:..\..\..\liblc3\src/sns.c **** 
 1833              		.loc 1 354 0 discriminator 3
 1834 043e BC00     		lsls	r4, r7, #2
 1835 0440 3419     		adds	r4, r6, r4
 1836 0442 2568     		ldr	r5, [r4]
 1837 0444 F621     		movs	r1, #246
 1838 0446 8905     		lsls	r1, r1, #22
 1839 0448 0098     		ldr	r0, [sp]
 1840 044a FFF7FEFF 		bl	__aeabi_fmul
 1841              	.LVL304:
 1842 044e 011C     		adds	r1, r0, #0
 1843 0450 281C     		adds	r0, r5, #0
 1844 0452 FFF7FEFF 		bl	__aeabi_fsub
 1845              	.LVL305:
 1846 0456 011C     		adds	r1, r0, #0
 1847 0458 0198     		ldr	r0, [sp, #4]
 1848 045a FFF7FEFF 		bl	__aeabi_fmul
 1849              	.LVL306:
 1850 045e 2060     		str	r0, [r4]
 353:..\..\..\liblc3\src/sns.c ****         scf[i] = cf * (scf[i] - scf_sum * 1.f/16);
 1851              		.loc 1 353 0 discriminator 3
 1852 0460 0137     		adds	r7, r7, #1
 1853              	.LVL307:
 1854              	.L91:
 353:..\..\..\liblc3\src/sns.c ****         scf[i] = cf * (scf[i] - scf_sum * 1.f/16);
 1855              		.loc 1 353 0 is_stmt 0 discriminator 1
 1856 0462 0F2F     		cmp	r7, #15
 1857 0464 EBDD     		ble	.L92
 1858 0466 B046     		mov	r8, r6
 1859              	.LBE78:
ARM GAS  C:\Users\rdn\AppData\Local\Temp\ccFEeGTH.s 			page 50


 358:..\..\..\liblc3\src/sns.c ****         return;
 1860              		.loc 1 358 0 is_stmt 1
 1861 0468 039B     		ldr	r3, [sp, #12]
 1862 046a 002B     		cmp	r3, #0
 1863 046c 00D1     		bne	.LCB2120
 1864 046e 87E0     		b	.L73	@long jump
 1865              	.LCB2120:
 361:..\..\..\liblc3\src/sns.c ****     float sn = s1 + s2;
 1866              		.loc 1 361 0
 1867 0470 3368     		ldr	r3, [r6]
 1868 0472 0093     		str	r3, [sp]
 1869              	.LVL308:
 1870 0474 7268     		ldr	r2, [r6, #4]
 1871 0476 0292     		str	r2, [sp, #8]
 1872              	.LVL309:
 1873 0478 B168     		ldr	r1, [r6, #8]
 1874 047a 0C1C     		adds	r4, r1, #0
 1875 047c 0391     		str	r1, [sp, #12]
 1876              	.LVL310:
 1877 047e F168     		ldr	r1, [r6, #12]
 1878              	.LVL311:
 1879 0480 0E1C     		adds	r6, r1, #0
 1880 0482 0491     		str	r1, [sp, #16]
 1881              	.LVL312:
 362:..\..\..\liblc3\src/sns.c **** 
 1882              		.loc 1 362 0
 1883 0484 111C     		adds	r1, r2, #0
 1884              	.LVL313:
 1885 0486 181C     		adds	r0, r3, #0
 1886 0488 FFF7FEFF 		bl	__aeabi_fadd
 1887              	.LVL314:
 1888 048c 011C     		adds	r1, r0, #0
 1889              	.LVL315:
 364:..\..\..\liblc3\src/sns.c ****     scf[1] = (sn += s4) * 1.f/4;
 1890              		.loc 1 364 0
 1891 048e 201C     		adds	r0, r4, #0
 1892              	.LVL316:
 1893 0490 FFF7FEFF 		bl	__aeabi_fadd
 1894              	.LVL317:
 1895 0494 051C     		adds	r5, r0, #0
 1896              	.LVL318:
 1897 0496 4249     		ldr	r1, .L107+16
 1898 0498 FFF7FEFF 		bl	__aeabi_fdiv
 1899              	.LVL319:
 1900 049c 041C     		adds	r4, r0, #0
 1901              	.LVL320:
 1902 049e 4346     		mov	r3, r8
 1903 04a0 1860     		str	r0, [r3]
 365:..\..\..\liblc3\src/sns.c ****     scf_sum = scf[0] + scf[1];
 1904              		.loc 1 365 0
 1905 04a2 291C     		adds	r1, r5, #0
 1906 04a4 301C     		adds	r0, r6, #0
 1907 04a6 FFF7FEFF 		bl	__aeabi_fadd
 1908              	.LVL321:
 1909 04aa 061C     		adds	r6, r0, #0
 1910              	.LVL322:
 1911 04ac FA21     		movs	r1, #250
ARM GAS  C:\Users\rdn\AppData\Local\Temp\ccFEeGTH.s 			page 51


 1912 04ae 8905     		lsls	r1, r1, #22
 1913 04b0 FFF7FEFF 		bl	__aeabi_fmul
 1914              	.LVL323:
 1915 04b4 011C     		adds	r1, r0, #0
 1916 04b6 4346     		mov	r3, r8
 1917 04b8 5860     		str	r0, [r3, #4]
 366:..\..\..\liblc3\src/sns.c **** 
 1918              		.loc 1 366 0
 1919 04ba 201C     		adds	r0, r4, #0
 1920 04bc FFF7FEFF 		bl	__aeabi_fadd
 1921              	.LVL324:
 1922              	.LBB79:
 368:..\..\..\liblc3\src/sns.c ****         s0 = s1, s1 = s2, s2 = s3, s3 = s4, s4 = scf[i+2];
 1923              		.loc 1 368 0
 1924 04c0 0227     		movs	r7, #2
 1925              	.LVL325:
 1926 04c2 0190     		str	r0, [sp, #4]
 1927              	.LVL326:
 1928 04c4 301C     		adds	r0, r6, #0
 1929              	.LVL327:
 1930 04c6 4646     		mov	r6, r8
 1931              	.LVL328:
 1932 04c8 1DE0     		b	.L94
 1933              	.LVL329:
 1934              	.L95:
 369:..\..\..\liblc3\src/sns.c ****         scf[i] = (sn += s4) * 1.f/5;
 1935              		.loc 1 369 0 discriminator 3
 1936 04ca BB1C     		adds	r3, r7, #2
 1937 04cc 9B00     		lsls	r3, r3, #2
 1938 04ce F458     		ldr	r4, [r6, r3]
 1939              	.LVL330:
 370:..\..\..\liblc3\src/sns.c ****         scf_sum += scf[i];
 1940              		.loc 1 370 0 discriminator 3
 1941 04d0 BB00     		lsls	r3, r7, #2
 1942 04d2 F518     		adds	r5, r6, r3
 1943 04d4 211C     		adds	r1, r4, #0
 1944 04d6 FFF7FEFF 		bl	__aeabi_fadd
 1945              	.LVL331:
 1946 04da 3249     		ldr	r1, .L107+20
 1947 04dc 0590     		str	r0, [sp, #20]
 1948 04de FFF7FEFF 		bl	__aeabi_fdiv
 1949              	.LVL332:
 1950 04e2 011C     		adds	r1, r0, #0
 1951 04e4 2860     		str	r0, [r5]
 371:..\..\..\liblc3\src/sns.c ****     }
 1952              		.loc 1 371 0 discriminator 3
 1953 04e6 0198     		ldr	r0, [sp, #4]
 1954 04e8 FFF7FEFF 		bl	__aeabi_fadd
 1955              	.LVL333:
 1956 04ec 0190     		str	r0, [sp, #4]
 1957              	.LVL334:
 368:..\..\..\liblc3\src/sns.c ****         s0 = s1, s1 = s2, s2 = s3, s3 = s4, s4 = scf[i+2];
 1958              		.loc 1 368 0 discriminator 3
 1959 04ee 0137     		adds	r7, r7, #1
 1960              	.LVL335:
 1961 04f0 0099     		ldr	r1, [sp]
 1962 04f2 0598     		ldr	r0, [sp, #20]
ARM GAS  C:\Users\rdn\AppData\Local\Temp\ccFEeGTH.s 			page 52


 1963              	.LVL336:
 1964 04f4 FFF7FEFF 		bl	__aeabi_fsub
 1965              	.LVL337:
 369:..\..\..\liblc3\src/sns.c ****         scf[i] = (sn += s4) * 1.f/5;
 1966              		.loc 1 369 0 discriminator 3
 1967 04f8 029B     		ldr	r3, [sp, #8]
 1968 04fa 0093     		str	r3, [sp]
 1969              	.LVL338:
 1970 04fc 039B     		ldr	r3, [sp, #12]
 1971 04fe 0293     		str	r3, [sp, #8]
 1972              	.LVL339:
 1973 0500 049B     		ldr	r3, [sp, #16]
 1974 0502 0393     		str	r3, [sp, #12]
 1975              	.LVL340:
 1976 0504 0494     		str	r4, [sp, #16]
 1977              	.LVL341:
 1978              	.L94:
 368:..\..\..\liblc3\src/sns.c ****         s0 = s1, s1 = s2, s2 = s3, s3 = s4, s4 = scf[i+2];
 1979              		.loc 1 368 0 discriminator 1
 1980 0506 0D2F     		cmp	r7, #13
 1981 0508 DFDD     		ble	.L95
 1982 050a 019D     		ldr	r5, [sp, #4]
 1983 050c B046     		mov	r8, r6
 1984              	.LBE79:
 374:..\..\..\liblc3\src/sns.c ****     scf[15] = (sn -= s1) * 1.f/3;
 1985              		.loc 1 374 0
 1986 050e FA21     		movs	r1, #250
 1987 0510 8905     		lsls	r1, r1, #22
 1988 0512 061C     		adds	r6, r0, #0
 1989 0514 FFF7FEFF 		bl	__aeabi_fmul
 1990              	.LVL342:
 1991 0518 041C     		adds	r4, r0, #0
 1992 051a 4346     		mov	r3, r8
 1993 051c 9863     		str	r0, [r3, #56]
 375:..\..\..\liblc3\src/sns.c ****     scf_sum += scf[14] + scf[15];
 1994              		.loc 1 375 0
 1995 051e 0099     		ldr	r1, [sp]
 1996 0520 301C     		adds	r0, r6, #0
 1997 0522 FFF7FEFF 		bl	__aeabi_fsub
 1998              	.LVL343:
 1999 0526 1E49     		ldr	r1, .L107+16
 2000 0528 FFF7FEFF 		bl	__aeabi_fdiv
 2001              	.LVL344:
 2002 052c 011C     		adds	r1, r0, #0
 2003 052e 4346     		mov	r3, r8
 2004 0530 D863     		str	r0, [r3, #60]
 376:..\..\..\liblc3\src/sns.c **** 
 2005              		.loc 1 376 0
 2006 0532 201C     		adds	r0, r4, #0
 2007 0534 FFF7FEFF 		bl	__aeabi_fadd
 2008              	.LVL345:
 2009 0538 011C     		adds	r1, r0, #0
 2010 053a 281C     		adds	r0, r5, #0
 2011 053c FFF7FEFF 		bl	__aeabi_fadd
 2012              	.LVL346:
 2013              	.LBB80:
 378:..\..\..\liblc3\src/sns.c ****         scf[i] = (dt == LC3_DT_7M5 ? 0.3f : 0.5f) *
ARM GAS  C:\Users\rdn\AppData\Local\Temp\ccFEeGTH.s 			page 53


 2014              		.loc 1 378 0
 2015 0540 0027     		movs	r7, #0
 2016              	.LVL347:
 2017 0542 0190     		str	r0, [sp, #4]
 2018 0544 5D46     		mov	r5, fp
 2019 0546 19E0     		b	.L96
 2020              	.LVL348:
 2021              	.L98:
 379:..\..\..\liblc3\src/sns.c ****                  (scf[i] - scf_sum * 1.f/16);
 2022              		.loc 1 379 0
 2023 0548 BC00     		lsls	r4, r7, #2
 2024 054a 022D     		cmp	r5, #2
 2025 054c 02D1     		bne	.L104
 2026 054e 164B     		ldr	r3, .L107+24
 2027 0550 0093     		str	r3, [sp]
 2028 0552 02E0     		b	.L97
 2029              	.L104:
 2030 0554 FC23     		movs	r3, #252
 2031 0556 9B05     		lsls	r3, r3, #22
 2032 0558 0093     		str	r3, [sp]
 2033              	.L97:
 380:..\..\..\liblc3\src/sns.c **** }
 2034              		.loc 1 380 0 discriminator 2
 2035 055a 4444     		add	r4, r4, r8
 2036 055c 2668     		ldr	r6, [r4]
 2037 055e F621     		movs	r1, #246
 2038 0560 8905     		lsls	r1, r1, #22
 2039 0562 0198     		ldr	r0, [sp, #4]
 2040 0564 FFF7FEFF 		bl	__aeabi_fmul
 2041              	.LVL349:
 2042 0568 011C     		adds	r1, r0, #0
 2043 056a 301C     		adds	r0, r6, #0
 2044 056c FFF7FEFF 		bl	__aeabi_fsub
 2045              	.LVL350:
 2046 0570 011C     		adds	r1, r0, #0
 379:..\..\..\liblc3\src/sns.c ****                  (scf[i] - scf_sum * 1.f/16);
 2047              		.loc 1 379 0 discriminator 2
 2048 0572 0098     		ldr	r0, [sp]
 2049 0574 FFF7FEFF 		bl	__aeabi_fmul
 2050              	.LVL351:
 2051 0578 2060     		str	r0, [r4]
 378:..\..\..\liblc3\src/sns.c ****         scf[i] = (dt == LC3_DT_7M5 ? 0.3f : 0.5f) *
 2052              		.loc 1 378 0 discriminator 2
 2053 057a 0137     		adds	r7, r7, #1
 2054              	.LVL352:
 2055              	.L96:
 378:..\..\..\liblc3\src/sns.c ****         scf[i] = (dt == LC3_DT_7M5 ? 0.3f : 0.5f) *
 2056              		.loc 1 378 0 is_stmt 0 discriminator 1
 2057 057c 0F2F     		cmp	r7, #15
 2058 057e E3DD     		ble	.L98
 2059              	.LVL353:
 2060              	.L73:
 2061              	.LBE80:
 381:..\..\..\liblc3\src/sns.c **** 
 2062              		.loc 1 381 0 is_stmt 1
 2063 0580 47B0     		add	sp, sp, #284
 2064              		@ sp needed
ARM GAS  C:\Users\rdn\AppData\Local\Temp\ccFEeGTH.s 			page 54


 2065              	.LVL354:
 2066 0582 3CBC     		pop	{r2, r3, r4, r5}
 2067 0584 9046     		mov	r8, r2
 2068 0586 9946     		mov	r9, r3
 2069 0588 A246     		mov	r10, r4
 2070 058a AB46     		mov	fp, r5
 2071 058c F0BD     		pop	{r4, r5, r6, r7, pc}
 2072              	.L108:
 2073 058e C046     		.align	2
 2074              	.L107:
 2075 0590 9A99593F 		.word	1062836634
 2076 0594 7E040000 		.word	1150
 2077 0598 30110000 		.word	4400
 2078 059c 3333B33E 		.word	1051931443
 2079 05a0 00004040 		.word	1077936128
 2080 05a4 0000A040 		.word	1084227584
 2081 05a8 9A99993E 		.word	1050253722
 2082              		.cfi_endproc
 2083              	.LFE22:
 2084              		.size	compute_scale_factors, .-compute_scale_factors
 2085              		.section	.text.normalize,"ax",%progbits
 2086              		.align	2
 2087              		.code	16
 2088              		.thumb_func
 2089              		.type	normalize, %function
 2090              	normalize:
 2091              	.LFB24:
 418:..\..\..\liblc3\src/sns.c ****     int c2_sum = 0;
 2092              		.loc 1 418 0
 2093              		.cfi_startproc
 2094              		@ args = 0, pretend = 0, frame = 8
 2095              		@ frame_needed = 0, uses_anonymous_args = 0
 2096              	.LVL355:
 2097 0000 F0B5     		push	{r4, r5, r6, r7, lr}
 2098              		.cfi_def_cfa_offset 20
 2099              		.cfi_offset 4, -20
 2100              		.cfi_offset 5, -16
 2101              		.cfi_offset 6, -12
 2102              		.cfi_offset 7, -8
 2103              		.cfi_offset 14, -4
 2104 0002 83B0     		sub	sp, sp, #12
 2105              		.cfi_def_cfa_offset 32
 2106 0004 0500     		movs	r5, r0
 2107 0006 0F00     		movs	r7, r1
 2108              	.LVL356:
 2109              	.LBB81:
 420:..\..\..\liblc3\src/sns.c ****         c2_sum += c[i] * c[i];
 2110              		.loc 1 420 0
 2111 0008 0022     		movs	r2, #0
 2112              	.LBE81:
 419:..\..\..\liblc3\src/sns.c ****     for (int i = 0; i < 16; i++)
 2113              		.loc 1 419 0
 2114 000a 0024     		movs	r4, #0
 2115              	.LBB82:
 420:..\..\..\liblc3\src/sns.c ****         c2_sum += c[i] * c[i];
 2116              		.loc 1 420 0
 2117 000c 04E0     		b	.L110
ARM GAS  C:\Users\rdn\AppData\Local\Temp\ccFEeGTH.s 			page 55


 2118              	.LVL357:
 2119              	.L111:
 421:..\..\..\liblc3\src/sns.c **** 
 2120              		.loc 1 421 0 discriminator 3
 2121 000e 9300     		lsls	r3, r2, #2
 2122 0010 EB58     		ldr	r3, [r5, r3]
 2123 0012 5B43     		muls	r3, r3
 2124 0014 E418     		adds	r4, r4, r3
 2125              	.LVL358:
 420:..\..\..\liblc3\src/sns.c ****         c2_sum += c[i] * c[i];
 2126              		.loc 1 420 0 discriminator 3
 2127 0016 0132     		adds	r2, r2, #1
 2128              	.LVL359:
 2129              	.L110:
 420:..\..\..\liblc3\src/sns.c ****         c2_sum += c[i] * c[i];
 2130              		.loc 1 420 0 is_stmt 0 discriminator 1
 2131 0018 0F2A     		cmp	r2, #15
 2132 001a F8DD     		ble	.L111
 2133              	.LBE82:
 423:..\..\..\liblc3\src/sns.c **** 
 2134              		.loc 1 423 0 is_stmt 1
 2135 001c 2000     		movs	r0, r4
 2136              	.LVL360:
 2137 001e FFF7FEFF 		bl	__aeabi_i2f
 2138              	.LVL361:
 2139 0022 FFF7FEFF 		bl	sqrtf
 2140              	.LVL362:
 2141 0026 011C     		adds	r1, r0, #0
 2142 0028 FE20     		movs	r0, #254
 2143 002a 8005     		lsls	r0, r0, #22
 2144 002c FFF7FEFF 		bl	__aeabi_fdiv
 2145              	.LVL363:
 2146 0030 0190     		str	r0, [sp, #4]
 2147              	.LVL364:
 2148              	.LBB83:
 425:..\..\..\liblc3\src/sns.c ****         cn[i] = c[i] * c_norm;
 2149              		.loc 1 425 0
 2150 0032 0024     		movs	r4, #0
 2151              	.LVL365:
 2152 0034 09E0     		b	.L112
 2153              	.LVL366:
 2154              	.L113:
 426:..\..\..\liblc3\src/sns.c **** }
 2155              		.loc 1 426 0 discriminator 3
 2156 0036 A300     		lsls	r3, r4, #2
 2157 0038 FE18     		adds	r6, r7, r3
 2158 003a E858     		ldr	r0, [r5, r3]
 2159 003c FFF7FEFF 		bl	__aeabi_i2f
 2160              	.LVL367:
 2161 0040 0199     		ldr	r1, [sp, #4]
 2162 0042 FFF7FEFF 		bl	__aeabi_fmul
 2163              	.LVL368:
 2164 0046 3060     		str	r0, [r6]
 425:..\..\..\liblc3\src/sns.c ****         cn[i] = c[i] * c_norm;
 2165              		.loc 1 425 0 discriminator 3
 2166 0048 0134     		adds	r4, r4, #1
 2167              	.LVL369:
ARM GAS  C:\Users\rdn\AppData\Local\Temp\ccFEeGTH.s 			page 56


 2168              	.L112:
 425:..\..\..\liblc3\src/sns.c ****         cn[i] = c[i] * c_norm;
 2169              		.loc 1 425 0 is_stmt 0 discriminator 1
 2170 004a 0F2C     		cmp	r4, #15
 2171 004c F3DD     		ble	.L113
 2172              	.LBE83:
 427:..\..\..\liblc3\src/sns.c **** 
 2173              		.loc 1 427 0 is_stmt 1
 2174 004e 03B0     		add	sp, sp, #12
 2175              		@ sp needed
 2176              	.LVL370:
 2177              	.LVL371:
 2178              	.LVL372:
 2179 0050 F0BD     		pop	{r4, r5, r6, r7, pc}
 2180              		.cfi_endproc
 2181              	.LFE24:
 2182              		.size	normalize, .-normalize
 2183              		.global	__aeabi_f2iz
 2184              		.global	__aeabi_fcmplt
 2185 0052 C046     		.section	.text.quantize,"ax",%progbits
 2186              		.align	2
 2187              		.code	16
 2188              		.thumb_func
 2189              		.type	quantize, %function
 2190              	quantize:
 2191              	.LFB26:
 466:..\..\..\liblc3\src/sns.c ****     /* --- Residual --- */
 2192              		.loc 1 466 0
 2193              		.cfi_startproc
 2194              		@ args = 12, pretend = 0, frame = 224
 2195              		@ frame_needed = 0, uses_anonymous_args = 0
 2196              	.LVL373:
 2197 0000 F0B5     		push	{r4, r5, r6, r7, lr}
 2198              		.cfi_def_cfa_offset 20
 2199              		.cfi_offset 4, -20
 2200              		.cfi_offset 5, -16
 2201              		.cfi_offset 6, -12
 2202              		.cfi_offset 7, -8
 2203              		.cfi_offset 14, -4
 2204 0002 5F46     		mov	r7, fp
 2205 0004 5646     		mov	r6, r10
 2206 0006 4D46     		mov	r5, r9
 2207 0008 4446     		mov	r4, r8
 2208 000a F0B4     		push	{r4, r5, r6, r7}
 2209              		.cfi_def_cfa_offset 36
 2210              		.cfi_offset 8, -36
 2211              		.cfi_offset 9, -32
 2212              		.cfi_offset 10, -28
 2213              		.cfi_offset 11, -24
 2214 000c BDB0     		sub	sp, sp, #244
 2215              		.cfi_def_cfa_offset 280
 2216 000e 8246     		mov	r10, r0
 2217 0010 1C00     		movs	r4, r3
 2218 0012 469B     		ldr	r3, [sp, #280]
 2219              	.LVL374:
 2220 0014 9846     		mov	r8, r3
 469:..\..\..\liblc3\src/sns.c ****     const float *hfcb = lc3_sns_hfcb[hfcb_idx];
ARM GAS  C:\Users\rdn\AppData\Local\Temp\ccFEeGTH.s 			page 57


 2221              		.loc 1 469 0
 2222 0016 4901     		lsls	r1, r1, #5
 2223              	.LVL375:
 2224 0018 B44B     		ldr	r3, .L145
 2225 001a 8B46     		mov	fp, r1
 2226 001c 9B44     		add	fp, fp, r3
 2227              	.LVL376:
 470:..\..\..\liblc3\src/sns.c ****     float r[16], x[16];
 2228              		.loc 1 470 0
 2229 001e 5201     		lsls	r2, r2, #5
 2230              	.LVL377:
 2231 0020 B34B     		ldr	r3, .L145+4
 2232 0022 D318     		adds	r3, r2, r3
 2233 0024 0593     		str	r3, [sp, #20]
 2234              	.LVL378:
 2235              	.LBB84:
 473:..\..\..\liblc3\src/sns.c ****         r[  i] = scf[  i] - lfcb[i];
 2236              		.loc 1 473 0
 2237 0026 0025     		movs	r5, #0
 2238 0028 A146     		mov	r9, r4
 2239 002a 13E0     		b	.L115
 2240              	.LVL379:
 2241              	.L116:
 474:..\..\..\liblc3\src/sns.c ****         r[8+i] = scf[8+i] - hfcb[i];
 2242              		.loc 1 474 0 discriminator 3
 2243 002c AF00     		lsls	r7, r5, #2
 2244 002e 5B46     		mov	r3, fp
 2245 0030 D959     		ldr	r1, [r3, r7]
 2246 0032 5346     		mov	r3, r10
 2247 0034 D859     		ldr	r0, [r3, r7]
 2248 0036 FFF7FEFF 		bl	__aeabi_fsub
 2249              	.LVL380:
 2250 003a 2CAC     		add	r4, sp, #176
 2251 003c 3851     		str	r0, [r7, r4]
 475:..\..\..\liblc3\src/sns.c ****     }
 2252              		.loc 1 475 0 discriminator 3
 2253 003e 2E00     		movs	r6, r5
 2254 0040 0836     		adds	r6, r6, #8
 2255 0042 B600     		lsls	r6, r6, #2
 2256 0044 059B     		ldr	r3, [sp, #20]
 2257 0046 D959     		ldr	r1, [r3, r7]
 2258 0048 5346     		mov	r3, r10
 2259 004a F058     		ldr	r0, [r6, r3]
 2260 004c FFF7FEFF 		bl	__aeabi_fsub
 2261              	.LVL381:
 2262 0050 3051     		str	r0, [r6, r4]
 473:..\..\..\liblc3\src/sns.c ****         r[  i] = scf[  i] - lfcb[i];
 2263              		.loc 1 473 0 discriminator 3
 2264 0052 0135     		adds	r5, r5, #1
 2265              	.LVL382:
 2266              	.L115:
 473:..\..\..\liblc3\src/sns.c ****         r[  i] = scf[  i] - lfcb[i];
 2267              		.loc 1 473 0 is_stmt 0 discriminator 1
 2268 0054 072D     		cmp	r5, #7
 2269 0056 E9DD     		ble	.L116
 2270 0058 4C46     		mov	r4, r9
 2271              	.LBE84:
ARM GAS  C:\Users\rdn\AppData\Local\Temp\ccFEeGTH.s 			page 58


 478:..\..\..\liblc3\src/sns.c **** 
 2272              		.loc 1 478 0 is_stmt 1
 2273 005a 1CA9     		add	r1, sp, #112
 2274 005c 2CA8     		add	r0, sp, #176
 2275 005e FFF7FEFF 		bl	dct16_forward
 2276              	.LVL383:
 2277              	.LBB85:
 487:..\..\..\liblc3\src/sns.c ****         xm[i] = fabsf(x[i]);
 2278              		.loc 1 487 0
 2279 0062 0025     		movs	r5, #0
 2280              	.LVL384:
 2281              	.LBE85:
 485:..\..\..\liblc3\src/sns.c **** 
 2282              		.loc 1 485 0
 2283 0064 0020     		movs	r0, #0
 2284              	.LBB86:
 487:..\..\..\liblc3\src/sns.c ****         xm[i] = fabsf(x[i]);
 2285              		.loc 1 487 0
 2286 0066 09E0     		b	.L117
 2287              	.LVL385:
 2288              	.L118:
 488:..\..\..\liblc3\src/sns.c ****         xm_sum += xm[i];
 2289              		.loc 1 488 0 discriminator 3
 2290 0068 AB00     		lsls	r3, r5, #2
 2291 006a 1CAA     		add	r2, sp, #112
 2292 006c 9958     		ldr	r1, [r3, r2]
 2293 006e 4900     		lsls	r1, r1, #1
 2294 0070 4908     		lsrs	r1, r1, #1
 2295 0072 0CAA     		add	r2, sp, #48
 2296 0074 9950     		str	r1, [r3, r2]
 489:..\..\..\liblc3\src/sns.c ****     }
 2297              		.loc 1 489 0 discriminator 3
 2298 0076 FFF7FEFF 		bl	__aeabi_fadd
 2299              	.LVL386:
 487:..\..\..\liblc3\src/sns.c ****         xm[i] = fabsf(x[i]);
 2300              		.loc 1 487 0 discriminator 3
 2301 007a 0135     		adds	r5, r5, #1
 2302              	.LVL387:
 2303              	.L117:
 487:..\..\..\liblc3\src/sns.c ****         xm[i] = fabsf(x[i]);
 2304              		.loc 1 487 0 is_stmt 0 discriminator 1
 2305 007c 0F2D     		cmp	r5, #15
 2306 007e F3DD     		ble	.L118
 2307              	.LBE86:
 492:..\..\..\liblc3\src/sns.c ****     float corr = 0, energy = 0;
 2308              		.loc 1 492 0 is_stmt 1
 2309 0080 9C49     		ldr	r1, .L145+8
 2310 0082 FFF7FEFF 		bl	fmaxf
 2311              	.LVL388:
 2312 0086 011C     		adds	r1, r0, #0
 2313 0088 9B48     		ldr	r0, .L145+12
 2314 008a FFF7FEFF 		bl	__aeabi_fdiv
 2315              	.LVL389:
 2316 008e 0690     		str	r0, [sp, #24]
 2317              	.LVL390:
 493:..\..\..\liblc3\src/sns.c ****     int npulses = 0;
 2318              		.loc 1 493 0
ARM GAS  C:\Users\rdn\AppData\Local\Temp\ccFEeGTH.s 			page 59


 2319 0090 0023     		movs	r3, #0
 2320 0092 0B93     		str	r3, [sp, #44]
 2321 0094 0A93     		str	r3, [sp, #40]
 2322              	.LVL391:
 2323              	.LBB87:
 496:..\..\..\liblc3\src/sns.c ****         c[3][i] = floorf(xm[i] * proj_factor);
 2324              		.loc 1 496 0
 2325 0096 0025     		movs	r5, #0
 2326              	.LVL392:
 2327              	.LBE87:
 494:..\..\..\liblc3\src/sns.c **** 
 2328              		.loc 1 494 0
 2329 0098 0026     		movs	r6, #0
 2330 009a A146     		mov	r9, r4
 2331              	.LBB88:
 496:..\..\..\liblc3\src/sns.c ****         c[3][i] = floorf(xm[i] * proj_factor);
 2332              		.loc 1 496 0
 2333 009c 25E0     		b	.L119
 2334              	.LVL393:
 2335              	.L120:
 497:..\..\..\liblc3\src/sns.c ****         npulses += c[3][i];
 2336              		.loc 1 497 0 discriminator 3
 2337 009e AC00     		lsls	r4, r5, #2
 2338 00a0 0CAB     		add	r3, sp, #48
 2339 00a2 E358     		ldr	r3, [r4, r3]
 2340 00a4 0593     		str	r3, [sp, #20]
 2341 00a6 191C     		adds	r1, r3, #0
 2342 00a8 0698     		ldr	r0, [sp, #24]
 2343 00aa FFF7FEFF 		bl	__aeabi_fmul
 2344              	.LVL394:
 2345 00ae FFF7FEFF 		bl	floorf
 2346              	.LVL395:
 2347 00b2 FFF7FEFF 		bl	__aeabi_f2iz
 2348              	.LVL396:
 2349 00b6 0700     		movs	r7, r0
 2350 00b8 4C44     		add	r4, r4, r9
 2351 00ba 2300     		movs	r3, r4
 2352 00bc C022     		movs	r2, #192
 2353 00be 9850     		str	r0, [r3, r2]
 498:..\..\..\liblc3\src/sns.c ****         corr    += c[3][i] * xm[i];
 2354              		.loc 1 498 0 discriminator 3
 2355 00c0 3618     		adds	r6, r6, r0
 2356              	.LVL397:
 499:..\..\..\liblc3\src/sns.c ****         energy  += c[3][i] * c[3][i];
 2357              		.loc 1 499 0 discriminator 3
 2358 00c2 FFF7FEFF 		bl	__aeabi_i2f
 2359              	.LVL398:
 2360 00c6 0599     		ldr	r1, [sp, #20]
 2361 00c8 FFF7FEFF 		bl	__aeabi_fmul
 2362              	.LVL399:
 2363 00cc 011C     		adds	r1, r0, #0
 2364 00ce 0B98     		ldr	r0, [sp, #44]
 2365 00d0 FFF7FEFF 		bl	__aeabi_fadd
 2366              	.LVL400:
 2367 00d4 0B90     		str	r0, [sp, #44]
 500:..\..\..\liblc3\src/sns.c ****     }
 2368              		.loc 1 500 0 discriminator 3
ARM GAS  C:\Users\rdn\AppData\Local\Temp\ccFEeGTH.s 			page 60


 2369 00d6 3800     		movs	r0, r7
 2370 00d8 7843     		muls	r0, r7
 2371 00da FFF7FEFF 		bl	__aeabi_i2f
 2372              	.LVL401:
 2373 00de 011C     		adds	r1, r0, #0
 2374 00e0 0A98     		ldr	r0, [sp, #40]
 2375 00e2 FFF7FEFF 		bl	__aeabi_fadd
 2376              	.LVL402:
 2377 00e6 0A90     		str	r0, [sp, #40]
 496:..\..\..\liblc3\src/sns.c ****         c[3][i] = floorf(xm[i] * proj_factor);
 2378              		.loc 1 496 0 discriminator 3
 2379 00e8 0135     		adds	r5, r5, #1
 2380              	.LVL403:
 2381              	.L119:
 496:..\..\..\liblc3\src/sns.c ****         c[3][i] = floorf(xm[i] * proj_factor);
 2382              		.loc 1 496 0 is_stmt 0 discriminator 1
 2383 00ea 0F2D     		cmp	r5, #15
 2384 00ec D7DD     		ble	.L120
 2385 00ee 4C46     		mov	r4, r9
 2386              	.LBE88:
 503:..\..\..\liblc3\src/sns.c ****     npulses = 6;
 2387              		.loc 1 503 0 is_stmt 1
 2388 00f0 4F46     		mov	r7, r9
 2389 00f2 C037     		adds	r7, r7, #192
 2390 00f4 0AAB     		add	r3, sp, #40
 2391 00f6 0293     		str	r3, [sp, #8]
 2392 00f8 0BAD     		add	r5, sp, #44
 2393              	.LVL404:
 2394 00fa 0195     		str	r5, [sp, #4]
 2395 00fc 0623     		movs	r3, #6
 2396 00fe 0093     		str	r3, [sp]
 2397 0100 3300     		movs	r3, r6
 2398 0102 1022     		movs	r2, #16
 2399 0104 3900     		movs	r1, r7
 2400 0106 0CA8     		add	r0, sp, #48
 2401 0108 FFF7FEFF 		bl	add_pulse
 2402              	.LVL405:
 509:..\..\..\liblc3\src/sns.c **** 
 2403              		.loc 1 509 0
 2404 010c 4B46     		mov	r3, r9
 2405 010e 8033     		adds	r3, r3, #128
 2406 0110 4022     		movs	r2, #64
 2407 0112 3900     		movs	r1, r7
 2408 0114 1F00     		movs	r7, r3
 2409 0116 1800     		movs	r0, r3
 2410 0118 FFF7FEFF 		bl	memcpy
 2411              	.LVL406:
 511:..\..\..\liblc3\src/sns.c ****     npulses = 8;
 2412              		.loc 1 511 0
 2413 011c 0AAB     		add	r3, sp, #40
 2414 011e 0293     		str	r3, [sp, #8]
 2415 0120 0195     		str	r5, [sp, #4]
 2416 0122 0823     		movs	r3, #8
 2417 0124 0093     		str	r3, [sp]
 2418 0126 023B     		subs	r3, r3, #2
 2419 0128 1022     		movs	r2, #16
 2420 012a 3900     		movs	r1, r7
ARM GAS  C:\Users\rdn\AppData\Local\Temp\ccFEeGTH.s 			page 61


 2421 012c 0CA8     		add	r0, sp, #48
 2422 012e FFF7FEFF 		bl	add_pulse
 2423              	.LVL407:
 519:..\..\..\liblc3\src/sns.c **** 
 2424              		.loc 1 519 0
 2425 0132 4023     		movs	r3, #64
 2426 0134 9C46     		mov	ip, r3
 2427 0136 CC44     		add	ip, ip, r9
 2428 0138 6346     		mov	r3, ip
 2429 013a 6046     		mov	r0, ip
 2430 013c 0593     		str	r3, [sp, #20]
 2431 013e 4022     		movs	r2, #64
 2432 0140 3900     		movs	r1, r7
 2433 0142 FFF7FEFF 		bl	memcpy
 2434              	.LVL408:
 2435              	.LBB89:
 521:..\..\..\liblc3\src/sns.c ****         c[1][i] = 0;
 2436              		.loc 1 521 0
 2437 0146 0A26     		movs	r6, #10
 2438              	.LBE89:
 512:..\..\..\liblc3\src/sns.c **** 
 2439              		.loc 1 512 0
 2440 0148 0827     		movs	r7, #8
 2441              	.LBB90:
 521:..\..\..\liblc3\src/sns.c ****         c[1][i] = 0;
 2442              		.loc 1 521 0
 2443 014a 1EE0     		b	.L121
 2444              	.LVL409:
 2445              	.L122:
 522:..\..\..\liblc3\src/sns.c ****         npulses -= c[2][i];
 2446              		.loc 1 522 0 discriminator 3
 2447 014c B300     		lsls	r3, r6, #2
 2448 014e E218     		adds	r2, r4, r3
 2449 0150 0021     		movs	r1, #0
 2450 0152 1164     		str	r1, [r2, #64]
 523:..\..\..\liblc3\src/sns.c ****         corr    -= c[2][i] * xm[i];
 2451              		.loc 1 523 0 discriminator 3
 2452 0154 8031     		adds	r1, r1, #128
 2453 0156 5558     		ldr	r5, [r2, r1]
 2454 0158 7F1B     		subs	r7, r7, r5
 2455              	.LVL410:
 524:..\..\..\liblc3\src/sns.c ****         energy  -= c[2][i] * c[2][i];
 2456              		.loc 1 524 0 discriminator 3
 2457 015a 0CAA     		add	r2, sp, #48
 2458 015c 9B58     		ldr	r3, [r3, r2]
 2459 015e 9946     		mov	r9, r3
 2460 0160 2800     		movs	r0, r5
 2461 0162 FFF7FEFF 		bl	__aeabi_i2f
 2462              	.LVL411:
 2463 0166 4946     		mov	r1, r9
 2464 0168 FFF7FEFF 		bl	__aeabi_fmul
 2465              	.LVL412:
 2466 016c 011C     		adds	r1, r0, #0
 2467 016e 0B98     		ldr	r0, [sp, #44]
 2468 0170 FFF7FEFF 		bl	__aeabi_fsub
 2469              	.LVL413:
 2470 0174 0B90     		str	r0, [sp, #44]
ARM GAS  C:\Users\rdn\AppData\Local\Temp\ccFEeGTH.s 			page 62


 525:..\..\..\liblc3\src/sns.c ****     }
 2471              		.loc 1 525 0 discriminator 3
 2472 0176 2800     		movs	r0, r5
 2473 0178 6843     		muls	r0, r5
 2474 017a FFF7FEFF 		bl	__aeabi_i2f
 2475              	.LVL414:
 2476 017e 011C     		adds	r1, r0, #0
 2477 0180 0A98     		ldr	r0, [sp, #40]
 2478 0182 FFF7FEFF 		bl	__aeabi_fsub
 2479              	.LVL415:
 2480 0186 0A90     		str	r0, [sp, #40]
 521:..\..\..\liblc3\src/sns.c ****         c[1][i] = 0;
 2481              		.loc 1 521 0 discriminator 3
 2482 0188 0136     		adds	r6, r6, #1
 2483              	.LVL416:
 2484              	.L121:
 521:..\..\..\liblc3\src/sns.c ****         c[1][i] = 0;
 2485              		.loc 1 521 0 is_stmt 0 discriminator 1
 2486 018a 0F2E     		cmp	r6, #15
 2487 018c DEDD     		ble	.L122
 2488              	.LBE90:
 528:..\..\..\liblc3\src/sns.c ****     npulses = 10;
 2489              		.loc 1 528 0 is_stmt 1
 2490 018e 0AAE     		add	r6, sp, #40
 2491              	.LVL417:
 2492 0190 0296     		str	r6, [sp, #8]
 2493 0192 0BAD     		add	r5, sp, #44
 2494 0194 0195     		str	r5, [sp, #4]
 2495 0196 0A23     		movs	r3, #10
 2496 0198 0093     		str	r3, [sp]
 2497 019a 3B00     		movs	r3, r7
 2498 019c 0A22     		movs	r2, #10
 2499 019e 059F     		ldr	r7, [sp, #20]
 2500              	.LVL418:
 2501 01a0 3900     		movs	r1, r7
 2502 01a2 0CA8     		add	r0, sp, #48
 2503 01a4 FFF7FEFF 		bl	add_pulse
 2504              	.LVL419:
 534:..\..\..\liblc3\src/sns.c **** 
 2505              		.loc 1 534 0
 2506 01a8 4022     		movs	r2, #64
 2507 01aa 3900     		movs	r1, r7
 2508 01ac 2000     		movs	r0, r4
 2509 01ae FFF7FEFF 		bl	memcpy
 2510              	.LVL420:
 536:..\..\..\liblc3\src/sns.c **** 
 2511              		.loc 1 536 0
 2512 01b2 2100     		movs	r1, r4
 2513 01b4 2831     		adds	r1, r1, #40
 2514 01b6 0296     		str	r6, [sp, #8]
 2515 01b8 0195     		str	r5, [sp, #4]
 2516 01ba 0123     		movs	r3, #1
 2517 01bc 0093     		str	r3, [sp]
 2518 01be 0023     		movs	r3, #0
 2519 01c0 0622     		movs	r2, #6
 2520 01c2 16A8     		add	r0, sp, #88
 2521 01c4 FFF7FEFF 		bl	add_pulse
ARM GAS  C:\Users\rdn\AppData\Local\Temp\ccFEeGTH.s 			page 63


 2522              	.LVL421:
 2523              	.LBB91:
 540:..\..\..\liblc3\src/sns.c ****         for (int i = 0; i < 4; i++)
 2524              		.loc 1 540 0
 2525 01c8 0027     		movs	r7, #0
 2526 01ca 18E0     		b	.L123
 2527              	.LVL422:
 2528              	.L127:
 2529              	.LBB92:
 542:..\..\..\liblc3\src/sns.c **** 
 2530              		.loc 1 542 0
 2531 01cc B501     		lsls	r5, r6, #6
 2532 01ce BB00     		lsls	r3, r7, #2
 2533 01d0 1CAA     		add	r2, sp, #112
 2534 01d2 9858     		ldr	r0, [r3, r2]
 2535 01d4 0021     		movs	r1, #0
 2536 01d6 FFF7FEFF 		bl	__aeabi_fcmplt
 2537              	.LVL423:
 2538 01da 0028     		cmp	r0, #0
 2539 01dc 04D0     		beq	.L144
 542:..\..\..\liblc3\src/sns.c **** 
 2540              		.loc 1 542 0 is_stmt 0 discriminator 1
 2541 01de 6319     		adds	r3, r4, r5
 2542 01e0 BA00     		lsls	r2, r7, #2
 2543 01e2 D258     		ldr	r2, [r2, r3]
 2544 01e4 5242     		rsbs	r2, r2, #0
 2545 01e6 02E0     		b	.L126
 2546              	.L144:
 542:..\..\..\liblc3\src/sns.c **** 
 2547              		.loc 1 542 0 discriminator 2
 2548 01e8 6319     		adds	r3, r4, r5
 2549 01ea BA00     		lsls	r2, r7, #2
 2550 01ec D258     		ldr	r2, [r2, r3]
 2551              	.L126:
 542:..\..\..\liblc3\src/sns.c **** 
 2552              		.loc 1 542 0 discriminator 4
 2553 01ee B900     		lsls	r1, r7, #2
 2554 01f0 CA50     		str	r2, [r1, r3]
 541:..\..\..\liblc3\src/sns.c ****             c[i][j] = x[j] < 0 ? -c[i][j] : c[i][j];
 2555              		.loc 1 541 0 is_stmt 1 discriminator 4
 2556 01f2 0136     		adds	r6, r6, #1
 2557              	.LVL424:
 2558 01f4 00E0     		b	.L128
 2559              	.LVL425:
 2560              	.L140:
 2561              	.LBE92:
 2562 01f6 0026     		movs	r6, #0
 2563              	.L128:
 2564              	.LVL426:
 2565              	.LBB93:
 541:..\..\..\liblc3\src/sns.c ****             c[i][j] = x[j] < 0 ? -c[i][j] : c[i][j];
 2566              		.loc 1 541 0 is_stmt 0 discriminator 2
 2567 01f8 032E     		cmp	r6, #3
 2568 01fa E7DD     		ble	.L127
 2569              	.LBE93:
 540:..\..\..\liblc3\src/sns.c ****         for (int i = 0; i < 4; i++)
 2570              		.loc 1 540 0 is_stmt 1 discriminator 2
ARM GAS  C:\Users\rdn\AppData\Local\Temp\ccFEeGTH.s 			page 64


 2571 01fc 0137     		adds	r7, r7, #1
 2572              	.LVL427:
 2573              	.L123:
 540:..\..\..\liblc3\src/sns.c ****         for (int i = 0; i < 4; i++)
 2574              		.loc 1 540 0 is_stmt 0 discriminator 1
 2575 01fe 0F2F     		cmp	r7, #15
 2576 0200 F9DD     		ble	.L140
 2577 0202 0025     		movs	r5, #0
 2578 0204 4646     		mov	r6, r8
 2579 0206 05E0     		b	.L129
 2580              	.LVL428:
 2581              	.L130:
 2582              	.LBE91:
 2583              	.LBB94:
 545:..\..\..\liblc3\src/sns.c **** 
 2584              		.loc 1 545 0 is_stmt 1 discriminator 3
 2585 0208 A801     		lsls	r0, r5, #6
 2586 020a 3118     		adds	r1, r6, r0
 2587 020c 2018     		adds	r0, r4, r0
 2588 020e FFF7FEFF 		bl	normalize
 2589              	.LVL429:
 544:..\..\..\liblc3\src/sns.c ****         normalize(c[i], cn[i]);
 2590              		.loc 1 544 0 discriminator 3
 2591 0212 0135     		adds	r5, r5, #1
 2592              	.LVL430:
 2593              	.L129:
 544:..\..\..\liblc3\src/sns.c ****         normalize(c[i], cn[i]);
 2594              		.loc 1 544 0 is_stmt 0 discriminator 1
 2595 0214 032D     		cmp	r5, #3
 2596 0216 F7DD     		ble	.L130
 2597              	.LVL431:
 2598              	.LBE94:
 551:..\..\..\liblc3\src/sns.c **** 
 2599              		.loc 1 551 0 is_stmt 1
 2600 0218 0023     		movs	r3, #0
 2601 021a 489A     		ldr	r2, [sp, #288]
 2602 021c 1360     		str	r3, [r2]
 2603 021e 479A     		ldr	r2, [sp, #284]
 2604 0220 1360     		str	r3, [r2]
 2605              	.LVL432:
 2606              	.LBB95:
 553:..\..\..\liblc3\src/sns.c ****         const struct lc3_sns_vq_gains *cgains = lc3_sns_vq_gains + ic;
 2607              		.loc 1 553 0
 2608 0222 9946     		mov	r9, r3
 2609              	.LBE95:
 550:..\..\..\liblc3\src/sns.c ****     *shape_idx = *gain_idx = 0;
 2610              		.loc 1 550 0
 2611 0224 FF23     		movs	r3, #255
 2612 0226 DB05     		lsls	r3, r3, #23
 2613 0228 0993     		str	r3, [sp, #36]
 2614 022a 3700     		movs	r7, r6
 2615              	.LVL433:
 2616              	.LBB102:
 553:..\..\..\liblc3\src/sns.c ****         const struct lc3_sns_vq_gains *cgains = lc3_sns_vq_gains + ic;
 2617              		.loc 1 553 0
 2618 022c 54E0     		b	.L131
 2619              	.LVL434:
ARM GAS  C:\Users\rdn\AppData\Local\Temp\ccFEeGTH.s 			page 65


 2620              	.L139:
 2621              	.LBB96:
 554:..\..\..\liblc3\src/sns.c ****         float cmse_min = INFINITY;
 2622              		.loc 1 554 0
 2623 022e 4B46     		mov	r3, r9
 2624              	.LVL435:
 2625 0230 DB00     		lsls	r3, r3, #3
 2626 0232 324A     		ldr	r2, .L145+16
 2627 0234 9B46     		mov	fp, r3
 2628 0236 9344     		add	fp, fp, r2
 2629              	.LVL436:
 2630              	.LBB97:
 558:..\..\..\liblc3\src/sns.c ****             float g = cgains->v[ig];
 2631              		.loc 1 558 0
 2632 0238 0023     		movs	r3, #0
 2633 023a 9A46     		mov	r10, r3
 2634              	.LBE97:
 556:..\..\..\liblc3\src/sns.c **** 
 2635              		.loc 1 556 0
 2636 023c 0893     		str	r3, [sp, #32]
 555:..\..\..\liblc3\src/sns.c ****         int cgain_idx = 0;
 2637              		.loc 1 555 0
 2638 023e FF23     		movs	r3, #255
 2639 0240 DB05     		lsls	r3, r3, #23
 2640 0242 0793     		str	r3, [sp, #28]
 2641 0244 3E00     		movs	r6, r7
 2642 0246 4F46     		mov	r7, r9
 2643              	.LBB101:
 558:..\..\..\liblc3\src/sns.c ****             float g = cgains->v[ig];
 2644              		.loc 1 558 0
 2645 0248 30E0     		b	.L132
 2646              	.LVL437:
 2647              	.L136:
 2648              	.LBB98:
 559:..\..\..\liblc3\src/sns.c **** 
 2649              		.loc 1 559 0
 2650 024a 5346     		mov	r3, r10
 2651 024c 9B00     		lsls	r3, r3, #2
 2652 024e 5A46     		mov	r2, fp
 2653 0250 5268     		ldr	r2, [r2, #4]
 2654 0252 D358     		ldr	r3, [r2, r3]
 2655 0254 0693     		str	r3, [sp, #24]
 2656              	.LVL438:
 2657              	.LBB99:
 562:..\..\..\liblc3\src/sns.c ****                 mse += (x[i] - g * cn[ic][i]) * (x[i] - g * cn[ic][i]);
 2658              		.loc 1 562 0
 2659 0256 0024     		movs	r4, #0
 2660              	.LBE99:
 561:..\..\..\liblc3\src/sns.c ****             for (int i = 0; i < 16; i++)
 2661              		.loc 1 561 0
 2662 0258 0023     		movs	r3, #0
 2663              	.LVL439:
 2664 025a 0593     		str	r3, [sp, #20]
 2665 025c 3500     		movs	r5, r6
 2666              	.LBB100:
 562:..\..\..\liblc3\src/sns.c ****                 mse += (x[i] - g * cn[ic][i]) * (x[i] - g * cn[ic][i]);
 2667              		.loc 1 562 0
ARM GAS  C:\Users\rdn\AppData\Local\Temp\ccFEeGTH.s 			page 66


 2668 025e 15E0     		b	.L133
 2669              	.LVL440:
 2670              	.L134:
 563:..\..\..\liblc3\src/sns.c **** 
 2671              		.loc 1 563 0 discriminator 3
 2672 0260 A200     		lsls	r2, r4, #2
 2673 0262 1CAB     		add	r3, sp, #112
 2674 0264 D658     		ldr	r6, [r2, r3]
 2675 0266 BB01     		lsls	r3, r7, #6
 2676 0268 EB18     		adds	r3, r5, r3
 2677 026a D158     		ldr	r1, [r2, r3]
 2678 026c 0698     		ldr	r0, [sp, #24]
 2679 026e FFF7FEFF 		bl	__aeabi_fmul
 2680              	.LVL441:
 2681 0272 011C     		adds	r1, r0, #0
 2682 0274 301C     		adds	r0, r6, #0
 2683 0276 FFF7FEFF 		bl	__aeabi_fsub
 2684              	.LVL442:
 2685 027a 011C     		adds	r1, r0, #0
 2686 027c FFF7FEFF 		bl	__aeabi_fmul
 2687              	.LVL443:
 2688 0280 011C     		adds	r1, r0, #0
 2689 0282 0598     		ldr	r0, [sp, #20]
 2690 0284 FFF7FEFF 		bl	__aeabi_fadd
 2691              	.LVL444:
 2692 0288 0590     		str	r0, [sp, #20]
 2693              	.LVL445:
 562:..\..\..\liblc3\src/sns.c ****                 mse += (x[i] - g * cn[ic][i]) * (x[i] - g * cn[ic][i]);
 2694              		.loc 1 562 0 discriminator 3
 2695 028a 0134     		adds	r4, r4, #1
 2696              	.LVL446:
 2697              	.L133:
 562:..\..\..\liblc3\src/sns.c ****                 mse += (x[i] - g * cn[ic][i]) * (x[i] - g * cn[ic][i]);
 2698              		.loc 1 562 0 is_stmt 0 discriminator 1
 2699 028c 0F2C     		cmp	r4, #15
 2700 028e E7DD     		ble	.L134
 2701 0290 2E00     		movs	r6, r5
 2702              	.LBE100:
 565:..\..\..\liblc3\src/sns.c ****                 cgain_idx = ig,
 2703              		.loc 1 565 0 is_stmt 1
 2704 0292 059C     		ldr	r4, [sp, #20]
 2705              	.LVL447:
 2706 0294 211C     		adds	r1, r4, #0
 2707 0296 0798     		ldr	r0, [sp, #28]
 2708 0298 FFF7FEFF 		bl	__aeabi_fcmpgt
 2709              	.LVL448:
 2710 029c 0028     		cmp	r0, #0
 2711 029e 02D0     		beq	.L135
 566:..\..\..\liblc3\src/sns.c ****                 cmse_min = mse;
 2712              		.loc 1 566 0
 2713 02a0 5346     		mov	r3, r10
 2714 02a2 0893     		str	r3, [sp, #32]
 2715              	.LVL449:
 567:..\..\..\liblc3\src/sns.c ****             }
 2716              		.loc 1 567 0
 2717 02a4 0794     		str	r4, [sp, #28]
 2718              	.LVL450:
ARM GAS  C:\Users\rdn\AppData\Local\Temp\ccFEeGTH.s 			page 67


 2719              	.L135:
 2720              	.LBE98:
 558:..\..\..\liblc3\src/sns.c ****             float g = cgains->v[ig];
 2721              		.loc 1 558 0 discriminator 2
 2722 02a6 0123     		movs	r3, #1
 2723 02a8 9C46     		mov	ip, r3
 2724 02aa E244     		add	r10, r10, ip
 2725              	.LVL451:
 2726              	.L132:
 558:..\..\..\liblc3\src/sns.c ****             float g = cgains->v[ig];
 2727              		.loc 1 558 0 is_stmt 0 discriminator 1
 2728 02ac 5B46     		mov	r3, fp
 2729 02ae 1B68     		ldr	r3, [r3]
 2730 02b0 9A45     		cmp	r10, r3
 2731 02b2 CADB     		blt	.L136
 2732 02b4 3700     		movs	r7, r6
 2733              	.LVL452:
 2734              	.LBE101:
 571:..\..\..\liblc3\src/sns.c ****             *shape_idx = ic, *gain_idx = cgain_idx;
 2735              		.loc 1 571 0 is_stmt 1
 2736 02b6 079C     		ldr	r4, [sp, #28]
 2737 02b8 211C     		adds	r1, r4, #0
 2738 02ba 0998     		ldr	r0, [sp, #36]
 2739 02bc FFF7FEFF 		bl	__aeabi_fcmpgt
 2740              	.LVL453:
 2741 02c0 0028     		cmp	r0, #0
 2742 02c2 06D0     		beq	.L137
 572:..\..\..\liblc3\src/sns.c ****             mse_min = cmse_min;
 2743              		.loc 1 572 0
 2744 02c4 479B     		ldr	r3, [sp, #284]
 2745 02c6 4A46     		mov	r2, r9
 2746 02c8 1A60     		str	r2, [r3]
 2747 02ca 489B     		ldr	r3, [sp, #288]
 2748 02cc 089A     		ldr	r2, [sp, #32]
 2749 02ce 1A60     		str	r2, [r3]
 2750              	.LVL454:
 573:..\..\..\liblc3\src/sns.c ****         }
 2751              		.loc 1 573 0
 2752 02d0 0994     		str	r4, [sp, #36]
 2753              	.LVL455:
 2754              	.L137:
 2755              	.LBE96:
 553:..\..\..\liblc3\src/sns.c ****         const struct lc3_sns_vq_gains *cgains = lc3_sns_vq_gains + ic;
 2756              		.loc 1 553 0 discriminator 2
 2757 02d2 4B46     		mov	r3, r9
 2758 02d4 0133     		adds	r3, r3, #1
 2759 02d6 9946     		mov	r9, r3
 2760              	.LVL456:
 2761              	.L131:
 553:..\..\..\liblc3\src/sns.c ****         const struct lc3_sns_vq_gains *cgains = lc3_sns_vq_gains + ic;
 2762              		.loc 1 553 0 is_stmt 0 discriminator 1
 2763 02d8 4B46     		mov	r3, r9
 2764 02da 032B     		cmp	r3, #3
 2765 02dc A7DD     		ble	.L139
 2766              	.LBE102:
 576:..\..\..\liblc3\src/sns.c **** 
 2767              		.loc 1 576 0 is_stmt 1
ARM GAS  C:\Users\rdn\AppData\Local\Temp\ccFEeGTH.s 			page 68


 2768 02de 3DB0     		add	sp, sp, #244
 2769              		@ sp needed
 2770              	.LVL457:
 2771 02e0 3CBC     		pop	{r2, r3, r4, r5}
 2772 02e2 9046     		mov	r8, r2
 2773 02e4 9946     		mov	r9, r3
 2774 02e6 A246     		mov	r10, r4
 2775 02e8 AB46     		mov	fp, r5
 2776 02ea F0BD     		pop	{r4, r5, r6, r7, pc}
 2777              	.L146:
 2778              		.align	2
 2779              	.L145:
 2780 02ec 00000000 		.word	lc3_sns_lfcb
 2781 02f0 00000000 		.word	lc3_sns_hfcb
 2782 02f4 B3CE010C 		.word	201445043
 2783 02f8 0000A040 		.word	1084227584
 2784 02fc 00000000 		.word	lc3_sns_vq_gains
 2785              		.cfi_endproc
 2786              	.LFE26:
 2787              		.size	quantize, .-quantize
 2788              		.section	.text.spectral_shaping,"ax",%progbits
 2789              		.align	2
 2790              		.code	16
 2791              		.thumb_func
 2792              		.type	spectral_shaping, %function
 2793              	spectral_shaping:
 2794              	.LFB32:
 685:..\..\..\liblc3\src/sns.c **** 
 686:..\..\..\liblc3\src/sns.c **** /**
 687:..\..\..\liblc3\src/sns.c ****  * SNS Deenumeration of PVQ configuration
 688:..\..\..\liblc3\src/sns.c ****  * shape           Selected shape index
 689:..\..\..\liblc3\src/sns.c ****  * idx_a, ls_a     enumeration set A
 690:..\..\..\liblc3\src/sns.c ****  * idx_b, ls_b     enumeration set B (shape = 0)
 691:..\..\..\liblc3\src/sns.c ****  * c               Return pulse configuration
 692:..\..\..\liblc3\src/sns.c ****  */
 693:..\..\..\liblc3\src/sns.c **** static void deenumerate(int shape,
 694:..\..\..\liblc3\src/sns.c ****     int idx_a, bool ls_a, int idx_b, bool ls_b, int *c)
 695:..\..\..\liblc3\src/sns.c **** {
 696:..\..\..\liblc3\src/sns.c ****     int npulses_a = (const int []){ 10, 10, 8, 6 }[shape];
 697:..\..\..\liblc3\src/sns.c **** 
 698:..\..\..\liblc3\src/sns.c ****     deenum_mvpq(idx_a, ls_a, npulses_a, c, shape < 2 ? 10 : 16);
 699:..\..\..\liblc3\src/sns.c **** 
 700:..\..\..\liblc3\src/sns.c ****     if (shape == 0)
 701:..\..\..\liblc3\src/sns.c ****         deenum_mvpq(idx_b, ls_b, 1, c + 10, 6);
 702:..\..\..\liblc3\src/sns.c ****     else if (shape == 1)
 703:..\..\..\liblc3\src/sns.c ****         memset(c + 10, 0, 6 * sizeof(*c));
 704:..\..\..\liblc3\src/sns.c **** }
 705:..\..\..\liblc3\src/sns.c **** 
 706:..\..\..\liblc3\src/sns.c **** 
 707:..\..\..\liblc3\src/sns.c **** /* ----------------------------------------------------------------------------
 708:..\..\..\liblc3\src/sns.c ****  *  Filtering
 709:..\..\..\liblc3\src/sns.c ****  * -------------------------------------------------------------------------- */
 710:..\..\..\liblc3\src/sns.c **** 
 711:..\..\..\liblc3\src/sns.c **** /**
 712:..\..\..\liblc3\src/sns.c ****  * Spectral shaping
 713:..\..\..\liblc3\src/sns.c ****  * dt, sr          Duration and samplerate of the frame
 714:..\..\..\liblc3\src/sns.c ****  * scf_q           Quantized scale factors
ARM GAS  C:\Users\rdn\AppData\Local\Temp\ccFEeGTH.s 			page 69


 715:..\..\..\liblc3\src/sns.c ****  * inv             True on inverse shaping, False otherwise
 716:..\..\..\liblc3\src/sns.c ****  * x               Spectral coefficients
 717:..\..\..\liblc3\src/sns.c ****  * y               Return shapped coefficients
 718:..\..\..\liblc3\src/sns.c ****  *
 719:..\..\..\liblc3\src/sns.c ****  * `x` and `y` can be the same buffer
 720:..\..\..\liblc3\src/sns.c ****  */
 721:..\..\..\liblc3\src/sns.c **** LC3_HOT static void spectral_shaping(enum lc3_dt dt, enum lc3_srate sr,
 722:..\..\..\liblc3\src/sns.c ****     const float *scf_q, bool inv, const float *x, float *y)
 723:..\..\..\liblc3\src/sns.c **** {
 2795              		.loc 1 723 0
 2796              		.cfi_startproc
 2797              		@ args = 8, pretend = 0, frame = 280
 2798              		@ frame_needed = 0, uses_anonymous_args = 0
 2799              	.LVL458:
 2800 0000 F0B5     		push	{r4, r5, r6, r7, lr}
 2801              		.cfi_def_cfa_offset 20
 2802              		.cfi_offset 4, -20
 2803              		.cfi_offset 5, -16
 2804              		.cfi_offset 6, -12
 2805              		.cfi_offset 7, -8
 2806              		.cfi_offset 14, -4
 2807 0002 5F46     		mov	r7, fp
 2808 0004 5646     		mov	r6, r10
 2809 0006 4D46     		mov	r5, r9
 2810 0008 4446     		mov	r4, r8
 2811 000a F0B4     		push	{r4, r5, r6, r7}
 2812              		.cfi_def_cfa_offset 36
 2813              		.cfi_offset 8, -36
 2814              		.cfi_offset 9, -32
 2815              		.cfi_offset 10, -28
 2816              		.cfi_offset 11, -24
 2817 000c C7B0     		sub	sp, sp, #284
 2818              		.cfi_def_cfa_offset 320
 2819 000e 0290     		str	r0, [sp, #8]
 2820 0010 0391     		str	r1, [sp, #12]
 2821 0012 9146     		mov	r9, r2
 2822 0014 191E     		subs	r1, r3, #0
 2823              	.LVL459:
 2824 0016 509A     		ldr	r2, [sp, #320]
 2825              	.LVL460:
 2826 0018 9346     		mov	fp, r2
 2827 001a 519A     		ldr	r2, [sp, #324]
 2828 001c 9046     		mov	r8, r2
 724:..\..\..\liblc3\src/sns.c ****     /* --- Interpolate scale factors --- */
 725:..\..\..\liblc3\src/sns.c **** 
 726:..\..\..\liblc3\src/sns.c ****     float scf[LC3_MAX_BANDS];
 727:..\..\..\liblc3\src/sns.c ****     float s0, s1 = inv ? -scf_q[0] : scf_q[0];
 2829              		.loc 1 727 0
 2830 001e 07D0     		beq	.L148
 2831              		.loc 1 727 0 is_stmt 0 discriminator 1
 2832 0020 4B46     		mov	r3, r9
 2833              	.LVL461:
 2834 0022 1B68     		ldr	r3, [r3]
 2835 0024 8022     		movs	r2, #128
 2836 0026 1206     		lsls	r2, r2, #24
 2837 0028 9446     		mov	ip, r2
 2838 002a 6344     		add	r3, r3, ip
ARM GAS  C:\Users\rdn\AppData\Local\Temp\ccFEeGTH.s 			page 70


 2839 002c 0093     		str	r3, [sp]
 2840 002e 02E0     		b	.L149
 2841              	.LVL462:
 2842              	.L148:
 2843              		.loc 1 727 0 discriminator 2
 2844 0030 4B46     		mov	r3, r9
 2845              	.LVL463:
 2846 0032 1B68     		ldr	r3, [r3]
 2847 0034 0093     		str	r3, [sp]
 2848              	.L149:
 2849              	.LVL464:
 728:..\..\..\liblc3\src/sns.c **** 
 729:..\..\..\liblc3\src/sns.c ****     scf[0] = scf[1] = s1;
 2850              		.loc 1 729 0 is_stmt 1 discriminator 4
 2851 0036 009B     		ldr	r3, [sp]
 2852 0038 0793     		str	r3, [sp, #28]
 2853 003a 0693     		str	r3, [sp, #24]
 2854              	.LVL465:
 2855              	.LBB110:
 730:..\..\..\liblc3\src/sns.c ****     for (int i = 0; i < 15; i++) {
 2856              		.loc 1 730 0 discriminator 4
 2857 003c 0025     		movs	r5, #0
 2858 003e 2F00     		movs	r7, r5
 2859 0040 8A46     		mov	r10, r1
 2860 0042 5B46     		mov	r3, fp
 2861 0044 5093     		str	r3, [sp, #320]
 2862              	.LVL466:
 2863 0046 4346     		mov	r3, r8
 2864 0048 5193     		str	r3, [sp, #324]
 2865              	.LVL467:
 2866 004a 4BE0     		b	.L150
 2867              	.LVL468:
 2868              	.L153:
 731:..\..\..\liblc3\src/sns.c ****         s0 = s1, s1 = inv ? -scf_q[i+1] : scf_q[i+1];
 2869              		.loc 1 731 0
 2870 004c 5346     		mov	r3, r10
 2871 004e 002B     		cmp	r3, #0
 2872 0050 08D0     		beq	.L151
 2873              		.loc 1 731 0 is_stmt 0 discriminator 1
 2874 0052 7B1C     		adds	r3, r7, #1
 2875 0054 9B00     		lsls	r3, r3, #2
 2876 0056 4A46     		mov	r2, r9
 2877 0058 9D58     		ldr	r5, [r3, r2]
 2878 005a 8023     		movs	r3, #128
 2879 005c 1B06     		lsls	r3, r3, #24
 2880 005e 9C46     		mov	ip, r3
 2881 0060 6544     		add	r5, r5, ip
 2882 0062 03E0     		b	.L152
 2883              	.L151:
 2884              		.loc 1 731 0 discriminator 2
 2885 0064 7B1C     		adds	r3, r7, #1
 2886 0066 9B00     		lsls	r3, r3, #2
 2887 0068 4A46     		mov	r2, r9
 2888 006a D558     		ldr	r5, [r2, r3]
 2889              	.LVL469:
 2890              	.L152:
 732:..\..\..\liblc3\src/sns.c ****         scf[4*i+2] = s0 + 0.125f * (s1 - s0);
ARM GAS  C:\Users\rdn\AppData\Local\Temp\ccFEeGTH.s 			page 71


 2891              		.loc 1 732 0 is_stmt 1 discriminator 4
 2892 006c BE00     		lsls	r6, r7, #2
 2893 006e B31C     		adds	r3, r6, #2
 2894 0070 9B46     		mov	fp, r3
 2895 0072 009C     		ldr	r4, [sp]
 2896 0074 211C     		adds	r1, r4, #0
 2897 0076 281C     		adds	r0, r5, #0
 2898 0078 FFF7FEFF 		bl	__aeabi_fsub
 2899              	.LVL470:
 2900 007c F821     		movs	r1, #248
 2901 007e 8905     		lsls	r1, r1, #22
 2902 0080 0190     		str	r0, [sp, #4]
 2903 0082 FFF7FEFF 		bl	__aeabi_fmul
 2904              	.LVL471:
 2905 0086 011C     		adds	r1, r0, #0
 2906 0088 0094     		str	r4, [sp]
 2907              	.LVL472:
 2908 008a 201C     		adds	r0, r4, #0
 2909 008c FFF7FEFF 		bl	__aeabi_fadd
 2910              	.LVL473:
 2911 0090 06AC     		add	r4, sp, #24
 2912 0092 5B46     		mov	r3, fp
 2913 0094 9B00     		lsls	r3, r3, #2
 2914 0096 1851     		str	r0, [r3, r4]
 733:..\..\..\liblc3\src/sns.c ****         scf[4*i+3] = s0 + 0.375f * (s1 - s0);
 2915              		.loc 1 733 0 discriminator 4
 2916 0098 F31C     		adds	r3, r6, #3
 2917 009a 9B46     		mov	fp, r3
 2918 009c FB21     		movs	r1, #251
 2919 009e 8905     		lsls	r1, r1, #22
 2920 00a0 0198     		ldr	r0, [sp, #4]
 2921 00a2 FFF7FEFF 		bl	__aeabi_fmul
 2922              	.LVL474:
 2923 00a6 011C     		adds	r1, r0, #0
 2924 00a8 0098     		ldr	r0, [sp]
 2925 00aa FFF7FEFF 		bl	__aeabi_fadd
 2926              	.LVL475:
 2927 00ae 5B46     		mov	r3, fp
 2928 00b0 9B00     		lsls	r3, r3, #2
 2929 00b2 1851     		str	r0, [r3, r4]
 734:..\..\..\liblc3\src/sns.c ****         scf[4*i+4] = s0 + 0.625f * (s1 - s0);
 2930              		.loc 1 734 0 discriminator 4
 2931 00b4 0137     		adds	r7, r7, #1
 2932              	.LVL476:
 2933 00b6 8349     		ldr	r1, .L166
 2934 00b8 0198     		ldr	r0, [sp, #4]
 2935 00ba FFF7FEFF 		bl	__aeabi_fmul
 2936              	.LVL477:
 2937 00be 011C     		adds	r1, r0, #0
 2938 00c0 0098     		ldr	r0, [sp]
 2939 00c2 FFF7FEFF 		bl	__aeabi_fadd
 2940              	.LVL478:
 2941 00c6 3B01     		lsls	r3, r7, #4
 2942 00c8 1851     		str	r0, [r3, r4]
 735:..\..\..\liblc3\src/sns.c ****         scf[4*i+5] = s0 + 0.875f * (s1 - s0);
 2943              		.loc 1 735 0 discriminator 4
 2944 00ca 0536     		adds	r6, r6, #5
ARM GAS  C:\Users\rdn\AppData\Local\Temp\ccFEeGTH.s 			page 72


 2945 00cc 7E49     		ldr	r1, .L166+4
 2946 00ce 0198     		ldr	r0, [sp, #4]
 2947 00d0 FFF7FEFF 		bl	__aeabi_fmul
 2948              	.LVL479:
 2949 00d4 011C     		adds	r1, r0, #0
 2950 00d6 0098     		ldr	r0, [sp]
 2951 00d8 FFF7FEFF 		bl	__aeabi_fadd
 2952              	.LVL480:
 2953 00dc B300     		lsls	r3, r6, #2
 2954 00de 1851     		str	r0, [r3, r4]
 2955              	.LVL481:
 731:..\..\..\liblc3\src/sns.c ****         scf[4*i+2] = s0 + 0.125f * (s1 - s0);
 2956              		.loc 1 731 0 discriminator 4
 2957 00e0 009C     		ldr	r4, [sp]
 2958 00e2 0095     		str	r5, [sp]
 2959              	.LVL482:
 2960              	.L150:
 730:..\..\..\liblc3\src/sns.c ****         s0 = s1, s1 = inv ? -scf_q[i+1] : scf_q[i+1];
 2961              		.loc 1 730 0 discriminator 2
 2962 00e4 0E2F     		cmp	r7, #14
 2963 00e6 B1DD     		ble	.L153
 2964 00e8 509B     		ldr	r3, [sp, #320]
 2965 00ea 9B46     		mov	fp, r3
 2966 00ec 519B     		ldr	r3, [sp, #324]
 2967 00ee 9846     		mov	r8, r3
 2968              	.LBE110:
 736:..\..\..\liblc3\src/sns.c ****     }
 737:..\..\..\liblc3\src/sns.c ****     scf[62] = s1 + 0.125f * (s1 - s0);
 2969              		.loc 1 737 0
 2970 00f0 211C     		adds	r1, r4, #0
 2971 00f2 009D     		ldr	r5, [sp]
 2972 00f4 281C     		adds	r0, r5, #0
 2973 00f6 FFF7FEFF 		bl	__aeabi_fsub
 2974              	.LVL483:
 2975 00fa 041C     		adds	r4, r0, #0
 2976              	.LVL484:
 2977 00fc F821     		movs	r1, #248
 2978 00fe 8905     		lsls	r1, r1, #22
 2979 0100 FFF7FEFF 		bl	__aeabi_fmul
 2980              	.LVL485:
 2981 0104 011C     		adds	r1, r0, #0
 2982 0106 281C     		adds	r0, r5, #0
 2983 0108 FFF7FEFF 		bl	__aeabi_fadd
 2984              	.LVL486:
 2985 010c F823     		movs	r3, #248
 2986 010e 04AA     		add	r2, sp, #16
 2987 0110 0821     		movs	r1, #8
 2988 0112 5218     		adds	r2, r2, r1
 2989 0114 D050     		str	r0, [r2, r3]
 738:..\..\..\liblc3\src/sns.c ****     scf[63] = s1 + 0.375f * (s1 - s0);
 2990              		.loc 1 738 0
 2991 0116 FB21     		movs	r1, #251
 2992 0118 8905     		lsls	r1, r1, #22
 2993 011a 201C     		adds	r0, r4, #0
 2994 011c FFF7FEFF 		bl	__aeabi_fmul
 2995              	.LVL487:
 2996 0120 011C     		adds	r1, r0, #0
ARM GAS  C:\Users\rdn\AppData\Local\Temp\ccFEeGTH.s 			page 73


 2997 0122 281C     		adds	r0, r5, #0
 2998 0124 FFF7FEFF 		bl	__aeabi_fadd
 2999              	.LVL488:
 3000 0128 FC23     		movs	r3, #252
 3001 012a 04AA     		add	r2, sp, #16
 3002 012c 0821     		movs	r1, #8
 3003 012e 5218     		adds	r2, r2, r1
 3004 0130 D050     		str	r0, [r2, r3]
 739:..\..\..\liblc3\src/sns.c **** 
 740:..\..\..\liblc3\src/sns.c ****     int nb = lc3_num_bands[dt][sr];
 3005              		.loc 1 740 0
 3006 0132 029A     		ldr	r2, [sp, #8]
 3007 0134 D300     		lsls	r3, r2, #3
 3008 0136 9B1A     		subs	r3, r3, r2
 3009 0138 039A     		ldr	r2, [sp, #12]
 3010 013a 9446     		mov	ip, r2
 3011 013c 6344     		add	r3, r3, ip
 3012 013e 9B00     		lsls	r3, r3, #2
 3013 0140 624A     		ldr	r2, .L166+8
 3014 0142 9B58     		ldr	r3, [r3, r2]
 3015 0144 9946     		mov	r9, r3
 3016              	.LVL489:
 741:..\..\..\liblc3\src/sns.c ****     int n4 = nb < 32 ? 32 % nb : 0;
 3017              		.loc 1 741 0
 3018 0146 1F2B     		cmp	r3, #31
 3019 0148 05DC     		bgt	.L165
 3020              		.loc 1 741 0 is_stmt 0 discriminator 1
 3021 014a 1900     		movs	r1, r3
 3022 014c 2020     		movs	r0, #32
 3023 014e FFF7FEFF 		bl	__aeabi_idivmod
 3024              	.LVL490:
 3025 0152 0D00     		movs	r5, r1
 3026 0154 00E0     		b	.L154
 3027              	.LVL491:
 3028              	.L165:
 3029              		.loc 1 741 0
 3030 0156 0025     		movs	r5, #0
 3031              	.LVL492:
 3032              	.L154:
 742:..\..\..\liblc3\src/sns.c ****     int n2 = nb < 32 ? nb - n4 : LC3_MAX_BANDS - nb;
 3033              		.loc 1 742 0 is_stmt 1 discriminator 4
 3034 0158 4B46     		mov	r3, r9
 3035 015a 1F2B     		cmp	r3, #31
 3036 015c 02DC     		bgt	.L155
 3037              	.LVL493:
 3038              		.loc 1 742 0 is_stmt 0 discriminator 1
 3039 015e 5B1B     		subs	r3, r3, r5
 3040              	.LVL494:
 3041 0160 9A46     		mov	r10, r3
 3042 0162 03E0     		b	.L156
 3043              	.LVL495:
 3044              	.L155:
 3045              		.loc 1 742 0 discriminator 2
 3046 0164 4027     		movs	r7, #64
 3047              	.LVL496:
 3048 0166 4B46     		mov	r3, r9
 3049              	.LVL497:
ARM GAS  C:\Users\rdn\AppData\Local\Temp\ccFEeGTH.s 			page 74


 3050 0168 FB1A     		subs	r3, r7, r3
 3051 016a 9A46     		mov	r10, r3
 3052              	.L156:
 3053              	.LVL498:
 3054              	.LBB111:
 743:..\..\..\liblc3\src/sns.c **** 
 744:..\..\..\liblc3\src/sns.c ****     for (int i4 = 0; i4 < n4; i4++)
 3055              		.loc 1 744 0 is_stmt 1 discriminator 4
 3056 016c 0026     		movs	r6, #0
 3057 016e 18E0     		b	.L157
 3058              	.LVL499:
 3059              	.L158:
 745:..\..\..\liblc3\src/sns.c ****         scf[i4] = 0.25f * (scf[4*i4+0] + scf[4*i4+1] +
 3060              		.loc 1 745 0 discriminator 3
 3061 0170 B700     		lsls	r7, r6, #2
 3062 0172 06AC     		add	r4, sp, #24
 3063 0174 3301     		lsls	r3, r6, #4
 3064 0176 1859     		ldr	r0, [r3, r4]
 3065 0178 7B1C     		adds	r3, r7, #1
 3066 017a 9B00     		lsls	r3, r3, #2
 3067 017c 1959     		ldr	r1, [r3, r4]
 3068 017e FFF7FEFF 		bl	__aeabi_fadd
 3069              	.LVL500:
 746:..\..\..\liblc3\src/sns.c ****                            scf[4*i4+2] + scf[4*i4+3]);
 3070              		.loc 1 746 0 discriminator 3
 3071 0182 BB1C     		adds	r3, r7, #2
 3072 0184 9B00     		lsls	r3, r3, #2
 3073 0186 1959     		ldr	r1, [r3, r4]
 745:..\..\..\liblc3\src/sns.c ****         scf[i4] = 0.25f * (scf[4*i4+0] + scf[4*i4+1] +
 3074              		.loc 1 745 0 discriminator 3
 3075 0188 FFF7FEFF 		bl	__aeabi_fadd
 3076              	.LVL501:
 3077              		.loc 1 746 0 discriminator 3
 3078 018c FB1C     		adds	r3, r7, #3
 3079 018e 9B00     		lsls	r3, r3, #2
 3080 0190 1959     		ldr	r1, [r3, r4]
 3081 0192 FFF7FEFF 		bl	__aeabi_fadd
 3082              	.LVL502:
 745:..\..\..\liblc3\src/sns.c ****         scf[i4] = 0.25f * (scf[4*i4+0] + scf[4*i4+1] +
 3083              		.loc 1 745 0 discriminator 3
 3084 0196 FA21     		movs	r1, #250
 3085 0198 8905     		lsls	r1, r1, #22
 3086 019a FFF7FEFF 		bl	__aeabi_fmul
 3087              	.LVL503:
 3088 019e 3851     		str	r0, [r7, r4]
 744:..\..\..\liblc3\src/sns.c ****         scf[i4] = 0.25f * (scf[4*i4+0] + scf[4*i4+1] +
 3089              		.loc 1 744 0 discriminator 3
 3090 01a0 0136     		adds	r6, r6, #1
 3091              	.LVL504:
 3092              	.L157:
 744:..\..\..\liblc3\src/sns.c ****         scf[i4] = 0.25f * (scf[4*i4+0] + scf[4*i4+1] +
 3093              		.loc 1 744 0 is_stmt 0 discriminator 1
 3094 01a2 AE42     		cmp	r6, r5
 3095 01a4 E4DB     		blt	.L158
 3096 01a6 2E00     		movs	r6, r5
 3097              	.LVL505:
 3098 01a8 5746     		mov	r7, r10
ARM GAS  C:\Users\rdn\AppData\Local\Temp\ccFEeGTH.s 			page 75


 3099 01aa 10E0     		b	.L159
 3100              	.LVL506:
 3101              	.L160:
 3102              	.LBE111:
 3103              	.LBB112:
 747:..\..\..\liblc3\src/sns.c **** 
 748:..\..\..\liblc3\src/sns.c ****     for (int i2 = n4; i2 < n4+n2; i2++)
 749:..\..\..\liblc3\src/sns.c ****         scf[i2] = 0.5f * (scf[2*(n4+i2)] + scf[2*(n4+i2)+1]);
 3104              		.loc 1 749 0 is_stmt 1 discriminator 3
 3105 01ac 7219     		adds	r2, r6, r5
 3106 01ae 5300     		lsls	r3, r2, #1
 3107 01b0 06AC     		add	r4, sp, #24
 3108 01b2 D200     		lsls	r2, r2, #3
 3109 01b4 1059     		ldr	r0, [r2, r4]
 3110 01b6 0133     		adds	r3, r3, #1
 3111 01b8 9B00     		lsls	r3, r3, #2
 3112 01ba 1959     		ldr	r1, [r3, r4]
 3113 01bc FFF7FEFF 		bl	__aeabi_fadd
 3114              	.LVL507:
 3115 01c0 FC21     		movs	r1, #252
 3116 01c2 8905     		lsls	r1, r1, #22
 3117 01c4 FFF7FEFF 		bl	__aeabi_fmul
 3118              	.LVL508:
 3119 01c8 B300     		lsls	r3, r6, #2
 3120 01ca 1851     		str	r0, [r3, r4]
 748:..\..\..\liblc3\src/sns.c ****         scf[i2] = 0.5f * (scf[2*(n4+i2)] + scf[2*(n4+i2)+1]);
 3121              		.loc 1 748 0 discriminator 3
 3122 01cc 0136     		adds	r6, r6, #1
 3123              	.LVL509:
 3124              	.L159:
 748:..\..\..\liblc3\src/sns.c ****         scf[i2] = 0.5f * (scf[2*(n4+i2)] + scf[2*(n4+i2)+1]);
 3125              		.loc 1 748 0 is_stmt 0 discriminator 1
 3126 01ce EB19     		adds	r3, r5, r7
 3127 01d0 9E42     		cmp	r6, r3
 3128 01d2 EBDB     		blt	.L160
 3129              	.LBE112:
 750:..\..\..\liblc3\src/sns.c **** 
 751:..\..\..\liblc3\src/sns.c ****     memmove(scf + n4 + n2, scf + 4*n4 + 2*n2, (nb - n4 - n2) * sizeof(float));
 3130              		.loc 1 751 0 is_stmt 1
 3131 01d4 E819     		adds	r0, r5, r7
 3132 01d6 8000     		lsls	r0, r0, #2
 3133 01d8 4B46     		mov	r3, r9
 3134 01da 5A1B     		subs	r2, r3, r5
 3135 01dc D21B     		subs	r2, r2, r7
 3136 01de 9200     		lsls	r2, r2, #2
 3137 01e0 2D01     		lsls	r5, r5, #4
 3138              	.LVL510:
 3139 01e2 F900     		lsls	r1, r7, #3
 3140 01e4 6D18     		adds	r5, r5, r1
 3141 01e6 06AB     		add	r3, sp, #24
 3142 01e8 5919     		adds	r1, r3, r5
 3143 01ea 9C46     		mov	ip, r3
 3144 01ec 6044     		add	r0, r0, ip
 3145 01ee FFF7FEFF 		bl	memmove
 3146              	.LVL511:
 752:..\..\..\liblc3\src/sns.c **** 
 753:..\..\..\liblc3\src/sns.c ****     /* --- Spectral shaping --- */
ARM GAS  C:\Users\rdn\AppData\Local\Temp\ccFEeGTH.s 			page 76


 754:..\..\..\liblc3\src/sns.c **** 
 755:..\..\..\liblc3\src/sns.c ****     const int *lim = lc3_band_lim[dt][sr];
 3147              		.loc 1 755 0
 3148 01f2 029A     		ldr	r2, [sp, #8]
 3149 01f4 D300     		lsls	r3, r2, #3
 3150 01f6 9B1A     		subs	r3, r3, r2
 3151 01f8 039A     		ldr	r2, [sp, #12]
 3152 01fa 9446     		mov	ip, r2
 3153 01fc 6344     		add	r3, r3, ip
 3154 01fe 9B00     		lsls	r3, r3, #2
 3155 0200 334A     		ldr	r2, .L166+12
 3156 0202 9F58     		ldr	r7, [r3, r2]
 3157              	.LVL512:
 3158              	.LBB113:
 756:..\..\..\liblc3\src/sns.c **** 
 757:..\..\..\liblc3\src/sns.c ****     for (int i = 0, ib = 0; ib < nb; ib++) {
 3159              		.loc 1 757 0
 3160 0204 0026     		movs	r6, #0
 3161              	.LVL513:
 3162 0206 0024     		movs	r4, #0
 3163 0208 CA46     		mov	r10, r9
 3164              	.LVL514:
 3165 020a 51E0     		b	.L161
 3166              	.LVL515:
 3167              	.L164:
 3168              	.LBB114:
 758:..\..\..\liblc3\src/sns.c ****         float g_sns = lc3_exp2f(-scf[ib]);
 3169              		.loc 1 758 0
 3170 020c B300     		lsls	r3, r6, #2
 3171 020e 06AA     		add	r2, sp, #24
 3172 0210 9D58     		ldr	r5, [r3, r2]
 3173 0212 8023     		movs	r3, #128
 3174 0214 1B06     		lsls	r3, r3, #24
 3175 0216 9C46     		mov	ip, r3
 3176 0218 6544     		add	r5, r5, ip
 3177              	.LVL516:
 3178              	.LBB115:
 3179              	.LBB116:
  98:..\..\..\liblc3\src/fastmath.h ****     int k = v.s;
 3180              		.loc 2 98 0
 3181 021a 2E49     		ldr	r1, .L166+16
 3182 021c 281C     		adds	r0, r5, #0
 3183 021e FFF7FEFF 		bl	__aeabi_fadd
 3184              	.LVL517:
 3185 0222 0590     		str	r0, [sp, #20]
  99:..\..\..\liblc3\src/fastmath.h ****     x -= v.f - 0x1.8p20f;
 3186              		.loc 2 99 0
 3187 0224 059B     		ldr	r3, [sp, #20]
 3188 0226 9946     		mov	r9, r3
 3189              	.LVL518:
 100:..\..\..\liblc3\src/fastmath.h **** 
 3190              		.loc 2 100 0
 3191 0228 0598     		ldr	r0, [sp, #20]
 3192 022a 2A49     		ldr	r1, .L166+16
 3193 022c FFF7FEFF 		bl	__aeabi_fsub
 3194              	.LVL519:
 3195 0230 011C     		adds	r1, r0, #0
ARM GAS  C:\Users\rdn\AppData\Local\Temp\ccFEeGTH.s 			page 77


 3196 0232 281C     		adds	r0, r5, #0
 3197 0234 FFF7FEFF 		bl	__aeabi_fsub
 3198              	.LVL520:
 3199 0238 051C     		adds	r5, r0, #0
 3200              	.LVL521:
 108:..\..\..\liblc3\src/fastmath.h ****     y.f = (y.f + p[1]) * x;
 3201              		.loc 2 108 0
 3202 023a 2749     		ldr	r1, .L166+20
 3203 023c FFF7FEFF 		bl	__aeabi_fmul
 3204              	.LVL522:
 109:..\..\..\liblc3\src/fastmath.h ****     y.f = (y.f + p[2]) * x;
 3205              		.loc 2 109 0
 3206 0240 2649     		ldr	r1, .L166+24
 3207 0242 FFF7FEFF 		bl	__aeabi_fadd
 3208              	.LVL523:
 3209 0246 011C     		adds	r1, r0, #0
 3210 0248 281C     		adds	r0, r5, #0
 3211 024a FFF7FEFF 		bl	__aeabi_fmul
 3212              	.LVL524:
 110:..\..\..\liblc3\src/fastmath.h ****     y.f = (y.f + p[3]) * x;
 3213              		.loc 2 110 0
 3214 024e 2449     		ldr	r1, .L166+28
 3215 0250 FFF7FEFF 		bl	__aeabi_fadd
 3216              	.LVL525:
 3217 0254 011C     		adds	r1, r0, #0
 3218 0256 281C     		adds	r0, r5, #0
 3219 0258 FFF7FEFF 		bl	__aeabi_fmul
 3220              	.LVL526:
 111:..\..\..\liblc3\src/fastmath.h ****     y.f = (y.f +  1.f) * e[k & 7];
 3221              		.loc 2 111 0
 3222 025c 2149     		ldr	r1, .L166+32
 3223 025e FFF7FEFF 		bl	__aeabi_fadd
 3224              	.LVL527:
 3225 0262 011C     		adds	r1, r0, #0
 3226 0264 281C     		adds	r0, r5, #0
 3227 0266 FFF7FEFF 		bl	__aeabi_fmul
 3228              	.LVL528:
 112:..\..\..\liblc3\src/fastmath.h **** 
 3229              		.loc 2 112 0
 3230 026a FE21     		movs	r1, #254
 3231 026c 8905     		lsls	r1, r1, #22
 3232 026e FFF7FEFF 		bl	__aeabi_fadd
 3233              	.LVL529:
 3234 0272 0723     		movs	r3, #7
 3235 0274 4A46     		mov	r2, r9
 3236 0276 1340     		ands	r3, r2
 3237 0278 9B00     		lsls	r3, r3, #2
 3238 027a 1B4A     		ldr	r2, .L166+36
 3239 027c D318     		adds	r3, r2, r3
 3240 027e D969     		ldr	r1, [r3, #28]
 3241 0280 FFF7FEFF 		bl	__aeabi_fmul
 3242              	.LVL530:
 116:..\..\..\liblc3\src/fastmath.h **** 
 3243              		.loc 2 116 0
 3244 0284 4B46     		mov	r3, r9
 3245 0286 DD10     		asrs	r5, r3, #3
 3246              	.LVL531:
ARM GAS  C:\Users\rdn\AppData\Local\Temp\ccFEeGTH.s 			page 78


 3247 0288 ED05     		lsls	r5, r5, #23
 3248 028a 2B18     		adds	r3, r5, r0
 3249 028c 0093     		str	r3, [sp]
 3250              	.LVL532:
 3251              	.LBE116:
 3252              	.LBE115:
 759:..\..\..\liblc3\src/sns.c **** 
 760:..\..\..\liblc3\src/sns.c ****         for ( ; i < lim[ib+1]; i++)
 3253              		.loc 1 760 0
 3254 028e 09E0     		b	.L162
 3255              	.L163:
 761:..\..\..\liblc3\src/sns.c ****             y[i] = x[i] * g_sns;
 3256              		.loc 1 761 0 discriminator 2
 3257 0290 A300     		lsls	r3, r4, #2
 3258 0292 4246     		mov	r2, r8
 3259 0294 D518     		adds	r5, r2, r3
 3260 0296 5A46     		mov	r2, fp
 3261 0298 D058     		ldr	r0, [r2, r3]
 3262 029a 0099     		ldr	r1, [sp]
 3263 029c FFF7FEFF 		bl	__aeabi_fmul
 3264              	.LVL533:
 3265 02a0 2860     		str	r0, [r5]
 760:..\..\..\liblc3\src/sns.c ****             y[i] = x[i] * g_sns;
 3266              		.loc 1 760 0 discriminator 2
 3267 02a2 0134     		adds	r4, r4, #1
 3268              	.LVL534:
 3269              	.L162:
 760:..\..\..\liblc3\src/sns.c ****             y[i] = x[i] * g_sns;
 3270              		.loc 1 760 0 is_stmt 0 discriminator 1
 3271 02a4 731C     		adds	r3, r6, #1
 3272 02a6 9B00     		lsls	r3, r3, #2
 3273 02a8 DB59     		ldr	r3, [r3, r7]
 3274 02aa 9C42     		cmp	r4, r3
 3275 02ac F0DB     		blt	.L163
 3276              	.LBE114:
 757:..\..\..\liblc3\src/sns.c ****         float g_sns = lc3_exp2f(-scf[ib]);
 3277              		.loc 1 757 0 is_stmt 1 discriminator 2
 3278 02ae 0136     		adds	r6, r6, #1
 3279              	.LVL535:
 3280              	.L161:
 757:..\..\..\liblc3\src/sns.c ****         float g_sns = lc3_exp2f(-scf[ib]);
 3281              		.loc 1 757 0 is_stmt 0 discriminator 1
 3282 02b0 5645     		cmp	r6, r10
 3283 02b2 ABDB     		blt	.L164
 3284              	.LBE113:
 762:..\..\..\liblc3\src/sns.c ****     }
 763:..\..\..\liblc3\src/sns.c **** }
 3285              		.loc 1 763 0 is_stmt 1
 3286 02b4 47B0     		add	sp, sp, #284
 3287              		@ sp needed
 3288              	.LVL536:
 3289              	.LVL537:
 3290              	.LVL538:
 3291              	.LVL539:
 3292 02b6 3CBC     		pop	{r2, r3, r4, r5}
 3293 02b8 9046     		mov	r8, r2
 3294 02ba 9946     		mov	r9, r3
ARM GAS  C:\Users\rdn\AppData\Local\Temp\ccFEeGTH.s 			page 79


 3295 02bc A246     		mov	r10, r4
 3296 02be AB46     		mov	fp, r5
 3297 02c0 F0BD     		pop	{r4, r5, r6, r7, pc}
 3298              	.L167:
 3299 02c2 C046     		.align	2
 3300              	.L166:
 3301 02c4 0000203F 		.word	1059061760
 3302 02c8 0000603F 		.word	1063256064
 3303 02cc 00000000 		.word	lc3_num_bands
 3304 02d0 00000000 		.word	lc3_band_lim
 3305 02d4 0000C049 		.word	1237319680
 3306 02d8 0093243C 		.word	1009029888
 3307 02dc 2C26633D 		.word	1029908012
 3308 02e0 87FE753E 		.word	1047920263
 3309 02e4 1772313F 		.word	1060205079
 3310 02e8 00040000 		.word	.LANCHOR1
 3311              		.cfi_endproc
 3312              	.LFE32:
 3313              		.size	spectral_shaping, .-spectral_shaping
 3314              		.section	.text.deenumerate,"ax",%progbits
 3315              		.align	2
 3316              		.code	16
 3317              		.thumb_func
 3318              		.type	deenumerate, %function
 3319              	deenumerate:
 3320              	.LFB31:
 695:..\..\..\liblc3\src/sns.c ****     int npulses_a = (const int []){ 10, 10, 8, 6 }[shape];
 3321              		.loc 1 695 0
 3322              		.cfi_startproc
 3323              		@ args = 8, pretend = 0, frame = 24
 3324              		@ frame_needed = 0, uses_anonymous_args = 0
 3325              	.LVL540:
 3326 0000 F0B5     		push	{r4, r5, r6, r7, lr}
 3327              		.cfi_def_cfa_offset 20
 3328              		.cfi_offset 4, -20
 3329              		.cfi_offset 5, -16
 3330              		.cfi_offset 6, -12
 3331              		.cfi_offset 7, -8
 3332              		.cfi_offset 14, -4
 3333 0002 4746     		mov	r7, r8
 3334 0004 80B4     		push	{r7}
 3335              		.cfi_def_cfa_offset 24
 3336              		.cfi_offset 8, -24
 3337 0006 88B0     		sub	sp, sp, #32
 3338              		.cfi_def_cfa_offset 56
 3339 0008 0500     		movs	r5, r0
 3340 000a 0800     		movs	r0, r1
 3341              	.LVL541:
 3342 000c 0292     		str	r2, [sp, #8]
 3343 000e 0393     		str	r3, [sp, #12]
 3344 0010 0EAB     		add	r3, sp, #56
 3345              	.LVL542:
 3346 0012 1B78     		ldrb	r3, [r3]
 3347              	.LVL543:
 3348 0014 9846     		mov	r8, r3
 696:..\..\..\liblc3\src/sns.c **** 
 3349              		.loc 1 696 0
ARM GAS  C:\Users\rdn\AppData\Local\Temp\ccFEeGTH.s 			page 80


 3350 0016 04AA     		add	r2, sp, #16
 3351              	.LVL544:
 3352 0018 1700     		movs	r7, r2
 3353 001a 154B     		ldr	r3, .L173
 3354 001c 3C33     		adds	r3, r3, #60
 3355 001e 52CB     		ldmia	r3!, {r1, r4, r6}
 3356 0020 52C7     		stmia	r7!, {r1, r4, r6}
 3357              	.LVL545:
 3358 0022 1B68     		ldr	r3, [r3]
 3359 0024 3B60     		str	r3, [r7]
 3360 0026 AB00     		lsls	r3, r5, #2
 3361 0028 9A58     		ldr	r2, [r3, r2]
 3362              	.LVL546:
 698:..\..\..\liblc3\src/sns.c **** 
 3363              		.loc 1 698 0
 3364 002a 012D     		cmp	r5, #1
 3365 002c 01DC     		bgt	.L172
 3366 002e 0A23     		movs	r3, #10
 3367 0030 00E0     		b	.L169
 3368              	.L172:
 3369 0032 1023     		movs	r3, #16
 3370              	.L169:
 698:..\..\..\liblc3\src/sns.c **** 
 3371              		.loc 1 698 0 is_stmt 0 discriminator 4
 3372 0034 0093     		str	r3, [sp]
 3373 0036 0F9B     		ldr	r3, [sp, #60]
 3374 0038 0299     		ldr	r1, [sp, #8]
 3375 003a FFF7FEFF 		bl	deenum_mvpq
 3376              	.LVL547:
 700:..\..\..\liblc3\src/sns.c ****         deenum_mvpq(idx_b, ls_b, 1, c + 10, 6);
 3377              		.loc 1 700 0 is_stmt 1 discriminator 4
 3378 003e 002D     		cmp	r5, #0
 3379 0040 09D1     		bne	.L170
 701:..\..\..\liblc3\src/sns.c ****     else if (shape == 1)
 3380              		.loc 1 701 0
 3381 0042 0F9B     		ldr	r3, [sp, #60]
 3382 0044 2833     		adds	r3, r3, #40
 3383 0046 0622     		movs	r2, #6
 3384 0048 0092     		str	r2, [sp]
 3385 004a 053A     		subs	r2, r2, #5
 3386 004c 4146     		mov	r1, r8
 3387 004e 0398     		ldr	r0, [sp, #12]
 3388 0050 FFF7FEFF 		bl	deenum_mvpq
 3389              	.LVL548:
 3390 0054 07E0     		b	.L168
 3391              	.L170:
 702:..\..\..\liblc3\src/sns.c ****         memset(c + 10, 0, 6 * sizeof(*c));
 3392              		.loc 1 702 0
 3393 0056 012D     		cmp	r5, #1
 3394 0058 05D1     		bne	.L168
 703:..\..\..\liblc3\src/sns.c **** }
 3395              		.loc 1 703 0
 3396 005a 0F98     		ldr	r0, [sp, #60]
 3397 005c 2830     		adds	r0, r0, #40
 3398 005e 1822     		movs	r2, #24
 3399 0060 0021     		movs	r1, #0
 3400 0062 FFF7FEFF 		bl	memset
ARM GAS  C:\Users\rdn\AppData\Local\Temp\ccFEeGTH.s 			page 81


 3401              	.LVL549:
 3402              	.L168:
 704:..\..\..\liblc3\src/sns.c **** 
 3403              		.loc 1 704 0
 3404 0066 08B0     		add	sp, sp, #32
 3405              		@ sp needed
 3406              	.LVL550:
 3407 0068 04BC     		pop	{r2}
 3408 006a 9046     		mov	r8, r2
 3409 006c F0BD     		pop	{r4, r5, r6, r7, pc}
 3410              	.L174:
 3411 006e C046     		.align	2
 3412              	.L173:
 3413 0070 00040000 		.word	.LANCHOR1
 3414              		.cfi_endproc
 3415              	.LFE31:
 3416              		.size	deenumerate, .-deenumerate
 3417              		.section	.text.lc3_sns_analyze,"ax",%progbits
 3418              		.align	2
 3419              		.global	lc3_sns_analyze
 3420              		.code	16
 3421              		.thumb_func
 3422              		.type	lc3_sns_analyze, %function
 3423              	lc3_sns_analyze:
 3424              	.LFB33:
 764:..\..\..\liblc3\src/sns.c **** 
 765:..\..\..\liblc3\src/sns.c **** 
 766:..\..\..\liblc3\src/sns.c **** /* ----------------------------------------------------------------------------
 767:..\..\..\liblc3\src/sns.c ****  *  Interface
 768:..\..\..\liblc3\src/sns.c ****  * -------------------------------------------------------------------------- */
 769:..\..\..\liblc3\src/sns.c **** 
 770:..\..\..\liblc3\src/sns.c **** /**
 771:..\..\..\liblc3\src/sns.c ****  * SNS analysis
 772:..\..\..\liblc3\src/sns.c ****  */
 773:..\..\..\liblc3\src/sns.c **** void lc3_sns_analyze(
 774:..\..\..\liblc3\src/sns.c ****     enum lc3_dt dt, enum lc3_srate sr, int nbytes,
 775:..\..\..\liblc3\src/sns.c ****     const float *eb, bool att, struct lc3_sns_data *data,
 776:..\..\..\liblc3\src/sns.c ****     const float *x, float *y)
 777:..\..\..\liblc3\src/sns.c **** {
 3425              		.loc 1 777 0
 3426              		.cfi_startproc
 3427              		@ args = 16, pretend = 0, frame = 584
 3428              		@ frame_needed = 0, uses_anonymous_args = 0
 3429              	.LVL551:
 3430 0000 F0B5     		push	{r4, r5, r6, r7, lr}
 3431              		.cfi_def_cfa_offset 20
 3432              		.cfi_offset 4, -20
 3433              		.cfi_offset 5, -16
 3434              		.cfi_offset 6, -12
 3435              		.cfi_offset 7, -8
 3436              		.cfi_offset 14, -4
 3437 0002 244C     		ldr	r4, .L176
 3438 0004 A544     		add	sp, sp, r4
 3439              		.cfi_def_cfa_offset 624
 3440 0006 0F00     		movs	r7, r1
 3441 0008 9CA9     		add	r1, sp, #624
 3442              	.LVL552:
ARM GAS  C:\Users\rdn\AppData\Local\Temp\ccFEeGTH.s 			page 82


 3443 000a 0978     		ldrb	r1, [r1]
 3444              	.LVL553:
 3445 000c 9D9C     		ldr	r4, [sp, #628]
 778:..\..\..\liblc3\src/sns.c ****     /* Processing steps :
 779:..\..\..\liblc3\src/sns.c ****      * - Determine 16 scale factors from bands energy estimation
 780:..\..\..\liblc3\src/sns.c ****      * - Get codebooks indexes that match thoses scale factors
 781:..\..\..\liblc3\src/sns.c ****      * - Quantize the residual with the selected codebook
 782:..\..\..\liblc3\src/sns.c ****      * - The pulse configuration `c[]` is enumerated
 783:..\..\..\liblc3\src/sns.c ****      * - Finally shape the spectrum coefficients accordingly */
 784:..\..\..\liblc3\src/sns.c **** 
 785:..\..\..\liblc3\src/sns.c ****     float scf[16], cn[4][16];
 786:..\..\..\liblc3\src/sns.c ****     int c[4][16];
 787:..\..\..\liblc3\src/sns.c **** 
 788:..\..\..\liblc3\src/sns.c ****     compute_scale_factors(dt, sr, nbytes, eb, att, scf);
 3446              		.loc 1 788 0
 3447 000e 86AD     		add	r5, sp, #536
 3448 0010 0195     		str	r5, [sp, #4]
 3449 0012 0091     		str	r1, [sp]
 3450 0014 3900     		movs	r1, r7
 3451 0016 0590     		str	r0, [sp, #20]
 3452 0018 FFF7FEFF 		bl	compute_scale_factors
 3453              	.LVL554:
 789:..\..\..\liblc3\src/sns.c **** 
 790:..\..\..\liblc3\src/sns.c ****     resolve_codebooks(scf, &data->lfcb, &data->hfcb);
 3454              		.loc 1 790 0
 3455 001c 221D     		adds	r2, r4, #4
 3456 001e 2100     		movs	r1, r4
 3457 0020 2800     		movs	r0, r5
 3458 0022 FFF7FEFF 		bl	resolve_codebooks
 3459              	.LVL555:
 791:..\..\..\liblc3\src/sns.c **** 
 792:..\..\..\liblc3\src/sns.c ****     quantize(scf, data->lfcb, data->hfcb,
 3460              		.loc 1 792 0
 3461 0026 2300     		movs	r3, r4
 3462 0028 0C33     		adds	r3, r3, #12
 3463 002a 0293     		str	r3, [sp, #8]
 3464 002c 043B     		subs	r3, r3, #4
 3465 002e 0193     		str	r3, [sp, #4]
 3466 0030 46AE     		add	r6, sp, #280
 3467 0032 0096     		str	r6, [sp]
 3468 0034 06AB     		add	r3, sp, #24
 3469 0036 6268     		ldr	r2, [r4, #4]
 3470 0038 2168     		ldr	r1, [r4]
 3471 003a 2800     		movs	r0, r5
 3472 003c FFF7FEFF 		bl	quantize
 3473              	.LVL556:
 793:..\..\..\liblc3\src/sns.c ****         c, cn, &data->shape, &data->gain);
 794:..\..\..\liblc3\src/sns.c **** 
 795:..\..\..\liblc3\src/sns.c ****     unquantize(data->lfcb, data->hfcb,
 796:..\..\..\liblc3\src/sns.c ****         cn[data->shape], data->shape, data->gain, scf);
 3474              		.loc 1 796 0
 3475 0040 A368     		ldr	r3, [r4, #8]
 3476 0042 9A01     		lsls	r2, r3, #6
 3477 0044 B218     		adds	r2, r6, r2
 795:..\..\..\liblc3\src/sns.c ****         cn[data->shape], data->shape, data->gain, scf);
 3478              		.loc 1 795 0
 3479 0046 0195     		str	r5, [sp, #4]
ARM GAS  C:\Users\rdn\AppData\Local\Temp\ccFEeGTH.s 			page 83


 3480 0048 E368     		ldr	r3, [r4, #12]
 3481 004a 0093     		str	r3, [sp]
 3482 004c A368     		ldr	r3, [r4, #8]
 3483 004e 6168     		ldr	r1, [r4, #4]
 3484 0050 2068     		ldr	r0, [r4]
 3485 0052 FFF7FEFF 		bl	unquantize
 3486              	.LVL557:
 797:..\..\..\liblc3\src/sns.c **** 
 798:..\..\..\liblc3\src/sns.c ****     enumerate(data->shape, c[data->shape],
 3487              		.loc 1 798 0
 3488 0056 A068     		ldr	r0, [r4, #8]
 3489 0058 8101     		lsls	r1, r0, #6
 3490 005a 06AB     		add	r3, sp, #24
 3491 005c 9C46     		mov	ip, r3
 3492 005e 6144     		add	r1, r1, ip
 3493 0060 2300     		movs	r3, r4
 3494 0062 1833     		adds	r3, r3, #24
 3495 0064 2200     		movs	r2, r4
 3496 0066 1032     		adds	r2, r2, #16
 3497 0068 2600     		movs	r6, r4
 3498 006a 1936     		adds	r6, r6, #25
 3499 006c 0196     		str	r6, [sp, #4]
 3500 006e 1434     		adds	r4, r4, #20
 3501 0070 0094     		str	r4, [sp]
 3502 0072 FFF7FEFF 		bl	enumerate
 3503              	.LVL558:
 799:..\..\..\liblc3\src/sns.c ****         &data->idx_a, &data->ls_a, &data->idx_b, &data->ls_b);
 800:..\..\..\liblc3\src/sns.c **** 
 801:..\..\..\liblc3\src/sns.c ****     spectral_shaping(dt, sr, scf, false, x, y);
 3504              		.loc 1 801 0
 3505 0076 9F9B     		ldr	r3, [sp, #636]
 3506 0078 0193     		str	r3, [sp, #4]
 3507 007a 9E9B     		ldr	r3, [sp, #632]
 3508 007c 0093     		str	r3, [sp]
 3509 007e 0023     		movs	r3, #0
 3510 0080 2A00     		movs	r2, r5
 3511 0082 3900     		movs	r1, r7
 3512 0084 0598     		ldr	r0, [sp, #20]
 3513 0086 FFF7FEFF 		bl	spectral_shaping
 3514              	.LVL559:
 802:..\..\..\liblc3\src/sns.c **** }
 3515              		.loc 1 802 0
 3516 008a 9723     		movs	r3, #151
 3517 008c 9B00     		lsls	r3, r3, #2
 3518 008e 9D44     		add	sp, sp, r3
 3519              		@ sp needed
 3520 0090 F0BD     		pop	{r4, r5, r6, r7, pc}
 3521              	.L177:
 3522 0092 C046     		.align	2
 3523              	.L176:
 3524 0094 A4FDFFFF 		.word	-604
 3525              		.cfi_endproc
 3526              	.LFE33:
 3527              		.size	lc3_sns_analyze, .-lc3_sns_analyze
 3528              		.section	.text.lc3_sns_synthesize,"ax",%progbits
 3529              		.align	2
 3530              		.global	lc3_sns_synthesize
ARM GAS  C:\Users\rdn\AppData\Local\Temp\ccFEeGTH.s 			page 84


 3531              		.code	16
 3532              		.thumb_func
 3533              		.type	lc3_sns_synthesize, %function
 3534              	lc3_sns_synthesize:
 3535              	.LFB34:
 803:..\..\..\liblc3\src/sns.c **** 
 804:..\..\..\liblc3\src/sns.c **** /**
 805:..\..\..\liblc3\src/sns.c ****  * SNS synthesis
 806:..\..\..\liblc3\src/sns.c ****  */
 807:..\..\..\liblc3\src/sns.c **** void lc3_sns_synthesize(
 808:..\..\..\liblc3\src/sns.c ****     enum lc3_dt dt, enum lc3_srate sr,
 809:..\..\..\liblc3\src/sns.c ****     const lc3_sns_data_t *data, const float *x, float *y)
 810:..\..\..\liblc3\src/sns.c **** {
 3536              		.loc 1 810 0
 3537              		.cfi_startproc
 3538              		@ args = 4, pretend = 0, frame = 200
 3539              		@ frame_needed = 0, uses_anonymous_args = 0
 3540              	.LVL560:
 3541 0000 F0B5     		push	{r4, r5, r6, r7, lr}
 3542              		.cfi_def_cfa_offset 20
 3543              		.cfi_offset 4, -20
 3544              		.cfi_offset 5, -16
 3545              		.cfi_offset 6, -12
 3546              		.cfi_offset 7, -8
 3547              		.cfi_offset 14, -4
 3548 0002 B5B0     		sub	sp, sp, #212
 3549              		.cfi_def_cfa_offset 232
 3550 0004 0390     		str	r0, [sp, #12]
 3551 0006 0F00     		movs	r7, r1
 3552 0008 1400     		movs	r4, r2
 3553 000a 1E00     		movs	r6, r3
 811:..\..\..\liblc3\src/sns.c ****     float scf[16], cn[16];
 812:..\..\..\liblc3\src/sns.c ****     int c[16];
 813:..\..\..\liblc3\src/sns.c **** 
 814:..\..\..\liblc3\src/sns.c ****     deenumerate(data->shape,
 3554              		.loc 1 814 0
 3555 000c 127E     		ldrb	r2, [r2, #24]
 3556              	.LVL561:
 3557 000e 04AD     		add	r5, sp, #16
 3558 0010 0195     		str	r5, [sp, #4]
 3559 0012 637E     		ldrb	r3, [r4, #25]
 3560              	.LVL562:
 3561 0014 0093     		str	r3, [sp]
 3562 0016 6369     		ldr	r3, [r4, #20]
 3563 0018 2169     		ldr	r1, [r4, #16]
 3564              	.LVL563:
 3565 001a A068     		ldr	r0, [r4, #8]
 3566              	.LVL564:
 3567 001c FFF7FEFF 		bl	deenumerate
 3568              	.LVL565:
 815:..\..\..\liblc3\src/sns.c ****         data->idx_a, data->ls_a, data->idx_b, data->ls_b, c);
 816:..\..\..\liblc3\src/sns.c **** 
 817:..\..\..\liblc3\src/sns.c ****     normalize(c, cn);
 3569              		.loc 1 817 0
 3570 0020 14A9     		add	r1, sp, #80
 3571 0022 2800     		movs	r0, r5
 3572 0024 FFF7FEFF 		bl	normalize
ARM GAS  C:\Users\rdn\AppData\Local\Temp\ccFEeGTH.s 			page 85


 3573              	.LVL566:
 818:..\..\..\liblc3\src/sns.c **** 
 819:..\..\..\liblc3\src/sns.c ****     unquantize(data->lfcb, data->hfcb, cn, data->shape, data->gain, scf);
 3574              		.loc 1 819 0
 3575 0028 A368     		ldr	r3, [r4, #8]
 3576 002a 6168     		ldr	r1, [r4, #4]
 3577 002c 2068     		ldr	r0, [r4]
 3578 002e 24AD     		add	r5, sp, #144
 3579 0030 0195     		str	r5, [sp, #4]
 3580 0032 E268     		ldr	r2, [r4, #12]
 3581 0034 0092     		str	r2, [sp]
 3582 0036 14AA     		add	r2, sp, #80
 3583 0038 FFF7FEFF 		bl	unquantize
 3584              	.LVL567:
 820:..\..\..\liblc3\src/sns.c **** 
 821:..\..\..\liblc3\src/sns.c ****     spectral_shaping(dt, sr, scf, true, x, y);
 3585              		.loc 1 821 0
 3586 003c 3A9B     		ldr	r3, [sp, #232]
 3587 003e 0193     		str	r3, [sp, #4]
 3588 0040 0096     		str	r6, [sp]
 3589 0042 0123     		movs	r3, #1
 3590 0044 2A00     		movs	r2, r5
 3591 0046 3900     		movs	r1, r7
 3592 0048 0398     		ldr	r0, [sp, #12]
 3593 004a FFF7FEFF 		bl	spectral_shaping
 3594              	.LVL568:
 822:..\..\..\liblc3\src/sns.c **** }
 3595              		.loc 1 822 0
 3596 004e 35B0     		add	sp, sp, #212
 3597              		@ sp needed
 3598              	.LVL569:
 3599              	.LVL570:
 3600 0050 F0BD     		pop	{r4, r5, r6, r7, pc}
 3601              		.cfi_endproc
 3602              	.LFE34:
 3603              		.size	lc3_sns_synthesize, .-lc3_sns_synthesize
 3604 0052 C046     		.section	.text.lc3_sns_get_nbits,"ax",%progbits
 3605              		.align	2
 3606              		.global	lc3_sns_get_nbits
 3607              		.code	16
 3608              		.thumb_func
 3609              		.type	lc3_sns_get_nbits, %function
 3610              	lc3_sns_get_nbits:
 3611              	.LFB35:
 823:..\..\..\liblc3\src/sns.c **** 
 824:..\..\..\liblc3\src/sns.c **** /**
 825:..\..\..\liblc3\src/sns.c ****  * Return number of bits coding the bitstream data
 826:..\..\..\liblc3\src/sns.c ****  */
 827:..\..\..\liblc3\src/sns.c **** int lc3_sns_get_nbits(void)
 828:..\..\..\liblc3\src/sns.c **** {
 3612              		.loc 1 828 0
 3613              		.cfi_startproc
 3614              		@ args = 0, pretend = 0, frame = 0
 3615              		@ frame_needed = 0, uses_anonymous_args = 0
 3616              		@ link register save eliminated.
 829:..\..\..\liblc3\src/sns.c ****     return 38;
 830:..\..\..\liblc3\src/sns.c **** }
ARM GAS  C:\Users\rdn\AppData\Local\Temp\ccFEeGTH.s 			page 86


 3617              		.loc 1 830 0
 3618 0000 2620     		movs	r0, #38
 3619              		@ sp needed
 3620 0002 7047     		bx	lr
 3621              		.cfi_endproc
 3622              	.LFE35:
 3623              		.size	lc3_sns_get_nbits, .-lc3_sns_get_nbits
 3624              		.section	.text.lc3_sns_put_data,"ax",%progbits
 3625              		.align	2
 3626              		.global	lc3_sns_put_data
 3627              		.code	16
 3628              		.thumb_func
 3629              		.type	lc3_sns_put_data, %function
 3630              	lc3_sns_put_data:
 3631              	.LFB36:
 831:..\..\..\liblc3\src/sns.c **** 
 832:..\..\..\liblc3\src/sns.c **** /**
 833:..\..\..\liblc3\src/sns.c ****  * Put bitstream data
 834:..\..\..\liblc3\src/sns.c ****  */
 835:..\..\..\liblc3\src/sns.c **** void lc3_sns_put_data(lc3_bits_t *bits, const struct lc3_sns_data *data)
 836:..\..\..\liblc3\src/sns.c **** {
 3632              		.loc 1 836 0
 3633              		.cfi_startproc
 3634              		@ args = 0, pretend = 0, frame = 0
 3635              		@ frame_needed = 0, uses_anonymous_args = 0
 3636              	.LVL571:
 3637 0000 70B5     		push	{r4, r5, r6, lr}
 3638              		.cfi_def_cfa_offset 16
 3639              		.cfi_offset 4, -16
 3640              		.cfi_offset 5, -12
 3641              		.cfi_offset 6, -8
 3642              		.cfi_offset 14, -4
 3643 0002 0400     		movs	r4, r0
 3644 0004 0D00     		movs	r5, r1
 837:..\..\..\liblc3\src/sns.c ****     /* --- Codebooks --- */
 838:..\..\..\liblc3\src/sns.c **** 
 839:..\..\..\liblc3\src/sns.c ****     lc3_put_bits(bits, data->lfcb, 5);
 3645              		.loc 1 839 0
 3646 0006 0968     		ldr	r1, [r1]
 3647              	.LVL572:
 3648              	.LBB139:
 3649              	.LBB140:
 3650              		.file 3 "..\\..\\..\\liblc3\\src\\bits.h"
   1:..\..\..\liblc3\src/bits.h **** /******************************************************************************
   2:..\..\..\liblc3\src/bits.h ****  *
   3:..\..\..\liblc3\src/bits.h ****  *  Copyright 2022 Google LLC
   4:..\..\..\liblc3\src/bits.h ****  *
   5:..\..\..\liblc3\src/bits.h ****  *  Licensed under the Apache License, Version 2.0 (the "License");
   6:..\..\..\liblc3\src/bits.h ****  *  you may not use this file except in compliance with the License.
   7:..\..\..\liblc3\src/bits.h ****  *  You may obtain a copy of the License at:
   8:..\..\..\liblc3\src/bits.h ****  *
   9:..\..\..\liblc3\src/bits.h ****  *  http://www.apache.org/licenses/LICENSE-2.0
  10:..\..\..\liblc3\src/bits.h ****  *
  11:..\..\..\liblc3\src/bits.h ****  *  Unless required by applicable law or agreed to in writing, software
  12:..\..\..\liblc3\src/bits.h ****  *  distributed under the License is distributed on an "AS IS" BASIS,
  13:..\..\..\liblc3\src/bits.h ****  *  WITHOUT WARRANTIES OR CONDITIONS OF ANY KIND, either express or implied.
  14:..\..\..\liblc3\src/bits.h ****  *  See the License for the specific language governing permissions and
ARM GAS  C:\Users\rdn\AppData\Local\Temp\ccFEeGTH.s 			page 87


  15:..\..\..\liblc3\src/bits.h ****  *  limitations under the License.
  16:..\..\..\liblc3\src/bits.h ****  *
  17:..\..\..\liblc3\src/bits.h ****  ******************************************************************************/
  18:..\..\..\liblc3\src/bits.h **** 
  19:..\..\..\liblc3\src/bits.h **** /**
  20:..\..\..\liblc3\src/bits.h ****  * The bitstream is written by the 2 ends of the buffer :
  21:..\..\..\liblc3\src/bits.h ****  *
  22:..\..\..\liblc3\src/bits.h ****  * - Arthmetic coder put bits while increasing memory addresses
  23:..\..\..\liblc3\src/bits.h ****  *   in the buffer (forward)
  24:..\..\..\liblc3\src/bits.h ****  *
  25:..\..\..\liblc3\src/bits.h ****  * - Plain bits are puts starting the end of the buffer, with memeory
  26:..\..\..\liblc3\src/bits.h ****  *   addresses decreasing (backward)
  27:..\..\..\liblc3\src/bits.h ****  *
  28:..\..\..\liblc3\src/bits.h ****  *       .---------------------------------------------------.
  29:..\..\..\liblc3\src/bits.h ****  *       | > > > > > > > > > > :         : < < < < < < < < < |
  30:..\..\..\liblc3\src/bits.h ****  *       '---------------------------------------------------'
  31:..\..\..\liblc3\src/bits.h ****  *       |---------------------> - - - - - - - - - - - - - ->|
  32:..\..\..\liblc3\src/bits.h ****  *                              |< - - - <-------------------|
  33:..\..\..\liblc3\src/bits.h ****  *          Arithmetic coding                  Plain bits
  34:..\..\..\liblc3\src/bits.h ****  *          `lc3_put_symbol()`               `lc3_put_bits()`
  35:..\..\..\liblc3\src/bits.h ****  *
  36:..\..\..\liblc3\src/bits.h ****  * - The forward writing is protected against buffer overflow, it cannot
  37:..\..\..\liblc3\src/bits.h ****  *   write after the buffer, but can overwrite plain bits previously
  38:..\..\..\liblc3\src/bits.h ****  *   written in the buffer.
  39:..\..\..\liblc3\src/bits.h ****  *
  40:..\..\..\liblc3\src/bits.h ****  * - The backward writing is protected against overwrite of the arithmetic
  41:..\..\..\liblc3\src/bits.h ****  *   coder bitstream. In such way, the backward bitstream is always limited
  42:..\..\..\liblc3\src/bits.h ****  *   by the aritmetic coder bitstream, and can be overwritten by him.
  43:..\..\..\liblc3\src/bits.h ****  *
  44:..\..\..\liblc3\src/bits.h ****  *       .---------------------------------------------------.
  45:..\..\..\liblc3\src/bits.h ****  *       | > > > > > > > > > > :         : < < < < < < < < < |
  46:..\..\..\liblc3\src/bits.h ****  *       '---------------------------------------------------'
  47:..\..\..\liblc3\src/bits.h ****  *       |---------------------> - - - - - - - - - - - - - ->|
  48:..\..\..\liblc3\src/bits.h ****  *       |< - - - - - - - - - - -  - - - <-------------------|
  49:..\..\..\liblc3\src/bits.h ****  *          Arithmetic coding                  Plain bits
  50:..\..\..\liblc3\src/bits.h ****  *          `lc3_get_symbol()`               `lc3_get_bits()`
  51:..\..\..\liblc3\src/bits.h ****  *
  52:..\..\..\liblc3\src/bits.h ****  * - Reading is limited to read of the complementary end of the buffer.
  53:..\..\..\liblc3\src/bits.h ****  *
  54:..\..\..\liblc3\src/bits.h ****  * - The procedure `lc3_check_bits()` returns indication that read has been
  55:..\..\..\liblc3\src/bits.h ****  *   made crossing the other bit plane.
  56:..\..\..\liblc3\src/bits.h ****  *
  57:..\..\..\liblc3\src/bits.h ****  */
  58:..\..\..\liblc3\src/bits.h **** 
  59:..\..\..\liblc3\src/bits.h **** #ifndef __LC3_BITS_H
  60:..\..\..\liblc3\src/bits.h **** #define __LC3_BITS_H
  61:..\..\..\liblc3\src/bits.h **** 
  62:..\..\..\liblc3\src/bits.h **** #include "common.h"
  63:..\..\..\liblc3\src/bits.h **** 
  64:..\..\..\liblc3\src/bits.h **** 
  65:..\..\..\liblc3\src/bits.h **** /**
  66:..\..\..\liblc3\src/bits.h ****  * Bitstream mode
  67:..\..\..\liblc3\src/bits.h ****  */
  68:..\..\..\liblc3\src/bits.h **** 
  69:..\..\..\liblc3\src/bits.h **** enum lc3_bits_mode {
  70:..\..\..\liblc3\src/bits.h ****     LC3_BITS_MODE_READ,
  71:..\..\..\liblc3\src/bits.h ****     LC3_BITS_MODE_WRITE,
ARM GAS  C:\Users\rdn\AppData\Local\Temp\ccFEeGTH.s 			page 88


  72:..\..\..\liblc3\src/bits.h **** };
  73:..\..\..\liblc3\src/bits.h **** 
  74:..\..\..\liblc3\src/bits.h **** /**
  75:..\..\..\liblc3\src/bits.h ****  * Arithmetic coder symbol interval
  76:..\..\..\liblc3\src/bits.h ****  * The model split the interval in 17 symbols
  77:..\..\..\liblc3\src/bits.h ****  */
  78:..\..\..\liblc3\src/bits.h **** 
  79:..\..\..\liblc3\src/bits.h **** struct lc3_ac_symbol {
  80:..\..\..\liblc3\src/bits.h ****     uint16_t low   : 16;
  81:..\..\..\liblc3\src/bits.h ****     uint16_t range : 16;
  82:..\..\..\liblc3\src/bits.h **** };
  83:..\..\..\liblc3\src/bits.h **** 
  84:..\..\..\liblc3\src/bits.h **** struct lc3_ac_model {
  85:..\..\..\liblc3\src/bits.h ****     struct lc3_ac_symbol s[17];
  86:..\..\..\liblc3\src/bits.h **** };
  87:..\..\..\liblc3\src/bits.h **** 
  88:..\..\..\liblc3\src/bits.h **** /**
  89:..\..\..\liblc3\src/bits.h ****  * Bitstream context
  90:..\..\..\liblc3\src/bits.h ****  */
  91:..\..\..\liblc3\src/bits.h **** 
  92:..\..\..\liblc3\src/bits.h **** #define LC3_ACCU_BITS (int)(8 * sizeof(unsigned))
  93:..\..\..\liblc3\src/bits.h **** 
  94:..\..\..\liblc3\src/bits.h **** struct lc3_bits_accu {
  95:..\..\..\liblc3\src/bits.h ****     unsigned v;
  96:..\..\..\liblc3\src/bits.h ****     int n, nover;
  97:..\..\..\liblc3\src/bits.h **** };
  98:..\..\..\liblc3\src/bits.h **** 
  99:..\..\..\liblc3\src/bits.h **** #define LC3_AC_BITS (int)(24)
 100:..\..\..\liblc3\src/bits.h **** 
 101:..\..\..\liblc3\src/bits.h **** struct lc3_bits_ac {
 102:..\..\..\liblc3\src/bits.h ****     unsigned low, range;
 103:..\..\..\liblc3\src/bits.h ****     int cache, carry, carry_count;
 104:..\..\..\liblc3\src/bits.h ****     bool error;
 105:..\..\..\liblc3\src/bits.h **** };
 106:..\..\..\liblc3\src/bits.h **** 
 107:..\..\..\liblc3\src/bits.h **** struct lc3_bits_buffer {
 108:..\..\..\liblc3\src/bits.h ****     const uint8_t *start, *end;
 109:..\..\..\liblc3\src/bits.h ****     uint8_t *p_fw, *p_bw;
 110:..\..\..\liblc3\src/bits.h **** };
 111:..\..\..\liblc3\src/bits.h **** 
 112:..\..\..\liblc3\src/bits.h **** typedef struct lc3_bits {
 113:..\..\..\liblc3\src/bits.h ****     enum lc3_bits_mode mode;
 114:..\..\..\liblc3\src/bits.h ****     struct lc3_bits_ac ac;
 115:..\..\..\liblc3\src/bits.h ****     struct lc3_bits_accu accu;
 116:..\..\..\liblc3\src/bits.h ****     struct lc3_bits_buffer buffer;
 117:..\..\..\liblc3\src/bits.h **** } lc3_bits_t;
 118:..\..\..\liblc3\src/bits.h **** 
 119:..\..\..\liblc3\src/bits.h **** 
 120:..\..\..\liblc3\src/bits.h **** /**
 121:..\..\..\liblc3\src/bits.h ****  * Setup bitstream reading/writing
 122:..\..\..\liblc3\src/bits.h ****  * bits            Bitstream context
 123:..\..\..\liblc3\src/bits.h ****  * mode            Either READ or WRITE mode
 124:..\..\..\liblc3\src/bits.h ****  * buffer, len     Output buffer and length (in bytes)
 125:..\..\..\liblc3\src/bits.h ****  */
 126:..\..\..\liblc3\src/bits.h **** void lc3_setup_bits(lc3_bits_t *bits,
 127:..\..\..\liblc3\src/bits.h ****     enum lc3_bits_mode mode, void *buffer, int len);
 128:..\..\..\liblc3\src/bits.h **** 
ARM GAS  C:\Users\rdn\AppData\Local\Temp\ccFEeGTH.s 			page 89


 129:..\..\..\liblc3\src/bits.h **** /**
 130:..\..\..\liblc3\src/bits.h ****  * Return number of bits left in the bitstream
 131:..\..\..\liblc3\src/bits.h ****  * bits            Bitstream context
 132:..\..\..\liblc3\src/bits.h ****  * return          Number of bits left
 133:..\..\..\liblc3\src/bits.h ****  */
 134:..\..\..\liblc3\src/bits.h **** int lc3_get_bits_left(const lc3_bits_t *bits);
 135:..\..\..\liblc3\src/bits.h **** 
 136:..\..\..\liblc3\src/bits.h **** /**
 137:..\..\..\liblc3\src/bits.h ****  * Check if error occured on bitstream reading/writing
 138:..\..\..\liblc3\src/bits.h ****  * bits            Bitstream context
 139:..\..\..\liblc3\src/bits.h ****  * return          0: Ok  -1: Bitstream overflow or AC reading error
 140:..\..\..\liblc3\src/bits.h ****  */
 141:..\..\..\liblc3\src/bits.h **** int lc3_check_bits(const lc3_bits_t *bits);
 142:..\..\..\liblc3\src/bits.h **** 
 143:..\..\..\liblc3\src/bits.h **** /**
 144:..\..\..\liblc3\src/bits.h ****  * Put a bit
 145:..\..\..\liblc3\src/bits.h ****  * bits            Bitstream context
 146:..\..\..\liblc3\src/bits.h ****  * v               Bit value, 0 or 1
 147:..\..\..\liblc3\src/bits.h ****  */
 148:..\..\..\liblc3\src/bits.h **** static inline void lc3_put_bit(lc3_bits_t *bits, int v);
 149:..\..\..\liblc3\src/bits.h **** 
 150:..\..\..\liblc3\src/bits.h **** /**
 151:..\..\..\liblc3\src/bits.h ****  * Put from 1 to 32 bits
 152:..\..\..\liblc3\src/bits.h ****  * bits            Bitstream context
 153:..\..\..\liblc3\src/bits.h ****  * v, n            Value, in range 0 to 2^n - 1, and bits count (1 to 32)
 154:..\..\..\liblc3\src/bits.h ****  */
 155:..\..\..\liblc3\src/bits.h **** static inline void lc3_put_bits(lc3_bits_t *bits, unsigned v, int n);
 156:..\..\..\liblc3\src/bits.h **** 
 157:..\..\..\liblc3\src/bits.h **** /**
 158:..\..\..\liblc3\src/bits.h ****  * Put arithmetic coder symbol
 159:..\..\..\liblc3\src/bits.h ****  * bits            Bitstream context
 160:..\..\..\liblc3\src/bits.h ****  * model, s        Model distribution and symbol value
 161:..\..\..\liblc3\src/bits.h ****  */
 162:..\..\..\liblc3\src/bits.h **** static inline void lc3_put_symbol(lc3_bits_t *bits,
 163:..\..\..\liblc3\src/bits.h ****     const struct lc3_ac_model *model, unsigned s);
 164:..\..\..\liblc3\src/bits.h **** 
 165:..\..\..\liblc3\src/bits.h **** /**
 166:..\..\..\liblc3\src/bits.h ****  * Flush and terminate bitstream writing
 167:..\..\..\liblc3\src/bits.h ****  * bits            Bitstream context
 168:..\..\..\liblc3\src/bits.h ****  */
 169:..\..\..\liblc3\src/bits.h **** void lc3_flush_bits(lc3_bits_t *bits);
 170:..\..\..\liblc3\src/bits.h **** 
 171:..\..\..\liblc3\src/bits.h **** /**
 172:..\..\..\liblc3\src/bits.h ****  * Get a bit
 173:..\..\..\liblc3\src/bits.h ****  * bits            Bitstream context
 174:..\..\..\liblc3\src/bits.h ****  */
 175:..\..\..\liblc3\src/bits.h **** static inline int lc3_get_bit(lc3_bits_t *bits);
 176:..\..\..\liblc3\src/bits.h **** 
 177:..\..\..\liblc3\src/bits.h **** /**
 178:..\..\..\liblc3\src/bits.h ****  * Get from 1 to 32 bits
 179:..\..\..\liblc3\src/bits.h ****  * bits            Bitstream context
 180:..\..\..\liblc3\src/bits.h ****  * n               Number of bits to read (1 to 32)
 181:..\..\..\liblc3\src/bits.h ****  * return          The value read
 182:..\..\..\liblc3\src/bits.h ****  */
 183:..\..\..\liblc3\src/bits.h **** static inline unsigned lc3_get_bits(lc3_bits_t *bits,  int n);
 184:..\..\..\liblc3\src/bits.h **** 
 185:..\..\..\liblc3\src/bits.h **** /**
ARM GAS  C:\Users\rdn\AppData\Local\Temp\ccFEeGTH.s 			page 90


 186:..\..\..\liblc3\src/bits.h ****  * Get arithmetic coder symbol
 187:..\..\..\liblc3\src/bits.h ****  * bits            Bitstream context
 188:..\..\..\liblc3\src/bits.h ****  * model           Model distribution
 189:..\..\..\liblc3\src/bits.h ****  * return          The value read
 190:..\..\..\liblc3\src/bits.h ****  */
 191:..\..\..\liblc3\src/bits.h **** static inline unsigned lc3_get_symbol(lc3_bits_t *bits,
 192:..\..\..\liblc3\src/bits.h ****     const struct lc3_ac_model *model);
 193:..\..\..\liblc3\src/bits.h **** 
 194:..\..\..\liblc3\src/bits.h **** 
 195:..\..\..\liblc3\src/bits.h **** 
 196:..\..\..\liblc3\src/bits.h **** /* ----------------------------------------------------------------------------
 197:..\..\..\liblc3\src/bits.h ****  *  Inline implementations
 198:..\..\..\liblc3\src/bits.h ****  * -------------------------------------------------------------------------- */
 199:..\..\..\liblc3\src/bits.h **** 
 200:..\..\..\liblc3\src/bits.h **** void lc3_put_bits_generic(lc3_bits_t *bits, unsigned v, int n);
 201:..\..\..\liblc3\src/bits.h **** unsigned lc3_get_bits_generic(struct lc3_bits *bits, int n);
 202:..\..\..\liblc3\src/bits.h **** 
 203:..\..\..\liblc3\src/bits.h **** void lc3_ac_read_renorm(lc3_bits_t *bits);
 204:..\..\..\liblc3\src/bits.h **** void lc3_ac_write_renorm(lc3_bits_t *bits);
 205:..\..\..\liblc3\src/bits.h **** 
 206:..\..\..\liblc3\src/bits.h **** 
 207:..\..\..\liblc3\src/bits.h **** /**
 208:..\..\..\liblc3\src/bits.h ****  * Put a bit
 209:..\..\..\liblc3\src/bits.h ****  */
 210:..\..\..\liblc3\src/bits.h **** LC3_HOT static inline void lc3_put_bit(lc3_bits_t *bits, int v)
 211:..\..\..\liblc3\src/bits.h **** {
 212:..\..\..\liblc3\src/bits.h ****     lc3_put_bits(bits, v, 1);
 213:..\..\..\liblc3\src/bits.h **** }
 214:..\..\..\liblc3\src/bits.h **** 
 215:..\..\..\liblc3\src/bits.h **** /**
 216:..\..\..\liblc3\src/bits.h ****  * Put from 1 to 32 bits
 217:..\..\..\liblc3\src/bits.h ****  */
 218:..\..\..\liblc3\src/bits.h **** LC3_HOT static inline void lc3_put_bits(
 219:..\..\..\liblc3\src/bits.h ****     struct lc3_bits *bits, unsigned v, int n)
 220:..\..\..\liblc3\src/bits.h **** {
 221:..\..\..\liblc3\src/bits.h ****     struct lc3_bits_accu *accu = &bits->accu;
 222:..\..\..\liblc3\src/bits.h **** 
 223:..\..\..\liblc3\src/bits.h ****     if (accu->n + n <= LC3_ACCU_BITS) {
 3651              		.loc 3 223 0
 3652 0008 026A     		ldr	r2, [r0, #32]
 3653 000a 531D     		adds	r3, r2, #5
 3654 000c 202B     		cmp	r3, #32
 3655 000e 05DC     		bgt	.L181
 224:..\..\..\liblc3\src/bits.h ****         accu->v |= v << accu->n;
 3656              		.loc 3 224 0
 3657 0010 9140     		lsls	r1, r1, r2
 3658              	.LVL573:
 3659 0012 C269     		ldr	r2, [r0, #28]
 3660 0014 1143     		orrs	r1, r2
 3661 0016 C161     		str	r1, [r0, #28]
 3662              	.LVL574:
 225:..\..\..\liblc3\src/bits.h ****         accu->n += n;
 3663              		.loc 3 225 0
 3664 0018 0362     		str	r3, [r0, #32]
 3665 001a 02E0     		b	.L182
 3666              	.LVL575:
 3667              	.L181:
ARM GAS  C:\Users\rdn\AppData\Local\Temp\ccFEeGTH.s 			page 91


 226:..\..\..\liblc3\src/bits.h ****     } else {
 227:..\..\..\liblc3\src/bits.h ****         lc3_put_bits_generic(bits, v, n);
 3668              		.loc 3 227 0
 3669 001c 0522     		movs	r2, #5
 3670 001e FFF7FEFF 		bl	lc3_put_bits_generic
 3671              	.LVL576:
 3672              	.L182:
 3673              	.LBE140:
 3674              	.LBE139:
 840:..\..\..\liblc3\src/sns.c ****     lc3_put_bits(bits, data->hfcb, 5);
 3675              		.loc 1 840 0
 3676 0022 6968     		ldr	r1, [r5, #4]
 3677              	.LVL577:
 3678              	.LBB141:
 3679              	.LBB142:
 223:..\..\..\liblc3\src/bits.h ****         accu->v |= v << accu->n;
 3680              		.loc 3 223 0
 3681 0024 226A     		ldr	r2, [r4, #32]
 3682 0026 531D     		adds	r3, r2, #5
 3683 0028 202B     		cmp	r3, #32
 3684 002a 05DC     		bgt	.L183
 224:..\..\..\liblc3\src/bits.h ****         accu->n += n;
 3685              		.loc 3 224 0
 3686 002c 9140     		lsls	r1, r1, r2
 3687              	.LVL578:
 3688 002e E269     		ldr	r2, [r4, #28]
 3689 0030 1143     		orrs	r1, r2
 3690 0032 E161     		str	r1, [r4, #28]
 3691              	.LVL579:
 225:..\..\..\liblc3\src/bits.h ****     } else {
 3692              		.loc 3 225 0
 3693 0034 2362     		str	r3, [r4, #32]
 3694 0036 03E0     		b	.L184
 3695              	.LVL580:
 3696              	.L183:
 3697              		.loc 3 227 0
 3698 0038 0522     		movs	r2, #5
 3699 003a 2000     		movs	r0, r4
 3700 003c FFF7FEFF 		bl	lc3_put_bits_generic
 3701              	.LVL581:
 3702              	.L184:
 3703              	.LBE142:
 3704              	.LBE141:
 841:..\..\..\liblc3\src/sns.c **** 
 842:..\..\..\liblc3\src/sns.c ****     /* --- Shape, gain and vectors --- *
 843:..\..\..\liblc3\src/sns.c ****      * Write MSB bit of shape index, next LSB bits of shape and gain,
 844:..\..\..\liblc3\src/sns.c ****      * and MVPQ vectors indexes are muxed */
 845:..\..\..\liblc3\src/sns.c **** 
 846:..\..\..\liblc3\src/sns.c ****     int shape_msb = data->shape >> 1;
 3705              		.loc 1 846 0
 3706 0040 AB68     		ldr	r3, [r5, #8]
 3707 0042 5E10     		asrs	r6, r3, #1
 3708              	.LVL582:
 3709              	.LBB143:
 3710              	.LBB144:
 3711              	.LBB145:
 3712              	.LBB146:
ARM GAS  C:\Users\rdn\AppData\Local\Temp\ccFEeGTH.s 			page 92


 223:..\..\..\liblc3\src/bits.h ****         accu->v |= v << accu->n;
 3713              		.loc 3 223 0
 3714 0044 226A     		ldr	r2, [r4, #32]
 3715 0046 531C     		adds	r3, r2, #1
 3716 0048 202B     		cmp	r3, #32
 3717 004a 07DC     		bgt	.L185
 224:..\..\..\liblc3\src/bits.h ****         accu->n += n;
 3718              		.loc 3 224 0
 3719 004c 3100     		movs	r1, r6
 3720 004e 9140     		lsls	r1, r1, r2
 3721 0050 0A00     		movs	r2, r1
 3722 0052 E169     		ldr	r1, [r4, #28]
 3723 0054 0A43     		orrs	r2, r1
 3724 0056 E261     		str	r2, [r4, #28]
 225:..\..\..\liblc3\src/bits.h ****     } else {
 3725              		.loc 3 225 0
 3726 0058 2362     		str	r3, [r4, #32]
 3727 005a 04E0     		b	.L186
 3728              	.L185:
 3729              		.loc 3 227 0
 3730 005c 0122     		movs	r2, #1
 3731 005e 3100     		movs	r1, r6
 3732 0060 2000     		movs	r0, r4
 3733 0062 FFF7FEFF 		bl	lc3_put_bits_generic
 3734              	.LVL583:
 3735              	.L186:
 3736              	.LBE146:
 3737              	.LBE145:
 3738              	.LBE144:
 3739              	.LBE143:
 847:..\..\..\liblc3\src/sns.c ****     lc3_put_bit(bits, shape_msb);
 848:..\..\..\liblc3\src/sns.c **** 
 849:..\..\..\liblc3\src/sns.c ****     if (shape_msb == 0) {
 3740              		.loc 1 849 0
 3741 0066 002E     		cmp	r6, #0
 3742 0068 41D1     		bne	.L187
 3743              	.LVL584:
 3744              	.LBB147:
 850:..\..\..\liblc3\src/sns.c ****         const int size_a = 2390004;
 851:..\..\..\liblc3\src/sns.c ****         int submode = data->shape & 1;
 3745              		.loc 1 851 0
 3746 006a 0123     		movs	r3, #1
 3747 006c AA68     		ldr	r2, [r5, #8]
 3748 006e 1340     		ands	r3, r2
 3749              	.LVL585:
 852:..\..\..\liblc3\src/sns.c **** 
 853:..\..\..\liblc3\src/sns.c ****         int mux_high = submode == 0 ?
 854:..\..\..\liblc3\src/sns.c ****             2 * (data->idx_b + 1) + data->ls_b : data->gain & 1;
 3750              		.loc 1 854 0
 3751 0070 05D1     		bne	.L188
 3752              		.loc 1 854 0 is_stmt 0 discriminator 1
 3753 0072 6A69     		ldr	r2, [r5, #20]
 3754 0074 561C     		adds	r6, r2, #1
 3755              	.LVL586:
 3756 0076 7600     		lsls	r6, r6, #1
 3757 0078 6A7E     		ldrb	r2, [r5, #25]
 3758 007a B618     		adds	r6, r6, r2
ARM GAS  C:\Users\rdn\AppData\Local\Temp\ccFEeGTH.s 			page 93


 3759 007c 02E0     		b	.L189
 3760              	.LVL587:
 3761              	.L188:
 3762              		.loc 1 854 0 discriminator 2
 3763 007e 0126     		movs	r6, #1
 3764              	.LVL588:
 3765 0080 EA68     		ldr	r2, [r5, #12]
 3766 0082 1640     		ands	r6, r2
 3767              	.L189:
 3768              	.LVL589:
 855:..\..\..\liblc3\src/sns.c ****         int mux_code = mux_high * size_a + data->idx_a;
 3769              		.loc 1 855 0 is_stmt 1
 3770 0084 394A     		ldr	r2, .L203
 3771 0086 5643     		muls	r6, r2
 3772              	.LVL590:
 3773 0088 2A69     		ldr	r2, [r5, #16]
 3774 008a 9446     		mov	ip, r2
 3775 008c 6644     		add	r6, r6, ip
 3776              	.LVL591:
 856:..\..\..\liblc3\src/sns.c **** 
 857:..\..\..\liblc3\src/sns.c ****         lc3_put_bits(bits, data->gain >> submode, 1);
 3777              		.loc 1 857 0
 3778 008e E968     		ldr	r1, [r5, #12]
 3779 0090 1941     		asrs	r1, r1, r3
 3780              	.LVL592:
 3781              	.LBB148:
 3782              	.LBB149:
 223:..\..\..\liblc3\src/bits.h ****         accu->v |= v << accu->n;
 3783              		.loc 3 223 0
 3784 0092 226A     		ldr	r2, [r4, #32]
 3785 0094 531C     		adds	r3, r2, #1
 3786              	.LVL593:
 3787 0096 202B     		cmp	r3, #32
 3788 0098 05DC     		bgt	.L190
 224:..\..\..\liblc3\src/bits.h ****         accu->n += n;
 3789              		.loc 3 224 0
 3790 009a 9140     		lsls	r1, r1, r2
 3791              	.LVL594:
 3792 009c E269     		ldr	r2, [r4, #28]
 3793 009e 1143     		orrs	r1, r2
 3794 00a0 E161     		str	r1, [r4, #28]
 3795              	.LVL595:
 225:..\..\..\liblc3\src/bits.h ****     } else {
 3796              		.loc 3 225 0
 3797 00a2 2362     		str	r3, [r4, #32]
 3798 00a4 03E0     		b	.L191
 3799              	.LVL596:
 3800              	.L190:
 3801              		.loc 3 227 0
 3802 00a6 0122     		movs	r2, #1
 3803              	.LVL597:
 3804 00a8 2000     		movs	r0, r4
 3805 00aa FFF7FEFF 		bl	lc3_put_bits_generic
 3806              	.LVL598:
 3807              	.L191:
 3808              	.LBE149:
 3809              	.LBE148:
ARM GAS  C:\Users\rdn\AppData\Local\Temp\ccFEeGTH.s 			page 94


 858:..\..\..\liblc3\src/sns.c ****         lc3_put_bits(bits, data->ls_a, 1);
 3810              		.loc 1 858 0
 3811 00ae 297E     		ldrb	r1, [r5, #24]
 3812              	.LVL599:
 3813              	.LBB150:
 3814              	.LBB151:
 223:..\..\..\liblc3\src/bits.h ****         accu->v |= v << accu->n;
 3815              		.loc 3 223 0
 3816 00b0 226A     		ldr	r2, [r4, #32]
 3817 00b2 531C     		adds	r3, r2, #1
 3818 00b4 202B     		cmp	r3, #32
 3819 00b6 05DC     		bgt	.L192
 224:..\..\..\liblc3\src/bits.h ****         accu->n += n;
 3820              		.loc 3 224 0
 3821 00b8 9140     		lsls	r1, r1, r2
 3822              	.LVL600:
 3823 00ba E269     		ldr	r2, [r4, #28]
 3824 00bc 1143     		orrs	r1, r2
 3825 00be E161     		str	r1, [r4, #28]
 3826              	.LVL601:
 225:..\..\..\liblc3\src/bits.h ****     } else {
 3827              		.loc 3 225 0
 3828 00c0 2362     		str	r3, [r4, #32]
 3829 00c2 03E0     		b	.L193
 3830              	.LVL602:
 3831              	.L192:
 3832              		.loc 3 227 0
 3833 00c4 0122     		movs	r2, #1
 3834 00c6 2000     		movs	r0, r4
 3835 00c8 FFF7FEFF 		bl	lc3_put_bits_generic
 3836              	.LVL603:
 3837              	.L193:
 3838              	.LBE151:
 3839              	.LBE150:
 3840              	.LBB152:
 3841              	.LBB153:
 223:..\..\..\liblc3\src/bits.h ****         accu->v |= v << accu->n;
 3842              		.loc 3 223 0
 3843 00cc 226A     		ldr	r2, [r4, #32]
 3844 00ce 1300     		movs	r3, r2
 3845 00d0 1933     		adds	r3, r3, #25
 3846 00d2 202B     		cmp	r3, #32
 3847 00d4 05DC     		bgt	.L194
 224:..\..\..\liblc3\src/bits.h ****         accu->n += n;
 3848              		.loc 3 224 0
 3849 00d6 9640     		lsls	r6, r6, r2
 3850              	.LVL604:
 3851 00d8 E269     		ldr	r2, [r4, #28]
 3852 00da 1643     		orrs	r6, r2
 3853 00dc E661     		str	r6, [r4, #28]
 225:..\..\..\liblc3\src/bits.h ****     } else {
 3854              		.loc 3 225 0
 3855 00de 2362     		str	r3, [r4, #32]
 3856 00e0 43E0     		b	.L180
 3857              	.LVL605:
 3858              	.L194:
 3859              		.loc 3 227 0
ARM GAS  C:\Users\rdn\AppData\Local\Temp\ccFEeGTH.s 			page 95


 3860 00e2 1922     		movs	r2, #25
 3861 00e4 3100     		movs	r1, r6
 3862 00e6 2000     		movs	r0, r4
 3863 00e8 FFF7FEFF 		bl	lc3_put_bits_generic
 3864              	.LVL606:
 3865 00ec 3DE0     		b	.L180
 3866              	.LVL607:
 3867              	.L187:
 3868              	.LBE153:
 3869              	.LBE152:
 3870              	.LBE147:
 3871              	.LBB154:
 859:..\..\..\liblc3\src/sns.c ****         lc3_put_bits(bits, mux_code, 25);
 860:..\..\..\liblc3\src/sns.c **** 
 861:..\..\..\liblc3\src/sns.c ****     } else {
 862:..\..\..\liblc3\src/sns.c ****         const int size_a = 15158272;
 863:..\..\..\liblc3\src/sns.c ****         int submode = data->shape & 1;
 3872              		.loc 1 863 0
 3873 00ee 0123     		movs	r3, #1
 3874 00f0 AA68     		ldr	r2, [r5, #8]
 3875 00f2 1340     		ands	r3, r2
 3876              	.LVL608:
 864:..\..\..\liblc3\src/sns.c **** 
 865:..\..\..\liblc3\src/sns.c ****         int mux_code = submode == 0 ?
 866:..\..\..\liblc3\src/sns.c ****             data->idx_a : size_a + 2 * data->idx_a + (data->gain & 1);
 3877              		.loc 1 866 0
 3878 00f4 01D1     		bne	.L196
 3879              		.loc 1 866 0 is_stmt 0 discriminator 1
 3880 00f6 2E69     		ldr	r6, [r5, #16]
 3881              	.LVL609:
 3882 00f8 08E0     		b	.L197
 3883              	.LVL610:
 3884              	.L196:
 3885              		.loc 1 866 0 discriminator 2
 3886 00fa 2A69     		ldr	r2, [r5, #16]
 3887 00fc 1C49     		ldr	r1, .L203+4
 3888 00fe 8C46     		mov	ip, r1
 3889 0100 6244     		add	r2, r2, ip
 3890 0102 5200     		lsls	r2, r2, #1
 3891 0104 0126     		movs	r6, #1
 3892              	.LVL611:
 3893 0106 E968     		ldr	r1, [r5, #12]
 3894 0108 0E40     		ands	r6, r1
 3895 010a 9619     		adds	r6, r2, r6
 3896              	.L197:
 3897              	.LVL612:
 867:..\..\..\liblc3\src/sns.c **** 
 868:..\..\..\liblc3\src/sns.c ****         lc3_put_bits(bits, data->gain >> submode, 2);
 3898              		.loc 1 868 0 is_stmt 1
 3899 010c E968     		ldr	r1, [r5, #12]
 3900 010e 1941     		asrs	r1, r1, r3
 3901              	.LVL613:
 3902              	.LBB155:
 3903              	.LBB156:
 223:..\..\..\liblc3\src/bits.h ****         accu->v |= v << accu->n;
 3904              		.loc 3 223 0
 3905 0110 226A     		ldr	r2, [r4, #32]
ARM GAS  C:\Users\rdn\AppData\Local\Temp\ccFEeGTH.s 			page 96


 3906 0112 931C     		adds	r3, r2, #2
 3907              	.LVL614:
 3908 0114 202B     		cmp	r3, #32
 3909 0116 05DC     		bgt	.L198
 224:..\..\..\liblc3\src/bits.h ****         accu->n += n;
 3910              		.loc 3 224 0
 3911 0118 9140     		lsls	r1, r1, r2
 3912              	.LVL615:
 3913 011a E269     		ldr	r2, [r4, #28]
 3914 011c 1143     		orrs	r1, r2
 3915 011e E161     		str	r1, [r4, #28]
 3916              	.LVL616:
 225:..\..\..\liblc3\src/bits.h ****     } else {
 3917              		.loc 3 225 0
 3918 0120 2362     		str	r3, [r4, #32]
 3919 0122 03E0     		b	.L199
 3920              	.LVL617:
 3921              	.L198:
 3922              		.loc 3 227 0
 3923 0124 0222     		movs	r2, #2
 3924 0126 2000     		movs	r0, r4
 3925 0128 FFF7FEFF 		bl	lc3_put_bits_generic
 3926              	.LVL618:
 3927              	.L199:
 3928              	.LBE156:
 3929              	.LBE155:
 869:..\..\..\liblc3\src/sns.c ****         lc3_put_bits(bits, data->ls_a, 1);
 3930              		.loc 1 869 0
 3931 012c 297E     		ldrb	r1, [r5, #24]
 3932              	.LVL619:
 3933              	.LBB157:
 3934              	.LBB158:
 223:..\..\..\liblc3\src/bits.h ****         accu->v |= v << accu->n;
 3935              		.loc 3 223 0
 3936 012e 226A     		ldr	r2, [r4, #32]
 3937 0130 531C     		adds	r3, r2, #1
 3938 0132 202B     		cmp	r3, #32
 3939 0134 05DC     		bgt	.L200
 224:..\..\..\liblc3\src/bits.h ****         accu->n += n;
 3940              		.loc 3 224 0
 3941 0136 9140     		lsls	r1, r1, r2
 3942              	.LVL620:
 3943 0138 E269     		ldr	r2, [r4, #28]
 3944 013a 1143     		orrs	r1, r2
 3945 013c E161     		str	r1, [r4, #28]
 3946              	.LVL621:
 225:..\..\..\liblc3\src/bits.h ****     } else {
 3947              		.loc 3 225 0
 3948 013e 2362     		str	r3, [r4, #32]
 3949 0140 03E0     		b	.L201
 3950              	.LVL622:
 3951              	.L200:
 3952              		.loc 3 227 0
 3953 0142 0122     		movs	r2, #1
 3954 0144 2000     		movs	r0, r4
 3955 0146 FFF7FEFF 		bl	lc3_put_bits_generic
 3956              	.LVL623:
ARM GAS  C:\Users\rdn\AppData\Local\Temp\ccFEeGTH.s 			page 97


 3957              	.L201:
 3958              	.LBE158:
 3959              	.LBE157:
 3960              	.LBB159:
 3961              	.LBB160:
 223:..\..\..\liblc3\src/bits.h ****         accu->v |= v << accu->n;
 3962              		.loc 3 223 0
 3963 014a 226A     		ldr	r2, [r4, #32]
 3964 014c 1300     		movs	r3, r2
 3965 014e 1833     		adds	r3, r3, #24
 3966 0150 202B     		cmp	r3, #32
 3967 0152 05DC     		bgt	.L202
 224:..\..\..\liblc3\src/bits.h ****         accu->n += n;
 3968              		.loc 3 224 0
 3969 0154 9640     		lsls	r6, r6, r2
 3970              	.LVL624:
 3971 0156 E269     		ldr	r2, [r4, #28]
 3972 0158 1643     		orrs	r6, r2
 3973 015a E661     		str	r6, [r4, #28]
 225:..\..\..\liblc3\src/bits.h ****     } else {
 3974              		.loc 3 225 0
 3975 015c 2362     		str	r3, [r4, #32]
 3976 015e 04E0     		b	.L180
 3977              	.LVL625:
 3978              	.L202:
 3979              		.loc 3 227 0
 3980 0160 1822     		movs	r2, #24
 3981 0162 3100     		movs	r1, r6
 3982 0164 2000     		movs	r0, r4
 3983 0166 FFF7FEFF 		bl	lc3_put_bits_generic
 3984              	.LVL626:
 3985              	.L180:
 3986              	.LBE160:
 3987              	.LBE159:
 3988              	.LBE154:
 870:..\..\..\liblc3\src/sns.c ****         lc3_put_bits(bits, mux_code, 24);
 871:..\..\..\liblc3\src/sns.c ****     }
 872:..\..\..\liblc3\src/sns.c **** }
 3989              		.loc 1 872 0
 3990              		@ sp needed
 3991              	.LVL627:
 3992              	.LVL628:
 3993 016a 70BD     		pop	{r4, r5, r6, pc}
 3994              	.L204:
 3995              		.align	2
 3996              	.L203:
 3997 016c F4772400 		.word	2390004
 3998 0170 00A67300 		.word	7579136
 3999              		.cfi_endproc
 4000              	.LFE36:
 4001              		.size	lc3_sns_put_data, .-lc3_sns_put_data
 4002              		.global	__aeabi_idiv
 4003              		.section	.text.lc3_sns_get_data,"ax",%progbits
 4004              		.align	2
 4005              		.global	lc3_sns_get_data
 4006              		.code	16
 4007              		.thumb_func
ARM GAS  C:\Users\rdn\AppData\Local\Temp\ccFEeGTH.s 			page 98


 4008              		.type	lc3_sns_get_data, %function
 4009              	lc3_sns_get_data:
 4010              	.LFB37:
 873:..\..\..\liblc3\src/sns.c **** 
 874:..\..\..\liblc3\src/sns.c **** /**
 875:..\..\..\liblc3\src/sns.c ****  * Get bitstream data
 876:..\..\..\liblc3\src/sns.c ****  */
 877:..\..\..\liblc3\src/sns.c **** int lc3_sns_get_data(lc3_bits_t *bits, struct lc3_sns_data *data)
 878:..\..\..\liblc3\src/sns.c **** {
 4011              		.loc 1 878 0
 4012              		.cfi_startproc
 4013              		@ args = 0, pretend = 0, frame = 0
 4014              		@ frame_needed = 0, uses_anonymous_args = 0
 4015              	.LVL629:
 4016 0000 F8B5     		push	{r3, r4, r5, r6, r7, lr}
 4017              		.cfi_def_cfa_offset 24
 4018              		.cfi_offset 3, -24
 4019              		.cfi_offset 4, -20
 4020              		.cfi_offset 5, -16
 4021              		.cfi_offset 6, -12
 4022              		.cfi_offset 7, -8
 4023              		.cfi_offset 14, -4
 4024 0002 0400     		movs	r4, r0
 4025 0004 0D00     		movs	r5, r1
 4026              	.LVL630:
 4027              	.LBB185:
 4028              	.LBB186:
 228:..\..\..\liblc3\src/bits.h ****     }
 229:..\..\..\liblc3\src/bits.h **** }
 230:..\..\..\liblc3\src/bits.h **** 
 231:..\..\..\liblc3\src/bits.h **** /**
 232:..\..\..\liblc3\src/bits.h ****  * Get a bit
 233:..\..\..\liblc3\src/bits.h ****  */
 234:..\..\..\liblc3\src/bits.h **** LC3_HOT static inline int lc3_get_bit(lc3_bits_t *bits)
 235:..\..\..\liblc3\src/bits.h **** {
 236:..\..\..\liblc3\src/bits.h ****     return lc3_get_bits(bits, 1);
 237:..\..\..\liblc3\src/bits.h **** }
 238:..\..\..\liblc3\src/bits.h **** 
 239:..\..\..\liblc3\src/bits.h **** /**
 240:..\..\..\liblc3\src/bits.h ****  * Get from 1 to 32 bits
 241:..\..\..\liblc3\src/bits.h ****  */
 242:..\..\..\liblc3\src/bits.h **** LC3_HOT static inline unsigned lc3_get_bits(struct lc3_bits *bits, int n)
 243:..\..\..\liblc3\src/bits.h **** {
 244:..\..\..\liblc3\src/bits.h ****     struct lc3_bits_accu *accu = &bits->accu;
 245:..\..\..\liblc3\src/bits.h **** 
 246:..\..\..\liblc3\src/bits.h ****     if (accu->n + n <= LC3_ACCU_BITS) {
 4029              		.loc 3 246 0
 4030 0006 036A     		ldr	r3, [r0, #32]
 4031 0008 5A1D     		adds	r2, r3, #5
 4032 000a 202A     		cmp	r2, #32
 4033 000c 06DC     		bgt	.L206
 4034              	.LBB187:
 247:..\..\..\liblc3\src/bits.h ****         int v = (accu->v >> accu->n) & ((1u << n) - 1);
 4035              		.loc 3 247 0
 4036 000e C169     		ldr	r1, [r0, #28]
 4037              	.LVL631:
 4038 0010 D940     		lsrs	r1, r1, r3
ARM GAS  C:\Users\rdn\AppData\Local\Temp\ccFEeGTH.s 			page 99


 4039 0012 1F26     		movs	r6, #31
 4040 0014 3000     		movs	r0, r6
 4041              	.LVL632:
 4042 0016 0840     		ands	r0, r1
 4043              	.LVL633:
 248:..\..\..\liblc3\src/bits.h ****         return (accu->n += n), v;
 4044              		.loc 3 248 0
 4045 0018 2262     		str	r2, [r4, #32]
 4046 001a 02E0     		b	.L207
 4047              	.LVL634:
 4048              	.L206:
 4049              	.LBE187:
 249:..\..\..\liblc3\src/bits.h ****     }
 250:..\..\..\liblc3\src/bits.h ****     else {
 251:..\..\..\liblc3\src/bits.h ****         return lc3_get_bits_generic(bits, n);
 4050              		.loc 3 251 0
 4051 001c 0521     		movs	r1, #5
 4052              	.LVL635:
 4053 001e FFF7FEFF 		bl	lc3_get_bits_generic
 4054              	.LVL636:
 4055              	.L207:
 4056              	.LBE186:
 4057              	.LBE185:
 879:..\..\..\liblc3\src/sns.c ****     /* --- Codebooks --- */
 880:..\..\..\liblc3\src/sns.c **** 
 881:..\..\..\liblc3\src/sns.c ****     *data = (struct lc3_sns_data){
 4058              		.loc 1 881 0
 4059 0022 0600     		movs	r6, r0
 4060              	.LVL637:
 4061              	.LBB188:
 4062              	.LBB189:
 246:..\..\..\liblc3\src/bits.h ****         int v = (accu->v >> accu->n) & ((1u << n) - 1);
 4063              		.loc 3 246 0
 4064 0024 236A     		ldr	r3, [r4, #32]
 4065 0026 5A1D     		adds	r2, r3, #5
 4066 0028 202A     		cmp	r2, #32
 4067 002a 05DC     		bgt	.L208
 4068              	.LBB190:
 247:..\..\..\liblc3\src/bits.h ****         return (accu->n += n), v;
 4069              		.loc 3 247 0
 4070 002c E169     		ldr	r1, [r4, #28]
 4071 002e D940     		lsrs	r1, r1, r3
 4072 0030 1F27     		movs	r7, #31
 4073 0032 0F40     		ands	r7, r1
 4074              	.LVL638:
 248:..\..\..\liblc3\src/bits.h ****     }
 4075              		.loc 3 248 0
 4076 0034 2262     		str	r2, [r4, #32]
 4077 0036 04E0     		b	.L209
 4078              	.LVL639:
 4079              	.L208:
 4080              	.LBE190:
 4081              		.loc 3 251 0
 4082 0038 0521     		movs	r1, #5
 4083 003a 2000     		movs	r0, r4
 4084 003c FFF7FEFF 		bl	lc3_get_bits_generic
 4085              	.LVL640:
ARM GAS  C:\Users\rdn\AppData\Local\Temp\ccFEeGTH.s 			page 100


 4086 0040 0700     		movs	r7, r0
 4087              	.L209:
 4088              	.LVL641:
 4089              	.LBE189:
 4090              	.LBE188:
 4091              		.loc 1 881 0
 4092 0042 1C22     		movs	r2, #28
 4093 0044 0021     		movs	r1, #0
 4094 0046 2800     		movs	r0, r5
 4095 0048 FFF7FEFF 		bl	memset
 4096              	.LVL642:
 4097 004c 2E60     		str	r6, [r5]
 4098 004e 6F60     		str	r7, [r5, #4]
 4099              	.LVL643:
 4100              	.LBB191:
 4101              	.LBB192:
 4102              	.LBB193:
 4103              	.LBB194:
 246:..\..\..\liblc3\src/bits.h ****         int v = (accu->v >> accu->n) & ((1u << n) - 1);
 4104              		.loc 3 246 0
 4105 0050 236A     		ldr	r3, [r4, #32]
 4106 0052 5A1C     		adds	r2, r3, #1
 4107 0054 202A     		cmp	r2, #32
 4108 0056 07DC     		bgt	.L210
 4109              	.LBB195:
 247:..\..\..\liblc3\src/bits.h ****         return (accu->n += n), v;
 4110              		.loc 3 247 0
 4111 0058 E169     		ldr	r1, [r4, #28]
 4112 005a D940     		lsrs	r1, r1, r3
 4113 005c 0B00     		movs	r3, r1
 4114 005e 0121     		movs	r1, #1
 4115 0060 1940     		ands	r1, r3
 4116 0062 0800     		movs	r0, r1
 4117              	.LVL644:
 248:..\..\..\liblc3\src/bits.h ****     }
 4118              		.loc 3 248 0
 4119 0064 2262     		str	r2, [r4, #32]
 4120 0066 03E0     		b	.L211
 4121              	.LVL645:
 4122              	.L210:
 4123              	.LBE195:
 4124              		.loc 3 251 0
 4125 0068 0121     		movs	r1, #1
 4126 006a 2000     		movs	r0, r4
 4127 006c FFF7FEFF 		bl	lc3_get_bits_generic
 4128              	.LVL646:
 4129              	.L211:
 4130              	.LBE194:
 4131              	.LBE193:
 236:..\..\..\liblc3\src/bits.h **** }
 4132              		.loc 3 236 0
 4133 0070 0600     		movs	r6, r0
 4134              	.LVL647:
 4135              	.LBE192:
 4136              	.LBE191:
 882:..\..\..\liblc3\src/sns.c ****         .lfcb = lc3_get_bits(bits, 5),
 883:..\..\..\liblc3\src/sns.c ****         .hfcb = lc3_get_bits(bits, 5)
ARM GAS  C:\Users\rdn\AppData\Local\Temp\ccFEeGTH.s 			page 101


 884:..\..\..\liblc3\src/sns.c ****     };
 885:..\..\..\liblc3\src/sns.c **** 
 886:..\..\..\liblc3\src/sns.c ****     /* --- Shape, gain and vectors --- */
 887:..\..\..\liblc3\src/sns.c **** 
 888:..\..\..\liblc3\src/sns.c ****     int shape_msb = lc3_get_bit(bits);
 889:..\..\..\liblc3\src/sns.c ****     data->gain = lc3_get_bits(bits, 1 + shape_msb);
 4137              		.loc 1 889 0
 4138 0072 411C     		adds	r1, r0, #1
 4139              	.LVL648:
 4140              	.LBB196:
 4141              	.LBB197:
 246:..\..\..\liblc3\src/bits.h ****         int v = (accu->v >> accu->n) & ((1u << n) - 1);
 4142              		.loc 3 246 0
 4143 0074 236A     		ldr	r3, [r4, #32]
 4144 0076 CA18     		adds	r2, r1, r3
 4145 0078 202A     		cmp	r2, #32
 4146 007a 08DC     		bgt	.L212
 4147              	.LBB198:
 247:..\..\..\liblc3\src/bits.h ****         return (accu->n += n), v;
 4148              		.loc 3 247 0
 4149 007c E069     		ldr	r0, [r4, #28]
 4150 007e D840     		lsrs	r0, r0, r3
 4151 0080 0300     		movs	r3, r0
 4152 0082 0120     		movs	r0, #1
 4153 0084 8840     		lsls	r0, r0, r1
 4154 0086 0138     		subs	r0, r0, #1
 4155 0088 1840     		ands	r0, r3
 4156              	.LVL649:
 248:..\..\..\liblc3\src/bits.h ****     }
 4157              		.loc 3 248 0
 4158 008a 2262     		str	r2, [r4, #32]
 4159 008c 02E0     		b	.L213
 4160              	.LVL650:
 4161              	.L212:
 4162              	.LBE198:
 4163              		.loc 3 251 0
 4164 008e 2000     		movs	r0, r4
 4165 0090 FFF7FEFF 		bl	lc3_get_bits_generic
 4166              	.LVL651:
 4167              	.L213:
 4168              	.LBE197:
 4169              	.LBE196:
 4170              		.loc 1 889 0
 4171 0094 E860     		str	r0, [r5, #12]
 4172              	.LVL652:
 4173              	.LBB199:
 4174              	.LBB200:
 4175              	.LBB201:
 4176              	.LBB202:
 246:..\..\..\liblc3\src/bits.h ****         int v = (accu->v >> accu->n) & ((1u << n) - 1);
 4177              		.loc 3 246 0
 4178 0096 236A     		ldr	r3, [r4, #32]
 4179 0098 5A1C     		adds	r2, r3, #1
 4180 009a 202A     		cmp	r2, #32
 4181 009c 05DC     		bgt	.L214
 4182              	.LBB203:
 247:..\..\..\liblc3\src/bits.h ****         return (accu->n += n), v;
ARM GAS  C:\Users\rdn\AppData\Local\Temp\ccFEeGTH.s 			page 102


 4183              		.loc 3 247 0
 4184 009e E169     		ldr	r1, [r4, #28]
 4185 00a0 D940     		lsrs	r1, r1, r3
 4186 00a2 0120     		movs	r0, #1
 4187 00a4 0840     		ands	r0, r1
 4188              	.LVL653:
 248:..\..\..\liblc3\src/bits.h ****     }
 4189              		.loc 3 248 0
 4190 00a6 2262     		str	r2, [r4, #32]
 4191 00a8 03E0     		b	.L215
 4192              	.LVL654:
 4193              	.L214:
 4194              	.LBE203:
 4195              		.loc 3 251 0
 4196 00aa 0121     		movs	r1, #1
 4197 00ac 2000     		movs	r0, r4
 4198 00ae FFF7FEFF 		bl	lc3_get_bits_generic
 4199              	.LVL655:
 4200              	.L215:
 4201              	.LBE202:
 4202              	.LBE201:
 4203              	.LBE200:
 4204              	.LBE199:
 890:..\..\..\liblc3\src/sns.c ****     data->ls_a = lc3_get_bit(bits);
 4205              		.loc 1 890 0
 4206 00b2 431E     		subs	r3, r0, #1
 4207 00b4 9841     		sbcs	r0, r0, r3
 4208 00b6 2876     		strb	r0, [r5, #24]
 891:..\..\..\liblc3\src/sns.c **** 
 892:..\..\..\liblc3\src/sns.c ****     int mux_code = lc3_get_bits(bits, 25 - shape_msb);
 4209              		.loc 1 892 0
 4210 00b8 1921     		movs	r1, #25
 4211 00ba 891B     		subs	r1, r1, r6
 4212              	.LVL656:
 4213              	.LBB204:
 4214              	.LBB205:
 246:..\..\..\liblc3\src/bits.h ****         int v = (accu->v >> accu->n) & ((1u << n) - 1);
 4215              		.loc 3 246 0
 4216 00bc 236A     		ldr	r3, [r4, #32]
 4217 00be CA18     		adds	r2, r1, r3
 4218 00c0 202A     		cmp	r2, #32
 4219 00c2 08DC     		bgt	.L216
 4220              	.LBB206:
 247:..\..\..\liblc3\src/bits.h ****         return (accu->n += n), v;
 4221              		.loc 3 247 0
 4222 00c4 E069     		ldr	r0, [r4, #28]
 4223 00c6 D840     		lsrs	r0, r0, r3
 4224 00c8 0300     		movs	r3, r0
 4225 00ca 0120     		movs	r0, #1
 4226 00cc 8840     		lsls	r0, r0, r1
 4227 00ce 0138     		subs	r0, r0, #1
 4228 00d0 1840     		ands	r0, r3
 4229              	.LVL657:
 248:..\..\..\liblc3\src/bits.h ****     }
 4230              		.loc 3 248 0
 4231 00d2 2262     		str	r2, [r4, #32]
 4232 00d4 02E0     		b	.L217
ARM GAS  C:\Users\rdn\AppData\Local\Temp\ccFEeGTH.s 			page 103


 4233              	.LVL658:
 4234              	.L216:
 4235              	.LBE206:
 4236              		.loc 3 251 0
 4237 00d6 2000     		movs	r0, r4
 4238 00d8 FFF7FEFF 		bl	lc3_get_bits_generic
 4239              	.LVL659:
 4240              	.L217:
 4241              	.LBE205:
 4242              	.LBE204:
 4243              		.loc 1 892 0
 4244 00dc 0400     		movs	r4, r0
 4245              	.LVL660:
 893:..\..\..\liblc3\src/sns.c **** 
 894:..\..\..\liblc3\src/sns.c ****     if (shape_msb == 0) {
 4246              		.loc 1 894 0
 4247 00de 002E     		cmp	r6, #0
 4248 00e0 2CD1     		bne	.L218
 4249              	.LVL661:
 4250              	.LBB207:
 895:..\..\..\liblc3\src/sns.c ****         const int size_a = 2390004;
 896:..\..\..\liblc3\src/sns.c **** 
 897:..\..\..\liblc3\src/sns.c ****         if (mux_code >= size_a * 14)
 4251              		.loc 1 897 0
 4252 00e2 2A4B     		ldr	r3, .L226
 4253 00e4 9842     		cmp	r0, r3
 4254 00e6 4ADC     		bgt	.L223
 898:..\..\..\liblc3\src/sns.c ****             return -1;
 899:..\..\..\liblc3\src/sns.c **** 
 900:..\..\..\liblc3\src/sns.c ****         data->idx_a = mux_code % size_a;
 4255              		.loc 1 900 0
 4256 00e8 2949     		ldr	r1, .L226+4
 4257 00ea FFF7FEFF 		bl	__aeabi_idivmod
 4258              	.LVL662:
 4259 00ee 2961     		str	r1, [r5, #16]
 901:..\..\..\liblc3\src/sns.c ****         mux_code = mux_code / size_a;
 4260              		.loc 1 901 0
 4261 00f0 2749     		ldr	r1, .L226+4
 4262 00f2 2000     		movs	r0, r4
 4263 00f4 FFF7FEFF 		bl	__aeabi_idiv
 4264              	.LVL663:
 4265 00f8 0300     		movs	r3, r0
 4266              	.LVL664:
 902:..\..\..\liblc3\src/sns.c **** 
 903:..\..\..\liblc3\src/sns.c ****         data->shape = (mux_code < 2);
 4267              		.loc 1 903 0
 4268 00fa C00F     		lsrs	r0, r0, #31
 4269              	.LVL665:
 4270 00fc 0021     		movs	r1, #0
 4271 00fe 0122     		movs	r2, #1
 4272 0100 9A42     		cmp	r2, r3
 4273 0102 4841     		adcs	r0, r0, r1
 4274 0104 A860     		str	r0, [r5, #8]
 904:..\..\..\liblc3\src/sns.c **** 
 905:..\..\..\liblc3\src/sns.c ****         if (data->shape == 0) {
 4275              		.loc 1 905 0
 4276 0106 0028     		cmp	r0, #0
ARM GAS  C:\Users\rdn\AppData\Local\Temp\ccFEeGTH.s 			page 104


 4277 0108 0DD1     		bne	.L220
 906:..\..\..\liblc3\src/sns.c ****             data->idx_b = (mux_code - 2) / 2;
 4278              		.loc 1 906 0
 4279 010a 023B     		subs	r3, r3, #2
 4280              	.LVL666:
 4281 010c DA0F     		lsrs	r2, r3, #31
 4282 010e D218     		adds	r2, r2, r3
 4283 0110 5210     		asrs	r2, r2, #1
 4284 0112 6A61     		str	r2, [r5, #20]
 907:..\..\..\liblc3\src/sns.c ****             data->ls_b  = (mux_code - 2) % 2;
 4285              		.loc 1 907 0
 4286 0114 DA0F     		lsrs	r2, r3, #31
 4287 0116 9B18     		adds	r3, r3, r2
 4288              	.LVL667:
 4289 0118 0131     		adds	r1, r1, #1
 4290 011a 0B40     		ands	r3, r1
 4291 011c 9B1A     		subs	r3, r3, r2
 4292 011e 5A1E     		subs	r2, r3, #1
 4293 0120 9341     		sbcs	r3, r3, r2
 4294 0122 6B76     		strb	r3, [r5, #25]
 4295 0124 30E0     		b	.L219
 4296              	.LVL668:
 4297              	.L220:
 908:..\..\..\liblc3\src/sns.c ****         } else {
 909:..\..\..\liblc3\src/sns.c ****             data->gain = (data->gain << 1) + (mux_code % 2);
 4298              		.loc 1 909 0
 4299 0126 EA68     		ldr	r2, [r5, #12]
 4300 0128 5200     		lsls	r2, r2, #1
 4301 012a D90F     		lsrs	r1, r3, #31
 4302 012c 5818     		adds	r0, r3, r1
 4303 012e 0123     		movs	r3, #1
 4304              	.LVL669:
 4305 0130 1840     		ands	r0, r3
 4306 0132 431A     		subs	r3, r0, r1
 4307 0134 D318     		adds	r3, r2, r3
 4308 0136 EB60     		str	r3, [r5, #12]
 4309              	.LBE207:
 910:..\..\..\liblc3\src/sns.c ****         }
 911:..\..\..\liblc3\src/sns.c **** 
 912:..\..\..\liblc3\src/sns.c ****     } else {
 913:..\..\..\liblc3\src/sns.c ****         const int size_a = 15158272;
 914:..\..\..\liblc3\src/sns.c **** 
 915:..\..\..\liblc3\src/sns.c ****         if (mux_code >= size_a + 1549824)
 916:..\..\..\liblc3\src/sns.c ****             return -1;
 917:..\..\..\liblc3\src/sns.c **** 
 918:..\..\..\liblc3\src/sns.c ****         data->shape = 2 + (mux_code >= size_a);
 919:..\..\..\liblc3\src/sns.c ****         if (data->shape == 2) {
 920:..\..\..\liblc3\src/sns.c ****             data->idx_a = mux_code;
 921:..\..\..\liblc3\src/sns.c ****         } else {
 922:..\..\..\liblc3\src/sns.c ****             mux_code -= size_a;
 923:..\..\..\liblc3\src/sns.c ****             data->idx_a = mux_code / 2;
 924:..\..\..\liblc3\src/sns.c ****             data->gain = (data->gain << 1) + (mux_code % 2);
 925:..\..\..\liblc3\src/sns.c ****         }
 926:..\..\..\liblc3\src/sns.c ****     }
 927:..\..\..\liblc3\src/sns.c **** 
 928:..\..\..\liblc3\src/sns.c ****     return 0;
 4310              		.loc 1 928 0
ARM GAS  C:\Users\rdn\AppData\Local\Temp\ccFEeGTH.s 			page 105


 4311 0138 3000     		movs	r0, r6
 4312 013a 25E0     		b	.L219
 4313              	.LVL670:
 4314              	.L218:
 4315              	.LBB208:
 915:..\..\..\liblc3\src/sns.c ****             return -1;
 4316              		.loc 1 915 0
 4317 013c 154B     		ldr	r3, .L226+8
 4318 013e 9842     		cmp	r0, r3
 4319 0140 20DC     		bgt	.L224
 918:..\..\..\liblc3\src/sns.c ****         if (data->shape == 2) {
 4320              		.loc 1 918 0
 4321 0142 154B     		ldr	r3, .L226+12
 4322 0144 9842     		cmp	r0, r3
 4323 0146 01DD     		ble	.L225
 4324 0148 0323     		movs	r3, #3
 4325 014a 00E0     		b	.L221
 4326              	.L225:
 4327 014c 0223     		movs	r3, #2
 4328              	.L221:
 918:..\..\..\liblc3\src/sns.c ****         if (data->shape == 2) {
 4329              		.loc 1 918 0 is_stmt 0 discriminator 4
 4330 014e AB60     		str	r3, [r5, #8]
 919:..\..\..\liblc3\src/sns.c ****             data->idx_a = mux_code;
 4331              		.loc 1 919 0 is_stmt 1 discriminator 4
 4332 0150 022B     		cmp	r3, #2
 4333 0152 02D1     		bne	.L222
 920:..\..\..\liblc3\src/sns.c ****         } else {
 4334              		.loc 1 920 0
 4335 0154 2C61     		str	r4, [r5, #16]
 4336              	.LBE208:
 4337              		.loc 1 928 0
 4338 0156 0020     		movs	r0, #0
 4339              	.LVL671:
 4340              	.LBB209:
 4341 0158 16E0     		b	.L219
 4342              	.LVL672:
 4343              	.L222:
 922:..\..\..\liblc3\src/sns.c ****             data->idx_a = mux_code / 2;
 4344              		.loc 1 922 0
 4345 015a 104B     		ldr	r3, .L226+16
 4346 015c 9C46     		mov	ip, r3
 4347 015e 6444     		add	r4, r4, ip
 4348              	.LVL673:
 923:..\..\..\liblc3\src/sns.c ****             data->gain = (data->gain << 1) + (mux_code % 2);
 4349              		.loc 1 923 0
 4350 0160 E30F     		lsrs	r3, r4, #31
 4351 0162 1B19     		adds	r3, r3, r4
 4352 0164 5B10     		asrs	r3, r3, #1
 4353 0166 2B61     		str	r3, [r5, #16]
 924:..\..\..\liblc3\src/sns.c ****         }
 4354              		.loc 1 924 0
 4355 0168 EB68     		ldr	r3, [r5, #12]
 4356 016a 5B00     		lsls	r3, r3, #1
 4357 016c E20F     		lsrs	r2, r4, #31
 4358 016e A418     		adds	r4, r4, r2
 4359              	.LVL674:
ARM GAS  C:\Users\rdn\AppData\Local\Temp\ccFEeGTH.s 			page 106


 4360 0170 0120     		movs	r0, #1
 4361              	.LVL675:
 4362 0172 2040     		ands	r0, r4
 4363 0174 841A     		subs	r4, r0, r2
 4364 0176 1C19     		adds	r4, r3, r4
 4365 0178 EC60     		str	r4, [r5, #12]
 4366              	.LBE209:
 4367              		.loc 1 928 0
 4368 017a 0020     		movs	r0, #0
 4369 017c 04E0     		b	.L219
 4370              	.LVL676:
 4371              	.L223:
 4372              	.LBB210:
 898:..\..\..\liblc3\src/sns.c **** 
 4373              		.loc 1 898 0
 4374 017e 0120     		movs	r0, #1
 4375              	.LVL677:
 4376 0180 4042     		rsbs	r0, r0, #0
 4377 0182 01E0     		b	.L219
 4378              	.LVL678:
 4379              	.L224:
 4380              	.LBE210:
 4381              	.LBB211:
 916:..\..\..\liblc3\src/sns.c **** 
 4382              		.loc 1 916 0
 4383 0184 0120     		movs	r0, #1
 4384              	.LVL679:
 4385 0186 4042     		rsbs	r0, r0, #0
 4386              	.LVL680:
 4387              	.L219:
 4388              	.LBE211:
 929:..\..\..\liblc3\src/sns.c **** }
 4389              		.loc 1 929 0
 4390              		@ sp needed
 4391              	.LVL681:
 4392 0188 F8BD     		pop	{r3, r4, r5, r6, r7, pc}
 4393              	.L227:
 4394 018a C046     		.align	2
 4395              	.L226:
 4396 018c 578FFE01 		.word	33460055
 4397 0190 F4772400 		.word	2390004
 4398 0194 FFF1FE00 		.word	16708095
 4399 0198 FF4BE700 		.word	15158271
 4400 019c 00B418FF 		.word	-15158272
 4401              		.cfi_endproc
 4402              	.LFE37:
 4403              		.size	lc3_sns_get_data, .-lc3_sns_get_data
 4404              		.section	.rodata
 4405              		.align	2
 4406              		.set	.LANCHOR0,. + 0
 4407              		.set	.LANCHOR1,. + 1024
 4408              		.type	dct16_m, %object
 4409              		.size	dct16_m, 1024
 4410              	dct16_m:
 4411 0000 0000803E 		.word	1048576000
 4412 0004 CE25B43E 		.word	1051993550
 4413 0008 868AB13E 		.word	1051822726
ARM GAS  C:\Users\rdn\AppData\Local\Temp\ccFEeGTH.s 			page 107


 4414 000c 8639AD3E 		.word	1051539846
 4415 0010 753DA73E 		.word	1051147637
 4416 0014 12A59F3E 		.word	1050649874
 4417 0018 1783963E 		.word	1050051351
 4418 001c 0AEE8B3E 		.word	1049357834
 4419 0020 0000803E 		.word	1048576000
 4420 0024 C6AC653E 		.word	1046850758
 4421 0028 4E23493E 		.word	1044980558
 4422 002c F2A92A3E 		.word	1042983410
 4423 0030 D48B0A3E 		.word	1040878548
 4424 0034 4530D23D 		.word	1037185093
 4425 0038 AF428D3D 		.word	1032667823
 4426 003c A9F10D3D 		.word	1024324009
 4427 0040 0000803E 		.word	1048576000
 4428 0044 8639AD3E 		.word	1051539846
 4429 0048 1783963E 		.word	1050051351
 4430 004c C6AC653E 		.word	1046850758
 4431 0050 D48B0A3E 		.word	1040878548
 4432 0054 A9F10D3D 		.word	1024324009
 4433 0058 AF428DBD 		.word	-1114815825
 4434 005c F2A92ABE 		.word	-1104500238
 4435 0060 000080BE 		.word	-1098907648
 4436 0064 12A59FBE 		.word	-1096833774
 4437 0068 868AB1BE 		.word	-1095660922
 4438 006c CE25B4BE 		.word	-1095490098
 4439 0070 753DA7BE 		.word	-1096336011
 4440 0074 0AEE8BBE 		.word	-1098125814
 4441 0078 4E2349BE 		.word	-1102503090
 4442 007c 4530D2BD 		.word	-1110298555
 4443 0080 0000803E 		.word	1048576000
 4444 0084 12A59F3E 		.word	1050649874
 4445 0088 4E23493E 		.word	1044980558
 4446 008c A9F10D3D 		.word	1024324009
 4447 0090 D48B0ABE 		.word	-1106605100
 4448 0094 0AEE8BBE 		.word	-1098125814
 4449 0098 868AB1BE 		.word	-1095660922
 4450 009c 8639ADBE 		.word	-1095943802
 4451 00a0 000080BE 		.word	-1098907648
 4452 00a4 4530D2BD 		.word	-1110298555
 4453 00a8 AF428D3D 		.word	1032667823
 4454 00ac C6AC653E 		.word	1046850758
 4455 00b0 753DA73E 		.word	1051147637
 4456 00b4 CE25B43E 		.word	1051993550
 4457 00b8 1783963E 		.word	1050051351
 4458 00bc F2A92A3E 		.word	1042983410
 4459 00c0 0000803E 		.word	1048576000
 4460 00c4 0AEE8B3E 		.word	1049357834
 4461 00c8 AF428D3D 		.word	1032667823
 4462 00cc F2A92ABE 		.word	-1104500238
 4463 00d0 753DA7BE 		.word	-1096336011
 4464 00d4 8639ADBE 		.word	-1095943802
 4465 00d8 4E2349BE 		.word	-1102503090
 4466 00dc A9F10D3D 		.word	1024324009
 4467 00e0 0000803E 		.word	1048576000
 4468 00e4 CE25B43E 		.word	1051993550
 4469 00e8 1783963E 		.word	1050051351
 4470 00ec 4530D23D 		.word	1037185093
ARM GAS  C:\Users\rdn\AppData\Local\Temp\ccFEeGTH.s 			page 108


 4471 00f0 D48B0ABE 		.word	-1106605100
 4472 00f4 12A59FBE 		.word	-1096833774
 4473 00f8 868AB1BE 		.word	-1095660922
 4474 00fc C6AC65BE 		.word	-1100632890
 4475 0100 0000803E 		.word	1048576000
 4476 0104 C6AC653E 		.word	1046850758
 4477 0108 AF428DBD 		.word	-1114815825
 4478 010c 12A59FBE 		.word	-1096833774
 4479 0110 753DA7BE 		.word	-1096336011
 4480 0114 4530D2BD 		.word	-1110298555
 4481 0118 4E23493E 		.word	1044980558
 4482 011c CE25B43E 		.word	1051993550
 4483 0120 0000803E 		.word	1048576000
 4484 0124 A9F10DBD 		.word	-1123159639
 4485 0128 178396BE 		.word	-1097432297
 4486 012c 8639ADBE 		.word	-1095943802
 4487 0130 D48B0ABE 		.word	-1106605100
 4488 0134 F2A92A3E 		.word	1042983410
 4489 0138 868AB13E 		.word	1051822726
 4490 013c 0AEE8B3E 		.word	1049357834
 4491 0140 0000803E 		.word	1048576000
 4492 0144 F2A92A3E 		.word	1042983410
 4493 0148 4E2349BE 		.word	-1102503090
 4494 014c CE25B4BE 		.word	-1095490098
 4495 0150 D48B0ABE 		.word	-1106605100
 4496 0154 C6AC653E 		.word	1046850758
 4497 0158 868AB13E 		.word	1051822726
 4498 015c 4530D23D 		.word	1037185093
 4499 0160 000080BE 		.word	-1098907648
 4500 0164 8639ADBE 		.word	-1095943802
 4501 0168 AF428DBD 		.word	-1114815825
 4502 016c 0AEE8B3E 		.word	1049357834
 4503 0170 753DA73E 		.word	1051147637
 4504 0174 A9F10D3D 		.word	1024324009
 4505 0178 178396BE 		.word	-1097432297
 4506 017c 12A59FBE 		.word	-1096833774
 4507 0180 0000803E 		.word	1048576000
 4508 0184 4530D23D 		.word	1037185093
 4509 0188 178396BE 		.word	-1097432297
 4510 018c 0AEE8BBE 		.word	-1098125814
 4511 0190 D48B0A3E 		.word	1040878548
 4512 0194 CE25B43E 		.word	1051993550
 4513 0198 AF428D3D 		.word	1032667823
 4514 019c 12A59FBE 		.word	-1096833774
 4515 01a0 000080BE 		.word	-1098907648
 4516 01a4 F2A92A3E 		.word	1042983410
 4517 01a8 868AB13E 		.word	1051822726
 4518 01ac A9F10D3D 		.word	1024324009
 4519 01b0 753DA7BE 		.word	-1096336011
 4520 01b4 C6AC65BE 		.word	-1100632890
 4521 01b8 4E23493E 		.word	1044980558
 4522 01bc 8639AD3E 		.word	1051539846
 4523 01c0 0000803E 		.word	1048576000
 4524 01c4 A9F10D3D 		.word	1024324009
 4525 01c8 868AB1BE 		.word	-1095660922
 4526 01cc 4530D2BD 		.word	-1110298555
 4527 01d0 753DA73E 		.word	1051147637
ARM GAS  C:\Users\rdn\AppData\Local\Temp\ccFEeGTH.s 			page 109


 4528 01d4 F2A92A3E 		.word	1042983410
 4529 01d8 178396BE 		.word	-1097432297
 4530 01dc C6AC65BE 		.word	-1100632890
 4531 01e0 0000803E 		.word	1048576000
 4532 01e4 0AEE8B3E 		.word	1049357834
 4533 01e8 4E2349BE 		.word	-1102503090
 4534 01ec 12A59FBE 		.word	-1096833774
 4535 01f0 D48B0A3E 		.word	1040878548
 4536 01f4 8639AD3E 		.word	1051539846
 4537 01f8 AF428DBD 		.word	-1114815825
 4538 01fc CE25B4BE 		.word	-1095490098
 4539 0200 0000803E 		.word	1048576000
 4540 0204 A9F10DBD 		.word	-1123159639
 4541 0208 868AB1BE 		.word	-1095660922
 4542 020c 4530D23D 		.word	1037185093
 4543 0210 753DA73E 		.word	1051147637
 4544 0214 F2A92ABE 		.word	-1104500238
 4545 0218 178396BE 		.word	-1097432297
 4546 021c C6AC653E 		.word	1046850758
 4547 0220 0000803E 		.word	1048576000
 4548 0224 0AEE8BBE 		.word	-1098125814
 4549 0228 4E2349BE 		.word	-1102503090
 4550 022c 12A59F3E 		.word	1050649874
 4551 0230 D48B0A3E 		.word	1040878548
 4552 0234 8639ADBE 		.word	-1095943802
 4553 0238 AF428DBD 		.word	-1114815825
 4554 023c CE25B43E 		.word	1051993550
 4555 0240 0000803E 		.word	1048576000
 4556 0244 4530D2BD 		.word	-1110298555
 4557 0248 178396BE 		.word	-1097432297
 4558 024c 0AEE8B3E 		.word	1049357834
 4559 0250 D48B0A3E 		.word	1040878548
 4560 0254 CE25B4BE 		.word	-1095490098
 4561 0258 AF428D3D 		.word	1032667823
 4562 025c 12A59F3E 		.word	1050649874
 4563 0260 000080BE 		.word	-1098907648
 4564 0264 F2A92ABE 		.word	-1104500238
 4565 0268 868AB13E 		.word	1051822726
 4566 026c A9F10DBD 		.word	-1123159639
 4567 0270 753DA7BE 		.word	-1096336011
 4568 0274 C6AC653E 		.word	1046850758
 4569 0278 4E23493E 		.word	1044980558
 4570 027c 8639ADBE 		.word	-1095943802
 4571 0280 0000803E 		.word	1048576000
 4572 0284 F2A92ABE 		.word	-1104500238
 4573 0288 4E2349BE 		.word	-1102503090
 4574 028c CE25B43E 		.word	1051993550
 4575 0290 D48B0ABE 		.word	-1106605100
 4576 0294 C6AC65BE 		.word	-1100632890
 4577 0298 868AB13E 		.word	1051822726
 4578 029c 4530D2BD 		.word	-1110298555
 4579 02a0 000080BE 		.word	-1098907648
 4580 02a4 8639AD3E 		.word	1051539846
 4581 02a8 AF428DBD 		.word	-1114815825
 4582 02ac 0AEE8BBE 		.word	-1098125814
 4583 02b0 753DA73E 		.word	1051147637
 4584 02b4 A9F10DBD 		.word	-1123159639
ARM GAS  C:\Users\rdn\AppData\Local\Temp\ccFEeGTH.s 			page 110


 4585 02b8 178396BE 		.word	-1097432297
 4586 02bc 12A59F3E 		.word	1050649874
 4587 02c0 0000803E 		.word	1048576000
 4588 02c4 C6AC65BE 		.word	-1100632890
 4589 02c8 AF428DBD 		.word	-1114815825
 4590 02cc 12A59F3E 		.word	1050649874
 4591 02d0 753DA7BE 		.word	-1096336011
 4592 02d4 4530D23D 		.word	1037185093
 4593 02d8 4E23493E 		.word	1044980558
 4594 02dc CE25B4BE 		.word	-1095490098
 4595 02e0 0000803E 		.word	1048576000
 4596 02e4 A9F10D3D 		.word	1024324009
 4597 02e8 178396BE 		.word	-1097432297
 4598 02ec 8639AD3E 		.word	1051539846
 4599 02f0 D48B0ABE 		.word	-1106605100
 4600 02f4 F2A92ABE 		.word	-1104500238
 4601 02f8 868AB13E 		.word	1051822726
 4602 02fc 0AEE8BBE 		.word	-1098125814
 4603 0300 0000803E 		.word	1048576000
 4604 0304 0AEE8BBE 		.word	-1098125814
 4605 0308 AF428D3D 		.word	1032667823
 4606 030c F2A92A3E 		.word	1042983410
 4607 0310 753DA7BE 		.word	-1096336011
 4608 0314 8639AD3E 		.word	1051539846
 4609 0318 4E2349BE 		.word	-1102503090
 4610 031c A9F10DBD 		.word	-1123159639
 4611 0320 0000803E 		.word	1048576000
 4612 0324 CE25B4BE 		.word	-1095490098
 4613 0328 1783963E 		.word	1050051351
 4614 032c 4530D2BD 		.word	-1110298555
 4615 0330 D48B0ABE 		.word	-1106605100
 4616 0334 12A59F3E 		.word	1050649874
 4617 0338 868AB1BE 		.word	-1095660922
 4618 033c C6AC653E 		.word	1046850758
 4619 0340 0000803E 		.word	1048576000
 4620 0344 12A59FBE 		.word	-1096833774
 4621 0348 4E23493E 		.word	1044980558
 4622 034c A9F10DBD 		.word	-1123159639
 4623 0350 D48B0ABE 		.word	-1106605100
 4624 0354 0AEE8B3E 		.word	1049357834
 4625 0358 868AB1BE 		.word	-1095660922
 4626 035c 8639AD3E 		.word	1051539846
 4627 0360 000080BE 		.word	-1098907648
 4628 0364 4530D23D 		.word	1037185093
 4629 0368 AF428D3D 		.word	1032667823
 4630 036c C6AC65BE 		.word	-1100632890
 4631 0370 753DA73E 		.word	1051147637
 4632 0374 CE25B4BE 		.word	-1095490098
 4633 0378 1783963E 		.word	1050051351
 4634 037c F2A92ABE 		.word	-1104500238
 4635 0380 0000803E 		.word	1048576000
 4636 0384 8639ADBE 		.word	-1095943802
 4637 0388 1783963E 		.word	1050051351
 4638 038c C6AC65BE 		.word	-1100632890
 4639 0390 D48B0A3E 		.word	1040878548
 4640 0394 A9F10DBD 		.word	-1123159639
 4641 0398 AF428DBD 		.word	-1114815825
ARM GAS  C:\Users\rdn\AppData\Local\Temp\ccFEeGTH.s 			page 111


 4642 039c F2A92A3E 		.word	1042983410
 4643 03a0 000080BE 		.word	-1098907648
 4644 03a4 12A59F3E 		.word	1050649874
 4645 03a8 868AB1BE 		.word	-1095660922
 4646 03ac CE25B43E 		.word	1051993550
 4647 03b0 753DA7BE 		.word	-1096336011
 4648 03b4 0AEE8B3E 		.word	1049357834
 4649 03b8 4E2349BE 		.word	-1102503090
 4650 03bc 4530D23D 		.word	1037185093
 4651 03c0 0000803E 		.word	1048576000
 4652 03c4 CE25B4BE 		.word	-1095490098
 4653 03c8 868AB13E 		.word	1051822726
 4654 03cc 8639ADBE 		.word	-1095943802
 4655 03d0 753DA73E 		.word	1051147637
 4656 03d4 12A59FBE 		.word	-1096833774
 4657 03d8 1783963E 		.word	1050051351
 4658 03dc 0AEE8BBE 		.word	-1098125814
 4659 03e0 0000803E 		.word	1048576000
 4660 03e4 C6AC65BE 		.word	-1100632890
 4661 03e8 4E23493E 		.word	1044980558
 4662 03ec F2A92ABE 		.word	-1104500238
 4663 03f0 D48B0A3E 		.word	1040878548
 4664 03f4 4530D2BD 		.word	-1110298555
 4665 03f8 AF428D3D 		.word	1032667823
 4666 03fc A9F10DBD 		.word	-1123159639
 4667              		.type	ge_table.5563, %object
 4668              		.size	ge_table.5563, 28
 4669              	ge_table.5563:
 4670 0400 4C040000 		.word	ge_14.5557
 4671 0404 4C050000 		.word	ge_18.5558
 4672 0408 4C060000 		.word	ge_22.5559
 4673 040c 4C070000 		.word	ge_26.5560
 4674 0410 4C080000 		.word	ge_30.5561
 4675 0414 4C080000 		.word	ge_30.5561
 4676 0418 4C090000 		.word	ge_34.5562
 4677              		.type	e.5109, %object
 4678              		.size	e.5109, 32
 4679              	e.5109:
 4680 041c 0000803F 		.word	1065353216
 4681 0420 C2958B3F 		.word	1066112450
 4682 0424 F037983F 		.word	1066940400
 4683 0428 D7FEA53F 		.word	1067843287
 4684 042c F304B53F 		.word	1068827891
 4685 0430 2A67C53F 		.word	1069901610
 4686 0434 FD44D73F 		.word	1071072509
 4687 0438 C7C0EA3F 		.word	1072349383
 4688              	.LC0:
 4689 043c 0A000000 		.word	10
 4690 0440 0A000000 		.word	10
 4691 0444 08000000 		.word	8
 4692 0448 06000000 		.word	6
 4693              		.type	ge_14.5557, %object
 4694              		.size	ge_14.5557, 256
 4695              	ge_14.5557:
 4696 044c 0000803F 		.word	1065353216
 4697 0450 54B8863F 		.word	1065793620
 4698 0454 FACA8D3F 		.word	1066257146
ARM GAS  C:\Users\rdn\AppData\Local\Temp\ccFEeGTH.s 			page 112


 4699 0458 AF3C953F 		.word	1066745007
 4700 045c 71129D3F 		.word	1067258481
 4701 0460 8051A53F 		.word	1067798912
 4702 0464 64FFAD3F 		.word	1068367716
 4703 0468 EE21B73F 		.word	1068966382
 4704 046c 3FBFC03F 		.word	1069596479
 4705 0470 C8DDCA3F 		.word	1070259656
 4706 0474 5284D53F 		.word	1070957650
 4707 0478 00BAE03F 		.word	1071692288
 4708 047c 5886EC3F 		.word	1072465496
 4709 0480 41F1F83F 		.word	1073279297
 4710 0484 87010340 		.word	1073938823
 4711 0488 42E20940 		.word	1074389570
 4712 048c 6D1F1140 		.word	1074863981
 4713 0490 E3BD1840 		.word	1075363299
 4714 0494 BFC22040 		.word	1075888831
 4715 0498 62332940 		.word	1076441954
 4716 049c 74153240 		.word	1077024116
 4717 04a0 EA6E3B40 		.word	1077636842
 4718 04a4 07464540 		.word	1078281735
 4719 04a8 66A14F40 		.word	1078960486
 4720 04ac F8875A40 		.word	1079674872
 4721 04b0 0B016640 		.word	1080426763
 4722 04b4 51147240 		.word	1081218129
 4723 04b8 E1C97E40 		.word	1082051041
 4724 04bc 21158640 		.word	1082529057
 4725 04c0 351F8D40 		.word	1082990389
 4726 04c4 E5879440 		.word	1083475941
 4727 04c8 29549C40 		.word	1083986985
 4728 04cc 3B89A440 		.word	1084524859
 4729 04d0 9C2CAD40 		.word	1085090972
 4730 04d4 1544B640 		.word	1085686805
 4731 04d8 C0D5BF40 		.word	1086313920
 4732 04dc 07E8C940 		.word	1086973959
 4733 04e0 A981D440 		.word	1087668649
 4734 04e4 C4A9DF40 		.word	1088399812
 4735 04e8 D067EB40 		.word	1089169360
 4736 04ec AEC3F740 		.word	1089979310
 4737 04f0 D3620241 		.word	1090675411
 4738 04f4 393B0941 		.word	1091124025
 4739 04f8 A06F1041 		.word	1091596192
 4740 04fc DB041841 		.word	1092093147
 4741 0500 00002041 		.word	1092616192
 4742 0504 69662841 		.word	1093166697
 4743 0508 B83D3141 		.word	1093746104
 4744 050c DB8B3A41 		.word	1094355931
 4745 0510 0D574441 		.word	1094997773
 4746 0514 E0A54E41 		.word	1095673312
 4747 0518 3D7F5941 		.word	1096384317
 4748 051c 6AEA6441 		.word	1097132650
 4749 0520 0FEF7041 		.word	1097920271
 4750 0524 3A957D41 		.word	1098749242
 4751 0528 B3728541 		.word	1099264691
 4752 052c 40748C41 		.word	1099723840
 4753 0530 F7D39341 		.word	1100207095
 4754 0534 C8969B41 		.word	1100715720
 4755 0538 E9C1A341 		.word	1101251049
ARM GAS  C:\Users\rdn\AppData\Local\Temp\ccFEeGTH.s 			page 113


 4756 053c D35AAC41 		.word	1101814483
 4757 0540 4967B541 		.word	1102407497
 4758 0544 5CEDBE41 		.word	1103031644
 4759 0548 6FF3C841 		.word	1103688559
 4760              		.type	ge_18.5558, %object
 4761              		.size	ge_18.5558, 256
 4762              	ge_18.5558:
 4763 054c 0000803F 		.word	1065353216
 4764 0550 3DB4883F 		.word	1065923645
 4765 0554 FFFF913F 		.word	1066532863
 4766 0558 95ED9B3F 		.word	1067183509
 4767 055c FF87A63F 		.word	1067878399
 4768 0560 FDDAB13F 		.word	1068620541
 4769 0564 1EF3BD3F 		.word	1069413150
 4770 0568 C8DDCA3F 		.word	1070259656
 4771 056c 4DA9D83F 		.word	1071163725
 4772 0570 F764E73F 		.word	1072129271
 4773 0574 1A21F73F 		.word	1073160474
 4774 0578 94F70340 		.word	1074001812
 4775 057c E0F00C40 		.word	1074589920
 4776 0580 64861640 		.word	1075218020
 4777 0584 BFC22040 		.word	1075888831
 4778 0588 4AB12B40 		.word	1076605258
 4779 058c 215E3740 		.word	1077370401
 4780 0590 37D64340 		.word	1078187575
 4781 0594 5D275140 		.word	1079060317
 4782 0598 56605F40 		.word	1079992406
 4783 059c E5906E40 		.word	1080987877
 4784 05a0 E1C97E40 		.word	1082051041
 4785 05a4 A20E8840 		.word	1082658466
 4786 05a8 224F9140 		.word	1083264802
 4787 05ac B0309B40 		.word	1083912368
 4788 05b0 42BEA540 		.word	1084603970
 4789 05b4 8803B140 		.word	1085342600
 4790 05b8 020DBD40 		.word	1086131458
 4791 05bc 07E8C940 		.word	1086973959
 4792 05c0 D5A2D740 		.word	1087873749
 4793 05c4 A64CE640 		.word	1088834726
 4794 05c8 BAF5F540 		.word	1089861050
 4795 05cc B6570341 		.word	1090738102
 4796 05d0 24460C41 		.word	1091323428
 4797 05d4 0BD01541 		.word	1091948555
 4798 05d8 00002041 		.word	1092616192
 4799 05dc 4CE12A41 		.word	1093329228
 4800 05e0 FF7F3641 		.word	1094090751
 4801 05e4 FAE84241 		.word	1094904058
 4802 05e8 FE295041 		.word	1095772670
 4803 05ec BC515E41 		.word	1096700348
 4804 05f0 E56F6D41 		.word	1097691109
 4805 05f4 3A957D41 		.word	1098749242
 4806 05f8 D0698741 		.word	1099393488
 4807 05fc 1A9F9041 		.word	1099996954
 4808 0600 B1749A41 		.word	1100641457
 4809 0604 79F5A441 		.word	1101329785
 4810 0608 192DB041 		.word	1102064921
 4811 060c FD27BC41 		.word	1102850045
 4812 0610 6FF3C841 		.word	1103688559
ARM GAS  C:\Users\rdn\AppData\Local\Temp\ccFEeGTH.s 			page 114


 4813 0614 9C9DD641 		.word	1104584092
 4814 0618 AA35E541 		.word	1105540522
 4815 061c C5CBF441 		.word	1106561989
 4816 0620 9AB80242 		.word	1107474586
 4817 0624 369C0B42 		.word	1108057142
 4818 0628 8F1A1542 		.word	1108679311
 4819 062c 2D3E1F42 		.word	1109343789
 4820 0630 4B122A42 		.word	1110053451
 4821 0634 EAA23542 		.word	1110811370
 4822 0638 DCFC4142 		.word	1111620828
 4823 063c D22D4F42 		.word	1112485330
 4824 0640 6A445D42 		.word	1113408618
 4825 0644 43506C42 		.word	1114394691
 4826 0648 08627C42 		.word	1115447816
 4827              		.type	ge_22.5559, %object
 4828              		.size	ge_22.5559, 256
 4829              	ge_22.5559:
 4830 064c 0000803F 		.word	1065353216
 4831 0650 A1B78A3F 		.word	1066055585
 4832 0654 FA54963F 		.word	1066816762
 4833 0658 47EBA23F 		.word	1067641671
 4834 065c 618FB03F 		.word	1068535649
 4835 0660 DF57BF3F 		.word	1069504479
 4836 0664 3C5DCF3F 		.word	1070554428
 4837 0668 00BAE03F 		.word	1071692288
 4838 066c EC8AF33F 		.word	1072925420
 4839 0670 94F70340 		.word	1074001812
 4840 0674 3D040F40 		.word	1074725949
 4841 0678 BDFD1A40 		.word	1075510717
 4842 067c E9F72740 		.word	1076361193
 4843 0680 3F083640 		.word	1077282879
 4844 0684 07464540 		.word	1078281735
 4845 0688 82CA5540 		.word	1079364226
 4846 068c 07B16740 		.word	1080537351
 4847 0690 3D177B40 		.word	1081808701
 4848 0694 A20E8840 		.word	1082658466
 4849 0698 F6729340 		.word	1083405046
 4850 069c 79CB9F40 		.word	1084214137
 4851 06a0 9C2CAD40 		.word	1085090972
 4852 06a4 87ACBB40 		.word	1086041223
 4853 06a8 3D63CB40 		.word	1087071037
 4854 06ac C56ADC40 		.word	1088187077
 4855 06b0 51DFEE40 		.word	1089396561
 4856 06b4 B96F0141 		.word	1090613177
 4857 06b8 24460C41 		.word	1091323428
 4858 06bc DB041841 		.word	1092093147
 4859 06c0 51BF2441 		.word	1092927313
 4860 06c4 9C8A3241 		.word	1093831324
 4861 06c8 927D4141 		.word	1094811026
 4862 06cc F6B05141 		.word	1095872758
 4863 06d0 9B3F6341 		.word	1097023387
 4864 06d4 95467641 		.word	1098270357
 4865 06d8 B3728541 		.word	1099264691
 4866 06dc 1A9F9041 		.word	1099996954
 4867 06e0 01BB9C41 		.word	1100790529
 4868 06e4 75DAA941 		.word	1101650549
 4869 06e8 3213B841 		.word	1102582578
ARM GAS  C:\Users\rdn\AppData\Local\Temp\ccFEeGTH.s 			page 115


 4870 06ec C47CC741 		.word	1103592644
 4871 06f0 B130D841 		.word	1104687281
 4872 06f4 A44AEA41 		.word	1105873572
 4873 06f8 95E8FD41 		.word	1107159189
 4874 06fc 81950942 		.word	1107924353
 4875 0700 8F1A1542 		.word	1108679311
 4876 0704 89962142 		.word	1109497481
 4877 0708 1C1E2F42 		.word	1110384156
 4878 070c AFC73D42 		.word	1111345071
 4879 0710 8AAB4D42 		.word	1112386442
 4880 0714 FEE35E42 		.word	1113515006
 4881 0718 8F8D7142 		.word	1114738063
 4882 071c 93E38242 		.word	1115874195
 4883 0720 20D98D42 		.word	1116592416
 4884 0724 94B99942 		.word	1117370772
 4885 0728 9C98A642 		.word	1118214300
 4886 072c 878BB442 		.word	1119128455
 4887 0730 70A9C342 		.word	1120119152
 4888 0734 5E0BD442 		.word	1121192798
 4889 0738 74CCE542 		.word	1122356340
 4890 073c 170AF942 		.word	1123617303
 4891 0740 13F20643 		.word	1124528659
 4892 0744 943E1243 		.word	1125269140
 4893 0748 447D1E43 		.word	1126071620
 4894              		.type	ge_26.5560, %object
 4895              		.size	ge_26.5560, 256
 4896              	ge_26.5560:
 4897 074c 0000803F 		.word	1065353216
 4898 0750 9BC28C3F 		.word	1066189467
 4899 0754 DBCA9A3F 		.word	1067109083
 4900 0758 3739AA3F 		.word	1068120375
 4901 075c 6131BB3F 		.word	1069232481
 4902 0760 9CDACD3F 		.word	1070455452
 4903 0764 1360E23F 		.word	1071800339
 4904 0768 41F1F83F 		.word	1073279297
 4905 076c 2DE10840 		.word	1074323757
 4906 0770 64861640 		.word	1075218020
 4907 0774 D8872540 		.word	1076201432
 4908 0778 3F083640 		.word	1077282879
 4909 077c C52D4840 		.word	1078472133
 4910 0780 68225C40 		.word	1079779944
 4911 0784 51147240 		.word	1081218129
 4912 0788 221B8540 		.word	1082465058
 4913 078c 0C609240 		.word	1083334668
 4914 0790 98F7A040 		.word	1084290968
 4915 0794 8803B140 		.word	1085342600
 4916 0798 FDA8C240 		.word	1086499069
 4917 079c C910D640 		.word	1087770825
 4918 07a0 D067EB40 		.word	1089169360
 4919 07a4 B96F0141 		.word	1090613177
 4920 07a8 FD560E41 		.word	1091458813
 4921 07ac 8D871C41 		.word	1092388749
 4922 07b0 3D222C41 		.word	1093411389
 4923 07b4 274B3D41 		.word	1094535975
 4924 07b8 FE295041 		.word	1095772670
 4925 07bc 6AEA6441 		.word	1097132650
 4926 07c0 6CBC7B41 		.word	1098628204
ARM GAS  C:\Users\rdn\AppData\Local\Temp\ccFEeGTH.s 			page 116


 4927 07c4 696A8A41 		.word	1099590249
 4928 07c8 D3369841 		.word	1100494547
 4929 07cc 6363A741 		.word	1101488995
 4930 07d0 3213B841 		.word	1102582578
 4931 07d4 DA6CCA41 		.word	1103785178
 4932 07d8 D19ADE41 		.word	1105107665
 4933 07dc C5CBF441 		.word	1106561989
 4934 07e0 86990642 		.word	1107728774
 4935 07e4 8F041442 		.word	1108608143
 4936 07e8 07C62242 		.word	1109575175
 4937 07ec 11003342 		.word	1110638609
 4938 07f0 37D84442 		.word	1111808055
 4939 07f4 C2775842 		.word	1113094082
 4940 07f8 180C6E42 		.word	1114508312
 4941 07fc 93E38242 		.word	1115874195
 4942 0800 E8EF8F42 		.word	1116729320
 4943 0804 3C499E42 		.word	1117669692
 4944 0808 C010AE42 		.word	1118703808
 4945 080c F76ABF42 		.word	1119841015
 4946 0810 0480D242 		.word	1121091588
 4947 0814 0D7CE742 		.word	1122466829
 4948 0818 9F8FFE42 		.word	1123979167
 4949 081c 0EF80B43 		.word	1124857870
 4950 0820 1DEC1943 		.word	1125772317
 4951 0824 44442943 		.word	1126777924
 4952 0828 03243A43 		.word	1127883779
 4953 082c 63B24C43 		.word	1129099875
 4954 0830 531A6143 		.word	1130437203
 4955 0834 078B7743 		.word	1131907847
 4956 0838 351C8843 		.word	1132993589
 4957 083c CAAD9543 		.word	1133882826
 4958 0840 A699A443 		.word	1134860710
 4959 0844 4E02B543 		.word	1135936078
 4960 0848 B80DC743 		.word	1137118648
 4961              		.type	ge_30.5561, %object
 4962              		.size	ge_30.5561, 256
 4963              	ge_30.5561:
 4964 084c 0000803F 		.word	1065353216
 4965 0850 49D58E3F 		.word	1066325321
 4966 0854 9E629F3F 		.word	1067410078
 4967 0858 FDDAB13F 		.word	1068620541
 4968 085c 4D77C63F 		.word	1069971277
 4969 0860 0E77DD3F 		.word	1071478542
 4970 0864 1A21F73F 		.word	1073160474
 4971 0868 42E20940 		.word	1074389570
 4972 086c C3DC1940 		.word	1075436739
 4973 0870 4AB12B40 		.word	1076605258
 4974 0874 C5963F40 		.word	1077909189
 4975 0878 82CA5540 		.word	1079364226
 4976 087c E5906E40 		.word	1080987877
 4977 0880 221B8540 		.word	1082465058
 4978 0884 E5879440 		.word	1083475941
 4979 0888 42BEA540 		.word	1084603970
 4980 088c 3EF3B840 		.word	1085862718
 4981 0890 0862CE40 		.word	1087267336
 4982 0894 A64CE640 		.word	1088834726
 4983 0898 647E0041 		.word	1090551396
ARM GAS  C:\Users\rdn\AppData\Local\Temp\ccFEeGTH.s 			page 117


 4984 089c 53620F41 		.word	1091527251
 4985 08a0 00002041 		.word	1092616192
 4986 08a4 9C8A3241 		.word	1093831324
 4987 08a8 463B4741 		.word	1095187270
 4988 08ac BC515E41 		.word	1096700348
 4989 08b0 20157841 		.word	1098388768
 4990 08b4 696A8A41 		.word	1099590249
 4991 08b8 B1749A41 		.word	1100641457
 4992 08bc D35AAC41 		.word	1101814483
 4993 08c0 F453C041 		.word	1103123444
 4994 08c4 9C9DD641 		.word	1104584092
 4995 08c8 777CEF41 		.word	1106214007
 4996 08cc 919E0542 		.word	1107664529
 4997 08d0 8F1A1542 		.word	1108679311
 4998 08d4 EB612642 		.word	1109811691
 4999 08d8 DFA93942 		.word	1111075295
 5000 08dc D22D4F42 		.word	1112485330
 5001 08e0 0E306742 		.word	1114058766
 5002 08e4 45FD8042 		.word	1115749701
 5003 08e8 E8EF8F42 		.word	1116729320
 5004 08ec FD9DA042 		.word	1117822461
 5005 08f0 E83AB342 		.word	1119042280
 5006 08f4 0000C842 		.word	1120403456
 5007 08f8 432DDF42 		.word	1121922371
 5008 08fc 170AF942 		.word	1123617303
 5009 0900 16F30A43 		.word	1124791062
 5010 0904 340D1B43 		.word	1125846324
 5011 0908 03052D43 		.word	1127023875
 5012 090c DD114143 		.word	1128337885
 5013 0910 87715743 		.word	1129804167
 5014 0914 F0687043 		.word	1131440368
 5015 0918 82228643 		.word	1132864130
 5016 091c CAAD9543 		.word	1133882826
 5017 0920 3506A743 		.word	1135019573
 5018 0924 3361BA43 		.word	1136288051
 5019 0928 65FACF43 		.word	1137703525
 5020 092c 5614E843 		.word	1139283030
 5021 0930 A37C0144 		.word	1140948131
 5022 0934 097E1044 		.word	1141931529
 5023 0938 963C2144 		.word	1143028886
 5024 093c E2EB3344 		.word	1144253410
 5025 0940 7CC54844 		.word	1145619836
 5026 0944 A2096044 		.word	1147144610
 5027 0948 00007A44 		.word	1148846080
 5028              		.type	ge_34.5562, %object
 5029              		.size	ge_34.5562, 256
 5030              	ge_34.5562:
 5031 094c 0000803F 		.word	1065353216
 5032 0950 C8EF903F 		.word	1066463176
 5033 0954 441DA43F 		.word	1067720004
 5034 0958 5CD4B93F 		.word	1069143132
 5035 095c 056BD23F 		.word	1070754565
 5036 0960 9342EE3F 		.word	1072579219
 5037 0964 9DE40640 		.word	1074193565
 5038 0968 E3BD1840 		.word	1075363299
 5039 096c C1F32C40 		.word	1076687809
 5040 0970 37D64340 		.word	1078187575
ARM GAS  C:\Users\rdn\AppData\Local\Temp\ccFEeGTH.s 			page 118


 5041 0974 DBBF5D40 		.word	1079885787
 5042 0978 3D177B40 		.word	1081808701
 5043 097c 42288E40 		.word	1083058242
 5044 0980 98F7A040 		.word	1084290968
 5045 0984 1544B640 		.word	1085686805
 5046 0988 0862CE40 		.word	1087267336
 5047 098c E7B0E940 		.word	1089056999
 5048 0990 654E0441 		.word	1090801253
 5049 0994 0BD01541 		.word	1091948555
 5050 0998 B2A22941 		.word	1093247666
 5051 099c CF144041 		.word	1094718671
 5052 09a0 3D7F5941 		.word	1096384317
 5053 09a4 95467641 		.word	1098270357
 5054 09a8 606E8B41 		.word	1099656800
 5055 09ac 5FE19D41 		.word	1100865887
 5056 09b0 4CC5B241 		.word	1102234956
 5057 09b4 DA6CCA41 		.word	1103785178
 5058 09b8 AA35E541 		.word	1105540522
 5059 09bc E0C40142 		.word	1107412192
 5060 09c0 95F01242 		.word	1108537493
 5061 09c4 EB612642 		.word	1109811691
 5062 09c8 D7653C42 		.word	1111254487
 5063 09cc 7F535542 		.word	1112888191
 5064 09d0 8F8D7142 		.word	1114738063
 5065 09d4 E1C18842 		.word	1116258785
 5066 09d8 4DDA9A42 		.word	1117444685
 5067 09dc AD57AF42 		.word	1118787501
 5068 09e0 1A8BC642 		.word	1120307994
 5069 09e4 6CD0E042 		.word	1122029676
 5070 09e8 9F8FFE42 		.word	1123979167
 5071 09ec 391F1043 		.word	1125130041
 5072 09f0 1C312343 		.word	1126379804
 5073 09f4 F4C83843 		.word	1127794932
 5074 09f8 3C3C5143 		.word	1129397308
 5075 09fc B9EB6C43 		.word	1131211705
 5076 0a00 82228643 		.word	1132864130
 5077 0a04 18E29743 		.word	1134027288
 5078 0a08 E1FAAB43 		.word	1135344353
 5079 0a0c 69BCC243 		.word	1136835689
 5080 0a10 C380DC43 		.word	1138524355
 5081 0a14 EDADF943 		.word	1140436461
 5082 0a18 B25B0D44 		.word	1141726130
 5083 0a1c F70F2044 		.word	1142951927
 5084 0a20 CE3D3544 		.word	1144339918
 5085 0a24 0D394D44 		.word	1145911565
 5086 0a28 A0606844 		.word	1147691168
 5087 0a2c 02908344 		.word	1149472770
 5088 0a30 78F89444 		.word	1150613624
 5089 0a34 98AEA844 		.word	1151905432
 5090 0a38 6900BF44 		.word	1153368169
 5091 0a3c 4446D844 		.word	1155024452
 5092 0a40 32E4F444 		.word	1156899890
 5093 0a44 BDA50A45 		.word	1158325693
 5094 0a48 2FFE1C45 		.word	1159527983
 5095              		.text
 5096              	.Letext0:
 5097              		.file 4 "c:\\program files (x86)\\cypress\\psoc creator\\4.4\\psoc creator\\import\\gnu\\arm\\5.4.
ARM GAS  C:\Users\rdn\AppData\Local\Temp\ccFEeGTH.s 			page 119


 5098              		.file 5 "c:\\program files (x86)\\cypress\\psoc creator\\4.4\\psoc creator\\import\\gnu\\arm\\5.4.
 5099              		.file 6 ".\\liblc3\\include/lc3_private.h"
 5100              		.file 7 "..\\..\\..\\liblc3\\src\\sns.h"
 5101              		.file 8 "..\\..\\..\\liblc3\\src\\tables.h"
 5102              		.file 9 "..\\..\\..\\liblc3\\src\\common.h"
 5103              		.file 10 "c:\\program files (x86)\\cypress\\psoc creator\\4.4\\psoc creator\\import\\gnu\\arm\\5.4
 5104              		.file 11 "c:\\program files (x86)\\cypress\\psoc creator\\4.4\\psoc creator\\import\\gnu\\arm\\5.4
 5105              		.section	.debug_info,"",%progbits
 5106              	.Ldebug_info0:
 5107 0000 54220000 		.4byte	0x2254
 5108 0004 0400     		.2byte	0x4
 5109 0006 00000000 		.4byte	.Ldebug_abbrev0
 5110 000a 04       		.byte	0x4
 5111 000b 01       		.uleb128 0x1
 5112 000c 75010000 		.4byte	.LASF153
 5113 0010 0C       		.byte	0xc
 5114 0011 2C010000 		.4byte	.LASF154
 5115 0015 8C030000 		.4byte	.LASF155
 5116 0019 78010000 		.4byte	.Ldebug_ranges0+0x178
 5117 001d 00000000 		.4byte	0
 5118 0021 00000000 		.4byte	.Ldebug_line0
 5119 0025 02       		.uleb128 0x2
 5120 0026 04       		.byte	0x4
 5121 0027 04       		.byte	0x4
 5122 0028 67010000 		.4byte	.LASF0
 5123 002c 02       		.uleb128 0x2
 5124 002d 01       		.byte	0x1
 5125 002e 06       		.byte	0x6
 5126 002f 70060000 		.4byte	.LASF1
 5127 0033 03       		.uleb128 0x3
 5128 0034 84050000 		.4byte	.LASF5
 5129 0038 04       		.byte	0x4
 5130 0039 1D       		.byte	0x1d
 5131 003a 3E000000 		.4byte	0x3e
 5132 003e 02       		.uleb128 0x2
 5133 003f 01       		.byte	0x1
 5134 0040 08       		.byte	0x8
 5135 0041 1C060000 		.4byte	.LASF2
 5136 0045 02       		.uleb128 0x2
 5137 0046 02       		.byte	0x2
 5138 0047 05       		.byte	0x5
 5139 0048 0D050000 		.4byte	.LASF3
 5140 004c 02       		.uleb128 0x2
 5141 004d 02       		.byte	0x2
 5142 004e 07       		.byte	0x7
 5143 004f 7C060000 		.4byte	.LASF4
 5144 0053 03       		.uleb128 0x3
 5145 0054 8D000000 		.4byte	.LASF6
 5146 0058 04       		.byte	0x4
 5147 0059 3F       		.byte	0x3f
 5148 005a 5E000000 		.4byte	0x5e
 5149 005e 02       		.uleb128 0x2
 5150 005f 04       		.byte	0x4
 5151 0060 05       		.byte	0x5
 5152 0061 36050000 		.4byte	.LASF7
 5153 0065 03       		.uleb128 0x3
 5154 0066 2A060000 		.4byte	.LASF8
ARM GAS  C:\Users\rdn\AppData\Local\Temp\ccFEeGTH.s 			page 120


 5155 006a 04       		.byte	0x4
 5156 006b 41       		.byte	0x41
 5157 006c 70000000 		.4byte	0x70
 5158 0070 02       		.uleb128 0x2
 5159 0071 04       		.byte	0x4
 5160 0072 07       		.byte	0x7
 5161 0073 B4050000 		.4byte	.LASF9
 5162 0077 02       		.uleb128 0x2
 5163 0078 08       		.byte	0x8
 5164 0079 05       		.byte	0x5
 5165 007a 13040000 		.4byte	.LASF10
 5166 007e 02       		.uleb128 0x2
 5167 007f 08       		.byte	0x8
 5168 0080 07       		.byte	0x7
 5169 0081 24020000 		.4byte	.LASF11
 5170 0085 04       		.uleb128 0x4
 5171 0086 04       		.byte	0x4
 5172 0087 05       		.byte	0x5
 5173 0088 696E7400 		.ascii	"int\000"
 5174 008c 02       		.uleb128 0x2
 5175 008d 04       		.byte	0x4
 5176 008e 07       		.byte	0x7
 5177 008f 43000000 		.4byte	.LASF12
 5178 0093 03       		.uleb128 0x3
 5179 0094 EF030000 		.4byte	.LASF13
 5180 0098 05       		.byte	0x5
 5181 0099 18       		.byte	0x18
 5182 009a 33000000 		.4byte	0x33
 5183 009e 03       		.uleb128 0x3
 5184 009f D0050000 		.4byte	.LASF14
 5185 00a3 05       		.byte	0x5
 5186 00a4 2C       		.byte	0x2c
 5187 00a5 53000000 		.4byte	0x53
 5188 00a9 03       		.uleb128 0x3
 5189 00aa 50010000 		.4byte	.LASF15
 5190 00ae 05       		.byte	0x5
 5191 00af 30       		.byte	0x30
 5192 00b0 65000000 		.4byte	0x65
 5193 00b4 05       		.uleb128 0x5
 5194 00b5 C4000000 		.4byte	.LASF21
 5195 00b9 01       		.byte	0x1
 5196 00ba 3E000000 		.4byte	0x3e
 5197 00be 06       		.byte	0x6
 5198 00bf 3B       		.byte	0x3b
 5199 00c0 E3000000 		.4byte	0xe3
 5200 00c4 06       		.uleb128 0x6
 5201 00c5 17050000 		.4byte	.LASF16
 5202 00c9 00       		.byte	0
 5203 00ca 06       		.uleb128 0x6
 5204 00cb 46010000 		.4byte	.LASF17
 5205 00cf 01       		.byte	0x1
 5206 00d0 06       		.uleb128 0x6
 5207 00d1 F0040000 		.4byte	.LASF18
 5208 00d5 02       		.byte	0x2
 5209 00d6 06       		.uleb128 0x6
 5210 00d7 47030000 		.4byte	.LASF19
 5211 00db 03       		.byte	0x3
ARM GAS  C:\Users\rdn\AppData\Local\Temp\ccFEeGTH.s 			page 121


 5212 00dc 06       		.uleb128 0x6
 5213 00dd A0020000 		.4byte	.LASF20
 5214 00e1 04       		.byte	0x4
 5215 00e2 00       		.byte	0
 5216 00e3 05       		.uleb128 0x5
 5217 00e4 12060000 		.4byte	.LASF22
 5218 00e8 01       		.byte	0x1
 5219 00e9 3E000000 		.4byte	0x3e
 5220 00ed 06       		.byte	0x6
 5221 00ee 49       		.byte	0x49
 5222 00ef 24010000 		.4byte	0x124
 5223 00f3 06       		.uleb128 0x6
 5224 00f4 63060000 		.4byte	.LASF23
 5225 00f8 00       		.byte	0
 5226 00f9 06       		.uleb128 0x6
 5227 00fa 9D050000 		.4byte	.LASF24
 5228 00fe 01       		.byte	0x1
 5229 00ff 06       		.uleb128 0x6
 5230 0100 0A000000 		.4byte	.LASF25
 5231 0104 02       		.byte	0x2
 5232 0105 06       		.uleb128 0x6
 5233 0106 85020000 		.4byte	.LASF26
 5234 010a 03       		.byte	0x3
 5235 010b 06       		.uleb128 0x6
 5236 010c 50000000 		.4byte	.LASF27
 5237 0110 04       		.byte	0x4
 5238 0111 06       		.uleb128 0x6
 5239 0112 D1000000 		.4byte	.LASF28
 5240 0116 05       		.byte	0x5
 5241 0117 06       		.uleb128 0x6
 5242 0118 C1060000 		.4byte	.LASF29
 5243 011c 06       		.byte	0x6
 5244 011d 06       		.uleb128 0x6
 5245 011e C0040000 		.4byte	.LASF30
 5246 0122 07       		.byte	0x7
 5247 0123 00       		.byte	0
 5248 0124 02       		.uleb128 0x2
 5249 0125 01       		.byte	0x1
 5250 0126 02       		.byte	0x2
 5251 0127 F4020000 		.4byte	.LASF31
 5252 012b 02       		.uleb128 0x2
 5253 012c 04       		.byte	0x4
 5254 012d 07       		.byte	0x7
 5255 012e AB050000 		.4byte	.LASF32
 5256 0132 02       		.uleb128 0x2
 5257 0133 08       		.byte	0x8
 5258 0134 04       		.byte	0x4
 5259 0135 A3040000 		.4byte	.LASF33
 5260 0139 02       		.uleb128 0x2
 5261 013a 01       		.byte	0x1
 5262 013b 08       		.byte	0x8
 5263 013c 6B030000 		.4byte	.LASF34
 5264 0140 02       		.uleb128 0x2
 5265 0141 08       		.byte	0x8
 5266 0142 04       		.byte	0x4
 5267 0143 BA060000 		.4byte	.LASF35
 5268 0147 05       		.uleb128 0x5
ARM GAS  C:\Users\rdn\AppData\Local\Temp\ccFEeGTH.s 			page 122


 5269 0148 FD000000 		.4byte	.LASF36
 5270 014c 01       		.byte	0x1
 5271 014d 3E000000 		.4byte	0x3e
 5272 0151 03       		.byte	0x3
 5273 0152 45       		.byte	0x45
 5274 0153 64010000 		.4byte	0x164
 5275 0157 06       		.uleb128 0x6
 5276 0158 A7060000 		.4byte	.LASF37
 5277 015c 00       		.byte	0
 5278 015d 06       		.uleb128 0x6
 5279 015e 70050000 		.4byte	.LASF38
 5280 0162 01       		.byte	0x1
 5281 0163 00       		.byte	0
 5282 0164 07       		.uleb128 0x7
 5283 0165 70030000 		.4byte	.LASF40
 5284 0169 0C       		.byte	0xc
 5285 016a 03       		.byte	0x3
 5286 016b 5E       		.byte	0x5e
 5287 016c 91010000 		.4byte	0x191
 5288 0170 08       		.uleb128 0x8
 5289 0171 7600     		.ascii	"v\000"
 5290 0173 03       		.byte	0x3
 5291 0174 5F       		.byte	0x5f
 5292 0175 8C000000 		.4byte	0x8c
 5293 0179 00       		.byte	0
 5294 017a 08       		.uleb128 0x8
 5295 017b 6E00     		.ascii	"n\000"
 5296 017d 03       		.byte	0x3
 5297 017e 60       		.byte	0x60
 5298 017f 85000000 		.4byte	0x85
 5299 0183 04       		.byte	0x4
 5300 0184 09       		.uleb128 0x9
 5301 0185 C4030000 		.4byte	.LASF39
 5302 0189 03       		.byte	0x3
 5303 018a 60       		.byte	0x60
 5304 018b 85000000 		.4byte	0x85
 5305 018f 08       		.byte	0x8
 5306 0190 00       		.byte	0
 5307 0191 07       		.uleb128 0x7
 5308 0192 DC060000 		.4byte	.LASF41
 5309 0196 18       		.byte	0x18
 5310 0197 03       		.byte	0x3
 5311 0198 65       		.byte	0x65
 5312 0199 E6010000 		.4byte	0x1e6
 5313 019d 08       		.uleb128 0x8
 5314 019e 6C6F7700 		.ascii	"low\000"
 5315 01a2 03       		.byte	0x3
 5316 01a3 66       		.byte	0x66
 5317 01a4 8C000000 		.4byte	0x8c
 5318 01a8 00       		.byte	0
 5319 01a9 09       		.uleb128 0x9
 5320 01aa 59040000 		.4byte	.LASF42
 5321 01ae 03       		.byte	0x3
 5322 01af 66       		.byte	0x66
 5323 01b0 8C000000 		.4byte	0x8c
 5324 01b4 04       		.byte	0x4
 5325 01b5 09       		.uleb128 0x9
ARM GAS  C:\Users\rdn\AppData\Local\Temp\ccFEeGTH.s 			page 123


 5326 01b6 8F040000 		.4byte	.LASF43
 5327 01ba 03       		.byte	0x3
 5328 01bb 67       		.byte	0x67
 5329 01bc 85000000 		.4byte	0x85
 5330 01c0 08       		.byte	0x8
 5331 01c1 09       		.uleb128 0x9
 5332 01c2 14020000 		.4byte	.LASF44
 5333 01c6 03       		.byte	0x3
 5334 01c7 67       		.byte	0x67
 5335 01c8 85000000 		.4byte	0x85
 5336 01cc 0C       		.byte	0xc
 5337 01cd 09       		.uleb128 0x9
 5338 01ce 81000000 		.4byte	.LASF45
 5339 01d2 03       		.byte	0x3
 5340 01d3 67       		.byte	0x67
 5341 01d4 85000000 		.4byte	0x85
 5342 01d8 10       		.byte	0x10
 5343 01d9 09       		.uleb128 0x9
 5344 01da B9000000 		.4byte	.LASF46
 5345 01de 03       		.byte	0x3
 5346 01df 68       		.byte	0x68
 5347 01e0 24010000 		.4byte	0x124
 5348 01e4 14       		.byte	0x14
 5349 01e5 00       		.byte	0
 5350 01e6 07       		.uleb128 0x7
 5351 01e7 21000000 		.4byte	.LASF47
 5352 01eb 10       		.byte	0x10
 5353 01ec 03       		.byte	0x3
 5354 01ed 6B       		.byte	0x6b
 5355 01ee 23020000 		.4byte	0x223
 5356 01f2 09       		.uleb128 0x9
 5357 01f3 97050000 		.4byte	.LASF48
 5358 01f7 03       		.byte	0x3
 5359 01f8 6C       		.byte	0x6c
 5360 01f9 23020000 		.4byte	0x223
 5361 01fd 00       		.byte	0
 5362 01fe 08       		.uleb128 0x8
 5363 01ff 656E6400 		.ascii	"end\000"
 5364 0203 03       		.byte	0x3
 5365 0204 6C       		.byte	0x6c
 5366 0205 23020000 		.4byte	0x223
 5367 0209 04       		.byte	0x4
 5368 020a 09       		.uleb128 0x9
 5369 020b 1E070000 		.4byte	.LASF49
 5370 020f 03       		.byte	0x3
 5371 0210 6D       		.byte	0x6d
 5372 0211 2E020000 		.4byte	0x22e
 5373 0215 08       		.byte	0x8
 5374 0216 09       		.uleb128 0x9
 5375 0217 02040000 		.4byte	.LASF50
 5376 021b 03       		.byte	0x3
 5377 021c 6D       		.byte	0x6d
 5378 021d 2E020000 		.4byte	0x22e
 5379 0221 0C       		.byte	0xc
 5380 0222 00       		.byte	0
 5381 0223 0A       		.uleb128 0xa
 5382 0224 04       		.byte	0x4
ARM GAS  C:\Users\rdn\AppData\Local\Temp\ccFEeGTH.s 			page 124


 5383 0225 29020000 		.4byte	0x229
 5384 0229 0B       		.uleb128 0xb
 5385 022a 93000000 		.4byte	0x93
 5386 022e 0A       		.uleb128 0xa
 5387 022f 04       		.byte	0x4
 5388 0230 93000000 		.4byte	0x93
 5389 0234 07       		.uleb128 0x7
 5390 0235 95040000 		.4byte	.LASF51
 5391 0239 38       		.byte	0x38
 5392 023a 03       		.byte	0x3
 5393 023b 70       		.byte	0x70
 5394 023c 70020000 		.4byte	0x270
 5395 0240 09       		.uleb128 0x9
 5396 0241 BF000000 		.4byte	.LASF52
 5397 0245 03       		.byte	0x3
 5398 0246 71       		.byte	0x71
 5399 0247 47010000 		.4byte	0x147
 5400 024b 00       		.byte	0
 5401 024c 08       		.uleb128 0x8
 5402 024d 616300   		.ascii	"ac\000"
 5403 0250 03       		.byte	0x3
 5404 0251 72       		.byte	0x72
 5405 0252 91010000 		.4byte	0x191
 5406 0256 04       		.byte	0x4
 5407 0257 09       		.uleb128 0x9
 5408 0258 66030000 		.4byte	.LASF53
 5409 025c 03       		.byte	0x3
 5410 025d 73       		.byte	0x73
 5411 025e 64010000 		.4byte	0x164
 5412 0262 1C       		.byte	0x1c
 5413 0263 09       		.uleb128 0x9
 5414 0264 31000000 		.4byte	.LASF54
 5415 0268 03       		.byte	0x3
 5416 0269 74       		.byte	0x74
 5417 026a E6010000 		.4byte	0x1e6
 5418 026e 28       		.byte	0x28
 5419 026f 00       		.byte	0
 5420 0270 03       		.uleb128 0x3
 5421 0271 11030000 		.4byte	.LASF55
 5422 0275 03       		.byte	0x3
 5423 0276 75       		.byte	0x75
 5424 0277 34020000 		.4byte	0x234
 5425 027b 07       		.uleb128 0x7
 5426 027c FB050000 		.4byte	.LASF56
 5427 0280 1C       		.byte	0x1c
 5428 0281 07       		.byte	0x7
 5429 0282 1E       		.byte	0x1e
 5430 0283 E8020000 		.4byte	0x2e8
 5431 0287 09       		.uleb128 0x9
 5432 0288 96060000 		.4byte	.LASF57
 5433 028c 07       		.byte	0x7
 5434 028d 1F       		.byte	0x1f
 5435 028e 85000000 		.4byte	0x85
 5436 0292 00       		.byte	0
 5437 0293 09       		.uleb128 0x9
 5438 0294 9E040000 		.4byte	.LASF58
 5439 0298 07       		.byte	0x7
ARM GAS  C:\Users\rdn\AppData\Local\Temp\ccFEeGTH.s 			page 125


 5440 0299 1F       		.byte	0x1f
 5441 029a 85000000 		.4byte	0x85
 5442 029e 04       		.byte	0x4
 5443 029f 09       		.uleb128 0x9
 5444 02a0 3F050000 		.4byte	.LASF59
 5445 02a4 07       		.byte	0x7
 5446 02a5 20       		.byte	0x20
 5447 02a6 85000000 		.4byte	0x85
 5448 02aa 08       		.byte	0x8
 5449 02ab 09       		.uleb128 0x9
 5450 02ac FD030000 		.4byte	.LASF60
 5451 02b0 07       		.byte	0x7
 5452 02b1 20       		.byte	0x20
 5453 02b2 85000000 		.4byte	0x85
 5454 02b6 0C       		.byte	0xc
 5455 02b7 09       		.uleb128 0x9
 5456 02b8 05070000 		.4byte	.LASF61
 5457 02bc 07       		.byte	0x7
 5458 02bd 21       		.byte	0x21
 5459 02be 85000000 		.4byte	0x85
 5460 02c2 10       		.byte	0x10
 5461 02c3 09       		.uleb128 0x9
 5462 02c4 0B070000 		.4byte	.LASF62
 5463 02c8 07       		.byte	0x7
 5464 02c9 21       		.byte	0x21
 5465 02ca 85000000 		.4byte	0x85
 5466 02ce 14       		.byte	0x14
 5467 02cf 09       		.uleb128 0x9
 5468 02d0 08060000 		.4byte	.LASF63
 5469 02d4 07       		.byte	0x7
 5470 02d5 22       		.byte	0x22
 5471 02d6 24010000 		.4byte	0x124
 5472 02da 18       		.byte	0x18
 5473 02db 09       		.uleb128 0x9
 5474 02dc 0D060000 		.4byte	.LASF64
 5475 02e0 07       		.byte	0x7
 5476 02e1 22       		.byte	0x22
 5477 02e2 24010000 		.4byte	0x124
 5478 02e6 19       		.byte	0x19
 5479 02e7 00       		.byte	0
 5480 02e8 03       		.uleb128 0x3
 5481 02e9 49060000 		.4byte	.LASF65
 5482 02ed 07       		.byte	0x7
 5483 02ee 23       		.byte	0x23
 5484 02ef 7B020000 		.4byte	0x27b
 5485 02f3 07       		.uleb128 0x7
 5486 02f4 70000000 		.4byte	.LASF66
 5487 02f8 08       		.byte	0x8
 5488 02f9 08       		.byte	0x8
 5489 02fa 7C       		.byte	0x7c
 5490 02fb 16030000 		.4byte	0x316
 5491 02ff 09       		.uleb128 0x9
 5492 0300 0E020000 		.4byte	.LASF67
 5493 0304 08       		.byte	0x8
 5494 0305 7D       		.byte	0x7d
 5495 0306 85000000 		.4byte	0x85
 5496 030a 00       		.byte	0
ARM GAS  C:\Users\rdn\AppData\Local\Temp\ccFEeGTH.s 			page 126


 5497 030b 08       		.uleb128 0x8
 5498 030c 7600     		.ascii	"v\000"
 5499 030e 08       		.byte	0x8
 5500 030f 7D       		.byte	0x7d
 5501 0310 16030000 		.4byte	0x316
 5502 0314 04       		.byte	0x4
 5503 0315 00       		.byte	0
 5504 0316 0A       		.uleb128 0xa
 5505 0317 04       		.byte	0x4
 5506 0318 1C030000 		.4byte	0x31c
 5507 031c 0B       		.uleb128 0xb
 5508 031d 25000000 		.4byte	0x25
 5509 0321 0C       		.uleb128 0xc
 5510 0322 97000000 		.4byte	.LASF68
 5511 0326 02       		.byte	0x2
 5512 0327 3B       		.byte	0x3b
 5513 0328 25000000 		.4byte	0x25
 5514 032c 03       		.byte	0x3
 5515 032d 74030000 		.4byte	0x374
 5516 0331 0D       		.uleb128 0xd
 5517 0332 5F7800   		.ascii	"_x\000"
 5518 0335 02       		.byte	0x2
 5519 0336 3B       		.byte	0x3b
 5520 0337 25000000 		.4byte	0x25
 5521 033b 0D       		.uleb128 0xd
 5522 033c 65787000 		.ascii	"exp\000"
 5523 0340 02       		.byte	0x2
 5524 0341 3B       		.byte	0x3b
 5525 0342 74030000 		.4byte	0x374
 5526 0346 0E       		.uleb128 0xe
 5527 0347 04       		.byte	0x4
 5528 0348 02       		.byte	0x2
 5529 0349 3C       		.byte	0x3c
 5530 034a 61030000 		.4byte	0x361
 5531 034e 0F       		.uleb128 0xf
 5532 034f 6600     		.ascii	"f\000"
 5533 0351 02       		.byte	0x2
 5534 0352 3C       		.byte	0x3c
 5535 0353 25000000 		.4byte	0x25
 5536 0357 0F       		.uleb128 0xf
 5537 0358 7500     		.ascii	"u\000"
 5538 035a 02       		.byte	0x2
 5539 035b 3C       		.byte	0x3c
 5540 035c A9000000 		.4byte	0xa9
 5541 0360 00       		.byte	0
 5542 0361 10       		.uleb128 0x10
 5543 0362 7800     		.ascii	"x\000"
 5544 0364 02       		.byte	0x2
 5545 0365 3C       		.byte	0x3c
 5546 0366 46030000 		.4byte	0x346
 5547 036a 10       		.uleb128 0x10
 5548 036b 6500     		.ascii	"e\000"
 5549 036d 02       		.byte	0x2
 5550 036e 3E       		.byte	0x3e
 5551 036f 85000000 		.4byte	0x85
 5552 0373 00       		.byte	0
 5553 0374 0A       		.uleb128 0xa
ARM GAS  C:\Users\rdn\AppData\Local\Temp\ccFEeGTH.s 			page 127


 5554 0375 04       		.byte	0x4
 5555 0376 85000000 		.4byte	0x85
 5556 037a 0C       		.uleb128 0xc
 5557 037b 74040000 		.4byte	.LASF69
 5558 037f 02       		.byte	0x2
 5559 0380 7E       		.byte	0x7e
 5560 0381 25000000 		.4byte	0x25
 5561 0385 03       		.byte	0x3
 5562 0386 C4030000 		.4byte	0x3c4
 5563 038a 0D       		.uleb128 0xd
 5564 038b 7800     		.ascii	"x\000"
 5565 038d 02       		.byte	0x2
 5566 038e 7E       		.byte	0x7e
 5567 038f 25000000 		.4byte	0x25
 5568 0393 10       		.uleb128 0x10
 5569 0394 7900     		.ascii	"y\000"
 5570 0396 02       		.byte	0x2
 5571 0397 80       		.byte	0x80
 5572 0398 25000000 		.4byte	0x25
 5573 039c 10       		.uleb128 0x10
 5574 039d 6500     		.ascii	"e\000"
 5575 039f 02       		.byte	0x2
 5576 03a0 81       		.byte	0x81
 5577 03a1 85000000 		.4byte	0x85
 5578 03a5 11       		.uleb128 0x11
 5579 03a6 6300     		.ascii	"c\000"
 5580 03a8 02       		.byte	0x2
 5581 03a9 85       		.byte	0x85
 5582 03aa D4030000 		.4byte	0x3d4
 5583 03ae 14       		.byte	0x14
 5584 03af E7       		.byte	0xe7
 5585 03b0 BB       		.byte	0xbb
 5586 03b1 A5       		.byte	0xa5
 5587 03b2 BF       		.byte	0xbf
 5588 03b3 1E       		.byte	0x1e
 5589 03b4 C4       		.byte	0xc4
 5590 03b5 A3       		.byte	0xa3
 5591 03b6 40       		.byte	0x40
 5592 03b7 6A       		.byte	0x6a
 5593 03b8 C4       		.byte	0xc4
 5594 03b9 06       		.byte	0x6
 5595 03ba C1       		.byte	0xc1
 5596 03bb 74       		.byte	0x74
 5597 03bc B0       		.byte	0xb0
 5598 03bd 01       		.byte	0x1
 5599 03be 41       		.byte	0x41
 5600 03bf F5       		.byte	0xf5
 5601 03c0 5C       		.byte	0x5c
 5602 03c1 60       		.byte	0x60
 5603 03c2 C0       		.byte	0xc0
 5604 03c3 00       		.byte	0
 5605 03c4 12       		.uleb128 0x12
 5606 03c5 1C030000 		.4byte	0x31c
 5607 03c9 D4030000 		.4byte	0x3d4
 5608 03cd 13       		.uleb128 0x13
 5609 03ce 2B010000 		.4byte	0x12b
 5610 03d2 04       		.byte	0x4
ARM GAS  C:\Users\rdn\AppData\Local\Temp\ccFEeGTH.s 			page 128


 5611 03d3 00       		.byte	0
 5612 03d4 0B       		.uleb128 0xb
 5613 03d5 C4030000 		.4byte	0x3c4
 5614 03d9 0C       		.uleb128 0xc
 5615 03da 5F030000 		.4byte	.LASF70
 5616 03de 09       		.byte	0x9
 5617 03df 6D       		.byte	0x6d
 5618 03e0 24010000 		.4byte	0x124
 5619 03e4 03       		.byte	0x3
 5620 03e5 F4030000 		.4byte	0x3f4
 5621 03e9 0D       		.uleb128 0xd
 5622 03ea 737200   		.ascii	"sr\000"
 5623 03ed 09       		.byte	0x9
 5624 03ee 6D       		.byte	0x6d
 5625 03ef E3000000 		.4byte	0xe3
 5626 03f3 00       		.byte	0
 5627 03f4 14       		.uleb128 0x14
 5628 03f5 B7020000 		.4byte	.LASF126
 5629 03f9 03       		.byte	0x3
 5630 03fa DA       		.byte	0xda
 5631 03fb 03       		.byte	0x3
 5632 03fc 29040000 		.4byte	0x429
 5633 0400 15       		.uleb128 0x15
 5634 0401 0E040000 		.4byte	.LASF71
 5635 0405 03       		.byte	0x3
 5636 0406 DB       		.byte	0xdb
 5637 0407 29040000 		.4byte	0x429
 5638 040b 0D       		.uleb128 0xd
 5639 040c 7600     		.ascii	"v\000"
 5640 040e 03       		.byte	0x3
 5641 040f DB       		.byte	0xdb
 5642 0410 8C000000 		.4byte	0x8c
 5643 0414 0D       		.uleb128 0xd
 5644 0415 6E00     		.ascii	"n\000"
 5645 0417 03       		.byte	0x3
 5646 0418 DB       		.byte	0xdb
 5647 0419 85000000 		.4byte	0x85
 5648 041d 16       		.uleb128 0x16
 5649 041e 66030000 		.4byte	.LASF53
 5650 0422 03       		.byte	0x3
 5651 0423 DD       		.byte	0xdd
 5652 0424 2F040000 		.4byte	0x42f
 5653 0428 00       		.byte	0
 5654 0429 0A       		.uleb128 0xa
 5655 042a 04       		.byte	0x4
 5656 042b 34020000 		.4byte	0x234
 5657 042f 0A       		.uleb128 0xa
 5658 0430 04       		.byte	0x4
 5659 0431 64010000 		.4byte	0x164
 5660 0435 0C       		.uleb128 0xc
 5661 0436 A2000000 		.4byte	.LASF72
 5662 043a 03       		.byte	0x3
 5663 043b F2       		.byte	0xf2
 5664 043c 8C000000 		.4byte	0x8c
 5665 0440 03       		.byte	0x3
 5666 0441 70040000 		.4byte	0x470
 5667 0445 15       		.uleb128 0x15
ARM GAS  C:\Users\rdn\AppData\Local\Temp\ccFEeGTH.s 			page 129


 5668 0446 0E040000 		.4byte	.LASF71
 5669 044a 03       		.byte	0x3
 5670 044b F2       		.byte	0xf2
 5671 044c 29040000 		.4byte	0x429
 5672 0450 0D       		.uleb128 0xd
 5673 0451 6E00     		.ascii	"n\000"
 5674 0453 03       		.byte	0x3
 5675 0454 F2       		.byte	0xf2
 5676 0455 85000000 		.4byte	0x85
 5677 0459 16       		.uleb128 0x16
 5678 045a 66030000 		.4byte	.LASF53
 5679 045e 03       		.byte	0x3
 5680 045f F4       		.byte	0xf4
 5681 0460 2F040000 		.4byte	0x42f
 5682 0464 17       		.uleb128 0x17
 5683 0465 10       		.uleb128 0x10
 5684 0466 7600     		.ascii	"v\000"
 5685 0468 03       		.byte	0x3
 5686 0469 F7       		.byte	0xf7
 5687 046a 85000000 		.4byte	0x85
 5688 046e 00       		.byte	0
 5689 046f 00       		.byte	0
 5690 0470 18       		.uleb128 0x18
 5691 0471 59010000 		.4byte	.LASF73
 5692 0475 01       		.byte	0x1
 5693 0476 7B       		.byte	0x7b
 5694 0477 00000000 		.4byte	.LFB20
 5695 047b 4C000000 		.4byte	.LFE20-.LFB20
 5696 047f 01       		.uleb128 0x1
 5697 0480 9C       		.byte	0x9c
 5698 0481 C4040000 		.4byte	0x4c4
 5699 0485 19       		.uleb128 0x19
 5700 0486 7800     		.ascii	"x\000"
 5701 0488 01       		.byte	0x1
 5702 0489 7B       		.byte	0x7b
 5703 048a 16030000 		.4byte	0x316
 5704 048e 00000000 		.4byte	.LLST0
 5705 0492 19       		.uleb128 0x19
 5706 0493 7900     		.ascii	"y\000"
 5707 0495 01       		.byte	0x1
 5708 0496 7B       		.byte	0x7b
 5709 0497 C4040000 		.4byte	0x4c4
 5710 049b 2C000000 		.4byte	.LLST1
 5711 049f 1A       		.uleb128 0x1a
 5712 04a0 0A000000 		.4byte	.LBB51
 5713 04a4 38000000 		.4byte	.LBE51-.LBB51
 5714 04a8 1B       		.uleb128 0x1b
 5715 04a9 6900     		.ascii	"i\000"
 5716 04ab 01       		.byte	0x1
 5717 04ac 7D       		.byte	0x7d
 5718 04ad 85000000 		.4byte	0x85
 5719 04b1 58000000 		.4byte	.LLST2
 5720 04b5 1B       		.uleb128 0x1b
 5721 04b6 6A00     		.ascii	"j\000"
 5722 04b8 01       		.byte	0x1
 5723 04b9 7D       		.byte	0x7d
 5724 04ba 85000000 		.4byte	0x85
ARM GAS  C:\Users\rdn\AppData\Local\Temp\ccFEeGTH.s 			page 130


 5725 04be 77000000 		.4byte	.LLST3
 5726 04c2 00       		.byte	0
 5727 04c3 00       		.byte	0
 5728 04c4 0A       		.uleb128 0xa
 5729 04c5 04       		.byte	0x4
 5730 04c6 25000000 		.4byte	0x25
 5731 04ca 18       		.uleb128 0x18
 5732 04cb 4B040000 		.4byte	.LASF74
 5733 04cf 01       		.byte	0x1
 5734 04d0 86       		.byte	0x86
 5735 04d1 00000000 		.4byte	.LFB21
 5736 04d5 4C000000 		.4byte	.LFE21-.LFB21
 5737 04d9 01       		.uleb128 0x1
 5738 04da 9C       		.byte	0x9c
 5739 04db 1E050000 		.4byte	0x51e
 5740 04df 19       		.uleb128 0x19
 5741 04e0 7800     		.ascii	"x\000"
 5742 04e2 01       		.byte	0x1
 5743 04e3 86       		.byte	0x86
 5744 04e4 16030000 		.4byte	0x316
 5745 04e8 96000000 		.4byte	.LLST4
 5746 04ec 19       		.uleb128 0x19
 5747 04ed 7900     		.ascii	"y\000"
 5748 04ef 01       		.byte	0x1
 5749 04f0 86       		.byte	0x86
 5750 04f1 C4040000 		.4byte	0x4c4
 5751 04f5 C2000000 		.4byte	.LLST5
 5752 04f9 1A       		.uleb128 0x1a
 5753 04fa 0A000000 		.4byte	.LBB52
 5754 04fe 38000000 		.4byte	.LBE52-.LBB52
 5755 0502 1B       		.uleb128 0x1b
 5756 0503 6900     		.ascii	"i\000"
 5757 0505 01       		.byte	0x1
 5758 0506 88       		.byte	0x88
 5759 0507 85000000 		.4byte	0x85
 5760 050b EE000000 		.4byte	.LLST6
 5761 050f 1B       		.uleb128 0x1b
 5762 0510 6A00     		.ascii	"j\000"
 5763 0512 01       		.byte	0x1
 5764 0513 88       		.byte	0x88
 5765 0514 85000000 		.4byte	0x85
 5766 0518 0D010000 		.4byte	.LLST7
 5767 051c 00       		.byte	0
 5768 051d 00       		.byte	0
 5769 051e 1C       		.uleb128 0x1c
 5770 051f 5E000000 		.4byte	.LASF75
 5771 0523 01       		.byte	0x1
 5772 0524 8401     		.2byte	0x184
 5773 0526 00000000 		.4byte	.LFB23
 5774 052a D8000000 		.4byte	.LFE23-.LFB23
 5775 052e 01       		.uleb128 0x1
 5776 052f 9C       		.byte	0x9c
 5777 0530 F9050000 		.4byte	0x5f9
 5778 0534 1D       		.uleb128 0x1d
 5779 0535 73636600 		.ascii	"scf\000"
 5780 0539 01       		.byte	0x1
 5781 053a 8501     		.2byte	0x185
ARM GAS  C:\Users\rdn\AppData\Local\Temp\ccFEeGTH.s 			page 131


 5782 053c 16030000 		.4byte	0x316
 5783 0540 2C010000 		.4byte	.LLST8
 5784 0544 1E       		.uleb128 0x1e
 5785 0545 7E030000 		.4byte	.LASF76
 5786 0549 01       		.byte	0x1
 5787 054a 8501     		.2byte	0x185
 5788 054c 74030000 		.4byte	0x374
 5789 0550 58010000 		.4byte	.LLST9
 5790 0554 1E       		.uleb128 0x1e
 5791 0555 18000000 		.4byte	.LASF77
 5792 0559 01       		.byte	0x1
 5793 055a 8501     		.2byte	0x185
 5794 055c 74030000 		.4byte	0x374
 5795 0560 84010000 		.4byte	.LLST10
 5796 0564 1F       		.uleb128 0x1f
 5797 0565 AF000000 		.4byte	.LASF78
 5798 0569 01       		.byte	0x1
 5799 056a 8701     		.2byte	0x187
 5800 056c 25000000 		.4byte	0x25
 5801 0570 B0010000 		.4byte	.LLST11
 5802 0574 1F       		.uleb128 0x1f
 5803 0575 45050000 		.4byte	.LASF79
 5804 0579 01       		.byte	0x1
 5805 057a 8701     		.2byte	0x187
 5806 057c 25000000 		.4byte	0x25
 5807 0580 EC010000 		.4byte	.LLST12
 5808 0584 20       		.uleb128 0x20
 5809 0585 00000000 		.4byte	.Ldebug_ranges0+0
 5810 0589 21       		.uleb128 0x21
 5811 058a 69636200 		.ascii	"icb\000"
 5812 058e 01       		.byte	0x1
 5813 058f 8A01     		.2byte	0x18a
 5814 0591 85000000 		.4byte	0x85
 5815 0595 28020000 		.4byte	.LLST13
 5816 0599 1A       		.uleb128 0x1a
 5817 059a 26000000 		.4byte	.LBB54
 5818 059e 90000000 		.4byte	.LBE54-.LBB54
 5819 05a2 1F       		.uleb128 0x1f
 5820 05a3 96060000 		.4byte	.LASF57
 5821 05a7 01       		.byte	0x1
 5822 05a8 8B01     		.2byte	0x18b
 5823 05aa 16030000 		.4byte	0x316
 5824 05ae 89020000 		.4byte	.LLST14
 5825 05b2 1F       		.uleb128 0x1f
 5826 05b3 9E040000 		.4byte	.LASF58
 5827 05b7 01       		.byte	0x1
 5828 05b8 8C01     		.2byte	0x18c
 5829 05ba 16030000 		.4byte	0x316
 5830 05be 9C020000 		.4byte	.LLST15
 5831 05c2 1F       		.uleb128 0x1f
 5832 05c3 F7030000 		.4byte	.LASF80
 5833 05c7 01       		.byte	0x1
 5834 05c8 8D01     		.2byte	0x18d
 5835 05ca 25000000 		.4byte	0x25
 5836 05ce AF020000 		.4byte	.LLST16
 5837 05d2 1F       		.uleb128 0x1f
 5838 05d3 CB000000 		.4byte	.LASF81
ARM GAS  C:\Users\rdn\AppData\Local\Temp\ccFEeGTH.s 			page 132


 5839 05d7 01       		.byte	0x1
 5840 05d8 8D01     		.2byte	0x18d
 5841 05da 25000000 		.4byte	0x25
 5842 05de EA020000 		.4byte	.LLST17
 5843 05e2 20       		.uleb128 0x20
 5844 05e3 18000000 		.4byte	.Ldebug_ranges0+0x18
 5845 05e7 21       		.uleb128 0x21
 5846 05e8 6900     		.ascii	"i\000"
 5847 05ea 01       		.byte	0x1
 5848 05eb 8F01     		.2byte	0x18f
 5849 05ed 85000000 		.4byte	0x85
 5850 05f1 25030000 		.4byte	.LLST18
 5851 05f5 00       		.byte	0
 5852 05f6 00       		.byte	0
 5853 05f7 00       		.byte	0
 5854 05f8 00       		.byte	0
 5855 05f9 1C       		.uleb128 0x1c
 5856 05fa FA020000 		.4byte	.LASF82
 5857 05fe 01       		.byte	0x1
 5858 05ff B301     		.2byte	0x1b3
 5859 0601 00000000 		.4byte	.LFB25
 5860 0605 04010000 		.4byte	.LFE25-.LFB25
 5861 0609 01       		.uleb128 0x1
 5862 060a 9C       		.byte	0x9c
 5863 060b 04070000 		.4byte	0x704
 5864 060f 1D       		.uleb128 0x1d
 5865 0610 7800     		.ascii	"x\000"
 5866 0612 01       		.byte	0x1
 5867 0613 B301     		.2byte	0x1b3
 5868 0615 16030000 		.4byte	0x316
 5869 0619 44030000 		.4byte	.LLST19
 5870 061d 1D       		.uleb128 0x1d
 5871 061e 7900     		.ascii	"y\000"
 5872 0620 01       		.byte	0x1
 5873 0621 B301     		.2byte	0x1b3
 5874 0623 74030000 		.4byte	0x374
 5875 0627 70030000 		.4byte	.LLST20
 5876 062b 1D       		.uleb128 0x1d
 5877 062c 6E00     		.ascii	"n\000"
 5878 062e 01       		.byte	0x1
 5879 062f B301     		.2byte	0x1b3
 5880 0631 85000000 		.4byte	0x85
 5881 0635 B2030000 		.4byte	.LLST21
 5882 0639 1E       		.uleb128 0x1e
 5883 063a 97050000 		.4byte	.LASF48
 5884 063e 01       		.byte	0x1
 5885 063f B401     		.2byte	0x1b4
 5886 0641 85000000 		.4byte	0x85
 5887 0645 DE030000 		.4byte	.LLST22
 5888 0649 22       		.uleb128 0x22
 5889 064a 656E6400 		.ascii	"end\000"
 5890 064e 01       		.byte	0x1
 5891 064f B401     		.2byte	0x1b4
 5892 0651 85000000 		.4byte	0x85
 5893 0655 02       		.uleb128 0x2
 5894 0656 91       		.byte	0x91
 5895 0657 00       		.sleb128 0
ARM GAS  C:\Users\rdn\AppData\Local\Temp\ccFEeGTH.s 			page 133


 5896 0658 23       		.uleb128 0x23
 5897 0659 B2020000 		.4byte	.LASF83
 5898 065d 01       		.byte	0x1
 5899 065e B401     		.2byte	0x1b4
 5900 0660 C4040000 		.4byte	0x4c4
 5901 0664 02       		.uleb128 0x2
 5902 0665 91       		.byte	0x91
 5903 0666 04       		.sleb128 4
 5904 0667 23       		.uleb128 0x23
 5905 0668 B9040000 		.4byte	.LASF84
 5906 066c 01       		.byte	0x1
 5907 066d B401     		.2byte	0x1b4
 5908 066f C4040000 		.4byte	0x4c4
 5909 0673 02       		.uleb128 0x2
 5910 0674 91       		.byte	0x91
 5911 0675 08       		.sleb128 8
 5912 0676 1A       		.uleb128 0x1a
 5913 0677 20000000 		.4byte	.LBB58
 5914 067b D6000000 		.4byte	.LBE58-.LBB58
 5915 067f 21       		.uleb128 0x21
 5916 0680 6B00     		.ascii	"k\000"
 5917 0682 01       		.byte	0x1
 5918 0683 B601     		.2byte	0x1b6
 5919 0685 85000000 		.4byte	0x85
 5920 0689 FF030000 		.4byte	.LLST23
 5921 068d 1A       		.uleb128 0x1a
 5922 068e 22000000 		.4byte	.LBB59
 5923 0692 C8000000 		.4byte	.LBE59-.LBB59
 5924 0696 1F       		.uleb128 0x1f
 5925 0697 C4020000 		.4byte	.LASF85
 5926 069b 01       		.byte	0x1
 5927 069c B701     		.2byte	0x1b7
 5928 069e 25000000 		.4byte	0x25
 5929 06a2 1D040000 		.4byte	.LLST24
 5930 06a6 1F       		.uleb128 0x1f
 5931 06a7 7E020000 		.4byte	.LASF86
 5932 06ab 01       		.byte	0x1
 5933 06ac B801     		.2byte	0x1b8
 5934 06ae 25000000 		.4byte	0x25
 5935 06b2 3C040000 		.4byte	.LLST25
 5936 06b6 1F       		.uleb128 0x1f
 5937 06b7 3D060000 		.4byte	.LASF87
 5938 06bb 01       		.byte	0x1
 5939 06bc B901     		.2byte	0x1b9
 5940 06be 85000000 		.4byte	0x85
 5941 06c2 67040000 		.4byte	.LLST26
 5942 06c6 20       		.uleb128 0x20
 5943 06c7 30000000 		.4byte	.Ldebug_ranges0+0x30
 5944 06cb 21       		.uleb128 0x21
 5945 06cc 6900     		.ascii	"i\000"
 5946 06ce 01       		.byte	0x1
 5947 06cf BB01     		.2byte	0x1bb
 5948 06d1 85000000 		.4byte	0x85
 5949 06d5 93040000 		.4byte	.LLST27
 5950 06d9 1A       		.uleb128 0x1a
 5951 06da 62000000 		.4byte	.LBB61
 5952 06de 50000000 		.4byte	.LBE61-.LBB61
ARM GAS  C:\Users\rdn\AppData\Local\Temp\ccFEeGTH.s 			page 134


 5953 06e2 21       		.uleb128 0x21
 5954 06e3 633200   		.ascii	"c2\000"
 5955 06e6 01       		.byte	0x1
 5956 06e7 BC01     		.2byte	0x1bc
 5957 06e9 25000000 		.4byte	0x25
 5958 06ed B2040000 		.4byte	.LLST28
 5959 06f1 21       		.uleb128 0x21
 5960 06f2 6500     		.ascii	"e\000"
 5961 06f4 01       		.byte	0x1
 5962 06f5 BD01     		.2byte	0x1bd
 5963 06f7 25000000 		.4byte	0x25
 5964 06fb D2040000 		.4byte	.LLST29
 5965 06ff 00       		.byte	0
 5966 0700 00       		.byte	0
 5967 0701 00       		.byte	0
 5968 0702 00       		.byte	0
 5969 0703 00       		.byte	0
 5970 0704 1C       		.uleb128 0x1c
 5971 0705 58060000 		.4byte	.LASF88
 5972 0709 01       		.byte	0x1
 5973 070a 4902     		.2byte	0x249
 5974 070c 00000000 		.4byte	.LFB27
 5975 0710 9C000000 		.4byte	.LFE27-.LFB27
 5976 0714 01       		.uleb128 0x1
 5977 0715 9C       		.byte	0x9c
 5978 0716 F4070000 		.4byte	0x7f4
 5979 071a 1E       		.uleb128 0x1e
 5980 071b 7E030000 		.4byte	.LASF76
 5981 071f 01       		.byte	0x1
 5982 0720 4902     		.2byte	0x249
 5983 0722 85000000 		.4byte	0x85
 5984 0726 F0040000 		.4byte	.LLST30
 5985 072a 1E       		.uleb128 0x1e
 5986 072b 18000000 		.4byte	.LASF77
 5987 072f 01       		.byte	0x1
 5988 0730 4902     		.2byte	0x249
 5989 0732 85000000 		.4byte	0x85
 5990 0736 11050000 		.4byte	.LLST31
 5991 073a 1D       		.uleb128 0x1d
 5992 073b 6300     		.ascii	"c\000"
 5993 073d 01       		.byte	0x1
 5994 073e 4A02     		.2byte	0x24a
 5995 0740 16030000 		.4byte	0x316
 5996 0744 32050000 		.4byte	.LLST32
 5997 0748 1E       		.uleb128 0x1e
 5998 0749 3F050000 		.4byte	.LASF59
 5999 074d 01       		.byte	0x1
 6000 074e 4A02     		.2byte	0x24a
 6001 0750 85000000 		.4byte	0x85
 6002 0754 53050000 		.4byte	.LLST33
 6003 0758 23       		.uleb128 0x23
 6004 0759 FD030000 		.4byte	.LASF60
 6005 075d 01       		.byte	0x1
 6006 075e 4A02     		.2byte	0x24a
 6007 0760 85000000 		.4byte	0x85
 6008 0764 02       		.uleb128 0x2
 6009 0765 91       		.byte	0x91
ARM GAS  C:\Users\rdn\AppData\Local\Temp\ccFEeGTH.s 			page 135


 6010 0766 00       		.sleb128 0
 6011 0767 22       		.uleb128 0x22
 6012 0768 73636600 		.ascii	"scf\000"
 6013 076c 01       		.byte	0x1
 6014 076d 4A02     		.2byte	0x24a
 6015 076f C4040000 		.4byte	0x4c4
 6016 0773 02       		.uleb128 0x2
 6017 0774 91       		.byte	0x91
 6018 0775 04       		.sleb128 4
 6019 0776 1F       		.uleb128 0x1f
 6020 0777 96060000 		.4byte	.LASF57
 6021 077b 01       		.byte	0x1
 6022 077c 4C02     		.2byte	0x24c
 6023 077e 16030000 		.4byte	0x316
 6024 0782 74050000 		.4byte	.LLST34
 6025 0786 1F       		.uleb128 0x1f
 6026 0787 9E040000 		.4byte	.LASF58
 6027 078b 01       		.byte	0x1
 6028 078c 4D02     		.2byte	0x24d
 6029 078e 16030000 		.4byte	0x316
 6030 0792 87050000 		.4byte	.LLST35
 6031 0796 21       		.uleb128 0x21
 6032 0797 6700     		.ascii	"g\000"
 6033 0799 01       		.byte	0x1
 6034 079a 4E02     		.2byte	0x24e
 6035 079c 25000000 		.4byte	0x25
 6036 07a0 9A050000 		.4byte	.LLST36
 6037 07a4 24       		.uleb128 0x24
 6038 07a5 32000000 		.4byte	.LBB63
 6039 07a9 2A000000 		.4byte	.LBE63-.LBB63
 6040 07ad C0070000 		.4byte	0x7c0
 6041 07b1 21       		.uleb128 0x21
 6042 07b2 6900     		.ascii	"i\000"
 6043 07b4 01       		.byte	0x1
 6044 07b5 5202     		.2byte	0x252
 6045 07b7 85000000 		.4byte	0x85
 6046 07bb B9050000 		.4byte	.LLST37
 6047 07bf 00       		.byte	0
 6048 07c0 24       		.uleb128 0x24
 6049 07c1 5C000000 		.4byte	.LBB64
 6050 07c5 26000000 		.4byte	.LBE64-.LBB64
 6051 07c9 DC070000 		.4byte	0x7dc
 6052 07cd 21       		.uleb128 0x21
 6053 07ce 6900     		.ascii	"i\000"
 6054 07d0 01       		.byte	0x1
 6055 07d1 5502     		.2byte	0x255
 6056 07d3 85000000 		.4byte	0x85
 6057 07d7 D8050000 		.4byte	.LLST38
 6058 07db 00       		.byte	0
 6059 07dc 25       		.uleb128 0x25
 6060 07dd 32000000 		.4byte	.LVL100
 6061 07e1 CA040000 		.4byte	0x4ca
 6062 07e5 26       		.uleb128 0x26
 6063 07e6 01       		.uleb128 0x1
 6064 07e7 50       		.byte	0x50
 6065 07e8 03       		.uleb128 0x3
 6066 07e9 F3       		.byte	0xf3
ARM GAS  C:\Users\rdn\AppData\Local\Temp\ccFEeGTH.s 			page 136


 6067 07ea 01       		.uleb128 0x1
 6068 07eb 52       		.byte	0x52
 6069 07ec 26       		.uleb128 0x26
 6070 07ed 01       		.uleb128 0x1
 6071 07ee 51       		.byte	0x51
 6072 07ef 02       		.uleb128 0x2
 6073 07f0 76       		.byte	0x76
 6074 07f1 00       		.sleb128 0
 6075 07f2 00       		.byte	0
 6076 07f3 00       		.byte	0
 6077 07f4 27       		.uleb128 0x27
 6078 07f5 1A020000 		.4byte	.LASF89
 6079 07f9 01       		.byte	0x1
 6080 07fa 5E02     		.2byte	0x25e
 6081 07fc 00000000 		.4byte	.LFB28
 6082 0800 84000000 		.4byte	.LFE28-.LFB28
 6083 0804 01       		.uleb128 0x1
 6084 0805 9C       		.byte	0x9c
 6085 0806 6D080000 		.4byte	0x86d
 6086 080a 1D       		.uleb128 0x1d
 6087 080b 6300     		.ascii	"c\000"
 6088 080d 01       		.byte	0x1
 6089 080e 5E02     		.2byte	0x25e
 6090 0810 6D080000 		.4byte	0x86d
 6091 0814 EB050000 		.4byte	.LLST39
 6092 0818 22       		.uleb128 0x22
 6093 0819 6E00     		.ascii	"n\000"
 6094 081b 01       		.byte	0x1
 6095 081c 5E02     		.2byte	0x25e
 6096 081e 85000000 		.4byte	0x85
 6097 0822 01       		.uleb128 0x1
 6098 0823 51       		.byte	0x51
 6099 0824 22       		.uleb128 0x22
 6100 0825 69647800 		.ascii	"idx\000"
 6101 0829 01       		.byte	0x1
 6102 082a 5E02     		.2byte	0x25e
 6103 082c 74030000 		.4byte	0x374
 6104 0830 01       		.uleb128 0x1
 6105 0831 52       		.byte	0x52
 6106 0832 1D       		.uleb128 0x1d
 6107 0833 6C7300   		.ascii	"ls\000"
 6108 0836 01       		.byte	0x1
 6109 0837 5E02     		.2byte	0x25e
 6110 0839 78080000 		.4byte	0x878
 6111 083d 09060000 		.4byte	.LLST40
 6112 0841 21       		.uleb128 0x21
 6113 0842 636900   		.ascii	"ci\000"
 6114 0845 01       		.byte	0x1
 6115 0846 6002     		.2byte	0x260
 6116 0848 85000000 		.4byte	0x85
 6117 084c 27060000 		.4byte	.LLST41
 6118 0850 21       		.uleb128 0x21
 6119 0851 6900     		.ascii	"i\000"
 6120 0853 01       		.byte	0x1
 6121 0854 6002     		.2byte	0x260
 6122 0856 85000000 		.4byte	0x85
 6123 085a 50060000 		.4byte	.LLST42
ARM GAS  C:\Users\rdn\AppData\Local\Temp\ccFEeGTH.s 			page 137


 6124 085e 21       		.uleb128 0x21
 6125 085f 6A00     		.ascii	"j\000"
 6126 0861 01       		.byte	0x1
 6127 0862 6B02     		.2byte	0x26b
 6128 0864 8C000000 		.4byte	0x8c
 6129 0868 6F060000 		.4byte	.LLST43
 6130 086c 00       		.byte	0
 6131 086d 0A       		.uleb128 0xa
 6132 086e 04       		.byte	0x4
 6133 086f 73080000 		.4byte	0x873
 6134 0873 0B       		.uleb128 0xb
 6135 0874 85000000 		.4byte	0x85
 6136 0878 0A       		.uleb128 0xa
 6137 0879 04       		.byte	0x4
 6138 087a 24010000 		.4byte	0x124
 6139 087e 27       		.uleb128 0x27
 6140 087f E4040000 		.4byte	.LASF90
 6141 0883 01       		.byte	0x1
 6142 0884 7E02     		.2byte	0x27e
 6143 0886 00000000 		.4byte	.LFB29
 6144 088a 80000000 		.4byte	.LFE29-.LFB29
 6145 088e 01       		.uleb128 0x1
 6146 088f 9C       		.byte	0x9c
 6147 0890 11090000 		.4byte	0x911
 6148 0894 1D       		.uleb128 0x1d
 6149 0895 69647800 		.ascii	"idx\000"
 6150 0899 01       		.byte	0x1
 6151 089a 7E02     		.2byte	0x27e
 6152 089c 85000000 		.4byte	0x85
 6153 08a0 98060000 		.4byte	.LLST44
 6154 08a4 1D       		.uleb128 0x1d
 6155 08a5 6C7300   		.ascii	"ls\000"
 6156 08a8 01       		.byte	0x1
 6157 08a9 7E02     		.2byte	0x27e
 6158 08ab 24010000 		.4byte	0x124
 6159 08af B6060000 		.4byte	.LLST45
 6160 08b3 1E       		.uleb128 0x1e
 6161 08b4 21040000 		.4byte	.LASF91
 6162 08b8 01       		.byte	0x1
 6163 08b9 7E02     		.2byte	0x27e
 6164 08bb 85000000 		.4byte	0x85
 6165 08bf E2060000 		.4byte	.LLST46
 6166 08c3 1D       		.uleb128 0x1d
 6167 08c4 6300     		.ascii	"c\000"
 6168 08c6 01       		.byte	0x1
 6169 08c7 7E02     		.2byte	0x27e
 6170 08c9 74030000 		.4byte	0x374
 6171 08cd 16070000 		.4byte	.LLST47
 6172 08d1 22       		.uleb128 0x22
 6173 08d2 6E00     		.ascii	"n\000"
 6174 08d4 01       		.byte	0x1
 6175 08d5 7E02     		.2byte	0x27e
 6176 08d7 85000000 		.4byte	0x85
 6177 08db 02       		.uleb128 0x2
 6178 08dc 91       		.byte	0x91
 6179 08dd 00       		.sleb128 0
 6180 08de 21       		.uleb128 0x21
ARM GAS  C:\Users\rdn\AppData\Local\Temp\ccFEeGTH.s 			page 138


 6181 08df 6900     		.ascii	"i\000"
 6182 08e1 01       		.byte	0x1
 6183 08e2 8002     		.2byte	0x280
 6184 08e4 85000000 		.4byte	0x85
 6185 08e8 6D070000 		.4byte	.LLST48
 6186 08ec 21       		.uleb128 0x21
 6187 08ed 636900   		.ascii	"ci\000"
 6188 08f0 01       		.byte	0x1
 6189 08f1 9502     		.2byte	0x295
 6190 08f3 85000000 		.4byte	0x85
 6191 08f7 AC070000 		.4byte	.LLST49
 6192 08fb 20       		.uleb128 0x20
 6193 08fc 48000000 		.4byte	.Ldebug_ranges0+0x48
 6194 0900 21       		.uleb128 0x21
 6195 0901 636900   		.ascii	"ci\000"
 6196 0904 01       		.byte	0x1
 6197 0905 8602     		.2byte	0x286
 6198 0907 85000000 		.4byte	0x85
 6199 090b CA070000 		.4byte	.LLST50
 6200 090f 00       		.byte	0
 6201 0910 00       		.byte	0
 6202 0911 27       		.uleb128 0x27
 6203 0912 D2060000 		.4byte	.LASF92
 6204 0916 01       		.byte	0x1
 6205 0917 A502     		.2byte	0x2a5
 6206 0919 00000000 		.4byte	.LFB30
 6207 091d 2A000000 		.4byte	.LFE30-.LFB30
 6208 0921 01       		.uleb128 0x1
 6209 0922 9C       		.byte	0x9c
 6210 0923 BB090000 		.4byte	0x9bb
 6211 0927 1E       		.uleb128 0x1e
 6212 0928 3F050000 		.4byte	.LASF59
 6213 092c 01       		.byte	0x1
 6214 092d A502     		.2byte	0x2a5
 6215 092f 85000000 		.4byte	0x85
 6216 0933 E8070000 		.4byte	.LLST51
 6217 0937 1D       		.uleb128 0x1d
 6218 0938 6300     		.ascii	"c\000"
 6219 093a 01       		.byte	0x1
 6220 093b A502     		.2byte	0x2a5
 6221 093d 6D080000 		.4byte	0x86d
 6222 0941 14080000 		.4byte	.LLST52
 6223 0945 1E       		.uleb128 0x1e
 6224 0946 05070000 		.4byte	.LASF61
 6225 094a 01       		.byte	0x1
 6226 094b A602     		.2byte	0x2a6
 6227 094d 74030000 		.4byte	0x374
 6228 0951 56080000 		.4byte	.LLST53
 6229 0955 1E       		.uleb128 0x1e
 6230 0956 08060000 		.4byte	.LASF63
 6231 095a 01       		.byte	0x1
 6232 095b A602     		.2byte	0x2a6
 6233 095d 78080000 		.4byte	0x878
 6234 0961 77080000 		.4byte	.LLST54
 6235 0965 23       		.uleb128 0x23
 6236 0966 0B070000 		.4byte	.LASF62
 6237 096a 01       		.byte	0x1
ARM GAS  C:\Users\rdn\AppData\Local\Temp\ccFEeGTH.s 			page 139


 6238 096b A602     		.2byte	0x2a6
 6239 096d 74030000 		.4byte	0x374
 6240 0971 02       		.uleb128 0x2
 6241 0972 91       		.byte	0x91
 6242 0973 00       		.sleb128 0
 6243 0974 23       		.uleb128 0x23
 6244 0975 0D060000 		.4byte	.LASF64
 6245 0979 01       		.byte	0x1
 6246 097a A602     		.2byte	0x2a6
 6247 097c 78080000 		.4byte	0x878
 6248 0980 02       		.uleb128 0x2
 6249 0981 91       		.byte	0x91
 6250 0982 04       		.sleb128 4
 6251 0983 28       		.uleb128 0x28
 6252 0984 16000000 		.4byte	.LVL161
 6253 0988 F4070000 		.4byte	0x7f4
 6254 098c 97090000 		.4byte	0x997
 6255 0990 26       		.uleb128 0x26
 6256 0991 01       		.uleb128 0x1
 6257 0992 50       		.byte	0x50
 6258 0993 02       		.uleb128 0x2
 6259 0994 74       		.byte	0x74
 6260 0995 00       		.sleb128 0
 6261 0996 00       		.byte	0
 6262 0997 25       		.uleb128 0x25
 6263 0998 28000000 		.4byte	.LVL162
 6264 099c F4070000 		.4byte	0x7f4
 6265 09a0 26       		.uleb128 0x26
 6266 09a1 01       		.uleb128 0x1
 6267 09a2 50       		.byte	0x50
 6268 09a3 02       		.uleb128 0x2
 6269 09a4 74       		.byte	0x74
 6270 09a5 28       		.sleb128 40
 6271 09a6 26       		.uleb128 0x26
 6272 09a7 01       		.uleb128 0x1
 6273 09a8 51       		.byte	0x51
 6274 09a9 01       		.uleb128 0x1
 6275 09aa 36       		.byte	0x36
 6276 09ab 26       		.uleb128 0x26
 6277 09ac 01       		.uleb128 0x1
 6278 09ad 52       		.byte	0x52
 6279 09ae 03       		.uleb128 0x3
 6280 09af 91       		.byte	0x91
 6281 09b0 00       		.sleb128 0
 6282 09b1 06       		.byte	0x6
 6283 09b2 26       		.uleb128 0x26
 6284 09b3 01       		.uleb128 0x1
 6285 09b4 53       		.byte	0x53
 6286 09b5 03       		.uleb128 0x3
 6287 09b6 91       		.byte	0x91
 6288 09b7 04       		.sleb128 4
 6289 09b8 06       		.byte	0x6
 6290 09b9 00       		.byte	0
 6291 09ba 00       		.byte	0
 6292 09bb 18       		.uleb128 0x18
 6293 09bc CE040000 		.4byte	.LASF93
 6294 09c0 01       		.byte	0x1
ARM GAS  C:\Users\rdn\AppData\Local\Temp\ccFEeGTH.s 			page 140


 6295 09c1 9A       		.byte	0x9a
 6296 09c2 00000000 		.4byte	.LFB22
 6297 09c6 AC050000 		.4byte	.LFE22-.LFB22
 6298 09ca 01       		.uleb128 0x1
 6299 09cb 9C       		.byte	0x9c
 6300 09cc 360D0000 		.4byte	0xd36
 6301 09d0 19       		.uleb128 0x19
 6302 09d1 647400   		.ascii	"dt\000"
 6303 09d4 01       		.byte	0x1
 6304 09d5 9B       		.byte	0x9b
 6305 09d6 B4000000 		.4byte	0xb4
 6306 09da 98080000 		.4byte	.LLST55
 6307 09de 19       		.uleb128 0x19
 6308 09df 737200   		.ascii	"sr\000"
 6309 09e2 01       		.byte	0x1
 6310 09e3 9B       		.byte	0x9b
 6311 09e4 E3000000 		.4byte	0xe3
 6312 09e8 D2080000 		.4byte	.LLST56
 6313 09ec 29       		.uleb128 0x29
 6314 09ed 44040000 		.4byte	.LASF94
 6315 09f1 01       		.byte	0x1
 6316 09f2 9B       		.byte	0x9b
 6317 09f3 85000000 		.4byte	0x85
 6318 09f7 0C090000 		.4byte	.LLST57
 6319 09fb 19       		.uleb128 0x19
 6320 09fc 656200   		.ascii	"eb\000"
 6321 09ff 01       		.byte	0x1
 6322 0a00 9C       		.byte	0x9c
 6323 0a01 16030000 		.4byte	0x316
 6324 0a05 3A090000 		.4byte	.LLST58
 6325 0a09 19       		.uleb128 0x19
 6326 0a0a 61747400 		.ascii	"att\000"
 6327 0a0e 01       		.byte	0x1
 6328 0a0f 9C       		.byte	0x9c
 6329 0a10 24010000 		.4byte	0x124
 6330 0a14 66090000 		.4byte	.LLST59
 6331 0a18 19       		.uleb128 0x19
 6332 0a19 73636600 		.ascii	"scf\000"
 6333 0a1d 01       		.byte	0x1
 6334 0a1e 9C       		.byte	0x9c
 6335 0a1f C4040000 		.4byte	0x4c4
 6336 0a23 92090000 		.4byte	.LLST60
 6337 0a27 2A       		.uleb128 0x2a
 6338 0a28 55020000 		.4byte	.LASF95
 6339 0a2c 01       		.byte	0x1
 6340 0a2d A1       		.byte	0xa1
 6341 0a2e 460D0000 		.4byte	0xd46
 6342 0a32 05       		.uleb128 0x5
 6343 0a33 03       		.byte	0x3
 6344 0a34 4C040000 		.4byte	ge_14.5557
 6345 0a38 2A       		.uleb128 0x2a
 6346 0a39 5B020000 		.4byte	.LASF96
 6347 0a3d 01       		.byte	0x1
 6348 0a3e B3       		.byte	0xb3
 6349 0a3f 4B0D0000 		.4byte	0xd4b
 6350 0a43 05       		.uleb128 0x5
 6351 0a44 03       		.byte	0x3
ARM GAS  C:\Users\rdn\AppData\Local\Temp\ccFEeGTH.s 			page 141


 6352 0a45 4C050000 		.4byte	ge_18.5558
 6353 0a49 2A       		.uleb128 0x2a
 6354 0a4a D3020000 		.4byte	.LASF97
 6355 0a4e 01       		.byte	0x1
 6356 0a4f C5       		.byte	0xc5
 6357 0a50 500D0000 		.4byte	0xd50
 6358 0a54 05       		.uleb128 0x5
 6359 0a55 03       		.byte	0x3
 6360 0a56 4C060000 		.4byte	ge_22.5559
 6361 0a5a 2A       		.uleb128 0x2a
 6362 0a5b EE020000 		.4byte	.LASF98
 6363 0a5f 01       		.byte	0x1
 6364 0a60 D7       		.byte	0xd7
 6365 0a61 550D0000 		.4byte	0xd55
 6366 0a65 05       		.uleb128 0x5
 6367 0a66 03       		.byte	0x3
 6368 0a67 4C070000 		.4byte	ge_26.5560
 6369 0a6b 2A       		.uleb128 0x2a
 6370 0a6c 41030000 		.4byte	.LASF99
 6371 0a70 01       		.byte	0x1
 6372 0a71 E9       		.byte	0xe9
 6373 0a72 5A0D0000 		.4byte	0xd5a
 6374 0a76 05       		.uleb128 0x5
 6375 0a77 03       		.byte	0x3
 6376 0a78 4C080000 		.4byte	ge_30.5561
 6377 0a7c 2A       		.uleb128 0x2a
 6378 0a7d 52030000 		.4byte	.LASF100
 6379 0a81 01       		.byte	0x1
 6380 0a82 FD       		.byte	0xfd
 6381 0a83 5F0D0000 		.4byte	0xd5f
 6382 0a87 05       		.uleb128 0x5
 6383 0a88 03       		.byte	0x3
 6384 0a89 4C090000 		.4byte	ge_34.5562
 6385 0a8d 2B       		.uleb128 0x2b
 6386 0a8e 42020000 		.4byte	.LASF101
 6387 0a92 01       		.byte	0x1
 6388 0a93 1101     		.2byte	0x111
 6389 0a95 740D0000 		.4byte	0xd74
 6390 0a99 05       		.uleb128 0x5
 6391 0a9a 03       		.byte	0x3
 6392 0a9b 00040000 		.4byte	ge_table.5563
 6393 0a9f 2C       		.uleb128 0x2c
 6394 0aa0 6500     		.ascii	"e\000"
 6395 0aa2 01       		.byte	0x1
 6396 0aa3 1C01     		.2byte	0x11c
 6397 0aa5 790D0000 		.4byte	0xd79
 6398 0aa9 03       		.uleb128 0x3
 6399 0aaa 91       		.byte	0x91
 6400 0aab D87D     		.sleb128 -296
 6401 0aad 21       		.uleb128 0x21
 6402 0aae 6E6200   		.ascii	"nb\000"
 6403 0ab1 01       		.byte	0x1
 6404 0ab2 2001     		.2byte	0x120
 6405 0ab4 85000000 		.4byte	0x85
 6406 0ab8 BE090000 		.4byte	.LLST61
 6407 0abc 21       		.uleb128 0x21
 6408 0abd 6E3400   		.ascii	"n4\000"
ARM GAS  C:\Users\rdn\AppData\Local\Temp\ccFEeGTH.s 			page 142


 6409 0ac0 01       		.byte	0x1
 6410 0ac1 2101     		.2byte	0x121
 6411 0ac3 85000000 		.4byte	0x85
 6412 0ac7 DC090000 		.4byte	.LLST62
 6413 0acb 21       		.uleb128 0x21
 6414 0acc 6E3200   		.ascii	"n2\000"
 6415 0acf 01       		.byte	0x1
 6416 0ad0 2201     		.2byte	0x122
 6417 0ad2 85000000 		.4byte	0x85
 6418 0ad6 EF090000 		.4byte	.LLST63
 6419 0ada 21       		.uleb128 0x21
 6420 0adb 676500   		.ascii	"ge\000"
 6421 0ade 01       		.byte	0x1
 6422 0adf 2F01     		.2byte	0x12f
 6423 0ae1 16030000 		.4byte	0x316
 6424 0ae5 0D0A0000 		.4byte	.LLST64
 6425 0ae9 21       		.uleb128 0x21
 6426 0aea 653000   		.ascii	"e0\000"
 6427 0aed 01       		.byte	0x1
 6428 0aee 3101     		.2byte	0x131
 6429 0af0 25000000 		.4byte	0x25
 6430 0af4 8F0A0000 		.4byte	.LLST65
 6431 0af8 21       		.uleb128 0x21
 6432 0af9 653100   		.ascii	"e1\000"
 6433 0afc 01       		.byte	0x1
 6434 0afd 3101     		.2byte	0x131
 6435 0aff 25000000 		.4byte	0x25
 6436 0b03 B80A0000 		.4byte	.LLST66
 6437 0b07 21       		.uleb128 0x21
 6438 0b08 653200   		.ascii	"e2\000"
 6439 0b0b 01       		.byte	0x1
 6440 0b0c 3101     		.2byte	0x131
 6441 0b0e 25000000 		.4byte	0x25
 6442 0b12 EE0A0000 		.4byte	.LLST67
 6443 0b16 1F       		.uleb128 0x1f
 6444 0b17 FF060000 		.4byte	.LASF102
 6445 0b1b 01       		.byte	0x1
 6446 0b1c 3201     		.2byte	0x132
 6447 0b1e 25000000 		.4byte	0x25
 6448 0b22 010B0000 		.4byte	.LLST68
 6449 0b26 1F       		.uleb128 0x1f
 6450 0b27 9B060000 		.4byte	.LASF103
 6451 0b2b 01       		.byte	0x1
 6452 0b2c 4201     		.2byte	0x142
 6453 0b2e 25000000 		.4byte	0x25
 6454 0b32 610B0000 		.4byte	.LLST69
 6455 0b36 1F       		.uleb128 0x1f
 6456 0b37 3C040000 		.4byte	.LASF104
 6457 0b3b 01       		.byte	0x1
 6458 0b3c 4901     		.2byte	0x149
 6459 0b3e 25000000 		.4byte	0x25
 6460 0b42 810B0000 		.4byte	.LLST70
 6461 0b46 21       		.uleb128 0x21
 6462 0b47 636600   		.ascii	"cf\000"
 6463 0b4a 01       		.byte	0x1
 6464 0b4b 5C01     		.2byte	0x15c
 6465 0b4d 25000000 		.4byte	0x25
ARM GAS  C:\Users\rdn\AppData\Local\Temp\ccFEeGTH.s 			page 143


 6466 0b51 FF0B0000 		.4byte	.LLST71
 6467 0b55 21       		.uleb128 0x21
 6468 0b56 733000   		.ascii	"s0\000"
 6469 0b59 01       		.byte	0x1
 6470 0b5a 6901     		.2byte	0x169
 6471 0b5c 25000000 		.4byte	0x25
 6472 0b60 1F0C0000 		.4byte	.LLST72
 6473 0b64 21       		.uleb128 0x21
 6474 0b65 733100   		.ascii	"s1\000"
 6475 0b68 01       		.byte	0x1
 6476 0b69 6901     		.2byte	0x169
 6477 0b6b 25000000 		.4byte	0x25
 6478 0b6f 330C0000 		.4byte	.LLST73
 6479 0b73 21       		.uleb128 0x21
 6480 0b74 733200   		.ascii	"s2\000"
 6481 0b77 01       		.byte	0x1
 6482 0b78 6901     		.2byte	0x169
 6483 0b7a 25000000 		.4byte	0x25
 6484 0b7e 6B0C0000 		.4byte	.LLST74
 6485 0b82 21       		.uleb128 0x21
 6486 0b83 733300   		.ascii	"s3\000"
 6487 0b86 01       		.byte	0x1
 6488 0b87 6901     		.2byte	0x169
 6489 0b89 25000000 		.4byte	0x25
 6490 0b8d A50C0000 		.4byte	.LLST75
 6491 0b91 21       		.uleb128 0x21
 6492 0b92 733400   		.ascii	"s4\000"
 6493 0b95 01       		.byte	0x1
 6494 0b96 6901     		.2byte	0x169
 6495 0b98 25000000 		.4byte	0x25
 6496 0b9c EA0C0000 		.4byte	.LLST76
 6497 0ba0 21       		.uleb128 0x21
 6498 0ba1 736E00   		.ascii	"sn\000"
 6499 0ba4 01       		.byte	0x1
 6500 0ba5 6A01     		.2byte	0x16a
 6501 0ba7 25000000 		.4byte	0x25
 6502 0bab 2D0D0000 		.4byte	.LLST77
 6503 0baf 24       		.uleb128 0x24
 6504 0bb0 4E000000 		.4byte	.LBB68
 6505 0bb4 2E000000 		.4byte	.LBE68-.LBB68
 6506 0bb8 CC0B0000 		.4byte	0xbcc
 6507 0bbc 21       		.uleb128 0x21
 6508 0bbd 693400   		.ascii	"i4\000"
 6509 0bc0 01       		.byte	0x1
 6510 0bc1 2401     		.2byte	0x124
 6511 0bc3 85000000 		.4byte	0x85
 6512 0bc7 BB0D0000 		.4byte	.LLST78
 6513 0bcb 00       		.byte	0
 6514 0bcc 24       		.uleb128 0x24
 6515 0bcd 7C000000 		.4byte	.LBB69
 6516 0bd1 1E000000 		.4byte	.LBE69-.LBB69
 6517 0bd5 E90B0000 		.4byte	0xbe9
 6518 0bd9 21       		.uleb128 0x21
 6519 0bda 693200   		.ascii	"i2\000"
 6520 0bdd 01       		.byte	0x1
 6521 0bde 2801     		.2byte	0x128
 6522 0be0 85000000 		.4byte	0x85
ARM GAS  C:\Users\rdn\AppData\Local\Temp\ccFEeGTH.s 			page 144


 6523 0be4 DA0D0000 		.4byte	.LLST79
 6524 0be8 00       		.byte	0
 6525 0be9 2D       		.uleb128 0x2d
 6526 0bea 68000000 		.4byte	.Ldebug_ranges0+0x68
 6527 0bee 010C0000 		.4byte	0xc01
 6528 0bf2 21       		.uleb128 0x21
 6529 0bf3 6900     		.ascii	"i\000"
 6530 0bf5 01       		.byte	0x1
 6531 0bf6 3401     		.2byte	0x134
 6532 0bf8 85000000 		.4byte	0x85
 6533 0bfc ED0D0000 		.4byte	.LLST80
 6534 0c00 00       		.byte	0
 6535 0c01 24       		.uleb128 0x24
 6536 0c02 00020000 		.4byte	.LBB72
 6537 0c06 80000000 		.4byte	.LBE72-.LBB72
 6538 0c0a B30C0000 		.4byte	0xcb3
 6539 0c0e 21       		.uleb128 0x21
 6540 0c0f 6900     		.ascii	"i\000"
 6541 0c11 01       		.byte	0x1
 6542 0c12 4401     		.2byte	0x144
 6543 0c14 85000000 		.4byte	0x85
 6544 0c18 3E0E0000 		.4byte	.LLST81
 6545 0c1c 2E       		.uleb128 0x2e
 6546 0c1d 7A030000 		.4byte	0x37a
 6547 0c21 14020000 		.4byte	.LBB73
 6548 0c25 5A000000 		.4byte	.LBE73-.LBB73
 6549 0c29 01       		.byte	0x1
 6550 0c2a 4501     		.2byte	0x145
 6551 0c2c 950C0000 		.4byte	0xc95
 6552 0c30 2F       		.uleb128 0x2f
 6553 0c31 8A030000 		.4byte	0x38a
 6554 0c35 5D0E0000 		.4byte	.LLST82
 6555 0c39 1A       		.uleb128 0x1a
 6556 0c3a 14020000 		.4byte	.LBB74
 6557 0c3e 5A000000 		.4byte	.LBE74-.LBB74
 6558 0c42 30       		.uleb128 0x30
 6559 0c43 93030000 		.4byte	0x393
 6560 0c47 700E0000 		.4byte	.LLST83
 6561 0c4b 30       		.uleb128 0x30
 6562 0c4c 9C030000 		.4byte	0x39c
 6563 0c50 BA0E0000 		.4byte	.LLST84
 6564 0c54 31       		.uleb128 0x31
 6565 0c55 A5030000 		.4byte	0x3a5
 6566 0c59 32       		.uleb128 0x32
 6567 0c5a 21030000 		.4byte	0x321
 6568 0c5e 14020000 		.4byte	.LBB75
 6569 0c62 12000000 		.4byte	.LBE75-.LBB75
 6570 0c66 02       		.byte	0x2
 6571 0c67 88       		.byte	0x88
 6572 0c68 2F       		.uleb128 0x2f
 6573 0c69 3B030000 		.4byte	0x33b
 6574 0c6d CD0E0000 		.4byte	.LLST85
 6575 0c71 2F       		.uleb128 0x2f
 6576 0c72 31030000 		.4byte	0x331
 6577 0c76 5D0E0000 		.4byte	.LLST82
 6578 0c7a 1A       		.uleb128 0x1a
 6579 0c7b 14020000 		.4byte	.LBB76
ARM GAS  C:\Users\rdn\AppData\Local\Temp\ccFEeGTH.s 			page 145


 6580 0c7f 12000000 		.4byte	.LBE76-.LBB76
 6581 0c83 31       		.uleb128 0x31
 6582 0c84 61030000 		.4byte	0x361
 6583 0c88 30       		.uleb128 0x30
 6584 0c89 6A030000 		.4byte	0x36a
 6585 0c8d E50E0000 		.4byte	.LLST87
 6586 0c91 00       		.byte	0
 6587 0c92 00       		.byte	0
 6588 0c93 00       		.byte	0
 6589 0c94 00       		.byte	0
 6590 0c95 25       		.uleb128 0x25
 6591 0c96 14020000 		.4byte	.LVL232
 6592 0c9a 00220000 		.4byte	0x2200
 6593 0c9e 26       		.uleb128 0x26
 6594 0c9f 01       		.uleb128 0x1
 6595 0ca0 50       		.byte	0x50
 6596 0ca1 05       		.uleb128 0x5
 6597 0ca2 7D       		.byte	0x7d
 6598 0ca3 00       		.sleb128 0
 6599 0ca4 F6       		.byte	0xf6
 6600 0ca5 04       		.byte	0x4
 6601 0ca6 25       		.uleb128 0x25
 6602 0ca7 26       		.uleb128 0x26
 6603 0ca8 01       		.uleb128 0x1
 6604 0ca9 51       		.byte	0x51
 6605 0caa 06       		.uleb128 0x6
 6606 0cab 91       		.byte	0x91
 6607 0cac C47D     		.sleb128 -316
 6608 0cae F6       		.byte	0xf6
 6609 0caf 04       		.byte	0x4
 6610 0cb0 25       		.uleb128 0x25
 6611 0cb1 00       		.byte	0
 6612 0cb2 00       		.byte	0
 6613 0cb3 24       		.uleb128 0x24
 6614 0cb4 DA020000 		.4byte	.LBB77
 6615 0cb8 82000000 		.4byte	.LBE77-.LBB77
 6616 0cbc CF0C0000 		.4byte	0xccf
 6617 0cc0 21       		.uleb128 0x21
 6618 0cc1 6900     		.ascii	"i\000"
 6619 0cc3 01       		.byte	0x1
 6620 0cc4 5001     		.2byte	0x150
 6621 0cc6 85000000 		.4byte	0x85
 6622 0cca 060F0000 		.4byte	.LLST88
 6623 0cce 00       		.byte	0
 6624 0ccf 24       		.uleb128 0x24
 6625 0cd0 36040000 		.4byte	.LBB78
 6626 0cd4 32000000 		.4byte	.LBE78-.LBB78
 6627 0cd8 EB0C0000 		.4byte	0xceb
 6628 0cdc 21       		.uleb128 0x21
 6629 0cdd 6900     		.ascii	"i\000"
 6630 0cdf 01       		.byte	0x1
 6631 0ce0 6101     		.2byte	0x161
 6632 0ce2 85000000 		.4byte	0x85
 6633 0ce6 3D0F0000 		.4byte	.LLST89
 6634 0cea 00       		.byte	0
 6635 0ceb 24       		.uleb128 0x24
 6636 0cec C0040000 		.4byte	.LBB79
ARM GAS  C:\Users\rdn\AppData\Local\Temp\ccFEeGTH.s 			page 146


 6637 0cf0 4E000000 		.4byte	.LBE79-.LBB79
 6638 0cf4 070D0000 		.4byte	0xd07
 6639 0cf8 21       		.uleb128 0x21
 6640 0cf9 6900     		.ascii	"i\000"
 6641 0cfb 01       		.byte	0x1
 6642 0cfc 7001     		.2byte	0x170
 6643 0cfe 85000000 		.4byte	0x85
 6644 0d02 5C0F0000 		.4byte	.LLST90
 6645 0d06 00       		.byte	0
 6646 0d07 24       		.uleb128 0x24
 6647 0d08 40050000 		.4byte	.LBB80
 6648 0d0c 40000000 		.4byte	.LBE80-.LBB80
 6649 0d10 230D0000 		.4byte	0xd23
 6650 0d14 21       		.uleb128 0x21
 6651 0d15 6900     		.ascii	"i\000"
 6652 0d17 01       		.byte	0x1
 6653 0d18 7A01     		.2byte	0x17a
 6654 0d1a 85000000 		.4byte	0x85
 6655 0d1e 7B0F0000 		.4byte	.LLST91
 6656 0d22 00       		.byte	0
 6657 0d23 33       		.uleb128 0x33
 6658 0d24 B6000000 		.4byte	.LVL182
 6659 0d28 0C220000 		.4byte	0x220c
 6660 0d2c 33       		.uleb128 0x33
 6661 0d2d FE010000 		.4byte	.LVL228
 6662 0d31 00220000 		.4byte	0x2200
 6663 0d35 00       		.byte	0
 6664 0d36 12       		.uleb128 0x12
 6665 0d37 1C030000 		.4byte	0x31c
 6666 0d3b 460D0000 		.4byte	0xd46
 6667 0d3f 13       		.uleb128 0x13
 6668 0d40 2B010000 		.4byte	0x12b
 6669 0d44 3F       		.byte	0x3f
 6670 0d45 00       		.byte	0
 6671 0d46 0B       		.uleb128 0xb
 6672 0d47 360D0000 		.4byte	0xd36
 6673 0d4b 0B       		.uleb128 0xb
 6674 0d4c 360D0000 		.4byte	0xd36
 6675 0d50 0B       		.uleb128 0xb
 6676 0d51 360D0000 		.4byte	0xd36
 6677 0d55 0B       		.uleb128 0xb
 6678 0d56 360D0000 		.4byte	0xd36
 6679 0d5a 0B       		.uleb128 0xb
 6680 0d5b 360D0000 		.4byte	0xd36
 6681 0d5f 0B       		.uleb128 0xb
 6682 0d60 360D0000 		.4byte	0xd36
 6683 0d64 12       		.uleb128 0x12
 6684 0d65 16030000 		.4byte	0x316
 6685 0d69 740D0000 		.4byte	0xd74
 6686 0d6d 13       		.uleb128 0x13
 6687 0d6e 2B010000 		.4byte	0x12b
 6688 0d72 06       		.byte	0x6
 6689 0d73 00       		.byte	0
 6690 0d74 0B       		.uleb128 0xb
 6691 0d75 640D0000 		.4byte	0xd64
 6692 0d79 12       		.uleb128 0x12
 6693 0d7a 25000000 		.4byte	0x25
ARM GAS  C:\Users\rdn\AppData\Local\Temp\ccFEeGTH.s 			page 147


 6694 0d7e 890D0000 		.4byte	0xd89
 6695 0d82 13       		.uleb128 0x13
 6696 0d83 2B010000 		.4byte	0x12b
 6697 0d87 3F       		.byte	0x3f
 6698 0d88 00       		.byte	0
 6699 0d89 1C       		.uleb128 0x1c
 6700 0d8a 57050000 		.4byte	.LASF105
 6701 0d8e 01       		.byte	0x1
 6702 0d8f A101     		.2byte	0x1a1
 6703 0d91 00000000 		.4byte	.LFB24
 6704 0d95 52000000 		.4byte	.LFE24-.LFB24
 6705 0d99 01       		.uleb128 0x1
 6706 0d9a 9C       		.byte	0x9c
 6707 0d9b 1A0E0000 		.4byte	0xe1a
 6708 0d9f 1D       		.uleb128 0x1d
 6709 0da0 6300     		.ascii	"c\000"
 6710 0da2 01       		.byte	0x1
 6711 0da3 A101     		.2byte	0x1a1
 6712 0da5 6D080000 		.4byte	0x86d
 6713 0da9 9A0F0000 		.4byte	.LLST92
 6714 0dad 1D       		.uleb128 0x1d
 6715 0dae 636E00   		.ascii	"cn\000"
 6716 0db1 01       		.byte	0x1
 6717 0db2 A101     		.2byte	0x1a1
 6718 0db4 C4040000 		.4byte	0x4c4
 6719 0db8 C60F0000 		.4byte	.LLST93
 6720 0dbc 1F       		.uleb128 0x1f
 6721 0dbd 07020000 		.4byte	.LASF106
 6722 0dc1 01       		.byte	0x1
 6723 0dc2 A301     		.2byte	0x1a3
 6724 0dc4 85000000 		.4byte	0x85
 6725 0dc8 F20F0000 		.4byte	.LLST94
 6726 0dcc 1F       		.uleb128 0x1f
 6727 0dcd 58030000 		.4byte	.LASF107
 6728 0dd1 01       		.byte	0x1
 6729 0dd2 A701     		.2byte	0x1a7
 6730 0dd4 25000000 		.4byte	0x25
 6731 0dd8 11100000 		.4byte	.LLST95
 6732 0ddc 2D       		.uleb128 0x2d
 6733 0ddd 80000000 		.4byte	.Ldebug_ranges0+0x80
 6734 0de1 F40D0000 		.4byte	0xdf4
 6735 0de5 21       		.uleb128 0x21
 6736 0de6 6900     		.ascii	"i\000"
 6737 0de8 01       		.byte	0x1
 6738 0de9 A401     		.2byte	0x1a4
 6739 0deb 85000000 		.4byte	0x85
 6740 0def 30100000 		.4byte	.LLST96
 6741 0df3 00       		.byte	0
 6742 0df4 24       		.uleb128 0x24
 6743 0df5 32000000 		.4byte	.LBB83
 6744 0df9 1C000000 		.4byte	.LBE83-.LBB83
 6745 0dfd 100E0000 		.4byte	0xe10
 6746 0e01 21       		.uleb128 0x21
 6747 0e02 6900     		.ascii	"i\000"
 6748 0e04 01       		.byte	0x1
 6749 0e05 A901     		.2byte	0x1a9
 6750 0e07 85000000 		.4byte	0x85
ARM GAS  C:\Users\rdn\AppData\Local\Temp\ccFEeGTH.s 			page 148


 6751 0e0b 4F100000 		.4byte	.LLST97
 6752 0e0f 00       		.byte	0
 6753 0e10 33       		.uleb128 0x33
 6754 0e11 26000000 		.4byte	.LVL362
 6755 0e15 15220000 		.4byte	0x2215
 6756 0e19 00       		.byte	0
 6757 0e1a 1C       		.uleb128 0x1c
 6758 0e1b 8E050000 		.4byte	.LASF108
 6759 0e1f 01       		.byte	0x1
 6760 0e20 D001     		.2byte	0x1d0
 6761 0e22 00000000 		.4byte	.LFB26
 6762 0e26 00030000 		.4byte	.LFE26-.LFB26
 6763 0e2a 01       		.uleb128 0x1
 6764 0e2b 9C       		.byte	0x9c
 6765 0e2c 29120000 		.4byte	0x1229
 6766 0e30 1D       		.uleb128 0x1d
 6767 0e31 73636600 		.ascii	"scf\000"
 6768 0e35 01       		.byte	0x1
 6769 0e36 D001     		.2byte	0x1d0
 6770 0e38 16030000 		.4byte	0x316
 6771 0e3c 6E100000 		.4byte	.LLST98
 6772 0e40 1E       		.uleb128 0x1e
 6773 0e41 7E030000 		.4byte	.LASF76
 6774 0e45 01       		.byte	0x1
 6775 0e46 D001     		.2byte	0x1d0
 6776 0e48 85000000 		.4byte	0x85
 6777 0e4c 9A100000 		.4byte	.LLST99
 6778 0e50 1E       		.uleb128 0x1e
 6779 0e51 18000000 		.4byte	.LASF77
 6780 0e55 01       		.byte	0x1
 6781 0e56 D001     		.2byte	0x1d0
 6782 0e58 85000000 		.4byte	0x85
 6783 0e5c BB100000 		.4byte	.LLST100
 6784 0e60 1D       		.uleb128 0x1d
 6785 0e61 6300     		.ascii	"c\000"
 6786 0e63 01       		.byte	0x1
 6787 0e64 D101     		.2byte	0x1d1
 6788 0e66 39120000 		.4byte	0x1239
 6789 0e6a DC100000 		.4byte	.LLST101
 6790 0e6e 22       		.uleb128 0x22
 6791 0e6f 636E00   		.ascii	"cn\000"
 6792 0e72 01       		.byte	0x1
 6793 0e73 D101     		.2byte	0x1d1
 6794 0e75 4F120000 		.4byte	0x124f
 6795 0e79 02       		.uleb128 0x2
 6796 0e7a 91       		.byte	0x91
 6797 0e7b 00       		.sleb128 0
 6798 0e7c 23       		.uleb128 0x23
 6799 0e7d AF040000 		.4byte	.LASF109
 6800 0e81 01       		.byte	0x1
 6801 0e82 D101     		.2byte	0x1d1
 6802 0e84 74030000 		.4byte	0x374
 6803 0e88 02       		.uleb128 0x2
 6804 0e89 91       		.byte	0x91
 6805 0e8a 04       		.sleb128 4
 6806 0e8b 23       		.uleb128 0x23
 6807 0e8c 61050000 		.4byte	.LASF110
ARM GAS  C:\Users\rdn\AppData\Local\Temp\ccFEeGTH.s 			page 149


 6808 0e90 01       		.byte	0x1
 6809 0e91 D101     		.2byte	0x1d1
 6810 0e93 74030000 		.4byte	0x374
 6811 0e97 02       		.uleb128 0x2
 6812 0e98 91       		.byte	0x91
 6813 0e99 08       		.sleb128 8
 6814 0e9a 1F       		.uleb128 0x1f
 6815 0e9b 96060000 		.4byte	.LASF57
 6816 0e9f 01       		.byte	0x1
 6817 0ea0 D501     		.2byte	0x1d5
 6818 0ea2 16030000 		.4byte	0x316
 6819 0ea6 34110000 		.4byte	.LLST102
 6820 0eaa 1F       		.uleb128 0x1f
 6821 0eab 9E040000 		.4byte	.LASF58
 6822 0eaf 01       		.byte	0x1
 6823 0eb0 D601     		.2byte	0x1d6
 6824 0eb2 16030000 		.4byte	0x316
 6825 0eb6 47110000 		.4byte	.LLST103
 6826 0eba 2C       		.uleb128 0x2c
 6827 0ebb 7200     		.ascii	"r\000"
 6828 0ebd 01       		.byte	0x1
 6829 0ebe D701     		.2byte	0x1d7
 6830 0ec0 3F120000 		.4byte	0x123f
 6831 0ec4 03       		.uleb128 0x3
 6832 0ec5 91       		.byte	0x91
 6833 0ec6 987F     		.sleb128 -104
 6834 0ec8 2C       		.uleb128 0x2c
 6835 0ec9 7800     		.ascii	"x\000"
 6836 0ecb 01       		.byte	0x1
 6837 0ecc D701     		.2byte	0x1d7
 6838 0ece 3F120000 		.4byte	0x123f
 6839 0ed2 03       		.uleb128 0x3
 6840 0ed3 91       		.byte	0x91
 6841 0ed4 D87E     		.sleb128 -168
 6842 0ed6 2C       		.uleb128 0x2c
 6843 0ed7 786D00   		.ascii	"xm\000"
 6844 0eda 01       		.byte	0x1
 6845 0edb E401     		.2byte	0x1e4
 6846 0edd 3F120000 		.4byte	0x123f
 6847 0ee1 03       		.uleb128 0x3
 6848 0ee2 91       		.byte	0x91
 6849 0ee3 987E     		.sleb128 -232
 6850 0ee5 1F       		.uleb128 0x1f
 6851 0ee6 CC020000 		.4byte	.LASF111
 6852 0eea 01       		.byte	0x1
 6853 0eeb E501     		.2byte	0x1e5
 6854 0eed 25000000 		.4byte	0x25
 6855 0ef1 67110000 		.4byte	.LLST104
 6856 0ef5 1F       		.uleb128 0x1f
 6857 0ef6 20010000 		.4byte	.LASF112
 6858 0efa 01       		.byte	0x1
 6859 0efb EC01     		.2byte	0x1ec
 6860 0efd 25000000 		.4byte	0x25
 6861 0f01 95110000 		.4byte	.LLST105
 6862 0f05 2B       		.uleb128 0x2b
 6863 0f06 B2020000 		.4byte	.LASF83
 6864 0f0a 01       		.byte	0x1
ARM GAS  C:\Users\rdn\AppData\Local\Temp\ccFEeGTH.s 			page 150


 6865 0f0b ED01     		.2byte	0x1ed
 6866 0f0d 25000000 		.4byte	0x25
 6867 0f11 03       		.uleb128 0x3
 6868 0f12 91       		.byte	0x91
 6869 0f13 947E     		.sleb128 -236
 6870 0f15 2B       		.uleb128 0x2b
 6871 0f16 B9040000 		.4byte	.LASF84
 6872 0f1a 01       		.byte	0x1
 6873 0f1b ED01     		.2byte	0x1ed
 6874 0f1d 25000000 		.4byte	0x25
 6875 0f21 03       		.uleb128 0x3
 6876 0f22 91       		.byte	0x91
 6877 0f23 907E     		.sleb128 -240
 6878 0f25 1F       		.uleb128 0x1f
 6879 0f26 21040000 		.4byte	.LASF91
 6880 0f2a 01       		.byte	0x1
 6881 0f2b EE01     		.2byte	0x1ee
 6882 0f2d 85000000 		.4byte	0x85
 6883 0f31 B5110000 		.4byte	.LLST106
 6884 0f35 1F       		.uleb128 0x1f
 6885 0f36 4F050000 		.4byte	.LASF113
 6886 0f3a 01       		.byte	0x1
 6887 0f3b 2602     		.2byte	0x226
 6888 0f3d 25000000 		.4byte	0x25
 6889 0f41 0E120000 		.4byte	.LLST107
 6890 0f45 24       		.uleb128 0x24
 6891 0f46 26000000 		.4byte	.LBB84
 6892 0f4a 34000000 		.4byte	.LBE84-.LBB84
 6893 0f4e 610F0000 		.4byte	0xf61
 6894 0f52 21       		.uleb128 0x21
 6895 0f53 6900     		.ascii	"i\000"
 6896 0f55 01       		.byte	0x1
 6897 0f56 D901     		.2byte	0x1d9
 6898 0f58 85000000 		.4byte	0x85
 6899 0f5c 4D120000 		.4byte	.LLST108
 6900 0f60 00       		.byte	0
 6901 0f61 2D       		.uleb128 0x2d
 6902 0f62 98000000 		.4byte	.Ldebug_ranges0+0x98
 6903 0f66 790F0000 		.4byte	0xf79
 6904 0f6a 21       		.uleb128 0x21
 6905 0f6b 6900     		.ascii	"i\000"
 6906 0f6d 01       		.byte	0x1
 6907 0f6e E701     		.2byte	0x1e7
 6908 0f70 85000000 		.4byte	0x85
 6909 0f74 6C120000 		.4byte	.LLST109
 6910 0f78 00       		.byte	0
 6911 0f79 2D       		.uleb128 0x2d
 6912 0f7a B0000000 		.4byte	.Ldebug_ranges0+0xb0
 6913 0f7e 9A0F0000 		.4byte	0xf9a
 6914 0f82 21       		.uleb128 0x21
 6915 0f83 6900     		.ascii	"i\000"
 6916 0f85 01       		.byte	0x1
 6917 0f86 F001     		.2byte	0x1f0
 6918 0f88 85000000 		.4byte	0x85
 6919 0f8c 8B120000 		.4byte	.LLST110
 6920 0f90 33       		.uleb128 0x33
 6921 0f91 B2000000 		.4byte	.LVL395
ARM GAS  C:\Users\rdn\AppData\Local\Temp\ccFEeGTH.s 			page 151


 6922 0f95 21220000 		.4byte	0x2221
 6923 0f99 00       		.byte	0
 6924 0f9a 2D       		.uleb128 0x2d
 6925 0f9b C8000000 		.4byte	.Ldebug_ranges0+0xc8
 6926 0f9f B20F0000 		.4byte	0xfb2
 6927 0fa3 21       		.uleb128 0x21
 6928 0fa4 6900     		.ascii	"i\000"
 6929 0fa6 01       		.byte	0x1
 6930 0fa7 0902     		.2byte	0x209
 6931 0fa9 85000000 		.4byte	0x85
 6932 0fad AA120000 		.4byte	.LLST111
 6933 0fb1 00       		.byte	0
 6934 0fb2 24       		.uleb128 0x24
 6935 0fb3 C8010000 		.4byte	.LBB91
 6936 0fb7 40000000 		.4byte	.LBE91-.LBB91
 6937 0fbb E20F0000 		.4byte	0xfe2
 6938 0fbf 21       		.uleb128 0x21
 6939 0fc0 6A00     		.ascii	"j\000"
 6940 0fc2 01       		.byte	0x1
 6941 0fc3 1C02     		.2byte	0x21c
 6942 0fc5 85000000 		.4byte	0x85
 6943 0fc9 C9120000 		.4byte	.LLST112
 6944 0fcd 20       		.uleb128 0x20
 6945 0fce E0000000 		.4byte	.Ldebug_ranges0+0xe0
 6946 0fd2 21       		.uleb128 0x21
 6947 0fd3 6900     		.ascii	"i\000"
 6948 0fd5 01       		.byte	0x1
 6949 0fd6 1D02     		.2byte	0x21d
 6950 0fd8 85000000 		.4byte	0x85
 6951 0fdc E8120000 		.4byte	.LLST113
 6952 0fe0 00       		.byte	0
 6953 0fe1 00       		.byte	0
 6954 0fe2 24       		.uleb128 0x24
 6955 0fe3 08020000 		.4byte	.LBB94
 6956 0fe7 10000000 		.4byte	.LBE94-.LBB94
 6957 0feb 1E100000 		.4byte	0x101e
 6958 0fef 21       		.uleb128 0x21
 6959 0ff0 6900     		.ascii	"i\000"
 6960 0ff2 01       		.byte	0x1
 6961 0ff3 2002     		.2byte	0x220
 6962 0ff5 85000000 		.4byte	0x85
 6963 0ff9 06130000 		.4byte	.LLST114
 6964 0ffd 25       		.uleb128 0x25
 6965 0ffe 12020000 		.4byte	.LVL429
 6966 1002 890D0000 		.4byte	0xd89
 6967 1006 26       		.uleb128 0x26
 6968 1007 01       		.uleb128 0x1
 6969 1008 50       		.byte	0x50
 6970 1009 07       		.uleb128 0x7
 6971 100a 75       		.byte	0x75
 6972 100b 00       		.sleb128 0
 6973 100c 36       		.byte	0x36
 6974 100d 24       		.byte	0x24
 6975 100e 74       		.byte	0x74
 6976 100f 00       		.sleb128 0
 6977 1010 22       		.byte	0x22
 6978 1011 26       		.uleb128 0x26
ARM GAS  C:\Users\rdn\AppData\Local\Temp\ccFEeGTH.s 			page 152


 6979 1012 01       		.uleb128 0x1
 6980 1013 51       		.byte	0x51
 6981 1014 07       		.uleb128 0x7
 6982 1015 75       		.byte	0x75
 6983 1016 00       		.sleb128 0
 6984 1017 36       		.byte	0x36
 6985 1018 24       		.byte	0x24
 6986 1019 76       		.byte	0x76
 6987 101a 00       		.sleb128 0
 6988 101b 22       		.byte	0x22
 6989 101c 00       		.byte	0
 6990 101d 00       		.byte	0
 6991 101e 2D       		.uleb128 0x2d
 6992 101f F8000000 		.4byte	.Ldebug_ranges0+0xf8
 6993 1023 C2100000 		.4byte	0x10c2
 6994 1027 21       		.uleb128 0x21
 6995 1028 696300   		.ascii	"ic\000"
 6996 102b 01       		.byte	0x1
 6997 102c 2902     		.2byte	0x229
 6998 102e 85000000 		.4byte	0x85
 6999 1032 19130000 		.4byte	.LLST115
 7000 1036 1A       		.uleb128 0x1a
 7001 1037 2E020000 		.4byte	.LBB96
 7002 103b A4000000 		.4byte	.LBE96-.LBB96
 7003 103f 1F       		.uleb128 0x1f
 7004 1040 07040000 		.4byte	.LASF114
 7005 1044 01       		.byte	0x1
 7006 1045 2A02     		.2byte	0x22a
 7007 1047 55120000 		.4byte	0x1255
 7008 104b 64130000 		.4byte	.LLST116
 7009 104f 1F       		.uleb128 0x1f
 7010 1050 04050000 		.4byte	.LASF115
 7011 1054 01       		.byte	0x1
 7012 1055 2B02     		.2byte	0x22b
 7013 1057 25000000 		.4byte	0x25
 7014 105b 77130000 		.4byte	.LLST117
 7015 105f 1F       		.uleb128 0x1f
 7016 1060 4B020000 		.4byte	.LASF116
 7017 1064 01       		.byte	0x1
 7018 1065 2C02     		.2byte	0x22c
 7019 1067 85000000 		.4byte	0x85
 7020 106b A7130000 		.4byte	.LLST118
 7021 106f 20       		.uleb128 0x20
 7022 1070 10010000 		.4byte	.Ldebug_ranges0+0x110
 7023 1074 21       		.uleb128 0x21
 7024 1075 696700   		.ascii	"ig\000"
 7025 1078 01       		.byte	0x1
 7026 1079 2E02     		.2byte	0x22e
 7027 107b 85000000 		.4byte	0x85
 7028 107f D5130000 		.4byte	.LLST119
 7029 1083 1A       		.uleb128 0x1a
 7030 1084 4A020000 		.4byte	.LBB98
 7031 1088 5C000000 		.4byte	.LBE98-.LBB98
 7032 108c 21       		.uleb128 0x21
 7033 108d 6700     		.ascii	"g\000"
 7034 108f 01       		.byte	0x1
 7035 1090 2F02     		.2byte	0x22f
ARM GAS  C:\Users\rdn\AppData\Local\Temp\ccFEeGTH.s 			page 153


 7036 1092 25000000 		.4byte	0x25
 7037 1096 F4130000 		.4byte	.LLST120
 7038 109a 21       		.uleb128 0x21
 7039 109b 6D736500 		.ascii	"mse\000"
 7040 109f 01       		.byte	0x1
 7041 10a0 3102     		.2byte	0x231
 7042 10a2 25000000 		.4byte	0x25
 7043 10a6 14140000 		.4byte	.LLST121
 7044 10aa 20       		.uleb128 0x20
 7045 10ab 28010000 		.4byte	.Ldebug_ranges0+0x128
 7046 10af 21       		.uleb128 0x21
 7047 10b0 6900     		.ascii	"i\000"
 7048 10b2 01       		.byte	0x1
 7049 10b3 3202     		.2byte	0x232
 7050 10b5 85000000 		.4byte	0x85
 7051 10b9 5C140000 		.4byte	.LLST122
 7052 10bd 00       		.byte	0
 7053 10be 00       		.byte	0
 7054 10bf 00       		.byte	0
 7055 10c0 00       		.byte	0
 7056 10c1 00       		.byte	0
 7057 10c2 28       		.uleb128 0x28
 7058 10c3 62000000 		.4byte	.LVL383
 7059 10c7 70040000 		.4byte	0x470
 7060 10cb DE100000 		.4byte	0x10de
 7061 10cf 26       		.uleb128 0x26
 7062 10d0 01       		.uleb128 0x1
 7063 10d1 50       		.byte	0x50
 7064 10d2 03       		.uleb128 0x3
 7065 10d3 91       		.byte	0x91
 7066 10d4 987F     		.sleb128 -104
 7067 10d6 26       		.uleb128 0x26
 7068 10d7 01       		.uleb128 0x1
 7069 10d8 51       		.byte	0x51
 7070 10d9 03       		.uleb128 0x3
 7071 10da 91       		.byte	0x91
 7072 10db D87E     		.sleb128 -168
 7073 10dd 00       		.byte	0
 7074 10de 33       		.uleb128 0x33
 7075 10df 86000000 		.4byte	.LVL388
 7076 10e3 00220000 		.4byte	0x2200
 7077 10e7 28       		.uleb128 0x28
 7078 10e8 0C010000 		.4byte	.LVL405
 7079 10ec F9050000 		.4byte	0x5f9
 7080 10f0 22110000 		.4byte	0x1122
 7081 10f4 26       		.uleb128 0x26
 7082 10f5 01       		.uleb128 0x1
 7083 10f6 50       		.byte	0x50
 7084 10f7 03       		.uleb128 0x3
 7085 10f8 91       		.byte	0x91
 7086 10f9 987E     		.sleb128 -232
 7087 10fb 26       		.uleb128 0x26
 7088 10fc 01       		.uleb128 0x1
 7089 10fd 51       		.byte	0x51
 7090 10fe 02       		.uleb128 0x2
 7091 10ff 77       		.byte	0x77
 7092 1100 00       		.sleb128 0
ARM GAS  C:\Users\rdn\AppData\Local\Temp\ccFEeGTH.s 			page 154


 7093 1101 26       		.uleb128 0x26
 7094 1102 01       		.uleb128 0x1
 7095 1103 52       		.byte	0x52
 7096 1104 01       		.uleb128 0x1
 7097 1105 40       		.byte	0x40
 7098 1106 26       		.uleb128 0x26
 7099 1107 01       		.uleb128 0x1
 7100 1108 53       		.byte	0x53
 7101 1109 02       		.uleb128 0x2
 7102 110a 76       		.byte	0x76
 7103 110b 00       		.sleb128 0
 7104 110c 26       		.uleb128 0x26
 7105 110d 02       		.uleb128 0x2
 7106 110e 7D       		.byte	0x7d
 7107 110f 00       		.sleb128 0
 7108 1110 01       		.uleb128 0x1
 7109 1111 36       		.byte	0x36
 7110 1112 26       		.uleb128 0x26
 7111 1113 02       		.uleb128 0x2
 7112 1114 7D       		.byte	0x7d
 7113 1115 04       		.sleb128 4
 7114 1116 02       		.uleb128 0x2
 7115 1117 75       		.byte	0x75
 7116 1118 00       		.sleb128 0
 7117 1119 26       		.uleb128 0x26
 7118 111a 02       		.uleb128 0x2
 7119 111b 7D       		.byte	0x7d
 7120 111c 08       		.sleb128 8
 7121 111d 03       		.uleb128 0x3
 7122 111e 91       		.byte	0x91
 7123 111f 907E     		.sleb128 -240
 7124 1121 00       		.byte	0
 7125 1122 28       		.uleb128 0x28
 7126 1123 1C010000 		.4byte	.LVL406
 7127 1127 0C220000 		.4byte	0x220c
 7128 112b 43110000 		.4byte	0x1143
 7129 112f 26       		.uleb128 0x26
 7130 1130 01       		.uleb128 0x1
 7131 1131 50       		.byte	0x50
 7132 1132 02       		.uleb128 0x2
 7133 1133 77       		.byte	0x77
 7134 1134 00       		.sleb128 0
 7135 1135 26       		.uleb128 0x26
 7136 1136 01       		.uleb128 0x1
 7137 1137 51       		.byte	0x51
 7138 1138 03       		.uleb128 0x3
 7139 1139 74       		.byte	0x74
 7140 113a C001     		.sleb128 192
 7141 113c 26       		.uleb128 0x26
 7142 113d 01       		.uleb128 0x1
 7143 113e 52       		.byte	0x52
 7144 113f 02       		.uleb128 0x2
 7145 1140 08       		.byte	0x8
 7146 1141 40       		.byte	0x40
 7147 1142 00       		.byte	0
 7148 1143 28       		.uleb128 0x28
 7149 1144 32010000 		.4byte	.LVL407
ARM GAS  C:\Users\rdn\AppData\Local\Temp\ccFEeGTH.s 			page 155


 7150 1148 F9050000 		.4byte	0x5f9
 7151 114c 7D110000 		.4byte	0x117d
 7152 1150 26       		.uleb128 0x26
 7153 1151 01       		.uleb128 0x1
 7154 1152 50       		.byte	0x50
 7155 1153 03       		.uleb128 0x3
 7156 1154 91       		.byte	0x91
 7157 1155 987E     		.sleb128 -232
 7158 1157 26       		.uleb128 0x26
 7159 1158 01       		.uleb128 0x1
 7160 1159 51       		.byte	0x51
 7161 115a 02       		.uleb128 0x2
 7162 115b 77       		.byte	0x77
 7163 115c 00       		.sleb128 0
 7164 115d 26       		.uleb128 0x26
 7165 115e 01       		.uleb128 0x1
 7166 115f 52       		.byte	0x52
 7167 1160 01       		.uleb128 0x1
 7168 1161 40       		.byte	0x40
 7169 1162 26       		.uleb128 0x26
 7170 1163 01       		.uleb128 0x1
 7171 1164 53       		.byte	0x53
 7172 1165 01       		.uleb128 0x1
 7173 1166 36       		.byte	0x36
 7174 1167 26       		.uleb128 0x26
 7175 1168 02       		.uleb128 0x2
 7176 1169 7D       		.byte	0x7d
 7177 116a 00       		.sleb128 0
 7178 116b 01       		.uleb128 0x1
 7179 116c 38       		.byte	0x38
 7180 116d 26       		.uleb128 0x26
 7181 116e 02       		.uleb128 0x2
 7182 116f 7D       		.byte	0x7d
 7183 1170 04       		.sleb128 4
 7184 1171 02       		.uleb128 0x2
 7185 1172 75       		.byte	0x75
 7186 1173 00       		.sleb128 0
 7187 1174 26       		.uleb128 0x26
 7188 1175 02       		.uleb128 0x2
 7189 1176 7D       		.byte	0x7d
 7190 1177 08       		.sleb128 8
 7191 1178 03       		.uleb128 0x3
 7192 1179 91       		.byte	0x91
 7193 117a 907E     		.sleb128 -240
 7194 117c 00       		.byte	0
 7195 117d 28       		.uleb128 0x28
 7196 117e 46010000 		.4byte	.LVL408
 7197 1182 0C220000 		.4byte	0x220c
 7198 1186 9F110000 		.4byte	0x119f
 7199 118a 26       		.uleb128 0x26
 7200 118b 01       		.uleb128 0x1
 7201 118c 50       		.byte	0x50
 7202 118d 04       		.uleb128 0x4
 7203 118e 91       		.byte	0x91
 7204 118f FC7D     		.sleb128 -260
 7205 1191 06       		.byte	0x6
 7206 1192 26       		.uleb128 0x26
ARM GAS  C:\Users\rdn\AppData\Local\Temp\ccFEeGTH.s 			page 156


 7207 1193 01       		.uleb128 0x1
 7208 1194 51       		.byte	0x51
 7209 1195 02       		.uleb128 0x2
 7210 1196 77       		.byte	0x77
 7211 1197 00       		.sleb128 0
 7212 1198 26       		.uleb128 0x26
 7213 1199 01       		.uleb128 0x1
 7214 119a 52       		.byte	0x52
 7215 119b 02       		.uleb128 0x2
 7216 119c 08       		.byte	0x8
 7217 119d 40       		.byte	0x40
 7218 119e 00       		.byte	0
 7219 119f 28       		.uleb128 0x28
 7220 11a0 A8010000 		.4byte	.LVL419
 7221 11a4 F9050000 		.4byte	0x5f9
 7222 11a8 D3110000 		.4byte	0x11d3
 7223 11ac 26       		.uleb128 0x26
 7224 11ad 01       		.uleb128 0x1
 7225 11ae 50       		.byte	0x50
 7226 11af 03       		.uleb128 0x3
 7227 11b0 91       		.byte	0x91
 7228 11b1 987E     		.sleb128 -232
 7229 11b3 26       		.uleb128 0x26
 7230 11b4 01       		.uleb128 0x1
 7231 11b5 51       		.byte	0x51
 7232 11b6 02       		.uleb128 0x2
 7233 11b7 77       		.byte	0x77
 7234 11b8 00       		.sleb128 0
 7235 11b9 26       		.uleb128 0x26
 7236 11ba 01       		.uleb128 0x1
 7237 11bb 52       		.byte	0x52
 7238 11bc 01       		.uleb128 0x1
 7239 11bd 3A       		.byte	0x3a
 7240 11be 26       		.uleb128 0x26
 7241 11bf 02       		.uleb128 0x2
 7242 11c0 7D       		.byte	0x7d
 7243 11c1 00       		.sleb128 0
 7244 11c2 01       		.uleb128 0x1
 7245 11c3 3A       		.byte	0x3a
 7246 11c4 26       		.uleb128 0x26
 7247 11c5 02       		.uleb128 0x2
 7248 11c6 7D       		.byte	0x7d
 7249 11c7 04       		.sleb128 4
 7250 11c8 02       		.uleb128 0x2
 7251 11c9 75       		.byte	0x75
 7252 11ca 00       		.sleb128 0
 7253 11cb 26       		.uleb128 0x26
 7254 11cc 02       		.uleb128 0x2
 7255 11cd 7D       		.byte	0x7d
 7256 11ce 08       		.sleb128 8
 7257 11cf 02       		.uleb128 0x2
 7258 11d0 76       		.byte	0x76
 7259 11d1 00       		.sleb128 0
 7260 11d2 00       		.byte	0
 7261 11d3 28       		.uleb128 0x28
 7262 11d4 B2010000 		.4byte	.LVL420
 7263 11d8 0C220000 		.4byte	0x220c
ARM GAS  C:\Users\rdn\AppData\Local\Temp\ccFEeGTH.s 			page 157


 7264 11dc F3110000 		.4byte	0x11f3
 7265 11e0 26       		.uleb128 0x26
 7266 11e1 01       		.uleb128 0x1
 7267 11e2 50       		.byte	0x50
 7268 11e3 02       		.uleb128 0x2
 7269 11e4 74       		.byte	0x74
 7270 11e5 00       		.sleb128 0
 7271 11e6 26       		.uleb128 0x26
 7272 11e7 01       		.uleb128 0x1
 7273 11e8 51       		.byte	0x51
 7274 11e9 02       		.uleb128 0x2
 7275 11ea 77       		.byte	0x77
 7276 11eb 00       		.sleb128 0
 7277 11ec 26       		.uleb128 0x26
 7278 11ed 01       		.uleb128 0x1
 7279 11ee 52       		.byte	0x52
 7280 11ef 02       		.uleb128 0x2
 7281 11f0 08       		.byte	0x8
 7282 11f1 40       		.byte	0x40
 7283 11f2 00       		.byte	0
 7284 11f3 25       		.uleb128 0x25
 7285 11f4 C8010000 		.4byte	.LVL421
 7286 11f8 F9050000 		.4byte	0x5f9
 7287 11fc 26       		.uleb128 0x26
 7288 11fd 01       		.uleb128 0x1
 7289 11fe 50       		.byte	0x50
 7290 11ff 03       		.uleb128 0x3
 7291 1200 91       		.byte	0x91
 7292 1201 C07E     		.sleb128 -192
 7293 1203 26       		.uleb128 0x26
 7294 1204 01       		.uleb128 0x1
 7295 1205 51       		.byte	0x51
 7296 1206 02       		.uleb128 0x2
 7297 1207 74       		.byte	0x74
 7298 1208 28       		.sleb128 40
 7299 1209 26       		.uleb128 0x26
 7300 120a 01       		.uleb128 0x1
 7301 120b 52       		.byte	0x52
 7302 120c 01       		.uleb128 0x1
 7303 120d 36       		.byte	0x36
 7304 120e 26       		.uleb128 0x26
 7305 120f 01       		.uleb128 0x1
 7306 1210 53       		.byte	0x53
 7307 1211 01       		.uleb128 0x1
 7308 1212 30       		.byte	0x30
 7309 1213 26       		.uleb128 0x26
 7310 1214 02       		.uleb128 0x2
 7311 1215 7D       		.byte	0x7d
 7312 1216 00       		.sleb128 0
 7313 1217 01       		.uleb128 0x1
 7314 1218 31       		.byte	0x31
 7315 1219 26       		.uleb128 0x26
 7316 121a 02       		.uleb128 0x2
 7317 121b 7D       		.byte	0x7d
 7318 121c 04       		.sleb128 4
 7319 121d 02       		.uleb128 0x2
 7320 121e 75       		.byte	0x75
ARM GAS  C:\Users\rdn\AppData\Local\Temp\ccFEeGTH.s 			page 158


 7321 121f 00       		.sleb128 0
 7322 1220 26       		.uleb128 0x26
 7323 1221 02       		.uleb128 0x2
 7324 1222 7D       		.byte	0x7d
 7325 1223 08       		.sleb128 8
 7326 1224 02       		.uleb128 0x2
 7327 1225 76       		.byte	0x76
 7328 1226 00       		.sleb128 0
 7329 1227 00       		.byte	0
 7330 1228 00       		.byte	0
 7331 1229 12       		.uleb128 0x12
 7332 122a 85000000 		.4byte	0x85
 7333 122e 39120000 		.4byte	0x1239
 7334 1232 13       		.uleb128 0x13
 7335 1233 2B010000 		.4byte	0x12b
 7336 1237 0F       		.byte	0xf
 7337 1238 00       		.byte	0
 7338 1239 0A       		.uleb128 0xa
 7339 123a 04       		.byte	0x4
 7340 123b 29120000 		.4byte	0x1229
 7341 123f 12       		.uleb128 0x12
 7342 1240 25000000 		.4byte	0x25
 7343 1244 4F120000 		.4byte	0x124f
 7344 1248 13       		.uleb128 0x13
 7345 1249 2B010000 		.4byte	0x12b
 7346 124d 0F       		.byte	0xf
 7347 124e 00       		.byte	0
 7348 124f 0A       		.uleb128 0xa
 7349 1250 04       		.byte	0x4
 7350 1251 3F120000 		.4byte	0x123f
 7351 1255 0A       		.uleb128 0xa
 7352 1256 04       		.byte	0x4
 7353 1257 5B120000 		.4byte	0x125b
 7354 125b 0B       		.uleb128 0xb
 7355 125c F3020000 		.4byte	0x2f3
 7356 1260 0C       		.uleb128 0xc
 7357 1261 C6050000 		.4byte	.LASF117
 7358 1265 02       		.byte	0x2
 7359 1266 4C       		.byte	0x4c
 7360 1267 25000000 		.4byte	0x25
 7361 126b 03       		.byte	0x3
 7362 126c 14130000 		.4byte	0x1314
 7363 1270 0D       		.uleb128 0xd
 7364 1271 7800     		.ascii	"x\000"
 7365 1273 02       		.byte	0x2
 7366 1274 4C       		.byte	0x4c
 7367 1275 25000000 		.4byte	0x25
 7368 1279 11       		.uleb128 0x11
 7369 127a 6500     		.ascii	"e\000"
 7370 127c 02       		.byte	0x2
 7371 127d 50       		.byte	0x50
 7372 127e 24130000 		.4byte	0x1324
 7373 1282 20       		.byte	0x20
 7374 1283 00       		.byte	0
 7375 1284 00       		.byte	0
 7376 1285 80       		.byte	0x80
 7377 1286 3F       		.byte	0x3f
ARM GAS  C:\Users\rdn\AppData\Local\Temp\ccFEeGTH.s 			page 159


 7378 1287 C2       		.byte	0xc2
 7379 1288 95       		.byte	0x95
 7380 1289 8B       		.byte	0x8b
 7381 128a 3F       		.byte	0x3f
 7382 128b F0       		.byte	0xf0
 7383 128c 37       		.byte	0x37
 7384 128d 98       		.byte	0x98
 7385 128e 3F       		.byte	0x3f
 7386 128f D7       		.byte	0xd7
 7387 1290 FE       		.byte	0xfe
 7388 1291 A5       		.byte	0xa5
 7389 1292 3F       		.byte	0x3f
 7390 1293 F3       		.byte	0xf3
 7391 1294 04       		.byte	0x4
 7392 1295 B5       		.byte	0xb5
 7393 1296 3F       		.byte	0x3f
 7394 1297 2A       		.byte	0x2a
 7395 1298 67       		.byte	0x67
 7396 1299 C5       		.byte	0xc5
 7397 129a 3F       		.byte	0x3f
 7398 129b FD       		.byte	0xfd
 7399 129c 44       		.byte	0x44
 7400 129d D7       		.byte	0xd7
 7401 129e 3F       		.byte	0x3f
 7402 129f C7       		.byte	0xc7
 7403 12a0 C0       		.byte	0xc0
 7404 12a1 EA       		.byte	0xea
 7405 12a2 3F       		.byte	0x3f
 7406 12a3 11       		.uleb128 0x11
 7407 12a4 7000     		.ascii	"p\000"
 7408 12a6 02       		.byte	0x2
 7409 12a7 56       		.byte	0x56
 7410 12a8 39130000 		.4byte	0x1339
 7411 12ac 10       		.byte	0x10
 7412 12ad 00       		.byte	0
 7413 12ae 93       		.byte	0x93
 7414 12af 24       		.byte	0x24
 7415 12b0 3C       		.byte	0x3c
 7416 12b1 2C       		.byte	0x2c
 7417 12b2 26       		.byte	0x26
 7418 12b3 63       		.byte	0x63
 7419 12b4 3D       		.byte	0x3d
 7420 12b5 87       		.byte	0x87
 7421 12b6 FE       		.byte	0xfe
 7422 12b7 75       		.byte	0x75
 7423 12b8 3E       		.byte	0x3e
 7424 12b9 17       		.byte	0x17
 7425 12ba 72       		.byte	0x72
 7426 12bb 31       		.byte	0x31
 7427 12bc 3F       		.byte	0x3f
 7428 12bd 0E       		.uleb128 0xe
 7429 12be 04       		.byte	0x4
 7430 12bf 02       		.byte	0x2
 7431 12c0 60       		.byte	0x60
 7432 12c1 D8120000 		.4byte	0x12d8
 7433 12c5 0F       		.uleb128 0xf
 7434 12c6 6600     		.ascii	"f\000"
ARM GAS  C:\Users\rdn\AppData\Local\Temp\ccFEeGTH.s 			page 160


 7435 12c8 02       		.byte	0x2
 7436 12c9 60       		.byte	0x60
 7437 12ca 25000000 		.4byte	0x25
 7438 12ce 0F       		.uleb128 0xf
 7439 12cf 7300     		.ascii	"s\000"
 7440 12d1 02       		.byte	0x2
 7441 12d2 60       		.byte	0x60
 7442 12d3 9E000000 		.4byte	0x9e
 7443 12d7 00       		.byte	0
 7444 12d8 10       		.uleb128 0x10
 7445 12d9 7600     		.ascii	"v\000"
 7446 12db 02       		.byte	0x2
 7447 12dc 60       		.byte	0x60
 7448 12dd E1120000 		.4byte	0x12e1
 7449 12e1 34       		.uleb128 0x34
 7450 12e2 BD120000 		.4byte	0x12bd
 7451 12e6 10       		.uleb128 0x10
 7452 12e7 6B00     		.ascii	"k\000"
 7453 12e9 02       		.byte	0x2
 7454 12ea 63       		.byte	0x63
 7455 12eb 85000000 		.4byte	0x85
 7456 12ef 0E       		.uleb128 0xe
 7457 12f0 04       		.byte	0x4
 7458 12f1 02       		.byte	0x2
 7459 12f2 6A       		.byte	0x6a
 7460 12f3 0A130000 		.4byte	0x130a
 7461 12f7 0F       		.uleb128 0xf
 7462 12f8 6600     		.ascii	"f\000"
 7463 12fa 02       		.byte	0x2
 7464 12fb 6A       		.byte	0x6a
 7465 12fc 25000000 		.4byte	0x25
 7466 1300 0F       		.uleb128 0xf
 7467 1301 7300     		.ascii	"s\000"
 7468 1303 02       		.byte	0x2
 7469 1304 6A       		.byte	0x6a
 7470 1305 9E000000 		.4byte	0x9e
 7471 1309 00       		.byte	0
 7472 130a 10       		.uleb128 0x10
 7473 130b 7900     		.ascii	"y\000"
 7474 130d 02       		.byte	0x2
 7475 130e 6A       		.byte	0x6a
 7476 130f EF120000 		.4byte	0x12ef
 7477 1313 00       		.byte	0
 7478 1314 12       		.uleb128 0x12
 7479 1315 1C030000 		.4byte	0x31c
 7480 1319 24130000 		.4byte	0x1324
 7481 131d 13       		.uleb128 0x13
 7482 131e 2B010000 		.4byte	0x12b
 7483 1322 07       		.byte	0x7
 7484 1323 00       		.byte	0
 7485 1324 0B       		.uleb128 0xb
 7486 1325 14130000 		.4byte	0x1314
 7487 1329 12       		.uleb128 0x12
 7488 132a 1C030000 		.4byte	0x31c
 7489 132e 39130000 		.4byte	0x1339
 7490 1332 13       		.uleb128 0x13
 7491 1333 2B010000 		.4byte	0x12b
ARM GAS  C:\Users\rdn\AppData\Local\Temp\ccFEeGTH.s 			page 161


 7492 1337 03       		.byte	0x3
 7493 1338 00       		.byte	0
 7494 1339 0B       		.uleb128 0xb
 7495 133a 29130000 		.4byte	0x1329
 7496 133e 1C       		.uleb128 0x1c
 7497 133f 6D020000 		.4byte	.LASF118
 7498 1343 01       		.byte	0x1
 7499 1344 D102     		.2byte	0x2d1
 7500 1346 00000000 		.4byte	.LFB32
 7501 134a EC020000 		.4byte	.LFE32-.LFB32
 7502 134e 01       		.uleb128 0x1
 7503 134f 9C       		.byte	0x9c
 7504 1350 13150000 		.4byte	0x1513
 7505 1354 1D       		.uleb128 0x1d
 7506 1355 647400   		.ascii	"dt\000"
 7507 1358 01       		.byte	0x1
 7508 1359 D102     		.2byte	0x2d1
 7509 135b B4000000 		.4byte	0xb4
 7510 135f 7B140000 		.4byte	.LLST123
 7511 1363 1D       		.uleb128 0x1d
 7512 1364 737200   		.ascii	"sr\000"
 7513 1367 01       		.byte	0x1
 7514 1368 D102     		.2byte	0x2d1
 7515 136a E3000000 		.4byte	0xe3
 7516 136e 9C140000 		.4byte	.LLST124
 7517 1372 1E       		.uleb128 0x1e
 7518 1373 30050000 		.4byte	.LASF119
 7519 1377 01       		.byte	0x1
 7520 1378 D202     		.2byte	0x2d2
 7521 137a 16030000 		.4byte	0x316
 7522 137e BD140000 		.4byte	.LLST125
 7523 1382 1D       		.uleb128 0x1d
 7524 1383 696E7600 		.ascii	"inv\000"
 7525 1387 01       		.byte	0x1
 7526 1388 D202     		.2byte	0x2d2
 7527 138a 24010000 		.4byte	0x124
 7528 138e FF140000 		.4byte	.LLST126
 7529 1392 1D       		.uleb128 0x1d
 7530 1393 7800     		.ascii	"x\000"
 7531 1395 01       		.byte	0x1
 7532 1396 D202     		.2byte	0x2d2
 7533 1398 16030000 		.4byte	0x316
 7534 139c 39150000 		.4byte	.LLST127
 7535 13a0 1D       		.uleb128 0x1d
 7536 13a1 7900     		.ascii	"y\000"
 7537 13a3 01       		.byte	0x1
 7538 13a4 D202     		.2byte	0x2d2
 7539 13a6 C4040000 		.4byte	0x4c4
 7540 13aa 4D150000 		.4byte	.LLST128
 7541 13ae 2C       		.uleb128 0x2c
 7542 13af 73636600 		.ascii	"scf\000"
 7543 13b3 01       		.byte	0x1
 7544 13b4 D602     		.2byte	0x2d6
 7545 13b6 790D0000 		.4byte	0xd79
 7546 13ba 03       		.uleb128 0x3
 7547 13bb 91       		.byte	0x91
 7548 13bc D87D     		.sleb128 -296
ARM GAS  C:\Users\rdn\AppData\Local\Temp\ccFEeGTH.s 			page 162


 7549 13be 21       		.uleb128 0x21
 7550 13bf 733000   		.ascii	"s0\000"
 7551 13c2 01       		.byte	0x1
 7552 13c3 D702     		.2byte	0x2d7
 7553 13c5 25000000 		.4byte	0x25
 7554 13c9 61150000 		.4byte	.LLST129
 7555 13cd 21       		.uleb128 0x21
 7556 13ce 733100   		.ascii	"s1\000"
 7557 13d1 01       		.byte	0x1
 7558 13d2 D702     		.2byte	0x2d7
 7559 13d4 25000000 		.4byte	0x25
 7560 13d8 80150000 		.4byte	.LLST130
 7561 13dc 21       		.uleb128 0x21
 7562 13dd 6E6200   		.ascii	"nb\000"
 7563 13e0 01       		.byte	0x1
 7564 13e1 E402     		.2byte	0x2e4
 7565 13e3 85000000 		.4byte	0x85
 7566 13e7 C2150000 		.4byte	.LLST131
 7567 13eb 21       		.uleb128 0x21
 7568 13ec 6E3400   		.ascii	"n4\000"
 7569 13ef 01       		.byte	0x1
 7570 13f0 E502     		.2byte	0x2e5
 7571 13f2 85000000 		.4byte	0x85
 7572 13f6 2D160000 		.4byte	.LLST132
 7573 13fa 21       		.uleb128 0x21
 7574 13fb 6E3200   		.ascii	"n2\000"
 7575 13fe 01       		.byte	0x1
 7576 13ff E602     		.2byte	0x2e6
 7577 1401 85000000 		.4byte	0x85
 7578 1405 40160000 		.4byte	.LLST133
 7579 1409 21       		.uleb128 0x21
 7580 140a 6C696D00 		.ascii	"lim\000"
 7581 140e 01       		.byte	0x1
 7582 140f F302     		.2byte	0x2f3
 7583 1411 6D080000 		.4byte	0x86d
 7584 1415 69160000 		.4byte	.LLST134
 7585 1419 24       		.uleb128 0x24
 7586 141a 3C000000 		.4byte	.LBB110
 7587 141e B4000000 		.4byte	.LBE110-.LBB110
 7588 1422 35140000 		.4byte	0x1435
 7589 1426 21       		.uleb128 0x21
 7590 1427 6900     		.ascii	"i\000"
 7591 1429 01       		.byte	0x1
 7592 142a DA02     		.2byte	0x2da
 7593 142c 85000000 		.4byte	0x85
 7594 1430 7C160000 		.4byte	.LLST135
 7595 1434 00       		.byte	0
 7596 1435 24       		.uleb128 0x24
 7597 1436 6C010000 		.4byte	.LBB111
 7598 143a 40000000 		.4byte	.LBE111-.LBB111
 7599 143e 52140000 		.4byte	0x1452
 7600 1442 21       		.uleb128 0x21
 7601 1443 693400   		.ascii	"i4\000"
 7602 1446 01       		.byte	0x1
 7603 1447 E802     		.2byte	0x2e8
 7604 1449 85000000 		.4byte	0x85
 7605 144d B3160000 		.4byte	.LLST136
ARM GAS  C:\Users\rdn\AppData\Local\Temp\ccFEeGTH.s 			page 163


 7606 1451 00       		.byte	0
 7607 1452 24       		.uleb128 0x24
 7608 1453 AC010000 		.4byte	.LBB112
 7609 1457 28000000 		.4byte	.LBE112-.LBB112
 7610 145b 6F140000 		.4byte	0x146f
 7611 145f 21       		.uleb128 0x21
 7612 1460 693200   		.ascii	"i2\000"
 7613 1463 01       		.byte	0x1
 7614 1464 EC02     		.2byte	0x2ec
 7615 1466 85000000 		.4byte	0x85
 7616 146a D2160000 		.4byte	.LLST137
 7617 146e 00       		.byte	0
 7618 146f 24       		.uleb128 0x24
 7619 1470 04020000 		.4byte	.LBB113
 7620 1474 B0000000 		.4byte	.LBE113-.LBB113
 7621 1478 FB140000 		.4byte	0x14fb
 7622 147c 21       		.uleb128 0x21
 7623 147d 6900     		.ascii	"i\000"
 7624 147f 01       		.byte	0x1
 7625 1480 F502     		.2byte	0x2f5
 7626 1482 85000000 		.4byte	0x85
 7627 1486 E5160000 		.4byte	.LLST138
 7628 148a 21       		.uleb128 0x21
 7629 148b 696200   		.ascii	"ib\000"
 7630 148e 01       		.byte	0x1
 7631 148f F502     		.2byte	0x2f5
 7632 1491 85000000 		.4byte	0x85
 7633 1495 04170000 		.4byte	.LLST139
 7634 1499 1A       		.uleb128 0x1a
 7635 149a 0C020000 		.4byte	.LBB114
 7636 149e A2000000 		.4byte	.LBE114-.LBB114
 7637 14a2 35       		.uleb128 0x35
 7638 14a3 F5050000 		.4byte	.LASF120
 7639 14a7 01       		.byte	0x1
 7640 14a8 F602     		.2byte	0x2f6
 7641 14aa 25000000 		.4byte	0x25
 7642 14ae 36       		.uleb128 0x36
 7643 14af 60120000 		.4byte	0x1260
 7644 14b3 1A020000 		.4byte	.LBB115
 7645 14b7 74000000 		.4byte	.LBE115-.LBB115
 7646 14bb 01       		.byte	0x1
 7647 14bc F602     		.2byte	0x2f6
 7648 14be 2F       		.uleb128 0x2f
 7649 14bf 70120000 		.4byte	0x1270
 7650 14c3 23170000 		.4byte	.LLST140
 7651 14c7 1A       		.uleb128 0x1a
 7652 14c8 1A020000 		.4byte	.LBB116
 7653 14cc 74000000 		.4byte	.LBE116-.LBB116
 7654 14d0 37       		.uleb128 0x37
 7655 14d1 D8120000 		.4byte	0x12d8
 7656 14d5 03       		.uleb128 0x3
 7657 14d6 91       		.byte	0x91
 7658 14d7 D47D     		.sleb128 -300
 7659 14d9 30       		.uleb128 0x30
 7660 14da E6120000 		.4byte	0x12e6
 7661 14de 4C170000 		.4byte	.LLST141
 7662 14e2 31       		.uleb128 0x31
ARM GAS  C:\Users\rdn\AppData\Local\Temp\ccFEeGTH.s 			page 164


 7663 14e3 0A130000 		.4byte	0x130a
 7664 14e7 37       		.uleb128 0x37
 7665 14e8 79120000 		.4byte	0x1279
 7666 14ec 05       		.uleb128 0x5
 7667 14ed 03       		.byte	0x3
 7668 14ee 1C040000 		.4byte	e.5109
 7669 14f2 31       		.uleb128 0x31
 7670 14f3 A3120000 		.4byte	0x12a3
 7671 14f7 00       		.byte	0
 7672 14f8 00       		.byte	0
 7673 14f9 00       		.byte	0
 7674 14fa 00       		.byte	0
 7675 14fb 25       		.uleb128 0x25
 7676 14fc F2010000 		.4byte	.LVL511
 7677 1500 2D220000 		.4byte	0x222d
 7678 1504 26       		.uleb128 0x26
 7679 1505 01       		.uleb128 0x1
 7680 1506 51       		.byte	0x51
 7681 1507 09       		.uleb128 0x9
 7682 1508 91       		.byte	0x91
 7683 1509 00       		.sleb128 0
 7684 150a 75       		.byte	0x75
 7685 150b 00       		.sleb128 0
 7686 150c 22       		.byte	0x22
 7687 150d 0A       		.byte	0xa
 7688 150e 2801     		.2byte	0x128
 7689 1510 1C       		.byte	0x1c
 7690 1511 00       		.byte	0
 7691 1512 00       		.byte	0
 7692 1513 27       		.uleb128 0x27
 7693 1514 25030000 		.4byte	.LASF121
 7694 1518 01       		.byte	0x1
 7695 1519 B502     		.2byte	0x2b5
 7696 151b 00000000 		.4byte	.LFB31
 7697 151f 74000000 		.4byte	.LFE31-.LFB31
 7698 1523 01       		.uleb128 0x1
 7699 1524 9C       		.byte	0x9c
 7700 1525 01160000 		.4byte	0x1601
 7701 1529 1E       		.uleb128 0x1e
 7702 152a 3F050000 		.4byte	.LASF59
 7703 152e 01       		.byte	0x1
 7704 152f B502     		.2byte	0x2b5
 7705 1531 85000000 		.4byte	0x85
 7706 1535 6A170000 		.4byte	.LLST142
 7707 1539 1E       		.uleb128 0x1e
 7708 153a 05070000 		.4byte	.LASF61
 7709 153e 01       		.byte	0x1
 7710 153f B602     		.2byte	0x2b6
 7711 1541 85000000 		.4byte	0x85
 7712 1545 96170000 		.4byte	.LLST143
 7713 1549 1E       		.uleb128 0x1e
 7714 154a 08060000 		.4byte	.LASF63
 7715 154e 01       		.byte	0x1
 7716 154f B602     		.2byte	0x2b6
 7717 1551 24010000 		.4byte	0x124
 7718 1555 C2170000 		.4byte	.LLST144
 7719 1559 1E       		.uleb128 0x1e
ARM GAS  C:\Users\rdn\AppData\Local\Temp\ccFEeGTH.s 			page 165


 7720 155a 0B070000 		.4byte	.LASF62
 7721 155e 01       		.byte	0x1
 7722 155f B602     		.2byte	0x2b6
 7723 1561 85000000 		.4byte	0x85
 7724 1565 E3170000 		.4byte	.LLST145
 7725 1569 1E       		.uleb128 0x1e
 7726 156a 0D060000 		.4byte	.LASF64
 7727 156e 01       		.byte	0x1
 7728 156f B602     		.2byte	0x2b6
 7729 1571 24010000 		.4byte	0x124
 7730 1575 0E180000 		.4byte	.LLST146
 7731 1579 1D       		.uleb128 0x1d
 7732 157a 6300     		.ascii	"c\000"
 7733 157c 01       		.byte	0x1
 7734 157d B602     		.2byte	0x2b6
 7735 157f 74030000 		.4byte	0x374
 7736 1583 3A180000 		.4byte	.LLST147
 7737 1587 1F       		.uleb128 0x1f
 7738 1588 00000000 		.4byte	.LASF122
 7739 158c 01       		.byte	0x1
 7740 158d B802     		.2byte	0x2b8
 7741 158f 85000000 		.4byte	0x85
 7742 1593 66180000 		.4byte	.LLST148
 7743 1597 28       		.uleb128 0x28
 7744 1598 3E000000 		.4byte	.LVL547
 7745 159c 7E080000 		.4byte	0x87e
 7746 15a0 B4150000 		.4byte	0x15b4
 7747 15a4 26       		.uleb128 0x26
 7748 15a5 01       		.uleb128 0x1
 7749 15a6 51       		.byte	0x51
 7750 15a7 04       		.uleb128 0x4
 7751 15a8 91       		.byte	0x91
 7752 15a9 50       		.sleb128 -48
 7753 15aa 94       		.byte	0x94
 7754 15ab 01       		.byte	0x1
 7755 15ac 26       		.uleb128 0x26
 7756 15ad 01       		.uleb128 0x1
 7757 15ae 53       		.byte	0x53
 7758 15af 03       		.uleb128 0x3
 7759 15b0 91       		.byte	0x91
 7760 15b1 04       		.sleb128 4
 7761 15b2 06       		.byte	0x6
 7762 15b3 00       		.byte	0
 7763 15b4 28       		.uleb128 0x28
 7764 15b5 54000000 		.4byte	.LVL548
 7765 15b9 7E080000 		.4byte	0x87e
 7766 15bd E3150000 		.4byte	0x15e3
 7767 15c1 26       		.uleb128 0x26
 7768 15c2 01       		.uleb128 0x1
 7769 15c3 50       		.byte	0x50
 7770 15c4 03       		.uleb128 0x3
 7771 15c5 91       		.byte	0x91
 7772 15c6 54       		.sleb128 -44
 7773 15c7 06       		.byte	0x6
 7774 15c8 26       		.uleb128 0x26
 7775 15c9 01       		.uleb128 0x1
 7776 15ca 51       		.byte	0x51
ARM GAS  C:\Users\rdn\AppData\Local\Temp\ccFEeGTH.s 			page 166


 7777 15cb 02       		.uleb128 0x2
 7778 15cc 78       		.byte	0x78
 7779 15cd 00       		.sleb128 0
 7780 15ce 26       		.uleb128 0x26
 7781 15cf 01       		.uleb128 0x1
 7782 15d0 52       		.byte	0x52
 7783 15d1 01       		.uleb128 0x1
 7784 15d2 31       		.byte	0x31
 7785 15d3 26       		.uleb128 0x26
 7786 15d4 01       		.uleb128 0x1
 7787 15d5 53       		.byte	0x53
 7788 15d6 05       		.uleb128 0x5
 7789 15d7 91       		.byte	0x91
 7790 15d8 04       		.sleb128 4
 7791 15d9 06       		.byte	0x6
 7792 15da 23       		.byte	0x23
 7793 15db 28       		.uleb128 0x28
 7794 15dc 26       		.uleb128 0x26
 7795 15dd 02       		.uleb128 0x2
 7796 15de 7D       		.byte	0x7d
 7797 15df 00       		.sleb128 0
 7798 15e0 01       		.uleb128 0x1
 7799 15e1 36       		.byte	0x36
 7800 15e2 00       		.byte	0
 7801 15e3 25       		.uleb128 0x25
 7802 15e4 66000000 		.4byte	.LVL549
 7803 15e8 38220000 		.4byte	0x2238
 7804 15ec 26       		.uleb128 0x26
 7805 15ed 01       		.uleb128 0x1
 7806 15ee 50       		.byte	0x50
 7807 15ef 05       		.uleb128 0x5
 7808 15f0 91       		.byte	0x91
 7809 15f1 04       		.sleb128 4
 7810 15f2 06       		.byte	0x6
 7811 15f3 23       		.byte	0x23
 7812 15f4 28       		.uleb128 0x28
 7813 15f5 26       		.uleb128 0x26
 7814 15f6 01       		.uleb128 0x1
 7815 15f7 51       		.byte	0x51
 7816 15f8 01       		.uleb128 0x1
 7817 15f9 30       		.byte	0x30
 7818 15fa 26       		.uleb128 0x26
 7819 15fb 01       		.uleb128 0x1
 7820 15fc 52       		.byte	0x52
 7821 15fd 01       		.uleb128 0x1
 7822 15fe 48       		.byte	0x48
 7823 15ff 00       		.byte	0
 7824 1600 00       		.byte	0
 7825 1601 38       		.uleb128 0x38
 7826 1602 31030000 		.4byte	.LASF124
 7827 1606 01       		.byte	0x1
 7828 1607 0503     		.2byte	0x305
 7829 1609 00000000 		.4byte	.LFB33
 7830 160d 98000000 		.4byte	.LFE33-.LFB33
 7831 1611 01       		.uleb128 0x1
 7832 1612 9C       		.byte	0x9c
 7833 1613 C0170000 		.4byte	0x17c0
ARM GAS  C:\Users\rdn\AppData\Local\Temp\ccFEeGTH.s 			page 167


 7834 1617 1D       		.uleb128 0x1d
 7835 1618 647400   		.ascii	"dt\000"
 7836 161b 01       		.byte	0x1
 7837 161c 0603     		.2byte	0x306
 7838 161e B4000000 		.4byte	0xb4
 7839 1622 79180000 		.4byte	.LLST149
 7840 1626 1D       		.uleb128 0x1d
 7841 1627 737200   		.ascii	"sr\000"
 7842 162a 01       		.byte	0x1
 7843 162b 0603     		.2byte	0x306
 7844 162d E3000000 		.4byte	0xe3
 7845 1631 9A180000 		.4byte	.LLST150
 7846 1635 1E       		.uleb128 0x1e
 7847 1636 44040000 		.4byte	.LASF94
 7848 163a 01       		.byte	0x1
 7849 163b 0603     		.2byte	0x306
 7850 163d 85000000 		.4byte	0x85
 7851 1641 BB180000 		.4byte	.LLST151
 7852 1645 1D       		.uleb128 0x1d
 7853 1646 656200   		.ascii	"eb\000"
 7854 1649 01       		.byte	0x1
 7855 164a 0703     		.2byte	0x307
 7856 164c 16030000 		.4byte	0x316
 7857 1650 DC180000 		.4byte	.LLST152
 7858 1654 1D       		.uleb128 0x1d
 7859 1655 61747400 		.ascii	"att\000"
 7860 1659 01       		.byte	0x1
 7861 165a 0703     		.2byte	0x307
 7862 165c 24010000 		.4byte	0x124
 7863 1660 FD180000 		.4byte	.LLST153
 7864 1664 1E       		.uleb128 0x1e
 7865 1665 87030000 		.4byte	.LASF123
 7866 1669 01       		.byte	0x1
 7867 166a 0703     		.2byte	0x307
 7868 166c C0170000 		.4byte	0x17c0
 7869 1670 29190000 		.4byte	.LLST154
 7870 1674 1D       		.uleb128 0x1d
 7871 1675 7800     		.ascii	"x\000"
 7872 1677 01       		.byte	0x1
 7873 1678 0803     		.2byte	0x308
 7874 167a 16030000 		.4byte	0x316
 7875 167e 55190000 		.4byte	.LLST155
 7876 1682 1D       		.uleb128 0x1d
 7877 1683 7900     		.ascii	"y\000"
 7878 1685 01       		.byte	0x1
 7879 1686 0803     		.2byte	0x308
 7880 1688 C4040000 		.4byte	0x4c4
 7881 168c 81190000 		.4byte	.LLST156
 7882 1690 2C       		.uleb128 0x2c
 7883 1691 73636600 		.ascii	"scf\000"
 7884 1695 01       		.byte	0x1
 7885 1696 1103     		.2byte	0x311
 7886 1698 3F120000 		.4byte	0x123f
 7887 169c 03       		.uleb128 0x3
 7888 169d 91       		.byte	0x91
 7889 169e A87F     		.sleb128 -88
 7890 16a0 2C       		.uleb128 0x2c
ARM GAS  C:\Users\rdn\AppData\Local\Temp\ccFEeGTH.s 			page 168


 7891 16a1 636E00   		.ascii	"cn\000"
 7892 16a4 01       		.byte	0x1
 7893 16a5 1103     		.2byte	0x311
 7894 16a7 C6170000 		.4byte	0x17c6
 7895 16ab 03       		.uleb128 0x3
 7896 16ac 91       		.byte	0x91
 7897 16ad A87D     		.sleb128 -344
 7898 16af 2C       		.uleb128 0x2c
 7899 16b0 6300     		.ascii	"c\000"
 7900 16b2 01       		.byte	0x1
 7901 16b3 1203     		.2byte	0x312
 7902 16b5 DC170000 		.4byte	0x17dc
 7903 16b9 03       		.uleb128 0x3
 7904 16ba 91       		.byte	0x91
 7905 16bb A87B     		.sleb128 -600
 7906 16bd 28       		.uleb128 0x28
 7907 16be 1C000000 		.4byte	.LVL554
 7908 16c2 BB090000 		.4byte	0x9bb
 7909 16c6 F8160000 		.4byte	0x16f8
 7910 16ca 26       		.uleb128 0x26
 7911 16cb 01       		.uleb128 0x1
 7912 16cc 50       		.byte	0x50
 7913 16cd 05       		.uleb128 0x5
 7914 16ce 91       		.byte	0x91
 7915 16cf A47B     		.sleb128 -604
 7916 16d1 94       		.byte	0x94
 7917 16d2 01       		.byte	0x1
 7918 16d3 26       		.uleb128 0x26
 7919 16d4 01       		.uleb128 0x1
 7920 16d5 51       		.byte	0x51
 7921 16d6 02       		.uleb128 0x2
 7922 16d7 77       		.byte	0x77
 7923 16d8 00       		.sleb128 0
 7924 16d9 26       		.uleb128 0x26
 7925 16da 01       		.uleb128 0x1
 7926 16db 52       		.byte	0x52
 7927 16dc 03       		.uleb128 0x3
 7928 16dd F3       		.byte	0xf3
 7929 16de 01       		.uleb128 0x1
 7930 16df 52       		.byte	0x52
 7931 16e0 26       		.uleb128 0x26
 7932 16e1 01       		.uleb128 0x1
 7933 16e2 53       		.byte	0x53
 7934 16e3 03       		.uleb128 0x3
 7935 16e4 F3       		.byte	0xf3
 7936 16e5 01       		.uleb128 0x1
 7937 16e6 53       		.byte	0x53
 7938 16e7 26       		.uleb128 0x26
 7939 16e8 02       		.uleb128 0x2
 7940 16e9 7D       		.byte	0x7d
 7941 16ea 00       		.sleb128 0
 7942 16eb 04       		.uleb128 0x4
 7943 16ec 91       		.byte	0x91
 7944 16ed 00       		.sleb128 0
 7945 16ee 94       		.byte	0x94
 7946 16ef 01       		.byte	0x1
 7947 16f0 26       		.uleb128 0x26
ARM GAS  C:\Users\rdn\AppData\Local\Temp\ccFEeGTH.s 			page 169


 7948 16f1 02       		.uleb128 0x2
 7949 16f2 7D       		.byte	0x7d
 7950 16f3 04       		.sleb128 4
 7951 16f4 02       		.uleb128 0x2
 7952 16f5 75       		.byte	0x75
 7953 16f6 00       		.sleb128 0
 7954 16f7 00       		.byte	0
 7955 16f8 28       		.uleb128 0x28
 7956 16f9 26000000 		.4byte	.LVL555
 7957 16fd 1E050000 		.4byte	0x51e
 7958 1701 18170000 		.4byte	0x1718
 7959 1705 26       		.uleb128 0x26
 7960 1706 01       		.uleb128 0x1
 7961 1707 50       		.byte	0x50
 7962 1708 02       		.uleb128 0x2
 7963 1709 75       		.byte	0x75
 7964 170a 00       		.sleb128 0
 7965 170b 26       		.uleb128 0x26
 7966 170c 01       		.uleb128 0x1
 7967 170d 51       		.byte	0x51
 7968 170e 02       		.uleb128 0x2
 7969 170f 74       		.byte	0x74
 7970 1710 00       		.sleb128 0
 7971 1711 26       		.uleb128 0x26
 7972 1712 01       		.uleb128 0x1
 7973 1713 52       		.byte	0x52
 7974 1714 02       		.uleb128 0x2
 7975 1715 74       		.byte	0x74
 7976 1716 04       		.sleb128 4
 7977 1717 00       		.byte	0
 7978 1718 28       		.uleb128 0x28
 7979 1719 40000000 		.4byte	.LVL556
 7980 171d 1A0E0000 		.4byte	0xe1a
 7981 1721 48170000 		.4byte	0x1748
 7982 1725 26       		.uleb128 0x26
 7983 1726 01       		.uleb128 0x1
 7984 1727 50       		.byte	0x50
 7985 1728 02       		.uleb128 0x2
 7986 1729 75       		.byte	0x75
 7987 172a 00       		.sleb128 0
 7988 172b 26       		.uleb128 0x26
 7989 172c 01       		.uleb128 0x1
 7990 172d 53       		.byte	0x53
 7991 172e 03       		.uleb128 0x3
 7992 172f 91       		.byte	0x91
 7993 1730 A87B     		.sleb128 -600
 7994 1732 26       		.uleb128 0x26
 7995 1733 02       		.uleb128 0x2
 7996 1734 7D       		.byte	0x7d
 7997 1735 00       		.sleb128 0
 7998 1736 02       		.uleb128 0x2
 7999 1737 76       		.byte	0x76
 8000 1738 00       		.sleb128 0
 8001 1739 26       		.uleb128 0x26
 8002 173a 02       		.uleb128 0x2
 8003 173b 7D       		.byte	0x7d
 8004 173c 04       		.sleb128 4
ARM GAS  C:\Users\rdn\AppData\Local\Temp\ccFEeGTH.s 			page 170


 8005 173d 02       		.uleb128 0x2
 8006 173e 74       		.byte	0x74
 8007 173f 08       		.sleb128 8
 8008 1740 26       		.uleb128 0x26
 8009 1741 02       		.uleb128 0x2
 8010 1742 7D       		.byte	0x7d
 8011 1743 08       		.sleb128 8
 8012 1744 02       		.uleb128 0x2
 8013 1745 74       		.byte	0x74
 8014 1746 0C       		.sleb128 12
 8015 1747 00       		.byte	0
 8016 1748 28       		.uleb128 0x28
 8017 1749 56000000 		.4byte	.LVL557
 8018 174d 04070000 		.4byte	0x704
 8019 1751 5D170000 		.4byte	0x175d
 8020 1755 26       		.uleb128 0x26
 8021 1756 02       		.uleb128 0x2
 8022 1757 7D       		.byte	0x7d
 8023 1758 04       		.sleb128 4
 8024 1759 02       		.uleb128 0x2
 8025 175a 75       		.byte	0x75
 8026 175b 00       		.sleb128 0
 8027 175c 00       		.byte	0
 8028 175d 28       		.uleb128 0x28
 8029 175e 76000000 		.4byte	.LVL558
 8030 1762 11090000 		.4byte	0x911
 8031 1766 8B170000 		.4byte	0x178b
 8032 176a 26       		.uleb128 0x26
 8033 176b 01       		.uleb128 0x1
 8034 176c 52       		.byte	0x52
 8035 176d 05       		.uleb128 0x5
 8036 176e 91       		.byte	0x91
 8037 176f 04       		.sleb128 4
 8038 1770 06       		.byte	0x6
 8039 1771 23       		.byte	0x23
 8040 1772 10       		.uleb128 0x10
 8041 1773 26       		.uleb128 0x26
 8042 1774 01       		.uleb128 0x1
 8043 1775 53       		.byte	0x53
 8044 1776 05       		.uleb128 0x5
 8045 1777 91       		.byte	0x91
 8046 1778 04       		.sleb128 4
 8047 1779 06       		.byte	0x6
 8048 177a 23       		.byte	0x23
 8049 177b 18       		.uleb128 0x18
 8050 177c 26       		.uleb128 0x26
 8051 177d 02       		.uleb128 0x2
 8052 177e 7D       		.byte	0x7d
 8053 177f 00       		.sleb128 0
 8054 1780 02       		.uleb128 0x2
 8055 1781 74       		.byte	0x74
 8056 1782 00       		.sleb128 0
 8057 1783 26       		.uleb128 0x26
 8058 1784 02       		.uleb128 0x2
 8059 1785 7D       		.byte	0x7d
 8060 1786 04       		.sleb128 4
 8061 1787 02       		.uleb128 0x2
ARM GAS  C:\Users\rdn\AppData\Local\Temp\ccFEeGTH.s 			page 171


 8062 1788 76       		.byte	0x76
 8063 1789 00       		.sleb128 0
 8064 178a 00       		.byte	0
 8065 178b 25       		.uleb128 0x25
 8066 178c 8A000000 		.4byte	.LVL559
 8067 1790 3E130000 		.4byte	0x133e
 8068 1794 26       		.uleb128 0x26
 8069 1795 01       		.uleb128 0x1
 8070 1796 50       		.byte	0x50
 8071 1797 05       		.uleb128 0x5
 8072 1798 91       		.byte	0x91
 8073 1799 A47B     		.sleb128 -604
 8074 179b 94       		.byte	0x94
 8075 179c 01       		.byte	0x1
 8076 179d 26       		.uleb128 0x26
 8077 179e 01       		.uleb128 0x1
 8078 179f 51       		.byte	0x51
 8079 17a0 02       		.uleb128 0x2
 8080 17a1 77       		.byte	0x77
 8081 17a2 00       		.sleb128 0
 8082 17a3 26       		.uleb128 0x26
 8083 17a4 01       		.uleb128 0x1
 8084 17a5 52       		.byte	0x52
 8085 17a6 02       		.uleb128 0x2
 8086 17a7 75       		.byte	0x75
 8087 17a8 00       		.sleb128 0
 8088 17a9 26       		.uleb128 0x26
 8089 17aa 01       		.uleb128 0x1
 8090 17ab 53       		.byte	0x53
 8091 17ac 01       		.uleb128 0x1
 8092 17ad 30       		.byte	0x30
 8093 17ae 26       		.uleb128 0x26
 8094 17af 02       		.uleb128 0x2
 8095 17b0 7D       		.byte	0x7d
 8096 17b1 00       		.sleb128 0
 8097 17b2 03       		.uleb128 0x3
 8098 17b3 91       		.byte	0x91
 8099 17b4 08       		.sleb128 8
 8100 17b5 06       		.byte	0x6
 8101 17b6 26       		.uleb128 0x26
 8102 17b7 02       		.uleb128 0x2
 8103 17b8 7D       		.byte	0x7d
 8104 17b9 04       		.sleb128 4
 8105 17ba 03       		.uleb128 0x3
 8106 17bb 91       		.byte	0x91
 8107 17bc 0C       		.sleb128 12
 8108 17bd 06       		.byte	0x6
 8109 17be 00       		.byte	0
 8110 17bf 00       		.byte	0
 8111 17c0 0A       		.uleb128 0xa
 8112 17c1 04       		.byte	0x4
 8113 17c2 7B020000 		.4byte	0x27b
 8114 17c6 12       		.uleb128 0x12
 8115 17c7 25000000 		.4byte	0x25
 8116 17cb DC170000 		.4byte	0x17dc
 8117 17cf 13       		.uleb128 0x13
 8118 17d0 2B010000 		.4byte	0x12b
ARM GAS  C:\Users\rdn\AppData\Local\Temp\ccFEeGTH.s 			page 172


 8119 17d4 03       		.byte	0x3
 8120 17d5 13       		.uleb128 0x13
 8121 17d6 2B010000 		.4byte	0x12b
 8122 17da 0F       		.byte	0xf
 8123 17db 00       		.byte	0
 8124 17dc 12       		.uleb128 0x12
 8125 17dd 85000000 		.4byte	0x85
 8126 17e1 F2170000 		.4byte	0x17f2
 8127 17e5 13       		.uleb128 0x13
 8128 17e6 2B010000 		.4byte	0x12b
 8129 17ea 03       		.byte	0x3
 8130 17eb 13       		.uleb128 0x13
 8131 17ec 2B010000 		.4byte	0x12b
 8132 17f0 0F       		.byte	0xf
 8133 17f1 00       		.byte	0
 8134 17f2 38       		.uleb128 0x38
 8135 17f3 CA030000 		.4byte	.LASF125
 8136 17f7 01       		.byte	0x1
 8137 17f8 2703     		.2byte	0x327
 8138 17fa 00000000 		.4byte	.LFB34
 8139 17fe 52000000 		.4byte	.LFE34-.LFB34
 8140 1802 01       		.uleb128 0x1
 8141 1803 9C       		.byte	0x9c
 8142 1804 FE180000 		.4byte	0x18fe
 8143 1808 1D       		.uleb128 0x1d
 8144 1809 647400   		.ascii	"dt\000"
 8145 180c 01       		.byte	0x1
 8146 180d 2803     		.2byte	0x328
 8147 180f B4000000 		.4byte	0xb4
 8148 1813 AD190000 		.4byte	.LLST157
 8149 1817 1D       		.uleb128 0x1d
 8150 1818 737200   		.ascii	"sr\000"
 8151 181b 01       		.byte	0x1
 8152 181c 2803     		.2byte	0x328
 8153 181e E3000000 		.4byte	0xe3
 8154 1822 CE190000 		.4byte	.LLST158
 8155 1826 1E       		.uleb128 0x1e
 8156 1827 87030000 		.4byte	.LASF123
 8157 182b 01       		.byte	0x1
 8158 182c 2903     		.2byte	0x329
 8159 182e FE180000 		.4byte	0x18fe
 8160 1832 EF190000 		.4byte	.LLST159
 8161 1836 1D       		.uleb128 0x1d
 8162 1837 7800     		.ascii	"x\000"
 8163 1839 01       		.byte	0x1
 8164 183a 2903     		.2byte	0x329
 8165 183c 16030000 		.4byte	0x316
 8166 1840 1B1A0000 		.4byte	.LLST160
 8167 1844 22       		.uleb128 0x22
 8168 1845 7900     		.ascii	"y\000"
 8169 1847 01       		.byte	0x1
 8170 1848 2903     		.2byte	0x329
 8171 184a C4040000 		.4byte	0x4c4
 8172 184e 02       		.uleb128 0x2
 8173 184f 91       		.byte	0x91
 8174 1850 00       		.sleb128 0
 8175 1851 2C       		.uleb128 0x2c
ARM GAS  C:\Users\rdn\AppData\Local\Temp\ccFEeGTH.s 			page 173


 8176 1852 73636600 		.ascii	"scf\000"
 8177 1856 01       		.byte	0x1
 8178 1857 2B03     		.2byte	0x32b
 8179 1859 3F120000 		.4byte	0x123f
 8180 185d 03       		.uleb128 0x3
 8181 185e 91       		.byte	0x91
 8182 185f A87F     		.sleb128 -88
 8183 1861 2C       		.uleb128 0x2c
 8184 1862 636E00   		.ascii	"cn\000"
 8185 1865 01       		.byte	0x1
 8186 1866 2B03     		.2byte	0x32b
 8187 1868 3F120000 		.4byte	0x123f
 8188 186c 03       		.uleb128 0x3
 8189 186d 91       		.byte	0x91
 8190 186e E87E     		.sleb128 -152
 8191 1870 2C       		.uleb128 0x2c
 8192 1871 6300     		.ascii	"c\000"
 8193 1873 01       		.byte	0x1
 8194 1874 2C03     		.2byte	0x32c
 8195 1876 29120000 		.4byte	0x1229
 8196 187a 03       		.uleb128 0x3
 8197 187b 91       		.byte	0x91
 8198 187c A87E     		.sleb128 -216
 8199 187e 28       		.uleb128 0x28
 8200 187f 20000000 		.4byte	.LVL565
 8201 1883 13150000 		.4byte	0x1513
 8202 1887 93180000 		.4byte	0x1893
 8203 188b 26       		.uleb128 0x26
 8204 188c 02       		.uleb128 0x2
 8205 188d 7D       		.byte	0x7d
 8206 188e 04       		.sleb128 4
 8207 188f 02       		.uleb128 0x2
 8208 1890 75       		.byte	0x75
 8209 1891 00       		.sleb128 0
 8210 1892 00       		.byte	0
 8211 1893 28       		.uleb128 0x28
 8212 1894 28000000 		.4byte	.LVL566
 8213 1898 890D0000 		.4byte	0xd89
 8214 189c AE180000 		.4byte	0x18ae
 8215 18a0 26       		.uleb128 0x26
 8216 18a1 01       		.uleb128 0x1
 8217 18a2 50       		.byte	0x50
 8218 18a3 02       		.uleb128 0x2
 8219 18a4 75       		.byte	0x75
 8220 18a5 00       		.sleb128 0
 8221 18a6 26       		.uleb128 0x26
 8222 18a7 01       		.uleb128 0x1
 8223 18a8 51       		.byte	0x51
 8224 18a9 03       		.uleb128 0x3
 8225 18aa 91       		.byte	0x91
 8226 18ab E87E     		.sleb128 -152
 8227 18ad 00       		.byte	0
 8228 18ae 28       		.uleb128 0x28
 8229 18af 3C000000 		.4byte	.LVL567
 8230 18b3 04070000 		.4byte	0x704
 8231 18b7 CA180000 		.4byte	0x18ca
 8232 18bb 26       		.uleb128 0x26
ARM GAS  C:\Users\rdn\AppData\Local\Temp\ccFEeGTH.s 			page 174


 8233 18bc 01       		.uleb128 0x1
 8234 18bd 52       		.byte	0x52
 8235 18be 03       		.uleb128 0x3
 8236 18bf 91       		.byte	0x91
 8237 18c0 E87E     		.sleb128 -152
 8238 18c2 26       		.uleb128 0x26
 8239 18c3 02       		.uleb128 0x2
 8240 18c4 7D       		.byte	0x7d
 8241 18c5 04       		.sleb128 4
 8242 18c6 02       		.uleb128 0x2
 8243 18c7 75       		.byte	0x75
 8244 18c8 00       		.sleb128 0
 8245 18c9 00       		.byte	0
 8246 18ca 25       		.uleb128 0x25
 8247 18cb 4E000000 		.4byte	.LVL568
 8248 18cf 3E130000 		.4byte	0x133e
 8249 18d3 26       		.uleb128 0x26
 8250 18d4 01       		.uleb128 0x1
 8251 18d5 50       		.byte	0x50
 8252 18d6 05       		.uleb128 0x5
 8253 18d7 91       		.byte	0x91
 8254 18d8 A47E     		.sleb128 -220
 8255 18da 94       		.byte	0x94
 8256 18db 01       		.byte	0x1
 8257 18dc 26       		.uleb128 0x26
 8258 18dd 01       		.uleb128 0x1
 8259 18de 51       		.byte	0x51
 8260 18df 02       		.uleb128 0x2
 8261 18e0 77       		.byte	0x77
 8262 18e1 00       		.sleb128 0
 8263 18e2 26       		.uleb128 0x26
 8264 18e3 01       		.uleb128 0x1
 8265 18e4 52       		.byte	0x52
 8266 18e5 02       		.uleb128 0x2
 8267 18e6 75       		.byte	0x75
 8268 18e7 00       		.sleb128 0
 8269 18e8 26       		.uleb128 0x26
 8270 18e9 01       		.uleb128 0x1
 8271 18ea 53       		.byte	0x53
 8272 18eb 01       		.uleb128 0x1
 8273 18ec 31       		.byte	0x31
 8274 18ed 26       		.uleb128 0x26
 8275 18ee 02       		.uleb128 0x2
 8276 18ef 7D       		.byte	0x7d
 8277 18f0 00       		.sleb128 0
 8278 18f1 02       		.uleb128 0x2
 8279 18f2 76       		.byte	0x76
 8280 18f3 00       		.sleb128 0
 8281 18f4 26       		.uleb128 0x26
 8282 18f5 02       		.uleb128 0x2
 8283 18f6 7D       		.byte	0x7d
 8284 18f7 04       		.sleb128 4
 8285 18f8 03       		.uleb128 0x3
 8286 18f9 91       		.byte	0x91
 8287 18fa 00       		.sleb128 0
 8288 18fb 06       		.byte	0x6
 8289 18fc 00       		.byte	0
ARM GAS  C:\Users\rdn\AppData\Local\Temp\ccFEeGTH.s 			page 175


 8290 18fd 00       		.byte	0
 8291 18fe 0A       		.uleb128 0xa
 8292 18ff 04       		.byte	0x4
 8293 1900 04190000 		.4byte	0x1904
 8294 1904 0B       		.uleb128 0xb
 8295 1905 E8020000 		.4byte	0x2e8
 8296 1909 39       		.uleb128 0x39
 8297 190a DD030000 		.4byte	.LASF156
 8298 190e 01       		.byte	0x1
 8299 190f 3B03     		.2byte	0x33b
 8300 1911 85000000 		.4byte	0x85
 8301 1915 00000000 		.4byte	.LFB35
 8302 1919 04000000 		.4byte	.LFE35-.LFB35
 8303 191d 01       		.uleb128 0x1
 8304 191e 9C       		.byte	0x9c
 8305 191f 14       		.uleb128 0x14
 8306 1920 61020000 		.4byte	.LASF127
 8307 1924 03       		.byte	0x3
 8308 1925 D2       		.byte	0xd2
 8309 1926 03       		.byte	0x3
 8310 1927 40190000 		.4byte	0x1940
 8311 192b 15       		.uleb128 0x15
 8312 192c 0E040000 		.4byte	.LASF71
 8313 1930 03       		.byte	0x3
 8314 1931 D2       		.byte	0xd2
 8315 1932 40190000 		.4byte	0x1940
 8316 1936 0D       		.uleb128 0xd
 8317 1937 7600     		.ascii	"v\000"
 8318 1939 03       		.byte	0x3
 8319 193a D2       		.byte	0xd2
 8320 193b 85000000 		.4byte	0x85
 8321 193f 00       		.byte	0
 8322 1940 0A       		.uleb128 0xa
 8323 1941 04       		.byte	0x4
 8324 1942 70020000 		.4byte	0x270
 8325 1946 38       		.uleb128 0x38
 8326 1947 7E040000 		.4byte	.LASF128
 8327 194b 01       		.byte	0x1
 8328 194c 4303     		.2byte	0x343
 8329 194e 00000000 		.4byte	.LFB36
 8330 1952 74010000 		.4byte	.LFE36-.LFB36
 8331 1956 01       		.uleb128 0x1
 8332 1957 9C       		.byte	0x9c
 8333 1958 531D0000 		.4byte	0x1d53
 8334 195c 1E       		.uleb128 0x1e
 8335 195d 0E040000 		.4byte	.LASF71
 8336 1961 01       		.byte	0x1
 8337 1962 4303     		.2byte	0x343
 8338 1964 40190000 		.4byte	0x1940
 8339 1968 471A0000 		.4byte	.LLST161
 8340 196c 1E       		.uleb128 0x1e
 8341 196d 87030000 		.4byte	.LASF123
 8342 1971 01       		.byte	0x1
 8343 1972 4303     		.2byte	0x343
 8344 1974 531D0000 		.4byte	0x1d53
 8345 1978 731A0000 		.4byte	.LLST162
 8346 197c 1F       		.uleb128 0x1f
ARM GAS  C:\Users\rdn\AppData\Local\Temp\ccFEeGTH.s 			page 176


 8347 197d 0B010000 		.4byte	.LASF129
 8348 1981 01       		.byte	0x1
 8349 1982 4E03     		.2byte	0x34e
 8350 1984 85000000 		.4byte	0x85
 8351 1988 9F1A0000 		.4byte	.LLST163
 8352 198c 2E       		.uleb128 0x2e
 8353 198d F4030000 		.4byte	0x3f4
 8354 1991 08000000 		.4byte	.LBB139
 8355 1995 1A000000 		.4byte	.LBE139-.LBB139
 8356 1999 01       		.byte	0x1
 8357 199a 4703     		.2byte	0x347
 8358 199c DE190000 		.4byte	0x19de
 8359 19a0 2F       		.uleb128 0x2f
 8360 19a1 14040000 		.4byte	0x414
 8361 19a5 D31A0000 		.4byte	.LLST164
 8362 19a9 2F       		.uleb128 0x2f
 8363 19aa 0B040000 		.4byte	0x40b
 8364 19ae E71A0000 		.4byte	.LLST165
 8365 19b2 2F       		.uleb128 0x2f
 8366 19b3 00040000 		.4byte	0x400
 8367 19b7 111B0000 		.4byte	.LLST166
 8368 19bb 1A       		.uleb128 0x1a
 8369 19bc 08000000 		.4byte	.LBB140
 8370 19c0 1A000000 		.4byte	.LBE140-.LBB140
 8371 19c4 30       		.uleb128 0x30
 8372 19c5 1D040000 		.4byte	0x41d
 8373 19c9 2F1B0000 		.4byte	.LLST167
 8374 19cd 25       		.uleb128 0x25
 8375 19ce 22000000 		.4byte	.LVL576
 8376 19d2 41220000 		.4byte	0x2241
 8377 19d6 26       		.uleb128 0x26
 8378 19d7 01       		.uleb128 0x1
 8379 19d8 52       		.byte	0x52
 8380 19d9 01       		.uleb128 0x1
 8381 19da 35       		.byte	0x35
 8382 19db 00       		.byte	0
 8383 19dc 00       		.byte	0
 8384 19dd 00       		.byte	0
 8385 19de 2E       		.uleb128 0x2e
 8386 19df F4030000 		.4byte	0x3f4
 8387 19e3 24000000 		.4byte	.LBB141
 8388 19e7 1C000000 		.4byte	.LBE141-.LBB141
 8389 19eb 01       		.byte	0x1
 8390 19ec 4803     		.2byte	0x348
 8391 19ee 361A0000 		.4byte	0x1a36
 8392 19f2 2F       		.uleb128 0x2f
 8393 19f3 14040000 		.4byte	0x414
 8394 19f7 511B0000 		.4byte	.LLST168
 8395 19fb 2F       		.uleb128 0x2f
 8396 19fc 0B040000 		.4byte	0x40b
 8397 1a00 651B0000 		.4byte	.LLST169
 8398 1a04 2F       		.uleb128 0x2f
 8399 1a05 00040000 		.4byte	0x400
 8400 1a09 8F1B0000 		.4byte	.LLST170
 8401 1a0d 1A       		.uleb128 0x1a
 8402 1a0e 24000000 		.4byte	.LBB142
 8403 1a12 1C000000 		.4byte	.LBE142-.LBB142
ARM GAS  C:\Users\rdn\AppData\Local\Temp\ccFEeGTH.s 			page 177


 8404 1a16 30       		.uleb128 0x30
 8405 1a17 1D040000 		.4byte	0x41d
 8406 1a1b A21B0000 		.4byte	.LLST171
 8407 1a1f 25       		.uleb128 0x25
 8408 1a20 40000000 		.4byte	.LVL581
 8409 1a24 41220000 		.4byte	0x2241
 8410 1a28 26       		.uleb128 0x26
 8411 1a29 01       		.uleb128 0x1
 8412 1a2a 50       		.byte	0x50
 8413 1a2b 02       		.uleb128 0x2
 8414 1a2c 74       		.byte	0x74
 8415 1a2d 00       		.sleb128 0
 8416 1a2e 26       		.uleb128 0x26
 8417 1a2f 01       		.uleb128 0x1
 8418 1a30 52       		.byte	0x52
 8419 1a31 01       		.uleb128 0x1
 8420 1a32 35       		.byte	0x35
 8421 1a33 00       		.byte	0
 8422 1a34 00       		.byte	0
 8423 1a35 00       		.byte	0
 8424 1a36 2E       		.uleb128 0x2e
 8425 1a37 1F190000 		.4byte	0x191f
 8426 1a3b 44000000 		.4byte	.LBB143
 8427 1a3f 22000000 		.4byte	.LBE143-.LBB143
 8428 1a43 01       		.byte	0x1
 8429 1a44 4F03     		.2byte	0x34f
 8430 1a46 B61A0000 		.4byte	0x1ab6
 8431 1a4a 2F       		.uleb128 0x2f
 8432 1a4b 36190000 		.4byte	0x1936
 8433 1a4f B71B0000 		.4byte	.LLST172
 8434 1a53 2F       		.uleb128 0x2f
 8435 1a54 2B190000 		.4byte	0x192b
 8436 1a58 CA1B0000 		.4byte	.LLST173
 8437 1a5c 32       		.uleb128 0x32
 8438 1a5d F4030000 		.4byte	0x3f4
 8439 1a61 44000000 		.4byte	.LBB145
 8440 1a65 22000000 		.4byte	.LBE145-.LBB145
 8441 1a69 03       		.byte	0x3
 8442 1a6a D4       		.byte	0xd4
 8443 1a6b 2F       		.uleb128 0x2f
 8444 1a6c 14040000 		.4byte	0x414
 8445 1a70 DD1B0000 		.4byte	.LLST174
 8446 1a74 2F       		.uleb128 0x2f
 8447 1a75 0B040000 		.4byte	0x40b
 8448 1a79 B71B0000 		.4byte	.LLST172
 8449 1a7d 2F       		.uleb128 0x2f
 8450 1a7e 00040000 		.4byte	0x400
 8451 1a82 CA1B0000 		.4byte	.LLST173
 8452 1a86 1A       		.uleb128 0x1a
 8453 1a87 44000000 		.4byte	.LBB146
 8454 1a8b 22000000 		.4byte	.LBE146-.LBB146
 8455 1a8f 30       		.uleb128 0x30
 8456 1a90 1D040000 		.4byte	0x41d
 8457 1a94 F11B0000 		.4byte	.LLST177
 8458 1a98 25       		.uleb128 0x25
 8459 1a99 66000000 		.4byte	.LVL583
 8460 1a9d 41220000 		.4byte	0x2241
ARM GAS  C:\Users\rdn\AppData\Local\Temp\ccFEeGTH.s 			page 178


 8461 1aa1 26       		.uleb128 0x26
 8462 1aa2 01       		.uleb128 0x1
 8463 1aa3 50       		.byte	0x50
 8464 1aa4 02       		.uleb128 0x2
 8465 1aa5 74       		.byte	0x74
 8466 1aa6 00       		.sleb128 0
 8467 1aa7 26       		.uleb128 0x26
 8468 1aa8 01       		.uleb128 0x1
 8469 1aa9 51       		.byte	0x51
 8470 1aaa 02       		.uleb128 0x2
 8471 1aab 76       		.byte	0x76
 8472 1aac 00       		.sleb128 0
 8473 1aad 26       		.uleb128 0x26
 8474 1aae 01       		.uleb128 0x1
 8475 1aaf 52       		.byte	0x52
 8476 1ab0 01       		.uleb128 0x1
 8477 1ab1 31       		.byte	0x31
 8478 1ab2 00       		.byte	0
 8479 1ab3 00       		.byte	0
 8480 1ab4 00       		.byte	0
 8481 1ab5 00       		.byte	0
 8482 1ab6 24       		.uleb128 0x24
 8483 1ab7 6A000000 		.4byte	.LBB147
 8484 1abb 84000000 		.4byte	.LBE147-.LBB147
 8485 1abf 0E1C0000 		.4byte	0x1c0e
 8486 1ac3 1F       		.uleb128 0x1f
 8487 1ac4 AB020000 		.4byte	.LASF130
 8488 1ac8 01       		.byte	0x1
 8489 1ac9 5203     		.2byte	0x352
 8490 1acb 73080000 		.4byte	0x873
 8491 1acf 061C0000 		.4byte	.LLST178
 8492 1ad3 1F       		.uleb128 0x1f
 8493 1ad4 35060000 		.4byte	.LASF131
 8494 1ad8 01       		.byte	0x1
 8495 1ad9 5303     		.2byte	0x353
 8496 1adb 85000000 		.4byte	0x85
 8497 1adf 1E1C0000 		.4byte	.LLST179
 8498 1ae3 1F       		.uleb128 0x1f
 8499 1ae4 1C030000 		.4byte	.LASF132
 8500 1ae8 01       		.byte	0x1
 8501 1ae9 5503     		.2byte	0x355
 8502 1aeb 85000000 		.4byte	0x85
 8503 1aef 621C0000 		.4byte	.LLST180
 8504 1af3 1F       		.uleb128 0x1f
 8505 1af4 FB040000 		.4byte	.LASF133
 8506 1af8 01       		.byte	0x1
 8507 1af9 5703     		.2byte	0x357
 8508 1afb 85000000 		.4byte	0x85
 8509 1aff 751C0000 		.4byte	.LLST181
 8510 1b03 2E       		.uleb128 0x2e
 8511 1b04 F4030000 		.4byte	0x3f4
 8512 1b08 92000000 		.4byte	.LBB148
 8513 1b0c 1C000000 		.4byte	.LBE148-.LBB148
 8514 1b10 01       		.byte	0x1
 8515 1b11 5903     		.2byte	0x359
 8516 1b13 5B1B0000 		.4byte	0x1b5b
 8517 1b17 2F       		.uleb128 0x2f
ARM GAS  C:\Users\rdn\AppData\Local\Temp\ccFEeGTH.s 			page 179


 8518 1b18 14040000 		.4byte	0x414
 8519 1b1c 931C0000 		.4byte	.LLST182
 8520 1b20 2F       		.uleb128 0x2f
 8521 1b21 0B040000 		.4byte	0x40b
 8522 1b25 A71C0000 		.4byte	.LLST183
 8523 1b29 2F       		.uleb128 0x2f
 8524 1b2a 00040000 		.4byte	0x400
 8525 1b2e D91C0000 		.4byte	.LLST184
 8526 1b32 1A       		.uleb128 0x1a
 8527 1b33 92000000 		.4byte	.LBB149
 8528 1b37 1C000000 		.4byte	.LBE149-.LBB149
 8529 1b3b 30       		.uleb128 0x30
 8530 1b3c 1D040000 		.4byte	0x41d
 8531 1b40 EC1C0000 		.4byte	.LLST185
 8532 1b44 25       		.uleb128 0x25
 8533 1b45 AE000000 		.4byte	.LVL598
 8534 1b49 41220000 		.4byte	0x2241
 8535 1b4d 26       		.uleb128 0x26
 8536 1b4e 01       		.uleb128 0x1
 8537 1b4f 50       		.byte	0x50
 8538 1b50 02       		.uleb128 0x2
 8539 1b51 74       		.byte	0x74
 8540 1b52 00       		.sleb128 0
 8541 1b53 26       		.uleb128 0x26
 8542 1b54 01       		.uleb128 0x1
 8543 1b55 52       		.byte	0x52
 8544 1b56 01       		.uleb128 0x1
 8545 1b57 31       		.byte	0x31
 8546 1b58 00       		.byte	0
 8547 1b59 00       		.byte	0
 8548 1b5a 00       		.byte	0
 8549 1b5b 2E       		.uleb128 0x2e
 8550 1b5c F4030000 		.4byte	0x3f4
 8551 1b60 B0000000 		.4byte	.LBB150
 8552 1b64 1C000000 		.4byte	.LBE150-.LBB150
 8553 1b68 01       		.byte	0x1
 8554 1b69 5A03     		.2byte	0x35a
 8555 1b6b B31B0000 		.4byte	0x1bb3
 8556 1b6f 2F       		.uleb128 0x2f
 8557 1b70 14040000 		.4byte	0x414
 8558 1b74 011D0000 		.4byte	.LLST186
 8559 1b78 2F       		.uleb128 0x2f
 8560 1b79 0B040000 		.4byte	0x40b
 8561 1b7d 151D0000 		.4byte	.LLST187
 8562 1b81 2F       		.uleb128 0x2f
 8563 1b82 00040000 		.4byte	0x400
 8564 1b86 451D0000 		.4byte	.LLST188
 8565 1b8a 1A       		.uleb128 0x1a
 8566 1b8b B0000000 		.4byte	.LBB151
 8567 1b8f 1C000000 		.4byte	.LBE151-.LBB151
 8568 1b93 30       		.uleb128 0x30
 8569 1b94 1D040000 		.4byte	0x41d
 8570 1b98 581D0000 		.4byte	.LLST189
 8571 1b9c 25       		.uleb128 0x25
 8572 1b9d CC000000 		.4byte	.LVL603
 8573 1ba1 41220000 		.4byte	0x2241
 8574 1ba5 26       		.uleb128 0x26
ARM GAS  C:\Users\rdn\AppData\Local\Temp\ccFEeGTH.s 			page 180


 8575 1ba6 01       		.uleb128 0x1
 8576 1ba7 50       		.byte	0x50
 8577 1ba8 02       		.uleb128 0x2
 8578 1ba9 74       		.byte	0x74
 8579 1baa 00       		.sleb128 0
 8580 1bab 26       		.uleb128 0x26
 8581 1bac 01       		.uleb128 0x1
 8582 1bad 52       		.byte	0x52
 8583 1bae 01       		.uleb128 0x1
 8584 1baf 31       		.byte	0x31
 8585 1bb0 00       		.byte	0
 8586 1bb1 00       		.byte	0
 8587 1bb2 00       		.byte	0
 8588 1bb3 36       		.uleb128 0x36
 8589 1bb4 F4030000 		.4byte	0x3f4
 8590 1bb8 CC000000 		.4byte	.LBB152
 8591 1bbc 22000000 		.4byte	.LBE152-.LBB152
 8592 1bc0 01       		.byte	0x1
 8593 1bc1 5B03     		.2byte	0x35b
 8594 1bc3 2F       		.uleb128 0x2f
 8595 1bc4 14040000 		.4byte	0x414
 8596 1bc8 6D1D0000 		.4byte	.LLST190
 8597 1bcc 2F       		.uleb128 0x2f
 8598 1bcd 0B040000 		.4byte	0x40b
 8599 1bd1 811D0000 		.4byte	.LLST191
 8600 1bd5 2F       		.uleb128 0x2f
 8601 1bd6 00040000 		.4byte	0x400
 8602 1bda 9F1D0000 		.4byte	.LLST192
 8603 1bde 1A       		.uleb128 0x1a
 8604 1bdf CC000000 		.4byte	.LBB153
 8605 1be3 22000000 		.4byte	.LBE153-.LBB153
 8606 1be7 30       		.uleb128 0x30
 8607 1be8 1D040000 		.4byte	0x41d
 8608 1bec B21D0000 		.4byte	.LLST193
 8609 1bf0 25       		.uleb128 0x25
 8610 1bf1 EC000000 		.4byte	.LVL606
 8611 1bf5 41220000 		.4byte	0x2241
 8612 1bf9 26       		.uleb128 0x26
 8613 1bfa 01       		.uleb128 0x1
 8614 1bfb 50       		.byte	0x50
 8615 1bfc 02       		.uleb128 0x2
 8616 1bfd 74       		.byte	0x74
 8617 1bfe 00       		.sleb128 0
 8618 1bff 26       		.uleb128 0x26
 8619 1c00 01       		.uleb128 0x1
 8620 1c01 51       		.byte	0x51
 8621 1c02 02       		.uleb128 0x2
 8622 1c03 76       		.byte	0x76
 8623 1c04 00       		.sleb128 0
 8624 1c05 26       		.uleb128 0x26
 8625 1c06 01       		.uleb128 0x1
 8626 1c07 52       		.byte	0x52
 8627 1c08 01       		.uleb128 0x1
 8628 1c09 49       		.byte	0x49
 8629 1c0a 00       		.byte	0
 8630 1c0b 00       		.byte	0
 8631 1c0c 00       		.byte	0
ARM GAS  C:\Users\rdn\AppData\Local\Temp\ccFEeGTH.s 			page 181


 8632 1c0d 00       		.byte	0
 8633 1c0e 1A       		.uleb128 0x1a
 8634 1c0f EE000000 		.4byte	.LBB154
 8635 1c13 7C000000 		.4byte	.LBE154-.LBB154
 8636 1c17 1F       		.uleb128 0x1f
 8637 1c18 AB020000 		.4byte	.LASF130
 8638 1c1c 01       		.byte	0x1
 8639 1c1d 5E03     		.2byte	0x35e
 8640 1c1f 73080000 		.4byte	0x873
 8641 1c23 C71D0000 		.4byte	.LLST194
 8642 1c27 1F       		.uleb128 0x1f
 8643 1c28 35060000 		.4byte	.LASF131
 8644 1c2c 01       		.byte	0x1
 8645 1c2d 5F03     		.2byte	0x35f
 8646 1c2f 85000000 		.4byte	0x85
 8647 1c33 DF1D0000 		.4byte	.LLST195
 8648 1c37 1F       		.uleb128 0x1f
 8649 1c38 FB040000 		.4byte	.LASF133
 8650 1c3c 01       		.byte	0x1
 8651 1c3d 6103     		.2byte	0x361
 8652 1c3f 85000000 		.4byte	0x85
 8653 1c43 121E0000 		.4byte	.LLST196
 8654 1c47 2E       		.uleb128 0x2e
 8655 1c48 F4030000 		.4byte	0x3f4
 8656 1c4c 10010000 		.4byte	.LBB155
 8657 1c50 1C000000 		.4byte	.LBE155-.LBB155
 8658 1c54 01       		.byte	0x1
 8659 1c55 6403     		.2byte	0x364
 8660 1c57 9F1C0000 		.4byte	0x1c9f
 8661 1c5b 2F       		.uleb128 0x2f
 8662 1c5c 14040000 		.4byte	0x414
 8663 1c60 301E0000 		.4byte	.LLST197
 8664 1c64 2F       		.uleb128 0x2f
 8665 1c65 0B040000 		.4byte	0x40b
 8666 1c69 441E0000 		.4byte	.LLST198
 8667 1c6d 2F       		.uleb128 0x2f
 8668 1c6e 00040000 		.4byte	0x400
 8669 1c72 761E0000 		.4byte	.LLST199
 8670 1c76 1A       		.uleb128 0x1a
 8671 1c77 10010000 		.4byte	.LBB156
 8672 1c7b 1C000000 		.4byte	.LBE156-.LBB156
 8673 1c7f 30       		.uleb128 0x30
 8674 1c80 1D040000 		.4byte	0x41d
 8675 1c84 891E0000 		.4byte	.LLST200
 8676 1c88 25       		.uleb128 0x25
 8677 1c89 2C010000 		.4byte	.LVL618
 8678 1c8d 41220000 		.4byte	0x2241
 8679 1c91 26       		.uleb128 0x26
 8680 1c92 01       		.uleb128 0x1
 8681 1c93 50       		.byte	0x50
 8682 1c94 02       		.uleb128 0x2
 8683 1c95 74       		.byte	0x74
 8684 1c96 00       		.sleb128 0
 8685 1c97 26       		.uleb128 0x26
 8686 1c98 01       		.uleb128 0x1
 8687 1c99 52       		.byte	0x52
 8688 1c9a 01       		.uleb128 0x1
ARM GAS  C:\Users\rdn\AppData\Local\Temp\ccFEeGTH.s 			page 182


 8689 1c9b 32       		.byte	0x32
 8690 1c9c 00       		.byte	0
 8691 1c9d 00       		.byte	0
 8692 1c9e 00       		.byte	0
 8693 1c9f 2E       		.uleb128 0x2e
 8694 1ca0 F4030000 		.4byte	0x3f4
 8695 1ca4 2E010000 		.4byte	.LBB157
 8696 1ca8 1C000000 		.4byte	.LBE157-.LBB157
 8697 1cac 01       		.byte	0x1
 8698 1cad 6503     		.2byte	0x365
 8699 1caf F71C0000 		.4byte	0x1cf7
 8700 1cb3 2F       		.uleb128 0x2f
 8701 1cb4 14040000 		.4byte	0x414
 8702 1cb8 9E1E0000 		.4byte	.LLST201
 8703 1cbc 2F       		.uleb128 0x2f
 8704 1cbd 0B040000 		.4byte	0x40b
 8705 1cc1 B21E0000 		.4byte	.LLST202
 8706 1cc5 2F       		.uleb128 0x2f
 8707 1cc6 00040000 		.4byte	0x400
 8708 1cca E21E0000 		.4byte	.LLST203
 8709 1cce 1A       		.uleb128 0x1a
 8710 1ccf 2E010000 		.4byte	.LBB158
 8711 1cd3 1C000000 		.4byte	.LBE158-.LBB158
 8712 1cd7 30       		.uleb128 0x30
 8713 1cd8 1D040000 		.4byte	0x41d
 8714 1cdc F51E0000 		.4byte	.LLST204
 8715 1ce0 25       		.uleb128 0x25
 8716 1ce1 4A010000 		.4byte	.LVL623
 8717 1ce5 41220000 		.4byte	0x2241
 8718 1ce9 26       		.uleb128 0x26
 8719 1cea 01       		.uleb128 0x1
 8720 1ceb 50       		.byte	0x50
 8721 1cec 02       		.uleb128 0x2
 8722 1ced 74       		.byte	0x74
 8723 1cee 00       		.sleb128 0
 8724 1cef 26       		.uleb128 0x26
 8725 1cf0 01       		.uleb128 0x1
 8726 1cf1 52       		.byte	0x52
 8727 1cf2 01       		.uleb128 0x1
 8728 1cf3 31       		.byte	0x31
 8729 1cf4 00       		.byte	0
 8730 1cf5 00       		.byte	0
 8731 1cf6 00       		.byte	0
 8732 1cf7 36       		.uleb128 0x36
 8733 1cf8 F4030000 		.4byte	0x3f4
 8734 1cfc 4A010000 		.4byte	.LBB159
 8735 1d00 20000000 		.4byte	.LBE159-.LBB159
 8736 1d04 01       		.byte	0x1
 8737 1d05 6603     		.2byte	0x366
 8738 1d07 2F       		.uleb128 0x2f
 8739 1d08 14040000 		.4byte	0x414
 8740 1d0c 0A1F0000 		.4byte	.LLST205
 8741 1d10 2F       		.uleb128 0x2f
 8742 1d11 0B040000 		.4byte	0x40b
 8743 1d15 1E1F0000 		.4byte	.LLST206
 8744 1d19 2F       		.uleb128 0x2f
 8745 1d1a 00040000 		.4byte	0x400
ARM GAS  C:\Users\rdn\AppData\Local\Temp\ccFEeGTH.s 			page 183


 8746 1d1e 3C1F0000 		.4byte	.LLST207
 8747 1d22 1A       		.uleb128 0x1a
 8748 1d23 4A010000 		.4byte	.LBB160
 8749 1d27 20000000 		.4byte	.LBE160-.LBB160
 8750 1d2b 30       		.uleb128 0x30
 8751 1d2c 1D040000 		.4byte	0x41d
 8752 1d30 4F1F0000 		.4byte	.LLST208
 8753 1d34 25       		.uleb128 0x25
 8754 1d35 6A010000 		.4byte	.LVL626
 8755 1d39 41220000 		.4byte	0x2241
 8756 1d3d 26       		.uleb128 0x26
 8757 1d3e 01       		.uleb128 0x1
 8758 1d3f 50       		.byte	0x50
 8759 1d40 02       		.uleb128 0x2
 8760 1d41 74       		.byte	0x74
 8761 1d42 00       		.sleb128 0
 8762 1d43 26       		.uleb128 0x26
 8763 1d44 01       		.uleb128 0x1
 8764 1d45 51       		.byte	0x51
 8765 1d46 02       		.uleb128 0x2
 8766 1d47 76       		.byte	0x76
 8767 1d48 00       		.sleb128 0
 8768 1d49 26       		.uleb128 0x26
 8769 1d4a 01       		.uleb128 0x1
 8770 1d4b 52       		.byte	0x52
 8771 1d4c 01       		.uleb128 0x1
 8772 1d4d 48       		.byte	0x48
 8773 1d4e 00       		.byte	0
 8774 1d4f 00       		.byte	0
 8775 1d50 00       		.byte	0
 8776 1d51 00       		.byte	0
 8777 1d52 00       		.byte	0
 8778 1d53 0A       		.uleb128 0xa
 8779 1d54 04       		.byte	0x4
 8780 1d55 591D0000 		.4byte	0x1d59
 8781 1d59 0B       		.uleb128 0xb
 8782 1d5a 7B020000 		.4byte	0x27b
 8783 1d5e 0C       		.uleb128 0xc
 8784 1d5f 29040000 		.4byte	.LASF134
 8785 1d63 03       		.byte	0x3
 8786 1d64 EA       		.byte	0xea
 8787 1d65 85000000 		.4byte	0x85
 8788 1d69 03       		.byte	0x3
 8789 1d6a 7A1D0000 		.4byte	0x1d7a
 8790 1d6e 15       		.uleb128 0x15
 8791 1d6f 0E040000 		.4byte	.LASF71
 8792 1d73 03       		.byte	0x3
 8793 1d74 EA       		.byte	0xea
 8794 1d75 40190000 		.4byte	0x1940
 8795 1d79 00       		.byte	0
 8796 1d7a 3A       		.uleb128 0x3a
 8797 1d7b E2000000 		.4byte	.LASF157
 8798 1d7f 01       		.byte	0x1
 8799 1d80 6D03     		.2byte	0x36d
 8800 1d82 85000000 		.4byte	0x85
 8801 1d86 00000000 		.4byte	.LFB37
 8802 1d8a A0010000 		.4byte	.LFE37-.LFB37
ARM GAS  C:\Users\rdn\AppData\Local\Temp\ccFEeGTH.s 			page 184


 8803 1d8e 01       		.uleb128 0x1
 8804 1d8f 9C       		.byte	0x9c
 8805 1d90 A5200000 		.4byte	0x20a5
 8806 1d94 1E       		.uleb128 0x1e
 8807 1d95 0E040000 		.4byte	.LASF71
 8808 1d99 01       		.byte	0x1
 8809 1d9a 6D03     		.2byte	0x36d
 8810 1d9c 40190000 		.4byte	0x1940
 8811 1da0 641F0000 		.4byte	.LLST209
 8812 1da4 1E       		.uleb128 0x1e
 8813 1da5 87030000 		.4byte	.LASF123
 8814 1da9 01       		.byte	0x1
 8815 1daa 6D03     		.2byte	0x36d
 8816 1dac C0170000 		.4byte	0x17c0
 8817 1db0 A61F0000 		.4byte	.LLST210
 8818 1db4 35       		.uleb128 0x35
 8819 1db5 0B010000 		.4byte	.LASF129
 8820 1db9 01       		.byte	0x1
 8821 1dba 7803     		.2byte	0x378
 8822 1dbc 85000000 		.4byte	0x85
 8823 1dc0 1F       		.uleb128 0x1f
 8824 1dc1 FB040000 		.4byte	.LASF133
 8825 1dc5 01       		.byte	0x1
 8826 1dc6 7C03     		.2byte	0x37c
 8827 1dc8 85000000 		.4byte	0x85
 8828 1dcc E81F0000 		.4byte	.LLST211
 8829 1dd0 2E       		.uleb128 0x2e
 8830 1dd1 35040000 		.4byte	0x435
 8831 1dd5 06000000 		.4byte	.LBB185
 8832 1dd9 1C000000 		.4byte	.LBE185-.LBB185
 8833 1ddd 01       		.byte	0x1
 8834 1dde 7203     		.2byte	0x372
 8835 1de0 301E0000 		.4byte	0x1e30
 8836 1de4 2F       		.uleb128 0x2f
 8837 1de5 50040000 		.4byte	0x450
 8838 1de9 9C200000 		.4byte	.LLST212
 8839 1ded 2F       		.uleb128 0x2f
 8840 1dee 45040000 		.4byte	0x445
 8841 1df2 B0200000 		.4byte	.LLST213
 8842 1df6 1A       		.uleb128 0x1a
 8843 1df7 06000000 		.4byte	.LBB186
 8844 1dfb 1C000000 		.4byte	.LBE186-.LBB186
 8845 1dff 30       		.uleb128 0x30
 8846 1e00 59040000 		.4byte	0x459
 8847 1e04 E4200000 		.4byte	.LLST214
 8848 1e08 24       		.uleb128 0x24
 8849 1e09 0E000000 		.4byte	.LBB187
 8850 1e0d 0E000000 		.4byte	.LBE187-.LBB187
 8851 1e11 1F1E0000 		.4byte	0x1e1f
 8852 1e15 30       		.uleb128 0x30
 8853 1e16 65040000 		.4byte	0x465
 8854 1e1a 30210000 		.4byte	.LLST215
 8855 1e1e 00       		.byte	0
 8856 1e1f 25       		.uleb128 0x25
 8857 1e20 22000000 		.4byte	.LVL636
 8858 1e24 4C220000 		.4byte	0x224c
 8859 1e28 26       		.uleb128 0x26
ARM GAS  C:\Users\rdn\AppData\Local\Temp\ccFEeGTH.s 			page 185


 8860 1e29 01       		.uleb128 0x1
 8861 1e2a 51       		.byte	0x51
 8862 1e2b 01       		.uleb128 0x1
 8863 1e2c 35       		.byte	0x35
 8864 1e2d 00       		.byte	0
 8865 1e2e 00       		.byte	0
 8866 1e2f 00       		.byte	0
 8867 1e30 2E       		.uleb128 0x2e
 8868 1e31 35040000 		.4byte	0x435
 8869 1e35 24000000 		.4byte	.LBB188
 8870 1e39 1E000000 		.4byte	.LBE188-.LBB188
 8871 1e3d 01       		.byte	0x1
 8872 1e3e 7303     		.2byte	0x373
 8873 1e40 961E0000 		.4byte	0x1e96
 8874 1e44 2F       		.uleb128 0x2f
 8875 1e45 50040000 		.4byte	0x450
 8876 1e49 43210000 		.4byte	.LLST216
 8877 1e4d 2F       		.uleb128 0x2f
 8878 1e4e 45040000 		.4byte	0x445
 8879 1e52 57210000 		.4byte	.LLST217
 8880 1e56 1A       		.uleb128 0x1a
 8881 1e57 24000000 		.4byte	.LBB189
 8882 1e5b 1E000000 		.4byte	.LBE189-.LBB189
 8883 1e5f 30       		.uleb128 0x30
 8884 1e60 59040000 		.4byte	0x459
 8885 1e64 6A210000 		.4byte	.LLST218
 8886 1e68 24       		.uleb128 0x24
 8887 1e69 2C000000 		.4byte	.LBB190
 8888 1e6d 0C000000 		.4byte	.LBE190-.LBB190
 8889 1e71 7F1E0000 		.4byte	0x1e7f
 8890 1e75 30       		.uleb128 0x30
 8891 1e76 65040000 		.4byte	0x465
 8892 1e7a 8F210000 		.4byte	.LLST219
 8893 1e7e 00       		.byte	0
 8894 1e7f 25       		.uleb128 0x25
 8895 1e80 40000000 		.4byte	.LVL640
 8896 1e84 4C220000 		.4byte	0x224c
 8897 1e88 26       		.uleb128 0x26
 8898 1e89 01       		.uleb128 0x1
 8899 1e8a 50       		.byte	0x50
 8900 1e8b 02       		.uleb128 0x2
 8901 1e8c 74       		.byte	0x74
 8902 1e8d 00       		.sleb128 0
 8903 1e8e 26       		.uleb128 0x26
 8904 1e8f 01       		.uleb128 0x1
 8905 1e90 51       		.byte	0x51
 8906 1e91 01       		.uleb128 0x1
 8907 1e92 35       		.byte	0x35
 8908 1e93 00       		.byte	0
 8909 1e94 00       		.byte	0
 8910 1e95 00       		.byte	0
 8911 1e96 2E       		.uleb128 0x2e
 8912 1e97 5E1D0000 		.4byte	0x1d5e
 8913 1e9b 50000000 		.4byte	.LBB191
 8914 1e9f 22000000 		.4byte	.LBE191-.LBB191
 8915 1ea3 01       		.byte	0x1
 8916 1ea4 7803     		.2byte	0x378
ARM GAS  C:\Users\rdn\AppData\Local\Temp\ccFEeGTH.s 			page 186


 8917 1ea6 151F0000 		.4byte	0x1f15
 8918 1eaa 2F       		.uleb128 0x2f
 8919 1eab 6E1D0000 		.4byte	0x1d6e
 8920 1eaf A2210000 		.4byte	.LLST220
 8921 1eb3 32       		.uleb128 0x32
 8922 1eb4 35040000 		.4byte	0x435
 8923 1eb8 50000000 		.4byte	.LBB193
 8924 1ebc 20000000 		.4byte	.LBE193-.LBB193
 8925 1ec0 03       		.byte	0x3
 8926 1ec1 EC       		.byte	0xec
 8927 1ec2 2F       		.uleb128 0x2f
 8928 1ec3 50040000 		.4byte	0x450
 8929 1ec7 B5210000 		.4byte	.LLST221
 8930 1ecb 2F       		.uleb128 0x2f
 8931 1ecc 45040000 		.4byte	0x445
 8932 1ed0 C9210000 		.4byte	.LLST222
 8933 1ed4 1A       		.uleb128 0x1a
 8934 1ed5 50000000 		.4byte	.LBB194
 8935 1ed9 20000000 		.4byte	.LBE194-.LBB194
 8936 1edd 30       		.uleb128 0x30
 8937 1ede 59040000 		.4byte	0x459
 8938 1ee2 DC210000 		.4byte	.LLST223
 8939 1ee6 24       		.uleb128 0x24
 8940 1ee7 58000000 		.4byte	.LBB195
 8941 1eeb 10000000 		.4byte	.LBE195-.LBB195
 8942 1eef FD1E0000 		.4byte	0x1efd
 8943 1ef3 30       		.uleb128 0x30
 8944 1ef4 65040000 		.4byte	0x465
 8945 1ef8 01220000 		.4byte	.LLST224
 8946 1efc 00       		.byte	0
 8947 1efd 25       		.uleb128 0x25
 8948 1efe 70000000 		.4byte	.LVL646
 8949 1f02 4C220000 		.4byte	0x224c
 8950 1f06 26       		.uleb128 0x26
 8951 1f07 01       		.uleb128 0x1
 8952 1f08 50       		.byte	0x50
 8953 1f09 02       		.uleb128 0x2
 8954 1f0a 74       		.byte	0x74
 8955 1f0b 00       		.sleb128 0
 8956 1f0c 26       		.uleb128 0x26
 8957 1f0d 01       		.uleb128 0x1
 8958 1f0e 51       		.byte	0x51
 8959 1f0f 01       		.uleb128 0x1
 8960 1f10 31       		.byte	0x31
 8961 1f11 00       		.byte	0
 8962 1f12 00       		.byte	0
 8963 1f13 00       		.byte	0
 8964 1f14 00       		.byte	0
 8965 1f15 2E       		.uleb128 0x2e
 8966 1f16 35040000 		.4byte	0x435
 8967 1f1a 74000000 		.4byte	.LBB196
 8968 1f1e 20000000 		.4byte	.LBE196-.LBB196
 8969 1f22 01       		.byte	0x1
 8970 1f23 7903     		.2byte	0x379
 8971 1f25 761F0000 		.4byte	0x1f76
 8972 1f29 2F       		.uleb128 0x2f
 8973 1f2a 50040000 		.4byte	0x450
ARM GAS  C:\Users\rdn\AppData\Local\Temp\ccFEeGTH.s 			page 187


 8974 1f2e 14220000 		.4byte	.LLST225
 8975 1f32 2F       		.uleb128 0x2f
 8976 1f33 45040000 		.4byte	0x445
 8977 1f37 34220000 		.4byte	.LLST226
 8978 1f3b 1A       		.uleb128 0x1a
 8979 1f3c 74000000 		.4byte	.LBB197
 8980 1f40 20000000 		.4byte	.LBE197-.LBB197
 8981 1f44 30       		.uleb128 0x30
 8982 1f45 59040000 		.4byte	0x459
 8983 1f49 47220000 		.4byte	.LLST227
 8984 1f4d 24       		.uleb128 0x24
 8985 1f4e 7C000000 		.4byte	.LBB198
 8986 1f52 12000000 		.4byte	.LBE198-.LBB198
 8987 1f56 641F0000 		.4byte	0x1f64
 8988 1f5a 30       		.uleb128 0x30
 8989 1f5b 65040000 		.4byte	0x465
 8990 1f5f 6C220000 		.4byte	.LLST228
 8991 1f63 00       		.byte	0
 8992 1f64 25       		.uleb128 0x25
 8993 1f65 94000000 		.4byte	.LVL651
 8994 1f69 4C220000 		.4byte	0x224c
 8995 1f6d 26       		.uleb128 0x26
 8996 1f6e 01       		.uleb128 0x1
 8997 1f6f 50       		.byte	0x50
 8998 1f70 02       		.uleb128 0x2
 8999 1f71 74       		.byte	0x74
 9000 1f72 00       		.sleb128 0
 9001 1f73 00       		.byte	0
 9002 1f74 00       		.byte	0
 9003 1f75 00       		.byte	0
 9004 1f76 2E       		.uleb128 0x2e
 9005 1f77 5E1D0000 		.4byte	0x1d5e
 9006 1f7b 96000000 		.4byte	.LBB199
 9007 1f7f 1C000000 		.4byte	.LBE199-.LBB199
 9008 1f83 01       		.byte	0x1
 9009 1f84 7A03     		.2byte	0x37a
 9010 1f86 F51F0000 		.4byte	0x1ff5
 9011 1f8a 2F       		.uleb128 0x2f
 9012 1f8b 6E1D0000 		.4byte	0x1d6e
 9013 1f8f 7F220000 		.4byte	.LLST229
 9014 1f93 32       		.uleb128 0x32
 9015 1f94 35040000 		.4byte	0x435
 9016 1f98 96000000 		.4byte	.LBB201
 9017 1f9c 1C000000 		.4byte	.LBE201-.LBB201
 9018 1fa0 03       		.byte	0x3
 9019 1fa1 EC       		.byte	0xec
 9020 1fa2 2F       		.uleb128 0x2f
 9021 1fa3 50040000 		.4byte	0x450
 9022 1fa7 92220000 		.4byte	.LLST230
 9023 1fab 2F       		.uleb128 0x2f
 9024 1fac 45040000 		.4byte	0x445
 9025 1fb0 7F220000 		.4byte	.LLST229
 9026 1fb4 1A       		.uleb128 0x1a
 9027 1fb5 96000000 		.4byte	.LBB202
 9028 1fb9 1C000000 		.4byte	.LBE202-.LBB202
 9029 1fbd 30       		.uleb128 0x30
 9030 1fbe 59040000 		.4byte	0x459
ARM GAS  C:\Users\rdn\AppData\Local\Temp\ccFEeGTH.s 			page 188


 9031 1fc2 A6220000 		.4byte	.LLST232
 9032 1fc6 24       		.uleb128 0x24
 9033 1fc7 9E000000 		.4byte	.LBB203
 9034 1fcb 0C000000 		.4byte	.LBE203-.LBB203
 9035 1fcf DD1F0000 		.4byte	0x1fdd
 9036 1fd3 30       		.uleb128 0x30
 9037 1fd4 65040000 		.4byte	0x465
 9038 1fd8 CB220000 		.4byte	.LLST233
 9039 1fdc 00       		.byte	0
 9040 1fdd 25       		.uleb128 0x25
 9041 1fde B2000000 		.4byte	.LVL655
 9042 1fe2 4C220000 		.4byte	0x224c
 9043 1fe6 26       		.uleb128 0x26
 9044 1fe7 01       		.uleb128 0x1
 9045 1fe8 50       		.byte	0x50
 9046 1fe9 02       		.uleb128 0x2
 9047 1fea 74       		.byte	0x74
 9048 1feb 00       		.sleb128 0
 9049 1fec 26       		.uleb128 0x26
 9050 1fed 01       		.uleb128 0x1
 9051 1fee 51       		.byte	0x51
 9052 1fef 01       		.uleb128 0x1
 9053 1ff0 31       		.byte	0x31
 9054 1ff1 00       		.byte	0
 9055 1ff2 00       		.byte	0
 9056 1ff3 00       		.byte	0
 9057 1ff4 00       		.byte	0
 9058 1ff5 2E       		.uleb128 0x2e
 9059 1ff6 35040000 		.4byte	0x435
 9060 1ffa BC000000 		.4byte	.LBB204
 9061 1ffe 20000000 		.4byte	.LBE204-.LBB204
 9062 2002 01       		.byte	0x1
 9063 2003 7C03     		.2byte	0x37c
 9064 2005 56200000 		.4byte	0x2056
 9065 2009 2F       		.uleb128 0x2f
 9066 200a 50040000 		.4byte	0x450
 9067 200e DE220000 		.4byte	.LLST234
 9068 2012 2F       		.uleb128 0x2f
 9069 2013 45040000 		.4byte	0x445
 9070 2017 00230000 		.4byte	.LLST235
 9071 201b 1A       		.uleb128 0x1a
 9072 201c BC000000 		.4byte	.LBB205
 9073 2020 20000000 		.4byte	.LBE205-.LBB205
 9074 2024 30       		.uleb128 0x30
 9075 2025 59040000 		.4byte	0x459
 9076 2029 13230000 		.4byte	.LLST236
 9077 202d 24       		.uleb128 0x24
 9078 202e C4000000 		.4byte	.LBB206
 9079 2032 12000000 		.4byte	.LBE206-.LBB206
 9080 2036 44200000 		.4byte	0x2044
 9081 203a 30       		.uleb128 0x30
 9082 203b 65040000 		.4byte	0x465
 9083 203f 38230000 		.4byte	.LLST237
 9084 2043 00       		.byte	0
 9085 2044 25       		.uleb128 0x25
 9086 2045 DC000000 		.4byte	.LVL659
 9087 2049 4C220000 		.4byte	0x224c
ARM GAS  C:\Users\rdn\AppData\Local\Temp\ccFEeGTH.s 			page 189


 9088 204d 26       		.uleb128 0x26
 9089 204e 01       		.uleb128 0x1
 9090 204f 50       		.byte	0x50
 9091 2050 02       		.uleb128 0x2
 9092 2051 74       		.byte	0x74
 9093 2052 00       		.sleb128 0
 9094 2053 00       		.byte	0
 9095 2054 00       		.byte	0
 9096 2055 00       		.byte	0
 9097 2056 2D       		.uleb128 0x2d
 9098 2057 40010000 		.4byte	.Ldebug_ranges0+0x140
 9099 205b 70200000 		.4byte	0x2070
 9100 205f 1F       		.uleb128 0x1f
 9101 2060 AB020000 		.4byte	.LASF130
 9102 2064 01       		.byte	0x1
 9103 2065 7F03     		.2byte	0x37f
 9104 2067 73080000 		.4byte	0x873
 9105 206b 4B230000 		.4byte	.LLST238
 9106 206f 00       		.byte	0
 9107 2070 2D       		.uleb128 0x2d
 9108 2071 58010000 		.4byte	.Ldebug_ranges0+0x158
 9109 2075 8A200000 		.4byte	0x208a
 9110 2079 1F       		.uleb128 0x1f
 9111 207a AB020000 		.4byte	.LASF130
 9112 207e 01       		.byte	0x1
 9113 207f 9103     		.2byte	0x391
 9114 2081 73080000 		.4byte	0x873
 9115 2085 73230000 		.4byte	.LLST239
 9116 2089 00       		.byte	0
 9117 208a 25       		.uleb128 0x25
 9118 208b 4C000000 		.4byte	.LVL642
 9119 208f 38220000 		.4byte	0x2238
 9120 2093 26       		.uleb128 0x26
 9121 2094 01       		.uleb128 0x1
 9122 2095 50       		.byte	0x50
 9123 2096 02       		.uleb128 0x2
 9124 2097 75       		.byte	0x75
 9125 2098 00       		.sleb128 0
 9126 2099 26       		.uleb128 0x26
 9127 209a 01       		.uleb128 0x1
 9128 209b 51       		.byte	0x51
 9129 209c 01       		.uleb128 0x1
 9130 209d 30       		.byte	0x30
 9131 209e 26       		.uleb128 0x26
 9132 209f 01       		.uleb128 0x1
 9133 20a0 52       		.byte	0x52
 9134 20a1 01       		.uleb128 0x1
 9135 20a2 4C       		.byte	0x4c
 9136 20a3 00       		.byte	0
 9137 20a4 00       		.byte	0
 9138 20a5 12       		.uleb128 0x12
 9139 20a6 1C030000 		.4byte	0x31c
 9140 20aa BB200000 		.4byte	0x20bb
 9141 20ae 13       		.uleb128 0x13
 9142 20af 2B010000 		.4byte	0x12b
 9143 20b3 0F       		.byte	0xf
 9144 20b4 13       		.uleb128 0x13
ARM GAS  C:\Users\rdn\AppData\Local\Temp\ccFEeGTH.s 			page 190


 9145 20b5 2B010000 		.4byte	0x12b
 9146 20b9 0F       		.byte	0xf
 9147 20ba 00       		.byte	0
 9148 20bb 2A       		.uleb128 0x2a
 9149 20bc ED050000 		.4byte	.LASF135
 9150 20c0 01       		.byte	0x1
 9151 20c1 23       		.byte	0x23
 9152 20c2 CC200000 		.4byte	0x20cc
 9153 20c6 05       		.uleb128 0x5
 9154 20c7 03       		.byte	0x3
 9155 20c8 00000000 		.4byte	dct16_m
 9156 20cc 0B       		.uleb128 0xb
 9157 20cd A5200000 		.4byte	0x20a5
 9158 20d1 12       		.uleb128 0x12
 9159 20d2 73080000 		.4byte	0x873
 9160 20d6 E1200000 		.4byte	0x20e1
 9161 20da 13       		.uleb128 0x13
 9162 20db 2B010000 		.4byte	0x12b
 9163 20df 06       		.byte	0x6
 9164 20e0 00       		.byte	0
 9165 20e1 3B       		.uleb128 0x3b
 9166 20e2 15010000 		.4byte	.LASF136
 9167 20e6 08       		.byte	0x8
 9168 20e7 2A       		.byte	0x2a
 9169 20e8 EC200000 		.4byte	0x20ec
 9170 20ec 0B       		.uleb128 0xb
 9171 20ed D1200000 		.4byte	0x20d1
 9172 20f1 3B       		.uleb128 0x3b
 9173 20f2 38000000 		.4byte	.LASF137
 9174 20f6 08       		.byte	0x8
 9175 20f7 2B       		.byte	0x2b
 9176 20f8 FC200000 		.4byte	0x20fc
 9177 20fc 0B       		.uleb128 0xb
 9178 20fd D1200000 		.4byte	0x20d1
 9179 2101 3B       		.uleb128 0x3b
 9180 2102 F3000000 		.4byte	.LASF138
 9181 2106 08       		.byte	0x8
 9182 2107 2C       		.byte	0x2c
 9183 2108 0C210000 		.4byte	0x210c
 9184 210c 0B       		.uleb128 0xb
 9185 210d D1200000 		.4byte	0x20d1
 9186 2111 12       		.uleb128 0x12
 9187 2112 73080000 		.4byte	0x873
 9188 2116 2D210000 		.4byte	0x212d
 9189 211a 13       		.uleb128 0x13
 9190 211b 2B010000 		.4byte	0x12b
 9191 211f 03       		.byte	0x3
 9192 2120 13       		.uleb128 0x13
 9193 2121 2B010000 		.4byte	0x12b
 9194 2125 01       		.byte	0x1
 9195 2126 13       		.uleb128 0x13
 9196 2127 2B010000 		.4byte	0x12b
 9197 212b 01       		.byte	0x1
 9198 212c 00       		.byte	0
 9199 212d 3B       		.uleb128 0x3b
 9200 212e E8060000 		.4byte	.LASF139
 9201 2132 08       		.byte	0x8
ARM GAS  C:\Users\rdn\AppData\Local\Temp\ccFEeGTH.s 			page 191


 9202 2133 4E       		.byte	0x4e
 9203 2134 38210000 		.4byte	0x2138
 9204 2138 0B       		.uleb128 0xb
 9205 2139 11210000 		.4byte	0x2111
 9206 213d 12       		.uleb128 0x12
 9207 213e 73080000 		.4byte	0x873
 9208 2142 53210000 		.4byte	0x2153
 9209 2146 13       		.uleb128 0x13
 9210 2147 2B010000 		.4byte	0x12b
 9211 214b 03       		.byte	0x3
 9212 214c 13       		.uleb128 0x13
 9213 214d 2B010000 		.4byte	0x12b
 9214 2151 06       		.byte	0x6
 9215 2152 00       		.byte	0
 9216 2153 3B       		.uleb128 0x3b
 9217 2154 22050000 		.4byte	.LASF140
 9218 2158 08       		.byte	0x8
 9219 2159 71       		.byte	0x71
 9220 215a 5E210000 		.4byte	0x215e
 9221 215e 0B       		.uleb128 0xb
 9222 215f 3D210000 		.4byte	0x213d
 9223 2163 12       		.uleb128 0x12
 9224 2164 6D080000 		.4byte	0x86d
 9225 2168 79210000 		.4byte	0x2179
 9226 216c 13       		.uleb128 0x13
 9227 216d 2B010000 		.4byte	0x12b
 9228 2171 03       		.byte	0x3
 9229 2172 13       		.uleb128 0x13
 9230 2173 2B010000 		.4byte	0x12b
 9231 2177 06       		.byte	0x6
 9232 2178 00       		.byte	0
 9233 2179 3B       		.uleb128 0x3b
 9234 217a 04030000 		.4byte	.LASF141
 9235 217e 08       		.byte	0x8
 9236 217f 72       		.byte	0x72
 9237 2180 63210000 		.4byte	0x2163
 9238 2184 12       		.uleb128 0x12
 9239 2185 1C030000 		.4byte	0x31c
 9240 2189 9A210000 		.4byte	0x219a
 9241 218d 13       		.uleb128 0x13
 9242 218e 2B010000 		.4byte	0x12b
 9243 2192 1F       		.byte	0x1f
 9244 2193 13       		.uleb128 0x13
 9245 2194 2B010000 		.4byte	0x12b
 9246 2198 07       		.byte	0x7
 9247 2199 00       		.byte	0
 9248 219a 3B       		.uleb128 0x3b
 9249 219b 93020000 		.4byte	.LASF142
 9250 219f 08       		.byte	0x8
 9251 21a0 79       		.byte	0x79
 9252 21a1 A5210000 		.4byte	0x21a5
 9253 21a5 0B       		.uleb128 0xb
 9254 21a6 84210000 		.4byte	0x2184
 9255 21aa 3B       		.uleb128 0x3b
 9256 21ab 11070000 		.4byte	.LASF143
 9257 21af 08       		.byte	0x8
 9258 21b0 7A       		.byte	0x7a
ARM GAS  C:\Users\rdn\AppData\Local\Temp\ccFEeGTH.s 			page 192


 9259 21b1 B5210000 		.4byte	0x21b5
 9260 21b5 0B       		.uleb128 0xb
 9261 21b6 84210000 		.4byte	0x2184
 9262 21ba 12       		.uleb128 0x12
 9263 21bb 5B120000 		.4byte	0x125b
 9264 21bf CA210000 		.4byte	0x21ca
 9265 21c3 13       		.uleb128 0x13
 9266 21c4 2B010000 		.4byte	0x12b
 9267 21c8 03       		.byte	0x3
 9268 21c9 00       		.byte	0
 9269 21ca 3B       		.uleb128 0x3b
 9270 21cb 70000000 		.4byte	.LASF66
 9271 21cf 08       		.byte	0x8
 9272 21d0 80       		.byte	0x80
 9273 21d1 D5210000 		.4byte	0x21d5
 9274 21d5 0B       		.uleb128 0xb
 9275 21d6 BA210000 		.4byte	0x21ba
 9276 21da 12       		.uleb128 0x12
 9277 21db EB210000 		.4byte	0x21eb
 9278 21df EB210000 		.4byte	0x21eb
 9279 21e3 3C       		.uleb128 0x3c
 9280 21e4 13       		.uleb128 0x13
 9281 21e5 2B010000 		.4byte	0x12b
 9282 21e9 0A       		.byte	0xa
 9283 21ea 00       		.byte	0
 9284 21eb 0B       		.uleb128 0xb
 9285 21ec 9E000000 		.4byte	0x9e
 9286 21f0 3B       		.uleb128 0x3b
 9287 21f1 D8050000 		.4byte	.LASF144
 9288 21f5 08       		.byte	0x8
 9289 21f6 82       		.byte	0x82
 9290 21f7 FB210000 		.4byte	0x21fb
 9291 21fb 0B       		.uleb128 0xb
 9292 21fc DA210000 		.4byte	0x21da
 9293 2200 3D       		.uleb128 0x3d
 9294 2201 6A050000 		.4byte	.LASF145
 9295 2205 6A050000 		.4byte	.LASF145
 9296 2209 0A       		.byte	0xa
 9297 220a 9701     		.2byte	0x197
 9298 220c 3E       		.uleb128 0x3e
 9299 220d 8F060000 		.4byte	.LASF149
 9300 2211 8F060000 		.4byte	.LASF149
 9301 2215 3D       		.uleb128 0x3d
 9302 2216 43060000 		.4byte	.LASF146
 9303 221a 43060000 		.4byte	.LASF146
 9304 221e 0A       		.byte	0xa
 9305 221f 8501     		.2byte	0x185
 9306 2221 3D       		.uleb128 0x3d
 9307 2222 3B020000 		.4byte	.LASF147
 9308 2226 3B020000 		.4byte	.LASF147
 9309 222a 0A       		.byte	0xa
 9310 222b 7801     		.2byte	0x178
 9311 222d 3F       		.uleb128 0x3f
 9312 222e 6D010000 		.4byte	.LASF148
 9313 2232 6D010000 		.4byte	.LASF148
 9314 2236 0B       		.byte	0xb
 9315 2237 18       		.byte	0x18
ARM GAS  C:\Users\rdn\AppData\Local\Temp\ccFEeGTH.s 			page 193


 9316 2238 3E       		.uleb128 0x3e
 9317 2239 35040000 		.4byte	.LASF150
 9318 223d 35040000 		.4byte	.LASF150
 9319 2241 3F       		.uleb128 0x3f
 9320 2242 5F040000 		.4byte	.LASF151
 9321 2246 5F040000 		.4byte	.LASF151
 9322 224a 03       		.byte	0x3
 9323 224b C8       		.byte	0xc8
 9324 224c 3F       		.uleb128 0x3f
 9325 224d D9020000 		.4byte	.LASF152
 9326 2251 D9020000 		.4byte	.LASF152
 9327 2255 03       		.byte	0x3
 9328 2256 C9       		.byte	0xc9
 9329 2257 00       		.byte	0
 9330              		.section	.debug_abbrev,"",%progbits
 9331              	.Ldebug_abbrev0:
 9332 0000 01       		.uleb128 0x1
 9333 0001 11       		.uleb128 0x11
 9334 0002 01       		.byte	0x1
 9335 0003 25       		.uleb128 0x25
 9336 0004 0E       		.uleb128 0xe
 9337 0005 13       		.uleb128 0x13
 9338 0006 0B       		.uleb128 0xb
 9339 0007 03       		.uleb128 0x3
 9340 0008 0E       		.uleb128 0xe
 9341 0009 1B       		.uleb128 0x1b
 9342 000a 0E       		.uleb128 0xe
 9343 000b 55       		.uleb128 0x55
 9344 000c 17       		.uleb128 0x17
 9345 000d 11       		.uleb128 0x11
 9346 000e 01       		.uleb128 0x1
 9347 000f 10       		.uleb128 0x10
 9348 0010 17       		.uleb128 0x17
 9349 0011 00       		.byte	0
 9350 0012 00       		.byte	0
 9351 0013 02       		.uleb128 0x2
 9352 0014 24       		.uleb128 0x24
 9353 0015 00       		.byte	0
 9354 0016 0B       		.uleb128 0xb
 9355 0017 0B       		.uleb128 0xb
 9356 0018 3E       		.uleb128 0x3e
 9357 0019 0B       		.uleb128 0xb
 9358 001a 03       		.uleb128 0x3
 9359 001b 0E       		.uleb128 0xe
 9360 001c 00       		.byte	0
 9361 001d 00       		.byte	0
 9362 001e 03       		.uleb128 0x3
 9363 001f 16       		.uleb128 0x16
 9364 0020 00       		.byte	0
 9365 0021 03       		.uleb128 0x3
 9366 0022 0E       		.uleb128 0xe
 9367 0023 3A       		.uleb128 0x3a
 9368 0024 0B       		.uleb128 0xb
 9369 0025 3B       		.uleb128 0x3b
 9370 0026 0B       		.uleb128 0xb
 9371 0027 49       		.uleb128 0x49
 9372 0028 13       		.uleb128 0x13
ARM GAS  C:\Users\rdn\AppData\Local\Temp\ccFEeGTH.s 			page 194


 9373 0029 00       		.byte	0
 9374 002a 00       		.byte	0
 9375 002b 04       		.uleb128 0x4
 9376 002c 24       		.uleb128 0x24
 9377 002d 00       		.byte	0
 9378 002e 0B       		.uleb128 0xb
 9379 002f 0B       		.uleb128 0xb
 9380 0030 3E       		.uleb128 0x3e
 9381 0031 0B       		.uleb128 0xb
 9382 0032 03       		.uleb128 0x3
 9383 0033 08       		.uleb128 0x8
 9384 0034 00       		.byte	0
 9385 0035 00       		.byte	0
 9386 0036 05       		.uleb128 0x5
 9387 0037 04       		.uleb128 0x4
 9388 0038 01       		.byte	0x1
 9389 0039 03       		.uleb128 0x3
 9390 003a 0E       		.uleb128 0xe
 9391 003b 0B       		.uleb128 0xb
 9392 003c 0B       		.uleb128 0xb
 9393 003d 49       		.uleb128 0x49
 9394 003e 13       		.uleb128 0x13
 9395 003f 3A       		.uleb128 0x3a
 9396 0040 0B       		.uleb128 0xb
 9397 0041 3B       		.uleb128 0x3b
 9398 0042 0B       		.uleb128 0xb
 9399 0043 01       		.uleb128 0x1
 9400 0044 13       		.uleb128 0x13
 9401 0045 00       		.byte	0
 9402 0046 00       		.byte	0
 9403 0047 06       		.uleb128 0x6
 9404 0048 28       		.uleb128 0x28
 9405 0049 00       		.byte	0
 9406 004a 03       		.uleb128 0x3
 9407 004b 0E       		.uleb128 0xe
 9408 004c 1C       		.uleb128 0x1c
 9409 004d 0B       		.uleb128 0xb
 9410 004e 00       		.byte	0
 9411 004f 00       		.byte	0
 9412 0050 07       		.uleb128 0x7
 9413 0051 13       		.uleb128 0x13
 9414 0052 01       		.byte	0x1
 9415 0053 03       		.uleb128 0x3
 9416 0054 0E       		.uleb128 0xe
 9417 0055 0B       		.uleb128 0xb
 9418 0056 0B       		.uleb128 0xb
 9419 0057 3A       		.uleb128 0x3a
 9420 0058 0B       		.uleb128 0xb
 9421 0059 3B       		.uleb128 0x3b
 9422 005a 0B       		.uleb128 0xb
 9423 005b 01       		.uleb128 0x1
 9424 005c 13       		.uleb128 0x13
 9425 005d 00       		.byte	0
 9426 005e 00       		.byte	0
 9427 005f 08       		.uleb128 0x8
 9428 0060 0D       		.uleb128 0xd
 9429 0061 00       		.byte	0
ARM GAS  C:\Users\rdn\AppData\Local\Temp\ccFEeGTH.s 			page 195


 9430 0062 03       		.uleb128 0x3
 9431 0063 08       		.uleb128 0x8
 9432 0064 3A       		.uleb128 0x3a
 9433 0065 0B       		.uleb128 0xb
 9434 0066 3B       		.uleb128 0x3b
 9435 0067 0B       		.uleb128 0xb
 9436 0068 49       		.uleb128 0x49
 9437 0069 13       		.uleb128 0x13
 9438 006a 38       		.uleb128 0x38
 9439 006b 0B       		.uleb128 0xb
 9440 006c 00       		.byte	0
 9441 006d 00       		.byte	0
 9442 006e 09       		.uleb128 0x9
 9443 006f 0D       		.uleb128 0xd
 9444 0070 00       		.byte	0
 9445 0071 03       		.uleb128 0x3
 9446 0072 0E       		.uleb128 0xe
 9447 0073 3A       		.uleb128 0x3a
 9448 0074 0B       		.uleb128 0xb
 9449 0075 3B       		.uleb128 0x3b
 9450 0076 0B       		.uleb128 0xb
 9451 0077 49       		.uleb128 0x49
 9452 0078 13       		.uleb128 0x13
 9453 0079 38       		.uleb128 0x38
 9454 007a 0B       		.uleb128 0xb
 9455 007b 00       		.byte	0
 9456 007c 00       		.byte	0
 9457 007d 0A       		.uleb128 0xa
 9458 007e 0F       		.uleb128 0xf
 9459 007f 00       		.byte	0
 9460 0080 0B       		.uleb128 0xb
 9461 0081 0B       		.uleb128 0xb
 9462 0082 49       		.uleb128 0x49
 9463 0083 13       		.uleb128 0x13
 9464 0084 00       		.byte	0
 9465 0085 00       		.byte	0
 9466 0086 0B       		.uleb128 0xb
 9467 0087 26       		.uleb128 0x26
 9468 0088 00       		.byte	0
 9469 0089 49       		.uleb128 0x49
 9470 008a 13       		.uleb128 0x13
 9471 008b 00       		.byte	0
 9472 008c 00       		.byte	0
 9473 008d 0C       		.uleb128 0xc
 9474 008e 2E       		.uleb128 0x2e
 9475 008f 01       		.byte	0x1
 9476 0090 03       		.uleb128 0x3
 9477 0091 0E       		.uleb128 0xe
 9478 0092 3A       		.uleb128 0x3a
 9479 0093 0B       		.uleb128 0xb
 9480 0094 3B       		.uleb128 0x3b
 9481 0095 0B       		.uleb128 0xb
 9482 0096 27       		.uleb128 0x27
 9483 0097 19       		.uleb128 0x19
 9484 0098 49       		.uleb128 0x49
 9485 0099 13       		.uleb128 0x13
 9486 009a 20       		.uleb128 0x20
ARM GAS  C:\Users\rdn\AppData\Local\Temp\ccFEeGTH.s 			page 196


 9487 009b 0B       		.uleb128 0xb
 9488 009c 01       		.uleb128 0x1
 9489 009d 13       		.uleb128 0x13
 9490 009e 00       		.byte	0
 9491 009f 00       		.byte	0
 9492 00a0 0D       		.uleb128 0xd
 9493 00a1 05       		.uleb128 0x5
 9494 00a2 00       		.byte	0
 9495 00a3 03       		.uleb128 0x3
 9496 00a4 08       		.uleb128 0x8
 9497 00a5 3A       		.uleb128 0x3a
 9498 00a6 0B       		.uleb128 0xb
 9499 00a7 3B       		.uleb128 0x3b
 9500 00a8 0B       		.uleb128 0xb
 9501 00a9 49       		.uleb128 0x49
 9502 00aa 13       		.uleb128 0x13
 9503 00ab 00       		.byte	0
 9504 00ac 00       		.byte	0
 9505 00ad 0E       		.uleb128 0xe
 9506 00ae 17       		.uleb128 0x17
 9507 00af 01       		.byte	0x1
 9508 00b0 0B       		.uleb128 0xb
 9509 00b1 0B       		.uleb128 0xb
 9510 00b2 3A       		.uleb128 0x3a
 9511 00b3 0B       		.uleb128 0xb
 9512 00b4 3B       		.uleb128 0x3b
 9513 00b5 0B       		.uleb128 0xb
 9514 00b6 01       		.uleb128 0x1
 9515 00b7 13       		.uleb128 0x13
 9516 00b8 00       		.byte	0
 9517 00b9 00       		.byte	0
 9518 00ba 0F       		.uleb128 0xf
 9519 00bb 0D       		.uleb128 0xd
 9520 00bc 00       		.byte	0
 9521 00bd 03       		.uleb128 0x3
 9522 00be 08       		.uleb128 0x8
 9523 00bf 3A       		.uleb128 0x3a
 9524 00c0 0B       		.uleb128 0xb
 9525 00c1 3B       		.uleb128 0x3b
 9526 00c2 0B       		.uleb128 0xb
 9527 00c3 49       		.uleb128 0x49
 9528 00c4 13       		.uleb128 0x13
 9529 00c5 00       		.byte	0
 9530 00c6 00       		.byte	0
 9531 00c7 10       		.uleb128 0x10
 9532 00c8 34       		.uleb128 0x34
 9533 00c9 00       		.byte	0
 9534 00ca 03       		.uleb128 0x3
 9535 00cb 08       		.uleb128 0x8
 9536 00cc 3A       		.uleb128 0x3a
 9537 00cd 0B       		.uleb128 0xb
 9538 00ce 3B       		.uleb128 0x3b
 9539 00cf 0B       		.uleb128 0xb
 9540 00d0 49       		.uleb128 0x49
 9541 00d1 13       		.uleb128 0x13
 9542 00d2 00       		.byte	0
 9543 00d3 00       		.byte	0
ARM GAS  C:\Users\rdn\AppData\Local\Temp\ccFEeGTH.s 			page 197


 9544 00d4 11       		.uleb128 0x11
 9545 00d5 34       		.uleb128 0x34
 9546 00d6 00       		.byte	0
 9547 00d7 03       		.uleb128 0x3
 9548 00d8 08       		.uleb128 0x8
 9549 00d9 3A       		.uleb128 0x3a
 9550 00da 0B       		.uleb128 0xb
 9551 00db 3B       		.uleb128 0x3b
 9552 00dc 0B       		.uleb128 0xb
 9553 00dd 49       		.uleb128 0x49
 9554 00de 13       		.uleb128 0x13
 9555 00df 1C       		.uleb128 0x1c
 9556 00e0 0A       		.uleb128 0xa
 9557 00e1 00       		.byte	0
 9558 00e2 00       		.byte	0
 9559 00e3 12       		.uleb128 0x12
 9560 00e4 01       		.uleb128 0x1
 9561 00e5 01       		.byte	0x1
 9562 00e6 49       		.uleb128 0x49
 9563 00e7 13       		.uleb128 0x13
 9564 00e8 01       		.uleb128 0x1
 9565 00e9 13       		.uleb128 0x13
 9566 00ea 00       		.byte	0
 9567 00eb 00       		.byte	0
 9568 00ec 13       		.uleb128 0x13
 9569 00ed 21       		.uleb128 0x21
 9570 00ee 00       		.byte	0
 9571 00ef 49       		.uleb128 0x49
 9572 00f0 13       		.uleb128 0x13
 9573 00f1 2F       		.uleb128 0x2f
 9574 00f2 0B       		.uleb128 0xb
 9575 00f3 00       		.byte	0
 9576 00f4 00       		.byte	0
 9577 00f5 14       		.uleb128 0x14
 9578 00f6 2E       		.uleb128 0x2e
 9579 00f7 01       		.byte	0x1
 9580 00f8 03       		.uleb128 0x3
 9581 00f9 0E       		.uleb128 0xe
 9582 00fa 3A       		.uleb128 0x3a
 9583 00fb 0B       		.uleb128 0xb
 9584 00fc 3B       		.uleb128 0x3b
 9585 00fd 0B       		.uleb128 0xb
 9586 00fe 27       		.uleb128 0x27
 9587 00ff 19       		.uleb128 0x19
 9588 0100 20       		.uleb128 0x20
 9589 0101 0B       		.uleb128 0xb
 9590 0102 01       		.uleb128 0x1
 9591 0103 13       		.uleb128 0x13
 9592 0104 00       		.byte	0
 9593 0105 00       		.byte	0
 9594 0106 15       		.uleb128 0x15
 9595 0107 05       		.uleb128 0x5
 9596 0108 00       		.byte	0
 9597 0109 03       		.uleb128 0x3
 9598 010a 0E       		.uleb128 0xe
 9599 010b 3A       		.uleb128 0x3a
 9600 010c 0B       		.uleb128 0xb
ARM GAS  C:\Users\rdn\AppData\Local\Temp\ccFEeGTH.s 			page 198


 9601 010d 3B       		.uleb128 0x3b
 9602 010e 0B       		.uleb128 0xb
 9603 010f 49       		.uleb128 0x49
 9604 0110 13       		.uleb128 0x13
 9605 0111 00       		.byte	0
 9606 0112 00       		.byte	0
 9607 0113 16       		.uleb128 0x16
 9608 0114 34       		.uleb128 0x34
 9609 0115 00       		.byte	0
 9610 0116 03       		.uleb128 0x3
 9611 0117 0E       		.uleb128 0xe
 9612 0118 3A       		.uleb128 0x3a
 9613 0119 0B       		.uleb128 0xb
 9614 011a 3B       		.uleb128 0x3b
 9615 011b 0B       		.uleb128 0xb
 9616 011c 49       		.uleb128 0x49
 9617 011d 13       		.uleb128 0x13
 9618 011e 00       		.byte	0
 9619 011f 00       		.byte	0
 9620 0120 17       		.uleb128 0x17
 9621 0121 0B       		.uleb128 0xb
 9622 0122 01       		.byte	0x1
 9623 0123 00       		.byte	0
 9624 0124 00       		.byte	0
 9625 0125 18       		.uleb128 0x18
 9626 0126 2E       		.uleb128 0x2e
 9627 0127 01       		.byte	0x1
 9628 0128 03       		.uleb128 0x3
 9629 0129 0E       		.uleb128 0xe
 9630 012a 3A       		.uleb128 0x3a
 9631 012b 0B       		.uleb128 0xb
 9632 012c 3B       		.uleb128 0x3b
 9633 012d 0B       		.uleb128 0xb
 9634 012e 27       		.uleb128 0x27
 9635 012f 19       		.uleb128 0x19
 9636 0130 11       		.uleb128 0x11
 9637 0131 01       		.uleb128 0x1
 9638 0132 12       		.uleb128 0x12
 9639 0133 06       		.uleb128 0x6
 9640 0134 40       		.uleb128 0x40
 9641 0135 18       		.uleb128 0x18
 9642 0136 9642     		.uleb128 0x2116
 9643 0138 19       		.uleb128 0x19
 9644 0139 01       		.uleb128 0x1
 9645 013a 13       		.uleb128 0x13
 9646 013b 00       		.byte	0
 9647 013c 00       		.byte	0
 9648 013d 19       		.uleb128 0x19
 9649 013e 05       		.uleb128 0x5
 9650 013f 00       		.byte	0
 9651 0140 03       		.uleb128 0x3
 9652 0141 08       		.uleb128 0x8
 9653 0142 3A       		.uleb128 0x3a
 9654 0143 0B       		.uleb128 0xb
 9655 0144 3B       		.uleb128 0x3b
 9656 0145 0B       		.uleb128 0xb
 9657 0146 49       		.uleb128 0x49
ARM GAS  C:\Users\rdn\AppData\Local\Temp\ccFEeGTH.s 			page 199


 9658 0147 13       		.uleb128 0x13
 9659 0148 02       		.uleb128 0x2
 9660 0149 17       		.uleb128 0x17
 9661 014a 00       		.byte	0
 9662 014b 00       		.byte	0
 9663 014c 1A       		.uleb128 0x1a
 9664 014d 0B       		.uleb128 0xb
 9665 014e 01       		.byte	0x1
 9666 014f 11       		.uleb128 0x11
 9667 0150 01       		.uleb128 0x1
 9668 0151 12       		.uleb128 0x12
 9669 0152 06       		.uleb128 0x6
 9670 0153 00       		.byte	0
 9671 0154 00       		.byte	0
 9672 0155 1B       		.uleb128 0x1b
 9673 0156 34       		.uleb128 0x34
 9674 0157 00       		.byte	0
 9675 0158 03       		.uleb128 0x3
 9676 0159 08       		.uleb128 0x8
 9677 015a 3A       		.uleb128 0x3a
 9678 015b 0B       		.uleb128 0xb
 9679 015c 3B       		.uleb128 0x3b
 9680 015d 0B       		.uleb128 0xb
 9681 015e 49       		.uleb128 0x49
 9682 015f 13       		.uleb128 0x13
 9683 0160 02       		.uleb128 0x2
 9684 0161 17       		.uleb128 0x17
 9685 0162 00       		.byte	0
 9686 0163 00       		.byte	0
 9687 0164 1C       		.uleb128 0x1c
 9688 0165 2E       		.uleb128 0x2e
 9689 0166 01       		.byte	0x1
 9690 0167 03       		.uleb128 0x3
 9691 0168 0E       		.uleb128 0xe
 9692 0169 3A       		.uleb128 0x3a
 9693 016a 0B       		.uleb128 0xb
 9694 016b 3B       		.uleb128 0x3b
 9695 016c 05       		.uleb128 0x5
 9696 016d 27       		.uleb128 0x27
 9697 016e 19       		.uleb128 0x19
 9698 016f 11       		.uleb128 0x11
 9699 0170 01       		.uleb128 0x1
 9700 0171 12       		.uleb128 0x12
 9701 0172 06       		.uleb128 0x6
 9702 0173 40       		.uleb128 0x40
 9703 0174 18       		.uleb128 0x18
 9704 0175 9642     		.uleb128 0x2116
 9705 0177 19       		.uleb128 0x19
 9706 0178 01       		.uleb128 0x1
 9707 0179 13       		.uleb128 0x13
 9708 017a 00       		.byte	0
 9709 017b 00       		.byte	0
 9710 017c 1D       		.uleb128 0x1d
 9711 017d 05       		.uleb128 0x5
 9712 017e 00       		.byte	0
 9713 017f 03       		.uleb128 0x3
 9714 0180 08       		.uleb128 0x8
ARM GAS  C:\Users\rdn\AppData\Local\Temp\ccFEeGTH.s 			page 200


 9715 0181 3A       		.uleb128 0x3a
 9716 0182 0B       		.uleb128 0xb
 9717 0183 3B       		.uleb128 0x3b
 9718 0184 05       		.uleb128 0x5
 9719 0185 49       		.uleb128 0x49
 9720 0186 13       		.uleb128 0x13
 9721 0187 02       		.uleb128 0x2
 9722 0188 17       		.uleb128 0x17
 9723 0189 00       		.byte	0
 9724 018a 00       		.byte	0
 9725 018b 1E       		.uleb128 0x1e
 9726 018c 05       		.uleb128 0x5
 9727 018d 00       		.byte	0
 9728 018e 03       		.uleb128 0x3
 9729 018f 0E       		.uleb128 0xe
 9730 0190 3A       		.uleb128 0x3a
 9731 0191 0B       		.uleb128 0xb
 9732 0192 3B       		.uleb128 0x3b
 9733 0193 05       		.uleb128 0x5
 9734 0194 49       		.uleb128 0x49
 9735 0195 13       		.uleb128 0x13
 9736 0196 02       		.uleb128 0x2
 9737 0197 17       		.uleb128 0x17
 9738 0198 00       		.byte	0
 9739 0199 00       		.byte	0
 9740 019a 1F       		.uleb128 0x1f
 9741 019b 34       		.uleb128 0x34
 9742 019c 00       		.byte	0
 9743 019d 03       		.uleb128 0x3
 9744 019e 0E       		.uleb128 0xe
 9745 019f 3A       		.uleb128 0x3a
 9746 01a0 0B       		.uleb128 0xb
 9747 01a1 3B       		.uleb128 0x3b
 9748 01a2 05       		.uleb128 0x5
 9749 01a3 49       		.uleb128 0x49
 9750 01a4 13       		.uleb128 0x13
 9751 01a5 02       		.uleb128 0x2
 9752 01a6 17       		.uleb128 0x17
 9753 01a7 00       		.byte	0
 9754 01a8 00       		.byte	0
 9755 01a9 20       		.uleb128 0x20
 9756 01aa 0B       		.uleb128 0xb
 9757 01ab 01       		.byte	0x1
 9758 01ac 55       		.uleb128 0x55
 9759 01ad 17       		.uleb128 0x17
 9760 01ae 00       		.byte	0
 9761 01af 00       		.byte	0
 9762 01b0 21       		.uleb128 0x21
 9763 01b1 34       		.uleb128 0x34
 9764 01b2 00       		.byte	0
 9765 01b3 03       		.uleb128 0x3
 9766 01b4 08       		.uleb128 0x8
 9767 01b5 3A       		.uleb128 0x3a
 9768 01b6 0B       		.uleb128 0xb
 9769 01b7 3B       		.uleb128 0x3b
 9770 01b8 05       		.uleb128 0x5
 9771 01b9 49       		.uleb128 0x49
ARM GAS  C:\Users\rdn\AppData\Local\Temp\ccFEeGTH.s 			page 201


 9772 01ba 13       		.uleb128 0x13
 9773 01bb 02       		.uleb128 0x2
 9774 01bc 17       		.uleb128 0x17
 9775 01bd 00       		.byte	0
 9776 01be 00       		.byte	0
 9777 01bf 22       		.uleb128 0x22
 9778 01c0 05       		.uleb128 0x5
 9779 01c1 00       		.byte	0
 9780 01c2 03       		.uleb128 0x3
 9781 01c3 08       		.uleb128 0x8
 9782 01c4 3A       		.uleb128 0x3a
 9783 01c5 0B       		.uleb128 0xb
 9784 01c6 3B       		.uleb128 0x3b
 9785 01c7 05       		.uleb128 0x5
 9786 01c8 49       		.uleb128 0x49
 9787 01c9 13       		.uleb128 0x13
 9788 01ca 02       		.uleb128 0x2
 9789 01cb 18       		.uleb128 0x18
 9790 01cc 00       		.byte	0
 9791 01cd 00       		.byte	0
 9792 01ce 23       		.uleb128 0x23
 9793 01cf 05       		.uleb128 0x5
 9794 01d0 00       		.byte	0
 9795 01d1 03       		.uleb128 0x3
 9796 01d2 0E       		.uleb128 0xe
 9797 01d3 3A       		.uleb128 0x3a
 9798 01d4 0B       		.uleb128 0xb
 9799 01d5 3B       		.uleb128 0x3b
 9800 01d6 05       		.uleb128 0x5
 9801 01d7 49       		.uleb128 0x49
 9802 01d8 13       		.uleb128 0x13
 9803 01d9 02       		.uleb128 0x2
 9804 01da 18       		.uleb128 0x18
 9805 01db 00       		.byte	0
 9806 01dc 00       		.byte	0
 9807 01dd 24       		.uleb128 0x24
 9808 01de 0B       		.uleb128 0xb
 9809 01df 01       		.byte	0x1
 9810 01e0 11       		.uleb128 0x11
 9811 01e1 01       		.uleb128 0x1
 9812 01e2 12       		.uleb128 0x12
 9813 01e3 06       		.uleb128 0x6
 9814 01e4 01       		.uleb128 0x1
 9815 01e5 13       		.uleb128 0x13
 9816 01e6 00       		.byte	0
 9817 01e7 00       		.byte	0
 9818 01e8 25       		.uleb128 0x25
 9819 01e9 898201   		.uleb128 0x4109
 9820 01ec 01       		.byte	0x1
 9821 01ed 11       		.uleb128 0x11
 9822 01ee 01       		.uleb128 0x1
 9823 01ef 31       		.uleb128 0x31
 9824 01f0 13       		.uleb128 0x13
 9825 01f1 00       		.byte	0
 9826 01f2 00       		.byte	0
 9827 01f3 26       		.uleb128 0x26
 9828 01f4 8A8201   		.uleb128 0x410a
ARM GAS  C:\Users\rdn\AppData\Local\Temp\ccFEeGTH.s 			page 202


 9829 01f7 00       		.byte	0
 9830 01f8 02       		.uleb128 0x2
 9831 01f9 18       		.uleb128 0x18
 9832 01fa 9142     		.uleb128 0x2111
 9833 01fc 18       		.uleb128 0x18
 9834 01fd 00       		.byte	0
 9835 01fe 00       		.byte	0
 9836 01ff 27       		.uleb128 0x27
 9837 0200 2E       		.uleb128 0x2e
 9838 0201 01       		.byte	0x1
 9839 0202 03       		.uleb128 0x3
 9840 0203 0E       		.uleb128 0xe
 9841 0204 3A       		.uleb128 0x3a
 9842 0205 0B       		.uleb128 0xb
 9843 0206 3B       		.uleb128 0x3b
 9844 0207 05       		.uleb128 0x5
 9845 0208 27       		.uleb128 0x27
 9846 0209 19       		.uleb128 0x19
 9847 020a 11       		.uleb128 0x11
 9848 020b 01       		.uleb128 0x1
 9849 020c 12       		.uleb128 0x12
 9850 020d 06       		.uleb128 0x6
 9851 020e 40       		.uleb128 0x40
 9852 020f 18       		.uleb128 0x18
 9853 0210 9742     		.uleb128 0x2117
 9854 0212 19       		.uleb128 0x19
 9855 0213 01       		.uleb128 0x1
 9856 0214 13       		.uleb128 0x13
 9857 0215 00       		.byte	0
 9858 0216 00       		.byte	0
 9859 0217 28       		.uleb128 0x28
 9860 0218 898201   		.uleb128 0x4109
 9861 021b 01       		.byte	0x1
 9862 021c 11       		.uleb128 0x11
 9863 021d 01       		.uleb128 0x1
 9864 021e 31       		.uleb128 0x31
 9865 021f 13       		.uleb128 0x13
 9866 0220 01       		.uleb128 0x1
 9867 0221 13       		.uleb128 0x13
 9868 0222 00       		.byte	0
 9869 0223 00       		.byte	0
 9870 0224 29       		.uleb128 0x29
 9871 0225 05       		.uleb128 0x5
 9872 0226 00       		.byte	0
 9873 0227 03       		.uleb128 0x3
 9874 0228 0E       		.uleb128 0xe
 9875 0229 3A       		.uleb128 0x3a
 9876 022a 0B       		.uleb128 0xb
 9877 022b 3B       		.uleb128 0x3b
 9878 022c 0B       		.uleb128 0xb
 9879 022d 49       		.uleb128 0x49
 9880 022e 13       		.uleb128 0x13
 9881 022f 02       		.uleb128 0x2
 9882 0230 17       		.uleb128 0x17
 9883 0231 00       		.byte	0
 9884 0232 00       		.byte	0
 9885 0233 2A       		.uleb128 0x2a
ARM GAS  C:\Users\rdn\AppData\Local\Temp\ccFEeGTH.s 			page 203


 9886 0234 34       		.uleb128 0x34
 9887 0235 00       		.byte	0
 9888 0236 03       		.uleb128 0x3
 9889 0237 0E       		.uleb128 0xe
 9890 0238 3A       		.uleb128 0x3a
 9891 0239 0B       		.uleb128 0xb
 9892 023a 3B       		.uleb128 0x3b
 9893 023b 0B       		.uleb128 0xb
 9894 023c 49       		.uleb128 0x49
 9895 023d 13       		.uleb128 0x13
 9896 023e 02       		.uleb128 0x2
 9897 023f 18       		.uleb128 0x18
 9898 0240 00       		.byte	0
 9899 0241 00       		.byte	0
 9900 0242 2B       		.uleb128 0x2b
 9901 0243 34       		.uleb128 0x34
 9902 0244 00       		.byte	0
 9903 0245 03       		.uleb128 0x3
 9904 0246 0E       		.uleb128 0xe
 9905 0247 3A       		.uleb128 0x3a
 9906 0248 0B       		.uleb128 0xb
 9907 0249 3B       		.uleb128 0x3b
 9908 024a 05       		.uleb128 0x5
 9909 024b 49       		.uleb128 0x49
 9910 024c 13       		.uleb128 0x13
 9911 024d 02       		.uleb128 0x2
 9912 024e 18       		.uleb128 0x18
 9913 024f 00       		.byte	0
 9914 0250 00       		.byte	0
 9915 0251 2C       		.uleb128 0x2c
 9916 0252 34       		.uleb128 0x34
 9917 0253 00       		.byte	0
 9918 0254 03       		.uleb128 0x3
 9919 0255 08       		.uleb128 0x8
 9920 0256 3A       		.uleb128 0x3a
 9921 0257 0B       		.uleb128 0xb
 9922 0258 3B       		.uleb128 0x3b
 9923 0259 05       		.uleb128 0x5
 9924 025a 49       		.uleb128 0x49
 9925 025b 13       		.uleb128 0x13
 9926 025c 02       		.uleb128 0x2
 9927 025d 18       		.uleb128 0x18
 9928 025e 00       		.byte	0
 9929 025f 00       		.byte	0
 9930 0260 2D       		.uleb128 0x2d
 9931 0261 0B       		.uleb128 0xb
 9932 0262 01       		.byte	0x1
 9933 0263 55       		.uleb128 0x55
 9934 0264 17       		.uleb128 0x17
 9935 0265 01       		.uleb128 0x1
 9936 0266 13       		.uleb128 0x13
 9937 0267 00       		.byte	0
 9938 0268 00       		.byte	0
 9939 0269 2E       		.uleb128 0x2e
 9940 026a 1D       		.uleb128 0x1d
 9941 026b 01       		.byte	0x1
 9942 026c 31       		.uleb128 0x31
ARM GAS  C:\Users\rdn\AppData\Local\Temp\ccFEeGTH.s 			page 204


 9943 026d 13       		.uleb128 0x13
 9944 026e 11       		.uleb128 0x11
 9945 026f 01       		.uleb128 0x1
 9946 0270 12       		.uleb128 0x12
 9947 0271 06       		.uleb128 0x6
 9948 0272 58       		.uleb128 0x58
 9949 0273 0B       		.uleb128 0xb
 9950 0274 59       		.uleb128 0x59
 9951 0275 05       		.uleb128 0x5
 9952 0276 01       		.uleb128 0x1
 9953 0277 13       		.uleb128 0x13
 9954 0278 00       		.byte	0
 9955 0279 00       		.byte	0
 9956 027a 2F       		.uleb128 0x2f
 9957 027b 05       		.uleb128 0x5
 9958 027c 00       		.byte	0
 9959 027d 31       		.uleb128 0x31
 9960 027e 13       		.uleb128 0x13
 9961 027f 02       		.uleb128 0x2
 9962 0280 17       		.uleb128 0x17
 9963 0281 00       		.byte	0
 9964 0282 00       		.byte	0
 9965 0283 30       		.uleb128 0x30
 9966 0284 34       		.uleb128 0x34
 9967 0285 00       		.byte	0
 9968 0286 31       		.uleb128 0x31
 9969 0287 13       		.uleb128 0x13
 9970 0288 02       		.uleb128 0x2
 9971 0289 17       		.uleb128 0x17
 9972 028a 00       		.byte	0
 9973 028b 00       		.byte	0
 9974 028c 31       		.uleb128 0x31
 9975 028d 34       		.uleb128 0x34
 9976 028e 00       		.byte	0
 9977 028f 31       		.uleb128 0x31
 9978 0290 13       		.uleb128 0x13
 9979 0291 00       		.byte	0
 9980 0292 00       		.byte	0
 9981 0293 32       		.uleb128 0x32
 9982 0294 1D       		.uleb128 0x1d
 9983 0295 01       		.byte	0x1
 9984 0296 31       		.uleb128 0x31
 9985 0297 13       		.uleb128 0x13
 9986 0298 11       		.uleb128 0x11
 9987 0299 01       		.uleb128 0x1
 9988 029a 12       		.uleb128 0x12
 9989 029b 06       		.uleb128 0x6
 9990 029c 58       		.uleb128 0x58
 9991 029d 0B       		.uleb128 0xb
 9992 029e 59       		.uleb128 0x59
 9993 029f 0B       		.uleb128 0xb
 9994 02a0 00       		.byte	0
 9995 02a1 00       		.byte	0
 9996 02a2 33       		.uleb128 0x33
 9997 02a3 898201   		.uleb128 0x4109
 9998 02a6 00       		.byte	0
 9999 02a7 11       		.uleb128 0x11
ARM GAS  C:\Users\rdn\AppData\Local\Temp\ccFEeGTH.s 			page 205


 10000 02a8 01       		.uleb128 0x1
 10001 02a9 31       		.uleb128 0x31
 10002 02aa 13       		.uleb128 0x13
 10003 02ab 00       		.byte	0
 10004 02ac 00       		.byte	0
 10005 02ad 34       		.uleb128 0x34
 10006 02ae 35       		.uleb128 0x35
 10007 02af 00       		.byte	0
 10008 02b0 49       		.uleb128 0x49
 10009 02b1 13       		.uleb128 0x13
 10010 02b2 00       		.byte	0
 10011 02b3 00       		.byte	0
 10012 02b4 35       		.uleb128 0x35
 10013 02b5 34       		.uleb128 0x34
 10014 02b6 00       		.byte	0
 10015 02b7 03       		.uleb128 0x3
 10016 02b8 0E       		.uleb128 0xe
 10017 02b9 3A       		.uleb128 0x3a
 10018 02ba 0B       		.uleb128 0xb
 10019 02bb 3B       		.uleb128 0x3b
 10020 02bc 05       		.uleb128 0x5
 10021 02bd 49       		.uleb128 0x49
 10022 02be 13       		.uleb128 0x13
 10023 02bf 00       		.byte	0
 10024 02c0 00       		.byte	0
 10025 02c1 36       		.uleb128 0x36
 10026 02c2 1D       		.uleb128 0x1d
 10027 02c3 01       		.byte	0x1
 10028 02c4 31       		.uleb128 0x31
 10029 02c5 13       		.uleb128 0x13
 10030 02c6 11       		.uleb128 0x11
 10031 02c7 01       		.uleb128 0x1
 10032 02c8 12       		.uleb128 0x12
 10033 02c9 06       		.uleb128 0x6
 10034 02ca 58       		.uleb128 0x58
 10035 02cb 0B       		.uleb128 0xb
 10036 02cc 59       		.uleb128 0x59
 10037 02cd 05       		.uleb128 0x5
 10038 02ce 00       		.byte	0
 10039 02cf 00       		.byte	0
 10040 02d0 37       		.uleb128 0x37
 10041 02d1 34       		.uleb128 0x34
 10042 02d2 00       		.byte	0
 10043 02d3 31       		.uleb128 0x31
 10044 02d4 13       		.uleb128 0x13
 10045 02d5 02       		.uleb128 0x2
 10046 02d6 18       		.uleb128 0x18
 10047 02d7 00       		.byte	0
 10048 02d8 00       		.byte	0
 10049 02d9 38       		.uleb128 0x38
 10050 02da 2E       		.uleb128 0x2e
 10051 02db 01       		.byte	0x1
 10052 02dc 3F       		.uleb128 0x3f
 10053 02dd 19       		.uleb128 0x19
 10054 02de 03       		.uleb128 0x3
 10055 02df 0E       		.uleb128 0xe
 10056 02e0 3A       		.uleb128 0x3a
ARM GAS  C:\Users\rdn\AppData\Local\Temp\ccFEeGTH.s 			page 206


 10057 02e1 0B       		.uleb128 0xb
 10058 02e2 3B       		.uleb128 0x3b
 10059 02e3 05       		.uleb128 0x5
 10060 02e4 27       		.uleb128 0x27
 10061 02e5 19       		.uleb128 0x19
 10062 02e6 11       		.uleb128 0x11
 10063 02e7 01       		.uleb128 0x1
 10064 02e8 12       		.uleb128 0x12
 10065 02e9 06       		.uleb128 0x6
 10066 02ea 40       		.uleb128 0x40
 10067 02eb 18       		.uleb128 0x18
 10068 02ec 9742     		.uleb128 0x2117
 10069 02ee 19       		.uleb128 0x19
 10070 02ef 01       		.uleb128 0x1
 10071 02f0 13       		.uleb128 0x13
 10072 02f1 00       		.byte	0
 10073 02f2 00       		.byte	0
 10074 02f3 39       		.uleb128 0x39
 10075 02f4 2E       		.uleb128 0x2e
 10076 02f5 00       		.byte	0
 10077 02f6 3F       		.uleb128 0x3f
 10078 02f7 19       		.uleb128 0x19
 10079 02f8 03       		.uleb128 0x3
 10080 02f9 0E       		.uleb128 0xe
 10081 02fa 3A       		.uleb128 0x3a
 10082 02fb 0B       		.uleb128 0xb
 10083 02fc 3B       		.uleb128 0x3b
 10084 02fd 05       		.uleb128 0x5
 10085 02fe 27       		.uleb128 0x27
 10086 02ff 19       		.uleb128 0x19
 10087 0300 49       		.uleb128 0x49
 10088 0301 13       		.uleb128 0x13
 10089 0302 11       		.uleb128 0x11
 10090 0303 01       		.uleb128 0x1
 10091 0304 12       		.uleb128 0x12
 10092 0305 06       		.uleb128 0x6
 10093 0306 40       		.uleb128 0x40
 10094 0307 18       		.uleb128 0x18
 10095 0308 9742     		.uleb128 0x2117
 10096 030a 19       		.uleb128 0x19
 10097 030b 00       		.byte	0
 10098 030c 00       		.byte	0
 10099 030d 3A       		.uleb128 0x3a
 10100 030e 2E       		.uleb128 0x2e
 10101 030f 01       		.byte	0x1
 10102 0310 3F       		.uleb128 0x3f
 10103 0311 19       		.uleb128 0x19
 10104 0312 03       		.uleb128 0x3
 10105 0313 0E       		.uleb128 0xe
 10106 0314 3A       		.uleb128 0x3a
 10107 0315 0B       		.uleb128 0xb
 10108 0316 3B       		.uleb128 0x3b
 10109 0317 05       		.uleb128 0x5
 10110 0318 27       		.uleb128 0x27
 10111 0319 19       		.uleb128 0x19
 10112 031a 49       		.uleb128 0x49
 10113 031b 13       		.uleb128 0x13
ARM GAS  C:\Users\rdn\AppData\Local\Temp\ccFEeGTH.s 			page 207


 10114 031c 11       		.uleb128 0x11
 10115 031d 01       		.uleb128 0x1
 10116 031e 12       		.uleb128 0x12
 10117 031f 06       		.uleb128 0x6
 10118 0320 40       		.uleb128 0x40
 10119 0321 18       		.uleb128 0x18
 10120 0322 9642     		.uleb128 0x2116
 10121 0324 19       		.uleb128 0x19
 10122 0325 01       		.uleb128 0x1
 10123 0326 13       		.uleb128 0x13
 10124 0327 00       		.byte	0
 10125 0328 00       		.byte	0
 10126 0329 3B       		.uleb128 0x3b
 10127 032a 34       		.uleb128 0x34
 10128 032b 00       		.byte	0
 10129 032c 03       		.uleb128 0x3
 10130 032d 0E       		.uleb128 0xe
 10131 032e 3A       		.uleb128 0x3a
 10132 032f 0B       		.uleb128 0xb
 10133 0330 3B       		.uleb128 0x3b
 10134 0331 0B       		.uleb128 0xb
 10135 0332 49       		.uleb128 0x49
 10136 0333 13       		.uleb128 0x13
 10137 0334 3F       		.uleb128 0x3f
 10138 0335 19       		.uleb128 0x19
 10139 0336 3C       		.uleb128 0x3c
 10140 0337 19       		.uleb128 0x19
 10141 0338 00       		.byte	0
 10142 0339 00       		.byte	0
 10143 033a 3C       		.uleb128 0x3c
 10144 033b 21       		.uleb128 0x21
 10145 033c 00       		.byte	0
 10146 033d 00       		.byte	0
 10147 033e 00       		.byte	0
 10148 033f 3D       		.uleb128 0x3d
 10149 0340 2E       		.uleb128 0x2e
 10150 0341 00       		.byte	0
 10151 0342 3F       		.uleb128 0x3f
 10152 0343 19       		.uleb128 0x19
 10153 0344 3C       		.uleb128 0x3c
 10154 0345 19       		.uleb128 0x19
 10155 0346 6E       		.uleb128 0x6e
 10156 0347 0E       		.uleb128 0xe
 10157 0348 03       		.uleb128 0x3
 10158 0349 0E       		.uleb128 0xe
 10159 034a 3A       		.uleb128 0x3a
 10160 034b 0B       		.uleb128 0xb
 10161 034c 3B       		.uleb128 0x3b
 10162 034d 05       		.uleb128 0x5
 10163 034e 00       		.byte	0
 10164 034f 00       		.byte	0
 10165 0350 3E       		.uleb128 0x3e
 10166 0351 2E       		.uleb128 0x2e
 10167 0352 00       		.byte	0
 10168 0353 3F       		.uleb128 0x3f
 10169 0354 19       		.uleb128 0x19
 10170 0355 3C       		.uleb128 0x3c
ARM GAS  C:\Users\rdn\AppData\Local\Temp\ccFEeGTH.s 			page 208


 10171 0356 19       		.uleb128 0x19
 10172 0357 6E       		.uleb128 0x6e
 10173 0358 0E       		.uleb128 0xe
 10174 0359 03       		.uleb128 0x3
 10175 035a 0E       		.uleb128 0xe
 10176 035b 00       		.byte	0
 10177 035c 00       		.byte	0
 10178 035d 3F       		.uleb128 0x3f
 10179 035e 2E       		.uleb128 0x2e
 10180 035f 00       		.byte	0
 10181 0360 3F       		.uleb128 0x3f
 10182 0361 19       		.uleb128 0x19
 10183 0362 3C       		.uleb128 0x3c
 10184 0363 19       		.uleb128 0x19
 10185 0364 6E       		.uleb128 0x6e
 10186 0365 0E       		.uleb128 0xe
 10187 0366 03       		.uleb128 0x3
 10188 0367 0E       		.uleb128 0xe
 10189 0368 3A       		.uleb128 0x3a
 10190 0369 0B       		.uleb128 0xb
 10191 036a 3B       		.uleb128 0x3b
 10192 036b 0B       		.uleb128 0xb
 10193 036c 00       		.byte	0
 10194 036d 00       		.byte	0
 10195 036e 00       		.byte	0
 10196              		.section	.debug_loc,"",%progbits
 10197              	.Ldebug_loc0:
 10198              	.LLST0:
 10199 0000 00000000 		.4byte	.LVL0
 10200 0004 0E000000 		.4byte	.LVL2
 10201 0008 0100     		.2byte	0x1
 10202 000a 50       		.byte	0x50
 10203 000b 0E000000 		.4byte	.LVL2
 10204 000f 42000000 		.4byte	.LVL10
 10205 0013 0100     		.2byte	0x1
 10206 0015 57       		.byte	0x57
 10207 0016 42000000 		.4byte	.LVL10
 10208 001a 4C000000 		.4byte	.LFE20
 10209 001e 0400     		.2byte	0x4
 10210 0020 F3       		.byte	0xf3
 10211 0021 01       		.uleb128 0x1
 10212 0022 50       		.byte	0x50
 10213 0023 9F       		.byte	0x9f
 10214 0024 00000000 		.4byte	0
 10215 0028 00000000 		.4byte	0
 10216              	.LLST1:
 10217 002c 00000000 		.4byte	.LVL0
 10218 0030 0E000000 		.4byte	.LVL2
 10219 0034 0100     		.2byte	0x1
 10220 0036 51       		.byte	0x51
 10221 0037 0E000000 		.4byte	.LVL2
 10222 003b 42000000 		.4byte	.LVL11
 10223 003f 0100     		.2byte	0x1
 10224 0041 58       		.byte	0x58
 10225 0042 42000000 		.4byte	.LVL11
 10226 0046 4C000000 		.4byte	.LFE20
 10227 004a 0400     		.2byte	0x4
ARM GAS  C:\Users\rdn\AppData\Local\Temp\ccFEeGTH.s 			page 209


 10228 004c F3       		.byte	0xf3
 10229 004d 01       		.uleb128 0x1
 10230 004e 51       		.byte	0x51
 10231 004f 9F       		.byte	0x9f
 10232 0050 00000000 		.4byte	0
 10233 0054 00000000 		.4byte	0
 10234              	.LLST2:
 10235 0058 0A000000 		.4byte	.LVL1
 10236 005c 0E000000 		.4byte	.LVL2
 10237 0060 0200     		.2byte	0x2
 10238 0062 30       		.byte	0x30
 10239 0063 9F       		.byte	0x9f
 10240 0064 0E000000 		.4byte	.LVL2
 10241 0068 42000000 		.4byte	.LVL9
 10242 006c 0100     		.2byte	0x1
 10243 006e 56       		.byte	0x56
 10244 006f 00000000 		.4byte	0
 10245 0073 00000000 		.4byte	0
 10246              	.LLST3:
 10247 0077 16000000 		.4byte	.LVL3
 10248 007b 1A000000 		.4byte	.LVL4
 10249 007f 0200     		.2byte	0x2
 10250 0081 30       		.byte	0x30
 10251 0082 9F       		.byte	0x9f
 10252 0083 1A000000 		.4byte	.LVL4
 10253 0087 3E000000 		.4byte	.LVL8
 10254 008b 0100     		.2byte	0x1
 10255 008d 54       		.byte	0x54
 10256 008e 00000000 		.4byte	0
 10257 0092 00000000 		.4byte	0
 10258              	.LLST4:
 10259 0096 00000000 		.4byte	.LVL12
 10260 009a 0E000000 		.4byte	.LVL14
 10261 009e 0100     		.2byte	0x1
 10262 00a0 50       		.byte	0x50
 10263 00a1 0E000000 		.4byte	.LVL14
 10264 00a5 42000000 		.4byte	.LVL22
 10265 00a9 0100     		.2byte	0x1
 10266 00ab 57       		.byte	0x57
 10267 00ac 42000000 		.4byte	.LVL22
 10268 00b0 4C000000 		.4byte	.LFE21
 10269 00b4 0400     		.2byte	0x4
 10270 00b6 F3       		.byte	0xf3
 10271 00b7 01       		.uleb128 0x1
 10272 00b8 50       		.byte	0x50
 10273 00b9 9F       		.byte	0x9f
 10274 00ba 00000000 		.4byte	0
 10275 00be 00000000 		.4byte	0
 10276              	.LLST5:
 10277 00c2 00000000 		.4byte	.LVL12
 10278 00c6 0E000000 		.4byte	.LVL14
 10279 00ca 0100     		.2byte	0x1
 10280 00cc 51       		.byte	0x51
 10281 00cd 0E000000 		.4byte	.LVL14
 10282 00d1 42000000 		.4byte	.LVL23
 10283 00d5 0100     		.2byte	0x1
 10284 00d7 58       		.byte	0x58
ARM GAS  C:\Users\rdn\AppData\Local\Temp\ccFEeGTH.s 			page 210


 10285 00d8 42000000 		.4byte	.LVL23
 10286 00dc 4C000000 		.4byte	.LFE21
 10287 00e0 0400     		.2byte	0x4
 10288 00e2 F3       		.byte	0xf3
 10289 00e3 01       		.uleb128 0x1
 10290 00e4 51       		.byte	0x51
 10291 00e5 9F       		.byte	0x9f
 10292 00e6 00000000 		.4byte	0
 10293 00ea 00000000 		.4byte	0
 10294              	.LLST6:
 10295 00ee 0A000000 		.4byte	.LVL13
 10296 00f2 0E000000 		.4byte	.LVL14
 10297 00f6 0200     		.2byte	0x2
 10298 00f8 30       		.byte	0x30
 10299 00f9 9F       		.byte	0x9f
 10300 00fa 0E000000 		.4byte	.LVL14
 10301 00fe 42000000 		.4byte	.LVL21
 10302 0102 0100     		.2byte	0x1
 10303 0104 56       		.byte	0x56
 10304 0105 00000000 		.4byte	0
 10305 0109 00000000 		.4byte	0
 10306              	.LLST7:
 10307 010d 16000000 		.4byte	.LVL15
 10308 0111 1A000000 		.4byte	.LVL16
 10309 0115 0200     		.2byte	0x2
 10310 0117 30       		.byte	0x30
 10311 0118 9F       		.byte	0x9f
 10312 0119 1A000000 		.4byte	.LVL16
 10313 011d 3E000000 		.4byte	.LVL20
 10314 0121 0100     		.2byte	0x1
 10315 0123 54       		.byte	0x54
 10316 0124 00000000 		.4byte	0
 10317 0128 00000000 		.4byte	0
 10318              	.LLST8:
 10319 012c 00000000 		.4byte	.LVL24
 10320 0130 26000000 		.4byte	.LVL27
 10321 0134 0100     		.2byte	0x1
 10322 0136 50       		.byte	0x50
 10323 0137 26000000 		.4byte	.LVL27
 10324 013b C4000000 		.4byte	.LVL51
 10325 013f 0100     		.2byte	0x1
 10326 0141 57       		.byte	0x57
 10327 0142 C4000000 		.4byte	.LVL51
 10328 0146 D8000000 		.4byte	.LFE23
 10329 014a 0400     		.2byte	0x4
 10330 014c F3       		.byte	0xf3
 10331 014d 01       		.uleb128 0x1
 10332 014e 50       		.byte	0x50
 10333 014f 9F       		.byte	0x9f
 10334 0150 00000000 		.4byte	0
 10335 0154 00000000 		.4byte	0
 10336              	.LLST9:
 10337 0158 00000000 		.4byte	.LVL24
 10338 015c 26000000 		.4byte	.LVL27
 10339 0160 0100     		.2byte	0x1
 10340 0162 51       		.byte	0x51
 10341 0163 26000000 		.4byte	.LVL27
ARM GAS  C:\Users\rdn\AppData\Local\Temp\ccFEeGTH.s 			page 211


 10342 0167 C4000000 		.4byte	.LVL52
 10343 016b 0100     		.2byte	0x1
 10344 016d 58       		.byte	0x58
 10345 016e C4000000 		.4byte	.LVL52
 10346 0172 D8000000 		.4byte	.LFE23
 10347 0176 0400     		.2byte	0x4
 10348 0178 F3       		.byte	0xf3
 10349 0179 01       		.uleb128 0x1
 10350 017a 51       		.byte	0x51
 10351 017b 9F       		.byte	0x9f
 10352 017c 00000000 		.4byte	0
 10353 0180 00000000 		.4byte	0
 10354              	.LLST10:
 10355 0184 00000000 		.4byte	.LVL24
 10356 0188 26000000 		.4byte	.LVL27
 10357 018c 0100     		.2byte	0x1
 10358 018e 52       		.byte	0x52
 10359 018f 26000000 		.4byte	.LVL27
 10360 0193 C4000000 		.4byte	.LVL53
 10361 0197 0100     		.2byte	0x1
 10362 0199 59       		.byte	0x59
 10363 019a C4000000 		.4byte	.LVL53
 10364 019e D8000000 		.4byte	.LFE23
 10365 01a2 0400     		.2byte	0x4
 10366 01a4 F3       		.byte	0xf3
 10367 01a5 01       		.uleb128 0x1
 10368 01a6 52       		.byte	0x52
 10369 01a7 9F       		.byte	0x9f
 10370 01a8 00000000 		.4byte	0
 10371 01ac 00000000 		.4byte	0
 10372              	.LLST11:
 10373 01b0 0E000000 		.4byte	.LVL25
 10374 01b4 26000000 		.4byte	.LVL27
 10375 01b8 0600     		.2byte	0x6
 10376 01ba 9E       		.byte	0x9e
 10377 01bb 04       		.uleb128 0x4
 10378 01bc 00000000 		.4byte	0
 10379 01c0 26000000 		.4byte	.LVL27
 10380 01c4 96000000 		.4byte	.LVL44
 10381 01c8 0200     		.2byte	0x2
 10382 01ca 91       		.byte	0x91
 10383 01cb 50       		.sleb128 -48
 10384 01cc 96000000 		.4byte	.LVL44
 10385 01d0 9A000000 		.4byte	.LVL45
 10386 01d4 0200     		.2byte	0x2
 10387 01d6 7D       		.byte	0x7d
 10388 01d7 00       		.sleb128 0
 10389 01d8 9A000000 		.4byte	.LVL45
 10390 01dc D8000000 		.4byte	.LFE23
 10391 01e0 0200     		.2byte	0x2
 10392 01e2 91       		.byte	0x91
 10393 01e3 50       		.sleb128 -48
 10394 01e4 00000000 		.4byte	0
 10395 01e8 00000000 		.4byte	0
 10396              	.LLST12:
 10397 01ec 0E000000 		.4byte	.LVL25
 10398 01f0 26000000 		.4byte	.LVL27
ARM GAS  C:\Users\rdn\AppData\Local\Temp\ccFEeGTH.s 			page 212


 10399 01f4 0600     		.2byte	0x6
 10400 01f6 9E       		.byte	0x9e
 10401 01f7 04       		.uleb128 0x4
 10402 01f8 00000000 		.4byte	0
 10403 01fc 26000000 		.4byte	.LVL27
 10404 0200 B2000000 		.4byte	.LVL48
 10405 0204 0200     		.2byte	0x2
 10406 0206 91       		.byte	0x91
 10407 0207 54       		.sleb128 -44
 10408 0208 B2000000 		.4byte	.LVL48
 10409 020c B6000000 		.4byte	.LVL49
 10410 0210 0200     		.2byte	0x2
 10411 0212 91       		.byte	0x91
 10412 0213 4C       		.sleb128 -52
 10413 0214 B6000000 		.4byte	.LVL49
 10414 0218 D8000000 		.4byte	.LFE23
 10415 021c 0200     		.2byte	0x2
 10416 021e 91       		.byte	0x91
 10417 021f 54       		.sleb128 -44
 10418 0220 00000000 		.4byte	0
 10419 0224 00000000 		.4byte	0
 10420              	.LLST13:
 10421 0228 14000000 		.4byte	.LVL26
 10422 022c 26000000 		.4byte	.LVL27
 10423 0230 0200     		.2byte	0x2
 10424 0232 30       		.byte	0x30
 10425 0233 9F       		.byte	0x9f
 10426 0234 26000000 		.4byte	.LVL27
 10427 0238 28000000 		.4byte	.LVL28
 10428 023c 0100     		.2byte	0x1
 10429 023e 53       		.byte	0x53
 10430 023f 28000000 		.4byte	.LVL28
 10431 0243 84000000 		.4byte	.LVL42
 10432 0247 0100     		.2byte	0x1
 10433 0249 5B       		.byte	0x5b
 10434 024a 84000000 		.4byte	.LVL42
 10435 024e 8B000000 		.4byte	.LVL43-1
 10436 0252 0100     		.2byte	0x1
 10437 0254 53       		.byte	0x53
 10438 0255 8B000000 		.4byte	.LVL43-1
 10439 0259 A0000000 		.4byte	.LVL46
 10440 025d 0100     		.2byte	0x1
 10441 025f 5B       		.byte	0x5b
 10442 0260 A0000000 		.4byte	.LVL46
 10443 0264 A7000000 		.4byte	.LVL47-1
 10444 0268 0100     		.2byte	0x1
 10445 026a 53       		.byte	0x53
 10446 026b A7000000 		.4byte	.LVL47-1
 10447 026f C4000000 		.4byte	.LVL54
 10448 0273 0100     		.2byte	0x1
 10449 0275 5B       		.byte	0x5b
 10450 0276 C4000000 		.4byte	.LVL54
 10451 027a D8000000 		.4byte	.LFE23
 10452 027e 0100     		.2byte	0x1
 10453 0280 53       		.byte	0x53
 10454 0281 00000000 		.4byte	0
 10455 0285 00000000 		.4byte	0
ARM GAS  C:\Users\rdn\AppData\Local\Temp\ccFEeGTH.s 			page 213


 10456              	.LLST14:
 10457 0289 2E000000 		.4byte	.LVL29
 10458 028d BC000000 		.4byte	.LVL50
 10459 0291 0100     		.2byte	0x1
 10460 0293 56       		.byte	0x56
 10461 0294 00000000 		.4byte	0
 10462 0298 00000000 		.4byte	0
 10463              	.LLST15:
 10464 029c 34000000 		.4byte	.LVL30
 10465 02a0 BC000000 		.4byte	.LVL50
 10466 02a4 0100     		.2byte	0x1
 10467 02a6 5A       		.byte	0x5a
 10468 02a7 00000000 		.4byte	0
 10469 02ab 00000000 		.4byte	0
 10470              	.LLST16:
 10471 02af 34000000 		.4byte	.LVL30
 10472 02b3 3E000000 		.4byte	.LVL31
 10473 02b7 0600     		.2byte	0x6
 10474 02b9 9E       		.byte	0x9e
 10475 02ba 04       		.uleb128 0x4
 10476 02bb 00000000 		.4byte	0
 10477 02bf 3E000000 		.4byte	.LVL31
 10478 02c3 58000000 		.4byte	.LVL35
 10479 02c7 0200     		.2byte	0x2
 10480 02c9 7D       		.byte	0x7d
 10481 02ca 00       		.sleb128 0
 10482 02cb 58000000 		.4byte	.LVL35
 10483 02cf 60000000 		.4byte	.LVL36
 10484 02d3 0100     		.2byte	0x1
 10485 02d5 50       		.byte	0x50
 10486 02d6 60000000 		.4byte	.LVL36
 10487 02da BC000000 		.4byte	.LVL50
 10488 02de 0200     		.2byte	0x2
 10489 02e0 7D       		.byte	0x7d
 10490 02e1 00       		.sleb128 0
 10491 02e2 00000000 		.4byte	0
 10492 02e6 00000000 		.4byte	0
 10493              	.LLST17:
 10494 02ea 34000000 		.4byte	.LVL30
 10495 02ee 3E000000 		.4byte	.LVL31
 10496 02f2 0600     		.2byte	0x6
 10497 02f4 9E       		.byte	0x9e
 10498 02f5 04       		.uleb128 0x4
 10499 02f6 00000000 		.4byte	0
 10500 02fa 3E000000 		.4byte	.LVL31
 10501 02fe 78000000 		.4byte	.LVL40
 10502 0302 0200     		.2byte	0x2
 10503 0304 91       		.byte	0x91
 10504 0305 4C       		.sleb128 -52
 10505 0306 78000000 		.4byte	.LVL40
 10506 030a 7A000000 		.4byte	.LVL41
 10507 030e 0100     		.2byte	0x1
 10508 0310 50       		.byte	0x50
 10509 0311 7A000000 		.4byte	.LVL41
 10510 0315 BC000000 		.4byte	.LVL50
 10511 0319 0200     		.2byte	0x2
 10512 031b 91       		.byte	0x91
ARM GAS  C:\Users\rdn\AppData\Local\Temp\ccFEeGTH.s 			page 214


 10513 031c 4C       		.sleb128 -52
 10514 031d 00000000 		.4byte	0
 10515 0321 00000000 		.4byte	0
 10516              	.LLST18:
 10517 0325 34000000 		.4byte	.LVL30
 10518 0329 3E000000 		.4byte	.LVL31
 10519 032d 0200     		.2byte	0x2
 10520 032f 30       		.byte	0x30
 10521 0330 9F       		.byte	0x9f
 10522 0331 3E000000 		.4byte	.LVL31
 10523 0335 BC000000 		.4byte	.LVL50
 10524 0339 0100     		.2byte	0x1
 10525 033b 54       		.byte	0x54
 10526 033c 00000000 		.4byte	0
 10527 0340 00000000 		.4byte	0
 10528              	.LLST19:
 10529 0344 00000000 		.4byte	.LVL55
 10530 0348 22000000 		.4byte	.LVL58
 10531 034c 0100     		.2byte	0x1
 10532 034e 50       		.byte	0x50
 10533 034f 22000000 		.4byte	.LVL58
 10534 0353 F8000000 		.4byte	.LVL90
 10535 0357 0100     		.2byte	0x1
 10536 0359 57       		.byte	0x57
 10537 035a F8000000 		.4byte	.LVL90
 10538 035e 04010000 		.4byte	.LFE25
 10539 0362 0400     		.2byte	0x4
 10540 0364 F3       		.byte	0xf3
 10541 0365 01       		.uleb128 0x1
 10542 0366 50       		.byte	0x50
 10543 0367 9F       		.byte	0x9f
 10544 0368 00000000 		.4byte	0
 10545 036c 00000000 		.4byte	0
 10546              	.LLST20:
 10547 0370 00000000 		.4byte	.LVL55
 10548 0374 22000000 		.4byte	.LVL58
 10549 0378 0100     		.2byte	0x1
 10550 037a 51       		.byte	0x51
 10551 037b 22000000 		.4byte	.LVL58
 10552 037f 62000000 		.4byte	.LVL67
 10553 0383 0100     		.2byte	0x1
 10554 0385 55       		.byte	0x55
 10555 0386 62000000 		.4byte	.LVL67
 10556 038a F0000000 		.4byte	.LVL88
 10557 038e 0100     		.2byte	0x1
 10558 0390 56       		.byte	0x56
 10559 0391 F0000000 		.4byte	.LVL88
 10560 0395 F8000000 		.4byte	.LVL89
 10561 0399 0100     		.2byte	0x1
 10562 039b 55       		.byte	0x55
 10563 039c F8000000 		.4byte	.LVL89
 10564 03a0 04010000 		.4byte	.LFE25
 10565 03a4 0400     		.2byte	0x4
 10566 03a6 F3       		.byte	0xf3
 10567 03a7 01       		.uleb128 0x1
 10568 03a8 51       		.byte	0x51
 10569 03a9 9F       		.byte	0x9f
ARM GAS  C:\Users\rdn\AppData\Local\Temp\ccFEeGTH.s 			page 215


 10570 03aa 00000000 		.4byte	0
 10571 03ae 00000000 		.4byte	0
 10572              	.LLST21:
 10573 03b2 00000000 		.4byte	.LVL55
 10574 03b6 12000000 		.4byte	.LVL56
 10575 03ba 0100     		.2byte	0x1
 10576 03bc 52       		.byte	0x52
 10577 03bd 12000000 		.4byte	.LVL56
 10578 03c1 F8000000 		.4byte	.LVL92
 10579 03c5 0100     		.2byte	0x1
 10580 03c7 5A       		.byte	0x5a
 10581 03c8 F8000000 		.4byte	.LVL92
 10582 03cc 04010000 		.4byte	.LFE25
 10583 03d0 0400     		.2byte	0x4
 10584 03d2 F3       		.byte	0xf3
 10585 03d3 01       		.uleb128 0x1
 10586 03d4 52       		.byte	0x52
 10587 03d5 9F       		.byte	0x9f
 10588 03d6 00000000 		.4byte	0
 10589 03da 00000000 		.4byte	0
 10590              	.LLST22:
 10591 03de 00000000 		.4byte	.LVL55
 10592 03e2 22000000 		.4byte	.LVL58
 10593 03e6 0100     		.2byte	0x1
 10594 03e8 53       		.byte	0x53
 10595 03e9 22000000 		.4byte	.LVL58
 10596 03ed 04010000 		.4byte	.LFE25
 10597 03f1 0400     		.2byte	0x4
 10598 03f3 F3       		.byte	0xf3
 10599 03f4 01       		.uleb128 0x1
 10600 03f5 53       		.byte	0x53
 10601 03f6 9F       		.byte	0x9f
 10602 03f7 00000000 		.4byte	0
 10603 03fb 00000000 		.4byte	0
 10604              	.LLST23:
 10605 03ff 18000000 		.4byte	.LVL57
 10606 0403 22000000 		.4byte	.LVL58
 10607 0407 0100     		.2byte	0x1
 10608 0409 53       		.byte	0x53
 10609 040a 22000000 		.4byte	.LVL58
 10610 040e F8000000 		.4byte	.LVL91
 10611 0412 0100     		.2byte	0x1
 10612 0414 58       		.byte	0x58
 10613 0415 00000000 		.4byte	0
 10614 0419 00000000 		.4byte	0
 10615              	.LLST24:
 10616 041d 38000000 		.4byte	.LVL61
 10617 0421 44000000 		.4byte	.LVL62
 10618 0425 0100     		.2byte	0x1
 10619 0427 50       		.byte	0x50
 10620 0428 44000000 		.4byte	.LVL62
 10621 042c F0000000 		.4byte	.LVL88
 10622 0430 0200     		.2byte	0x2
 10623 0432 91       		.byte	0x91
 10624 0433 44       		.sleb128 -60
 10625 0434 00000000 		.4byte	0
 10626 0438 00000000 		.4byte	0
ARM GAS  C:\Users\rdn\AppData\Local\Temp\ccFEeGTH.s 			page 216


 10627              	.LLST25:
 10628 043c 58000000 		.4byte	.LVL66
 10629 0440 62000000 		.4byte	.LVL67
 10630 0444 0100     		.2byte	0x1
 10631 0446 50       		.byte	0x50
 10632 0447 62000000 		.4byte	.LVL67
 10633 044b AE000000 		.4byte	.LVL81
 10634 044f 0200     		.2byte	0x2
 10635 0451 91       		.byte	0x91
 10636 0452 48       		.sleb128 -56
 10637 0453 B2000000 		.4byte	.LVL82
 10638 0457 F0000000 		.4byte	.LVL88
 10639 045b 0200     		.2byte	0x2
 10640 045d 91       		.byte	0x91
 10641 045e 48       		.sleb128 -56
 10642 045f 00000000 		.4byte	0
 10643 0463 00000000 		.4byte	0
 10644              	.LLST26:
 10645 0467 58000000 		.4byte	.LVL66
 10646 046b 62000000 		.4byte	.LVL67
 10647 046f 0200     		.2byte	0x2
 10648 0471 30       		.byte	0x30
 10649 0472 9F       		.byte	0x9f
 10650 0473 62000000 		.4byte	.LVL67
 10651 0477 AC000000 		.4byte	.LVL80
 10652 047b 0200     		.2byte	0x2
 10653 047d 91       		.byte	0x91
 10654 047e 54       		.sleb128 -44
 10655 047f B2000000 		.4byte	.LVL82
 10656 0483 F0000000 		.4byte	.LVL88
 10657 0487 0200     		.2byte	0x2
 10658 0489 91       		.byte	0x91
 10659 048a 54       		.sleb128 -44
 10660 048b 00000000 		.4byte	0
 10661 048f 00000000 		.4byte	0
 10662              	.LLST27:
 10663 0493 58000000 		.4byte	.LVL66
 10664 0497 62000000 		.4byte	.LVL67
 10665 049b 0200     		.2byte	0x2
 10666 049d 31       		.byte	0x31
 10667 049e 9F       		.byte	0x9f
 10668 049f 62000000 		.4byte	.LVL67
 10669 04a3 BE000000 		.4byte	.LVL84
 10670 04a7 0100     		.2byte	0x1
 10671 04a9 54       		.byte	0x54
 10672 04aa 00000000 		.4byte	0
 10673 04ae 00000000 		.4byte	0
 10674              	.LLST28:
 10675 04b2 74000000 		.4byte	.LVL70
 10676 04b6 76000000 		.4byte	.LVL71
 10677 04ba 0100     		.2byte	0x1
 10678 04bc 50       		.byte	0x50
 10679 04bd 76000000 		.4byte	.LVL71
 10680 04c1 B4000000 		.4byte	.LVL83
 10681 04c5 0300     		.2byte	0x3
 10682 04c7 91       		.byte	0x91
 10683 04c8 BC7F     		.sleb128 -68
ARM GAS  C:\Users\rdn\AppData\Local\Temp\ccFEeGTH.s 			page 217


 10684 04ca 00000000 		.4byte	0
 10685 04ce 00000000 		.4byte	0
 10686              	.LLST29:
 10687 04d2 8C000000 		.4byte	.LVL75
 10688 04d6 90000000 		.4byte	.LVL76
 10689 04da 0100     		.2byte	0x1
 10690 04dc 50       		.byte	0x50
 10691 04dd 90000000 		.4byte	.LVL76
 10692 04e1 B4000000 		.4byte	.LVL83
 10693 04e5 0100     		.2byte	0x1
 10694 04e7 55       		.byte	0x55
 10695 04e8 00000000 		.4byte	0
 10696 04ec 00000000 		.4byte	0
 10697              	.LLST30:
 10698 04f0 00000000 		.4byte	.LVL93
 10699 04f4 0E000000 		.4byte	.LVL94
 10700 04f8 0100     		.2byte	0x1
 10701 04fa 50       		.byte	0x50
 10702 04fb 0E000000 		.4byte	.LVL94
 10703 04ff 9C000000 		.4byte	.LFE27
 10704 0503 0400     		.2byte	0x4
 10705 0505 F3       		.byte	0xf3
 10706 0506 01       		.uleb128 0x1
 10707 0507 50       		.byte	0x50
 10708 0508 9F       		.byte	0x9f
 10709 0509 00000000 		.4byte	0
 10710 050d 00000000 		.4byte	0
 10711              	.LLST31:
 10712 0511 00000000 		.4byte	.LVL93
 10713 0515 16000000 		.4byte	.LVL96
 10714 0519 0100     		.2byte	0x1
 10715 051b 51       		.byte	0x51
 10716 051c 16000000 		.4byte	.LVL96
 10717 0520 9C000000 		.4byte	.LFE27
 10718 0524 0400     		.2byte	0x4
 10719 0526 F3       		.byte	0xf3
 10720 0527 01       		.uleb128 0x1
 10721 0528 51       		.byte	0x51
 10722 0529 9F       		.byte	0x9f
 10723 052a 00000000 		.4byte	0
 10724 052e 00000000 		.4byte	0
 10725              	.LLST32:
 10726 0532 00000000 		.4byte	.LVL93
 10727 0536 31000000 		.4byte	.LVL100-1
 10728 053a 0100     		.2byte	0x1
 10729 053c 52       		.byte	0x52
 10730 053d 31000000 		.4byte	.LVL100-1
 10731 0541 9C000000 		.4byte	.LFE27
 10732 0545 0400     		.2byte	0x4
 10733 0547 F3       		.byte	0xf3
 10734 0548 01       		.uleb128 0x1
 10735 0549 52       		.byte	0x52
 10736 054a 9F       		.byte	0x9f
 10737 054b 00000000 		.4byte	0
 10738 054f 00000000 		.4byte	0
 10739              	.LLST33:
 10740 0553 00000000 		.4byte	.LVL93
ARM GAS  C:\Users\rdn\AppData\Local\Temp\ccFEeGTH.s 			page 218


 10741 0557 1C000000 		.4byte	.LVL98
 10742 055b 0100     		.2byte	0x1
 10743 055d 53       		.byte	0x53
 10744 055e 1C000000 		.4byte	.LVL98
 10745 0562 9C000000 		.4byte	.LFE27
 10746 0566 0400     		.2byte	0x4
 10747 0568 F3       		.byte	0xf3
 10748 0569 01       		.uleb128 0x1
 10749 056a 53       		.byte	0x53
 10750 056b 9F       		.byte	0x9f
 10751 056c 00000000 		.4byte	0
 10752 0570 00000000 		.4byte	0
 10753              	.LLST34:
 10754 0574 14000000 		.4byte	.LVL95
 10755 0578 5C000000 		.4byte	.LVL106
 10756 057c 0100     		.2byte	0x1
 10757 057e 59       		.byte	0x59
 10758 057f 00000000 		.4byte	0
 10759 0583 00000000 		.4byte	0
 10760              	.LLST35:
 10761 0587 1A000000 		.4byte	.LVL97
 10762 058b 84000000 		.4byte	.LVL111
 10763 058f 0100     		.2byte	0x1
 10764 0591 57       		.byte	0x57
 10765 0592 00000000 		.4byte	0
 10766 0596 00000000 		.4byte	0
 10767              	.LLST36:
 10768 059a 2A000000 		.4byte	.LVL99
 10769 059e 31000000 		.4byte	.LVL100-1
 10770 05a2 0100     		.2byte	0x1
 10771 05a4 53       		.byte	0x53
 10772 05a5 31000000 		.4byte	.LVL100-1
 10773 05a9 9C000000 		.4byte	.LFE27
 10774 05ad 0200     		.2byte	0x2
 10775 05af 91       		.byte	0x91
 10776 05b0 5C       		.sleb128 -36
 10777 05b1 00000000 		.4byte	0
 10778 05b5 00000000 		.4byte	0
 10779              	.LLST37:
 10780 05b9 32000000 		.4byte	.LVL100
 10781 05bd 36000000 		.4byte	.LVL101
 10782 05c1 0200     		.2byte	0x2
 10783 05c3 30       		.byte	0x30
 10784 05c4 9F       		.byte	0x9f
 10785 05c5 36000000 		.4byte	.LVL101
 10786 05c9 5A000000 		.4byte	.LVL105
 10787 05cd 0100     		.2byte	0x1
 10788 05cf 55       		.byte	0x55
 10789 05d0 00000000 		.4byte	0
 10790 05d4 00000000 		.4byte	0
 10791              	.LLST38:
 10792 05d8 5C000000 		.4byte	.LVL106
 10793 05dc 84000000 		.4byte	.LVL110
 10794 05e0 0100     		.2byte	0x1
 10795 05e2 55       		.byte	0x55
 10796 05e3 00000000 		.4byte	0
 10797 05e7 00000000 		.4byte	0
ARM GAS  C:\Users\rdn\AppData\Local\Temp\ccFEeGTH.s 			page 219


 10798              	.LLST39:
 10799 05eb 00000000 		.4byte	.LVL112
 10800 05ef 0C000000 		.4byte	.LVL115
 10801 05f3 0100     		.2byte	0x1
 10802 05f5 50       		.byte	0x50
 10803 05f6 0C000000 		.4byte	.LVL115
 10804 05fa 84000000 		.4byte	.LFE28
 10805 05fe 0100     		.2byte	0x1
 10806 0600 50       		.byte	0x50
 10807 0601 00000000 		.4byte	0
 10808 0605 00000000 		.4byte	0
 10809              	.LLST40:
 10810 0609 00000000 		.4byte	.LVL112
 10811 060d 0A000000 		.4byte	.LVL114
 10812 0611 0100     		.2byte	0x1
 10813 0613 53       		.byte	0x53
 10814 0614 0A000000 		.4byte	.LVL114
 10815 0618 84000000 		.4byte	.LFE28
 10816 061c 0100     		.2byte	0x1
 10817 061e 5C       		.byte	0x5c
 10818 061f 00000000 		.4byte	0
 10819 0623 00000000 		.4byte	0
 10820              	.LLST41:
 10821 0627 10000000 		.4byte	.LVL116
 10822 062b 12000000 		.4byte	.LVL117
 10823 062f 0100     		.2byte	0x1
 10824 0631 57       		.byte	0x57
 10825 0632 16000000 		.4byte	.LVL119
 10826 0636 2C000000 		.4byte	.LVL120
 10827 063a 0100     		.2byte	0x1
 10828 063c 57       		.byte	0x57
 10829 063d 36000000 		.4byte	.LVL125
 10830 0641 72000000 		.4byte	.LVL129
 10831 0645 0100     		.2byte	0x1
 10832 0647 53       		.byte	0x53
 10833 0648 00000000 		.4byte	0
 10834 064c 00000000 		.4byte	0
 10835              	.LLST42:
 10836 0650 08000000 		.4byte	.LVL113
 10837 0654 10000000 		.4byte	.LVL116
 10838 0658 0200     		.2byte	0x2
 10839 065a 30       		.byte	0x30
 10840 065b 9F       		.byte	0x9f
 10841 065c 10000000 		.4byte	.LVL116
 10842 0660 7A000000 		.4byte	.LVL131
 10843 0664 0100     		.2byte	0x1
 10844 0666 54       		.byte	0x54
 10845 0667 00000000 		.4byte	0
 10846 066b 00000000 		.4byte	0
 10847              	.LLST43:
 10848 066f 32000000 		.4byte	.LVL123
 10849 0673 52000000 		.4byte	.LVL126
 10850 0677 0100     		.2byte	0x1
 10851 0679 57       		.byte	0x57
 10852 067a 52000000 		.4byte	.LVL126
 10853 067e 54000000 		.4byte	.LVL127
 10854 0682 0100     		.2byte	0x1
ARM GAS  C:\Users\rdn\AppData\Local\Temp\ccFEeGTH.s 			page 220


 10855 0684 56       		.byte	0x56
 10856 0685 54000000 		.4byte	.LVL127
 10857 0689 7A000000 		.4byte	.LVL132
 10858 068d 0100     		.2byte	0x1
 10859 068f 57       		.byte	0x57
 10860 0690 00000000 		.4byte	0
 10861 0694 00000000 		.4byte	0
 10862              	.LLST44:
 10863 0698 00000000 		.4byte	.LVL133
 10864 069c 28000000 		.4byte	.LVL140
 10865 06a0 0100     		.2byte	0x1
 10866 06a2 50       		.byte	0x50
 10867 06a3 28000000 		.4byte	.LVL140
 10868 06a7 54000000 		.4byte	.LVL148
 10869 06ab 0100     		.2byte	0x1
 10870 06ad 50       		.byte	0x50
 10871 06ae 00000000 		.4byte	0
 10872 06b2 00000000 		.4byte	0
 10873              	.LLST45:
 10874 06b6 00000000 		.4byte	.LVL133
 10875 06ba 06000000 		.4byte	.LVL134
 10876 06be 0100     		.2byte	0x1
 10877 06c0 51       		.byte	0x51
 10878 06c1 06000000 		.4byte	.LVL134
 10879 06c5 0A000000 		.4byte	.LVL136
 10880 06c9 0400     		.2byte	0x4
 10881 06cb F3       		.byte	0xf3
 10882 06cc 01       		.uleb128 0x1
 10883 06cd 51       		.byte	0x51
 10884 06ce 9F       		.byte	0x9f
 10885 06cf 0A000000 		.4byte	.LVL136
 10886 06d3 80000000 		.4byte	.LFE29
 10887 06d7 0100     		.2byte	0x1
 10888 06d9 5C       		.byte	0x5c
 10889 06da 00000000 		.4byte	0
 10890 06de 00000000 		.4byte	0
 10891              	.LLST46:
 10892 06e2 00000000 		.4byte	.LVL133
 10893 06e6 2A000000 		.4byte	.LVL141
 10894 06ea 0100     		.2byte	0x1
 10895 06ec 52       		.byte	0x52
 10896 06ed 38000000 		.4byte	.LVL142
 10897 06f1 4A000000 		.4byte	.LVL146
 10898 06f5 0100     		.2byte	0x1
 10899 06f7 57       		.byte	0x57
 10900 06f8 4A000000 		.4byte	.LVL146
 10901 06fc 62000000 		.4byte	.LVL150
 10902 0700 0100     		.2byte	0x1
 10903 0702 52       		.byte	0x52
 10904 0703 66000000 		.4byte	.LVL151
 10905 0707 6A000000 		.4byte	.LVL152
 10906 070b 0100     		.2byte	0x1
 10907 070d 52       		.byte	0x52
 10908 070e 00000000 		.4byte	0
 10909 0712 00000000 		.4byte	0
 10910              	.LLST47:
 10911 0716 00000000 		.4byte	.LVL133
ARM GAS  C:\Users\rdn\AppData\Local\Temp\ccFEeGTH.s 			page 221


 10912 071a 2A000000 		.4byte	.LVL141
 10913 071e 0100     		.2byte	0x1
 10914 0720 53       		.byte	0x53
 10915 0721 2A000000 		.4byte	.LVL141
 10916 0725 4A000000 		.4byte	.LVL146
 10917 0729 0100     		.2byte	0x1
 10918 072b 52       		.byte	0x52
 10919 072c 4A000000 		.4byte	.LVL146
 10920 0730 5A000000 		.4byte	.LVL149
 10921 0734 0100     		.2byte	0x1
 10922 0736 53       		.byte	0x53
 10923 0737 5A000000 		.4byte	.LVL149
 10924 073b 66000000 		.4byte	.LVL151
 10925 073f 0100     		.2byte	0x1
 10926 0741 54       		.byte	0x54
 10927 0742 66000000 		.4byte	.LVL151
 10928 0746 6A000000 		.4byte	.LVL152
 10929 074a 0100     		.2byte	0x1
 10930 074c 53       		.byte	0x53
 10931 074d 6A000000 		.4byte	.LVL152
 10932 0751 72000000 		.4byte	.LVL153
 10933 0755 0300     		.2byte	0x3
 10934 0757 74       		.byte	0x74
 10935 0758 04       		.sleb128 4
 10936 0759 9F       		.byte	0x9f
 10937 075a 72000000 		.4byte	.LVL153
 10938 075e 78000000 		.4byte	.LVL155
 10939 0762 0100     		.2byte	0x1
 10940 0764 54       		.byte	0x54
 10941 0765 00000000 		.4byte	0
 10942 0769 00000000 		.4byte	0
 10943              	.LLST48:
 10944 076d 08000000 		.4byte	.LVL135
 10945 0771 54000000 		.4byte	.LVL148
 10946 0775 0100     		.2byte	0x1
 10947 0777 55       		.byte	0x55
 10948 0778 54000000 		.4byte	.LVL148
 10949 077c 6A000000 		.4byte	.LVL152
 10950 0780 0100     		.2byte	0x1
 10951 0782 50       		.byte	0x50
 10952 0783 6A000000 		.4byte	.LVL152
 10953 0787 72000000 		.4byte	.LVL153
 10954 078b 0100     		.2byte	0x1
 10955 078d 53       		.byte	0x53
 10956 078e 72000000 		.4byte	.LVL153
 10957 0792 74000000 		.4byte	.LVL154
 10958 0796 0100     		.2byte	0x1
 10959 0798 50       		.byte	0x50
 10960 0799 74000000 		.4byte	.LVL154
 10961 079d 80000000 		.4byte	.LFE29
 10962 07a1 0100     		.2byte	0x1
 10963 07a3 53       		.byte	0x53
 10964 07a4 00000000 		.4byte	0
 10965 07a8 00000000 		.4byte	0
 10966              	.LLST49:
 10967 07ac 52000000 		.4byte	.LVL147
 10968 07b0 62000000 		.4byte	.LVL150
ARM GAS  C:\Users\rdn\AppData\Local\Temp\ccFEeGTH.s 			page 222


 10969 07b4 0100     		.2byte	0x1
 10970 07b6 52       		.byte	0x52
 10971 07b7 66000000 		.4byte	.LVL151
 10972 07bb 6A000000 		.4byte	.LVL152
 10973 07bf 0100     		.2byte	0x1
 10974 07c1 52       		.byte	0x52
 10975 07c2 00000000 		.4byte	0
 10976 07c6 00000000 		.4byte	0
 10977              	.LLST50:
 10978 07ca 0A000000 		.4byte	.LVL136
 10979 07ce 0E000000 		.4byte	.LVL138
 10980 07d2 0100     		.2byte	0x1
 10981 07d4 56       		.byte	0x56
 10982 07d5 10000000 		.4byte	.LVL139
 10983 07d9 4A000000 		.4byte	.LVL146
 10984 07dd 0100     		.2byte	0x1
 10985 07df 56       		.byte	0x56
 10986 07e0 00000000 		.4byte	0
 10987 07e4 00000000 		.4byte	0
 10988              	.LLST51:
 10989 07e8 00000000 		.4byte	.LVL156
 10990 07ec 12000000 		.4byte	.LVL160
 10991 07f0 0100     		.2byte	0x1
 10992 07f2 50       		.byte	0x50
 10993 07f3 12000000 		.4byte	.LVL160
 10994 07f7 28000000 		.4byte	.LVL164
 10995 07fb 0100     		.2byte	0x1
 10996 07fd 55       		.byte	0x55
 10997 07fe 28000000 		.4byte	.LVL164
 10998 0802 2A000000 		.4byte	.LFE30
 10999 0806 0400     		.2byte	0x4
 11000 0808 F3       		.byte	0xf3
 11001 0809 01       		.uleb128 0x1
 11002 080a 50       		.byte	0x50
 11003 080b 9F       		.byte	0x9f
 11004 080c 00000000 		.4byte	0
 11005 0810 00000000 		.4byte	0
 11006              	.LLST52:
 11007 0814 00000000 		.4byte	.LVL156
 11008 0818 0C000000 		.4byte	.LVL157
 11009 081c 0100     		.2byte	0x1
 11010 081e 51       		.byte	0x51
 11011 081f 0C000000 		.4byte	.LVL157
 11012 0823 0E000000 		.4byte	.LVL158
 11013 0827 0100     		.2byte	0x1
 11014 0829 54       		.byte	0x54
 11015 082a 0E000000 		.4byte	.LVL158
 11016 082e 10000000 		.4byte	.LVL159
 11017 0832 0100     		.2byte	0x1
 11018 0834 51       		.byte	0x51
 11019 0835 10000000 		.4byte	.LVL159
 11020 0839 28000000 		.4byte	.LVL163
 11021 083d 0100     		.2byte	0x1
 11022 083f 54       		.byte	0x54
 11023 0840 28000000 		.4byte	.LVL163
 11024 0844 2A000000 		.4byte	.LFE30
 11025 0848 0400     		.2byte	0x4
ARM GAS  C:\Users\rdn\AppData\Local\Temp\ccFEeGTH.s 			page 223


 11026 084a F3       		.byte	0xf3
 11027 084b 01       		.uleb128 0x1
 11028 084c 51       		.byte	0x51
 11029 084d 9F       		.byte	0x9f
 11030 084e 00000000 		.4byte	0
 11031 0852 00000000 		.4byte	0
 11032              	.LLST53:
 11033 0856 00000000 		.4byte	.LVL156
 11034 085a 15000000 		.4byte	.LVL161-1
 11035 085e 0100     		.2byte	0x1
 11036 0860 52       		.byte	0x52
 11037 0861 15000000 		.4byte	.LVL161-1
 11038 0865 2A000000 		.4byte	.LFE30
 11039 0869 0400     		.2byte	0x4
 11040 086b F3       		.byte	0xf3
 11041 086c 01       		.uleb128 0x1
 11042 086d 52       		.byte	0x52
 11043 086e 9F       		.byte	0x9f
 11044 086f 00000000 		.4byte	0
 11045 0873 00000000 		.4byte	0
 11046              	.LLST54:
 11047 0877 00000000 		.4byte	.LVL156
 11048 087b 15000000 		.4byte	.LVL161-1
 11049 087f 0100     		.2byte	0x1
 11050 0881 53       		.byte	0x53
 11051 0882 15000000 		.4byte	.LVL161-1
 11052 0886 2A000000 		.4byte	.LFE30
 11053 088a 0400     		.2byte	0x4
 11054 088c F3       		.byte	0xf3
 11055 088d 01       		.uleb128 0x1
 11056 088e 53       		.byte	0x53
 11057 088f 9F       		.byte	0x9f
 11058 0890 00000000 		.4byte	0
 11059 0894 00000000 		.4byte	0
 11060              	.LLST55:
 11061 0898 00000000 		.4byte	.LVL165
 11062 089c 34000000 		.4byte	.LVL171
 11063 08a0 0100     		.2byte	0x1
 11064 08a2 50       		.byte	0x50
 11065 08a3 34000000 		.4byte	.LVL171
 11066 08a7 3C000000 		.4byte	.LVL173
 11067 08ab 0400     		.2byte	0x4
 11068 08ad F3       		.byte	0xf3
 11069 08ae 01       		.uleb128 0x1
 11070 08af 50       		.byte	0x50
 11071 08b0 9F       		.byte	0x9f
 11072 08b1 3C000000 		.4byte	.LVL173
 11073 08b5 3E000000 		.4byte	.LVL174
 11074 08b9 0100     		.2byte	0x1
 11075 08bb 50       		.byte	0x50
 11076 08bc 3E000000 		.4byte	.LVL174
 11077 08c0 AC050000 		.4byte	.LFE22
 11078 08c4 0400     		.2byte	0x4
 11079 08c6 F3       		.byte	0xf3
 11080 08c7 01       		.uleb128 0x1
 11081 08c8 50       		.byte	0x50
 11082 08c9 9F       		.byte	0x9f
ARM GAS  C:\Users\rdn\AppData\Local\Temp\ccFEeGTH.s 			page 224


 11083 08ca 00000000 		.4byte	0
 11084 08ce 00000000 		.4byte	0
 11085              	.LLST56:
 11086 08d2 00000000 		.4byte	.LVL165
 11087 08d6 32000000 		.4byte	.LVL170
 11088 08da 0100     		.2byte	0x1
 11089 08dc 51       		.byte	0x51
 11090 08dd 32000000 		.4byte	.LVL170
 11091 08e1 3C000000 		.4byte	.LVL173
 11092 08e5 0400     		.2byte	0x4
 11093 08e7 F3       		.byte	0xf3
 11094 08e8 01       		.uleb128 0x1
 11095 08e9 51       		.byte	0x51
 11096 08ea 9F       		.byte	0x9f
 11097 08eb 3C000000 		.4byte	.LVL173
 11098 08ef 3E000000 		.4byte	.LVL174
 11099 08f3 0100     		.2byte	0x1
 11100 08f5 51       		.byte	0x51
 11101 08f6 3E000000 		.4byte	.LVL174
 11102 08fa AC050000 		.4byte	.LFE22
 11103 08fe 0400     		.2byte	0x4
 11104 0900 F3       		.byte	0xf3
 11105 0901 01       		.uleb128 0x1
 11106 0902 51       		.byte	0x51
 11107 0903 9F       		.byte	0x9f
 11108 0904 00000000 		.4byte	0
 11109 0908 00000000 		.4byte	0
 11110              	.LLST57:
 11111 090c 00000000 		.4byte	.LVL165
 11112 0910 2A000000 		.4byte	.LVL168
 11113 0914 0100     		.2byte	0x1
 11114 0916 52       		.byte	0x52
 11115 0917 2A000000 		.4byte	.LVL168
 11116 091b 84040000 		.4byte	.LVL312
 11117 091f 0300     		.2byte	0x3
 11118 0921 91       		.byte	0x91
 11119 0922 D07D     		.sleb128 -304
 11120 0924 84040000 		.4byte	.LVL312
 11121 0928 AC050000 		.4byte	.LFE22
 11122 092c 0400     		.2byte	0x4
 11123 092e F3       		.byte	0xf3
 11124 092f 01       		.uleb128 0x1
 11125 0930 52       		.byte	0x52
 11126 0931 9F       		.byte	0x9f
 11127 0932 00000000 		.4byte	0
 11128 0936 00000000 		.4byte	0
 11129              	.LLST58:
 11130 093a 00000000 		.4byte	.LVL165
 11131 093e 18000000 		.4byte	.LVL166
 11132 0942 0100     		.2byte	0x1
 11133 0944 53       		.byte	0x53
 11134 0945 18000000 		.4byte	.LVL166
 11135 0949 BE000000 		.4byte	.LVL183
 11136 094d 0100     		.2byte	0x1
 11137 094f 54       		.byte	0x54
 11138 0950 BE000000 		.4byte	.LVL183
 11139 0954 AC050000 		.4byte	.LFE22
ARM GAS  C:\Users\rdn\AppData\Local\Temp\ccFEeGTH.s 			page 225


 11140 0958 0400     		.2byte	0x4
 11141 095a F3       		.byte	0xf3
 11142 095b 01       		.uleb128 0x1
 11143 095c 53       		.byte	0x53
 11144 095d 9F       		.byte	0x9f
 11145 095e 00000000 		.4byte	0
 11146 0962 00000000 		.4byte	0
 11147              	.LLST59:
 11148 0966 00000000 		.4byte	.LVL165
 11149 096a 18000000 		.4byte	.LVL166
 11150 096e 0200     		.2byte	0x2
 11151 0970 91       		.byte	0x91
 11152 0971 00       		.sleb128 0
 11153 0972 18000000 		.4byte	.LVL166
 11154 0976 1A000000 		.4byte	.LVL167
 11155 097a 0200     		.2byte	0x2
 11156 097c 73       		.byte	0x73
 11157 097d 00       		.sleb128 0
 11158 097e 1A000000 		.4byte	.LVL167
 11159 0982 AC050000 		.4byte	.LFE22
 11160 0986 0200     		.2byte	0x2
 11161 0988 91       		.byte	0x91
 11162 0989 00       		.sleb128 0
 11163 098a 00000000 		.4byte	0
 11164 098e 00000000 		.4byte	0
 11165              	.LLST60:
 11166 0992 00000000 		.4byte	.LVL165
 11167 0996 18000000 		.4byte	.LVL166
 11168 099a 0200     		.2byte	0x2
 11169 099c 91       		.byte	0x91
 11170 099d 04       		.sleb128 4
 11171 099e 18000000 		.4byte	.LVL166
 11172 09a2 1A000000 		.4byte	.LVL167
 11173 09a6 0200     		.2byte	0x2
 11174 09a8 73       		.byte	0x73
 11175 09a9 04       		.sleb128 4
 11176 09aa 1A000000 		.4byte	.LVL167
 11177 09ae AC050000 		.4byte	.LFE22
 11178 09b2 0200     		.2byte	0x2
 11179 09b4 91       		.byte	0x91
 11180 09b5 04       		.sleb128 4
 11181 09b6 00000000 		.4byte	0
 11182 09ba 00000000 		.4byte	0
 11183              	.LLST61:
 11184 09be 2C000000 		.4byte	.LVL169
 11185 09c2 54000000 		.4byte	.LVL176
 11186 09c6 0100     		.2byte	0x1
 11187 09c8 55       		.byte	0x55
 11188 09c9 54000000 		.4byte	.LVL176
 11189 09cd A4000000 		.4byte	.LVL181
 11190 09d1 0100     		.2byte	0x1
 11191 09d3 5A       		.byte	0x5a
 11192 09d4 00000000 		.4byte	0
 11193 09d8 00000000 		.4byte	0
 11194              	.LLST62:
 11195 09dc 3E000000 		.4byte	.LVL174
 11196 09e0 B5000000 		.4byte	.LVL182-1
ARM GAS  C:\Users\rdn\AppData\Local\Temp\ccFEeGTH.s 			page 226


 11197 09e4 0100     		.2byte	0x1
 11198 09e6 53       		.byte	0x53
 11199 09e7 00000000 		.4byte	0
 11200 09eb 00000000 		.4byte	0
 11201              	.LLST63:
 11202 09ef 4E000000 		.4byte	.LVL175
 11203 09f3 7C000000 		.4byte	.LVL178
 11204 09f7 0100     		.2byte	0x1
 11205 09f9 5C       		.byte	0x5c
 11206 09fa 7C000000 		.4byte	.LVL178
 11207 09fe CC000000 		.4byte	.LVL185
 11208 0a02 0100     		.2byte	0x1
 11209 0a04 57       		.byte	0x57
 11210 0a05 00000000 		.4byte	0
 11211 0a09 00000000 		.4byte	0
 11212              	.LLST64:
 11213 0a0d BE000000 		.4byte	.LVL183
 11214 0a11 CE000000 		.4byte	.LVL186
 11215 0a15 0100     		.2byte	0x1
 11216 0a17 54       		.byte	0x54
 11217 0a18 CE000000 		.4byte	.LVL186
 11218 0a1c 02020000 		.4byte	.LVL230
 11219 0a20 0100     		.2byte	0x1
 11220 0a22 57       		.byte	0x57
 11221 0a23 02020000 		.4byte	.LVL230
 11222 0a27 CC030000 		.4byte	.LVL289
 11223 0a2b 0A00     		.2byte	0xa
 11224 0a2d 79       		.byte	0x79
 11225 0a2e 00       		.sleb128 0
 11226 0a2f 32       		.byte	0x32
 11227 0a30 24       		.byte	0x24
 11228 0a31 03       		.byte	0x3
 11229 0a32 00040000 		.4byte	.LANCHOR1
 11230 0a36 22       		.byte	0x22
 11231 0a37 CC030000 		.4byte	.LVL289
 11232 0a3b 04040000 		.4byte	.LVL291
 11233 0a3f 0A00     		.2byte	0xa
 11234 0a41 73       		.byte	0x73
 11235 0a42 00       		.sleb128 0
 11236 0a43 32       		.byte	0x32
 11237 0a44 24       		.byte	0x24
 11238 0a45 03       		.byte	0x3
 11239 0a46 00040000 		.4byte	.LANCHOR1
 11240 0a4a 22       		.byte	0x22
 11241 0a4b 04040000 		.4byte	.LVL291
 11242 0a4f 08040000 		.4byte	.LVL292
 11243 0a53 0A00     		.2byte	0xa
 11244 0a55 79       		.byte	0x79
 11245 0a56 00       		.sleb128 0
 11246 0a57 32       		.byte	0x32
 11247 0a58 24       		.byte	0x24
 11248 0a59 03       		.byte	0x3
 11249 0a5a 00040000 		.4byte	.LANCHOR1
 11250 0a5e 22       		.byte	0x22
 11251 0a5f 08040000 		.4byte	.LVL292
 11252 0a63 0A040000 		.4byte	.LVL293
 11253 0a67 0A00     		.2byte	0xa
ARM GAS  C:\Users\rdn\AppData\Local\Temp\ccFEeGTH.s 			page 227


 11254 0a69 73       		.byte	0x73
 11255 0a6a 00       		.sleb128 0
 11256 0a6b 32       		.byte	0x32
 11257 0a6c 24       		.byte	0x24
 11258 0a6d 03       		.byte	0x3
 11259 0a6e 00040000 		.4byte	.LANCHOR1
 11260 0a72 22       		.byte	0x22
 11261 0a73 0A040000 		.4byte	.LVL293
 11262 0a77 82050000 		.4byte	.LVL354
 11263 0a7b 0A00     		.2byte	0xa
 11264 0a7d 79       		.byte	0x79
 11265 0a7e 00       		.sleb128 0
 11266 0a7f 32       		.byte	0x32
 11267 0a80 24       		.byte	0x24
 11268 0a81 03       		.byte	0x3
 11269 0a82 00040000 		.4byte	.LANCHOR1
 11270 0a86 22       		.byte	0x22
 11271 0a87 00000000 		.4byte	0
 11272 0a8b 00000000 		.4byte	0
 11273              	.LLST65:
 11274 0a8f C0000000 		.4byte	.LVL184
 11275 0a93 CE000000 		.4byte	.LVL186
 11276 0a97 0100     		.2byte	0x1
 11277 0a99 53       		.byte	0x53
 11278 0a9a CE000000 		.4byte	.LVL186
 11279 0a9e DA000000 		.4byte	.LVL188
 11280 0aa2 0100     		.2byte	0x1
 11281 0aa4 55       		.byte	0x55
 11282 0aa5 4C010000 		.4byte	.LVL203
 11283 0aa9 CA010000 		.4byte	.LVL222
 11284 0aad 0100     		.2byte	0x1
 11285 0aaf 55       		.byte	0x55
 11286 0ab0 00000000 		.4byte	0
 11287 0ab4 00000000 		.4byte	0
 11288              	.LLST66:
 11289 0ab8 C0000000 		.4byte	.LVL184
 11290 0abc CE000000 		.4byte	.LVL186
 11291 0ac0 0100     		.2byte	0x1
 11292 0ac2 53       		.byte	0x53
 11293 0ac3 CE000000 		.4byte	.LVL186
 11294 0ac7 44010000 		.4byte	.LVL202
 11295 0acb 0200     		.2byte	0x2
 11296 0acd 7D       		.byte	0x7d
 11297 0ace 00       		.sleb128 0
 11298 0acf 94010000 		.4byte	.LVL214
 11299 0ad3 9D010000 		.4byte	.LVL215-1
 11300 0ad7 0100     		.2byte	0x1
 11301 0ad9 53       		.byte	0x53
 11302 0ada 9D010000 		.4byte	.LVL215-1
 11303 0ade 04020000 		.4byte	.LVL231
 11304 0ae2 0200     		.2byte	0x2
 11305 0ae4 7D       		.byte	0x7d
 11306 0ae5 00       		.sleb128 0
 11307 0ae6 00000000 		.4byte	0
 11308 0aea 00000000 		.4byte	0
 11309              	.LLST67:
 11310 0aee FA000000 		.4byte	.LVL191
ARM GAS  C:\Users\rdn\AppData\Local\Temp\ccFEeGTH.s 			page 228


 11311 0af2 4C010000 		.4byte	.LVL203
 11312 0af6 0100     		.2byte	0x1
 11313 0af8 55       		.byte	0x55
 11314 0af9 00000000 		.4byte	0
 11315 0afd 00000000 		.4byte	0
 11316              	.LLST68:
 11317 0b01 C0000000 		.4byte	.LVL184
 11318 0b05 CE000000 		.4byte	.LVL186
 11319 0b09 0600     		.2byte	0x6
 11320 0b0b 9E       		.byte	0x9e
 11321 0b0c 04       		.uleb128 0x4
 11322 0b0d 00000000 		.4byte	0
 11323 0b11 CE000000 		.4byte	.LVL186
 11324 0b15 24010000 		.4byte	.LVL197
 11325 0b19 0300     		.2byte	0x3
 11326 0b1b 91       		.byte	0x91
 11327 0b1c C47D     		.sleb128 -316
 11328 0b1e 24010000 		.4byte	.LVL197
 11329 0b22 2A010000 		.4byte	.LVL198
 11330 0b26 0100     		.2byte	0x1
 11331 0b28 50       		.byte	0x50
 11332 0b29 2A010000 		.4byte	.LVL198
 11333 0b2d 76010000 		.4byte	.LVL209
 11334 0b31 0300     		.2byte	0x3
 11335 0b33 91       		.byte	0x91
 11336 0b34 C47D     		.sleb128 -316
 11337 0b36 76010000 		.4byte	.LVL209
 11338 0b3a 7C010000 		.4byte	.LVL210
 11339 0b3e 0100     		.2byte	0x1
 11340 0b40 50       		.byte	0x50
 11341 0b41 7C010000 		.4byte	.LVL210
 11342 0b45 F0010000 		.4byte	.LVL226
 11343 0b49 0300     		.2byte	0x3
 11344 0b4b 91       		.byte	0x91
 11345 0b4c C47D     		.sleb128 -316
 11346 0b4e F0010000 		.4byte	.LVL226
 11347 0b52 F5010000 		.4byte	.LVL227-1
 11348 0b56 0100     		.2byte	0x1
 11349 0b58 50       		.byte	0x50
 11350 0b59 00000000 		.4byte	0
 11351 0b5d 00000000 		.4byte	0
 11352              	.LLST69:
 11353 0b61 00020000 		.4byte	.LVL229
 11354 0b65 04020000 		.4byte	.LVL231
 11355 0b69 0100     		.2byte	0x1
 11356 0b6b 50       		.byte	0x50
 11357 0b6c 04020000 		.4byte	.LVL231
 11358 0b70 E0020000 		.4byte	.LVL263
 11359 0b74 0300     		.2byte	0x3
 11360 0b76 91       		.byte	0x91
 11361 0b77 C47D     		.sleb128 -316
 11362 0b79 00000000 		.4byte	0
 11363 0b7d 00000000 		.4byte	0
 11364              	.LLST70:
 11365 0b81 DA020000 		.4byte	.LVL261
 11366 0b85 E0020000 		.4byte	.LVL263
 11367 0b89 0100     		.2byte	0x1
ARM GAS  C:\Users\rdn\AppData\Local\Temp\ccFEeGTH.s 			page 229


 11368 0b8b 50       		.byte	0x50
 11369 0b8c E0020000 		.4byte	.LVL263
 11370 0b90 C6030000 		.4byte	.LVL288
 11371 0b94 0200     		.2byte	0x2
 11372 0b96 7D       		.byte	0x7d
 11373 0b97 00       		.sleb128 0
 11374 0b98 C6030000 		.4byte	.LVL288
 11375 0b9c 30040000 		.4byte	.LVL299
 11376 0ba0 0100     		.2byte	0x1
 11377 0ba2 50       		.byte	0x50
 11378 0ba3 30040000 		.4byte	.LVL299
 11379 0ba7 74040000 		.4byte	.LVL308
 11380 0bab 0200     		.2byte	0x2
 11381 0bad 7D       		.byte	0x7d
 11382 0bae 00       		.sleb128 0
 11383 0baf C0040000 		.4byte	.LVL324
 11384 0bb3 C6040000 		.4byte	.LVL327
 11385 0bb7 0100     		.2byte	0x1
 11386 0bb9 50       		.byte	0x50
 11387 0bba C6040000 		.4byte	.LVL327
 11388 0bbe EE040000 		.4byte	.LVL334
 11389 0bc2 0300     		.2byte	0x3
 11390 0bc4 91       		.byte	0x91
 11391 0bc5 C47D     		.sleb128 -316
 11392 0bc7 EE040000 		.4byte	.LVL334
 11393 0bcb F4040000 		.4byte	.LVL336
 11394 0bcf 0100     		.2byte	0x1
 11395 0bd1 50       		.byte	0x50
 11396 0bd2 F4040000 		.4byte	.LVL336
 11397 0bd6 40050000 		.4byte	.LVL346
 11398 0bda 0300     		.2byte	0x3
 11399 0bdc 91       		.byte	0x91
 11400 0bdd C47D     		.sleb128 -316
 11401 0bdf 40050000 		.4byte	.LVL346
 11402 0be3 48050000 		.4byte	.LVL348
 11403 0be7 0100     		.2byte	0x1
 11404 0be9 50       		.byte	0x50
 11405 0bea 48050000 		.4byte	.LVL348
 11406 0bee 80050000 		.4byte	.LVL353
 11407 0bf2 0300     		.2byte	0x3
 11408 0bf4 91       		.byte	0x91
 11409 0bf5 C47D     		.sleb128 -316
 11410 0bf7 00000000 		.4byte	0
 11411 0bfb 00000000 		.4byte	0
 11412              	.LLST71:
 11413 0bff 02040000 		.4byte	.LVL290
 11414 0c03 3E040000 		.4byte	.LVL303
 11415 0c07 0100     		.2byte	0x1
 11416 0c09 55       		.byte	0x55
 11417 0c0a 3E040000 		.4byte	.LVL303
 11418 0c0e C4040000 		.4byte	.LVL326
 11419 0c12 0300     		.2byte	0x3
 11420 0c14 91       		.byte	0x91
 11421 0c15 C47D     		.sleb128 -316
 11422 0c17 00000000 		.4byte	0
 11423 0c1b 00000000 		.4byte	0
 11424              	.LLST72:
ARM GAS  C:\Users\rdn\AppData\Local\Temp\ccFEeGTH.s 			page 230


 11425 0c1f CA040000 		.4byte	.LVL329
 11426 0c23 FC040000 		.4byte	.LVL338
 11427 0c27 0200     		.2byte	0x2
 11428 0c29 7D       		.byte	0x7d
 11429 0c2a 00       		.sleb128 0
 11430 0c2b 00000000 		.4byte	0
 11431 0c2f 00000000 		.4byte	0
 11432              	.LLST73:
 11433 0c33 74040000 		.4byte	.LVL308
 11434 0c37 8B040000 		.4byte	.LVL314-1
 11435 0c3b 0100     		.2byte	0x1
 11436 0c3d 53       		.byte	0x53
 11437 0c3e 8B040000 		.4byte	.LVL314-1
 11438 0c42 CA040000 		.4byte	.LVL329
 11439 0c46 0200     		.2byte	0x2
 11440 0c48 7D       		.byte	0x7d
 11441 0c49 00       		.sleb128 0
 11442 0c4a CA040000 		.4byte	.LVL329
 11443 0c4e 00050000 		.4byte	.LVL339
 11444 0c52 0300     		.2byte	0x3
 11445 0c54 91       		.byte	0x91
 11446 0c55 C87D     		.sleb128 -312
 11447 0c57 00050000 		.4byte	.LVL339
 11448 0c5b 48050000 		.4byte	.LVL348
 11449 0c5f 0200     		.2byte	0x2
 11450 0c61 7D       		.byte	0x7d
 11451 0c62 00       		.sleb128 0
 11452 0c63 00000000 		.4byte	0
 11453 0c67 00000000 		.4byte	0
 11454              	.LLST74:
 11455 0c6b 78040000 		.4byte	.LVL309
 11456 0c6f 8B040000 		.4byte	.LVL314-1
 11457 0c73 0100     		.2byte	0x1
 11458 0c75 52       		.byte	0x52
 11459 0c76 8B040000 		.4byte	.LVL314-1
 11460 0c7a CA040000 		.4byte	.LVL329
 11461 0c7e 0300     		.2byte	0x3
 11462 0c80 91       		.byte	0x91
 11463 0c81 C87D     		.sleb128 -312
 11464 0c83 CA040000 		.4byte	.LVL329
 11465 0c87 04050000 		.4byte	.LVL340
 11466 0c8b 0300     		.2byte	0x3
 11467 0c8d 91       		.byte	0x91
 11468 0c8e CC7D     		.sleb128 -308
 11469 0c90 04050000 		.4byte	.LVL340
 11470 0c94 80050000 		.4byte	.LVL353
 11471 0c98 0300     		.2byte	0x3
 11472 0c9a 91       		.byte	0x91
 11473 0c9b C87D     		.sleb128 -312
 11474 0c9d 00000000 		.4byte	0
 11475 0ca1 00000000 		.4byte	0
 11476              	.LLST75:
 11477 0ca5 7E040000 		.4byte	.LVL310
 11478 0ca9 80040000 		.4byte	.LVL311
 11479 0cad 0100     		.2byte	0x1
 11480 0caf 51       		.byte	0x51
 11481 0cb0 80040000 		.4byte	.LVL311
ARM GAS  C:\Users\rdn\AppData\Local\Temp\ccFEeGTH.s 			page 231


 11482 0cb4 9E040000 		.4byte	.LVL320
 11483 0cb8 0100     		.2byte	0x1
 11484 0cba 54       		.byte	0x54
 11485 0cbb 9E040000 		.4byte	.LVL320
 11486 0cbf CA040000 		.4byte	.LVL329
 11487 0cc3 0300     		.2byte	0x3
 11488 0cc5 91       		.byte	0x91
 11489 0cc6 CC7D     		.sleb128 -308
 11490 0cc8 CA040000 		.4byte	.LVL329
 11491 0ccc 06050000 		.4byte	.LVL341
 11492 0cd0 0300     		.2byte	0x3
 11493 0cd2 91       		.byte	0x91
 11494 0cd3 D07D     		.sleb128 -304
 11495 0cd5 06050000 		.4byte	.LVL341
 11496 0cd9 80050000 		.4byte	.LVL353
 11497 0cdd 0300     		.2byte	0x3
 11498 0cdf 91       		.byte	0x91
 11499 0ce0 CC7D     		.sleb128 -308
 11500 0ce2 00000000 		.4byte	0
 11501 0ce6 00000000 		.4byte	0
 11502              	.LLST76:
 11503 0cea 84040000 		.4byte	.LVL312
 11504 0cee 86040000 		.4byte	.LVL313
 11505 0cf2 0100     		.2byte	0x1
 11506 0cf4 51       		.byte	0x51
 11507 0cf5 86040000 		.4byte	.LVL313
 11508 0cf9 AC040000 		.4byte	.LVL322
 11509 0cfd 0100     		.2byte	0x1
 11510 0cff 56       		.byte	0x56
 11511 0d00 AC040000 		.4byte	.LVL322
 11512 0d04 D0040000 		.4byte	.LVL330
 11513 0d08 0300     		.2byte	0x3
 11514 0d0a 91       		.byte	0x91
 11515 0d0b D07D     		.sleb128 -304
 11516 0d0d D0040000 		.4byte	.LVL330
 11517 0d11 06050000 		.4byte	.LVL341
 11518 0d15 0100     		.2byte	0x1
 11519 0d17 54       		.byte	0x54
 11520 0d18 06050000 		.4byte	.LVL341
 11521 0d1c 80050000 		.4byte	.LVL353
 11522 0d20 0300     		.2byte	0x3
 11523 0d22 91       		.byte	0x91
 11524 0d23 D07D     		.sleb128 -304
 11525 0d25 00000000 		.4byte	0
 11526 0d29 00000000 		.4byte	0
 11527              	.LLST77:
 11528 0d2d 8E040000 		.4byte	.LVL315
 11529 0d31 90040000 		.4byte	.LVL316
 11530 0d35 0100     		.2byte	0x1
 11531 0d37 50       		.byte	0x50
 11532 0d38 90040000 		.4byte	.LVL316
 11533 0d3c 93040000 		.4byte	.LVL317-1
 11534 0d40 0100     		.2byte	0x1
 11535 0d42 51       		.byte	0x51
 11536 0d43 96040000 		.4byte	.LVL318
 11537 0d47 9B040000 		.4byte	.LVL319-1
 11538 0d4b 0100     		.2byte	0x1
ARM GAS  C:\Users\rdn\AppData\Local\Temp\ccFEeGTH.s 			page 232


 11539 0d4d 50       		.byte	0x50
 11540 0d4e 9B040000 		.4byte	.LVL319-1
 11541 0d52 AC040000 		.4byte	.LVL322
 11542 0d56 0100     		.2byte	0x1
 11543 0d58 55       		.byte	0x55
 11544 0d59 AC040000 		.4byte	.LVL322
 11545 0d5d B3040000 		.4byte	.LVL323-1
 11546 0d61 0100     		.2byte	0x1
 11547 0d63 50       		.byte	0x50
 11548 0d64 B3040000 		.4byte	.LVL323-1
 11549 0d68 C8040000 		.4byte	.LVL328
 11550 0d6c 0100     		.2byte	0x1
 11551 0d6e 56       		.byte	0x56
 11552 0d6f C8040000 		.4byte	.LVL328
 11553 0d73 D9040000 		.4byte	.LVL331-1
 11554 0d77 0100     		.2byte	0x1
 11555 0d79 50       		.byte	0x50
 11556 0d7a DA040000 		.4byte	.LVL331
 11557 0d7e E1040000 		.4byte	.LVL332-1
 11558 0d82 0100     		.2byte	0x1
 11559 0d84 50       		.byte	0x50
 11560 0d85 E1040000 		.4byte	.LVL332-1
 11561 0d89 F8040000 		.4byte	.LVL337
 11562 0d8d 0300     		.2byte	0x3
 11563 0d8f 91       		.byte	0x91
 11564 0d90 D47D     		.sleb128 -300
 11565 0d92 F8040000 		.4byte	.LVL337
 11566 0d96 17050000 		.4byte	.LVL342-1
 11567 0d9a 0100     		.2byte	0x1
 11568 0d9c 50       		.byte	0x50
 11569 0d9d 17050000 		.4byte	.LVL342-1
 11570 0da1 26050000 		.4byte	.LVL343
 11571 0da5 0100     		.2byte	0x1
 11572 0da7 56       		.byte	0x56
 11573 0da8 26050000 		.4byte	.LVL343
 11574 0dac 2B050000 		.4byte	.LVL344-1
 11575 0db0 0100     		.2byte	0x1
 11576 0db2 50       		.byte	0x50
 11577 0db3 00000000 		.4byte	0
 11578 0db7 00000000 		.4byte	0
 11579              	.LLST78:
 11580 0dbb 4E000000 		.4byte	.LVL175
 11581 0dbf 54000000 		.4byte	.LVL176
 11582 0dc3 0200     		.2byte	0x2
 11583 0dc5 30       		.byte	0x30
 11584 0dc6 9F       		.byte	0x9f
 11585 0dc7 54000000 		.4byte	.LVL176
 11586 0dcb 7C000000 		.4byte	.LVL178
 11587 0dcf 0100     		.2byte	0x1
 11588 0dd1 52       		.byte	0x52
 11589 0dd2 00000000 		.4byte	0
 11590 0dd6 00000000 		.4byte	0
 11591              	.LLST79:
 11592 0dda 7C000000 		.4byte	.LVL178
 11593 0dde 9C000000 		.4byte	.LVL180
 11594 0de2 0100     		.2byte	0x1
 11595 0de4 50       		.byte	0x50
ARM GAS  C:\Users\rdn\AppData\Local\Temp\ccFEeGTH.s 			page 233


 11596 0de5 00000000 		.4byte	0
 11597 0de9 00000000 		.4byte	0
 11598              	.LLST80:
 11599 0ded C0000000 		.4byte	.LVL184
 11600 0df1 CE000000 		.4byte	.LVL186
 11601 0df5 0200     		.2byte	0x2
 11602 0df7 30       		.byte	0x30
 11603 0df8 9F       		.byte	0x9f
 11604 0df9 CE000000 		.4byte	.LVL186
 11605 0dfd 1C010000 		.4byte	.LVL195
 11606 0e01 0100     		.2byte	0x1
 11607 0e03 56       		.byte	0x56
 11608 0e04 1C010000 		.4byte	.LVL195
 11609 0e08 6E010000 		.4byte	.LVL207
 11610 0e0c 0300     		.2byte	0x3
 11611 0e0e 76       		.byte	0x76
 11612 0e0f 01       		.sleb128 1
 11613 0e10 9F       		.byte	0x9f
 11614 0e11 6E010000 		.4byte	.LVL207
 11615 0e15 8C010000 		.4byte	.LVL213
 11616 0e19 0300     		.2byte	0x3
 11617 0e1b 76       		.byte	0x76
 11618 0e1c 02       		.sleb128 2
 11619 0e1d 9F       		.byte	0x9f
 11620 0e1e 8C010000 		.4byte	.LVL213
 11621 0e22 B2010000 		.4byte	.LVL218
 11622 0e26 0300     		.2byte	0x3
 11623 0e28 76       		.byte	0x76
 11624 0e29 7F       		.sleb128 -1
 11625 0e2a 9F       		.byte	0x9f
 11626 0e2b B2010000 		.4byte	.LVL218
 11627 0e2f 04020000 		.4byte	.LVL231
 11628 0e33 0100     		.2byte	0x1
 11629 0e35 56       		.byte	0x56
 11630 0e36 00000000 		.4byte	0
 11631 0e3a 00000000 		.4byte	0
 11632              	.LLST81:
 11633 0e3e 00020000 		.4byte	.LVL229
 11634 0e42 04020000 		.4byte	.LVL231
 11635 0e46 0200     		.2byte	0x2
 11636 0e48 30       		.byte	0x30
 11637 0e49 9F       		.byte	0x9f
 11638 0e4a 04020000 		.4byte	.LVL231
 11639 0e4e DC020000 		.4byte	.LVL262
 11640 0e52 0100     		.2byte	0x1
 11641 0e54 57       		.byte	0x57
 11642 0e55 00000000 		.4byte	0
 11643 0e59 00000000 		.4byte	0
 11644              	.LLST82:
 11645 0e5d 14020000 		.4byte	.LVL232
 11646 0e61 20020000 		.4byte	.LVL235
 11647 0e65 0100     		.2byte	0x1
 11648 0e67 50       		.byte	0x50
 11649 0e68 00000000 		.4byte	0
 11650 0e6c 00000000 		.4byte	0
 11651              	.LLST83:
 11652 0e70 2E020000 		.4byte	.LVL237
ARM GAS  C:\Users\rdn\AppData\Local\Temp\ccFEeGTH.s 			page 234


 11653 0e74 33020000 		.4byte	.LVL238-1
 11654 0e78 0100     		.2byte	0x1
 11655 0e7a 50       		.byte	0x50
 11656 0e7b 3C020000 		.4byte	.LVL239
 11657 0e7f 41020000 		.4byte	.LVL240-1
 11658 0e83 0100     		.2byte	0x1
 11659 0e85 50       		.byte	0x50
 11660 0e86 4A020000 		.4byte	.LVL241
 11661 0e8a 4F020000 		.4byte	.LVL242-1
 11662 0e8e 0100     		.2byte	0x1
 11663 0e90 50       		.byte	0x50
 11664 0e91 58020000 		.4byte	.LVL243
 11665 0e95 5D020000 		.4byte	.LVL244-1
 11666 0e99 0100     		.2byte	0x1
 11667 0e9b 50       		.byte	0x50
 11668 0e9c 60020000 		.4byte	.LVL245
 11669 0ea0 62020000 		.4byte	.LVL246
 11670 0ea4 0100     		.2byte	0x1
 11671 0ea6 50       		.byte	0x50
 11672 0ea7 62020000 		.4byte	.LVL246
 11673 0eab 6E020000 		.4byte	.LVL248
 11674 0eaf 0100     		.2byte	0x1
 11675 0eb1 54       		.byte	0x54
 11676 0eb2 00000000 		.4byte	0
 11677 0eb6 00000000 		.4byte	0
 11678              	.LLST84:
 11679 0eba 1C020000 		.4byte	.LVL234
 11680 0ebe 6E020000 		.4byte	.LVL248
 11681 0ec2 0100     		.2byte	0x1
 11682 0ec4 55       		.byte	0x55
 11683 0ec5 00000000 		.4byte	0
 11684 0ec9 00000000 		.4byte	0
 11685              	.LLST85:
 11686 0ecd 14020000 		.4byte	.LVL232
 11687 0ed1 26020000 		.4byte	.LVL236
 11688 0ed5 0600     		.2byte	0x6
 11689 0ed7 F2       		.byte	0xf2
 11690 0ed8 4B0C0000 		.4byte	.Ldebug_info0+3147
 11691 0edc 00       		.sleb128 0
 11692 0edd 00000000 		.4byte	0
 11693 0ee1 00000000 		.4byte	0
 11694              	.LLST87:
 11695 0ee5 1A020000 		.4byte	.LVL233
 11696 0ee9 1C020000 		.4byte	.LVL234
 11697 0eed 0100     		.2byte	0x1
 11698 0eef 55       		.byte	0x55
 11699 0ef0 1C020000 		.4byte	.LVL234
 11700 0ef4 26020000 		.4byte	.LVL236
 11701 0ef8 0400     		.2byte	0x4
 11702 0efa 75       		.byte	0x75
 11703 0efb FE00     		.sleb128 126
 11704 0efd 9F       		.byte	0x9f
 11705 0efe 00000000 		.4byte	0
 11706 0f02 00000000 		.4byte	0
 11707              	.LLST88:
 11708 0f06 DA020000 		.4byte	.LVL261
 11709 0f0a E0020000 		.4byte	.LVL263
ARM GAS  C:\Users\rdn\AppData\Local\Temp\ccFEeGTH.s 			page 235


 11710 0f0e 0200     		.2byte	0x2
 11711 0f10 31       		.byte	0x31
 11712 0f11 9F       		.byte	0x9f
 11713 0f12 E0020000 		.4byte	.LVL263
 11714 0f16 EE020000 		.4byte	.LVL264
 11715 0f1a 0100     		.2byte	0x1
 11716 0f1c 57       		.byte	0x57
 11717 0f1d EE020000 		.4byte	.LVL264
 11718 0f21 56030000 		.4byte	.LVL276
 11719 0f25 0300     		.2byte	0x3
 11720 0f27 77       		.byte	0x77
 11721 0f28 7F       		.sleb128 -1
 11722 0f29 9F       		.byte	0x9f
 11723 0f2a 56030000 		.4byte	.LVL276
 11724 0f2e 38040000 		.4byte	.LVL302
 11725 0f32 0100     		.2byte	0x1
 11726 0f34 57       		.byte	0x57
 11727 0f35 00000000 		.4byte	0
 11728 0f39 00000000 		.4byte	0
 11729              	.LLST89:
 11730 0f3d 36040000 		.4byte	.LVL301
 11731 0f41 3E040000 		.4byte	.LVL303
 11732 0f45 0200     		.2byte	0x2
 11733 0f47 30       		.byte	0x30
 11734 0f48 9F       		.byte	0x9f
 11735 0f49 3E040000 		.4byte	.LVL303
 11736 0f4d C2040000 		.4byte	.LVL325
 11737 0f51 0100     		.2byte	0x1
 11738 0f53 57       		.byte	0x57
 11739 0f54 00000000 		.4byte	0
 11740 0f58 00000000 		.4byte	0
 11741              	.LLST90:
 11742 0f5c C0040000 		.4byte	.LVL324
 11743 0f60 CA040000 		.4byte	.LVL329
 11744 0f64 0200     		.2byte	0x2
 11745 0f66 32       		.byte	0x32
 11746 0f67 9F       		.byte	0x9f
 11747 0f68 CA040000 		.4byte	.LVL329
 11748 0f6c 42050000 		.4byte	.LVL347
 11749 0f70 0100     		.2byte	0x1
 11750 0f72 57       		.byte	0x57
 11751 0f73 00000000 		.4byte	0
 11752 0f77 00000000 		.4byte	0
 11753              	.LLST91:
 11754 0f7b 40050000 		.4byte	.LVL346
 11755 0f7f 48050000 		.4byte	.LVL348
 11756 0f83 0200     		.2byte	0x2
 11757 0f85 30       		.byte	0x30
 11758 0f86 9F       		.byte	0x9f
 11759 0f87 48050000 		.4byte	.LVL348
 11760 0f8b 80050000 		.4byte	.LVL353
 11761 0f8f 0100     		.2byte	0x1
 11762 0f91 57       		.byte	0x57
 11763 0f92 00000000 		.4byte	0
 11764 0f96 00000000 		.4byte	0
 11765              	.LLST92:
 11766 0f9a 00000000 		.4byte	.LVL355
ARM GAS  C:\Users\rdn\AppData\Local\Temp\ccFEeGTH.s 			page 236


 11767 0f9e 1E000000 		.4byte	.LVL360
 11768 0fa2 0100     		.2byte	0x1
 11769 0fa4 50       		.byte	0x50
 11770 0fa5 1E000000 		.4byte	.LVL360
 11771 0fa9 50000000 		.4byte	.LVL371
 11772 0fad 0100     		.2byte	0x1
 11773 0faf 55       		.byte	0x55
 11774 0fb0 50000000 		.4byte	.LVL371
 11775 0fb4 52000000 		.4byte	.LFE24
 11776 0fb8 0400     		.2byte	0x4
 11777 0fba F3       		.byte	0xf3
 11778 0fbb 01       		.uleb128 0x1
 11779 0fbc 50       		.byte	0x50
 11780 0fbd 9F       		.byte	0x9f
 11781 0fbe 00000000 		.4byte	0
 11782 0fc2 00000000 		.4byte	0
 11783              	.LLST93:
 11784 0fc6 00000000 		.4byte	.LVL355
 11785 0fca 21000000 		.4byte	.LVL361-1
 11786 0fce 0100     		.2byte	0x1
 11787 0fd0 51       		.byte	0x51
 11788 0fd1 21000000 		.4byte	.LVL361-1
 11789 0fd5 50000000 		.4byte	.LVL372
 11790 0fd9 0100     		.2byte	0x1
 11791 0fdb 57       		.byte	0x57
 11792 0fdc 50000000 		.4byte	.LVL372
 11793 0fe0 52000000 		.4byte	.LFE24
 11794 0fe4 0400     		.2byte	0x4
 11795 0fe6 F3       		.byte	0xf3
 11796 0fe7 01       		.uleb128 0x1
 11797 0fe8 51       		.byte	0x51
 11798 0fe9 9F       		.byte	0x9f
 11799 0fea 00000000 		.4byte	0
 11800 0fee 00000000 		.4byte	0
 11801              	.LLST94:
 11802 0ff2 08000000 		.4byte	.LVL356
 11803 0ff6 0E000000 		.4byte	.LVL357
 11804 0ffa 0200     		.2byte	0x2
 11805 0ffc 30       		.byte	0x30
 11806 0ffd 9F       		.byte	0x9f
 11807 0ffe 0E000000 		.4byte	.LVL357
 11808 1002 34000000 		.4byte	.LVL365
 11809 1006 0100     		.2byte	0x1
 11810 1008 54       		.byte	0x54
 11811 1009 00000000 		.4byte	0
 11812 100d 00000000 		.4byte	0
 11813              	.LLST95:
 11814 1011 32000000 		.4byte	.LVL364
 11815 1015 36000000 		.4byte	.LVL366
 11816 1019 0100     		.2byte	0x1
 11817 101b 50       		.byte	0x50
 11818 101c 36000000 		.4byte	.LVL366
 11819 1020 52000000 		.4byte	.LFE24
 11820 1024 0200     		.2byte	0x2
 11821 1026 91       		.byte	0x91
 11822 1027 64       		.sleb128 -28
 11823 1028 00000000 		.4byte	0
ARM GAS  C:\Users\rdn\AppData\Local\Temp\ccFEeGTH.s 			page 237


 11824 102c 00000000 		.4byte	0
 11825              	.LLST96:
 11826 1030 08000000 		.4byte	.LVL356
 11827 1034 0E000000 		.4byte	.LVL357
 11828 1038 0200     		.2byte	0x2
 11829 103a 30       		.byte	0x30
 11830 103b 9F       		.byte	0x9f
 11831 103c 0E000000 		.4byte	.LVL357
 11832 1040 21000000 		.4byte	.LVL361-1
 11833 1044 0100     		.2byte	0x1
 11834 1046 52       		.byte	0x52
 11835 1047 00000000 		.4byte	0
 11836 104b 00000000 		.4byte	0
 11837              	.LLST97:
 11838 104f 32000000 		.4byte	.LVL364
 11839 1053 36000000 		.4byte	.LVL366
 11840 1057 0200     		.2byte	0x2
 11841 1059 30       		.byte	0x30
 11842 105a 9F       		.byte	0x9f
 11843 105b 36000000 		.4byte	.LVL366
 11844 105f 50000000 		.4byte	.LVL370
 11845 1063 0100     		.2byte	0x1
 11846 1065 54       		.byte	0x54
 11847 1066 00000000 		.4byte	0
 11848 106a 00000000 		.4byte	0
 11849              	.LLST98:
 11850 106e 00000000 		.4byte	.LVL373
 11851 1072 2C000000 		.4byte	.LVL379
 11852 1076 0100     		.2byte	0x1
 11853 1078 50       		.byte	0x50
 11854 1079 2C000000 		.4byte	.LVL379
 11855 107d 2E020000 		.4byte	.LVL434
 11856 1081 0100     		.2byte	0x1
 11857 1083 5A       		.byte	0x5a
 11858 1084 2E020000 		.4byte	.LVL434
 11859 1088 00030000 		.4byte	.LFE26
 11860 108c 0400     		.2byte	0x4
 11861 108e F3       		.byte	0xf3
 11862 108f 01       		.uleb128 0x1
 11863 1090 50       		.byte	0x50
 11864 1091 9F       		.byte	0x9f
 11865 1092 00000000 		.4byte	0
 11866 1096 00000000 		.4byte	0
 11867              	.LLST99:
 11868 109a 00000000 		.4byte	.LVL373
 11869 109e 18000000 		.4byte	.LVL375
 11870 10a2 0100     		.2byte	0x1
 11871 10a4 51       		.byte	0x51
 11872 10a5 18000000 		.4byte	.LVL375
 11873 10a9 00030000 		.4byte	.LFE26
 11874 10ad 0400     		.2byte	0x4
 11875 10af F3       		.byte	0xf3
 11876 10b0 01       		.uleb128 0x1
 11877 10b1 51       		.byte	0x51
 11878 10b2 9F       		.byte	0x9f
 11879 10b3 00000000 		.4byte	0
 11880 10b7 00000000 		.4byte	0
ARM GAS  C:\Users\rdn\AppData\Local\Temp\ccFEeGTH.s 			page 238


 11881              	.LLST100:
 11882 10bb 00000000 		.4byte	.LVL373
 11883 10bf 20000000 		.4byte	.LVL377
 11884 10c3 0100     		.2byte	0x1
 11885 10c5 52       		.byte	0x52
 11886 10c6 20000000 		.4byte	.LVL377
 11887 10ca 00030000 		.4byte	.LFE26
 11888 10ce 0400     		.2byte	0x4
 11889 10d0 F3       		.byte	0xf3
 11890 10d1 01       		.uleb128 0x1
 11891 10d2 52       		.byte	0x52
 11892 10d3 9F       		.byte	0x9f
 11893 10d4 00000000 		.4byte	0
 11894 10d8 00000000 		.4byte	0
 11895              	.LLST101:
 11896 10dc 00000000 		.4byte	.LVL373
 11897 10e0 14000000 		.4byte	.LVL374
 11898 10e4 0100     		.2byte	0x1
 11899 10e6 53       		.byte	0x53
 11900 10e7 14000000 		.4byte	.LVL374
 11901 10eb 2C000000 		.4byte	.LVL379
 11902 10ef 0100     		.2byte	0x1
 11903 10f1 54       		.byte	0x54
 11904 10f2 2C000000 		.4byte	.LVL379
 11905 10f6 68000000 		.4byte	.LVL385
 11906 10fa 0100     		.2byte	0x1
 11907 10fc 59       		.byte	0x59
 11908 10fd 68000000 		.4byte	.LVL385
 11909 1101 9E000000 		.4byte	.LVL393
 11910 1105 0100     		.2byte	0x1
 11911 1107 54       		.byte	0x54
 11912 1108 9E000000 		.4byte	.LVL393
 11913 110c 4C010000 		.4byte	.LVL409
 11914 1110 0100     		.2byte	0x1
 11915 1112 59       		.byte	0x59
 11916 1113 4C010000 		.4byte	.LVL409
 11917 1117 2E020000 		.4byte	.LVL434
 11918 111b 0100     		.2byte	0x1
 11919 111d 54       		.byte	0x54
 11920 111e 2E020000 		.4byte	.LVL434
 11921 1122 00030000 		.4byte	.LFE26
 11922 1126 0400     		.2byte	0x4
 11923 1128 F3       		.byte	0xf3
 11924 1129 01       		.uleb128 0x1
 11925 112a 53       		.byte	0x53
 11926 112b 9F       		.byte	0x9f
 11927 112c 00000000 		.4byte	0
 11928 1130 00000000 		.4byte	0
 11929              	.LLST102:
 11930 1134 1E000000 		.4byte	.LVL376
 11931 1138 2E020000 		.4byte	.LVL434
 11932 113c 0100     		.2byte	0x1
 11933 113e 5B       		.byte	0x5b
 11934 113f 00000000 		.4byte	0
 11935 1143 00000000 		.4byte	0
 11936              	.LLST103:
 11937 1147 26000000 		.4byte	.LVL378
ARM GAS  C:\Users\rdn\AppData\Local\Temp\ccFEeGTH.s 			page 239


 11938 114b 2C000000 		.4byte	.LVL379
 11939 114f 0100     		.2byte	0x1
 11940 1151 53       		.byte	0x53
 11941 1152 2C000000 		.4byte	.LVL379
 11942 1156 9E000000 		.4byte	.LVL393
 11943 115a 0300     		.2byte	0x3
 11944 115c 91       		.byte	0x91
 11945 115d FC7D     		.sleb128 -260
 11946 115f 00000000 		.4byte	0
 11947 1163 00000000 		.4byte	0
 11948              	.LLST104:
 11949 1167 62000000 		.4byte	.LVL383
 11950 116b 68000000 		.4byte	.LVL385
 11951 116f 0600     		.2byte	0x6
 11952 1171 9E       		.byte	0x9e
 11953 1172 04       		.uleb128 0x4
 11954 1173 00000000 		.4byte	0
 11955 1177 68000000 		.4byte	.LVL385
 11956 117b 79000000 		.4byte	.LVL386-1
 11957 117f 0100     		.2byte	0x1
 11958 1181 50       		.byte	0x50
 11959 1182 7A000000 		.4byte	.LVL386
 11960 1186 85000000 		.4byte	.LVL388-1
 11961 118a 0100     		.2byte	0x1
 11962 118c 50       		.byte	0x50
 11963 118d 00000000 		.4byte	0
 11964 1191 00000000 		.4byte	0
 11965              	.LLST105:
 11966 1195 90000000 		.4byte	.LVL390
 11967 1199 9E000000 		.4byte	.LVL393
 11968 119d 0100     		.2byte	0x1
 11969 119f 50       		.byte	0x50
 11970 11a0 9E000000 		.4byte	.LVL393
 11971 11a4 2E020000 		.4byte	.LVL434
 11972 11a8 0300     		.2byte	0x3
 11973 11aa 91       		.byte	0x91
 11974 11ab 807E     		.sleb128 -256
 11975 11ad 00000000 		.4byte	0
 11976 11b1 00000000 		.4byte	0
 11977              	.LLST106:
 11978 11b5 96000000 		.4byte	.LVL391
 11979 11b9 9E000000 		.4byte	.LVL393
 11980 11bd 0200     		.2byte	0x2
 11981 11bf 30       		.byte	0x30
 11982 11c0 9F       		.byte	0x9f
 11983 11c1 9E000000 		.4byte	.LVL393
 11984 11c5 0C010000 		.4byte	.LVL405
 11985 11c9 0100     		.2byte	0x1
 11986 11cb 56       		.byte	0x56
 11987 11cc 0C010000 		.4byte	.LVL405
 11988 11d0 32010000 		.4byte	.LVL407
 11989 11d4 0200     		.2byte	0x2
 11990 11d6 36       		.byte	0x36
 11991 11d7 9F       		.byte	0x9f
 11992 11d8 32010000 		.4byte	.LVL407
 11993 11dc 4C010000 		.4byte	.LVL409
 11994 11e0 0200     		.2byte	0x2
ARM GAS  C:\Users\rdn\AppData\Local\Temp\ccFEeGTH.s 			page 240


 11995 11e2 38       		.byte	0x38
 11996 11e3 9F       		.byte	0x9f
 11997 11e4 4C010000 		.4byte	.LVL409
 11998 11e8 A0010000 		.4byte	.LVL418
 11999 11ec 0100     		.2byte	0x1
 12000 11ee 57       		.byte	0x57
 12001 11ef A0010000 		.4byte	.LVL418
 12002 11f3 A7010000 		.4byte	.LVL419-1
 12003 11f7 0100     		.2byte	0x1
 12004 11f9 53       		.byte	0x53
 12005 11fa A8010000 		.4byte	.LVL419
 12006 11fe 00030000 		.4byte	.LFE26
 12007 1202 0200     		.2byte	0x2
 12008 1204 3A       		.byte	0x3a
 12009 1205 9F       		.byte	0x9f
 12010 1206 00000000 		.4byte	0
 12011 120a 00000000 		.4byte	0
 12012              	.LLST107:
 12013 120e 18020000 		.4byte	.LVL431
 12014 1212 2E020000 		.4byte	.LVL434
 12015 1216 0600     		.2byte	0x6
 12016 1218 9E       		.byte	0x9e
 12017 1219 04       		.uleb128 0x4
 12018 121a 0000807F 		.4byte	0x7f800000
 12019 121e 2E020000 		.4byte	.LVL434
 12020 1222 D0020000 		.4byte	.LVL454
 12021 1226 0300     		.2byte	0x3
 12022 1228 91       		.byte	0x91
 12023 1229 8C7E     		.sleb128 -244
 12024 122b D0020000 		.4byte	.LVL454
 12025 122f D2020000 		.4byte	.LVL455
 12026 1233 0300     		.2byte	0x3
 12027 1235 91       		.byte	0x91
 12028 1236 847E     		.sleb128 -252
 12029 1238 D2020000 		.4byte	.LVL455
 12030 123c 00030000 		.4byte	.LFE26
 12031 1240 0300     		.2byte	0x3
 12032 1242 91       		.byte	0x91
 12033 1243 8C7E     		.sleb128 -244
 12034 1245 00000000 		.4byte	0
 12035 1249 00000000 		.4byte	0
 12036              	.LLST108:
 12037 124d 26000000 		.4byte	.LVL378
 12038 1251 2C000000 		.4byte	.LVL379
 12039 1255 0200     		.2byte	0x2
 12040 1257 30       		.byte	0x30
 12041 1258 9F       		.byte	0x9f
 12042 1259 2C000000 		.4byte	.LVL379
 12043 125d 64000000 		.4byte	.LVL384
 12044 1261 0100     		.2byte	0x1
 12045 1263 55       		.byte	0x55
 12046 1264 00000000 		.4byte	0
 12047 1268 00000000 		.4byte	0
 12048              	.LLST109:
 12049 126c 62000000 		.4byte	.LVL383
 12050 1270 68000000 		.4byte	.LVL385
 12051 1274 0200     		.2byte	0x2
ARM GAS  C:\Users\rdn\AppData\Local\Temp\ccFEeGTH.s 			page 241


 12052 1276 30       		.byte	0x30
 12053 1277 9F       		.byte	0x9f
 12054 1278 68000000 		.4byte	.LVL385
 12055 127c 98000000 		.4byte	.LVL392
 12056 1280 0100     		.2byte	0x1
 12057 1282 55       		.byte	0x55
 12058 1283 00000000 		.4byte	0
 12059 1287 00000000 		.4byte	0
 12060              	.LLST110:
 12061 128b 96000000 		.4byte	.LVL391
 12062 128f 9E000000 		.4byte	.LVL393
 12063 1293 0200     		.2byte	0x2
 12064 1295 30       		.byte	0x30
 12065 1296 9F       		.byte	0x9f
 12066 1297 9E000000 		.4byte	.LVL393
 12067 129b FA000000 		.4byte	.LVL404
 12068 129f 0100     		.2byte	0x1
 12069 12a1 55       		.byte	0x55
 12070 12a2 00000000 		.4byte	0
 12071 12a6 00000000 		.4byte	0
 12072              	.LLST111:
 12073 12aa 46010000 		.4byte	.LVL408
 12074 12ae 4C010000 		.4byte	.LVL409
 12075 12b2 0200     		.2byte	0x2
 12076 12b4 3A       		.byte	0x3a
 12077 12b5 9F       		.byte	0x9f
 12078 12b6 4C010000 		.4byte	.LVL409
 12079 12ba 90010000 		.4byte	.LVL417
 12080 12be 0100     		.2byte	0x1
 12081 12c0 56       		.byte	0x56
 12082 12c1 00000000 		.4byte	0
 12083 12c5 00000000 		.4byte	0
 12084              	.LLST112:
 12085 12c9 C8010000 		.4byte	.LVL421
 12086 12cd CC010000 		.4byte	.LVL422
 12087 12d1 0200     		.2byte	0x2
 12088 12d3 30       		.byte	0x30
 12089 12d4 9F       		.byte	0x9f
 12090 12d5 CC010000 		.4byte	.LVL422
 12091 12d9 2C020000 		.4byte	.LVL433
 12092 12dd 0100     		.2byte	0x1
 12093 12df 57       		.byte	0x57
 12094 12e0 00000000 		.4byte	0
 12095 12e4 00000000 		.4byte	0
 12096              	.LLST113:
 12097 12e8 CC010000 		.4byte	.LVL422
 12098 12ec F6010000 		.4byte	.LVL425
 12099 12f0 0100     		.2byte	0x1
 12100 12f2 56       		.byte	0x56
 12101 12f3 F8010000 		.4byte	.LVL426
 12102 12f7 FE010000 		.4byte	.LVL427
 12103 12fb 0100     		.2byte	0x1
 12104 12fd 56       		.byte	0x56
 12105 12fe 00000000 		.4byte	0
 12106 1302 00000000 		.4byte	0
 12107              	.LLST114:
 12108 1306 08020000 		.4byte	.LVL428
ARM GAS  C:\Users\rdn\AppData\Local\Temp\ccFEeGTH.s 			page 242


 12109 130a 2E020000 		.4byte	.LVL434
 12110 130e 0100     		.2byte	0x1
 12111 1310 55       		.byte	0x55
 12112 1311 00000000 		.4byte	0
 12113 1315 00000000 		.4byte	0
 12114              	.LLST115:
 12115 1319 22020000 		.4byte	.LVL432
 12116 131d 2E020000 		.4byte	.LVL434
 12117 1321 0200     		.2byte	0x2
 12118 1323 30       		.byte	0x30
 12119 1324 9F       		.byte	0x9f
 12120 1325 2E020000 		.4byte	.LVL434
 12121 1329 30020000 		.4byte	.LVL435
 12122 132d 0100     		.2byte	0x1
 12123 132f 53       		.byte	0x53
 12124 1330 30020000 		.4byte	.LVL435
 12125 1334 4A020000 		.4byte	.LVL437
 12126 1338 0100     		.2byte	0x1
 12127 133a 59       		.byte	0x59
 12128 133b 4A020000 		.4byte	.LVL437
 12129 133f B6020000 		.4byte	.LVL452
 12130 1343 0100     		.2byte	0x1
 12131 1345 57       		.byte	0x57
 12132 1346 B6020000 		.4byte	.LVL452
 12133 134a E0020000 		.4byte	.LVL457
 12134 134e 0100     		.2byte	0x1
 12135 1350 59       		.byte	0x59
 12136 1351 E0020000 		.4byte	.LVL457
 12137 1355 00030000 		.4byte	.LFE26
 12138 1359 0100     		.2byte	0x1
 12139 135b 53       		.byte	0x53
 12140 135c 00000000 		.4byte	0
 12141 1360 00000000 		.4byte	0
 12142              	.LLST116:
 12143 1364 38020000 		.4byte	.LVL436
 12144 1368 D8020000 		.4byte	.LVL456
 12145 136c 0100     		.2byte	0x1
 12146 136e 5B       		.byte	0x5b
 12147 136f 00000000 		.4byte	0
 12148 1373 00000000 		.4byte	0
 12149              	.LLST117:
 12150 1377 38020000 		.4byte	.LVL436
 12151 137b 4A020000 		.4byte	.LVL437
 12152 137f 0600     		.2byte	0x6
 12153 1381 9E       		.byte	0x9e
 12154 1382 04       		.uleb128 0x4
 12155 1383 0000807F 		.4byte	0x7f800000
 12156 1387 4A020000 		.4byte	.LVL437
 12157 138b D2020000 		.4byte	.LVL455
 12158 138f 0300     		.2byte	0x3
 12159 1391 91       		.byte	0x91
 12160 1392 847E     		.sleb128 -252
 12161 1394 D2020000 		.4byte	.LVL455
 12162 1398 D8020000 		.4byte	.LVL456
 12163 139c 0100     		.2byte	0x1
 12164 139e 54       		.byte	0x54
 12165 139f 00000000 		.4byte	0
ARM GAS  C:\Users\rdn\AppData\Local\Temp\ccFEeGTH.s 			page 243


 12166 13a3 00000000 		.4byte	0
 12167              	.LLST118:
 12168 13a7 38020000 		.4byte	.LVL436
 12169 13ab 4A020000 		.4byte	.LVL437
 12170 13af 0200     		.2byte	0x2
 12171 13b1 30       		.byte	0x30
 12172 13b2 9F       		.byte	0x9f
 12173 13b3 4A020000 		.4byte	.LVL437
 12174 13b7 A4020000 		.4byte	.LVL449
 12175 13bb 0300     		.2byte	0x3
 12176 13bd 91       		.byte	0x91
 12177 13be 887E     		.sleb128 -248
 12178 13c0 A6020000 		.4byte	.LVL450
 12179 13c4 D8020000 		.4byte	.LVL456
 12180 13c8 0300     		.2byte	0x3
 12181 13ca 91       		.byte	0x91
 12182 13cb 887E     		.sleb128 -248
 12183 13cd 00000000 		.4byte	0
 12184 13d1 00000000 		.4byte	0
 12185              	.LLST119:
 12186 13d5 38020000 		.4byte	.LVL436
 12187 13d9 4A020000 		.4byte	.LVL437
 12188 13dd 0200     		.2byte	0x2
 12189 13df 30       		.byte	0x30
 12190 13e0 9F       		.byte	0x9f
 12191 13e1 4A020000 		.4byte	.LVL437
 12192 13e5 D8020000 		.4byte	.LVL456
 12193 13e9 0100     		.2byte	0x1
 12194 13eb 5A       		.byte	0x5a
 12195 13ec 00000000 		.4byte	0
 12196 13f0 00000000 		.4byte	0
 12197              	.LLST120:
 12198 13f4 56020000 		.4byte	.LVL438
 12199 13f8 5A020000 		.4byte	.LVL439
 12200 13fc 0100     		.2byte	0x1
 12201 13fe 53       		.byte	0x53
 12202 13ff 5A020000 		.4byte	.LVL439
 12203 1403 AC020000 		.4byte	.LVL451
 12204 1407 0300     		.2byte	0x3
 12205 1409 91       		.byte	0x91
 12206 140a 807E     		.sleb128 -256
 12207 140c 00000000 		.4byte	0
 12208 1410 00000000 		.4byte	0
 12209              	.LLST121:
 12210 1414 56020000 		.4byte	.LVL438
 12211 1418 60020000 		.4byte	.LVL440
 12212 141c 0600     		.2byte	0x6
 12213 141e 9E       		.byte	0x9e
 12214 141f 04       		.uleb128 0x4
 12215 1420 00000000 		.4byte	0
 12216 1424 60020000 		.4byte	.LVL440
 12217 1428 8A020000 		.4byte	.LVL445
 12218 142c 0300     		.2byte	0x3
 12219 142e 91       		.byte	0x91
 12220 142f FC7D     		.sleb128 -260
 12221 1431 8A020000 		.4byte	.LVL445
 12222 1435 8C020000 		.4byte	.LVL446
ARM GAS  C:\Users\rdn\AppData\Local\Temp\ccFEeGTH.s 			page 244


 12223 1439 0100     		.2byte	0x1
 12224 143b 50       		.byte	0x50
 12225 143c 8C020000 		.4byte	.LVL446
 12226 1440 A6020000 		.4byte	.LVL450
 12227 1444 0300     		.2byte	0x3
 12228 1446 91       		.byte	0x91
 12229 1447 FC7D     		.sleb128 -260
 12230 1449 A6020000 		.4byte	.LVL450
 12231 144d AC020000 		.4byte	.LVL451
 12232 1451 0100     		.2byte	0x1
 12233 1453 54       		.byte	0x54
 12234 1454 00000000 		.4byte	0
 12235 1458 00000000 		.4byte	0
 12236              	.LLST122:
 12237 145c 56020000 		.4byte	.LVL438
 12238 1460 60020000 		.4byte	.LVL440
 12239 1464 0200     		.2byte	0x2
 12240 1466 30       		.byte	0x30
 12241 1467 9F       		.byte	0x9f
 12242 1468 60020000 		.4byte	.LVL440
 12243 146c 94020000 		.4byte	.LVL447
 12244 1470 0100     		.2byte	0x1
 12245 1472 54       		.byte	0x54
 12246 1473 00000000 		.4byte	0
 12247 1477 00000000 		.4byte	0
 12248              	.LLST123:
 12249 147b 00000000 		.4byte	.LVL458
 12250 147f 4C000000 		.4byte	.LVL468
 12251 1483 0100     		.2byte	0x1
 12252 1485 50       		.byte	0x50
 12253 1486 4C000000 		.4byte	.LVL468
 12254 148a EC020000 		.4byte	.LFE32
 12255 148e 0400     		.2byte	0x4
 12256 1490 F3       		.byte	0xf3
 12257 1491 01       		.uleb128 0x1
 12258 1492 50       		.byte	0x50
 12259 1493 9F       		.byte	0x9f
 12260 1494 00000000 		.4byte	0
 12261 1498 00000000 		.4byte	0
 12262              	.LLST124:
 12263 149c 00000000 		.4byte	.LVL458
 12264 14a0 16000000 		.4byte	.LVL459
 12265 14a4 0100     		.2byte	0x1
 12266 14a6 51       		.byte	0x51
 12267 14a7 16000000 		.4byte	.LVL459
 12268 14ab EC020000 		.4byte	.LFE32
 12269 14af 0400     		.2byte	0x4
 12270 14b1 F3       		.byte	0xf3
 12271 14b2 01       		.uleb128 0x1
 12272 14b3 51       		.byte	0x51
 12273 14b4 9F       		.byte	0x9f
 12274 14b5 00000000 		.4byte	0
 12275 14b9 00000000 		.4byte	0
 12276              	.LLST125:
 12277 14bd 00000000 		.4byte	.LVL458
 12278 14c1 18000000 		.4byte	.LVL460
 12279 14c5 0100     		.2byte	0x1
ARM GAS  C:\Users\rdn\AppData\Local\Temp\ccFEeGTH.s 			page 245


 12280 14c7 52       		.byte	0x52
 12281 14c8 18000000 		.4byte	.LVL460
 12282 14cc 6C000000 		.4byte	.LVL469
 12283 14d0 0100     		.2byte	0x1
 12284 14d2 59       		.byte	0x59
 12285 14d3 6C000000 		.4byte	.LVL469
 12286 14d7 7B000000 		.4byte	.LVL470-1
 12287 14db 0100     		.2byte	0x1
 12288 14dd 52       		.byte	0x52
 12289 14de 7B000000 		.4byte	.LVL470-1
 12290 14e2 46010000 		.4byte	.LVL489
 12291 14e6 0100     		.2byte	0x1
 12292 14e8 59       		.byte	0x59
 12293 14e9 46010000 		.4byte	.LVL489
 12294 14ed EC020000 		.4byte	.LFE32
 12295 14f1 0400     		.2byte	0x4
 12296 14f3 F3       		.byte	0xf3
 12297 14f4 01       		.uleb128 0x1
 12298 14f5 52       		.byte	0x52
 12299 14f6 9F       		.byte	0x9f
 12300 14f7 00000000 		.4byte	0
 12301 14fb 00000000 		.4byte	0
 12302              	.LLST126:
 12303 14ff 00000000 		.4byte	.LVL458
 12304 1503 22000000 		.4byte	.LVL461
 12305 1507 0100     		.2byte	0x1
 12306 1509 53       		.byte	0x53
 12307 150a 22000000 		.4byte	.LVL461
 12308 150e 30000000 		.4byte	.LVL462
 12309 1512 0400     		.2byte	0x4
 12310 1514 F3       		.byte	0xf3
 12311 1515 01       		.uleb128 0x1
 12312 1516 53       		.byte	0x53
 12313 1517 9F       		.byte	0x9f
 12314 1518 30000000 		.4byte	.LVL462
 12315 151c 32000000 		.4byte	.LVL463
 12316 1520 0100     		.2byte	0x1
 12317 1522 53       		.byte	0x53
 12318 1523 32000000 		.4byte	.LVL463
 12319 1527 EC020000 		.4byte	.LFE32
 12320 152b 0400     		.2byte	0x4
 12321 152d F3       		.byte	0xf3
 12322 152e 01       		.uleb128 0x1
 12323 152f 53       		.byte	0x53
 12324 1530 9F       		.byte	0x9f
 12325 1531 00000000 		.4byte	0
 12326 1535 00000000 		.4byte	0
 12327              	.LLST127:
 12328 1539 00000000 		.4byte	.LVL458
 12329 153d 46000000 		.4byte	.LVL466
 12330 1541 0200     		.2byte	0x2
 12331 1543 91       		.byte	0x91
 12332 1544 00       		.sleb128 0
 12333 1545 00000000 		.4byte	0
 12334 1549 00000000 		.4byte	0
 12335              	.LLST128:
 12336 154d 00000000 		.4byte	.LVL458
ARM GAS  C:\Users\rdn\AppData\Local\Temp\ccFEeGTH.s 			page 246


 12337 1551 4A000000 		.4byte	.LVL467
 12338 1555 0200     		.2byte	0x2
 12339 1557 91       		.byte	0x91
 12340 1558 04       		.sleb128 4
 12341 1559 00000000 		.4byte	0
 12342 155d 00000000 		.4byte	0
 12343              	.LLST129:
 12344 1561 4C000000 		.4byte	.LVL468
 12345 1565 8A000000 		.4byte	.LVL472
 12346 1569 0200     		.2byte	0x2
 12347 156b 7D       		.byte	0x7d
 12348 156c 00       		.sleb128 0
 12349 156d E4000000 		.4byte	.LVL482
 12350 1571 FC000000 		.4byte	.LVL484
 12351 1575 0100     		.2byte	0x1
 12352 1577 54       		.byte	0x54
 12353 1578 00000000 		.4byte	0
 12354 157c 00000000 		.4byte	0
 12355              	.LLST130:
 12356 1580 36000000 		.4byte	.LVL464
 12357 1584 6C000000 		.4byte	.LVL469
 12358 1588 0200     		.2byte	0x2
 12359 158a 7D       		.byte	0x7d
 12360 158b 00       		.sleb128 0
 12361 158c 6C000000 		.4byte	.LVL469
 12362 1590 E4000000 		.4byte	.LVL482
 12363 1594 0100     		.2byte	0x1
 12364 1596 55       		.byte	0x55
 12365 1597 E4000000 		.4byte	.LVL482
 12366 159b 56010000 		.4byte	.LVL491
 12367 159f 0200     		.2byte	0x2
 12368 15a1 7D       		.byte	0x7d
 12369 15a2 00       		.sleb128 0
 12370 15a3 56010000 		.4byte	.LVL491
 12371 15a7 58010000 		.4byte	.LVL492
 12372 15ab 0100     		.2byte	0x1
 12373 15ad 55       		.byte	0x55
 12374 15ae 58010000 		.4byte	.LVL492
 12375 15b2 0C020000 		.4byte	.LVL515
 12376 15b6 0200     		.2byte	0x2
 12377 15b8 7D       		.byte	0x7d
 12378 15b9 00       		.sleb128 0
 12379 15ba 00000000 		.4byte	0
 12380 15be 00000000 		.4byte	0
 12381              	.LLST131:
 12382 15c2 46010000 		.4byte	.LVL489
 12383 15c6 51010000 		.4byte	.LVL490-1
 12384 15ca 0100     		.2byte	0x1
 12385 15cc 53       		.byte	0x53
 12386 15cd 51010000 		.4byte	.LVL490-1
 12387 15d1 56010000 		.4byte	.LVL491
 12388 15d5 0100     		.2byte	0x1
 12389 15d7 59       		.byte	0x59
 12390 15d8 56010000 		.4byte	.LVL491
 12391 15dc 58010000 		.4byte	.LVL492
 12392 15e0 0100     		.2byte	0x1
 12393 15e2 53       		.byte	0x53
ARM GAS  C:\Users\rdn\AppData\Local\Temp\ccFEeGTH.s 			page 247


 12394 15e3 58010000 		.4byte	.LVL492
 12395 15e7 5E010000 		.4byte	.LVL493
 12396 15eb 0100     		.2byte	0x1
 12397 15ed 59       		.byte	0x59
 12398 15ee 5E010000 		.4byte	.LVL493
 12399 15f2 60010000 		.4byte	.LVL494
 12400 15f6 0100     		.2byte	0x1
 12401 15f8 53       		.byte	0x53
 12402 15f9 60010000 		.4byte	.LVL494
 12403 15fd 64010000 		.4byte	.LVL495
 12404 1601 0100     		.2byte	0x1
 12405 1603 59       		.byte	0x59
 12406 1604 64010000 		.4byte	.LVL495
 12407 1608 68010000 		.4byte	.LVL497
 12408 160c 0100     		.2byte	0x1
 12409 160e 53       		.byte	0x53
 12410 160f 68010000 		.4byte	.LVL497
 12411 1613 0C020000 		.4byte	.LVL515
 12412 1617 0100     		.2byte	0x1
 12413 1619 59       		.byte	0x59
 12414 161a 0C020000 		.4byte	.LVL515
 12415 161e B6020000 		.4byte	.LVL539
 12416 1622 0100     		.2byte	0x1
 12417 1624 5A       		.byte	0x5a
 12418 1625 00000000 		.4byte	0
 12419 1629 00000000 		.4byte	0
 12420              	.LLST132:
 12421 162d 58010000 		.4byte	.LVL492
 12422 1631 E2010000 		.4byte	.LVL510
 12423 1635 0100     		.2byte	0x1
 12424 1637 55       		.byte	0x55
 12425 1638 00000000 		.4byte	0
 12426 163c 00000000 		.4byte	0
 12427              	.LLST133:
 12428 1640 6C010000 		.4byte	.LVL498
 12429 1644 AC010000 		.4byte	.LVL506
 12430 1648 0100     		.2byte	0x1
 12431 164a 5A       		.byte	0x5a
 12432 164b AC010000 		.4byte	.LVL506
 12433 164f 04020000 		.4byte	.LVL512
 12434 1653 0100     		.2byte	0x1
 12435 1655 57       		.byte	0x57
 12436 1656 04020000 		.4byte	.LVL512
 12437 165a 0A020000 		.4byte	.LVL514
 12438 165e 0100     		.2byte	0x1
 12439 1660 5A       		.byte	0x5a
 12440 1661 00000000 		.4byte	0
 12441 1665 00000000 		.4byte	0
 12442              	.LLST134:
 12443 1669 04020000 		.4byte	.LVL512
 12444 166d B6020000 		.4byte	.LVL538
 12445 1671 0100     		.2byte	0x1
 12446 1673 57       		.byte	0x57
 12447 1674 00000000 		.4byte	0
 12448 1678 00000000 		.4byte	0
 12449              	.LLST135:
 12450 167c 3C000000 		.4byte	.LVL465
ARM GAS  C:\Users\rdn\AppData\Local\Temp\ccFEeGTH.s 			page 248


 12451 1680 4C000000 		.4byte	.LVL468
 12452 1684 0200     		.2byte	0x2
 12453 1686 30       		.byte	0x30
 12454 1687 9F       		.byte	0x9f
 12455 1688 4C000000 		.4byte	.LVL468
 12456 168c B6000000 		.4byte	.LVL476
 12457 1690 0100     		.2byte	0x1
 12458 1692 57       		.byte	0x57
 12459 1693 B6000000 		.4byte	.LVL476
 12460 1697 E0000000 		.4byte	.LVL481
 12461 169b 0300     		.2byte	0x3
 12462 169d 77       		.byte	0x77
 12463 169e 7F       		.sleb128 -1
 12464 169f 9F       		.byte	0x9f
 12465 16a0 E0000000 		.4byte	.LVL481
 12466 16a4 66010000 		.4byte	.LVL496
 12467 16a8 0100     		.2byte	0x1
 12468 16aa 57       		.byte	0x57
 12469 16ab 00000000 		.4byte	0
 12470 16af 00000000 		.4byte	0
 12471              	.LLST136:
 12472 16b3 6C010000 		.4byte	.LVL498
 12473 16b7 70010000 		.4byte	.LVL499
 12474 16bb 0200     		.2byte	0x2
 12475 16bd 30       		.byte	0x30
 12476 16be 9F       		.byte	0x9f
 12477 16bf 70010000 		.4byte	.LVL499
 12478 16c3 A8010000 		.4byte	.LVL505
 12479 16c7 0100     		.2byte	0x1
 12480 16c9 56       		.byte	0x56
 12481 16ca 00000000 		.4byte	0
 12482 16ce 00000000 		.4byte	0
 12483              	.LLST137:
 12484 16d2 AC010000 		.4byte	.LVL506
 12485 16d6 06020000 		.4byte	.LVL513
 12486 16da 0100     		.2byte	0x1
 12487 16dc 56       		.byte	0x56
 12488 16dd 00000000 		.4byte	0
 12489 16e1 00000000 		.4byte	0
 12490              	.LLST138:
 12491 16e5 04020000 		.4byte	.LVL512
 12492 16e9 0C020000 		.4byte	.LVL515
 12493 16ed 0200     		.2byte	0x2
 12494 16ef 30       		.byte	0x30
 12495 16f0 9F       		.byte	0x9f
 12496 16f1 0C020000 		.4byte	.LVL515
 12497 16f5 B6020000 		.4byte	.LVL536
 12498 16f9 0100     		.2byte	0x1
 12499 16fb 54       		.byte	0x54
 12500 16fc 00000000 		.4byte	0
 12501 1700 00000000 		.4byte	0
 12502              	.LLST139:
 12503 1704 04020000 		.4byte	.LVL512
 12504 1708 0C020000 		.4byte	.LVL515
 12505 170c 0200     		.2byte	0x2
 12506 170e 30       		.byte	0x30
 12507 170f 9F       		.byte	0x9f
ARM GAS  C:\Users\rdn\AppData\Local\Temp\ccFEeGTH.s 			page 249


 12508 1710 0C020000 		.4byte	.LVL515
 12509 1714 B6020000 		.4byte	.LVL537
 12510 1718 0100     		.2byte	0x1
 12511 171a 56       		.byte	0x56
 12512 171b 00000000 		.4byte	0
 12513 171f 00000000 		.4byte	0
 12514              	.LLST140:
 12515 1723 1A020000 		.4byte	.LVL516
 12516 1727 3A020000 		.4byte	.LVL521
 12517 172b 0100     		.2byte	0x1
 12518 172d 55       		.byte	0x55
 12519 172e 3A020000 		.4byte	.LVL521
 12520 1732 3F020000 		.4byte	.LVL522-1
 12521 1736 0100     		.2byte	0x1
 12522 1738 50       		.byte	0x50
 12523 1739 3F020000 		.4byte	.LVL522-1
 12524 173d 88020000 		.4byte	.LVL531
 12525 1741 0100     		.2byte	0x1
 12526 1743 55       		.byte	0x55
 12527 1744 00000000 		.4byte	0
 12528 1748 00000000 		.4byte	0
 12529              	.LLST141:
 12530 174c 28020000 		.4byte	.LVL518
 12531 1750 2F020000 		.4byte	.LVL519-1
 12532 1754 0100     		.2byte	0x1
 12533 1756 53       		.byte	0x53
 12534 1757 2F020000 		.4byte	.LVL519-1
 12535 175b 8E020000 		.4byte	.LVL532
 12536 175f 0100     		.2byte	0x1
 12537 1761 59       		.byte	0x59
 12538 1762 00000000 		.4byte	0
 12539 1766 00000000 		.4byte	0
 12540              	.LLST142:
 12541 176a 00000000 		.4byte	.LVL540
 12542 176e 0C000000 		.4byte	.LVL541
 12543 1772 0100     		.2byte	0x1
 12544 1774 50       		.byte	0x50
 12545 1775 0C000000 		.4byte	.LVL541
 12546 1779 68000000 		.4byte	.LVL550
 12547 177d 0100     		.2byte	0x1
 12548 177f 55       		.byte	0x55
 12549 1780 68000000 		.4byte	.LVL550
 12550 1784 74000000 		.4byte	.LFE31
 12551 1788 0400     		.2byte	0x4
 12552 178a F3       		.byte	0xf3
 12553 178b 01       		.uleb128 0x1
 12554 178c 50       		.byte	0x50
 12555 178d 9F       		.byte	0x9f
 12556 178e 00000000 		.4byte	0
 12557 1792 00000000 		.4byte	0
 12558              	.LLST143:
 12559 1796 00000000 		.4byte	.LVL540
 12560 179a 22000000 		.4byte	.LVL545
 12561 179e 0100     		.2byte	0x1
 12562 17a0 51       		.byte	0x51
 12563 17a1 22000000 		.4byte	.LVL545
 12564 17a5 3D000000 		.4byte	.LVL547-1
ARM GAS  C:\Users\rdn\AppData\Local\Temp\ccFEeGTH.s 			page 250


 12565 17a9 0100     		.2byte	0x1
 12566 17ab 50       		.byte	0x50
 12567 17ac 3D000000 		.4byte	.LVL547-1
 12568 17b0 74000000 		.4byte	.LFE31
 12569 17b4 0400     		.2byte	0x4
 12570 17b6 F3       		.byte	0xf3
 12571 17b7 01       		.uleb128 0x1
 12572 17b8 51       		.byte	0x51
 12573 17b9 9F       		.byte	0x9f
 12574 17ba 00000000 		.4byte	0
 12575 17be 00000000 		.4byte	0
 12576              	.LLST144:
 12577 17c2 00000000 		.4byte	.LVL540
 12578 17c6 18000000 		.4byte	.LVL544
 12579 17ca 0100     		.2byte	0x1
 12580 17cc 52       		.byte	0x52
 12581 17cd 18000000 		.4byte	.LVL544
 12582 17d1 74000000 		.4byte	.LFE31
 12583 17d5 0400     		.2byte	0x4
 12584 17d7 F3       		.byte	0xf3
 12585 17d8 01       		.uleb128 0x1
 12586 17d9 52       		.byte	0x52
 12587 17da 9F       		.byte	0x9f
 12588 17db 00000000 		.4byte	0
 12589 17df 00000000 		.4byte	0
 12590              	.LLST145:
 12591 17e3 00000000 		.4byte	.LVL540
 12592 17e7 12000000 		.4byte	.LVL542
 12593 17eb 0100     		.2byte	0x1
 12594 17ed 53       		.byte	0x53
 12595 17ee 12000000 		.4byte	.LVL542
 12596 17f2 14000000 		.4byte	.LVL543
 12597 17f6 0200     		.2byte	0x2
 12598 17f8 73       		.byte	0x73
 12599 17f9 54       		.sleb128 -44
 12600 17fa 14000000 		.4byte	.LVL543
 12601 17fe 74000000 		.4byte	.LFE31
 12602 1802 0200     		.2byte	0x2
 12603 1804 91       		.byte	0x91
 12604 1805 54       		.sleb128 -44
 12605 1806 00000000 		.4byte	0
 12606 180a 00000000 		.4byte	0
 12607              	.LLST146:
 12608 180e 00000000 		.4byte	.LVL540
 12609 1812 12000000 		.4byte	.LVL542
 12610 1816 0200     		.2byte	0x2
 12611 1818 91       		.byte	0x91
 12612 1819 00       		.sleb128 0
 12613 181a 12000000 		.4byte	.LVL542
 12614 181e 14000000 		.4byte	.LVL543
 12615 1822 0200     		.2byte	0x2
 12616 1824 73       		.byte	0x73
 12617 1825 00       		.sleb128 0
 12618 1826 14000000 		.4byte	.LVL543
 12619 182a 74000000 		.4byte	.LFE31
 12620 182e 0200     		.2byte	0x2
 12621 1830 91       		.byte	0x91
ARM GAS  C:\Users\rdn\AppData\Local\Temp\ccFEeGTH.s 			page 251


 12622 1831 00       		.sleb128 0
 12623 1832 00000000 		.4byte	0
 12624 1836 00000000 		.4byte	0
 12625              	.LLST147:
 12626 183a 00000000 		.4byte	.LVL540
 12627 183e 12000000 		.4byte	.LVL542
 12628 1842 0200     		.2byte	0x2
 12629 1844 91       		.byte	0x91
 12630 1845 04       		.sleb128 4
 12631 1846 12000000 		.4byte	.LVL542
 12632 184a 14000000 		.4byte	.LVL543
 12633 184e 0200     		.2byte	0x2
 12634 1850 73       		.byte	0x73
 12635 1851 04       		.sleb128 4
 12636 1852 14000000 		.4byte	.LVL543
 12637 1856 74000000 		.4byte	.LFE31
 12638 185a 0200     		.2byte	0x2
 12639 185c 91       		.byte	0x91
 12640 185d 04       		.sleb128 4
 12641 185e 00000000 		.4byte	0
 12642 1862 00000000 		.4byte	0
 12643              	.LLST148:
 12644 1866 2A000000 		.4byte	.LVL546
 12645 186a 3D000000 		.4byte	.LVL547-1
 12646 186e 0100     		.2byte	0x1
 12647 1870 52       		.byte	0x52
 12648 1871 00000000 		.4byte	0
 12649 1875 00000000 		.4byte	0
 12650              	.LLST149:
 12651 1879 00000000 		.4byte	.LVL551
 12652 187d 1B000000 		.4byte	.LVL554-1
 12653 1881 0100     		.2byte	0x1
 12654 1883 50       		.byte	0x50
 12655 1884 1B000000 		.4byte	.LVL554-1
 12656 1888 98000000 		.4byte	.LFE33
 12657 188c 0400     		.2byte	0x4
 12658 188e F3       		.byte	0xf3
 12659 188f 01       		.uleb128 0x1
 12660 1890 50       		.byte	0x50
 12661 1891 9F       		.byte	0x9f
 12662 1892 00000000 		.4byte	0
 12663 1896 00000000 		.4byte	0
 12664              	.LLST150:
 12665 189a 00000000 		.4byte	.LVL551
 12666 189e 0A000000 		.4byte	.LVL552
 12667 18a2 0100     		.2byte	0x1
 12668 18a4 51       		.byte	0x51
 12669 18a5 0A000000 		.4byte	.LVL552
 12670 18a9 98000000 		.4byte	.LFE33
 12671 18ad 0400     		.2byte	0x4
 12672 18af F3       		.byte	0xf3
 12673 18b0 01       		.uleb128 0x1
 12674 18b1 51       		.byte	0x51
 12675 18b2 9F       		.byte	0x9f
 12676 18b3 00000000 		.4byte	0
 12677 18b7 00000000 		.4byte	0
 12678              	.LLST151:
ARM GAS  C:\Users\rdn\AppData\Local\Temp\ccFEeGTH.s 			page 252


 12679 18bb 00000000 		.4byte	.LVL551
 12680 18bf 1B000000 		.4byte	.LVL554-1
 12681 18c3 0100     		.2byte	0x1
 12682 18c5 52       		.byte	0x52
 12683 18c6 1B000000 		.4byte	.LVL554-1
 12684 18ca 98000000 		.4byte	.LFE33
 12685 18ce 0400     		.2byte	0x4
 12686 18d0 F3       		.byte	0xf3
 12687 18d1 01       		.uleb128 0x1
 12688 18d2 52       		.byte	0x52
 12689 18d3 9F       		.byte	0x9f
 12690 18d4 00000000 		.4byte	0
 12691 18d8 00000000 		.4byte	0
 12692              	.LLST152:
 12693 18dc 00000000 		.4byte	.LVL551
 12694 18e0 1B000000 		.4byte	.LVL554-1
 12695 18e4 0100     		.2byte	0x1
 12696 18e6 53       		.byte	0x53
 12697 18e7 1B000000 		.4byte	.LVL554-1
 12698 18eb 98000000 		.4byte	.LFE33
 12699 18ef 0400     		.2byte	0x4
 12700 18f1 F3       		.byte	0xf3
 12701 18f2 01       		.uleb128 0x1
 12702 18f3 53       		.byte	0x53
 12703 18f4 9F       		.byte	0x9f
 12704 18f5 00000000 		.4byte	0
 12705 18f9 00000000 		.4byte	0
 12706              	.LLST153:
 12707 18fd 00000000 		.4byte	.LVL551
 12708 1901 0A000000 		.4byte	.LVL552
 12709 1905 0200     		.2byte	0x2
 12710 1907 91       		.byte	0x91
 12711 1908 00       		.sleb128 0
 12712 1909 0A000000 		.4byte	.LVL552
 12713 190d 0C000000 		.4byte	.LVL553
 12714 1911 0200     		.2byte	0x2
 12715 1913 71       		.byte	0x71
 12716 1914 00       		.sleb128 0
 12717 1915 0C000000 		.4byte	.LVL553
 12718 1919 98000000 		.4byte	.LFE33
 12719 191d 0200     		.2byte	0x2
 12720 191f 91       		.byte	0x91
 12721 1920 00       		.sleb128 0
 12722 1921 00000000 		.4byte	0
 12723 1925 00000000 		.4byte	0
 12724              	.LLST154:
 12725 1929 00000000 		.4byte	.LVL551
 12726 192d 0A000000 		.4byte	.LVL552
 12727 1931 0200     		.2byte	0x2
 12728 1933 91       		.byte	0x91
 12729 1934 04       		.sleb128 4
 12730 1935 0A000000 		.4byte	.LVL552
 12731 1939 0C000000 		.4byte	.LVL553
 12732 193d 0200     		.2byte	0x2
 12733 193f 71       		.byte	0x71
 12734 1940 04       		.sleb128 4
 12735 1941 0C000000 		.4byte	.LVL553
ARM GAS  C:\Users\rdn\AppData\Local\Temp\ccFEeGTH.s 			page 253


 12736 1945 98000000 		.4byte	.LFE33
 12737 1949 0200     		.2byte	0x2
 12738 194b 91       		.byte	0x91
 12739 194c 04       		.sleb128 4
 12740 194d 00000000 		.4byte	0
 12741 1951 00000000 		.4byte	0
 12742              	.LLST155:
 12743 1955 00000000 		.4byte	.LVL551
 12744 1959 0A000000 		.4byte	.LVL552
 12745 195d 0200     		.2byte	0x2
 12746 195f 91       		.byte	0x91
 12747 1960 08       		.sleb128 8
 12748 1961 0A000000 		.4byte	.LVL552
 12749 1965 0C000000 		.4byte	.LVL553
 12750 1969 0200     		.2byte	0x2
 12751 196b 71       		.byte	0x71
 12752 196c 08       		.sleb128 8
 12753 196d 0C000000 		.4byte	.LVL553
 12754 1971 98000000 		.4byte	.LFE33
 12755 1975 0200     		.2byte	0x2
 12756 1977 91       		.byte	0x91
 12757 1978 08       		.sleb128 8
 12758 1979 00000000 		.4byte	0
 12759 197d 00000000 		.4byte	0
 12760              	.LLST156:
 12761 1981 00000000 		.4byte	.LVL551
 12762 1985 0A000000 		.4byte	.LVL552
 12763 1989 0200     		.2byte	0x2
 12764 198b 91       		.byte	0x91
 12765 198c 0C       		.sleb128 12
 12766 198d 0A000000 		.4byte	.LVL552
 12767 1991 0C000000 		.4byte	.LVL553
 12768 1995 0200     		.2byte	0x2
 12769 1997 71       		.byte	0x71
 12770 1998 0C       		.sleb128 12
 12771 1999 0C000000 		.4byte	.LVL553
 12772 199d 98000000 		.4byte	.LFE33
 12773 19a1 0200     		.2byte	0x2
 12774 19a3 91       		.byte	0x91
 12775 19a4 0C       		.sleb128 12
 12776 19a5 00000000 		.4byte	0
 12777 19a9 00000000 		.4byte	0
 12778              	.LLST157:
 12779 19ad 00000000 		.4byte	.LVL560
 12780 19b1 1C000000 		.4byte	.LVL564
 12781 19b5 0100     		.2byte	0x1
 12782 19b7 50       		.byte	0x50
 12783 19b8 1C000000 		.4byte	.LVL564
 12784 19bc 52000000 		.4byte	.LFE34
 12785 19c0 0400     		.2byte	0x4
 12786 19c2 F3       		.byte	0xf3
 12787 19c3 01       		.uleb128 0x1
 12788 19c4 50       		.byte	0x50
 12789 19c5 9F       		.byte	0x9f
 12790 19c6 00000000 		.4byte	0
 12791 19ca 00000000 		.4byte	0
 12792              	.LLST158:
ARM GAS  C:\Users\rdn\AppData\Local\Temp\ccFEeGTH.s 			page 254


 12793 19ce 00000000 		.4byte	.LVL560
 12794 19d2 1A000000 		.4byte	.LVL563
 12795 19d6 0100     		.2byte	0x1
 12796 19d8 51       		.byte	0x51
 12797 19d9 1A000000 		.4byte	.LVL563
 12798 19dd 52000000 		.4byte	.LFE34
 12799 19e1 0400     		.2byte	0x4
 12800 19e3 F3       		.byte	0xf3
 12801 19e4 01       		.uleb128 0x1
 12802 19e5 51       		.byte	0x51
 12803 19e6 9F       		.byte	0x9f
 12804 19e7 00000000 		.4byte	0
 12805 19eb 00000000 		.4byte	0
 12806              	.LLST159:
 12807 19ef 00000000 		.4byte	.LVL560
 12808 19f3 0E000000 		.4byte	.LVL561
 12809 19f7 0100     		.2byte	0x1
 12810 19f9 52       		.byte	0x52
 12811 19fa 0E000000 		.4byte	.LVL561
 12812 19fe 50000000 		.4byte	.LVL569
 12813 1a02 0100     		.2byte	0x1
 12814 1a04 54       		.byte	0x54
 12815 1a05 50000000 		.4byte	.LVL569
 12816 1a09 52000000 		.4byte	.LFE34
 12817 1a0d 0400     		.2byte	0x4
 12818 1a0f F3       		.byte	0xf3
 12819 1a10 01       		.uleb128 0x1
 12820 1a11 52       		.byte	0x52
 12821 1a12 9F       		.byte	0x9f
 12822 1a13 00000000 		.4byte	0
 12823 1a17 00000000 		.4byte	0
 12824              	.LLST160:
 12825 1a1b 00000000 		.4byte	.LVL560
 12826 1a1f 14000000 		.4byte	.LVL562
 12827 1a23 0100     		.2byte	0x1
 12828 1a25 53       		.byte	0x53
 12829 1a26 14000000 		.4byte	.LVL562
 12830 1a2a 50000000 		.4byte	.LVL570
 12831 1a2e 0100     		.2byte	0x1
 12832 1a30 56       		.byte	0x56
 12833 1a31 50000000 		.4byte	.LVL570
 12834 1a35 52000000 		.4byte	.LFE34
 12835 1a39 0400     		.2byte	0x4
 12836 1a3b F3       		.byte	0xf3
 12837 1a3c 01       		.uleb128 0x1
 12838 1a3d 53       		.byte	0x53
 12839 1a3e 9F       		.byte	0x9f
 12840 1a3f 00000000 		.4byte	0
 12841 1a43 00000000 		.4byte	0
 12842              	.LLST161:
 12843 1a47 00000000 		.4byte	.LVL571
 12844 1a4b 21000000 		.4byte	.LVL576-1
 12845 1a4f 0100     		.2byte	0x1
 12846 1a51 50       		.byte	0x50
 12847 1a52 21000000 		.4byte	.LVL576-1
 12848 1a56 6A010000 		.4byte	.LVL627
 12849 1a5a 0100     		.2byte	0x1
ARM GAS  C:\Users\rdn\AppData\Local\Temp\ccFEeGTH.s 			page 255


 12850 1a5c 54       		.byte	0x54
 12851 1a5d 6A010000 		.4byte	.LVL627
 12852 1a61 74010000 		.4byte	.LFE36
 12853 1a65 0400     		.2byte	0x4
 12854 1a67 F3       		.byte	0xf3
 12855 1a68 01       		.uleb128 0x1
 12856 1a69 50       		.byte	0x50
 12857 1a6a 9F       		.byte	0x9f
 12858 1a6b 00000000 		.4byte	0
 12859 1a6f 00000000 		.4byte	0
 12860              	.LLST162:
 12861 1a73 00000000 		.4byte	.LVL571
 12862 1a77 08000000 		.4byte	.LVL572
 12863 1a7b 0100     		.2byte	0x1
 12864 1a7d 51       		.byte	0x51
 12865 1a7e 08000000 		.4byte	.LVL572
 12866 1a82 6A010000 		.4byte	.LVL628
 12867 1a86 0100     		.2byte	0x1
 12868 1a88 55       		.byte	0x55
 12869 1a89 6A010000 		.4byte	.LVL628
 12870 1a8d 74010000 		.4byte	.LFE36
 12871 1a91 0400     		.2byte	0x4
 12872 1a93 F3       		.byte	0xf3
 12873 1a94 01       		.uleb128 0x1
 12874 1a95 51       		.byte	0x51
 12875 1a96 9F       		.byte	0x9f
 12876 1a97 00000000 		.4byte	0
 12877 1a9b 00000000 		.4byte	0
 12878              	.LLST163:
 12879 1a9f 44000000 		.4byte	.LVL582
 12880 1aa3 76000000 		.4byte	.LVL586
 12881 1aa7 0100     		.2byte	0x1
 12882 1aa9 56       		.byte	0x56
 12883 1aaa 7E000000 		.4byte	.LVL587
 12884 1aae 80000000 		.4byte	.LVL588
 12885 1ab2 0100     		.2byte	0x1
 12886 1ab4 56       		.byte	0x56
 12887 1ab5 EE000000 		.4byte	.LVL607
 12888 1ab9 F8000000 		.4byte	.LVL609
 12889 1abd 0100     		.2byte	0x1
 12890 1abf 56       		.byte	0x56
 12891 1ac0 FA000000 		.4byte	.LVL610
 12892 1ac4 06010000 		.4byte	.LVL611
 12893 1ac8 0100     		.2byte	0x1
 12894 1aca 56       		.byte	0x56
 12895 1acb 00000000 		.4byte	0
 12896 1acf 00000000 		.4byte	0
 12897              	.LLST164:
 12898 1ad3 08000000 		.4byte	.LVL572
 12899 1ad7 22000000 		.4byte	.LVL576
 12900 1adb 0200     		.2byte	0x2
 12901 1add 35       		.byte	0x35
 12902 1ade 9F       		.byte	0x9f
 12903 1adf 00000000 		.4byte	0
 12904 1ae3 00000000 		.4byte	0
 12905              	.LLST165:
 12906 1ae7 08000000 		.4byte	.LVL572
ARM GAS  C:\Users\rdn\AppData\Local\Temp\ccFEeGTH.s 			page 256


 12907 1aeb 12000000 		.4byte	.LVL573
 12908 1aef 0100     		.2byte	0x1
 12909 1af1 51       		.byte	0x51
 12910 1af2 12000000 		.4byte	.LVL573
 12911 1af6 18000000 		.4byte	.LVL574
 12912 1afa 0200     		.2byte	0x2
 12913 1afc 75       		.byte	0x75
 12914 1afd 00       		.sleb128 0
 12915 1afe 1C000000 		.4byte	.LVL575
 12916 1b02 21000000 		.4byte	.LVL576-1
 12917 1b06 0100     		.2byte	0x1
 12918 1b08 51       		.byte	0x51
 12919 1b09 00000000 		.4byte	0
 12920 1b0d 00000000 		.4byte	0
 12921              	.LLST166:
 12922 1b11 08000000 		.4byte	.LVL572
 12923 1b15 21000000 		.4byte	.LVL576-1
 12924 1b19 0100     		.2byte	0x1
 12925 1b1b 50       		.byte	0x50
 12926 1b1c 21000000 		.4byte	.LVL576-1
 12927 1b20 22000000 		.4byte	.LVL576
 12928 1b24 0100     		.2byte	0x1
 12929 1b26 54       		.byte	0x54
 12930 1b27 00000000 		.4byte	0
 12931 1b2b 00000000 		.4byte	0
 12932              	.LLST167:
 12933 1b2f 08000000 		.4byte	.LVL572
 12934 1b33 21000000 		.4byte	.LVL576-1
 12935 1b37 0300     		.2byte	0x3
 12936 1b39 70       		.byte	0x70
 12937 1b3a 1C       		.sleb128 28
 12938 1b3b 9F       		.byte	0x9f
 12939 1b3c 21000000 		.4byte	.LVL576-1
 12940 1b40 6A010000 		.4byte	.LVL626
 12941 1b44 0300     		.2byte	0x3
 12942 1b46 74       		.byte	0x74
 12943 1b47 1C       		.sleb128 28
 12944 1b48 9F       		.byte	0x9f
 12945 1b49 00000000 		.4byte	0
 12946 1b4d 00000000 		.4byte	0
 12947              	.LLST168:
 12948 1b51 24000000 		.4byte	.LVL577
 12949 1b55 40000000 		.4byte	.LVL581
 12950 1b59 0200     		.2byte	0x2
 12951 1b5b 35       		.byte	0x35
 12952 1b5c 9F       		.byte	0x9f
 12953 1b5d 00000000 		.4byte	0
 12954 1b61 00000000 		.4byte	0
 12955              	.LLST169:
 12956 1b65 24000000 		.4byte	.LVL577
 12957 1b69 2E000000 		.4byte	.LVL578
 12958 1b6d 0100     		.2byte	0x1
 12959 1b6f 51       		.byte	0x51
 12960 1b70 2E000000 		.4byte	.LVL578
 12961 1b74 34000000 		.4byte	.LVL579
 12962 1b78 0200     		.2byte	0x2
 12963 1b7a 75       		.byte	0x75
ARM GAS  C:\Users\rdn\AppData\Local\Temp\ccFEeGTH.s 			page 257


 12964 1b7b 04       		.sleb128 4
 12965 1b7c 38000000 		.4byte	.LVL580
 12966 1b80 3F000000 		.4byte	.LVL581-1
 12967 1b84 0100     		.2byte	0x1
 12968 1b86 51       		.byte	0x51
 12969 1b87 00000000 		.4byte	0
 12970 1b8b 00000000 		.4byte	0
 12971              	.LLST170:
 12972 1b8f 24000000 		.4byte	.LVL577
 12973 1b93 40000000 		.4byte	.LVL581
 12974 1b97 0100     		.2byte	0x1
 12975 1b99 54       		.byte	0x54
 12976 1b9a 00000000 		.4byte	0
 12977 1b9e 00000000 		.4byte	0
 12978              	.LLST171:
 12979 1ba2 24000000 		.4byte	.LVL577
 12980 1ba6 6A010000 		.4byte	.LVL626
 12981 1baa 0300     		.2byte	0x3
 12982 1bac 74       		.byte	0x74
 12983 1bad 1C       		.sleb128 28
 12984 1bae 9F       		.byte	0x9f
 12985 1baf 00000000 		.4byte	0
 12986 1bb3 00000000 		.4byte	0
 12987              	.LLST172:
 12988 1bb7 44000000 		.4byte	.LVL582
 12989 1bbb 66000000 		.4byte	.LVL583
 12990 1bbf 0100     		.2byte	0x1
 12991 1bc1 56       		.byte	0x56
 12992 1bc2 00000000 		.4byte	0
 12993 1bc6 00000000 		.4byte	0
 12994              	.LLST173:
 12995 1bca 44000000 		.4byte	.LVL582
 12996 1bce 66000000 		.4byte	.LVL583
 12997 1bd2 0100     		.2byte	0x1
 12998 1bd4 54       		.byte	0x54
 12999 1bd5 00000000 		.4byte	0
 13000 1bd9 00000000 		.4byte	0
 13001              	.LLST174:
 13002 1bdd 44000000 		.4byte	.LVL582
 13003 1be1 66000000 		.4byte	.LVL583
 13004 1be5 0200     		.2byte	0x2
 13005 1be7 31       		.byte	0x31
 13006 1be8 9F       		.byte	0x9f
 13007 1be9 00000000 		.4byte	0
 13008 1bed 00000000 		.4byte	0
 13009              	.LLST177:
 13010 1bf1 44000000 		.4byte	.LVL582
 13011 1bf5 6A010000 		.4byte	.LVL626
 13012 1bf9 0300     		.2byte	0x3
 13013 1bfb 74       		.byte	0x74
 13014 1bfc 1C       		.sleb128 28
 13015 1bfd 9F       		.byte	0x9f
 13016 1bfe 00000000 		.4byte	0
 13017 1c02 00000000 		.4byte	0
 13018              	.LLST178:
 13019 1c06 6A000000 		.4byte	.LVL584
 13020 1c0a EE000000 		.4byte	.LVL607
ARM GAS  C:\Users\rdn\AppData\Local\Temp\ccFEeGTH.s 			page 258


 13021 1c0e 0600     		.2byte	0x6
 13022 1c10 0C       		.byte	0xc
 13023 1c11 F4772400 		.4byte	0x2477f4
 13024 1c15 9F       		.byte	0x9f
 13025 1c16 00000000 		.4byte	0
 13026 1c1a 00000000 		.4byte	0
 13027              	.LLST179:
 13028 1c1e 70000000 		.4byte	.LVL585
 13029 1c22 96000000 		.4byte	.LVL593
 13030 1c26 0100     		.2byte	0x1
 13031 1c28 53       		.byte	0x53
 13032 1c29 96000000 		.4byte	.LVL593
 13033 1c2d A2000000 		.4byte	.LVL595
 13034 1c31 0600     		.2byte	0x6
 13035 1c33 75       		.byte	0x75
 13036 1c34 08       		.sleb128 8
 13037 1c35 06       		.byte	0x6
 13038 1c36 31       		.byte	0x31
 13039 1c37 1A       		.byte	0x1a
 13040 1c38 9F       		.byte	0x9f
 13041 1c39 A6000000 		.4byte	.LVL596
 13042 1c3d A8000000 		.4byte	.LVL597
 13043 1c41 0600     		.2byte	0x6
 13044 1c43 75       		.byte	0x75
 13045 1c44 08       		.sleb128 8
 13046 1c45 06       		.byte	0x6
 13047 1c46 31       		.byte	0x31
 13048 1c47 1A       		.byte	0x1a
 13049 1c48 9F       		.byte	0x9f
 13050 1c49 A8000000 		.4byte	.LVL597
 13051 1c4d AD000000 		.4byte	.LVL598-1
 13052 1c51 0700     		.2byte	0x7
 13053 1c53 72       		.byte	0x72
 13054 1c54 00       		.sleb128 0
 13055 1c55 75       		.byte	0x75
 13056 1c56 08       		.sleb128 8
 13057 1c57 06       		.byte	0x6
 13058 1c58 1A       		.byte	0x1a
 13059 1c59 9F       		.byte	0x9f
 13060 1c5a 00000000 		.4byte	0
 13061 1c5e 00000000 		.4byte	0
 13062              	.LLST180:
 13063 1c62 84000000 		.4byte	.LVL589
 13064 1c66 88000000 		.4byte	.LVL590
 13065 1c6a 0100     		.2byte	0x1
 13066 1c6c 56       		.byte	0x56
 13067 1c6d 00000000 		.4byte	0
 13068 1c71 00000000 		.4byte	0
 13069              	.LLST181:
 13070 1c75 8E000000 		.4byte	.LVL591
 13071 1c79 D8000000 		.4byte	.LVL604
 13072 1c7d 0100     		.2byte	0x1
 13073 1c7f 56       		.byte	0x56
 13074 1c80 E2000000 		.4byte	.LVL605
 13075 1c84 EE000000 		.4byte	.LVL607
 13076 1c88 0100     		.2byte	0x1
 13077 1c8a 56       		.byte	0x56
ARM GAS  C:\Users\rdn\AppData\Local\Temp\ccFEeGTH.s 			page 259


 13078 1c8b 00000000 		.4byte	0
 13079 1c8f 00000000 		.4byte	0
 13080              	.LLST182:
 13081 1c93 92000000 		.4byte	.LVL592
 13082 1c97 AE000000 		.4byte	.LVL598
 13083 1c9b 0200     		.2byte	0x2
 13084 1c9d 31       		.byte	0x31
 13085 1c9e 9F       		.byte	0x9f
 13086 1c9f 00000000 		.4byte	0
 13087 1ca3 00000000 		.4byte	0
 13088              	.LLST183:
 13089 1ca7 92000000 		.4byte	.LVL592
 13090 1cab 9C000000 		.4byte	.LVL594
 13091 1caf 0100     		.2byte	0x1
 13092 1cb1 51       		.byte	0x51
 13093 1cb2 9C000000 		.4byte	.LVL594
 13094 1cb6 A2000000 		.4byte	.LVL595
 13095 1cba 0A00     		.2byte	0xa
 13096 1cbc 75       		.byte	0x75
 13097 1cbd 0C       		.sleb128 12
 13098 1cbe 06       		.byte	0x6
 13099 1cbf 75       		.byte	0x75
 13100 1cc0 08       		.sleb128 8
 13101 1cc1 06       		.byte	0x6
 13102 1cc2 31       		.byte	0x31
 13103 1cc3 1A       		.byte	0x1a
 13104 1cc4 26       		.byte	0x26
 13105 1cc5 9F       		.byte	0x9f
 13106 1cc6 A6000000 		.4byte	.LVL596
 13107 1cca AD000000 		.4byte	.LVL598-1
 13108 1cce 0100     		.2byte	0x1
 13109 1cd0 51       		.byte	0x51
 13110 1cd1 00000000 		.4byte	0
 13111 1cd5 00000000 		.4byte	0
 13112              	.LLST184:
 13113 1cd9 92000000 		.4byte	.LVL592
 13114 1cdd AE000000 		.4byte	.LVL598
 13115 1ce1 0100     		.2byte	0x1
 13116 1ce3 54       		.byte	0x54
 13117 1ce4 00000000 		.4byte	0
 13118 1ce8 00000000 		.4byte	0
 13119              	.LLST185:
 13120 1cec 92000000 		.4byte	.LVL592
 13121 1cf0 EE000000 		.4byte	.LVL607
 13122 1cf4 0300     		.2byte	0x3
 13123 1cf6 74       		.byte	0x74
 13124 1cf7 1C       		.sleb128 28
 13125 1cf8 9F       		.byte	0x9f
 13126 1cf9 00000000 		.4byte	0
 13127 1cfd 00000000 		.4byte	0
 13128              	.LLST186:
 13129 1d01 B0000000 		.4byte	.LVL599
 13130 1d05 CC000000 		.4byte	.LVL603
 13131 1d09 0200     		.2byte	0x2
 13132 1d0b 31       		.byte	0x31
 13133 1d0c 9F       		.byte	0x9f
 13134 1d0d 00000000 		.4byte	0
ARM GAS  C:\Users\rdn\AppData\Local\Temp\ccFEeGTH.s 			page 260


 13135 1d11 00000000 		.4byte	0
 13136              	.LLST187:
 13137 1d15 B0000000 		.4byte	.LVL599
 13138 1d19 BA000000 		.4byte	.LVL600
 13139 1d1d 0100     		.2byte	0x1
 13140 1d1f 51       		.byte	0x51
 13141 1d20 BA000000 		.4byte	.LVL600
 13142 1d24 C0000000 		.4byte	.LVL601
 13143 1d28 0800     		.2byte	0x8
 13144 1d2a 75       		.byte	0x75
 13145 1d2b 18       		.sleb128 24
 13146 1d2c 94       		.byte	0x94
 13147 1d2d 01       		.byte	0x1
 13148 1d2e 08       		.byte	0x8
 13149 1d2f FF       		.byte	0xff
 13150 1d30 1A       		.byte	0x1a
 13151 1d31 9F       		.byte	0x9f
 13152 1d32 C4000000 		.4byte	.LVL602
 13153 1d36 CB000000 		.4byte	.LVL603-1
 13154 1d3a 0100     		.2byte	0x1
 13155 1d3c 51       		.byte	0x51
 13156 1d3d 00000000 		.4byte	0
 13157 1d41 00000000 		.4byte	0
 13158              	.LLST188:
 13159 1d45 B0000000 		.4byte	.LVL599
 13160 1d49 CC000000 		.4byte	.LVL603
 13161 1d4d 0100     		.2byte	0x1
 13162 1d4f 54       		.byte	0x54
 13163 1d50 00000000 		.4byte	0
 13164 1d54 00000000 		.4byte	0
 13165              	.LLST189:
 13166 1d58 B0000000 		.4byte	.LVL599
 13167 1d5c EE000000 		.4byte	.LVL607
 13168 1d60 0300     		.2byte	0x3
 13169 1d62 74       		.byte	0x74
 13170 1d63 1C       		.sleb128 28
 13171 1d64 9F       		.byte	0x9f
 13172 1d65 00000000 		.4byte	0
 13173 1d69 00000000 		.4byte	0
 13174              	.LLST190:
 13175 1d6d CC000000 		.4byte	.LVL603
 13176 1d71 EE000000 		.4byte	.LVL607
 13177 1d75 0200     		.2byte	0x2
 13178 1d77 49       		.byte	0x49
 13179 1d78 9F       		.byte	0x9f
 13180 1d79 00000000 		.4byte	0
 13181 1d7d 00000000 		.4byte	0
 13182              	.LLST191:
 13183 1d81 CC000000 		.4byte	.LVL603
 13184 1d85 D8000000 		.4byte	.LVL604
 13185 1d89 0100     		.2byte	0x1
 13186 1d8b 56       		.byte	0x56
 13187 1d8c E2000000 		.4byte	.LVL605
 13188 1d90 EE000000 		.4byte	.LVL607
 13189 1d94 0100     		.2byte	0x1
 13190 1d96 56       		.byte	0x56
 13191 1d97 00000000 		.4byte	0
ARM GAS  C:\Users\rdn\AppData\Local\Temp\ccFEeGTH.s 			page 261


 13192 1d9b 00000000 		.4byte	0
 13193              	.LLST192:
 13194 1d9f CC000000 		.4byte	.LVL603
 13195 1da3 EE000000 		.4byte	.LVL607
 13196 1da7 0100     		.2byte	0x1
 13197 1da9 54       		.byte	0x54
 13198 1daa 00000000 		.4byte	0
 13199 1dae 00000000 		.4byte	0
 13200              	.LLST193:
 13201 1db2 CC000000 		.4byte	.LVL603
 13202 1db6 EE000000 		.4byte	.LVL607
 13203 1dba 0300     		.2byte	0x3
 13204 1dbc 74       		.byte	0x74
 13205 1dbd 1C       		.sleb128 28
 13206 1dbe 9F       		.byte	0x9f
 13207 1dbf 00000000 		.4byte	0
 13208 1dc3 00000000 		.4byte	0
 13209              	.LLST194:
 13210 1dc7 EE000000 		.4byte	.LVL607
 13211 1dcb 6A010000 		.4byte	.LVL626
 13212 1dcf 0600     		.2byte	0x6
 13213 1dd1 0C       		.byte	0xc
 13214 1dd2 004CE700 		.4byte	0xe74c00
 13215 1dd6 9F       		.byte	0x9f
 13216 1dd7 00000000 		.4byte	0
 13217 1ddb 00000000 		.4byte	0
 13218              	.LLST195:
 13219 1ddf F4000000 		.4byte	.LVL608
 13220 1de3 14010000 		.4byte	.LVL614
 13221 1de7 0100     		.2byte	0x1
 13222 1de9 53       		.byte	0x53
 13223 1dea 14010000 		.4byte	.LVL614
 13224 1dee 20010000 		.4byte	.LVL616
 13225 1df2 0600     		.2byte	0x6
 13226 1df4 75       		.byte	0x75
 13227 1df5 08       		.sleb128 8
 13228 1df6 06       		.byte	0x6
 13229 1df7 31       		.byte	0x31
 13230 1df8 1A       		.byte	0x1a
 13231 1df9 9F       		.byte	0x9f
 13232 1dfa 24010000 		.4byte	.LVL617
 13233 1dfe 2B010000 		.4byte	.LVL618-1
 13234 1e02 0600     		.2byte	0x6
 13235 1e04 75       		.byte	0x75
 13236 1e05 08       		.sleb128 8
 13237 1e06 06       		.byte	0x6
 13238 1e07 31       		.byte	0x31
 13239 1e08 1A       		.byte	0x1a
 13240 1e09 9F       		.byte	0x9f
 13241 1e0a 00000000 		.4byte	0
 13242 1e0e 00000000 		.4byte	0
 13243              	.LLST196:
 13244 1e12 0C010000 		.4byte	.LVL612
 13245 1e16 56010000 		.4byte	.LVL624
 13246 1e1a 0100     		.2byte	0x1
 13247 1e1c 56       		.byte	0x56
 13248 1e1d 60010000 		.4byte	.LVL625
ARM GAS  C:\Users\rdn\AppData\Local\Temp\ccFEeGTH.s 			page 262


 13249 1e21 6A010000 		.4byte	.LVL626
 13250 1e25 0100     		.2byte	0x1
 13251 1e27 56       		.byte	0x56
 13252 1e28 00000000 		.4byte	0
 13253 1e2c 00000000 		.4byte	0
 13254              	.LLST197:
 13255 1e30 10010000 		.4byte	.LVL613
 13256 1e34 2C010000 		.4byte	.LVL618
 13257 1e38 0200     		.2byte	0x2
 13258 1e3a 32       		.byte	0x32
 13259 1e3b 9F       		.byte	0x9f
 13260 1e3c 00000000 		.4byte	0
 13261 1e40 00000000 		.4byte	0
 13262              	.LLST198:
 13263 1e44 10010000 		.4byte	.LVL613
 13264 1e48 1A010000 		.4byte	.LVL615
 13265 1e4c 0100     		.2byte	0x1
 13266 1e4e 51       		.byte	0x51
 13267 1e4f 1A010000 		.4byte	.LVL615
 13268 1e53 20010000 		.4byte	.LVL616
 13269 1e57 0A00     		.2byte	0xa
 13270 1e59 75       		.byte	0x75
 13271 1e5a 0C       		.sleb128 12
 13272 1e5b 06       		.byte	0x6
 13273 1e5c 75       		.byte	0x75
 13274 1e5d 08       		.sleb128 8
 13275 1e5e 06       		.byte	0x6
 13276 1e5f 31       		.byte	0x31
 13277 1e60 1A       		.byte	0x1a
 13278 1e61 26       		.byte	0x26
 13279 1e62 9F       		.byte	0x9f
 13280 1e63 24010000 		.4byte	.LVL617
 13281 1e67 2B010000 		.4byte	.LVL618-1
 13282 1e6b 0100     		.2byte	0x1
 13283 1e6d 51       		.byte	0x51
 13284 1e6e 00000000 		.4byte	0
 13285 1e72 00000000 		.4byte	0
 13286              	.LLST199:
 13287 1e76 10010000 		.4byte	.LVL613
 13288 1e7a 2C010000 		.4byte	.LVL618
 13289 1e7e 0100     		.2byte	0x1
 13290 1e80 54       		.byte	0x54
 13291 1e81 00000000 		.4byte	0
 13292 1e85 00000000 		.4byte	0
 13293              	.LLST200:
 13294 1e89 10010000 		.4byte	.LVL613
 13295 1e8d 6A010000 		.4byte	.LVL626
 13296 1e91 0300     		.2byte	0x3
 13297 1e93 74       		.byte	0x74
 13298 1e94 1C       		.sleb128 28
 13299 1e95 9F       		.byte	0x9f
 13300 1e96 00000000 		.4byte	0
 13301 1e9a 00000000 		.4byte	0
 13302              	.LLST201:
 13303 1e9e 2E010000 		.4byte	.LVL619
 13304 1ea2 4A010000 		.4byte	.LVL623
 13305 1ea6 0200     		.2byte	0x2
ARM GAS  C:\Users\rdn\AppData\Local\Temp\ccFEeGTH.s 			page 263


 13306 1ea8 31       		.byte	0x31
 13307 1ea9 9F       		.byte	0x9f
 13308 1eaa 00000000 		.4byte	0
 13309 1eae 00000000 		.4byte	0
 13310              	.LLST202:
 13311 1eb2 2E010000 		.4byte	.LVL619
 13312 1eb6 38010000 		.4byte	.LVL620
 13313 1eba 0100     		.2byte	0x1
 13314 1ebc 51       		.byte	0x51
 13315 1ebd 38010000 		.4byte	.LVL620
 13316 1ec1 3E010000 		.4byte	.LVL621
 13317 1ec5 0800     		.2byte	0x8
 13318 1ec7 75       		.byte	0x75
 13319 1ec8 18       		.sleb128 24
 13320 1ec9 94       		.byte	0x94
 13321 1eca 01       		.byte	0x1
 13322 1ecb 08       		.byte	0x8
 13323 1ecc FF       		.byte	0xff
 13324 1ecd 1A       		.byte	0x1a
 13325 1ece 9F       		.byte	0x9f
 13326 1ecf 42010000 		.4byte	.LVL622
 13327 1ed3 49010000 		.4byte	.LVL623-1
 13328 1ed7 0100     		.2byte	0x1
 13329 1ed9 51       		.byte	0x51
 13330 1eda 00000000 		.4byte	0
 13331 1ede 00000000 		.4byte	0
 13332              	.LLST203:
 13333 1ee2 2E010000 		.4byte	.LVL619
 13334 1ee6 4A010000 		.4byte	.LVL623
 13335 1eea 0100     		.2byte	0x1
 13336 1eec 54       		.byte	0x54
 13337 1eed 00000000 		.4byte	0
 13338 1ef1 00000000 		.4byte	0
 13339              	.LLST204:
 13340 1ef5 2E010000 		.4byte	.LVL619
 13341 1ef9 6A010000 		.4byte	.LVL626
 13342 1efd 0300     		.2byte	0x3
 13343 1eff 74       		.byte	0x74
 13344 1f00 1C       		.sleb128 28
 13345 1f01 9F       		.byte	0x9f
 13346 1f02 00000000 		.4byte	0
 13347 1f06 00000000 		.4byte	0
 13348              	.LLST205:
 13349 1f0a 4A010000 		.4byte	.LVL623
 13350 1f0e 6A010000 		.4byte	.LVL626
 13351 1f12 0200     		.2byte	0x2
 13352 1f14 48       		.byte	0x48
 13353 1f15 9F       		.byte	0x9f
 13354 1f16 00000000 		.4byte	0
 13355 1f1a 00000000 		.4byte	0
 13356              	.LLST206:
 13357 1f1e 4A010000 		.4byte	.LVL623
 13358 1f22 56010000 		.4byte	.LVL624
 13359 1f26 0100     		.2byte	0x1
 13360 1f28 56       		.byte	0x56
 13361 1f29 60010000 		.4byte	.LVL625
 13362 1f2d 6A010000 		.4byte	.LVL626
ARM GAS  C:\Users\rdn\AppData\Local\Temp\ccFEeGTH.s 			page 264


 13363 1f31 0100     		.2byte	0x1
 13364 1f33 56       		.byte	0x56
 13365 1f34 00000000 		.4byte	0
 13366 1f38 00000000 		.4byte	0
 13367              	.LLST207:
 13368 1f3c 4A010000 		.4byte	.LVL623
 13369 1f40 6A010000 		.4byte	.LVL626
 13370 1f44 0100     		.2byte	0x1
 13371 1f46 54       		.byte	0x54
 13372 1f47 00000000 		.4byte	0
 13373 1f4b 00000000 		.4byte	0
 13374              	.LLST208:
 13375 1f4f 4A010000 		.4byte	.LVL623
 13376 1f53 6A010000 		.4byte	.LVL626
 13377 1f57 0300     		.2byte	0x3
 13378 1f59 74       		.byte	0x74
 13379 1f5a 1C       		.sleb128 28
 13380 1f5b 9F       		.byte	0x9f
 13381 1f5c 00000000 		.4byte	0
 13382 1f60 00000000 		.4byte	0
 13383              	.LLST209:
 13384 1f64 00000000 		.4byte	.LVL629
 13385 1f68 16000000 		.4byte	.LVL632
 13386 1f6c 0100     		.2byte	0x1
 13387 1f6e 50       		.byte	0x50
 13388 1f6f 16000000 		.4byte	.LVL632
 13389 1f73 1C000000 		.4byte	.LVL634
 13390 1f77 0100     		.2byte	0x1
 13391 1f79 54       		.byte	0x54
 13392 1f7a 1C000000 		.4byte	.LVL634
 13393 1f7e 21000000 		.4byte	.LVL636-1
 13394 1f82 0100     		.2byte	0x1
 13395 1f84 50       		.byte	0x50
 13396 1f85 21000000 		.4byte	.LVL636-1
 13397 1f89 DE000000 		.4byte	.LVL660
 13398 1f8d 0100     		.2byte	0x1
 13399 1f8f 54       		.byte	0x54
 13400 1f90 DE000000 		.4byte	.LVL660
 13401 1f94 A0010000 		.4byte	.LFE37
 13402 1f98 0400     		.2byte	0x4
 13403 1f9a F3       		.byte	0xf3
 13404 1f9b 01       		.uleb128 0x1
 13405 1f9c 50       		.byte	0x50
 13406 1f9d 9F       		.byte	0x9f
 13407 1f9e 00000000 		.4byte	0
 13408 1fa2 00000000 		.4byte	0
 13409              	.LLST210:
 13410 1fa6 00000000 		.4byte	.LVL629
 13411 1faa 10000000 		.4byte	.LVL631
 13412 1fae 0100     		.2byte	0x1
 13413 1fb0 51       		.byte	0x51
 13414 1fb1 10000000 		.4byte	.LVL631
 13415 1fb5 1C000000 		.4byte	.LVL634
 13416 1fb9 0100     		.2byte	0x1
 13417 1fbb 55       		.byte	0x55
 13418 1fbc 1C000000 		.4byte	.LVL634
 13419 1fc0 1E000000 		.4byte	.LVL635
ARM GAS  C:\Users\rdn\AppData\Local\Temp\ccFEeGTH.s 			page 265


 13420 1fc4 0100     		.2byte	0x1
 13421 1fc6 51       		.byte	0x51
 13422 1fc7 1E000000 		.4byte	.LVL635
 13423 1fcb 88010000 		.4byte	.LVL681
 13424 1fcf 0100     		.2byte	0x1
 13425 1fd1 55       		.byte	0x55
 13426 1fd2 88010000 		.4byte	.LVL681
 13427 1fd6 A0010000 		.4byte	.LFE37
 13428 1fda 0400     		.2byte	0x4
 13429 1fdc F3       		.byte	0xf3
 13430 1fdd 01       		.uleb128 0x1
 13431 1fde 51       		.byte	0x51
 13432 1fdf 9F       		.byte	0x9f
 13433 1fe0 00000000 		.4byte	0
 13434 1fe4 00000000 		.4byte	0
 13435              	.LLST211:
 13436 1fe8 DE000000 		.4byte	.LVL660
 13437 1fec ED000000 		.4byte	.LVL662-1
 13438 1ff0 0100     		.2byte	0x1
 13439 1ff2 50       		.byte	0x50
 13440 1ff3 ED000000 		.4byte	.LVL662-1
 13441 1ff7 FA000000 		.4byte	.LVL664
 13442 1ffb 0100     		.2byte	0x1
 13443 1ffd 54       		.byte	0x54
 13444 1ffe FA000000 		.4byte	.LVL664
 13445 2002 FC000000 		.4byte	.LVL665
 13446 2006 0100     		.2byte	0x1
 13447 2008 50       		.byte	0x50
 13448 2009 FC000000 		.4byte	.LVL665
 13449 200d 0C010000 		.4byte	.LVL666
 13450 2011 0100     		.2byte	0x1
 13451 2013 53       		.byte	0x53
 13452 2014 0C010000 		.4byte	.LVL666
 13453 2018 18010000 		.4byte	.LVL667
 13454 201c 0300     		.2byte	0x3
 13455 201e 73       		.byte	0x73
 13456 201f 02       		.sleb128 2
 13457 2020 9F       		.byte	0x9f
 13458 2021 26010000 		.4byte	.LVL668
 13459 2025 30010000 		.4byte	.LVL669
 13460 2029 0100     		.2byte	0x1
 13461 202b 53       		.byte	0x53
 13462 202c 3C010000 		.4byte	.LVL670
 13463 2030 58010000 		.4byte	.LVL671
 13464 2034 0100     		.2byte	0x1
 13465 2036 50       		.byte	0x50
 13466 2037 58010000 		.4byte	.LVL671
 13467 203b 5A010000 		.4byte	.LVL672
 13468 203f 0100     		.2byte	0x1
 13469 2041 54       		.byte	0x54
 13470 2042 5A010000 		.4byte	.LVL672
 13471 2046 60010000 		.4byte	.LVL673
 13472 204a 0100     		.2byte	0x1
 13473 204c 50       		.byte	0x50
 13474 204d 60010000 		.4byte	.LVL673
 13475 2051 70010000 		.4byte	.LVL674
 13476 2055 0100     		.2byte	0x1
ARM GAS  C:\Users\rdn\AppData\Local\Temp\ccFEeGTH.s 			page 266


 13477 2057 54       		.byte	0x54
 13478 2058 70010000 		.4byte	.LVL674
 13479 205c 72010000 		.4byte	.LVL675
 13480 2060 0600     		.2byte	0x6
 13481 2062 70       		.byte	0x70
 13482 2063 00       		.sleb128 0
 13483 2064 7C       		.byte	0x7c
 13484 2065 00       		.sleb128 0
 13485 2066 22       		.byte	0x22
 13486 2067 9F       		.byte	0x9f
 13487 2068 7E010000 		.4byte	.LVL676
 13488 206c 80010000 		.4byte	.LVL677
 13489 2070 0100     		.2byte	0x1
 13490 2072 50       		.byte	0x50
 13491 2073 80010000 		.4byte	.LVL677
 13492 2077 84010000 		.4byte	.LVL678
 13493 207b 0100     		.2byte	0x1
 13494 207d 54       		.byte	0x54
 13495 207e 84010000 		.4byte	.LVL678
 13496 2082 86010000 		.4byte	.LVL679
 13497 2086 0100     		.2byte	0x1
 13498 2088 50       		.byte	0x50
 13499 2089 86010000 		.4byte	.LVL679
 13500 208d 88010000 		.4byte	.LVL680
 13501 2091 0100     		.2byte	0x1
 13502 2093 54       		.byte	0x54
 13503 2094 00000000 		.4byte	0
 13504 2098 00000000 		.4byte	0
 13505              	.LLST212:
 13506 209c 06000000 		.4byte	.LVL630
 13507 20a0 22000000 		.4byte	.LVL636
 13508 20a4 0200     		.2byte	0x2
 13509 20a6 35       		.byte	0x35
 13510 20a7 9F       		.byte	0x9f
 13511 20a8 00000000 		.4byte	0
 13512 20ac 00000000 		.4byte	0
 13513              	.LLST213:
 13514 20b0 06000000 		.4byte	.LVL630
 13515 20b4 16000000 		.4byte	.LVL632
 13516 20b8 0100     		.2byte	0x1
 13517 20ba 50       		.byte	0x50
 13518 20bb 16000000 		.4byte	.LVL632
 13519 20bf 1C000000 		.4byte	.LVL634
 13520 20c3 0100     		.2byte	0x1
 13521 20c5 54       		.byte	0x54
 13522 20c6 1C000000 		.4byte	.LVL634
 13523 20ca 21000000 		.4byte	.LVL636-1
 13524 20ce 0100     		.2byte	0x1
 13525 20d0 50       		.byte	0x50
 13526 20d1 21000000 		.4byte	.LVL636-1
 13527 20d5 22000000 		.4byte	.LVL636
 13528 20d9 0100     		.2byte	0x1
 13529 20db 54       		.byte	0x54
 13530 20dc 00000000 		.4byte	0
 13531 20e0 00000000 		.4byte	0
 13532              	.LLST214:
 13533 20e4 06000000 		.4byte	.LVL630
ARM GAS  C:\Users\rdn\AppData\Local\Temp\ccFEeGTH.s 			page 267


 13534 20e8 16000000 		.4byte	.LVL632
 13535 20ec 0300     		.2byte	0x3
 13536 20ee 70       		.byte	0x70
 13537 20ef 1C       		.sleb128 28
 13538 20f0 9F       		.byte	0x9f
 13539 20f1 16000000 		.4byte	.LVL632
 13540 20f5 1C000000 		.4byte	.LVL634
 13541 20f9 0300     		.2byte	0x3
 13542 20fb 74       		.byte	0x74
 13543 20fc 1C       		.sleb128 28
 13544 20fd 9F       		.byte	0x9f
 13545 20fe 1C000000 		.4byte	.LVL634
 13546 2102 21000000 		.4byte	.LVL636-1
 13547 2106 0300     		.2byte	0x3
 13548 2108 70       		.byte	0x70
 13549 2109 1C       		.sleb128 28
 13550 210a 9F       		.byte	0x9f
 13551 210b 21000000 		.4byte	.LVL636-1
 13552 210f DE000000 		.4byte	.LVL660
 13553 2113 0300     		.2byte	0x3
 13554 2115 74       		.byte	0x74
 13555 2116 1C       		.sleb128 28
 13556 2117 9F       		.byte	0x9f
 13557 2118 DE000000 		.4byte	.LVL660
 13558 211c A0010000 		.4byte	.LFE37
 13559 2120 0600     		.2byte	0x6
 13560 2122 F3       		.byte	0xf3
 13561 2123 01       		.uleb128 0x1
 13562 2124 50       		.byte	0x50
 13563 2125 23       		.byte	0x23
 13564 2126 1C       		.uleb128 0x1c
 13565 2127 9F       		.byte	0x9f
 13566 2128 00000000 		.4byte	0
 13567 212c 00000000 		.4byte	0
 13568              	.LLST215:
 13569 2130 18000000 		.4byte	.LVL633
 13570 2134 1C000000 		.4byte	.LVL634
 13571 2138 0100     		.2byte	0x1
 13572 213a 50       		.byte	0x50
 13573 213b 00000000 		.4byte	0
 13574 213f 00000000 		.4byte	0
 13575              	.LLST216:
 13576 2143 24000000 		.4byte	.LVL637
 13577 2147 42000000 		.4byte	.LVL641
 13578 214b 0200     		.2byte	0x2
 13579 214d 35       		.byte	0x35
 13580 214e 9F       		.byte	0x9f
 13581 214f 00000000 		.4byte	0
 13582 2153 00000000 		.4byte	0
 13583              	.LLST217:
 13584 2157 24000000 		.4byte	.LVL637
 13585 215b 42000000 		.4byte	.LVL641
 13586 215f 0100     		.2byte	0x1
 13587 2161 54       		.byte	0x54
 13588 2162 00000000 		.4byte	0
 13589 2166 00000000 		.4byte	0
 13590              	.LLST218:
ARM GAS  C:\Users\rdn\AppData\Local\Temp\ccFEeGTH.s 			page 268


 13591 216a 24000000 		.4byte	.LVL637
 13592 216e DE000000 		.4byte	.LVL660
 13593 2172 0300     		.2byte	0x3
 13594 2174 74       		.byte	0x74
 13595 2175 1C       		.sleb128 28
 13596 2176 9F       		.byte	0x9f
 13597 2177 DE000000 		.4byte	.LVL660
 13598 217b A0010000 		.4byte	.LFE37
 13599 217f 0600     		.2byte	0x6
 13600 2181 F3       		.byte	0xf3
 13601 2182 01       		.uleb128 0x1
 13602 2183 50       		.byte	0x50
 13603 2184 23       		.byte	0x23
 13604 2185 1C       		.uleb128 0x1c
 13605 2186 9F       		.byte	0x9f
 13606 2187 00000000 		.4byte	0
 13607 218b 00000000 		.4byte	0
 13608              	.LLST219:
 13609 218f 34000000 		.4byte	.LVL638
 13610 2193 38000000 		.4byte	.LVL639
 13611 2197 0100     		.2byte	0x1
 13612 2199 57       		.byte	0x57
 13613 219a 00000000 		.4byte	0
 13614 219e 00000000 		.4byte	0
 13615              	.LLST220:
 13616 21a2 50000000 		.4byte	.LVL643
 13617 21a6 72000000 		.4byte	.LVL647
 13618 21aa 0100     		.2byte	0x1
 13619 21ac 54       		.byte	0x54
 13620 21ad 00000000 		.4byte	0
 13621 21b1 00000000 		.4byte	0
 13622              	.LLST221:
 13623 21b5 50000000 		.4byte	.LVL643
 13624 21b9 70000000 		.4byte	.LVL646
 13625 21bd 0200     		.2byte	0x2
 13626 21bf 31       		.byte	0x31
 13627 21c0 9F       		.byte	0x9f
 13628 21c1 00000000 		.4byte	0
 13629 21c5 00000000 		.4byte	0
 13630              	.LLST222:
 13631 21c9 50000000 		.4byte	.LVL643
 13632 21cd 70000000 		.4byte	.LVL646
 13633 21d1 0100     		.2byte	0x1
 13634 21d3 54       		.byte	0x54
 13635 21d4 00000000 		.4byte	0
 13636 21d8 00000000 		.4byte	0
 13637              	.LLST223:
 13638 21dc 50000000 		.4byte	.LVL643
 13639 21e0 DE000000 		.4byte	.LVL660
 13640 21e4 0300     		.2byte	0x3
 13641 21e6 74       		.byte	0x74
 13642 21e7 1C       		.sleb128 28
 13643 21e8 9F       		.byte	0x9f
 13644 21e9 DE000000 		.4byte	.LVL660
 13645 21ed A0010000 		.4byte	.LFE37
 13646 21f1 0600     		.2byte	0x6
 13647 21f3 F3       		.byte	0xf3
ARM GAS  C:\Users\rdn\AppData\Local\Temp\ccFEeGTH.s 			page 269


 13648 21f4 01       		.uleb128 0x1
 13649 21f5 50       		.byte	0x50
 13650 21f6 23       		.byte	0x23
 13651 21f7 1C       		.uleb128 0x1c
 13652 21f8 9F       		.byte	0x9f
 13653 21f9 00000000 		.4byte	0
 13654 21fd 00000000 		.4byte	0
 13655              	.LLST224:
 13656 2201 64000000 		.4byte	.LVL644
 13657 2205 68000000 		.4byte	.LVL645
 13658 2209 0100     		.2byte	0x1
 13659 220b 50       		.byte	0x50
 13660 220c 00000000 		.4byte	0
 13661 2210 00000000 		.4byte	0
 13662              	.LLST225:
 13663 2214 74000000 		.4byte	.LVL648
 13664 2218 93000000 		.4byte	.LVL651-1
 13665 221c 0100     		.2byte	0x1
 13666 221e 51       		.byte	0x51
 13667 221f 93000000 		.4byte	.LVL651-1
 13668 2223 94000000 		.4byte	.LVL651
 13669 2227 0300     		.2byte	0x3
 13670 2229 76       		.byte	0x76
 13671 222a 01       		.sleb128 1
 13672 222b 9F       		.byte	0x9f
 13673 222c 00000000 		.4byte	0
 13674 2230 00000000 		.4byte	0
 13675              	.LLST226:
 13676 2234 74000000 		.4byte	.LVL648
 13677 2238 94000000 		.4byte	.LVL651
 13678 223c 0100     		.2byte	0x1
 13679 223e 54       		.byte	0x54
 13680 223f 00000000 		.4byte	0
 13681 2243 00000000 		.4byte	0
 13682              	.LLST227:
 13683 2247 74000000 		.4byte	.LVL648
 13684 224b DE000000 		.4byte	.LVL660
 13685 224f 0300     		.2byte	0x3
 13686 2251 74       		.byte	0x74
 13687 2252 1C       		.sleb128 28
 13688 2253 9F       		.byte	0x9f
 13689 2254 DE000000 		.4byte	.LVL660
 13690 2258 A0010000 		.4byte	.LFE37
 13691 225c 0600     		.2byte	0x6
 13692 225e F3       		.byte	0xf3
 13693 225f 01       		.uleb128 0x1
 13694 2260 50       		.byte	0x50
 13695 2261 23       		.byte	0x23
 13696 2262 1C       		.uleb128 0x1c
 13697 2263 9F       		.byte	0x9f
 13698 2264 00000000 		.4byte	0
 13699 2268 00000000 		.4byte	0
 13700              	.LLST228:
 13701 226c 8A000000 		.4byte	.LVL649
 13702 2270 8E000000 		.4byte	.LVL650
 13703 2274 0100     		.2byte	0x1
 13704 2276 50       		.byte	0x50
ARM GAS  C:\Users\rdn\AppData\Local\Temp\ccFEeGTH.s 			page 270


 13705 2277 00000000 		.4byte	0
 13706 227b 00000000 		.4byte	0
 13707              	.LLST229:
 13708 227f 96000000 		.4byte	.LVL652
 13709 2283 B2000000 		.4byte	.LVL655
 13710 2287 0100     		.2byte	0x1
 13711 2289 54       		.byte	0x54
 13712 228a 00000000 		.4byte	0
 13713 228e 00000000 		.4byte	0
 13714              	.LLST230:
 13715 2292 96000000 		.4byte	.LVL652
 13716 2296 B2000000 		.4byte	.LVL655
 13717 229a 0200     		.2byte	0x2
 13718 229c 31       		.byte	0x31
 13719 229d 9F       		.byte	0x9f
 13720 229e 00000000 		.4byte	0
 13721 22a2 00000000 		.4byte	0
 13722              	.LLST232:
 13723 22a6 96000000 		.4byte	.LVL652
 13724 22aa DE000000 		.4byte	.LVL660
 13725 22ae 0300     		.2byte	0x3
 13726 22b0 74       		.byte	0x74
 13727 22b1 1C       		.sleb128 28
 13728 22b2 9F       		.byte	0x9f
 13729 22b3 DE000000 		.4byte	.LVL660
 13730 22b7 A0010000 		.4byte	.LFE37
 13731 22bb 0600     		.2byte	0x6
 13732 22bd F3       		.byte	0xf3
 13733 22be 01       		.uleb128 0x1
 13734 22bf 50       		.byte	0x50
 13735 22c0 23       		.byte	0x23
 13736 22c1 1C       		.uleb128 0x1c
 13737 22c2 9F       		.byte	0x9f
 13738 22c3 00000000 		.4byte	0
 13739 22c7 00000000 		.4byte	0
 13740              	.LLST233:
 13741 22cb A6000000 		.4byte	.LVL653
 13742 22cf AA000000 		.4byte	.LVL654
 13743 22d3 0100     		.2byte	0x1
 13744 22d5 50       		.byte	0x50
 13745 22d6 00000000 		.4byte	0
 13746 22da 00000000 		.4byte	0
 13747              	.LLST234:
 13748 22de BC000000 		.4byte	.LVL656
 13749 22e2 DB000000 		.4byte	.LVL659-1
 13750 22e6 0100     		.2byte	0x1
 13751 22e8 51       		.byte	0x51
 13752 22e9 DB000000 		.4byte	.LVL659-1
 13753 22ed DC000000 		.4byte	.LVL659
 13754 22f1 0500     		.2byte	0x5
 13755 22f3 49       		.byte	0x49
 13756 22f4 76       		.byte	0x76
 13757 22f5 00       		.sleb128 0
 13758 22f6 1C       		.byte	0x1c
 13759 22f7 9F       		.byte	0x9f
 13760 22f8 00000000 		.4byte	0
 13761 22fc 00000000 		.4byte	0
ARM GAS  C:\Users\rdn\AppData\Local\Temp\ccFEeGTH.s 			page 271


 13762              	.LLST235:
 13763 2300 BC000000 		.4byte	.LVL656
 13764 2304 DC000000 		.4byte	.LVL659
 13765 2308 0100     		.2byte	0x1
 13766 230a 54       		.byte	0x54
 13767 230b 00000000 		.4byte	0
 13768 230f 00000000 		.4byte	0
 13769              	.LLST236:
 13770 2313 BC000000 		.4byte	.LVL656
 13771 2317 DE000000 		.4byte	.LVL660
 13772 231b 0300     		.2byte	0x3
 13773 231d 74       		.byte	0x74
 13774 231e 1C       		.sleb128 28
 13775 231f 9F       		.byte	0x9f
 13776 2320 DE000000 		.4byte	.LVL660
 13777 2324 A0010000 		.4byte	.LFE37
 13778 2328 0600     		.2byte	0x6
 13779 232a F3       		.byte	0xf3
 13780 232b 01       		.uleb128 0x1
 13781 232c 50       		.byte	0x50
 13782 232d 23       		.byte	0x23
 13783 232e 1C       		.uleb128 0x1c
 13784 232f 9F       		.byte	0x9f
 13785 2330 00000000 		.4byte	0
 13786 2334 00000000 		.4byte	0
 13787              	.LLST237:
 13788 2338 D2000000 		.4byte	.LVL657
 13789 233c D6000000 		.4byte	.LVL658
 13790 2340 0100     		.2byte	0x1
 13791 2342 50       		.byte	0x50
 13792 2343 00000000 		.4byte	0
 13793 2347 00000000 		.4byte	0
 13794              	.LLST238:
 13795 234b E2000000 		.4byte	.LVL661
 13796 234f 3C010000 		.4byte	.LVL670
 13797 2353 0600     		.2byte	0x6
 13798 2355 0C       		.byte	0xc
 13799 2356 F4772400 		.4byte	0x2477f4
 13800 235a 9F       		.byte	0x9f
 13801 235b 7E010000 		.4byte	.LVL676
 13802 235f 84010000 		.4byte	.LVL678
 13803 2363 0600     		.2byte	0x6
 13804 2365 0C       		.byte	0xc
 13805 2366 F4772400 		.4byte	0x2477f4
 13806 236a 9F       		.byte	0x9f
 13807 236b 00000000 		.4byte	0
 13808 236f 00000000 		.4byte	0
 13809              	.LLST239:
 13810 2373 3C010000 		.4byte	.LVL670
 13811 2377 7E010000 		.4byte	.LVL676
 13812 237b 0600     		.2byte	0x6
 13813 237d 0C       		.byte	0xc
 13814 237e 004CE700 		.4byte	0xe74c00
 13815 2382 9F       		.byte	0x9f
 13816 2383 84010000 		.4byte	.LVL678
 13817 2387 88010000 		.4byte	.LVL680
 13818 238b 0600     		.2byte	0x6
ARM GAS  C:\Users\rdn\AppData\Local\Temp\ccFEeGTH.s 			page 272


 13819 238d 0C       		.byte	0xc
 13820 238e 004CE700 		.4byte	0xe74c00
 13821 2392 9F       		.byte	0x9f
 13822 2393 00000000 		.4byte	0
 13823 2397 00000000 		.4byte	0
 13824              		.section	.debug_aranges,"",%progbits
 13825 0000 A4000000 		.4byte	0xa4
 13826 0004 0200     		.2byte	0x2
 13827 0006 00000000 		.4byte	.Ldebug_info0
 13828 000a 04       		.byte	0x4
 13829 000b 00       		.byte	0
 13830 000c 0000     		.2byte	0
 13831 000e 0000     		.2byte	0
 13832 0010 00000000 		.4byte	.LFB20
 13833 0014 4C000000 		.4byte	.LFE20-.LFB20
 13834 0018 00000000 		.4byte	.LFB21
 13835 001c 4C000000 		.4byte	.LFE21-.LFB21
 13836 0020 00000000 		.4byte	.LFB23
 13837 0024 D8000000 		.4byte	.LFE23-.LFB23
 13838 0028 00000000 		.4byte	.LFB25
 13839 002c 04010000 		.4byte	.LFE25-.LFB25
 13840 0030 00000000 		.4byte	.LFB27
 13841 0034 9C000000 		.4byte	.LFE27-.LFB27
 13842 0038 00000000 		.4byte	.LFB28
 13843 003c 84000000 		.4byte	.LFE28-.LFB28
 13844 0040 00000000 		.4byte	.LFB29
 13845 0044 80000000 		.4byte	.LFE29-.LFB29
 13846 0048 00000000 		.4byte	.LFB30
 13847 004c 2A000000 		.4byte	.LFE30-.LFB30
 13848 0050 00000000 		.4byte	.LFB22
 13849 0054 AC050000 		.4byte	.LFE22-.LFB22
 13850 0058 00000000 		.4byte	.LFB24
 13851 005c 52000000 		.4byte	.LFE24-.LFB24
 13852 0060 00000000 		.4byte	.LFB26
 13853 0064 00030000 		.4byte	.LFE26-.LFB26
 13854 0068 00000000 		.4byte	.LFB32
 13855 006c EC020000 		.4byte	.LFE32-.LFB32
 13856 0070 00000000 		.4byte	.LFB31
 13857 0074 74000000 		.4byte	.LFE31-.LFB31
 13858 0078 00000000 		.4byte	.LFB33
 13859 007c 98000000 		.4byte	.LFE33-.LFB33
 13860 0080 00000000 		.4byte	.LFB34
 13861 0084 52000000 		.4byte	.LFE34-.LFB34
 13862 0088 00000000 		.4byte	.LFB35
 13863 008c 04000000 		.4byte	.LFE35-.LFB35
 13864 0090 00000000 		.4byte	.LFB36
 13865 0094 74010000 		.4byte	.LFE36-.LFB36
 13866 0098 00000000 		.4byte	.LFB37
 13867 009c A0010000 		.4byte	.LFE37-.LFB37
 13868 00a0 00000000 		.4byte	0
 13869 00a4 00000000 		.4byte	0
 13870              		.section	.debug_ranges,"",%progbits
 13871              	.Ldebug_ranges0:
 13872 0000 14000000 		.4byte	.LBB53
 13873 0004 16000000 		.4byte	.LBE53
 13874 0008 24000000 		.4byte	.LBB57
 13875 000c C2000000 		.4byte	.LBE57
ARM GAS  C:\Users\rdn\AppData\Local\Temp\ccFEeGTH.s 			page 273


 13876 0010 00000000 		.4byte	0
 13877 0014 00000000 		.4byte	0
 13878 0018 34000000 		.4byte	.LBB55
 13879 001c 36000000 		.4byte	.LBE55
 13880 0020 3C000000 		.4byte	.LBB56
 13881 0024 7E000000 		.4byte	.LBE56
 13882 0028 00000000 		.4byte	0
 13883 002c 00000000 		.4byte	0
 13884 0030 58000000 		.4byte	.LBB60
 13885 0034 5A000000 		.4byte	.LBE60
 13886 0038 60000000 		.4byte	.LBB62
 13887 003c BA000000 		.4byte	.LBE62
 13888 0040 00000000 		.4byte	0
 13889 0044 00000000 		.4byte	0
 13890 0048 0A000000 		.4byte	.LBB65
 13891 004c 0E000000 		.4byte	.LBE65
 13892 0050 10000000 		.4byte	.LBB66
 13893 0054 44000000 		.4byte	.LBE66
 13894 0058 46000000 		.4byte	.LBB67
 13895 005c 4A000000 		.4byte	.LBE67
 13896 0060 00000000 		.4byte	0
 13897 0064 00000000 		.4byte	0
 13898 0068 C2000000 		.4byte	.LBB70
 13899 006c C4000000 		.4byte	.LBE70
 13900 0070 CC000000 		.4byte	.LBB71
 13901 0074 C0010000 		.4byte	.LBE71
 13902 0078 00000000 		.4byte	0
 13903 007c 00000000 		.4byte	0
 13904 0080 08000000 		.4byte	.LBB81
 13905 0084 0A000000 		.4byte	.LBE81
 13906 0088 0C000000 		.4byte	.LBB82
 13907 008c 1C000000 		.4byte	.LBE82
 13908 0090 00000000 		.4byte	0
 13909 0094 00000000 		.4byte	0
 13910 0098 62000000 		.4byte	.LBB85
 13911 009c 64000000 		.4byte	.LBE85
 13912 00a0 66000000 		.4byte	.LBB86
 13913 00a4 80000000 		.4byte	.LBE86
 13914 00a8 00000000 		.4byte	0
 13915 00ac 00000000 		.4byte	0
 13916 00b0 96000000 		.4byte	.LBB87
 13917 00b4 98000000 		.4byte	.LBE87
 13918 00b8 9C000000 		.4byte	.LBB88
 13919 00bc F0000000 		.4byte	.LBE88
 13920 00c0 00000000 		.4byte	0
 13921 00c4 00000000 		.4byte	0
 13922 00c8 46010000 		.4byte	.LBB89
 13923 00cc 48010000 		.4byte	.LBE89
 13924 00d0 4A010000 		.4byte	.LBB90
 13925 00d4 8E010000 		.4byte	.LBE90
 13926 00d8 00000000 		.4byte	0
 13927 00dc 00000000 		.4byte	0
 13928 00e0 CC010000 		.4byte	.LBB92
 13929 00e4 F6010000 		.4byte	.LBE92
 13930 00e8 F8010000 		.4byte	.LBB93
 13931 00ec FC010000 		.4byte	.LBE93
 13932 00f0 00000000 		.4byte	0
ARM GAS  C:\Users\rdn\AppData\Local\Temp\ccFEeGTH.s 			page 274


 13933 00f4 00000000 		.4byte	0
 13934 00f8 22020000 		.4byte	.LBB95
 13935 00fc 24020000 		.4byte	.LBE95
 13936 0100 2C020000 		.4byte	.LBB102
 13937 0104 DE020000 		.4byte	.LBE102
 13938 0108 00000000 		.4byte	0
 13939 010c 00000000 		.4byte	0
 13940 0110 38020000 		.4byte	.LBB97
 13941 0114 3C020000 		.4byte	.LBE97
 13942 0118 48020000 		.4byte	.LBB101
 13943 011c B6020000 		.4byte	.LBE101
 13944 0120 00000000 		.4byte	0
 13945 0124 00000000 		.4byte	0
 13946 0128 56020000 		.4byte	.LBB99
 13947 012c 58020000 		.4byte	.LBE99
 13948 0130 5E020000 		.4byte	.LBB100
 13949 0134 92020000 		.4byte	.LBE100
 13950 0138 00000000 		.4byte	0
 13951 013c 00000000 		.4byte	0
 13952 0140 E2000000 		.4byte	.LBB207
 13953 0144 38010000 		.4byte	.LBE207
 13954 0148 7E010000 		.4byte	.LBB210
 13955 014c 84010000 		.4byte	.LBE210
 13956 0150 00000000 		.4byte	0
 13957 0154 00000000 		.4byte	0
 13958 0158 3C010000 		.4byte	.LBB208
 13959 015c 56010000 		.4byte	.LBE208
 13960 0160 58010000 		.4byte	.LBB209
 13961 0164 7A010000 		.4byte	.LBE209
 13962 0168 84010000 		.4byte	.LBB211
 13963 016c 88010000 		.4byte	.LBE211
 13964 0170 00000000 		.4byte	0
 13965 0174 00000000 		.4byte	0
 13966 0178 00000000 		.4byte	.LFB20
 13967 017c 4C000000 		.4byte	.LFE20
 13968 0180 00000000 		.4byte	.LFB21
 13969 0184 4C000000 		.4byte	.LFE21
 13970 0188 00000000 		.4byte	.LFB23
 13971 018c D8000000 		.4byte	.LFE23
 13972 0190 00000000 		.4byte	.LFB25
 13973 0194 04010000 		.4byte	.LFE25
 13974 0198 00000000 		.4byte	.LFB27
 13975 019c 9C000000 		.4byte	.LFE27
 13976 01a0 00000000 		.4byte	.LFB28
 13977 01a4 84000000 		.4byte	.LFE28
 13978 01a8 00000000 		.4byte	.LFB29
 13979 01ac 80000000 		.4byte	.LFE29
 13980 01b0 00000000 		.4byte	.LFB30
 13981 01b4 2A000000 		.4byte	.LFE30
 13982 01b8 00000000 		.4byte	.LFB22
 13983 01bc AC050000 		.4byte	.LFE22
 13984 01c0 00000000 		.4byte	.LFB24
 13985 01c4 52000000 		.4byte	.LFE24
 13986 01c8 00000000 		.4byte	.LFB26
 13987 01cc 00030000 		.4byte	.LFE26
 13988 01d0 00000000 		.4byte	.LFB32
 13989 01d4 EC020000 		.4byte	.LFE32
ARM GAS  C:\Users\rdn\AppData\Local\Temp\ccFEeGTH.s 			page 275


 13990 01d8 00000000 		.4byte	.LFB31
 13991 01dc 74000000 		.4byte	.LFE31
 13992 01e0 00000000 		.4byte	.LFB33
 13993 01e4 98000000 		.4byte	.LFE33
 13994 01e8 00000000 		.4byte	.LFB34
 13995 01ec 52000000 		.4byte	.LFE34
 13996 01f0 00000000 		.4byte	.LFB35
 13997 01f4 04000000 		.4byte	.LFE35
 13998 01f8 00000000 		.4byte	.LFB36
 13999 01fc 74010000 		.4byte	.LFE36
 14000 0200 00000000 		.4byte	.LFB37
 14001 0204 A0010000 		.4byte	.LFE37
 14002 0208 00000000 		.4byte	0
 14003 020c 00000000 		.4byte	0
 14004              		.section	.debug_line,"",%progbits
 14005              	.Ldebug_line0:
 14006 0000 48090000 		.section	.debug_str,"MS",%progbits,1
 14006      02000602 
 14006      00000201 
 14006      FB0E0D00 
 14006      01010101 
 14007              	.LASF122:
 14008 0000 6E70756C 		.ascii	"npulses_a\000"
 14008      7365735F 
 14008      6100
 14009              	.LASF25:
 14010 000a 4C43335F 		.ascii	"LC3_SRATE_24K\000"
 14010      53524154 
 14010      455F3234 
 14010      4B00
 14011              	.LASF77:
 14012 0018 68666362 		.ascii	"hfcb_idx\000"
 14012      5F696478 
 14012      00
 14013              	.LASF47:
 14014 0021 6C63335F 		.ascii	"lc3_bits_buffer\000"
 14014      62697473 
 14014      5F627566 
 14014      66657200 
 14015              	.LASF54:
 14016 0031 62756666 		.ascii	"buffer\000"
 14016      657200
 14017              	.LASF137:
 14018 0038 6C63335F 		.ascii	"lc3_ne_2m5\000"
 14018      6E655F32 
 14018      6D3500
 14019              	.LASF12:
 14020 0043 756E7369 		.ascii	"unsigned int\000"
 14020      676E6564 
 14020      20696E74 
 14020      00
 14021              	.LASF27:
 14022 0050 4C43335F 		.ascii	"LC3_SRATE_48K\000"
 14022      53524154 
 14022      455F3438 
 14022      4B00
 14023              	.LASF75:
ARM GAS  C:\Users\rdn\AppData\Local\Temp\ccFEeGTH.s 			page 276


 14024 005e 7265736F 		.ascii	"resolve_codebooks\000"
 14024      6C76655F 
 14024      636F6465 
 14024      626F6F6B 
 14024      7300
 14025              	.LASF66:
 14026 0070 6C63335F 		.ascii	"lc3_sns_vq_gains\000"
 14026      736E735F 
 14026      76715F67 
 14026      61696E73 
 14026      00
 14027              	.LASF45:
 14028 0081 63617272 		.ascii	"carry_count\000"
 14028      795F636F 
 14028      756E7400 
 14029              	.LASF6:
 14030 008d 5F5F696E 		.ascii	"__int32_t\000"
 14030      7433325F 
 14030      7400
 14031              	.LASF68:
 14032 0097 6C63335F 		.ascii	"lc3_frexpf\000"
 14032      66726578 
 14032      706600
 14033              	.LASF72:
 14034 00a2 6C63335F 		.ascii	"lc3_get_bits\000"
 14034      6765745F 
 14034      62697473 
 14034      00
 14035              	.LASF78:
 14036 00af 646C6663 		.ascii	"dlfcb_max\000"
 14036      625F6D61 
 14036      7800
 14037              	.LASF46:
 14038 00b9 6572726F 		.ascii	"error\000"
 14038      7200
 14039              	.LASF52:
 14040 00bf 6D6F6465 		.ascii	"mode\000"
 14040      00
 14041              	.LASF21:
 14042 00c4 6C63335F 		.ascii	"lc3_dt\000"
 14042      647400
 14043              	.LASF81:
 14044 00cb 64686663 		.ascii	"dhfcb\000"
 14044      6200
 14045              	.LASF28:
 14046 00d1 4C43335F 		.ascii	"LC3_SRATE_48K_HR\000"
 14046      53524154 
 14046      455F3438 
 14046      4B5F4852 
 14046      00
 14047              	.LASF157:
 14048 00e2 6C63335F 		.ascii	"lc3_sns_get_data\000"
 14048      736E735F 
 14048      6765745F 
 14048      64617461 
 14048      00
 14049              	.LASF138:
ARM GAS  C:\Users\rdn\AppData\Local\Temp\ccFEeGTH.s 			page 277


 14050 00f3 6C63335F 		.ascii	"lc3_ns_4m\000"
 14050      6E735F34 
 14050      6D00
 14051              	.LASF36:
 14052 00fd 6C63335F 		.ascii	"lc3_bits_mode\000"
 14052      62697473 
 14052      5F6D6F64 
 14052      6500
 14053              	.LASF129:
 14054 010b 73686170 		.ascii	"shape_msb\000"
 14054      655F6D73 
 14054      6200
 14055              	.LASF136:
 14056 0115 6C63335F 		.ascii	"lc3_ns_2m5\000"
 14056      6E735F32 
 14056      6D3500
 14057              	.LASF112:
 14058 0120 70726F6A 		.ascii	"proj_factor\000"
 14058      5F666163 
 14058      746F7200 
 14059              	.LASF154:
 14060 012c 2E2E5C2E 		.ascii	"..\\..\\..\\liblc3\\src\\sns.c\000"
 14060      2E5C2E2E 
 14060      5C6C6962 
 14060      6C63335C 
 14060      7372635C 
 14061              	.LASF17:
 14062 0146 4C43335F 		.ascii	"LC3_DT_5M\000"
 14062      44545F35 
 14062      4D00
 14063              	.LASF15:
 14064 0150 75696E74 		.ascii	"uint32_t\000"
 14064      33325F74 
 14064      00
 14065              	.LASF73:
 14066 0159 64637431 		.ascii	"dct16_forward\000"
 14066      365F666F 
 14066      72776172 
 14066      6400
 14067              	.LASF0:
 14068 0167 666C6F61 		.ascii	"float\000"
 14068      7400
 14069              	.LASF148:
 14070 016d 6D656D6D 		.ascii	"memmove\000"
 14070      6F766500 
 14071              	.LASF153:
 14072 0175 474E5520 		.ascii	"GNU C11 5.4.1 20160609 (release) [ARM/embedded-5-br"
 14072      43313120 
 14072      352E342E 
 14072      31203230 
 14072      31363036 
 14073 01a8 616E6368 		.ascii	"anch revision 237715] -mcpu=cortex-m0plus -mthumb -"
 14073      20726576 
 14073      6973696F 
 14073      6E203233 
 14073      37373135 
 14074 01db 67202D4F 		.ascii	"g -Og -ffunction-sections -ffat-lto-objects\000"
ARM GAS  C:\Users\rdn\AppData\Local\Temp\ccFEeGTH.s 			page 278


 14074      67202D66 
 14074      66756E63 
 14074      74696F6E 
 14074      2D736563 
 14075              	.LASF106:
 14076 0207 63325F73 		.ascii	"c2_sum\000"
 14076      756D00
 14077              	.LASF67:
 14078 020e 636F756E 		.ascii	"count\000"
 14078      7400
 14079              	.LASF44:
 14080 0214 63617272 		.ascii	"carry\000"
 14080      7900
 14081              	.LASF89:
 14082 021a 656E756D 		.ascii	"enum_mvpq\000"
 14082      5F6D7670 
 14082      7100
 14083              	.LASF11:
 14084 0224 6C6F6E67 		.ascii	"long long unsigned int\000"
 14084      206C6F6E 
 14084      6720756E 
 14084      7369676E 
 14084      65642069 
 14085              	.LASF147:
 14086 023b 666C6F6F 		.ascii	"floorf\000"
 14086      726600
 14087              	.LASF101:
 14088 0242 67655F74 		.ascii	"ge_table\000"
 14088      61626C65 
 14088      00
 14089              	.LASF116:
 14090 024b 63676169 		.ascii	"cgain_idx\000"
 14090      6E5F6964 
 14090      7800
 14091              	.LASF95:
 14092 0255 67655F31 		.ascii	"ge_14\000"
 14092      3400
 14093              	.LASF96:
 14094 025b 67655F31 		.ascii	"ge_18\000"
 14094      3800
 14095              	.LASF127:
 14096 0261 6C63335F 		.ascii	"lc3_put_bit\000"
 14096      7075745F 
 14096      62697400 
 14097              	.LASF118:
 14098 026d 73706563 		.ascii	"spectral_shaping\000"
 14098      7472616C 
 14098      5F736861 
 14098      70696E67 
 14098      00
 14099              	.LASF86:
 14100 027e 62657374 		.ascii	"best_e\000"
 14100      5F6500
 14101              	.LASF26:
 14102 0285 4C43335F 		.ascii	"LC3_SRATE_32K\000"
 14102      53524154 
 14102      455F3332 
ARM GAS  C:\Users\rdn\AppData\Local\Temp\ccFEeGTH.s 			page 279


 14102      4B00
 14103              	.LASF142:
 14104 0293 6C63335F 		.ascii	"lc3_sns_lfcb\000"
 14104      736E735F 
 14104      6C666362 
 14104      00
 14105              	.LASF20:
 14106 02a0 4C43335F 		.ascii	"LC3_NUM_DT\000"
 14106      4E554D5F 
 14106      445400
 14107              	.LASF130:
 14108 02ab 73697A65 		.ascii	"size_a\000"
 14108      5F6100
 14109              	.LASF83:
 14110 02b2 636F7272 		.ascii	"corr\000"
 14110      00
 14111              	.LASF126:
 14112 02b7 6C63335F 		.ascii	"lc3_put_bits\000"
 14112      7075745F 
 14112      62697473 
 14112      00
 14113              	.LASF85:
 14114 02c4 62657374 		.ascii	"best_c2\000"
 14114      5F633200 
 14115              	.LASF111:
 14116 02cc 786D5F73 		.ascii	"xm_sum\000"
 14116      756D00
 14117              	.LASF97:
 14118 02d3 67655F32 		.ascii	"ge_22\000"
 14118      3200
 14119              	.LASF152:
 14120 02d9 6C63335F 		.ascii	"lc3_get_bits_generic\000"
 14120      6765745F 
 14120      62697473 
 14120      5F67656E 
 14120      65726963 
 14121              	.LASF98:
 14122 02ee 67655F32 		.ascii	"ge_26\000"
 14122      3600
 14123              	.LASF31:
 14124 02f4 5F426F6F 		.ascii	"_Bool\000"
 14124      6C00
 14125              	.LASF82:
 14126 02fa 6164645F 		.ascii	"add_pulse\000"
 14126      70756C73 
 14126      6500
 14127              	.LASF141:
 14128 0304 6C63335F 		.ascii	"lc3_band_lim\000"
 14128      62616E64 
 14128      5F6C696D 
 14128      00
 14129              	.LASF55:
 14130 0311 6C63335F 		.ascii	"lc3_bits_t\000"
 14130      62697473 
 14130      5F7400
 14131              	.LASF132:
 14132 031c 6D75785F 		.ascii	"mux_high\000"
ARM GAS  C:\Users\rdn\AppData\Local\Temp\ccFEeGTH.s 			page 280


 14132      68696768 
 14132      00
 14133              	.LASF121:
 14134 0325 6465656E 		.ascii	"deenumerate\000"
 14134      756D6572 
 14134      61746500 
 14135              	.LASF124:
 14136 0331 6C63335F 		.ascii	"lc3_sns_analyze\000"
 14136      736E735F 
 14136      616E616C 
 14136      797A6500 
 14137              	.LASF99:
 14138 0341 67655F33 		.ascii	"ge_30\000"
 14138      3000
 14139              	.LASF19:
 14140 0347 4C43335F 		.ascii	"LC3_DT_10M\000"
 14140      44545F31 
 14140      304D00
 14141              	.LASF100:
 14142 0352 67655F33 		.ascii	"ge_34\000"
 14142      3400
 14143              	.LASF107:
 14144 0358 635F6E6F 		.ascii	"c_norm\000"
 14144      726D00
 14145              	.LASF70:
 14146 035f 6C63335F 		.ascii	"lc3_hr\000"
 14146      687200
 14147              	.LASF53:
 14148 0366 61636375 		.ascii	"accu\000"
 14148      00
 14149              	.LASF34:
 14150 036b 63686172 		.ascii	"char\000"
 14150      00
 14151              	.LASF40:
 14152 0370 6C63335F 		.ascii	"lc3_bits_accu\000"
 14152      62697473 
 14152      5F616363 
 14152      7500
 14153              	.LASF76:
 14154 037e 6C666362 		.ascii	"lfcb_idx\000"
 14154      5F696478 
 14154      00
 14155              	.LASF123:
 14156 0387 64617461 		.ascii	"data\000"
 14156      00
 14157              	.LASF155:
 14158 038c 433A5C55 		.ascii	"C:\\Users\\rdn\\Documents\\PSoC Creator\\SEES\\ble_"
 14158      73657273 
 14158      5C72646E 
 14158      5C446F63 
 14158      756D656E 
 14159 03b9 74657374 		.ascii	"test.cydsn\000"
 14159      2E637964 
 14159      736E00
 14160              	.LASF39:
 14161 03c4 6E6F7665 		.ascii	"nover\000"
 14161      7200
ARM GAS  C:\Users\rdn\AppData\Local\Temp\ccFEeGTH.s 			page 281


 14162              	.LASF125:
 14163 03ca 6C63335F 		.ascii	"lc3_sns_synthesize\000"
 14163      736E735F 
 14163      73796E74 
 14163      68657369 
 14163      7A6500
 14164              	.LASF156:
 14165 03dd 6C63335F 		.ascii	"lc3_sns_get_nbits\000"
 14165      736E735F 
 14165      6765745F 
 14165      6E626974 
 14165      7300
 14166              	.LASF13:
 14167 03ef 75696E74 		.ascii	"uint8_t\000"
 14167      385F7400 
 14168              	.LASF80:
 14169 03f7 646C6663 		.ascii	"dlfcb\000"
 14169      6200
 14170              	.LASF60:
 14171 03fd 6761696E 		.ascii	"gain\000"
 14171      00
 14172              	.LASF50:
 14173 0402 705F6277 		.ascii	"p_bw\000"
 14173      00
 14174              	.LASF114:
 14175 0407 63676169 		.ascii	"cgains\000"
 14175      6E7300
 14176              	.LASF71:
 14177 040e 62697473 		.ascii	"bits\000"
 14177      00
 14178              	.LASF10:
 14179 0413 6C6F6E67 		.ascii	"long long int\000"
 14179      206C6F6E 
 14179      6720696E 
 14179      7400
 14180              	.LASF91:
 14181 0421 6E70756C 		.ascii	"npulses\000"
 14181      73657300 
 14182              	.LASF134:
 14183 0429 6C63335F 		.ascii	"lc3_get_bit\000"
 14183      6765745F 
 14183      62697400 
 14184              	.LASF150:
 14185 0435 6D656D73 		.ascii	"memset\000"
 14185      657400
 14186              	.LASF104:
 14187 043c 7363665F 		.ascii	"scf_sum\000"
 14187      73756D00 
 14188              	.LASF94:
 14189 0444 6E627974 		.ascii	"nbytes\000"
 14189      657300
 14190              	.LASF74:
 14191 044b 64637431 		.ascii	"dct16_inverse\000"
 14191      365F696E 
 14191      76657273 
 14191      6500
 14192              	.LASF42:
ARM GAS  C:\Users\rdn\AppData\Local\Temp\ccFEeGTH.s 			page 282


 14193 0459 72616E67 		.ascii	"range\000"
 14193      6500
 14194              	.LASF151:
 14195 045f 6C63335F 		.ascii	"lc3_put_bits_generic\000"
 14195      7075745F 
 14195      62697473 
 14195      5F67656E 
 14195      65726963 
 14196              	.LASF69:
 14197 0474 6C63335F 		.ascii	"lc3_log2f\000"
 14197      6C6F6732 
 14197      6600
 14198              	.LASF128:
 14199 047e 6C63335F 		.ascii	"lc3_sns_put_data\000"
 14199      736E735F 
 14199      7075745F 
 14199      64617461 
 14199      00
 14200              	.LASF43:
 14201 048f 63616368 		.ascii	"cache\000"
 14201      6500
 14202              	.LASF51:
 14203 0495 6C63335F 		.ascii	"lc3_bits\000"
 14203      62697473 
 14203      00
 14204              	.LASF58:
 14205 049e 68666362 		.ascii	"hfcb\000"
 14205      00
 14206              	.LASF33:
 14207 04a3 6C6F6E67 		.ascii	"long double\000"
 14207      20646F75 
 14207      626C6500 
 14208              	.LASF109:
 14209 04af 73686170 		.ascii	"shape_idx\000"
 14209      655F6964 
 14209      7800
 14210              	.LASF84:
 14211 04b9 656E6572 		.ascii	"energy\000"
 14211      677900
 14212              	.LASF30:
 14213 04c0 4C43335F 		.ascii	"LC3_NUM_SRATE\000"
 14213      4E554D5F 
 14213      53524154 
 14213      4500
 14214              	.LASF93:
 14215 04ce 636F6D70 		.ascii	"compute_scale_factors\000"
 14215      7574655F 
 14215      7363616C 
 14215      655F6661 
 14215      63746F72 
 14216              	.LASF90:
 14217 04e4 6465656E 		.ascii	"deenum_mvpq\000"
 14217      756D5F6D 
 14217      76707100 
 14218              	.LASF18:
 14219 04f0 4C43335F 		.ascii	"LC3_DT_7M5\000"
 14219      44545F37 
ARM GAS  C:\Users\rdn\AppData\Local\Temp\ccFEeGTH.s 			page 283


 14219      4D3500
 14220              	.LASF133:
 14221 04fb 6D75785F 		.ascii	"mux_code\000"
 14221      636F6465 
 14221      00
 14222              	.LASF115:
 14223 0504 636D7365 		.ascii	"cmse_min\000"
 14223      5F6D696E 
 14223      00
 14224              	.LASF3:
 14225 050d 73686F72 		.ascii	"short int\000"
 14225      7420696E 
 14225      7400
 14226              	.LASF16:
 14227 0517 4C43335F 		.ascii	"LC3_DT_2M5\000"
 14227      44545F32 
 14227      4D3500
 14228              	.LASF140:
 14229 0522 6C63335F 		.ascii	"lc3_num_bands\000"
 14229      6E756D5F 
 14229      62616E64 
 14229      7300
 14230              	.LASF119:
 14231 0530 7363665F 		.ascii	"scf_q\000"
 14231      7100
 14232              	.LASF7:
 14233 0536 6C6F6E67 		.ascii	"long int\000"
 14233      20696E74 
 14233      00
 14234              	.LASF59:
 14235 053f 73686170 		.ascii	"shape\000"
 14235      6500
 14236              	.LASF79:
 14237 0545 64686663 		.ascii	"dhfcb_max\000"
 14237      625F6D61 
 14237      7800
 14238              	.LASF113:
 14239 054f 6D73655F 		.ascii	"mse_min\000"
 14239      6D696E00 
 14240              	.LASF105:
 14241 0557 6E6F726D 		.ascii	"normalize\000"
 14241      616C697A 
 14241      6500
 14242              	.LASF110:
 14243 0561 6761696E 		.ascii	"gain_idx\000"
 14243      5F696478 
 14243      00
 14244              	.LASF145:
 14245 056a 666D6178 		.ascii	"fmaxf\000"
 14245      6600
 14246              	.LASF38:
 14247 0570 4C43335F 		.ascii	"LC3_BITS_MODE_WRITE\000"
 14247      42495453 
 14247      5F4D4F44 
 14247      455F5752 
 14247      49544500 
 14248              	.LASF5:
ARM GAS  C:\Users\rdn\AppData\Local\Temp\ccFEeGTH.s 			page 284


 14249 0584 5F5F7569 		.ascii	"__uint8_t\000"
 14249      6E74385F 
 14249      7400
 14250              	.LASF108:
 14251 058e 7175616E 		.ascii	"quantize\000"
 14251      74697A65 
 14251      00
 14252              	.LASF48:
 14253 0597 73746172 		.ascii	"start\000"
 14253      7400
 14254              	.LASF24:
 14255 059d 4C43335F 		.ascii	"LC3_SRATE_16K\000"
 14255      53524154 
 14255      455F3136 
 14255      4B00
 14256              	.LASF32:
 14257 05ab 73697A65 		.ascii	"sizetype\000"
 14257      74797065 
 14257      00
 14258              	.LASF9:
 14259 05b4 6C6F6E67 		.ascii	"long unsigned int\000"
 14259      20756E73 
 14259      69676E65 
 14259      6420696E 
 14259      7400
 14260              	.LASF117:
 14261 05c6 6C63335F 		.ascii	"lc3_exp2f\000"
 14261      65787032 
 14261      6600
 14262              	.LASF14:
 14263 05d0 696E7433 		.ascii	"int32_t\000"
 14263      325F7400 
 14264              	.LASF144:
 14265 05d8 6C63335F 		.ascii	"lc3_sns_mpvq_offsets\000"
 14265      736E735F 
 14265      6D707671 
 14265      5F6F6666 
 14265      73657473 
 14266              	.LASF135:
 14267 05ed 64637431 		.ascii	"dct16_m\000"
 14267      365F6D00 
 14268              	.LASF120:
 14269 05f5 675F736E 		.ascii	"g_sns\000"
 14269      7300
 14270              	.LASF56:
 14271 05fb 6C63335F 		.ascii	"lc3_sns_data\000"
 14271      736E735F 
 14271      64617461 
 14271      00
 14272              	.LASF63:
 14273 0608 6C735F61 		.ascii	"ls_a\000"
 14273      00
 14274              	.LASF64:
 14275 060d 6C735F62 		.ascii	"ls_b\000"
 14275      00
 14276              	.LASF22:
 14277 0612 6C63335F 		.ascii	"lc3_srate\000"
ARM GAS  C:\Users\rdn\AppData\Local\Temp\ccFEeGTH.s 			page 285


 14277      73726174 
 14277      6500
 14278              	.LASF2:
 14279 061c 756E7369 		.ascii	"unsigned char\000"
 14279      676E6564 
 14279      20636861 
 14279      7200
 14280              	.LASF8:
 14281 062a 5F5F7569 		.ascii	"__uint32_t\000"
 14281      6E743332 
 14281      5F7400
 14282              	.LASF131:
 14283 0635 7375626D 		.ascii	"submode\000"
 14283      6F646500 
 14284              	.LASF87:
 14285 063d 6E626573 		.ascii	"nbest\000"
 14285      7400
 14286              	.LASF146:
 14287 0643 73717274 		.ascii	"sqrtf\000"
 14287      6600
 14288              	.LASF65:
 14289 0649 6C63335F 		.ascii	"lc3_sns_data_t\000"
 14289      736E735F 
 14289      64617461 
 14289      5F7400
 14290              	.LASF88:
 14291 0658 756E7175 		.ascii	"unquantize\000"
 14291      616E7469 
 14291      7A6500
 14292              	.LASF23:
 14293 0663 4C43335F 		.ascii	"LC3_SRATE_8K\000"
 14293      53524154 
 14293      455F384B 
 14293      00
 14294              	.LASF1:
 14295 0670 7369676E 		.ascii	"signed char\000"
 14295      65642063 
 14295      68617200 
 14296              	.LASF4:
 14297 067c 73686F72 		.ascii	"short unsigned int\000"
 14297      7420756E 
 14297      7369676E 
 14297      65642069 
 14297      6E7400
 14298              	.LASF149:
 14299 068f 6D656D63 		.ascii	"memcpy\000"
 14299      707900
 14300              	.LASF57:
 14301 0696 6C666362 		.ascii	"lfcb\000"
 14301      00
 14302              	.LASF103:
 14303 069b 6E6F6973 		.ascii	"noise_floor\000"
 14303      655F666C 
 14303      6F6F7200 
 14304              	.LASF37:
 14305 06a7 4C43335F 		.ascii	"LC3_BITS_MODE_READ\000"
 14305      42495453 
ARM GAS  C:\Users\rdn\AppData\Local\Temp\ccFEeGTH.s 			page 286


 14305      5F4D4F44 
 14305      455F5245 
 14305      414400
 14306              	.LASF35:
 14307 06ba 646F7562 		.ascii	"double\000"
 14307      6C6500
 14308              	.LASF29:
 14309 06c1 4C43335F 		.ascii	"LC3_SRATE_96K_HR\000"
 14309      53524154 
 14309      455F3936 
 14309      4B5F4852 
 14309      00
 14310              	.LASF92:
 14311 06d2 656E756D 		.ascii	"enumerate\000"
 14311      65726174 
 14311      6500
 14312              	.LASF41:
 14313 06dc 6C63335F 		.ascii	"lc3_bits_ac\000"
 14313      62697473 
 14313      5F616300 
 14314              	.LASF139:
 14315 06e8 6C63335F 		.ascii	"lc3_frame_bytes_hr_lim\000"
 14315      6672616D 
 14315      655F6279 
 14315      7465735F 
 14315      68725F6C 
 14316              	.LASF102:
 14317 06ff 655F7375 		.ascii	"e_sum\000"
 14317      6D00
 14318              	.LASF61:
 14319 0705 6964785F 		.ascii	"idx_a\000"
 14319      6100
 14320              	.LASF62:
 14321 070b 6964785F 		.ascii	"idx_b\000"
 14321      6200
 14322              	.LASF143:
 14323 0711 6C63335F 		.ascii	"lc3_sns_hfcb\000"
 14323      736E735F 
 14323      68666362 
 14323      00
 14324              	.LASF49:
 14325 071e 705F6677 		.ascii	"p_fw\000"
 14325      00
 14326              		.ident	"GCC: (GNU Tools for ARM Embedded Processors) 5.4.1 20160609 (release) [ARM/embedded-5-bran
