ARM GAS  C:\Users\rdn\AppData\Local\Temp\ccFEeGTH.s 			page 1


   1              		.syntax unified
   2              		.cpu cortex-m0plus
   3              		.fpu softvfp
   4              		.eabi_attribute 20, 1
   5              		.eabi_attribute 21, 1
   6              		.eabi_attribute 23, 3
   7              		.eabi_attribute 24, 1
   8              		.eabi_attribute 25, 1
   9              		.eabi_attribute 26, 1
  10              		.eabi_attribute 30, 1
  11              		.eabi_attribute 34, 0
  12              		.eabi_attribute 18, 4
  13              		.thumb
  14              		.syntax unified
  15              		.file	"sns.c"
  16              		.text
  17              	.Ltext0:
  18              		.cfi_sections	.debug_frame
  19              		.global	__aeabi_fmul
  20              		.global	__aeabi_fadd
  21              		.section	.text.dct16_forward,"ax",%progbits
  22              		.align	2
  23              		.code	16
  24              		.thumb_func
  25              		.type	dct16_forward, %function
  26              	dct16_forward:
  27              	.LFB20:
  28              		.file 1 "..\\..\\..\\liblc3\\src\\sns.c"
   1:..\..\..\liblc3\src/sns.c **** /******************************************************************************
   2:..\..\..\liblc3\src/sns.c ****  *
   3:..\..\..\liblc3\src/sns.c ****  *  Copyright 2022 Google LLC
   4:..\..\..\liblc3\src/sns.c ****  *
   5:..\..\..\liblc3\src/sns.c ****  *  Licensed under the Apache License, Version 2.0 (the "License");
   6:..\..\..\liblc3\src/sns.c ****  *  you may not use this file except in compliance with the License.
   7:..\..\..\liblc3\src/sns.c ****  *  You may obtain a copy of the License at:
   8:..\..\..\liblc3\src/sns.c ****  *
   9:..\..\..\liblc3\src/sns.c ****  *  http://www.apache.org/licenses/LICENSE-2.0
  10:..\..\..\liblc3\src/sns.c ****  *
  11:..\..\..\liblc3\src/sns.c ****  *  Unless required by applicable law or agreed to in writing, software
  12:..\..\..\liblc3\src/sns.c ****  *  distributed under the License is distributed on an "AS IS" BASIS,
  13:..\..\..\liblc3\src/sns.c ****  *  WITHOUT WARRANTIES OR CONDITIONS OF ANY KIND, either express or implied.
  14:..\..\..\liblc3\src/sns.c ****  *  See the License for the specific language governing permissions and
  15:..\..\..\liblc3\src/sns.c ****  *  limitations under the License.
  16:..\..\..\liblc3\src/sns.c ****  *
  17:..\..\..\liblc3\src/sns.c ****  ******************************************************************************/
  18:..\..\..\liblc3\src/sns.c **** 
  19:..\..\..\liblc3\src/sns.c **** #include "sns.h"
  20:..\..\..\liblc3\src/sns.c **** #include "tables.h"
  21:..\..\..\liblc3\src/sns.c **** 
  22:..\..\..\liblc3\src/sns.c **** 
  23:..\..\..\liblc3\src/sns.c **** /* ----------------------------------------------------------------------------
  24:..\..\..\liblc3\src/sns.c ****  *  DCT-16
  25:..\..\..\liblc3\src/sns.c ****  * -------------------------------------------------------------------------- */
  26:..\..\..\liblc3\src/sns.c **** 
  27:..\..\..\liblc3\src/sns.c **** /**
  28:..\..\..\liblc3\src/sns.c ****  * Matrix of DCT-16 coefficients
  29:..\..\..\liblc3\src/sns.c ****  *
ARM GAS  C:\Users\rdn\AppData\Local\Temp\ccFEeGTH.s 			page 2


  30:..\..\..\liblc3\src/sns.c ****  * M[n][k] = 2f cos( Pi k (2n + 1) / 2N )
  31:..\..\..\liblc3\src/sns.c ****  *
  32:..\..\..\liblc3\src/sns.c ****  *   k = [0..N-1], n = [0..N-1], N = 16
  33:..\..\..\liblc3\src/sns.c ****  *   f = sqrt(1/4N) for k=0, sqrt(1/2N) otherwise
  34:..\..\..\liblc3\src/sns.c ****  */
  35:..\..\..\liblc3\src/sns.c **** static const float dct16_m[16][16] = {
  36:..\..\..\liblc3\src/sns.c **** 
  37:..\..\..\liblc3\src/sns.c ****     {  2.50000000e-01,  3.51850934e-01,  3.46759961e-01,  3.38329500e-01,
  38:..\..\..\liblc3\src/sns.c ****        3.26640741e-01,  3.11806253e-01,  2.93968901e-01,  2.73300467e-01,
  39:..\..\..\liblc3\src/sns.c ****        2.50000000e-01,  2.24291897e-01,  1.96423740e-01,  1.66663915e-01,
  40:..\..\..\liblc3\src/sns.c ****        1.35299025e-01,  1.02631132e-01,  6.89748448e-02,  3.46542923e-02 },
  41:..\..\..\liblc3\src/sns.c **** 
  42:..\..\..\liblc3\src/sns.c ****     {  2.50000000e-01,  3.38329500e-01,  2.93968901e-01,  2.24291897e-01,
  43:..\..\..\liblc3\src/sns.c ****        1.35299025e-01,  3.46542923e-02, -6.89748448e-02, -1.66663915e-01,
  44:..\..\..\liblc3\src/sns.c ****       -2.50000000e-01, -3.11806253e-01, -3.46759961e-01, -3.51850934e-01,
  45:..\..\..\liblc3\src/sns.c ****       -3.26640741e-01, -2.73300467e-01, -1.96423740e-01, -1.02631132e-01 },
  46:..\..\..\liblc3\src/sns.c **** 
  47:..\..\..\liblc3\src/sns.c ****      { 2.50000000e-01,  3.11806253e-01,  1.96423740e-01,  3.46542923e-02,
  48:..\..\..\liblc3\src/sns.c ****       -1.35299025e-01, -2.73300467e-01, -3.46759961e-01, -3.38329500e-01,
  49:..\..\..\liblc3\src/sns.c ****       -2.50000000e-01, -1.02631132e-01,  6.89748448e-02,  2.24291897e-01,
  50:..\..\..\liblc3\src/sns.c ****        3.26640741e-01,  3.51850934e-01,  2.93968901e-01,  1.66663915e-01 },
  51:..\..\..\liblc3\src/sns.c **** 
  52:..\..\..\liblc3\src/sns.c ****      { 2.50000000e-01,  2.73300467e-01,  6.89748448e-02, -1.66663915e-01,
  53:..\..\..\liblc3\src/sns.c ****       -3.26640741e-01, -3.38329500e-01, -1.96423740e-01,  3.46542923e-02,
  54:..\..\..\liblc3\src/sns.c ****        2.50000000e-01,  3.51850934e-01,  2.93968901e-01,  1.02631132e-01,
  55:..\..\..\liblc3\src/sns.c ****       -1.35299025e-01, -3.11806253e-01, -3.46759961e-01, -2.24291897e-01 },
  56:..\..\..\liblc3\src/sns.c **** 
  57:..\..\..\liblc3\src/sns.c ****     {  2.50000000e-01,  2.24291897e-01, -6.89748448e-02, -3.11806253e-01,
  58:..\..\..\liblc3\src/sns.c ****       -3.26640741e-01, -1.02631132e-01,  1.96423740e-01,  3.51850934e-01,
  59:..\..\..\liblc3\src/sns.c ****        2.50000000e-01, -3.46542923e-02, -2.93968901e-01, -3.38329500e-01,
  60:..\..\..\liblc3\src/sns.c ****       -1.35299025e-01,  1.66663915e-01,  3.46759961e-01,  2.73300467e-01 },
  61:..\..\..\liblc3\src/sns.c **** 
  62:..\..\..\liblc3\src/sns.c ****     {  2.50000000e-01,  1.66663915e-01, -1.96423740e-01, -3.51850934e-01,
  63:..\..\..\liblc3\src/sns.c ****       -1.35299025e-01,  2.24291897e-01,  3.46759961e-01,  1.02631132e-01,
  64:..\..\..\liblc3\src/sns.c ****       -2.50000000e-01, -3.38329500e-01, -6.89748448e-02,  2.73300467e-01,
  65:..\..\..\liblc3\src/sns.c ****        3.26640741e-01,  3.46542923e-02, -2.93968901e-01, -3.11806253e-01 },
  66:..\..\..\liblc3\src/sns.c **** 
  67:..\..\..\liblc3\src/sns.c ****     {  2.50000000e-01,  1.02631132e-01, -2.93968901e-01, -2.73300467e-01,
  68:..\..\..\liblc3\src/sns.c ****        1.35299025e-01,  3.51850934e-01,  6.89748448e-02, -3.11806253e-01,
  69:..\..\..\liblc3\src/sns.c ****       -2.50000000e-01,  1.66663915e-01,  3.46759961e-01,  3.46542923e-02,
  70:..\..\..\liblc3\src/sns.c ****       -3.26640741e-01, -2.24291897e-01,  1.96423740e-01,  3.38329500e-01 },
  71:..\..\..\liblc3\src/sns.c **** 
  72:..\..\..\liblc3\src/sns.c ****     {  2.50000000e-01,  3.46542923e-02, -3.46759961e-01, -1.02631132e-01,
  73:..\..\..\liblc3\src/sns.c ****        3.26640741e-01,  1.66663915e-01, -2.93968901e-01, -2.24291897e-01,
  74:..\..\..\liblc3\src/sns.c ****        2.50000000e-01,  2.73300467e-01, -1.96423740e-01, -3.11806253e-01,
  75:..\..\..\liblc3\src/sns.c ****        1.35299025e-01,  3.38329500e-01, -6.89748448e-02, -3.51850934e-01 },
  76:..\..\..\liblc3\src/sns.c **** 
  77:..\..\..\liblc3\src/sns.c ****     {  2.50000000e-01, -3.46542923e-02, -3.46759961e-01,  1.02631132e-01,
  78:..\..\..\liblc3\src/sns.c ****        3.26640741e-01, -1.66663915e-01, -2.93968901e-01,  2.24291897e-01,
  79:..\..\..\liblc3\src/sns.c ****        2.50000000e-01, -2.73300467e-01, -1.96423740e-01,  3.11806253e-01,
  80:..\..\..\liblc3\src/sns.c ****        1.35299025e-01, -3.38329500e-01, -6.89748448e-02,  3.51850934e-01 },
  81:..\..\..\liblc3\src/sns.c **** 
  82:..\..\..\liblc3\src/sns.c ****     {  2.50000000e-01, -1.02631132e-01, -2.93968901e-01,  2.73300467e-01,
  83:..\..\..\liblc3\src/sns.c ****        1.35299025e-01, -3.51850934e-01,  6.89748448e-02,  3.11806253e-01,
  84:..\..\..\liblc3\src/sns.c ****       -2.50000000e-01, -1.66663915e-01,  3.46759961e-01, -3.46542923e-02,
  85:..\..\..\liblc3\src/sns.c ****       -3.26640741e-01,  2.24291897e-01,  1.96423740e-01, -3.38329500e-01 },
  86:..\..\..\liblc3\src/sns.c **** 
ARM GAS  C:\Users\rdn\AppData\Local\Temp\ccFEeGTH.s 			page 3


  87:..\..\..\liblc3\src/sns.c ****     {  2.50000000e-01, -1.66663915e-01, -1.96423740e-01,  3.51850934e-01,
  88:..\..\..\liblc3\src/sns.c ****       -1.35299025e-01, -2.24291897e-01,  3.46759961e-01, -1.02631132e-01,
  89:..\..\..\liblc3\src/sns.c ****       -2.50000000e-01,  3.38329500e-01, -6.89748448e-02, -2.73300467e-01,
  90:..\..\..\liblc3\src/sns.c ****        3.26640741e-01, -3.46542923e-02, -2.93968901e-01,  3.11806253e-01 },
  91:..\..\..\liblc3\src/sns.c **** 
  92:..\..\..\liblc3\src/sns.c ****     {  2.50000000e-01, -2.24291897e-01, -6.89748448e-02,  3.11806253e-01,
  93:..\..\..\liblc3\src/sns.c ****       -3.26640741e-01,  1.02631132e-01,  1.96423740e-01, -3.51850934e-01,
  94:..\..\..\liblc3\src/sns.c ****        2.50000000e-01,  3.46542923e-02, -2.93968901e-01,  3.38329500e-01,
  95:..\..\..\liblc3\src/sns.c ****       -1.35299025e-01, -1.66663915e-01,  3.46759961e-01, -2.73300467e-01 },
  96:..\..\..\liblc3\src/sns.c **** 
  97:..\..\..\liblc3\src/sns.c ****     {  2.50000000e-01, -2.73300467e-01,  6.89748448e-02,  1.66663915e-01,
  98:..\..\..\liblc3\src/sns.c ****       -3.26640741e-01,  3.38329500e-01, -1.96423740e-01, -3.46542923e-02,
  99:..\..\..\liblc3\src/sns.c ****        2.50000000e-01, -3.51850934e-01,  2.93968901e-01, -1.02631132e-01,
 100:..\..\..\liblc3\src/sns.c ****       -1.35299025e-01,  3.11806253e-01, -3.46759961e-01,  2.24291897e-01 },
 101:..\..\..\liblc3\src/sns.c **** 
 102:..\..\..\liblc3\src/sns.c ****     {  2.50000000e-01, -3.11806253e-01,  1.96423740e-01, -3.46542923e-02,
 103:..\..\..\liblc3\src/sns.c ****       -1.35299025e-01,  2.73300467e-01, -3.46759961e-01,  3.38329500e-01,
 104:..\..\..\liblc3\src/sns.c ****       -2.50000000e-01,  1.02631132e-01,  6.89748448e-02, -2.24291897e-01,
 105:..\..\..\liblc3\src/sns.c ****        3.26640741e-01, -3.51850934e-01,  2.93968901e-01, -1.66663915e-01 },
 106:..\..\..\liblc3\src/sns.c **** 
 107:..\..\..\liblc3\src/sns.c ****     {  2.50000000e-01, -3.38329500e-01,  2.93968901e-01, -2.24291897e-01,
 108:..\..\..\liblc3\src/sns.c ****        1.35299025e-01, -3.46542923e-02, -6.89748448e-02,  1.66663915e-01,
 109:..\..\..\liblc3\src/sns.c ****       -2.50000000e-01,  3.11806253e-01, -3.46759961e-01,  3.51850934e-01,
 110:..\..\..\liblc3\src/sns.c ****       -3.26640741e-01,  2.73300467e-01, -1.96423740e-01,  1.02631132e-01 },
 111:..\..\..\liblc3\src/sns.c **** 
 112:..\..\..\liblc3\src/sns.c ****     {  2.50000000e-01, -3.51850934e-01,  3.46759961e-01, -3.38329500e-01,
 113:..\..\..\liblc3\src/sns.c ****        3.26640741e-01, -3.11806253e-01,  2.93968901e-01, -2.73300467e-01,
 114:..\..\..\liblc3\src/sns.c ****        2.50000000e-01, -2.24291897e-01,  1.96423740e-01, -1.66663915e-01,
 115:..\..\..\liblc3\src/sns.c ****        1.35299025e-01, -1.02631132e-01,  6.89748448e-02, -3.46542923e-02 },
 116:..\..\..\liblc3\src/sns.c **** 
 117:..\..\..\liblc3\src/sns.c **** };
 118:..\..\..\liblc3\src/sns.c **** 
 119:..\..\..\liblc3\src/sns.c **** /**
 120:..\..\..\liblc3\src/sns.c ****  * Forward DCT-16 transformation
 121:..\..\..\liblc3\src/sns.c ****  * x, y            Input and output 16 values
 122:..\..\..\liblc3\src/sns.c ****  */
 123:..\..\..\liblc3\src/sns.c **** LC3_HOT static void dct16_forward(const float *x, float *y)
 124:..\..\..\liblc3\src/sns.c **** {
  29              		.loc 1 124 0
  30              		.cfi_startproc
  31              		@ args = 0, pretend = 0, frame = 0
  32              		@ frame_needed = 0, uses_anonymous_args = 0
  33              	.LVL0:
  34 0000 F0B5     		push	{r4, r5, r6, r7, lr}
  35              		.cfi_def_cfa_offset 20
  36              		.cfi_offset 4, -20
  37              		.cfi_offset 5, -16
  38              		.cfi_offset 6, -12
  39              		.cfi_offset 7, -8
  40              		.cfi_offset 14, -4
  41 0002 4746     		mov	r7, r8
  42 0004 80B4     		push	{r7}
  43              		.cfi_def_cfa_offset 24
  44              		.cfi_offset 8, -24
  45 0006 0700     		movs	r7, r0
  46 0008 8846     		mov	r8, r1
  47              	.LVL1:
ARM GAS  C:\Users\rdn\AppData\Local\Temp\ccFEeGTH.s 			page 4


  48              	.LBB51:
 125:..\..\..\liblc3\src/sns.c ****     for (int i = 0, j; i < 16; i++)
  49              		.loc 1 125 0
  50 000a 0026     		movs	r6, #0
  51 000c 17E0     		b	.L2
  52              	.LVL2:
  53              	.L5:
 126:..\..\..\liblc3\src/sns.c ****         for (y[i] = 0, j = 0; j < 16; j++)
  54              		.loc 1 126 0
  55 000e B500     		lsls	r5, r6, #2
  56 0010 4544     		add	r5, r5, r8
  57 0012 0023     		movs	r3, #0
  58 0014 2B60     		str	r3, [r5]
  59              	.LVL3:
  60 0016 0024     		movs	r4, #0
  61 0018 0EE0     		b	.L3
  62              	.LVL4:
  63              	.L4:
 127:..\..\..\liblc3\src/sns.c ****             y[i] += x[j] * dct16_m[j][i];
  64              		.loc 1 127 0 discriminator 3
  65 001a A300     		lsls	r3, r4, #2
  66 001c D859     		ldr	r0, [r3, r7]
  67 001e 2301     		lsls	r3, r4, #4
  68 0020 9B19     		adds	r3, r3, r6
  69 0022 9B00     		lsls	r3, r3, #2
  70 0024 084A     		ldr	r2, .L6
  71 0026 9958     		ldr	r1, [r3, r2]
  72 0028 FFF7FEFF 		bl	__aeabi_fmul
  73              	.LVL5:
  74 002c 011C     		adds	r1, r0, #0
  75 002e 2868     		ldr	r0, [r5]
  76 0030 FFF7FEFF 		bl	__aeabi_fadd
  77              	.LVL6:
  78 0034 2860     		str	r0, [r5]
 126:..\..\..\liblc3\src/sns.c ****         for (y[i] = 0, j = 0; j < 16; j++)
  79              		.loc 1 126 0 discriminator 3
  80 0036 0134     		adds	r4, r4, #1
  81              	.LVL7:
  82              	.L3:
 126:..\..\..\liblc3\src/sns.c ****         for (y[i] = 0, j = 0; j < 16; j++)
  83              		.loc 1 126 0 is_stmt 0 discriminator 1
  84 0038 0F2C     		cmp	r4, #15
  85 003a EEDD     		ble	.L4
 125:..\..\..\liblc3\src/sns.c ****     for (int i = 0, j; i < 16; i++)
  86              		.loc 1 125 0 is_stmt 1 discriminator 2
  87 003c 0136     		adds	r6, r6, #1
  88              	.LVL8:
  89              	.L2:
 125:..\..\..\liblc3\src/sns.c ****     for (int i = 0, j; i < 16; i++)
  90              		.loc 1 125 0 is_stmt 0 discriminator 1
  91 003e 0F2E     		cmp	r6, #15
  92 0040 E5DD     		ble	.L5
  93              	.LBE51:
 128:..\..\..\liblc3\src/sns.c **** }
  94              		.loc 1 128 0 is_stmt 1
  95              		@ sp needed
  96              	.LVL9:
ARM GAS  C:\Users\rdn\AppData\Local\Temp\ccFEeGTH.s 			page 5


  97              	.LVL10:
  98              	.LVL11:
  99 0042 04BC     		pop	{r2}
 100 0044 9046     		mov	r8, r2
 101 0046 F0BD     		pop	{r4, r5, r6, r7, pc}
 102              	.L7:
 103              		.align	2
 104              	.L6:
 105 0048 00000000 		.word	.LANCHOR0
 106              		.cfi_endproc
 107              	.LFE20:
 108              		.size	dct16_forward, .-dct16_forward
 109              		.section	.text.dct16_inverse,"ax",%progbits
 110              		.align	2
 111              		.code	16
 112              		.thumb_func
 113              		.type	dct16_inverse, %function
 114              	dct16_inverse:
 115              	.LFB21:
 129:..\..\..\liblc3\src/sns.c **** 
 130:..\..\..\liblc3\src/sns.c **** /**
 131:..\..\..\liblc3\src/sns.c ****  * Inverse DCT-16 transformation
 132:..\..\..\liblc3\src/sns.c ****  * x, y            Input and output 16 values
 133:..\..\..\liblc3\src/sns.c ****  */
 134:..\..\..\liblc3\src/sns.c **** LC3_HOT static void dct16_inverse(const float *x, float *y)
 135:..\..\..\liblc3\src/sns.c **** {
 116              		.loc 1 135 0
 117              		.cfi_startproc
 118              		@ args = 0, pretend = 0, frame = 0
 119              		@ frame_needed = 0, uses_anonymous_args = 0
 120              	.LVL12:
 121 0000 F0B5     		push	{r4, r5, r6, r7, lr}
 122              		.cfi_def_cfa_offset 20
 123              		.cfi_offset 4, -20
 124              		.cfi_offset 5, -16
 125              		.cfi_offset 6, -12
 126              		.cfi_offset 7, -8
 127              		.cfi_offset 14, -4
 128 0002 4746     		mov	r7, r8
 129 0004 80B4     		push	{r7}
 130              		.cfi_def_cfa_offset 24
 131              		.cfi_offset 8, -24
 132 0006 0700     		movs	r7, r0
 133 0008 8846     		mov	r8, r1
 134              	.LVL13:
 135              	.LBB52:
 136:..\..\..\liblc3\src/sns.c ****     for (int i = 0, j; i < 16; i++)
 136              		.loc 1 136 0
 137 000a 0026     		movs	r6, #0
 138 000c 17E0     		b	.L9
 139              	.LVL14:
 140              	.L12:
 137:..\..\..\liblc3\src/sns.c ****         for (y[i] = 0, j = 0; j < 16; j++)
 141              		.loc 1 137 0
 142 000e B500     		lsls	r5, r6, #2
 143 0010 4544     		add	r5, r5, r8
 144 0012 0023     		movs	r3, #0
ARM GAS  C:\Users\rdn\AppData\Local\Temp\ccFEeGTH.s 			page 6


 145 0014 2B60     		str	r3, [r5]
 146              	.LVL15:
 147 0016 0024     		movs	r4, #0
 148 0018 0EE0     		b	.L10
 149              	.LVL16:
 150              	.L11:
 138:..\..\..\liblc3\src/sns.c ****             y[i] += x[j] * dct16_m[i][j];
 151              		.loc 1 138 0 discriminator 3
 152 001a A300     		lsls	r3, r4, #2
 153 001c D859     		ldr	r0, [r3, r7]
 154 001e 3301     		lsls	r3, r6, #4
 155 0020 1B19     		adds	r3, r3, r4
 156 0022 9B00     		lsls	r3, r3, #2
 157 0024 084A     		ldr	r2, .L13
 158 0026 9958     		ldr	r1, [r3, r2]
 159 0028 FFF7FEFF 		bl	__aeabi_fmul
 160              	.LVL17:
 161 002c 011C     		adds	r1, r0, #0
 162 002e 2868     		ldr	r0, [r5]
 163 0030 FFF7FEFF 		bl	__aeabi_fadd
 164              	.LVL18:
 165 0034 2860     		str	r0, [r5]
 137:..\..\..\liblc3\src/sns.c ****         for (y[i] = 0, j = 0; j < 16; j++)
 166              		.loc 1 137 0 discriminator 3
 167 0036 0134     		adds	r4, r4, #1
 168              	.LVL19:
 169              	.L10:
 137:..\..\..\liblc3\src/sns.c ****         for (y[i] = 0, j = 0; j < 16; j++)
 170              		.loc 1 137 0 is_stmt 0 discriminator 1
 171 0038 0F2C     		cmp	r4, #15
 172 003a EEDD     		ble	.L11
 136:..\..\..\liblc3\src/sns.c ****     for (int i = 0, j; i < 16; i++)
 173              		.loc 1 136 0 is_stmt 1 discriminator 2
 174 003c 0136     		adds	r6, r6, #1
 175              	.LVL20:
 176              	.L9:
 136:..\..\..\liblc3\src/sns.c ****     for (int i = 0, j; i < 16; i++)
 177              		.loc 1 136 0 is_stmt 0 discriminator 1
 178 003e 0F2E     		cmp	r6, #15
 179 0040 E5DD     		ble	.L12
 180              	.LBE52:
 139:..\..\..\liblc3\src/sns.c **** }
 181              		.loc 1 139 0 is_stmt 1
 182              		@ sp needed
 183              	.LVL21:
 184              	.LVL22:
 185              	.LVL23:
 186 0042 04BC     		pop	{r2}
 187 0044 9046     		mov	r8, r2
 188 0046 F0BD     		pop	{r4, r5, r6, r7, pc}
 189              	.L14:
 190              		.align	2
 191              	.L13:
 192 0048 00000000 		.word	.LANCHOR0
 193              		.cfi_endproc
 194              	.LFE21:
 195              		.size	dct16_inverse, .-dct16_inverse
ARM GAS  C:\Users\rdn\AppData\Local\Temp\ccFEeGTH.s 			page 7


 196              		.global	__aeabi_fsub
 197              		.global	__aeabi_fcmpgt
 198              		.section	.text.resolve_codebooks,"ax",%progbits
 199              		.align	2
 200              		.code	16
 201              		.thumb_func
 202              		.type	resolve_codebooks, %function
 203              	resolve_codebooks:
 204              	.LFB23:
 140:..\..\..\liblc3\src/sns.c **** 
 141:..\..\..\liblc3\src/sns.c **** 
 142:..\..\..\liblc3\src/sns.c **** /* ----------------------------------------------------------------------------
 143:..\..\..\liblc3\src/sns.c ****  *  Scale factors
 144:..\..\..\liblc3\src/sns.c ****  * -------------------------------------------------------------------------- */
 145:..\..\..\liblc3\src/sns.c **** 
 146:..\..\..\liblc3\src/sns.c **** /**
 147:..\..\..\liblc3\src/sns.c ****  * Scale factors
 148:..\..\..\liblc3\src/sns.c ****  * dt, sr          Duration and samplerate of the frame
 149:..\..\..\liblc3\src/sns.c ****  * nbytes          Size in bytes of the frame
 150:..\..\..\liblc3\src/sns.c ****  * eb              Energy estimation per bands
 151:..\..\..\liblc3\src/sns.c ****  * att             1: Attack detected  0: Otherwise
 152:..\..\..\liblc3\src/sns.c ****  * scf             Output 16 scale factors
 153:..\..\..\liblc3\src/sns.c ****  */
 154:..\..\..\liblc3\src/sns.c **** LC3_HOT static void compute_scale_factors(
 155:..\..\..\liblc3\src/sns.c ****     enum lc3_dt dt, enum lc3_srate sr, int nbytes,
 156:..\..\..\liblc3\src/sns.c ****     const float *eb, bool att, float *scf)
 157:..\..\..\liblc3\src/sns.c **** {
 158:..\..\..\liblc3\src/sns.c ****     /* Pre-emphasis gain table :
 159:..\..\..\liblc3\src/sns.c ****      * Ge[b] = 10 ^ (b * g_tilt) / 630 , b = [0..63] */
 160:..\..\..\liblc3\src/sns.c **** 
 161:..\..\..\liblc3\src/sns.c ****     static const float ge_14[LC3_MAX_BANDS] = { /* g_tilt = 14 */
 162:..\..\..\liblc3\src/sns.c ****         1.00000000e+00, 1.05250029e+00, 1.10775685e+00, 1.16591440e+00,
 163:..\..\..\liblc3\src/sns.c ****         1.22712524e+00, 1.29154967e+00, 1.35935639e+00, 1.43072299e+00,
 164:..\..\..\liblc3\src/sns.c ****         1.50583635e+00, 1.58489319e+00, 1.66810054e+00, 1.75567629e+00,
 165:..\..\..\liblc3\src/sns.c ****         1.84784980e+00, 1.94486244e+00, 2.04696827e+00, 2.15443469e+00,
 166:..\..\..\liblc3\src/sns.c ****         2.26754313e+00, 2.38658979e+00, 2.51188643e+00, 2.64376119e+00,
 167:..\..\..\liblc3\src/sns.c ****         2.78255940e+00, 2.92864456e+00, 3.08239924e+00, 3.24422608e+00,
 168:..\..\..\liblc3\src/sns.c ****         3.41454887e+00, 3.59381366e+00, 3.78248991e+00, 3.98107171e+00,
 169:..\..\..\liblc3\src/sns.c ****         4.19007911e+00, 4.41005945e+00, 4.64158883e+00, 4.88527357e+00,
 170:..\..\..\liblc3\src/sns.c ****         5.14175183e+00, 5.41169527e+00, 5.69581081e+00, 5.99484250e+00,
 171:..\..\..\liblc3\src/sns.c ****         6.30957344e+00, 6.64082785e+00, 6.98947321e+00, 7.35642254e+00,
 172:..\..\..\liblc3\src/sns.c ****         7.74263683e+00, 8.14912747e+00, 8.57695899e+00, 9.02725178e+00,
 173:..\..\..\liblc3\src/sns.c ****         9.50118507e+00, 1.00000000e+01, 1.05250029e+01, 1.10775685e+01,
 174:..\..\..\liblc3\src/sns.c ****         1.16591440e+01, 1.22712524e+01, 1.29154967e+01, 1.35935639e+01,
 175:..\..\..\liblc3\src/sns.c ****         1.43072299e+01, 1.50583635e+01, 1.58489319e+01, 1.66810054e+01,
 176:..\..\..\liblc3\src/sns.c ****         1.75567629e+01, 1.84784980e+01, 1.94486244e+01, 2.04696827e+01,
 177:..\..\..\liblc3\src/sns.c ****         2.15443469e+01, 2.26754313e+01, 2.38658979e+01, 2.51188643e+01 };
 178:..\..\..\liblc3\src/sns.c **** 
 179:..\..\..\liblc3\src/sns.c ****     static const float ge_18[LC3_MAX_BANDS] = { /* g_tilt = 18 */
 180:..\..\..\liblc3\src/sns.c ****         1.00000000e+00, 1.06800043e+00, 1.14062492e+00, 1.21818791e+00,
 181:..\..\..\liblc3\src/sns.c ****         1.30102522e+00, 1.38949549e+00, 1.48398179e+00, 1.58489319e+00,
 182:..\..\..\liblc3\src/sns.c ****         1.69266662e+00, 1.80776868e+00, 1.93069773e+00, 2.06198601e+00,
 183:..\..\..\liblc3\src/sns.c ****         2.20220195e+00, 2.35195264e+00, 2.51188643e+00, 2.68269580e+00,
 184:..\..\..\liblc3\src/sns.c ****         2.86512027e+00, 3.05994969e+00, 3.26802759e+00, 3.49025488e+00,
 185:..\..\..\liblc3\src/sns.c ****         3.72759372e+00, 3.98107171e+00, 4.25178630e+00, 4.54090961e+00,
 186:..\..\..\liblc3\src/sns.c ****         4.84969343e+00, 5.17947468e+00, 5.53168120e+00, 5.90783791e+00,
 187:..\..\..\liblc3\src/sns.c ****         6.30957344e+00, 6.73862717e+00, 7.19685673e+00, 7.68624610e+00,
ARM GAS  C:\Users\rdn\AppData\Local\Temp\ccFEeGTH.s 			page 8


 188:..\..\..\liblc3\src/sns.c ****         8.20891416e+00, 8.76712387e+00, 9.36329209e+00, 1.00000000e+01,
 189:..\..\..\liblc3\src/sns.c ****         1.06800043e+01, 1.14062492e+01, 1.21818791e+01, 1.30102522e+01,
 190:..\..\..\liblc3\src/sns.c ****         1.38949549e+01, 1.48398179e+01, 1.58489319e+01, 1.69266662e+01,
 191:..\..\..\liblc3\src/sns.c ****         1.80776868e+01, 1.93069773e+01, 2.06198601e+01, 2.20220195e+01,
 192:..\..\..\liblc3\src/sns.c ****         2.35195264e+01, 2.51188643e+01, 2.68269580e+01, 2.86512027e+01,
 193:..\..\..\liblc3\src/sns.c ****         3.05994969e+01, 3.26802759e+01, 3.49025488e+01, 3.72759372e+01,
 194:..\..\..\liblc3\src/sns.c ****         3.98107171e+01, 4.25178630e+01, 4.54090961e+01, 4.84969343e+01,
 195:..\..\..\liblc3\src/sns.c ****         5.17947468e+01, 5.53168120e+01, 5.90783791e+01, 6.30957344e+01 };
 196:..\..\..\liblc3\src/sns.c **** 
 197:..\..\..\liblc3\src/sns.c ****     static const float ge_22[LC3_MAX_BANDS] = { /* g_tilt = 22 */
 198:..\..\..\liblc3\src/sns.c ****         1.00000000e+00, 1.08372885e+00, 1.17446822e+00, 1.27280509e+00,
 199:..\..\..\liblc3\src/sns.c ****         1.37937560e+00, 1.49486913e+00, 1.62003281e+00, 1.75567629e+00,
 200:..\..\..\liblc3\src/sns.c ****         1.90267705e+00, 2.06198601e+00, 2.23463373e+00, 2.42173704e+00,
 201:..\..\..\liblc3\src/sns.c ****         2.62450630e+00, 2.84425319e+00, 3.08239924e+00, 3.34048498e+00,
 202:..\..\..\liblc3\src/sns.c ****         3.62017995e+00, 3.92329345e+00, 4.25178630e+00, 4.60778348e+00,
 203:..\..\..\liblc3\src/sns.c ****         4.99358789e+00, 5.41169527e+00, 5.86481029e+00, 6.35586411e+00,
 204:..\..\..\liblc3\src/sns.c ****         6.88803330e+00, 7.46476041e+00, 8.08977621e+00, 8.76712387e+00,
 205:..\..\..\liblc3\src/sns.c ****         9.50118507e+00, 1.02967084e+01, 1.11588399e+01, 1.20931568e+01,
 206:..\..\..\liblc3\src/sns.c ****         1.31057029e+01, 1.42030283e+01, 1.53922315e+01, 1.66810054e+01,
 207:..\..\..\liblc3\src/sns.c ****         1.80776868e+01, 1.95913107e+01, 2.12316686e+01, 2.30093718e+01,
 208:..\..\..\liblc3\src/sns.c ****         2.49359200e+01, 2.70237760e+01, 2.92864456e+01, 3.17385661e+01,
 209:..\..\..\liblc3\src/sns.c ****         3.43959997e+01, 3.72759372e+01, 4.03970086e+01, 4.37794036e+01,
 210:..\..\..\liblc3\src/sns.c ****         4.74450028e+01, 5.14175183e+01, 5.57226480e+01, 6.03882412e+01,
 211:..\..\..\liblc3\src/sns.c ****         6.54444792e+01, 7.09240702e+01, 7.68624610e+01, 8.32980665e+01,
 212:..\..\..\liblc3\src/sns.c ****         9.02725178e+01, 9.78309319e+01, 1.06022203e+02, 1.14899320e+02,
 213:..\..\..\liblc3\src/sns.c ****         1.24519708e+02, 1.34945600e+02, 1.46244440e+02, 1.58489319e+02 };
 214:..\..\..\liblc3\src/sns.c **** 
 215:..\..\..\liblc3\src/sns.c ****     static const float ge_26[LC3_MAX_BANDS] = { /* g_tilt = 26 */
 216:..\..\..\liblc3\src/sns.c ****         1.00000000e+00, 1.09968890e+00, 1.20931568e+00, 1.32987103e+00,
 217:..\..\..\liblc3\src/sns.c ****         1.46244440e+00, 1.60823388e+00, 1.76855694e+00, 1.94486244e+00,
 218:..\..\..\liblc3\src/sns.c ****         2.13874364e+00, 2.35195264e+00, 2.58641621e+00, 2.84425319e+00,
 219:..\..\..\liblc3\src/sns.c ****         3.12779366e+00, 3.43959997e+00, 3.78248991e+00, 4.15956216e+00,
 220:..\..\..\liblc3\src/sns.c ****         4.57422434e+00, 5.03022373e+00, 5.53168120e+00, 6.08312841e+00,
 221:..\..\..\liblc3\src/sns.c ****         6.68954879e+00, 7.35642254e+00, 8.08977621e+00, 8.89623710e+00,
 222:..\..\..\liblc3\src/sns.c ****         9.78309319e+00, 1.07583590e+01, 1.18308480e+01, 1.30102522e+01,
 223:..\..\..\liblc3\src/sns.c ****         1.43072299e+01, 1.57335019e+01, 1.73019574e+01, 1.90267705e+01,
 224:..\..\..\liblc3\src/sns.c ****         2.09235283e+01, 2.30093718e+01, 2.53031508e+01, 2.78255940e+01,
 225:..\..\..\liblc3\src/sns.c ****         3.05994969e+01, 3.36499270e+01, 3.70044512e+01, 4.06933843e+01,
 226:..\..\..\liblc3\src/sns.c ****         4.47500630e+01, 4.92111475e+01, 5.41169527e+01, 5.95118121e+01,
 227:..\..\..\liblc3\src/sns.c ****         6.54444792e+01, 7.19685673e+01, 7.91430346e+01, 8.70327166e+01,
 228:..\..\..\liblc3\src/sns.c ****         9.57089124e+01, 1.05250029e+02, 1.15742288e+02, 1.27280509e+02,
 229:..\..\..\liblc3\src/sns.c ****         1.39968963e+02, 1.53922315e+02, 1.69266662e+02, 1.86140669e+02,
 230:..\..\..\liblc3\src/sns.c ****         2.04696827e+02, 2.25102829e+02, 2.47543082e+02, 2.72220379e+02,
 231:..\..\..\liblc3\src/sns.c ****         2.99357729e+02, 3.29200372e+02, 3.62017995e+02, 3.98107171e+02 };
 232:..\..\..\liblc3\src/sns.c **** 
 233:..\..\..\liblc3\src/sns.c ****     static const float ge_30[LC3_MAX_BANDS] = { /* g_tilt = 30 */
 234:..\..\..\liblc3\src/sns.c ****         1.00000000e+00, 1.11588399e+00, 1.24519708e+00, 1.38949549e+00,
 235:..\..\..\liblc3\src/sns.c ****         1.55051578e+00, 1.73019574e+00, 1.93069773e+00, 2.15443469e+00,
 236:..\..\..\liblc3\src/sns.c ****         2.40409918e+00, 2.68269580e+00, 2.99357729e+00, 3.34048498e+00,
 237:..\..\..\liblc3\src/sns.c ****         3.72759372e+00, 4.15956216e+00, 4.64158883e+00, 5.17947468e+00,
 238:..\..\..\liblc3\src/sns.c ****         5.77969288e+00, 6.44946677e+00, 7.19685673e+00, 8.03085722e+00,
 239:..\..\..\liblc3\src/sns.c ****         8.96150502e+00, 1.00000000e+01, 1.11588399e+01, 1.24519708e+01,
 240:..\..\..\liblc3\src/sns.c ****         1.38949549e+01, 1.55051578e+01, 1.73019574e+01, 1.93069773e+01,
 241:..\..\..\liblc3\src/sns.c ****         2.15443469e+01, 2.40409918e+01, 2.68269580e+01, 2.99357729e+01,
 242:..\..\..\liblc3\src/sns.c ****         3.34048498e+01, 3.72759372e+01, 4.15956216e+01, 4.64158883e+01,
 243:..\..\..\liblc3\src/sns.c ****         5.17947468e+01, 5.77969288e+01, 6.44946677e+01, 7.19685673e+01,
 244:..\..\..\liblc3\src/sns.c ****         8.03085722e+01, 8.96150502e+01, 1.00000000e+02, 1.11588399e+02,
ARM GAS  C:\Users\rdn\AppData\Local\Temp\ccFEeGTH.s 			page 9


 245:..\..\..\liblc3\src/sns.c ****         1.24519708e+02, 1.38949549e+02, 1.55051578e+02, 1.73019574e+02,
 246:..\..\..\liblc3\src/sns.c ****         1.93069773e+02, 2.15443469e+02, 2.40409918e+02, 2.68269580e+02,
 247:..\..\..\liblc3\src/sns.c ****         2.99357729e+02, 3.34048498e+02, 3.72759372e+02, 4.15956216e+02,
 248:..\..\..\liblc3\src/sns.c ****         4.64158883e+02, 5.17947468e+02, 5.77969288e+02, 6.44946677e+02,
 249:..\..\..\liblc3\src/sns.c ****         7.19685673e+02, 8.03085722e+02, 8.96150502e+02, 1.00000000e+03 };
 250:..\..\..\liblc3\src/sns.c **** 
 251:..\..\..\liblc3\src/sns.c **** #if LC3_PLUS_HR
 252:..\..\..\liblc3\src/sns.c **** 
 253:..\..\..\liblc3\src/sns.c ****     static const float ge_34[LC3_MAX_BANDS] = { /* g_tilt = 34 */
 254:..\..\..\liblc3\src/sns.c ****         1.00000000e+00, 1.13231759e+00, 1.28214312e+00, 1.45179321e+00,
 255:..\..\..\liblc3\src/sns.c ****         1.64389099e+00, 1.86140669e+00, 2.10770353e+00, 2.38658979e+00,
 256:..\..\..\liblc3\src/sns.c ****         2.70237760e+00, 3.05994969e+00, 3.46483486e+00, 3.92329345e+00,
 257:..\..\..\liblc3\src/sns.c ****         4.44241419e+00, 5.03022373e+00, 5.69581081e+00, 6.44946677e+00,
 258:..\..\..\liblc3\src/sns.c ****         7.30284467e+00, 8.26913948e+00, 9.36329209e+00, 1.06022203e+01,
 259:..\..\..\liblc3\src/sns.c ****         1.20050806e+01, 1.35935639e+01, 1.53922315e+01, 1.74288945e+01,
 260:..\..\..\liblc3\src/sns.c ****         1.97350438e+01, 2.23463373e+01, 2.53031508e+01, 2.86512027e+01,
 261:..\..\..\liblc3\src/sns.c ****         3.24422608e+01, 3.67349426e+01, 4.15956216e+01, 4.70994540e+01,
 262:..\..\..\liblc3\src/sns.c ****         5.33315403e+01, 6.03882412e+01, 6.83786677e+01, 7.74263683e+01,
 263:..\..\..\liblc3\src/sns.c ****         8.76712387e+01, 9.92716858e+01, 1.12407076e+02, 1.27280509e+02,
 264:..\..\..\liblc3\src/sns.c ****         1.44121960e+02, 1.63191830e+02, 1.84784980e+02, 2.09235283e+02,
 265:..\..\..\liblc3\src/sns.c ****         2.36920791e+02, 2.68269580e+02, 3.03766364e+02, 3.43959997e+02,
 266:..\..\..\liblc3\src/sns.c ****         3.89471955e+02, 4.41005945e+02, 4.99358789e+02, 5.65432741e+02,
 267:..\..\..\liblc3\src/sns.c ****         6.40249439e+02, 7.24965701e+02, 8.20891416e+02, 9.29509790e+02,
 268:..\..\..\liblc3\src/sns.c ****         1.05250029e+03, 1.19176459e+03, 1.34945600e+03, 1.52801277e+03,
 269:..\..\..\liblc3\src/sns.c ****         1.73019574e+03, 1.95913107e+03, 2.21835857e+03, 2.51188643e+03 };
 270:..\..\..\liblc3\src/sns.c **** 
 271:..\..\..\liblc3\src/sns.c **** #endif /* LC3_PLUS_HR */
 272:..\..\..\liblc3\src/sns.c **** 
 273:..\..\..\liblc3\src/sns.c ****     static const float *ge_table[LC3_NUM_SRATE] = {
 274:..\..\..\liblc3\src/sns.c ****         [LC3_SRATE_8K    ] = ge_14, [LC3_SRATE_16K   ] = ge_18,
 275:..\..\..\liblc3\src/sns.c ****         [LC3_SRATE_24K   ] = ge_22, [LC3_SRATE_32K   ] = ge_26,
 276:..\..\..\liblc3\src/sns.c ****         [LC3_SRATE_48K   ] = ge_30,
 277:..\..\..\liblc3\src/sns.c **** 
 278:..\..\..\liblc3\src/sns.c **** #if LC3_PLUS_HR
 279:..\..\..\liblc3\src/sns.c ****         [LC3_SRATE_48K_HR] = ge_30, [LC3_SRATE_96K_HR] = ge_34,
 280:..\..\..\liblc3\src/sns.c **** #endif /* LC3_PLUS_HR */
 281:..\..\..\liblc3\src/sns.c **** 
 282:..\..\..\liblc3\src/sns.c ****     };
 283:..\..\..\liblc3\src/sns.c **** 
 284:..\..\..\liblc3\src/sns.c ****     float e[LC3_MAX_BANDS];
 285:..\..\..\liblc3\src/sns.c **** 
 286:..\..\..\liblc3\src/sns.c ****     /* --- Copy and padding --- */
 287:..\..\..\liblc3\src/sns.c **** 
 288:..\..\..\liblc3\src/sns.c ****     int nb = lc3_num_bands[dt][sr];
 289:..\..\..\liblc3\src/sns.c ****     int n4 = nb < 32 ? 32 % nb : 0;
 290:..\..\..\liblc3\src/sns.c ****     int n2 = nb < 32 ? nb - n4 : LC3_MAX_BANDS - nb;
 291:..\..\..\liblc3\src/sns.c **** 
 292:..\..\..\liblc3\src/sns.c ****     for (int i4 = 0; i4 < n4; i4++)
 293:..\..\..\liblc3\src/sns.c ****         e[4*i4 + 0] = e[4*i4 + 1] =
 294:..\..\..\liblc3\src/sns.c ****         e[4*i4 + 2] = e[4*i4 + 3] = eb[i4];
 295:..\..\..\liblc3\src/sns.c **** 
 296:..\..\..\liblc3\src/sns.c ****     for (int i2 = n4; i2 < n4+n2; i2++)
 297:..\..\..\liblc3\src/sns.c ****         e[2*(n4+i2) + 0] = e[2*(n4+i2) + 1] = eb[i2];
 298:..\..\..\liblc3\src/sns.c **** 
 299:..\..\..\liblc3\src/sns.c ****     memcpy(e + 4*n4 + 2*n2, eb + n4 + n2, (nb - n4 - n2) * sizeof(float));
 300:..\..\..\liblc3\src/sns.c **** 
 301:..\..\..\liblc3\src/sns.c ****     /* --- Smoothing, pre-emphasis and logarithm --- */
ARM GAS  C:\Users\rdn\AppData\Local\Temp\ccFEeGTH.s 			page 10


 302:..\..\..\liblc3\src/sns.c **** 
 303:..\..\..\liblc3\src/sns.c ****     const float *ge = ge_table[sr];
 304:..\..\..\liblc3\src/sns.c **** 
 305:..\..\..\liblc3\src/sns.c ****     float e0 = e[0], e1 = e[0], e2;
 306:..\..\..\liblc3\src/sns.c ****     float e_sum = 0;
 307:..\..\..\liblc3\src/sns.c **** 
 308:..\..\..\liblc3\src/sns.c ****     for (int i = 0; i < LC3_MAX_BANDS-1; ) {
 309:..\..\..\liblc3\src/sns.c ****         e[i] = (e0 * 0.25f + e1 * 0.5f + (e2 = e[i+1]) * 0.25f) * ge[i];
 310:..\..\..\liblc3\src/sns.c ****         e_sum += e[i++];
 311:..\..\..\liblc3\src/sns.c **** 
 312:..\..\..\liblc3\src/sns.c ****         e[i] = (e1 * 0.25f + e2 * 0.5f + (e0 = e[i+1]) * 0.25f) * ge[i];
 313:..\..\..\liblc3\src/sns.c ****         e_sum += e[i++];
 314:..\..\..\liblc3\src/sns.c **** 
 315:..\..\..\liblc3\src/sns.c ****         e[i] = (e2 * 0.25f + e0 * 0.5f + (e1 = e[i+1]) * 0.25f) * ge[i];
 316:..\..\..\liblc3\src/sns.c ****         e_sum += e[i++];
 317:..\..\..\liblc3\src/sns.c ****     }
 318:..\..\..\liblc3\src/sns.c **** 
 319:..\..\..\liblc3\src/sns.c ****     e[LC3_MAX_BANDS-1] = (e0 * 0.25f + e1 * 0.75f) * ge[LC3_MAX_BANDS-1];
 320:..\..\..\liblc3\src/sns.c ****     e_sum += e[LC3_MAX_BANDS-1];
 321:..\..\..\liblc3\src/sns.c **** 
 322:..\..\..\liblc3\src/sns.c ****     float noise_floor = fmaxf(e_sum * (1e-4f / 64), 0x1p-32f);
 323:..\..\..\liblc3\src/sns.c **** 
 324:..\..\..\liblc3\src/sns.c ****     for (int i = 0; i < LC3_MAX_BANDS; i++)
 325:..\..\..\liblc3\src/sns.c ****         e[i] = lc3_log2f(fmaxf(e[i], noise_floor)) * 0.5f;
 326:..\..\..\liblc3\src/sns.c **** 
 327:..\..\..\liblc3\src/sns.c ****     /* --- Grouping & scaling --- */
 328:..\..\..\liblc3\src/sns.c **** 
 329:..\..\..\liblc3\src/sns.c ****     float scf_sum;
 330:..\..\..\liblc3\src/sns.c **** 
 331:..\..\..\liblc3\src/sns.c ****     scf[0] = (e[0] + e[4]) * 1.f/12 +
 332:..\..\..\liblc3\src/sns.c ****              (e[0] + e[3]) * 2.f/12 +
 333:..\..\..\liblc3\src/sns.c ****              (e[1] + e[2]) * 3.f/12  ;
 334:..\..\..\liblc3\src/sns.c ****     scf_sum = scf[0];
 335:..\..\..\liblc3\src/sns.c **** 
 336:..\..\..\liblc3\src/sns.c ****     for (int i = 1; i < 15; i++) {
 337:..\..\..\liblc3\src/sns.c ****         scf[i] = (e[4*i-1] + e[4*i+4]) * 1.f/12 +
 338:..\..\..\liblc3\src/sns.c ****                  (e[4*i  ] + e[4*i+3]) * 2.f/12 +
 339:..\..\..\liblc3\src/sns.c ****                  (e[4*i+1] + e[4*i+2]) * 3.f/12  ;
 340:..\..\..\liblc3\src/sns.c ****         scf_sum += scf[i];
 341:..\..\..\liblc3\src/sns.c ****     }
 342:..\..\..\liblc3\src/sns.c **** 
 343:..\..\..\liblc3\src/sns.c ****     scf[15] = (e[59] + e[63]) * 1.f/12 +
 344:..\..\..\liblc3\src/sns.c ****               (e[60] + e[63]) * 2.f/12 +
 345:..\..\..\liblc3\src/sns.c ****               (e[61] + e[62]) * 3.f/12  ;
 346:..\..\..\liblc3\src/sns.c ****     scf_sum += scf[15];
 347:..\..\..\liblc3\src/sns.c **** 
 348:..\..\..\liblc3\src/sns.c ****     float cf = lc3_hr(sr) ? 0.6f : 0.85f;
 349:..\..\..\liblc3\src/sns.c ****     if (lc3_hr(sr) && 8 * nbytes >
 350:..\..\..\liblc3\src/sns.c ****             (dt < LC3_DT_10M ? 1150 * (int)(1 + dt) : 4400))
 351:..\..\..\liblc3\src/sns.c ****         cf *= dt < LC3_DT_10M ? 0.25f : 0.35f;
 352:..\..\..\liblc3\src/sns.c **** 
 353:..\..\..\liblc3\src/sns.c ****     for (int i = 0; i < 16; i++)
 354:..\..\..\liblc3\src/sns.c ****         scf[i] = cf * (scf[i] - scf_sum * 1.f/16);
 355:..\..\..\liblc3\src/sns.c **** 
 356:..\..\..\liblc3\src/sns.c ****     /* --- Attack handling --- */
 357:..\..\..\liblc3\src/sns.c **** 
 358:..\..\..\liblc3\src/sns.c ****     if (!att)
ARM GAS  C:\Users\rdn\AppData\Local\Temp\ccFEeGTH.s 			page 11


 359:..\..\..\liblc3\src/sns.c ****         return;
 360:..\..\..\liblc3\src/sns.c **** 
 361:..\..\..\liblc3\src/sns.c ****     float s0, s1 = scf[0], s2 = scf[1], s3 = scf[2], s4 = scf[3];
 362:..\..\..\liblc3\src/sns.c ****     float sn = s1 + s2;
 363:..\..\..\liblc3\src/sns.c **** 
 364:..\..\..\liblc3\src/sns.c ****     scf[0] = (sn += s3) * 1.f/3;
 365:..\..\..\liblc3\src/sns.c ****     scf[1] = (sn += s4) * 1.f/4;
 366:..\..\..\liblc3\src/sns.c ****     scf_sum = scf[0] + scf[1];
 367:..\..\..\liblc3\src/sns.c **** 
 368:..\..\..\liblc3\src/sns.c ****     for (int i = 2; i < 14; i++, sn -= s0) {
 369:..\..\..\liblc3\src/sns.c ****         s0 = s1, s1 = s2, s2 = s3, s3 = s4, s4 = scf[i+2];
 370:..\..\..\liblc3\src/sns.c ****         scf[i] = (sn += s4) * 1.f/5;
 371:..\..\..\liblc3\src/sns.c ****         scf_sum += scf[i];
 372:..\..\..\liblc3\src/sns.c ****     }
 373:..\..\..\liblc3\src/sns.c **** 
 374:..\..\..\liblc3\src/sns.c ****     scf[14] = (sn      ) * 1.f/4;
 375:..\..\..\liblc3\src/sns.c ****     scf[15] = (sn -= s1) * 1.f/3;
 376:..\..\..\liblc3\src/sns.c ****     scf_sum += scf[14] + scf[15];
 377:..\..\..\liblc3\src/sns.c **** 
 378:..\..\..\liblc3\src/sns.c ****     for (int i = 0; i < 16; i++)
 379:..\..\..\liblc3\src/sns.c ****         scf[i] = (dt == LC3_DT_7M5 ? 0.3f : 0.5f) *
 380:..\..\..\liblc3\src/sns.c ****                  (scf[i] - scf_sum * 1.f/16);
 381:..\..\..\liblc3\src/sns.c **** }
 382:..\..\..\liblc3\src/sns.c **** 
 383:..\..\..\liblc3\src/sns.c **** /**
 384:..\..\..\liblc3\src/sns.c ****  * Codebooks
 385:..\..\..\liblc3\src/sns.c ****  * scf             Input 16 scale factors
 386:..\..\..\liblc3\src/sns.c ****  * lf/hfcb_idx     Output the low and high frequency codebooks index
 387:..\..\..\liblc3\src/sns.c ****  */
 388:..\..\..\liblc3\src/sns.c **** LC3_HOT static void resolve_codebooks(
 389:..\..\..\liblc3\src/sns.c ****     const float *scf, int *lfcb_idx, int *hfcb_idx)
 390:..\..\..\liblc3\src/sns.c **** {
 205              		.loc 1 390 0
 206              		.cfi_startproc
 207              		@ args = 0, pretend = 0, frame = 16
 208              		@ frame_needed = 0, uses_anonymous_args = 0
 209              	.LVL24:
 210 0000 F0B5     		push	{r4, r5, r6, r7, lr}
 211              		.cfi_def_cfa_offset 20
 212              		.cfi_offset 4, -20
 213              		.cfi_offset 5, -16
 214              		.cfi_offset 6, -12
 215              		.cfi_offset 7, -8
 216              		.cfi_offset 14, -4
 217 0002 5F46     		mov	r7, fp
 218 0004 5646     		mov	r6, r10
 219 0006 4D46     		mov	r5, r9
 220 0008 4446     		mov	r4, r8
 221 000a F0B4     		push	{r4, r5, r6, r7}
 222              		.cfi_def_cfa_offset 36
 223              		.cfi_offset 8, -36
 224              		.cfi_offset 9, -32
 225              		.cfi_offset 10, -28
 226              		.cfi_offset 11, -24
 227 000c 85B0     		sub	sp, sp, #20
 228              		.cfi_def_cfa_offset 56
 229              	.LVL25:
ARM GAS  C:\Users\rdn\AppData\Local\Temp\ccFEeGTH.s 			page 12


 391:..\..\..\liblc3\src/sns.c ****     float dlfcb_max = 0, dhfcb_max = 0;
 392:..\..\..\liblc3\src/sns.c ****     *lfcb_idx = *hfcb_idx = 0;
 230              		.loc 1 392 0
 231 000e 0023     		movs	r3, #0
 232 0010 1360     		str	r3, [r2]
 233 0012 0B60     		str	r3, [r1]
 234              	.LVL26:
 235              	.LBB53:
 393:..\..\..\liblc3\src/sns.c **** 
 394:..\..\..\liblc3\src/sns.c ****     for (int icb = 0; icb < 32; icb++) {
 236              		.loc 1 394 0
 237 0014 9846     		mov	r8, r3
 238              	.LBE53:
 391:..\..\..\liblc3\src/sns.c ****     float dlfcb_max = 0, dhfcb_max = 0;
 239              		.loc 1 391 0
 240 0016 0023     		movs	r3, #0
 241 0018 0393     		str	r3, [sp, #12]
 242 001a 0293     		str	r3, [sp, #8]
 243 001c 0700     		movs	r7, r0
 244 001e C346     		mov	fp, r8
 245 0020 9146     		mov	r9, r2
 246 0022 8846     		mov	r8, r1
 247              	.LBB57:
 248              		.loc 1 394 0
 249 0024 4AE0     		b	.L16
 250              	.LVL27:
 251              	.L25:
 252              	.LBB54:
 395:..\..\..\liblc3\src/sns.c ****         const float *lfcb = lc3_sns_lfcb[icb];
 253              		.loc 1 395 0
 254 0026 5B46     		mov	r3, fp
 255              	.LVL28:
 256 0028 5B01     		lsls	r3, r3, #5
 257 002a 294A     		ldr	r2, .L26
 258 002c 9E18     		adds	r6, r3, r2
 259              	.LVL29:
 396:..\..\..\liblc3\src/sns.c ****         const float *hfcb = lc3_sns_hfcb[icb];
 260              		.loc 1 396 0
 261 002e 294A     		ldr	r2, .L26+4
 262 0030 9A46     		mov	r10, r3
 263 0032 9244     		add	r10, r10, r2
 264              	.LVL30:
 265              	.LBB55:
 397:..\..\..\liblc3\src/sns.c ****         float dlfcb = 0, dhfcb = 0;
 398:..\..\..\liblc3\src/sns.c **** 
 399:..\..\..\liblc3\src/sns.c ****         for (int i = 0; i < 8; i++) {
 266              		.loc 1 399 0
 267 0034 0024     		movs	r4, #0
 268              	.LBE55:
 397:..\..\..\liblc3\src/sns.c ****         float dlfcb = 0, dhfcb = 0;
 269              		.loc 1 397 0
 270 0036 0023     		movs	r3, #0
 271 0038 0193     		str	r3, [sp, #4]
 272 003a 0093     		str	r3, [sp]
 273              	.LBB56:
 274              		.loc 1 399 0
 275 003c 1DE0     		b	.L17
ARM GAS  C:\Users\rdn\AppData\Local\Temp\ccFEeGTH.s 			page 13


 276              	.LVL31:
 277              	.L18:
 400:..\..\..\liblc3\src/sns.c ****             dlfcb += (scf[  i] - lfcb[i]) * (scf[  i] - lfcb[i]);
 278              		.loc 1 400 0 discriminator 3
 279 003e A500     		lsls	r5, r4, #2
 280 0040 7159     		ldr	r1, [r6, r5]
 281 0042 7859     		ldr	r0, [r7, r5]
 282 0044 FFF7FEFF 		bl	__aeabi_fsub
 283              	.LVL32:
 284 0048 011C     		adds	r1, r0, #0
 285 004a FFF7FEFF 		bl	__aeabi_fmul
 286              	.LVL33:
 287 004e 011C     		adds	r1, r0, #0
 288 0050 0098     		ldr	r0, [sp]
 289 0052 FFF7FEFF 		bl	__aeabi_fadd
 290              	.LVL34:
 291 0056 0090     		str	r0, [sp]
 292              	.LVL35:
 401:..\..\..\liblc3\src/sns.c ****             dhfcb += (scf[8+i] - hfcb[i]) * (scf[8+i] - hfcb[i]);
 293              		.loc 1 401 0 discriminator 3
 294 0058 2300     		movs	r3, r4
 295 005a 0833     		adds	r3, r3, #8
 296 005c 9B00     		lsls	r3, r3, #2
 297 005e D859     		ldr	r0, [r3, r7]
 298              	.LVL36:
 299 0060 5346     		mov	r3, r10
 300 0062 5959     		ldr	r1, [r3, r5]
 301 0064 FFF7FEFF 		bl	__aeabi_fsub
 302              	.LVL37:
 303 0068 011C     		adds	r1, r0, #0
 304 006a FFF7FEFF 		bl	__aeabi_fmul
 305              	.LVL38:
 306 006e 011C     		adds	r1, r0, #0
 307 0070 0198     		ldr	r0, [sp, #4]
 308 0072 FFF7FEFF 		bl	__aeabi_fadd
 309              	.LVL39:
 310 0076 0190     		str	r0, [sp, #4]
 311              	.LVL40:
 399:..\..\..\liblc3\src/sns.c ****             dlfcb += (scf[  i] - lfcb[i]) * (scf[  i] - lfcb[i]);
 312              		.loc 1 399 0 discriminator 3
 313 0078 0134     		adds	r4, r4, #1
 314              	.LVL41:
 315              	.L17:
 399:..\..\..\liblc3\src/sns.c ****             dlfcb += (scf[  i] - lfcb[i]) * (scf[  i] - lfcb[i]);
 316              		.loc 1 399 0 is_stmt 0 discriminator 1
 317 007a 072C     		cmp	r4, #7
 318 007c DFDD     		ble	.L18
 319              	.LBE56:
 402:..\..\..\liblc3\src/sns.c ****         }
 403:..\..\..\liblc3\src/sns.c **** 
 404:..\..\..\liblc3\src/sns.c ****         if (icb == 0 || dlfcb < dlfcb_max)
 320              		.loc 1 404 0 is_stmt 1
 321 007e 5B46     		mov	r3, fp
 322 0080 002B     		cmp	r3, #0
 323 0082 05D0     		beq	.L19
 324              	.LVL42:
 325              		.loc 1 404 0 is_stmt 0 discriminator 1
ARM GAS  C:\Users\rdn\AppData\Local\Temp\ccFEeGTH.s 			page 14


 326 0084 0099     		ldr	r1, [sp]
 327 0086 0298     		ldr	r0, [sp, #8]
 328 0088 FFF7FEFF 		bl	__aeabi_fcmpgt
 329              	.LVL43:
 330 008c 0028     		cmp	r0, #0
 331 008e 04D0     		beq	.L20
 332              	.L19:
 405:..\..\..\liblc3\src/sns.c ****             *lfcb_idx = icb, dlfcb_max = dlfcb;
 333              		.loc 1 405 0 is_stmt 1
 334 0090 4346     		mov	r3, r8
 335 0092 5A46     		mov	r2, fp
 336 0094 1A60     		str	r2, [r3]
 337              	.LVL44:
 338 0096 009B     		ldr	r3, [sp]
 339 0098 0293     		str	r3, [sp, #8]
 340              	.LVL45:
 341              	.L20:
 406:..\..\..\liblc3\src/sns.c **** 
 407:..\..\..\liblc3\src/sns.c ****         if (icb == 0 || dhfcb < dhfcb_max)
 342              		.loc 1 407 0
 343 009a 5B46     		mov	r3, fp
 344 009c 002B     		cmp	r3, #0
 345 009e 05D0     		beq	.L22
 346              	.LVL46:
 347              		.loc 1 407 0 is_stmt 0 discriminator 1
 348 00a0 0199     		ldr	r1, [sp, #4]
 349 00a2 0398     		ldr	r0, [sp, #12]
 350 00a4 FFF7FEFF 		bl	__aeabi_fcmpgt
 351              	.LVL47:
 352 00a8 0028     		cmp	r0, #0
 353 00aa 04D0     		beq	.L23
 354              	.L22:
 408:..\..\..\liblc3\src/sns.c ****             *hfcb_idx = icb, dhfcb_max = dhfcb;
 355              		.loc 1 408 0 is_stmt 1
 356 00ac 4B46     		mov	r3, r9
 357 00ae 5A46     		mov	r2, fp
 358 00b0 1A60     		str	r2, [r3]
 359              	.LVL48:
 360 00b2 019B     		ldr	r3, [sp, #4]
 361 00b4 0393     		str	r3, [sp, #12]
 362              	.LVL49:
 363              	.L23:
 364              	.LBE54:
 394:..\..\..\liblc3\src/sns.c ****         const float *lfcb = lc3_sns_lfcb[icb];
 365              		.loc 1 394 0 discriminator 2
 366 00b6 0123     		movs	r3, #1
 367 00b8 9C46     		mov	ip, r3
 368 00ba E344     		add	fp, fp, ip
 369              	.LVL50:
 370              	.L16:
 394:..\..\..\liblc3\src/sns.c ****         const float *lfcb = lc3_sns_lfcb[icb];
 371              		.loc 1 394 0 is_stmt 0 discriminator 1
 372 00bc 5B46     		mov	r3, fp
 373 00be 1F2B     		cmp	r3, #31
 374 00c0 B1DD     		ble	.L25
 375              	.LBE57:
 409:..\..\..\liblc3\src/sns.c ****     }
ARM GAS  C:\Users\rdn\AppData\Local\Temp\ccFEeGTH.s 			page 15


 410:..\..\..\liblc3\src/sns.c **** }
 376              		.loc 1 410 0 is_stmt 1
 377 00c2 05B0     		add	sp, sp, #20
 378              		@ sp needed
 379              	.LVL51:
 380              	.LVL52:
 381              	.LVL53:
 382              	.LVL54:
 383 00c4 3CBC     		pop	{r2, r3, r4, r5}
 384 00c6 9046     		mov	r8, r2
 385 00c8 9946     		mov	r9, r3
 386 00ca A246     		mov	r10, r4
 387 00cc AB46     		mov	fp, r5
 388 00ce F0BD     		pop	{r4, r5, r6, r7, pc}
 389              	.L27:
 390              		.align	2
 391              	.L26:
 392 00d0 00000000 		.word	lc3_sns_lfcb
 393 00d4 00000000 		.word	lc3_sns_hfcb
 394              		.cfi_endproc
 395              	.LFE23:
 396              		.size	resolve_codebooks, .-resolve_codebooks
 397              		.global	__aeabi_i2f
 398              		.section	.text.add_pulse,"ax",%progbits
 399              		.align	2
 400              		.code	16
 401              		.thumb_func
 402              		.type	add_pulse, %function
 403              	add_pulse:
 404              	.LFB25:
 411:..\..\..\liblc3\src/sns.c **** 
 412:..\..\..\liblc3\src/sns.c **** /**
 413:..\..\..\liblc3\src/sns.c ****  * Unit energy normalize pulse configuration
 414:..\..\..\liblc3\src/sns.c ****  * c               Pulse configuration
 415:..\..\..\liblc3\src/sns.c ****  * cn              Normalized pulse configuration
 416:..\..\..\liblc3\src/sns.c ****  */
 417:..\..\..\liblc3\src/sns.c **** LC3_HOT static void normalize(const int *c, float *cn)
 418:..\..\..\liblc3\src/sns.c **** {
 419:..\..\..\liblc3\src/sns.c ****     int c2_sum = 0;
 420:..\..\..\liblc3\src/sns.c ****     for (int i = 0; i < 16; i++)
 421:..\..\..\liblc3\src/sns.c ****         c2_sum += c[i] * c[i];
 422:..\..\..\liblc3\src/sns.c **** 
 423:..\..\..\liblc3\src/sns.c ****     float c_norm = 1.f / sqrtf(c2_sum);
 424:..\..\..\liblc3\src/sns.c **** 
 425:..\..\..\liblc3\src/sns.c ****     for (int i = 0; i < 16; i++)
 426:..\..\..\liblc3\src/sns.c ****         cn[i] = c[i] * c_norm;
 427:..\..\..\liblc3\src/sns.c **** }
 428:..\..\..\liblc3\src/sns.c **** 
 429:..\..\..\liblc3\src/sns.c **** /**
 430:..\..\..\liblc3\src/sns.c ****  * Sub-procedure of `quantize()`, add unit pulse
 431:..\..\..\liblc3\src/sns.c ****  * x, y, n         Transformed residual, and vector of pulses with length
 432:..\..\..\liblc3\src/sns.c ****  * start, end      Current number of pulses, limit to reach
 433:..\..\..\liblc3\src/sns.c ****  * corr, energy    Correlation (x,y) and y energy, updated at output
 434:..\..\..\liblc3\src/sns.c ****  */
 435:..\..\..\liblc3\src/sns.c **** LC3_HOT static void add_pulse(const float *x, int *y, int n,
 436:..\..\..\liblc3\src/sns.c ****     int start, int end, float *corr, float *energy)
 437:..\..\..\liblc3\src/sns.c **** {
ARM GAS  C:\Users\rdn\AppData\Local\Temp\ccFEeGTH.s 			page 16


 405              		.loc 1 437 0
 406              		.cfi_startproc
 407              		@ args = 12, pretend = 0, frame = 32
 408              		@ frame_needed = 0, uses_anonymous_args = 0
 409              	.LVL55:
 410 0000 F0B5     		push	{r4, r5, r6, r7, lr}
 411              		.cfi_def_cfa_offset 20
 412              		.cfi_offset 4, -20
 413              		.cfi_offset 5, -16
 414              		.cfi_offset 6, -12
 415              		.cfi_offset 7, -8
 416              		.cfi_offset 14, -4
 417 0002 5F46     		mov	r7, fp
 418 0004 5646     		mov	r6, r10
 419 0006 4D46     		mov	r5, r9
 420 0008 4446     		mov	r4, r8
 421 000a F0B4     		push	{r4, r5, r6, r7}
 422              		.cfi_def_cfa_offset 36
 423              		.cfi_offset 8, -36
 424              		.cfi_offset 9, -32
 425              		.cfi_offset 10, -28
 426              		.cfi_offset 11, -24
 427 000c 89B0     		sub	sp, sp, #36
 428              		.cfi_def_cfa_offset 72
 429 000e 9246     		mov	r10, r2
 430 0010 139A     		ldr	r2, [sp, #76]
 431              	.LVL56:
 432 0012 9046     		mov	r8, r2
 433 0014 149A     		ldr	r2, [sp, #80]
 434 0016 9146     		mov	r9, r2
 435              	.LVL57:
 436 0018 0D00     		movs	r5, r1
 437 001a 0700     		movs	r7, r0
 438 001c C346     		mov	fp, r8
 439 001e 9846     		mov	r8, r3
 440              	.LBB58:
 438:..\..\..\liblc3\src/sns.c ****     for (int k = start; k < end; k++) {
 441              		.loc 1 438 0
 442 0020 66E0     		b	.L29
 443              	.LVL58:
 444              	.L33:
 445              	.LBB59:
 439:..\..\..\liblc3\src/sns.c ****         float best_c2 = (*corr + x[0]) * (*corr + x[0]);
 446              		.loc 1 439 0
 447 0022 5B46     		mov	r3, fp
 448 0024 1B68     		ldr	r3, [r3]
 449 0026 0593     		str	r3, [sp, #20]
 450 0028 3968     		ldr	r1, [r7]
 451 002a 181C     		adds	r0, r3, #0
 452 002c FFF7FEFF 		bl	__aeabi_fadd
 453              	.LVL59:
 454 0030 011C     		adds	r1, r0, #0
 455 0032 FFF7FEFF 		bl	__aeabi_fmul
 456              	.LVL60:
 457 0036 0390     		str	r0, [sp, #12]
 458              	.LVL61:
 440:..\..\..\liblc3\src/sns.c ****         float best_e = *energy + 2*y[0] + 1;
ARM GAS  C:\Users\rdn\AppData\Local\Temp\ccFEeGTH.s 			page 17


 459              		.loc 1 440 0
 460 0038 4B46     		mov	r3, r9
 461 003a 1B68     		ldr	r3, [r3]
 462 003c 1C1C     		adds	r4, r3, #0
 463 003e 0693     		str	r3, [sp, #24]
 464 0040 2B68     		ldr	r3, [r5]
 465 0042 5800     		lsls	r0, r3, #1
 466              	.LVL62:
 467 0044 FFF7FEFF 		bl	__aeabi_i2f
 468              	.LVL63:
 469 0048 211C     		adds	r1, r4, #0
 470 004a FFF7FEFF 		bl	__aeabi_fadd
 471              	.LVL64:
 472 004e FE21     		movs	r1, #254
 473 0050 8905     		lsls	r1, r1, #22
 474 0052 FFF7FEFF 		bl	__aeabi_fadd
 475              	.LVL65:
 476 0056 0490     		str	r0, [sp, #16]
 477              	.LVL66:
 478              	.LBB60:
 441:..\..\..\liblc3\src/sns.c ****         int nbest = 0;
 442:..\..\..\liblc3\src/sns.c **** 
 443:..\..\..\liblc3\src/sns.c ****         for (int i = 1; i < n; i++) {
 479              		.loc 1 443 0
 480 0058 0124     		movs	r4, #1
 481              	.LBE60:
 441:..\..\..\liblc3\src/sns.c ****         int nbest = 0;
 482              		.loc 1 441 0
 483 005a 0023     		movs	r3, #0
 484 005c 0793     		str	r3, [sp, #28]
 485 005e 2E00     		movs	r6, r5
 486              	.LBB62:
 487              		.loc 1 443 0
 488 0060 28E0     		b	.L30
 489              	.LVL67:
 490              	.L32:
 491              	.LBB61:
 444:..\..\..\liblc3\src/sns.c ****             float c2 = (*corr + x[i]) * (*corr + x[i]);
 492              		.loc 1 444 0
 493 0062 A500     		lsls	r5, r4, #2
 494 0064 7959     		ldr	r1, [r7, r5]
 495 0066 0598     		ldr	r0, [sp, #20]
 496 0068 FFF7FEFF 		bl	__aeabi_fadd
 497              	.LVL68:
 498 006c 011C     		adds	r1, r0, #0
 499 006e FFF7FEFF 		bl	__aeabi_fmul
 500              	.LVL69:
 501 0072 0190     		str	r0, [sp, #4]
 502              	.LVL70:
 445:..\..\..\liblc3\src/sns.c ****             float e  = *energy + 2*y[i] + 1;
 503              		.loc 1 445 0
 504 0074 7059     		ldr	r0, [r6, r5]
 505              	.LVL71:
 506 0076 4000     		lsls	r0, r0, #1
 507 0078 FFF7FEFF 		bl	__aeabi_i2f
 508              	.LVL72:
 509 007c 0699     		ldr	r1, [sp, #24]
ARM GAS  C:\Users\rdn\AppData\Local\Temp\ccFEeGTH.s 			page 18


 510 007e FFF7FEFF 		bl	__aeabi_fadd
 511              	.LVL73:
 512 0082 FE21     		movs	r1, #254
 513 0084 8905     		lsls	r1, r1, #22
 514 0086 FFF7FEFF 		bl	__aeabi_fadd
 515              	.LVL74:
 516 008a 051C     		adds	r5, r0, #0
 517              	.LVL75:
 446:..\..\..\liblc3\src/sns.c **** 
 447:..\..\..\liblc3\src/sns.c ****             if (c2 * best_e > e * best_c2)
 518              		.loc 1 447 0
 519 008c 0199     		ldr	r1, [sp, #4]
 520 008e 0498     		ldr	r0, [sp, #16]
 521              	.LVL76:
 522 0090 FFF7FEFF 		bl	__aeabi_fmul
 523              	.LVL77:
 524 0094 0290     		str	r0, [sp, #8]
 525 0096 291C     		adds	r1, r5, #0
 526 0098 0398     		ldr	r0, [sp, #12]
 527 009a FFF7FEFF 		bl	__aeabi_fmul
 528              	.LVL78:
 529 009e 011C     		adds	r1, r0, #0
 530 00a0 0298     		ldr	r0, [sp, #8]
 531 00a2 FFF7FEFF 		bl	__aeabi_fcmpgt
 532              	.LVL79:
 533 00a6 0028     		cmp	r0, #0
 534 00a8 03D0     		beq	.L31
 448:..\..\..\liblc3\src/sns.c ****                 best_c2 = c2, best_e = e, nbest = i;
 535              		.loc 1 448 0
 536 00aa 0794     		str	r4, [sp, #28]
 537              	.LVL80:
 538 00ac 0495     		str	r5, [sp, #16]
 539              	.LVL81:
 540 00ae 019B     		ldr	r3, [sp, #4]
 541 00b0 0393     		str	r3, [sp, #12]
 542              	.LVL82:
 543              	.L31:
 544              	.LBE61:
 443:..\..\..\liblc3\src/sns.c ****             float c2 = (*corr + x[i]) * (*corr + x[i]);
 545              		.loc 1 443 0 discriminator 2
 546 00b2 0134     		adds	r4, r4, #1
 547              	.LVL83:
 548              	.L30:
 443:..\..\..\liblc3\src/sns.c ****             float c2 = (*corr + x[i]) * (*corr + x[i]);
 549              		.loc 1 443 0 is_stmt 0 discriminator 1
 550 00b4 5445     		cmp	r4, r10
 551 00b6 D4DB     		blt	.L32
 552 00b8 3500     		movs	r5, r6
 553              	.LBE62:
 449:..\..\..\liblc3\src/sns.c ****         }
 450:..\..\..\liblc3\src/sns.c **** 
 451:..\..\..\liblc3\src/sns.c ****         *corr += x[nbest];
 554              		.loc 1 451 0 is_stmt 1 discriminator 2
 555 00ba 079B     		ldr	r3, [sp, #28]
 556 00bc 9C00     		lsls	r4, r3, #2
 557              	.LVL84:
 558 00be 3959     		ldr	r1, [r7, r4]
ARM GAS  C:\Users\rdn\AppData\Local\Temp\ccFEeGTH.s 			page 19


 559 00c0 0598     		ldr	r0, [sp, #20]
 560 00c2 FFF7FEFF 		bl	__aeabi_fadd
 561              	.LVL85:
 562 00c6 5B46     		mov	r3, fp
 563 00c8 1860     		str	r0, [r3]
 452:..\..\..\liblc3\src/sns.c ****         *energy += 2*y[nbest] + 1;
 564              		.loc 1 452 0 discriminator 2
 565 00ca 3419     		adds	r4, r6, r4
 566 00cc 2368     		ldr	r3, [r4]
 567 00ce 5800     		lsls	r0, r3, #1
 568 00d0 0130     		adds	r0, r0, #1
 569 00d2 FFF7FEFF 		bl	__aeabi_i2f
 570              	.LVL86:
 571 00d6 011C     		adds	r1, r0, #0
 572 00d8 4B46     		mov	r3, r9
 573 00da 1868     		ldr	r0, [r3]
 574 00dc FFF7FEFF 		bl	__aeabi_fadd
 575              	.LVL87:
 576 00e0 4B46     		mov	r3, r9
 577 00e2 1860     		str	r0, [r3]
 453:..\..\..\liblc3\src/sns.c ****         y[nbest]++;
 578              		.loc 1 453 0 discriminator 2
 579 00e4 2368     		ldr	r3, [r4]
 580 00e6 0133     		adds	r3, r3, #1
 581 00e8 2360     		str	r3, [r4]
 582              	.LBE59:
 438:..\..\..\liblc3\src/sns.c ****         float best_c2 = (*corr + x[0]) * (*corr + x[0]);
 583              		.loc 1 438 0 discriminator 2
 584 00ea 0123     		movs	r3, #1
 585 00ec 9C46     		mov	ip, r3
 586 00ee E044     		add	r8, r8, ip
 587              	.LVL88:
 588              	.L29:
 438:..\..\..\liblc3\src/sns.c ****         float best_c2 = (*corr + x[0]) * (*corr + x[0]);
 589              		.loc 1 438 0 is_stmt 0 discriminator 1
 590 00f0 129B     		ldr	r3, [sp, #72]
 591 00f2 9845     		cmp	r8, r3
 592 00f4 95DB     		blt	.L33
 593              	.LBE58:
 454:..\..\..\liblc3\src/sns.c ****     }
 455:..\..\..\liblc3\src/sns.c **** }
 594              		.loc 1 455 0 is_stmt 1
 595 00f6 09B0     		add	sp, sp, #36
 596              		@ sp needed
 597              	.LVL89:
 598              	.LVL90:
 599              	.LVL91:
 600              	.LVL92:
 601 00f8 3CBC     		pop	{r2, r3, r4, r5}
 602 00fa 9046     		mov	r8, r2
 603 00fc 9946     		mov	r9, r3
 604 00fe A246     		mov	r10, r4
 605 0100 AB46     		mov	fp, r5
 606 0102 F0BD     		pop	{r4, r5, r6, r7, pc}
 607              		.cfi_endproc
 608              	.LFE25:
 609              		.size	add_pulse, .-add_pulse
ARM GAS  C:\Users\rdn\AppData\Local\Temp\ccFEeGTH.s 			page 20


 610              		.section	.text.unquantize,"ax",%progbits
 611              		.align	2
 612              		.code	16
 613              		.thumb_func
 614              		.type	unquantize, %function
 615              	unquantize:
 616              	.LFB27:
 456:..\..\..\liblc3\src/sns.c **** 
 457:..\..\..\liblc3\src/sns.c **** /**
 458:..\..\..\liblc3\src/sns.c ****  * Quantization of codebooks residual
 459:..\..\..\liblc3\src/sns.c ****  * scf             Input 16 scale factors, output quantized version
 460:..\..\..\liblc3\src/sns.c ****  * lf/hfcb_idx     Codebooks index
 461:..\..\..\liblc3\src/sns.c ****  * c, cn           Output 4 pulse configurations candidates, normalized
 462:..\..\..\liblc3\src/sns.c ****  * shape/gain_idx  Output selected shape/gain indexes
 463:..\..\..\liblc3\src/sns.c ****  */
 464:..\..\..\liblc3\src/sns.c **** LC3_HOT static void quantize(const float *scf, int lfcb_idx, int hfcb_idx,
 465:..\..\..\liblc3\src/sns.c ****     int (*c)[16], float (*cn)[16], int *shape_idx, int *gain_idx)
 466:..\..\..\liblc3\src/sns.c **** {
 467:..\..\..\liblc3\src/sns.c ****     /* --- Residual --- */
 468:..\..\..\liblc3\src/sns.c **** 
 469:..\..\..\liblc3\src/sns.c ****     const float *lfcb = lc3_sns_lfcb[lfcb_idx];
 470:..\..\..\liblc3\src/sns.c ****     const float *hfcb = lc3_sns_hfcb[hfcb_idx];
 471:..\..\..\liblc3\src/sns.c ****     float r[16], x[16];
 472:..\..\..\liblc3\src/sns.c **** 
 473:..\..\..\liblc3\src/sns.c ****     for (int i = 0; i < 8; i++) {
 474:..\..\..\liblc3\src/sns.c ****         r[  i] = scf[  i] - lfcb[i];
 475:..\..\..\liblc3\src/sns.c ****         r[8+i] = scf[8+i] - hfcb[i];
 476:..\..\..\liblc3\src/sns.c ****     }
 477:..\..\..\liblc3\src/sns.c **** 
 478:..\..\..\liblc3\src/sns.c ****     dct16_forward(r, x);
 479:..\..\..\liblc3\src/sns.c **** 
 480:..\..\..\liblc3\src/sns.c ****     /* --- Shape 3 candidate ---
 481:..\..\..\liblc3\src/sns.c ****      * Project to or below pyramid N = 16, K = 6,
 482:..\..\..\liblc3\src/sns.c ****      * then add unit pulses until you reach K = 6, over N = 16 */
 483:..\..\..\liblc3\src/sns.c **** 
 484:..\..\..\liblc3\src/sns.c ****     float xm[16];
 485:..\..\..\liblc3\src/sns.c ****     float xm_sum = 0;
 486:..\..\..\liblc3\src/sns.c **** 
 487:..\..\..\liblc3\src/sns.c ****     for (int i = 0; i < 16; i++) {
 488:..\..\..\liblc3\src/sns.c ****         xm[i] = fabsf(x[i]);
 489:..\..\..\liblc3\src/sns.c ****         xm_sum += xm[i];
 490:..\..\..\liblc3\src/sns.c ****     }
 491:..\..\..\liblc3\src/sns.c **** 
 492:..\..\..\liblc3\src/sns.c ****     float proj_factor = (6 - 1) / fmaxf(xm_sum, 1e-31f);
 493:..\..\..\liblc3\src/sns.c ****     float corr = 0, energy = 0;
 494:..\..\..\liblc3\src/sns.c ****     int npulses = 0;
 495:..\..\..\liblc3\src/sns.c **** 
 496:..\..\..\liblc3\src/sns.c ****     for (int i = 0; i < 16; i++) {
 497:..\..\..\liblc3\src/sns.c ****         c[3][i] = floorf(xm[i] * proj_factor);
 498:..\..\..\liblc3\src/sns.c ****         npulses += c[3][i];
 499:..\..\..\liblc3\src/sns.c ****         corr    += c[3][i] * xm[i];
 500:..\..\..\liblc3\src/sns.c ****         energy  += c[3][i] * c[3][i];
 501:..\..\..\liblc3\src/sns.c ****     }
 502:..\..\..\liblc3\src/sns.c **** 
 503:..\..\..\liblc3\src/sns.c ****     add_pulse(xm, c[3], 16, npulses, 6, &corr, &energy);
 504:..\..\..\liblc3\src/sns.c ****     npulses = 6;
 505:..\..\..\liblc3\src/sns.c **** 
ARM GAS  C:\Users\rdn\AppData\Local\Temp\ccFEeGTH.s 			page 21


 506:..\..\..\liblc3\src/sns.c ****     /* --- Shape 2 candidate ---
 507:..\..\..\liblc3\src/sns.c ****      * Add unit pulses until you reach K = 8 on shape 3 */
 508:..\..\..\liblc3\src/sns.c **** 
 509:..\..\..\liblc3\src/sns.c ****     memcpy(c[2], c[3], sizeof(c[2]));
 510:..\..\..\liblc3\src/sns.c **** 
 511:..\..\..\liblc3\src/sns.c ****     add_pulse(xm, c[2], 16, npulses, 8, &corr, &energy);
 512:..\..\..\liblc3\src/sns.c ****     npulses = 8;
 513:..\..\..\liblc3\src/sns.c **** 
 514:..\..\..\liblc3\src/sns.c ****     /* --- Shape 1 candidate ---
 515:..\..\..\liblc3\src/sns.c ****      * Remove any unit pulses from shape 2 that are not part of 0 to 9
 516:..\..\..\liblc3\src/sns.c ****      * Update energy and correlation terms accordingly
 517:..\..\..\liblc3\src/sns.c ****      * Add unit pulses until you reach K = 10, over N = 10 */
 518:..\..\..\liblc3\src/sns.c **** 
 519:..\..\..\liblc3\src/sns.c ****     memcpy(c[1], c[2], sizeof(c[1]));
 520:..\..\..\liblc3\src/sns.c **** 
 521:..\..\..\liblc3\src/sns.c ****     for (int i = 10; i < 16; i++) {
 522:..\..\..\liblc3\src/sns.c ****         c[1][i] = 0;
 523:..\..\..\liblc3\src/sns.c ****         npulses -= c[2][i];
 524:..\..\..\liblc3\src/sns.c ****         corr    -= c[2][i] * xm[i];
 525:..\..\..\liblc3\src/sns.c ****         energy  -= c[2][i] * c[2][i];
 526:..\..\..\liblc3\src/sns.c ****     }
 527:..\..\..\liblc3\src/sns.c **** 
 528:..\..\..\liblc3\src/sns.c ****     add_pulse(xm, c[1], 10, npulses, 10, &corr, &energy);
 529:..\..\..\liblc3\src/sns.c ****     npulses = 10;
 530:..\..\..\liblc3\src/sns.c **** 
 531:..\..\..\liblc3\src/sns.c ****     /* --- Shape 0 candidate ---
 532:..\..\..\liblc3\src/sns.c ****      * Add unit pulses until you reach K = 1, on shape 1 */
 533:..\..\..\liblc3\src/sns.c **** 
 534:..\..\..\liblc3\src/sns.c ****     memcpy(c[0], c[1], sizeof(c[0]));
 535:..\..\..\liblc3\src/sns.c **** 
 536:..\..\..\liblc3\src/sns.c ****     add_pulse(xm + 10, c[0] + 10, 6, 0, 1, &corr, &energy);
 537:..\..\..\liblc3\src/sns.c **** 
 538:..\..\..\liblc3\src/sns.c ****     /* --- Add sign and unit energy normalize --- */
 539:..\..\..\liblc3\src/sns.c **** 
 540:..\..\..\liblc3\src/sns.c ****     for (int j = 0; j < 16; j++)
 541:..\..\..\liblc3\src/sns.c ****         for (int i = 0; i < 4; i++)
 542:..\..\..\liblc3\src/sns.c ****             c[i][j] = x[j] < 0 ? -c[i][j] : c[i][j];
 543:..\..\..\liblc3\src/sns.c **** 
 544:..\..\..\liblc3\src/sns.c ****     for (int i = 0; i < 4; i++)
 545:..\..\..\liblc3\src/sns.c ****         normalize(c[i], cn[i]);
 546:..\..\..\liblc3\src/sns.c **** 
 547:..\..\..\liblc3\src/sns.c ****     /* --- Determe shape & gain index ---
 548:..\..\..\liblc3\src/sns.c ****      * Search the Mean Square Error, within (shape, gain) combinations */
 549:..\..\..\liblc3\src/sns.c **** 
 550:..\..\..\liblc3\src/sns.c ****     float mse_min = INFINITY;
 551:..\..\..\liblc3\src/sns.c ****     *shape_idx = *gain_idx = 0;
 552:..\..\..\liblc3\src/sns.c **** 
 553:..\..\..\liblc3\src/sns.c ****     for (int ic = 0; ic < 4; ic++) {
 554:..\..\..\liblc3\src/sns.c ****         const struct lc3_sns_vq_gains *cgains = lc3_sns_vq_gains + ic;
 555:..\..\..\liblc3\src/sns.c ****         float cmse_min = INFINITY;
 556:..\..\..\liblc3\src/sns.c ****         int cgain_idx = 0;
 557:..\..\..\liblc3\src/sns.c **** 
 558:..\..\..\liblc3\src/sns.c ****         for (int ig = 0; ig < cgains->count; ig++) {
 559:..\..\..\liblc3\src/sns.c ****             float g = cgains->v[ig];
 560:..\..\..\liblc3\src/sns.c **** 
 561:..\..\..\liblc3\src/sns.c ****             float mse = 0;
 562:..\..\..\liblc3\src/sns.c ****             for (int i = 0; i < 16; i++)
ARM GAS  C:\Users\rdn\AppData\Local\Temp\ccFEeGTH.s 			page 22


 563:..\..\..\liblc3\src/sns.c ****                 mse += (x[i] - g * cn[ic][i]) * (x[i] - g * cn[ic][i]);
 564:..\..\..\liblc3\src/sns.c **** 
 565:..\..\..\liblc3\src/sns.c ****             if (mse < cmse_min) {
 566:..\..\..\liblc3\src/sns.c ****                 cgain_idx = ig,
 567:..\..\..\liblc3\src/sns.c ****                 cmse_min = mse;
 568:..\..\..\liblc3\src/sns.c ****             }
 569:..\..\..\liblc3\src/sns.c ****         }
 570:..\..\..\liblc3\src/sns.c **** 
 571:..\..\..\liblc3\src/sns.c ****         if (cmse_min < mse_min) {
 572:..\..\..\liblc3\src/sns.c ****             *shape_idx = ic, *gain_idx = cgain_idx;
 573:..\..\..\liblc3\src/sns.c ****             mse_min = cmse_min;
 574:..\..\..\liblc3\src/sns.c ****         }
 575:..\..\..\liblc3\src/sns.c ****     }
 576:..\..\..\liblc3\src/sns.c **** }
 577:..\..\..\liblc3\src/sns.c **** 
 578:..\..\..\liblc3\src/sns.c **** /**
 579:..\..\..\liblc3\src/sns.c ****  * Unquantization of codebooks residual
 580:..\..\..\liblc3\src/sns.c ****  * lf/hfcb_idx     Low and high frequency codebooks index
 581:..\..\..\liblc3\src/sns.c ****  * c               Table of normalized pulse configuration
 582:..\..\..\liblc3\src/sns.c ****  * shape/gain      Selected shape/gain indexes
 583:..\..\..\liblc3\src/sns.c ****  * scf             Return unquantized scale factors
 584:..\..\..\liblc3\src/sns.c ****  */
 585:..\..\..\liblc3\src/sns.c **** LC3_HOT static void unquantize(int lfcb_idx, int hfcb_idx,
 586:..\..\..\liblc3\src/sns.c ****     const float *c, int shape, int gain, float *scf)
 587:..\..\..\liblc3\src/sns.c **** {
 617              		.loc 1 587 0
 618              		.cfi_startproc
 619              		@ args = 8, pretend = 0, frame = 8
 620              		@ frame_needed = 0, uses_anonymous_args = 0
 621              	.LVL93:
 622 0000 F0B5     		push	{r4, r5, r6, r7, lr}
 623              		.cfi_def_cfa_offset 20
 624              		.cfi_offset 4, -20
 625              		.cfi_offset 5, -16
 626              		.cfi_offset 6, -12
 627              		.cfi_offset 7, -8
 628              		.cfi_offset 14, -4
 629 0002 5746     		mov	r7, r10
 630 0004 4E46     		mov	r6, r9
 631 0006 C0B4     		push	{r6, r7}
 632              		.cfi_def_cfa_offset 28
 633              		.cfi_offset 9, -28
 634              		.cfi_offset 10, -24
 635 0008 83B0     		sub	sp, sp, #12
 636              		.cfi_def_cfa_offset 40
 637 000a 0B9E     		ldr	r6, [sp, #44]
 588:..\..\..\liblc3\src/sns.c ****     const float *lfcb = lc3_sns_lfcb[lfcb_idx];
 638              		.loc 1 588 0
 639 000c 4001     		lsls	r0, r0, #5
 640              	.LVL94:
 641 000e 1F4C     		ldr	r4, .L40
 642 0010 8146     		mov	r9, r0
 643 0012 A144     		add	r9, r9, r4
 644              	.LVL95:
 589:..\..\..\liblc3\src/sns.c ****     const float *hfcb = lc3_sns_hfcb[hfcb_idx];
 645              		.loc 1 589 0
 646 0014 4901     		lsls	r1, r1, #5
ARM GAS  C:\Users\rdn\AppData\Local\Temp\ccFEeGTH.s 			page 23


 647              	.LVL96:
 648 0016 1E4F     		ldr	r7, .L40+4
 649 0018 CF19     		adds	r7, r1, r7
 650              	.LVL97:
 590:..\..\..\liblc3\src/sns.c ****     float g = lc3_sns_vq_gains[shape].v[gain];
 651              		.loc 1 590 0
 652 001a DB00     		lsls	r3, r3, #3
 653              	.LVL98:
 654 001c 1D49     		ldr	r1, .L40+8
 655 001e CB18     		adds	r3, r1, r3
 656 0020 5968     		ldr	r1, [r3, #4]
 657 0022 0A9B     		ldr	r3, [sp, #40]
 658 0024 9B00     		lsls	r3, r3, #2
 659 0026 CB58     		ldr	r3, [r1, r3]
 660 0028 0193     		str	r3, [sp, #4]
 661              	.LVL99:
 591:..\..\..\liblc3\src/sns.c **** 
 592:..\..\..\liblc3\src/sns.c ****     dct16_inverse(c, scf);
 662              		.loc 1 592 0
 663 002a 3100     		movs	r1, r6
 664 002c 1000     		movs	r0, r2
 665 002e FFF7FEFF 		bl	dct16_inverse
 666              	.LVL100:
 667              	.LBB63:
 593:..\..\..\liblc3\src/sns.c **** 
 594:..\..\..\liblc3\src/sns.c ****     for (int i = 0; i < 8; i++)
 668              		.loc 1 594 0
 669 0032 0025     		movs	r5, #0
 670 0034 0EE0     		b	.L36
 671              	.LVL101:
 672              	.L37:
 595:..\..\..\liblc3\src/sns.c ****         scf[i] = lfcb[i] + g * scf[i];
 673              		.loc 1 595 0 discriminator 3
 674 0036 AC00     		lsls	r4, r5, #2
 675 0038 4B46     		mov	r3, r9
 676 003a 1B59     		ldr	r3, [r3, r4]
 677 003c 9A46     		mov	r10, r3
 678 003e 3419     		adds	r4, r6, r4
 679 0040 2168     		ldr	r1, [r4]
 680 0042 0198     		ldr	r0, [sp, #4]
 681 0044 FFF7FEFF 		bl	__aeabi_fmul
 682              	.LVL102:
 683 0048 011C     		adds	r1, r0, #0
 684 004a 5046     		mov	r0, r10
 685 004c FFF7FEFF 		bl	__aeabi_fadd
 686              	.LVL103:
 687 0050 2060     		str	r0, [r4]
 594:..\..\..\liblc3\src/sns.c ****         scf[i] = lfcb[i] + g * scf[i];
 688              		.loc 1 594 0 discriminator 3
 689 0052 0135     		adds	r5, r5, #1
 690              	.LVL104:
 691              	.L36:
 594:..\..\..\liblc3\src/sns.c ****         scf[i] = lfcb[i] + g * scf[i];
 692              		.loc 1 594 0 is_stmt 0 discriminator 1
 693 0054 072D     		cmp	r5, #7
 694 0056 EEDD     		ble	.L37
 695 0058 0825     		movs	r5, #8
ARM GAS  C:\Users\rdn\AppData\Local\Temp\ccFEeGTH.s 			page 24


 696              	.LVL105:
 697 005a 10E0     		b	.L38
 698              	.LVL106:
 699              	.L39:
 700              	.LBE63:
 701              	.LBB64:
 596:..\..\..\liblc3\src/sns.c **** 
 597:..\..\..\liblc3\src/sns.c ****     for (int i = 8; i < 16; i++)
 598:..\..\..\liblc3\src/sns.c ****         scf[i] = hfcb[i-8] + g * scf[i];
 702              		.loc 1 598 0 is_stmt 1 discriminator 3
 703 005c AC00     		lsls	r4, r5, #2
 704 005e 0E4B     		ldr	r3, .L40+12
 705 0060 EB18     		adds	r3, r5, r3
 706 0062 9B00     		lsls	r3, r3, #2
 707 0064 DB59     		ldr	r3, [r3, r7]
 708 0066 9946     		mov	r9, r3
 709 0068 3419     		adds	r4, r6, r4
 710 006a 2168     		ldr	r1, [r4]
 711 006c 0198     		ldr	r0, [sp, #4]
 712 006e FFF7FEFF 		bl	__aeabi_fmul
 713              	.LVL107:
 714 0072 011C     		adds	r1, r0, #0
 715 0074 4846     		mov	r0, r9
 716 0076 FFF7FEFF 		bl	__aeabi_fadd
 717              	.LVL108:
 718 007a 2060     		str	r0, [r4]
 597:..\..\..\liblc3\src/sns.c ****         scf[i] = hfcb[i-8] + g * scf[i];
 719              		.loc 1 597 0 discriminator 3
 720 007c 0135     		adds	r5, r5, #1
 721              	.LVL109:
 722              	.L38:
 597:..\..\..\liblc3\src/sns.c ****         scf[i] = hfcb[i-8] + g * scf[i];
 723              		.loc 1 597 0 is_stmt 0 discriminator 1
 724 007e 0F2D     		cmp	r5, #15
 725 0080 ECDD     		ble	.L39
 726              	.LBE64:
 599:..\..\..\liblc3\src/sns.c **** }
 727              		.loc 1 599 0 is_stmt 1
 728 0082 03B0     		add	sp, sp, #12
 729              		@ sp needed
 730              	.LVL110:
 731              	.LVL111:
 732 0084 0CBC     		pop	{r2, r3}
 733 0086 9146     		mov	r9, r2
 734 0088 9A46     		mov	r10, r3
 735 008a F0BD     		pop	{r4, r5, r6, r7, pc}
 736              	.L41:
 737              		.align	2
 738              	.L40:
 739 008c 00000000 		.word	lc3_sns_lfcb
 740 0090 00000000 		.word	lc3_sns_hfcb
 741 0094 00000000 		.word	lc3_sns_vq_gains
 742 0098 F8FFFF3F 		.word	1073741816
 743              		.cfi_endproc
 744              	.LFE27:
 745              		.size	unquantize, .-unquantize
 746              		.section	.text.enum_mvpq,"ax",%progbits
ARM GAS  C:\Users\rdn\AppData\Local\Temp\ccFEeGTH.s 			page 25


 747              		.align	2
 748              		.code	16
 749              		.thumb_func
 750              		.type	enum_mvpq, %function
 751              	enum_mvpq:
 752              	.LFB28:
 600:..\..\..\liblc3\src/sns.c **** 
 601:..\..\..\liblc3\src/sns.c **** /**
 602:..\..\..\liblc3\src/sns.c ****  * Sub-procedure of `sns_enumerate()`, enumeration of a vector
 603:..\..\..\liblc3\src/sns.c ****  * c, n            Table of pulse configuration, and length
 604:..\..\..\liblc3\src/sns.c ****  * idx, ls         Return enumeration set
 605:..\..\..\liblc3\src/sns.c ****  */
 606:..\..\..\liblc3\src/sns.c **** static void enum_mvpq(const int *c, int n, int *idx, bool *ls)
 607:..\..\..\liblc3\src/sns.c **** {
 753              		.loc 1 607 0
 754              		.cfi_startproc
 755              		@ args = 0, pretend = 0, frame = 0
 756              		@ frame_needed = 0, uses_anonymous_args = 0
 757              	.LVL112:
 758 0000 F0B5     		push	{r4, r5, r6, r7, lr}
 759              		.cfi_def_cfa_offset 20
 760              		.cfi_offset 4, -20
 761              		.cfi_offset 5, -16
 762              		.cfi_offset 6, -12
 763              		.cfi_offset 7, -8
 764              		.cfi_offset 14, -4
 765 0002 4746     		mov	r7, r8
 766 0004 80B4     		push	{r7}
 767              		.cfi_def_cfa_offset 24
 768              		.cfi_offset 8, -24
 769 0006 9C46     		mov	ip, r3
 770              	.LVL113:
 608:..\..\..\liblc3\src/sns.c ****     int ci, i;
 609:..\..\..\liblc3\src/sns.c **** 
 610:..\..\..\liblc3\src/sns.c ****     /* --- Scan for 1st significant coeff --- */
 611:..\..\..\liblc3\src/sns.c **** 
 612:..\..\..\liblc3\src/sns.c ****     for (i = 0, c += n; (ci = *(--c)) == 0 && i < 15; i++);
 771              		.loc 1 612 0
 772 0008 8B00     		lsls	r3, r1, #2
 773              	.LVL114:
 774 000a C018     		adds	r0, r0, r3
 775              	.LVL115:
 776 000c 0024     		movs	r4, #0
 777 000e 00E0     		b	.L43
 778              	.LVL116:
 779              	.L45:
 780              		.loc 1 612 0 is_stmt 0 discriminator 4
 781 0010 0134     		adds	r4, r4, #1
 782              	.LVL117:
 783              	.L43:
 784              		.loc 1 612 0 discriminator 1
 785 0012 0438     		subs	r0, r0, #4
 786              	.LVL118:
 787 0014 0768     		ldr	r7, [r0]
 788              	.LVL119:
 789 0016 002F     		cmp	r7, #0
 790 0018 01D1     		bne	.L44
ARM GAS  C:\Users\rdn\AppData\Local\Temp\ccFEeGTH.s 			page 26


 791              		.loc 1 612 0 discriminator 3
 792 001a 0E2C     		cmp	r4, #14
 793 001c F8DD     		ble	.L45
 794              	.L44:
 613:..\..\..\liblc3\src/sns.c **** 
 614:..\..\..\liblc3\src/sns.c ****     *idx = 0;
 795              		.loc 1 614 0 is_stmt 1
 796 001e 0023     		movs	r3, #0
 797 0020 1360     		str	r3, [r2]
 615:..\..\..\liblc3\src/sns.c ****     *ls = ci < 0;
 798              		.loc 1 615 0
 799 0022 FB0F     		lsrs	r3, r7, #31
 800 0024 6546     		mov	r5, ip
 801 0026 2B70     		strb	r3, [r5]
 616:..\..\..\liblc3\src/sns.c **** 
 617:..\..\..\liblc3\src/sns.c ****     /* --- Scan remaining coefficients --- */
 618:..\..\..\liblc3\src/sns.c **** 
 619:..\..\..\liblc3\src/sns.c ****     unsigned j = LC3_ABS(ci);
 802              		.loc 1 619 0
 803 0028 FB17     		asrs	r3, r7, #31
 804 002a FF18     		adds	r7, r7, r3
 805              	.LVL120:
 806 002c 5F40     		eors	r7, r3
 807              	.LVL121:
 620:..\..\..\liblc3\src/sns.c **** 
 621:..\..\..\liblc3\src/sns.c ****     for (i++; i < n; i++, j += LC3_ABS(ci)) {
 808              		.loc 1 621 0
 809 002e 0134     		adds	r4, r4, #1
 810              	.LVL122:
 811 0030 21E0     		b	.L46
 812              	.LVL123:
 813              	.L49:
 622:..\..\..\liblc3\src/sns.c **** 
 623:..\..\..\liblc3\src/sns.c ****         if ((ci = *(--c)) != 0) {
 814              		.loc 1 623 0
 815 0032 0438     		subs	r0, r0, #4
 816              	.LVL124:
 817 0034 0368     		ldr	r3, [r0]
 818              	.LVL125:
 819 0036 002B     		cmp	r3, #0
 820 0038 08D0     		beq	.L47
 624:..\..\..\liblc3\src/sns.c ****             *idx = (*idx << 1) | *ls;
 821              		.loc 1 624 0
 822 003a 1568     		ldr	r5, [r2]
 823 003c 6D00     		lsls	r5, r5, #1
 824 003e 6646     		mov	r6, ip
 825 0040 3678     		ldrb	r6, [r6]
 826 0042 3543     		orrs	r5, r6
 827 0044 1560     		str	r5, [r2]
 625:..\..\..\liblc3\src/sns.c ****             *ls = ci < 0;
 828              		.loc 1 625 0
 829 0046 DD0F     		lsrs	r5, r3, #31
 830 0048 6646     		mov	r6, ip
 831 004a 3570     		strb	r5, [r6]
 832              	.L47:
 626:..\..\..\liblc3\src/sns.c ****         }
 627:..\..\..\liblc3\src/sns.c **** 
ARM GAS  C:\Users\rdn\AppData\Local\Temp\ccFEeGTH.s 			page 27


 628:..\..\..\liblc3\src/sns.c ****         *idx += lc3_sns_mpvq_offsets[i][LC3_MIN(j, 10)];
 833              		.loc 1 628 0 discriminator 2
 834 004c 3E00     		movs	r6, r7
 835 004e 0A2F     		cmp	r7, #10
 836 0050 00D9     		bls	.L48
 837              	.LVL126:
 838 0052 0A26     		movs	r6, #10
 839              	.LVL127:
 840              	.L48:
 841 0054 A500     		lsls	r5, r4, #2
 842 0056 2D19     		adds	r5, r5, r4
 843 0058 6D00     		lsls	r5, r5, #1
 844 005a 2D19     		adds	r5, r5, r4
 845 005c AD19     		adds	r5, r5, r6
 846 005e AD00     		lsls	r5, r5, #2
 847 0060 074E     		ldr	r6, .L50
 848 0062 AD59     		ldr	r5, [r5, r6]
 849 0064 1668     		ldr	r6, [r2]
 850 0066 B046     		mov	r8, r6
 851 0068 4544     		add	r5, r5, r8
 852 006a 1560     		str	r5, [r2]
 621:..\..\..\liblc3\src/sns.c **** 
 853              		.loc 1 621 0 discriminator 2
 854 006c 0134     		adds	r4, r4, #1
 855              	.LVL128:
 856 006e DD17     		asrs	r5, r3, #31
 857 0070 5B19     		adds	r3, r3, r5
 858              	.LVL129:
 859 0072 6B40     		eors	r3, r5
 860 0074 FF18     		adds	r7, r7, r3
 861              	.LVL130:
 862              	.L46:
 621:..\..\..\liblc3\src/sns.c **** 
 863              		.loc 1 621 0 is_stmt 0 discriminator 1
 864 0076 8C42     		cmp	r4, r1
 865 0078 DBDB     		blt	.L49
 629:..\..\..\liblc3\src/sns.c ****     }
 630:..\..\..\liblc3\src/sns.c **** }
 866              		.loc 1 630 0 is_stmt 1
 867              		@ sp needed
 868              	.LVL131:
 869              	.LVL132:
 870 007a 04BC     		pop	{r2}
 871 007c 9046     		mov	r8, r2
 872 007e F0BD     		pop	{r4, r5, r6, r7, pc}
 873              	.L51:
 874              		.align	2
 875              	.L50:
 876 0080 00000000 		.word	lc3_sns_mpvq_offsets
 877              		.cfi_endproc
 878              	.LFE28:
 879              		.size	enum_mvpq, .-enum_mvpq
 880              		.section	.text.deenum_mvpq,"ax",%progbits
 881              		.align	2
 882              		.code	16
 883              		.thumb_func
 884              		.type	deenum_mvpq, %function
ARM GAS  C:\Users\rdn\AppData\Local\Temp\ccFEeGTH.s 			page 28


 885              	deenum_mvpq:
 886              	.LFB29:
 631:..\..\..\liblc3\src/sns.c **** 
 632:..\..\..\liblc3\src/sns.c **** /**
 633:..\..\..\liblc3\src/sns.c ****  * Sub-procedure of `sns_deenumerate()`, deenumeration of a vector
 634:..\..\..\liblc3\src/sns.c ****  * idx, ls         Enumeration set
 635:..\..\..\liblc3\src/sns.c ****  * npulses         Number of pulses in the set
 636:..\..\..\liblc3\src/sns.c ****  * c, n            Table of pulses configuration, and length
 637:..\..\..\liblc3\src/sns.c ****  */
 638:..\..\..\liblc3\src/sns.c **** static void deenum_mvpq(int idx, bool ls, int npulses, int *c, int n)
 639:..\..\..\liblc3\src/sns.c **** {
 887              		.loc 1 639 0
 888              		.cfi_startproc
 889              		@ args = 4, pretend = 0, frame = 0
 890              		@ frame_needed = 0, uses_anonymous_args = 0
 891              	.LVL133:
 892 0000 F0B5     		push	{r4, r5, r6, r7, lr}
 893              		.cfi_def_cfa_offset 20
 894              		.cfi_offset 4, -20
 895              		.cfi_offset 5, -16
 896              		.cfi_offset 6, -12
 897              		.cfi_offset 7, -8
 898              		.cfi_offset 14, -4
 899 0002 8C46     		mov	ip, r1
 640:..\..\..\liblc3\src/sns.c ****     int i;
 641:..\..\..\liblc3\src/sns.c **** 
 642:..\..\..\liblc3\src/sns.c ****     /* --- Scan for coefficients --- */
 643:..\..\..\liblc3\src/sns.c **** 
 644:..\..\..\liblc3\src/sns.c ****     for (i = n-1; i >= 0 && idx; i--) {
 900              		.loc 1 644 0
 901 0004 0599     		ldr	r1, [sp, #20]
 902              	.LVL134:
 903 0006 4D1E     		subs	r5, r1, #1
 904              	.LVL135:
 905 0008 1FE0     		b	.L53
 906              	.LVL136:
 907              	.L54:
 908              	.LBB65:
 645:..\..\..\liblc3\src/sns.c **** 
 646:..\..\..\liblc3\src/sns.c ****         int ci = 0;
 647:..\..\..\liblc3\src/sns.c **** 
 648:..\..\..\liblc3\src/sns.c ****         for (ci = 0; idx < lc3_sns_mpvq_offsets[i][npulses - ci]; ci++);
 909              		.loc 1 648 0 discriminator 3
 910 000a 0136     		adds	r6, r6, #1
 911              	.LVL137:
 912 000c 00E0     		b	.L58
 913              	.LVL138:
 914              	.L64:
 915              	.LBE65:
 916 000e 0026     		movs	r6, #0
 917              	.L58:
 918              	.LVL139:
 919              	.LBB66:
 920              		.loc 1 648 0 is_stmt 0 discriminator 1
 921 0010 971B     		subs	r7, r2, r6
 922 0012 AC00     		lsls	r4, r5, #2
 923 0014 6419     		adds	r4, r4, r5
ARM GAS  C:\Users\rdn\AppData\Local\Temp\ccFEeGTH.s 			page 29


 924 0016 6400     		lsls	r4, r4, #1
 925 0018 6419     		adds	r4, r4, r5
 926 001a E419     		adds	r4, r4, r7
 927 001c A400     		lsls	r4, r4, #2
 928 001e 1749     		ldr	r1, .L67
 929 0020 6458     		ldr	r4, [r4, r1]
 930 0022 A042     		cmp	r0, r4
 931 0024 F1DB     		blt	.L54
 649:..\..\..\liblc3\src/sns.c ****         idx -= lc3_sns_mpvq_offsets[i][npulses - ci];
 932              		.loc 1 649 0 is_stmt 1
 933 0026 001B     		subs	r0, r0, r4
 934              	.LVL140:
 650:..\..\..\liblc3\src/sns.c **** 
 651:..\..\..\liblc3\src/sns.c ****         *(c++) = ls ? -ci : ci;
 935              		.loc 1 651 0
 936 0028 1A1D     		adds	r2, r3, #4
 937              	.LVL141:
 938 002a 6146     		mov	r1, ip
 939 002c 0029     		cmp	r1, #0
 940 002e 01D0     		beq	.L63
 941              		.loc 1 651 0 is_stmt 0 discriminator 1
 942 0030 7442     		rsbs	r4, r6, #0
 943 0032 00E0     		b	.L55
 944              	.L63:
 945              		.loc 1 651 0
 946 0034 3400     		movs	r4, r6
 947              	.L55:
 948              		.loc 1 651 0 discriminator 4
 949 0036 1C60     		str	r4, [r3]
 950              	.LVL142:
 652:..\..\..\liblc3\src/sns.c ****         npulses -= ci;
 653:..\..\..\liblc3\src/sns.c ****         if (ci > 0) {
 951              		.loc 1 653 0 is_stmt 1 discriminator 4
 952 0038 002E     		cmp	r6, #0
 953 003a 03DD     		ble	.L56
 654:..\..\..\liblc3\src/sns.c ****             ls = idx & 1;
 954              		.loc 1 654 0
 955 003c 0121     		movs	r1, #1
 956 003e 0140     		ands	r1, r0
 957 0040 8C46     		mov	ip, r1
 958              	.LVL143:
 655:..\..\..\liblc3\src/sns.c ****             idx >>= 1;
 959              		.loc 1 655 0
 960 0042 4010     		asrs	r0, r0, #1
 961              	.LVL144:
 962              	.L56:
 963              	.LBE66:
 644:..\..\..\liblc3\src/sns.c **** 
 964              		.loc 1 644 0 discriminator 2
 965 0044 013D     		subs	r5, r5, #1
 966              	.LVL145:
 967              	.LBB67:
 651:..\..\..\liblc3\src/sns.c ****         npulses -= ci;
 968              		.loc 1 651 0 discriminator 2
 969 0046 1300     		movs	r3, r2
 652:..\..\..\liblc3\src/sns.c ****         if (ci > 0) {
 970              		.loc 1 652 0 discriminator 2
ARM GAS  C:\Users\rdn\AppData\Local\Temp\ccFEeGTH.s 			page 30


 971 0048 3A00     		movs	r2, r7
 972              	.LVL146:
 973              	.L53:
 974              	.LBE67:
 644:..\..\..\liblc3\src/sns.c **** 
 975              		.loc 1 644 0 discriminator 1
 976 004a 002D     		cmp	r5, #0
 977 004c 01DB     		blt	.L57
 644:..\..\..\liblc3\src/sns.c **** 
 978              		.loc 1 644 0 is_stmt 0 discriminator 3
 979 004e 0028     		cmp	r0, #0
 980 0050 DDD1     		bne	.L64
 981              	.L57:
 982              	.LVL147:
 656:..\..\..\liblc3\src/sns.c ****         }
 657:..\..\..\liblc3\src/sns.c ****     }
 658:..\..\..\liblc3\src/sns.c **** 
 659:..\..\..\liblc3\src/sns.c ****     /* --- Set last significant --- */
 660:..\..\..\liblc3\src/sns.c **** 
 661:..\..\..\liblc3\src/sns.c ****     int ci = npulses;
 662:..\..\..\liblc3\src/sns.c **** 
 663:..\..\..\liblc3\src/sns.c ****     if (i-- >= 0)
 983              		.loc 1 663 0 is_stmt 1
 984 0052 681E     		subs	r0, r5, #1
 985              	.LVL148:
 986 0054 002D     		cmp	r5, #0
 987 0056 06DB     		blt	.L65
 664:..\..\..\liblc3\src/sns.c ****         *(c++) = ls ? -ci : ci;
 988              		.loc 1 664 0
 989 0058 1C1D     		adds	r4, r3, #4
 990              	.LVL149:
 991 005a 6146     		mov	r1, ip
 992 005c 0029     		cmp	r1, #0
 993 005e 00D0     		beq	.L60
 994              		.loc 1 664 0 is_stmt 0 discriminator 1
 995 0060 5242     		rsbs	r2, r2, #0
 996              	.LVL150:
 997              	.L60:
 998              		.loc 1 664 0 discriminator 4
 999 0062 1A60     		str	r2, [r3]
 1000 0064 05E0     		b	.L61
 1001              	.LVL151:
 1002              	.L65:
 1003 0066 1C00     		movs	r4, r3
 1004 0068 03E0     		b	.L61
 1005              	.LVL152:
 1006              	.L62:
 665:..\..\..\liblc3\src/sns.c **** 
 666:..\..\..\liblc3\src/sns.c ****     while (i-- >= 0)
 667:..\..\..\liblc3\src/sns.c ****         *(c++) = 0;
 1007              		.loc 1 667 0 is_stmt 1
 1008 006a 0022     		movs	r2, #0
 1009 006c 2260     		str	r2, [r4]
 666:..\..\..\liblc3\src/sns.c ****         *(c++) = 0;
 1010              		.loc 1 666 0
 1011 006e 1800     		movs	r0, r3
 1012              		.loc 1 667 0
ARM GAS  C:\Users\rdn\AppData\Local\Temp\ccFEeGTH.s 			page 31


 1013 0070 0434     		adds	r4, r4, #4
 1014              	.LVL153:
 1015              	.L61:
 666:..\..\..\liblc3\src/sns.c ****         *(c++) = 0;
 1016              		.loc 1 666 0
 1017 0072 431E     		subs	r3, r0, #1
 1018              	.LVL154:
 1019 0074 0028     		cmp	r0, #0
 1020 0076 F8DA     		bge	.L62
 668:..\..\..\liblc3\src/sns.c **** }
 1021              		.loc 1 668 0
 1022              		@ sp needed
 1023              	.LVL155:
 1024 0078 F0BD     		pop	{r4, r5, r6, r7, pc}
 1025              	.L68:
 1026 007a C046     		.align	2
 1027              	.L67:
 1028 007c 00000000 		.word	lc3_sns_mpvq_offsets
 1029              		.cfi_endproc
 1030              	.LFE29:
 1031              		.size	deenum_mvpq, .-deenum_mvpq
 1032              		.section	.text.enumerate,"ax",%progbits
 1033              		.align	2
 1034              		.code	16
 1035              		.thumb_func
 1036              		.type	enumerate, %function
 1037              	enumerate:
 1038              	.LFB30:
 669:..\..\..\liblc3\src/sns.c **** 
 670:..\..\..\liblc3\src/sns.c **** /**
 671:..\..\..\liblc3\src/sns.c ****  * SNS Enumeration of PVQ configuration
 672:..\..\..\liblc3\src/sns.c ****  * shape           Selected shape index
 673:..\..\..\liblc3\src/sns.c ****  * c               Selected pulse configuration
 674:..\..\..\liblc3\src/sns.c ****  * idx_a, ls_a     Return enumeration set A
 675:..\..\..\liblc3\src/sns.c ****  * idx_b, ls_b     Return enumeration set B (shape = 0)
 676:..\..\..\liblc3\src/sns.c ****  */
 677:..\..\..\liblc3\src/sns.c **** static void enumerate(int shape, const int *c,
 678:..\..\..\liblc3\src/sns.c ****     int *idx_a, bool *ls_a, int *idx_b, bool *ls_b)
 679:..\..\..\liblc3\src/sns.c **** {
 1039              		.loc 1 679 0
 1040              		.cfi_startproc
 1041              		@ args = 8, pretend = 0, frame = 0
 1042              		@ frame_needed = 0, uses_anonymous_args = 0
 1043              	.LVL156:
 1044 0000 70B5     		push	{r4, r5, r6, lr}
 1045              		.cfi_def_cfa_offset 16
 1046              		.cfi_offset 4, -16
 1047              		.cfi_offset 5, -12
 1048              		.cfi_offset 6, -8
 1049              		.cfi_offset 14, -4
 1050 0002 0500     		movs	r5, r0
 1051 0004 0C00     		movs	r4, r1
 680:..\..\..\liblc3\src/sns.c ****     enum_mvpq(c, shape < 2 ? 10 : 16, idx_a, ls_a);
 1052              		.loc 1 680 0
 1053 0006 0128     		cmp	r0, #1
 1054 0008 01DC     		bgt	.L72
 1055 000a 0A21     		movs	r1, #10
ARM GAS  C:\Users\rdn\AppData\Local\Temp\ccFEeGTH.s 			page 32


 1056              	.LVL157:
 1057 000c 00E0     		b	.L70
 1058              	.LVL158:
 1059              	.L72:
 1060 000e 1021     		movs	r1, #16
 1061              	.LVL159:
 1062              	.L70:
 1063              		.loc 1 680 0 is_stmt 0 discriminator 4
 1064 0010 2000     		movs	r0, r4
 1065              	.LVL160:
 1066 0012 FFF7FEFF 		bl	enum_mvpq
 1067              	.LVL161:
 681:..\..\..\liblc3\src/sns.c **** 
 682:..\..\..\liblc3\src/sns.c ****     if (shape == 0)
 1068              		.loc 1 682 0 is_stmt 1 discriminator 4
 1069 0016 002D     		cmp	r5, #0
 1070 0018 06D1     		bne	.L69
 683:..\..\..\liblc3\src/sns.c ****         enum_mvpq(c + 10, 6, idx_b, ls_b);
 1071              		.loc 1 683 0
 1072 001a 2000     		movs	r0, r4
 1073 001c 2830     		adds	r0, r0, #40
 1074 001e 059B     		ldr	r3, [sp, #20]
 1075 0020 049A     		ldr	r2, [sp, #16]
 1076 0022 0621     		movs	r1, #6
 1077 0024 FFF7FEFF 		bl	enum_mvpq
 1078              	.LVL162:
 1079              	.L69:
 684:..\..\..\liblc3\src/sns.c **** }
 1080              		.loc 1 684 0
 1081              		@ sp needed
 1082              	.LVL163:
 1083              	.LVL164:
 1084 0028 70BD     		pop	{r4, r5, r6, pc}
 1085              		.cfi_endproc
 1086              	.LFE30:
 1087              		.size	enumerate, .-enumerate
 1088              		.global	__aeabi_idivmod
 1089              		.global	__aeabi_fdiv
 1090 002a C046     		.section	.text.compute_scale_factors,"ax",%progbits
 1091              		.align	2
 1092              		.code	16
 1093              		.thumb_func
 1094              		.type	compute_scale_factors, %function
 1095              	compute_scale_factors:
 1096              	.LFB22:
 157:..\..\..\liblc3\src/sns.c ****     /* Pre-emphasis gain table :
 1097              		.loc 1 157 0
 1098              		.cfi_startproc
 1099              		@ args = 8, pretend = 0, frame = 280
 1100              		@ frame_needed = 0, uses_anonymous_args = 0
 1101              	.LVL165:
 1102 0000 F0B5     		push	{r4, r5, r6, r7, lr}
 1103              		.cfi_def_cfa_offset 20
 1104              		.cfi_offset 4, -20
 1105              		.cfi_offset 5, -16
 1106              		.cfi_offset 6, -12
 1107              		.cfi_offset 7, -8
ARM GAS  C:\Users\rdn\AppData\Local\Temp\ccFEeGTH.s 			page 33


 1108              		.cfi_offset 14, -4
 1109 0002 5F46     		mov	r7, fp
 1110 0004 5646     		mov	r6, r10
 1111 0006 4D46     		mov	r5, r9
 1112 0008 4446     		mov	r4, r8
 1113 000a F0B4     		push	{r4, r5, r6, r7}
 1114              		.cfi_def_cfa_offset 36
 1115              		.cfi_offset 8, -36
 1116              		.cfi_offset 9, -32
 1117              		.cfi_offset 10, -28
 1118              		.cfi_offset 11, -24
 1119 000c C7B0     		sub	sp, sp, #284
 1120              		.cfi_def_cfa_offset 320
 1121 000e 8346     		mov	fp, r0
 1122 0010 8946     		mov	r9, r1
 1123 0012 0492     		str	r2, [sp, #16]
 1124 0014 1C00     		movs	r4, r3
 1125 0016 50AB     		add	r3, sp, #320
 1126              	.LVL166:
 1127 0018 1B78     		ldrb	r3, [r3]
 1128              	.LVL167:
 1129 001a 0393     		str	r3, [sp, #12]
 1130 001c 519B     		ldr	r3, [sp, #324]
 1131 001e 9846     		mov	r8, r3
 288:..\..\..\liblc3\src/sns.c ****     int n4 = nb < 32 ? 32 % nb : 0;
 1132              		.loc 1 288 0
 1133 0020 C300     		lsls	r3, r0, #3
 1134 0022 1B1A     		subs	r3, r3, r0
 1135 0024 4B44     		add	r3, r3, r9
 1136 0026 9B00     		lsls	r3, r3, #2
 1137 0028 E94A     		ldr	r2, .L105
 1138              	.LVL168:
 1139 002a 9D58     		ldr	r5, [r3, r2]
 1140              	.LVL169:
 289:..\..\..\liblc3\src/sns.c ****     int n2 = nb < 32 ? nb - n4 : LC3_MAX_BANDS - nb;
 1141              		.loc 1 289 0
 1142 002c 1F2D     		cmp	r5, #31
 1143 002e 05DC     		bgt	.L100
 289:..\..\..\liblc3\src/sns.c ****     int n2 = nb < 32 ? nb - n4 : LC3_MAX_BANDS - nb;
 1144              		.loc 1 289 0 is_stmt 0 discriminator 1
 1145 0030 2900     		movs	r1, r5
 1146              	.LVL170:
 1147 0032 2020     		movs	r0, #32
 1148              	.LVL171:
 1149 0034 FFF7FEFF 		bl	__aeabi_idivmod
 1150              	.LVL172:
 1151 0038 0B00     		movs	r3, r1
 1152 003a 00E0     		b	.L74
 1153              	.LVL173:
 1154              	.L100:
 289:..\..\..\liblc3\src/sns.c ****     int n2 = nb < 32 ? nb - n4 : LC3_MAX_BANDS - nb;
 1155              		.loc 1 289 0
 1156 003c 0023     		movs	r3, #0
 1157              	.LVL174:
 1158              	.L74:
 290:..\..\..\liblc3\src/sns.c **** 
 1159              		.loc 1 290 0 is_stmt 1 discriminator 4
ARM GAS  C:\Users\rdn\AppData\Local\Temp\ccFEeGTH.s 			page 34


 1160 003e 1F2D     		cmp	r5, #31
 1161 0040 02DC     		bgt	.L75
 290:..\..\..\liblc3\src/sns.c **** 
 1162              		.loc 1 290 0 is_stmt 0 discriminator 1
 1163 0042 EA1A     		subs	r2, r5, r3
 1164 0044 9446     		mov	ip, r2
 1165 0046 02E0     		b	.L76
 1166              	.L75:
 290:..\..\..\liblc3\src/sns.c **** 
 1167              		.loc 1 290 0 discriminator 2
 1168 0048 4022     		movs	r2, #64
 1169 004a 521B     		subs	r2, r2, r5
 1170 004c 9446     		mov	ip, r2
 1171              	.L76:
 1172              	.LVL175:
 1173              	.LBB68:
 292:..\..\..\liblc3\src/sns.c ****         e[4*i4 + 0] = e[4*i4 + 1] =
 1174              		.loc 1 292 0 is_stmt 1 discriminator 4
 1175 004e 0022     		movs	r2, #0
 1176 0050 AA46     		mov	r10, r5
 1177 0052 0EE0     		b	.L77
 1178              	.LVL176:
 1179              	.L78:
 293:..\..\..\liblc3\src/sns.c ****         e[4*i4 + 2] = e[4*i4 + 3] = eb[i4];
 1180              		.loc 1 293 0 discriminator 3
 1181 0054 9100     		lsls	r1, r2, #2
 1182 0056 481C     		adds	r0, r1, #1
 294:..\..\..\liblc3\src/sns.c **** 
 1183              		.loc 1 294 0 discriminator 3
 1184 0058 8E1C     		adds	r6, r1, #2
 1185 005a CF1C     		adds	r7, r1, #3
 1186 005c 0959     		ldr	r1, [r1, r4]
 1187 005e BF00     		lsls	r7, r7, #2
 1188 0060 06AD     		add	r5, sp, #24
 1189 0062 7951     		str	r1, [r7, r5]
 1190 0064 B600     		lsls	r6, r6, #2
 1191 0066 7151     		str	r1, [r6, r5]
 293:..\..\..\liblc3\src/sns.c ****         e[4*i4 + 2] = e[4*i4 + 3] = eb[i4];
 1192              		.loc 1 293 0 discriminator 3
 1193 0068 8000     		lsls	r0, r0, #2
 1194 006a 4151     		str	r1, [r0, r5]
 1195 006c 1001     		lsls	r0, r2, #4
 1196 006e 4151     		str	r1, [r0, r5]
 292:..\..\..\liblc3\src/sns.c ****         e[4*i4 + 0] = e[4*i4 + 1] =
 1197              		.loc 1 292 0 discriminator 3
 1198 0070 0132     		adds	r2, r2, #1
 1199              	.LVL177:
 1200              	.L77:
 292:..\..\..\liblc3\src/sns.c ****         e[4*i4 + 0] = e[4*i4 + 1] =
 1201              		.loc 1 292 0 is_stmt 0 discriminator 1
 1202 0072 9A42     		cmp	r2, r3
 1203 0074 EEDB     		blt	.L78
 1204 0076 1800     		movs	r0, r3
 1205 0078 6746     		mov	r7, ip
 1206 007a 0AE0     		b	.L79
 1207              	.LVL178:
 1208              	.L80:
ARM GAS  C:\Users\rdn\AppData\Local\Temp\ccFEeGTH.s 			page 35


 1209              	.LBE68:
 1210              	.LBB69:
 297:..\..\..\liblc3\src/sns.c **** 
 1211              		.loc 1 297 0 is_stmt 1 discriminator 3
 1212 007c C118     		adds	r1, r0, r3
 1213 007e 4A00     		lsls	r2, r1, #1
 1214 0080 0132     		adds	r2, r2, #1
 1215 0082 8600     		lsls	r6, r0, #2
 1216 0084 3659     		ldr	r6, [r6, r4]
 1217 0086 9200     		lsls	r2, r2, #2
 1218 0088 06AD     		add	r5, sp, #24
 1219 008a 5651     		str	r6, [r2, r5]
 1220 008c C900     		lsls	r1, r1, #3
 1221 008e 4E51     		str	r6, [r1, r5]
 296:..\..\..\liblc3\src/sns.c ****         e[2*(n4+i2) + 0] = e[2*(n4+i2) + 1] = eb[i2];
 1222              		.loc 1 296 0 discriminator 3
 1223 0090 0130     		adds	r0, r0, #1
 1224              	.LVL179:
 1225              	.L79:
 296:..\..\..\liblc3\src/sns.c ****         e[2*(n4+i2) + 0] = e[2*(n4+i2) + 1] = eb[i2];
 1226              		.loc 1 296 0 is_stmt 0 discriminator 1
 1227 0092 DA19     		adds	r2, r3, r7
 1228 0094 9042     		cmp	r0, r2
 1229 0096 F1DB     		blt	.L80
 1230 0098 5546     		mov	r5, r10
 1231              	.LBE69:
 299:..\..\..\liblc3\src/sns.c **** 
 1232              		.loc 1 299 0 is_stmt 1
 1233 009a 1801     		lsls	r0, r3, #4
 1234              	.LVL180:
 1235 009c FA00     		lsls	r2, r7, #3
 1236 009e 8018     		adds	r0, r0, r2
 1237 00a0 06AA     		add	r2, sp, #24
 1238 00a2 9246     		mov	r10, r2
 1239              	.LVL181:
 1240 00a4 5044     		add	r0, r0, r10
 1241 00a6 D919     		adds	r1, r3, r7
 1242 00a8 8900     		lsls	r1, r1, #2
 1243 00aa 6118     		adds	r1, r4, r1
 1244 00ac EA1A     		subs	r2, r5, r3
 1245 00ae D21B     		subs	r2, r2, r7
 1246 00b0 9200     		lsls	r2, r2, #2
 1247 00b2 FFF7FEFF 		bl	memcpy
 1248              	.LVL182:
 303:..\..\..\liblc3\src/sns.c **** 
 1249              		.loc 1 303 0
 1250 00b6 4B46     		mov	r3, r9
 1251 00b8 9B00     		lsls	r3, r3, #2
 1252 00ba C64A     		ldr	r2, .L105+4
 1253 00bc 9C58     		ldr	r4, [r3, r2]
 1254              	.LVL183:
 305:..\..\..\liblc3\src/sns.c ****     float e_sum = 0;
 1255              		.loc 1 305 0
 1256 00be 069B     		ldr	r3, [sp, #24]
 1257              	.LVL184:
 1258 00c0 0093     		str	r3, [sp]
 1259              	.LBB70:
ARM GAS  C:\Users\rdn\AppData\Local\Temp\ccFEeGTH.s 			page 36


 308:..\..\..\liblc3\src/sns.c ****         e[i] = (e0 * 0.25f + e1 * 0.5f + (e2 = e[i+1]) * 0.25f) * ge[i];
 1260              		.loc 1 308 0
 1261 00c2 0026     		movs	r6, #0
 1262              	.LBE70:
 306:..\..\..\liblc3\src/sns.c **** 
 1263              		.loc 1 306 0
 1264 00c4 0022     		movs	r2, #0
 1265 00c6 0192     		str	r2, [sp, #4]
 1266 00c8 1D1C     		adds	r5, r3, #0
 1267 00ca 2700     		movs	r7, r4
 1268              	.LVL185:
 1269              	.LBB71:
 308:..\..\..\liblc3\src/sns.c ****         e[i] = (e0 * 0.25f + e1 * 0.5f + (e2 = e[i+1]) * 0.25f) * ge[i];
 1270              		.loc 1 308 0
 1271 00cc 75E0     		b	.L81
 1272              	.LVL186:
 1273              	.L82:
 309:..\..\..\liblc3\src/sns.c ****         e_sum += e[i++];
 1274              		.loc 1 309 0
 1275 00ce FA21     		movs	r1, #250
 1276 00d0 8905     		lsls	r1, r1, #22
 1277 00d2 281C     		adds	r0, r5, #0
 1278 00d4 FFF7FEFF 		bl	__aeabi_fmul
 1279              	.LVL187:
 1280 00d8 051C     		adds	r5, r0, #0
 1281              	.LVL188:
 1282 00da FC21     		movs	r1, #252
 1283 00dc 8905     		lsls	r1, r1, #22
 1284 00de 0098     		ldr	r0, [sp]
 1285 00e0 FFF7FEFF 		bl	__aeabi_fmul
 1286              	.LVL189:
 1287 00e4 011C     		adds	r1, r0, #0
 1288 00e6 281C     		adds	r0, r5, #0
 1289 00e8 FFF7FEFF 		bl	__aeabi_fadd
 1290              	.LVL190:
 1291 00ec 041C     		adds	r4, r0, #0
 1292 00ee 731C     		adds	r3, r6, #1
 1293 00f0 9B00     		lsls	r3, r3, #2
 1294 00f2 9A46     		mov	r10, r3
 1295 00f4 06AB     		add	r3, sp, #24
 1296 00f6 5246     		mov	r2, r10
 1297 00f8 D558     		ldr	r5, [r2, r3]
 1298              	.LVL191:
 1299 00fa FA21     		movs	r1, #250
 1300 00fc 8905     		lsls	r1, r1, #22
 1301 00fe 281C     		adds	r0, r5, #0
 1302 0100 FFF7FEFF 		bl	__aeabi_fmul
 1303              	.LVL192:
 1304 0104 0290     		str	r0, [sp, #8]
 1305 0106 011C     		adds	r1, r0, #0
 1306 0108 201C     		adds	r0, r4, #0
 1307 010a FFF7FEFF 		bl	__aeabi_fadd
 1308              	.LVL193:
 1309 010e B400     		lsls	r4, r6, #2
 1310 0110 E159     		ldr	r1, [r4, r7]
 1311 0112 FFF7FEFF 		bl	__aeabi_fmul
 1312              	.LVL194:
ARM GAS  C:\Users\rdn\AppData\Local\Temp\ccFEeGTH.s 			page 37


 1313 0116 011C     		adds	r1, r0, #0
 1314 0118 06AA     		add	r2, sp, #24
 1315 011a A050     		str	r0, [r4, r2]
 1316              	.LVL195:
 310:..\..\..\liblc3\src/sns.c **** 
 1317              		.loc 1 310 0
 1318 011c 0198     		ldr	r0, [sp, #4]
 1319 011e FFF7FEFF 		bl	__aeabi_fadd
 1320              	.LVL196:
 1321 0122 0190     		str	r0, [sp, #4]
 1322              	.LVL197:
 312:..\..\..\liblc3\src/sns.c ****         e_sum += e[i++];
 1323              		.loc 1 312 0
 1324 0124 FA21     		movs	r1, #250
 1325 0126 8905     		lsls	r1, r1, #22
 1326 0128 0098     		ldr	r0, [sp]
 1327              	.LVL198:
 1328 012a FFF7FEFF 		bl	__aeabi_fmul
 1329              	.LVL199:
 1330 012e 041C     		adds	r4, r0, #0
 1331 0130 FC21     		movs	r1, #252
 1332 0132 8905     		lsls	r1, r1, #22
 1333 0134 281C     		adds	r0, r5, #0
 1334 0136 FFF7FEFF 		bl	__aeabi_fmul
 1335              	.LVL200:
 1336 013a 011C     		adds	r1, r0, #0
 1337 013c 201C     		adds	r0, r4, #0
 1338 013e FFF7FEFF 		bl	__aeabi_fadd
 1339              	.LVL201:
 1340 0142 0090     		str	r0, [sp]
 1341              	.LVL202:
 1342 0144 B31C     		adds	r3, r6, #2
 1343 0146 9C00     		lsls	r4, r3, #2
 1344 0148 06AA     		add	r2, sp, #24
 1345 014a A558     		ldr	r5, [r4, r2]
 1346              	.LVL203:
 1347 014c FA21     		movs	r1, #250
 1348 014e 8905     		lsls	r1, r1, #22
 1349 0150 281C     		adds	r0, r5, #0
 1350 0152 FFF7FEFF 		bl	__aeabi_fmul
 1351              	.LVL204:
 1352 0156 011C     		adds	r1, r0, #0
 1353 0158 0098     		ldr	r0, [sp]
 1354 015a FFF7FEFF 		bl	__aeabi_fadd
 1355              	.LVL205:
 1356 015e 5246     		mov	r2, r10
 1357 0160 D159     		ldr	r1, [r2, r7]
 1358 0162 FFF7FEFF 		bl	__aeabi_fmul
 1359              	.LVL206:
 1360 0166 011C     		adds	r1, r0, #0
 1361 0168 06AA     		add	r2, sp, #24
 1362 016a 5346     		mov	r3, r10
 1363 016c 9850     		str	r0, [r3, r2]
 1364              	.LVL207:
 313:..\..\..\liblc3\src/sns.c **** 
 1365              		.loc 1 313 0
 1366 016e 0198     		ldr	r0, [sp, #4]
ARM GAS  C:\Users\rdn\AppData\Local\Temp\ccFEeGTH.s 			page 38


 1367 0170 FFF7FEFF 		bl	__aeabi_fadd
 1368              	.LVL208:
 1369 0174 0190     		str	r0, [sp, #4]
 1370              	.LVL209:
 315:..\..\..\liblc3\src/sns.c ****         e_sum += e[i++];
 1371              		.loc 1 315 0
 1372 0176 FC21     		movs	r1, #252
 1373 0178 8905     		lsls	r1, r1, #22
 1374 017a 281C     		adds	r0, r5, #0
 1375              	.LVL210:
 1376 017c FFF7FEFF 		bl	__aeabi_fmul
 1377              	.LVL211:
 1378 0180 011C     		adds	r1, r0, #0
 1379 0182 0298     		ldr	r0, [sp, #8]
 1380 0184 FFF7FEFF 		bl	__aeabi_fadd
 1381              	.LVL212:
 1382 0188 0290     		str	r0, [sp, #8]
 1383 018a 0336     		adds	r6, r6, #3
 1384              	.LVL213:
 1385 018c B300     		lsls	r3, r6, #2
 1386 018e 06AA     		add	r2, sp, #24
 1387 0190 9B58     		ldr	r3, [r3, r2]
 1388 0192 0093     		str	r3, [sp]
 1389              	.LVL214:
 1390 0194 FA21     		movs	r1, #250
 1391 0196 8905     		lsls	r1, r1, #22
 1392 0198 181C     		adds	r0, r3, #0
 1393 019a FFF7FEFF 		bl	__aeabi_fmul
 1394              	.LVL215:
 1395 019e 011C     		adds	r1, r0, #0
 1396 01a0 0298     		ldr	r0, [sp, #8]
 1397 01a2 FFF7FEFF 		bl	__aeabi_fadd
 1398              	.LVL216:
 1399 01a6 E159     		ldr	r1, [r4, r7]
 1400 01a8 FFF7FEFF 		bl	__aeabi_fmul
 1401              	.LVL217:
 1402 01ac 011C     		adds	r1, r0, #0
 1403 01ae 06AB     		add	r3, sp, #24
 1404 01b0 E050     		str	r0, [r4, r3]
 1405              	.LVL218:
 316:..\..\..\liblc3\src/sns.c ****     }
 1406              		.loc 1 316 0
 1407 01b2 0198     		ldr	r0, [sp, #4]
 1408 01b4 FFF7FEFF 		bl	__aeabi_fadd
 1409              	.LVL219:
 1410 01b8 0190     		str	r0, [sp, #4]
 1411              	.LVL220:
 1412              	.L81:
 308:..\..\..\liblc3\src/sns.c ****         e[i] = (e0 * 0.25f + e1 * 0.5f + (e2 = e[i+1]) * 0.25f) * ge[i];
 1413              		.loc 1 308 0 discriminator 1
 1414 01ba 3E2E     		cmp	r6, #62
 1415 01bc 87DD     		ble	.L82
 1416 01be 281C     		adds	r0, r5, #0
 1417              	.LBE71:
 319:..\..\..\liblc3\src/sns.c ****     e_sum += e[LC3_MAX_BANDS-1];
 1418              		.loc 1 319 0
 1419 01c0 FA21     		movs	r1, #250
ARM GAS  C:\Users\rdn\AppData\Local\Temp\ccFEeGTH.s 			page 39


 1420 01c2 8905     		lsls	r1, r1, #22
 1421 01c4 FFF7FEFF 		bl	__aeabi_fmul
 1422              	.LVL221:
 1423 01c8 051C     		adds	r5, r0, #0
 1424              	.LVL222:
 1425 01ca FD21     		movs	r1, #253
 1426 01cc 8905     		lsls	r1, r1, #22
 1427 01ce 0098     		ldr	r0, [sp]
 1428 01d0 FFF7FEFF 		bl	__aeabi_fmul
 1429              	.LVL223:
 1430 01d4 011C     		adds	r1, r0, #0
 1431 01d6 281C     		adds	r0, r5, #0
 1432 01d8 FFF7FEFF 		bl	__aeabi_fadd
 1433              	.LVL224:
 1434 01dc FC25     		movs	r5, #252
 1435 01de 7959     		ldr	r1, [r7, r5]
 1436 01e0 FFF7FEFF 		bl	__aeabi_fmul
 1437              	.LVL225:
 1438 01e4 011C     		adds	r1, r0, #0
 1439 01e6 06AB     		add	r3, sp, #24
 1440 01e8 5851     		str	r0, [r3, r5]
 320:..\..\..\liblc3\src/sns.c **** 
 1441              		.loc 1 320 0
 1442 01ea 0198     		ldr	r0, [sp, #4]
 1443 01ec FFF7FEFF 		bl	__aeabi_fadd
 1444              	.LVL226:
 322:..\..\..\liblc3\src/sns.c **** 
 1445              		.loc 1 322 0
 1446 01f0 7949     		ldr	r1, .L105+8
 1447 01f2 FFF7FEFF 		bl	__aeabi_fmul
 1448              	.LVL227:
 1449 01f6 BE21     		movs	r1, #190
 1450 01f8 8905     		lsls	r1, r1, #22
 1451 01fa FFF7FEFF 		bl	fmaxf
 1452              	.LVL228:
 1453 01fe 0190     		str	r0, [sp, #4]
 1454              	.LVL229:
 1455              	.LBB72:
 324:..\..\..\liblc3\src/sns.c ****         e[i] = lc3_log2f(fmaxf(e[i], noise_floor)) * 0.5f;
 1456              		.loc 1 324 0
 1457 0200 0027     		movs	r7, #0
 1458              	.LVL230:
 1459 0202 3BE0     		b	.L83
 1460              	.LVL231:
 1461              	.L84:
 325:..\..\..\liblc3\src/sns.c **** 
 1462              		.loc 1 325 0 discriminator 3
 1463 0204 BE00     		lsls	r6, r7, #2
 1464 0206 06AB     		add	r3, sp, #24
 1465 0208 F358     		ldr	r3, [r6, r3]
 1466 020a 0093     		str	r3, [sp]
 1467 020c 0199     		ldr	r1, [sp, #4]
 1468 020e 181C     		adds	r0, r3, #0
 1469 0210 FFF7FEFF 		bl	fmaxf
 1470              	.LVL232:
 1471              	.LBB73:
 1472              	.LBB74:
ARM GAS  C:\Users\rdn\AppData\Local\Temp\ccFEeGTH.s 			page 40


 1473              	.LBB75:
 1474              	.LBB76:
 1475              		.file 2 "..\\..\\..\\liblc3\\src\\fastmath.h"
   1:..\..\..\liblc3\src/fastmath.h **** /******************************************************************************
   2:..\..\..\liblc3\src/fastmath.h ****  *
   3:..\..\..\liblc3\src/fastmath.h ****  *  Copyright 2022 Google LLC
   4:..\..\..\liblc3\src/fastmath.h ****  *
   5:..\..\..\liblc3\src/fastmath.h ****  *  Licensed under the Apache License, Version 2.0 (the "License");
   6:..\..\..\liblc3\src/fastmath.h ****  *  you may not use this file except in compliance with the License.
   7:..\..\..\liblc3\src/fastmath.h ****  *  You may obtain a copy of the License at:
   8:..\..\..\liblc3\src/fastmath.h ****  *
   9:..\..\..\liblc3\src/fastmath.h ****  *  http://www.apache.org/licenses/LICENSE-2.0
  10:..\..\..\liblc3\src/fastmath.h ****  *
  11:..\..\..\liblc3\src/fastmath.h ****  *  Unless required by applicable law or agreed to in writing, software
  12:..\..\..\liblc3\src/fastmath.h ****  *  distributed under the License is distributed on an "AS IS" BASIS,
  13:..\..\..\liblc3\src/fastmath.h ****  *  WITHOUT WARRANTIES OR CONDITIONS OF ANY KIND, either express or implied.
  14:..\..\..\liblc3\src/fastmath.h ****  *  See the License for the specific language governing permissions and
  15:..\..\..\liblc3\src/fastmath.h ****  *  limitations under the License.
  16:..\..\..\liblc3\src/fastmath.h ****  *
  17:..\..\..\liblc3\src/fastmath.h ****  ******************************************************************************/
  18:..\..\..\liblc3\src/fastmath.h **** 
  19:..\..\..\liblc3\src/fastmath.h **** #ifndef __LC3_FASTMATH_H
  20:..\..\..\liblc3\src/fastmath.h **** #define __LC3_FASTMATH_H
  21:..\..\..\liblc3\src/fastmath.h **** 
  22:..\..\..\liblc3\src/fastmath.h **** #include <stdint.h>
  23:..\..\..\liblc3\src/fastmath.h **** #include <math.h>
  24:..\..\..\liblc3\src/fastmath.h **** 
  25:..\..\..\liblc3\src/fastmath.h **** 
  26:..\..\..\liblc3\src/fastmath.h **** /**
  27:..\..\..\liblc3\src/fastmath.h ****  * IEEE 754 Floating point representation
  28:..\..\..\liblc3\src/fastmath.h ****  */
  29:..\..\..\liblc3\src/fastmath.h **** 
  30:..\..\..\liblc3\src/fastmath.h **** #define LC3_IEEE754_SIGN_SHL   (31)
  31:..\..\..\liblc3\src/fastmath.h **** #define LC3_IEEE754_SIGN_MASK  (1 << LC3_IEEE754_SIGN_SHL)
  32:..\..\..\liblc3\src/fastmath.h **** 
  33:..\..\..\liblc3\src/fastmath.h **** #define LC3_IEEE754_EXP_SHL    (23)
  34:..\..\..\liblc3\src/fastmath.h **** #define LC3_IEEE754_EXP_MASK   (0xff << LC3_IEEE754_EXP_SHL)
  35:..\..\..\liblc3\src/fastmath.h **** #define LC3_IEEE754_EXP_BIAS   (127)
  36:..\..\..\liblc3\src/fastmath.h **** 
  37:..\..\..\liblc3\src/fastmath.h **** 
  38:..\..\..\liblc3\src/fastmath.h **** /**
  39:..\..\..\liblc3\src/fastmath.h ****  * Fast multiply floating-point number by integral power of 2
  40:..\..\..\liblc3\src/fastmath.h ****  * x               Operand, finite number
  41:..\..\..\liblc3\src/fastmath.h ****  * exp             Exponent such that 2^x is finite
  42:..\..\..\liblc3\src/fastmath.h ****  * return          2^exp
  43:..\..\..\liblc3\src/fastmath.h ****  */
  44:..\..\..\liblc3\src/fastmath.h **** static inline float lc3_ldexpf(float _x, int exp) {
  45:..\..\..\liblc3\src/fastmath.h ****     union { float f; int32_t s; } x = { .f = _x };
  46:..\..\..\liblc3\src/fastmath.h **** 
  47:..\..\..\liblc3\src/fastmath.h ****     if (x.s & LC3_IEEE754_EXP_MASK)
  48:..\..\..\liblc3\src/fastmath.h ****         x.s += exp << LC3_IEEE754_EXP_SHL;
  49:..\..\..\liblc3\src/fastmath.h **** 
  50:..\..\..\liblc3\src/fastmath.h ****     return x.f;
  51:..\..\..\liblc3\src/fastmath.h **** }
  52:..\..\..\liblc3\src/fastmath.h **** 
  53:..\..\..\liblc3\src/fastmath.h **** /**
  54:..\..\..\liblc3\src/fastmath.h ****  * Fast convert floating-point number to fractional and integral components
ARM GAS  C:\Users\rdn\AppData\Local\Temp\ccFEeGTH.s 			page 41


  55:..\..\..\liblc3\src/fastmath.h ****  * x               Operand, finite number
  56:..\..\..\liblc3\src/fastmath.h ****  * exp             Return the exponent part
  57:..\..\..\liblc3\src/fastmath.h ****  * return          The normalized fraction in [0.5:1[
  58:..\..\..\liblc3\src/fastmath.h ****  */
  59:..\..\..\liblc3\src/fastmath.h **** static inline float lc3_frexpf(float _x, int *exp) {
  60:..\..\..\liblc3\src/fastmath.h ****     union { float f; uint32_t u; } x = { .f = _x };
  61:..\..\..\liblc3\src/fastmath.h **** 
  62:..\..\..\liblc3\src/fastmath.h ****     int e = (x.u & LC3_IEEE754_EXP_MASK) >> LC3_IEEE754_EXP_SHL;
 1476              		.loc 2 62 0 discriminator 3
 1477 0214 C30D     		lsrs	r3, r0, #23
 1478 0216 FF25     		movs	r5, #255
 1479 0218 1D40     		ands	r5, r3
 1480              	.LVL233:
  63:..\..\..\liblc3\src/fastmath.h ****     *exp = e - (LC3_IEEE754_EXP_BIAS - 1);
 1481              		.loc 2 63 0 discriminator 3
 1482 021a 7E3D     		subs	r5, r5, #126
 1483              	.LVL234:
  64:..\..\..\liblc3\src/fastmath.h **** 
  65:..\..\..\liblc3\src/fastmath.h ****     x.u = (x.u & ~LC3_IEEE754_EXP_MASK) |
 1484              		.loc 2 65 0 discriminator 3
 1485 021c 6F4C     		ldr	r4, .L105+12
 1486 021e 2040     		ands	r0, r4
 1487              	.LVL235:
 1488 0220 FC24     		movs	r4, #252
 1489 0222 A405     		lsls	r4, r4, #22
 1490 0224 0443     		orrs	r4, r0
 1491              	.LVL236:
 1492              	.LBE76:
 1493              	.LBE75:
  66:..\..\..\liblc3\src/fastmath.h ****         ((LC3_IEEE754_EXP_BIAS - 1) << LC3_IEEE754_EXP_SHL);
  67:..\..\..\liblc3\src/fastmath.h **** 
  68:..\..\..\liblc3\src/fastmath.h ****     return x.f;
  69:..\..\..\liblc3\src/fastmath.h **** }
  70:..\..\..\liblc3\src/fastmath.h **** 
  71:..\..\..\liblc3\src/fastmath.h **** /**
  72:..\..\..\liblc3\src/fastmath.h ****  * Fast 2^n approximation
  73:..\..\..\liblc3\src/fastmath.h ****  * x               Operand, range -100 to 100
  74:..\..\..\liblc3\src/fastmath.h ****  * return          2^x approximation (max relative error ~ 4e-7)
  75:..\..\..\liblc3\src/fastmath.h ****  */
  76:..\..\..\liblc3\src/fastmath.h **** static inline float lc3_exp2f(float x)
  77:..\..\..\liblc3\src/fastmath.h **** {
  78:..\..\..\liblc3\src/fastmath.h ****     /* --- 2^(i/8) for i from 0 to 7 --- */
  79:..\..\..\liblc3\src/fastmath.h **** 
  80:..\..\..\liblc3\src/fastmath.h ****     static const float e[] = {
  81:..\..\..\liblc3\src/fastmath.h ****         1.00000000e+00, 1.09050773e+00, 1.18920712e+00, 1.29683955e+00,
  82:..\..\..\liblc3\src/fastmath.h ****         1.41421356e+00, 1.54221083e+00, 1.68179283e+00, 1.83400809e+00 };
  83:..\..\..\liblc3\src/fastmath.h **** 
  84:..\..\..\liblc3\src/fastmath.h ****     /* --- Polynomial approx in range 0 to 1/8 --- */
  85:..\..\..\liblc3\src/fastmath.h **** 
  86:..\..\..\liblc3\src/fastmath.h ****     static const float p[] = {
  87:..\..\..\liblc3\src/fastmath.h ****         1.00448128e-02, 5.54563260e-02, 2.40228756e-01, 6.93147140e-01 };
  88:..\..\..\liblc3\src/fastmath.h **** 
  89:..\..\..\liblc3\src/fastmath.h ****     /* --- Split the operand ---
  90:..\..\..\liblc3\src/fastmath.h ****      *
  91:..\..\..\liblc3\src/fastmath.h ****      * Such as x = k/8 + y, with k an integer, and |y| < 0.5/8
  92:..\..\..\liblc3\src/fastmath.h ****      *
  93:..\..\..\liblc3\src/fastmath.h ****      * Note that `fast-math` compiler option leads to rounding error,
ARM GAS  C:\Users\rdn\AppData\Local\Temp\ccFEeGTH.s 			page 42


  94:..\..\..\liblc3\src/fastmath.h ****      * disable optimisation with `volatile`. */
  95:..\..\..\liblc3\src/fastmath.h **** 
  96:..\..\..\liblc3\src/fastmath.h ****     volatile union { float f; int32_t s; } v;
  97:..\..\..\liblc3\src/fastmath.h **** 
  98:..\..\..\liblc3\src/fastmath.h ****     v.f = x + 0x1.8p20f;
  99:..\..\..\liblc3\src/fastmath.h ****     int k = v.s;
 100:..\..\..\liblc3\src/fastmath.h ****     x -= v.f - 0x1.8p20f;
 101:..\..\..\liblc3\src/fastmath.h **** 
 102:..\..\..\liblc3\src/fastmath.h ****     /* --- Compute 2^x, with |x| < 1 ---
 103:..\..\..\liblc3\src/fastmath.h ****      * Perform polynomial approximation in range -0.5/8 to 0.5/8,
 104:..\..\..\liblc3\src/fastmath.h ****      * and muplity by precomputed value of 2^(i/8), i in [0:7] */
 105:..\..\..\liblc3\src/fastmath.h **** 
 106:..\..\..\liblc3\src/fastmath.h ****     union { float f; int32_t s; } y;
 107:..\..\..\liblc3\src/fastmath.h **** 
 108:..\..\..\liblc3\src/fastmath.h ****     y.f = (      p[0]) * x;
 109:..\..\..\liblc3\src/fastmath.h ****     y.f = (y.f + p[1]) * x;
 110:..\..\..\liblc3\src/fastmath.h ****     y.f = (y.f + p[2]) * x;
 111:..\..\..\liblc3\src/fastmath.h ****     y.f = (y.f + p[3]) * x;
 112:..\..\..\liblc3\src/fastmath.h ****     y.f = (y.f +  1.f) * e[k & 7];
 113:..\..\..\liblc3\src/fastmath.h **** 
 114:..\..\..\liblc3\src/fastmath.h ****     /* --- Add the exponent --- */
 115:..\..\..\liblc3\src/fastmath.h **** 
 116:..\..\..\liblc3\src/fastmath.h ****     y.s += (k >> 3) << LC3_IEEE754_EXP_SHL;
 117:..\..\..\liblc3\src/fastmath.h **** 
 118:..\..\..\liblc3\src/fastmath.h ****     return y.f;
 119:..\..\..\liblc3\src/fastmath.h **** }
 120:..\..\..\liblc3\src/fastmath.h **** 
 121:..\..\..\liblc3\src/fastmath.h **** /**
 122:..\..\..\liblc3\src/fastmath.h ****  * Fast log2(x) approximation
 123:..\..\..\liblc3\src/fastmath.h ****  * x               Operand, greater than 0
 124:..\..\..\liblc3\src/fastmath.h ****  * return          log2(x) approximation (max absolute error ~ 1e-4)
 125:..\..\..\liblc3\src/fastmath.h ****  */
 126:..\..\..\liblc3\src/fastmath.h **** static inline float lc3_log2f(float x)
 127:..\..\..\liblc3\src/fastmath.h **** {
 128:..\..\..\liblc3\src/fastmath.h ****     float y;
 129:..\..\..\liblc3\src/fastmath.h ****     int e;
 130:..\..\..\liblc3\src/fastmath.h **** 
 131:..\..\..\liblc3\src/fastmath.h ****     /* --- Polynomial approx in range 0.5 to 1 --- */
 132:..\..\..\liblc3\src/fastmath.h **** 
 133:..\..\..\liblc3\src/fastmath.h ****     static const float c[] = {
 134:..\..\..\liblc3\src/fastmath.h ****         -1.29479677, 5.11769018, -8.42295281, 8.10557963, -3.50567360 };
 135:..\..\..\liblc3\src/fastmath.h **** 
 136:..\..\..\liblc3\src/fastmath.h ****     x = lc3_frexpf(x, &e);
 137:..\..\..\liblc3\src/fastmath.h **** 
 138:..\..\..\liblc3\src/fastmath.h ****     y = (    c[0]) * x;
 1494              		.loc 2 138 0 discriminator 3
 1495 0226 6E49     		ldr	r1, .L105+16
 1496 0228 201C     		adds	r0, r4, #0
 1497 022a FFF7FEFF 		bl	__aeabi_fmul
 1498              	.LVL237:
 139:..\..\..\liblc3\src/fastmath.h ****     y = (y + c[1]) * x;
 1499              		.loc 2 139 0 discriminator 3
 1500 022e 6D49     		ldr	r1, .L105+20
 1501 0230 FFF7FEFF 		bl	__aeabi_fadd
 1502              	.LVL238:
 1503 0234 011C     		adds	r1, r0, #0
 1504 0236 201C     		adds	r0, r4, #0
ARM GAS  C:\Users\rdn\AppData\Local\Temp\ccFEeGTH.s 			page 43


 1505 0238 FFF7FEFF 		bl	__aeabi_fmul
 1506              	.LVL239:
 140:..\..\..\liblc3\src/fastmath.h ****     y = (y + c[2]) * x;
 1507              		.loc 2 140 0 discriminator 3
 1508 023c 6A49     		ldr	r1, .L105+24
 1509 023e FFF7FEFF 		bl	__aeabi_fsub
 1510              	.LVL240:
 1511 0242 011C     		adds	r1, r0, #0
 1512 0244 201C     		adds	r0, r4, #0
 1513 0246 FFF7FEFF 		bl	__aeabi_fmul
 1514              	.LVL241:
 141:..\..\..\liblc3\src/fastmath.h ****     y = (y + c[3]) * x;
 1515              		.loc 2 141 0 discriminator 3
 1516 024a 6849     		ldr	r1, .L105+28
 1517 024c FFF7FEFF 		bl	__aeabi_fadd
 1518              	.LVL242:
 1519 0250 011C     		adds	r1, r0, #0
 1520 0252 201C     		adds	r0, r4, #0
 1521 0254 FFF7FEFF 		bl	__aeabi_fmul
 1522              	.LVL243:
 142:..\..\..\liblc3\src/fastmath.h ****     y = (y + c[4]);
 1523              		.loc 2 142 0 discriminator 3
 1524 0258 6549     		ldr	r1, .L105+32
 1525 025a FFF7FEFF 		bl	__aeabi_fsub
 1526              	.LVL244:
 1527 025e 041C     		adds	r4, r0, #0
 1528              	.LVL245:
 143:..\..\..\liblc3\src/fastmath.h **** 
 144:..\..\..\liblc3\src/fastmath.h ****     /* --- Add log2f(2^e) and return --- */
 145:..\..\..\liblc3\src/fastmath.h **** 
 146:..\..\..\liblc3\src/fastmath.h ****     return e + y;
 1529              		.loc 2 146 0 discriminator 3
 1530 0260 2800     		movs	r0, r5
 1531              	.LVL246:
 1532 0262 FFF7FEFF 		bl	__aeabi_i2f
 1533              	.LVL247:
 1534 0266 011C     		adds	r1, r0, #0
 1535 0268 201C     		adds	r0, r4, #0
 1536 026a FFF7FEFF 		bl	__aeabi_fadd
 1537              	.LVL248:
 1538              	.LBE74:
 1539              	.LBE73:
 325:..\..\..\liblc3\src/sns.c **** 
 1540              		.loc 1 325 0 discriminator 3
 1541 026e FC21     		movs	r1, #252
 1542 0270 8905     		lsls	r1, r1, #22
 1543 0272 FFF7FEFF 		bl	__aeabi_fmul
 1544              	.LVL249:
 1545 0276 06AB     		add	r3, sp, #24
 1546 0278 F050     		str	r0, [r6, r3]
 324:..\..\..\liblc3\src/sns.c ****         e[i] = lc3_log2f(fmaxf(e[i], noise_floor)) * 0.5f;
 1547              		.loc 1 324 0 discriminator 3
 1548 027a 0137     		adds	r7, r7, #1
 1549              	.LVL250:
 1550              	.L83:
 324:..\..\..\liblc3\src/sns.c ****         e[i] = lc3_log2f(fmaxf(e[i], noise_floor)) * 0.5f;
 1551              		.loc 1 324 0 is_stmt 0 discriminator 1
ARM GAS  C:\Users\rdn\AppData\Local\Temp\ccFEeGTH.s 			page 44


 1552 027c 3F2F     		cmp	r7, #63
 1553 027e C1DD     		ble	.L84
 1554              	.LBE72:
 331:..\..\..\liblc3\src/sns.c ****              (e[0] + e[3]) * 2.f/12 +
 1555              		.loc 1 331 0 is_stmt 1
 1556 0280 069C     		ldr	r4, [sp, #24]
 1557 0282 0A9B     		ldr	r3, [sp, #40]
 1558 0284 0093     		str	r3, [sp]
 1559 0286 191C     		adds	r1, r3, #0
 1560 0288 201C     		adds	r0, r4, #0
 1561 028a FFF7FEFF 		bl	__aeabi_fadd
 1562              	.LVL251:
 1563 028e 5949     		ldr	r1, .L105+36
 1564 0290 FFF7FEFF 		bl	__aeabi_fdiv
 1565              	.LVL252:
 1566 0294 051C     		adds	r5, r0, #0
 332:..\..\..\liblc3\src/sns.c ****              (e[1] + e[2]) * 3.f/12  ;
 1567              		.loc 1 332 0
 1568 0296 099B     		ldr	r3, [sp, #36]
 1569 0298 0093     		str	r3, [sp]
 1570 029a 191C     		adds	r1, r3, #0
 1571 029c 201C     		adds	r0, r4, #0
 1572 029e FFF7FEFF 		bl	__aeabi_fadd
 1573              	.LVL253:
 1574 02a2 011C     		adds	r1, r0, #0
 1575 02a4 FFF7FEFF 		bl	__aeabi_fadd
 1576              	.LVL254:
 1577 02a8 5249     		ldr	r1, .L105+36
 1578 02aa FFF7FEFF 		bl	__aeabi_fdiv
 1579              	.LVL255:
 1580 02ae 011C     		adds	r1, r0, #0
 331:..\..\..\liblc3\src/sns.c ****              (e[0] + e[3]) * 2.f/12 +
 1581              		.loc 1 331 0
 1582 02b0 281C     		adds	r0, r5, #0
 1583 02b2 FFF7FEFF 		bl	__aeabi_fadd
 1584              	.LVL256:
 1585 02b6 041C     		adds	r4, r0, #0
 333:..\..\..\liblc3\src/sns.c ****     scf_sum = scf[0];
 1586              		.loc 1 333 0
 1587 02b8 0798     		ldr	r0, [sp, #28]
 1588 02ba 0899     		ldr	r1, [sp, #32]
 1589 02bc FFF7FEFF 		bl	__aeabi_fadd
 1590              	.LVL257:
 1591 02c0 4D49     		ldr	r1, .L105+40
 1592 02c2 FFF7FEFF 		bl	__aeabi_fmul
 1593              	.LVL258:
 1594 02c6 4B49     		ldr	r1, .L105+36
 1595 02c8 FFF7FEFF 		bl	__aeabi_fdiv
 1596              	.LVL259:
 1597 02cc 011C     		adds	r1, r0, #0
 332:..\..\..\liblc3\src/sns.c ****              (e[1] + e[2]) * 3.f/12  ;
 1598              		.loc 1 332 0
 1599 02ce 201C     		adds	r0, r4, #0
 1600 02d0 FFF7FEFF 		bl	__aeabi_fadd
 1601              	.LVL260:
 1602 02d4 0090     		str	r0, [sp]
 331:..\..\..\liblc3\src/sns.c ****              (e[0] + e[3]) * 2.f/12 +
ARM GAS  C:\Users\rdn\AppData\Local\Temp\ccFEeGTH.s 			page 45


 1603              		.loc 1 331 0
 1604 02d6 4246     		mov	r2, r8
 1605 02d8 1060     		str	r0, [r2]
 1606              	.LVL261:
 1607              	.LBB77:
 336:..\..\..\liblc3\src/sns.c ****         scf[i] = (e[4*i-1] + e[4*i+4]) * 1.f/12 +
 1608              		.loc 1 336 0
 1609 02da 0127     		movs	r7, #1
 1610              	.LVL262:
 1611 02dc 4546     		mov	r5, r8
 1612 02de 3AE0     		b	.L85
 1613              	.LVL263:
 1614              	.L86:
 337:..\..\..\liblc3\src/sns.c ****                  (e[4*i  ] + e[4*i+3]) * 2.f/12 +
 1615              		.loc 1 337 0 discriminator 3
 1616 02e0 BC00     		lsls	r4, r7, #2
 1617 02e2 2E19     		adds	r6, r5, r4
 1618 02e4 631E     		subs	r3, r4, #1
 1619 02e6 9B00     		lsls	r3, r3, #2
 1620 02e8 06AA     		add	r2, sp, #24
 1621 02ea 9858     		ldr	r0, [r3, r2]
 1622 02ec 0137     		adds	r7, r7, #1
 1623              	.LVL264:
 1624 02ee 3B01     		lsls	r3, r7, #4
 1625 02f0 9958     		ldr	r1, [r3, r2]
 1626 02f2 FFF7FEFF 		bl	__aeabi_fadd
 1627              	.LVL265:
 1628 02f6 3F49     		ldr	r1, .L105+36
 1629 02f8 FFF7FEFF 		bl	__aeabi_fdiv
 1630              	.LVL266:
 1631 02fc 0190     		str	r0, [sp, #4]
 338:..\..\..\liblc3\src/sns.c ****                  (e[4*i+1] + e[4*i+2]) * 3.f/12  ;
 1632              		.loc 1 338 0 discriminator 3
 1633 02fe A300     		lsls	r3, r4, #2
 1634 0300 06AA     		add	r2, sp, #24
 1635 0302 9858     		ldr	r0, [r3, r2]
 1636 0304 E31C     		adds	r3, r4, #3
 1637 0306 9B00     		lsls	r3, r3, #2
 1638 0308 9958     		ldr	r1, [r3, r2]
 1639 030a FFF7FEFF 		bl	__aeabi_fadd
 1640              	.LVL267:
 1641 030e 011C     		adds	r1, r0, #0
 1642 0310 FFF7FEFF 		bl	__aeabi_fadd
 1643              	.LVL268:
 1644 0314 3749     		ldr	r1, .L105+36
 1645 0316 FFF7FEFF 		bl	__aeabi_fdiv
 1646              	.LVL269:
 1647 031a 011C     		adds	r1, r0, #0
 337:..\..\..\liblc3\src/sns.c ****                  (e[4*i  ] + e[4*i+3]) * 2.f/12 +
 1648              		.loc 1 337 0 discriminator 3
 1649 031c 0198     		ldr	r0, [sp, #4]
 1650 031e FFF7FEFF 		bl	__aeabi_fadd
 1651              	.LVL270:
 1652 0322 0190     		str	r0, [sp, #4]
 339:..\..\..\liblc3\src/sns.c ****         scf_sum += scf[i];
 1653              		.loc 1 339 0 discriminator 3
 1654 0324 631C     		adds	r3, r4, #1
ARM GAS  C:\Users\rdn\AppData\Local\Temp\ccFEeGTH.s 			page 46


 1655 0326 9B00     		lsls	r3, r3, #2
 1656 0328 06AA     		add	r2, sp, #24
 1657 032a 9858     		ldr	r0, [r3, r2]
 1658 032c 0234     		adds	r4, r4, #2
 1659 032e A400     		lsls	r4, r4, #2
 1660 0330 A158     		ldr	r1, [r4, r2]
 1661 0332 FFF7FEFF 		bl	__aeabi_fadd
 1662              	.LVL271:
 1663 0336 3049     		ldr	r1, .L105+40
 1664 0338 FFF7FEFF 		bl	__aeabi_fmul
 1665              	.LVL272:
 1666 033c 2D49     		ldr	r1, .L105+36
 1667 033e FFF7FEFF 		bl	__aeabi_fdiv
 1668              	.LVL273:
 1669 0342 011C     		adds	r1, r0, #0
 338:..\..\..\liblc3\src/sns.c ****                  (e[4*i+1] + e[4*i+2]) * 3.f/12  ;
 1670              		.loc 1 338 0 discriminator 3
 1671 0344 0198     		ldr	r0, [sp, #4]
 1672 0346 FFF7FEFF 		bl	__aeabi_fadd
 1673              	.LVL274:
 1674 034a 011C     		adds	r1, r0, #0
 337:..\..\..\liblc3\src/sns.c ****                  (e[4*i  ] + e[4*i+3]) * 2.f/12 +
 1675              		.loc 1 337 0 discriminator 3
 1676 034c 3060     		str	r0, [r6]
 340:..\..\..\liblc3\src/sns.c ****     }
 1677              		.loc 1 340 0 discriminator 3
 1678 034e 0098     		ldr	r0, [sp]
 1679 0350 FFF7FEFF 		bl	__aeabi_fadd
 1680              	.LVL275:
 1681 0354 0090     		str	r0, [sp]
 1682              	.LVL276:
 1683              	.L85:
 336:..\..\..\liblc3\src/sns.c ****         scf[i] = (e[4*i-1] + e[4*i+4]) * 1.f/12 +
 1684              		.loc 1 336 0 discriminator 1
 1685 0356 0E2F     		cmp	r7, #14
 1686 0358 C2DD     		ble	.L86
 1687 035a A846     		mov	r8, r5
 1688              	.LBE77:
 343:..\..\..\liblc3\src/sns.c ****               (e[60] + e[63]) * 2.f/12 +
 1689              		.loc 1 343 0
 1690 035c EC23     		movs	r3, #236
 1691 035e 06AA     		add	r2, sp, #24
 1692 0360 D058     		ldr	r0, [r2, r3]
 1693 0362 1033     		adds	r3, r3, #16
 1694 0364 D458     		ldr	r4, [r2, r3]
 1695 0366 211C     		adds	r1, r4, #0
 1696 0368 FFF7FEFF 		bl	__aeabi_fadd
 1697              	.LVL277:
 1698 036c 2149     		ldr	r1, .L105+36
 1699 036e FFF7FEFF 		bl	__aeabi_fdiv
 1700              	.LVL278:
 1701 0372 061C     		adds	r6, r0, #0
 344:..\..\..\liblc3\src/sns.c ****               (e[61] + e[62]) * 3.f/12  ;
 1702              		.loc 1 344 0
 1703 0374 F023     		movs	r3, #240
 1704 0376 06AA     		add	r2, sp, #24
 1705 0378 D158     		ldr	r1, [r2, r3]
ARM GAS  C:\Users\rdn\AppData\Local\Temp\ccFEeGTH.s 			page 47


 1706 037a 201C     		adds	r0, r4, #0
 1707 037c FFF7FEFF 		bl	__aeabi_fadd
 1708              	.LVL279:
 1709 0380 011C     		adds	r1, r0, #0
 1710 0382 FFF7FEFF 		bl	__aeabi_fadd
 1711              	.LVL280:
 1712 0386 1B49     		ldr	r1, .L105+36
 1713 0388 FFF7FEFF 		bl	__aeabi_fdiv
 1714              	.LVL281:
 1715 038c 011C     		adds	r1, r0, #0
 343:..\..\..\liblc3\src/sns.c ****               (e[60] + e[63]) * 2.f/12 +
 1716              		.loc 1 343 0
 1717 038e 301C     		adds	r0, r6, #0
 1718 0390 FFF7FEFF 		bl	__aeabi_fadd
 1719              	.LVL282:
 1720 0394 041C     		adds	r4, r0, #0
 345:..\..\..\liblc3\src/sns.c ****     scf_sum += scf[15];
 1721              		.loc 1 345 0
 1722 0396 F423     		movs	r3, #244
 1723 0398 06AA     		add	r2, sp, #24
 1724 039a D058     		ldr	r0, [r2, r3]
 1725 039c 0433     		adds	r3, r3, #4
 1726 039e D158     		ldr	r1, [r2, r3]
 1727 03a0 FFF7FEFF 		bl	__aeabi_fadd
 1728              	.LVL283:
 1729 03a4 1449     		ldr	r1, .L105+40
 1730 03a6 FFF7FEFF 		bl	__aeabi_fmul
 1731              	.LVL284:
 1732 03aa 1249     		ldr	r1, .L105+36
 1733 03ac FFF7FEFF 		bl	__aeabi_fdiv
 1734              	.LVL285:
 1735 03b0 011C     		adds	r1, r0, #0
 344:..\..\..\liblc3\src/sns.c ****               (e[61] + e[62]) * 3.f/12  ;
 1736              		.loc 1 344 0
 1737 03b2 201C     		adds	r0, r4, #0
 1738 03b4 FFF7FEFF 		bl	__aeabi_fadd
 1739              	.LVL286:
 1740 03b8 011C     		adds	r1, r0, #0
 343:..\..\..\liblc3\src/sns.c ****               (e[60] + e[63]) * 2.f/12 +
 1741              		.loc 1 343 0
 1742 03ba 2B00     		movs	r3, r5
 1743 03bc D863     		str	r0, [r3, #60]
 346:..\..\..\liblc3\src/sns.c **** 
 1744              		.loc 1 346 0
 1745 03be 0098     		ldr	r0, [sp]
 1746 03c0 FFF7FEFF 		bl	__aeabi_fadd
 1747              	.LVL287:
 1748 03c4 0090     		str	r0, [sp]
 1749              	.LVL288:
 348:..\..\..\liblc3\src/sns.c ****     if (lc3_hr(sr) && 8 * nbytes >
 1750              		.loc 1 348 0
 1751 03c6 4B46     		mov	r3, r9
 1752 03c8 042B     		cmp	r3, #4
 1753 03ca 19D9     		bls	.L101
 1754              	.LVL289:
 1755 03cc 0B4D     		ldr	r5, .L105+44
 1756 03ce 18E0     		b	.L87
ARM GAS  C:\Users\rdn\AppData\Local\Temp\ccFEeGTH.s 			page 48


 1757              	.L106:
 1758              		.align	2
 1759              	.L105:
 1760 03d0 00000000 		.word	lc3_num_bands
 1761 03d4 00040000 		.word	.LANCHOR1
 1762 03d8 17B7D135 		.word	902936343
 1763 03dc FFFF7F80 		.word	-2139095041
 1764 03e0 E7BBA5BF 		.word	-1079657497
 1765 03e4 1EC4A340 		.word	1084474398
 1766 03e8 6AC40641 		.word	1090962538
 1767 03ec 74B00141 		.word	1090629748
 1768 03f0 F55C6040 		.word	1080057077
 1769 03f4 00004041 		.word	1094713344
 1770 03f8 00004040 		.word	1077936128
 1771 03fc 9A99193F 		.word	1058642330
 1772              	.L101:
 1773 0400 634D     		ldr	r5, .L107
 1774              	.L87:
 1775              	.LVL290:
 349:..\..\..\liblc3\src/sns.c ****             (dt < LC3_DT_10M ? 1150 * (int)(1 + dt) : 4400))
 1776              		.loc 1 349 0 discriminator 4
 1777 0402 4B46     		mov	r3, r9
 1778              	.LVL291:
 1779 0404 042B     		cmp	r3, #4
 1780 0406 16D9     		bls	.L88
 1781              	.LVL292:
 349:..\..\..\liblc3\src/sns.c ****             (dt < LC3_DT_10M ? 1150 * (int)(1 + dt) : 4400))
 1782              		.loc 1 349 0 is_stmt 0 discriminator 1
 1783 0408 049B     		ldr	r3, [sp, #16]
 1784              	.LVL293:
 1785 040a DB00     		lsls	r3, r3, #3
 350:..\..\..\liblc3\src/sns.c ****         cf *= dt < LC3_DT_10M ? 0.25f : 0.35f;
 1786              		.loc 1 350 0 is_stmt 1 discriminator 1
 1787 040c 5A46     		mov	r2, fp
 1788 040e 022A     		cmp	r2, #2
 1789 0410 03D8     		bhi	.L102
 1790              	.LVL294:
 1791 0412 511C     		adds	r1, r2, #1
 1792 0414 5F4A     		ldr	r2, .L107+4
 1793              	.LVL295:
 1794 0416 4A43     		muls	r2, r1
 1795 0418 00E0     		b	.L89
 1796              	.LVL296:
 1797              	.L102:
 350:..\..\..\liblc3\src/sns.c ****         cf *= dt < LC3_DT_10M ? 0.25f : 0.35f;
 1798              		.loc 1 350 0 is_stmt 0
 1799 041a 5F4A     		ldr	r2, .L107+8
 1800              	.LVL297:
 1801              	.L89:
 349:..\..\..\liblc3\src/sns.c ****             (dt < LC3_DT_10M ? 1150 * (int)(1 + dt) : 4400))
 1802              		.loc 1 349 0 is_stmt 1
 1803 041c 9A42     		cmp	r2, r3
 1804 041e 0ADA     		bge	.L88
 351:..\..\..\liblc3\src/sns.c **** 
 1805              		.loc 1 351 0
 1806 0420 5B46     		mov	r3, fp
 1807 0422 022B     		cmp	r3, #2
ARM GAS  C:\Users\rdn\AppData\Local\Temp\ccFEeGTH.s 			page 49


 1808 0424 02D8     		bhi	.L103
 1809              	.LVL298:
 1810 0426 FA21     		movs	r1, #250
 1811 0428 8905     		lsls	r1, r1, #22
 1812 042a 00E0     		b	.L90
 1813              	.L103:
 1814 042c 5B49     		ldr	r1, .L107+12
 1815              	.L90:
 351:..\..\..\liblc3\src/sns.c **** 
 1816              		.loc 1 351 0 is_stmt 0 discriminator 4
 1817 042e 281C     		adds	r0, r5, #0
 1818              	.LVL299:
 1819 0430 FFF7FEFF 		bl	__aeabi_fmul
 1820              	.LVL300:
 1821 0434 051C     		adds	r5, r0, #0
 1822              	.LVL301:
 1823              	.L88:
 1824              	.LBB78:
 353:..\..\..\liblc3\src/sns.c ****         scf[i] = cf * (scf[i] - scf_sum * 1.f/16);
 1825              		.loc 1 353 0 is_stmt 1
 1826 0436 0027     		movs	r7, #0
 1827              	.LVL302:
 1828 0438 0195     		str	r5, [sp, #4]
 1829 043a 4646     		mov	r6, r8
 1830 043c 11E0     		b	.L91
 1831              	.LVL303:
 1832              	.L92:
 354:..\..\..\liblc3\src/sns.c **** 
 1833              		.loc 1 354 0 discriminator 3
 1834 043e BC00     		lsls	r4, r7, #2
 1835 0440 3419     		adds	r4, r6, r4
 1836 0442 2568     		ldr	r5, [r4]
 1837 0444 F621     		movs	r1, #246
 1838 0446 8905     		lsls	r1, r1, #22
 1839 0448 0098     		ldr	r0, [sp]
 1840 044a FFF7FEFF 		bl	__aeabi_fmul
 1841              	.LVL304:
 1842 044e 011C     		adds	r1, r0, #0
 1843 0450 281C     		adds	r0, r5, #0
 1844 0452 FFF7FEFF 		bl	__aeabi_fsub
 1845              	.LVL305:
 1846 0456 011C     		adds	r1, r0, #0
 1847 0458 0198     		ldr	r0, [sp, #4]
 1848 045a FFF7FEFF 		bl	__aeabi_fmul
 1849              	.LVL306:
 1850 045e 2060     		str	r0, [r4]
 353:..\..\..\liblc3\src/sns.c ****         scf[i] = cf * (scf[i] - scf_sum * 1.f/16);
 1851              		.loc 1 353 0 discriminator 3
 1852 0460 0137     		adds	r7, r7, #1
 1853              	.LVL307:
 1854              	.L91:
 353:..\..\..\liblc3\src/sns.c ****         scf[i] = cf * (scf[i] - scf_sum * 1.f/16);
 1855              		.loc 1 353 0 is_stmt 0 discriminator 1
 1856 0462 0F2F     		cmp	r7, #15
 1857 0464 EBDD     		ble	.L92
 1858 0466 B046     		mov	r8, r6
 1859              	.LBE78:
ARM GAS  C:\Users\rdn\AppData\Local\Temp\ccFEeGTH.s 			page 50


 358:..\..\..\liblc3\src/sns.c ****         return;
 1860              		.loc 1 358 0 is_stmt 1
 1861 0468 039B     		ldr	r3, [sp, #12]
 1862 046a 002B     		cmp	r3, #0
 1863 046c 00D1     		bne	.LCB2120
 1864 046e 87E0     		b	.L73	@long jump
 1865              	.LCB2120:
 361:..\..\..\liblc3\src/sns.c ****     float sn = s1 + s2;
 1866              		.loc 1 361 0
 1867 0470 3368     		ldr	r3, [r6]
 1868 0472 0093     		str	r3, [sp]
 1869              	.LVL308:
 1870 0474 7268     		ldr	r2, [r6, #4]
 1871 0476 0292     		str	r2, [sp, #8]
 1872              	.LVL309:
 1873 0478 B168     		ldr	r1, [r6, #8]
 1874 047a 0C1C     		adds	r4, r1, #0
 1875 047c 0391     		str	r1, [sp, #12]
 1876              	.LVL310:
 1877 047e F168     		ldr	r1, [r6, #12]
 1878              	.LVL311:
 1879 0480 0E1C     		adds	r6, r1, #0
 1880 0482 0491     		str	r1, [sp, #16]
 1881              	.LVL312:
 362:..\..\..\liblc3\src/sns.c **** 
 1882              		.loc 1 362 0
 1883 0484 111C     		adds	r1, r2, #0
 1884              	.LVL313:
 1885 0486 181C     		adds	r0, r3, #0
 1886 0488 FFF7FEFF 		bl	__aeabi_fadd
 1887              	.LVL314:
 1888 048c 011C     		adds	r1, r0, #0
 1889              	.LVL315:
 364:..\..\..\liblc3\src/sns.c ****     scf[1] = (sn += s4) * 1.f/4;
 1890              		.loc 1 364 0
 1891 048e 201C     		adds	r0, r4, #0
 1892              	.LVL316:
 1893 0490 FFF7FEFF 		bl	__aeabi_fadd
 1894              	.LVL317:
 1895 0494 051C     		adds	r5, r0, #0
 1896              	.LVL318:
 1897 0496 4249     		ldr	r1, .L107+16
 1898 0498 FFF7FEFF 		bl	__aeabi_fdiv
 1899              	.LVL319:
 1900 049c 041C     		adds	r4, r0, #0
 1901              	.LVL320:
 1902 049e 4346     		mov	r3, r8
 1903 04a0 1860     		str	r0, [r3]
 365:..\..\..\liblc3\src/sns.c ****     scf_sum = scf[0] + scf[1];
 1904              		.loc 1 365 0
 1905 04a2 291C     		adds	r1, r5, #0
 1906 04a4 301C     		adds	r0, r6, #0
 1907 04a6 FFF7FEFF 		bl	__aeabi_fadd
 1908              	.LVL321:
 1909 04aa 061C     		adds	r6, r0, #0
 1910              	.LVL322:
 1911 04ac FA21     		movs	r1, #250
ARM GAS  C:\Users\rdn\AppData\Local\Temp\ccFEeGTH.s 			page 51


 1912 04ae 8905     		lsls	r1, r1, #22
 1913 04b0 FFF7FEFF 		bl	__aeabi_fmul
 1914              	.LVL323:
 1915 04b4 011C     		adds	r1, r0, #0
 1916 04b6 4346     		mov	r3, r8
 1917 04b8 5860     		str	r0, [r3, #4]
 366:..\..\..\liblc3\src/sns.c **** 
 1918              		.loc 1 366 0
 1919 04ba 201C     		adds	r0, r4, #0
 1920 04bc FFF7FEFF 		bl	__aeabi_fadd
 1921              	.LVL324:
 1922              	.LBB79:
 368:..\..\..\liblc3\src/sns.c ****         s0 = s1, s1 = s2, s2 = s3, s3 = s4, s4 = scf[i+2];
 1923              		.loc 1 368 0
 1924 04c0 0227     		movs	r7, #2
 1925              	.LVL325:
 1926 04c2 0190     		str	r0, [sp, #4]
 1927              	.LVL326:
 1928 04c4 301C     		adds	r0, r6, #0
 1929              	.LVL327:
 1930 04c6 4646     		mov	r6, r8
 1931              	.LVL328:
 1932 04c8 1DE0     		b	.L94
 1933              	.LVL329:
 1934              	.L95:
 369:..\..\..\liblc3\src/sns.c ****         scf[i] = (sn += s4) * 1.f/5;
 1935              		.loc 1 369 0 discriminator 3
 1936 04ca BB1C     		adds	r3, r7, #2
 1937 04cc 9B00     		lsls	r3, r3, #2
 1938 04ce F458     		ldr	r4, [r6, r3]
 1939              	.LVL330:
 370:..\..\..\liblc3\src/sns.c ****         scf_sum += scf[i];
 1940              		.loc 1 370 0 discriminator 3
 1941 04d0 BB00     		lsls	r3, r7, #2
 1942 04d2 F518     		adds	r5, r6, r3
 1943 04d4 211C     		adds	r1, r4, #0
 1944 04d6 FFF7FEFF 		bl	__aeabi_fadd
 1945              	.LVL331:
 1946 04da 3249     		ldr	r1, .L107+20
 1947 04dc 0590     		str	r0, [sp, #20]
 1948 04de FFF7FEFF 		bl	__aeabi_fdiv
 1949              	.LVL332:
 1950 04e2 011C     		adds	r1, r0, #0
 1951 04e4 2860     		str	r0, [r5]
 371:..\..\..\liblc3\src/sns.c ****     }
 1952              		.loc 1 371 0 discriminator 3
 1953 04e6 0198     		ldr	r0, [sp, #4]
 1954 04e8 FFF7FEFF 		bl	__aeabi_fadd
 1955              	.LVL333:
 1956 04ec 0190     		str	r0, [sp, #4]
 1957              	.LVL334:
 368:..\..\..\liblc3\src/sns.c ****         s0 = s1, s1 = s2, s2 = s3, s3 = s4, s4 = scf[i+2];
 1958              		.loc 1 368 0 discriminator 3
 1959 04ee 0137     		adds	r7, r7, #1
 1960              	.LVL335:
 1961 04f0 0099     		ldr	r1, [sp]
 1962 04f2 0598     		ldr	r0, [sp, #20]
ARM GAS  C:\Users\rdn\AppData\Local\Temp\ccFEeGTH.s 			page 52


 1963              	.LVL336:
 1964 04f4 FFF7FEFF 		bl	__aeabi_fsub
 1965              	.LVL337:
 369:..\..\..\liblc3\src/sns.c ****         scf[i] = (sn += s4) * 1.f/5;
 1966              		.loc 1 369 0 discriminator 3
 1967 04f8 029B     		ldr	r3, [sp, #8]
 1968 04fa 0093     		str	r3, [sp]
 1969              	.LVL338:
 1970 04fc 039B     		ldr	r3, [sp, #12]
 1971 04fe 0293     		str	r3, [sp, #8]
 1972              	.LVL339:
 1973 0500 049B     		ldr	r3, [sp, #16]
 1974 0502 0393     		str	r3, [sp, #12]
 1975              	.LVL340:
 1976 0504 0494     		str	r4, [sp, #16]
 1977              	.LVL341:
 1978              	.L94:
 368:..\..\..\liblc3\src/sns.c ****         s0 = s1, s1 = s2, s2 = s3, s3 = s4, s4 = scf[i+2];
 1979              		.loc 1 368 0 discriminator 1
 1980 0506 0D2F     		cmp	r7, #13
 1981 0508 DFDD     		ble	.L95
 1982 050a 019D     		ldr	r5, [sp, #4]
 1983 050c B046     		mov	r8, r6
 1984              	.LBE79:
 374:..\..\..\liblc3\src/sns.c ****     scf[15] = (sn -= s1) * 1.f/3;
 1985              		.loc 1 374 0
 1986 050e FA21     		movs	r1, #250
 1987 0510 8905     		lsls	r1, r1, #22
 1988 0512 061C     		adds	r6, r0, #0
 1989 0514 FFF7FEFF 		bl	__aeabi_fmul
 1990              	.LVL342:
 1991 0518 041C     		adds	r4, r0, #0
 1992 051a 4346     		mov	r3, r8
 1993 051c 9863     		str	r0, [r3, #56]
 375:..\..\..\liblc3\src/sns.c ****     scf_sum += scf[14] + scf[15];
 1994              		.loc 1 375 0
 1995 051e 0099     		ldr	r1, [sp]
 1996 0520 301C     		adds	r0, r6, #0
 1997 0522 FFF7FEFF 		bl	__aeabi_fsub
 1998              	.LVL343:
 1999 0526 1E49     		ldr	r1, .L107+16
 2000 0528 FFF7FEFF 		bl	__aeabi_fdiv
 2001              	.LVL344:
 2002 052c 011C     		adds	r1, r0, #0
 2003 052e 4346     		mov	r3, r8
 2004 0530 D863     		str	r0, [r3, #60]
 376:..\..\..\liblc3\src/sns.c **** 
 2005              		.loc 1 376 0
 2006 0532 201C     		adds	r0, r4, #0
 2007 0534 FFF7FEFF 		bl	__aeabi_fadd
 2008              	.LVL345:
 2009 0538 011C     		adds	r1, r0, #0
 2010 053a 281C     		adds	r0, r5, #0
 2011 053c FFF7FEFF 		bl	__aeabi_fadd
 2012              	.LVL346:
 2013              	.LBB80:
 378:..\..\..\liblc3\src/sns.c ****         scf[i] = (dt == LC3_DT_7M5 ? 0.3f : 0.5f) *
ARM GAS  C:\Users\rdn\AppData\Local\Temp\ccFEeGTH.s 			page 53


 2014              		.loc 1 378 0
 2015 0540 0027     		movs	r7, #0
 2016              	.LVL347:
 2017 0542 0190     		str	r0, [sp, #4]
 2018 0544 5D46     		mov	r5, fp
 2019 0546 19E0     		b	.L96
 2020              	.LVL348:
 2021              	.L98:
 379:..\..\..\liblc3\src/sns.c ****                  (scf[i] - scf_sum * 1.f/16);
 2022              		.loc 1 379 0
 2023 0548 BC00     		lsls	r4, r7, #2
 2024 054a 022D     		cmp	r5, #2
 2025 054c 02D1     		bne	.L104
 2026 054e 164B     		ldr	r3, .L107+24
 2027 0550 0093     		str	r3, [sp]
 2028 0552 02E0     		b	.L97
 2029              	.L104:
 2030 0554 FC23     		movs	r3, #252
 2031 0556 9B05     		lsls	r3, r3, #22
 2032 0558 0093     		str	r3, [sp]
 2033              	.L97:
 380:..\..\..\liblc3\src/sns.c **** }
 2034              		.loc 1 380 0 discriminator 2
 2035 055a 4444     		add	r4, r4, r8
 2036 055c 2668     		ldr	r6, [r4]
 2037 055e F621     		movs	r1, #246
 2038 0560 8905     		lsls	r1, r1, #22
 2039 0562 0198     		ldr	r0, [sp, #4]
 2040 0564 FFF7FEFF 		bl	__aeabi_fmul
 2041              	.LVL349:
 2042 0568 011C     		adds	r1, r0, #0
 2043 056a 301C     		adds	r0, r6, #0
 2044 056c FFF7FEFF 		bl	__aeabi_fsub
 2045              	.LVL350:
 2046 0570 011C     		adds	r1, r0, #0
 379:..\..\..\liblc3\src/sns.c ****                  (scf[i] - scf_sum * 1.f/16);
 2047              		.loc 1 379 0 discriminator 2
 2048 0572 0098     		ldr	r0, [sp]
 2049 0574 FFF7FEFF 		bl	__aeabi_fmul
 2050              	.LVL351:
 2051 0578 2060     		str	r0, [r4]
 378:..\..\..\liblc3\src/sns.c ****         scf[i] = (dt == LC3_DT_7M5 ? 0.3f : 0.5f) *
 2052              		.loc 1 378 0 discriminator 2
 2053 057a 0137     		adds	r7, r7, #1
 2054              	.LVL352:
 2055              	.L96:
 378:..\..\..\liblc3\src/sns.c ****         scf[i] = (dt == LC3_DT_7M5 ? 0.3f : 0.5f) *
 2056              		.loc 1 378 0 is_stmt 0 discriminator 1
 2057 057c 0F2F     		cmp	r7, #15
 2058 057e E3DD     		ble	.L98
 2059              	.LVL353:
 2060              	.L73:
 2061              	.LBE80:
 381:..\..\..\liblc3\src/sns.c **** 
 2062              		.loc 1 381 0 is_stmt 1
 2063 0580 47B0     		add	sp, sp, #284
 2064              		@ sp needed
ARM GAS  C:\Users\rdn\AppData\Local\Temp\ccFEeGTH.s 			page 54


 2065              	.LVL354:
 2066 0582 3CBC     		pop	{r2, r3, r4, r5}
 2067 0584 9046     		mov	r8, r2
 2068 0586 9946     		mov	r9, r3
 2069 0588 A246     		mov	r10, r4
 2070 058a AB46     		mov	fp, r5
 2071 058c F0BD     		pop	{r4, r5, r6, r7, pc}
 2072              	.L108:
 2073 058e C046     		.align	2
 2074              	.L107:
 2075 0590 9A99593F 		.word	1062836634
 2076 0594 7E040000 		.word	1150
 2077 0598 30110000 		.word	4400
 2078 059c 3333B33E 		.word	1051931443
 2079 05a0 00004040 		.word	1077936128
 2080 05a4 0000A040 		.word	1084227584
 2081 05a8 9A99993E 		.word	1050253722
 2082              		.cfi_endproc
 2083              	.LFE22:
 2084              		.size	compute_scale_factors, .-compute_scale_factors
 2085              		.section	.text.normalize,"ax",%progbits
 2086              		.align	2
 2087              		.code	16
 2088              		.thumb_func
 2089              		.type	normalize, %function
 2090              	normalize:
 2091              	.LFB24:
 418:..\..\..\liblc3\src/sns.c ****     int c2_sum = 0;
 2092              		.loc 1 418 0
 2093              		.cfi_startproc
 2094              		@ args = 0, pretend = 0, frame = 8
 2095              		@ frame_needed = 0, uses_anonymous_args = 0
 2096              	.LVL355:
 2097 0000 F0B5     		push	{r4, r5, r6, r7, lr}
 2098              		.cfi_def_cfa_offset 20
 2099              		.cfi_offset 4, -20
 2100              		.cfi_offset 5, -16
 2101              		.cfi_offset 6, -12
 2102              		.cfi_offset 7, -8
 2103              		.cfi_offset 14, -4
 2104 0002 83B0     		sub	sp, sp, #12
 2105              		.cfi_def_cfa_offset 32
 2106 0004 0500     		movs	r5, r0
 2107 0006 0F00     		movs	r7, r1
 2108              	.LVL356:
 2109              	.LBB81:
 420:..\..\..\liblc3\src/sns.c ****         c2_sum += c[i] * c[i];
 2110              		.loc 1 420 0
 2111 0008 0022     		movs	r2, #0
 2112              	.LBE81:
 419:..\..\..\liblc3\src/sns.c ****     for (int i = 0; i < 16; i++)
 2113              		.loc 1 419 0
 2114 000a 0024     		movs	r4, #0
 2115              	.LBB82:
 420:..\..\..\liblc3\src/sns.c ****         c2_sum += c[i] * c[i];
 2116              		.loc 1 420 0
 2117 000c 04E0     		b	.L110
ARM GAS  C:\Users\rdn\AppData\Local\Temp\ccFEeGTH.s 			page 55


 2118              	.LVL357:
 2119              	.L111:
 421:..\..\..\liblc3\src/sns.c **** 
 2120              		.loc 1 421 0 discriminator 3
 2121 000e 9300     		lsls	r3, r2, #2
 2122 0010 EB58     		ldr	r3, [r5, r3]
 2123 0012 5B43     		muls	r3, r3
 2124 0014 E418     		adds	r4, r4, r3
 2125              	.LVL358:
 420:..\..\..\liblc3\src/sns.c ****         c2_sum += c[i] * c[i];
 2126              		.loc 1 420 0 discriminator 3
 2127 0016 0132     		adds	r2, r2, #1
 2128              	.LVL359:
 2129              	.L110:
 420:..\..\..\liblc3\src/sns.c ****         c2_sum += c[i] * c[i];
 2130              		.loc 1 420 0 is_stmt 0 discriminator 1
 2131 0018 0F2A     		cmp	r2, #15
 2132 001a F8DD     		ble	.L111
 2133              	.LBE82:
 423:..\..\..\liblc3\src/sns.c **** 
 2134              		.loc 1 423 0 is_stmt 1
 2135 001c 2000     		movs	r0, r4
 2136              	.LVL360:
 2137 001e FFF7FEFF 		bl	__aeabi_i2f
 2138              	.LVL361:
 2139 0022 FFF7FEFF 		bl	sqrtf
 2140              	.LVL362:
 2141 0026 011C     		adds	r1, r0, #0
 2142 0028 FE20     		movs	r0, #254
 2143 002a 8005     		lsls	r0, r0, #22
 2144 002c FFF7FEFF 		bl	__aeabi_fdiv
 2145              	.LVL363:
 2146 0030 0190     		str	r0, [sp, #4]
 2147              	.LVL364:
 2148              	.LBB83:
 425:..\..\..\liblc3\src/sns.c ****         cn[i] = c[i] * c_norm;
 2149              		.loc 1 425 0
 2150 0032 0024     		movs	r4, #0
 2151              	.LVL365:
 2152 0034 09E0     		b	.L112
 2153              	.LVL366:
 2154              	.L113:
 426:..\..\..\liblc3\src/sns.c **** }
 2155              		.loc 1 426 0 discriminator 3
 2156 0036 A300     		lsls	r3, r4, #2
 2157 0038 FE18     		adds	r6, r7, r3
 2158 003a E858     		ldr	r0, [r5, r3]
 2159 003c FFF7FEFF 		bl	__aeabi_i2f
 2160              	.LVL367:
 2161 0040 0199     		ldr	r1, [sp, #4]
 2162 0042 FFF7FEFF 		bl	__aeabi_fmul
 2163              	.LVL368:
 2164 0046 3060     		str	r0, [r6]
 425:..\..\..\liblc3\src/sns.c ****         cn[i] = c[i] * c_norm;
 2165              		.loc 1 425 0 discriminator 3
 2166 0048 0134     		adds	r4, r4, #1
 2167              	.LVL369:
ARM GAS  C:\Users\rdn\AppData\Local\Temp\ccFEeGTH.s 			page 56


 2168              	.L112:
 425:..\..\..\liblc3\src/sns.c ****         cn[i] = c[i] * c_norm;
 2169              		.loc 1 425 0 is_stmt 0 discriminator 1
 2170 004a 0F2C     		cmp	r4, #15
 2171 004c F3DD     		ble	.L113
 2172              	.LBE83:
 427:..\..\..\liblc3\src/sns.c **** 
 2173              		.loc 1 427 0 is_stmt 1
 2174 004e 03B0     		add	sp, sp, #12
 2175              		@ sp needed
 2176              	.LVL370:
 2177              	.LVL371:
 2178              	.LVL372:
 2179 0050 F0BD     		pop	{r4, r5, r6, r7, pc}
 2180              		.cfi_endproc
 2181              	.LFE24:
 2182              		.size	normalize, .-normalize
 2183              		.global	__aeabi_f2iz
 2184              		.global	__aeabi_fcmplt
 2185 0052 C046     		.section	.text.quantize,"ax",%progbits
 2186              		.align	2
 2187              		.code	16
 2188              		.thumb_func
 2189              		.type	quantize, %function
 2190              	quantize:
 2191              	.LFB26:
 466:..\..\..\liblc3\src/sns.c ****     /* --- Residual --- */
 2192              		.loc 1 466 0
 2193              		.cfi_startproc
 2194              		@ args = 12, pretend = 0, frame = 224
 2195              		@ frame_needed = 0, uses_anonymous_args = 0
 2196              	.LVL373:
 2197 0000 F0B5     		push	{r4, r5, r6, r7, lr}
 2198              		.cfi_def_cfa_offset 20
 2199              		.cfi_offset 4, -20
 2200              		.cfi_offset 5, -16
 2201              		.cfi_offset 6, -12
 2202              		.cfi_offset 7, -8
 2203              		.cfi_offset 14, -4
 2204 0002 5F46     		mov	r7, fp
 2205 0004 5646     		mov	r6, r10
 2206 0006 4D46     		mov	r5, r9
 2207 0008 4446     		mov	r4, r8
 2208 000a F0B4     		push	{r4, r5, r6, r7}
 2209              		.cfi_def_cfa_offset 36
 2210              		.cfi_offset 8, -36
 2211              		.cfi_offset 9, -32
 2212              		.cfi_offset 10, -28
 2213              		.cfi_offset 11, -24
 2214 000c BDB0     		sub	sp, sp, #244
 2215              		.cfi_def_cfa_offset 280
 2216 000e 8246     		mov	r10, r0
 2217 0010 1C00     		movs	r4, r3
 2218 0012 469B     		ldr	r3, [sp, #280]
 2219              	.LVL374:
 2220 0014 9846     		mov	r8, r3
 469:..\..\..\liblc3\src/sns.c ****     const float *hfcb = lc3_sns_hfcb[hfcb_idx];
ARM GAS  C:\Users\rdn\AppData\Local\Temp\ccFEeGTH.s 			page 57


 2221              		.loc 1 469 0
 2222 0016 4901     		lsls	r1, r1, #5
 2223              	.LVL375:
 2224 0018 B44B     		ldr	r3, .L145
 2225 001a 8B46     		mov	fp, r1
 2226 001c 9B44     		add	fp, fp, r3
 2227              	.LVL376:
 470:..\..\..\liblc3\src/sns.c ****     float r[16], x[16];
 2228              		.loc 1 470 0
 2229 001e 5201     		lsls	r2, r2, #5
 2230              	.LVL377:
 2231 0020 B34B     		ldr	r3, .L145+4
 2232 0022 D318     		adds	r3, r2, r3
 2233 0024 0593     		str	r3, [sp, #20]
 2234              	.LVL378:
 2235              	.LBB84:
 473:..\..\..\liblc3\src/sns.c ****         r[  i] = scf[  i] - lfcb[i];
 2236              		.loc 1 473 0
 2237 0026 0025     		movs	r5, #0
 2238 0028 A146     		mov	r9, r4
 2239 002a 13E0     		b	.L115
 2240              	.LVL379:
 2241              	.L116:
 474:..\..\..\liblc3\src/sns.c ****         r[8+i] = scf[8+i] - hfcb[i];
 2242              		.loc 1 474 0 discriminator 3
 2243 002c AF00     		lsls	r7, r5, #2
 2244 002e 5B46     		mov	r3, fp
 2245 0030 D959     		ldr	r1, [r3, r7]
 2246 0032 5346     		mov	r3, r10
 2247 0034 D859     		ldr	r0, [r3, r7]
 2248 0036 FFF7FEFF 		bl	__aeabi_fsub
 2249              	.LVL380:
 2250 003a 2CAC     		add	r4, sp, #176
 2251 003c 3851     		str	r0, [r7, r4]
 475:..\..\..\liblc3\src/sns.c ****     }
 2252              		.loc 1 475 0 discriminator 3
 2253 003e 2E00     		movs	r6, r5
 2254 0040 0836     		adds	r6, r6, #8
 2255 0042 B600     		lsls	r6, r6, #2
 2256 0044 059B     		ldr	r3, [sp, #20]
 2257 0046 D959     		ldr	r1, [r3, r7]
 2258 0048 5346     		mov	r3, r10
 2259 004a F058     		ldr	r0, [r6, r3]
 2260 004c FFF7FEFF 		bl	__aeabi_fsub
 2261              	.LVL381:
 2262 0050 3051     		str	r0, [r6, r4]
 473:..\..\..\liblc3\src/sns.c ****         r[  i] = scf[  i] - lfcb[i];
 2263              		.loc 1 473 0 discriminator 3
 2264 0052 0135     		adds	r5, r5, #1
 2265              	.LVL382:
 2266              	.L115:
 473:..\..\..\liblc3\src/sns.c ****         r[  i] = scf[  i] - lfcb[i];
 2267              		.loc 1 473 0 is_stmt 0 discriminator 1
 2268 0054 072D     		cmp	r5, #7
 2269 0056 E9DD     		ble	.L116
 2270 0058 4C46     		mov	r4, r9
 2271              	.LBE84:
ARM GAS  C:\Users\rdn\AppData\Local\Temp\ccFEeGTH.s 			page 58


 478:..\..\..\liblc3\src/sns.c **** 
 2272              		.loc 1 478 0 is_stmt 1
 2273 005a 1CA9     		add	r1, sp, #112
 2274 005c 2CA8     		add	r0, sp, #176
 2275 005e FFF7FEFF 		bl	dct16_forward
 2276              	.LVL383:
 2277              	.LBB85:
 487:..\..\..\liblc3\src/sns.c ****         xm[i] = fabsf(x[i]);
 2278              		.loc 1 487 0
 2279 0062 0025     		movs	r5, #0
 2280              	.LVL384:
 2281              	.LBE85:
 485:..\..\..\liblc3\src/sns.c **** 
 2282              		.loc 1 485 0
 2283 0064 0020     		movs	r0, #0
 2284              	.LBB86:
 487:..\..\..\liblc3\src/sns.c ****         xm[i] = fabsf(x[i]);
 2285              		.loc 1 487 0
 2286 0066 09E0     		b	.L117
 2287              	.LVL385:
 2288              	.L118:
 488:..\..\..\liblc3\src/sns.c ****         xm_sum += xm[i];
 2289              		.loc 1 488 0 discriminator 3
 2290 0068 AB00     		lsls	r3, r5, #2
 2291 006a 1CAA     		add	r2, sp, #112
 2292 006c 9958     		ldr	r1, [r3, r2]
 2293 006e 4900     		lsls	r1, r1, #1
 2294 0070 4908     		lsrs	r1, r1, #1
 2295 0072 0CAA     		add	r2, sp, #48
 2296 0074 9950     		str	r1, [r3, r2]
 489:..\..\..\liblc3\src/sns.c ****     }
 2297              		.loc 1 489 0 discriminator 3
 2298 0076 FFF7FEFF 		bl	__aeabi_fadd
 2299              	.LVL386:
 487:..\..\..\liblc3\src/sns.c ****         xm[i] = fabsf(x[i]);
 2300              		.loc 1 487 0 discriminator 3
 2301 007a 0135     		adds	r5, r5, #1
 2302              	.LVL387:
 2303              	.L117:
 487:..\..\..\liblc3\src/sns.c ****         xm[i] = fabsf(x[i]);
 2304              		.loc 1 487 0 is_stmt 0 discriminator 1
 2305 007c 0F2D     		cmp	r5, #15
 2306 007e F3DD     		ble	.L118
 2307              	.LBE86:
 492:..\..\..\liblc3\src/sns.c ****     float corr = 0, energy = 0;
 2308              		.loc 1 492 0 is_stmt 1
 2309 0080 9C49     		ldr	r1, .L145+8
 2310 0082 FFF7FEFF 		bl	fmaxf
 2311              	.LVL388:
 2312 0086 011C     		adds	r1, r0, #0
 2313 0088 9B48     		ldr	r0, .L145+12
 2314 008a FFF7FEFF 		bl	__aeabi_fdiv
 2315              	.LVL389:
 2316 008e 0690     		str	r0, [sp, #24]
 2317              	.LVL390:
 493:..\..\..\liblc3\src/sns.c ****     int npulses = 0;
 2318              		.loc 1 493 0
ARM GAS  C:\Users\rdn\AppData\Local\Temp\ccFEeGTH.s 			page 59


 2319 0090 0023     		movs	r3, #0
 2320 0092 0B93     		str	r3, [sp, #44]
 2321 0094 0A93     		str	r3, [sp, #40]
 2322              	.LVL391:
 2323              	.LBB87:
 496:..\..\..\liblc3\src/sns.c ****         c[3][i] = floorf(xm[i] * proj_factor);
 2324              		.loc 1 496 0
 2325 0096 0025     		movs	r5, #0
 2326              	.LVL392:
 2327              	.LBE87:
 494:..\..\..\liblc3\src/sns.c **** 
 2328              		.loc 1 494 0
 2329 0098 0026     		movs	r6, #0
 2330 009a A146     		mov	r9, r4
 2331              	.LBB88:
 496:..\..\..\liblc3\src/sns.c ****         c[3][i] = floorf(xm[i] * proj_factor);
 2332              		.loc 1 496 0
 2333 009c 25E0     		b	.L119
 2334              	.LVL393:
 2335              	.L120:
 497:..\..\..\liblc3\src/sns.c ****         npulses += c[3][i];
 2336              		.loc 1 497 0 discriminator 3
 2337 009e AC00     		lsls	r4, r5, #2
 2338 00a0 0CAB     		add	r3, sp, #48
 2339 00a2 E358     		ldr	r3, [r4, r3]
 2340 00a4 0593     		str	r3, [sp, #20]
 2341 00a6 191C     		adds	r1, r3, #0
 2342 00a8 0698     		ldr	r0, [sp, #24]
 2343 00aa FFF7FEFF 		bl	__aeabi_fmul
 2344              	.LVL394:
 2345 00ae FFF7FEFF 		bl	floorf
 2346              	.LVL395:
 2347 00b2 FFF7FEFF 		bl	__aeabi_f2iz
 2348              	.LVL396:
 2349 00b6 0700     		movs	r7, r0
 2350 00b8 4C44     		add	r4, r4, r9
 2351 00ba 2300     		movs	r3, r4
 2352 00bc C022     		movs	r2, #192
 2353 00be 9850     		str	r0, [r3, r2]
 498:..\..\..\liblc3\src/sns.c ****         corr    += c[3][i] * xm[i];
 2354              		.loc 1 498 0 discriminator 3
 2355 00c0 3618     		adds	r6, r6, r0
 2356              	.LVL397:
 499:..\..\..\liblc3\src/sns.c ****         energy  += c[3][i] * c[3][i];
 2357              		.loc 1 499 0 discriminator 3
 2358 00c2 FFF7FEFF 		bl	__aeabi_i2f
 2359              	.LVL398:
 2360 00c6 0599     		ldr	r1, [sp, #20]
 2361 00c8 FFF7FEFF 		bl	__aeabi_fmul
 2362              	.LVL399:
 2363 00cc 011C     		adds	r1, r0, #0
 2364 00ce 0B98     		ldr	r0, [sp, #44]
 2365 00d0 FFF7FEFF 		bl	__aeabi_fadd
 2366              	.LVL400:
 2367 00d4 0B90     		str	r0, [sp, #44]
 500:..\..\..\liblc3\src/sns.c ****     }
 2368              		.loc 1 500 0 discriminator 3
ARM GAS  C:\Users\rdn\AppData\Local\Temp\ccFEeGTH.s 			page 60


 2369 00d6 3800     		movs	r0, r7
 2370 00d8 7843     		muls	r0, r7
 2371 00da FFF7FEFF 		bl	__aeabi_i2f
 2372              	.LVL401:
 2373 00de 011C     		adds	r1, r0, #0
 2374 00e0 0A98     		ldr	r0, [sp, #40]
 2375 00e2 FFF7FEFF 		bl	__aeabi_fadd
 2376              	.LVL402:
 2377 00e6 0A90     		str	r0, [sp, #40]
 496:..\..\..\liblc3\src/sns.c ****         c[3][i] = floorf(xm[i] * proj_factor);
 2378              		.loc 1 496 0 discriminator 3
 2379 00e8 0135     		adds	r5, r5, #1
 2380              	.LVL403:
 2381              	.L119:
 496:..\..\..\liblc3\src/sns.c ****         c[3][i] = floorf(xm[i] * proj_factor);
 2382              		.loc 1 496 0 is_stmt 0 discriminator 1
 2383 00ea 0F2D     		cmp	r5, #15
 2384 00ec D7DD     		ble	.L120
 2385 00ee 4C46     		mov	r4, r9
 2386              	.LBE88:
 503:..\..\..\liblc3\src/sns.c ****     npulses = 6;
 2387              		.loc 1 503 0 is_stmt 1
 2388 00f0 4F46     		mov	r7, r9
 2389 00f2 C037     		adds	r7, r7, #192
 2390 00f4 0AAB     		add	r3, sp, #40
 2391 00f6 0293     		str	r3, [sp, #8]
 2392 00f8 0BAD     		add	r5, sp, #44
 2393              	.LVL404:
 2394 00fa 0195     		str	r5, [sp, #4]
 2395 00fc 0623     		movs	r3, #6
 2396 00fe 0093     		str	r3, [sp]
 2397 0100 3300     		movs	r3, r6
 2398 0102 1022     		movs	r2, #16
 2399 0104 3900     		movs	r1, r7
 2400 0106 0CA8     		add	r0, sp, #48
 2401 0108 FFF7FEFF 		bl	add_pulse
 2402              	.LVL405:
 509:..\..\..\liblc3\src/sns.c **** 
 2403              		.loc 1 509 0
 2404 010c 4B46     		mov	r3, r9
 2405 010e 8033     		adds	r3, r3, #128
 2406 0110 4022     		movs	r2, #64
 2407 0112 3900     		movs	r1, r7
 2408 0114 1F00     		movs	r7, r3
 2409 0116 1800     		movs	r0, r3
 2410 0118 FFF7FEFF 		bl	memcpy
 2411              	.LVL406:
 511:..\..\..\liblc3\src/sns.c ****     npulses = 8;
 2412              		.loc 1 511 0
 2413 011c 0AAB     		add	r3, sp, #40
 2414 011e 0293     		str	r3, [sp, #8]
 2415 0120 0195     		str	r5, [sp, #4]
 2416 0122 0823     		movs	r3, #8
 2417 0124 0093     		str	r3, [sp]
 2418 0126 023B     		subs	r3, r3, #2
 2419 0128 1022     		movs	r2, #16
 2420 012a 3900     		movs	r1, r7
ARM GAS  C:\Users\rdn\AppData\Local\Temp\ccFEeGTH.s 			page 61


 2421 012c 0CA8     		add	r0, sp, #48
 2422 012e FFF7FEFF 		bl	add_pulse
 2423              	.LVL407:
 519:..\..\..\liblc3\src/sns.c **** 
 2424              		.loc 1 519 0
 2425 0132 4023     		movs	r3, #64
 2426 0134 9C46     		mov	ip, r3
 2427 0136 CC44     		add	ip, ip, r9
 2428 0138 6346     		mov	r3, ip
 2429 013a 6046     		mov	r0, ip
 2430 013c 0593     		str	r3, [sp, #20]
 2431 013e 4022     		movs	r2, #64
 2432 0140 3900     		movs	r1, r7
 2433 0142 FFF7FEFF 		bl	memcpy
 2434              	.LVL408:
 2435              	.LBB89:
 521:..\..\..\liblc3\src/sns.c ****         c[1][i] = 0;
 2436              		.loc 1 521 0
 2437 0146 0A26     		movs	r6, #10
 2438              	.LBE89:
 512:..\..\..\liblc3\src/sns.c **** 
 2439              		.loc 1 512 0
 2440 0148 0827     		movs	r7, #8
 2441              	.LBB90:
 521:..\..\..\liblc3\src/sns.c ****         c[1][i] = 0;
 2442              		.loc 1 521 0
 2443 014a 1EE0     		b	.L121
 2444              	.LVL409:
 2445              	.L122:
 522:..\..\..\liblc3\src/sns.c ****         npulses -= c[2][i];
 2446              		.loc 1 522 0 discriminator 3
 2447 014c B300     		lsls	r3, r6, #2
 2448 014e E218     		adds	r2, r4, r3
 2449 0150 0021     		movs	r1, #0
 2450 0152 1164     		str	r1, [r2, #64]
 523:..\..\..\liblc3\src/sns.c ****         corr    -= c[2][i] * xm[i];
 2451              		.loc 1 523 0 discriminator 3
 2452 0154 8031     		adds	r1, r1, #128
 2453 0156 5558     		ldr	r5, [r2, r1]
 2454 0158 7F1B     		subs	r7, r7, r5
 2455              	.LVL410:
 524:..\..\..\liblc3\src/sns.c ****         energy  -= c[2][i] * c[2][i];
 2456              		.loc 1 524 0 discriminator 3
 2457 015a 0CAA     		add	r2, sp, #48
 2458 015c 9B58     		ldr	r3, [r3, r2]
 2459 015e 9946     		mov	r9, r3
 2460 0160 2800     		movs	r0, r5
 2461 0162 FFF7FEFF 		bl	__aeabi_i2f
 2462              	.LVL411:
 2463 0166 4946     		mov	r1, r9
 2464 0168 FFF7FEFF 		bl	__aeabi_fmul
 2465              	.LVL412:
 2466 016c 011C     		adds	r1, r0, #0
 2467 016e 0B98     		ldr	r0, [sp, #44]
 2468 0170 FFF7FEFF 		bl	__aeabi_fsub
 2469              	.LVL413:
 2470 0174 0B90     		str	r0, [sp, #44]
ARM GAS  C:\Users\rdn\AppData\Local\Temp\ccFEeGTH.s 			page 62


 525:..\..\..\liblc3\src/sns.c ****     }
 2471              		.loc 1 525 0 discriminator 3
 2472 0176 2800     		movs	r0, r5
 2473 0178 6843     		muls	r0, r5
 2474 017a FFF7FEFF 		bl	__aeabi_i2f
 2475              	.LVL414:
 2476 017e 011C     		adds	r1, r0, #0
 2477 0180 0A98     		ldr	r0, [sp, #40]
 2478 0182 FFF7FEFF 		bl	__aeabi_fsub
 2479              	.LVL415:
 2480 0186 0A90     		str	r0, [sp, #40]
 521:..\..\..\liblc3\src/sns.c ****         c[1][i] = 0;
 2481              		.loc 1 521 0 discriminator 3
 2482 0188 0136     		adds	r6, r6, #1
 2483              	.LVL416:
 2484              	.L121:
 521:..\..\..\liblc3\src/sns.c ****         c[1][i] = 0;
 2485              		.loc 1 521 0 is_stmt 0 discriminator 1
 2486 018a 0F2E     		cmp	r6, #15
 2487 018c DEDD     		ble	.L122
 2488              	.LBE90:
 528:..\..\..\liblc3\src/sns.c ****     npulses = 10;
 2489              		.loc 1 528 0 is_stmt 1
 2490 018e 0AAE     		add	r6, sp, #40
 2491              	.LVL417:
 2492 0190 0296     		str	r6, [sp, #8]
 2493 0192 0BAD     		add	r5, sp, #44
 2494 0194 0195     		str	r5, [sp, #4]
 2495 0196 0A23     		movs	r3, #10
 2496 0198 0093     		str	r3, [sp]
 2497 019a 3B00     		movs	r3, r7
 2498 019c 0A22     		movs	r2, #10
 2499 019e 059F     		ldr	r7, [sp, #20]
 2500              	.LVL418:
 2501 01a0 3900     		movs	r1, r7
 2502 01a2 0CA8     		add	r0, sp, #48
 2503 01a4 FFF7FEFF 		bl	add_pulse
 2504              	.LVL419:
 534:..\..\..\liblc3\src/sns.c **** 
 2505              		.loc 1 534 0
 2506 01a8 4022     		movs	r2, #64
 2507 01aa 3900     		movs	r1, r7
 2508 01ac 2000     		movs	r0, r4
 2509 01ae FFF7FEFF 		bl	memcpy
 2510              	.LVL420:
 536:..\..\..\liblc3\src/sns.c **** 
 2511              		.loc 1 536 0
 2512 01b2 2100     		movs	r1, r4
 2513 01b4 2831     		adds	r1, r1, #40
 2514 01b6 0296     		str	r6, [sp, #8]
 2515 01b8 0195     		str	r5, [sp, #4]
 2516 01ba 0123     		movs	r3, #1
 2517 01bc 0093     		str	r3, [sp]
 2518 01be 0023     		movs	r3, #0
 2519 01c0 0622     		movs	r2, #6
 2520 01c2 16A8     		add	r0, sp, #88
 2521 01c4 FFF7FEFF 		bl	add_pulse
ARM GAS  C:\Users\rdn\AppData\Local\Temp\ccFEeGTH.s 			page 63


 2522              	.LVL421:
 2523              	.LBB91:
 540:..\..\..\liblc3\src/sns.c ****         for (int i = 0; i < 4; i++)
 2524              		.loc 1 540 0
 2525 01c8 0027     		movs	r7, #0
 2526 01ca 18E0     		b	.L123
 2527              	.LVL422:
 2528              	.L127:
 2529              	.LBB92:
 542:..\..\..\liblc3\src/sns.c **** 
 2530              		.loc 1 542 0
 2531 01cc B501     		lsls	r5, r6, #6
 2532 01ce BB00     		lsls	r3, r7, #2
 2533 01d0 1CAA     		add	r2, sp, #112
 2534 01d2 9858     		ldr	r0, [r3, r2]
 2535 01d4 0021     		movs	r1, #0
 2536 01d6 FFF7FEFF 		bl	__aeabi_fcmplt
 2537              	.LVL423:
 2538 01da 0028     		cmp	r0, #0
 2539 01dc 04D0     		beq	.L144
 542:..\..\..\liblc3\src/sns.c **** 
 2540              		.loc 1 542 0 is_stmt 0 discriminator 1
 2541 01de 6319     		adds	r3, r4, r5
 2542 01e0 BA00     		lsls	r2, r7, #2
 2543 01e2 D258     		ldr	r2, [r2, r3]
 2544 01e4 5242     		rsbs	r2, r2, #0
 2545 01e6 02E0     		b	.L126
 2546              	.L144:
 542:..\..\..\liblc3\src/sns.c **** 
 2547              		.loc 1 542 0 discriminator 2
 2548 01e8 6319     		adds	r3, r4, r5
 2549 01ea BA00     		lsls	r2, r7, #2
 2550 01ec D258     		ldr	r2, [r2, r3]
 2551              	.L126:
 542:..\..\..\liblc3\src/sns.c **** 
 2552              		.loc 1 542 0 discriminator 4
 2553 01ee B900     		lsls	r1, r7, #2
 2554 01f0 CA50     		str	r2, [r1, r3]
 541:..\..\..\liblc3\src/sns.c ****             c[i][j] = x[j] < 0 ? -c[i][j] : c[i][j];
 2555              		.loc 1 541 0 is_stmt 1 discriminator 4
 2556 01f2 0136     		adds	r6, r6, #1
 2557              	.LVL424:
 2558 01f4 00E0     		b	.L128
 2559              	.LVL425:
 2560              	.L140:
 2561              	.LBE92:
 2562 01f6 0026     		movs	r6, #0
 2563              	.L128:
 2564              	.LVL426:
 2565              	.LBB93:
 541:..\..\..\liblc3\src/sns.c ****             c[i][j] = x[j] < 0 ? -c[i][j] : c[i][j];
 2566              		.loc 1 541 0 is_stmt 0 discriminator 2
 2567 01f8 032E     		cmp	r6, #3
 2568 01fa E7DD     		ble	.L127
 2569              	.LBE93:
 540:..\..\..\liblc3\src/sns.c ****         for (int i = 0; i < 4; i++)
 2570              		.loc 1 540 0 is_stmt 1 discriminator 2
ARM GAS  C:\Users\rdn\AppData\Local\Temp\ccFEeGTH.s 			page 64


 2571 01fc 0137     		adds	r7, r7, #1
 2572              	.LVL427:
 2573              	.L123:
 540:..\..\..\liblc3\src/sns.c ****         for (int i = 0; i < 4; i++)
 2574              		.loc 1 540 0 is_stmt 0 discriminator 1
 2575 01fe 0F2F     		cmp	r7, #15
 2576 0200 F9DD     		ble	.L140
 2577 0202 0025     		movs	r5, #0
 2578 0204 4646     		mov	r6, r8
 2579 0206 05E0     		b	.L129
 2580              	.LVL428:
 2581              	.L130:
 2582              	.LBE91:
 2583              	.LBB94:
 545:..\..\..\liblc3\src/sns.c **** 
 2584              		.loc 1 545 0 is_stmt 1 discriminator 3
 2585 0208 A801     		lsls	r0, r5, #6
 2586 020a 3118     		adds	r1, r6, r0
 2587 020c 2018     		adds	r0, r4, r0
 2588 020e FFF7FEFF 		bl	normalize
 2589              	.LVL429:
 544:..\..\..\liblc3\src/sns.c ****         normalize(c[i], cn[i]);
 2590              		.loc 1 544 0 discriminator 3
 2591 0212 0135     		adds	r5, r5, #1
 2592              	.LVL430:
 2593              	.L129:
 544:..\..\..\liblc3\src/sns.c ****         normalize(c[i], cn[i]);
 2594              		.loc 1 544 0 is_stmt 0 discriminator 1
 2595 0214 032D     		cmp	r5, #3
 2596 0216 F7DD     		ble	.L130
 2597              	.LVL431:
 2598              	.LBE94:
 551:..\..\..\liblc3\src/sns.c **** 
 2599              		.loc 1 551 0 is_stmt 1
 2600 0218 0023     		movs	r3, #0
 2601 021a 489A     		ldr	r2, [sp, #288]
 2602 021c 1360     		str	r3, [r2]
 2603 021e 479A     		ldr	r2, [sp, #284]
 2604 0220 1360     		str	r3, [r2]
 2605              	.LVL432:
 2606              	.LBB95:
 553:..\..\..\liblc3\src/sns.c ****         const struct lc3_sns_vq_gains *cgains = lc3_sns_vq_gains + ic;
 2607              		.loc 1 553 0
 2608 0222 9946     		mov	r9, r3
 2609              	.LBE95:
 550:..\..\..\liblc3\src/sns.c ****     *shape_idx = *gain_idx = 0;
 2610              		.loc 1 550 0
 2611 0224 FF23     		movs	r3, #255
 2612 0226 DB05     		lsls	r3, r3, #23
 2613 0228 0993     		str	r3, [sp, #36]
 2614 022a 3700     		movs	r7, r6
 2615              	.LVL433:
 2616              	.LBB102:
 553:..\..\..\liblc3\src/sns.c ****         const struct lc3_sns_vq_gains *cgains = lc3_sns_vq_gains + ic;
 2617              		.loc 1 553 0
 2618 022c 54E0     		b	.L131
 2619              	.LVL434:
ARM GAS  C:\Users\rdn\AppData\Local\Temp\ccFEeGTH.s 			page 65


 2620              	.L139:
 2621              	.LBB96:
 554:..\..\..\liblc3\src/sns.c ****         float cmse_min = INFINITY;
 2622              		.loc 1 554 0
 2623 022e 4B46     		mov	r3, r9
 2624              	.LVL435:
 2625 0230 DB00     		lsls	r3, r3, #3
 2626 0232 324A     		ldr	r2, .L145+16
 2627 0234 9B46     		mov	fp, r3
 2628 0236 9344     		add	fp, fp, r2
 2629              	.LVL436:
 2630              	.LBB97:
 558:..\..\..\liblc3\src/sns.c ****             float g = cgains->v[ig];
 2631              		.loc 1 558 0
 2632 0238 0023     		movs	r3, #0
 2633 023a 9A46     		mov	r10, r3
 2634              	.LBE97:
 556:..\..\..\liblc3\src/sns.c **** 
 2635              		.loc 1 556 0
 2636 023c 0893     		str	r3, [sp, #32]
 555:..\..\..\liblc3\src/sns.c ****         int cgain_idx = 0;
 2637              		.loc 1 555 0
 2638 023e FF23     		movs	r3, #255
 2639 0240 DB05     		lsls	r3, r3, #23
 2640 0242 0793     		str	r3, [sp, #28]
 2641 0244 3E00     		movs	r6, r7
 2642 0246 4F46     		mov	r7, r9
 2643              	.LBB101:
 558:..\..\..\liblc3\src/sns.c ****             float g = cgains->v[ig];
 2644              		.loc 1 558 0
 2645 0248 30E0     		b	.L132
 2646              	.LVL437:
 2647              	.L136:
 2648              	.LBB98:
 559:..\..\..\liblc3\src/sns.c **** 
 2649              		.loc 1 559 0
 2650 024a 5346     		mov	r3, r10
 2651 024c 9B00     		lsls	r3, r3, #2
 2652 024e 5A46     		mov	r2, fp
 2653 0250 5268     		ldr	r2, [r2, #4]
 2654 0252 D358     		ldr	r3, [r2, r3]
 2655 0254 0693     		str	r3, [sp, #24]
 2656              	.LVL438:
 2657              	.LBB99:
 562:..\..\..\liblc3\src/sns.c ****                 mse += (x[i] - g * cn[ic][i]) * (x[i] - g * cn[ic][i]);
 2658              		.loc 1 562 0
 2659 0256 0024     		movs	r4, #0
 2660              	.LBE99:
 561:..\..\..\liblc3\src/sns.c ****             for (int i = 0; i < 16; i++)
 2661              		.loc 1 561 0
 2662 0258 0023     		movs	r3, #0
 2663              	.LVL439:
 2664 025a 0593     		str	r3, [sp, #20]
 2665 025c 3500     		movs	r5, r6
 2666              	.LBB100:
 562:..\..\..\liblc3\src/sns.c ****                 mse += (x[i] - g * cn[ic][i]) * (x[i] - g * cn[ic][i]);
 2667              		.loc 1 562 0
ARM GAS  C:\Users\rdn\AppData\Local\Temp\ccFEeGTH.s 			page 66


 2668 025e 15E0     		b	.L133
 2669              	.LVL440:
 2670              	.L134:
 563:..\..\..\liblc3\src/sns.c **** 
 2671              		.loc 1 563 0 discriminator 3
 2672 0260 A200     		lsls	r2, r4, #2
 2673 0262 1CAB     		add	r3, sp, #112
 2674 0264 D658     		ldr	r6, [r2, r3]
 2675 0266 BB01     		lsls	r3, r7, #6
 2676 0268 EB18     		adds	r3, r5, r3
 2677 026a D158     		ldr	r1, [r2, r3]
 2678 026c 0698     		ldr	r0, [sp, #24]
 2679 026e FFF7FEFF 		bl	__aeabi_fmul
 2680              	.LVL441:
 2681 0272 011C     		adds	r1, r0, #0
 2682 0274 301C     		adds	r0, r6, #0
 2683 0276 FFF7FEFF 		bl	__aeabi_fsub
 2684              	.LVL442:
 2685 027a 011C     		adds	r1, r0, #0
 2686 027c FFF7FEFF 		bl	__aeabi_fmul
 2687              	.LVL443:
 2688 0280 011C     		adds	r1, r0, #0
 2689 0282 0598     		ldr	r0, [sp, #20]
 2690 0284 FFF7FEFF 		bl	__aeabi_fadd
 2691              	.LVL444:
 2692 0288 0590     		str	r0, [sp, #20]
 2693              	.LVL445:
 562:..\..\..\liblc3\src/sns.c ****                 mse += (x[i] - g * cn[ic][i]) * (x[i] - g * cn[ic][i]);
 2694              		.loc 1 562 0 discriminator 3
 2695 028a 0134     		adds	r4, r4, #1
 2696              	.LVL446:
 2697              	.L133:
 562:..\..\..\liblc3\src/sns.c ****                 mse += (x[i] - g * cn[ic][i]) * (x[i] - g * cn[ic][i]);
 2698              		.loc 1 562 0 is_stmt 0 discriminator 1
 2699 028c 0F2C     		cmp	r4, #15
 2700 028e E7DD     		ble	.L134
 2701 0290 2E00     		movs	r6, r5
 2702              	.LBE100:
 565:..\..\..\liblc3\src/sns.c ****                 cgain_idx = ig,
 2703              		.loc 1 565 0 is_stmt 1
 2704 0292 059C     		ldr	r4, [sp, #20]
 2705              	.LVL447:
 2706 0294 211C     		adds	r1, r4, #0
 2707 0296 0798     		ldr	r0, [sp, #28]
 2708 0298 FFF7FEFF 		bl	__aeabi_fcmpgt
 2709              	.LVL448:
 2710 029c 0028     		cmp	r0, #0
 2711 029e 02D0     		beq	.L135
 566:..\..\..\liblc3\src/sns.c ****                 cmse_min = mse;
 2712              		.loc 1 566 0
 2713 02a0 5346     		mov	r3, r10
 2714 02a2 0893     		str	r3, [sp, #32]
 2715              	.LVL449:
 567:..\..\..\liblc3\src/sns.c ****             }
 2716              		.loc 1 567 0
 2717 02a4 0794     		str	r4, [sp, #28]
 2718              	.LVL450:
ARM GAS  C:\Users\rdn\AppData\Local\Temp\ccFEeGTH.s 			page 67


 2719              	.L135:
 2720              	.LBE98:
 558:..\..\..\liblc3\src/sns.c ****             float g = cgains->v[ig];
 2721              		.loc 1 558 0 discriminator 2
 2722 02a6 0123     		movs	r3, #1
 2723 02a8 9C46     		mov	ip, r3
 2724 02aa E244     		add	r10, r10, ip
 2725              	.LVL451:
 2726              	.L132:
 558:..\..\..\liblc3\src/sns.c ****             float g = cgains->v[ig];
 2727              		.loc 1 558 0 is_stmt 0 discriminator 1
 2728 02ac 5B46     		mov	r3, fp
 2729 02ae 1B68     		ldr	r3, [r3]
 2730 02b0 9A45     		cmp	r10, r3
 2731 02b2 CADB     		blt	.L136
 2732 02b4 3700     		movs	r7, r6
 2733              	.LVL452:
 2734              	.LBE101:
 571:..\..\..\liblc3\src/sns.c ****             *shape_idx = ic, *gain_idx = cgain_idx;
 2735              		.loc 1 571 0 is_stmt 1
 2736 02b6 079C     		ldr	r4, [sp, #28]
 2737 02b8 211C     		adds	r1, r4, #0
 2738 02ba 0998     		ldr	r0, [sp, #36]
 2739 02bc FFF7FEFF 		bl	__aeabi_fcmpgt
 2740              	.LVL453:
 2741 02c0 0028     		cmp	r0, #0
 2742 02c2 06D0     		beq	.L137
 572:..\..\..\liblc3\src/sns.c ****             mse_min = cmse_min;
 2743              		.loc 1 572 0
 2744 02c4 479B     		ldr	r3, [sp, #284]
 2745 02c6 4A46     		mov	r2, r9
 2746 02c8 1A60     		str	r2, [r3]
 2747 02ca 489B     		ldr	r3, [sp, #288]
 2748 02cc 089A     		ldr	r2, [sp, #32]
 2749 02ce 1A60     		str	r2, [r3]
 2750              	.LVL454:
 573:..\..\..\liblc3\src/sns.c ****         }
 2751              		.loc 1 573 0
 2752 02d0 0994     		str	r4, [sp, #36]
 2753              	.LVL455:
 2754              	.L137:
 2755              	.LBE96:
 553:..\..\..\liblc3\src/sns.c ****         const struct lc3_sns_vq_gains *cgains = lc3_sns_vq_gains + ic;
 2756              		.loc 1 553 0 discriminator 2
 2757 02d2 4B46     		mov	r3, r9
 2758 02d4 0133     		adds	r3, r3, #1
 2759 02d6 9946     		mov	r9, r3
 2760              	.LVL456:
 2761              	.L131:
 553:..\..\..\liblc3\src/sns.c ****         const struct lc3_sns_vq_gains *cgains = lc3_sns_vq_gains + ic;
 2762              		.loc 1 553 0 is_stmt 0 discriminator 1
 2763 02d8 4B46     		mov	r3, r9
 2764 02da 032B     		cmp	r3, #3
 2765 02dc A7DD     		ble	.L139
 2766              	.LBE102:
 576:..\..\..\liblc3\src/sns.c **** 
 2767              		.loc 1 576 0 is_stmt 1
ARM GAS  C:\Users\rdn\AppData\Local\Temp\ccFEeGTH.s 			page 68


 2768 02de 3DB0     		add	sp, sp, #244
 2769              		@ sp needed
 2770              	.LVL457:
 2771 02e0 3CBC     		pop	{r2, r3, r4, r5}
 2772 02e2 9046     		mov	r8, r2
 2773 02e4 9946     		mov	r9, r3
 2774 02e6 A246     		mov	r10, r4
 2775 02e8 AB46     		mov	fp, r5
 2776 02ea F0BD     		pop	{r4, r5, r6, r7, pc}
 2777              	.L146:
 2778              		.align	2
 2779              	.L145:
 2780 02ec 00000000 		.word	lc3_sns_lfcb
 2781 02f0 00000000 		.word	lc3_sns_hfcb
 2782 02f4 B3CE010C 		.word	201445043
 2783 02f8 0000A040 		.word	1084227584
 2784 02fc 00000000 		.word	lc3_sns_vq_gains
 2785              		.cfi_endproc
 2786              	.LFE26:
 2787              		.size	quantize, .-quantize
 2788              		.section	.text.spectral_shaping,"ax",%progbits
 2789              		.align	2
 2790              		.code	16
 2791              		.thumb_func
 2792              		.type	spectral_shaping, %function
 2793              	spectral_shaping:
 2794              	.LFB32:
 685:..\..\..\liblc3\src/sns.c **** 
 686:..\..\..\liblc3\src/sns.c **** /**
 687:..\..\..\liblc3\src/sns.c ****  * SNS Deenumeration of PVQ configuration
 688:..\..\..\liblc3\src/sns.c ****  * shape           Selected shape index
 689:..\..\..\liblc3\src/sns.c ****  * idx_a, ls_a     enumeration set A
 690:..\..\..\liblc3\src/sns.c ****  * idx_b, ls_b     enumeration set B (shape = 0)
 691:..\..\..\liblc3\src/sns.c ****  * c               Return pulse configuration
 692:..\..\..\liblc3\src/sns.c ****  */
 693:..\..\..\liblc3\src/sns.c **** static void deenumerate(int shape,
 694:..\..\..\liblc3\src/sns.c ****     int idx_a, bool ls_a, int idx_b, bool ls_b, int *c)
 695:..\..\..\liblc3\src/sns.c **** {
 696:..\..\..\liblc3\src/sns.c ****     int npulses_a = (const int []){ 10, 10, 8, 6 }[shape];
 697:..\..\..\liblc3\src/sns.c **** 
 698:..\..\..\liblc3\src/sns.c ****     deenum_mvpq(idx_a, ls_a, npulses_a, c, shape < 2 ? 10 : 16);
 699:..\..\..\liblc3\src/sns.c **** 
 700:..\..\..\liblc3\src/sns.c ****     if (shape == 0)
 701:..\..\..\liblc3\src/sns.c ****         deenum_mvpq(idx_b, ls_b, 1, c + 10, 6);
 702:..\..\..\liblc3\src/sns.c ****     else if (shape == 1)
 703:..\..\..\liblc3\src/sns.c ****         memset(c + 10, 0, 6 * sizeof(*c));
 704:..\..\..\liblc3\src/sns.c **** }
 705:..\..\..\liblc3\src/sns.c **** 
 706:..\..\..\liblc3\src/sns.c **** 
 707:..\..\..\liblc3\src/sns.c **** /* ----------------------------------------------------------------------------
 708:..\..\..\liblc3\src/sns.c ****  *  Filtering
 709:..\..\..\liblc3\src/sns.c ****  * -------------------------------------------------------------------------- */
 710:..\..\..\liblc3\src/sns.c **** 
 711:..\..\..\liblc3\src/sns.c **** /**
 712:..\..\..\liblc3\src/sns.c ****  * Spectral shaping
 713:..\..\..\liblc3\src/sns.c ****  * dt, sr          Duration and samplerate of the frame
 714:..\..\..\liblc3\src/sns.c ****  * scf_q           Quantized scale factors
ARM GAS  C:\Users\rdn\AppData\Local\Temp\ccFEeGTH.s 			page 69


 715:..\..\..\liblc3\src/sns.c ****  * inv             True on inverse shaping, False otherwise
 716:..\..\..\liblc3\src/sns.c ****  * x               Spectral coefficients
 717:..\..\..\liblc3\src/sns.c ****  * y               Return shapped coefficients
 718:..\..\..\liblc3\src/sns.c ****  *
 719:..\..\..\liblc3\src/sns.c ****  * `x` and `y` can be the same buffer
 720:..\..\..\liblc3\src/sns.c ****  */
 721:..\..\..\liblc3\src/sns.c **** LC3_HOT static void spectral_shaping(enum lc3_dt dt, enum lc3_srate sr,
 722:..\..\..\liblc3\src/sns.c ****     const float *scf_q, bool inv, const float *x, float *y)
 723:..\..\..\liblc3\src/sns.c **** {
 2795              		.loc 1 723 0
 2796              		.cfi_startproc
 2797              		@ args = 8, pretend = 0, frame = 280
 2798              		@ frame_needed = 0, uses_anonymous_args = 0
 2799              	.LVL458:
 2800 0000 F0B5     		push	{r4, r5, r6, r7, lr}
 2801              		.cfi_def_cfa_offset 20
 2802              		.cfi_offset 4, -20
 2803              		.cfi_offset 5, -16
 2804              		.cfi_offset 6, -12
 2805              		.cfi_offset 7, -8
 2806              		.cfi_offset 14, -4
 2807 0002 5F46     		mov	r7, fp
 2808 0004 5646     		mov	r6, r10
 2809 0006 4D46     		mov	r5, r9
 2810 0008 4446     		mov	r4, r8
 2811 000a F0B4     		push	{r4, r5, r6, r7}
 2812              		.cfi_def_cfa_offset 36
 2813              		.cfi_offset 8, -36
 2814              		.cfi_offset 9, -32
 2815              		.cfi_offset 10, -28
 2816              		.cfi_offset 11, -24
 2817 000c C7B0     		sub	sp, sp, #284
 2818              		.cfi_def_cfa_offset 320
 2819 000e 0290     		str	r0, [sp, #8]
 2820 0010 0391     		str	r1, [sp, #12]
 2821 0012 9146     		mov	r9, r2
 2822 0014 191E     		subs	r1, r3, #0
 2823              	.LVL459:
 2824 0016 509A     		ldr	r2, [sp, #320]
 2825              	.LVL460:
 2826 0018 9346     		mov	fp, r2
 2827 001a 519A     		ldr	r2, [sp, #324]
 2828 001c 9046     		mov	r8, r2
 724:..\..\..\liblc3\src/sns.c ****     /* --- Interpolate scale factors --- */
 725:..\..\..\liblc3\src/sns.c **** 
 726:..\..\..\liblc3\src/sns.c ****     float scf[LC3_MAX_BANDS];
 727:..\..\..\liblc3\src/sns.c ****     float s0, s1 = inv ? -scf_q[0] : scf_q[0];
 2829              		.loc 1 727 0
 2830 001e 07D0     		beq	.L148
 2831              		.loc 1 727 0 is_stmt 0 discriminator 1
 2832 0020 4B46     		mov	r3, r9
 2833              	.LVL461:
 2834 0022 1B68     		ldr	r3, [r3]
 2835 0024 8022     		movs	r2, #128
 2836 0026 1206     		lsls	r2, r2, #24
 2837 0028 9446     		mov	ip, r2
 2838 002a 6344     		add	r3, r3, ip
ARM GAS  C:\Users\rdn\AppData\Local\Temp\ccFEeGTH.s 			page 70


 2839 002c 0093     		str	r3, [sp]
 2840 002e 02E0     		b	.L149
 2841              	.LVL462:
 2842              	.L148:
 2843              		.loc 1 727 0 discriminator 2
 2844 0030 4B46     		mov	r3, r9
 2845              	.LVL463:
 2846 0032 1B68     		ldr	r3, [r3]
 2847 0034 0093     		str	r3, [sp]
 2848              	.L149:
 2849              	.LVL464:
 728:..\..\..\liblc3\src/sns.c **** 
 729:..\..\..\liblc3\src/sns.c ****     scf[0] = scf[1] = s1;
 2850              		.loc 1 729 0 is_stmt 1 discriminator 4
 2851 0036 009B     		ldr	r3, [sp]
 2852 0038 0793     		str	r3, [sp, #28]
 2853 003a 0693     		str	r3, [sp, #24]
 2854              	.LVL465:
 2855              	.LBB110:
 730:..\..\..\liblc3\src/sns.c ****     for (int i = 0; i < 15; i++) {
 2856              		.loc 1 730 0 discriminator 4
 2857 003c 0025     		movs	r5, #0
 2858 003e 2F00     		movs	r7, r5
 2859 0040 8A46     		mov	r10, r1
 2860 0042 5B46     		mov	r3, fp
 2861 0044 5093     		str	r3, [sp, #320]
 2862              	.LVL466:
 2863 0046 4346     		mov	r3, r8
 2864 0048 5193     		str	r3, [sp, #324]
 2865              	.LVL467:
 2866 004a 4BE0     		b	.L150
 2867              	.LVL468:
 2868              	.L153:
 731:..\..\..\liblc3\src/sns.c ****         s0 = s1, s1 = inv ? -scf_q[i+1] : scf_q[i+1];
 2869              		.loc 1 731 0
 2870 004c 5346     		mov	r3, r10
 2871 004e 002B     		cmp	r3, #0
 2872 0050 08D0     		beq	.L151
 2873              		.loc 1 731 0 is_stmt 0 discriminator 1
 2874 0052 7B1C     		adds	r3, r7, #1
 2875 0054 9B00     		lsls	r3, r3, #2
 2876 0056 4A46     		mov	r2, r9
 2877 0058 9D58     		ldr	r5, [r3, r2]
 2878 005a 8023     		movs	r3, #128
 2879 005c 1B06     		lsls	r3, r3, #24
 2880 005e 9C46     		mov	ip, r3
 2881 0060 6544     		add	r5, r5, ip
 2882 0062 03E0     		b	.L152
 2883              	.L151:
 2884              		.loc 1 731 0 discriminator 2
 2885 0064 7B1C     		adds	r3, r7, #1
 2886 0066 9B00     		lsls	r3, r3, #2
 2887 0068 4A46     		mov	r2, r9
 2888 006a D558     		ldr	r5, [r2, r3]
 2889              	.LVL469:
 2890              	.L152:
 732:..\..\..\liblc3\src/sns.c ****         scf[4*i+2] = s0 + 0.125f * (s1 - s0);
ARM GAS  C:\Users\rdn\AppData\Local\Temp\ccFEeGTH.s 			page 71


 2891              		.loc 1 732 0 is_stmt 1 discriminator 4
 2892 006c BE00     		lsls	r6, r7, #2
 2893 006e B31C     		adds	r3, r6, #2
 2894 0070 9B46     		mov	fp, r3
 2895 0072 009C     		ldr	r4, [sp]
 2896 0074 211C     		adds	r1, r4, #0
 2897 0076 281C     		adds	r0, r5, #0
 2898 0078 FFF7FEFF 		bl	__aeabi_fsub
 2899              	.LVL470:
 2900 007c F821     		movs	r1, #248
 2901 007e 8905     		lsls	r1, r1, #22
 2902 0080 0190     		str	r0, [sp, #4]
 2903 0082 FFF7FEFF 		bl	__aeabi_fmul
 2904              	.LVL471:
 2905 0086 011C     		adds	r1, r0, #0
 2906 0088 0094     		str	r4, [sp]
 2907              	.LVL472:
 2908 008a 201C     		adds	r0, r4, #0
 2909 008c FFF7FEFF 		bl	__aeabi_fadd
 2910              	.LVL473:
 2911 0090 06AC     		add	r4, sp, #24
 2912 0092 5B46     		mov	r3, fp
 2913 0094 9B00     		lsls	r3, r3, #2
 2914 0096 1851     		str	r0, [r3, r4]
 733:..\..\..\liblc3\src/sns.c ****         scf[4*i+3] = s0 + 0.375f * (s1 - s0);
 2915              		.loc 1 733 0 discriminator 4
 2916 0098 F31C     		adds	r3, r6, #3
 2917 009a 9B46     		mov	fp, r3
 2918 009c FB21     		movs	r1, #251
 2919 009e 8905     		lsls	r1, r1, #22
 2920 00a0 0198     		ldr	r0, [sp, #4]
 2921 00a2 FFF7FEFF 		bl	__aeabi_fmul
 2922              	.LVL474:
 2923 00a6 011C     		adds	r1, r0, #0
 2924 00a8 0098     		ldr	r0, [sp]
 2925 00aa FFF7FEFF 		bl	__aeabi_fadd
 2926              	.LVL475:
 2927 00ae 5B46     		mov	r3, fp
 2928 00b0 9B00     		lsls	r3, r3, #2
 2929 00b2 1851     		str	r0, [r3, r4]
 734:..\..\..\liblc3\src/sns.c ****         scf[4*i+4] = s0 + 0.625f * (s1 - s0);
 2930              		.loc 1 734 0 discriminator 4
 2931 00b4 0137     		adds	r7, r7, #1
 2932              	.LVL476:
 2933 00b6 8349     		ldr	r1, .L166
 2934 00b8 0198     		ldr	r0, [sp, #4]
 2935 00ba FFF7FEFF 		bl	__aeabi_fmul
 2936              	.LVL477:
 2937 00be 011C     		adds	r1, r0, #0
 2938 00c0 0098     		ldr	r0, [sp]
 2939 00c2 FFF7FEFF 		bl	__aeabi_fadd
 2940              	.LVL478:
 2941 00c6 3B01     		lsls	r3, r7, #4
 2942 00c8 1851     		str	r0, [r3, r4]
 735:..\..\..\liblc3\src/sns.c ****         scf[4*i+5] = s0 + 0.875f * (s1 - s0);
 2943              		.loc 1 735 0 discriminator 4
 2944 00ca 0536     		adds	r6, r6, #5
ARM GAS  C:\Users\rdn\AppData\Local\Temp\ccFEeGTH.s 			page 72


 2945 00cc 7E49     		ldr	r1, .L166+4
 2946 00ce 0198     		ldr	r0, [sp, #4]
 2947 00d0 FFF7FEFF 		bl	__aeabi_fmul
 2948              	.LVL479:
 2949 00d4 011C     		adds	r1, r0, #0
 2950 00d6 0098     		ldr	r0, [sp]
 2951 00d8 FFF7FEFF 		bl	__aeabi_fadd
 2952              	.LVL480:
 2953 00dc B300     		lsls	r3, r6, #2
 2954 00de 1851     		str	r0, [r3, r4]
 2955              	.LVL481:
 731:..\..\..\liblc3\src/sns.c ****         scf[4*i+2] = s0 + 0.125f * (s1 - s0);
 2956              		.loc 1 731 0 discriminator 4
 2957 00e0 009C     		ldr	r4, [sp]
 2958 00e2 0095     		str	r5, [sp]
 2959              	.LVL482:
 2960              	.L150:
 730:..\..\..\liblc3\src/sns.c ****         s0 = s1, s1 = inv ? -scf_q[i+1] : scf_q[i+1];
 2961              		.loc 1 730 0 discriminator 2
 2962 00e4 0E2F     		cmp	r7, #14
 2963 00e6 B1DD     		ble	.L153
 2964 00e8 509B     		ldr	r3, [sp, #320]
 2965 00ea 9B46     		mov	fp, r3
 2966 00ec 519B     		ldr	r3, [sp, #324]
 2967 00ee 9846     		mov	r8, r3
 2968              	.LBE110:
 736:..\..\..\liblc3\src/sns.c ****     }
 737:..\..\..\liblc3\src/sns.c ****     scf[62] = s1 + 0.125f * (s1 - s0);
 2969              		.loc 1 737 0
 2970 00f0 211C     		adds	r1, r4, #0
 2971 00f2 009D     		ldr	r5, [sp]
 2972 00f4 281C     		adds	r0, r5, #0
 2973 00f6 FFF7FEFF 		bl	__aeabi_fsub
 2974              	.LVL483:
 2975 00fa 041C     		adds	r4, r0, #0
 2976              	.LVL484:
 2977 00fc F821     		movs	r1, #248
 2978 00fe 8905     		lsls	r1, r1, #22
 2979 0100 FFF7FEFF 		bl	__aeabi_fmul
 2980              	.LVL485:
 2981 0104 011C     		adds	r1, r0, #0
 2982 0106 281C     		adds	r0, r5, #0
 2983 0108 FFF7FEFF 		bl	__aeabi_fadd
 2984              	.LVL486:
 2985 010c F823     		movs	r3, #248
 2986 010e 04AA     		add	r2, sp, #16
 2987 0110 0821     		movs	r1, #8
 2988 0112 5218     		adds	r2, r2, r1
 2989 0114 D050     		str	r0, [r2, r3]
 738:..\..\..\liblc3\src/sns.c ****     scf[63] = s1 + 0.375f * (s1 - s0);
 2990              		.loc 1 738 0
 2991 0116 FB21     		movs	r1, #251
 2992 0118 8905     		lsls	r1, r1, #22
 2993 011a 201C     		adds	r0, r4, #0
 2994 011c FFF7FEFF 		bl	__aeabi_fmul
 2995              	.LVL487:
 2996 0120 011C     		adds	r1, r0, #0
ARM GAS  C:\Users\rdn\AppData\Local\Temp\ccFEeGTH.s 			page 73


 2997 0122 281C     		adds	r0, r5, #0
 2998 0124 FFF7FEFF 		bl	__aeabi_fadd
 2999              	.LVL488:
 3000 0128 FC23     		movs	r3, #252
 3001 012a 04AA     		add	r2, sp, #16
 3002 012c 0821     		movs	r1, #8
 3003 012e 5218     		adds	r2, r2, r1
 3004 0130 D050     		str	r0, [r2, r3]
 739:..\..\..\liblc3\src/sns.c **** 
 740:..\..\..\liblc3\src/sns.c ****     int nb = lc3_num_bands[dt][sr];
 3005              		.loc 1 740 0
 3006 0132 029A     		ldr	r2, [sp, #8]
 3007 0134 D300     		lsls	r3, r2, #3
 3008 0136 9B1A     		subs	r3, r3, r2
 3009 0138 039A     		ldr	r2, [sp, #12]
 3010 013a 9446     		mov	ip, r2
 3011 013c 6344     		add	r3, r3, ip
 3012 013e 9B00     		lsls	r3, r3, #2
 3013 0140 624A     		ldr	r2, .L166+8
 3014 0142 9B58     		ldr	r3, [r3, r2]
 3015 0144 9946     		mov	r9, r3
 3016              	.LVL489:
 741:..\..\..\liblc3\src/sns.c ****     int n4 = nb < 32 ? 32 % nb : 0;
 3017              		.loc 1 741 0
 3018 0146 1F2B     		cmp	r3, #31
 3019 0148 05DC     		bgt	.L165
 3020              		.loc 1 741 0 is_stmt 0 discriminator 1
 3021 014a 1900     		movs	r1, r3
 3022 014c 2020     		movs	r0, #32
 3023 014e FFF7FEFF 		bl	__aeabi_idivmod
 3024              	.LVL490:
 3025 0152 0D00     		movs	r5, r1
 3026 0154 00E0     		b	.L154
 3027              	.LVL491:
 3028              	.L165:
 3029              		.loc 1 741 0
 3030 0156 0025     		movs	r5, #0
 3031              	.LVL492:
 3032              	.L154:
 742:..\..\..\liblc3\src/sns.c ****     int n2 = nb < 32 ? nb - n4 : LC3_MAX_BANDS - nb;
 3033              		.loc 1 742 0 is_stmt 1 discriminator 4
 3034 0158 4B46     		mov	r3, r9
 3035 015a 1F2B     		cmp	r3, #31
 3036 015c 02DC     		bgt	.L155
 3037              	.LVL493:
 3038              		.loc 1 742 0 is_stmt 0 discriminator 1
 3039 015e 5B1B     		subs	r3, r3, r5
 3040              	.LVL494:
 3041 0160 9A46     		mov	r10, r3
 3042 0162 03E0     		b	.L156
 3043              	.LVL495:
 3044              	.L155:
 3045              		.loc 1 742 0 discriminator 2
 3046 0164 4027     		movs	r7, #64
 3047              	.LVL496:
 3048 0166 4B46     		mov	r3, r9
 3049              	.LVL497:
ARM GAS  C:\Users\rdn\AppData\Local\Temp\ccFEeGTH.s 			page 74


 3050 0168 FB1A     		subs	r3, r7, r3
 3051 016a 9A46     		mov	r10, r3
 3052              	.L156:
 3053              	.LVL498:
 3054              	.LBB111:
 743:..\..\..\liblc3\src/sns.c **** 
 744:..\..\..\liblc3\src/sns.c ****     for (int i4 = 0; i4 < n4; i4++)
 3055              		.loc 1 744 0 is_stmt 1 discriminator 4
 3056 016c 0026     		movs	r6, #0
 3057 016e 18E0     		b	.L157
 3058              	.LVL499:
 3059              	.L158:
 745:..\..\..\liblc3\src/sns.c ****         scf[i4] = 0.25f * (scf[4*i4+0] + scf[4*i4+1] +
 3060              		.loc 1 745 0 discriminator 3
 3061 0170 B700     		lsls	r7, r6, #2
 3062 0172 06AC     		add	r4, sp, #24
 3063 0174 3301     		lsls	r3, r6, #4
 3064 0176 1859     		ldr	r0, [r3, r4]
 3065 0178 7B1C     		adds	r3, r7, #1
 3066 017a 9B00     		lsls	r3, r3, #2
 3067 017c 1959     		ldr	r1, [r3, r4]
 3068 017e FFF7FEFF 		bl	__aeabi_fadd
 3069              	.LVL500:
 746:..\..\..\liblc3\src/sns.c ****                            scf[4*i4+2] + scf[4*i4+3]);
 3070              		.loc 1 746 0 discriminator 3
 3071 0182 BB1C     		adds	r3, r7, #2
 3072 0184 9B00     		lsls	r3, r3, #2
 3073 0186 1959     		ldr	r1, [r3, r4]
 745:..\..\..\liblc3\src/sns.c ****         scf[i4] = 0.25f * (scf[4*i4+0] + scf[4*i4+1] +
 3074              		.loc 1 745 0 discriminator 3
 3075 0188 FFF7FEFF 		bl	__aeabi_fadd
 3076              	.LVL501:
 3077              		.loc 1 746 0 discriminator 3
 3078 018c FB1C     		adds	r3, r7, #3
 3079 018e 9B00     		lsls	r3, r3, #2
 3080 0190 1959     		ldr	r1, [r3, r4]
 3081 0192 FFF7FEFF 		bl	__aeabi_fadd
 3082              	.LVL502:
 745:..\..\..\liblc3\src/sns.c ****         scf[i4] = 0.25f * (scf[4*i4+0] + scf[4*i4+1] +
 3083              		.loc 1 745 0 discriminator 3
 3084 0196 FA21     		movs	r1, #250
 3085 0198 8905     		lsls	r1, r1, #22
 3086 019a FFF7FEFF 		bl	__aeabi_fmul
 3087              	.LVL503:
 3088 019e 3851     		str	r0, [r7, r4]
 744:..\..\..\liblc3\src/sns.c ****         scf[i4] = 0.25f * (scf[4*i4+0] + scf[4*i4+1] +
 3089              		.loc 1 744 0 discriminator 3
 3090 01a0 0136     		adds	r6, r6, #1
 3091              	.LVL504:
 3092              	.L157:
 744:..\..\..\liblc3\src/sns.c ****         scf[i4] = 0.25f * (scf[4*i4+0] + scf[4*i4+1] +
 3093              		.loc 1 744 0 is_stmt 0 discriminator 1
 3094 01a2 AE42     		cmp	r6, r5
 3095 01a4 E4DB     		blt	.L158
 3096 01a6 2E00     		movs	r6, r5
 3097              	.LVL505:
 3098 01a8 5746     		mov	r7, r10
ARM GAS  C:\Users\rdn\AppData\Local\Temp\ccFEeGTH.s 			page 75


 3099 01aa 10E0     		b	.L159
 3100              	.LVL506:
 3101              	.L160:
 3102              	.LBE111:
 3103              	.LBB112:
 747:..\..\..\liblc3\src/sns.c **** 
 748:..\..\..\liblc3\src/sns.c ****     for (int i2 = n4; i2 < n4+n2; i2++)
 749:..\..\..\liblc3\src/sns.c ****         scf[i2] = 0.5f * (scf[2*(n4+i2)] + scf[2*(n4+i2)+1]);
 3104              		.loc 1 749 0 is_stmt 1 discriminator 3
 3105 01ac 7219     		adds	r2, r6, r5
 3106 01ae 5300     		lsls	r3, r2, #1
 3107 01b0 06AC     		add	r4, sp, #24
 3108 01b2 D200     		lsls	r2, r2, #3
 3109 01b4 1059     		ldr	r0, [r2, r4]
 3110 01b6 0133     		adds	r3, r3, #1
 3111 01b8 9B00     		lsls	r3, r3, #2
 3112 01ba 1959     		ldr	r1, [r3, r4]
 3113 01bc FFF7FEFF 		bl	__aeabi_fadd
 3114              	.LVL507:
 3115 01c0 FC21     		movs	r1, #252
 3116 01c2 8905     		lsls	r1, r1, #22
 3117 01c4 FFF7FEFF 		bl	__aeabi_fmul
 3118              	.LVL508:
 3119 01c8 B300     		lsls	r3, r6, #2
 3120 01ca 1851     		str	r0, [r3, r4]
 748:..\..\..\liblc3\src/sns.c ****         scf[i2] = 0.5f * (scf[2*(n4+i2)] + scf[2*(n4+i2)+1]);
 3121              		.loc 1 748 0 discriminator 3
 3122 01cc 0136     		adds	r6, r6, #1
 3123              	.LVL509:
 3124              	.L159:
 748:..\..\..\liblc3\src/sns.c ****         scf[i2] = 0.5f * (scf[2*(n4+i2)] + scf[2*(n4+i2)+1]);
 3125              		.loc 1 748 0 is_stmt 0 discriminator 1
 3126 01ce EB19     		adds	r3, r5, r7
 3127 01d0 9E42     		cmp	r6, r3
 3128 01d2 EBDB     		blt	.L160
 3129              	.LBE112:
 750:..\..\..\liblc3\src/sns.c **** 
 751:..\..\..\liblc3\src/sns.c ****     memmove(scf + n4 + n2, scf + 4*n4 + 2*n2, (nb - n4 - n2) * sizeof(float));
 3130              		.loc 1 751 0 is_stmt 1
 3131 01d4 E819     		adds	r0, r5, r7
 3132 01d6 8000     		lsls	r0, r0, #2
 3133 01d8 4B46     		mov	r3, r9
 3134 01da 5A1B     		subs	r2, r3, r5
 3135 01dc D21B     		subs	r2, r2, r7
 3136 01de 9200     		lsls	r2, r2, #2
 3137 01e0 2D01     		lsls	r5, r5, #4
 3138              	.LVL510:
 3139 01e2 F900     		lsls	r1, r7, #3
 3140 01e4 6D18     		adds	r5, r5, r1
 3141 01e6 06AB     		add	r3, sp, #24
 3142 01e8 5919     		adds	r1, r3, r5
 3143 01ea 9C46     		mov	ip, r3
 3144 01ec 6044     		add	r0, r0, ip
 3145 01ee FFF7FEFF 		bl	memmove
 3146              	.LVL511:
 752:..\..\..\liblc3\src/sns.c **** 
 753:..\..\..\liblc3\src/sns.c ****     /* --- Spectral shaping --- */
ARM GAS  C:\Users\rdn\AppData\Local\Temp\ccFEeGTH.s 			page 76


 754:..\..\..\liblc3\src/sns.c **** 
 755:..\..\..\liblc3\src/sns.c ****     const int *lim = lc3_band_lim[dt][sr];
 3147              		.loc 1 755 0
 3148 01f2 029A     		ldr	r2, [sp, #8]
 3149 01f4 D300     		lsls	r3, r2, #3
 3150 01f6 9B1A     		subs	r3, r3, r2
 3151 01f8 039A     		ldr	r2, [sp, #12]
 3152 01fa 9446     		mov	ip, r2
 3153 01fc 6344     		add	r3, r3, ip
 3154 01fe 9B00     		lsls	r3, r3, #2
 3155 0200 334A     		ldr	r2, .L166+12
 3156 0202 9F58     		ldr	r7, [r3, r2]
 3157              	.LVL512:
 3158              	.LBB113:
 756:..\..\..\liblc3\src/sns.c **** 
 757:..\..\..\liblc3\src/sns.c ****     for (int i = 0, ib = 0; ib < nb; ib++) {
 3159              		.loc 1 757 0
 3160 0204 0026     		movs	r6, #0
 3161              	.LVL513:
 3162 0206 0024     		movs	r4, #0
 3163 0208 CA46     		mov	r10, r9
 3164              	.LVL514:
 3165 020a 51E0     		b	.L161
 3166              	.LVL515:
 3167              	.L164:
 3168              	.LBB114:
 758:..\..\..\liblc3\src/sns.c ****         float g_sns = lc3_exp2f(-scf[ib]);
 3169              		.loc 1 758 0
 3170 020c B300     		lsls	r3, r6, #2
 3171 020e 06AA     		add	r2, sp, #24
 3172 0210 9D58     		ldr	r5, [r3, r2]
 3173 0212 8023     		movs	r3, #128
 3174 0214 1B06     		lsls	r3, r3, #24
 3175 0216 9C46     		mov	ip, r3
 3176 0218 6544     		add	r5, r5, ip
 3177              	.LVL516:
 3178              	.LBB115:
 3179              	.LBB116:
  98:..\..\..\liblc3\src/fastmath.h ****     int k = v.s;
 3180              		.loc 2 98 0
 3181 021a 2E49     		ldr	r1, .L166+16
 3182 021c 281C     		adds	r0, r5, #0
 3183 021e FFF7FEFF 		bl	__aeabi_fadd
 3184              	.LVL517:
 3185 0222 0590     		str	r0, [sp, #20]
  99:..\..\..\liblc3\src/fastmath.h ****     x -= v.f - 0x1.8p20f;
 3186              		.loc 2 99 0
 3187 0224 059B     		ldr	r3, [sp, #20]
 3188 0226 9946     		mov	r9, r3
 3189              	.LVL518:
 100:..\..\..\liblc3\src/fastmath.h **** 
 3190              		.loc 2 100 0
 3191 0228 0598     		ldr	r0, [sp, #20]
 3192 022a 2A49     		ldr	r1, .L166+16
 3193 022c FFF7FEFF 		bl	__aeabi_fsub
 3194              	.LVL519:
 3195 0230 011C     		adds	r1, r0, #0
ARM GAS  C:\Users\rdn\AppData\Local\Temp\ccFEeGTH.s 			page 77


 3196 0232 281C     		adds	r0, r5, #0
 3197 0234 FFF7FEFF 		bl	__aeabi_fsub
 3198              	.LVL520:
 3199 0238 051C     		adds	r5, r0, #0
 3200              	.LVL521:
 108:..\..\..\liblc3\src/fastmath.h ****     y.f = (y.f + p[1]) * x;
 3201              		.loc 2 108 0
 3202 023a 2749     		ldr	r1, .L166+20
 3203 023c FFF7FEFF 		bl	__aeabi_fmul
 3204              	.LVL522:
 109:..\..\..\liblc3\src/fastmath.h ****     y.f = (y.f + p[2]) * x;
 3205              		.loc 2 109 0
 3206 0240 2649     		ldr	r1, .L166+24
 3207 0242 FFF7FEFF 		bl	__aeabi_fadd
 3208              	.LVL523:
 3209 0246 011C     		adds	r1, r0, #0
 3210 0248 281C     		adds	r0, r5, #0
 3211 024a FFF7FEFF 		bl	__aeabi_fmul
 3212              	.LVL524:
 110:..\..\..\liblc3\src/fastmath.h ****     y.f = (y.f + p[3]) * x;
 3213              		.loc 2 110 0
 3214 024e 2449     		ldr	r1, .L166+28
 3215 0250 FFF7FEFF 		bl	__aeabi_fadd
 3216              	.LVL525:
 3217 0254 011C     		adds	r1, r0, #0
 3218 0256 281C     		adds	r0, r5, #0
 3219 0258 FFF7FEFF 		bl	__aeabi_fmul
 3220              	.LVL526:
 111:..\..\..\liblc3\src/fastmath.h ****     y.f = (y.f +  1.f) * e[k & 7];
 3221              		.loc 2 111 0
 3222 025c 2149     		ldr	r1, .L166+32
 3223 025e FFF7FEFF 		bl	__aeabi_fadd
 3224              	.LVL527:
 3225 0262 011C     		adds	r1, r0, #0
 3226 0264 281C     		adds	r0, r5, #0
 3227 0266 FFF7FEFF 		bl	__aeabi_fmul
 3228              	.LVL528:
 112:..\..\..\liblc3\src/fastmath.h **** 
 3229              		.loc 2 112 0
 3230 026a FE21     		movs	r1, #254
 3231 026c 8905     		lsls	r1, r1, #22
 3232 026e FFF7FEFF 		bl	__aeabi_fadd
 3233              	.LVL529:
 3234 0272 0723     		movs	r3, #7
 3235 0274 4A46     		mov	r2, r9
 3236 0276 1340     		ands	r3, r2
 3237 0278 9B00     		lsls	r3, r3, #2
 3238 027a 1B4A     		ldr	r2, .L166+36
 3239 027c D318     		adds	r3, r2, r3
 3240 027e D969     		ldr	r1, [r3, #28]
 3241 0280 FFF7FEFF 		bl	__aeabi_fmul
 3242              	.LVL530:
 116:..\..\..\liblc3\src/fastmath.h **** 
 3243              		.loc 2 116 0
 3244 0284 4B46     		mov	r3, r9
 3245 0286 DD10     		asrs	r5, r3, #3
 3246              	.LVL531:
ARM GAS  C:\Users\rdn\AppData\Local\Temp\ccFEeGTH.s 			page 78


 3247 0288 ED05     		lsls	r5, r5, #23
 3248 028a 2B18     		adds	r3, r5, r0
 3249 028c 0093     		str	r3, [sp]
 3250              	.LVL532:
 3251              	.LBE116:
 3252              	.LBE115:
 759:..\..\..\liblc3\src/sns.c **** 
 760:..\..\..\liblc3\src/sns.c ****         for ( ; i < lim[ib+1]; i++)
 3253              		.loc 1 760 0
 3254 028e 09E0     		b	.L162
 3255              	.L163:
 761:..\..\..\liblc3\src/sns.c ****             y[i] = x[i] * g_sns;
 3256              		.loc 1 761 0 discriminator 2
 3257 0290 A300     		lsls	r3, r4, #2
 3258 0292 4246     		mov	r2, r8
 3259 0294 D518     		adds	r5, r2, r3
 3260 0296 5A46     		mov	r2, fp
 3261 0298 D058     		ldr	r0, [r2, r3]
 3262 029a 0099     		ldr	r1, [sp]
 3263 029c FFF7FEFF 		bl	__aeabi_fmul
 3264              	.LVL533:
 3265 02a0 2860     		str	r0, [r5]
 760:..\..\..\liblc3\src/sns.c ****             y[i] = x[i] * g_sns;
 3266              		.loc 1 760 0 discriminator 2
 3267 02a2 0134     		adds	r4, r4, #1
 3268              	.LVL534:
 3269              	.L162:
 760:..\..\..\liblc3\src/sns.c ****             y[i] = x[i] * g_sns;
 3270              		.loc 1 760 0 is_stmt 0 discriminator 1
 3271 02a4 731C     		adds	r3, r6, #1
 3272 02a6 9B00     		lsls	r3, r3, #2
 3273 02a8 DB59     		ldr	r3, [r3, r7]
 3274 02aa 9C42     		cmp	r4, r3
 3275 02ac F0DB     		blt	.L163
 3276              	.LBE114:
 757:..\..\..\liblc3\src/sns.c ****         float g_sns = lc3_exp2f(-scf[ib]);
 3277              		.loc 1 757 0 is_stmt 1 discriminator 2
 3278 02ae 0136     		adds	r6, r6, #1
 3279              	.LVL535:
 3280              	.L161:
 757:..\..\..\liblc3\src/sns.c ****         float g_sns = lc3_exp2f(-scf[ib]);
 3281              		.loc 1 757 0 is_stmt 0 discriminator 1
 3282 02b0 5645     		cmp	r6, r10
 3283 02b2 ABDB     		blt	.L164
 3284              	.LBE113:
 762:..\..\..\liblc3\src/sns.c ****     }
 763:..\..\..\liblc3\src/sns.c **** }
 3285              		.loc 1 763 0 is_stmt 1
 3286 02b4 47B0     		add	sp, sp, #284
 3287              		@ sp needed
 3288              	.LVL536:
 3289              	.LVL537:
 3290              	.LVL538:
 3291              	.LVL539:
 3292 02b6 3CBC     		pop	{r2, r3, r4, r5}
 3293 02b8 9046     		mov	r8, r2
 3294 02ba 9946     		mov	r9, r3
ARM GAS  C:\Users\rdn\AppData\Local\Temp\ccFEeGTH.s 			page 79


 3295 02bc A246     		mov	r10, r4
 3296 02be AB46     		mov	fp, r5
 3297 02c0 F0BD     		pop	{r4, r5, r6, r7, pc}
 3298              	.L167:
 3299 02c2 C046     		.align	2
 3300              	.L166:
 3301 02c4 0000203F 		.word	1059061760
 3302 02c8 0000603F 		.word	1063256064
 3303 02cc 00000000 		.word	lc3_num_bands
 3304 02d0 00000000 		.word	lc3_band_lim
 3305 02d4 0000C049 		.word	1237319680
 3306 02d8 0093243C 		.word	1009029888
 3307 02dc 2C26633D 		.word	1029908012
 3308 02e0 87FE753E 		.word	1047920263
 3309 02e4 1772313F 		.word	1060205079
 3310 02e8 00040000 		.word	.LANCHOR1
 3311              		.cfi_endproc
 3312              	.LFE32:
 3313              		.size	spectral_shaping, .-spectral_shaping
 3314              		.section	.text.deenumerate,"ax",%progbits
 3315              		.align	2
 3316              		.code	16
 3317              		.thumb_func
 3318              		.type	deenumerate, %function
 3319              	deenumerate:
 3320              	.LFB31:
 695:..\..\..\liblc3\src/sns.c ****     int npulses_a = (const int []){ 10, 10, 8, 6 }[shape];
 3321              		.loc 1 695 0
 3322              		.cfi_startproc
 3323              		@ args = 8, pretend = 0, frame = 24
 3324              		@ frame_needed = 0, uses_anonymous_args = 0
 3325              	.LVL540:
 3326 0000 F0B5     		push	{r4, r5, r6, r7, lr}
 3327              		.cfi_def_cfa_offset 20
 3328              		.cfi_offset 4, -20
 3329              		.cfi_offset 5, -16
 3330              		.cfi_offset 6, -12
 3331              		.cfi_offset 7, -8
 3332              		.cfi_offset 14, -4
 3333 0002 4746     		mov	r7, r8
 3334 0004 80B4     		push	{r7}
 3335              		.cfi_def_cfa_offset 24
 3336              		.cfi_offset 8, -24
 3337 0006 88B0     		sub	sp, sp, #32
 3338              		.cfi_def_cfa_offset 56
 3339 0008 0500     		movs	r5, r0
 3340 000a 0800     		movs	r0, r1
 3341              	.LVL541:
 3342 000c 0292     		str	r2, [sp, #8]
 3343 000e 0393     		str	r3, [sp, #12]
 3344 0010 0EAB     		add	r3, sp, #56
 3345              	.LVL542:
 3346 0012 1B78     		ldrb	r3, [r3]
 3347              	.LVL543:
 3348 0014 9846     		mov	r8, r3
 696:..\..\..\liblc3\src/sns.c **** 
 3349              		.loc 1 696 0
ARM GAS  C:\Users\rdn\AppData\Local\Temp\ccFEeGTH.s 			page 80


 3350 0016 04AA     		add	r2, sp, #16
 3351              	.LVL544:
 3352 0018 1700     		movs	r7, r2
 3353 001a 154B     		ldr	r3, .L173
 3354 001c 3C33     		adds	r3, r3, #60
 3355 001e 52CB     		ldmia	r3!, {r1, r4, r6}
 3356 0020 52C7     		stmia	r7!, {r1, r4, r6}
 3357              	.LVL545:
 3358 0022 1B68     		ldr	r3, [r3]
 3359 0024 3B60     		str	r3, [r7]
 3360 0026 AB00     		lsls	r3, r5, #2
 3361 0028 9A58     		ldr	r2, [r3, r2]
 3362              	.LVL546:
 698:..\..\..\liblc3\src/sns.c **** 
 3363              		.loc 1 698 0
 3364 002a 012D     		cmp	r5, #1
 3365 002c 01DC     		bgt	.L172
 3366 002e 0A23     		movs	r3, #10
 3367 0030 00E0     		b	.L169
 3368              	.L172:
 3369 0032 1023     		movs	r3, #16
 3370              	.L169:
 698:..\..\..\liblc3\src/sns.c **** 
 3371              		.loc 1 698 0 is_stmt 0 discriminator 4
 3372 0034 0093     		str	r3, [sp]
 3373 0036 0F9B     		ldr	r3, [sp, #60]
 3374 0038 0299     		ldr	r1, [sp, #8]
 3375 003a FFF7FEFF 		bl	deenum_mvpq
 3376              	.LVL547:
 700:..\..\..\liblc3\src/sns.c ****         deenum_mvpq(idx_b, ls_b, 1, c + 10, 6);
 3377              		.loc 1 700 0 is_stmt 1 discriminator 4
 3378 003e 002D     		cmp	r5, #0
 3379 0040 09D1     		bne	.L170
 701:..\..\..\liblc3\src/sns.c ****     else if (shape == 1)
 3380              		.loc 1 701 0
 3381 0042 0F9B     		ldr	r3, [sp, #60]
 3382 0044 2833     		adds	r3, r3, #40
 3383 0046 0622     		movs	r2, #6
 3384 0048 0092     		str	r2, [sp]
 3385 004a 053A     		subs	r2, r2, #5
 3386 004c 4146     		mov	r1, r8
 3387 004e 0398     		ldr	r0, [sp, #12]
 3388 0050 FFF7FEFF 		bl	deenum_mvpq
 3389              	.LVL548:
 3390 0054 07E0     		b	.L168
 3391              	.L170:
 702:..\..\..\liblc3\src/sns.c ****         memset(c + 10, 0, 6 * sizeof(*c));
 3392              		.loc 1 702 0
 3393 0056 012D     		cmp	r5, #1
 3394 0058 05D1     		bne	.L168
 703:..\..\..\liblc3\src/sns.c **** }
 3395              		.loc 1 703 0
 3396 005a 0F98     		ldr	r0, [sp, #60]
 3397 005c 2830     		adds	r0, r0, #40
 3398 005e 1822     		movs	r2, #24
 3399 0060 0021     		movs	r1, #0
 3400 0062 FFF7FEFF 		bl	memset
ARM GAS  C:\Users\rdn\AppData\Local\Temp\ccFEeGTH.s 			page 81


 3401              	.LVL549:
 3402              	.L168:
 704:..\..\..\liblc3\src/sns.c **** 
 3403              		.loc 1 704 0
 3404 0066 08B0     		add	sp, sp, #32
 3405              		@ sp needed
 3406              	.LVL550:
 3407 0068 04BC     		pop	{r2}
 3408 006a 9046     		mov	r8, r2
 3409 006c F0BD     		pop	{r4, r5, r6, r7, pc}
 3410              	.L174:
 3411 006e C046     		.align	2
 3412              	.L173:
 3413 0070 00040000 		.word	.LANCHOR1
 3414              		.cfi_endproc
 3415              	.LFE31:
 3416              		.size	deenumerate, .-deenumerate
 3417              		.section	.text.lc3_sns_analyze,"ax",%progbits
 3418              		.align	2
 3419              		.global	lc3_sns_analyze
 3420              		.code	16
 3421              		.thumb_func
 3422              		.type	lc3_sns_analyze, %function
 3423              	lc3_sns_analyze:
 3424              	.LFB33:
 764:..\..\..\liblc3\src/sns.c **** 
 765:..\..\..\liblc3\src/sns.c **** 
 766:..\..\..\liblc3\src/sns.c **** /* ----------------------------------------------------------------------------
 767:..\..\..\liblc3\src/sns.c ****  *  Interface
 768:..\..\..\liblc3\src/sns.c ****  * -------------------------------------------------------------------------- */
 769:..\..\..\liblc3\src/sns.c **** 
 770:..\..\..\liblc3\src/sns.c **** /**
 771:..\..\..\liblc3\src/sns.c ****  * SNS analysis
 772:..\..\..\liblc3\src/sns.c ****  */
 773:..\..\..\liblc3\src/sns.c **** void lc3_sns_analyze(
 774:..\..\..\liblc3\src/sns.c ****     enum lc3_dt dt, enum lc3_srate sr, int nbytes,
 775:..\..\..\liblc3\src/sns.c ****     const float *eb, bool att, struct lc3_sns_data *data,
 776:..\..\..\liblc3\src/sns.c ****     const float *x, float *y)
 777:..\..\..\liblc3\src/sns.c **** {
 3425              		.loc 1 777 0
 3426              		.cfi_startproc
 3427              		@ args = 16, pretend = 0, frame = 584
 3428              		@ frame_needed = 0, uses_anonymous_args = 0
 3429              	.LVL551:
 3430 0000 F0B5     		push	{r4, r5, r6, r7, lr}
 3431              		.cfi_def_cfa_offset 20
 3432              		.cfi_offset 4, -20
 3433              		.cfi_offset 5, -16
 3434              		.cfi_offset 6, -12
 3435              		.cfi_offset 7, -8
 3436              		.cfi_offset 14, -4
 3437 0002 244C     		ldr	r4, .L176
 3438 0004 A544     		add	sp, sp, r4
 3439              		.cfi_def_cfa_offset 624
 3440 0006 0F00     		movs	r7, r1
 3441 0008 9CA9     		add	r1, sp, #624
 3442              	.LVL552:
ARM GAS  C:\Users\rdn\AppData\Local\Temp\ccFEeGTH.s 			page 82


 3443 000a 0978     		ldrb	r1, [r1]
 3444              	.LVL553:
 3445 000c 9D9C     		ldr	r4, [sp, #628]
 778:..\..\..\liblc3\src/sns.c ****     /* Processing steps :
 779:..\..\..\liblc3\src/sns.c ****      * - Determine 16 scale factors from bands energy estimation
 780:..\..\..\liblc3\src/sns.c ****      * - Get codebooks indexes that match thoses scale factors
 781:..\..\..\liblc3\src/sns.c ****      * - Quantize the residual with the selected codebook
 782:..\..\..\liblc3\src/sns.c ****      * - The pulse configuration `c[]` is enumerated
 783:..\..\..\liblc3\src/sns.c ****      * - Finally shape the spectrum coefficients accordingly */
 784:..\..\..\liblc3\src/sns.c **** 
 785:..\..\..\liblc3\src/sns.c ****     float scf[16], cn[4][16];
 786:..\..\..\liblc3\src/sns.c ****     int c[4][16];
 787:..\..\..\liblc3\src/sns.c **** 
 788:..\..\..\liblc3\src/sns.c ****     compute_scale_factors(dt, sr, nbytes, eb, att, scf);
 3446              		.loc 1 788 0
 3447 000e 86AD     		add	r5, sp, #536
 3448 0010 0195     		str	r5, [sp, #4]
 3449 0012 0091     		str	r1, [sp]
 3450 0014 3900     		movs	r1, r7
 3451 0016 0590     		str	r0, [sp, #20]
 3452 0018 FFF7FEFF 		bl	compute_scale_factors
 3453              	.LVL554:
 789:..\..\..\liblc3\src/sns.c **** 
 790:..\..\..\liblc3\src/sns.c ****     resolve_codebooks(scf, &data->lfcb, &data->hfcb);
 3454              		.loc 1 790 0
 3455 001c 221D     		adds	r2, r4, #4
 3456 001e 2100     		movs	r1, r4
 3457 0020 2800     		movs	r0, r5
 3458 0022 FFF7FEFF 		bl	resolve_codebooks
 3459              	.LVL555:
 791:..\..\..\liblc3\src/sns.c **** 
 792:..\..\..\liblc3\src/sns.c ****     quantize(scf, data->lfcb, data->hfcb,
 3460              		.loc 1 792 0
 3461 0026 2300     		movs	r3, r4
 3462 0028 0C33     		adds	r3, r3, #12
 3463 002a 0293     		str	r3, [sp, #8]
 3464 002c 043B     		subs	r3, r3, #4
 3465 002e 0193     		str	r3, [sp, #4]
 3466 0030 46AE     		add	r6, sp, #280
 3467 0032 0096     		str	r6, [sp]
 3468 0034 06AB     		add	r3, sp, #24
 3469 0036 6268     		ldr	r2, [r4, #4]
 3470 0038 2168     		ldr	r1, [r4]
 3471 003a 2800     		movs	r0, r5
 3472 003c FFF7FEFF 		bl	quantize
 3473              	.LVL556:
 793:..\..\..\liblc3\src/sns.c ****         c, cn, &data->shape, &data->gain);
 794:..\..\..\liblc3\src/sns.c **** 
 795:..\..\..\liblc3\src/sns.c ****     unquantize(data->lfcb, data->hfcb,
 796:..\..\..\liblc3\src/sns.c ****         cn[data->shape], data->shape, data->gain, scf);
 3474              		.loc 1 796 0
 3475 0040 A368     		ldr	r3, [r4, #8]
 3476 0042 9A01     		lsls	r2, r3, #6
 3477 0044 B218     		adds	r2, r6, r2
 795:..\..\..\liblc3\src/sns.c ****         cn[data->shape], data->shape, data->gain, scf);
 3478              		.loc 1 795 0
 3479 0046 0195     		str	r5, [sp, #4]
ARM GAS  C:\Users\rdn\AppData\Local\Temp\ccFEeGTH.s 			page 83


 3480 0048 E368     		ldr	r3, [r4, #12]
 3481 004a 0093     		str	r3, [sp]
 3482 004c A368     		ldr	r3, [r4, #8]
 3483 004e 6168     		ldr	r1, [r4, #4]
 3484 0050 2068     		ldr	r0, [r4]
 3485 0052 FFF7FEFF 		bl	unquantize
 3486              	.LVL557:
 797:..\..\..\liblc3\src/sns.c **** 
 798:..\..\..\liblc3\src/sns.c ****     enumerate(data->shape, c[data->shape],
 3487              		.loc 1 798 0
 3488 0056 A068     		ldr	r0, [r4, #8]
 3489 0058 8101     		lsls	r1, r0, #6
 3490 005a 06AB     		add	r3, sp, #24
 3491 005c 9C46     		mov	ip, r3
 3492 005e 6144     		add	r1, r1, ip
 3493 0060 2300     		movs	r3, r4
 3494 0062 1833     		adds	r3, r3, #24
 3495 0064 2200     		movs	r2, r4
 3496 0066 1032     		adds	r2, r2, #16
 3497 0068 2600     		movs	r6, r4
 3498 006a 1936     		adds	r6, r6, #25
 3499 006c 0196     		str	r6, [sp, #4]
 3500 006e 1434     		adds	r4, r4, #20
 3501 0070 0094     		str	r4, [sp]
 3502 0072 FFF7FEFF 		bl	enumerate
 3503              	.LVL558:
 799:..\..\..\liblc3\src/sns.c ****         &data->idx_a, &data->ls_a, &data->idx_b, &data->ls_b);
 800:..\..\..\liblc3\src/sns.c **** 
 801:..\..\..\liblc3\src/sns.c ****     spectral_shaping(dt, sr, scf, false, x, y);
 3504              		.loc 1 801 0
 3505 0076 9F9B     		ldr	r3, [sp, #636]
 3506 0078 0193     		str	r3, [sp, #4]
 3507 007a 9E9B     		ldr	r3, [sp, #632]
 3508 007c 0093     		str	r3, [sp]
 3509 007e 0023     		movs	r3, #0
 3510 0080 2A00     		movs	r2, r5
 3511 0082 3900     		movs	r1, r7
 3512 0084 0598     		ldr	r0, [sp, #20]
 3513 0086 FFF7FEFF 		bl	spectral_shaping
 3514              	.LVL559:
 802:..\..\..\liblc3\src/sns.c **** }
 3515              		.loc 1 802 0
 3516 008a 9723     		movs	r3, #151
 3517 008c 9B00     		lsls	r3, r3, #2
 3518 008e 9D44     		add	sp, sp, r3
 3519              		@ sp needed
 3520 0090 F0BD     		pop	{r4, r5, r6, r7, pc}
 3521              	.L177:
 3522 0092 C046     		.align	2
 3523              	.L176:
 3524 0094 A4FDFFFF 		.word	-604
 3525              		.cfi_endproc
 3526              	.LFE33:
 3527              		.size	lc3_sns_analyze, .-lc3_sns_analyze
 3528              		.section	.text.lc3_sns_synthesize,"ax",%progbits
 3529              		.align	2
 3530              		.global	lc3_sns_synthesize
ARM GAS  C:\Users\rdn\AppData\Local\Temp\ccFEeGTH.s 			page 84


 3531              		.code	16
 3532              		.thumb_func
 3533              		.type	lc3_sns_synthesize, %function
 3534              	lc3_sns_synthesize:
 3535              	.LFB34:
 803:..\..\..\liblc3\src/sns.c **** 
 804:..\..\..\liblc3\src/sns.c **** /**
 805:..\..\..\liblc3\src/sns.c ****  * SNS synthesis
 806:..\..\..\liblc3\src/sns.c ****  */
 807:..\..\..\liblc3\src/sns.c **** void lc3_sns_synthesize(
 808:..\..\..\liblc3\src/sns.c ****     enum lc3_dt dt, enum lc3_srate sr,
 809:..\..\..\liblc3\src/sns.c ****     const lc3_sns_data_t *data, const float *x, float *y)
 810:..\..\..\liblc3\src/sns.c **** {
 3536              		.loc 1 810 0
 3537              		.cfi_startproc
 3538              		@ args = 4, pretend = 0, frame = 200
 3539              		@ frame_needed = 0, uses_anonymous_args = 0
 3540              	.LVL560:
 3541 0000 F0B5     		push	{r4, r5, r6, r7, lr}
 3542              		.cfi_def_cfa_offset 20
 3543              		.cfi_offset 4, -20
 3544              		.cfi_offset 5, -16
 3545              		.cfi_offset 6, -12
 3546              		.cfi_offset 7, -8
 3547              		.cfi_offset 14, -4
 3548 0002 B5B0     		sub	sp, sp, #212
 3549              		.cfi_def_cfa_offset 232
 3550 0004 0390     		str	r0, [sp, #12]
 3551 0006 0F00     		movs	r7, r1
 3552 0008 1400     		movs	r4, r2
 3553 000a 1E00     		movs	r6, r3
 811:..\..\..\liblc3\src/sns.c ****     float scf[16], cn[16];
 812:..\..\..\liblc3\src/sns.c ****     int c[16];
 813:..\..\..\liblc3\src/sns.c **** 
 814:..\..\..\liblc3\src/sns.c ****     deenumerate(data->shape,
 3554              		.loc 1 814 0
 3555 000c 127E     		ldrb	r2, [r2, #24]
 3556              	.LVL561:
 3557 000e 04AD     		add	r5, sp, #16
 3558 0010 0195     		str	r5, [sp, #4]
 3559 0012 637E     		ldrb	r3, [r4, #25]
 3560              	.LVL562:
 3561 0014 0093     		str	r3, [sp]
 3562 0016 6369     		ldr	r3, [r4, #20]
 3563 0018 2169     		ldr	r1, [r4, #16]
 3564              	.LVL563:
 3565 001a A068     		ldr	r0, [r4, #8]
 3566              	.LVL564:
 3567 001c FFF7FEFF 		bl	deenumerate
 3568              	.LVL565:
 815:..\..\..\liblc3\src/sns.c ****         data->idx_a, data->ls_a, data->idx_b, data->ls_b, c);
 816:..\..\..\liblc3\src/sns.c **** 
 817:..\..\..\liblc3\src/sns.c ****     normalize(c, cn);
 3569              		.loc 1 817 0
 3570 0020 14A9     		add	r1, sp, #80
 3571 0022 2800     		movs	r0, r5
 3572 0024 FFF7FEFF 		bl	normalize
ARM GAS  C:\Users\rdn\AppData\Local\Temp\ccFEeGTH.s 			page 85


 3573              	.LVL566:
 818:..\..\..\liblc3\src/sns.c **** 
 819:..\..\..\liblc3\src/sns.c ****     unquantize(data->lfcb, data->hfcb, cn, data->shape, data->gain, scf);
 3574              		.loc 1 819 0
 3575 0028 A368     		ldr	r3, [r4, #8]
 3576 002a 6168     		ldr	r1, [r4, #4]
 3577 002c 2068     		ldr	r0, [r4]
 3578 002e 24AD     		add	r5, sp, #144
 3579 0030 0195     		str	r5, [sp, #4]
 3580 0032 E268     		ldr	r2, [r4, #12]
 3581 0034 0092     		str	r2, [sp]
 3582 0036 14AA     		add	r2, sp, #80
 3583 0038 FFF7FEFF 		bl	unquantize
 3584              	.LVL567:
 820:..\..\..\liblc3\src/sns.c **** 
 821:..\..\..\liblc3\src/sns.c ****     spectral_shaping(dt, sr, scf, true, x, y);
 3585              		.loc 1 821 0
 3586 003c 3A9B     		ldr	r3, [sp, #232]
 3587 003e 0193     		str	r3, [sp, #4]
 3588 0040 0096     		str	r6, [sp]
 3589 0042 0123     		movs	r3, #1
 3590 0044 2A00     		movs	r2, r5
 3591 0046 3900     		movs	r1, r7
 3592 0048 0398     		ldr	r0, [sp, #12]
 3593 004a FFF7FEFF 		bl	spectral_shaping
 3594              	.LVL568:
 822:..\..\..\liblc3\src/sns.c **** }
 3595              		.loc 1 822 0
 3596 004e 35B0     		add	sp, sp, #212
 3597              		@ sp needed
 3598              	.LVL569:
 3599              	.LVL570:
 3600 0050 F0BD     		pop	{r4, r5, r6, r7, pc}
 3601              		.cfi_endproc
 3602              	.LFE34:
 3603              		.size	lc3_sns_synthesize, .-lc3_sns_synthesize
 3604 0052 C046     		.section	.text.lc3_sns_get_nbits,"ax",%progbits
 3605              		.align	2
 3606              		.global	lc3_sns_get_nbits
 3607              		.code	16
 3608              		.thumb_func
 3609              		.type	lc3_sns_get_nbits, %function
 3610              	lc3_sns_get_nbits:
 3611              	.LFB35:
 823:..\..\..\liblc3\src/sns.c **** 
 824:..\..\..\liblc3\src/sns.c **** /**
 825:..\..\..\liblc3\src/sns.c ****  * Return number of bits coding the bitstream data
 826:..\..\..\liblc3\src/sns.c ****  */
 827:..\..\..\liblc3\src/sns.c **** int lc3_sns_get_nbits(void)
 828:..\..\..\liblc3\src/sns.c **** {
 3612              		.loc 1 828 0
 3613              		.cfi_startproc
 3614              		@ args = 0, pretend = 0, frame = 0
 3615              		@ frame_needed = 0, uses_anonymous_args = 0
 3616              		@ link register save eliminated.
 829:..\..\..\liblc3\src/sns.c ****     return 38;
 830:..\..\..\liblc3\src/sns.c **** }
ARM GAS  C:\Users\rdn\AppData\Local\Temp\ccFEeGTH.s 			page 86


 3617              		.loc 1 830 0
 3618 0000 2620     		movs	r0, #38
 3619              		@ sp needed
 3620 0002 7047     		bx	lr
 3621              		.cfi_endproc
 3622              	.LFE35:
 3623              		.size	lc3_sns_get_nbits, .-lc3_sns_get_nbits
 3624              		.section	.text.lc3_sns_put_data,"ax",%progbits
 3625              		.align	2
 3626              		.global	lc3_sns_put_data
 3627              		.code	16
 3628              		.thumb_func
 3629              		.type	lc3_sns_put_data, %function
 3630              	lc3_sns_put_data:
 3631              	.LFB36:
 831:..\..\..\liblc3\src/sns.c **** 
 832:..\..\..\liblc3\src/sns.c **** /**
 833:..\..\..\liblc3\src/sns.c ****  * Put bitstream data
 834:..\..\..\liblc3\src/sns.c ****  */
 835:..\..\..\liblc3\src/sns.c **** void lc3_sns_put_data(lc3_bits_t *bits, const struct lc3_sns_data *data)
 836:..\..\..\liblc3\src/sns.c **** {
 3632              		.loc 1 836 0
 3633              		.cfi_startproc
 3634              		@ args = 0, pretend = 0, frame = 0
 3635              		@ frame_needed = 0, uses_anonymous_args = 0
 3636              	.LVL571:
 3637 0000 70B5     		push	{r4, r5, r6, lr}
 3638              		.cfi_def_cfa_offset 16
 3639              		.cfi_offset 4, -16
 3640              		.cfi_offset 5, -12
 3641              		.cfi_offset 6, -8
 3642              		.cfi_offset 14, -4
 3643 0002 0400     		movs	r4, r0
 3644 0004 0D00     		movs	r5, r1
 837:..\..\..\liblc3\src/sns.c ****     /* --- Codebooks --- */
 838:..\..\..\liblc3\src/sns.c **** 
 839:..\..\..\liblc3\src/sns.c ****     lc3_put_bits(bits, data->lfcb, 5);
 3645              		.loc 1 839 0
 3646 0006 0968     		ldr	r1, [r1]
 3647              	.LVL572:
 3648              	.LBB139:
 3649              	.LBB140:
 3650              		.file 3 "..\\..\\..\\liblc3\\src\\bits.h"
   1:..\..\..\liblc3\src/bits.h **** /******************************************************************************
   2:..\..\..\liblc3\src/bits.h ****  *
   3:..\..\..\liblc3\src/bits.h ****  *  Copyright 2022 Google LLC
   4:..\..\..\liblc3\src/bits.h ****  *
   5:..\..\..\liblc3\src/bits.h ****  *  Licensed under the Apache License, Version 2.0 (the "License");
   6:..\..\..\liblc3\src/bits.h ****  *  you may not use this file except in compliance with the License.
   7:..\..\..\liblc3\src/bits.h ****  *  You may obtain a copy of the License at:
   8:..\..\..\liblc3\src/bits.h ****  *
   9:..\..\..\liblc3\src/bits.h ****  *  http://www.apache.org/licenses/LICENSE-2.0
  10:..\..\..\liblc3\src/bits.h ****  *
  11:..\..\..\liblc3\src/bits.h ****  *  Unless required by applicable law or agreed to in writing, software
  12:..\..\..\liblc3\src/bits.h ****  *  distributed under the License is distributed on an "AS IS" BASIS,
  13:..\..\..\liblc3\src/bits.h ****  *  WITHOUT WARRANTIES OR CONDITIONS OF ANY KIND, either express or implied.
  14:..\..\..\liblc3\src/bits.h ****  *  See the License for the specific language governing permissions and
ARM GAS  C:\Users\rdn\AppData\Local\Temp\ccFEeGTH.s 			page 87


  15:..\..\..\liblc3\src/bits.h ****  *  limitations under the License.
  16:..\..\..\liblc3\src/bits.h ****  *
  17:..\..\..\liblc3\src/bits.h ****  ******************************************************************************/
  18:..\..\..\liblc3\src/bits.h **** 
  19:..\..\..\liblc3\src/bits.h **** /**
  20:..\..\..\liblc3\src/bits.h ****  * The bitstream is written by the 2 ends of the buffer :
  21:..\..\..\liblc3\src/bits.h ****  *
  22:..\..\..\liblc3\src/bits.h ****  * - Arthmetic coder put bits while increasing memory addresses
  23:..\..\..\liblc3\src/bits.h ****  *   in the buffer (forward)
  24:..\..\..\liblc3\src/bits.h ****  *
  25:..\..\..\liblc3\src/bits.h ****  * - Plain bits are puts starting the end of the buffer, with memeory
  26:..\..\..\liblc3\src/bits.h ****  *   addresses decreasing (backward)
  27:..\..\..\liblc3\src/bits.h ****  *
  28:..\..\..\liblc3\src/bits.h ****  *       .---------------------------------------------------.
  29:..\..\..\liblc3\src/bits.h ****  *       | > > > > > > > > > > :         : < < < < < < < < < |
  30:..\..\..\liblc3\src/bits.h ****  *       '---------------------------------------------------'
  31:..\..\..\liblc3\src/bits.h ****  *       |---------------------> - - - - - - - - - - - - - ->|
  32:..\..\..\liblc3\src/bits.h ****  *                              |< - - - <-------------------|
  33:..\..\..\liblc3\src/bits.h ****  *          Arithmetic coding                  Plain bits
  34:..\..\..\liblc3\src/bits.h ****  *          `lc3_put_symbol()`               `lc3_put_bits()`
  35:..\..\..\liblc3\src/bits.h ****  *
  36:..\..\..\liblc3\src/bits.h ****  * - The forward writing is protected against buffer overflow, it cannot
  37:..\..\..\liblc3\src/bits.h ****  *   write after the buffer, but can overwrite plain bits previously
  38:..\..\..\liblc3\src/bits.h ****  *   written in the buffer.
  39:..\..\..\liblc3\src/bits.h ****  *
  40:..\..\..\liblc3\src/bits.h ****  * - The backward writing is protected against overwrite of the arithmetic
  41:..\..\..\liblc3\src/bits.h ****  *   coder bitstream. In such way, the backward bitstream is always limited
  42:..\..\..\liblc3\src/bits.h ****  *   by the aritmetic coder bitstream, and can be overwritten by him.
  43:..\..\..\liblc3\src/bits.h ****  *
  44:..\..\..\liblc3\src/bits.h ****  *       .---------------------------------------------------.
  45:..\..\..\liblc3\src/bits.h ****  *       | > > > > > > > > > > :         : < < < < < < < < < |
  46:..\..\..\liblc3\src/bits.h ****  *       '---------------------------------------------------'
  47:..\..\..\liblc3\src/bits.h ****  *       |---------------------> - - - - - - - - - - - - - ->|
  48:..\..\..\liblc3\src/bits.h ****  *       |< - - - - - - - - - - -  - - - <-------------------|
  49:..\..\..\liblc3\src/bits.h ****  *          Arithmetic coding                  Plain bits
  50:..\..\..\liblc3\src/bits.h ****  *          `lc3_get_symbol()`               `lc3_get_bits()`
  51:..\..\..\liblc3\src/bits.h ****  *
  52:..\..\..\liblc3\src/bits.h ****  * - Reading is limited to read of the complementary end of the buffer.
  53:..\..\..\liblc3\src/bits.h ****  *
  54:..\..\..\liblc3\src/bits.h ****  * - The procedure `lc3_check_bits()` returns indication that read has been
  55:..\..\..\liblc3\src/bits.h ****  *   made crossing the other bit plane.
  56:..\..\..\liblc3\src/bits.h ****  *
  57:..\..\..\liblc3\src/bits.h ****  */
  58:..\..\..\liblc3\src/bits.h **** 
  59:..\..\..\liblc3\src/bits.h **** #ifndef __LC3_BITS_H
  60:..\..\..\liblc3\src/bits.h **** #define __LC3_BITS_H
  61:..\..\..\liblc3\src/bits.h **** 
  62:..\..\..\liblc3\src/bits.h **** #include "common.h"
  63:..\..\..\liblc3\src/bits.h **** 
  64:..\..\..\liblc3\src/bits.h **** 
  65:..\..\..\liblc3\src/bits.h **** /**
  66:..\..\..\liblc3\src/bits.h ****  * Bitstream mode
  67:..\..\..\liblc3\src/bits.h ****  */
  68:..\..\..\liblc3\src/bits.h **** 
  69:..\..\..\liblc3\src/bits.h **** enum lc3_bits_mode {
  70:..\..\..\liblc3\src/bits.h ****     LC3_BITS_MODE_READ,
  71:..\..\..\liblc3\src/bits.h ****     LC3_BITS_MODE_WRITE,
ARM GAS  C:\Users\rdn\AppData\Local\Temp\ccFEeGTH.s 			page 88


  72:..\..\..\liblc3\src/bits.h **** };
  73:..\..\..\liblc3\src/bits.h **** 
  74:..\..\..\liblc3\src/bits.h **** /**
  75:..\..\..\liblc3\src/bits.h ****  * Arithmetic coder symbol interval
  76:..\..\..\liblc3\src/bits.h ****  * The model split the interval in 17 symbols
  77:..\..\..\liblc3\src/bits.h ****  */
  78:..\..\..\liblc3\src/bits.h **** 
  79:..\..\..\liblc3\src/bits.h **** struct lc3_ac_symbol {
  80:..\..\..\liblc3\src/bits.h ****     uint16_t low   : 16;
  81:..\..\..\liblc3\src/bits.h ****     uint16_t range : 16;
  82:..\..\..\liblc3\src/bits.h **** };
  83:..\..\..\liblc3\src/bits.h **** 
  84:..\..\..\liblc3\src/bits.h **** struct lc3_ac_model {
  85:..\..\..\liblc3\src/bits.h ****     struct lc3_ac_symbol s[17];
  86:..\..\..\liblc3\src/bits.h **** };
  87:..\..\..\liblc3\src/bits.h **** 
  88:..\..\..\liblc3\src/bits.h **** /**
  89:..\..\..\liblc3\src/bits.h ****  * Bitstream context
  90:..\..\..\liblc3\src/bits.h ****  */
  91:..\..\..\liblc3\src/bits.h **** 
  92:..\..\..\liblc3\src/bits.h **** #define LC3_ACCU_BITS (int)(8 * sizeof(unsigned))
  93:..\..\..\liblc3\src/bits.h **** 
  94:..\..\..\liblc3\src/bits.h **** struct lc3_bits_accu {
  95:..\..\..\liblc3\src/bits.h ****     unsigned v;
  96:..\..\..\liblc3\src/bits.h ****     int n, nover;
  97:..\..\..\liblc3\src/bits.h **** };
  98:..\..\..\liblc3\src/bits.h **** 
  99:..\..\..\liblc3\src/bits.h **** #define LC3_AC_BITS (int)(24)
 100:..\..\..\liblc3\src/bits.h **** 
 101:..\..\..\liblc3\src/bits.h **** struct lc3_bits_ac {
 102:..\..\..\liblc3\src/bits.h ****     unsigned low, range;
 103:..\..\..\liblc3\src/bits.h ****     int cache, carry, carry_count;
 104:..\..\..\liblc3\src/bits.h ****     bool error;
 105:..\..\..\liblc3\src/bits.h **** };
 106:..\..\..\liblc3\src/bits.h **** 
 107:..\..\..\liblc3\src/bits.h **** struct lc3_bits_buffer {
 108:..\..\..\liblc3\src/bits.h ****     const uint8_t *start, *end;
 109:..\..\..\liblc3\src/bits.h ****     uint8_t *p_fw, *p_bw;
 110:..\..\..\liblc3\src/bits.h **** };
 111:..\..\..\liblc3\src/bits.h **** 
 112:..\..\..\liblc3\src/bits.h **** typedef struct lc3_bits {
 113:..\..\..\liblc3\src/bits.h ****     enum lc3_bits_mode mode;
 114:..\..\..\liblc3\src/bits.h ****     struct lc3_bits_ac ac;
 115:..\..\..\liblc3\src/bits.h ****     struct lc3_bits_accu accu;
 116:..\..\..\liblc3\src/bits.h ****     struct lc3_bits_buffer buffer;
 117:..\..\..\liblc3\src/bits.h **** } lc3_bits_t;
 118:..\..\..\liblc3\src/bits.h **** 
 119:..\..\..\liblc3\src/bits.h **** 
 120:..\..\..\liblc3\src/bits.h **** /**
 121:..\..\..\liblc3\src/bits.h ****  * Setup bitstream reading/writing
 122:..\..\..\liblc3\src/bits.h ****  * bits            Bitstream context
 123:..\..\..\liblc3\src/bits.h ****  * mode            Either READ or WRITE mode
 124:..\..\..\liblc3\src/bits.h ****  * buffer, len     Output buffer and length (in bytes)
 125:..\..\..\liblc3\src/bits.h ****  */
 126:..\..\..\liblc3\src/bits.h **** void lc3_setup_bits(lc3_bits_t *bits,
 127:..\..\..\liblc3\src/bits.h ****     enum lc3_bits_mode mode, void *buffer, int len);
 128:..\..\..\liblc3\src/bits.h **** 
ARM GAS  C:\Users\rdn\AppData\Local\Temp\ccFEeGTH.s 			page 89


 129:..\..\..\liblc3\src/bits.h **** /**
 130:..\..\..\liblc3\src/bits.h ****  * Return number of bits left in the bitstream
 131:..\..\..\liblc3\src/bits.h ****  * bits            Bitstream context
 132:..\..\..\liblc3\src/bits.h ****  * return          Number of bits left
 133:..\..\..\liblc3\src/bits.h ****  */
 134:..\..\..\liblc3\src/bits.h **** int lc3_get_bits_left(const lc3_bits_t *bits);
 135:..\..\..\liblc3\src/bits.h **** 
 136:..\..\..\liblc3\src/bits.h **** /**
 137:..\..\..\liblc3\src/bits.h ****  * Check if error occured on bitstream reading/writing
 138:..\..\..\liblc3\src/bits.h ****  * bits            Bitstream context
 139:..\..\..\liblc3\src/bits.h ****  * return          0: Ok  -1: Bitstream overflow or AC reading error
 140:..\..\..\liblc3\src/bits.h ****  */
 141:..\..\..\liblc3\src/bits.h **** int lc3_check_bits(const lc3_bits_t *bits);
 142:..\..\..\liblc3\src/bits.h **** 
 143:..\..\..\liblc3\src/bits.h **** /**
 144:..\..\..\liblc3\src/bits.h ****  * Put a bit
 145:..\..\..\liblc3\src/bits.h ****  * bits            Bitstream context
 146:..\..\..\liblc3\src/bits.h ****  * v               Bit value, 0 or 1
 147:..\..\..\liblc3\src/bits.h ****  */
 148:..\..\..\liblc3\src/bits.h **** static inline void lc3_put_bit(lc3_bits_t *bits, int v);
 149:..\..\..\liblc3\src/bits.h **** 
 150:..\..\..\liblc3\src/bits.h **** /**
 151:..\..\..\liblc3\src/bits.h ****  * Put from 1 to 32 bits
 152:..\..\..\liblc3\src/bits.h ****  * bits            Bitstream context
 153:..\..\..\liblc3\src/bits.h ****  * v, n            Value, in range 0 to 2^n - 1, and bits count (1 to 32)
 154:..\..\..\liblc3\src/bits.h ****  */
 155:..\..\..\liblc3\src/bits.h **** static inline void lc3_put_bits(lc3_bits_t *bits, unsigned v, int n);
 156:..\..\..\liblc3\src/bits.h **** 
 157:..\..\..\liblc3\src/bits.h **** /**
 158:..\..\..\liblc3\src/bits.h ****  * Put arithmetic coder symbol
 159:..\..\..\liblc3\src/bits.h ****  * bits            Bitstream context
 160:..\..\..\liblc3\src/bits.h ****  * model, s        Model distribution and symbol value
 161:..\..\..\liblc3\src/bits.h ****  */
 162:..\..\..\liblc3\src/bits.h **** static inline void lc3_put_symbol(lc3_bits_t *bits,
 163:..\..\..\liblc3\src/bits.h ****     const struct lc3_ac_model *model, unsigned s);
 164:..\..\..\liblc3\src/bits.h **** 
 165:..\..\..\liblc3\src/bits.h **** /**
 166:..\..\..\liblc3\src/bits.h ****  * Flush and terminate bitstream writing
 167:..\..\..\liblc3\src/bits.h ****  * bits            Bitstream context
 168:..\..\..\liblc3\src/bits.h ****  */
 169:..\..\..\liblc3\src/bits.h **** void lc3_flush_bits(lc3_bits_t *bits);
 170:..\..\..\liblc3\src/bits.h **** 
 171:..\..\..\liblc3\src/bits.h **** /**
 172:..\..\..\liblc3\src/bits.h ****  * Get a bit
 173:..\..\..\liblc3\src/bits.h ****  * bits            Bitstream context
 174:..\..\..\liblc3\src/bits.h ****  */
 175:..\..\..\liblc3\src/bits.h **** static inline int lc3_get_bit(lc3_bits_t *bits);
 176:..\..\..\liblc3\src/bits.h **** 
 177:..\..\..\liblc3\src/bits.h **** /**
 178:..\..\..\liblc3\src/bits.h ****  * Get from 1 to 32 bits
 179:..\..\..\liblc3\src/bits.h ****  * bits            Bitstream context
 180:..\..\..\liblc3\src/bits.h ****  * n               Number of bits to read (1 to 32)
 181:..\..\..\liblc3\src/bits.h ****  * return          The value read
 182:..\..\..\liblc3\src/bits.h ****  */
 183:..\..\..\liblc3\src/bits.h **** static inline unsigned lc3_get_bits(lc3_bits_t *bits,  int n);
 184:..\..\..\liblc3\src/bits.h **** 
 185:..\..\..\liblc3\src/bits.h **** /**
ARM GAS  C:\Users\rdn\AppData\Local\Temp\ccFEeGTH.s 			page 90


 186:..\..\..\liblc3\src/bits.h ****  * Get arithmetic coder symbol
 187:..\..\..\liblc3\src/bits.h ****  * bits            Bitstream context
 188:..\..\..\liblc3\src/bits.h ****  * model           Model distribution
 189:..\..\..\liblc3\src/bits.h ****  * return          The value read
 190:..\..\..\liblc3\src/bits.h ****  */
 191:..\..\..\liblc3\src/bits.h **** static inline unsigned lc3_get_symbol(lc3_bits_t *bits,
 192:..\..\..\liblc3\src/bits.h ****     const struct lc3_ac_model *model);
 193:..\..\..\liblc3\src/bits.h **** 
 194:..\..\..\liblc3\src/bits.h **** 
 195:..\..\..\liblc3\src/bits.h **** 
 196:..\..\..\liblc3\src/bits.h **** /* ----------------------------------------------------------------------------
 197:..\..\..\liblc3\src/bits.h ****  *  Inline implementations
 198:..\..\..\liblc3\src/bits.h ****  * -------------------------------------------------------------------------- */
 199:..\..\..\liblc3\src/bits.h **** 
 200:..\..\..\liblc3\src/bits.h **** void lc3_put_bits_generic(lc3_bits_t *bits, unsigned v, int n);
 201:..\..\..\liblc3\src/bits.h **** unsigned lc3_get_bits_generic(struct lc3_bits *bits, int n);
 202:..\..\..\liblc3\src/bits.h **** 
 203:..\..\..\liblc3\src/bits.h **** void lc3_ac_read_renorm(lc3_bits_t *bits);
 204:..\..\..\liblc3\src/bits.h **** void lc3_ac_write_renorm(lc3_bits_t *bits);
 205:..\..\..\liblc3\src/bits.h **** 
 206:..\..\..\liblc3\src/bits.h **** 
 207:..\..\..\liblc3\src/bits.h **** /**
 208:..\..\..\liblc3\src/bits.h ****  * Put a bit
 209:..\..\..\liblc3\src/bits.h ****  */
 210:..\..\..\liblc3\src/bits.h **** LC3_HOT static inline void lc3_put_bit(lc3_bits_t *bits, int v)
 211:..\..\..\liblc3\src/bits.h **** {
 212:..\..\..\liblc3\src/bits.h ****     lc3_put_bits(bits, v, 1);
 213:..\..\..\liblc3\src/bits.h **** }
 214:..\..\..\liblc3\src/bits.h **** 
 215:..\..\..\liblc3\src/bits.h **** /**
 216:..\..\..\liblc3\src/bits.h ****  * Put from 1 to 32 bits
 217:..\..\..\liblc3\src/bits.h ****  */
 218:..\..\..\liblc3\src/bits.h **** LC3_HOT static inline void lc3_put_bits(
 219:..\..\..\liblc3\src/bits.h ****     struct lc3_bits *bits, unsigned v, int n)
 220:..\..\..\liblc3\src/bits.h **** {
 221:..\..\..\liblc3\src/bits.h ****     struct lc3_bits_accu *accu = &bits->accu;
 222:..\..\..\liblc3\src/bits.h **** 
 223:..\..\..\liblc3\src/bits.h ****     if (accu->n + n <= LC3_ACCU_BITS) {
 3651              		.loc 3 223 0
 3652 0008 026A     		ldr	r2, [r0, #32]
 3653 000a 531D     		adds	r3, r2, #5
 3654 000c 202B     		cmp	r3, #32
 3655 000e 05DC     		bgt	.L181
 224:..\..\..\liblc3\src/bits.h ****         accu->v |= v << accu->n;
 3656              		.loc 3 224 0
 3657 0010 9140     		lsls	r1, r1, r2
 3658              	.LVL573:
 3659 0012 C269     		ldr	r2, [r0, #28]
 3660 0014 1143     		orrs	r1, r2
 3661 0016 C161     		str	r1, [r0, #28]
 3662              	.LVL574:
 225:..\..\..\liblc3\src/bits.h ****         accu->n += n;
 3663              		.loc 3 225 0
 3664 0018 0362     		str	r3, [r0, #32]
 3665 001a 02E0     		b	.L182
 3666              	.LVL575:
 3667              	.L181:
ARM GAS  C:\Users\rdn\AppData\Local\Temp\ccFEeGTH.s 			page 91


 226:..\..\..\liblc3\src/bits.h ****     } else {
 227:..\..\..\liblc3\src/bits.h ****         lc3_put_bits_generic(bits, v, n);
 3668              		.loc 3 227 0
 3669 001c 0522     		movs	r2, #5
 3670 001e FFF7FEFF 		bl	lc3_put_bits_generic
 3671              	.LVL576:
 3672              	.L182:
 3673              	.LBE140:
 3674              	.LBE139:
 840:..\..\..\liblc3\src/sns.c ****     lc3_put_bits(bits, data->hfcb, 5);
 3675              		.loc 1 840 0
 3676 0022 6968     		ldr	r1, [r5, #4]
 3677              	.LVL577:
 3678              	.LBB141:
 3679              	.LBB142:
 223:..\..\..\liblc3\src/bits.h ****         accu->v |= v << accu->n;
 3680              		.loc 3 223 0
 3681 0024 226A     		ldr	r2, [r4, #32]
 3682 0026 531D     		adds	r3, r2, #5
 3683 0028 202B     		cmp	r3, #32
 3684 002a 05DC     		bgt	.L183
 224:..\..\..\liblc3\src/bits.h ****         accu->n += n;
 3685              		.loc 3 224 0
 3686 002c 9140     		lsls	r1, r1, r2
 3687              	.LVL578:
 3688 002e E269     		ldr	r2, [r4, #28]
 3689 0030 1143     		orrs	r1, r2
 3690 0032 E161     		str	r1, [r4, #28]
 3691              	.LVL579:
 225:..\..\..\liblc3\src/bits.h ****     } else {
 3692              		.loc 3 225 0
 3693 0034 2362     		str	r3, [r4, #32]
 3694 0036 03E0     		b	.L184
 3695              	.LVL580:
 3696              	.L183:
 3697              		.loc 3 227 0
 3698 0038 0522     		movs	r2, #5
 3699 003a 2000     		movs	r0, r4
 3700 003c FFF7FEFF 		bl	lc3_put_bits_generic
 3701              	.LVL581:
 3702              	.L184:
 3703              	.LBE142:
 3704              	.LBE141:
 841:..\..\..\liblc3\src/sns.c **** 
 842:..\..\..\liblc3\src/sns.c ****     /* --- Shape, gain and vectors --- *
 843:..\..\..\liblc3\src/sns.c ****      * Write MSB bit of shape index, next LSB bits of shape and gain,
 844:..\..\..\liblc3\src/sns.c ****      * and MVPQ vectors indexes are muxed */
 845:..\..\..\liblc3\src/sns.c **** 
 846:..\..\..\liblc3\src/sns.c ****     int shape_msb = data->shape >> 1;
 3705              		.loc 1 846 0
 3706 0040 AB68     		ldr	r3, [r5, #8]
 3707 0042 5E10     		asrs	r6, r3, #1
 3708              	.LVL582:
 3709              	.LBB143:
 3710              	.LBB144:
 3711              	.LBB145:
 3712              	.LBB146:
ARM GAS  C:\Users\rdn\AppData\Local\Temp\ccFEeGTH.s 			page 92


 223:..\..\..\liblc3\src/bits.h ****         accu->v |= v << accu->n;
 3713              		.loc 3 223 0
 3714 0044 226A     		ldr	r2, [r4, #32]
 3715 0046 531C     		adds	r3, r2, #1
 3716 0048 202B     		cmp	r3, #32
 3717 004a 07DC     		bgt	.L185
 224:..\..\..\liblc3\src/bits.h ****         accu->n += n;
 3718              		.loc 3 224 0
 3719 004c 3100     		movs	r1, r6
 3720 004e 9140     		lsls	r1, r1, r2
 3721 0050 0A00     		movs	r2, r1
 3722 0052 E169     		ldr	r1, [r4, #28]
 3723 0054 0A43     		orrs	r2, r1
 3724 0056 E261     		str	r2, [r4, #28]
 225:..\..\..\liblc3\src/bits.h ****     } else {
 3725              		.loc 3 225 0
 3726 0058 2362     		str	r3, [r4, #32]
 3727 005a 04E0     		b	.L186
 3728              	.L185:
 3729              		.loc 3 227 0
 3730 005c 0122     		movs	r2, #1
 3731 005e 3100     		movs	r1, r6
 3732 0060 2000     		movs	r0, r4
 3733 0062 FFF7FEFF 		bl	lc3_put_bits_generic
 3734              	.LVL583:
 3735              	.L186:
 3736              	.LBE146:
 3737              	.LBE145:
 3738              	.LBE144:
 3739              	.LBE143:
 847:..\..\..\liblc3\src/sns.c ****     lc3_put_bit(bits, shape_msb);
 848:..\..\..\liblc3\src/sns.c **** 
 849:..\..\..\liblc3\src/sns.c ****     if (shape_msb == 0) {
 3740              		.loc 1 849 0
 3741 0066 002E     		cmp	r6, #0
 3742 0068 41D1     		bne	.L187
 3743              	.LVL584:
 3744              	.LBB147:
 850:..\..\..\liblc3\src/sns.c ****         const int size_a = 2390004;
 851:..\..\..\liblc3\src/sns.c ****         int submode = data->shape & 1;
 3745              		.loc 1 851 0
 3746 006a 0123     		movs	r3, #1
 3747 006c AA68     		ldr	r2, [r5, #8]
 3748 006e 1340     		ands	r3, r2
 3749              	.LVL585:
 852:..\..\..\liblc3\src/sns.c **** 
 853:..\..\..\liblc3\src/sns.c ****         int mux_high = submode == 0 ?
 854:..\..\..\liblc3\src/sns.c ****             2 * (data->idx_b + 1) + data->ls_b : data->gain & 1;
 3750              		.loc 1 854 0
 3751 0070 05D1     		bne	.L188
 3752              		.loc 1 854 0 is_stmt 0 discriminator 1
 3753 0072 6A69     		ldr	r2, [r5, #20]
 3754 0074 561C     		adds	r6, r2, #1
 3755              	.LVL586:
 3756 0076 7600     		lsls	r6, r6, #1
 3757 0078 6A7E     		ldrb	r2, [r5, #25]
 3758 007a B618     		adds	r6, r6, r2
ARM GAS  C:\Users\rdn\AppData\Local\Temp\ccFEeGTH.s 			page 93


 3759 007c 02E0     		b	.L189
 3760              	.LVL587:
 3761              	.L188:
 3762              		.loc 1 854 0 discriminator 2
 3763 007e 0126     		movs	r6, #1
 3764              	.LVL588:
 3765 0080 EA68     		ldr	r2, [r5, #12]
 3766 0082 1640     		ands	r6, r2
 3767              	.L189:
 3768              	.LVL589:
 855:..\..\..\liblc3\src/sns.c ****         int mux_code = mux_high * size_a + data->idx_a;
 3769              		.loc 1 855 0 is_stmt 1
 3770 0084 394A     		ldr	r2, .L203
 3771 0086 5643     		muls	r6, r2
 3772              	.LVL590:
 3773 0088 2A69     		ldr	r2, [r5, #16]
 3774 008a 9446     		mov	ip, r2
 3775 008c 6644     		add	r6, r6, ip
 3776              	.LVL591:
 856:..\..\..\liblc3\src/sns.c **** 
 857:..\..\..\liblc3\src/sns.c ****         lc3_put_bits(bits, data->gain >> submode, 1);
 3777              		.loc 1 857 0
 3778 008e E968     		ldr	r1, [r5, #12]
 3779 0090 1941     		asrs	r1, r1, r3
 3780              	.LVL592:
 3781              	.LBB148:
 3782              	.LBB149:
 223:..\..\..\liblc3\src/bits.h ****         accu->v |= v << accu->n;
 3783              		.loc 3 223 0
 3784 0092 226A     		ldr	r2, [r4, #32]
 3785 0094 531C     		adds	r3, r2, #1
 3786              	.LVL593:
 3787 0096 202B     		cmp	r3, #32
 3788 0098 05DC     		bgt	.L190
 224:..\..\..\liblc3\src/bits.h ****         accu->n += n;
 3789              		.loc 3 224 0
 3790 009a 9140     		lsls	r1, r1, r2
 3791              	.LVL594:
 3792 009c E269     		ldr	r2, [r4, #28]
 3793 009e 1143     		orrs	r1, r2
 3794 00a0 E161     		str	r1, [r4, #28]
 3795              	.LVL595:
 225:..\..\..\liblc3\src/bits.h ****     } else {
 3796              		.loc 3 225 0
 3797 00a2 2362     		str	r3, [r4, #32]
 3798 00a4 03E0     		b	.L191
 3799              	.LVL596:
 3800              	.L190:
 3801              		.loc 3 227 0
 3802 00a6 0122     		movs	r2, #1
 3803              	.LVL597:
 3804 00a8 2000     		movs	r0, r4
 3805 00aa FFF7FEFF 		bl	lc3_put_bits_generic
 3806              	.LVL598:
 3807              	.L191:
 3808              	.LBE149:
 3809              	.LBE148:
ARM GAS  C:\Users\rdn\AppData\Local\Temp\ccFEeGTH.s 			page 94


 858:..\..\..\liblc3\src/sns.c ****         lc3_put_bits(bits, data->ls_a, 1);
 3810              		.loc 1 858 0
 3811 00ae 297E     		ldrb	r1, [r5, #24]
 3812              	.LVL599:
 3813              	.LBB150:
 3814              	.LBB151:
 223:..\..\..\liblc3\src/bits.h ****         accu->v |= v << accu->n;
 3815              		.loc 3 223 0
 3816 00b0 226A     		ldr	r2, [r4, #32]
 3817 00b2 531C     		adds	r3, r2, #1
 3818 00b4 202B     		cmp	r3, #32
 3819 00b6 05DC     		bgt	.L192
 224:..\..\..\liblc3\src/bits.h ****         accu->n += n;
 3820              		.loc 3 224 0
 3821 00b8 9140     		lsls	r1, r1, r2
 3822              	.LVL600:
 3823 00ba E269     		ldr	r2, [r4, #28]
 3824 00bc 1143     		orrs	r1, r2
 3825 00be E161     		str	r1, [r4, #28]
 3826              	.LVL601:
 225:..\..\..\liblc3\src/bits.h ****     } else {
 3827              		.loc 3 225 0
 3828 00c0 2362     		str	r3, [r4, #32]
 3829 00c2 03E0     		b	.L193
 3830              	.LVL602:
 3831              	.L192:
 3832              		.loc 3 227 0
 3833 00c4 0122     		movs	r2, #1
 3834 00c6 2000     		movs	r0, r4
 3835 00c8 FFF7FEFF 		bl	lc3_put_bits_generic
 3836              	.LVL603:
 3837              	.L193:
 3838              	.LBE151:
 3839              	.LBE150:
 3840              	.LBB152:
 3841              	.LBB153:
 223:..\..\..\liblc3\src/bits.h ****         accu->v |= v << accu->n;
 3842              		.loc 3 223 0
 3843 00cc 226A     		ldr	r2, [r4, #32]
 3844 00ce 1300     		movs	r3, r2
 3845 00d0 1933     		adds	r3, r3, #25
 3846 00d2 202B     		cmp	r3, #32
 3847 00d4 05DC     		bgt	.L194
 224:..\..\..\liblc3\src/bits.h ****         accu->n += n;
 3848              		.loc 3 224 0
 3849 00d6 9640     		lsls	r6, r6, r2
 3850              	.LVL604:
 3851 00d8 E269     		ldr	r2, [r4, #28]
 3852 00da 1643     		orrs	r6, r2
 3853 00dc E661     		str	r6, [r4, #28]
 225:..\..\..\liblc3\src/bits.h ****     } else {
 3854              		.loc 3 225 0
 3855 00de 2362     		str	r3, [r4, #32]
 3856 00e0 43E0     		b	.L180
 3857              	.LVL605:
 3858              	.L194:
 3859              		.loc 3 227 0
ARM GAS  C:\Users\rdn\AppData\Local\Temp\ccFEeGTH.s 			page 95


 3860 00e2 1922     		movs	r2, #25
 3861 00e4 3100     		movs	r1, r6
 3862 00e6 2000     		movs	r0, r4
 3863 00e8 FFF7FEFF 		bl	lc3_put_bits_generic
 3864              	.LVL606:
 3865 00ec 3DE0     		b	.L180
 3866              	.LVL607:
 3867              	.L187:
 3868              	.LBE153:
 3869              	.LBE152:
 3870              	.LBE147:
 3871              	.LBB154:
 859:..\..\..\liblc3\src/sns.c ****         lc3_put_bits(bits, mux_code, 25);
 860:..\..\..\liblc3\src/sns.c **** 
 861:..\..\..\liblc3\src/sns.c ****     } else {
 862:..\..\..\liblc3\src/sns.c ****         const int size_a = 15158272;
 863:..\..\..\liblc3\src/sns.c ****         int submode = data->shape & 1;
 3872              		.loc 1 863 0
 3873 00ee 0123     		movs	r3, #1
 3874 00f0 AA68     		ldr	r2, [r5, #8]
 3875 00f2 1340     		ands	r3, r2
 3876              	.LVL608:
 864:..\..\..\liblc3\src/sns.c **** 
 865:..\..\..\liblc3\src/sns.c ****         int mux_code = submode == 0 ?
 866:..\..\..\liblc3\src/sns.c ****             data->idx_a : size_a + 2 * data->idx_a + (data->gain & 1);
 3877              		.loc 1 866 0
 3878 00f4 01D1     		bne	.L196
 3879              		.loc 1 866 0 is_stmt 0 discriminator 1
 3880 00f6 2E69     		ldr	r6, [r5, #16]
 3881              	.LVL609:
 3882 00f8 08E0     		b	.L197
 3883              	.LVL610:
 3884              	.L196:
 3885              		.loc 1 866 0 discriminator 2
 3886 00fa 2A69     		ldr	r2, [r5, #16]
 3887 00fc 1C49     		ldr	r1, .L203+4
 3888 00fe 8C46     		mov	ip, r1
 3889 0100 6244     		add	r2, r2, ip
 3890 0102 5200     		lsls	r2, r2, #1
 3891 0104 0126     		movs	r6, #1
 3892              	.LVL611:
 3893 0106 E968     		ldr	r1, [r5, #12]
 3894 0108 0E40     		ands	r6, r1
 3895 010a 9619     		adds	r6, r2, r6
 3896              	.L197:
 3897              	.LVL612:
 867:..\..\..\liblc3\src/sns.c **** 
