ARM GAS  C:\Users\rdn\AppData\Local\Temp\cciiQw7C.s 			page 1


   1              		.syntax unified
   2              		.cpu cortex-m0plus
   3              		.fpu softvfp
   4              		.eabi_attribute 20, 1
   5              		.eabi_attribute 21, 1
   6              		.eabi_attribute 23, 3
   7              		.eabi_attribute 24, 1
   8              		.eabi_attribute 25, 1
   9              		.eabi_attribute 26, 1
  10              		.eabi_attribute 30, 1
  11              		.eabi_attribute 34, 0
  12              		.eabi_attribute 18, 4
  13              		.thumb
  14              		.syntax unified
  15              		.file	"spec.c"
  16              		.text
  17              	.Ltext0:
  18              		.cfi_sections	.debug_frame
  19              		.global	__aeabi_idiv
  20              		.section	.text.resolve_gain_offset,"ax",%progbits
  21              		.align	2
  22              		.code	16
  23              		.thumb_func
  24              		.type	resolve_gain_offset, %function
  25              	resolve_gain_offset:
  26              	.LFB20:
  27              		.file 1 "..\\..\\..\\liblc3\\src\\spec.c"
   1:..\..\..\liblc3\src/spec.c **** /******************************************************************************
   2:..\..\..\liblc3\src/spec.c ****  *
   3:..\..\..\liblc3\src/spec.c ****  *  Copyright 2022 Google LLC
   4:..\..\..\liblc3\src/spec.c ****  *
   5:..\..\..\liblc3\src/spec.c ****  *  Licensed under the Apache License, Version 2.0 (the "License");
   6:..\..\..\liblc3\src/spec.c ****  *  you may not use this file except in compliance with the License.
   7:..\..\..\liblc3\src/spec.c ****  *  You may obtain a copy of the License at:
   8:..\..\..\liblc3\src/spec.c ****  *
   9:..\..\..\liblc3\src/spec.c ****  *  http://www.apache.org/licenses/LICENSE-2.0
  10:..\..\..\liblc3\src/spec.c ****  *
  11:..\..\..\liblc3\src/spec.c ****  *  Unless required by applicable law or agreed to in writing, software
  12:..\..\..\liblc3\src/spec.c ****  *  distributed under the License is distributed on an "AS IS" BASIS,
  13:..\..\..\liblc3\src/spec.c ****  *  WITHOUT WARRANTIES OR CONDITIONS OF ANY KIND, either express or implied.
  14:..\..\..\liblc3\src/spec.c ****  *  See the License for the specific language governing permissions and
  15:..\..\..\liblc3\src/spec.c ****  *  limitations under the License.
  16:..\..\..\liblc3\src/spec.c ****  *
  17:..\..\..\liblc3\src/spec.c ****  ******************************************************************************/
  18:..\..\..\liblc3\src/spec.c **** 
  19:..\..\..\liblc3\src/spec.c **** #include "spec.h"
  20:..\..\..\liblc3\src/spec.c **** #include "bits.h"
  21:..\..\..\liblc3\src/spec.c **** #include "tables.h"
  22:..\..\..\liblc3\src/spec.c **** 
  23:..\..\..\liblc3\src/spec.c **** 
  24:..\..\..\liblc3\src/spec.c **** /* ----------------------------------------------------------------------------
  25:..\..\..\liblc3\src/spec.c ****  *  Global Gain / Quantization
  26:..\..\..\liblc3\src/spec.c ****  * -------------------------------------------------------------------------- */
  27:..\..\..\liblc3\src/spec.c **** 
  28:..\..\..\liblc3\src/spec.c **** /**
  29:..\..\..\liblc3\src/spec.c ****  * Resolve quantized gain index offset
  30:..\..\..\liblc3\src/spec.c ****  * sr, nbytes      Samplerate and size of the frame
ARM GAS  C:\Users\rdn\AppData\Local\Temp\cciiQw7C.s 			page 2


  31:..\..\..\liblc3\src/spec.c ****  * return          Gain index offset
  32:..\..\..\liblc3\src/spec.c ****  */
  33:..\..\..\liblc3\src/spec.c **** static int resolve_gain_offset(enum lc3_srate sr, int nbytes)
  34:..\..\..\liblc3\src/spec.c **** {
  28              		.loc 1 34 0
  29              		.cfi_startproc
  30              		@ args = 0, pretend = 0, frame = 0
  31              		@ frame_needed = 0, uses_anonymous_args = 0
  32              	.LVL0:
  33 0000 70B5     		push	{r4, r5, r6, lr}
  34              		.cfi_def_cfa_offset 16
  35              		.cfi_offset 4, -16
  36              		.cfi_offset 5, -12
  37              		.cfi_offset 6, -8
  38              		.cfi_offset 14, -4
  39 0002 0500     		movs	r5, r0
  35:..\..\..\liblc3\src/spec.c ****     int sr_ind = lc3_hr(sr) ? 4 + (sr - LC3_SRATE_48K_HR) : sr;
  40              		.loc 1 35 0
  41 0004 0428     		cmp	r0, #4
  42 0006 01D9     		bls	.L2
  43              		.loc 1 35 0 is_stmt 0 discriminator 1
  44 0008 441E     		subs	r4, r0, #1
  45 000a 00E0     		b	.L3
  46              	.L2:
  47              		.loc 1 35 0 discriminator 2
  48 000c 0400     		movs	r4, r0
  49              	.L3:
  50              	.LVL1:
  36:..\..\..\liblc3\src/spec.c **** 
  37:..\..\..\liblc3\src/spec.c ****     int g_off = (nbytes * 8) / (10 * (1 + sr_ind));
  51              		.loc 1 37 0 is_stmt 1 discriminator 4
  52 000e C800     		lsls	r0, r1, #3
  53              	.LVL2:
  54 0010 0134     		adds	r4, r4, #1
  55              	.LVL3:
  56 0012 A600     		lsls	r6, r4, #2
  57 0014 3319     		adds	r3, r6, r4
  58 0016 5900     		lsls	r1, r3, #1
  59              	.LVL4:
  60 0018 FFF7FEFF 		bl	__aeabi_idiv
  61              	.LVL5:
  38:..\..\..\liblc3\src/spec.c ****     return LC3_MIN(sr >= LC3_SRATE_96K_HR ? 181 : 255,
  62              		.loc 1 38 0 discriminator 4
  63 001c 3419     		adds	r4, r6, r4
  64              	.LVL6:
  65 001e 6934     		adds	r4, r4, #105
  66 0020 7328     		cmp	r0, #115
  67 0022 00DD     		ble	.L4
  68 0024 7320     		movs	r0, #115
  69              	.LVL7:
  70              	.L4:
  71 0026 2418     		adds	r4, r4, r0
  72 0028 052D     		cmp	r5, #5
  73 002a 01D9     		bls	.L7
  74              		.loc 1 38 0 is_stmt 0
  75 002c B520     		movs	r0, #181
  76 002e 00E0     		b	.L5
ARM GAS  C:\Users\rdn\AppData\Local\Temp\cciiQw7C.s 			page 3


  77              	.L7:
  78 0030 FF20     		movs	r0, #255
  79              	.L5:
  80              		.loc 1 38 0 discriminator 4
  81 0032 A042     		cmp	r0, r4
  82 0034 00DD     		ble	.L6
  83 0036 2000     		movs	r0, r4
  84              	.L6:
  39:..\..\..\liblc3\src/spec.c ****         105 + 5*(1 + sr_ind) + LC3_MIN(g_off, 115));
  40:..\..\..\liblc3\src/spec.c **** }
  85              		.loc 1 40 0 is_stmt 1 discriminator 4
  86              		@ sp needed
  87 0038 70BD     		pop	{r4, r5, r6, pc}
  88              		.cfi_endproc
  89              	.LFE20:
  90              		.size	resolve_gain_offset, .-resolve_gain_offset
  91              		.global	__aeabi_fmul
  92 003a C046     		.section	.text.unquantize_gain,"ax",%progbits
  93              		.align	2
  94              		.code	16
  95              		.thumb_func
  96              		.type	unquantize_gain, %function
  97              	unquantize_gain:
  98              	.LFB21:
  41:..\..\..\liblc3\src/spec.c **** 
  42:..\..\..\liblc3\src/spec.c **** /**
  43:..\..\..\liblc3\src/spec.c ****  * Unquantize gain
  44:..\..\..\liblc3\src/spec.c ****  * g_int           Quantization gain value
  45:..\..\..\liblc3\src/spec.c ****  * return          Unquantized gain value
  46:..\..\..\liblc3\src/spec.c ****  */
  47:..\..\..\liblc3\src/spec.c **** static float unquantize_gain(int g_int)
  48:..\..\..\liblc3\src/spec.c **** {
  99              		.loc 1 48 0
 100              		.cfi_startproc
 101              		@ args = 0, pretend = 0, frame = 0
 102              		@ frame_needed = 0, uses_anonymous_args = 0
 103              	.LVL8:
 104 0000 10B5     		push	{r4, lr}
 105              		.cfi_def_cfa_offset 8
 106              		.cfi_offset 4, -8
 107              		.cfi_offset 14, -4
 108 0002 0400     		movs	r4, r0
 109              	.LVL9:
  49:..\..\..\liblc3\src/spec.c ****     /* Unquantization gain table :
  50:..\..\..\liblc3\src/spec.c ****      * G[i] = 10 ^ (i / 28) , i = [0..27] */
  51:..\..\..\liblc3\src/spec.c **** 
  52:..\..\..\liblc3\src/spec.c ****     static const float iq_table[] = {
  53:..\..\..\liblc3\src/spec.c ****         1.00000000e+00, 1.08571112e+00, 1.17876863e+00, 1.27980221e+00,
  54:..\..\..\liblc3\src/spec.c ****         1.38949549e+00, 1.50859071e+00, 1.63789371e+00, 1.77827941e+00,
  55:..\..\..\liblc3\src/spec.c ****         1.93069773e+00, 2.09617999e+00, 2.27584593e+00, 2.47091123e+00,
  56:..\..\..\liblc3\src/spec.c ****         2.68269580e+00, 2.91263265e+00, 3.16227766e+00, 3.43332002e+00,
  57:..\..\..\liblc3\src/spec.c ****         3.72759372e+00, 4.04708995e+00, 4.39397056e+00, 4.77058270e+00,
  58:..\..\..\liblc3\src/spec.c ****         5.17947468e+00, 5.62341325e+00, 6.10540230e+00, 6.62870316e+00,
  59:..\..\..\liblc3\src/spec.c ****         7.19685673e+00, 7.81370738e+00, 8.48342898e+00, 9.21055318e+00
  60:..\..\..\liblc3\src/spec.c ****     };
  61:..\..\..\liblc3\src/spec.c **** 
  62:..\..\..\liblc3\src/spec.c ****     float g = 1.f;
ARM GAS  C:\Users\rdn\AppData\Local\Temp\cciiQw7C.s 			page 4


 110              		.loc 1 62 0
 111 0004 FE20     		movs	r0, #254
 112              	.LVL10:
 113 0006 8005     		lsls	r0, r0, #22
  63:..\..\..\liblc3\src/spec.c **** 
  64:..\..\..\liblc3\src/spec.c ****     for ( ; g_int <   0; g_int += 28, g *= 0.1f);
 114              		.loc 1 64 0
 115 0008 03E0     		b	.L9
 116              	.LVL11:
 117              	.L10:
 118              		.loc 1 64 0 is_stmt 0 discriminator 2
 119 000a 1C34     		adds	r4, r4, #28
 120              	.LVL12:
 121 000c 0849     		ldr	r1, .L13
 122 000e FFF7FEFF 		bl	__aeabi_fmul
 123              	.LVL13:
 124              	.L9:
 125              		.loc 1 64 0 discriminator 1
 126 0012 002C     		cmp	r4, #0
 127 0014 F9DB     		blt	.L10
 128 0016 03E0     		b	.L11
 129              	.L12:
  65:..\..\..\liblc3\src/spec.c ****     for ( ; g_int >= 28; g_int -= 28, g *= 10.f);
 130              		.loc 1 65 0 is_stmt 1 discriminator 2
 131 0018 1C3C     		subs	r4, r4, #28
 132              	.LVL14:
 133 001a 0649     		ldr	r1, .L13+4
 134 001c FFF7FEFF 		bl	__aeabi_fmul
 135              	.LVL15:
 136              	.L11:
 137              		.loc 1 65 0 is_stmt 0 discriminator 1
 138 0020 1B2C     		cmp	r4, #27
 139 0022 F9DC     		bgt	.L12
  66:..\..\..\liblc3\src/spec.c **** 
  67:..\..\..\liblc3\src/spec.c ****     return g * iq_table[g_int];
 140              		.loc 1 67 0 is_stmt 1
 141 0024 A400     		lsls	r4, r4, #2
 142              	.LVL16:
 143 0026 044B     		ldr	r3, .L13+8
 144 0028 E158     		ldr	r1, [r4, r3]
 145 002a FFF7FEFF 		bl	__aeabi_fmul
 146              	.LVL17:
  68:..\..\..\liblc3\src/spec.c **** }
 147              		.loc 1 68 0
 148              		@ sp needed
 149 002e 10BD     		pop	{r4, pc}
 150              	.L14:
 151              		.align	2
 152              	.L13:
 153 0030 CDCCCC3D 		.word	1036831949
 154 0034 00002041 		.word	1092616192
 155 0038 00000000 		.word	.LANCHOR0
 156              		.cfi_endproc
 157              	.LFE21:
 158              		.size	unquantize_gain, .-unquantize_gain
 159              		.section	.text.adjust_gain,"ax",%progbits
 160              		.align	2
ARM GAS  C:\Users\rdn\AppData\Local\Temp\cciiQw7C.s 			page 5


 161              		.code	16
 162              		.thumb_func
 163              		.type	adjust_gain, %function
 164              	adjust_gain:
 165              	.LFB23:
  69:..\..\..\liblc3\src/spec.c **** 
  70:..\..\..\liblc3\src/spec.c **** /**
  71:..\..\..\liblc3\src/spec.c ****  * Global Gain Estimation
  72:..\..\..\liblc3\src/spec.c ****  * dt, sr          Duration and samplerate of the frame
  73:..\..\..\liblc3\src/spec.c ****  * x               Spectral coefficients
  74:..\..\..\liblc3\src/spec.c ****  * nbytes          Size of the frame
  75:..\..\..\liblc3\src/spec.c ****  * nbits_budget    Number of bits available coding the spectrum
  76:..\..\..\liblc3\src/spec.c ****  * nbits_off       Offset on the available bits, temporarily smoothed
  77:..\..\..\liblc3\src/spec.c ****  * g_off           Gain index offset
  78:..\..\..\liblc3\src/spec.c ****  * reset_off       Return True when the nbits_off must be reset
  79:..\..\..\liblc3\src/spec.c ****  * g_min           Return lower bound of quantized gain value
  80:..\..\..\liblc3\src/spec.c ****  * return          The quantized gain value
  81:..\..\..\liblc3\src/spec.c ****  */
  82:..\..\..\liblc3\src/spec.c **** LC3_HOT static int estimate_gain(
  83:..\..\..\liblc3\src/spec.c ****     enum lc3_dt dt, enum lc3_srate sr, const float *x,
  84:..\..\..\liblc3\src/spec.c ****     int nbytes, int nbits_budget, float nbits_off, int g_off,
  85:..\..\..\liblc3\src/spec.c ****     bool *reset_off, int *g_min)
  86:..\..\..\liblc3\src/spec.c **** {
  87:..\..\..\liblc3\src/spec.c ****     int n4 = lc3_ne(dt, sr) / 4;
  88:..\..\..\liblc3\src/spec.c ****     union { float f; int32_t q16; } e[LC3_MAX_NE / 4];
  89:..\..\..\liblc3\src/spec.c **** 
  90:..\..\..\liblc3\src/spec.c ****     /* --- Signal adaptative noise floor --- */
  91:..\..\..\liblc3\src/spec.c **** 
  92:..\..\..\liblc3\src/spec.c ****     int reg_bits = 0;
  93:..\..\..\liblc3\src/spec.c ****     float low_bits = 0;
  94:..\..\..\liblc3\src/spec.c **** 
  95:..\..\..\liblc3\src/spec.c ****     if (lc3_hr(sr)) {
  96:..\..\..\liblc3\src/spec.c ****         int reg_c = (const int [LC3_NUM_DT][LC3_NUM_SRATE - LC3_SRATE_48K_HR]){
  97:..\..\..\liblc3\src/spec.c ****             [LC3_DT_2M5] = { -6, -6 },
  98:..\..\..\liblc3\src/spec.c ****             [LC3_DT_5M ] = {  0,  0 },
  99:..\..\..\liblc3\src/spec.c ****             [LC3_DT_10M] = {  2,  5 }
 100:..\..\..\liblc3\src/spec.c ****         }[dt][sr - LC3_SRATE_48K_HR];
 101:..\..\..\liblc3\src/spec.c **** 
 102:..\..\..\liblc3\src/spec.c ****         reg_bits = (8*nbytes * 4) / (125 * (1 + dt));
 103:..\..\..\liblc3\src/spec.c ****         reg_bits = LC3_CLIP(reg_bits + reg_c, 6, 23);
 104:..\..\..\liblc3\src/spec.c **** 
 105:..\..\..\liblc3\src/spec.c ****         float m0 = 1e-5f, m1 = 1e-5f, k = 0;
 106:..\..\..\liblc3\src/spec.c **** 
 107:..\..\..\liblc3\src/spec.c ****         for (int i = 0; i < n4; i++) {
 108:..\..\..\liblc3\src/spec.c ****             m0 += fabsf(x[4*i + 0]),  m1 += fabsf(x[4*i + 0]) * k++;
 109:..\..\..\liblc3\src/spec.c ****             m0 += fabsf(x[4*i + 1]),  m1 += fabsf(x[4*i + 1]) * k++;
 110:..\..\..\liblc3\src/spec.c ****             m0 += fabsf(x[4*i + 2]),  m1 += fabsf(x[4*i + 2]) * k++;
 111:..\..\..\liblc3\src/spec.c ****             m0 += fabsf(x[4*i + 3]),  m1 += fabsf(x[4*i + 3]) * k++;
 112:..\..\..\liblc3\src/spec.c ****         }
 113:..\..\..\liblc3\src/spec.c **** 
 114:..\..\..\liblc3\src/spec.c ****         int m = roundf((1.6f * m0) / ((1 + dt) * m1));
 115:..\..\..\liblc3\src/spec.c ****         low_bits = 8 - LC3_MIN(m, 8);
 116:..\..\..\liblc3\src/spec.c ****     }
 117:..\..\..\liblc3\src/spec.c **** 
 118:..\..\..\liblc3\src/spec.c ****     /* --- Energy (dB) by 4 MDCT blocks --- */
 119:..\..\..\liblc3\src/spec.c **** 
 120:..\..\..\liblc3\src/spec.c ****     float x2_max = 0;
ARM GAS  C:\Users\rdn\AppData\Local\Temp\cciiQw7C.s 			page 6


 121:..\..\..\liblc3\src/spec.c **** 
 122:..\..\..\liblc3\src/spec.c ****     for (int i = 0; i < n4; i++) {
 123:..\..\..\liblc3\src/spec.c ****         float x0 = x[4*i + 0] * x[4*i + 0];
 124:..\..\..\liblc3\src/spec.c ****         float x1 = x[4*i + 1] * x[4*i + 1];
 125:..\..\..\liblc3\src/spec.c ****         float x2 = x[4*i + 2] * x[4*i + 2];
 126:..\..\..\liblc3\src/spec.c ****         float x3 = x[4*i + 3] * x[4*i + 3];
 127:..\..\..\liblc3\src/spec.c **** 
 128:..\..\..\liblc3\src/spec.c ****         x2_max = fmaxf(x2_max, x0);
 129:..\..\..\liblc3\src/spec.c ****         x2_max = fmaxf(x2_max, x1);
 130:..\..\..\liblc3\src/spec.c ****         x2_max = fmaxf(x2_max, x2);
 131:..\..\..\liblc3\src/spec.c ****         x2_max = fmaxf(x2_max, x3);
 132:..\..\..\liblc3\src/spec.c **** 
 133:..\..\..\liblc3\src/spec.c ****         e[i].f = x0 + x1 + x2 + x3;
 134:..\..\..\liblc3\src/spec.c ****     }
 135:..\..\..\liblc3\src/spec.c **** 
 136:..\..\..\liblc3\src/spec.c ****     float x_max = sqrtf(x2_max);
 137:..\..\..\liblc3\src/spec.c ****     float nf = lc3_hr(sr) ?
 138:..\..\..\liblc3\src/spec.c ****         lc3_ldexpf(x_max, -reg_bits) * lc3_exp2f(-low_bits) : 0;
 139:..\..\..\liblc3\src/spec.c **** 
 140:..\..\..\liblc3\src/spec.c ****     for (int i = 0; i < n4; i++)
 141:..\..\..\liblc3\src/spec.c ****         e[i].q16 = lc3_db_q16(fmaxf(e[i].f + nf, 1e-10f));
 142:..\..\..\liblc3\src/spec.c **** 
 143:..\..\..\liblc3\src/spec.c ****     /* --- Determine gain index --- */
 144:..\..\..\liblc3\src/spec.c **** 
 145:..\..\..\liblc3\src/spec.c ****     int nbits = nbits_budget + nbits_off + 0.5f;
 146:..\..\..\liblc3\src/spec.c ****     int g_int = 255 - g_off;
 147:..\..\..\liblc3\src/spec.c **** 
 148:..\..\..\liblc3\src/spec.c ****     const int k_20_28 = 20.f/28 * 0x1p16f + 0.5f;
 149:..\..\..\liblc3\src/spec.c ****     const int k_2u7 = 2.7f * 0x1p16f + 0.5f;
 150:..\..\..\liblc3\src/spec.c ****     const int k_1u4 = 1.4f * 0x1p16f + 0.5f;
 151:..\..\..\liblc3\src/spec.c **** 
 152:..\..\..\liblc3\src/spec.c ****     for (int i = 128, j, j0 = n4-1, j1 ; i > 0; i >>= 1) {
 153:..\..\..\liblc3\src/spec.c ****         int gn = (g_int - i) * k_20_28;
 154:..\..\..\liblc3\src/spec.c ****         int v = 0;
 155:..\..\..\liblc3\src/spec.c **** 
 156:..\..\..\liblc3\src/spec.c ****         for (j = j0; j >= 0 && e[j].q16 < gn; j--);
 157:..\..\..\liblc3\src/spec.c **** 
 158:..\..\..\liblc3\src/spec.c ****         for (j1 = j; j >= 0; j--) {
 159:..\..\..\liblc3\src/spec.c ****             int e_diff = e[j].q16 - gn;
 160:..\..\..\liblc3\src/spec.c **** 
 161:..\..\..\liblc3\src/spec.c ****             v += e_diff < 0 ? k_2u7 :
 162:..\..\..\liblc3\src/spec.c ****                  e_diff < 43 << 16 ?   e_diff + ( 7 << 16)
 163:..\..\..\liblc3\src/spec.c ****                                    : 2*e_diff - (36 << 16);
 164:..\..\..\liblc3\src/spec.c ****         }
 165:..\..\..\liblc3\src/spec.c **** 
 166:..\..\..\liblc3\src/spec.c ****         if (v > nbits * k_1u4)
 167:..\..\..\liblc3\src/spec.c ****             j0 = j1;
 168:..\..\..\liblc3\src/spec.c ****         else
 169:..\..\..\liblc3\src/spec.c ****             g_int = g_int - i;
 170:..\..\..\liblc3\src/spec.c ****     }
 171:..\..\..\liblc3\src/spec.c **** 
 172:..\..\..\liblc3\src/spec.c ****     /* --- Limit gain index --- */
 173:..\..\..\liblc3\src/spec.c **** 
 174:..\..\..\liblc3\src/spec.c ****     float x_lim = lc3_hr(sr) ? 0x7fffp8f : 0x7fffp0f;
 175:..\..\..\liblc3\src/spec.c **** 
 176:..\..\..\liblc3\src/spec.c ****     *g_min = 255 - g_off;
 177:..\..\..\liblc3\src/spec.c ****     for (int i = 128 ; i > 0; i >>= 1)
ARM GAS  C:\Users\rdn\AppData\Local\Temp\cciiQw7C.s 			page 7


 178:..\..\..\liblc3\src/spec.c ****         if (x_lim * unquantize_gain(*g_min - i) > x_max)
 179:..\..\..\liblc3\src/spec.c ****             *g_min -= i;
 180:..\..\..\liblc3\src/spec.c **** 
 181:..\..\..\liblc3\src/spec.c ****     *reset_off = g_int < *g_min || x_max == 0;
 182:..\..\..\liblc3\src/spec.c ****     if (*reset_off)
 183:..\..\..\liblc3\src/spec.c ****         g_int = *g_min;
 184:..\..\..\liblc3\src/spec.c **** 
 185:..\..\..\liblc3\src/spec.c ****     return g_int;
 186:..\..\..\liblc3\src/spec.c **** }
 187:..\..\..\liblc3\src/spec.c **** 
 188:..\..\..\liblc3\src/spec.c **** /**
 189:..\..\..\liblc3\src/spec.c ****  * Global Gain Adjustment
 190:..\..\..\liblc3\src/spec.c ****  * dt, sr          Duration and samplerate of the frame
 191:..\..\..\liblc3\src/spec.c ****  * g_idx           The estimated quantized gain index
 192:..\..\..\liblc3\src/spec.c ****  * nbits           Computed number of bits coding the spectrum
 193:..\..\..\liblc3\src/spec.c ****  * nbits_budget    Number of bits available for coding the spectrum
 194:..\..\..\liblc3\src/spec.c ****  * g_idx_min       Minimum gain index value
 195:..\..\..\liblc3\src/spec.c ****  * return          Gain adjust value (-1 to 2)
 196:..\..\..\liblc3\src/spec.c ****  */
 197:..\..\..\liblc3\src/spec.c **** LC3_HOT static int adjust_gain(
 198:..\..\..\liblc3\src/spec.c ****     enum lc3_dt dt, enum lc3_srate sr,
 199:..\..\..\liblc3\src/spec.c ****     int g_idx, int nbits, int nbits_budget, int g_idx_min)
 200:..\..\..\liblc3\src/spec.c **** {
 166              		.loc 1 200 0
 167              		.cfi_startproc
 168              		@ args = 8, pretend = 0, frame = 88
 169              		@ frame_needed = 0, uses_anonymous_args = 0
 170              	.LVL18:
 171 0000 F0B5     		push	{r4, r5, r6, r7, lr}
 172              		.cfi_def_cfa_offset 20
 173              		.cfi_offset 4, -20
 174              		.cfi_offset 5, -16
 175              		.cfi_offset 6, -12
 176              		.cfi_offset 7, -8
 177              		.cfi_offset 14, -4
 178 0002 4746     		mov	r7, r8
 179 0004 80B4     		push	{r7}
 180              		.cfi_def_cfa_offset 24
 181              		.cfi_offset 8, -24
 182 0006 96B0     		sub	sp, sp, #88
 183              		.cfi_def_cfa_offset 112
 184 0008 0500     		movs	r5, r0
 185 000a 0E00     		movs	r6, r1
 186 000c 1700     		movs	r7, r2
 187 000e 1C00     		movs	r4, r3
 201:..\..\..\liblc3\src/spec.c ****     /* --- Compute delta threshold --- */
 202:..\..\..\liblc3\src/spec.c **** 
 203:..\..\..\liblc3\src/spec.c ****     const int *t = (const int [LC3_NUM_SRATE][3]){
 188              		.loc 1 203 0
 189 0010 5422     		movs	r2, #84
 190              	.LVL19:
 191 0012 4049     		ldr	r1, .L34
 192              	.LVL20:
 193 0014 7031     		adds	r1, r1, #112
 194 0016 01A8     		add	r0, sp, #4
 195              	.LVL21:
 196 0018 FFF7FEFF 		bl	memcpy
ARM GAS  C:\Users\rdn\AppData\Local\Temp\cciiQw7C.s 			page 8


 197              	.LVL22:
 198 001c 7200     		lsls	r2, r6, #1
 199 001e 9219     		adds	r2, r2, r6
 200 0020 9300     		lsls	r3, r2, #2
 201 0022 01AA     		add	r2, sp, #4
 202 0024 D218     		adds	r2, r2, r3
 203              	.LVL23:
 204:..\..\..\liblc3\src/spec.c ****         {  80,  500,  850 }, { 230, 1025, 1700 }, { 380, 1550, 2550 },
 205:..\..\..\liblc3\src/spec.c ****         { 530, 2075, 3400 }, { 680, 2600, 4250 },
 206:..\..\..\liblc3\src/spec.c ****         { 680, 2600, 4250 }, { 830, 3125, 5100 }
 207:..\..\..\liblc3\src/spec.c ****     }[sr];
 208:..\..\..\liblc3\src/spec.c **** 
 209:..\..\..\liblc3\src/spec.c ****     int delta, den = 48;
 210:..\..\..\liblc3\src/spec.c **** 
 211:..\..\..\liblc3\src/spec.c ****     if (nbits < t[0]) {
 204              		.loc 1 211 0
 205 0026 1168     		ldr	r1, [r2]
 206 0028 A142     		cmp	r1, r4
 207 002a 05DD     		ble	.L16
 212:..\..\..\liblc3\src/spec.c ****         delta = 3*(nbits + 48);
 208              		.loc 1 212 0
 209 002c 2300     		movs	r3, r4
 210 002e 3033     		adds	r3, r3, #48
 211 0030 5800     		lsls	r0, r3, #1
 212 0032 C018     		adds	r0, r0, r3
 213              	.LVL24:
 209:..\..\..\liblc3\src/spec.c **** 
 214              		.loc 1 209 0
 215 0034 3021     		movs	r1, #48
 216 0036 1BE0     		b	.L17
 217              	.LVL25:
 218              	.L16:
 213:..\..\..\liblc3\src/spec.c **** 
 214:..\..\..\liblc3\src/spec.c ****     } else if (nbits < t[1]) {
 219              		.loc 1 214 0
 220 0038 5368     		ldr	r3, [r2, #4]
 221 003a 9846     		mov	r8, r3
 222 003c 9C42     		cmp	r4, r3
 223 003e 11DA     		bge	.L18
 224              	.LBB101:
 215:..\..\..\liblc3\src/spec.c ****         int n0 = 3*(t[0] + 48), range = t[1] - t[0];
 225              		.loc 1 215 0
 226 0040 0A00     		movs	r2, r1
 227              	.LVL26:
 228 0042 3032     		adds	r2, r2, #48
 229 0044 5000     		lsls	r0, r2, #1
 230 0046 8018     		adds	r0, r0, r2
 231              	.LVL27:
 232 0048 5A1A     		subs	r2, r3, r1
 233              	.LVL28:
 216:..\..\..\liblc3\src/spec.c ****         delta = n0 * range + (nbits - t[0]) * (t[1] - n0);
 234              		.loc 1 216 0
 235 004a 1300     		movs	r3, r2
 236 004c 4343     		muls	r3, r0
 237 004e 9C46     		mov	ip, r3
 238 0050 611A     		subs	r1, r4, r1
 239 0052 4346     		mov	r3, r8
ARM GAS  C:\Users\rdn\AppData\Local\Temp\cciiQw7C.s 			page 9


 240 0054 1B1A     		subs	r3, r3, r0
 241 0056 4B43     		muls	r3, r1
 242 0058 6344     		add	r3, r3, ip
 243 005a 1800     		movs	r0, r3
 244              	.LVL29:
 217:..\..\..\liblc3\src/spec.c ****         den *= range;
 245              		.loc 1 217 0
 246 005c 5300     		lsls	r3, r2, #1
 247 005e 9A18     		adds	r2, r3, r2
 248              	.LVL30:
 249 0060 1101     		lsls	r1, r2, #4
 250              	.LVL31:
 251              	.LBE101:
 252 0062 05E0     		b	.L17
 253              	.LVL32:
 254              	.L18:
 218:..\..\..\liblc3\src/spec.c **** 
 219:..\..\..\liblc3\src/spec.c ****     } else {
 220:..\..\..\liblc3\src/spec.c ****         delta = LC3_MIN(nbits, t[2]);
 255              		.loc 1 220 0
 256 0064 9368     		ldr	r3, [r2, #8]
 257 0066 2000     		movs	r0, r4
 258 0068 9C42     		cmp	r4, r3
 259 006a 00DD     		ble	.L19
 260              	.LVL33:
 261 006c 1800     		movs	r0, r3
 262              	.LVL34:
 263              	.L19:
 209:..\..\..\liblc3\src/spec.c **** 
 264              		.loc 1 209 0
 265 006e 3021     		movs	r1, #48
 266              	.LVL35:
 267              	.L17:
 221:..\..\..\liblc3\src/spec.c ****     }
 222:..\..\..\liblc3\src/spec.c **** 
 223:..\..\..\liblc3\src/spec.c ****     delta = (delta + den/2) / den;
 268              		.loc 1 223 0
 269 0070 4B10     		asrs	r3, r1, #1
 270 0072 C018     		adds	r0, r0, r3
 271              	.LVL36:
 272 0074 FFF7FEFF 		bl	__aeabi_idiv
 273              	.LVL37:
 274 0078 0100     		movs	r1, r0
 275              	.LVL38:
 224:..\..\..\liblc3\src/spec.c **** 
 225:..\..\..\liblc3\src/spec.c ****     /* --- Adjust gain --- */
 226:..\..\..\liblc3\src/spec.c **** 
 227:..\..\..\liblc3\src/spec.c ****     if (lc3_hr(sr) && nbits > nbits_budget) {
 276              		.loc 1 227 0
 277 007a 042E     		cmp	r6, #4
 278 007c 1DD9     		bls	.L20
 279              		.loc 1 227 0 is_stmt 0 discriminator 1
 280 007e 1C9B     		ldr	r3, [sp, #112]
 281 0080 9C42     		cmp	r4, r3
 282 0082 1ADD     		ble	.L20
 283              	.LBB102:
 228:..\..\..\liblc3\src/spec.c ****         int factor = 1 + (dt <= LC3_DT_5M) +
ARM GAS  C:\Users\rdn\AppData\Local\Temp\cciiQw7C.s 			page 10


 284              		.loc 1 228 0 is_stmt 1
 285 0084 012D     		cmp	r5, #1
 286 0086 01D8     		bhi	.L28
 287 0088 0220     		movs	r0, #2
 288              	.LVL39:
 289 008a 00E0     		b	.L21
 290              	.LVL40:
 291              	.L28:
 292 008c 0120     		movs	r0, #1
 293              	.LVL41:
 294              	.L21:
 229:..\..\..\liblc3\src/spec.c ****             (dt <= LC3_DT_2M5) * (1 + (nbits >= 520));
 295              		.loc 1 229 0
 296 008e 6B42     		rsbs	r3, r5, #0
 297 0090 6B41     		adcs	r3, r3, r5
 298 0092 214A     		ldr	r2, .L34+4
 299 0094 9442     		cmp	r4, r2
 300 0096 01DD     		ble	.L29
 301 0098 0225     		movs	r5, #2
 302 009a 00E0     		b	.L22
 303              	.L29:
 304 009c 0125     		movs	r5, #1
 305              	.L22:
 306              		.loc 1 229 0 is_stmt 0 discriminator 4
 307 009e 5D43     		muls	r5, r3
 228:..\..\..\liblc3\src/spec.c ****         int factor = 1 + (dt <= LC3_DT_5M) +
 308              		.loc 1 228 0 is_stmt 1 discriminator 4
 309 00a0 4519     		adds	r5, r0, r5
 310              	.LVL42:
 230:..\..\..\liblc3\src/spec.c **** 
 231:..\..\..\liblc3\src/spec.c ****         int g_incr = factor + (factor * (nbits - nbits_budget)) / delta;
 311              		.loc 1 231 0 discriminator 4
 312 00a2 1C9B     		ldr	r3, [sp, #112]
 313 00a4 E01A     		subs	r0, r4, r3
 314 00a6 6843     		muls	r0, r5
 315 00a8 FFF7FEFF 		bl	__aeabi_idiv
 316              	.LVL43:
 317 00ac 2818     		adds	r0, r5, r0
 318              	.LVL44:
 232:..\..\..\liblc3\src/spec.c ****         return LC3_MIN(g_idx + g_incr, 255) - g_idx;
 319              		.loc 1 232 0 discriminator 4
 320 00ae C019     		adds	r0, r0, r7
 321              	.LVL45:
 322 00b0 FF28     		cmp	r0, #255
 323 00b2 00DD     		ble	.L23
 324 00b4 FF20     		movs	r0, #255
 325              	.L23:
 326 00b6 C01B     		subs	r0, r0, r7
 327 00b8 28E0     		b	.L24
 328              	.LVL46:
 329              	.L20:
 330              	.LBE102:
 233:..\..\..\liblc3\src/spec.c ****     }
 234:..\..\..\liblc3\src/spec.c **** 
 235:..\..\..\liblc3\src/spec.c ****     if (!lc3_hr(sr) && nbits < nbits_budget - (delta + 2))
 331              		.loc 1 235 0
 332 00ba 042E     		cmp	r6, #4
ARM GAS  C:\Users\rdn\AppData\Local\Temp\cciiQw7C.s 			page 11


 333 00bc 0BD8     		bhi	.L25
 334              		.loc 1 235 0 is_stmt 0 discriminator 1
 335 00be 8B1C     		adds	r3, r1, #2
 336 00c0 1C9A     		ldr	r2, [sp, #112]
 337 00c2 D31A     		subs	r3, r2, r3
 338 00c4 9C42     		cmp	r4, r3
 339 00c6 06DA     		bge	.L25
 236:..\..\..\liblc3\src/spec.c ****         return -(g_idx > g_idx_min);
 340              		.loc 1 236 0 is_stmt 1
 341 00c8 0120     		movs	r0, #1
 342              	.LVL47:
 343 00ca 1D9B     		ldr	r3, [sp, #116]
 344 00cc 9F42     		cmp	r7, r3
 345 00ce 00DC     		bgt	.L26
 346 00d0 0020     		movs	r0, #0
 347              	.L26:
 348 00d2 4042     		rsbs	r0, r0, #0
 349 00d4 1AE0     		b	.L24
 350              	.LVL48:
 351              	.L25:
 237:..\..\..\liblc3\src/spec.c **** 
 238:..\..\..\liblc3\src/spec.c ****     if (!lc3_hr(sr) && nbits > nbits_budget)
 352              		.loc 1 238 0
 353 00d6 042E     		cmp	r6, #4
 354 00d8 15D8     		bhi	.L30
 355              		.loc 1 238 0 is_stmt 0 discriminator 1
 356 00da 1C9B     		ldr	r3, [sp, #112]
 357 00dc 9C42     		cmp	r4, r3
 358 00de 14DD     		ble	.L31
 239:..\..\..\liblc3\src/spec.c ****         return (g_idx < 255) + (g_idx < 254 && nbits >= nbits_budget + delta);
 359              		.loc 1 239 0 is_stmt 1
 360 00e0 F80F     		lsrs	r0, r7, #31
 361              	.LVL49:
 362 00e2 0023     		movs	r3, #0
 363 00e4 FE22     		movs	r2, #254
 364 00e6 BA42     		cmp	r2, r7
 365 00e8 4341     		adcs	r3, r3, r0
 366 00ea FD2F     		cmp	r7, #253
 367 00ec 06DC     		bgt	.L32
 368              		.loc 1 239 0 is_stmt 0 discriminator 1
 369 00ee 1C9A     		ldr	r2, [sp, #112]
 370 00f0 9446     		mov	ip, r2
 371 00f2 6144     		add	r1, r1, ip
 372              	.LVL50:
 373 00f4 8C42     		cmp	r4, r1
 374 00f6 03DA     		bge	.L33
 375              		.loc 1 239 0
 376 00f8 0020     		movs	r0, #0
 377 00fa 02E0     		b	.L27
 378              	.LVL51:
 379              	.L32:
 380 00fc 0020     		movs	r0, #0
 381 00fe 00E0     		b	.L27
 382              	.LVL52:
 383              	.L33:
 384 0100 0120     		movs	r0, #1
 385              	.L27:
ARM GAS  C:\Users\rdn\AppData\Local\Temp\cciiQw7C.s 			page 12


 386              		.loc 1 239 0 discriminator 6
 387 0102 C018     		adds	r0, r0, r3
 388 0104 02E0     		b	.L24
 389              	.LVL53:
 390              	.L30:
 240:..\..\..\liblc3\src/spec.c **** 
 241:..\..\..\liblc3\src/spec.c ****     return 0;
 391              		.loc 1 241 0 is_stmt 1
 392 0106 0020     		movs	r0, #0
 393              	.LVL54:
 394 0108 00E0     		b	.L24
 395              	.LVL55:
 396              	.L31:
 397 010a 0020     		movs	r0, #0
 398              	.LVL56:
 399              	.L24:
 242:..\..\..\liblc3\src/spec.c **** }
 400              		.loc 1 242 0
 401 010c 16B0     		add	sp, sp, #88
 402              		@ sp needed
 403              	.LVL57:
 404              	.LVL58:
 405              	.LVL59:
 406 010e 04BC     		pop	{r2}
 407 0110 9046     		mov	r8, r2
 408 0112 F0BD     		pop	{r4, r5, r6, r7, pc}
 409              	.L35:
 410              		.align	2
 411              	.L34:
 412 0114 00000000 		.word	.LANCHOR0
 413 0118 07020000 		.word	519
 414              		.cfi_endproc
 415              	.LFE23:
 416              		.size	adjust_gain, .-adjust_gain
 417              		.global	__aeabi_fcmple
 418              		.section	.text.quantize,"ax",%progbits
 419              		.align	2
 420              		.code	16
 421              		.thumb_func
 422              		.type	quantize, %function
 423              	quantize:
 424              	.LFB24:
 243:..\..\..\liblc3\src/spec.c **** 
 244:..\..\..\liblc3\src/spec.c **** /**
 245:..\..\..\liblc3\src/spec.c ****  * Spectrum quantization
 246:..\..\..\liblc3\src/spec.c ****  * dt, sr          Duration and samplerate of the frame
 247:..\..\..\liblc3\src/spec.c ****  * g_int           Quantization gain value
 248:..\..\..\liblc3\src/spec.c ****  * x               Spectral coefficients, scaled as output
 249:..\..\..\liblc3\src/spec.c ****  * n               Return count of significants
 250:..\..\..\liblc3\src/spec.c ****  */
 251:..\..\..\liblc3\src/spec.c **** LC3_HOT static void quantize(
 252:..\..\..\liblc3\src/spec.c ****     enum lc3_dt dt, enum lc3_srate sr, int g_int, float *x, int *n)
 253:..\..\..\liblc3\src/spec.c **** {
 425              		.loc 1 253 0
 426              		.cfi_startproc
 427              		@ args = 4, pretend = 0, frame = 8
 428              		@ frame_needed = 0, uses_anonymous_args = 0
ARM GAS  C:\Users\rdn\AppData\Local\Temp\cciiQw7C.s 			page 13


 429              	.LVL60:
 430 0000 F0B5     		push	{r4, r5, r6, r7, lr}
 431              		.cfi_def_cfa_offset 20
 432              		.cfi_offset 4, -20
 433              		.cfi_offset 5, -16
 434              		.cfi_offset 6, -12
 435              		.cfi_offset 7, -8
 436              		.cfi_offset 14, -4
 437 0002 5F46     		mov	r7, fp
 438 0004 5646     		mov	r6, r10
 439 0006 4D46     		mov	r5, r9
 440 0008 4446     		mov	r4, r8
 441 000a F0B4     		push	{r4, r5, r6, r7}
 442              		.cfi_def_cfa_offset 36
 443              		.cfi_offset 8, -36
 444              		.cfi_offset 9, -32
 445              		.cfi_offset 10, -28
 446              		.cfi_offset 11, -24
 447 000c 83B0     		sub	sp, sp, #12
 448              		.cfi_def_cfa_offset 48
 449 000e 0400     		movs	r4, r0
 450 0010 8B46     		mov	fp, r1
 451 0012 9A46     		mov	r10, r3
 452 0014 0C9F     		ldr	r7, [sp, #48]
 254:..\..\..\liblc3\src/spec.c ****     float g_inv = unquantize_gain(-g_int);
 453              		.loc 1 254 0
 454 0016 5042     		rsbs	r0, r2, #0
 455              	.LVL61:
 456 0018 FFF7FEFF 		bl	unquantize_gain
 457              	.LVL62:
 458 001c 0090     		str	r0, [sp]
 459              	.LVL63:
 460              	.LBB103:
 461              	.LBB104:
 462              		.file 2 "..\\..\\..\\liblc3\\src\\tables.h"
   1:..\..\..\liblc3\src/tables.h **** /******************************************************************************
   2:..\..\..\liblc3\src/tables.h ****  *
   3:..\..\..\liblc3\src/tables.h ****  *  Copyright 2022 Google LLC
   4:..\..\..\liblc3\src/tables.h ****  *
   5:..\..\..\liblc3\src/tables.h ****  *  Licensed under the Apache License, Version 2.0 (the "License");
   6:..\..\..\liblc3\src/tables.h ****  *  you may not use this file except in compliance with the License.
   7:..\..\..\liblc3\src/tables.h ****  *  You may obtain a copy of the License at:
   8:..\..\..\liblc3\src/tables.h ****  *
   9:..\..\..\liblc3\src/tables.h ****  *  http://www.apache.org/licenses/LICENSE-2.0
  10:..\..\..\liblc3\src/tables.h ****  *
  11:..\..\..\liblc3\src/tables.h ****  *  Unless required by applicable law or agreed to in writing, software
  12:..\..\..\liblc3\src/tables.h ****  *  distributed under the License is distributed on an "AS IS" BASIS,
  13:..\..\..\liblc3\src/tables.h ****  *  WITHOUT WARRANTIES OR CONDITIONS OF ANY KIND, either express or implied.
  14:..\..\..\liblc3\src/tables.h ****  *  See the License for the specific language governing permissions and
  15:..\..\..\liblc3\src/tables.h ****  *  limitations under the License.
  16:..\..\..\liblc3\src/tables.h ****  *
  17:..\..\..\liblc3\src/tables.h ****  ******************************************************************************/
  18:..\..\..\liblc3\src/tables.h **** 
  19:..\..\..\liblc3\src/tables.h **** #ifndef __LC3_TABLES_H
  20:..\..\..\liblc3\src/tables.h **** #define __LC3_TABLES_H
  21:..\..\..\liblc3\src/tables.h **** 
  22:..\..\..\liblc3\src/tables.h **** #include "common.h"
ARM GAS  C:\Users\rdn\AppData\Local\Temp\cciiQw7C.s 			page 14


  23:..\..\..\liblc3\src/tables.h **** #include "bits.h"
  24:..\..\..\liblc3\src/tables.h **** 
  25:..\..\..\liblc3\src/tables.h **** 
  26:..\..\..\liblc3\src/tables.h **** /**
  27:..\..\..\liblc3\src/tables.h ****  * Characteristics
  28:..\..\..\liblc3\src/tables.h ****  *
  29:..\..\..\liblc3\src/tables.h ****  *   ns   Number of temporal samples / frequency coefficients within a frame
  30:..\..\..\liblc3\src/tables.h ****  *
  31:..\..\..\liblc3\src/tables.h ****  *   ne   Number of encoded frequency coefficients
  32:..\..\..\liblc3\src/tables.h ****  *
  33:..\..\..\liblc3\src/tables.h ****  *   nd   Number of MDCT delayed samples, sum of half a frame and an ovelap
  34:..\..\..\liblc3\src/tables.h ****  *        of future by 1.25 ms (2.5ms, 5ms and 10ms frame durations),
  35:..\..\..\liblc3\src/tables.h ****  *        or 2 ms (7.5ms frame duration).
  36:..\..\..\liblc3\src/tables.h ****  *
  37:..\..\..\liblc3\src/tables.h ****  *   nh   Number of 18 ms samples of the history buffer, aligned on a frame
  38:..\..\..\liblc3\src/tables.h ****  *
  39:..\..\..\liblc3\src/tables.h ****  *   nt   Number of 1.25 ms previous samples
  40:..\..\..\liblc3\src/tables.h ****  */
  41:..\..\..\liblc3\src/tables.h **** 
  42:..\..\..\liblc3\src/tables.h **** extern const int lc3_ns_2m5[LC3_NUM_SRATE];
  43:..\..\..\liblc3\src/tables.h **** extern const int lc3_ne_2m5[LC3_NUM_SRATE];
  44:..\..\..\liblc3\src/tables.h **** extern const int lc3_ns_4m [LC3_NUM_SRATE];
  45:..\..\..\liblc3\src/tables.h **** 
  46:..\..\..\liblc3\src/tables.h **** static inline int lc3_ns(enum lc3_dt dt, enum lc3_srate sr) {
  47:..\..\..\liblc3\src/tables.h ****     return lc3_ns_2m5[sr] * (1 + dt);
  48:..\..\..\liblc3\src/tables.h **** }
  49:..\..\..\liblc3\src/tables.h **** 
  50:..\..\..\liblc3\src/tables.h **** static inline int lc3_ne(enum lc3_dt dt, enum lc3_srate sr) {
  51:..\..\..\liblc3\src/tables.h ****     return lc3_ne_2m5[sr] * (1 + dt);
 463              		.loc 2 51 0
 464 001e 5B46     		mov	r3, fp
 465 0020 9A00     		lsls	r2, r3, #2
 466 0022 214B     		ldr	r3, .L44
 467 0024 D358     		ldr	r3, [r2, r3]
 468 0026 0134     		adds	r4, r4, #1
 469              	.LVL64:
 470 0028 5C43     		muls	r4, r3
 471 002a A146     		mov	r9, r4
 472              	.LVL65:
 473              	.LBE104:
 474              	.LBE103:
 255:..\..\..\liblc3\src/spec.c ****     int ne = lc3_ne(dt, sr);
 256:..\..\..\liblc3\src/spec.c **** 
 257:..\..\..\liblc3\src/spec.c ****     *n = ne;
 475              		.loc 1 257 0
 476 002c 3C60     		str	r4, [r7]
 477              	.LVL66:
 478              	.LBB105:
 258:..\..\..\liblc3\src/spec.c **** 
 259:..\..\..\liblc3\src/spec.c ****     for (int i = 0; i < ne; i += 2) {
 479              		.loc 1 259 0
 480 002e 0026     		movs	r6, #0
 481 0030 31E0     		b	.L37
 482              	.LVL67:
 483              	.L40:
 484              	.LBB106:
 260:..\..\..\liblc3\src/spec.c ****         float xq_min = lc3_hr(sr) ? 0.5f : 10.f/16;
ARM GAS  C:\Users\rdn\AppData\Local\Temp\cciiQw7C.s 			page 15


 485              		.loc 1 260 0
 486 0032 5B46     		mov	r3, fp
 487 0034 042B     		cmp	r3, #4
 488 0036 03D9     		bls	.L41
 489 0038 FC23     		movs	r3, #252
 490 003a 9B05     		lsls	r3, r3, #22
 491 003c 0193     		str	r3, [sp, #4]
 492 003e 01E0     		b	.L38
 493              	.L41:
 494 0040 1A4B     		ldr	r3, .L44+4
 495 0042 0193     		str	r3, [sp, #4]
 496              	.L38:
 497              	.LVL68:
 261:..\..\..\liblc3\src/spec.c **** 
 262:..\..\..\liblc3\src/spec.c ****         x[i+0] *= g_inv;
 498              		.loc 1 262 0 discriminator 4
 499 0044 B500     		lsls	r5, r6, #2
 500 0046 5544     		add	r5, r5, r10
 501 0048 0099     		ldr	r1, [sp]
 502 004a 2868     		ldr	r0, [r5]
 503 004c FFF7FEFF 		bl	__aeabi_fmul
 504              	.LVL69:
 505 0050 2860     		str	r0, [r5]
 263:..\..\..\liblc3\src/spec.c ****         x[i+1] *= g_inv;
 506              		.loc 1 263 0 discriminator 4
 507 0052 741C     		adds	r4, r6, #1
 508 0054 A400     		lsls	r4, r4, #2
 509 0056 5444     		add	r4, r4, r10
 510 0058 2168     		ldr	r1, [r4]
 511 005a 0098     		ldr	r0, [sp]
 512 005c FFF7FEFF 		bl	__aeabi_fmul
 513              	.LVL70:
 514 0060 8046     		mov	r8, r0
 515 0062 2060     		str	r0, [r4]
 264:..\..\..\liblc3\src/spec.c **** 
 265:..\..\..\liblc3\src/spec.c ****         *n = fabsf(x[i+0]) >= xq_min ||
 516              		.loc 1 265 0 discriminator 4
 517 0064 2968     		ldr	r1, [r5]
 518 0066 4900     		lsls	r1, r1, #1
 519 0068 4908     		lsrs	r1, r1, #1
 266:..\..\..\liblc3\src/spec.c ****              fabsf(x[i+1]) >= xq_min   ? ne : *n - 2;
 520              		.loc 1 266 0 discriminator 4
 521 006a 019C     		ldr	r4, [sp, #4]
 522 006c 201C     		adds	r0, r4, #0
 523 006e FFF7FEFF 		bl	__aeabi_fcmple
 524              	.LVL71:
 525 0072 0028     		cmp	r0, #0
 526 0074 0AD1     		bne	.L42
 527              		.loc 1 266 0 is_stmt 0 discriminator 1
 528 0076 4346     		mov	r3, r8
 529 0078 5900     		lsls	r1, r3, #1
 530 007a 4908     		lsrs	r1, r1, #1
 265:..\..\..\liblc3\src/spec.c ****              fabsf(x[i+1]) >= xq_min   ? ne : *n - 2;
 531              		.loc 1 265 0 is_stmt 1 discriminator 1
 532 007c 201C     		adds	r0, r4, #0
 533 007e FFF7FEFF 		bl	__aeabi_fcmple
 534              	.LVL72:
ARM GAS  C:\Users\rdn\AppData\Local\Temp\cciiQw7C.s 			page 16


 535 0082 0028     		cmp	r0, #0
 536 0084 04D1     		bne	.L43
 537              		.loc 1 266 0
 538 0086 3B68     		ldr	r3, [r7]
 539 0088 023B     		subs	r3, r3, #2
 540 008a 02E0     		b	.L39
 541              	.L42:
 542 008c 4B46     		mov	r3, r9
 543 008e 00E0     		b	.L39
 544              	.L43:
 545 0090 4B46     		mov	r3, r9
 546              	.L39:
 265:..\..\..\liblc3\src/spec.c ****              fabsf(x[i+1]) >= xq_min   ? ne : *n - 2;
 547              		.loc 1 265 0 discriminator 2
 548 0092 3B60     		str	r3, [r7]
 549              	.LBE106:
 259:..\..\..\liblc3\src/spec.c ****         float xq_min = lc3_hr(sr) ? 0.5f : 10.f/16;
 550              		.loc 1 259 0 discriminator 2
 551 0094 0236     		adds	r6, r6, #2
 552              	.LVL73:
 553              	.L37:
 259:..\..\..\liblc3\src/spec.c ****         float xq_min = lc3_hr(sr) ? 0.5f : 10.f/16;
 554              		.loc 1 259 0 is_stmt 0 discriminator 1
 555 0096 4E45     		cmp	r6, r9
 556 0098 CBDB     		blt	.L40
 557              	.LBE105:
 267:..\..\..\liblc3\src/spec.c ****     }
 268:..\..\..\liblc3\src/spec.c **** }
 558              		.loc 1 268 0 is_stmt 1
 559 009a 03B0     		add	sp, sp, #12
 560              	.LVL74:
 561              		@ sp needed
 562              	.LVL75:
 563              	.LVL76:
 564 009c 3CBC     		pop	{r2, r3, r4, r5}
 565 009e 9046     		mov	r8, r2
 566 00a0 9946     		mov	r9, r3
 567 00a2 A246     		mov	r10, r4
 568 00a4 AB46     		mov	fp, r5
 569 00a6 F0BD     		pop	{r4, r5, r6, r7, pc}
 570              	.L45:
 571              		.align	2
 572              	.L44:
 573 00a8 00000000 		.word	lc3_ne_2m5
 574 00ac 0000203F 		.word	1059061760
 575              		.cfi_endproc
 576              	.LFE24:
 577              		.size	quantize, .-quantize
 578              		.section	.text.unquantize,"ax",%progbits
 579              		.align	2
 580              		.code	16
 581              		.thumb_func
 582              		.type	unquantize, %function
 583              	unquantize:
 584              	.LFB25:
 269:..\..\..\liblc3\src/spec.c **** 
 270:..\..\..\liblc3\src/spec.c **** /**
ARM GAS  C:\Users\rdn\AppData\Local\Temp\cciiQw7C.s 			page 17


 271:..\..\..\liblc3\src/spec.c ****  * Spectrum quantization inverse
 272:..\..\..\liblc3\src/spec.c ****  * dt, sr          Duration and samplerate of the frame
 273:..\..\..\liblc3\src/spec.c ****  * g_int           Quantization gain value
 274:..\..\..\liblc3\src/spec.c ****  * x, nq           Spectral quantized, and count of significants
 275:..\..\..\liblc3\src/spec.c ****  * return          Unquantized gain value
 276:..\..\..\liblc3\src/spec.c ****  */
 277:..\..\..\liblc3\src/spec.c **** LC3_HOT static float unquantize(
 278:..\..\..\liblc3\src/spec.c ****     enum lc3_dt dt, enum lc3_srate sr,
 279:..\..\..\liblc3\src/spec.c ****     int g_int, float *x, int nq)
 280:..\..\..\liblc3\src/spec.c **** {
 585              		.loc 1 280 0
 586              		.cfi_startproc
 587              		@ args = 4, pretend = 0, frame = 8
 588              		@ frame_needed = 0, uses_anonymous_args = 0
 589              	.LVL77:
 590 0000 F0B5     		push	{r4, r5, r6, r7, lr}
 591              		.cfi_def_cfa_offset 20
 592              		.cfi_offset 4, -20
 593              		.cfi_offset 5, -16
 594              		.cfi_offset 6, -12
 595              		.cfi_offset 7, -8
 596              		.cfi_offset 14, -4
 597 0002 4F46     		mov	r7, r9
 598 0004 80B4     		push	{r7}
 599              		.cfi_def_cfa_offset 24
 600              		.cfi_offset 9, -24
 601 0006 82B0     		sub	sp, sp, #8
 602              		.cfi_def_cfa_offset 32
 603 0008 0400     		movs	r4, r0
 604 000a 0D00     		movs	r5, r1
 605 000c 1F00     		movs	r7, r3
 606 000e 089B     		ldr	r3, [sp, #32]
 607              	.LVL78:
 608 0010 9946     		mov	r9, r3
 281:..\..\..\liblc3\src/spec.c ****     float g = unquantize_gain(g_int);
 609              		.loc 1 281 0
 610 0012 1000     		movs	r0, r2
 611              	.LVL79:
 612 0014 FFF7FEFF 		bl	unquantize_gain
 613              	.LVL80:
 614 0018 0190     		str	r0, [sp, #4]
 615              	.LVL81:
 616              	.LBB107:
 617              	.LBB108:
 618              		.loc 2 51 0
 619 001a AD00     		lsls	r5, r5, #2
 620              	.LVL82:
 621 001c 0E4B     		ldr	r3, .L51
 622 001e EB58     		ldr	r3, [r5, r3]
 623 0020 0134     		adds	r4, r4, #1
 624              	.LVL83:
 625 0022 5C43     		muls	r4, r3
 626 0024 2600     		movs	r6, r4
 627              	.LVL84:
 628              	.LBE108:
 629              	.LBE107:
 282:..\..\..\liblc3\src/spec.c ****     int i, ne = lc3_ne(dt, sr);
ARM GAS  C:\Users\rdn\AppData\Local\Temp\cciiQw7C.s 			page 18


 283:..\..\..\liblc3\src/spec.c **** 
 284:..\..\..\liblc3\src/spec.c ****     for (i = 0; i < nq; i++)
 630              		.loc 1 284 0
 631 0026 0024     		movs	r4, #0
 632 0028 07E0     		b	.L47
 633              	.LVL85:
 634              	.L48:
 285:..\..\..\liblc3\src/spec.c ****         x[i] = x[i] * g;
 635              		.loc 1 285 0 discriminator 3
 636 002a A500     		lsls	r5, r4, #2
 637 002c 7D19     		adds	r5, r7, r5
 638 002e 2968     		ldr	r1, [r5]
 639 0030 0198     		ldr	r0, [sp, #4]
 640 0032 FFF7FEFF 		bl	__aeabi_fmul
 641              	.LVL86:
 642 0036 2860     		str	r0, [r5]
 284:..\..\..\liblc3\src/spec.c ****         x[i] = x[i] * g;
 643              		.loc 1 284 0 discriminator 3
 644 0038 0134     		adds	r4, r4, #1
 645              	.LVL87:
 646              	.L47:
 284:..\..\..\liblc3\src/spec.c ****         x[i] = x[i] * g;
 647              		.loc 1 284 0 is_stmt 0 discriminator 1
 648 003a 4C45     		cmp	r4, r9
 649 003c F5DB     		blt	.L48
 650 003e 03E0     		b	.L49
 651              	.L50:
 286:..\..\..\liblc3\src/spec.c **** 
 287:..\..\..\liblc3\src/spec.c ****     for ( ; i < ne; i++)
 288:..\..\..\liblc3\src/spec.c ****         x[i] = 0;
 652              		.loc 1 288 0 is_stmt 1 discriminator 2
 653 0040 A300     		lsls	r3, r4, #2
 654 0042 0022     		movs	r2, #0
 655 0044 FA50     		str	r2, [r7, r3]
 287:..\..\..\liblc3\src/spec.c ****         x[i] = 0;
 656              		.loc 1 287 0 discriminator 2
 657 0046 0134     		adds	r4, r4, #1
 658              	.LVL88:
 659              	.L49:
 287:..\..\..\liblc3\src/spec.c ****         x[i] = 0;
 660              		.loc 1 287 0 is_stmt 0 discriminator 1
 661 0048 B442     		cmp	r4, r6
 662 004a F9DB     		blt	.L50
 289:..\..\..\liblc3\src/spec.c **** 
 290:..\..\..\liblc3\src/spec.c ****     return g;
 291:..\..\..\liblc3\src/spec.c **** }
 663              		.loc 1 291 0 is_stmt 1
 664 004c 0198     		ldr	r0, [sp, #4]
 665 004e 02B0     		add	sp, sp, #8
 666              		@ sp needed
 667              	.LVL89:
 668              	.LVL90:
 669 0050 04BC     		pop	{r2}
 670 0052 9146     		mov	r9, r2
 671 0054 F0BD     		pop	{r4, r5, r6, r7, pc}
 672              	.L52:
 673 0056 C046     		.align	2
ARM GAS  C:\Users\rdn\AppData\Local\Temp\cciiQw7C.s 			page 19


 674              	.L51:
 675 0058 00000000 		.word	lc3_ne_2m5
 676              		.cfi_endproc
 677              	.LFE25:
 678              		.size	unquantize, .-unquantize
 679              		.section	.text.resolve_modes,"ax",%progbits
 680              		.align	2
 681              		.code	16
 682              		.thumb_func
 683              		.type	resolve_modes, %function
 684              	resolve_modes:
 685              	.LFB26:
 292:..\..\..\liblc3\src/spec.c **** 
 293:..\..\..\liblc3\src/spec.c **** 
 294:..\..\..\liblc3\src/spec.c **** /* ----------------------------------------------------------------------------
 295:..\..\..\liblc3\src/spec.c ****  *  Spectrum coding
 296:..\..\..\liblc3\src/spec.c ****  * -------------------------------------------------------------------------- */
 297:..\..\..\liblc3\src/spec.c **** 
 298:..\..\..\liblc3\src/spec.c **** /**
 299:..\..\..\liblc3\src/spec.c ****  * Resolve High-bitrate and LSB modes according size of the frame
 300:..\..\..\liblc3\src/spec.c ****  * sr, nbytes      Samplerate and size of the frame
 301:..\..\..\liblc3\src/spec.c ****  * p_lsb_mode      True when LSB mode allowed, when not NULL
 302:..\..\..\liblc3\src/spec.c ****  * return          True when High-Rate mode enabled
 303:..\..\..\liblc3\src/spec.c ****  */
 304:..\..\..\liblc3\src/spec.c **** static bool resolve_modes(enum lc3_srate sr, int nbytes, bool *p_lsb_mode)
 305:..\..\..\liblc3\src/spec.c **** {
 686              		.loc 1 305 0
 687              		.cfi_startproc
 688              		@ args = 0, pretend = 0, frame = 0
 689              		@ frame_needed = 0, uses_anonymous_args = 0
 690              	.LVL91:
 691 0000 30B5     		push	{r4, r5, lr}
 692              		.cfi_def_cfa_offset 12
 693              		.cfi_offset 4, -12
 694              		.cfi_offset 5, -8
 695              		.cfi_offset 14, -4
 306:..\..\..\liblc3\src/spec.c ****     int sr_ind = lc3_hr(sr) ? 4 + (sr - LC3_SRATE_48K_HR) : sr;
 696              		.loc 1 306 0
 697 0002 0428     		cmp	r0, #4
 698 0004 01D9     		bls	.L54
 699              		.loc 1 306 0 is_stmt 0 discriminator 1
 700 0006 431E     		subs	r3, r0, #1
 701 0008 00E0     		b	.L55
 702              	.L54:
 703              		.loc 1 306 0 discriminator 2
 704 000a 0300     		movs	r3, r0
 705              	.L55:
 706              	.LVL92:
 307:..\..\..\liblc3\src/spec.c **** 
 308:..\..\..\liblc3\src/spec.c ****     if (p_lsb_mode)
 707              		.loc 1 308 0 is_stmt 1 discriminator 4
 708 000c 002A     		cmp	r2, #0
 709 000e 0DD0     		beq	.L56
 309:..\..\..\liblc3\src/spec.c ****       *p_lsb_mode = (nbytes >= 20 * (3 + sr_ind)) && (sr < LC3_SRATE_96K_HR);
 710              		.loc 1 309 0
 711 0010 DC1C     		adds	r4, r3, #3
 712 0012 A500     		lsls	r5, r4, #2
ARM GAS  C:\Users\rdn\AppData\Local\Temp\cciiQw7C.s 			page 20


 713 0014 2C19     		adds	r4, r5, r4
 714 0016 A500     		lsls	r5, r4, #2
 715 0018 8D42     		cmp	r5, r1
 716 001a 03DC     		bgt	.L59
 717              		.loc 1 309 0 is_stmt 0 discriminator 1
 718 001c 0528     		cmp	r0, #5
 719 001e 03D9     		bls	.L60
 720              		.loc 1 309 0
 721 0020 0024     		movs	r4, #0
 722 0022 02E0     		b	.L57
 723              	.L59:
 724 0024 0024     		movs	r4, #0
 725 0026 00E0     		b	.L57
 726              	.L60:
 727 0028 0124     		movs	r4, #1
 728              	.L57:
 729              		.loc 1 309 0 discriminator 6
 730 002a 1470     		strb	r4, [r2]
 731              	.L56:
 310:..\..\..\liblc3\src/spec.c **** 
 311:..\..\..\liblc3\src/spec.c ****     return (nbytes > 20 * (1 + sr_ind)) && (sr < LC3_SRATE_96K_HR);
 732              		.loc 1 311 0 is_stmt 1
 733 002c 0133     		adds	r3, r3, #1
 734              	.LVL93:
 735 002e 9A00     		lsls	r2, r3, #2
 736              	.LVL94:
 737 0030 D318     		adds	r3, r2, r3
 738              	.LVL95:
 739 0032 9A00     		lsls	r2, r3, #2
 740 0034 9142     		cmp	r1, r2
 741 0036 03DD     		ble	.L61
 742              		.loc 1 311 0 is_stmt 0 discriminator 1
 743 0038 0528     		cmp	r0, #5
 744 003a 03D9     		bls	.L62
 745              		.loc 1 311 0
 746 003c 0020     		movs	r0, #0
 747              	.LVL96:
 748 003e 02E0     		b	.L58
 749              	.LVL97:
 750              	.L61:
 751 0040 0020     		movs	r0, #0
 752              	.LVL98:
 753 0042 00E0     		b	.L58
 754              	.LVL99:
 755              	.L62:
 756 0044 0120     		movs	r0, #1
 757              	.LVL100:
 758              	.L58:
 312:..\..\..\liblc3\src/spec.c **** }
 759              		.loc 1 312 0 is_stmt 1 discriminator 6
 760              		@ sp needed
 761 0046 30BD     		pop	{r4, r5, pc}
 762              		.cfi_endproc
 763              	.LFE26:
 764              		.size	resolve_modes, .-resolve_modes
 765              		.global	__aeabi_fadd
 766              		.global	__aeabi_f2uiz
ARM GAS  C:\Users\rdn\AppData\Local\Temp\cciiQw7C.s 			page 21


 767              		.section	.text.compute_nbits,"ax",%progbits
 768              		.align	2
 769              		.code	16
 770              		.thumb_func
 771              		.type	compute_nbits, %function
 772              	compute_nbits:
 773              	.LFB27:
 313:..\..\..\liblc3\src/spec.c **** 
 314:..\..\..\liblc3\src/spec.c **** /**
 315:..\..\..\liblc3\src/spec.c ****  * Bit consumption
 316:..\..\..\liblc3\src/spec.c ****  * dt, sr, nbytes  Duration, samplerate and size of the frame
 317:..\..\..\liblc3\src/spec.c ****  * x               Spectral quantized coefficients
 318:..\..\..\liblc3\src/spec.c ****  * n               Count of significant coefficients, updated on truncation
 319:..\..\..\liblc3\src/spec.c ****  * nbits_budget    Truncate to stay in budget, when not zero
 320:..\..\..\liblc3\src/spec.c ****  * p_lsb_mode      Return True when LSB's are not AC coded, or NULL
 321:..\..\..\liblc3\src/spec.c ****  * return          The number of bits coding the spectrum
 322:..\..\..\liblc3\src/spec.c ****  */
 323:..\..\..\liblc3\src/spec.c **** LC3_HOT static int compute_nbits(
 324:..\..\..\liblc3\src/spec.c ****     enum lc3_dt dt, enum lc3_srate sr, int nbytes,
 325:..\..\..\liblc3\src/spec.c ****     const float *x, int *n, int nbits_budget, bool *p_lsb_mode)
 326:..\..\..\liblc3\src/spec.c **** {
 774              		.loc 1 326 0
 775              		.cfi_startproc
 776              		@ args = 12, pretend = 0, frame = 64
 777              		@ frame_needed = 0, uses_anonymous_args = 0
 778              	.LVL101:
 779 0000 F0B5     		push	{r4, r5, r6, r7, lr}
 780              		.cfi_def_cfa_offset 20
 781              		.cfi_offset 4, -20
 782              		.cfi_offset 5, -16
 783              		.cfi_offset 6, -12
 784              		.cfi_offset 7, -8
 785              		.cfi_offset 14, -4
 786 0002 5F46     		mov	r7, fp
 787 0004 5646     		mov	r6, r10
 788 0006 4D46     		mov	r5, r9
 789 0008 4446     		mov	r4, r8
 790 000a F0B4     		push	{r4, r5, r6, r7}
 791              		.cfi_def_cfa_offset 36
 792              		.cfi_offset 8, -36
 793              		.cfi_offset 9, -32
 794              		.cfi_offset 10, -28
 795              		.cfi_offset 11, -24
 796 000c 91B0     		sub	sp, sp, #68
 797              		.cfi_def_cfa_offset 104
 798 000e 0400     		movs	r4, r0
 799 0010 0D00     		movs	r5, r1
 800 0012 0791     		str	r1, [sp, #28]
 801 0014 1100     		movs	r1, r2
 802              	.LVL102:
 803 0016 9846     		mov	r8, r3
 804 0018 1A9B     		ldr	r3, [sp, #104]
 805              	.LVL103:
 806 001a 9B46     		mov	fp, r3
 327:..\..\..\liblc3\src/spec.c ****     bool lsb_mode, high_rate = resolve_modes(sr, nbytes, &lsb_mode);
 807              		.loc 1 327 0
 808 001c 0EAB     		add	r3, sp, #56
ARM GAS  C:\Users\rdn\AppData\Local\Temp\cciiQw7C.s 			page 22


 809 001e DA1D     		adds	r2, r3, #7
 810              	.LVL104:
 811 0020 2800     		movs	r0, r5
 812              	.LVL105:
 813 0022 FFF7FEFF 		bl	resolve_modes
 814              	.LVL106:
 815 0026 0D90     		str	r0, [sp, #52]
 816              	.LVL107:
 817              	.LBB109:
 818              	.LBB110:
 819              		.loc 2 51 0
 820 0028 AA00     		lsls	r2, r5, #2
 821 002a 8B4B     		ldr	r3, .L92
 822 002c D358     		ldr	r3, [r2, r3]
 823 002e 0134     		adds	r4, r4, #1
 824              	.LVL108:
 825 0030 5C43     		muls	r4, r3
 826 0032 0594     		str	r4, [sp, #20]
 827              	.LVL109:
 828              	.LBE110:
 829              	.LBE109:
 328:..\..\..\liblc3\src/spec.c ****     int ne = lc3_ne(dt, sr);
 329:..\..\..\liblc3\src/spec.c **** 
 330:..\..\..\liblc3\src/spec.c ****     /* --- Loop on quantized coefficients --- */
 331:..\..\..\liblc3\src/spec.c **** 
 332:..\..\..\liblc3\src/spec.c ****     int nbits = 0, nbits_lsb = 0;
 333:..\..\..\liblc3\src/spec.c ****     uint8_t state = 0;
 334:..\..\..\liblc3\src/spec.c **** 
 335:..\..\..\liblc3\src/spec.c ****     int nbits_end = 0;
 336:..\..\..\liblc3\src/spec.c ****     int n_end = 0;
 337:..\..\..\liblc3\src/spec.c **** 
 338:..\..\..\liblc3\src/spec.c ****     nbits_budget = nbits_budget ? nbits_budget * 2048 : INT_MAX;
 830              		.loc 1 338 0
 831 0034 1B9B     		ldr	r3, [sp, #108]
 832 0036 002B     		cmp	r3, #0
 833 0038 02D0     		beq	.L85
 834              		.loc 1 338 0 is_stmt 0 discriminator 1
 835 003a DB02     		lsls	r3, r3, #11
 836 003c 0393     		str	r3, [sp, #12]
 837 003e 01E0     		b	.L64
 838              	.L85:
 839              		.loc 1 338 0
 840 0040 864B     		ldr	r3, .L92+4
 841 0042 0393     		str	r3, [sp, #12]
 842              	.L64:
 843              	.LVL110:
 844              	.LBB111:
 339:..\..\..\liblc3\src/spec.c **** 
 340:..\..\..\liblc3\src/spec.c ****     for (int i = 0, h = 0; h < 2; h++) {
 845              		.loc 1 340 0 is_stmt 1 discriminator 4
 846 0044 0023     		movs	r3, #0
 847 0046 0493     		str	r3, [sp, #16]
 848 0048 0026     		movs	r6, #0
 849              	.LBE111:
 336:..\..\..\liblc3\src/spec.c **** 
 850              		.loc 1 336 0 discriminator 4
 851 004a 0C93     		str	r3, [sp, #48]
ARM GAS  C:\Users\rdn\AppData\Local\Temp\cciiQw7C.s 			page 23


 335:..\..\..\liblc3\src/spec.c ****     int n_end = 0;
 852              		.loc 1 335 0 discriminator 4
 853 004c 0B93     		str	r3, [sp, #44]
 333:..\..\..\liblc3\src/spec.c **** 
 854              		.loc 1 333 0 discriminator 4
 855 004e 1900     		movs	r1, r3
 332:..\..\..\liblc3\src/spec.c ****     uint8_t state = 0;
 856              		.loc 1 332 0 discriminator 4
 857 0050 0A93     		str	r3, [sp, #40]
 858 0052 9946     		mov	r9, r3
 859 0054 4346     		mov	r3, r8
 860 0056 0893     		str	r3, [sp, #32]
 861              	.LBB114:
 862              		.loc 1 340 0 discriminator 4
 863 0058 C5E0     		b	.L65
 864              	.LVL111:
 865              	.L81:
 866              	.LBB112:
 341:..\..\..\liblc3\src/spec.c ****         const uint8_t (*lut_coeff)[4] = lc3_spectrum_lookup[high_rate][h];
 867              		.loc 1 341 0
 868 005a 0D9B     		ldr	r3, [sp, #52]
 869              	.LVL112:
 870 005c 5B00     		lsls	r3, r3, #1
 871 005e 049A     		ldr	r2, [sp, #16]
 872 0060 9446     		mov	ip, r2
 873 0062 6344     		add	r3, r3, ip
 874 0064 9B02     		lsls	r3, r3, #10
 875 0066 7E4A     		ldr	r2, .L92+8
 876 0068 9B18     		adds	r3, r3, r2
 877 006a 0693     		str	r3, [sp, #24]
 878              	.LVL113:
 879 006c 8A46     		mov	r10, r1
 342:..\..\..\liblc3\src/spec.c **** 
 343:..\..\..\liblc3\src/spec.c ****         for ( ; i < LC3_MIN(*n, (ne + 2) >> (1 - h))
 880              		.loc 1 343 0
 881 006e A5E0     		b	.L66
 882              	.LVL114:
 883              	.L80:
 884              	.LBB113:
 344:..\..\..\liblc3\src/spec.c ****                 && nbits <= nbits_budget; i += 2) {
 345:..\..\..\liblc3\src/spec.c **** 
 346:..\..\..\liblc3\src/spec.c ****             float xq_off = lc3_hr(sr) ? 0.5f : 6.f/16;
 885              		.loc 1 346 0
 886 0070 079B     		ldr	r3, [sp, #28]
 887 0072 042B     		cmp	r3, #4
 888 0074 02D9     		bls	.L86
 889 0076 FC25     		movs	r5, #252
 890 0078 AD05     		lsls	r5, r5, #22
 891 007a 01E0     		b	.L67
 892              	.L86:
 893 007c FB25     		movs	r5, #251
 894 007e AD05     		lsls	r5, r5, #22
 895              	.L67:
 896              	.LVL115:
 347:..\..\..\liblc3\src/spec.c ****             uint32_t a = fabsf(x[i+0]) + xq_off;
 897              		.loc 1 347 0 discriminator 4
 898 0080 B300     		lsls	r3, r6, #2
ARM GAS  C:\Users\rdn\AppData\Local\Temp\cciiQw7C.s 			page 24


 899 0082 089F     		ldr	r7, [sp, #32]
 900 0084 F958     		ldr	r1, [r7, r3]
 901 0086 4900     		lsls	r1, r1, #1
 902 0088 4908     		lsrs	r1, r1, #1
 903 008a 281C     		adds	r0, r5, #0
 904 008c FFF7FEFF 		bl	__aeabi_fadd
 905              	.LVL116:
 906 0090 FFF7FEFF 		bl	__aeabi_f2uiz
 907              	.LVL117:
 908 0094 0400     		movs	r4, r0
 909 0096 0190     		str	r0, [sp, #4]
 910              	.LVL118:
 348:..\..\..\liblc3\src/spec.c ****             uint32_t b = fabsf(x[i+1]) + xq_off;
 911              		.loc 1 348 0 discriminator 4
 912 0098 731C     		adds	r3, r6, #1
 913 009a 9B00     		lsls	r3, r3, #2
 914 009c F958     		ldr	r1, [r7, r3]
 915 009e 4900     		lsls	r1, r1, #1
 916 00a0 4908     		lsrs	r1, r1, #1
 917 00a2 281C     		adds	r0, r5, #0
 918              	.LVL119:
 919 00a4 FFF7FEFF 		bl	__aeabi_fadd
 920              	.LVL120:
 921 00a8 FFF7FEFF 		bl	__aeabi_f2uiz
 922              	.LVL121:
 349:..\..\..\liblc3\src/spec.c **** 
 350:..\..\..\liblc3\src/spec.c ****             const uint8_t *lut = lut_coeff[state];
 923              		.loc 1 350 0 discriminator 4
 924 00ac 5346     		mov	r3, r10
 925 00ae 9900     		lsls	r1, r3, #2
 926 00b0 069B     		ldr	r3, [sp, #24]
 927 00b2 9C46     		mov	ip, r3
 928 00b4 6144     		add	r1, r1, ip
 929              	.LVL122:
 351:..\..\..\liblc3\src/spec.c **** 
 352:..\..\..\liblc3\src/spec.c ****             /* --- Sign values --- */
 353:..\..\..\liblc3\src/spec.c **** 
 354:..\..\..\liblc3\src/spec.c ****             int s = (a != 0) + (b != 0);
 930              		.loc 1 354 0 discriminator 4
 931 00b6 2500     		movs	r5, r4
 932              	.LVL123:
 933 00b8 6B1E     		subs	r3, r5, #1
 934 00ba 9D41     		sbcs	r5, r5, r3
 935 00bc 0300     		movs	r3, r0
 936 00be 5A1E     		subs	r2, r3, #1
 937 00c0 9341     		sbcs	r3, r3, r2
 938 00c2 EB18     		adds	r3, r5, r3
 939 00c4 0293     		str	r3, [sp, #8]
 940              	.LVL124:
 355:..\..\..\liblc3\src/spec.c ****             nbits += s * 2048;
 941              		.loc 1 355 0 discriminator 4
 942 00c6 DA02     		lsls	r2, r3, #11
 943 00c8 4A44     		add	r2, r2, r9
 944              	.LVL125:
 356:..\..\..\liblc3\src/spec.c **** 
 357:..\..\..\liblc3\src/spec.c ****             /* --- LSB values Reduce to 2*2 bits MSB values ---
 358:..\..\..\liblc3\src/spec.c ****              * Reduce to 2x2 bits MSB values. The LSB's pair are arithmetic
ARM GAS  C:\Users\rdn\AppData\Local\Temp\cciiQw7C.s 			page 25


 359:..\..\..\liblc3\src/spec.c ****              * coded with an escape code followed by 1 bit for each values.
 360:..\..\..\liblc3\src/spec.c ****              * The LSB mode does not arthmetic code the first LSB,
 361:..\..\..\liblc3\src/spec.c ****              * add the sign of the LSB when one of pair was at value 1 */
 362:..\..\..\liblc3\src/spec.c **** 
 363:..\..\..\liblc3\src/spec.c ****             uint32_t m = (a | b) >> 2;
 945              		.loc 1 363 0 discriminator 4
 946 00ca 2300     		movs	r3, r4
 947              	.LVL126:
 948 00cc 0343     		orrs	r3, r0
 949 00ce 9B08     		lsrs	r3, r3, #2
 950              	.LVL127:
 364:..\..\..\liblc3\src/spec.c ****             unsigned k = 0;
 365:..\..\..\liblc3\src/spec.c **** 
 366:..\..\..\liblc3\src/spec.c ****             if (m) {
 951              		.loc 1 366 0 discriminator 4
 952 00d0 43D0     		beq	.L87
 367:..\..\..\liblc3\src/spec.c **** 
 368:..\..\..\liblc3\src/spec.c ****                 if (lsb_mode) {
 953              		.loc 1 368 0
 954 00d2 0EAD     		add	r5, sp, #56
 955 00d4 0735     		adds	r5, r5, #7
 956 00d6 2D78     		ldrb	r5, [r5]
 957 00d8 0995     		str	r5, [sp, #36]
 958 00da 002D     		cmp	r5, #0
 959 00dc 1CD0     		beq	.L88
 960              	.LVL128:
 369:..\..\..\liblc3\src/spec.c ****                     nbits += lc3_spectrum_bits[lut[k++]][16] - 2*2048;
 961              		.loc 1 369 0
 962 00de 0F78     		ldrb	r7, [r1]
 963 00e0 3D01     		lsls	r5, r7, #4
 964 00e2 A946     		mov	r9, r5
 965 00e4 4F44     		add	r7, r7, r9
 966 00e6 7F00     		lsls	r7, r7, #1
 967 00e8 5E4D     		ldr	r5, .L92+12
 968 00ea A846     		mov	r8, r5
 969 00ec 4744     		add	r7, r7, r8
 970 00ee 3F8C     		ldrh	r7, [r7, #32]
 971 00f0 5D4D     		ldr	r5, .L92+16
 972 00f2 AC46     		mov	ip, r5
 973 00f4 6744     		add	r7, r7, ip
 974 00f6 D219     		adds	r2, r2, r7
 975              	.LVL129:
 370:..\..\..\liblc3\src/spec.c ****                     nbits_lsb += 2 + (a == 1) + (b == 1);
 976              		.loc 1 370 0
 977 00f8 012C     		cmp	r4, #1
 978 00fa 01D1     		bne	.L89
 979 00fc 0234     		adds	r4, r4, #2
 980              	.LVL130:
 981 00fe 00E0     		b	.L70
 982              	.LVL131:
 983              	.L89:
 984 0100 0224     		movs	r4, #2
 985              	.LVL132:
 986              	.L70:
 987              		.loc 1 370 0 is_stmt 0 discriminator 4
 988 0102 471E     		subs	r7, r0, #1
 989 0104 7D42     		rsbs	r5, r7, #0
ARM GAS  C:\Users\rdn\AppData\Local\Temp\cciiQw7C.s 			page 26


 990 0106 7D41     		adcs	r5, r5, r7
 991 0108 6719     		adds	r7, r4, r5
 992 010a 0A9C     		ldr	r4, [sp, #40]
 993 010c A446     		mov	ip, r4
 994 010e BC44     		add	ip, ip, r7
 995 0110 6446     		mov	r4, ip
 996 0112 0A94     		str	r4, [sp, #40]
 997              	.LVL133:
 369:..\..\..\liblc3\src/spec.c ****                     nbits += lc3_spectrum_bits[lut[k++]][16] - 2*2048;
 998              		.loc 1 369 0 is_stmt 1 discriminator 4
 999 0114 0127     		movs	r7, #1
 1000 0116 00E0     		b	.L69
 1001              	.LVL134:
 1002              	.L88:
 364:..\..\..\liblc3\src/spec.c **** 
 1003              		.loc 1 364 0
 1004 0118 0027     		movs	r7, #0
 1005              	.LVL135:
 1006              	.L69:
 371:..\..\..\liblc3\src/spec.c ****                 }
 372:..\..\..\liblc3\src/spec.c **** 
 373:..\..\..\liblc3\src/spec.c ****                 for (m >>= lsb_mode; m; m >>= 1, k++)
 1007              		.loc 1 373 0
 1008 011a 099C     		ldr	r4, [sp, #36]
 1009 011c E340     		lsrs	r3, r3, r4
 1010              	.LVL136:
 1011 011e 1D00     		movs	r5, r3
 1012              	.LVL137:
 1013 0120 0DE0     		b	.L71
 1014              	.LVL138:
 1015              	.L73:
 374:..\..\..\liblc3\src/spec.c ****                     nbits += lc3_spectrum_bits[lut[LC3_MIN(k, 3)]][16];
 1016              		.loc 1 374 0 discriminator 3
 1017 0122 3B00     		movs	r3, r7
 1018 0124 032F     		cmp	r7, #3
 1019 0126 00D9     		bls	.L72
 1020              	.LVL139:
 1021 0128 0323     		movs	r3, #3
 1022              	.LVL140:
 1023              	.L72:
 1024 012a CB5C     		ldrb	r3, [r1, r3]
 1025 012c 1C01     		lsls	r4, r3, #4
 1026 012e E318     		adds	r3, r4, r3
 1027 0130 5C00     		lsls	r4, r3, #1
 1028 0132 4C4B     		ldr	r3, .L92+12
 1029 0134 1C19     		adds	r4, r3, r4
 1030 0136 238C     		ldrh	r3, [r4, #32]
 1031 0138 D218     		adds	r2, r2, r3
 1032              	.LVL141:
 373:..\..\..\liblc3\src/spec.c ****                     nbits += lc3_spectrum_bits[lut[LC3_MIN(k, 3)]][16];
 1033              		.loc 1 373 0 discriminator 3
 1034 013a 6D08     		lsrs	r5, r5, #1
 1035              	.LVL142:
 1036 013c 0137     		adds	r7, r7, #1
 1037              	.LVL143:
 1038              	.L71:
 373:..\..\..\liblc3\src/spec.c ****                     nbits += lc3_spectrum_bits[lut[LC3_MIN(k, 3)]][16];
ARM GAS  C:\Users\rdn\AppData\Local\Temp\cciiQw7C.s 			page 27


 1039              		.loc 1 373 0 is_stmt 0 discriminator 1
 1040 013e 002D     		cmp	r5, #0
 1041 0140 EFD1     		bne	.L73
 375:..\..\..\liblc3\src/spec.c **** 
 376:..\..\..\liblc3\src/spec.c ****                 nbits += k * 2*2048;
 1042              		.loc 1 376 0 is_stmt 1
 1043 0142 3B03     		lsls	r3, r7, #12
 1044 0144 D218     		adds	r2, r2, r3
 1045              	.LVL144:
 377:..\..\..\liblc3\src/spec.c ****                 a >>= k;
 1046              		.loc 1 377 0
 1047 0146 019B     		ldr	r3, [sp, #4]
 1048 0148 FB40     		lsrs	r3, r3, r7
 1049 014a 0193     		str	r3, [sp, #4]
 1050              	.LVL145:
 378:..\..\..\liblc3\src/spec.c ****                 b >>= k;
 1051              		.loc 1 378 0
 1052 014c F840     		lsrs	r0, r0, r7
 1053              	.LVL146:
 379:..\..\..\liblc3\src/spec.c **** 
 380:..\..\..\liblc3\src/spec.c ****                 k = LC3_MIN(k, 3);
 1054              		.loc 1 380 0
 1055 014e B846     		mov	r8, r7
 1056 0150 032F     		cmp	r7, #3
 1057 0152 04D9     		bls	.L68
 1058 0154 0323     		movs	r3, #3
 1059              	.LVL147:
 1060 0156 9846     		mov	r8, r3
 1061              	.LVL148:
 1062 0158 01E0     		b	.L68
 1063              	.LVL149:
 1064              	.L87:
 364:..\..\..\liblc3\src/spec.c **** 
 1065              		.loc 1 364 0
 1066 015a 0023     		movs	r3, #0
 1067              	.LVL150:
 1068 015c 9846     		mov	r8, r3
 1069              	.LVL151:
 1070              	.L68:
 381:..\..\..\liblc3\src/spec.c ****             }
 382:..\..\..\liblc3\src/spec.c **** 
 383:..\..\..\liblc3\src/spec.c ****             /* --- MSB values --- */
 384:..\..\..\liblc3\src/spec.c **** 
 385:..\..\..\liblc3\src/spec.c ****             nbits += lc3_spectrum_bits[lut[k]][a + 4*b];
 1071              		.loc 1 385 0
 1072 015e 4346     		mov	r3, r8
 1073 0160 C95C     		ldrb	r1, [r1, r3]
 1074              	.LVL152:
 1075 0162 8300     		lsls	r3, r0, #2
 1076 0164 019C     		ldr	r4, [sp, #4]
 1077 0166 A446     		mov	ip, r4
 1078 0168 6344     		add	r3, r3, ip
 1079 016a 0C01     		lsls	r4, r1, #4
 1080 016c A446     		mov	ip, r4
 1081 016e 6144     		add	r1, r1, ip
 1082 0170 CB18     		adds	r3, r1, r3
 1083 0172 5B00     		lsls	r3, r3, #1
ARM GAS  C:\Users\rdn\AppData\Local\Temp\cciiQw7C.s 			page 28


 1084 0174 3B49     		ldr	r1, .L92+12
 1085 0176 5B5A     		ldrh	r3, [r3, r1]
 1086 0178 9946     		mov	r9, r3
 1087 017a 9144     		add	r9, r9, r2
 1088              	.LVL153:
 386:..\..\..\liblc3\src/spec.c **** 
 387:..\..\..\liblc3\src/spec.c ****             /* --- Update state --- */
 388:..\..\..\liblc3\src/spec.c **** 
 389:..\..\..\liblc3\src/spec.c ****             if (s && nbits <= nbits_budget) {
 1089              		.loc 1 389 0
 1090 017c 029B     		ldr	r3, [sp, #8]
 1091 017e 002B     		cmp	r3, #0
 1092 0180 06D0     		beq	.L75
 1093              		.loc 1 389 0 is_stmt 0 discriminator 1
 1094 0182 039B     		ldr	r3, [sp, #12]
 1095 0184 4B45     		cmp	r3, r9
 1096 0186 03DB     		blt	.L75
 390:..\..\..\liblc3\src/spec.c ****                 n_end = i + 2;
 1097              		.loc 1 390 0 is_stmt 1
 1098 0188 B31C     		adds	r3, r6, #2
 1099 018a 0C93     		str	r3, [sp, #48]
 1100              	.LVL154:
 391:..\..\..\liblc3\src/spec.c ****                 nbits_end = nbits;
 1101              		.loc 1 391 0
 1102 018c 4B46     		mov	r3, r9
 1103              	.LVL155:
 1104 018e 0B93     		str	r3, [sp, #44]
 1105              	.LVL156:
 1106              	.L75:
 392:..\..\..\liblc3\src/spec.c ****             }
 393:..\..\..\liblc3\src/spec.c **** 
 394:..\..\..\liblc3\src/spec.c ****             state = (state << 4) + (k > 1 ? 12 + k : 1 + (a + b) * (k + 1));
 1107              		.loc 1 394 0
 1108 0190 5346     		mov	r3, r10
 1109 0192 1A01     		lsls	r2, r3, #4
 1110 0194 D2B2     		uxtb	r2, r2
 1111 0196 4346     		mov	r3, r8
 1112 0198 012B     		cmp	r3, #1
 1113 019a 03D9     		bls	.L76
 1114              	.LVL157:
 1115              		.loc 1 394 0 is_stmt 0 discriminator 1
 1116 019c 4046     		mov	r0, r8
 1117              	.LVL158:
 1118 019e 0C30     		adds	r0, r0, #12
 1119 01a0 C3B2     		uxtb	r3, r0
 1120              	.LVL159:
 1121 01a2 07E0     		b	.L77
 1122              	.LVL160:
 1123              	.L76:
 1124              		.loc 1 394 0 discriminator 2
 1125 01a4 019B     		ldr	r3, [sp, #4]
 1126              	.LVL161:
 1127 01a6 9C46     		mov	ip, r3
 1128 01a8 6044     		add	r0, r0, ip
 1129              	.LVL162:
 1130 01aa 4346     		mov	r3, r8
 1131 01ac 0133     		adds	r3, r3, #1
ARM GAS  C:\Users\rdn\AppData\Local\Temp\cciiQw7C.s 			page 29


 1132 01ae 5843     		muls	r0, r3
 1133 01b0 0130     		adds	r0, r0, #1
 1134 01b2 C3B2     		uxtb	r3, r0
 1135              	.L77:
 1136              		.loc 1 394 0 discriminator 4
 1137 01b4 9B18     		adds	r3, r3, r2
 1138 01b6 DBB2     		uxtb	r3, r3
 1139 01b8 9A46     		mov	r10, r3
 1140              	.LVL163:
 1141              	.LBE113:
 344:..\..\..\liblc3\src/spec.c **** 
 1142              		.loc 1 344 0 is_stmt 1 discriminator 4
 1143 01ba 0236     		adds	r6, r6, #2
 1144              	.LVL164:
 1145              	.L66:
 343:..\..\..\liblc3\src/spec.c ****                 && nbits <= nbits_budget; i += 2) {
 1146              		.loc 1 343 0
 1147 01bc 059B     		ldr	r3, [sp, #20]
 1148 01be 0233     		adds	r3, r3, #2
 1149 01c0 0122     		movs	r2, #1
 1150 01c2 0499     		ldr	r1, [sp, #16]
 1151 01c4 521A     		subs	r2, r2, r1
 1152 01c6 5946     		mov	r1, fp
 1153 01c8 0968     		ldr	r1, [r1]
 1154 01ca 1341     		asrs	r3, r3, r2
 1155 01cc 8B42     		cmp	r3, r1
 1156 01ce 00DD     		ble	.L78
 1157 01d0 0B00     		movs	r3, r1
 1158              	.L78:
 1159 01d2 9E42     		cmp	r6, r3
 1160 01d4 03DA     		bge	.L79
 344:..\..\..\liblc3\src/spec.c **** 
 1161              		.loc 1 344 0
 1162 01d6 039B     		ldr	r3, [sp, #12]
 1163 01d8 9945     		cmp	r9, r3
 1164 01da 00DC     		bgt	.LCB1322
 1165 01dc 48E7     		b	.L80	@long jump
 1166              	.LCB1322:
 1167              	.L79:
 1168 01de 5146     		mov	r1, r10
 1169              	.LBE112:
 340:..\..\..\liblc3\src/spec.c ****         const uint8_t (*lut_coeff)[4] = lc3_spectrum_lookup[high_rate][h];
 1170              		.loc 1 340 0 discriminator 2
 1171 01e0 049B     		ldr	r3, [sp, #16]
 1172 01e2 0133     		adds	r3, r3, #1
 1173 01e4 0493     		str	r3, [sp, #16]
 1174              	.LVL165:
 1175              	.L65:
 340:..\..\..\liblc3\src/spec.c ****         const uint8_t (*lut_coeff)[4] = lc3_spectrum_lookup[high_rate][h];
 1176              		.loc 1 340 0 is_stmt 0 discriminator 1
 1177 01e6 049B     		ldr	r3, [sp, #16]
 1178 01e8 012B     		cmp	r3, #1
 1179 01ea 00DC     		bgt	.LCB1350
 1180 01ec 35E7     		b	.L81	@long jump
 1181              	.LCB1350:
 1182              	.LBE114:
 395:..\..\..\liblc3\src/spec.c ****         }
ARM GAS  C:\Users\rdn\AppData\Local\Temp\cciiQw7C.s 			page 30


 396:..\..\..\liblc3\src/spec.c ****     }
 397:..\..\..\liblc3\src/spec.c **** 
 398:..\..\..\liblc3\src/spec.c ****     /* --- Return --- */
 399:..\..\..\liblc3\src/spec.c **** 
 400:..\..\..\liblc3\src/spec.c ****     *n = n_end;
 1183              		.loc 1 400 0 is_stmt 1
 1184 01ee 5B46     		mov	r3, fp
 1185 01f0 0C9A     		ldr	r2, [sp, #48]
 1186 01f2 1A60     		str	r2, [r3]
 401:..\..\..\liblc3\src/spec.c **** 
 402:..\..\..\liblc3\src/spec.c ****     if (p_lsb_mode)
 1187              		.loc 1 402 0
 1188 01f4 1C9B     		ldr	r3, [sp, #112]
 1189 01f6 002B     		cmp	r3, #0
 1190 01f8 13D0     		beq	.L82
 403:..\..\..\liblc3\src/spec.c ****         *p_lsb_mode = lsb_mode &&
 1191              		.loc 1 403 0
 1192 01fa 0EAB     		add	r3, sp, #56
 1193 01fc 0733     		adds	r3, r3, #7
 1194 01fe 1B78     		ldrb	r3, [r3]
 1195 0200 002B     		cmp	r3, #0
 1196 0202 09D0     		beq	.L90
 404:..\..\..\liblc3\src/spec.c ****             nbits_end + nbits_lsb * 2048 > nbits_budget;
 1197              		.loc 1 404 0 discriminator 1
 1198 0204 0A9B     		ldr	r3, [sp, #40]
 1199 0206 DB02     		lsls	r3, r3, #11
 1200 0208 0B9A     		ldr	r2, [sp, #44]
 1201 020a 9446     		mov	ip, r2
 1202 020c 6344     		add	r3, r3, ip
 403:..\..\..\liblc3\src/spec.c ****         *p_lsb_mode = lsb_mode &&
 1203              		.loc 1 403 0 discriminator 1
 1204 020e 039A     		ldr	r2, [sp, #12]
 1205 0210 9A42     		cmp	r2, r3
 1206 0212 03DB     		blt	.L91
 403:..\..\..\liblc3\src/spec.c ****         *p_lsb_mode = lsb_mode &&
 1207              		.loc 1 403 0 is_stmt 0
 1208 0214 0023     		movs	r3, #0
 1209 0216 02E0     		b	.L83
 1210              	.LVL166:
 1211              	.L90:
 1212 0218 0023     		movs	r3, #0
 1213 021a 00E0     		b	.L83
 1214              	.LVL167:
 1215              	.L91:
 1216 021c 0123     		movs	r3, #1
 1217              	.LVL168:
 1218              	.L83:
 403:..\..\..\liblc3\src/spec.c ****         *p_lsb_mode = lsb_mode &&
 1219              		.loc 1 403 0 discriminator 6
 1220 021e 1C9A     		ldr	r2, [sp, #112]
 1221 0220 1370     		strb	r3, [r2]
 1222              	.L82:
 405:..\..\..\liblc3\src/spec.c **** 
 406:..\..\..\liblc3\src/spec.c ****     if (nbits_budget >= INT_MAX)
 1223              		.loc 1 406 0 is_stmt 1
 1224 0222 0E4B     		ldr	r3, .L92+4
 1225 0224 039A     		ldr	r2, [sp, #12]
ARM GAS  C:\Users\rdn\AppData\Local\Temp\cciiQw7C.s 			page 31


 1226 0226 9A42     		cmp	r2, r3
 1227 0228 06D1     		bne	.L84
 407:..\..\..\liblc3\src/spec.c ****         nbits_end += nbits_lsb * 2048;
 1228              		.loc 1 407 0
 1229 022a 0A9B     		ldr	r3, [sp, #40]
 1230 022c DB02     		lsls	r3, r3, #11
 1231 022e 0B9A     		ldr	r2, [sp, #44]
 1232 0230 9446     		mov	ip, r2
 1233 0232 9C44     		add	ip, ip, r3
 1234 0234 6346     		mov	r3, ip
 1235 0236 0B93     		str	r3, [sp, #44]
 1236              	.LVL169:
 1237              	.L84:
 408:..\..\..\liblc3\src/spec.c **** 
 409:..\..\..\liblc3\src/spec.c ****     return (nbits_end + 2047) / 2048;
 1238              		.loc 1 409 0
 1239 0238 0B9B     		ldr	r3, [sp, #44]
 1240 023a 0C4A     		ldr	r2, .L92+20
 1241 023c 9446     		mov	ip, r2
 1242 023e 6344     		add	r3, r3, ip
 1243 0240 D817     		asrs	r0, r3, #31
 1244 0242 4005     		lsls	r0, r0, #21
 1245 0244 400D     		lsrs	r0, r0, #21
 1246 0246 C018     		adds	r0, r0, r3
 1247 0248 C012     		asrs	r0, r0, #11
 410:..\..\..\liblc3\src/spec.c **** }
 1248              		.loc 1 410 0
 1249 024a 11B0     		add	sp, sp, #68
 1250              		@ sp needed
 1251              	.LVL170:
 1252              	.LVL171:
 1253 024c 3CBC     		pop	{r2, r3, r4, r5}
 1254 024e 9046     		mov	r8, r2
 1255 0250 9946     		mov	r9, r3
 1256 0252 A246     		mov	r10, r4
 1257 0254 AB46     		mov	fp, r5
 1258 0256 F0BD     		pop	{r4, r5, r6, r7, pc}
 1259              	.L93:
 1260              		.align	2
 1261              	.L92:
 1262 0258 00000000 		.word	lc3_ne_2m5
 1263 025c FFFFFF7F 		.word	2147483647
 1264 0260 00000000 		.word	lc3_spectrum_lookup
 1265 0264 00000000 		.word	lc3_spectrum_bits
 1266 0268 00F0FFFF 		.word	-4096
 1267 026c FF070000 		.word	2047
 1268              		.cfi_endproc
 1269              	.LFE27:
 1270              		.size	compute_nbits, .-compute_nbits
 1271              		.global	__aeabi_fcmpgt
 1272              		.global	__aeabi_i2f
 1273              		.global	__aeabi_fdiv
 1274              		.global	__aeabi_f2iz
 1275              		.section	.text.estimate_noise,"ax",%progbits
 1276              		.align	2
 1277              		.code	16
 1278              		.thumb_func
ARM GAS  C:\Users\rdn\AppData\Local\Temp\cciiQw7C.s 			page 32


 1279              		.type	estimate_noise, %function
 1280              	estimate_noise:
 1281              	.LFB34:
 411:..\..\..\liblc3\src/spec.c **** 
 412:..\..\..\liblc3\src/spec.c **** /**
 413:..\..\..\liblc3\src/spec.c ****  * Put quantized spectrum
 414:..\..\..\liblc3\src/spec.c ****  * bits            Bitstream context
 415:..\..\..\liblc3\src/spec.c ****  * dt, sr, nbytes  Duration, samplerate and size of the frame
 416:..\..\..\liblc3\src/spec.c ****  * x               Spectral quantized coefficients
 417:..\..\..\liblc3\src/spec.c ****  * nq, lsb_mode    Count of significants, and LSB discard indication
 418:..\..\..\liblc3\src/spec.c ****  */
 419:..\..\..\liblc3\src/spec.c **** LC3_HOT static void put_quantized(lc3_bits_t *bits,
 420:..\..\..\liblc3\src/spec.c ****     enum lc3_dt dt, enum lc3_srate sr, int nbytes,
 421:..\..\..\liblc3\src/spec.c ****     const float *x, int nq, bool lsb_mode)
 422:..\..\..\liblc3\src/spec.c **** {
 423:..\..\..\liblc3\src/spec.c ****     bool high_rate = resolve_modes(sr, nbytes, NULL);
 424:..\..\..\liblc3\src/spec.c ****     int ne = lc3_ne(dt, sr);
 425:..\..\..\liblc3\src/spec.c **** 
 426:..\..\..\liblc3\src/spec.c ****     /* --- Loop on quantized coefficients --- */
 427:..\..\..\liblc3\src/spec.c **** 
 428:..\..\..\liblc3\src/spec.c ****     uint8_t state = 0;
 429:..\..\..\liblc3\src/spec.c **** 
 430:..\..\..\liblc3\src/spec.c ****     for (int i = 0, h = 0; h < 2; h++) {
 431:..\..\..\liblc3\src/spec.c ****         const uint8_t (*lut_coeff)[4] = lc3_spectrum_lookup[high_rate][h];
 432:..\..\..\liblc3\src/spec.c **** 
 433:..\..\..\liblc3\src/spec.c ****         for ( ; i < LC3_MIN(nq, (ne + 2) >> (1 - h)); i += 2) {
 434:..\..\..\liblc3\src/spec.c **** 
 435:..\..\..\liblc3\src/spec.c ****             float xq_off = lc3_hr(sr) ? 0.5f : 6.f/16;
 436:..\..\..\liblc3\src/spec.c ****             uint32_t a = fabsf(x[i+0]) + xq_off;
 437:..\..\..\liblc3\src/spec.c ****             uint32_t b = fabsf(x[i+1]) + xq_off;
 438:..\..\..\liblc3\src/spec.c **** 
 439:..\..\..\liblc3\src/spec.c ****             const uint8_t *lut = lut_coeff[state];
 440:..\..\..\liblc3\src/spec.c **** 
 441:..\..\..\liblc3\src/spec.c ****             /* --- LSB values Reduce to 2*2 bits MSB values ---
 442:..\..\..\liblc3\src/spec.c ****              * Reduce to 2x2 bits MSB values. The LSB's pair are arithmetic
 443:..\..\..\liblc3\src/spec.c ****              * coded with an escape code and 1 bits for each values.
 444:..\..\..\liblc3\src/spec.c ****              * The LSB mode discard the first LSB (at this step) */
 445:..\..\..\liblc3\src/spec.c **** 
 446:..\..\..\liblc3\src/spec.c ****             uint32_t m = (a | b) >> 2;
 447:..\..\..\liblc3\src/spec.c ****             unsigned k = 0, shr = 0;
 448:..\..\..\liblc3\src/spec.c **** 
 449:..\..\..\liblc3\src/spec.c ****             if (m) {
 450:..\..\..\liblc3\src/spec.c **** 
 451:..\..\..\liblc3\src/spec.c ****                 if (lsb_mode)
 452:..\..\..\liblc3\src/spec.c ****                     lc3_put_symbol(bits,
 453:..\..\..\liblc3\src/spec.c ****                         lc3_spectrum_models + lut[k++], 16);
 454:..\..\..\liblc3\src/spec.c **** 
 455:..\..\..\liblc3\src/spec.c ****                 for (m >>= lsb_mode; m; m >>= 1, k++) {
 456:..\..\..\liblc3\src/spec.c ****                     lc3_put_bit(bits, (a >> k) & 1);
 457:..\..\..\liblc3\src/spec.c ****                     lc3_put_bit(bits, (b >> k) & 1);
 458:..\..\..\liblc3\src/spec.c ****                     lc3_put_symbol(bits,
 459:..\..\..\liblc3\src/spec.c ****                         lc3_spectrum_models + lut[LC3_MIN(k, 3)], 16);
 460:..\..\..\liblc3\src/spec.c ****                 }
 461:..\..\..\liblc3\src/spec.c **** 
 462:..\..\..\liblc3\src/spec.c ****                 a >>= lsb_mode;
 463:..\..\..\liblc3\src/spec.c ****                 b >>= lsb_mode;
 464:..\..\..\liblc3\src/spec.c **** 
ARM GAS  C:\Users\rdn\AppData\Local\Temp\cciiQw7C.s 			page 33


 465:..\..\..\liblc3\src/spec.c ****                 shr = k - lsb_mode;
 466:..\..\..\liblc3\src/spec.c ****                 k = LC3_MIN(k, 3);
 467:..\..\..\liblc3\src/spec.c ****             }
 468:..\..\..\liblc3\src/spec.c **** 
 469:..\..\..\liblc3\src/spec.c ****             /* --- Sign values --- */
 470:..\..\..\liblc3\src/spec.c **** 
 471:..\..\..\liblc3\src/spec.c ****             if (a) lc3_put_bit(bits, x[i+0] < 0);
 472:..\..\..\liblc3\src/spec.c ****             if (b) lc3_put_bit(bits, x[i+1] < 0);
 473:..\..\..\liblc3\src/spec.c **** 
 474:..\..\..\liblc3\src/spec.c ****             /* --- MSB values --- */
 475:..\..\..\liblc3\src/spec.c **** 
 476:..\..\..\liblc3\src/spec.c ****             a >>= shr;
 477:..\..\..\liblc3\src/spec.c ****             b >>= shr;
 478:..\..\..\liblc3\src/spec.c **** 
 479:..\..\..\liblc3\src/spec.c ****             lc3_put_symbol(bits, lc3_spectrum_models + lut[k], a + 4*b);
 480:..\..\..\liblc3\src/spec.c **** 
 481:..\..\..\liblc3\src/spec.c ****             /* --- Update state --- */
 482:..\..\..\liblc3\src/spec.c **** 
 483:..\..\..\liblc3\src/spec.c ****             state = (state << 4) + (k > 1 ? 12 + k : 1 + (a + b) * (k + 1));
 484:..\..\..\liblc3\src/spec.c ****         }
 485:..\..\..\liblc3\src/spec.c ****     }
 486:..\..\..\liblc3\src/spec.c **** }
 487:..\..\..\liblc3\src/spec.c **** 
 488:..\..\..\liblc3\src/spec.c **** /**
 489:..\..\..\liblc3\src/spec.c ****  * Get quantized spectrum
 490:..\..\..\liblc3\src/spec.c ****  * bits            Bitstream context
 491:..\..\..\liblc3\src/spec.c ****  * dt, sr, nbytes  Duration, samplerate and size of the frame
 492:..\..\..\liblc3\src/spec.c ****  * nq, lsb_mode    Count of significants, and LSB discard indication
 493:..\..\..\liblc3\src/spec.c ****  * x               Return `nq` spectral quantized coefficients
 494:..\..\..\liblc3\src/spec.c ****  * nf_seed         Return the noise factor seed associated
 495:..\..\..\liblc3\src/spec.c ****  * return          0: Ok  -1: Invalid bitstream data
 496:..\..\..\liblc3\src/spec.c ****  */
 497:..\..\..\liblc3\src/spec.c **** LC3_HOT static int get_quantized(lc3_bits_t *bits,
 498:..\..\..\liblc3\src/spec.c ****     enum lc3_dt dt, enum lc3_srate sr, int nbytes,
 499:..\..\..\liblc3\src/spec.c ****     int nq, bool lsb_mode, float *x, uint16_t *nf_seed)
 500:..\..\..\liblc3\src/spec.c **** {
 501:..\..\..\liblc3\src/spec.c ****     bool high_rate = resolve_modes(sr, nbytes, NULL);
 502:..\..\..\liblc3\src/spec.c ****     int ne = lc3_ne(dt, sr);
 503:..\..\..\liblc3\src/spec.c **** 
 504:..\..\..\liblc3\src/spec.c ****     *nf_seed = 0;
 505:..\..\..\liblc3\src/spec.c **** 
 506:..\..\..\liblc3\src/spec.c ****     /* --- Loop on quantized coefficients --- */
 507:..\..\..\liblc3\src/spec.c **** 
 508:..\..\..\liblc3\src/spec.c ****     uint8_t state = 0;
 509:..\..\..\liblc3\src/spec.c **** 
 510:..\..\..\liblc3\src/spec.c ****     for (int i = 0, h = 0; h < 2; h++) {
 511:..\..\..\liblc3\src/spec.c ****         const uint8_t (*lut_coeff)[4] = lc3_spectrum_lookup[high_rate][h];
 512:..\..\..\liblc3\src/spec.c **** 
 513:..\..\..\liblc3\src/spec.c ****         for ( ; i < LC3_MIN(nq, (ne + 2) >> (1 - h)); i += 2) {
 514:..\..\..\liblc3\src/spec.c **** 
 515:..\..\..\liblc3\src/spec.c ****             const uint8_t *lut = lut_coeff[state];
 516:..\..\..\liblc3\src/spec.c ****             int max_shl = lc3_hr(sr) ? 22 : 14;
 517:..\..\..\liblc3\src/spec.c **** 
 518:..\..\..\liblc3\src/spec.c ****             /* --- LSB values ---
 519:..\..\..\liblc3\src/spec.c ****              * Until the symbol read indicates the escape value 16,
 520:..\..\..\liblc3\src/spec.c ****              * read an LSB bit for each values.
 521:..\..\..\liblc3\src/spec.c ****              * The LSB mode discard the first LSB (at this step) */
ARM GAS  C:\Users\rdn\AppData\Local\Temp\cciiQw7C.s 			page 34


 522:..\..\..\liblc3\src/spec.c **** 
 523:..\..\..\liblc3\src/spec.c ****             int u = 0, v = 0;
 524:..\..\..\liblc3\src/spec.c ****             int k = 0, shl = 0;
 525:..\..\..\liblc3\src/spec.c **** 
 526:..\..\..\liblc3\src/spec.c ****             unsigned s = lc3_get_symbol(bits, lc3_spectrum_models + lut[k]);
 527:..\..\..\liblc3\src/spec.c **** 
 528:..\..\..\liblc3\src/spec.c ****             if (lsb_mode && s >= 16) {
 529:..\..\..\liblc3\src/spec.c ****                 s = lc3_get_symbol(bits, lc3_spectrum_models + lut[++k]);
 530:..\..\..\liblc3\src/spec.c ****                 shl++;
 531:..\..\..\liblc3\src/spec.c ****             }
 532:..\..\..\liblc3\src/spec.c **** 
 533:..\..\..\liblc3\src/spec.c ****             for ( ; s >= 16 && shl < max_shl; shl++) {
 534:..\..\..\liblc3\src/spec.c ****                 u |= lc3_get_bit(bits) << shl;
 535:..\..\..\liblc3\src/spec.c ****                 v |= lc3_get_bit(bits) << shl;
 536:..\..\..\liblc3\src/spec.c **** 
 537:..\..\..\liblc3\src/spec.c ****                 k += (k < 3);
 538:..\..\..\liblc3\src/spec.c ****                 s  = lc3_get_symbol(bits, lc3_spectrum_models + lut[k]);
 539:..\..\..\liblc3\src/spec.c ****             }
 540:..\..\..\liblc3\src/spec.c **** 
 541:..\..\..\liblc3\src/spec.c ****             if (s >= 16)
 542:..\..\..\liblc3\src/spec.c ****                 return -1;
 543:..\..\..\liblc3\src/spec.c **** 
 544:..\..\..\liblc3\src/spec.c ****             /* --- MSB & sign values --- */
 545:..\..\..\liblc3\src/spec.c **** 
 546:..\..\..\liblc3\src/spec.c ****             int a = s % 4;
 547:..\..\..\liblc3\src/spec.c ****             int b = s / 4;
 548:..\..\..\liblc3\src/spec.c **** 
 549:..\..\..\liblc3\src/spec.c ****             u |= a << shl;
 550:..\..\..\liblc3\src/spec.c ****             v |= b << shl;
 551:..\..\..\liblc3\src/spec.c **** 
 552:..\..\..\liblc3\src/spec.c ****             x[i+0] = u && lc3_get_bit(bits) ? -u : u;
 553:..\..\..\liblc3\src/spec.c ****             x[i+1] = v && lc3_get_bit(bits) ? -v : v;
 554:..\..\..\liblc3\src/spec.c **** 
 555:..\..\..\liblc3\src/spec.c ****             *nf_seed = (*nf_seed + (u & 0x7fff) * (i  )
 556:..\..\..\liblc3\src/spec.c ****                                  + (v & 0x7fff) * (i+1)) & 0xffff;
 557:..\..\..\liblc3\src/spec.c **** 
 558:..\..\..\liblc3\src/spec.c ****             /* --- Update state --- */
 559:..\..\..\liblc3\src/spec.c **** 
 560:..\..\..\liblc3\src/spec.c ****             state = (state << 4) + (k > 1 ? 12 + k : 1 + (a + b) * (k + 1));
 561:..\..\..\liblc3\src/spec.c ****         }
 562:..\..\..\liblc3\src/spec.c ****     }
 563:..\..\..\liblc3\src/spec.c **** 
 564:..\..\..\liblc3\src/spec.c ****     return 0;
 565:..\..\..\liblc3\src/spec.c **** }
 566:..\..\..\liblc3\src/spec.c **** 
 567:..\..\..\liblc3\src/spec.c **** /**
 568:..\..\..\liblc3\src/spec.c ****  * Put residual bits of quantization
 569:..\..\..\liblc3\src/spec.c ****  * bits            Bitstream context
 570:..\..\..\liblc3\src/spec.c ****  * nbits           Maximum number of bits to output
 571:..\..\..\liblc3\src/spec.c ****  * hrmode          High-Resolution mode
 572:..\..\..\liblc3\src/spec.c ****  * x, n            Spectral quantized, and count of significants
 573:..\..\..\liblc3\src/spec.c ****  */
 574:..\..\..\liblc3\src/spec.c **** LC3_HOT static void put_residual(lc3_bits_t *bits,
 575:..\..\..\liblc3\src/spec.c ****     int nbits, bool hrmode, float *x, int n)
 576:..\..\..\liblc3\src/spec.c **** {
 577:..\..\..\liblc3\src/spec.c ****     float xq_lim = hrmode ? 0.5f : 10.f/16;
 578:..\..\..\liblc3\src/spec.c ****     float xq_off = xq_lim / 2;
ARM GAS  C:\Users\rdn\AppData\Local\Temp\cciiQw7C.s 			page 35


 579:..\..\..\liblc3\src/spec.c **** 
 580:..\..\..\liblc3\src/spec.c ****     for (int iter = 0; iter < (hrmode ? 20 : 1) && nbits > 0; iter++) {
 581:..\..\..\liblc3\src/spec.c ****         for (int i = 0; i < n && nbits > 0; i++) {
 582:..\..\..\liblc3\src/spec.c **** 
 583:..\..\..\liblc3\src/spec.c ****             float xr = fabsf(x[i]);
 584:..\..\..\liblc3\src/spec.c ****             if (xr < xq_lim)
 585:..\..\..\liblc3\src/spec.c ****                 continue;
 586:..\..\..\liblc3\src/spec.c **** 
 587:..\..\..\liblc3\src/spec.c ****             bool b = (xr - truncf(xr) < xq_lim) ^ (x[i] < 0);
 588:..\..\..\liblc3\src/spec.c ****             lc3_put_bit(bits, b);
 589:..\..\..\liblc3\src/spec.c ****             nbits--;
 590:..\..\..\liblc3\src/spec.c **** 
 591:..\..\..\liblc3\src/spec.c ****             x[i] += b ? -xq_off : xq_off;
 592:..\..\..\liblc3\src/spec.c ****         }
 593:..\..\..\liblc3\src/spec.c **** 
 594:..\..\..\liblc3\src/spec.c ****         xq_off *= xq_lim;
 595:..\..\..\liblc3\src/spec.c ****     }
 596:..\..\..\liblc3\src/spec.c **** }
 597:..\..\..\liblc3\src/spec.c **** 
 598:..\..\..\liblc3\src/spec.c **** /**
 599:..\..\..\liblc3\src/spec.c ****  * Get residual bits of quantization
 600:..\..\..\liblc3\src/spec.c ****  * bits            Bitstream context
 601:..\..\..\liblc3\src/spec.c ****  * nbits           Maximum number of bits to output
 602:..\..\..\liblc3\src/spec.c ****  * hrmode          High-Resolution mode
 603:..\..\..\liblc3\src/spec.c ****  * x, nq           Spectral quantized, and count of significants
 604:..\..\..\liblc3\src/spec.c ****  */
 605:..\..\..\liblc3\src/spec.c **** LC3_HOT static void get_residual(lc3_bits_t *bits,
 606:..\..\..\liblc3\src/spec.c ****     int nbits, bool hrmode, float *x, int n)
 607:..\..\..\liblc3\src/spec.c **** {
 608:..\..\..\liblc3\src/spec.c ****     float xq_off_1 = hrmode ? 0.25f : 5.f/16;
 609:..\..\..\liblc3\src/spec.c ****     float xq_off_2 = hrmode ? 0.25f : 3.f/16;
 610:..\..\..\liblc3\src/spec.c **** 
 611:..\..\..\liblc3\src/spec.c ****     for (int iter = 0; iter < (hrmode ? 20 : 1) && nbits > 0; iter++) {
 612:..\..\..\liblc3\src/spec.c ****         for (int i = 0; i < n && nbits > 0; i++) {
 613:..\..\..\liblc3\src/spec.c **** 
 614:..\..\..\liblc3\src/spec.c ****             if (x[i] == 0)
 615:..\..\..\liblc3\src/spec.c ****               continue;
 616:..\..\..\liblc3\src/spec.c **** 
 617:..\..\..\liblc3\src/spec.c ****             if (lc3_get_bit(bits) == 0)
 618:..\..\..\liblc3\src/spec.c ****                 x[i] -= x[i] < 0 ? xq_off_1 : xq_off_2;
 619:..\..\..\liblc3\src/spec.c ****             else
 620:..\..\..\liblc3\src/spec.c ****                 x[i] += x[i] > 0 ? xq_off_1 : xq_off_2;
 621:..\..\..\liblc3\src/spec.c **** 
 622:..\..\..\liblc3\src/spec.c ****             nbits--;
 623:..\..\..\liblc3\src/spec.c ****         }
 624:..\..\..\liblc3\src/spec.c **** 
 625:..\..\..\liblc3\src/spec.c ****         xq_off_1 *= 0.5f;
 626:..\..\..\liblc3\src/spec.c ****         xq_off_2 *= 0.5f;
 627:..\..\..\liblc3\src/spec.c ****     }
 628:..\..\..\liblc3\src/spec.c **** }
 629:..\..\..\liblc3\src/spec.c **** 
 630:..\..\..\liblc3\src/spec.c **** /**
 631:..\..\..\liblc3\src/spec.c ****  * Put LSB values of quantized spectrum values
 632:..\..\..\liblc3\src/spec.c ****  * bits            Bitstream context
 633:..\..\..\liblc3\src/spec.c ****  * nbits           Maximum number of bits to output
 634:..\..\..\liblc3\src/spec.c ****  * hrmode          High-Resolution mode
 635:..\..\..\liblc3\src/spec.c ****  * x, n            Spectral quantized, and count of significants
ARM GAS  C:\Users\rdn\AppData\Local\Temp\cciiQw7C.s 			page 36


 636:..\..\..\liblc3\src/spec.c ****  */
 637:..\..\..\liblc3\src/spec.c **** LC3_HOT static void put_lsb(lc3_bits_t *bits,
 638:..\..\..\liblc3\src/spec.c ****     int nbits, bool hrmode, const float *x, int n)
 639:..\..\..\liblc3\src/spec.c **** {
 640:..\..\..\liblc3\src/spec.c ****     for (int i = 0; i < n && nbits > 0; i += 2) {
 641:..\..\..\liblc3\src/spec.c **** 
 642:..\..\..\liblc3\src/spec.c ****         float xq_off = hrmode ? 0.5f : 6.f/16;
 643:..\..\..\liblc3\src/spec.c ****         uint32_t a = fabsf(x[i+0]) + xq_off;
 644:..\..\..\liblc3\src/spec.c ****         uint32_t b = fabsf(x[i+1]) + xq_off;
 645:..\..\..\liblc3\src/spec.c **** 
 646:..\..\..\liblc3\src/spec.c ****         if ((a | b) >> 2 == 0)
 647:..\..\..\liblc3\src/spec.c ****             continue;
 648:..\..\..\liblc3\src/spec.c **** 
 649:..\..\..\liblc3\src/spec.c ****         if (nbits-- > 0)
 650:..\..\..\liblc3\src/spec.c ****             lc3_put_bit(bits, a & 1);
 651:..\..\..\liblc3\src/spec.c **** 
 652:..\..\..\liblc3\src/spec.c ****         if (a == 1 && nbits-- > 0)
 653:..\..\..\liblc3\src/spec.c ****             lc3_put_bit(bits, x[i+0] < 0);
 654:..\..\..\liblc3\src/spec.c **** 
 655:..\..\..\liblc3\src/spec.c ****         if (nbits-- > 0)
 656:..\..\..\liblc3\src/spec.c ****             lc3_put_bit(bits, b & 1);
 657:..\..\..\liblc3\src/spec.c **** 
 658:..\..\..\liblc3\src/spec.c ****         if (b == 1 && nbits-- > 0)
 659:..\..\..\liblc3\src/spec.c ****             lc3_put_bit(bits, x[i+1] < 0);
 660:..\..\..\liblc3\src/spec.c ****     }
 661:..\..\..\liblc3\src/spec.c **** }
 662:..\..\..\liblc3\src/spec.c **** 
 663:..\..\..\liblc3\src/spec.c **** /**
 664:..\..\..\liblc3\src/spec.c ****  * Get LSB values of quantized spectrum values
 665:..\..\..\liblc3\src/spec.c ****  * bits            Bitstream context
 666:..\..\..\liblc3\src/spec.c ****  * nbits           Maximum number of bits to output
 667:..\..\..\liblc3\src/spec.c ****  * x, nq           Spectral quantized, and count of significants
 668:..\..\..\liblc3\src/spec.c ****  * nf_seed         Update the noise factor seed according
 669:..\..\..\liblc3\src/spec.c ****  */
 670:..\..\..\liblc3\src/spec.c **** LC3_HOT static void get_lsb(lc3_bits_t *bits,
 671:..\..\..\liblc3\src/spec.c ****     int nbits, float *x, int nq, uint16_t *nf_seed)
 672:..\..\..\liblc3\src/spec.c **** {
 673:..\..\..\liblc3\src/spec.c ****     for (int i = 0; i < nq && nbits > 0; i += 2) {
 674:..\..\..\liblc3\src/spec.c **** 
 675:..\..\..\liblc3\src/spec.c ****         float a = fabsf(x[i]), b = fabsf(x[i+1]);
 676:..\..\..\liblc3\src/spec.c **** 
 677:..\..\..\liblc3\src/spec.c ****         if (fmaxf(a, b) < 4)
 678:..\..\..\liblc3\src/spec.c ****             continue;
 679:..\..\..\liblc3\src/spec.c **** 
 680:..\..\..\liblc3\src/spec.c ****         if (nbits-- > 0 && lc3_get_bit(bits)) {
 681:..\..\..\liblc3\src/spec.c ****             if (a) {
 682:..\..\..\liblc3\src/spec.c ****                 x[i] += x[i] < 0 ? -1 : 1;
 683:..\..\..\liblc3\src/spec.c ****                 *nf_seed = (*nf_seed + i) & 0xffff;
 684:..\..\..\liblc3\src/spec.c ****             } else if (nbits-- > 0) {
 685:..\..\..\liblc3\src/spec.c ****                 x[i] = lc3_get_bit(bits) ? -1 : 1;
 686:..\..\..\liblc3\src/spec.c ****                 *nf_seed = (*nf_seed + i) & 0xffff;
 687:..\..\..\liblc3\src/spec.c ****             }
 688:..\..\..\liblc3\src/spec.c ****         }
 689:..\..\..\liblc3\src/spec.c **** 
 690:..\..\..\liblc3\src/spec.c ****         if (nbits-- > 0 && lc3_get_bit(bits)) {
 691:..\..\..\liblc3\src/spec.c ****             if (b) {
 692:..\..\..\liblc3\src/spec.c ****                 x[i+1] += x[i+1] < 0 ? -1 : 1;
ARM GAS  C:\Users\rdn\AppData\Local\Temp\cciiQw7C.s 			page 37


 693:..\..\..\liblc3\src/spec.c ****                 *nf_seed = (*nf_seed + i+1) & 0xffff;
 694:..\..\..\liblc3\src/spec.c ****             } else if (nbits-- > 0) {
 695:..\..\..\liblc3\src/spec.c ****                 x[i+1] = lc3_get_bit(bits) ? -1 : 1;
 696:..\..\..\liblc3\src/spec.c ****                 *nf_seed = (*nf_seed + i+1) & 0xffff;
 697:..\..\..\liblc3\src/spec.c ****             }
 698:..\..\..\liblc3\src/spec.c ****         }
 699:..\..\..\liblc3\src/spec.c ****     }
 700:..\..\..\liblc3\src/spec.c **** }
 701:..\..\..\liblc3\src/spec.c **** 
 702:..\..\..\liblc3\src/spec.c **** 
 703:..\..\..\liblc3\src/spec.c **** /* ----------------------------------------------------------------------------
 704:..\..\..\liblc3\src/spec.c ****  *  Noise coding
 705:..\..\..\liblc3\src/spec.c ****  * -------------------------------------------------------------------------- */
 706:..\..\..\liblc3\src/spec.c **** 
 707:..\..\..\liblc3\src/spec.c **** /**
 708:..\..\..\liblc3\src/spec.c ****  * Estimate noise level
 709:..\..\..\liblc3\src/spec.c ****  * dt, bw          Duration and bandwidth of the frame
 710:..\..\..\liblc3\src/spec.c ****  * hrmode          High-Resolution mode
 711:..\..\..\liblc3\src/spec.c ****  * x, n            Spectral quantized, and count of significants
 712:..\..\..\liblc3\src/spec.c ****  * return          Noise factor (0 to 7)
 713:..\..\..\liblc3\src/spec.c ****  */
 714:..\..\..\liblc3\src/spec.c **** LC3_HOT static int estimate_noise(
 715:..\..\..\liblc3\src/spec.c ****     enum lc3_dt dt, enum lc3_bandwidth bw, bool hrmode, const float *x, int n)
 716:..\..\..\liblc3\src/spec.c **** {
 1282              		.loc 1 716 0
 1283              		.cfi_startproc
 1284              		@ args = 4, pretend = 0, frame = 8
 1285              		@ frame_needed = 0, uses_anonymous_args = 0
 1286              	.LVL172:
 1287 0000 F0B5     		push	{r4, r5, r6, r7, lr}
 1288              		.cfi_def_cfa_offset 20
 1289              		.cfi_offset 4, -20
 1290              		.cfi_offset 5, -16
 1291              		.cfi_offset 6, -12
 1292              		.cfi_offset 7, -8
 1293              		.cfi_offset 14, -4
 1294 0002 5F46     		mov	r7, fp
 1295 0004 4E46     		mov	r6, r9
 1296 0006 C0B4     		push	{r6, r7}
 1297              		.cfi_def_cfa_offset 28
 1298              		.cfi_offset 9, -28
 1299              		.cfi_offset 11, -24
 1300 0008 83B0     		sub	sp, sp, #12
 1301              		.cfi_def_cfa_offset 40
 1302 000a 9B46     		mov	fp, r3
 717:..\..\..\liblc3\src/spec.c ****     int bw_stop = lc3_ne(dt, (enum lc3_srate)LC3_MIN(bw, LC3_BANDWIDTH_FB));
 1303              		.loc 1 717 0
 1304 000c 0B1C     		adds	r3, r1, #0
 1305              	.LVL173:
 1306 000e 0429     		cmp	r1, #4
 1307 0010 00D9     		bls	.L95
 1308 0012 0423     		movs	r3, #4
 1309              	.L95:
 1310 0014 DBB2     		uxtb	r3, r3
 1311              	.LVL174:
 1312              	.LBB115:
 1313              	.LBB116:
ARM GAS  C:\Users\rdn\AppData\Local\Temp\cciiQw7C.s 			page 38


 1314              		.loc 2 51 0
 1315 0016 9B00     		lsls	r3, r3, #2
 1316              	.LVL175:
 1317 0018 3D49     		ldr	r1, .L117
 1318              	.LVL176:
 1319 001a 5958     		ldr	r1, [r3, r1]
 1320 001c 431C     		adds	r3, r0, #1
 1321 001e 5943     		muls	r1, r3
 1322 0020 8946     		mov	r9, r1
 1323              	.LVL177:
 1324              	.LBE116:
 1325              	.LBE115:
 718:..\..\..\liblc3\src/spec.c ****     int w = 1 + (dt >= LC3_DT_7M5) + (dt>= LC3_DT_10M);
 1326              		.loc 1 718 0
 1327 0022 0128     		cmp	r0, #1
 1328 0024 01D9     		bls	.L110
 1329 0026 0224     		movs	r4, #2
 1330 0028 00E0     		b	.L96
 1331              	.L110:
 1332 002a 0124     		movs	r4, #1
 1333              	.L96:
 1334              		.loc 1 718 0 is_stmt 0 discriminator 4
 1335 002c 0221     		movs	r1, #2
 1336 002e 8142     		cmp	r1, r0
 1337 0030 8041     		sbcs	r0, r0, r0
 1338              	.LVL178:
 1339 0032 4042     		rsbs	r0, r0, #0
 1340 0034 2618     		adds	r6, r4, r0
 1341              	.LVL179:
 719:..\..\..\liblc3\src/spec.c **** 
 720:..\..\..\liblc3\src/spec.c ****     float xq_lim = hrmode ? 0.5f : 10.f/16;
 1342              		.loc 1 720 0 is_stmt 1 discriminator 4
 1343 0036 002A     		cmp	r2, #0
 1344 0038 03D0     		beq	.L111
 1345              		.loc 1 720 0 is_stmt 0
 1346 003a FC22     		movs	r2, #252
 1347              	.LVL180:
 1348 003c 9205     		lsls	r2, r2, #22
 1349 003e 0192     		str	r2, [sp, #4]
 1350 0040 01E0     		b	.L97
 1351              	.LVL181:
 1352              	.L111:
 1353 0042 344A     		ldr	r2, .L117+4
 1354              	.LVL182:
 1355 0044 0192     		str	r2, [sp, #4]
 1356              	.L97:
 1357              	.LVL183:
 721:..\..\..\liblc3\src/spec.c ****     float sum = 0;
 722:..\..\..\liblc3\src/spec.c ****     int i, ns = 0, z = 0;
 723:..\..\..\liblc3\src/spec.c **** 
 724:..\..\..\liblc3\src/spec.c ****     for (i = 6 * (1 + dt) - w; i < LC3_MIN(n, bw_stop); i++) {
 1358              		.loc 1 724 0 is_stmt 1 discriminator 4
 1359 0046 5A00     		lsls	r2, r3, #1
 1360 0048 D318     		adds	r3, r2, r3
 1361 004a 5C00     		lsls	r4, r3, #1
 1362 004c A41B     		subs	r4, r4, r6
 1363              	.LVL184:
ARM GAS  C:\Users\rdn\AppData\Local\Temp\cciiQw7C.s 			page 39


 722:..\..\..\liblc3\src/spec.c **** 
 1364              		.loc 1 722 0 discriminator 4
 1365 004e 0025     		movs	r5, #0
 1366 0050 0027     		movs	r7, #0
 721:..\..\..\liblc3\src/spec.c ****     float sum = 0;
 1367              		.loc 1 721 0 discriminator 4
 1368 0052 0023     		movs	r3, #0
 1369 0054 0093     		str	r3, [sp]
 1370              		.loc 1 724 0 discriminator 4
 1371 0056 1BE0     		b	.L98
 1372              	.LVL185:
 1373              	.L103:
 725:..\..\..\liblc3\src/spec.c ****         z = fabsf(x[i]) < xq_lim ? z + 1 : 0;
 1374              		.loc 1 725 0
 1375 0058 A300     		lsls	r3, r4, #2
 1376 005a 5A46     		mov	r2, fp
 1377 005c D158     		ldr	r1, [r2, r3]
 1378 005e 4900     		lsls	r1, r1, #1
 1379 0060 4908     		lsrs	r1, r1, #1
 1380 0062 0198     		ldr	r0, [sp, #4]
 1381 0064 FFF7FEFF 		bl	__aeabi_fcmpgt
 1382              	.LVL186:
 1383 0068 0028     		cmp	r0, #0
 1384 006a 01D0     		beq	.L116
 1385              		.loc 1 725 0 is_stmt 0 discriminator 1
 1386 006c 0135     		adds	r5, r5, #1
 1387              	.LVL187:
 1388 006e 00E0     		b	.L99
 1389              	.LVL188:
 1390              	.L116:
 1391              		.loc 1 725 0
 1392 0070 0025     		movs	r5, #0
 1393              	.LVL189:
 1394              	.L99:
 726:..\..\..\liblc3\src/spec.c ****         if (z > 2*w)
 1395              		.loc 1 726 0 is_stmt 1 discriminator 4
 1396 0072 7300     		lsls	r3, r6, #1
 1397 0074 9D42     		cmp	r5, r3
 1398 0076 0ADD     		ble	.L101
 727:..\..\..\liblc3\src/spec.c ****             sum += fabsf(x[i - w]), ns++;
 1399              		.loc 1 727 0
 1400 0078 A31B     		subs	r3, r4, r6
 1401 007a 9B00     		lsls	r3, r3, #2
 1402 007c 5A46     		mov	r2, fp
 1403 007e D158     		ldr	r1, [r2, r3]
 1404 0080 4900     		lsls	r1, r1, #1
 1405 0082 4908     		lsrs	r1, r1, #1
 1406 0084 0098     		ldr	r0, [sp]
 1407 0086 FFF7FEFF 		bl	__aeabi_fadd
 1408              	.LVL190:
 1409 008a 0090     		str	r0, [sp]
 1410              	.LVL191:
 1411 008c 0137     		adds	r7, r7, #1
 1412              	.LVL192:
 1413              	.L101:
 724:..\..\..\liblc3\src/spec.c ****         z = fabsf(x[i]) < xq_lim ? z + 1 : 0;
 1414              		.loc 1 724 0 discriminator 2
ARM GAS  C:\Users\rdn\AppData\Local\Temp\cciiQw7C.s 			page 40


 1415 008e 0134     		adds	r4, r4, #1
 1416              	.LVL193:
 1417              	.L98:
 724:..\..\..\liblc3\src/spec.c ****         z = fabsf(x[i]) < xq_lim ? z + 1 : 0;
 1418              		.loc 1 724 0 is_stmt 0 discriminator 1
 1419 0090 0A9B     		ldr	r3, [sp, #40]
 1420 0092 4B45     		cmp	r3, r9
 1421 0094 00DD     		ble	.L102
 1422 0096 4B46     		mov	r3, r9
 1423              	.L102:
 1424 0098 9C42     		cmp	r4, r3
 1425 009a DDDB     		blt	.L103
 1426 009c 0FE0     		b	.L104
 1427              	.L106:
 728:..\..\..\liblc3\src/spec.c ****     }
 729:..\..\..\liblc3\src/spec.c **** 
 730:..\..\..\liblc3\src/spec.c ****     for ( ; i < bw_stop + w; i++)
 731:..\..\..\liblc3\src/spec.c ****         if (++z > 2*w)
 1428              		.loc 1 731 0 is_stmt 1
 1429 009e 0135     		adds	r5, r5, #1
 1430              	.LVL194:
 1431 00a0 7300     		lsls	r3, r6, #1
 1432 00a2 9D42     		cmp	r5, r3
 1433 00a4 0ADD     		ble	.L105
 732:..\..\..\liblc3\src/spec.c ****             sum += fabsf(x[i - w]), ns++;
 1434              		.loc 1 732 0
 1435 00a6 A31B     		subs	r3, r4, r6
 1436 00a8 9B00     		lsls	r3, r3, #2
 1437 00aa 5A46     		mov	r2, fp
 1438 00ac D158     		ldr	r1, [r2, r3]
 1439 00ae 4900     		lsls	r1, r1, #1
 1440 00b0 4908     		lsrs	r1, r1, #1
 1441 00b2 0098     		ldr	r0, [sp]
 1442 00b4 FFF7FEFF 		bl	__aeabi_fadd
 1443              	.LVL195:
 1444 00b8 0090     		str	r0, [sp]
 1445              	.LVL196:
 1446 00ba 0137     		adds	r7, r7, #1
 1447              	.LVL197:
 1448              	.L105:
 730:..\..\..\liblc3\src/spec.c ****         if (++z > 2*w)
 1449              		.loc 1 730 0
 1450 00bc 0134     		adds	r4, r4, #1
 1451              	.LVL198:
 1452              	.L104:
 730:..\..\..\liblc3\src/spec.c ****         if (++z > 2*w)
 1453              		.loc 1 730 0 is_stmt 0 discriminator 1
 1454 00be 4B46     		mov	r3, r9
 1455 00c0 F318     		adds	r3, r6, r3
 1456 00c2 9C42     		cmp	r4, r3
 1457 00c4 EBDB     		blt	.L106
 733:..\..\..\liblc3\src/spec.c **** 
 734:..\..\..\liblc3\src/spec.c ****     int nf = ns ? 8 - (int)((16 * sum) / ns + 0.5f) : 8;
 1458              		.loc 1 734 0 is_stmt 1
 1459 00c6 002F     		cmp	r7, #0
 1460 00c8 15D0     		beq	.L113
 1461              		.loc 1 734 0 is_stmt 0 discriminator 1
ARM GAS  C:\Users\rdn\AppData\Local\Temp\cciiQw7C.s 			page 41


 1462 00ca 8321     		movs	r1, #131
 1463 00cc C905     		lsls	r1, r1, #23
 1464 00ce 0098     		ldr	r0, [sp]
 1465 00d0 FFF7FEFF 		bl	__aeabi_fmul
 1466              	.LVL199:
 1467 00d4 041C     		adds	r4, r0, #0
 1468              	.LVL200:
 1469 00d6 3800     		movs	r0, r7
 1470 00d8 FFF7FEFF 		bl	__aeabi_i2f
 1471              	.LVL201:
 1472 00dc 011C     		adds	r1, r0, #0
 1473 00de 201C     		adds	r0, r4, #0
 1474 00e0 FFF7FEFF 		bl	__aeabi_fdiv
 1475              	.LVL202:
 1476 00e4 FC21     		movs	r1, #252
 1477 00e6 8905     		lsls	r1, r1, #22
 1478 00e8 FFF7FEFF 		bl	__aeabi_fadd
 1479              	.LVL203:
 1480 00ec FFF7FEFF 		bl	__aeabi_f2iz
 1481              	.LVL204:
 1482 00f0 0823     		movs	r3, #8
 1483 00f2 181A     		subs	r0, r3, r0
 1484 00f4 00E0     		b	.L107
 1485              	.LVL205:
 1486              	.L113:
 1487              		.loc 1 734 0
 1488 00f6 0820     		movs	r0, #8
 1489              	.LVL206:
 1490              	.L107:
 735:..\..\..\liblc3\src/spec.c **** 
 736:..\..\..\liblc3\src/spec.c ****     return LC3_CLIP(nf, 0, 7);
 1491              		.loc 1 736 0 is_stmt 1 discriminator 4
 1492 00f8 0628     		cmp	r0, #6
 1493 00fa 03DC     		bgt	.L114
 1494              		.loc 1 736 0 is_stmt 0 discriminator 1
 1495 00fc 0028     		cmp	r0, #0
 1496 00fe 02DA     		bge	.L108
 1497 0100 0020     		movs	r0, #0
 1498              	.LVL207:
 1499 0102 00E0     		b	.L108
 1500              	.LVL208:
 1501              	.L114:
 1502              		.loc 1 736 0
 1503 0104 0720     		movs	r0, #7
 1504              	.LVL209:
 1505              	.L108:
 737:..\..\..\liblc3\src/spec.c **** }
 1506              		.loc 1 737 0 is_stmt 1 discriminator 4
 1507 0106 03B0     		add	sp, sp, #12
 1508              	.LVL210:
 1509              		@ sp needed
 1510              	.LVL211:
 1511              	.LVL212:
 1512              	.LVL213:
 1513              	.LVL214:
 1514 0108 0CBC     		pop	{r2, r3}
 1515 010a 9146     		mov	r9, r2
ARM GAS  C:\Users\rdn\AppData\Local\Temp\cciiQw7C.s 			page 42


 1516 010c 9B46     		mov	fp, r3
 1517 010e F0BD     		pop	{r4, r5, r6, r7, pc}
 1518              	.L118:
 1519              		.align	2
 1520              	.L117:
 1521 0110 00000000 		.word	lc3_ne_2m5
 1522 0114 0000203F 		.word	1059061760
 1523              		.cfi_endproc
 1524              	.LFE34:
 1525              		.size	estimate_noise, .-estimate_noise
 1526              		.global	__aeabi_fcmpeq
 1527              		.section	.text.fill_noise,"ax",%progbits
 1528              		.align	2
 1529              		.code	16
 1530              		.thumb_func
 1531              		.type	fill_noise, %function
 1532              	fill_noise:
 1533              	.LFB35:
 738:..\..\..\liblc3\src/spec.c **** 
 739:..\..\..\liblc3\src/spec.c **** /**
 740:..\..\..\liblc3\src/spec.c ****  * Noise filling
 741:..\..\..\liblc3\src/spec.c ****  * dt, bw          Duration and bandwidth of the frame
 742:..\..\..\liblc3\src/spec.c ****  * nf, nf_seed     The noise factor and pseudo-random seed
 743:..\..\..\liblc3\src/spec.c ****  * g               Quantization gain
 744:..\..\..\liblc3\src/spec.c ****  * x, nq           Spectral quantized, and count of significants
 745:..\..\..\liblc3\src/spec.c ****  */
 746:..\..\..\liblc3\src/spec.c **** LC3_HOT static void fill_noise(enum lc3_dt dt, enum lc3_bandwidth bw,
 747:..\..\..\liblc3\src/spec.c ****     int nf, uint16_t nf_seed, float g, float *x, int nq)
 748:..\..\..\liblc3\src/spec.c **** {
 1534              		.loc 1 748 0
 1535              		.cfi_startproc
 1536              		@ args = 12, pretend = 0, frame = 8
 1537              		@ frame_needed = 0, uses_anonymous_args = 0
 1538              	.LVL215:
 1539 0000 F0B5     		push	{r4, r5, r6, r7, lr}
 1540              		.cfi_def_cfa_offset 20
 1541              		.cfi_offset 4, -20
 1542              		.cfi_offset 5, -16
 1543              		.cfi_offset 6, -12
 1544              		.cfi_offset 7, -8
 1545              		.cfi_offset 14, -4
 1546 0002 5F46     		mov	r7, fp
 1547 0004 5646     		mov	r6, r10
 1548 0006 C0B4     		push	{r6, r7}
 1549              		.cfi_def_cfa_offset 28
 1550              		.cfi_offset 10, -28
 1551              		.cfi_offset 11, -24
 1552 0008 83B0     		sub	sp, sp, #12
 1553              		.cfi_def_cfa_offset 40
 1554 000a 9B46     		mov	fp, r3
 1555 000c 0B9B     		ldr	r3, [sp, #44]
 1556              	.LVL216:
 1557 000e 9A46     		mov	r10, r3
 749:..\..\..\liblc3\src/spec.c ****     int bw_stop = lc3_ne(dt, (enum lc3_srate)LC3_MIN(bw, LC3_BANDWIDTH_FB));
 1558              		.loc 1 749 0
 1559 0010 0B1C     		adds	r3, r1, #0
 1560 0012 0429     		cmp	r1, #4
ARM GAS  C:\Users\rdn\AppData\Local\Temp\cciiQw7C.s 			page 43


 1561 0014 00D9     		bls	.L120
 1562 0016 0423     		movs	r3, #4
 1563              	.L120:
 1564 0018 DBB2     		uxtb	r3, r3
 1565              	.LVL217:
 1566              	.LBB117:
 1567              	.LBB118:
 1568              		.loc 2 51 0
 1569 001a 9B00     		lsls	r3, r3, #2
 1570              	.LVL218:
 1571 001c 3949     		ldr	r1, .L139
 1572              	.LVL219:
 1573 001e 5B58     		ldr	r3, [r3, r1]
 1574 0020 441C     		adds	r4, r0, #1
 1575 0022 6343     		muls	r3, r4
 1576 0024 1E00     		movs	r6, r3
 1577              	.LVL220:
 1578              	.LBE118:
 1579              	.LBE117:
 750:..\..\..\liblc3\src/spec.c ****     int w = 1 + (dt >= LC3_DT_7M5) + (dt>= LC3_DT_10M);
 1580              		.loc 1 750 0
 1581 0026 0128     		cmp	r0, #1
 1582 0028 01D9     		bls	.L133
 1583 002a 0221     		movs	r1, #2
 1584 002c 00E0     		b	.L121
 1585              	.L133:
 1586 002e 0121     		movs	r1, #1
 1587              	.L121:
 1588              		.loc 1 750 0 is_stmt 0 discriminator 4
 1589 0030 0223     		movs	r3, #2
 1590 0032 8342     		cmp	r3, r0
 1591 0034 8041     		sbcs	r0, r0, r0
 1592              	.LVL221:
 1593 0036 4042     		rsbs	r0, r0, #0
 1594 0038 0F18     		adds	r7, r1, r0
 1595              	.LVL222:
 751:..\..\..\liblc3\src/spec.c **** 
 752:..\..\..\liblc3\src/spec.c ****     float s = g * (float)(8 - nf) / 16;
 1596              		.loc 1 752 0 is_stmt 1 discriminator 4
 1597 003a 0820     		movs	r0, #8
 1598 003c 801A     		subs	r0, r0, r2
 1599 003e FFF7FEFF 		bl	__aeabi_i2f
 1600              	.LVL223:
 1601 0042 0A99     		ldr	r1, [sp, #40]
 1602 0044 FFF7FEFF 		bl	__aeabi_fmul
 1603              	.LVL224:
 1604 0048 F621     		movs	r1, #246
 1605 004a 8905     		lsls	r1, r1, #22
 1606 004c FFF7FEFF 		bl	__aeabi_fmul
 1607              	.LVL225:
 1608 0050 0190     		str	r0, [sp, #4]
 1609              	.LVL226:
 753:..\..\..\liblc3\src/spec.c ****     int i, z = 0;
 754:..\..\..\liblc3\src/spec.c **** 
 755:..\..\..\liblc3\src/spec.c ****     for (i = 6 * (1 + dt) - w; i < LC3_MIN(nq, bw_stop); i++) {
 1610              		.loc 1 755 0 discriminator 4
 1611 0052 6300     		lsls	r3, r4, #1
ARM GAS  C:\Users\rdn\AppData\Local\Temp\cciiQw7C.s 			page 44


 1612 0054 1C19     		adds	r4, r3, r4
 1613 0056 6300     		lsls	r3, r4, #1
 1614 0058 DC1B     		subs	r4, r3, r7
 1615              	.LVL227:
 753:..\..\..\liblc3\src/spec.c ****     int i, z = 0;
 1616              		.loc 1 753 0 discriminator 4
 1617 005a 0025     		movs	r5, #0
 1618              		.loc 1 755 0 discriminator 4
 1619 005c 26E0     		b	.L122
 1620              	.LVL228:
 1621              	.L128:
 756:..\..\..\liblc3\src/spec.c ****         z = x[i] ? 0 : z + 1;
 1622              		.loc 1 756 0
 1623 005e A300     		lsls	r3, r4, #2
 1624 0060 5246     		mov	r2, r10
 1625 0062 9858     		ldr	r0, [r3, r2]
 1626 0064 0021     		movs	r1, #0
 1627 0066 FFF7FEFF 		bl	__aeabi_fcmpeq
 1628              	.LVL229:
 1629 006a 0028     		cmp	r0, #0
 1630 006c 01D0     		beq	.L138
 1631              		.loc 1 756 0 is_stmt 0 discriminator 1
 1632 006e 0135     		adds	r5, r5, #1
 1633              	.LVL230:
 1634 0070 00E0     		b	.L123
 1635              	.LVL231:
 1636              	.L138:
 1637              		.loc 1 756 0
 1638 0072 0025     		movs	r5, #0
 1639              	.LVL232:
 1640              	.L123:
 757:..\..\..\liblc3\src/spec.c ****         if (z > 2*w) {
 1641              		.loc 1 757 0 is_stmt 1 discriminator 4
 1642 0074 7B00     		lsls	r3, r7, #1
 1643 0076 9D42     		cmp	r5, r3
 1644 0078 17DD     		ble	.L125
 758:..\..\..\liblc3\src/spec.c ****             nf_seed = (13849 + nf_seed*31821) & 0xffff;
 1645              		.loc 1 758 0
 1646 007a 234B     		ldr	r3, .L139+4
 1647 007c 5A46     		mov	r2, fp
 1648 007e 5343     		muls	r3, r2
 1649 0080 9BB2     		uxth	r3, r3
 1650 0082 224A     		ldr	r2, .L139+8
 1651 0084 9446     		mov	ip, r2
 1652 0086 6344     		add	r3, r3, ip
 1653 0088 9BB2     		uxth	r3, r3
 1654 008a 9B46     		mov	fp, r3
 1655              	.LVL233:
 759:..\..\..\liblc3\src/spec.c ****             x[i - w] = nf_seed & 0x8000 ? -s : s;
 1656              		.loc 1 759 0
 1657 008c E31B     		subs	r3, r4, r7
 1658 008e 9B00     		lsls	r3, r3, #2
 1659 0090 5344     		add	r3, r3, r10
 1660 0092 5A46     		mov	r2, fp
 1661 0094 12B2     		sxth	r2, r2
 1662 0096 002A     		cmp	r2, #0
 1663 0098 05DA     		bge	.L135
ARM GAS  C:\Users\rdn\AppData\Local\Temp\cciiQw7C.s 			page 45


 1664              		.loc 1 759 0 is_stmt 0 discriminator 1
 1665 009a 019A     		ldr	r2, [sp, #4]
 1666 009c 8021     		movs	r1, #128
 1667 009e 0906     		lsls	r1, r1, #24
 1668 00a0 8C46     		mov	ip, r1
 1669 00a2 6244     		add	r2, r2, ip
 1670 00a4 00E0     		b	.L126
 1671              	.L135:
 1672              		.loc 1 759 0
 1673 00a6 019A     		ldr	r2, [sp, #4]
 1674              	.L126:
 1675              		.loc 1 759 0 discriminator 4
 1676 00a8 1A60     		str	r2, [r3]
 1677              	.L125:
 755:..\..\..\liblc3\src/spec.c ****         z = x[i] ? 0 : z + 1;
 1678              		.loc 1 755 0 is_stmt 1 discriminator 2
 1679 00aa 0134     		adds	r4, r4, #1
 1680              	.LVL234:
 1681              	.L122:
 755:..\..\..\liblc3\src/spec.c ****         z = x[i] ? 0 : z + 1;
 1682              		.loc 1 755 0 is_stmt 0 discriminator 1
 1683 00ac 0C9B     		ldr	r3, [sp, #48]
 1684 00ae B342     		cmp	r3, r6
 1685 00b0 00DD     		ble	.L127
 1686 00b2 3300     		movs	r3, r6
 1687              	.L127:
 1688 00b4 9C42     		cmp	r4, r3
 1689 00b6 D2DB     		blt	.L128
 1690 00b8 1CE0     		b	.L129
 1691              	.L132:
 760:..\..\..\liblc3\src/spec.c ****         }
 761:..\..\..\liblc3\src/spec.c ****     }
 762:..\..\..\liblc3\src/spec.c **** 
 763:..\..\..\liblc3\src/spec.c ****     for ( ; i < bw_stop + w; i++)
 764:..\..\..\liblc3\src/spec.c ****         if (++z > 2*w) {
 1692              		.loc 1 764 0 is_stmt 1
 1693 00ba 0135     		adds	r5, r5, #1
 1694              	.LVL235:
 1695 00bc 7B00     		lsls	r3, r7, #1
 1696 00be 9D42     		cmp	r5, r3
 1697 00c0 17DD     		ble	.L130
 765:..\..\..\liblc3\src/spec.c ****             nf_seed = (13849 + nf_seed*31821) & 0xffff;
 1698              		.loc 1 765 0
 1699 00c2 114B     		ldr	r3, .L139+4
 1700 00c4 5A46     		mov	r2, fp
 1701 00c6 5343     		muls	r3, r2
 1702 00c8 9BB2     		uxth	r3, r3
 1703 00ca 104A     		ldr	r2, .L139+8
 1704 00cc 9446     		mov	ip, r2
 1705 00ce 6344     		add	r3, r3, ip
 1706 00d0 9BB2     		uxth	r3, r3
 1707 00d2 9B46     		mov	fp, r3
 1708              	.LVL236:
 766:..\..\..\liblc3\src/spec.c ****             x[i - w] = nf_seed & 0x8000 ? -s : s;
 1709              		.loc 1 766 0
 1710 00d4 E31B     		subs	r3, r4, r7
 1711 00d6 9B00     		lsls	r3, r3, #2
ARM GAS  C:\Users\rdn\AppData\Local\Temp\cciiQw7C.s 			page 46


 1712 00d8 5344     		add	r3, r3, r10
 1713 00da 5A46     		mov	r2, fp
 1714 00dc 12B2     		sxth	r2, r2
 1715 00de 002A     		cmp	r2, #0
 1716 00e0 05DA     		bge	.L136
 1717              		.loc 1 766 0 is_stmt 0 discriminator 1
 1718 00e2 019A     		ldr	r2, [sp, #4]
 1719 00e4 8021     		movs	r1, #128
 1720 00e6 0906     		lsls	r1, r1, #24
 1721 00e8 8C46     		mov	ip, r1
 1722 00ea 6244     		add	r2, r2, ip
 1723 00ec 00E0     		b	.L131
 1724              	.L136:
 1725              		.loc 1 766 0
 1726 00ee 019A     		ldr	r2, [sp, #4]
 1727              	.L131:
 1728              		.loc 1 766 0 discriminator 4
 1729 00f0 1A60     		str	r2, [r3]
 1730              	.L130:
 763:..\..\..\liblc3\src/spec.c ****         if (++z > 2*w) {
 1731              		.loc 1 763 0 is_stmt 1
 1732 00f2 0134     		adds	r4, r4, #1
 1733              	.LVL237:
 1734              	.L129:
 763:..\..\..\liblc3\src/spec.c ****         if (++z > 2*w) {
 1735              		.loc 1 763 0 is_stmt 0 discriminator 1
 1736 00f4 BB19     		adds	r3, r7, r6
 1737 00f6 9C42     		cmp	r4, r3
 1738 00f8 DFDB     		blt	.L132
 767:..\..\..\liblc3\src/spec.c ****         }
 768:..\..\..\liblc3\src/spec.c **** }
 1739              		.loc 1 768 0 is_stmt 1
 1740 00fa 03B0     		add	sp, sp, #12
 1741              		@ sp needed
 1742              	.LVL238:
 1743              	.LVL239:
 1744              	.LVL240:
 1745              	.LVL241:
 1746 00fc 0CBC     		pop	{r2, r3}
 1747 00fe 9246     		mov	r10, r2
 1748 0100 9B46     		mov	fp, r3
 1749 0102 F0BD     		pop	{r4, r5, r6, r7, pc}
 1750              	.L140:
 1751              		.align	2
 1752              	.L139:
 1753 0104 00000000 		.word	lc3_ne_2m5
 1754 0108 4D7C0000 		.word	31821
 1755 010c 19360000 		.word	13849
 1756              		.cfi_endproc
 1757              	.LFE35:
 1758              		.size	fill_noise, .-fill_noise
 1759              		.section	.text.get_nbits_nq,"ax",%progbits
 1760              		.align	2
 1761              		.code	16
 1762              		.thumb_func
 1763              		.type	get_nbits_nq, %function
 1764              	get_nbits_nq:
ARM GAS  C:\Users\rdn\AppData\Local\Temp\cciiQw7C.s 			page 47


 1765              	.LFB38:
 769:..\..\..\liblc3\src/spec.c **** 
 770:..\..\..\liblc3\src/spec.c **** /**
 771:..\..\..\liblc3\src/spec.c ****  * Put noise factor
 772:..\..\..\liblc3\src/spec.c ****  * bits            Bitstream context
 773:..\..\..\liblc3\src/spec.c ****  * nf              Noise factor (0 to 7)
 774:..\..\..\liblc3\src/spec.c ****  */
 775:..\..\..\liblc3\src/spec.c **** static void put_noise_factor(lc3_bits_t *bits, int nf)
 776:..\..\..\liblc3\src/spec.c **** {
 777:..\..\..\liblc3\src/spec.c ****     lc3_put_bits(bits, nf, 3);
 778:..\..\..\liblc3\src/spec.c **** }
 779:..\..\..\liblc3\src/spec.c **** 
 780:..\..\..\liblc3\src/spec.c **** /**
 781:..\..\..\liblc3\src/spec.c ****  * Get noise factor
 782:..\..\..\liblc3\src/spec.c ****  * bits            Bitstream context
 783:..\..\..\liblc3\src/spec.c ****  * return          Noise factor (0 to 7)
 784:..\..\..\liblc3\src/spec.c ****  */
 785:..\..\..\liblc3\src/spec.c **** static int get_noise_factor(lc3_bits_t *bits)
 786:..\..\..\liblc3\src/spec.c **** {
 787:..\..\..\liblc3\src/spec.c ****     return lc3_get_bits(bits, 3);
 788:..\..\..\liblc3\src/spec.c **** }
 789:..\..\..\liblc3\src/spec.c **** 
 790:..\..\..\liblc3\src/spec.c **** 
 791:..\..\..\liblc3\src/spec.c **** /* ----------------------------------------------------------------------------
 792:..\..\..\liblc3\src/spec.c ****  *  Encoding
 793:..\..\..\liblc3\src/spec.c ****  * -------------------------------------------------------------------------- */
 794:..\..\..\liblc3\src/spec.c **** 
 795:..\..\..\liblc3\src/spec.c **** /**
 796:..\..\..\liblc3\src/spec.c ****  * Bit consumption of the number of coded coefficients
 797:..\..\..\liblc3\src/spec.c ****  * dt, sr, nbytes  Duration, samplerate and size of the frame
 798:..\..\..\liblc3\src/spec.c ****  * return          Bit consumpution of the number of coded coefficients
 799:..\..\..\liblc3\src/spec.c ****  */
 800:..\..\..\liblc3\src/spec.c **** static int get_nbits_nq(enum lc3_dt dt, enum lc3_srate sr)
 801:..\..\..\liblc3\src/spec.c **** {
 1766              		.loc 1 801 0
 1767              		.cfi_startproc
 1768              		@ args = 0, pretend = 0, frame = 0
 1769              		@ frame_needed = 0, uses_anonymous_args = 0
 1770              	.LVL242:
 1771 0000 10B5     		push	{r4, lr}
 1772              		.cfi_def_cfa_offset 8
 1773              		.cfi_offset 4, -8
 1774              		.cfi_offset 14, -4
 1775              	.LVL243:
 1776              	.LBB119:
 1777              	.LBB120:
 1778              		.loc 2 51 0
 1779 0002 8900     		lsls	r1, r1, #2
 1780              	.LVL244:
 1781 0004 104B     		ldr	r3, .L148
 1782 0006 CB58     		ldr	r3, [r1, r3]
 1783 0008 0130     		adds	r0, r0, #1
 1784              	.LVL245:
 1785 000a 4343     		muls	r3, r0
 1786              	.LVL246:
 1787              	.LBE120:
 1788              	.LBE119:
ARM GAS  C:\Users\rdn\AppData\Local\Temp\cciiQw7C.s 			page 48


 802:..\..\..\liblc3\src/spec.c ****     int ne = lc3_ne(dt, sr);
 803:..\..\..\liblc3\src/spec.c ****     return 4 + (ne > 32) + (ne > 64) + (ne > 128) + (ne > 256) + (ne > 512);
 1789              		.loc 1 803 0
 1790 000c 202B     		cmp	r3, #32
 1791 000e 01DD     		ble	.L147
 1792 0010 0524     		movs	r4, #5
 1793 0012 00E0     		b	.L142
 1794              	.L147:
 1795 0014 0424     		movs	r4, #4
 1796              	.L142:
 1797              		.loc 1 803 0 is_stmt 0 discriminator 4
 1798 0016 0120     		movs	r0, #1
 1799 0018 402B     		cmp	r3, #64
 1800 001a 00DC     		bgt	.L143
 1801 001c 0020     		movs	r0, #0
 1802              	.L143:
 1803 001e 2018     		adds	r0, r4, r0
 1804 0020 0124     		movs	r4, #1
 1805 0022 802B     		cmp	r3, #128
 1806 0024 00DC     		bgt	.L144
 1807 0026 0024     		movs	r4, #0
 1808              	.L144:
 1809 0028 0019     		adds	r0, r0, r4
 1810 002a 0121     		movs	r1, #1
 1811 002c 8022     		movs	r2, #128
 1812 002e 5200     		lsls	r2, r2, #1
 1813 0030 9342     		cmp	r3, r2
 1814 0032 00DC     		bgt	.L145
 1815 0034 0021     		movs	r1, #0
 1816              	.L145:
 1817 0036 4018     		adds	r0, r0, r1
 1818 0038 0122     		movs	r2, #1
 1819 003a 8021     		movs	r1, #128
 1820 003c 8900     		lsls	r1, r1, #2
 1821 003e 8B42     		cmp	r3, r1
 1822 0040 00DC     		bgt	.L146
 1823 0042 0022     		movs	r2, #0
 1824              	.L146:
 1825 0044 8018     		adds	r0, r0, r2
 804:..\..\..\liblc3\src/spec.c **** }
 1826              		.loc 1 804 0 is_stmt 1 discriminator 4
 1827              		@ sp needed
 1828 0046 10BD     		pop	{r4, pc}
 1829              	.L149:
 1830              		.align	2
 1831              	.L148:
 1832 0048 00000000 		.word	lc3_ne_2m5
 1833              		.cfi_endproc
 1834              	.LFE38:
 1835              		.size	get_nbits_nq, .-get_nbits_nq
 1836              		.section	.text.get_nbits_ac,"ax",%progbits
 1837              		.align	2
 1838              		.code	16
 1839              		.thumb_func
 1840              		.type	get_nbits_ac, %function
 1841              	get_nbits_ac:
 1842              	.LFB39:
ARM GAS  C:\Users\rdn\AppData\Local\Temp\cciiQw7C.s 			page 49


 805:..\..\..\liblc3\src/spec.c **** 
 806:..\..\..\liblc3\src/spec.c **** /**
 807:..\..\..\liblc3\src/spec.c ****  * Bit consumption of the arithmetic coder
 808:..\..\..\liblc3\src/spec.c ****  * dt, sr, nbytes  Duration, samplerate and size of the frame
 809:..\..\..\liblc3\src/spec.c ****  * return          Bit consumption of bitstream data
 810:..\..\..\liblc3\src/spec.c ****  */
 811:..\..\..\liblc3\src/spec.c **** static int get_nbits_ac(enum lc3_dt dt, enum lc3_srate sr, int nbytes)
 812:..\..\..\liblc3\src/spec.c **** {
 1843              		.loc 1 812 0
 1844              		.cfi_startproc
 1845              		@ args = 0, pretend = 0, frame = 0
 1846              		@ frame_needed = 0, uses_anonymous_args = 0
 1847              	.LVL247:
 1848 0000 70B5     		push	{r4, r5, r6, lr}
 1849              		.cfi_def_cfa_offset 16
 1850              		.cfi_offset 4, -16
 1851              		.cfi_offset 5, -12
 1852              		.cfi_offset 6, -8
 1853              		.cfi_offset 14, -4
 1854 0002 0D00     		movs	r5, r1
 1855 0004 1600     		movs	r6, r2
 813:..\..\..\liblc3\src/spec.c ****     return get_nbits_nq(dt, sr) +
 1856              		.loc 1 813 0
 1857 0006 FFF7FEFF 		bl	get_nbits_nq
 1858              	.LVL248:
 1859 000a 0330     		adds	r0, r0, #3
 1860              	.LVL249:
 1861              	.LBB121:
 1862              	.LBB122:
 1863              		.file 3 "..\\..\\..\\liblc3\\src\\common.h"
   1:..\..\..\liblc3\src/common.h **** /******************************************************************************
   2:..\..\..\liblc3\src/common.h ****  *
   3:..\..\..\liblc3\src/common.h ****  *  Copyright 2022 Google LLC
   4:..\..\..\liblc3\src/common.h ****  *
   5:..\..\..\liblc3\src/common.h ****  *  Licensed under the Apache License, Version 2.0 (the "License");
   6:..\..\..\liblc3\src/common.h ****  *  you may not use this file except in compliance with the License.
   7:..\..\..\liblc3\src/common.h ****  *  You may obtain a copy of the License at:
   8:..\..\..\liblc3\src/common.h ****  *
   9:..\..\..\liblc3\src/common.h ****  *  http://www.apache.org/licenses/LICENSE-2.0
  10:..\..\..\liblc3\src/common.h ****  *
  11:..\..\..\liblc3\src/common.h ****  *  Unless required by applicable law or agreed to in writing, software
  12:..\..\..\liblc3\src/common.h ****  *  distributed under the License is distributed on an "AS IS" BASIS,
  13:..\..\..\liblc3\src/common.h ****  *  WITHOUT WARRANTIES OR CONDITIONS OF ANY KIND, either express or implied.
  14:..\..\..\liblc3\src/common.h ****  *  See the License for the specific language governing permissions and
  15:..\..\..\liblc3\src/common.h ****  *  limitations under the License.
  16:..\..\..\liblc3\src/common.h ****  *
  17:..\..\..\liblc3\src/common.h ****  ******************************************************************************/
  18:..\..\..\liblc3\src/common.h **** 
  19:..\..\..\liblc3\src/common.h **** #ifndef __LC3_COMMON_H
  20:..\..\..\liblc3\src/common.h **** #define __LC3_COMMON_H
  21:..\..\..\liblc3\src/common.h **** 
  22:..\..\..\liblc3\src/common.h **** #include <lc3.h>
  23:..\..\..\liblc3\src/common.h **** #include "fastmath.h"
  24:..\..\..\liblc3\src/common.h **** 
  25:..\..\..\liblc3\src/common.h **** #include <limits.h>
  26:..\..\..\liblc3\src/common.h **** #include <stdalign.h>
  27:..\..\..\liblc3\src/common.h **** #include <string.h>
ARM GAS  C:\Users\rdn\AppData\Local\Temp\cciiQw7C.s 			page 50


  28:..\..\..\liblc3\src/common.h **** 
  29:..\..\..\liblc3\src/common.h **** #ifdef __ARM_ARCH
  30:..\..\..\liblc3\src/common.h **** #include <arm_acle.h>
  31:..\..\..\liblc3\src/common.h **** #endif
  32:..\..\..\liblc3\src/common.h **** 
  33:..\..\..\liblc3\src/common.h **** 
  34:..\..\..\liblc3\src/common.h **** /**
  35:..\..\..\liblc3\src/common.h ****  * Acivation flags for LC3-Plus and LC3-Plus HR features
  36:..\..\..\liblc3\src/common.h ****  */
  37:..\..\..\liblc3\src/common.h **** 
  38:..\..\..\liblc3\src/common.h **** #ifndef LC3_PLUS
  39:..\..\..\liblc3\src/common.h **** #define LC3_PLUS 1
  40:..\..\..\liblc3\src/common.h **** #endif
  41:..\..\..\liblc3\src/common.h **** 
  42:..\..\..\liblc3\src/common.h **** #ifndef LC3_PLUS_HR
  43:..\..\..\liblc3\src/common.h **** #define LC3_PLUS_HR 1
  44:..\..\..\liblc3\src/common.h **** #endif
  45:..\..\..\liblc3\src/common.h **** 
  46:..\..\..\liblc3\src/common.h **** #if LC3_PLUS
  47:..\..\..\liblc3\src/common.h **** #define LC3_IF_PLUS(a, b) (a)
  48:..\..\..\liblc3\src/common.h **** #else
  49:..\..\..\liblc3\src/common.h **** #define LC3_IF_PLUS(a, b) (b)
  50:..\..\..\liblc3\src/common.h **** #endif
  51:..\..\..\liblc3\src/common.h **** 
  52:..\..\..\liblc3\src/common.h **** #if LC3_PLUS_HR
  53:..\..\..\liblc3\src/common.h **** #define LC3_IF_PLUS_HR(a, b) (a)
  54:..\..\..\liblc3\src/common.h **** #else
  55:..\..\..\liblc3\src/common.h **** #define LC3_IF_PLUS_HR(a, b) (b)
  56:..\..\..\liblc3\src/common.h **** #endif
  57:..\..\..\liblc3\src/common.h **** 
  58:..\..\..\liblc3\src/common.h **** 
  59:..\..\..\liblc3\src/common.h **** /**
  60:..\..\..\liblc3\src/common.h ****  * Hot Function attribute
  61:..\..\..\liblc3\src/common.h ****  * Selectively disable sanitizer
  62:..\..\..\liblc3\src/common.h ****  */
  63:..\..\..\liblc3\src/common.h **** 
  64:..\..\..\liblc3\src/common.h **** #ifdef __clang__
  65:..\..\..\liblc3\src/common.h **** 
  66:..\..\..\liblc3\src/common.h **** #define LC3_HOT \
  67:..\..\..\liblc3\src/common.h ****     __attribute__((no_sanitize("bounds"))) \
  68:..\..\..\liblc3\src/common.h ****     __attribute__((no_sanitize("integer")))
  69:..\..\..\liblc3\src/common.h **** 
  70:..\..\..\liblc3\src/common.h **** #else /* __clang__ */
  71:..\..\..\liblc3\src/common.h **** 
  72:..\..\..\liblc3\src/common.h **** #define LC3_HOT
  73:..\..\..\liblc3\src/common.h **** 
  74:..\..\..\liblc3\src/common.h **** #endif /* __clang__ */
  75:..\..\..\liblc3\src/common.h **** 
  76:..\..\..\liblc3\src/common.h **** 
  77:..\..\..\liblc3\src/common.h **** /**
  78:..\..\..\liblc3\src/common.h ****  * Macros
  79:..\..\..\liblc3\src/common.h ****  * MIN/MAX  Minimum and maximum between 2 values
  80:..\..\..\liblc3\src/common.h ****  * CLIP     Clip a value between low and high limits
  81:..\..\..\liblc3\src/common.h ****  * SATXX    Signed saturation on 'xx' bits
  82:..\..\..\liblc3\src/common.h ****  * ABS      Return absolute value
  83:..\..\..\liblc3\src/common.h ****  */
  84:..\..\..\liblc3\src/common.h **** 
ARM GAS  C:\Users\rdn\AppData\Local\Temp\cciiQw7C.s 			page 51


  85:..\..\..\liblc3\src/common.h **** #define LC3_MIN(a, b)  ( (a) < (b) ?  (a) : (b) )
  86:..\..\..\liblc3\src/common.h **** #define LC3_MAX(a, b)  ( (a) > (b) ?  (a) : (b) )
  87:..\..\..\liblc3\src/common.h **** 
  88:..\..\..\liblc3\src/common.h **** #define LC3_CLIP(v, min, max)  LC3_MIN(LC3_MAX(v, min), max)
  89:..\..\..\liblc3\src/common.h **** #define LC3_SAT16(v)  LC3_CLIP(v, -(1 << 15), (1 << 15) - 1)
  90:..\..\..\liblc3\src/common.h **** #define LC3_SAT24(v)  LC3_CLIP(v, -(1 << 23), (1 << 23) - 1)
  91:..\..\..\liblc3\src/common.h **** 
  92:..\..\..\liblc3\src/common.h **** #define LC3_ABS(v)  ( (v) < 0 ? -(v) : (v) )
  93:..\..\..\liblc3\src/common.h **** 
  94:..\..\..\liblc3\src/common.h **** 
  95:..\..\..\liblc3\src/common.h **** #if defined(__ARM_FEATURE_SAT) && !(__GNUC__ < 10)
  96:..\..\..\liblc3\src/common.h **** 
  97:..\..\..\liblc3\src/common.h **** #undef  LC3_SAT16
  98:..\..\..\liblc3\src/common.h **** #define LC3_SAT16(v) __ssat(v, 16)
  99:..\..\..\liblc3\src/common.h **** 
 100:..\..\..\liblc3\src/common.h **** #undef  LC3_SAT24
 101:..\..\..\liblc3\src/common.h **** #define LC3_SAT24(v) __ssat(v, 24)
 102:..\..\..\liblc3\src/common.h **** 
 103:..\..\..\liblc3\src/common.h **** #endif /* __ARM_FEATURE_SAT */
 104:..\..\..\liblc3\src/common.h **** 
 105:..\..\..\liblc3\src/common.h **** 
 106:..\..\..\liblc3\src/common.h **** /**
 107:..\..\..\liblc3\src/common.h ****  * Return `true` when high-resolution mode
 108:..\..\..\liblc3\src/common.h ****  */
 109:..\..\..\liblc3\src/common.h **** static inline bool lc3_hr(enum lc3_srate sr) {
 110:..\..\..\liblc3\src/common.h ****     return LC3_PLUS_HR && (sr >= LC3_SRATE_48K_HR);
 1864              		.loc 3 110 0
 1865 000c 0424     		movs	r4, #4
 1866 000e AC42     		cmp	r4, r5
 1867 0010 A441     		sbcs	r4, r4, r4
 1868 0012 6442     		rsbs	r4, r4, #0
 1869              	.LVL250:
 1870              	.LBE122:
 1871              	.LBE121:
 814:..\..\..\liblc3\src/spec.c ****         3 + lc3_hr(sr) + LC3_MIN((nbytes-1) / 160, 2);
 1872              		.loc 1 814 0
 1873 0014 2418     		adds	r4, r4, r0
 1874 0016 701E     		subs	r0, r6, #1
 1875 0018 4023     		movs	r3, #64
 1876 001a FF33     		adds	r3, r3, #255
 1877 001c 9842     		cmp	r0, r3
 1878 001e 03DC     		bgt	.L152
 1879              		.loc 1 814 0 is_stmt 0 discriminator 1
 1880 0020 A021     		movs	r1, #160
 1881 0022 FFF7FEFF 		bl	__aeabi_idiv
 1882              	.LVL251:
 1883 0026 00E0     		b	.L151
 1884              	.L152:
 1885              		.loc 1 814 0
 1886 0028 0220     		movs	r0, #2
 1887              	.L151:
 813:..\..\..\liblc3\src/spec.c ****     return get_nbits_nq(dt, sr) +
 1888              		.loc 1 813 0 is_stmt 1
 1889 002a 0019     		adds	r0, r0, r4
 815:..\..\..\liblc3\src/spec.c **** }
 1890              		.loc 1 815 0
 1891              		@ sp needed
ARM GAS  C:\Users\rdn\AppData\Local\Temp\cciiQw7C.s 			page 52


 1892              	.LVL252:
 1893 002c 70BD     		pop	{r4, r5, r6, pc}
 1894              		.cfi_endproc
 1895              	.LFE39:
 1896              		.size	get_nbits_ac, .-get_nbits_ac
 1897              		.global	__aeabi_fsub
 1898              		.global	__aeabi_fcmplt
 1899 002e C046     		.section	.text.estimate_gain,"ax",%progbits
 1900              		.align	2
 1901              		.code	16
 1902              		.thumb_func
 1903              		.type	estimate_gain, %function
 1904              	estimate_gain:
 1905              	.LFB22:
  86:..\..\..\liblc3\src/spec.c ****     int n4 = lc3_ne(dt, sr) / 4;
 1906              		.loc 1 86 0
 1907              		.cfi_startproc
 1908              		@ args = 20, pretend = 0, frame = 1024
 1909              		@ frame_needed = 0, uses_anonymous_args = 0
 1910              	.LVL253:
 1911 0000 F0B5     		push	{r4, r5, r6, r7, lr}
 1912              		.cfi_def_cfa_offset 20
 1913              		.cfi_offset 4, -20
 1914              		.cfi_offset 5, -16
 1915              		.cfi_offset 6, -12
 1916              		.cfi_offset 7, -8
 1917              		.cfi_offset 14, -4
 1918 0002 5F46     		mov	r7, fp
 1919 0004 5646     		mov	r6, r10
 1920 0006 4D46     		mov	r5, r9
 1921 0008 4446     		mov	r4, r8
 1922 000a F0B4     		push	{r4, r5, r6, r7}
 1923              		.cfi_def_cfa_offset 36
 1924              		.cfi_offset 8, -36
 1925              		.cfi_offset 9, -32
 1926              		.cfi_offset 10, -28
 1927              		.cfi_offset 11, -24
 1928 000c E94C     		ldr	r4, .L195
 1929 000e A544     		add	sp, sp, r4
 1930              		.cfi_def_cfa_offset 1064
 1931 0010 0500     		movs	r5, r0
 1932 0012 0800     		movs	r0, r1
 1933              	.LVL254:
 1934 0014 1700     		movs	r7, r2
 1935 0016 9846     		mov	r8, r3
 1936 0018 FFAA     		add	r2, sp, #1020
 1937              	.LVL255:
 1938 001a 3C32     		adds	r2, r2, #60
 1939 001c 1268     		ldr	r2, [r2]
 1940 001e 9346     		mov	fp, r2
 1941              	.LVL256:
 1942              	.LBB140:
 1943              	.LBB141:
 1944              		.loc 2 51 0
 1945 0020 8A00     		lsls	r2, r1, #2
 1946 0022 E54B     		ldr	r3, .L195+4
 1947              	.LVL257:
ARM GAS  C:\Users\rdn\AppData\Local\Temp\cciiQw7C.s 			page 53


 1948 0024 D358     		ldr	r3, [r2, r3]
 1949 0026 6A1C     		adds	r2, r5, #1
 1950 0028 9146     		mov	r9, r2
 1951 002a 5343     		muls	r3, r2
 1952              	.LVL258:
 1953              	.LBE141:
 1954              	.LBE140:
  87:..\..\..\liblc3\src/spec.c ****     union { float f; int32_t q16; } e[LC3_MAX_NE / 4];
 1955              		.loc 1 87 0
 1956 002c DA17     		asrs	r2, r3, #31
 1957 002e 0321     		movs	r1, #3
 1958              	.LVL259:
 1959 0030 0A40     		ands	r2, r1
 1960 0032 D318     		adds	r3, r2, r3
 1961 0034 9E10     		asrs	r6, r3, #2
 1962              	.LVL260:
  95:..\..\..\liblc3\src/spec.c ****         int reg_c = (const int [LC3_NUM_DT][LC3_NUM_SRATE - LC3_SRATE_48K_HR]){
 1963              		.loc 1 95 0
 1964 0036 0590     		str	r0, [sp, #20]
 1965 0038 0428     		cmp	r0, #4
 1966 003a 00D8     		bhi	.LCB2255
 1967 003c B9E0     		b	.L183	@long jump
 1968              	.LCB2255:
 1969              	.LBB142:
  96:..\..\..\liblc3\src/spec.c ****             [LC3_DT_2M5] = { -6, -6 },
 1970              		.loc 1 96 0
 1971 003e F8AC     		add	r4, sp, #992
 1972 0040 2022     		movs	r2, #32
 1973 0042 0021     		movs	r1, #0
 1974 0044 2000     		movs	r0, r4
 1975 0046 FFF7FEFF 		bl	memset
 1976              	.LVL261:
 1977 004a 0623     		movs	r3, #6
 1978 004c 5B42     		rsbs	r3, r3, #0
 1979 004e F893     		str	r3, [sp, #992]
 1980 0050 6360     		str	r3, [r4, #4]
 1981 0052 0833     		adds	r3, r3, #8
 1982 0054 A361     		str	r3, [r4, #24]
 1983 0056 0333     		adds	r3, r3, #3
 1984 0058 E361     		str	r3, [r4, #28]
 100:..\..\..\liblc3\src/spec.c **** 
 1985              		.loc 1 100 0
 1986 005a 059B     		ldr	r3, [sp, #20]
 1987 005c 053B     		subs	r3, r3, #5
  96:..\..\..\liblc3\src/spec.c ****             [LC3_DT_2M5] = { -6, -6 },
 1988              		.loc 1 96 0
 1989 005e 6A00     		lsls	r2, r5, #1
 1990 0060 D318     		adds	r3, r2, r3
 1991 0062 9B00     		lsls	r3, r3, #2
 1992 0064 1C59     		ldr	r4, [r3, r4]
 1993              	.LVL262:
 102:..\..\..\liblc3\src/spec.c ****         reg_bits = LC3_CLIP(reg_bits + reg_c, 6, 23);
 1994              		.loc 1 102 0
 1995 0066 4346     		mov	r3, r8
 1996 0068 5801     		lsls	r0, r3, #5
 1997 006a 4B46     		mov	r3, r9
 1998 006c 5901     		lsls	r1, r3, #5
ARM GAS  C:\Users\rdn\AppData\Local\Temp\cciiQw7C.s 			page 54


 1999 006e C91A     		subs	r1, r1, r3
 2000 0070 8900     		lsls	r1, r1, #2
 2001 0072 4944     		add	r1, r1, r9
 2002 0074 FFF7FEFF 		bl	__aeabi_idiv
 2003              	.LVL263:
 103:..\..\..\liblc3\src/spec.c **** 
 2004              		.loc 1 103 0
 2005 0078 2418     		adds	r4, r4, r0
 2006              	.LVL264:
 2007 007a 162C     		cmp	r4, #22
 2008 007c 05DC     		bgt	.L184
 103:..\..\..\liblc3\src/spec.c **** 
 2009              		.loc 1 103 0 is_stmt 0 discriminator 1
 2010 007e A246     		mov	r10, r4
 2011 0080 062C     		cmp	r4, #6
 2012 0082 04DA     		bge	.L155
 2013 0084 0623     		movs	r3, #6
 2014 0086 9A46     		mov	r10, r3
 2015 0088 01E0     		b	.L155
 2016              	.L184:
 103:..\..\..\liblc3\src/spec.c **** 
 2017              		.loc 1 103 0
 2018 008a 1723     		movs	r3, #23
 2019 008c 9A46     		mov	r10, r3
 2020              	.L155:
 2021              	.LVL265:
 2022              	.LBB143:
 107:..\..\..\liblc3\src/spec.c ****             m0 += fabsf(x[4*i + 0]),  m1 += fabsf(x[4*i + 0]) * k++;
 2023              		.loc 1 107 0 is_stmt 1 discriminator 4
 2024 008e 0025     		movs	r5, #0
 2025              	.LVL266:
 2026              	.LBE143:
 105:..\..\..\liblc3\src/spec.c **** 
 2027              		.loc 1 105 0 discriminator 4
 2028 0090 0023     		movs	r3, #0
 2029 0092 0093     		str	r3, [sp]
 2030 0094 C94B     		ldr	r3, .L195+8
 2031 0096 0293     		str	r3, [sp, #8]
 2032 0098 0193     		str	r3, [sp, #4]
 2033 009a D046     		mov	r8, r10
 2034              	.LVL267:
 2035 009c DA46     		mov	r10, fp
 2036              	.LVL268:
 2037 009e B346     		mov	fp, r6
 2038 00a0 3E00     		movs	r6, r7
 2039              	.LVL269:
 2040 00a2 2F00     		movs	r7, r5
 2041              	.LVL270:
 2042              	.LBB144:
 107:..\..\..\liblc3\src/spec.c ****             m0 += fabsf(x[4*i + 0]),  m1 += fabsf(x[4*i + 0]) * k++;
 2043              		.loc 1 107 0 discriminator 4
 2044 00a4 63E0     		b	.L157
 2045              	.LVL271:
 2046              	.L158:
 108:..\..\..\liblc3\src/spec.c ****             m0 += fabsf(x[4*i + 1]),  m1 += fabsf(x[4*i + 1]) * k++;
 2047              		.loc 1 108 0 discriminator 3
 2048 00a6 3D01     		lsls	r5, r7, #4
ARM GAS  C:\Users\rdn\AppData\Local\Temp\cciiQw7C.s 			page 55


 2049 00a8 7359     		ldr	r3, [r6, r5]
 2050 00aa 5C00     		lsls	r4, r3, #1
 2051 00ac 6408     		lsrs	r4, r4, #1
 2052 00ae 211C     		adds	r1, r4, #0
 2053 00b0 0198     		ldr	r0, [sp, #4]
 2054 00b2 FFF7FEFF 		bl	__aeabi_fadd
 2055              	.LVL272:
 2056 00b6 0390     		str	r0, [sp, #12]
 2057              	.LVL273:
 2058 00b8 FE21     		movs	r1, #254
 2059 00ba 8905     		lsls	r1, r1, #22
 2060 00bc 0098     		ldr	r0, [sp]
 2061              	.LVL274:
 2062 00be FFF7FEFF 		bl	__aeabi_fadd
 2063              	.LVL275:
 2064 00c2 0190     		str	r0, [sp, #4]
 2065              	.LVL276:
 2066 00c4 211C     		adds	r1, r4, #0
 2067 00c6 0098     		ldr	r0, [sp]
 2068              	.LVL277:
 2069 00c8 FFF7FEFF 		bl	__aeabi_fmul
 2070              	.LVL278:
 2071 00cc 011C     		adds	r1, r0, #0
 2072 00ce 0298     		ldr	r0, [sp, #8]
 2073 00d0 FFF7FEFF 		bl	__aeabi_fadd
 2074              	.LVL279:
 2075 00d4 0290     		str	r0, [sp, #8]
 2076              	.LVL280:
 109:..\..\..\liblc3\src/spec.c ****             m0 += fabsf(x[4*i + 2]),  m1 += fabsf(x[4*i + 2]) * k++;
 2077              		.loc 1 109 0 discriminator 3
 2078 00d6 2B1D     		adds	r3, r5, #4
 2079 00d8 F458     		ldr	r4, [r6, r3]
 2080 00da 6400     		lsls	r4, r4, #1
 2081 00dc 6408     		lsrs	r4, r4, #1
 2082 00de 211C     		adds	r1, r4, #0
 2083 00e0 0398     		ldr	r0, [sp, #12]
 2084              	.LVL281:
 2085 00e2 FFF7FEFF 		bl	__aeabi_fadd
 2086              	.LVL282:
 2087 00e6 0390     		str	r0, [sp, #12]
 2088              	.LVL283:
 2089 00e8 FE21     		movs	r1, #254
 2090 00ea 8905     		lsls	r1, r1, #22
 2091 00ec 0198     		ldr	r0, [sp, #4]
 2092              	.LVL284:
 2093 00ee FFF7FEFF 		bl	__aeabi_fadd
 2094              	.LVL285:
 2095 00f2 0090     		str	r0, [sp]
 2096              	.LVL286:
 2097 00f4 211C     		adds	r1, r4, #0
 2098 00f6 0198     		ldr	r0, [sp, #4]
 2099              	.LVL287:
 2100 00f8 FFF7FEFF 		bl	__aeabi_fmul
 2101              	.LVL288:
 2102 00fc 011C     		adds	r1, r0, #0
 2103 00fe 0298     		ldr	r0, [sp, #8]
 2104 0100 FFF7FEFF 		bl	__aeabi_fadd
ARM GAS  C:\Users\rdn\AppData\Local\Temp\cciiQw7C.s 			page 56


 2105              	.LVL289:
 2106 0104 0190     		str	r0, [sp, #4]
 2107              	.LVL290:
 110:..\..\..\liblc3\src/spec.c ****             m0 += fabsf(x[4*i + 3]),  m1 += fabsf(x[4*i + 3]) * k++;
 2108              		.loc 1 110 0 discriminator 3
 2109 0106 2B00     		movs	r3, r5
 2110 0108 0833     		adds	r3, r3, #8
 2111 010a F458     		ldr	r4, [r6, r3]
 2112 010c 6400     		lsls	r4, r4, #1
 2113 010e 6408     		lsrs	r4, r4, #1
 2114 0110 211C     		adds	r1, r4, #0
 2115 0112 0398     		ldr	r0, [sp, #12]
 2116              	.LVL291:
 2117 0114 FFF7FEFF 		bl	__aeabi_fadd
 2118              	.LVL292:
 2119 0118 0290     		str	r0, [sp, #8]
 2120              	.LVL293:
 2121 011a FE21     		movs	r1, #254
 2122 011c 8905     		lsls	r1, r1, #22
 2123 011e 0098     		ldr	r0, [sp]
 2124              	.LVL294:
 2125 0120 FFF7FEFF 		bl	__aeabi_fadd
 2126              	.LVL295:
 2127 0124 0390     		str	r0, [sp, #12]
 2128              	.LVL296:
 2129 0126 211C     		adds	r1, r4, #0
 2130 0128 0098     		ldr	r0, [sp]
 2131              	.LVL297:
 2132 012a FFF7FEFF 		bl	__aeabi_fmul
 2133              	.LVL298:
 2134 012e 011C     		adds	r1, r0, #0
 2135 0130 0198     		ldr	r0, [sp, #4]
 2136 0132 FFF7FEFF 		bl	__aeabi_fadd
 2137              	.LVL299:
 2138 0136 0490     		str	r0, [sp, #16]
 2139              	.LVL300:
 111:..\..\..\liblc3\src/spec.c ****         }
 2140              		.loc 1 111 0 discriminator 3
 2141 0138 2B00     		movs	r3, r5
 2142 013a 0C33     		adds	r3, r3, #12
 2143 013c F458     		ldr	r4, [r6, r3]
 2144 013e 6400     		lsls	r4, r4, #1
 2145 0140 6408     		lsrs	r4, r4, #1
 2146 0142 211C     		adds	r1, r4, #0
 2147 0144 0298     		ldr	r0, [sp, #8]
 2148              	.LVL301:
 2149 0146 FFF7FEFF 		bl	__aeabi_fadd
 2150              	.LVL302:
 2151 014a 0190     		str	r0, [sp, #4]
 2152              	.LVL303:
 2153 014c FE21     		movs	r1, #254
 2154 014e 8905     		lsls	r1, r1, #22
 2155 0150 039D     		ldr	r5, [sp, #12]
 2156 0152 281C     		adds	r0, r5, #0
 2157              	.LVL304:
 2158 0154 FFF7FEFF 		bl	__aeabi_fadd
 2159              	.LVL305:
ARM GAS  C:\Users\rdn\AppData\Local\Temp\cciiQw7C.s 			page 57


 2160 0158 0090     		str	r0, [sp]
 2161              	.LVL306:
 2162 015a 211C     		adds	r1, r4, #0
 2163 015c 281C     		adds	r0, r5, #0
 2164              	.LVL307:
 2165 015e FFF7FEFF 		bl	__aeabi_fmul
 2166              	.LVL308:
 2167 0162 011C     		adds	r1, r0, #0
 2168 0164 0498     		ldr	r0, [sp, #16]
 2169 0166 FFF7FEFF 		bl	__aeabi_fadd
 2170              	.LVL309:
 2171 016a 0290     		str	r0, [sp, #8]
 2172              	.LVL310:
 107:..\..\..\liblc3\src/spec.c ****             m0 += fabsf(x[4*i + 0]),  m1 += fabsf(x[4*i + 0]) * k++;
 2173              		.loc 1 107 0 discriminator 3
 2174 016c 0137     		adds	r7, r7, #1
 2175              	.LVL311:
 2176              	.L157:
 107:..\..\..\liblc3\src/spec.c ****             m0 += fabsf(x[4*i + 0]),  m1 += fabsf(x[4*i + 0]) * k++;
 2177              		.loc 1 107 0 is_stmt 0 discriminator 1
 2178 016e 5F45     		cmp	r7, fp
 2179 0170 99DB     		blt	.L158
 2180 0172 3700     		movs	r7, r6
 2181              	.LVL312:
 2182 0174 5E46     		mov	r6, fp
 2183              	.LVL313:
 2184 0176 D346     		mov	fp, r10
 2185              	.LVL314:
 2186 0178 C246     		mov	r10, r8
 2187              	.LBE144:
 114:..\..\..\liblc3\src/spec.c ****         low_bits = 8 - LC3_MIN(m, 8);
 2188              		.loc 1 114 0 is_stmt 1
 2189 017a 9149     		ldr	r1, .L195+12
 2190 017c 0198     		ldr	r0, [sp, #4]
 2191 017e FFF7FEFF 		bl	__aeabi_fmul
 2192              	.LVL315:
 2193 0182 041C     		adds	r4, r0, #0
 2194 0184 4846     		mov	r0, r9
 2195 0186 FFF7FEFF 		bl	__aeabi_i2f
 2196              	.LVL316:
 2197 018a 0299     		ldr	r1, [sp, #8]
 2198 018c FFF7FEFF 		bl	__aeabi_fmul
 2199              	.LVL317:
 2200 0190 011C     		adds	r1, r0, #0
 2201 0192 201C     		adds	r0, r4, #0
 2202 0194 FFF7FEFF 		bl	__aeabi_fdiv
 2203              	.LVL318:
 2204 0198 FFF7FEFF 		bl	roundf
 2205              	.LVL319:
 2206 019c FFF7FEFF 		bl	__aeabi_f2iz
 2207              	.LVL320:
 115:..\..\..\liblc3\src/spec.c ****     }
 2208              		.loc 1 115 0
 2209 01a0 0828     		cmp	r0, #8
 2210 01a2 00DD     		ble	.L159
 2211 01a4 0820     		movs	r0, #8
 2212              	.LVL321:
ARM GAS  C:\Users\rdn\AppData\Local\Temp\cciiQw7C.s 			page 58


 2213              	.L159:
 2214 01a6 0823     		movs	r3, #8
 2215 01a8 181A     		subs	r0, r3, r0
 2216 01aa FFF7FEFF 		bl	__aeabi_i2f
 2217              	.LVL322:
 2218 01ae 8046     		mov	r8, r0
 2219              	.LVL323:
 2220 01b0 03E0     		b	.L154
 2221              	.LVL324:
 2222              	.L183:
 2223              	.LBE142:
  93:..\..\..\liblc3\src/spec.c **** 
 2224              		.loc 1 93 0
 2225 01b2 0023     		movs	r3, #0
 2226 01b4 9846     		mov	r8, r3
 2227              	.LVL325:
  92:..\..\..\liblc3\src/spec.c ****     float low_bits = 0;
 2228              		.loc 1 92 0
 2229 01b6 0023     		movs	r3, #0
 2230 01b8 9A46     		mov	r10, r3
 2231              	.LVL326:
 2232              	.L154:
 2233              	.LBB145:
 122:..\..\..\liblc3\src/spec.c ****         float x0 = x[4*i + 0] * x[4*i + 0];
 2234              		.loc 1 122 0
 2235 01ba 0025     		movs	r5, #0
 2236              	.LBE145:
 120:..\..\..\liblc3\src/spec.c **** 
 2237              		.loc 1 120 0
 2238 01bc 0023     		movs	r3, #0
 2239 01be 0393     		str	r3, [sp, #12]
 2240 01c0 D146     		mov	r9, r10
 2241 01c2 3B00     		movs	r3, r7
 2242 01c4 2F00     		movs	r7, r5
 2243              	.LVL327:
 2244 01c6 3500     		movs	r5, r6
 2245 01c8 1E00     		movs	r6, r3
 2246              	.LVL328:
 2247              	.LBB147:
 122:..\..\..\liblc3\src/spec.c ****         float x0 = x[4*i + 0] * x[4*i + 0];
 2248              		.loc 1 122 0
 2249 01ca 36E0     		b	.L160
 2250              	.LVL329:
 2251              	.L161:
 2252              	.LBB146:
 123:..\..\..\liblc3\src/spec.c ****         float x1 = x[4*i + 1] * x[4*i + 1];
 2253              		.loc 1 123 0 discriminator 3
 2254 01cc 3C01     		lsls	r4, r7, #4
 2255 01ce 3159     		ldr	r1, [r6, r4]
 2256 01d0 081C     		adds	r0, r1, #0
 2257 01d2 FFF7FEFF 		bl	__aeabi_fmul
 2258              	.LVL330:
 2259 01d6 0090     		str	r0, [sp]
 2260              	.LVL331:
 124:..\..\..\liblc3\src/spec.c ****         float x2 = x[4*i + 2] * x[4*i + 2];
 2261              		.loc 1 124 0 discriminator 3
 2262 01d8 231D     		adds	r3, r4, #4
ARM GAS  C:\Users\rdn\AppData\Local\Temp\cciiQw7C.s 			page 59


 2263 01da F058     		ldr	r0, [r6, r3]
 2264              	.LVL332:
 2265 01dc 011C     		adds	r1, r0, #0
 2266 01de FFF7FEFF 		bl	__aeabi_fmul
 2267              	.LVL333:
 2268 01e2 0190     		str	r0, [sp, #4]
 2269              	.LVL334:
 125:..\..\..\liblc3\src/spec.c ****         float x3 = x[4*i + 3] * x[4*i + 3];
 2270              		.loc 1 125 0 discriminator 3
 2271 01e4 2300     		movs	r3, r4
 2272 01e6 0833     		adds	r3, r3, #8
 2273 01e8 F058     		ldr	r0, [r6, r3]
 2274              	.LVL335:
 2275 01ea 011C     		adds	r1, r0, #0
 2276 01ec FFF7FEFF 		bl	__aeabi_fmul
 2277              	.LVL336:
 2278 01f0 0290     		str	r0, [sp, #8]
 2279              	.LVL337:
 126:..\..\..\liblc3\src/spec.c **** 
 2280              		.loc 1 126 0 discriminator 3
 2281 01f2 0C34     		adds	r4, r4, #12
 2282 01f4 3059     		ldr	r0, [r6, r4]
 2283              	.LVL338:
 2284 01f6 011C     		adds	r1, r0, #0
 2285 01f8 FFF7FEFF 		bl	__aeabi_fmul
 2286              	.LVL339:
 2287 01fc 041C     		adds	r4, r0, #0
 2288              	.LVL340:
 128:..\..\..\liblc3\src/spec.c ****         x2_max = fmaxf(x2_max, x1);
 2289              		.loc 1 128 0 discriminator 3
 2290 01fe 0099     		ldr	r1, [sp]
 2291 0200 0398     		ldr	r0, [sp, #12]
 2292              	.LVL341:
 2293 0202 FFF7FEFF 		bl	fmaxf
 2294              	.LVL342:
 129:..\..\..\liblc3\src/spec.c ****         x2_max = fmaxf(x2_max, x2);
 2295              		.loc 1 129 0 discriminator 3
 2296 0206 0199     		ldr	r1, [sp, #4]
 2297 0208 FFF7FEFF 		bl	fmaxf
 2298              	.LVL343:
 130:..\..\..\liblc3\src/spec.c ****         x2_max = fmaxf(x2_max, x3);
 2299              		.loc 1 130 0 discriminator 3
 2300 020c 0299     		ldr	r1, [sp, #8]
 2301 020e FFF7FEFF 		bl	fmaxf
 2302              	.LVL344:
 131:..\..\..\liblc3\src/spec.c **** 
 2303              		.loc 1 131 0 discriminator 3
 2304 0212 211C     		adds	r1, r4, #0
 2305 0214 FFF7FEFF 		bl	fmaxf
 2306              	.LVL345:
 2307 0218 0390     		str	r0, [sp, #12]
 2308              	.LVL346:
 133:..\..\..\liblc3\src/spec.c ****     }
 2309              		.loc 1 133 0 discriminator 3
 2310 021a 0199     		ldr	r1, [sp, #4]
 2311 021c 0098     		ldr	r0, [sp]
 2312              	.LVL347:
ARM GAS  C:\Users\rdn\AppData\Local\Temp\cciiQw7C.s 			page 60


 2313 021e FFF7FEFF 		bl	__aeabi_fadd
 2314              	.LVL348:
 2315 0222 011C     		adds	r1, r0, #0
 2316 0224 0298     		ldr	r0, [sp, #8]
 2317 0226 FFF7FEFF 		bl	__aeabi_fadd
 2318              	.LVL349:
 2319 022a 011C     		adds	r1, r0, #0
 2320 022c 201C     		adds	r0, r4, #0
 2321 022e FFF7FEFF 		bl	__aeabi_fadd
 2322              	.LVL350:
 2323 0232 BA00     		lsls	r2, r7, #2
 2324 0234 08AB     		add	r3, sp, #32
 2325 0236 D050     		str	r0, [r2, r3]
 2326              	.LBE146:
 122:..\..\..\liblc3\src/spec.c ****         float x0 = x[4*i + 0] * x[4*i + 0];
 2327              		.loc 1 122 0 discriminator 3
 2328 0238 0137     		adds	r7, r7, #1
 2329              	.LVL351:
 2330              	.L160:
 122:..\..\..\liblc3\src/spec.c ****         float x0 = x[4*i + 0] * x[4*i + 0];
 2331              		.loc 1 122 0 is_stmt 0 discriminator 1
 2332 023a AF42     		cmp	r7, r5
 2333 023c C6DB     		blt	.L161
 2334 023e 2E00     		movs	r6, r5
 2335              	.LVL352:
 2336              	.LBE147:
 136:..\..\..\liblc3\src/spec.c ****     float nf = lc3_hr(sr) ?
 2337              		.loc 1 136 0 is_stmt 1
 2338 0240 0398     		ldr	r0, [sp, #12]
 2339 0242 FFF7FEFF 		bl	sqrtf
 2340              	.LVL353:
 2341 0246 0190     		str	r0, [sp, #4]
 2342              	.LVL354:
 138:..\..\..\liblc3\src/spec.c **** 
 2343              		.loc 1 138 0
 2344 0248 059B     		ldr	r3, [sp, #20]
 2345 024a 042B     		cmp	r3, #4
 2346 024c 48D9     		bls	.L185
 138:..\..\..\liblc3\src/spec.c **** 
 2347              		.loc 1 138 0 is_stmt 0 discriminator 1
 2348 024e 4B46     		mov	r3, r9
 2349 0250 5C42     		rsbs	r4, r3, #0
 2350              	.LVL355:
 2351              	.LBB148:
 2352              	.LBB149:
 2353              		.file 4 "..\\..\\..\\liblc3\\src\\fastmath.h"
   1:..\..\..\liblc3\src/fastmath.h **** /******************************************************************************
   2:..\..\..\liblc3\src/fastmath.h ****  *
   3:..\..\..\liblc3\src/fastmath.h ****  *  Copyright 2022 Google LLC
   4:..\..\..\liblc3\src/fastmath.h ****  *
   5:..\..\..\liblc3\src/fastmath.h ****  *  Licensed under the Apache License, Version 2.0 (the "License");
   6:..\..\..\liblc3\src/fastmath.h ****  *  you may not use this file except in compliance with the License.
   7:..\..\..\liblc3\src/fastmath.h ****  *  You may obtain a copy of the License at:
   8:..\..\..\liblc3\src/fastmath.h ****  *
   9:..\..\..\liblc3\src/fastmath.h ****  *  http://www.apache.org/licenses/LICENSE-2.0
  10:..\..\..\liblc3\src/fastmath.h ****  *
  11:..\..\..\liblc3\src/fastmath.h ****  *  Unless required by applicable law or agreed to in writing, software
ARM GAS  C:\Users\rdn\AppData\Local\Temp\cciiQw7C.s 			page 61


  12:..\..\..\liblc3\src/fastmath.h ****  *  distributed under the License is distributed on an "AS IS" BASIS,
  13:..\..\..\liblc3\src/fastmath.h ****  *  WITHOUT WARRANTIES OR CONDITIONS OF ANY KIND, either express or implied.
  14:..\..\..\liblc3\src/fastmath.h ****  *  See the License for the specific language governing permissions and
  15:..\..\..\liblc3\src/fastmath.h ****  *  limitations under the License.
  16:..\..\..\liblc3\src/fastmath.h ****  *
  17:..\..\..\liblc3\src/fastmath.h ****  ******************************************************************************/
  18:..\..\..\liblc3\src/fastmath.h **** 
  19:..\..\..\liblc3\src/fastmath.h **** #ifndef __LC3_FASTMATH_H
  20:..\..\..\liblc3\src/fastmath.h **** #define __LC3_FASTMATH_H
  21:..\..\..\liblc3\src/fastmath.h **** 
  22:..\..\..\liblc3\src/fastmath.h **** #include <stdint.h>
  23:..\..\..\liblc3\src/fastmath.h **** #include <math.h>
  24:..\..\..\liblc3\src/fastmath.h **** 
  25:..\..\..\liblc3\src/fastmath.h **** 
  26:..\..\..\liblc3\src/fastmath.h **** /**
  27:..\..\..\liblc3\src/fastmath.h ****  * IEEE 754 Floating point representation
  28:..\..\..\liblc3\src/fastmath.h ****  */
  29:..\..\..\liblc3\src/fastmath.h **** 
  30:..\..\..\liblc3\src/fastmath.h **** #define LC3_IEEE754_SIGN_SHL   (31)
  31:..\..\..\liblc3\src/fastmath.h **** #define LC3_IEEE754_SIGN_MASK  (1 << LC3_IEEE754_SIGN_SHL)
  32:..\..\..\liblc3\src/fastmath.h **** 
  33:..\..\..\liblc3\src/fastmath.h **** #define LC3_IEEE754_EXP_SHL    (23)
  34:..\..\..\liblc3\src/fastmath.h **** #define LC3_IEEE754_EXP_MASK   (0xff << LC3_IEEE754_EXP_SHL)
  35:..\..\..\liblc3\src/fastmath.h **** #define LC3_IEEE754_EXP_BIAS   (127)
  36:..\..\..\liblc3\src/fastmath.h **** 
  37:..\..\..\liblc3\src/fastmath.h **** 
  38:..\..\..\liblc3\src/fastmath.h **** /**
  39:..\..\..\liblc3\src/fastmath.h ****  * Fast multiply floating-point number by integral power of 2
  40:..\..\..\liblc3\src/fastmath.h ****  * x               Operand, finite number
  41:..\..\..\liblc3\src/fastmath.h ****  * exp             Exponent such that 2^x is finite
  42:..\..\..\liblc3\src/fastmath.h ****  * return          2^exp
  43:..\..\..\liblc3\src/fastmath.h ****  */
  44:..\..\..\liblc3\src/fastmath.h **** static inline float lc3_ldexpf(float _x, int exp) {
  45:..\..\..\liblc3\src/fastmath.h ****     union { float f; int32_t s; } x = { .f = _x };
 2354              		.loc 4 45 0 is_stmt 1 discriminator 1
 2355 0252 0300     		movs	r3, r0
 2356              	.LVL356:
  46:..\..\..\liblc3\src/fastmath.h **** 
  47:..\..\..\liblc3\src/fastmath.h ****     if (x.s & LC3_IEEE754_EXP_MASK)
 2357              		.loc 4 47 0 discriminator 1
 2358 0254 FF22     		movs	r2, #255
 2359 0256 D205     		lsls	r2, r2, #23
 2360 0258 0242     		tst	r2, r0
 2361 025a 01D0     		beq	.L163
  48:..\..\..\liblc3\src/fastmath.h ****         x.s += exp << LC3_IEEE754_EXP_SHL;
 2362              		.loc 4 48 0
 2363 025c E405     		lsls	r4, r4, #23
 2364              	.LVL357:
 2365 025e 2318     		adds	r3, r4, r0
 2366              	.L163:
 2367              	.LVL358:
  49:..\..\..\liblc3\src/fastmath.h **** 
  50:..\..\..\liblc3\src/fastmath.h ****     return x.f;
 2368              		.loc 4 50 0
 2369 0260 1C1C     		adds	r4, r3, #0
 2370              	.LVL359:
 2371              	.LBE149:
ARM GAS  C:\Users\rdn\AppData\Local\Temp\cciiQw7C.s 			page 62


 2372              	.LBE148:
 138:..\..\..\liblc3\src/spec.c **** 
 2373              		.loc 1 138 0
 2374 0262 8023     		movs	r3, #128
 2375              	.LVL360:
 2376 0264 1B06     		lsls	r3, r3, #24
 2377 0266 4344     		add	r3, r3, r8
 2378 0268 1D00     		movs	r5, r3
 2379              	.LVL361:
 2380              	.LBB150:
 2381              	.LBB151:
  51:..\..\..\liblc3\src/fastmath.h **** }
  52:..\..\..\liblc3\src/fastmath.h **** 
  53:..\..\..\liblc3\src/fastmath.h **** /**
  54:..\..\..\liblc3\src/fastmath.h ****  * Fast convert floating-point number to fractional and integral components
  55:..\..\..\liblc3\src/fastmath.h ****  * x               Operand, finite number
  56:..\..\..\liblc3\src/fastmath.h ****  * exp             Return the exponent part
  57:..\..\..\liblc3\src/fastmath.h ****  * return          The normalized fraction in [0.5:1[
  58:..\..\..\liblc3\src/fastmath.h ****  */
  59:..\..\..\liblc3\src/fastmath.h **** static inline float lc3_frexpf(float _x, int *exp) {
  60:..\..\..\liblc3\src/fastmath.h ****     union { float f; uint32_t u; } x = { .f = _x };
  61:..\..\..\liblc3\src/fastmath.h **** 
  62:..\..\..\liblc3\src/fastmath.h ****     int e = (x.u & LC3_IEEE754_EXP_MASK) >> LC3_IEEE754_EXP_SHL;
  63:..\..\..\liblc3\src/fastmath.h ****     *exp = e - (LC3_IEEE754_EXP_BIAS - 1);
  64:..\..\..\liblc3\src/fastmath.h **** 
  65:..\..\..\liblc3\src/fastmath.h ****     x.u = (x.u & ~LC3_IEEE754_EXP_MASK) |
  66:..\..\..\liblc3\src/fastmath.h ****         ((LC3_IEEE754_EXP_BIAS - 1) << LC3_IEEE754_EXP_SHL);
  67:..\..\..\liblc3\src/fastmath.h **** 
  68:..\..\..\liblc3\src/fastmath.h ****     return x.f;
  69:..\..\..\liblc3\src/fastmath.h **** }
  70:..\..\..\liblc3\src/fastmath.h **** 
  71:..\..\..\liblc3\src/fastmath.h **** /**
  72:..\..\..\liblc3\src/fastmath.h ****  * Fast 2^n approximation
  73:..\..\..\liblc3\src/fastmath.h ****  * x               Operand, range -100 to 100
  74:..\..\..\liblc3\src/fastmath.h ****  * return          2^x approximation (max relative error ~ 4e-7)
  75:..\..\..\liblc3\src/fastmath.h ****  */
  76:..\..\..\liblc3\src/fastmath.h **** static inline float lc3_exp2f(float x)
  77:..\..\..\liblc3\src/fastmath.h **** {
  78:..\..\..\liblc3\src/fastmath.h ****     /* --- 2^(i/8) for i from 0 to 7 --- */
  79:..\..\..\liblc3\src/fastmath.h **** 
  80:..\..\..\liblc3\src/fastmath.h ****     static const float e[] = {
  81:..\..\..\liblc3\src/fastmath.h ****         1.00000000e+00, 1.09050773e+00, 1.18920712e+00, 1.29683955e+00,
  82:..\..\..\liblc3\src/fastmath.h ****         1.41421356e+00, 1.54221083e+00, 1.68179283e+00, 1.83400809e+00 };
  83:..\..\..\liblc3\src/fastmath.h **** 
  84:..\..\..\liblc3\src/fastmath.h ****     /* --- Polynomial approx in range 0 to 1/8 --- */
  85:..\..\..\liblc3\src/fastmath.h **** 
  86:..\..\..\liblc3\src/fastmath.h ****     static const float p[] = {
  87:..\..\..\liblc3\src/fastmath.h ****         1.00448128e-02, 5.54563260e-02, 2.40228756e-01, 6.93147140e-01 };
  88:..\..\..\liblc3\src/fastmath.h **** 
  89:..\..\..\liblc3\src/fastmath.h ****     /* --- Split the operand ---
  90:..\..\..\liblc3\src/fastmath.h ****      *
  91:..\..\..\liblc3\src/fastmath.h ****      * Such as x = k/8 + y, with k an integer, and |y| < 0.5/8
  92:..\..\..\liblc3\src/fastmath.h ****      *
  93:..\..\..\liblc3\src/fastmath.h ****      * Note that `fast-math` compiler option leads to rounding error,
  94:..\..\..\liblc3\src/fastmath.h ****      * disable optimisation with `volatile`. */
  95:..\..\..\liblc3\src/fastmath.h **** 
  96:..\..\..\liblc3\src/fastmath.h ****     volatile union { float f; int32_t s; } v;
ARM GAS  C:\Users\rdn\AppData\Local\Temp\cciiQw7C.s 			page 63


  97:..\..\..\liblc3\src/fastmath.h **** 
  98:..\..\..\liblc3\src/fastmath.h ****     v.f = x + 0x1.8p20f;
 2382              		.loc 4 98 0
 2383 026a 5649     		ldr	r1, .L195+16
 2384 026c 181C     		adds	r0, r3, #0
 2385              	.LVL362:
 2386 026e FFF7FEFF 		bl	__aeabi_fadd
 2387              	.LVL363:
 2388 0272 0790     		str	r0, [sp, #28]
  99:..\..\..\liblc3\src/fastmath.h ****     int k = v.s;
 2389              		.loc 4 99 0
 2390 0274 079F     		ldr	r7, [sp, #28]
 2391              	.LVL364:
 100:..\..\..\liblc3\src/fastmath.h ****     x -= v.f - 0x1.8p20f;
 2392              		.loc 4 100 0
 2393 0276 0798     		ldr	r0, [sp, #28]
 2394 0278 5249     		ldr	r1, .L195+16
 2395 027a FFF7FEFF 		bl	__aeabi_fsub
 2396              	.LVL365:
 2397 027e 011C     		adds	r1, r0, #0
 2398 0280 281C     		adds	r0, r5, #0
 2399 0282 FFF7FEFF 		bl	__aeabi_fsub
 2400              	.LVL366:
 2401 0286 051C     		adds	r5, r0, #0
 2402              	.LVL367:
 101:..\..\..\liblc3\src/fastmath.h **** 
 102:..\..\..\liblc3\src/fastmath.h ****     /* --- Compute 2^x, with |x| < 1 ---
 103:..\..\..\liblc3\src/fastmath.h ****      * Perform polynomial approximation in range -0.5/8 to 0.5/8,
 104:..\..\..\liblc3\src/fastmath.h ****      * and muplity by precomputed value of 2^(i/8), i in [0:7] */
 105:..\..\..\liblc3\src/fastmath.h **** 
 106:..\..\..\liblc3\src/fastmath.h ****     union { float f; int32_t s; } y;
 107:..\..\..\liblc3\src/fastmath.h **** 
 108:..\..\..\liblc3\src/fastmath.h ****     y.f = (      p[0]) * x;
 2403              		.loc 4 108 0
 2404 0288 4F49     		ldr	r1, .L195+20
 2405 028a FFF7FEFF 		bl	__aeabi_fmul
 2406              	.LVL368:
 109:..\..\..\liblc3\src/fastmath.h ****     y.f = (y.f + p[1]) * x;
 2407              		.loc 4 109 0
 2408 028e 4F49     		ldr	r1, .L195+24
 2409 0290 FFF7FEFF 		bl	__aeabi_fadd
 2410              	.LVL369:
 2411 0294 011C     		adds	r1, r0, #0
 2412 0296 281C     		adds	r0, r5, #0
 2413 0298 FFF7FEFF 		bl	__aeabi_fmul
 2414              	.LVL370:
 110:..\..\..\liblc3\src/fastmath.h ****     y.f = (y.f + p[2]) * x;
 2415              		.loc 4 110 0
 2416 029c 4C49     		ldr	r1, .L195+28
 2417 029e FFF7FEFF 		bl	__aeabi_fadd
 2418              	.LVL371:
 2419 02a2 011C     		adds	r1, r0, #0
 2420 02a4 281C     		adds	r0, r5, #0
 2421 02a6 FFF7FEFF 		bl	__aeabi_fmul
 2422              	.LVL372:
 111:..\..\..\liblc3\src/fastmath.h ****     y.f = (y.f + p[3]) * x;
 2423              		.loc 4 111 0
ARM GAS  C:\Users\rdn\AppData\Local\Temp\cciiQw7C.s 			page 64


 2424 02aa 4A49     		ldr	r1, .L195+32
 2425 02ac FFF7FEFF 		bl	__aeabi_fadd
 2426              	.LVL373:
 2427 02b0 011C     		adds	r1, r0, #0
 2428 02b2 281C     		adds	r0, r5, #0
 2429 02b4 FFF7FEFF 		bl	__aeabi_fmul
 2430              	.LVL374:
 112:..\..\..\liblc3\src/fastmath.h ****     y.f = (y.f +  1.f) * e[k & 7];
 2431              		.loc 4 112 0
 2432 02b8 FE21     		movs	r1, #254
 2433 02ba 8905     		lsls	r1, r1, #22
 2434 02bc FFF7FEFF 		bl	__aeabi_fadd
 2435              	.LVL375:
 2436 02c0 0723     		movs	r3, #7
 2437 02c2 3B40     		ands	r3, r7
 2438 02c4 9B00     		lsls	r3, r3, #2
 2439 02c6 444A     		ldr	r2, .L195+36
 2440 02c8 D318     		adds	r3, r2, r3
 2441 02ca 596C     		ldr	r1, [r3, #68]
 2442 02cc FFF7FEFF 		bl	__aeabi_fmul
 2443              	.LVL376:
 113:..\..\..\liblc3\src/fastmath.h **** 
 114:..\..\..\liblc3\src/fastmath.h ****     /* --- Add the exponent --- */
 115:..\..\..\liblc3\src/fastmath.h **** 
 116:..\..\..\liblc3\src/fastmath.h ****     y.s += (k >> 3) << LC3_IEEE754_EXP_SHL;
 2444              		.loc 4 116 0
 2445 02d0 FF10     		asrs	r7, r7, #3
 2446              	.LVL377:
 2447 02d2 FF05     		lsls	r7, r7, #23
 2448 02d4 3918     		adds	r1, r7, r0
 2449              	.LVL378:
 2450              	.LBE151:
 2451              	.LBE150:
 138:..\..\..\liblc3\src/spec.c **** 
 2452              		.loc 1 138 0
 2453 02d6 201C     		adds	r0, r4, #0
 2454 02d8 FFF7FEFF 		bl	__aeabi_fmul
 2455              	.LVL379:
 2456 02dc 041C     		adds	r4, r0, #0
 2457 02de 00E0     		b	.L162
 2458              	.LVL380:
 2459              	.L185:
 2460 02e0 0024     		movs	r4, #0
 2461              	.LVL381:
 2462              	.L162:
 2463              	.LBB152:
 140:..\..\..\liblc3\src/spec.c ****         e[i].q16 = lc3_db_q16(fmaxf(e[i].f + nf, 1e-10f));
 2464              		.loc 1 140 0
 2465 02e2 0025     		movs	r5, #0
 2466 02e4 29E0     		b	.L164
 2467              	.LVL382:
 2468              	.L165:
 141:..\..\..\liblc3\src/spec.c **** 
 2469              		.loc 1 141 0 discriminator 3
 2470 02e6 AF00     		lsls	r7, r5, #2
 2471 02e8 06AB     		add	r3, sp, #24
 2472 02ea 0822     		movs	r2, #8
ARM GAS  C:\Users\rdn\AppData\Local\Temp\cciiQw7C.s 			page 65


 2473 02ec 9B18     		adds	r3, r3, r2
 2474 02ee DB59     		ldr	r3, [r3, r7]
 2475 02f0 0093     		str	r3, [sp]
 2476 02f2 191C     		adds	r1, r3, #0
 2477 02f4 201C     		adds	r0, r4, #0
 2478 02f6 FFF7FEFF 		bl	__aeabi_fadd
 2479              	.LVL383:
 2480 02fa 3849     		ldr	r1, .L195+40
 2481 02fc FFF7FEFF 		bl	fmaxf
 2482              	.LVL384:
 2483              	.LBB153:
 2484              	.LBB154:
 117:..\..\..\liblc3\src/fastmath.h **** 
 118:..\..\..\liblc3\src/fastmath.h ****     return y.f;
 119:..\..\..\liblc3\src/fastmath.h **** }
 120:..\..\..\liblc3\src/fastmath.h **** 
 121:..\..\..\liblc3\src/fastmath.h **** /**
 122:..\..\..\liblc3\src/fastmath.h ****  * Fast log2(x) approximation
 123:..\..\..\liblc3\src/fastmath.h ****  * x               Operand, greater than 0
 124:..\..\..\liblc3\src/fastmath.h ****  * return          log2(x) approximation (max absolute error ~ 1e-4)
 125:..\..\..\liblc3\src/fastmath.h ****  */
 126:..\..\..\liblc3\src/fastmath.h **** static inline float lc3_log2f(float x)
 127:..\..\..\liblc3\src/fastmath.h **** {
 128:..\..\..\liblc3\src/fastmath.h ****     float y;
 129:..\..\..\liblc3\src/fastmath.h ****     int e;
 130:..\..\..\liblc3\src/fastmath.h **** 
 131:..\..\..\liblc3\src/fastmath.h ****     /* --- Polynomial approx in range 0.5 to 1 --- */
 132:..\..\..\liblc3\src/fastmath.h **** 
 133:..\..\..\liblc3\src/fastmath.h ****     static const float c[] = {
 134:..\..\..\liblc3\src/fastmath.h ****         -1.29479677, 5.11769018, -8.42295281, 8.10557963, -3.50567360 };
 135:..\..\..\liblc3\src/fastmath.h **** 
 136:..\..\..\liblc3\src/fastmath.h ****     x = lc3_frexpf(x, &e);
 137:..\..\..\liblc3\src/fastmath.h **** 
 138:..\..\..\liblc3\src/fastmath.h ****     y = (    c[0]) * x;
 139:..\..\..\liblc3\src/fastmath.h ****     y = (y + c[1]) * x;
 140:..\..\..\liblc3\src/fastmath.h ****     y = (y + c[2]) * x;
 141:..\..\..\liblc3\src/fastmath.h ****     y = (y + c[3]) * x;
 142:..\..\..\liblc3\src/fastmath.h ****     y = (y + c[4]);
 143:..\..\..\liblc3\src/fastmath.h **** 
 144:..\..\..\liblc3\src/fastmath.h ****     /* --- Add log2f(2^e) and return --- */
 145:..\..\..\liblc3\src/fastmath.h **** 
 146:..\..\..\liblc3\src/fastmath.h ****     return e + y;
 147:..\..\..\liblc3\src/fastmath.h **** }
 148:..\..\..\liblc3\src/fastmath.h **** 
 149:..\..\..\liblc3\src/fastmath.h **** /**
 150:..\..\..\liblc3\src/fastmath.h ****  * Fast log10(x) approximation
 151:..\..\..\liblc3\src/fastmath.h ****  * x               Operand, greater than 0
 152:..\..\..\liblc3\src/fastmath.h ****  * return          log10(x) approximation (max absolute error ~ 1e-4)
 153:..\..\..\liblc3\src/fastmath.h ****  */
 154:..\..\..\liblc3\src/fastmath.h **** static inline float lc3_log10f(float x)
 155:..\..\..\liblc3\src/fastmath.h **** {
 156:..\..\..\liblc3\src/fastmath.h ****     return log10f(2) * lc3_log2f(x);
 157:..\..\..\liblc3\src/fastmath.h **** }
 158:..\..\..\liblc3\src/fastmath.h **** 
 159:..\..\..\liblc3\src/fastmath.h **** /**
 160:..\..\..\liblc3\src/fastmath.h ****  * Fast `10 * log10(x)` (or dB) approximation in fixed Q16
 161:..\..\..\liblc3\src/fastmath.h ****  * x               Operand, in range 2^-63 to 2^63 (1e-19 to 1e19)
ARM GAS  C:\Users\rdn\AppData\Local\Temp\cciiQw7C.s 			page 66


 162:..\..\..\liblc3\src/fastmath.h ****  * return          10 * log10(x) in fixed Q16 (-190 to 192 dB)
 163:..\..\..\liblc3\src/fastmath.h ****  *
 164:..\..\..\liblc3\src/fastmath.h ****  * - The 0 value is accepted and return the minimum value ~ -191dB
 165:..\..\..\liblc3\src/fastmath.h ****  * - This function assumed that float 32 bits is coded IEEE 754
 166:..\..\..\liblc3\src/fastmath.h ****  */
 167:..\..\..\liblc3\src/fastmath.h **** static inline int32_t lc3_db_q16(float x)
 168:..\..\..\liblc3\src/fastmath.h **** {
 169:..\..\..\liblc3\src/fastmath.h ****     /* --- Table in Q15 --- */
 170:..\..\..\liblc3\src/fastmath.h **** 
 171:..\..\..\liblc3\src/fastmath.h ****     static const uint16_t t[][2] = {
 172:..\..\..\liblc3\src/fastmath.h **** 
 173:..\..\..\liblc3\src/fastmath.h ****         /* [n][0] = 10 * log10(2) * log2(1 + n/32), with n = [0..15]     */
 174:..\..\..\liblc3\src/fastmath.h ****         /* [n][1] = [n+1][0] - [n][0] (while defining [16][0])           */
 175:..\..\..\liblc3\src/fastmath.h **** 
 176:..\..\..\liblc3\src/fastmath.h ****         {     0, 4379 }, {  4379, 4248 }, {  8627, 4125 }, { 12753, 4009 },
 177:..\..\..\liblc3\src/fastmath.h ****         { 16762, 3899 }, { 20661, 3795 }, { 24456, 3697 }, { 28153, 3603 },
 178:..\..\..\liblc3\src/fastmath.h ****         { 31755, 3514 }, { 35269, 3429 }, { 38699, 3349 }, { 42047, 3272 },
 179:..\..\..\liblc3\src/fastmath.h ****         { 45319, 3198 }, { 48517, 3128 }, { 51645, 3061 }, { 54705, 2996 },
 180:..\..\..\liblc3\src/fastmath.h **** 
 181:..\..\..\liblc3\src/fastmath.h ****         /* [n][0] = 10 * log10(2) * log2(1 + n/32) - 10 * log10(2) / 2,  */
 182:..\..\..\liblc3\src/fastmath.h ****         /*     with n = [16..31]                                         */
 183:..\..\..\liblc3\src/fastmath.h ****         /* [n][1] = [n+1][0] - [n][0] (while defining [32][0])           */
 184:..\..\..\liblc3\src/fastmath.h **** 
 185:..\..\..\liblc3\src/fastmath.h ****         {  8381, 2934 }, { 11315, 2875 }, { 14190, 2818 }, { 17008, 2763 },
 186:..\..\..\liblc3\src/fastmath.h ****         { 19772, 2711 }, { 22482, 2660 }, { 25142, 2611 }, { 27754, 2564 },
 187:..\..\..\liblc3\src/fastmath.h ****         { 30318, 2519 }, { 32837, 2475 }, { 35312, 2433 }, { 37744, 2392 },
 188:..\..\..\liblc3\src/fastmath.h ****         { 40136, 2352 }, { 42489, 2314 }, { 44803, 2277 }, { 47080, 2241 },
 189:..\..\..\liblc3\src/fastmath.h **** 
 190:..\..\..\liblc3\src/fastmath.h ****     };
 191:..\..\..\liblc3\src/fastmath.h **** 
 192:..\..\..\liblc3\src/fastmath.h ****     /* --- Approximation ---
 193:..\..\..\liblc3\src/fastmath.h ****      *
 194:..\..\..\liblc3\src/fastmath.h ****      *   10 * log10(x^2) = 10 * log10(2) * log2(x^2)
 195:..\..\..\liblc3\src/fastmath.h ****      *
 196:..\..\..\liblc3\src/fastmath.h ****      *   And log2(x^2) = 2 * log2( (1 + m) * 2^e )
 197:..\..\..\liblc3\src/fastmath.h ****      *                 = 2 * (e + log2(1 + m)) , with m in range [0..1]
 198:..\..\..\liblc3\src/fastmath.h ****      *
 199:..\..\..\liblc3\src/fastmath.h ****      * Split the float values in :
 200:..\..\..\liblc3\src/fastmath.h ****      *   e2  Double value of the exponent (2 * e + k)
 201:..\..\..\liblc3\src/fastmath.h ****      *   hi  High 5 bits of mantissa, for precalculated result `t[hi][0]`
 202:..\..\..\liblc3\src/fastmath.h ****      *   lo  Low 16 bits of mantissa, for linear interpolation `t[hi][1]`
 203:..\..\..\liblc3\src/fastmath.h ****      *
 204:..\..\..\liblc3\src/fastmath.h ****      * Two cases, from the range of the mantissa :
 205:..\..\..\liblc3\src/fastmath.h ****      *   0 to 0.5   `k = 0`, use 1st part of the table
 206:..\..\..\liblc3\src/fastmath.h ****      *   0.5 to 1   `k = 1`, use 2nd part of the table  */
 207:..\..\..\liblc3\src/fastmath.h **** 
 208:..\..\..\liblc3\src/fastmath.h ****     union { float f; uint32_t u; } x2 = { .f = x*x };
 2485              		.loc 4 208 0 discriminator 3
 2486 0300 011C     		adds	r1, r0, #0
 2487 0302 FFF7FEFF 		bl	__aeabi_fmul
 2488              	.LVL385:
 209:..\..\..\liblc3\src/fastmath.h **** 
 210:..\..\..\liblc3\src/fastmath.h ****     int e2 = (int)(x2.u >> 22) - 2*127;
 2489              		.loc 4 210 0 discriminator 3
 2490 0306 810D     		lsrs	r1, r0, #22
 2491 0308 FE39     		subs	r1, r1, #254
 2492              	.LVL386:
ARM GAS  C:\Users\rdn\AppData\Local\Temp\cciiQw7C.s 			page 67


 211:..\..\..\liblc3\src/fastmath.h ****     int hi = (x2.u >> 18) & 0x1f;
 2493              		.loc 4 211 0 discriminator 3
 2494 030a 830C     		lsrs	r3, r0, #18
 2495 030c 1F22     		movs	r2, #31
 2496 030e 1340     		ands	r3, r2
 2497              	.LVL387:
 212:..\..\..\liblc3\src/fastmath.h ****     int lo = (x2.u >>  2) & 0xffff;
 2498              		.loc 4 212 0 discriminator 3
 2499 0310 8008     		lsrs	r0, r0, #2
 2500 0312 0204     		lsls	r2, r0, #16
 2501 0314 100C     		lsrs	r0, r2, #16
 2502              	.LVL388:
 213:..\..\..\liblc3\src/fastmath.h **** 
 214:..\..\..\liblc3\src/fastmath.h ****     return e2 * 49321 + t[hi][0] + ((t[hi][1] * lo) >> 16);
 2503              		.loc 4 214 0 discriminator 3
 2504 0316 324A     		ldr	r2, .L195+44
 2505 0318 5143     		muls	r1, r2
 2506              	.LVL389:
 2507 031a 9B00     		lsls	r3, r3, #2
 2508              	.LVL390:
 2509 031c 2E4A     		ldr	r2, .L195+36
 2510 031e D318     		adds	r3, r2, r3
 2511 0320 6422     		movs	r2, #100
 2512 0322 9A5A     		ldrh	r2, [r3, r2]
 2513 0324 5118     		adds	r1, r2, r1
 2514 0326 6633     		adds	r3, r3, #102
 2515 0328 1A88     		ldrh	r2, [r3]
 2516 032a 4243     		muls	r2, r0
 2517 032c 1214     		asrs	r2, r2, #16
 2518 032e 8B18     		adds	r3, r1, r2
 2519              	.LVL391:
 2520              	.LBE154:
 2521              	.LBE153:
 141:..\..\..\liblc3\src/spec.c **** 
 2522              		.loc 1 141 0 discriminator 3
 2523 0330 06AA     		add	r2, sp, #24
 2524 0332 0821     		movs	r1, #8
 2525 0334 5218     		adds	r2, r2, r1
 2526 0336 D351     		str	r3, [r2, r7]
 140:..\..\..\liblc3\src/spec.c ****         e[i].q16 = lc3_db_q16(fmaxf(e[i].f + nf, 1e-10f));
 2527              		.loc 1 140 0 discriminator 3
 2528 0338 0135     		adds	r5, r5, #1
 2529              	.LVL392:
 2530              	.L164:
 140:..\..\..\liblc3\src/spec.c ****         e[i].q16 = lc3_db_q16(fmaxf(e[i].f + nf, 1e-10f));
 2531              		.loc 1 140 0 is_stmt 0 discriminator 1
 2532 033a B542     		cmp	r5, r6
 2533 033c D3DB     		blt	.L165
 2534              	.LBE152:
 145:..\..\..\liblc3\src/spec.c ****     int g_int = 255 - g_off;
 2535              		.loc 1 145 0 is_stmt 1
 2536 033e FFAB     		add	r3, sp, #1020
 2537 0340 2C33     		adds	r3, r3, #44
 2538 0342 1868     		ldr	r0, [r3]
 2539 0344 FFF7FEFF 		bl	__aeabi_i2f
 2540              	.LVL393:
 2541 0348 FFAB     		add	r3, sp, #1020
ARM GAS  C:\Users\rdn\AppData\Local\Temp\cciiQw7C.s 			page 68


 2542 034a 3033     		adds	r3, r3, #48
 2543 034c 1968     		ldr	r1, [r3]
 2544 034e FFF7FEFF 		bl	__aeabi_fadd
 2545              	.LVL394:
 2546 0352 FC21     		movs	r1, #252
 2547 0354 8905     		lsls	r1, r1, #22
 2548 0356 FFF7FEFF 		bl	__aeabi_fadd
 2549              	.LVL395:
 2550 035a FFF7FEFF 		bl	__aeabi_f2iz
 2551              	.LVL396:
 2552 035e 8046     		mov	r8, r0
 2553              	.LVL397:
 146:..\..\..\liblc3\src/spec.c **** 
 2554              		.loc 1 146 0
 2555 0360 FF23     		movs	r3, #255
 2556 0362 FFAA     		add	r2, sp, #1020
 2557 0364 3432     		adds	r2, r2, #52
 2558 0366 1268     		ldr	r2, [r2]
 2559 0368 9B1A     		subs	r3, r3, r2
 2560 036a 9C46     		mov	ip, r3
 2561              	.LVL398:
 2562              	.LBB155:
 152:..\..\..\liblc3\src/spec.c ****         int gn = (g_int - i) * k_20_28;
 2563              		.loc 1 152 0
 2564 036c 731E     		subs	r3, r6, #1
 2565              	.LVL399:
 2566 036e 0093     		str	r3, [sp]
 2567              	.LVL400:
 2568              	.LBE155:
 146:..\..\..\liblc3\src/spec.c **** 
 2569              		.loc 1 146 0
 2570 0370 E146     		mov	r9, ip
 2571              	.LVL401:
 2572              	.LBB158:
 152:..\..\..\liblc3\src/spec.c ****         int gn = (g_int - i) * k_20_28;
 2573              		.loc 1 152 0
 2574 0372 8027     		movs	r7, #128
 2575 0374 50E0     		b	.L166
 2576              	.LVL402:
 2577              	.L174:
 2578              	.LBB156:
 153:..\..\..\liblc3\src/spec.c ****         int v = 0;
 2579              		.loc 1 153 0
 2580 0376 4B46     		mov	r3, r9
 2581 0378 DC1B     		subs	r4, r3, r7
 2582 037a 1A49     		ldr	r1, .L195+48
 2583 037c 6143     		muls	r1, r4
 2584              	.LVL403:
 156:..\..\..\liblc3\src/spec.c **** 
 2585              		.loc 1 156 0
 2586 037e 0098     		ldr	r0, [sp]
 2587 0380 00E0     		b	.L167
 2588              	.LVL404:
 2589              	.L169:
 156:..\..\..\liblc3\src/spec.c **** 
 2590              		.loc 1 156 0 is_stmt 0 discriminator 4
 2591 0382 0138     		subs	r0, r0, #1
ARM GAS  C:\Users\rdn\AppData\Local\Temp\cciiQw7C.s 			page 69


 2592              	.LVL405:
 2593              	.L167:
 156:..\..\..\liblc3\src/spec.c **** 
 2594              		.loc 1 156 0 discriminator 1
 2595 0384 0028     		cmp	r0, #0
 2596 0386 3ADB     		blt	.L186
 156:..\..\..\liblc3\src/spec.c **** 
 2597              		.loc 1 156 0 discriminator 3
 2598 0388 8300     		lsls	r3, r0, #2
 2599 038a 08AA     		add	r2, sp, #32
 2600 038c 9B58     		ldr	r3, [r3, r2]
 2601 038e 9942     		cmp	r1, r3
 2602 0390 F7DC     		bgt	.L169
 2603 0392 0200     		movs	r2, r0
 2604 0394 0026     		movs	r6, #0
 2605 0396 34E0     		b	.L168
 2606              	.LVL406:
 2607              	.L172:
 2608              	.LBB157:
 159:..\..\..\liblc3\src/spec.c **** 
 2609              		.loc 1 159 0 is_stmt 1
 2610 0398 9300     		lsls	r3, r2, #2
 2611 039a 08AD     		add	r5, sp, #32
 2612 039c 5B59     		ldr	r3, [r3, r5]
 2613 039e 5B1A     		subs	r3, r3, r1
 2614              	.LVL407:
 161:..\..\..\liblc3\src/spec.c ****                  e_diff < 43 << 16 ?   e_diff + ( 7 << 16)
 2615              		.loc 1 161 0
 2616 03a0 29D4     		bmi	.L187
 161:..\..\..\liblc3\src/spec.c ****                  e_diff < 43 << 16 ?   e_diff + ( 7 << 16)
 2617              		.loc 1 161 0 is_stmt 0 discriminator 1
 2618 03a2 114D     		ldr	r5, .L195+52
 2619 03a4 AB42     		cmp	r3, r5
 2620 03a6 21DC     		bgt	.L171
 161:..\..\..\liblc3\src/spec.c ****                  e_diff < 43 << 16 ?   e_diff + ( 7 << 16)
 2621              		.loc 1 161 0 discriminator 3
 2622 03a8 E025     		movs	r5, #224
 2623 03aa ED02     		lsls	r5, r5, #11
 2624 03ac AA46     		mov	r10, r5
 2625 03ae 5344     		add	r3, r3, r10
 2626              	.LVL408:
 2627 03b0 22E0     		b	.L170
 2628              	.L196:
 2629 03b2 C046     		.align	2
 2630              	.L195:
 2631 03b4 FCFBFFFF 		.word	-1028
 2632 03b8 00000000 		.word	lc3_ne_2m5
 2633 03bc ACC52737 		.word	925353388
 2634 03c0 CDCCCC3F 		.word	1070386381
 2635 03c4 0000C049 		.word	1237319680
 2636 03c8 0093243C 		.word	1009029888
 2637 03cc 2C26633D 		.word	1029908012
 2638 03d0 87FE753E 		.word	1047920263
 2639 03d4 1772313F 		.word	1060205079
 2640 03d8 80000000 		.word	.LANCHOR1
 2641 03dc FFE6DB2E 		.word	786163455
 2642 03e0 A9C00000 		.word	49321
ARM GAS  C:\Users\rdn\AppData\Local\Temp\cciiQw7C.s 			page 70


 2643 03e4 DBB60000 		.word	46811
 2644 03e8 FFFF2A00 		.word	2818047
 2645              	.LVL409:
 2646              	.L171:
 163:..\..\..\liblc3\src/spec.c ****         }
 2647              		.loc 1 163 0 is_stmt 1 discriminator 4
 2648 03ec 2B4D     		ldr	r5, .L197
 2649 03ee AA46     		mov	r10, r5
 2650 03f0 5344     		add	r3, r3, r10
 2651              	.LVL410:
 161:..\..\..\liblc3\src/spec.c ****                  e_diff < 43 << 16 ?   e_diff + ( 7 << 16)
 2652              		.loc 1 161 0 discriminator 4
 2653 03f2 5B00     		lsls	r3, r3, #1
 2654              	.LVL411:
 2655 03f4 00E0     		b	.L170
 2656              	.LVL412:
 2657              	.L187:
 161:..\..\..\liblc3\src/spec.c ****                  e_diff < 43 << 16 ?   e_diff + ( 7 << 16)
 2658              		.loc 1 161 0 is_stmt 0
 2659 03f6 2A4B     		ldr	r3, .L197+4
 2660              	.LVL413:
 2661              	.L170:
 161:..\..\..\liblc3\src/spec.c ****                  e_diff < 43 << 16 ?   e_diff + ( 7 << 16)
 2662              		.loc 1 161 0 discriminator 8
 2663 03f8 F618     		adds	r6, r6, r3
 2664              	.LVL414:
 2665              	.LBE157:
 158:..\..\..\liblc3\src/spec.c ****             int e_diff = e[j].q16 - gn;
 2666              		.loc 1 158 0 is_stmt 1 discriminator 8
 2667 03fa 013A     		subs	r2, r2, #1
 2668              	.LVL415:
 2669 03fc 01E0     		b	.L168
 2670              	.LVL416:
 2671              	.L186:
 2672 03fe 0200     		movs	r2, r0
 2673 0400 0026     		movs	r6, #0
 2674              	.LVL417:
 2675              	.L168:
 158:..\..\..\liblc3\src/spec.c ****             int e_diff = e[j].q16 - gn;
 2676              		.loc 1 158 0 is_stmt 0 discriminator 2
 2677 0402 002A     		cmp	r2, #0
 2678 0404 C8DA     		bge	.L172
 166:..\..\..\liblc3\src/spec.c ****             j0 = j1;
 2679              		.loc 1 166 0 is_stmt 1
 2680 0406 274B     		ldr	r3, .L197+8
 2681 0408 4246     		mov	r2, r8
 2682              	.LVL418:
 2683 040a 5343     		muls	r3, r2
 2684 040c 9E42     		cmp	r6, r3
 2685 040e 01DD     		ble	.L188
 2686              	.LVL419:
 167:..\..\..\liblc3\src/spec.c ****         else
 2687              		.loc 1 167 0
 2688 0410 0090     		str	r0, [sp]
 2689              	.LVL420:
 2690 0412 00E0     		b	.L173
 2691              	.LVL421:
ARM GAS  C:\Users\rdn\AppData\Local\Temp\cciiQw7C.s 			page 71


 2692              	.L188:
 169:..\..\..\liblc3\src/spec.c ****     }
 2693              		.loc 1 169 0
 2694 0414 A146     		mov	r9, r4
 2695              	.LVL422:
 2696              	.L173:
 2697              	.LBE156:
 152:..\..\..\liblc3\src/spec.c ****         int gn = (g_int - i) * k_20_28;
 2698              		.loc 1 152 0 discriminator 2
 2699 0416 7F10     		asrs	r7, r7, #1
 2700              	.LVL423:
 2701              	.L166:
 152:..\..\..\liblc3\src/spec.c ****         int gn = (g_int - i) * k_20_28;
 2702              		.loc 1 152 0 is_stmt 0 discriminator 1
 2703 0418 002F     		cmp	r7, #0
 2704 041a ACDC     		bgt	.L174
 2705              	.LBE158:
 174:..\..\..\liblc3\src/spec.c **** 
 2706              		.loc 1 174 0 is_stmt 1
 2707 041c 059B     		ldr	r3, [sp, #20]
 2708 041e 042B     		cmp	r3, #4
 2709 0420 01D9     		bls	.L189
 2710 0422 214C     		ldr	r4, .L197+12
 2711 0424 00E0     		b	.L175
 2712              	.L189:
 2713 0426 214C     		ldr	r4, .L197+16
 2714              	.L175:
 2715              	.LVL424:
 176:..\..\..\liblc3\src/spec.c ****     for (int i = 128 ; i > 0; i >>= 1)
 2716              		.loc 1 176 0 discriminator 4
 2717 0428 5B46     		mov	r3, fp
 2718 042a 6246     		mov	r2, ip
 2719 042c 1A60     		str	r2, [r3]
 2720              	.LVL425:
 2721              	.LBB159:
 177:..\..\..\liblc3\src/spec.c ****         if (x_lim * unquantize_gain(*g_min - i) > x_max)
 2722              		.loc 1 177 0 discriminator 4
 2723 042e 8025     		movs	r5, #128
 2724 0430 5F46     		mov	r7, fp
 2725              	.LVL426:
 2726 0432 10E0     		b	.L176
 2727              	.LVL427:
 2728              	.L179:
 178:..\..\..\liblc3\src/spec.c ****             *g_min -= i;
 2729              		.loc 1 178 0
 2730 0434 3B68     		ldr	r3, [r7]
 2731 0436 5E1B     		subs	r6, r3, r5
 2732 0438 3000     		movs	r0, r6
 2733 043a FFF7FEFF 		bl	unquantize_gain
 2734              	.LVL428:
 2735 043e 011C     		adds	r1, r0, #0
 2736 0440 201C     		adds	r0, r4, #0
 2737 0442 FFF7FEFF 		bl	__aeabi_fmul
 2738              	.LVL429:
 2739 0446 011C     		adds	r1, r0, #0
 2740 0448 0198     		ldr	r0, [sp, #4]
 2741 044a FFF7FEFF 		bl	__aeabi_fcmplt
ARM GAS  C:\Users\rdn\AppData\Local\Temp\cciiQw7C.s 			page 72


 2742              	.LVL430:
 2743 044e 0028     		cmp	r0, #0
 2744 0450 00D0     		beq	.L177
 179:..\..\..\liblc3\src/spec.c **** 
 2745              		.loc 1 179 0
 2746 0452 3E60     		str	r6, [r7]
 2747              	.L177:
 177:..\..\..\liblc3\src/spec.c ****         if (x_lim * unquantize_gain(*g_min - i) > x_max)
 2748              		.loc 1 177 0 discriminator 2
 2749 0454 6D10     		asrs	r5, r5, #1
 2750              	.LVL431:
 2751              	.L176:
 177:..\..\..\liblc3\src/spec.c ****         if (x_lim * unquantize_gain(*g_min - i) > x_max)
 2752              		.loc 1 177 0 is_stmt 0 discriminator 1
 2753 0456 002D     		cmp	r5, #0
 2754 0458 ECDC     		bgt	.L179
 2755 045a BB46     		mov	fp, r7
 2756              	.LBE159:
 181:..\..\..\liblc3\src/spec.c ****     if (*reset_off)
 2757              		.loc 1 181 0 is_stmt 1
 2758 045c 3B68     		ldr	r3, [r7]
 2759 045e 9945     		cmp	r9, r3
 2760 0460 07DB     		blt	.L190
 181:..\..\..\liblc3\src/spec.c ****     if (*reset_off)
 2761              		.loc 1 181 0 is_stmt 0 discriminator 2
 2762 0462 0021     		movs	r1, #0
 2763 0464 0198     		ldr	r0, [sp, #4]
 2764 0466 FFF7FEFF 		bl	__aeabi_fcmpeq
 2765              	.LVL432:
 2766 046a 0028     		cmp	r0, #0
 2767 046c 03D0     		beq	.L194
 181:..\..\..\liblc3\src/spec.c ****     if (*reset_off)
 2768              		.loc 1 181 0
 2769 046e 0123     		movs	r3, #1
 2770 0470 02E0     		b	.L180
 2771              	.L190:
 2772 0472 0123     		movs	r3, #1
 2773 0474 00E0     		b	.L180
 2774              	.L194:
 2775 0476 0023     		movs	r3, #0
 2776              	.L180:
 181:..\..\..\liblc3\src/spec.c ****     if (*reset_off)
 2777              		.loc 1 181 0 discriminator 6
 2778 0478 FFAA     		add	r2, sp, #1020
 2779 047a 3832     		adds	r2, r2, #56
 2780 047c 1268     		ldr	r2, [r2]
 2781 047e 1370     		strb	r3, [r2]
 182:..\..\..\liblc3\src/spec.c ****         g_int = *g_min;
 2782              		.loc 1 182 0 is_stmt 1 discriminator 6
 2783 0480 002B     		cmp	r3, #0
 2784 0482 02D0     		beq	.L182
 183:..\..\..\liblc3\src/spec.c **** 
 2785              		.loc 1 183 0
 2786 0484 5B46     		mov	r3, fp
 2787 0486 1B68     		ldr	r3, [r3]
 2788 0488 9946     		mov	r9, r3
 2789              	.LVL433:
ARM GAS  C:\Users\rdn\AppData\Local\Temp\cciiQw7C.s 			page 73


 2790              	.L182:
 186:..\..\..\liblc3\src/spec.c **** 
 2791              		.loc 1 186 0
 2792 048a 4846     		mov	r0, r9
 2793 048c 084B     		ldr	r3, .L197+20
 2794 048e 9D44     		add	sp, sp, r3
 2795              		@ sp needed
 2796              	.LVL434:
 2797              	.LVL435:
 2798              	.LVL436:
 2799              	.LVL437:
 2800 0490 3CBC     		pop	{r2, r3, r4, r5}
 2801 0492 9046     		mov	r8, r2
 2802 0494 9946     		mov	r9, r3
 2803 0496 A246     		mov	r10, r4
 2804 0498 AB46     		mov	fp, r5
 2805 049a F0BD     		pop	{r4, r5, r6, r7, pc}
 2806              	.L198:
 2807              		.align	2
 2808              	.L197:
 2809 049c 0000EEFF 		.word	-1179648
 2810 04a0 33B30200 		.word	176947
 2811 04a4 66660100 		.word	91750
 2812 04a8 00FEFF4A 		.word	1258290688
 2813 04ac 00FEFF46 		.word	1191181824
 2814 04b0 04040000 		.word	1028
 2815              		.cfi_endproc
 2816              	.LFE22:
 2817              		.size	estimate_gain, .-estimate_gain
 2818              		.section	.text.put_noise_factor,"ax",%progbits
 2819              		.align	2
 2820              		.code	16
 2821              		.thumb_func
 2822              		.type	put_noise_factor, %function
 2823              	put_noise_factor:
 2824              	.LFB36:
 776:..\..\..\liblc3\src/spec.c ****     lc3_put_bits(bits, nf, 3);
 2825              		.loc 1 776 0
 2826              		.cfi_startproc
 2827              		@ args = 0, pretend = 0, frame = 0
 2828              		@ frame_needed = 0, uses_anonymous_args = 0
 2829              	.LVL438:
 2830 0000 10B5     		push	{r4, lr}
 2831              		.cfi_def_cfa_offset 8
 2832              		.cfi_offset 4, -8
 2833              		.cfi_offset 14, -4
 2834              	.LVL439:
 2835              	.LBB160:
 2836              	.LBB161:
 2837              		.file 5 "..\\..\\..\\liblc3\\src\\bits.h"
   1:..\..\..\liblc3\src/bits.h **** /******************************************************************************
   2:..\..\..\liblc3\src/bits.h ****  *
   3:..\..\..\liblc3\src/bits.h ****  *  Copyright 2022 Google LLC
   4:..\..\..\liblc3\src/bits.h ****  *
   5:..\..\..\liblc3\src/bits.h ****  *  Licensed under the Apache License, Version 2.0 (the "License");
   6:..\..\..\liblc3\src/bits.h ****  *  you may not use this file except in compliance with the License.
   7:..\..\..\liblc3\src/bits.h ****  *  You may obtain a copy of the License at:
ARM GAS  C:\Users\rdn\AppData\Local\Temp\cciiQw7C.s 			page 74


   8:..\..\..\liblc3\src/bits.h ****  *
   9:..\..\..\liblc3\src/bits.h ****  *  http://www.apache.org/licenses/LICENSE-2.0
  10:..\..\..\liblc3\src/bits.h ****  *
  11:..\..\..\liblc3\src/bits.h ****  *  Unless required by applicable law or agreed to in writing, software
  12:..\..\..\liblc3\src/bits.h ****  *  distributed under the License is distributed on an "AS IS" BASIS,
  13:..\..\..\liblc3\src/bits.h ****  *  WITHOUT WARRANTIES OR CONDITIONS OF ANY KIND, either express or implied.
  14:..\..\..\liblc3\src/bits.h ****  *  See the License for the specific language governing permissions and
  15:..\..\..\liblc3\src/bits.h ****  *  limitations under the License.
  16:..\..\..\liblc3\src/bits.h ****  *
  17:..\..\..\liblc3\src/bits.h ****  ******************************************************************************/
  18:..\..\..\liblc3\src/bits.h **** 
  19:..\..\..\liblc3\src/bits.h **** /**
  20:..\..\..\liblc3\src/bits.h ****  * The bitstream is written by the 2 ends of the buffer :
  21:..\..\..\liblc3\src/bits.h ****  *
  22:..\..\..\liblc3\src/bits.h ****  * - Arthmetic coder put bits while increasing memory addresses
  23:..\..\..\liblc3\src/bits.h ****  *   in the buffer (forward)
  24:..\..\..\liblc3\src/bits.h ****  *
  25:..\..\..\liblc3\src/bits.h ****  * - Plain bits are puts starting the end of the buffer, with memeory
  26:..\..\..\liblc3\src/bits.h ****  *   addresses decreasing (backward)
  27:..\..\..\liblc3\src/bits.h ****  *
  28:..\..\..\liblc3\src/bits.h ****  *       .---------------------------------------------------.
  29:..\..\..\liblc3\src/bits.h ****  *       | > > > > > > > > > > :         : < < < < < < < < < |
  30:..\..\..\liblc3\src/bits.h ****  *       '---------------------------------------------------'
  31:..\..\..\liblc3\src/bits.h ****  *       |---------------------> - - - - - - - - - - - - - ->|
  32:..\..\..\liblc3\src/bits.h ****  *                              |< - - - <-------------------|
  33:..\..\..\liblc3\src/bits.h ****  *          Arithmetic coding                  Plain bits
  34:..\..\..\liblc3\src/bits.h ****  *          `lc3_put_symbol()`               `lc3_put_bits()`
  35:..\..\..\liblc3\src/bits.h ****  *
  36:..\..\..\liblc3\src/bits.h ****  * - The forward writing is protected against buffer overflow, it cannot
  37:..\..\..\liblc3\src/bits.h ****  *   write after the buffer, but can overwrite plain bits previously
  38:..\..\..\liblc3\src/bits.h ****  *   written in the buffer.
  39:..\..\..\liblc3\src/bits.h ****  *
  40:..\..\..\liblc3\src/bits.h ****  * - The backward writing is protected against overwrite of the arithmetic
  41:..\..\..\liblc3\src/bits.h ****  *   coder bitstream. In such way, the backward bitstream is always limited
  42:..\..\..\liblc3\src/bits.h ****  *   by the aritmetic coder bitstream, and can be overwritten by him.
  43:..\..\..\liblc3\src/bits.h ****  *
  44:..\..\..\liblc3\src/bits.h ****  *       .---------------------------------------------------.
  45:..\..\..\liblc3\src/bits.h ****  *       | > > > > > > > > > > :         : < < < < < < < < < |
  46:..\..\..\liblc3\src/bits.h ****  *       '---------------------------------------------------'
  47:..\..\..\liblc3\src/bits.h ****  *       |---------------------> - - - - - - - - - - - - - ->|
  48:..\..\..\liblc3\src/bits.h ****  *       |< - - - - - - - - - - -  - - - <-------------------|
  49:..\..\..\liblc3\src/bits.h ****  *          Arithmetic coding                  Plain bits
  50:..\..\..\liblc3\src/bits.h ****  *          `lc3_get_symbol()`               `lc3_get_bits()`
  51:..\..\..\liblc3\src/bits.h ****  *
  52:..\..\..\liblc3\src/bits.h ****  * - Reading is limited to read of the complementary end of the buffer.
  53:..\..\..\liblc3\src/bits.h ****  *
  54:..\..\..\liblc3\src/bits.h ****  * - The procedure `lc3_check_bits()` returns indication that read has been
  55:..\..\..\liblc3\src/bits.h ****  *   made crossing the other bit plane.
  56:..\..\..\liblc3\src/bits.h ****  *
  57:..\..\..\liblc3\src/bits.h ****  */
  58:..\..\..\liblc3\src/bits.h **** 
  59:..\..\..\liblc3\src/bits.h **** #ifndef __LC3_BITS_H
  60:..\..\..\liblc3\src/bits.h **** #define __LC3_BITS_H
  61:..\..\..\liblc3\src/bits.h **** 
  62:..\..\..\liblc3\src/bits.h **** #include "common.h"
  63:..\..\..\liblc3\src/bits.h **** 
  64:..\..\..\liblc3\src/bits.h **** 
ARM GAS  C:\Users\rdn\AppData\Local\Temp\cciiQw7C.s 			page 75


  65:..\..\..\liblc3\src/bits.h **** /**
  66:..\..\..\liblc3\src/bits.h ****  * Bitstream mode
  67:..\..\..\liblc3\src/bits.h ****  */
  68:..\..\..\liblc3\src/bits.h **** 
  69:..\..\..\liblc3\src/bits.h **** enum lc3_bits_mode {
  70:..\..\..\liblc3\src/bits.h ****     LC3_BITS_MODE_READ,
  71:..\..\..\liblc3\src/bits.h ****     LC3_BITS_MODE_WRITE,
  72:..\..\..\liblc3\src/bits.h **** };
  73:..\..\..\liblc3\src/bits.h **** 
  74:..\..\..\liblc3\src/bits.h **** /**
  75:..\..\..\liblc3\src/bits.h ****  * Arithmetic coder symbol interval
  76:..\..\..\liblc3\src/bits.h ****  * The model split the interval in 17 symbols
  77:..\..\..\liblc3\src/bits.h ****  */
  78:..\..\..\liblc3\src/bits.h **** 
  79:..\..\..\liblc3\src/bits.h **** struct lc3_ac_symbol {
  80:..\..\..\liblc3\src/bits.h ****     uint16_t low   : 16;
  81:..\..\..\liblc3\src/bits.h ****     uint16_t range : 16;
  82:..\..\..\liblc3\src/bits.h **** };
  83:..\..\..\liblc3\src/bits.h **** 
  84:..\..\..\liblc3\src/bits.h **** struct lc3_ac_model {
  85:..\..\..\liblc3\src/bits.h ****     struct lc3_ac_symbol s[17];
  86:..\..\..\liblc3\src/bits.h **** };
  87:..\..\..\liblc3\src/bits.h **** 
  88:..\..\..\liblc3\src/bits.h **** /**
  89:..\..\..\liblc3\src/bits.h ****  * Bitstream context
  90:..\..\..\liblc3\src/bits.h ****  */
  91:..\..\..\liblc3\src/bits.h **** 
  92:..\..\..\liblc3\src/bits.h **** #define LC3_ACCU_BITS (int)(8 * sizeof(unsigned))
  93:..\..\..\liblc3\src/bits.h **** 
  94:..\..\..\liblc3\src/bits.h **** struct lc3_bits_accu {
  95:..\..\..\liblc3\src/bits.h ****     unsigned v;
  96:..\..\..\liblc3\src/bits.h ****     int n, nover;
  97:..\..\..\liblc3\src/bits.h **** };
  98:..\..\..\liblc3\src/bits.h **** 
  99:..\..\..\liblc3\src/bits.h **** #define LC3_AC_BITS (int)(24)
 100:..\..\..\liblc3\src/bits.h **** 
 101:..\..\..\liblc3\src/bits.h **** struct lc3_bits_ac {
 102:..\..\..\liblc3\src/bits.h ****     unsigned low, range;
 103:..\..\..\liblc3\src/bits.h ****     int cache, carry, carry_count;
 104:..\..\..\liblc3\src/bits.h ****     bool error;
 105:..\..\..\liblc3\src/bits.h **** };
 106:..\..\..\liblc3\src/bits.h **** 
 107:..\..\..\liblc3\src/bits.h **** struct lc3_bits_buffer {
 108:..\..\..\liblc3\src/bits.h ****     const uint8_t *start, *end;
 109:..\..\..\liblc3\src/bits.h ****     uint8_t *p_fw, *p_bw;
 110:..\..\..\liblc3\src/bits.h **** };
 111:..\..\..\liblc3\src/bits.h **** 
 112:..\..\..\liblc3\src/bits.h **** typedef struct lc3_bits {
 113:..\..\..\liblc3\src/bits.h ****     enum lc3_bits_mode mode;
 114:..\..\..\liblc3\src/bits.h ****     struct lc3_bits_ac ac;
 115:..\..\..\liblc3\src/bits.h ****     struct lc3_bits_accu accu;
 116:..\..\..\liblc3\src/bits.h ****     struct lc3_bits_buffer buffer;
 117:..\..\..\liblc3\src/bits.h **** } lc3_bits_t;
 118:..\..\..\liblc3\src/bits.h **** 
 119:..\..\..\liblc3\src/bits.h **** 
 120:..\..\..\liblc3\src/bits.h **** /**
 121:..\..\..\liblc3\src/bits.h ****  * Setup bitstream reading/writing
ARM GAS  C:\Users\rdn\AppData\Local\Temp\cciiQw7C.s 			page 76


 122:..\..\..\liblc3\src/bits.h ****  * bits            Bitstream context
 123:..\..\..\liblc3\src/bits.h ****  * mode            Either READ or WRITE mode
 124:..\..\..\liblc3\src/bits.h ****  * buffer, len     Output buffer and length (in bytes)
 125:..\..\..\liblc3\src/bits.h ****  */
 126:..\..\..\liblc3\src/bits.h **** void lc3_setup_bits(lc3_bits_t *bits,
 127:..\..\..\liblc3\src/bits.h ****     enum lc3_bits_mode mode, void *buffer, int len);
 128:..\..\..\liblc3\src/bits.h **** 
 129:..\..\..\liblc3\src/bits.h **** /**
 130:..\..\..\liblc3\src/bits.h ****  * Return number of bits left in the bitstream
 131:..\..\..\liblc3\src/bits.h ****  * bits            Bitstream context
 132:..\..\..\liblc3\src/bits.h ****  * return          Number of bits left
 133:..\..\..\liblc3\src/bits.h ****  */
 134:..\..\..\liblc3\src/bits.h **** int lc3_get_bits_left(const lc3_bits_t *bits);
 135:..\..\..\liblc3\src/bits.h **** 
 136:..\..\..\liblc3\src/bits.h **** /**
 137:..\..\..\liblc3\src/bits.h ****  * Check if error occured on bitstream reading/writing
 138:..\..\..\liblc3\src/bits.h ****  * bits            Bitstream context
 139:..\..\..\liblc3\src/bits.h ****  * return          0: Ok  -1: Bitstream overflow or AC reading error
 140:..\..\..\liblc3\src/bits.h ****  */
 141:..\..\..\liblc3\src/bits.h **** int lc3_check_bits(const lc3_bits_t *bits);
 142:..\..\..\liblc3\src/bits.h **** 
 143:..\..\..\liblc3\src/bits.h **** /**
 144:..\..\..\liblc3\src/bits.h ****  * Put a bit
 145:..\..\..\liblc3\src/bits.h ****  * bits            Bitstream context
 146:..\..\..\liblc3\src/bits.h ****  * v               Bit value, 0 or 1
 147:..\..\..\liblc3\src/bits.h ****  */
 148:..\..\..\liblc3\src/bits.h **** static inline void lc3_put_bit(lc3_bits_t *bits, int v);
 149:..\..\..\liblc3\src/bits.h **** 
 150:..\..\..\liblc3\src/bits.h **** /**
 151:..\..\..\liblc3\src/bits.h ****  * Put from 1 to 32 bits
 152:..\..\..\liblc3\src/bits.h ****  * bits            Bitstream context
 153:..\..\..\liblc3\src/bits.h ****  * v, n            Value, in range 0 to 2^n - 1, and bits count (1 to 32)
 154:..\..\..\liblc3\src/bits.h ****  */
 155:..\..\..\liblc3\src/bits.h **** static inline void lc3_put_bits(lc3_bits_t *bits, unsigned v, int n);
 156:..\..\..\liblc3\src/bits.h **** 
 157:..\..\..\liblc3\src/bits.h **** /**
 158:..\..\..\liblc3\src/bits.h ****  * Put arithmetic coder symbol
 159:..\..\..\liblc3\src/bits.h ****  * bits            Bitstream context
 160:..\..\..\liblc3\src/bits.h ****  * model, s        Model distribution and symbol value
 161:..\..\..\liblc3\src/bits.h ****  */
 162:..\..\..\liblc3\src/bits.h **** static inline void lc3_put_symbol(lc3_bits_t *bits,
 163:..\..\..\liblc3\src/bits.h ****     const struct lc3_ac_model *model, unsigned s);
 164:..\..\..\liblc3\src/bits.h **** 
 165:..\..\..\liblc3\src/bits.h **** /**
 166:..\..\..\liblc3\src/bits.h ****  * Flush and terminate bitstream writing
 167:..\..\..\liblc3\src/bits.h ****  * bits            Bitstream context
 168:..\..\..\liblc3\src/bits.h ****  */
 169:..\..\..\liblc3\src/bits.h **** void lc3_flush_bits(lc3_bits_t *bits);
 170:..\..\..\liblc3\src/bits.h **** 
 171:..\..\..\liblc3\src/bits.h **** /**
 172:..\..\..\liblc3\src/bits.h ****  * Get a bit
 173:..\..\..\liblc3\src/bits.h ****  * bits            Bitstream context
 174:..\..\..\liblc3\src/bits.h ****  */
 175:..\..\..\liblc3\src/bits.h **** static inline int lc3_get_bit(lc3_bits_t *bits);
 176:..\..\..\liblc3\src/bits.h **** 
 177:..\..\..\liblc3\src/bits.h **** /**
 178:..\..\..\liblc3\src/bits.h ****  * Get from 1 to 32 bits
ARM GAS  C:\Users\rdn\AppData\Local\Temp\cciiQw7C.s 			page 77


 179:..\..\..\liblc3\src/bits.h ****  * bits            Bitstream context
 180:..\..\..\liblc3\src/bits.h ****  * n               Number of bits to read (1 to 32)
 181:..\..\..\liblc3\src/bits.h ****  * return          The value read
 182:..\..\..\liblc3\src/bits.h ****  */
 183:..\..\..\liblc3\src/bits.h **** static inline unsigned lc3_get_bits(lc3_bits_t *bits,  int n);
 184:..\..\..\liblc3\src/bits.h **** 
 185:..\..\..\liblc3\src/bits.h **** /**
 186:..\..\..\liblc3\src/bits.h ****  * Get arithmetic coder symbol
 187:..\..\..\liblc3\src/bits.h ****  * bits            Bitstream context
 188:..\..\..\liblc3\src/bits.h ****  * model           Model distribution
 189:..\..\..\liblc3\src/bits.h ****  * return          The value read
 190:..\..\..\liblc3\src/bits.h ****  */
 191:..\..\..\liblc3\src/bits.h **** static inline unsigned lc3_get_symbol(lc3_bits_t *bits,
 192:..\..\..\liblc3\src/bits.h ****     const struct lc3_ac_model *model);
 193:..\..\..\liblc3\src/bits.h **** 
 194:..\..\..\liblc3\src/bits.h **** 
 195:..\..\..\liblc3\src/bits.h **** 
 196:..\..\..\liblc3\src/bits.h **** /* ----------------------------------------------------------------------------
 197:..\..\..\liblc3\src/bits.h ****  *  Inline implementations
 198:..\..\..\liblc3\src/bits.h ****  * -------------------------------------------------------------------------- */
 199:..\..\..\liblc3\src/bits.h **** 
 200:..\..\..\liblc3\src/bits.h **** void lc3_put_bits_generic(lc3_bits_t *bits, unsigned v, int n);
 201:..\..\..\liblc3\src/bits.h **** unsigned lc3_get_bits_generic(struct lc3_bits *bits, int n);
 202:..\..\..\liblc3\src/bits.h **** 
 203:..\..\..\liblc3\src/bits.h **** void lc3_ac_read_renorm(lc3_bits_t *bits);
 204:..\..\..\liblc3\src/bits.h **** void lc3_ac_write_renorm(lc3_bits_t *bits);
 205:..\..\..\liblc3\src/bits.h **** 
 206:..\..\..\liblc3\src/bits.h **** 
 207:..\..\..\liblc3\src/bits.h **** /**
 208:..\..\..\liblc3\src/bits.h ****  * Put a bit
 209:..\..\..\liblc3\src/bits.h ****  */
 210:..\..\..\liblc3\src/bits.h **** LC3_HOT static inline void lc3_put_bit(lc3_bits_t *bits, int v)
 211:..\..\..\liblc3\src/bits.h **** {
 212:..\..\..\liblc3\src/bits.h ****     lc3_put_bits(bits, v, 1);
 213:..\..\..\liblc3\src/bits.h **** }
 214:..\..\..\liblc3\src/bits.h **** 
 215:..\..\..\liblc3\src/bits.h **** /**
 216:..\..\..\liblc3\src/bits.h ****  * Put from 1 to 32 bits
 217:..\..\..\liblc3\src/bits.h ****  */
 218:..\..\..\liblc3\src/bits.h **** LC3_HOT static inline void lc3_put_bits(
 219:..\..\..\liblc3\src/bits.h ****     struct lc3_bits *bits, unsigned v, int n)
 220:..\..\..\liblc3\src/bits.h **** {
 221:..\..\..\liblc3\src/bits.h ****     struct lc3_bits_accu *accu = &bits->accu;
 222:..\..\..\liblc3\src/bits.h **** 
 223:..\..\..\liblc3\src/bits.h ****     if (accu->n + n <= LC3_ACCU_BITS) {
 2838              		.loc 5 223 0
 2839 0002 026A     		ldr	r2, [r0, #32]
 2840 0004 D31C     		adds	r3, r2, #3
 2841 0006 202B     		cmp	r3, #32
 2842 0008 05DC     		bgt	.L200
 224:..\..\..\liblc3\src/bits.h ****         accu->v |= v << accu->n;
 2843              		.loc 5 224 0
 2844 000a 9140     		lsls	r1, r1, r2
 2845              	.LVL440:
 2846 000c C269     		ldr	r2, [r0, #28]
 2847 000e 1143     		orrs	r1, r2
 2848 0010 C161     		str	r1, [r0, #28]
ARM GAS  C:\Users\rdn\AppData\Local\Temp\cciiQw7C.s 			page 78


 225:..\..\..\liblc3\src/bits.h ****         accu->n += n;
 2849              		.loc 5 225 0
 2850 0012 0362     		str	r3, [r0, #32]
 2851 0014 02E0     		b	.L199
 2852              	.LVL441:
 2853              	.L200:
 226:..\..\..\liblc3\src/bits.h ****     } else {
 227:..\..\..\liblc3\src/bits.h ****         lc3_put_bits_generic(bits, v, n);
 2854              		.loc 5 227 0
 2855 0016 0322     		movs	r2, #3
 2856 0018 FFF7FEFF 		bl	lc3_put_bits_generic
 2857              	.LVL442:
 2858              	.L199:
 2859              	.LBE161:
 2860              	.LBE160:
 778:..\..\..\liblc3\src/spec.c **** 
 2861              		.loc 1 778 0
 2862              		@ sp needed
 2863 001c 10BD     		pop	{r4, pc}
 2864              		.cfi_endproc
 2865              	.LFE36:
 2866              		.size	put_noise_factor, .-put_noise_factor
 2867 001e C046     		.section	.text.get_noise_factor,"ax",%progbits
 2868              		.align	2
 2869              		.code	16
 2870              		.thumb_func
 2871              		.type	get_noise_factor, %function
 2872              	get_noise_factor:
 2873              	.LFB37:
 786:..\..\..\liblc3\src/spec.c ****     return lc3_get_bits(bits, 3);
 2874              		.loc 1 786 0
 2875              		.cfi_startproc
 2876              		@ args = 0, pretend = 0, frame = 0
 2877              		@ frame_needed = 0, uses_anonymous_args = 0
 2878              	.LVL443:
 2879 0000 10B5     		push	{r4, lr}
 2880              		.cfi_def_cfa_offset 8
 2881              		.cfi_offset 4, -8
 2882              		.cfi_offset 14, -4
 2883              	.LVL444:
 2884              	.LBB162:
 2885              	.LBB163:
 228:..\..\..\liblc3\src/bits.h ****     }
 229:..\..\..\liblc3\src/bits.h **** }
 230:..\..\..\liblc3\src/bits.h **** 
 231:..\..\..\liblc3\src/bits.h **** /**
 232:..\..\..\liblc3\src/bits.h ****  * Get a bit
 233:..\..\..\liblc3\src/bits.h ****  */
 234:..\..\..\liblc3\src/bits.h **** LC3_HOT static inline int lc3_get_bit(lc3_bits_t *bits)
 235:..\..\..\liblc3\src/bits.h **** {
 236:..\..\..\liblc3\src/bits.h ****     return lc3_get_bits(bits, 1);
 237:..\..\..\liblc3\src/bits.h **** }
 238:..\..\..\liblc3\src/bits.h **** 
 239:..\..\..\liblc3\src/bits.h **** /**
 240:..\..\..\liblc3\src/bits.h ****  * Get from 1 to 32 bits
 241:..\..\..\liblc3\src/bits.h ****  */
 242:..\..\..\liblc3\src/bits.h **** LC3_HOT static inline unsigned lc3_get_bits(struct lc3_bits *bits, int n)
ARM GAS  C:\Users\rdn\AppData\Local\Temp\cciiQw7C.s 			page 79


 243:..\..\..\liblc3\src/bits.h **** {
 244:..\..\..\liblc3\src/bits.h ****     struct lc3_bits_accu *accu = &bits->accu;
 245:..\..\..\liblc3\src/bits.h **** 
 246:..\..\..\liblc3\src/bits.h ****     if (accu->n + n <= LC3_ACCU_BITS) {
 2886              		.loc 5 246 0
 2887 0002 036A     		ldr	r3, [r0, #32]
 2888 0004 DA1C     		adds	r2, r3, #3
 2889 0006 202A     		cmp	r2, #32
 2890 0008 06DC     		bgt	.L203
 2891              	.LBB164:
 247:..\..\..\liblc3\src/bits.h ****         int v = (accu->v >> accu->n) & ((1u << n) - 1);
 2892              		.loc 5 247 0
 2893 000a C169     		ldr	r1, [r0, #28]
 2894 000c D940     		lsrs	r1, r1, r3
 2895 000e 0B00     		movs	r3, r1
 2896 0010 0721     		movs	r1, #7
 2897 0012 0B40     		ands	r3, r1
 2898              	.LVL445:
 248:..\..\..\liblc3\src/bits.h ****         return (accu->n += n), v;
 2899              		.loc 5 248 0
 2900 0014 0262     		str	r2, [r0, #32]
 2901 0016 03E0     		b	.L204
 2902              	.LVL446:
 2903              	.L203:
 2904              	.LBE164:
 249:..\..\..\liblc3\src/bits.h ****     }
 250:..\..\..\liblc3\src/bits.h ****     else {
 251:..\..\..\liblc3\src/bits.h ****         return lc3_get_bits_generic(bits, n);
 2905              		.loc 5 251 0
 2906 0018 0321     		movs	r1, #3
 2907 001a FFF7FEFF 		bl	lc3_get_bits_generic
 2908              	.LVL447:
 2909 001e 0300     		movs	r3, r0
 2910              	.L204:
 2911              	.LVL448:
 2912              	.LBE163:
 2913              	.LBE162:
 788:..\..\..\liblc3\src/spec.c **** 
 2914              		.loc 1 788 0
 2915 0020 1800     		movs	r0, r3
 2916              		@ sp needed
 2917 0022 10BD     		pop	{r4, pc}
 2918              		.cfi_endproc
 2919              	.LFE37:
 2920              		.size	get_noise_factor, .-get_noise_factor
 2921              		.section	.text.put_residual,"ax",%progbits
 2922              		.align	2
 2923              		.code	16
 2924              		.thumb_func
 2925              		.type	put_residual, %function
 2926              	put_residual:
 2927              	.LFB30:
 576:..\..\..\liblc3\src/spec.c ****     float xq_lim = hrmode ? 0.5f : 10.f/16;
 2928              		.loc 1 576 0
 2929              		.cfi_startproc
 2930              		@ args = 4, pretend = 0, frame = 24
 2931              		@ frame_needed = 0, uses_anonymous_args = 0
ARM GAS  C:\Users\rdn\AppData\Local\Temp\cciiQw7C.s 			page 80


 2932              	.LVL449:
 2933 0000 F0B5     		push	{r4, r5, r6, r7, lr}
 2934              		.cfi_def_cfa_offset 20
 2935              		.cfi_offset 4, -20
 2936              		.cfi_offset 5, -16
 2937              		.cfi_offset 6, -12
 2938              		.cfi_offset 7, -8
 2939              		.cfi_offset 14, -4
 2940 0002 5F46     		mov	r7, fp
 2941 0004 5646     		mov	r6, r10
 2942 0006 4D46     		mov	r5, r9
 2943 0008 4446     		mov	r4, r8
 2944 000a F0B4     		push	{r4, r5, r6, r7}
 2945              		.cfi_def_cfa_offset 36
 2946              		.cfi_offset 8, -36
 2947              		.cfi_offset 9, -32
 2948              		.cfi_offset 10, -28
 2949              		.cfi_offset 11, -24
 2950 000c 87B0     		sub	sp, sp, #28
 2951              		.cfi_def_cfa_offset 64
 2952 000e 8146     		mov	r9, r0
 2953 0010 8846     		mov	r8, r1
 2954 0012 0592     		str	r2, [sp, #20]
 2955 0014 9B46     		mov	fp, r3
 2956 0016 109B     		ldr	r3, [sp, #64]
 2957              	.LVL450:
 2958 0018 9A46     		mov	r10, r3
 577:..\..\..\liblc3\src/spec.c ****     float xq_off = xq_lim / 2;
 2959              		.loc 1 577 0
 2960 001a 002A     		cmp	r2, #0
 2961 001c 03D0     		beq	.L219
 2962 001e FC23     		movs	r3, #252
 2963 0020 9B05     		lsls	r3, r3, #22
 2964 0022 0193     		str	r3, [sp, #4]
 2965 0024 01E0     		b	.L206
 2966              	.L219:
 2967 0026 3F4B     		ldr	r3, .L223
 2968 0028 0193     		str	r3, [sp, #4]
 2969              	.L206:
 2970              	.LVL451:
 578:..\..\..\liblc3\src/spec.c **** 
 2971              		.loc 1 578 0 discriminator 4
 2972 002a FC21     		movs	r1, #252
 2973              	.LVL452:
 2974 002c 8905     		lsls	r1, r1, #22
 2975 002e 0198     		ldr	r0, [sp, #4]
 2976              	.LVL453:
 2977 0030 FFF7FEFF 		bl	__aeabi_fmul
 2978              	.LVL454:
 2979 0034 0390     		str	r0, [sp, #12]
 2980              	.LVL455:
 2981              	.LBB172:
 580:..\..\..\liblc3\src/spec.c ****         for (int i = 0; i < n && nbits > 0; i++) {
 2982              		.loc 1 580 0 discriminator 4
 2983 0036 0023     		movs	r3, #0
 2984 0038 0493     		str	r3, [sp, #16]
 2985 003a 5FE0     		b	.L207
ARM GAS  C:\Users\rdn\AppData\Local\Temp\cciiQw7C.s 			page 81


 2986              	.LVL456:
 2987              	.L215:
 2988              	.LBB173:
 2989              	.LBB174:
 583:..\..\..\liblc3\src/spec.c ****             if (xr < xq_lim)
 2990              		.loc 1 583 0
 2991 003c B400     		lsls	r4, r6, #2
 2992 003e 5C44     		add	r4, r4, fp
 2993 0040 2768     		ldr	r7, [r4]
 2994 0042 7D00     		lsls	r5, r7, #1
 2995 0044 6D08     		lsrs	r5, r5, #1
 2996              	.LVL457:
 584:..\..\..\liblc3\src/spec.c ****                 continue;
 2997              		.loc 1 584 0
 2998 0046 291C     		adds	r1, r5, #0
 2999 0048 0198     		ldr	r0, [sp, #4]
 3000 004a FFF7FEFF 		bl	__aeabi_fcmpgt
 3001              	.LVL458:
 3002 004e 0028     		cmp	r0, #0
 3003 0050 44D1     		bne	.L208
 587:..\..\..\liblc3\src/spec.c ****             lc3_put_bit(bits, b);
 3004              		.loc 1 587 0
 3005 0052 281C     		adds	r0, r5, #0
 3006 0054 FFF7FEFF 		bl	truncf
 3007              	.LVL459:
 3008 0058 011C     		adds	r1, r0, #0
 3009 005a 281C     		adds	r0, r5, #0
 3010 005c FFF7FEFF 		bl	__aeabi_fsub
 3011              	.LVL460:
 3012 0060 011C     		adds	r1, r0, #0
 3013 0062 0125     		movs	r5, #1
 3014              	.LVL461:
 3015 0064 0198     		ldr	r0, [sp, #4]
 3016 0066 FFF7FEFF 		bl	__aeabi_fcmpgt
 3017              	.LVL462:
 3018 006a 0028     		cmp	r0, #0
 3019 006c 00D1     		bne	.L209
 3020 006e 0025     		movs	r5, #0
 3021              	.L209:
 3022 0070 EDB2     		uxtb	r5, r5
 3023 0072 0123     		movs	r3, #1
 3024 0074 6A46     		mov	r2, sp
 3025 0076 D372     		strb	r3, [r2, #11]
 3026 0078 0021     		movs	r1, #0
 3027 007a 381C     		adds	r0, r7, #0
 3028 007c FFF7FEFF 		bl	__aeabi_fcmplt
 3029              	.LVL463:
 3030 0080 0028     		cmp	r0, #0
 3031 0082 02D1     		bne	.L210
 3032 0084 0023     		movs	r3, #0
 3033 0086 6A46     		mov	r2, sp
 3034 0088 D372     		strb	r3, [r2, #11]
 3035              	.L210:
 3036 008a 6B46     		mov	r3, sp
 3037 008c DB7A     		ldrb	r3, [r3, #11]
 3038 008e 5D40     		eors	r5, r3
 3039              	.LVL464:
ARM GAS  C:\Users\rdn\AppData\Local\Temp\cciiQw7C.s 			page 82


 3040              	.LBB175:
 3041              	.LBB176:
 3042              	.LBB177:
 3043              	.LBB178:
 223:..\..\..\liblc3\src/bits.h ****         accu->v |= v << accu->n;
 3044              		.loc 5 223 0
 3045 0090 4B46     		mov	r3, r9
 3046 0092 1A6A     		ldr	r2, [r3, #32]
 3047 0094 531C     		adds	r3, r2, #1
 3048 0096 202B     		cmp	r3, #32
 3049 0098 09DC     		bgt	.L211
 224:..\..\..\liblc3\src/bits.h ****         accu->n += n;
 3050              		.loc 5 224 0
 3051 009a 2900     		movs	r1, r5
 3052 009c 9140     		lsls	r1, r1, r2
 3053 009e 0A00     		movs	r2, r1
 3054 00a0 4946     		mov	r1, r9
 3055 00a2 C969     		ldr	r1, [r1, #28]
 3056 00a4 0A43     		orrs	r2, r1
 3057 00a6 4946     		mov	r1, r9
 3058 00a8 CA61     		str	r2, [r1, #28]
 225:..\..\..\liblc3\src/bits.h ****     } else {
 3059              		.loc 5 225 0
 3060 00aa 0B62     		str	r3, [r1, #32]
 3061 00ac 04E0     		b	.L212
 3062              	.L211:
 227:..\..\..\liblc3\src/bits.h ****     }
 3063              		.loc 5 227 0
 3064 00ae 0122     		movs	r2, #1
 3065 00b0 2900     		movs	r1, r5
 3066 00b2 4846     		mov	r0, r9
 3067 00b4 FFF7FEFF 		bl	lc3_put_bits_generic
 3068              	.LVL465:
 3069              	.L212:
 3070              	.LBE178:
 3071              	.LBE177:
 3072              	.LBE176:
 3073              	.LBE175:
 589:..\..\..\liblc3\src/spec.c **** 
 3074              		.loc 1 589 0
 3075 00b8 0123     		movs	r3, #1
 3076 00ba 5B42     		rsbs	r3, r3, #0
 3077 00bc 9C46     		mov	ip, r3
 3078 00be E044     		add	r8, r8, ip
 3079              	.LVL466:
 591:..\..\..\liblc3\src/spec.c ****         }
 3080              		.loc 1 591 0
 3081 00c0 2168     		ldr	r1, [r4]
 3082 00c2 002D     		cmp	r5, #0
 3083 00c4 06D0     		beq	.L220
 591:..\..\..\liblc3\src/spec.c ****         }
 3084              		.loc 1 591 0 is_stmt 0 discriminator 1
 3085 00c6 039B     		ldr	r3, [sp, #12]
 3086 00c8 8022     		movs	r2, #128
 3087 00ca 1206     		lsls	r2, r2, #24
 3088 00cc 9446     		mov	ip, r2
 3089 00ce 6344     		add	r3, r3, ip
ARM GAS  C:\Users\rdn\AppData\Local\Temp\cciiQw7C.s 			page 83


 3090 00d0 1800     		movs	r0, r3
 3091 00d2 00E0     		b	.L213
 3092              	.L220:
 591:..\..\..\liblc3\src/spec.c ****         }
 3093              		.loc 1 591 0
 3094 00d4 0398     		ldr	r0, [sp, #12]
 3095              	.L213:
 591:..\..\..\liblc3\src/spec.c ****         }
 3096              		.loc 1 591 0 discriminator 4
 3097 00d6 FFF7FEFF 		bl	__aeabi_fadd
 3098              	.LVL467:
 3099 00da 2060     		str	r0, [r4]
 3100              	.LVL468:
 3101              	.L208:
 3102              	.LBE174:
 581:..\..\..\liblc3\src/spec.c **** 
 3103              		.loc 1 581 0 is_stmt 1 discriminator 2
 3104 00dc 0136     		adds	r6, r6, #1
 3105              	.LVL469:
 3106 00de 00E0     		b	.L218
 3107              	.LVL470:
 3108              	.L222:
 3109              	.LBE173:
 3110 00e0 0026     		movs	r6, #0
 3111              	.LVL471:
 3112              	.L218:
 3113              	.LBB179:
 581:..\..\..\liblc3\src/spec.c **** 
 3114              		.loc 1 581 0 is_stmt 0 discriminator 1
 3115 00e2 5645     		cmp	r6, r10
 3116 00e4 02DA     		bge	.L214
 581:..\..\..\liblc3\src/spec.c **** 
 3117              		.loc 1 581 0 discriminator 3
 3118 00e6 4346     		mov	r3, r8
 3119 00e8 002B     		cmp	r3, #0
 3120 00ea A7DC     		bgt	.L215
 3121              	.L214:
 3122              	.LBE179:
 594:..\..\..\liblc3\src/spec.c ****     }
 3123              		.loc 1 594 0 is_stmt 1 discriminator 2
 3124 00ec 0199     		ldr	r1, [sp, #4]
 3125 00ee 0398     		ldr	r0, [sp, #12]
 3126 00f0 FFF7FEFF 		bl	__aeabi_fmul
 3127              	.LVL472:
 3128 00f4 0390     		str	r0, [sp, #12]
 3129              	.LVL473:
 580:..\..\..\liblc3\src/spec.c ****         for (int i = 0; i < n && nbits > 0; i++) {
 3130              		.loc 1 580 0 discriminator 2
 3131 00f6 049B     		ldr	r3, [sp, #16]
 3132 00f8 0133     		adds	r3, r3, #1
 3133 00fa 0493     		str	r3, [sp, #16]
 3134              	.LVL474:
 3135              	.L207:
 580:..\..\..\liblc3\src/spec.c ****         for (int i = 0; i < n && nbits > 0; i++) {
 3136              		.loc 1 580 0 is_stmt 0 discriminator 1
 3137 00fc 059B     		ldr	r3, [sp, #20]
 3138 00fe 002B     		cmp	r3, #0
ARM GAS  C:\Users\rdn\AppData\Local\Temp\cciiQw7C.s 			page 84


 3139 0100 01D0     		beq	.L221
 580:..\..\..\liblc3\src/spec.c ****         for (int i = 0; i < n && nbits > 0; i++) {
 3140              		.loc 1 580 0
 3141 0102 1423     		movs	r3, #20
 3142 0104 00E0     		b	.L216
 3143              	.L221:
 3144 0106 0123     		movs	r3, #1
 3145              	.L216:
 580:..\..\..\liblc3\src/spec.c ****         for (int i = 0; i < n && nbits > 0; i++) {
 3146              		.loc 1 580 0 discriminator 6
 3147 0108 049A     		ldr	r2, [sp, #16]
 3148 010a 9A42     		cmp	r2, r3
 3149 010c 02DA     		bge	.L205
 580:..\..\..\liblc3\src/spec.c ****         for (int i = 0; i < n && nbits > 0; i++) {
 3150              		.loc 1 580 0 discriminator 7
 3151 010e 4346     		mov	r3, r8
 3152 0110 002B     		cmp	r3, #0
 3153 0112 E5DC     		bgt	.L222
 3154              	.L205:
 3155              	.LBE172:
 596:..\..\..\liblc3\src/spec.c **** 
 3156              		.loc 1 596 0 is_stmt 1
 3157 0114 07B0     		add	sp, sp, #28
 3158              		@ sp needed
 3159              	.LVL475:
 3160              	.LVL476:
 3161              	.LVL477:
 3162 0116 3CBC     		pop	{r2, r3, r4, r5}
 3163 0118 9046     		mov	r8, r2
 3164 011a 9946     		mov	r9, r3
 3165 011c A246     		mov	r10, r4
 3166 011e AB46     		mov	fp, r5
 3167 0120 F0BD     		pop	{r4, r5, r6, r7, pc}
 3168              	.L224:
 3169 0122 C046     		.align	2
 3170              	.L223:
 3171 0124 0000203F 		.word	1059061760
 3172              		.cfi_endproc
 3173              	.LFE30:
 3174              		.size	put_residual, .-put_residual
 3175              		.section	.text.get_residual,"ax",%progbits
 3176              		.align	2
 3177              		.code	16
 3178              		.thumb_func
 3179              		.type	get_residual, %function
 3180              	get_residual:
 3181              	.LFB31:
 607:..\..\..\liblc3\src/spec.c ****     float xq_off_1 = hrmode ? 0.25f : 5.f/16;
 3182              		.loc 1 607 0
 3183              		.cfi_startproc
 3184              		@ args = 4, pretend = 0, frame = 16
 3185              		@ frame_needed = 0, uses_anonymous_args = 0
 3186              	.LVL478:
 3187 0000 F0B5     		push	{r4, r5, r6, r7, lr}
 3188              		.cfi_def_cfa_offset 20
 3189              		.cfi_offset 4, -20
 3190              		.cfi_offset 5, -16
ARM GAS  C:\Users\rdn\AppData\Local\Temp\cciiQw7C.s 			page 85


 3191              		.cfi_offset 6, -12
 3192              		.cfi_offset 7, -8
 3193              		.cfi_offset 14, -4
 3194 0002 5F46     		mov	r7, fp
 3195 0004 5646     		mov	r6, r10
 3196 0006 4D46     		mov	r5, r9
 3197 0008 4446     		mov	r4, r8
 3198 000a F0B4     		push	{r4, r5, r6, r7}
 3199              		.cfi_def_cfa_offset 36
 3200              		.cfi_offset 8, -36
 3201              		.cfi_offset 9, -32
 3202              		.cfi_offset 10, -28
 3203              		.cfi_offset 11, -24
 3204 000c 85B0     		sub	sp, sp, #20
 3205              		.cfi_def_cfa_offset 56
 3206 000e 0700     		movs	r7, r0
 3207 0010 0E00     		movs	r6, r1
 3208 0012 9246     		mov	r10, r2
 3209 0014 9946     		mov	r9, r3
 3210 0016 0E9B     		ldr	r3, [sp, #56]
 3211              	.LVL479:
 3212 0018 9846     		mov	r8, r3
 608:..\..\..\liblc3\src/spec.c ****     float xq_off_2 = hrmode ? 0.25f : 3.f/16;
 3213              		.loc 1 608 0
 3214 001a 002A     		cmp	r2, #0
 3215 001c 03D0     		beq	.L243
 3216 001e FA23     		movs	r3, #250
 3217 0020 9B05     		lsls	r3, r3, #22
 3218 0022 0193     		str	r3, [sp, #4]
 3219 0024 01E0     		b	.L226
 3220              	.L243:
 3221 0026 3C4B     		ldr	r3, .L253
 3222 0028 0193     		str	r3, [sp, #4]
 3223              	.L226:
 3224              	.LVL480:
 609:..\..\..\liblc3\src/spec.c **** 
 3225              		.loc 1 609 0 discriminator 4
 3226 002a 5346     		mov	r3, r10
 3227 002c 002B     		cmp	r3, #0
 3228 002e 03D0     		beq	.L244
 609:..\..\..\liblc3\src/spec.c **** 
 3229              		.loc 1 609 0 is_stmt 0
 3230 0030 FA23     		movs	r3, #250
 3231 0032 9B05     		lsls	r3, r3, #22
 3232 0034 0293     		str	r3, [sp, #8]
 3233 0036 02E0     		b	.L227
 3234              	.L244:
 3235 0038 F923     		movs	r3, #249
 3236 003a 9B05     		lsls	r3, r3, #22
 3237 003c 0293     		str	r3, [sp, #8]
 3238              	.L227:
 3239              	.LBB187:
 3240 003e 0023     		movs	r3, #0
 3241 0040 9B46     		mov	fp, r3
 3242 0042 58E0     		b	.L228
 3243              	.LVL481:
 3244              	.L239:
ARM GAS  C:\Users\rdn\AppData\Local\Temp\cciiQw7C.s 			page 86


 3245              	.LBB188:
 614:..\..\..\liblc3\src/spec.c ****               continue;
 3246              		.loc 1 614 0 is_stmt 1
 3247 0044 AC00     		lsls	r4, r5, #2
 3248 0046 4C44     		add	r4, r4, r9
 3249 0048 0021     		movs	r1, #0
 3250 004a 2068     		ldr	r0, [r4]
 3251 004c FFF7FEFF 		bl	__aeabi_fcmpeq
 3252              	.LVL482:
 3253 0050 0028     		cmp	r0, #0
 3254 0052 32D1     		bne	.L229
 3255              	.LVL483:
 3256              	.LBB189:
 3257              	.LBB190:
 3258              	.LBB191:
 3259              	.LBB192:
 246:..\..\..\liblc3\src/bits.h ****         int v = (accu->v >> accu->n) & ((1u << n) - 1);
 3260              		.loc 5 246 0
 3261 0054 4346     		mov	r3, r8
 3262 0056 1B6A     		ldr	r3, [r3, #32]
 3263 0058 5A1C     		adds	r2, r3, #1
 3264 005a 202A     		cmp	r2, #32
 3265 005c 07DC     		bgt	.L230
 3266              	.LBB193:
 247:..\..\..\liblc3\src/bits.h ****         return (accu->n += n), v;
 3267              		.loc 5 247 0
 3268 005e 4146     		mov	r1, r8
 3269 0060 C969     		ldr	r1, [r1, #28]
 3270 0062 D940     		lsrs	r1, r1, r3
 3271 0064 0130     		adds	r0, r0, #1
 3272 0066 0840     		ands	r0, r1
 3273              	.LVL484:
 248:..\..\..\liblc3\src/bits.h ****     }
 3274              		.loc 5 248 0
 3275 0068 4346     		mov	r3, r8
 3276 006a 1A62     		str	r2, [r3, #32]
 3277 006c 03E0     		b	.L231
 3278              	.LVL485:
 3279              	.L230:
 3280              	.LBE193:
 3281              		.loc 5 251 0
 3282 006e 0121     		movs	r1, #1
 3283 0070 4046     		mov	r0, r8
 3284 0072 FFF7FEFF 		bl	lc3_get_bits_generic
 3285              	.LVL486:
 3286              	.L231:
 3287              	.LBE192:
 3288              	.LBE191:
 3289              	.LBE190:
 3290              	.LBE189:
 617:..\..\..\liblc3\src/spec.c ****                 x[i] -= x[i] < 0 ? xq_off_1 : xq_off_2;
 3291              		.loc 1 617 0
 3292 0076 0028     		cmp	r0, #0
 3293 0078 0FD1     		bne	.L232
 618:..\..\..\liblc3\src/spec.c ****             else
 3294              		.loc 1 618 0
 3295 007a 2368     		ldr	r3, [r4]
ARM GAS  C:\Users\rdn\AppData\Local\Temp\cciiQw7C.s 			page 87


 3296 007c 0393     		str	r3, [sp, #12]
 3297 007e 0021     		movs	r1, #0
 3298 0080 181C     		adds	r0, r3, #0
 3299 0082 FFF7FEFF 		bl	__aeabi_fcmplt
 3300              	.LVL487:
 3301 0086 0028     		cmp	r0, #0
 3302 0088 01D0     		beq	.L251
 3303 008a 0199     		ldr	r1, [sp, #4]
 3304 008c 00E0     		b	.L233
 3305              	.L251:
 3306 008e 0299     		ldr	r1, [sp, #8]
 3307              	.L233:
 618:..\..\..\liblc3\src/spec.c ****             else
 3308              		.loc 1 618 0 is_stmt 0 discriminator 4
 3309 0090 0398     		ldr	r0, [sp, #12]
 3310 0092 FFF7FEFF 		bl	__aeabi_fsub
 3311              	.LVL488:
 3312 0096 2060     		str	r0, [r4]
 3313 0098 0EE0     		b	.L235
 3314              	.L232:
 620:..\..\..\liblc3\src/spec.c **** 
 3315              		.loc 1 620 0 is_stmt 1
 3316 009a 2368     		ldr	r3, [r4]
 3317 009c 0393     		str	r3, [sp, #12]
 3318 009e 0021     		movs	r1, #0
 3319 00a0 181C     		adds	r0, r3, #0
 3320 00a2 FFF7FEFF 		bl	__aeabi_fcmpgt
 3321              	.LVL489:
 3322 00a6 0028     		cmp	r0, #0
 3323 00a8 01D0     		beq	.L252
 3324 00aa 0198     		ldr	r0, [sp, #4]
 3325 00ac 00E0     		b	.L236
 3326              	.L252:
 3327 00ae 0298     		ldr	r0, [sp, #8]
 3328              	.L236:
 620:..\..\..\liblc3\src/spec.c **** 
 3329              		.loc 1 620 0 is_stmt 0 discriminator 4
 3330 00b0 0399     		ldr	r1, [sp, #12]
 3331 00b2 FFF7FEFF 		bl	__aeabi_fadd
 3332              	.LVL490:
 3333 00b6 2060     		str	r0, [r4]
 3334              	.L235:
 622:..\..\..\liblc3\src/spec.c ****         }
 3335              		.loc 1 622 0 is_stmt 1
 3336 00b8 013E     		subs	r6, r6, #1
 3337              	.LVL491:
 3338              	.L229:
 612:..\..\..\liblc3\src/spec.c **** 
 3339              		.loc 1 612 0 discriminator 2
 3340 00ba 0135     		adds	r5, r5, #1
 3341              	.LVL492:
 3342 00bc 04E0     		b	.L242
 3343              	.LVL493:
 3344              	.L248:
 3345              	.LBE188:
 3346 00be 0025     		movs	r5, #0
 3347 00c0 4346     		mov	r3, r8
ARM GAS  C:\Users\rdn\AppData\Local\Temp\cciiQw7C.s 			page 88


 3348 00c2 0E93     		str	r3, [sp, #56]
 3349 00c4 B846     		mov	r8, r7
 3350 00c6 1F00     		movs	r7, r3
 3351              	.LVL494:
 3352              	.L242:
 3353              	.LBB194:
 612:..\..\..\liblc3\src/spec.c **** 
 3354              		.loc 1 612 0 is_stmt 0 discriminator 1
 3355 00c8 BD42     		cmp	r5, r7
 3356 00ca 01DA     		bge	.L238
 612:..\..\..\liblc3\src/spec.c **** 
 3357              		.loc 1 612 0 discriminator 3
 3358 00cc 002E     		cmp	r6, #0
 3359 00ce B9DC     		bgt	.L239
 3360              	.L238:
 3361 00d0 0E97     		str	r7, [sp, #56]
 3362 00d2 4746     		mov	r7, r8
 3363 00d4 0E9B     		ldr	r3, [sp, #56]
 3364 00d6 9846     		mov	r8, r3
 3365              	.LVL495:
 3366              	.LBE194:
 625:..\..\..\liblc3\src/spec.c ****         xq_off_2 *= 0.5f;
 3367              		.loc 1 625 0 is_stmt 1 discriminator 2
 3368 00d8 FC21     		movs	r1, #252
 3369 00da 8905     		lsls	r1, r1, #22
 3370 00dc 0198     		ldr	r0, [sp, #4]
 3371 00de FFF7FEFF 		bl	__aeabi_fmul
 3372              	.LVL496:
 3373 00e2 0190     		str	r0, [sp, #4]
 3374              	.LVL497:
 626:..\..\..\liblc3\src/spec.c ****     }
 3375              		.loc 1 626 0 discriminator 2
 3376 00e4 FC21     		movs	r1, #252
 3377 00e6 8905     		lsls	r1, r1, #22
 3378 00e8 0298     		ldr	r0, [sp, #8]
 3379              	.LVL498:
 3380 00ea FFF7FEFF 		bl	__aeabi_fmul
 3381              	.LVL499:
 3382 00ee 0290     		str	r0, [sp, #8]
 3383              	.LVL500:
 611:..\..\..\liblc3\src/spec.c ****         for (int i = 0; i < n && nbits > 0; i++) {
 3384              		.loc 1 611 0 discriminator 2
 3385 00f0 0123     		movs	r3, #1
 3386 00f2 9C46     		mov	ip, r3
 3387 00f4 E344     		add	fp, fp, ip
 3388              	.LVL501:
 3389              	.L228:
 611:..\..\..\liblc3\src/spec.c ****         for (int i = 0; i < n && nbits > 0; i++) {
 3390              		.loc 1 611 0 is_stmt 0 discriminator 1
 3391 00f6 5346     		mov	r3, r10
 3392 00f8 002B     		cmp	r3, #0
 3393 00fa 01D0     		beq	.L247
 611:..\..\..\liblc3\src/spec.c ****         for (int i = 0; i < n && nbits > 0; i++) {
 3394              		.loc 1 611 0
 3395 00fc 1423     		movs	r3, #20
 3396 00fe 00E0     		b	.L240
 3397              	.L247:
ARM GAS  C:\Users\rdn\AppData\Local\Temp\cciiQw7C.s 			page 89


 3398 0100 0123     		movs	r3, #1
 3399              	.L240:
 611:..\..\..\liblc3\src/spec.c ****         for (int i = 0; i < n && nbits > 0; i++) {
 3400              		.loc 1 611 0 discriminator 6
 3401 0102 9B45     		cmp	fp, r3
 3402 0104 01DA     		bge	.L225
 611:..\..\..\liblc3\src/spec.c ****         for (int i = 0; i < n && nbits > 0; i++) {
 3403              		.loc 1 611 0 discriminator 7
 3404 0106 002E     		cmp	r6, #0
 3405 0108 D9DC     		bgt	.L248
 3406              	.L225:
 3407              	.LBE187:
 628:..\..\..\liblc3\src/spec.c **** 
 3408              		.loc 1 628 0 is_stmt 1
 3409 010a 05B0     		add	sp, sp, #20
 3410              		@ sp needed
 3411              	.LVL502:
 3412              	.LVL503:
 3413              	.LVL504:
 3414              	.LVL505:
 3415 010c 3CBC     		pop	{r2, r3, r4, r5}
 3416 010e 9046     		mov	r8, r2
 3417 0110 9946     		mov	r9, r3
 3418 0112 A246     		mov	r10, r4
 3419 0114 AB46     		mov	fp, r5
 3420 0116 F0BD     		pop	{r4, r5, r6, r7, pc}
 3421              	.L254:
 3422              		.align	2
 3423              	.L253:
 3424 0118 0000A03E 		.word	1050673152
 3425              		.cfi_endproc
 3426              	.LFE31:
 3427              		.size	get_residual, .-get_residual
 3428              		.section	.text.put_quantized,"ax",%progbits
 3429              		.align	2
 3430              		.code	16
 3431              		.thumb_func
 3432              		.type	put_quantized, %function
 3433              	put_quantized:
 3434              	.LFB28:
 422:..\..\..\liblc3\src/spec.c ****     bool high_rate = resolve_modes(sr, nbytes, NULL);
 3435              		.loc 1 422 0
 3436              		.cfi_startproc
 3437              		@ args = 12, pretend = 0, frame = 32
 3438              		@ frame_needed = 0, uses_anonymous_args = 0
 3439              	.LVL506:
 3440 0000 F0B5     		push	{r4, r5, r6, r7, lr}
 3441              		.cfi_def_cfa_offset 20
 3442              		.cfi_offset 4, -20
 3443              		.cfi_offset 5, -16
 3444              		.cfi_offset 6, -12
 3445              		.cfi_offset 7, -8
 3446              		.cfi_offset 14, -4
 3447 0002 5F46     		mov	r7, fp
 3448 0004 5646     		mov	r6, r10
 3449 0006 4D46     		mov	r5, r9
 3450 0008 4446     		mov	r4, r8
ARM GAS  C:\Users\rdn\AppData\Local\Temp\cciiQw7C.s 			page 90


 3451 000a F0B4     		push	{r4, r5, r6, r7}
 3452              		.cfi_def_cfa_offset 36
 3453              		.cfi_offset 8, -36
 3454              		.cfi_offset 9, -32
 3455              		.cfi_offset 10, -28
 3456              		.cfi_offset 11, -24
 3457 000c 89B0     		sub	sp, sp, #36
 3458              		.cfi_def_cfa_offset 72
 3459 000e 0700     		movs	r7, r0
 3460 0010 0C00     		movs	r4, r1
 3461 0012 1500     		movs	r5, r2
 3462 0014 0692     		str	r2, [sp, #24]
 3463 0016 14AA     		add	r2, sp, #80
 3464              	.LVL507:
 3465 0018 1178     		ldrb	r1, [r2]
 3466              	.LVL508:
 3467 001a 0391     		str	r1, [sp, #12]
 423:..\..\..\liblc3\src/spec.c ****     int ne = lc3_ne(dt, sr);
 3468              		.loc 1 423 0
 3469 001c 0022     		movs	r2, #0
 3470              	.LVL509:
 3471 001e 1900     		movs	r1, r3
 3472 0020 2800     		movs	r0, r5
 3473              	.LVL510:
 3474 0022 FFF7FEFF 		bl	resolve_modes
 3475              	.LVL511:
 3476 0026 0790     		str	r0, [sp, #28]
 3477              	.LVL512:
 3478              	.LBB222:
 3479              	.LBB223:
 3480              		.loc 2 51 0
 3481 0028 AA00     		lsls	r2, r5, #2
 3482 002a B14B     		ldr	r3, .L286
 3483 002c D358     		ldr	r3, [r2, r3]
 3484 002e 0134     		adds	r4, r4, #1
 3485              	.LVL513:
 3486 0030 5C43     		muls	r4, r3
 3487 0032 0494     		str	r4, [sp, #16]
 3488              	.LVL514:
 3489              	.LBE223:
 3490              	.LBE222:
 3491              	.LBB224:
 430:..\..\..\liblc3\src/spec.c ****         const uint8_t (*lut_coeff)[4] = lc3_spectrum_lookup[high_rate][h];
 3492              		.loc 1 430 0
 3493 0034 0023     		movs	r3, #0
 3494 0036 0293     		str	r3, [sp, #8]
 3495 0038 0093     		str	r3, [sp]
 3496              	.LBE224:
 428:..\..\..\liblc3\src/spec.c **** 
 3497              		.loc 1 428 0
 3498 003a 0193     		str	r3, [sp, #4]
 3499              	.LBB249:
 430:..\..\..\liblc3\src/spec.c ****         const uint8_t (*lut_coeff)[4] = lc3_spectrum_lookup[high_rate][h];
 3500              		.loc 1 430 0
 3501 003c 4CE1     		b	.L256
 3502              	.LVL515:
 3503              	.L281:
ARM GAS  C:\Users\rdn\AppData\Local\Temp\cciiQw7C.s 			page 91


 3504              	.LBB225:
 431:..\..\..\liblc3\src/spec.c **** 
 3505              		.loc 1 431 0
 3506 003e 079B     		ldr	r3, [sp, #28]
 3507              	.LVL516:
 3508 0040 5B00     		lsls	r3, r3, #1
 3509 0042 029A     		ldr	r2, [sp, #8]
 3510 0044 9446     		mov	ip, r2
 3511 0046 6344     		add	r3, r3, ip
 3512 0048 9B02     		lsls	r3, r3, #10
 3513 004a AA4A     		ldr	r2, .L286+4
 3514 004c 9B18     		adds	r3, r3, r2
 3515 004e 0593     		str	r3, [sp, #20]
 3516              	.LVL517:
 433:..\..\..\liblc3\src/spec.c **** 
 3517              		.loc 1 433 0
 3518 0050 31E1     		b	.L257
 3519              	.LVL518:
 3520              	.L280:
 3521              	.LBB226:
 435:..\..\..\liblc3\src/spec.c ****             uint32_t a = fabsf(x[i+0]) + xq_off;
 3522              		.loc 1 435 0
 3523 0052 069B     		ldr	r3, [sp, #24]
 3524 0054 042B     		cmp	r3, #4
 3525 0056 02D9     		bls	.L282
 3526 0058 FC24     		movs	r4, #252
 3527 005a A405     		lsls	r4, r4, #22
 3528 005c 01E0     		b	.L258
 3529              	.L282:
 3530 005e FB24     		movs	r4, #251
 3531 0060 A405     		lsls	r4, r4, #22
 3532              	.L258:
 3533              	.LVL519:
 436:..\..\..\liblc3\src/spec.c ****             uint32_t b = fabsf(x[i+1]) + xq_off;
 3534              		.loc 1 436 0 discriminator 4
 3535 0062 009D     		ldr	r5, [sp]
 3536 0064 AB00     		lsls	r3, r5, #2
 3537 0066 129A     		ldr	r2, [sp, #72]
 3538 0068 9246     		mov	r10, r2
 3539 006a 9A44     		add	r10, r10, r3
 3540 006c 5346     		mov	r3, r10
 3541 006e 1B68     		ldr	r3, [r3]
 3542 0070 5900     		lsls	r1, r3, #1
 3543 0072 4908     		lsrs	r1, r1, #1
 3544 0074 201C     		adds	r0, r4, #0
 3545 0076 FFF7FEFF 		bl	__aeabi_fadd
 3546              	.LVL520:
 3547 007a FFF7FEFF 		bl	__aeabi_f2uiz
 3548              	.LVL521:
 3549 007e 8046     		mov	r8, r0
 3550              	.LVL522:
 437:..\..\..\liblc3\src/spec.c **** 
 3551              		.loc 1 437 0 discriminator 4
 3552 0080 2B00     		movs	r3, r5
 3553 0082 0133     		adds	r3, r3, #1
 3554 0084 9B00     		lsls	r3, r3, #2
 3555 0086 129A     		ldr	r2, [sp, #72]
ARM GAS  C:\Users\rdn\AppData\Local\Temp\cciiQw7C.s 			page 92


 3556 0088 9146     		mov	r9, r2
 3557 008a 9944     		add	r9, r9, r3
 3558 008c 4B46     		mov	r3, r9
 3559 008e 1B68     		ldr	r3, [r3]
 3560 0090 5900     		lsls	r1, r3, #1
 3561 0092 4908     		lsrs	r1, r1, #1
 3562 0094 201C     		adds	r0, r4, #0
 3563              	.LVL523:
 3564 0096 FFF7FEFF 		bl	__aeabi_fadd
 3565              	.LVL524:
 3566 009a FFF7FEFF 		bl	__aeabi_f2uiz
 3567              	.LVL525:
 3568 009e 0600     		movs	r6, r0
 3569              	.LVL526:
 439:..\..\..\liblc3\src/spec.c **** 
 3570              		.loc 1 439 0 discriminator 4
 3571 00a0 019B     		ldr	r3, [sp, #4]
 3572 00a2 9B00     		lsls	r3, r3, #2
 3573 00a4 059A     		ldr	r2, [sp, #20]
 3574 00a6 9346     		mov	fp, r2
 3575 00a8 9B44     		add	fp, fp, r3
 3576              	.LVL527:
 446:..\..\..\liblc3\src/spec.c ****             unsigned k = 0, shr = 0;
 3577              		.loc 1 446 0 discriminator 4
 3578 00aa 4546     		mov	r5, r8
 3579 00ac 0543     		orrs	r5, r0
 3580 00ae AD08     		lsrs	r5, r5, #2
 3581              	.LVL528:
 449:..\..\..\liblc3\src/spec.c **** 
 3582              		.loc 1 449 0 discriminator 4
 3583 00b0 00D1     		bne	.LCB4150
 3584 00b2 86E0     		b	.L283	@long jump
 3585              	.LCB4150:
 451:..\..\..\liblc3\src/spec.c ****                     lc3_put_symbol(bits,
 3586              		.loc 1 451 0
 3587 00b4 039B     		ldr	r3, [sp, #12]
 3588 00b6 002B     		cmp	r3, #0
 3589 00b8 21D0     		beq	.L284
 3590              	.LVL529:
 453:..\..\..\liblc3\src/spec.c **** 
 3591              		.loc 1 453 0
 3592 00ba 5B46     		mov	r3, fp
 3593 00bc 1B78     		ldrb	r3, [r3]
 3594 00be 1A01     		lsls	r2, r3, #4
 3595 00c0 D318     		adds	r3, r2, r3
 3596 00c2 9900     		lsls	r1, r3, #2
 452:..\..\..\liblc3\src/spec.c ****                         lc3_spectrum_models + lut[k++], 16);
 3597              		.loc 1 452 0
 3598 00c4 8C4B     		ldr	r3, .L286+8
 3599 00c6 C918     		adds	r1, r1, r3
 3600              	.LVL530:
 3601              	.LBB227:
 3602              	.LBB228:
 252:..\..\..\liblc3\src/bits.h ****     }
 253:..\..\..\liblc3\src/bits.h **** }
 254:..\..\..\liblc3\src/bits.h **** 
 255:..\..\..\liblc3\src/bits.h **** /**
ARM GAS  C:\Users\rdn\AppData\Local\Temp\cciiQw7C.s 			page 93


 256:..\..\..\liblc3\src/bits.h ****  * Put arithmetic coder symbol
 257:..\..\..\liblc3\src/bits.h ****  */
 258:..\..\..\liblc3\src/bits.h **** LC3_HOT static inline void lc3_put_symbol(
 259:..\..\..\liblc3\src/bits.h ****     struct lc3_bits *bits, const struct lc3_ac_model *model, unsigned s)
 260:..\..\..\liblc3\src/bits.h **** {
 261:..\..\..\liblc3\src/bits.h ****     const struct lc3_ac_symbol *symbols = model->s;
 262:..\..\..\liblc3\src/bits.h ****     struct lc3_bits_ac *ac = &bits->ac;
 263:..\..\..\liblc3\src/bits.h ****     unsigned range = ac->range >> 10;
 3603              		.loc 5 263 0
 3604 00c8 BB68     		ldr	r3, [r7, #8]
 3605 00ca 9A0A     		lsrs	r2, r3, #10
 3606              	.LVL531:
 264:..\..\..\liblc3\src/bits.h **** 
 265:..\..\..\liblc3\src/bits.h ****     ac->low += range * symbols[s].low;
 3607              		.loc 5 265 0
 3608 00cc 4031     		adds	r1, r1, #64
 3609              	.LVL532:
 3610 00ce 0B88     		ldrh	r3, [r1]
 3611 00d0 5343     		muls	r3, r2
 3612 00d2 7868     		ldr	r0, [r7, #4]
 3613              	.LVL533:
 3614 00d4 8446     		mov	ip, r0
 3615 00d6 6344     		add	r3, r3, ip
 3616 00d8 7B60     		str	r3, [r7, #4]
 266:..\..\..\liblc3\src/bits.h ****     ac->range = range * symbols[s].range;
 3617              		.loc 5 266 0
 3618 00da 4988     		ldrh	r1, [r1, #2]
 3619              	.LVL534:
 3620 00dc 4A43     		muls	r2, r1
 3621              	.LVL535:
 3622 00de BA60     		str	r2, [r7, #8]
 3623              	.LVL536:
 267:..\..\..\liblc3\src/bits.h **** 
 268:..\..\..\liblc3\src/bits.h ****     ac->carry |= ac->low >> 24;
 3624              		.loc 5 268 0
 3625 00e0 190E     		lsrs	r1, r3, #24
 3626 00e2 3869     		ldr	r0, [r7, #16]
 3627 00e4 0143     		orrs	r1, r0
 3628 00e6 3961     		str	r1, [r7, #16]
 269:..\..\..\liblc3\src/bits.h ****     ac->low &= 0xffffff;
 3629              		.loc 5 269 0
 3630 00e8 1B02     		lsls	r3, r3, #8
 3631 00ea 1B0A     		lsrs	r3, r3, #8
 3632 00ec 7B60     		str	r3, [r7, #4]
 270:..\..\..\liblc3\src/bits.h **** 
 271:..\..\..\liblc3\src/bits.h ****     if (ac->range < 0x10000)
 3633              		.loc 5 271 0
 3634 00ee 834B     		ldr	r3, .L286+12
 3635 00f0 9A42     		cmp	r2, r3
 3636 00f2 06D8     		bhi	.L285
 272:..\..\..\liblc3\src/bits.h ****         lc3_ac_write_renorm(bits);
 3637              		.loc 5 272 0
 3638 00f4 3800     		movs	r0, r7
 3639 00f6 FFF7FEFF 		bl	lc3_ac_write_renorm
 3640              	.LVL537:
 3641              	.LBE228:
 3642              	.LBE227:
ARM GAS  C:\Users\rdn\AppData\Local\Temp\cciiQw7C.s 			page 94


 453:..\..\..\liblc3\src/spec.c **** 
 3643              		.loc 1 453 0
 3644 00fa 0124     		movs	r4, #1
 3645              	.LVL538:
 3646 00fc 02E0     		b	.L260
 3647              	.LVL539:
 3648              	.L284:
 447:..\..\..\liblc3\src/spec.c **** 
 3649              		.loc 1 447 0
 3650 00fe 0024     		movs	r4, #0
 3651              	.LVL540:
 3652 0100 00E0     		b	.L260
 3653              	.LVL541:
 3654              	.L285:
 453:..\..\..\liblc3\src/spec.c **** 
 3655              		.loc 1 453 0
 3656 0102 0124     		movs	r4, #1
 3657              	.LVL542:
 3658              	.L260:
 455:..\..\..\liblc3\src/spec.c ****                     lc3_put_bit(bits, (a >> k) & 1);
 3659              		.loc 1 455 0
 3660 0104 039B     		ldr	r3, [sp, #12]
 3661 0106 DD40     		lsrs	r5, r5, r3
 3662              	.LVL543:
 3663 0108 3300     		movs	r3, r6
 3664 010a 4646     		mov	r6, r8
 3665              	.LVL544:
 3666 010c 9846     		mov	r8, r3
 3667              	.LVL545:
 3668 010e 49E0     		b	.L261
 3669              	.LVL546:
 3670              	.L268:
 456:..\..\..\liblc3\src/spec.c ****                     lc3_put_bit(bits, (b >> k) & 1);
 3671              		.loc 1 456 0 discriminator 3
 3672 0110 3300     		movs	r3, r6
 3673 0112 E340     		lsrs	r3, r3, r4
 3674 0114 0121     		movs	r1, #1
 3675 0116 1940     		ands	r1, r3
 3676              	.LVL547:
 3677              	.LBB229:
 3678              	.LBB230:
 3679              	.LBB231:
 3680              	.LBB232:
 223:..\..\..\liblc3\src/bits.h ****         accu->v |= v << accu->n;
 3681              		.loc 5 223 0 discriminator 3
 3682 0118 3A6A     		ldr	r2, [r7, #32]
 3683 011a 531C     		adds	r3, r2, #1
 3684 011c 202B     		cmp	r3, #32
 3685 011e 05DC     		bgt	.L262
 224:..\..\..\liblc3\src/bits.h ****         accu->n += n;
 3686              		.loc 5 224 0
 3687 0120 9140     		lsls	r1, r1, r2
 3688              	.LVL548:
 3689 0122 FA69     		ldr	r2, [r7, #28]
 3690 0124 1143     		orrs	r1, r2
 3691 0126 F961     		str	r1, [r7, #28]
 225:..\..\..\liblc3\src/bits.h ****     } else {
ARM GAS  C:\Users\rdn\AppData\Local\Temp\cciiQw7C.s 			page 95


 3692              		.loc 5 225 0
 3693 0128 3B62     		str	r3, [r7, #32]
 3694 012a 03E0     		b	.L263
 3695              	.LVL549:
 3696              	.L262:
 227:..\..\..\liblc3\src/bits.h ****     }
 3697              		.loc 5 227 0
 3698 012c 0122     		movs	r2, #1
 3699 012e 3800     		movs	r0, r7
 3700 0130 FFF7FEFF 		bl	lc3_put_bits_generic
 3701              	.LVL550:
 3702              	.L263:
 3703              	.LBE232:
 3704              	.LBE231:
 3705              	.LBE230:
 3706              	.LBE229:
 457:..\..\..\liblc3\src/spec.c ****                     lc3_put_symbol(bits,
 3707              		.loc 1 457 0 discriminator 3
 3708 0134 4346     		mov	r3, r8
 3709 0136 E340     		lsrs	r3, r3, r4
 3710 0138 0121     		movs	r1, #1
 3711 013a 1940     		ands	r1, r3
 3712              	.LVL551:
 3713              	.LBB233:
 3714              	.LBB234:
 3715              	.LBB235:
 3716              	.LBB236:
 223:..\..\..\liblc3\src/bits.h ****         accu->v |= v << accu->n;
 3717              		.loc 5 223 0 discriminator 3
 3718 013c 3A6A     		ldr	r2, [r7, #32]
 3719 013e 531C     		adds	r3, r2, #1
 3720 0140 202B     		cmp	r3, #32
 3721 0142 05DC     		bgt	.L264
 224:..\..\..\liblc3\src/bits.h ****         accu->n += n;
 3722              		.loc 5 224 0
 3723 0144 9140     		lsls	r1, r1, r2
 3724              	.LVL552:
 3725 0146 FA69     		ldr	r2, [r7, #28]
 3726 0148 1143     		orrs	r1, r2
 3727 014a F961     		str	r1, [r7, #28]
 225:..\..\..\liblc3\src/bits.h ****     } else {
 3728              		.loc 5 225 0
 3729 014c 3B62     		str	r3, [r7, #32]
 3730 014e 03E0     		b	.L265
 3731              	.LVL553:
 3732              	.L264:
 227:..\..\..\liblc3\src/bits.h ****     }
 3733              		.loc 5 227 0
 3734 0150 0122     		movs	r2, #1
 3735 0152 3800     		movs	r0, r7
 3736 0154 FFF7FEFF 		bl	lc3_put_bits_generic
 3737              	.LVL554:
 3738              	.L265:
 3739              	.LBE236:
 3740              	.LBE235:
 3741              	.LBE234:
 3742              	.LBE233:
ARM GAS  C:\Users\rdn\AppData\Local\Temp\cciiQw7C.s 			page 96


 459:..\..\..\liblc3\src/spec.c ****                 }
 3743              		.loc 1 459 0 discriminator 3
 3744 0158 2300     		movs	r3, r4
 3745 015a 032C     		cmp	r4, #3
 3746 015c 00D9     		bls	.L266
 3747              	.LVL555:
 3748 015e 0323     		movs	r3, #3
 3749              	.LVL556:
 3750              	.L266:
 3751 0160 5A46     		mov	r2, fp
 3752 0162 D35C     		ldrb	r3, [r2, r3]
 3753 0164 1A01     		lsls	r2, r3, #4
 3754 0166 D318     		adds	r3, r2, r3
 3755 0168 9900     		lsls	r1, r3, #2
