ARM GAS  C:\Users\rdn\AppData\Local\Temp\cciiQw7C.s 			page 1


   1              		.syntax unified
   2              		.cpu cortex-m0plus
   3              		.fpu softvfp
   4              		.eabi_attribute 20, 1
   5              		.eabi_attribute 21, 1
   6              		.eabi_attribute 23, 3
   7              		.eabi_attribute 24, 1
   8              		.eabi_attribute 25, 1
   9              		.eabi_attribute 26, 1
  10              		.eabi_attribute 30, 1
  11              		.eabi_attribute 34, 0
  12              		.eabi_attribute 18, 4
  13              		.thumb
  14              		.syntax unified
  15              		.file	"spec.c"
  16              		.text
  17              	.Ltext0:
  18              		.cfi_sections	.debug_frame
  19              		.global	__aeabi_idiv
  20              		.section	.text.resolve_gain_offset,"ax",%progbits
  21              		.align	2
  22              		.code	16
  23              		.thumb_func
  24              		.type	resolve_gain_offset, %function
  25              	resolve_gain_offset:
  26              	.LFB20:
  27              		.file 1 "..\\..\\..\\liblc3\\src\\spec.c"
   1:..\..\..\liblc3\src/spec.c **** /******************************************************************************
   2:..\..\..\liblc3\src/spec.c ****  *
   3:..\..\..\liblc3\src/spec.c ****  *  Copyright 2022 Google LLC
   4:..\..\..\liblc3\src/spec.c ****  *
   5:..\..\..\liblc3\src/spec.c ****  *  Licensed under the Apache License, Version 2.0 (the "License");
   6:..\..\..\liblc3\src/spec.c ****  *  you may not use this file except in compliance with the License.
   7:..\..\..\liblc3\src/spec.c ****  *  You may obtain a copy of the License at:
   8:..\..\..\liblc3\src/spec.c ****  *
   9:..\..\..\liblc3\src/spec.c ****  *  http://www.apache.org/licenses/LICENSE-2.0
  10:..\..\..\liblc3\src/spec.c ****  *
  11:..\..\..\liblc3\src/spec.c ****  *  Unless required by applicable law or agreed to in writing, software
  12:..\..\..\liblc3\src/spec.c ****  *  distributed under the License is distributed on an "AS IS" BASIS,
  13:..\..\..\liblc3\src/spec.c ****  *  WITHOUT WARRANTIES OR CONDITIONS OF ANY KIND, either express or implied.
  14:..\..\..\liblc3\src/spec.c ****  *  See the License for the specific language governing permissions and
  15:..\..\..\liblc3\src/spec.c ****  *  limitations under the License.
  16:..\..\..\liblc3\src/spec.c ****  *
  17:..\..\..\liblc3\src/spec.c ****  ******************************************************************************/
  18:..\..\..\liblc3\src/spec.c **** 
  19:..\..\..\liblc3\src/spec.c **** #include "spec.h"
  20:..\..\..\liblc3\src/spec.c **** #include "bits.h"
  21:..\..\..\liblc3\src/spec.c **** #include "tables.h"
  22:..\..\..\liblc3\src/spec.c **** 
  23:..\..\..\liblc3\src/spec.c **** 
  24:..\..\..\liblc3\src/spec.c **** /* ----------------------------------------------------------------------------
  25:..\..\..\liblc3\src/spec.c ****  *  Global Gain / Quantization
  26:..\..\..\liblc3\src/spec.c ****  * -------------------------------------------------------------------------- */
  27:..\..\..\liblc3\src/spec.c **** 
  28:..\..\..\liblc3\src/spec.c **** /**
  29:..\..\..\liblc3\src/spec.c ****  * Resolve quantized gain index offset
  30:..\..\..\liblc3\src/spec.c ****  * sr, nbytes      Samplerate and size of the frame
ARM GAS  C:\Users\rdn\AppData\Local\Temp\cciiQw7C.s 			page 2


  31:..\..\..\liblc3\src/spec.c ****  * return          Gain index offset
  32:..\..\..\liblc3\src/spec.c ****  */
  33:..\..\..\liblc3\src/spec.c **** static int resolve_gain_offset(enum lc3_srate sr, int nbytes)
  34:..\..\..\liblc3\src/spec.c **** {
  28              		.loc 1 34 0
  29              		.cfi_startproc
  30              		@ args = 0, pretend = 0, frame = 0
  31              		@ frame_needed = 0, uses_anonymous_args = 0
  32              	.LVL0:
  33 0000 70B5     		push	{r4, r5, r6, lr}
  34              		.cfi_def_cfa_offset 16
  35              		.cfi_offset 4, -16
  36              		.cfi_offset 5, -12
  37              		.cfi_offset 6, -8
  38              		.cfi_offset 14, -4
  39 0002 0500     		movs	r5, r0
  35:..\..\..\liblc3\src/spec.c ****     int sr_ind = lc3_hr(sr) ? 4 + (sr - LC3_SRATE_48K_HR) : sr;
  40              		.loc 1 35 0
  41 0004 0428     		cmp	r0, #4
  42 0006 01D9     		bls	.L2
  43              		.loc 1 35 0 is_stmt 0 discriminator 1
  44 0008 441E     		subs	r4, r0, #1
  45 000a 00E0     		b	.L3
  46              	.L2:
  47              		.loc 1 35 0 discriminator 2
  48 000c 0400     		movs	r4, r0
  49              	.L3:
  50              	.LVL1:
  36:..\..\..\liblc3\src/spec.c **** 
  37:..\..\..\liblc3\src/spec.c ****     int g_off = (nbytes * 8) / (10 * (1 + sr_ind));
  51              		.loc 1 37 0 is_stmt 1 discriminator 4
  52 000e C800     		lsls	r0, r1, #3
  53              	.LVL2:
  54 0010 0134     		adds	r4, r4, #1
  55              	.LVL3:
  56 0012 A600     		lsls	r6, r4, #2
  57 0014 3319     		adds	r3, r6, r4
  58 0016 5900     		lsls	r1, r3, #1
  59              	.LVL4:
  60 0018 FFF7FEFF 		bl	__aeabi_idiv
  61              	.LVL5:
  38:..\..\..\liblc3\src/spec.c ****     return LC3_MIN(sr >= LC3_SRATE_96K_HR ? 181 : 255,
  62              		.loc 1 38 0 discriminator 4
  63 001c 3419     		adds	r4, r6, r4
  64              	.LVL6:
  65 001e 6934     		adds	r4, r4, #105
  66 0020 7328     		cmp	r0, #115
  67 0022 00DD     		ble	.L4
  68 0024 7320     		movs	r0, #115
  69              	.LVL7:
  70              	.L4:
  71 0026 2418     		adds	r4, r4, r0
  72 0028 052D     		cmp	r5, #5
  73 002a 01D9     		bls	.L7
  74              		.loc 1 38 0 is_stmt 0
  75 002c B520     		movs	r0, #181
  76 002e 00E0     		b	.L5
ARM GAS  C:\Users\rdn\AppData\Local\Temp\cciiQw7C.s 			page 3


  77              	.L7:
  78 0030 FF20     		movs	r0, #255
  79              	.L5:
  80              		.loc 1 38 0 discriminator 4
  81 0032 A042     		cmp	r0, r4
  82 0034 00DD     		ble	.L6
  83 0036 2000     		movs	r0, r4
  84              	.L6:
  39:..\..\..\liblc3\src/spec.c ****         105 + 5*(1 + sr_ind) + LC3_MIN(g_off, 115));
  40:..\..\..\liblc3\src/spec.c **** }
  85              		.loc 1 40 0 is_stmt 1 discriminator 4
  86              		@ sp needed
  87 0038 70BD     		pop	{r4, r5, r6, pc}
  88              		.cfi_endproc
  89              	.LFE20:
  90              		.size	resolve_gain_offset, .-resolve_gain_offset
  91              		.global	__aeabi_fmul
  92 003a C046     		.section	.text.unquantize_gain,"ax",%progbits
  93              		.align	2
  94              		.code	16
  95              		.thumb_func
  96              		.type	unquantize_gain, %function
  97              	unquantize_gain:
  98              	.LFB21:
  41:..\..\..\liblc3\src/spec.c **** 
  42:..\..\..\liblc3\src/spec.c **** /**
  43:..\..\..\liblc3\src/spec.c ****  * Unquantize gain
  44:..\..\..\liblc3\src/spec.c ****  * g_int           Quantization gain value
  45:..\..\..\liblc3\src/spec.c ****  * return          Unquantized gain value
  46:..\..\..\liblc3\src/spec.c ****  */
  47:..\..\..\liblc3\src/spec.c **** static float unquantize_gain(int g_int)
  48:..\..\..\liblc3\src/spec.c **** {
  99              		.loc 1 48 0
 100              		.cfi_startproc
 101              		@ args = 0, pretend = 0, frame = 0
 102              		@ frame_needed = 0, uses_anonymous_args = 0
 103              	.LVL8:
 104 0000 10B5     		push	{r4, lr}
 105              		.cfi_def_cfa_offset 8
 106              		.cfi_offset 4, -8
 107              		.cfi_offset 14, -4
 108 0002 0400     		movs	r4, r0
 109              	.LVL9:
  49:..\..\..\liblc3\src/spec.c ****     /* Unquantization gain table :
  50:..\..\..\liblc3\src/spec.c ****      * G[i] = 10 ^ (i / 28) , i = [0..27] */
  51:..\..\..\liblc3\src/spec.c **** 
  52:..\..\..\liblc3\src/spec.c ****     static const float iq_table[] = {
  53:..\..\..\liblc3\src/spec.c ****         1.00000000e+00, 1.08571112e+00, 1.17876863e+00, 1.27980221e+00,
  54:..\..\..\liblc3\src/spec.c ****         1.38949549e+00, 1.50859071e+00, 1.63789371e+00, 1.77827941e+00,
  55:..\..\..\liblc3\src/spec.c ****         1.93069773e+00, 2.09617999e+00, 2.27584593e+00, 2.47091123e+00,
  56:..\..\..\liblc3\src/spec.c ****         2.68269580e+00, 2.91263265e+00, 3.16227766e+00, 3.43332002e+00,
  57:..\..\..\liblc3\src/spec.c ****         3.72759372e+00, 4.04708995e+00, 4.39397056e+00, 4.77058270e+00,
  58:..\..\..\liblc3\src/spec.c ****         5.17947468e+00, 5.62341325e+00, 6.10540230e+00, 6.62870316e+00,
  59:..\..\..\liblc3\src/spec.c ****         7.19685673e+00, 7.81370738e+00, 8.48342898e+00, 9.21055318e+00
  60:..\..\..\liblc3\src/spec.c ****     };
  61:..\..\..\liblc3\src/spec.c **** 
  62:..\..\..\liblc3\src/spec.c ****     float g = 1.f;
ARM GAS  C:\Users\rdn\AppData\Local\Temp\cciiQw7C.s 			page 4


 110              		.loc 1 62 0
 111 0004 FE20     		movs	r0, #254
 112              	.LVL10:
 113 0006 8005     		lsls	r0, r0, #22
  63:..\..\..\liblc3\src/spec.c **** 
  64:..\..\..\liblc3\src/spec.c ****     for ( ; g_int <   0; g_int += 28, g *= 0.1f);
 114              		.loc 1 64 0
 115 0008 03E0     		b	.L9
 116              	.LVL11:
 117              	.L10:
 118              		.loc 1 64 0 is_stmt 0 discriminator 2
 119 000a 1C34     		adds	r4, r4, #28
 120              	.LVL12:
 121 000c 0849     		ldr	r1, .L13
 122 000e FFF7FEFF 		bl	__aeabi_fmul
 123              	.LVL13:
 124              	.L9:
 125              		.loc 1 64 0 discriminator 1
 126 0012 002C     		cmp	r4, #0
 127 0014 F9DB     		blt	.L10
 128 0016 03E0     		b	.L11
 129              	.L12:
  65:..\..\..\liblc3\src/spec.c ****     for ( ; g_int >= 28; g_int -= 28, g *= 10.f);
 130              		.loc 1 65 0 is_stmt 1 discriminator 2
 131 0018 1C3C     		subs	r4, r4, #28
 132              	.LVL14:
 133 001a 0649     		ldr	r1, .L13+4
 134 001c FFF7FEFF 		bl	__aeabi_fmul
 135              	.LVL15:
 136              	.L11:
 137              		.loc 1 65 0 is_stmt 0 discriminator 1
 138 0020 1B2C     		cmp	r4, #27
 139 0022 F9DC     		bgt	.L12
  66:..\..\..\liblc3\src/spec.c **** 
  67:..\..\..\liblc3\src/spec.c ****     return g * iq_table[g_int];
 140              		.loc 1 67 0 is_stmt 1
 141 0024 A400     		lsls	r4, r4, #2
 142              	.LVL16:
 143 0026 044B     		ldr	r3, .L13+8
 144 0028 E158     		ldr	r1, [r4, r3]
 145 002a FFF7FEFF 		bl	__aeabi_fmul
 146              	.LVL17:
  68:..\..\..\liblc3\src/spec.c **** }
 147              		.loc 1 68 0
 148              		@ sp needed
 149 002e 10BD     		pop	{r4, pc}
 150              	.L14:
 151              		.align	2
 152              	.L13:
 153 0030 CDCCCC3D 		.word	1036831949
 154 0034 00002041 		.word	1092616192
 155 0038 00000000 		.word	.LANCHOR0
 156              		.cfi_endproc
 157              	.LFE21:
 158              		.size	unquantize_gain, .-unquantize_gain
 159              		.section	.text.adjust_gain,"ax",%progbits
 160              		.align	2
ARM GAS  C:\Users\rdn\AppData\Local\Temp\cciiQw7C.s 			page 5


 161              		.code	16
 162              		.thumb_func
 163              		.type	adjust_gain, %function
 164              	adjust_gain:
 165              	.LFB23:
  69:..\..\..\liblc3\src/spec.c **** 
  70:..\..\..\liblc3\src/spec.c **** /**
  71:..\..\..\liblc3\src/spec.c ****  * Global Gain Estimation
  72:..\..\..\liblc3\src/spec.c ****  * dt, sr          Duration and samplerate of the frame
  73:..\..\..\liblc3\src/spec.c ****  * x               Spectral coefficients
  74:..\..\..\liblc3\src/spec.c ****  * nbytes          Size of the frame
  75:..\..\..\liblc3\src/spec.c ****  * nbits_budget    Number of bits available coding the spectrum
  76:..\..\..\liblc3\src/spec.c ****  * nbits_off       Offset on the available bits, temporarily smoothed
  77:..\..\..\liblc3\src/spec.c ****  * g_off           Gain index offset
  78:..\..\..\liblc3\src/spec.c ****  * reset_off       Return True when the nbits_off must be reset
  79:..\..\..\liblc3\src/spec.c ****  * g_min           Return lower bound of quantized gain value
  80:..\..\..\liblc3\src/spec.c ****  * return          The quantized gain value
  81:..\..\..\liblc3\src/spec.c ****  */
  82:..\..\..\liblc3\src/spec.c **** LC3_HOT static int estimate_gain(
  83:..\..\..\liblc3\src/spec.c ****     enum lc3_dt dt, enum lc3_srate sr, const float *x,
  84:..\..\..\liblc3\src/spec.c ****     int nbytes, int nbits_budget, float nbits_off, int g_off,
  85:..\..\..\liblc3\src/spec.c ****     bool *reset_off, int *g_min)
  86:..\..\..\liblc3\src/spec.c **** {
  87:..\..\..\liblc3\src/spec.c ****     int n4 = lc3_ne(dt, sr) / 4;
  88:..\..\..\liblc3\src/spec.c ****     union { float f; int32_t q16; } e[LC3_MAX_NE / 4];
  89:..\..\..\liblc3\src/spec.c **** 
  90:..\..\..\liblc3\src/spec.c ****     /* --- Signal adaptative noise floor --- */
  91:..\..\..\liblc3\src/spec.c **** 
  92:..\..\..\liblc3\src/spec.c ****     int reg_bits = 0;
  93:..\..\..\liblc3\src/spec.c ****     float low_bits = 0;
  94:..\..\..\liblc3\src/spec.c **** 
  95:..\..\..\liblc3\src/spec.c ****     if (lc3_hr(sr)) {
  96:..\..\..\liblc3\src/spec.c ****         int reg_c = (const int [LC3_NUM_DT][LC3_NUM_SRATE - LC3_SRATE_48K_HR]){
  97:..\..\..\liblc3\src/spec.c ****             [LC3_DT_2M5] = { -6, -6 },
  98:..\..\..\liblc3\src/spec.c ****             [LC3_DT_5M ] = {  0,  0 },
  99:..\..\..\liblc3\src/spec.c ****             [LC3_DT_10M] = {  2,  5 }
 100:..\..\..\liblc3\src/spec.c ****         }[dt][sr - LC3_SRATE_48K_HR];
 101:..\..\..\liblc3\src/spec.c **** 
 102:..\..\..\liblc3\src/spec.c ****         reg_bits = (8*nbytes * 4) / (125 * (1 + dt));
 103:..\..\..\liblc3\src/spec.c ****         reg_bits = LC3_CLIP(reg_bits + reg_c, 6, 23);
 104:..\..\..\liblc3\src/spec.c **** 
 105:..\..\..\liblc3\src/spec.c ****         float m0 = 1e-5f, m1 = 1e-5f, k = 0;
 106:..\..\..\liblc3\src/spec.c **** 
 107:..\..\..\liblc3\src/spec.c ****         for (int i = 0; i < n4; i++) {
 108:..\..\..\liblc3\src/spec.c ****             m0 += fabsf(x[4*i + 0]),  m1 += fabsf(x[4*i + 0]) * k++;
 109:..\..\..\liblc3\src/spec.c ****             m0 += fabsf(x[4*i + 1]),  m1 += fabsf(x[4*i + 1]) * k++;
 110:..\..\..\liblc3\src/spec.c ****             m0 += fabsf(x[4*i + 2]),  m1 += fabsf(x[4*i + 2]) * k++;
 111:..\..\..\liblc3\src/spec.c ****             m0 += fabsf(x[4*i + 3]),  m1 += fabsf(x[4*i + 3]) * k++;
 112:..\..\..\liblc3\src/spec.c ****         }
 113:..\..\..\liblc3\src/spec.c **** 
 114:..\..\..\liblc3\src/spec.c ****         int m = roundf((1.6f * m0) / ((1 + dt) * m1));
 115:..\..\..\liblc3\src/spec.c ****         low_bits = 8 - LC3_MIN(m, 8);
 116:..\..\..\liblc3\src/spec.c ****     }
 117:..\..\..\liblc3\src/spec.c **** 
 118:..\..\..\liblc3\src/spec.c ****     /* --- Energy (dB) by 4 MDCT blocks --- */
 119:..\..\..\liblc3\src/spec.c **** 
 120:..\..\..\liblc3\src/spec.c ****     float x2_max = 0;
ARM GAS  C:\Users\rdn\AppData\Local\Temp\cciiQw7C.s 			page 6


 121:..\..\..\liblc3\src/spec.c **** 
 122:..\..\..\liblc3\src/spec.c ****     for (int i = 0; i < n4; i++) {
 123:..\..\..\liblc3\src/spec.c ****         float x0 = x[4*i + 0] * x[4*i + 0];
 124:..\..\..\liblc3\src/spec.c ****         float x1 = x[4*i + 1] * x[4*i + 1];
 125:..\..\..\liblc3\src/spec.c ****         float x2 = x[4*i + 2] * x[4*i + 2];
 126:..\..\..\liblc3\src/spec.c ****         float x3 = x[4*i + 3] * x[4*i + 3];
 127:..\..\..\liblc3\src/spec.c **** 
 128:..\..\..\liblc3\src/spec.c ****         x2_max = fmaxf(x2_max, x0);
 129:..\..\..\liblc3\src/spec.c ****         x2_max = fmaxf(x2_max, x1);
 130:..\..\..\liblc3\src/spec.c ****         x2_max = fmaxf(x2_max, x2);
 131:..\..\..\liblc3\src/spec.c ****         x2_max = fmaxf(x2_max, x3);
 132:..\..\..\liblc3\src/spec.c **** 
 133:..\..\..\liblc3\src/spec.c ****         e[i].f = x0 + x1 + x2 + x3;
 134:..\..\..\liblc3\src/spec.c ****     }
 135:..\..\..\liblc3\src/spec.c **** 
 136:..\..\..\liblc3\src/spec.c ****     float x_max = sqrtf(x2_max);
 137:..\..\..\liblc3\src/spec.c ****     float nf = lc3_hr(sr) ?
 138:..\..\..\liblc3\src/spec.c ****         lc3_ldexpf(x_max, -reg_bits) * lc3_exp2f(-low_bits) : 0;
 139:..\..\..\liblc3\src/spec.c **** 
 140:..\..\..\liblc3\src/spec.c ****     for (int i = 0; i < n4; i++)
 141:..\..\..\liblc3\src/spec.c ****         e[i].q16 = lc3_db_q16(fmaxf(e[i].f + nf, 1e-10f));
 142:..\..\..\liblc3\src/spec.c **** 
 143:..\..\..\liblc3\src/spec.c ****     /* --- Determine gain index --- */
 144:..\..\..\liblc3\src/spec.c **** 
 145:..\..\..\liblc3\src/spec.c ****     int nbits = nbits_budget + nbits_off + 0.5f;
 146:..\..\..\liblc3\src/spec.c ****     int g_int = 255 - g_off;
 147:..\..\..\liblc3\src/spec.c **** 
 148:..\..\..\liblc3\src/spec.c ****     const int k_20_28 = 20.f/28 * 0x1p16f + 0.5f;
 149:..\..\..\liblc3\src/spec.c ****     const int k_2u7 = 2.7f * 0x1p16f + 0.5f;
 150:..\..\..\liblc3\src/spec.c ****     const int k_1u4 = 1.4f * 0x1p16f + 0.5f;
 151:..\..\..\liblc3\src/spec.c **** 
 152:..\..\..\liblc3\src/spec.c ****     for (int i = 128, j, j0 = n4-1, j1 ; i > 0; i >>= 1) {
 153:..\..\..\liblc3\src/spec.c ****         int gn = (g_int - i) * k_20_28;
 154:..\..\..\liblc3\src/spec.c ****         int v = 0;
 155:..\..\..\liblc3\src/spec.c **** 
 156:..\..\..\liblc3\src/spec.c ****         for (j = j0; j >= 0 && e[j].q16 < gn; j--);
 157:..\..\..\liblc3\src/spec.c **** 
 158:..\..\..\liblc3\src/spec.c ****         for (j1 = j; j >= 0; j--) {
 159:..\..\..\liblc3\src/spec.c ****             int e_diff = e[j].q16 - gn;
 160:..\..\..\liblc3\src/spec.c **** 
 161:..\..\..\liblc3\src/spec.c ****             v += e_diff < 0 ? k_2u7 :
 162:..\..\..\liblc3\src/spec.c ****                  e_diff < 43 << 16 ?   e_diff + ( 7 << 16)
 163:..\..\..\liblc3\src/spec.c ****                                    : 2*e_diff - (36 << 16);
 164:..\..\..\liblc3\src/spec.c ****         }
 165:..\..\..\liblc3\src/spec.c **** 
 166:..\..\..\liblc3\src/spec.c ****         if (v > nbits * k_1u4)
 167:..\..\..\liblc3\src/spec.c ****             j0 = j1;
 168:..\..\..\liblc3\src/spec.c ****         else
 169:..\..\..\liblc3\src/spec.c ****             g_int = g_int - i;
 170:..\..\..\liblc3\src/spec.c ****     }
 171:..\..\..\liblc3\src/spec.c **** 
 172:..\..\..\liblc3\src/spec.c ****     /* --- Limit gain index --- */
 173:..\..\..\liblc3\src/spec.c **** 
 174:..\..\..\liblc3\src/spec.c ****     float x_lim = lc3_hr(sr) ? 0x7fffp8f : 0x7fffp0f;
 175:..\..\..\liblc3\src/spec.c **** 
 176:..\..\..\liblc3\src/spec.c ****     *g_min = 255 - g_off;
 177:..\..\..\liblc3\src/spec.c ****     for (int i = 128 ; i > 0; i >>= 1)
ARM GAS  C:\Users\rdn\AppData\Local\Temp\cciiQw7C.s 			page 7


 178:..\..\..\liblc3\src/spec.c ****         if (x_lim * unquantize_gain(*g_min - i) > x_max)
 179:..\..\..\liblc3\src/spec.c ****             *g_min -= i;
 180:..\..\..\liblc3\src/spec.c **** 
 181:..\..\..\liblc3\src/spec.c ****     *reset_off = g_int < *g_min || x_max == 0;
 182:..\..\..\liblc3\src/spec.c ****     if (*reset_off)
 183:..\..\..\liblc3\src/spec.c ****         g_int = *g_min;
 184:..\..\..\liblc3\src/spec.c **** 
 185:..\..\..\liblc3\src/spec.c ****     return g_int;
 186:..\..\..\liblc3\src/spec.c **** }
 187:..\..\..\liblc3\src/spec.c **** 
 188:..\..\..\liblc3\src/spec.c **** /**
 189:..\..\..\liblc3\src/spec.c ****  * Global Gain Adjustment
 190:..\..\..\liblc3\src/spec.c ****  * dt, sr          Duration and samplerate of the frame
 191:..\..\..\liblc3\src/spec.c ****  * g_idx           The estimated quantized gain index
 192:..\..\..\liblc3\src/spec.c ****  * nbits           Computed number of bits coding the spectrum
 193:..\..\..\liblc3\src/spec.c ****  * nbits_budget    Number of bits available for coding the spectrum
 194:..\..\..\liblc3\src/spec.c ****  * g_idx_min       Minimum gain index value
 195:..\..\..\liblc3\src/spec.c ****  * return          Gain adjust value (-1 to 2)
 196:..\..\..\liblc3\src/spec.c ****  */
 197:..\..\..\liblc3\src/spec.c **** LC3_HOT static int adjust_gain(
 198:..\..\..\liblc3\src/spec.c ****     enum lc3_dt dt, enum lc3_srate sr,
 199:..\..\..\liblc3\src/spec.c ****     int g_idx, int nbits, int nbits_budget, int g_idx_min)
 200:..\..\..\liblc3\src/spec.c **** {
 166              		.loc 1 200 0
 167              		.cfi_startproc
 168              		@ args = 8, pretend = 0, frame = 88
 169              		@ frame_needed = 0, uses_anonymous_args = 0
 170              	.LVL18:
 171 0000 F0B5     		push	{r4, r5, r6, r7, lr}
 172              		.cfi_def_cfa_offset 20
 173              		.cfi_offset 4, -20
 174              		.cfi_offset 5, -16
 175              		.cfi_offset 6, -12
 176              		.cfi_offset 7, -8
 177              		.cfi_offset 14, -4
 178 0002 4746     		mov	r7, r8
 179 0004 80B4     		push	{r7}
 180              		.cfi_def_cfa_offset 24
 181              		.cfi_offset 8, -24
 182 0006 96B0     		sub	sp, sp, #88
 183              		.cfi_def_cfa_offset 112
 184 0008 0500     		movs	r5, r0
 185 000a 0E00     		movs	r6, r1
 186 000c 1700     		movs	r7, r2
 187 000e 1C00     		movs	r4, r3
 201:..\..\..\liblc3\src/spec.c ****     /* --- Compute delta threshold --- */
 202:..\..\..\liblc3\src/spec.c **** 
 203:..\..\..\liblc3\src/spec.c ****     const int *t = (const int [LC3_NUM_SRATE][3]){
 188              		.loc 1 203 0
 189 0010 5422     		movs	r2, #84
 190              	.LVL19:
 191 0012 4049     		ldr	r1, .L34
 192              	.LVL20:
 193 0014 7031     		adds	r1, r1, #112
 194 0016 01A8     		add	r0, sp, #4
 195              	.LVL21:
 196 0018 FFF7FEFF 		bl	memcpy
ARM GAS  C:\Users\rdn\AppData\Local\Temp\cciiQw7C.s 			page 8


 197              	.LVL22:
 198 001c 7200     		lsls	r2, r6, #1
 199 001e 9219     		adds	r2, r2, r6
 200 0020 9300     		lsls	r3, r2, #2
 201 0022 01AA     		add	r2, sp, #4
 202 0024 D218     		adds	r2, r2, r3
 203              	.LVL23:
 204:..\..\..\liblc3\src/spec.c ****         {  80,  500,  850 }, { 230, 1025, 1700 }, { 380, 1550, 2550 },
 205:..\..\..\liblc3\src/spec.c ****         { 530, 2075, 3400 }, { 680, 2600, 4250 },
 206:..\..\..\liblc3\src/spec.c ****         { 680, 2600, 4250 }, { 830, 3125, 5100 }
 207:..\..\..\liblc3\src/spec.c ****     }[sr];
 208:..\..\..\liblc3\src/spec.c **** 
 209:..\..\..\liblc3\src/spec.c ****     int delta, den = 48;
 210:..\..\..\liblc3\src/spec.c **** 
 211:..\..\..\liblc3\src/spec.c ****     if (nbits < t[0]) {
 204              		.loc 1 211 0
 205 0026 1168     		ldr	r1, [r2]
 206 0028 A142     		cmp	r1, r4
 207 002a 05DD     		ble	.L16
 212:..\..\..\liblc3\src/spec.c ****         delta = 3*(nbits + 48);
 208              		.loc 1 212 0
 209 002c 2300     		movs	r3, r4
 210 002e 3033     		adds	r3, r3, #48
 211 0030 5800     		lsls	r0, r3, #1
 212 0032 C018     		adds	r0, r0, r3
 213              	.LVL24:
 209:..\..\..\liblc3\src/spec.c **** 
 214              		.loc 1 209 0
 215 0034 3021     		movs	r1, #48
 216 0036 1BE0     		b	.L17
 217              	.LVL25:
 218              	.L16:
 213:..\..\..\liblc3\src/spec.c **** 
 214:..\..\..\liblc3\src/spec.c ****     } else if (nbits < t[1]) {
 219              		.loc 1 214 0
 220 0038 5368     		ldr	r3, [r2, #4]
 221 003a 9846     		mov	r8, r3
 222 003c 9C42     		cmp	r4, r3
 223 003e 11DA     		bge	.L18
 224              	.LBB101:
 215:..\..\..\liblc3\src/spec.c ****         int n0 = 3*(t[0] + 48), range = t[1] - t[0];
 225              		.loc 1 215 0
 226 0040 0A00     		movs	r2, r1
 227              	.LVL26:
 228 0042 3032     		adds	r2, r2, #48
 229 0044 5000     		lsls	r0, r2, #1
 230 0046 8018     		adds	r0, r0, r2
 231              	.LVL27:
 232 0048 5A1A     		subs	r2, r3, r1
 233              	.LVL28:
 216:..\..\..\liblc3\src/spec.c ****         delta = n0 * range + (nbits - t[0]) * (t[1] - n0);
 234              		.loc 1 216 0
 235 004a 1300     		movs	r3, r2
 236 004c 4343     		muls	r3, r0
 237 004e 9C46     		mov	ip, r3
 238 0050 611A     		subs	r1, r4, r1
 239 0052 4346     		mov	r3, r8
ARM GAS  C:\Users\rdn\AppData\Local\Temp\cciiQw7C.s 			page 9


 240 0054 1B1A     		subs	r3, r3, r0
 241 0056 4B43     		muls	r3, r1
 242 0058 6344     		add	r3, r3, ip
 243 005a 1800     		movs	r0, r3
 244              	.LVL29:
 217:..\..\..\liblc3\src/spec.c ****         den *= range;
 245              		.loc 1 217 0
 246 005c 5300     		lsls	r3, r2, #1
 247 005e 9A18     		adds	r2, r3, r2
 248              	.LVL30:
 249 0060 1101     		lsls	r1, r2, #4
 250              	.LVL31:
 251              	.LBE101:
 252 0062 05E0     		b	.L17
 253              	.LVL32:
 254              	.L18:
 218:..\..\..\liblc3\src/spec.c **** 
 219:..\..\..\liblc3\src/spec.c ****     } else {
 220:..\..\..\liblc3\src/spec.c ****         delta = LC3_MIN(nbits, t[2]);
 255              		.loc 1 220 0
 256 0064 9368     		ldr	r3, [r2, #8]
 257 0066 2000     		movs	r0, r4
 258 0068 9C42     		cmp	r4, r3
 259 006a 00DD     		ble	.L19
 260              	.LVL33:
 261 006c 1800     		movs	r0, r3
 262              	.LVL34:
 263              	.L19:
 209:..\..\..\liblc3\src/spec.c **** 
 264              		.loc 1 209 0
 265 006e 3021     		movs	r1, #48
 266              	.LVL35:
 267              	.L17:
 221:..\..\..\liblc3\src/spec.c ****     }
 222:..\..\..\liblc3\src/spec.c **** 
 223:..\..\..\liblc3\src/spec.c ****     delta = (delta + den/2) / den;
 268              		.loc 1 223 0
 269 0070 4B10     		asrs	r3, r1, #1
 270 0072 C018     		adds	r0, r0, r3
 271              	.LVL36:
 272 0074 FFF7FEFF 		bl	__aeabi_idiv
 273              	.LVL37:
 274 0078 0100     		movs	r1, r0
 275              	.LVL38:
 224:..\..\..\liblc3\src/spec.c **** 
 225:..\..\..\liblc3\src/spec.c ****     /* --- Adjust gain --- */
 226:..\..\..\liblc3\src/spec.c **** 
 227:..\..\..\liblc3\src/spec.c ****     if (lc3_hr(sr) && nbits > nbits_budget) {
 276              		.loc 1 227 0
 277 007a 042E     		cmp	r6, #4
 278 007c 1DD9     		bls	.L20
 279              		.loc 1 227 0 is_stmt 0 discriminator 1
 280 007e 1C9B     		ldr	r3, [sp, #112]
 281 0080 9C42     		cmp	r4, r3
 282 0082 1ADD     		ble	.L20
 283              	.LBB102:
 228:..\..\..\liblc3\src/spec.c ****         int factor = 1 + (dt <= LC3_DT_5M) +
ARM GAS  C:\Users\rdn\AppData\Local\Temp\cciiQw7C.s 			page 10


 284              		.loc 1 228 0 is_stmt 1
 285 0084 012D     		cmp	r5, #1
 286 0086 01D8     		bhi	.L28
 287 0088 0220     		movs	r0, #2
 288              	.LVL39:
 289 008a 00E0     		b	.L21
 290              	.LVL40:
 291              	.L28:
 292 008c 0120     		movs	r0, #1
 293              	.LVL41:
 294              	.L21:
 229:..\..\..\liblc3\src/spec.c ****             (dt <= LC3_DT_2M5) * (1 + (nbits >= 520));
 295              		.loc 1 229 0
 296 008e 6B42     		rsbs	r3, r5, #0
 297 0090 6B41     		adcs	r3, r3, r5
 298 0092 214A     		ldr	r2, .L34+4
 299 0094 9442     		cmp	r4, r2
 300 0096 01DD     		ble	.L29
 301 0098 0225     		movs	r5, #2
 302 009a 00E0     		b	.L22
 303              	.L29:
 304 009c 0125     		movs	r5, #1
 305              	.L22:
 306              		.loc 1 229 0 is_stmt 0 discriminator 4
 307 009e 5D43     		muls	r5, r3
 228:..\..\..\liblc3\src/spec.c ****         int factor = 1 + (dt <= LC3_DT_5M) +
 308              		.loc 1 228 0 is_stmt 1 discriminator 4
 309 00a0 4519     		adds	r5, r0, r5
 310              	.LVL42:
 230:..\..\..\liblc3\src/spec.c **** 
 231:..\..\..\liblc3\src/spec.c ****         int g_incr = factor + (factor * (nbits - nbits_budget)) / delta;
 311              		.loc 1 231 0 discriminator 4
 312 00a2 1C9B     		ldr	r3, [sp, #112]
 313 00a4 E01A     		subs	r0, r4, r3
 314 00a6 6843     		muls	r0, r5
 315 00a8 FFF7FEFF 		bl	__aeabi_idiv
 316              	.LVL43:
 317 00ac 2818     		adds	r0, r5, r0
 318              	.LVL44:
 232:..\..\..\liblc3\src/spec.c ****         return LC3_MIN(g_idx + g_incr, 255) - g_idx;
 319              		.loc 1 232 0 discriminator 4
 320 00ae C019     		adds	r0, r0, r7
 321              	.LVL45:
 322 00b0 FF28     		cmp	r0, #255
 323 00b2 00DD     		ble	.L23
 324 00b4 FF20     		movs	r0, #255
 325              	.L23:
 326 00b6 C01B     		subs	r0, r0, r7
 327 00b8 28E0     		b	.L24
 328              	.LVL46:
 329              	.L20:
 330              	.LBE102:
 233:..\..\..\liblc3\src/spec.c ****     }
 234:..\..\..\liblc3\src/spec.c **** 
 235:..\..\..\liblc3\src/spec.c ****     if (!lc3_hr(sr) && nbits < nbits_budget - (delta + 2))
 331              		.loc 1 235 0
 332 00ba 042E     		cmp	r6, #4
ARM GAS  C:\Users\rdn\AppData\Local\Temp\cciiQw7C.s 			page 11


 333 00bc 0BD8     		bhi	.L25
 334              		.loc 1 235 0 is_stmt 0 discriminator 1
 335 00be 8B1C     		adds	r3, r1, #2
 336 00c0 1C9A     		ldr	r2, [sp, #112]
 337 00c2 D31A     		subs	r3, r2, r3
 338 00c4 9C42     		cmp	r4, r3
 339 00c6 06DA     		bge	.L25
 236:..\..\..\liblc3\src/spec.c ****         return -(g_idx > g_idx_min);
 340              		.loc 1 236 0 is_stmt 1
 341 00c8 0120     		movs	r0, #1
 342              	.LVL47:
 343 00ca 1D9B     		ldr	r3, [sp, #116]
 344 00cc 9F42     		cmp	r7, r3
 345 00ce 00DC     		bgt	.L26
 346 00d0 0020     		movs	r0, #0
 347              	.L26:
 348 00d2 4042     		rsbs	r0, r0, #0
 349 00d4 1AE0     		b	.L24
 350              	.LVL48:
 351              	.L25:
 237:..\..\..\liblc3\src/spec.c **** 
 238:..\..\..\liblc3\src/spec.c ****     if (!lc3_hr(sr) && nbits > nbits_budget)
 352              		.loc 1 238 0
 353 00d6 042E     		cmp	r6, #4
 354 00d8 15D8     		bhi	.L30
 355              		.loc 1 238 0 is_stmt 0 discriminator 1
 356 00da 1C9B     		ldr	r3, [sp, #112]
 357 00dc 9C42     		cmp	r4, r3
 358 00de 14DD     		ble	.L31
 239:..\..\..\liblc3\src/spec.c ****         return (g_idx < 255) + (g_idx < 254 && nbits >= nbits_budget + delta);
 359              		.loc 1 239 0 is_stmt 1
 360 00e0 F80F     		lsrs	r0, r7, #31
 361              	.LVL49:
 362 00e2 0023     		movs	r3, #0
 363 00e4 FE22     		movs	r2, #254
 364 00e6 BA42     		cmp	r2, r7
 365 00e8 4341     		adcs	r3, r3, r0
 366 00ea FD2F     		cmp	r7, #253
 367 00ec 06DC     		bgt	.L32
 368              		.loc 1 239 0 is_stmt 0 discriminator 1
 369 00ee 1C9A     		ldr	r2, [sp, #112]
 370 00f0 9446     		mov	ip, r2
 371 00f2 6144     		add	r1, r1, ip
 372              	.LVL50:
 373 00f4 8C42     		cmp	r4, r1
 374 00f6 03DA     		bge	.L33
 375              		.loc 1 239 0
 376 00f8 0020     		movs	r0, #0
 377 00fa 02E0     		b	.L27
 378              	.LVL51:
 379              	.L32:
 380 00fc 0020     		movs	r0, #0
 381 00fe 00E0     		b	.L27
 382              	.LVL52:
 383              	.L33:
 384 0100 0120     		movs	r0, #1
 385              	.L27:
ARM GAS  C:\Users\rdn\AppData\Local\Temp\cciiQw7C.s 			page 12


 386              		.loc 1 239 0 discriminator 6
 387 0102 C018     		adds	r0, r0, r3
 388 0104 02E0     		b	.L24
 389              	.LVL53:
 390              	.L30:
 240:..\..\..\liblc3\src/spec.c **** 
 241:..\..\..\liblc3\src/spec.c ****     return 0;
 391              		.loc 1 241 0 is_stmt 1
 392 0106 0020     		movs	r0, #0
 393              	.LVL54:
 394 0108 00E0     		b	.L24
 395              	.LVL55:
 396              	.L31:
 397 010a 0020     		movs	r0, #0
 398              	.LVL56:
 399              	.L24:
 242:..\..\..\liblc3\src/spec.c **** }
 400              		.loc 1 242 0
 401 010c 16B0     		add	sp, sp, #88
 402              		@ sp needed
 403              	.LVL57:
 404              	.LVL58:
 405              	.LVL59:
 406 010e 04BC     		pop	{r2}
 407 0110 9046     		mov	r8, r2
 408 0112 F0BD     		pop	{r4, r5, r6, r7, pc}
 409              	.L35:
 410              		.align	2
 411              	.L34:
 412 0114 00000000 		.word	.LANCHOR0
 413 0118 07020000 		.word	519
 414              		.cfi_endproc
 415              	.LFE23:
 416              		.size	adjust_gain, .-adjust_gain
 417              		.global	__aeabi_fcmple
 418              		.section	.text.quantize,"ax",%progbits
 419              		.align	2
 420              		.code	16
 421              		.thumb_func
 422              		.type	quantize, %function
 423              	quantize:
 424              	.LFB24:
 243:..\..\..\liblc3\src/spec.c **** 
 244:..\..\..\liblc3\src/spec.c **** /**
 245:..\..\..\liblc3\src/spec.c ****  * Spectrum quantization
 246:..\..\..\liblc3\src/spec.c ****  * dt, sr          Duration and samplerate of the frame
 247:..\..\..\liblc3\src/spec.c ****  * g_int           Quantization gain value
 248:..\..\..\liblc3\src/spec.c ****  * x               Spectral coefficients, scaled as output
 249:..\..\..\liblc3\src/spec.c ****  * n               Return count of significants
 250:..\..\..\liblc3\src/spec.c ****  */
 251:..\..\..\liblc3\src/spec.c **** LC3_HOT static void quantize(
 252:..\..\..\liblc3\src/spec.c ****     enum lc3_dt dt, enum lc3_srate sr, int g_int, float *x, int *n)
 253:..\..\..\liblc3\src/spec.c **** {
 425              		.loc 1 253 0
 426              		.cfi_startproc
 427              		@ args = 4, pretend = 0, frame = 8
 428              		@ frame_needed = 0, uses_anonymous_args = 0
ARM GAS  C:\Users\rdn\AppData\Local\Temp\cciiQw7C.s 			page 13


 429              	.LVL60:
 430 0000 F0B5     		push	{r4, r5, r6, r7, lr}
 431              		.cfi_def_cfa_offset 20
 432              		.cfi_offset 4, -20
 433              		.cfi_offset 5, -16
 434              		.cfi_offset 6, -12
 435              		.cfi_offset 7, -8
 436              		.cfi_offset 14, -4
 437 0002 5F46     		mov	r7, fp
 438 0004 5646     		mov	r6, r10
 439 0006 4D46     		mov	r5, r9
 440 0008 4446     		mov	r4, r8
 441 000a F0B4     		push	{r4, r5, r6, r7}
 442              		.cfi_def_cfa_offset 36
 443              		.cfi_offset 8, -36
 444              		.cfi_offset 9, -32
 445              		.cfi_offset 10, -28
 446              		.cfi_offset 11, -24
 447 000c 83B0     		sub	sp, sp, #12
 448              		.cfi_def_cfa_offset 48
 449 000e 0400     		movs	r4, r0
 450 0010 8B46     		mov	fp, r1
 451 0012 9A46     		mov	r10, r3
 452 0014 0C9F     		ldr	r7, [sp, #48]
 254:..\..\..\liblc3\src/spec.c ****     float g_inv = unquantize_gain(-g_int);
 453              		.loc 1 254 0
 454 0016 5042     		rsbs	r0, r2, #0
 455              	.LVL61:
 456 0018 FFF7FEFF 		bl	unquantize_gain
 457              	.LVL62:
 458 001c 0090     		str	r0, [sp]
 459              	.LVL63:
 460              	.LBB103:
 461              	.LBB104:
 462              		.file 2 "..\\..\\..\\liblc3\\src\\tables.h"
   1:..\..\..\liblc3\src/tables.h **** /******************************************************************************
   2:..\..\..\liblc3\src/tables.h ****  *
   3:..\..\..\liblc3\src/tables.h ****  *  Copyright 2022 Google LLC
   4:..\..\..\liblc3\src/tables.h ****  *
   5:..\..\..\liblc3\src/tables.h ****  *  Licensed under the Apache License, Version 2.0 (the "License");
   6:..\..\..\liblc3\src/tables.h ****  *  you may not use this file except in compliance with the License.
   7:..\..\..\liblc3\src/tables.h ****  *  You may obtain a copy of the License at:
   8:..\..\..\liblc3\src/tables.h ****  *
   9:..\..\..\liblc3\src/tables.h ****  *  http://www.apache.org/licenses/LICENSE-2.0
  10:..\..\..\liblc3\src/tables.h ****  *
  11:..\..\..\liblc3\src/tables.h ****  *  Unless required by applicable law or agreed to in writing, software
  12:..\..\..\liblc3\src/tables.h ****  *  distributed under the License is distributed on an "AS IS" BASIS,
  13:..\..\..\liblc3\src/tables.h ****  *  WITHOUT WARRANTIES OR CONDITIONS OF ANY KIND, either express or implied.
  14:..\..\..\liblc3\src/tables.h ****  *  See the License for the specific language governing permissions and
  15:..\..\..\liblc3\src/tables.h ****  *  limitations under the License.
  16:..\..\..\liblc3\src/tables.h ****  *
  17:..\..\..\liblc3\src/tables.h ****  ******************************************************************************/
  18:..\..\..\liblc3\src/tables.h **** 
  19:..\..\..\liblc3\src/tables.h **** #ifndef __LC3_TABLES_H
  20:..\..\..\liblc3\src/tables.h **** #define __LC3_TABLES_H
  21:..\..\..\liblc3\src/tables.h **** 
  22:..\..\..\liblc3\src/tables.h **** #include "common.h"
ARM GAS  C:\Users\rdn\AppData\Local\Temp\cciiQw7C.s 			page 14


  23:..\..\..\liblc3\src/tables.h **** #include "bits.h"
  24:..\..\..\liblc3\src/tables.h **** 
  25:..\..\..\liblc3\src/tables.h **** 
  26:..\..\..\liblc3\src/tables.h **** /**
  27:..\..\..\liblc3\src/tables.h ****  * Characteristics
  28:..\..\..\liblc3\src/tables.h ****  *
  29:..\..\..\liblc3\src/tables.h ****  *   ns   Number of temporal samples / frequency coefficients within a frame
  30:..\..\..\liblc3\src/tables.h ****  *
  31:..\..\..\liblc3\src/tables.h ****  *   ne   Number of encoded frequency coefficients
  32:..\..\..\liblc3\src/tables.h ****  *
  33:..\..\..\liblc3\src/tables.h ****  *   nd   Number of MDCT delayed samples, sum of half a frame and an ovelap
  34:..\..\..\liblc3\src/tables.h ****  *        of future by 1.25 ms (2.5ms, 5ms and 10ms frame durations),
  35:..\..\..\liblc3\src/tables.h ****  *        or 2 ms (7.5ms frame duration).
  36:..\..\..\liblc3\src/tables.h ****  *
  37:..\..\..\liblc3\src/tables.h ****  *   nh   Number of 18 ms samples of the history buffer, aligned on a frame
  38:..\..\..\liblc3\src/tables.h ****  *
  39:..\..\..\liblc3\src/tables.h ****  *   nt   Number of 1.25 ms previous samples
  40:..\..\..\liblc3\src/tables.h ****  */
  41:..\..\..\liblc3\src/tables.h **** 
  42:..\..\..\liblc3\src/tables.h **** extern const int lc3_ns_2m5[LC3_NUM_SRATE];
  43:..\..\..\liblc3\src/tables.h **** extern const int lc3_ne_2m5[LC3_NUM_SRATE];
  44:..\..\..\liblc3\src/tables.h **** extern const int lc3_ns_4m [LC3_NUM_SRATE];
  45:..\..\..\liblc3\src/tables.h **** 
  46:..\..\..\liblc3\src/tables.h **** static inline int lc3_ns(enum lc3_dt dt, enum lc3_srate sr) {
  47:..\..\..\liblc3\src/tables.h ****     return lc3_ns_2m5[sr] * (1 + dt);
  48:..\..\..\liblc3\src/tables.h **** }
  49:..\..\..\liblc3\src/tables.h **** 
  50:..\..\..\liblc3\src/tables.h **** static inline int lc3_ne(enum lc3_dt dt, enum lc3_srate sr) {
  51:..\..\..\liblc3\src/tables.h ****     return lc3_ne_2m5[sr] * (1 + dt);
 463              		.loc 2 51 0
 464 001e 5B46     		mov	r3, fp
 465 0020 9A00     		lsls	r2, r3, #2
 466 0022 214B     		ldr	r3, .L44
 467 0024 D358     		ldr	r3, [r2, r3]
 468 0026 0134     		adds	r4, r4, #1
 469              	.LVL64:
 470 0028 5C43     		muls	r4, r3
 471 002a A146     		mov	r9, r4
 472              	.LVL65:
 473              	.LBE104:
 474              	.LBE103:
 255:..\..\..\liblc3\src/spec.c ****     int ne = lc3_ne(dt, sr);
 256:..\..\..\liblc3\src/spec.c **** 
 257:..\..\..\liblc3\src/spec.c ****     *n = ne;
 475              		.loc 1 257 0
 476 002c 3C60     		str	r4, [r7]
 477              	.LVL66:
 478              	.LBB105:
 258:..\..\..\liblc3\src/spec.c **** 
 259:..\..\..\liblc3\src/spec.c ****     for (int i = 0; i < ne; i += 2) {
 479              		.loc 1 259 0
 480 002e 0026     		movs	r6, #0
 481 0030 31E0     		b	.L37
 482              	.LVL67:
 483              	.L40:
 484              	.LBB106:
 260:..\..\..\liblc3\src/spec.c ****         float xq_min = lc3_hr(sr) ? 0.5f : 10.f/16;
ARM GAS  C:\Users\rdn\AppData\Local\Temp\cciiQw7C.s 			page 15


 485              		.loc 1 260 0
 486 0032 5B46     		mov	r3, fp
 487 0034 042B     		cmp	r3, #4
 488 0036 03D9     		bls	.L41
 489 0038 FC23     		movs	r3, #252
 490 003a 9B05     		lsls	r3, r3, #22
 491 003c 0193     		str	r3, [sp, #4]
 492 003e 01E0     		b	.L38
 493              	.L41:
 494 0040 1A4B     		ldr	r3, .L44+4
 495 0042 0193     		str	r3, [sp, #4]
 496              	.L38:
 497              	.LVL68:
 261:..\..\..\liblc3\src/spec.c **** 
 262:..\..\..\liblc3\src/spec.c ****         x[i+0] *= g_inv;
 498              		.loc 1 262 0 discriminator 4
 499 0044 B500     		lsls	r5, r6, #2
 500 0046 5544     		add	r5, r5, r10
 501 0048 0099     		ldr	r1, [sp]
 502 004a 2868     		ldr	r0, [r5]
 503 004c FFF7FEFF 		bl	__aeabi_fmul
 504              	.LVL69:
 505 0050 2860     		str	r0, [r5]
 263:..\..\..\liblc3\src/spec.c ****         x[i+1] *= g_inv;
 506              		.loc 1 263 0 discriminator 4
 507 0052 741C     		adds	r4, r6, #1
 508 0054 A400     		lsls	r4, r4, #2
 509 0056 5444     		add	r4, r4, r10
 510 0058 2168     		ldr	r1, [r4]
 511 005a 0098     		ldr	r0, [sp]
 512 005c FFF7FEFF 		bl	__aeabi_fmul
 513              	.LVL70:
 514 0060 8046     		mov	r8, r0
 515 0062 2060     		str	r0, [r4]
 264:..\..\..\liblc3\src/spec.c **** 
 265:..\..\..\liblc3\src/spec.c ****         *n = fabsf(x[i+0]) >= xq_min ||
 516              		.loc 1 265 0 discriminator 4
 517 0064 2968     		ldr	r1, [r5]
 518 0066 4900     		lsls	r1, r1, #1
 519 0068 4908     		lsrs	r1, r1, #1
 266:..\..\..\liblc3\src/spec.c ****              fabsf(x[i+1]) >= xq_min   ? ne : *n - 2;
 520              		.loc 1 266 0 discriminator 4
 521 006a 019C     		ldr	r4, [sp, #4]
 522 006c 201C     		adds	r0, r4, #0
 523 006e FFF7FEFF 		bl	__aeabi_fcmple
 524              	.LVL71:
 525 0072 0028     		cmp	r0, #0
 526 0074 0AD1     		bne	.L42
 527              		.loc 1 266 0 is_stmt 0 discriminator 1
 528 0076 4346     		mov	r3, r8
 529 0078 5900     		lsls	r1, r3, #1
 530 007a 4908     		lsrs	r1, r1, #1
 265:..\..\..\liblc3\src/spec.c ****              fabsf(x[i+1]) >= xq_min   ? ne : *n - 2;
 531              		.loc 1 265 0 is_stmt 1 discriminator 1
 532 007c 201C     		adds	r0, r4, #0
 533 007e FFF7FEFF 		bl	__aeabi_fcmple
 534              	.LVL72:
ARM GAS  C:\Users\rdn\AppData\Local\Temp\cciiQw7C.s 			page 16


 535 0082 0028     		cmp	r0, #0
 536 0084 04D1     		bne	.L43
 537              		.loc 1 266 0
 538 0086 3B68     		ldr	r3, [r7]
 539 0088 023B     		subs	r3, r3, #2
 540 008a 02E0     		b	.L39
 541              	.L42:
 542 008c 4B46     		mov	r3, r9
 543 008e 00E0     		b	.L39
 544              	.L43:
 545 0090 4B46     		mov	r3, r9
 546              	.L39:
 265:..\..\..\liblc3\src/spec.c ****              fabsf(x[i+1]) >= xq_min   ? ne : *n - 2;
 547              		.loc 1 265 0 discriminator 2
 548 0092 3B60     		str	r3, [r7]
 549              	.LBE106:
 259:..\..\..\liblc3\src/spec.c ****         float xq_min = lc3_hr(sr) ? 0.5f : 10.f/16;
 550              		.loc 1 259 0 discriminator 2
 551 0094 0236     		adds	r6, r6, #2
 552              	.LVL73:
 553              	.L37:
 259:..\..\..\liblc3\src/spec.c ****         float xq_min = lc3_hr(sr) ? 0.5f : 10.f/16;
 554              		.loc 1 259 0 is_stmt 0 discriminator 1
 555 0096 4E45     		cmp	r6, r9
 556 0098 CBDB     		blt	.L40
 557              	.LBE105:
 267:..\..\..\liblc3\src/spec.c ****     }
 268:..\..\..\liblc3\src/spec.c **** }
 558              		.loc 1 268 0 is_stmt 1
 559 009a 03B0     		add	sp, sp, #12
 560              	.LVL74:
 561              		@ sp needed
 562              	.LVL75:
 563              	.LVL76:
 564 009c 3CBC     		pop	{r2, r3, r4, r5}
 565 009e 9046     		mov	r8, r2
 566 00a0 9946     		mov	r9, r3
 567 00a2 A246     		mov	r10, r4
 568 00a4 AB46     		mov	fp, r5
 569 00a6 F0BD     		pop	{r4, r5, r6, r7, pc}
 570              	.L45:
 571              		.align	2
 572              	.L44:
 573 00a8 00000000 		.word	lc3_ne_2m5
 574 00ac 0000203F 		.word	1059061760
 575              		.cfi_endproc
 576              	.LFE24:
 577              		.size	quantize, .-quantize
 578              		.section	.text.unquantize,"ax",%progbits
 579              		.align	2
 580              		.code	16
 581              		.thumb_func
 582              		.type	unquantize, %function
 583              	unquantize:
 584              	.LFB25:
 269:..\..\..\liblc3\src/spec.c **** 
 270:..\..\..\liblc3\src/spec.c **** /**
ARM GAS  C:\Users\rdn\AppData\Local\Temp\cciiQw7C.s 			page 17


 271:..\..\..\liblc3\src/spec.c ****  * Spectrum quantization inverse
 272:..\..\..\liblc3\src/spec.c ****  * dt, sr          Duration and samplerate of the frame
 273:..\..\..\liblc3\src/spec.c ****  * g_int           Quantization gain value
 274:..\..\..\liblc3\src/spec.c ****  * x, nq           Spectral quantized, and count of significants
 275:..\..\..\liblc3\src/spec.c ****  * return          Unquantized gain value
 276:..\..\..\liblc3\src/spec.c ****  */
 277:..\..\..\liblc3\src/spec.c **** LC3_HOT static float unquantize(
 278:..\..\..\liblc3\src/spec.c ****     enum lc3_dt dt, enum lc3_srate sr,
 279:..\..\..\liblc3\src/spec.c ****     int g_int, float *x, int nq)
 280:..\..\..\liblc3\src/spec.c **** {
 585              		.loc 1 280 0
 586              		.cfi_startproc
 587              		@ args = 4, pretend = 0, frame = 8
 588              		@ frame_needed = 0, uses_anonymous_args = 0
 589              	.LVL77:
 590 0000 F0B5     		push	{r4, r5, r6, r7, lr}
 591              		.cfi_def_cfa_offset 20
 592              		.cfi_offset 4, -20
 593              		.cfi_offset 5, -16
 594              		.cfi_offset 6, -12
 595              		.cfi_offset 7, -8
 596              		.cfi_offset 14, -4
 597 0002 4F46     		mov	r7, r9
 598 0004 80B4     		push	{r7}
 599              		.cfi_def_cfa_offset 24
 600              		.cfi_offset 9, -24
 601 0006 82B0     		sub	sp, sp, #8
 602              		.cfi_def_cfa_offset 32
 603 0008 0400     		movs	r4, r0
 604 000a 0D00     		movs	r5, r1
 605 000c 1F00     		movs	r7, r3
 606 000e 089B     		ldr	r3, [sp, #32]
 607              	.LVL78:
 608 0010 9946     		mov	r9, r3
 281:..\..\..\liblc3\src/spec.c ****     float g = unquantize_gain(g_int);
 609              		.loc 1 281 0
 610 0012 1000     		movs	r0, r2
 611              	.LVL79:
 612 0014 FFF7FEFF 		bl	unquantize_gain
 613              	.LVL80:
 614 0018 0190     		str	r0, [sp, #4]
 615              	.LVL81:
 616              	.LBB107:
 617              	.LBB108:
 618              		.loc 2 51 0
 619 001a AD00     		lsls	r5, r5, #2
 620              	.LVL82:
 621 001c 0E4B     		ldr	r3, .L51
 622 001e EB58     		ldr	r3, [r5, r3]
 623 0020 0134     		adds	r4, r4, #1
 624              	.LVL83:
 625 0022 5C43     		muls	r4, r3
 626 0024 2600     		movs	r6, r4
 627              	.LVL84:
 628              	.LBE108:
 629              	.LBE107:
 282:..\..\..\liblc3\src/spec.c ****     int i, ne = lc3_ne(dt, sr);
ARM GAS  C:\Users\rdn\AppData\Local\Temp\cciiQw7C.s 			page 18


 283:..\..\..\liblc3\src/spec.c **** 
 284:..\..\..\liblc3\src/spec.c ****     for (i = 0; i < nq; i++)
 630              		.loc 1 284 0
 631 0026 0024     		movs	r4, #0
 632 0028 07E0     		b	.L47
 633              	.LVL85:
 634              	.L48:
 285:..\..\..\liblc3\src/spec.c ****         x[i] = x[i] * g;
 635              		.loc 1 285 0 discriminator 3
 636 002a A500     		lsls	r5, r4, #2
 637 002c 7D19     		adds	r5, r7, r5
 638 002e 2968     		ldr	r1, [r5]
 639 0030 0198     		ldr	r0, [sp, #4]
 640 0032 FFF7FEFF 		bl	__aeabi_fmul
 641              	.LVL86:
 642 0036 2860     		str	r0, [r5]
 284:..\..\..\liblc3\src/spec.c ****         x[i] = x[i] * g;
 643              		.loc 1 284 0 discriminator 3
 644 0038 0134     		adds	r4, r4, #1
 645              	.LVL87:
 646              	.L47:
 284:..\..\..\liblc3\src/spec.c ****         x[i] = x[i] * g;
 647              		.loc 1 284 0 is_stmt 0 discriminator 1
 648 003a 4C45     		cmp	r4, r9
 649 003c F5DB     		blt	.L48
 650 003e 03E0     		b	.L49
 651              	.L50:
 286:..\..\..\liblc3\src/spec.c **** 
 287:..\..\..\liblc3\src/spec.c ****     for ( ; i < ne; i++)
 288:..\..\..\liblc3\src/spec.c ****         x[i] = 0;
 652              		.loc 1 288 0 is_stmt 1 discriminator 2
 653 0040 A300     		lsls	r3, r4, #2
 654 0042 0022     		movs	r2, #0
 655 0044 FA50     		str	r2, [r7, r3]
 287:..\..\..\liblc3\src/spec.c ****         x[i] = 0;
 656              		.loc 1 287 0 discriminator 2
 657 0046 0134     		adds	r4, r4, #1
 658              	.LVL88:
 659              	.L49:
 287:..\..\..\liblc3\src/spec.c ****         x[i] = 0;
 660              		.loc 1 287 0 is_stmt 0 discriminator 1
 661 0048 B442     		cmp	r4, r6
 662 004a F9DB     		blt	.L50
 289:..\..\..\liblc3\src/spec.c **** 
 290:..\..\..\liblc3\src/spec.c ****     return g;
 291:..\..\..\liblc3\src/spec.c **** }
 663              		.loc 1 291 0 is_stmt 1
 664 004c 0198     		ldr	r0, [sp, #4]
 665 004e 02B0     		add	sp, sp, #8
 666              		@ sp needed
 667              	.LVL89:
 668              	.LVL90:
 669 0050 04BC     		pop	{r2}
 670 0052 9146     		mov	r9, r2
 671 0054 F0BD     		pop	{r4, r5, r6, r7, pc}
 672              	.L52:
 673 0056 C046     		.align	2
ARM GAS  C:\Users\rdn\AppData\Local\Temp\cciiQw7C.s 			page 19


 674              	.L51:
 675 0058 00000000 		.word	lc3_ne_2m5
 676              		.cfi_endproc
 677              	.LFE25:
 678              		.size	unquantize, .-unquantize
 679              		.section	.text.resolve_modes,"ax",%progbits
 680              		.align	2
 681              		.code	16
 682              		.thumb_func
 683              		.type	resolve_modes, %function
 684              	resolve_modes:
 685              	.LFB26:
 292:..\..\..\liblc3\src/spec.c **** 
 293:..\..\..\liblc3\src/spec.c **** 
 294:..\..\..\liblc3\src/spec.c **** /* ----------------------------------------------------------------------------
 295:..\..\..\liblc3\src/spec.c ****  *  Spectrum coding
 296:..\..\..\liblc3\src/spec.c ****  * -------------------------------------------------------------------------- */
 297:..\..\..\liblc3\src/spec.c **** 
 298:..\..\..\liblc3\src/spec.c **** /**
 299:..\..\..\liblc3\src/spec.c ****  * Resolve High-bitrate and LSB modes according size of the frame
 300:..\..\..\liblc3\src/spec.c ****  * sr, nbytes      Samplerate and size of the frame
 301:..\..\..\liblc3\src/spec.c ****  * p_lsb_mode      True when LSB mode allowed, when not NULL
 302:..\..\..\liblc3\src/spec.c ****  * return          True when High-Rate mode enabled
 303:..\..\..\liblc3\src/spec.c ****  */
 304:..\..\..\liblc3\src/spec.c **** static bool resolve_modes(enum lc3_srate sr, int nbytes, bool *p_lsb_mode)
 305:..\..\..\liblc3\src/spec.c **** {
 686              		.loc 1 305 0
 687              		.cfi_startproc
 688              		@ args = 0, pretend = 0, frame = 0
 689              		@ frame_needed = 0, uses_anonymous_args = 0
 690              	.LVL91:
 691 0000 30B5     		push	{r4, r5, lr}
 692              		.cfi_def_cfa_offset 12
 693              		.cfi_offset 4, -12
 694              		.cfi_offset 5, -8
 695              		.cfi_offset 14, -4
 306:..\..\..\liblc3\src/spec.c ****     int sr_ind = lc3_hr(sr) ? 4 + (sr - LC3_SRATE_48K_HR) : sr;
 696              		.loc 1 306 0
 697 0002 0428     		cmp	r0, #4
 698 0004 01D9     		bls	.L54
 699              		.loc 1 306 0 is_stmt 0 discriminator 1
 700 0006 431E     		subs	r3, r0, #1
 701 0008 00E0     		b	.L55
 702              	.L54:
 703              		.loc 1 306 0 discriminator 2
 704 000a 0300     		movs	r3, r0
 705              	.L55:
 706              	.LVL92:
 307:..\..\..\liblc3\src/spec.c **** 
 308:..\..\..\liblc3\src/spec.c ****     if (p_lsb_mode)
 707              		.loc 1 308 0 is_stmt 1 discriminator 4
 708 000c 002A     		cmp	r2, #0
 709 000e 0DD0     		beq	.L56
 309:..\..\..\liblc3\src/spec.c ****       *p_lsb_mode = (nbytes >= 20 * (3 + sr_ind)) && (sr < LC3_SRATE_96K_HR);
 710              		.loc 1 309 0
 711 0010 DC1C     		adds	r4, r3, #3
 712 0012 A500     		lsls	r5, r4, #2
ARM GAS  C:\Users\rdn\AppData\Local\Temp\cciiQw7C.s 			page 20


 713 0014 2C19     		adds	r4, r5, r4
 714 0016 A500     		lsls	r5, r4, #2
 715 0018 8D42     		cmp	r5, r1
 716 001a 03DC     		bgt	.L59
 717              		.loc 1 309 0 is_stmt 0 discriminator 1
 718 001c 0528     		cmp	r0, #5
 719 001e 03D9     		bls	.L60
 720              		.loc 1 309 0
 721 0020 0024     		movs	r4, #0
 722 0022 02E0     		b	.L57
 723              	.L59:
 724 0024 0024     		movs	r4, #0
 725 0026 00E0     		b	.L57
 726              	.L60:
 727 0028 0124     		movs	r4, #1
 728              	.L57:
 729              		.loc 1 309 0 discriminator 6
 730 002a 1470     		strb	r4, [r2]
 731              	.L56:
 310:..\..\..\liblc3\src/spec.c **** 
 311:..\..\..\liblc3\src/spec.c ****     return (nbytes > 20 * (1 + sr_ind)) && (sr < LC3_SRATE_96K_HR);
 732              		.loc 1 311 0 is_stmt 1
 733 002c 0133     		adds	r3, r3, #1
 734              	.LVL93:
 735 002e 9A00     		lsls	r2, r3, #2
 736              	.LVL94:
 737 0030 D318     		adds	r3, r2, r3
 738              	.LVL95:
 739 0032 9A00     		lsls	r2, r3, #2
 740 0034 9142     		cmp	r1, r2
 741 0036 03DD     		ble	.L61
 742              		.loc 1 311 0 is_stmt 0 discriminator 1
 743 0038 0528     		cmp	r0, #5
 744 003a 03D9     		bls	.L62
 745              		.loc 1 311 0
 746 003c 0020     		movs	r0, #0
 747              	.LVL96:
 748 003e 02E0     		b	.L58
 749              	.LVL97:
 750              	.L61:
 751 0040 0020     		movs	r0, #0
 752              	.LVL98:
 753 0042 00E0     		b	.L58
 754              	.LVL99:
 755              	.L62:
 756 0044 0120     		movs	r0, #1
 757              	.LVL100:
 758              	.L58:
 312:..\..\..\liblc3\src/spec.c **** }
 759              		.loc 1 312 0 is_stmt 1 discriminator 6
 760              		@ sp needed
 761 0046 30BD     		pop	{r4, r5, pc}
 762              		.cfi_endproc
 763              	.LFE26:
 764              		.size	resolve_modes, .-resolve_modes
 765              		.global	__aeabi_fadd
 766              		.global	__aeabi_f2uiz
ARM GAS  C:\Users\rdn\AppData\Local\Temp\cciiQw7C.s 			page 21


 767              		.section	.text.compute_nbits,"ax",%progbits
 768              		.align	2
 769              		.code	16
 770              		.thumb_func
 771              		.type	compute_nbits, %function
 772              	compute_nbits:
 773              	.LFB27:
 313:..\..\..\liblc3\src/spec.c **** 
 314:..\..\..\liblc3\src/spec.c **** /**
 315:..\..\..\liblc3\src/spec.c ****  * Bit consumption
 316:..\..\..\liblc3\src/spec.c ****  * dt, sr, nbytes  Duration, samplerate and size of the frame
 317:..\..\..\liblc3\src/spec.c ****  * x               Spectral quantized coefficients
 318:..\..\..\liblc3\src/spec.c ****  * n               Count of significant coefficients, updated on truncation
 319:..\..\..\liblc3\src/spec.c ****  * nbits_budget    Truncate to stay in budget, when not zero
 320:..\..\..\liblc3\src/spec.c ****  * p_lsb_mode      Return True when LSB's are not AC coded, or NULL
 321:..\..\..\liblc3\src/spec.c ****  * return          The number of bits coding the spectrum
 322:..\..\..\liblc3\src/spec.c ****  */
 323:..\..\..\liblc3\src/spec.c **** LC3_HOT static int compute_nbits(
 324:..\..\..\liblc3\src/spec.c ****     enum lc3_dt dt, enum lc3_srate sr, int nbytes,
 325:..\..\..\liblc3\src/spec.c ****     const float *x, int *n, int nbits_budget, bool *p_lsb_mode)
 326:..\..\..\liblc3\src/spec.c **** {
 774              		.loc 1 326 0
 775              		.cfi_startproc
 776              		@ args = 12, pretend = 0, frame = 64
 777              		@ frame_needed = 0, uses_anonymous_args = 0
 778              	.LVL101:
 779 0000 F0B5     		push	{r4, r5, r6, r7, lr}
 780              		.cfi_def_cfa_offset 20
 781              		.cfi_offset 4, -20
 782              		.cfi_offset 5, -16
 783              		.cfi_offset 6, -12
 784              		.cfi_offset 7, -8
 785              		.cfi_offset 14, -4
 786 0002 5F46     		mov	r7, fp
 787 0004 5646     		mov	r6, r10
 788 0006 4D46     		mov	r5, r9
 789 0008 4446     		mov	r4, r8
 790 000a F0B4     		push	{r4, r5, r6, r7}
 791              		.cfi_def_cfa_offset 36
 792              		.cfi_offset 8, -36
 793              		.cfi_offset 9, -32
 794              		.cfi_offset 10, -28
 795              		.cfi_offset 11, -24
 796 000c 91B0     		sub	sp, sp, #68
 797              		.cfi_def_cfa_offset 104
 798 000e 0400     		movs	r4, r0
 799 0010 0D00     		movs	r5, r1
 800 0012 0791     		str	r1, [sp, #28]
 801 0014 1100     		movs	r1, r2
 802              	.LVL102:
 803 0016 9846     		mov	r8, r3
 804 0018 1A9B     		ldr	r3, [sp, #104]
 805              	.LVL103:
 806 001a 9B46     		mov	fp, r3
 327:..\..\..\liblc3\src/spec.c ****     bool lsb_mode, high_rate = resolve_modes(sr, nbytes, &lsb_mode);
 807              		.loc 1 327 0
 808 001c 0EAB     		add	r3, sp, #56
ARM GAS  C:\Users\rdn\AppData\Local\Temp\cciiQw7C.s 			page 22


 809 001e DA1D     		adds	r2, r3, #7
 810              	.LVL104:
 811 0020 2800     		movs	r0, r5
 812              	.LVL105:
 813 0022 FFF7FEFF 		bl	resolve_modes
 814              	.LVL106:
 815 0026 0D90     		str	r0, [sp, #52]
 816              	.LVL107:
 817              	.LBB109:
 818              	.LBB110:
 819              		.loc 2 51 0
 820 0028 AA00     		lsls	r2, r5, #2
 821 002a 8B4B     		ldr	r3, .L92
 822 002c D358     		ldr	r3, [r2, r3]
 823 002e 0134     		adds	r4, r4, #1
 824              	.LVL108:
 825 0030 5C43     		muls	r4, r3
 826 0032 0594     		str	r4, [sp, #20]
 827              	.LVL109:
 828              	.LBE110:
 829              	.LBE109:
 328:..\..\..\liblc3\src/spec.c ****     int ne = lc3_ne(dt, sr);
 329:..\..\..\liblc3\src/spec.c **** 
 330:..\..\..\liblc3\src/spec.c ****     /* --- Loop on quantized coefficients --- */
 331:..\..\..\liblc3\src/spec.c **** 
 332:..\..\..\liblc3\src/spec.c ****     int nbits = 0, nbits_lsb = 0;
 333:..\..\..\liblc3\src/spec.c ****     uint8_t state = 0;
 334:..\..\..\liblc3\src/spec.c **** 
 335:..\..\..\liblc3\src/spec.c ****     int nbits_end = 0;
 336:..\..\..\liblc3\src/spec.c ****     int n_end = 0;
 337:..\..\..\liblc3\src/spec.c **** 
 338:..\..\..\liblc3\src/spec.c ****     nbits_budget = nbits_budget ? nbits_budget * 2048 : INT_MAX;
 830              		.loc 1 338 0
 831 0034 1B9B     		ldr	r3, [sp, #108]
 832 0036 002B     		cmp	r3, #0
 833 0038 02D0     		beq	.L85
 834              		.loc 1 338 0 is_stmt 0 discriminator 1
 835 003a DB02     		lsls	r3, r3, #11
 836 003c 0393     		str	r3, [sp, #12]
 837 003e 01E0     		b	.L64
 838              	.L85:
 839              		.loc 1 338 0
 840 0040 864B     		ldr	r3, .L92+4
 841 0042 0393     		str	r3, [sp, #12]
 842              	.L64:
 843              	.LVL110:
 844              	.LBB111:
 339:..\..\..\liblc3\src/spec.c **** 
 340:..\..\..\liblc3\src/spec.c ****     for (int i = 0, h = 0; h < 2; h++) {
 845              		.loc 1 340 0 is_stmt 1 discriminator 4
 846 0044 0023     		movs	r3, #0
 847 0046 0493     		str	r3, [sp, #16]
 848 0048 0026     		movs	r6, #0
 849              	.LBE111:
 336:..\..\..\liblc3\src/spec.c **** 
 850              		.loc 1 336 0 discriminator 4
 851 004a 0C93     		str	r3, [sp, #48]
ARM GAS  C:\Users\rdn\AppData\Local\Temp\cciiQw7C.s 			page 23


 335:..\..\..\liblc3\src/spec.c ****     int n_end = 0;
 852              		.loc 1 335 0 discriminator 4
 853 004c 0B93     		str	r3, [sp, #44]
 333:..\..\..\liblc3\src/spec.c **** 
 854              		.loc 1 333 0 discriminator 4
 855 004e 1900     		movs	r1, r3
 332:..\..\..\liblc3\src/spec.c ****     uint8_t state = 0;
 856              		.loc 1 332 0 discriminator 4
 857 0050 0A93     		str	r3, [sp, #40]
 858 0052 9946     		mov	r9, r3
 859 0054 4346     		mov	r3, r8
 860 0056 0893     		str	r3, [sp, #32]
 861              	.LBB114:
 862              		.loc 1 340 0 discriminator 4
 863 0058 C5E0     		b	.L65
 864              	.LVL111:
 865              	.L81:
 866              	.LBB112:
 341:..\..\..\liblc3\src/spec.c ****         const uint8_t (*lut_coeff)[4] = lc3_spectrum_lookup[high_rate][h];
 867              		.loc 1 341 0
 868 005a 0D9B     		ldr	r3, [sp, #52]
 869              	.LVL112:
 870 005c 5B00     		lsls	r3, r3, #1
 871 005e 049A     		ldr	r2, [sp, #16]
 872 0060 9446     		mov	ip, r2
 873 0062 6344     		add	r3, r3, ip
 874 0064 9B02     		lsls	r3, r3, #10
 875 0066 7E4A     		ldr	r2, .L92+8
 876 0068 9B18     		adds	r3, r3, r2
 877 006a 0693     		str	r3, [sp, #24]
 878              	.LVL113:
 879 006c 8A46     		mov	r10, r1
 342:..\..\..\liblc3\src/spec.c **** 
 343:..\..\..\liblc3\src/spec.c ****         for ( ; i < LC3_MIN(*n, (ne + 2) >> (1 - h))
 880              		.loc 1 343 0
 881 006e A5E0     		b	.L66
 882              	.LVL114:
 883              	.L80:
 884              	.LBB113:
 344:..\..\..\liblc3\src/spec.c ****                 && nbits <= nbits_budget; i += 2) {
 345:..\..\..\liblc3\src/spec.c **** 
 346:..\..\..\liblc3\src/spec.c ****             float xq_off = lc3_hr(sr) ? 0.5f : 6.f/16;
 885              		.loc 1 346 0
 886 0070 079B     		ldr	r3, [sp, #28]
 887 0072 042B     		cmp	r3, #4
 888 0074 02D9     		bls	.L86
 889 0076 FC25     		movs	r5, #252
 890 0078 AD05     		lsls	r5, r5, #22
 891 007a 01E0     		b	.L67
 892              	.L86:
 893 007c FB25     		movs	r5, #251
 894 007e AD05     		lsls	r5, r5, #22
 895              	.L67:
 896              	.LVL115:
 347:..\..\..\liblc3\src/spec.c ****             uint32_t a = fabsf(x[i+0]) + xq_off;
 897              		.loc 1 347 0 discriminator 4
 898 0080 B300     		lsls	r3, r6, #2
ARM GAS  C:\Users\rdn\AppData\Local\Temp\cciiQw7C.s 			page 24


 899 0082 089F     		ldr	r7, [sp, #32]
 900 0084 F958     		ldr	r1, [r7, r3]
 901 0086 4900     		lsls	r1, r1, #1
 902 0088 4908     		lsrs	r1, r1, #1
 903 008a 281C     		adds	r0, r5, #0
 904 008c FFF7FEFF 		bl	__aeabi_fadd
 905              	.LVL116:
 906 0090 FFF7FEFF 		bl	__aeabi_f2uiz
 907              	.LVL117:
 908 0094 0400     		movs	r4, r0
 909 0096 0190     		str	r0, [sp, #4]
 910              	.LVL118:
 348:..\..\..\liblc3\src/spec.c ****             uint32_t b = fabsf(x[i+1]) + xq_off;
 911              		.loc 1 348 0 discriminator 4
 912 0098 731C     		adds	r3, r6, #1
 913 009a 9B00     		lsls	r3, r3, #2
 914 009c F958     		ldr	r1, [r7, r3]
 915 009e 4900     		lsls	r1, r1, #1
 916 00a0 4908     		lsrs	r1, r1, #1
 917 00a2 281C     		adds	r0, r5, #0
 918              	.LVL119:
 919 00a4 FFF7FEFF 		bl	__aeabi_fadd
 920              	.LVL120:
 921 00a8 FFF7FEFF 		bl	__aeabi_f2uiz
 922              	.LVL121:
 349:..\..\..\liblc3\src/spec.c **** 
 350:..\..\..\liblc3\src/spec.c ****             const uint8_t *lut = lut_coeff[state];
 923              		.loc 1 350 0 discriminator 4
 924 00ac 5346     		mov	r3, r10
 925 00ae 9900     		lsls	r1, r3, #2
 926 00b0 069B     		ldr	r3, [sp, #24]
 927 00b2 9C46     		mov	ip, r3
 928 00b4 6144     		add	r1, r1, ip
 929              	.LVL122:
 351:..\..\..\liblc3\src/spec.c **** 
 352:..\..\..\liblc3\src/spec.c ****             /* --- Sign values --- */
 353:..\..\..\liblc3\src/spec.c **** 
 354:..\..\..\liblc3\src/spec.c ****             int s = (a != 0) + (b != 0);
 930              		.loc 1 354 0 discriminator 4
 931 00b6 2500     		movs	r5, r4
 932              	.LVL123:
 933 00b8 6B1E     		subs	r3, r5, #1
 934 00ba 9D41     		sbcs	r5, r5, r3
 935 00bc 0300     		movs	r3, r0
 936 00be 5A1E     		subs	r2, r3, #1
 937 00c0 9341     		sbcs	r3, r3, r2
 938 00c2 EB18     		adds	r3, r5, r3
 939 00c4 0293     		str	r3, [sp, #8]
 940              	.LVL124:
 355:..\..\..\liblc3\src/spec.c ****             nbits += s * 2048;
 941              		.loc 1 355 0 discriminator 4
 942 00c6 DA02     		lsls	r2, r3, #11
 943 00c8 4A44     		add	r2, r2, r9
 944              	.LVL125:
 356:..\..\..\liblc3\src/spec.c **** 
 357:..\..\..\liblc3\src/spec.c ****             /* --- LSB values Reduce to 2*2 bits MSB values ---
 358:..\..\..\liblc3\src/spec.c ****              * Reduce to 2x2 bits MSB values. The LSB's pair are arithmetic
ARM GAS  C:\Users\rdn\AppData\Local\Temp\cciiQw7C.s 			page 25


 359:..\..\..\liblc3\src/spec.c ****              * coded with an escape code followed by 1 bit for each values.
 360:..\..\..\liblc3\src/spec.c ****              * The LSB mode does not arthmetic code the first LSB,
 361:..\..\..\liblc3\src/spec.c ****              * add the sign of the LSB when one of pair was at value 1 */
 362:..\..\..\liblc3\src/spec.c **** 
 363:..\..\..\liblc3\src/spec.c ****             uint32_t m = (a | b) >> 2;
 945              		.loc 1 363 0 discriminator 4
 946 00ca 2300     		movs	r3, r4
 947              	.LVL126:
 948 00cc 0343     		orrs	r3, r0
 949 00ce 9B08     		lsrs	r3, r3, #2
 950              	.LVL127:
 364:..\..\..\liblc3\src/spec.c ****             unsigned k = 0;
 365:..\..\..\liblc3\src/spec.c **** 
 366:..\..\..\liblc3\src/spec.c ****             if (m) {
 951              		.loc 1 366 0 discriminator 4
 952 00d0 43D0     		beq	.L87
 367:..\..\..\liblc3\src/spec.c **** 
 368:..\..\..\liblc3\src/spec.c ****                 if (lsb_mode) {
 953              		.loc 1 368 0
 954 00d2 0EAD     		add	r5, sp, #56
 955 00d4 0735     		adds	r5, r5, #7
 956 00d6 2D78     		ldrb	r5, [r5]
 957 00d8 0995     		str	r5, [sp, #36]
 958 00da 002D     		cmp	r5, #0
 959 00dc 1CD0     		beq	.L88
 960              	.LVL128:
 369:..\..\..\liblc3\src/spec.c ****                     nbits += lc3_spectrum_bits[lut[k++]][16] - 2*2048;
 961              		.loc 1 369 0
 962 00de 0F78     		ldrb	r7, [r1]
 963 00e0 3D01     		lsls	r5, r7, #4
 964 00e2 A946     		mov	r9, r5
 965 00e4 4F44     		add	r7, r7, r9
 966 00e6 7F00     		lsls	r7, r7, #1
 967 00e8 5E4D     		ldr	r5, .L92+12
 968 00ea A846     		mov	r8, r5
 969 00ec 4744     		add	r7, r7, r8
 970 00ee 3F8C     		ldrh	r7, [r7, #32]
 971 00f0 5D4D     		ldr	r5, .L92+16
 972 00f2 AC46     		mov	ip, r5
 973 00f4 6744     		add	r7, r7, ip
 974 00f6 D219     		adds	r2, r2, r7
 975              	.LVL129:
 370:..\..\..\liblc3\src/spec.c ****                     nbits_lsb += 2 + (a == 1) + (b == 1);
 976              		.loc 1 370 0
 977 00f8 012C     		cmp	r4, #1
 978 00fa 01D1     		bne	.L89
 979 00fc 0234     		adds	r4, r4, #2
 980              	.LVL130:
 981 00fe 00E0     		b	.L70
 982              	.LVL131:
 983              	.L89:
 984 0100 0224     		movs	r4, #2
 985              	.LVL132:
 986              	.L70:
 987              		.loc 1 370 0 is_stmt 0 discriminator 4
 988 0102 471E     		subs	r7, r0, #1
 989 0104 7D42     		rsbs	r5, r7, #0
ARM GAS  C:\Users\rdn\AppData\Local\Temp\cciiQw7C.s 			page 26


 990 0106 7D41     		adcs	r5, r5, r7
 991 0108 6719     		adds	r7, r4, r5
 992 010a 0A9C     		ldr	r4, [sp, #40]
 993 010c A446     		mov	ip, r4
 994 010e BC44     		add	ip, ip, r7
 995 0110 6446     		mov	r4, ip
 996 0112 0A94     		str	r4, [sp, #40]
 997              	.LVL133:
 369:..\..\..\liblc3\src/spec.c ****                     nbits += lc3_spectrum_bits[lut[k++]][16] - 2*2048;
 998              		.loc 1 369 0 is_stmt 1 discriminator 4
 999 0114 0127     		movs	r7, #1
 1000 0116 00E0     		b	.L69
 1001              	.LVL134:
 1002              	.L88:
 364:..\..\..\liblc3\src/spec.c **** 
 1003              		.loc 1 364 0
 1004 0118 0027     		movs	r7, #0
 1005              	.LVL135:
 1006              	.L69:
 371:..\..\..\liblc3\src/spec.c ****                 }
 372:..\..\..\liblc3\src/spec.c **** 
 373:..\..\..\liblc3\src/spec.c ****                 for (m >>= lsb_mode; m; m >>= 1, k++)
 1007              		.loc 1 373 0
 1008 011a 099C     		ldr	r4, [sp, #36]
 1009 011c E340     		lsrs	r3, r3, r4
 1010              	.LVL136:
 1011 011e 1D00     		movs	r5, r3
 1012              	.LVL137:
 1013 0120 0DE0     		b	.L71
 1014              	.LVL138:
 1015              	.L73:
 374:..\..\..\liblc3\src/spec.c ****                     nbits += lc3_spectrum_bits[lut[LC3_MIN(k, 3)]][16];
 1016              		.loc 1 374 0 discriminator 3
 1017 0122 3B00     		movs	r3, r7
 1018 0124 032F     		cmp	r7, #3
 1019 0126 00D9     		bls	.L72
 1020              	.LVL139:
 1021 0128 0323     		movs	r3, #3
 1022              	.LVL140:
 1023              	.L72:
 1024 012a CB5C     		ldrb	r3, [r1, r3]
 1025 012c 1C01     		lsls	r4, r3, #4
 1026 012e E318     		adds	r3, r4, r3
 1027 0130 5C00     		lsls	r4, r3, #1
 1028 0132 4C4B     		ldr	r3, .L92+12
 1029 0134 1C19     		adds	r4, r3, r4
 1030 0136 238C     		ldrh	r3, [r4, #32]
 1031 0138 D218     		adds	r2, r2, r3
 1032              	.LVL141:
 373:..\..\..\liblc3\src/spec.c ****                     nbits += lc3_spectrum_bits[lut[LC3_MIN(k, 3)]][16];
 1033              		.loc 1 373 0 discriminator 3
 1034 013a 6D08     		lsrs	r5, r5, #1
 1035              	.LVL142:
 1036 013c 0137     		adds	r7, r7, #1
 1037              	.LVL143:
 1038              	.L71:
 373:..\..\..\liblc3\src/spec.c ****                     nbits += lc3_spectrum_bits[lut[LC3_MIN(k, 3)]][16];
ARM GAS  C:\Users\rdn\AppData\Local\Temp\cciiQw7C.s 			page 27


 1039              		.loc 1 373 0 is_stmt 0 discriminator 1
 1040 013e 002D     		cmp	r5, #0
 1041 0140 EFD1     		bne	.L73
 375:..\..\..\liblc3\src/spec.c **** 
 376:..\..\..\liblc3\src/spec.c ****                 nbits += k * 2*2048;
 1042              		.loc 1 376 0 is_stmt 1
 1043 0142 3B03     		lsls	r3, r7, #12
 1044 0144 D218     		adds	r2, r2, r3
 1045              	.LVL144:
 377:..\..\..\liblc3\src/spec.c ****                 a >>= k;
 1046              		.loc 1 377 0
 1047 0146 019B     		ldr	r3, [sp, #4]
 1048 0148 FB40     		lsrs	r3, r3, r7
 1049 014a 0193     		str	r3, [sp, #4]
 1050              	.LVL145:
 378:..\..\..\liblc3\src/spec.c ****                 b >>= k;
 1051              		.loc 1 378 0
 1052 014c F840     		lsrs	r0, r0, r7
 1053              	.LVL146:
 379:..\..\..\liblc3\src/spec.c **** 
 380:..\..\..\liblc3\src/spec.c ****                 k = LC3_MIN(k, 3);
 1054              		.loc 1 380 0
 1055 014e B846     		mov	r8, r7
 1056 0150 032F     		cmp	r7, #3
 1057 0152 04D9     		bls	.L68
 1058 0154 0323     		movs	r3, #3
 1059              	.LVL147:
 1060 0156 9846     		mov	r8, r3
 1061              	.LVL148:
 1062 0158 01E0     		b	.L68
 1063              	.LVL149:
 1064              	.L87:
 364:..\..\..\liblc3\src/spec.c **** 
 1065              		.loc 1 364 0
 1066 015a 0023     		movs	r3, #0
 1067              	.LVL150:
 1068 015c 9846     		mov	r8, r3
 1069              	.LVL151:
 1070              	.L68:
 381:..\..\..\liblc3\src/spec.c ****             }
 382:..\..\..\liblc3\src/spec.c **** 
 383:..\..\..\liblc3\src/spec.c ****             /* --- MSB values --- */
 384:..\..\..\liblc3\src/spec.c **** 
 385:..\..\..\liblc3\src/spec.c ****             nbits += lc3_spectrum_bits[lut[k]][a + 4*b];
 1071              		.loc 1 385 0
 1072 015e 4346     		mov	r3, r8
 1073 0160 C95C     		ldrb	r1, [r1, r3]
 1074              	.LVL152:
 1075 0162 8300     		lsls	r3, r0, #2
 1076 0164 019C     		ldr	r4, [sp, #4]
 1077 0166 A446     		mov	ip, r4
 1078 0168 6344     		add	r3, r3, ip
 1079 016a 0C01     		lsls	r4, r1, #4
 1080 016c A446     		mov	ip, r4
 1081 016e 6144     		add	r1, r1, ip
 1082 0170 CB18     		adds	r3, r1, r3
 1083 0172 5B00     		lsls	r3, r3, #1
ARM GAS  C:\Users\rdn\AppData\Local\Temp\cciiQw7C.s 			page 28


 1084 0174 3B49     		ldr	r1, .L92+12
 1085 0176 5B5A     		ldrh	r3, [r3, r1]
 1086 0178 9946     		mov	r9, r3
 1087 017a 9144     		add	r9, r9, r2
 1088              	.LVL153:
 386:..\..\..\liblc3\src/spec.c **** 
 387:..\..\..\liblc3\src/spec.c ****             /* --- Update state --- */
 388:..\..\..\liblc3\src/spec.c **** 
 389:..\..\..\liblc3\src/spec.c ****             if (s && nbits <= nbits_budget) {
 1089              		.loc 1 389 0
 1090 017c 029B     		ldr	r3, [sp, #8]
 1091 017e 002B     		cmp	r3, #0
 1092 0180 06D0     		beq	.L75
 1093              		.loc 1 389 0 is_stmt 0 discriminator 1
 1094 0182 039B     		ldr	r3, [sp, #12]
 1095 0184 4B45     		cmp	r3, r9
 1096 0186 03DB     		blt	.L75
 390:..\..\..\liblc3\src/spec.c ****                 n_end = i + 2;
 1097              		.loc 1 390 0 is_stmt 1
 1098 0188 B31C     		adds	r3, r6, #2
 1099 018a 0C93     		str	r3, [sp, #48]
 1100              	.LVL154:
 391:..\..\..\liblc3\src/spec.c ****                 nbits_end = nbits;
 1101              		.loc 1 391 0
 1102 018c 4B46     		mov	r3, r9
 1103              	.LVL155:
 1104 018e 0B93     		str	r3, [sp, #44]
 1105              	.LVL156:
 1106              	.L75:
 392:..\..\..\liblc3\src/spec.c ****             }
 393:..\..\..\liblc3\src/spec.c **** 
 394:..\..\..\liblc3\src/spec.c ****             state = (state << 4) + (k > 1 ? 12 + k : 1 + (a + b) * (k + 1));
 1107              		.loc 1 394 0
 1108 0190 5346     		mov	r3, r10
 1109 0192 1A01     		lsls	r2, r3, #4
 1110 0194 D2B2     		uxtb	r2, r2
 1111 0196 4346     		mov	r3, r8
 1112 0198 012B     		cmp	r3, #1
 1113 019a 03D9     		bls	.L76
 1114              	.LVL157:
 1115              		.loc 1 394 0 is_stmt 0 discriminator 1
 1116 019c 4046     		mov	r0, r8
 1117              	.LVL158:
 1118 019e 0C30     		adds	r0, r0, #12
 1119 01a0 C3B2     		uxtb	r3, r0
 1120              	.LVL159:
 1121 01a2 07E0     		b	.L77
 1122              	.LVL160:
 1123              	.L76:
 1124              		.loc 1 394 0 discriminator 2
 1125 01a4 019B     		ldr	r3, [sp, #4]
 1126              	.LVL161:
 1127 01a6 9C46     		mov	ip, r3
 1128 01a8 6044     		add	r0, r0, ip
 1129              	.LVL162:
 1130 01aa 4346     		mov	r3, r8
 1131 01ac 0133     		adds	r3, r3, #1
ARM GAS  C:\Users\rdn\AppData\Local\Temp\cciiQw7C.s 			page 29


 1132 01ae 5843     		muls	r0, r3
 1133 01b0 0130     		adds	r0, r0, #1
 1134 01b2 C3B2     		uxtb	r3, r0
 1135              	.L77:
 1136              		.loc 1 394 0 discriminator 4
 1137 01b4 9B18     		adds	r3, r3, r2
 1138 01b6 DBB2     		uxtb	r3, r3
 1139 01b8 9A46     		mov	r10, r3
 1140              	.LVL163:
 1141              	.LBE113:
 344:..\..\..\liblc3\src/spec.c **** 
 1142              		.loc 1 344 0 is_stmt 1 discriminator 4
 1143 01ba 0236     		adds	r6, r6, #2
 1144              	.LVL164:
 1145              	.L66:
 343:..\..\..\liblc3\src/spec.c ****                 && nbits <= nbits_budget; i += 2) {
 1146              		.loc 1 343 0
 1147 01bc 059B     		ldr	r3, [sp, #20]
 1148 01be 0233     		adds	r3, r3, #2
 1149 01c0 0122     		movs	r2, #1
 1150 01c2 0499     		ldr	r1, [sp, #16]
 1151 01c4 521A     		subs	r2, r2, r1
 1152 01c6 5946     		mov	r1, fp
 1153 01c8 0968     		ldr	r1, [r1]
 1154 01ca 1341     		asrs	r3, r3, r2
 1155 01cc 8B42     		cmp	r3, r1
 1156 01ce 00DD     		ble	.L78
 1157 01d0 0B00     		movs	r3, r1
 1158              	.L78:
 1159 01d2 9E42     		cmp	r6, r3
 1160 01d4 03DA     		bge	.L79
 344:..\..\..\liblc3\src/spec.c **** 
 1161              		.loc 1 344 0
 1162 01d6 039B     		ldr	r3, [sp, #12]
 1163 01d8 9945     		cmp	r9, r3
 1164 01da 00DC     		bgt	.LCB1322
 1165 01dc 48E7     		b	.L80	@long jump
 1166              	.LCB1322:
 1167              	.L79:
 1168 01de 5146     		mov	r1, r10
 1169              	.LBE112:
 340:..\..\..\liblc3\src/spec.c ****         const uint8_t (*lut_coeff)[4] = lc3_spectrum_lookup[high_rate][h];
 1170              		.loc 1 340 0 discriminator 2
 1171 01e0 049B     		ldr	r3, [sp, #16]
 1172 01e2 0133     		adds	r3, r3, #1
 1173 01e4 0493     		str	r3, [sp, #16]
 1174              	.LVL165:
 1175              	.L65:
 340:..\..\..\liblc3\src/spec.c ****         const uint8_t (*lut_coeff)[4] = lc3_spectrum_lookup[high_rate][h];
 1176              		.loc 1 340 0 is_stmt 0 discriminator 1
 1177 01e6 049B     		ldr	r3, [sp, #16]
 1178 01e8 012B     		cmp	r3, #1
 1179 01ea 00DC     		bgt	.LCB1350
 1180 01ec 35E7     		b	.L81	@long jump
 1181              	.LCB1350:
 1182              	.LBE114:
 395:..\..\..\liblc3\src/spec.c ****         }
ARM GAS  C:\Users\rdn\AppData\Local\Temp\cciiQw7C.s 			page 30


 396:..\..\..\liblc3\src/spec.c ****     }
 397:..\..\..\liblc3\src/spec.c **** 
 398:..\..\..\liblc3\src/spec.c ****     /* --- Return --- */
 399:..\..\..\liblc3\src/spec.c **** 
 400:..\..\..\liblc3\src/spec.c ****     *n = n_end;
 1183              		.loc 1 400 0 is_stmt 1
 1184 01ee 5B46     		mov	r3, fp
 1185 01f0 0C9A     		ldr	r2, [sp, #48]
 1186 01f2 1A60     		str	r2, [r3]
 401:..\..\..\liblc3\src/spec.c **** 
 402:..\..\..\liblc3\src/spec.c ****     if (p_lsb_mode)
 1187              		.loc 1 402 0
 1188 01f4 1C9B     		ldr	r3, [sp, #112]
 1189 01f6 002B     		cmp	r3, #0
 1190 01f8 13D0     		beq	.L82
 403:..\..\..\liblc3\src/spec.c ****         *p_lsb_mode = lsb_mode &&
 1191              		.loc 1 403 0
 1192 01fa 0EAB     		add	r3, sp, #56
 1193 01fc 0733     		adds	r3, r3, #7
 1194 01fe 1B78     		ldrb	r3, [r3]
 1195 0200 002B     		cmp	r3, #0
 1196 0202 09D0     		beq	.L90
 404:..\..\..\liblc3\src/spec.c ****             nbits_end + nbits_lsb * 2048 > nbits_budget;
 1197              		.loc 1 404 0 discriminator 1
 1198 0204 0A9B     		ldr	r3, [sp, #40]
 1199 0206 DB02     		lsls	r3, r3, #11
 1200 0208 0B9A     		ldr	r2, [sp, #44]
 1201 020a 9446     		mov	ip, r2
 1202 020c 6344     		add	r3, r3, ip
 403:..\..\..\liblc3\src/spec.c ****         *p_lsb_mode = lsb_mode &&
 1203              		.loc 1 403 0 discriminator 1
 1204 020e 039A     		ldr	r2, [sp, #12]
 1205 0210 9A42     		cmp	r2, r3
 1206 0212 03DB     		blt	.L91
 403:..\..\..\liblc3\src/spec.c ****         *p_lsb_mode = lsb_mode &&
 1207              		.loc 1 403 0 is_stmt 0
 1208 0214 0023     		movs	r3, #0
 1209 0216 02E0     		b	.L83
 1210              	.LVL166:
 1211              	.L90:
 1212 0218 0023     		movs	r3, #0
 1213 021a 00E0     		b	.L83
 1214              	.LVL167:
 1215              	.L91:
 1216 021c 0123     		movs	r3, #1
 1217              	.LVL168:
 1218              	.L83:
 403:..\..\..\liblc3\src/spec.c ****         *p_lsb_mode = lsb_mode &&
 1219              		.loc 1 403 0 discriminator 6
 1220 021e 1C9A     		ldr	r2, [sp, #112]
 1221 0220 1370     		strb	r3, [r2]
 1222              	.L82:
 405:..\..\..\liblc3\src/spec.c **** 
 406:..\..\..\liblc3\src/spec.c ****     if (nbits_budget >= INT_MAX)
 1223              		.loc 1 406 0 is_stmt 1
 1224 0222 0E4B     		ldr	r3, .L92+4
 1225 0224 039A     		ldr	r2, [sp, #12]
ARM GAS  C:\Users\rdn\AppData\Local\Temp\cciiQw7C.s 			page 31


 1226 0226 9A42     		cmp	r2, r3
 1227 0228 06D1     		bne	.L84
 407:..\..\..\liblc3\src/spec.c ****         nbits_end += nbits_lsb * 2048;
 1228              		.loc 1 407 0
 1229 022a 0A9B     		ldr	r3, [sp, #40]
 1230 022c DB02     		lsls	r3, r3, #11
 1231 022e 0B9A     		ldr	r2, [sp, #44]
 1232 0230 9446     		mov	ip, r2
 1233 0232 9C44     		add	ip, ip, r3
 1234 0234 6346     		mov	r3, ip
 1235 0236 0B93     		str	r3, [sp, #44]
 1236              	.LVL169:
 1237              	.L84:
 408:..\..\..\liblc3\src/spec.c **** 
 409:..\..\..\liblc3\src/spec.c ****     return (nbits_end + 2047) / 2048;
 1238              		.loc 1 409 0
 1239 0238 0B9B     		ldr	r3, [sp, #44]
 1240 023a 0C4A     		ldr	r2, .L92+20
 1241 023c 9446     		mov	ip, r2
 1242 023e 6344     		add	r3, r3, ip
 1243 0240 D817     		asrs	r0, r3, #31
 1244 0242 4005     		lsls	r0, r0, #21
 1245 0244 400D     		lsrs	r0, r0, #21
 1246 0246 C018     		adds	r0, r0, r3
 1247 0248 C012     		asrs	r0, r0, #11
 410:..\..\..\liblc3\src/spec.c **** }
 1248              		.loc 1 410 0
 1249 024a 11B0     		add	sp, sp, #68
 1250              		@ sp needed
 1251              	.LVL170:
 1252              	.LVL171:
 1253 024c 3CBC     		pop	{r2, r3, r4, r5}
 1254 024e 9046     		mov	r8, r2
 1255 0250 9946     		mov	r9, r3
 1256 0252 A246     		mov	r10, r4
 1257 0254 AB46     		mov	fp, r5
 1258 0256 F0BD     		pop	{r4, r5, r6, r7, pc}
 1259              	.L93:
 1260              		.align	2
 1261              	.L92:
 1262 0258 00000000 		.word	lc3_ne_2m5
 1263 025c FFFFFF7F 		.word	2147483647
 1264 0260 00000000 		.word	lc3_spectrum_lookup
 1265 0264 00000000 		.word	lc3_spectrum_bits
 1266 0268 00F0FFFF 		.word	-4096
 1267 026c FF070000 		.word	2047
 1268              		.cfi_endproc
 1269              	.LFE27:
 1270              		.size	compute_nbits, .-compute_nbits
 1271              		.global	__aeabi_fcmpgt
 1272              		.global	__aeabi_i2f
 1273              		.global	__aeabi_fdiv
 1274              		.global	__aeabi_f2iz
 1275              		.section	.text.estimate_noise,"ax",%progbits
 1276              		.align	2
 1277              		.code	16
 1278              		.thumb_func
ARM GAS  C:\Users\rdn\AppData\Local\Temp\cciiQw7C.s 			page 32


 1279              		.type	estimate_noise, %function
 1280              	estimate_noise:
 1281              	.LFB34:
 411:..\..\..\liblc3\src/spec.c **** 
 412:..\..\..\liblc3\src/spec.c **** /**
 413:..\..\..\liblc3\src/spec.c ****  * Put quantized spectrum
 414:..\..\..\liblc3\src/spec.c ****  * bits            Bitstream context
 415:..\..\..\liblc3\src/spec.c ****  * dt, sr, nbytes  Duration, samplerate and size of the frame
 416:..\..\..\liblc3\src/spec.c ****  * x               Spectral quantized coefficients
 417:..\..\..\liblc3\src/spec.c ****  * nq, lsb_mode    Count of significants, and LSB discard indication
 418:..\..\..\liblc3\src/spec.c ****  */
 419:..\..\..\liblc3\src/spec.c **** LC3_HOT static void put_quantized(lc3_bits_t *bits,
 420:..\..\..\liblc3\src/spec.c ****     enum lc3_dt dt, enum lc3_srate sr, int nbytes,
 421:..\..\..\liblc3\src/spec.c ****     const float *x, int nq, bool lsb_mode)
 422:..\..\..\liblc3\src/spec.c **** {
 423:..\..\..\liblc3\src/spec.c ****     bool high_rate = resolve_modes(sr, nbytes, NULL);
 424:..\..\..\liblc3\src/spec.c ****     int ne = lc3_ne(dt, sr);
 425:..\..\..\liblc3\src/spec.c **** 
 426:..\..\..\liblc3\src/spec.c ****     /* --- Loop on quantized coefficients --- */
 427:..\..\..\liblc3\src/spec.c **** 
 428:..\..\..\liblc3\src/spec.c ****     uint8_t state = 0;
 429:..\..\..\liblc3\src/spec.c **** 
 430:..\..\..\liblc3\src/spec.c ****     for (int i = 0, h = 0; h < 2; h++) {
 431:..\..\..\liblc3\src/spec.c ****         const uint8_t (*lut_coeff)[4] = lc3_spectrum_lookup[high_rate][h];
 432:..\..\..\liblc3\src/spec.c **** 
 433:..\..\..\liblc3\src/spec.c ****         for ( ; i < LC3_MIN(nq, (ne + 2) >> (1 - h)); i += 2) {
 434:..\..\..\liblc3\src/spec.c **** 
 435:..\..\..\liblc3\src/spec.c ****             float xq_off = lc3_hr(sr) ? 0.5f : 6.f/16;
 436:..\..\..\liblc3\src/spec.c ****             uint32_t a = fabsf(x[i+0]) + xq_off;
 437:..\..\..\liblc3\src/spec.c ****             uint32_t b = fabsf(x[i+1]) + xq_off;
 438:..\..\..\liblc3\src/spec.c **** 
 439:..\..\..\liblc3\src/spec.c ****             const uint8_t *lut = lut_coeff[state];
 440:..\..\..\liblc3\src/spec.c **** 
 441:..\..\..\liblc3\src/spec.c ****             /* --- LSB values Reduce to 2*2 bits MSB values ---
 442:..\..\..\liblc3\src/spec.c ****              * Reduce to 2x2 bits MSB values. The LSB's pair are arithmetic
 443:..\..\..\liblc3\src/spec.c ****              * coded with an escape code and 1 bits for each values.
 444:..\..\..\liblc3\src/spec.c ****              * The LSB mode discard the first LSB (at this step) */
 445:..\..\..\liblc3\src/spec.c **** 
 446:..\..\..\liblc3\src/spec.c ****             uint32_t m = (a | b) >> 2;
 447:..\..\..\liblc3\src/spec.c ****             unsigned k = 0, shr = 0;
 448:..\..\..\liblc3\src/spec.c **** 
 449:..\..\..\liblc3\src/spec.c ****             if (m) {
 450:..\..\..\liblc3\src/spec.c **** 
 451:..\..\..\liblc3\src/spec.c ****                 if (lsb_mode)
 452:..\..\..\liblc3\src/spec.c ****                     lc3_put_symbol(bits,
 453:..\..\..\liblc3\src/spec.c ****                         lc3_spectrum_models + lut[k++], 16);
 454:..\..\..\liblc3\src/spec.c **** 
 455:..\..\..\liblc3\src/spec.c ****                 for (m >>= lsb_mode; m; m >>= 1, k++) {
 456:..\..\..\liblc3\src/spec.c ****                     lc3_put_bit(bits, (a >> k) & 1);
 457:..\..\..\liblc3\src/spec.c ****                     lc3_put_bit(bits, (b >> k) & 1);
 458:..\..\..\liblc3\src/spec.c ****                     lc3_put_symbol(bits,
 459:..\..\..\liblc3\src/spec.c ****                         lc3_spectrum_models + lut[LC3_MIN(k, 3)], 16);
 460:..\..\..\liblc3\src/spec.c ****                 }
 461:..\..\..\liblc3\src/spec.c **** 
 462:..\..\..\liblc3\src/spec.c ****                 a >>= lsb_mode;
 463:..\..\..\liblc3\src/spec.c ****                 b >>= lsb_mode;
 464:..\..\..\liblc3\src/spec.c **** 
ARM GAS  C:\Users\rdn\AppData\Local\Temp\cciiQw7C.s 			page 33


 465:..\..\..\liblc3\src/spec.c ****                 shr = k - lsb_mode;
 466:..\..\..\liblc3\src/spec.c ****                 k = LC3_MIN(k, 3);
 467:..\..\..\liblc3\src/spec.c ****             }
 468:..\..\..\liblc3\src/spec.c **** 
 469:..\..\..\liblc3\src/spec.c ****             /* --- Sign values --- */
 470:..\..\..\liblc3\src/spec.c **** 
 471:..\..\..\liblc3\src/spec.c ****             if (a) lc3_put_bit(bits, x[i+0] < 0);
 472:..\..\..\liblc3\src/spec.c ****             if (b) lc3_put_bit(bits, x[i+1] < 0);
 473:..\..\..\liblc3\src/spec.c **** 
 474:..\..\..\liblc3\src/spec.c ****             /* --- MSB values --- */
 475:..\..\..\liblc3\src/spec.c **** 
 476:..\..\..\liblc3\src/spec.c ****             a >>= shr;
 477:..\..\..\liblc3\src/spec.c ****             b >>= shr;
 478:..\..\..\liblc3\src/spec.c **** 
 479:..\..\..\liblc3\src/spec.c ****             lc3_put_symbol(bits, lc3_spectrum_models + lut[k], a + 4*b);
 480:..\..\..\liblc3\src/spec.c **** 
 481:..\..\..\liblc3\src/spec.c ****             /* --- Update state --- */
 482:..\..\..\liblc3\src/spec.c **** 
 483:..\..\..\liblc3\src/spec.c ****             state = (state << 4) + (k > 1 ? 12 + k : 1 + (a + b) * (k + 1));
 484:..\..\..\liblc3\src/spec.c ****         }
 485:..\..\..\liblc3\src/spec.c ****     }
 486:..\..\..\liblc3\src/spec.c **** }
 487:..\..\..\liblc3\src/spec.c **** 
 488:..\..\..\liblc3\src/spec.c **** /**
 489:..\..\..\liblc3\src/spec.c ****  * Get quantized spectrum
 490:..\..\..\liblc3\src/spec.c ****  * bits            Bitstream context
 491:..\..\..\liblc3\src/spec.c ****  * dt, sr, nbytes  Duration, samplerate and size of the frame
 492:..\..\..\liblc3\src/spec.c ****  * nq, lsb_mode    Count of significants, and LSB discard indication
 493:..\..\..\liblc3\src/spec.c ****  * x               Return `nq` spectral quantized coefficients
 494:..\..\..\liblc3\src/spec.c ****  * nf_seed         Return the noise factor seed associated
 495:..\..\..\liblc3\src/spec.c ****  * return          0: Ok  -1: Invalid bitstream data
 496:..\..\..\liblc3\src/spec.c ****  */
 497:..\..\..\liblc3\src/spec.c **** LC3_HOT static int get_quantized(lc3_bits_t *bits,
 498:..\..\..\liblc3\src/spec.c ****     enum lc3_dt dt, enum lc3_srate sr, int nbytes,
 499:..\..\..\liblc3\src/spec.c ****     int nq, bool lsb_mode, float *x, uint16_t *nf_seed)
 500:..\..\..\liblc3\src/spec.c **** {
 501:..\..\..\liblc3\src/spec.c ****     bool high_rate = resolve_modes(sr, nbytes, NULL);
 502:..\..\..\liblc3\src/spec.c ****     int ne = lc3_ne(dt, sr);
 503:..\..\..\liblc3\src/spec.c **** 
 504:..\..\..\liblc3\src/spec.c ****     *nf_seed = 0;
 505:..\..\..\liblc3\src/spec.c **** 
 506:..\..\..\liblc3\src/spec.c ****     /* --- Loop on quantized coefficients --- */
 507:..\..\..\liblc3\src/spec.c **** 
 508:..\..\..\liblc3\src/spec.c ****     uint8_t state = 0;
 509:..\..\..\liblc3\src/spec.c **** 
 510:..\..\..\liblc3\src/spec.c ****     for (int i = 0, h = 0; h < 2; h++) {
 511:..\..\..\liblc3\src/spec.c ****         const uint8_t (*lut_coeff)[4] = lc3_spectrum_lookup[high_rate][h];
 512:..\..\..\liblc3\src/spec.c **** 
 513:..\..\..\liblc3\src/spec.c ****         for ( ; i < LC3_MIN(nq, (ne + 2) >> (1 - h)); i += 2) {
 514:..\..\..\liblc3\src/spec.c **** 
 515:..\..\..\liblc3\src/spec.c ****             const uint8_t *lut = lut_coeff[state];
 516:..\..\..\liblc3\src/spec.c ****             int max_shl = lc3_hr(sr) ? 22 : 14;
 517:..\..\..\liblc3\src/spec.c **** 
 518:..\..\..\liblc3\src/spec.c ****             /* --- LSB values ---
 519:..\..\..\liblc3\src/spec.c ****              * Until the symbol read indicates the escape value 16,
 520:..\..\..\liblc3\src/spec.c ****              * read an LSB bit for each values.
 521:..\..\..\liblc3\src/spec.c ****              * The LSB mode discard the first LSB (at this step) */
ARM GAS  C:\Users\rdn\AppData\Local\Temp\cciiQw7C.s 			page 34


 522:..\..\..\liblc3\src/spec.c **** 
 523:..\..\..\liblc3\src/spec.c ****             int u = 0, v = 0;
 524:..\..\..\liblc3\src/spec.c ****             int k = 0, shl = 0;
 525:..\..\..\liblc3\src/spec.c **** 
 526:..\..\..\liblc3\src/spec.c ****             unsigned s = lc3_get_symbol(bits, lc3_spectrum_models + lut[k]);
 527:..\..\..\liblc3\src/spec.c **** 
 528:..\..\..\liblc3\src/spec.c ****             if (lsb_mode && s >= 16) {
 529:..\..\..\liblc3\src/spec.c ****                 s = lc3_get_symbol(bits, lc3_spectrum_models + lut[++k]);
 530:..\..\..\liblc3\src/spec.c ****                 shl++;
 531:..\..\..\liblc3\src/spec.c ****             }
 532:..\..\..\liblc3\src/spec.c **** 
 533:..\..\..\liblc3\src/spec.c ****             for ( ; s >= 16 && shl < max_shl; shl++) {
 534:..\..\..\liblc3\src/spec.c ****                 u |= lc3_get_bit(bits) << shl;
 535:..\..\..\liblc3\src/spec.c ****                 v |= lc3_get_bit(bits) << shl;
 536:..\..\..\liblc3\src/spec.c **** 
 537:..\..\..\liblc3\src/spec.c ****                 k += (k < 3);
 538:..\..\..\liblc3\src/spec.c ****                 s  = lc3_get_symbol(bits, lc3_spectrum_models + lut[k]);
 539:..\..\..\liblc3\src/spec.c ****             }
 540:..\..\..\liblc3\src/spec.c **** 
 541:..\..\..\liblc3\src/spec.c ****             if (s >= 16)
 542:..\..\..\liblc3\src/spec.c ****                 return -1;
 543:..\..\..\liblc3\src/spec.c **** 
 544:..\..\..\liblc3\src/spec.c ****             /* --- MSB & sign values --- */
 545:..\..\..\liblc3\src/spec.c **** 
 546:..\..\..\liblc3\src/spec.c ****             int a = s % 4;
 547:..\..\..\liblc3\src/spec.c ****             int b = s / 4;
 548:..\..\..\liblc3\src/spec.c **** 
 549:..\..\..\liblc3\src/spec.c ****             u |= a << shl;
 550:..\..\..\liblc3\src/spec.c ****             v |= b << shl;
 551:..\..\..\liblc3\src/spec.c **** 
 552:..\..\..\liblc3\src/spec.c ****             x[i+0] = u && lc3_get_bit(bits) ? -u : u;
 553:..\..\..\liblc3\src/spec.c ****             x[i+1] = v && lc3_get_bit(bits) ? -v : v;
 554:..\..\..\liblc3\src/spec.c **** 
 555:..\..\..\liblc3\src/spec.c ****             *nf_seed = (*nf_seed + (u & 0x7fff) * (i  )
 556:..\..\..\liblc3\src/spec.c ****                                  + (v & 0x7fff) * (i+1)) & 0xffff;
 557:..\..\..\liblc3\src/spec.c **** 
 558:..\..\..\liblc3\src/spec.c ****             /* --- Update state --- */
 559:..\..\..\liblc3\src/spec.c **** 
 560:..\..\..\liblc3\src/spec.c ****             state = (state << 4) + (k > 1 ? 12 + k : 1 + (a + b) * (k + 1));
 561:..\..\..\liblc3\src/spec.c ****         }
 562:..\..\..\liblc3\src/spec.c ****     }
 563:..\..\..\liblc3\src/spec.c **** 
 564:..\..\..\liblc3\src/spec.c ****     return 0;
 565:..\..\..\liblc3\src/spec.c **** }
 566:..\..\..\liblc3\src/spec.c **** 
 567:..\..\..\liblc3\src/spec.c **** /**
 568:..\..\..\liblc3\src/spec.c ****  * Put residual bits of quantization
 569:..\..\..\liblc3\src/spec.c ****  * bits            Bitstream context
 570:..\..\..\liblc3\src/spec.c ****  * nbits           Maximum number of bits to output
 571:..\..\..\liblc3\src/spec.c ****  * hrmode          High-Resolution mode
 572:..\..\..\liblc3\src/spec.c ****  * x, n            Spectral quantized, and count of significants
 573:..\..\..\liblc3\src/spec.c ****  */
 574:..\..\..\liblc3\src/spec.c **** LC3_HOT static void put_residual(lc3_bits_t *bits,
 575:..\..\..\liblc3\src/spec.c ****     int nbits, bool hrmode, float *x, int n)
 576:..\..\..\liblc3\src/spec.c **** {
 577:..\..\..\liblc3\src/spec.c ****     float xq_lim = hrmode ? 0.5f : 10.f/16;
 578:..\..\..\liblc3\src/spec.c ****     float xq_off = xq_lim / 2;
ARM GAS  C:\Users\rdn\AppData\Local\Temp\cciiQw7C.s 			page 35


 579:..\..\..\liblc3\src/spec.c **** 
 580:..\..\..\liblc3\src/spec.c ****     for (int iter = 0; iter < (hrmode ? 20 : 1) && nbits > 0; iter++) {
 581:..\..\..\liblc3\src/spec.c ****         for (int i = 0; i < n && nbits > 0; i++) {
 582:..\..\..\liblc3\src/spec.c **** 
 583:..\..\..\liblc3\src/spec.c ****             float xr = fabsf(x[i]);
 584:..\..\..\liblc3\src/spec.c ****             if (xr < xq_lim)
 585:..\..\..\liblc3\src/spec.c ****                 continue;
 586:..\..\..\liblc3\src/spec.c **** 
 587:..\..\..\liblc3\src/spec.c ****             bool b = (xr - truncf(xr) < xq_lim) ^ (x[i] < 0);
 588:..\..\..\liblc3\src/spec.c ****             lc3_put_bit(bits, b);
 589:..\..\..\liblc3\src/spec.c ****             nbits--;
 590:..\..\..\liblc3\src/spec.c **** 
 591:..\..\..\liblc3\src/spec.c ****             x[i] += b ? -xq_off : xq_off;
 592:..\..\..\liblc3\src/spec.c ****         }
 593:..\..\..\liblc3\src/spec.c **** 
 594:..\..\..\liblc3\src/spec.c ****         xq_off *= xq_lim;
 595:..\..\..\liblc3\src/spec.c ****     }
 596:..\..\..\liblc3\src/spec.c **** }
 597:..\..\..\liblc3\src/spec.c **** 
 598:..\..\..\liblc3\src/spec.c **** /**
 599:..\..\..\liblc3\src/spec.c ****  * Get residual bits of quantization
 600:..\..\..\liblc3\src/spec.c ****  * bits            Bitstream context
 601:..\..\..\liblc3\src/spec.c ****  * nbits           Maximum number of bits to output
 602:..\..\..\liblc3\src/spec.c ****  * hrmode          High-Resolution mode
 603:..\..\..\liblc3\src/spec.c ****  * x, nq           Spectral quantized, and count of significants
 604:..\..\..\liblc3\src/spec.c ****  */
 605:..\..\..\liblc3\src/spec.c **** LC3_HOT static void get_residual(lc3_bits_t *bits,
 606:..\..\..\liblc3\src/spec.c ****     int nbits, bool hrmode, float *x, int n)
 607:..\..\..\liblc3\src/spec.c **** {
 608:..\..\..\liblc3\src/spec.c ****     float xq_off_1 = hrmode ? 0.25f : 5.f/16;
 609:..\..\..\liblc3\src/spec.c ****     float xq_off_2 = hrmode ? 0.25f : 3.f/16;
 610:..\..\..\liblc3\src/spec.c **** 
 611:..\..\..\liblc3\src/spec.c ****     for (int iter = 0; iter < (hrmode ? 20 : 1) && nbits > 0; iter++) {
 612:..\..\..\liblc3\src/spec.c ****         for (int i = 0; i < n && nbits > 0; i++) {
 613:..\..\..\liblc3\src/spec.c **** 
 614:..\..\..\liblc3\src/spec.c ****             if (x[i] == 0)
 615:..\..\..\liblc3\src/spec.c ****               continue;
 616:..\..\..\liblc3\src/spec.c **** 
 617:..\..\..\liblc3\src/spec.c ****             if (lc3_get_bit(bits) == 0)
 618:..\..\..\liblc3\src/spec.c ****                 x[i] -= x[i] < 0 ? xq_off_1 : xq_off_2;
 619:..\..\..\liblc3\src/spec.c ****             else
 620:..\..\..\liblc3\src/spec.c ****                 x[i] += x[i] > 0 ? xq_off_1 : xq_off_2;
 621:..\..\..\liblc3\src/spec.c **** 
 622:..\..\..\liblc3\src/spec.c ****             nbits--;
 623:..\..\..\liblc3\src/spec.c ****         }
 624:..\..\..\liblc3\src/spec.c **** 
 625:..\..\..\liblc3\src/spec.c ****         xq_off_1 *= 0.5f;
 626:..\..\..\liblc3\src/spec.c ****         xq_off_2 *= 0.5f;
 627:..\..\..\liblc3\src/spec.c ****     }
 628:..\..\..\liblc3\src/spec.c **** }
 629:..\..\..\liblc3\src/spec.c **** 
 630:..\..\..\liblc3\src/spec.c **** /**
 631:..\..\..\liblc3\src/spec.c ****  * Put LSB values of quantized spectrum values
 632:..\..\..\liblc3\src/spec.c ****  * bits            Bitstream context
 633:..\..\..\liblc3\src/spec.c ****  * nbits           Maximum number of bits to output
 634:..\..\..\liblc3\src/spec.c ****  * hrmode          High-Resolution mode
 635:..\..\..\liblc3\src/spec.c ****  * x, n            Spectral quantized, and count of significants
ARM GAS  C:\Users\rdn\AppData\Local\Temp\cciiQw7C.s 			page 36


 636:..\..\..\liblc3\src/spec.c ****  */
 637:..\..\..\liblc3\src/spec.c **** LC3_HOT static void put_lsb(lc3_bits_t *bits,
 638:..\..\..\liblc3\src/spec.c ****     int nbits, bool hrmode, const float *x, int n)
 639:..\..\..\liblc3\src/spec.c **** {
 640:..\..\..\liblc3\src/spec.c ****     for (int i = 0; i < n && nbits > 0; i += 2) {
 641:..\..\..\liblc3\src/spec.c **** 
 642:..\..\..\liblc3\src/spec.c ****         float xq_off = hrmode ? 0.5f : 6.f/16;
 643:..\..\..\liblc3\src/spec.c ****         uint32_t a = fabsf(x[i+0]) + xq_off;
 644:..\..\..\liblc3\src/spec.c ****         uint32_t b = fabsf(x[i+1]) + xq_off;
 645:..\..\..\liblc3\src/spec.c **** 
 646:..\..\..\liblc3\src/spec.c ****         if ((a | b) >> 2 == 0)
 647:..\..\..\liblc3\src/spec.c ****             continue;
 648:..\..\..\liblc3\src/spec.c **** 
 649:..\..\..\liblc3\src/spec.c ****         if (nbits-- > 0)
 650:..\..\..\liblc3\src/spec.c ****             lc3_put_bit(bits, a & 1);
 651:..\..\..\liblc3\src/spec.c **** 
 652:..\..\..\liblc3\src/spec.c ****         if (a == 1 && nbits-- > 0)
 653:..\..\..\liblc3\src/spec.c ****             lc3_put_bit(bits, x[i+0] < 0);
 654:..\..\..\liblc3\src/spec.c **** 
 655:..\..\..\liblc3\src/spec.c ****         if (nbits-- > 0)
 656:..\..\..\liblc3\src/spec.c ****             lc3_put_bit(bits, b & 1);
 657:..\..\..\liblc3\src/spec.c **** 
 658:..\..\..\liblc3\src/spec.c ****         if (b == 1 && nbits-- > 0)
 659:..\..\..\liblc3\src/spec.c ****             lc3_put_bit(bits, x[i+1] < 0);
 660:..\..\..\liblc3\src/spec.c ****     }
 661:..\..\..\liblc3\src/spec.c **** }
 662:..\..\..\liblc3\src/spec.c **** 
 663:..\..\..\liblc3\src/spec.c **** /**
 664:..\..\..\liblc3\src/spec.c ****  * Get LSB values of quantized spectrum values
 665:..\..\..\liblc3\src/spec.c ****  * bits            Bitstream context
 666:..\..\..\liblc3\src/spec.c ****  * nbits           Maximum number of bits to output
 667:..\..\..\liblc3\src/spec.c ****  * x, nq           Spectral quantized, and count of significants
 668:..\..\..\liblc3\src/spec.c ****  * nf_seed         Update the noise factor seed according
 669:..\..\..\liblc3\src/spec.c ****  */
 670:..\..\..\liblc3\src/spec.c **** LC3_HOT static void get_lsb(lc3_bits_t *bits,
 671:..\..\..\liblc3\src/spec.c ****     int nbits, float *x, int nq, uint16_t *nf_seed)
 672:..\..\..\liblc3\src/spec.c **** {
 673:..\..\..\liblc3\src/spec.c ****     for (int i = 0; i < nq && nbits > 0; i += 2) {
 674:..\..\..\liblc3\src/spec.c **** 
 675:..\..\..\liblc3\src/spec.c ****         float a = fabsf(x[i]), b = fabsf(x[i+1]);
 676:..\..\..\liblc3\src/spec.c **** 
 677:..\..\..\liblc3\src/spec.c ****         if (fmaxf(a, b) < 4)
 678:..\..\..\liblc3\src/spec.c ****             continue;
 679:..\..\..\liblc3\src/spec.c **** 
 680:..\..\..\liblc3\src/spec.c ****         if (nbits-- > 0 && lc3_get_bit(bits)) {
 681:..\..\..\liblc3\src/spec.c ****             if (a) {
 682:..\..\..\liblc3\src/spec.c ****                 x[i] += x[i] < 0 ? -1 : 1;
 683:..\..\..\liblc3\src/spec.c ****                 *nf_seed = (*nf_seed + i) & 0xffff;
 684:..\..\..\liblc3\src/spec.c ****             } else if (nbits-- > 0) {
 685:..\..\..\liblc3\src/spec.c ****                 x[i] = lc3_get_bit(bits) ? -1 : 1;
 686:..\..\..\liblc3\src/spec.c ****                 *nf_seed = (*nf_seed + i) & 0xffff;
 687:..\..\..\liblc3\src/spec.c ****             }
 688:..\..\..\liblc3\src/spec.c ****         }
 689:..\..\..\liblc3\src/spec.c **** 
 690:..\..\..\liblc3\src/spec.c ****         if (nbits-- > 0 && lc3_get_bit(bits)) {
 691:..\..\..\liblc3\src/spec.c ****             if (b) {
 692:..\..\..\liblc3\src/spec.c ****                 x[i+1] += x[i+1] < 0 ? -1 : 1;
ARM GAS  C:\Users\rdn\AppData\Local\Temp\cciiQw7C.s 			page 37


 693:..\..\..\liblc3\src/spec.c ****                 *nf_seed = (*nf_seed + i+1) & 0xffff;
 694:..\..\..\liblc3\src/spec.c ****             } else if (nbits-- > 0) {
 695:..\..\..\liblc3\src/spec.c ****                 x[i+1] = lc3_get_bit(bits) ? -1 : 1;
 696:..\..\..\liblc3\src/spec.c ****                 *nf_seed = (*nf_seed + i+1) & 0xffff;
 697:..\..\..\liblc3\src/spec.c ****             }
 698:..\..\..\liblc3\src/spec.c ****         }
 699:..\..\..\liblc3\src/spec.c ****     }
 700:..\..\..\liblc3\src/spec.c **** }
 701:..\..\..\liblc3\src/spec.c **** 
 702:..\..\..\liblc3\src/spec.c **** 
 703:..\..\..\liblc3\src/spec.c **** /* ----------------------------------------------------------------------------
 704:..\..\..\liblc3\src/spec.c ****  *  Noise coding
 705:..\..\..\liblc3\src/spec.c ****  * -------------------------------------------------------------------------- */
 706:..\..\..\liblc3\src/spec.c **** 
 707:..\..\..\liblc3\src/spec.c **** /**
 708:..\..\..\liblc3\src/spec.c ****  * Estimate noise level
 709:..\..\..\liblc3\src/spec.c ****  * dt, bw          Duration and bandwidth of the frame
 710:..\..\..\liblc3\src/spec.c ****  * hrmode          High-Resolution mode
 711:..\..\..\liblc3\src/spec.c ****  * x, n            Spectral quantized, and count of significants
 712:..\..\..\liblc3\src/spec.c ****  * return          Noise factor (0 to 7)
 713:..\..\..\liblc3\src/spec.c ****  */
 714:..\..\..\liblc3\src/spec.c **** LC3_HOT static int estimate_noise(
 715:..\..\..\liblc3\src/spec.c ****     enum lc3_dt dt, enum lc3_bandwidth bw, bool hrmode, const float *x, int n)
 716:..\..\..\liblc3\src/spec.c **** {
 1282              		.loc 1 716 0
 1283              		.cfi_startproc
 1284              		@ args = 4, pretend = 0, frame = 8
 1285              		@ frame_needed = 0, uses_anonymous_args = 0
 1286              	.LVL172:
 1287 0000 F0B5     		push	{r4, r5, r6, r7, lr}
 1288              		.cfi_def_cfa_offset 20
 1289              		.cfi_offset 4, -20
 1290              		.cfi_offset 5, -16
 1291              		.cfi_offset 6, -12
 1292              		.cfi_offset 7, -8
 1293              		.cfi_offset 14, -4
 1294 0002 5F46     		mov	r7, fp
 1295 0004 4E46     		mov	r6, r9
 1296 0006 C0B4     		push	{r6, r7}
 1297              		.cfi_def_cfa_offset 28
 1298              		.cfi_offset 9, -28
 1299              		.cfi_offset 11, -24
 1300 0008 83B0     		sub	sp, sp, #12
 1301              		.cfi_def_cfa_offset 40
 1302 000a 9B46     		mov	fp, r3
 717:..\..\..\liblc3\src/spec.c ****     int bw_stop = lc3_ne(dt, (enum lc3_srate)LC3_MIN(bw, LC3_BANDWIDTH_FB));
 1303              		.loc 1 717 0
 1304 000c 0B1C     		adds	r3, r1, #0
 1305              	.LVL173:
 1306 000e 0429     		cmp	r1, #4
 1307 0010 00D9     		bls	.L95
 1308 0012 0423     		movs	r3, #4
 1309              	.L95:
 1310 0014 DBB2     		uxtb	r3, r3
 1311              	.LVL174:
 1312              	.LBB115:
 1313              	.LBB116:
ARM GAS  C:\Users\rdn\AppData\Local\Temp\cciiQw7C.s 			page 38


 1314              		.loc 2 51 0
 1315 0016 9B00     		lsls	r3, r3, #2
 1316              	.LVL175:
 1317 0018 3D49     		ldr	r1, .L117
 1318              	.LVL176:
 1319 001a 5958     		ldr	r1, [r3, r1]
 1320 001c 431C     		adds	r3, r0, #1
 1321 001e 5943     		muls	r1, r3
 1322 0020 8946     		mov	r9, r1
 1323              	.LVL177:
 1324              	.LBE116:
 1325              	.LBE115:
 718:..\..\..\liblc3\src/spec.c ****     int w = 1 + (dt >= LC3_DT_7M5) + (dt>= LC3_DT_10M);
 1326              		.loc 1 718 0
 1327 0022 0128     		cmp	r0, #1
 1328 0024 01D9     		bls	.L110
 1329 0026 0224     		movs	r4, #2
 1330 0028 00E0     		b	.L96
 1331              	.L110:
 1332 002a 0124     		movs	r4, #1
 1333              	.L96:
 1334              		.loc 1 718 0 is_stmt 0 discriminator 4
 1335 002c 0221     		movs	r1, #2
 1336 002e 8142     		cmp	r1, r0
 1337 0030 8041     		sbcs	r0, r0, r0
 1338              	.LVL178:
 1339 0032 4042     		rsbs	r0, r0, #0
 1340 0034 2618     		adds	r6, r4, r0
 1341              	.LVL179:
 719:..\..\..\liblc3\src/spec.c **** 
 720:..\..\..\liblc3\src/spec.c ****     float xq_lim = hrmode ? 0.5f : 10.f/16;
 1342              		.loc 1 720 0 is_stmt 1 discriminator 4
 1343 0036 002A     		cmp	r2, #0
 1344 0038 03D0     		beq	.L111
 1345              		.loc 1 720 0 is_stmt 0
 1346 003a FC22     		movs	r2, #252
 1347              	.LVL180:
 1348 003c 9205     		lsls	r2, r2, #22
 1349 003e 0192     		str	r2, [sp, #4]
 1350 0040 01E0     		b	.L97
 1351              	.LVL181:
 1352              	.L111:
 1353 0042 344A     		ldr	r2, .L117+4
 1354              	.LVL182:
 1355 0044 0192     		str	r2, [sp, #4]
 1356              	.L97:
 1357              	.LVL183:
 721:..\..\..\liblc3\src/spec.c ****     float sum = 0;
 722:..\..\..\liblc3\src/spec.c ****     int i, ns = 0, z = 0;
 723:..\..\..\liblc3\src/spec.c **** 
 724:..\..\..\liblc3\src/spec.c ****     for (i = 6 * (1 + dt) - w; i < LC3_MIN(n, bw_stop); i++) {
 1358              		.loc 1 724 0 is_stmt 1 discriminator 4
 1359 0046 5A00     		lsls	r2, r3, #1
 1360 0048 D318     		adds	r3, r2, r3
 1361 004a 5C00     		lsls	r4, r3, #1
 1362 004c A41B     		subs	r4, r4, r6
 1363              	.LVL184:
ARM GAS  C:\Users\rdn\AppData\Local\Temp\cciiQw7C.s 			page 39


 722:..\..\..\liblc3\src/spec.c **** 
 1364              		.loc 1 722 0 discriminator 4
 1365 004e 0025     		movs	r5, #0
 1366 0050 0027     		movs	r7, #0
 721:..\..\..\liblc3\src/spec.c ****     float sum = 0;
 1367              		.loc 1 721 0 discriminator 4
 1368 0052 0023     		movs	r3, #0
 1369 0054 0093     		str	r3, [sp]
 1370              		.loc 1 724 0 discriminator 4
 1371 0056 1BE0     		b	.L98
 1372              	.LVL185:
 1373              	.L103:
 725:..\..\..\liblc3\src/spec.c ****         z = fabsf(x[i]) < xq_lim ? z + 1 : 0;
 1374              		.loc 1 725 0
 1375 0058 A300     		lsls	r3, r4, #2
 1376 005a 5A46     		mov	r2, fp
 1377 005c D158     		ldr	r1, [r2, r3]
 1378 005e 4900     		lsls	r1, r1, #1
 1379 0060 4908     		lsrs	r1, r1, #1
 1380 0062 0198     		ldr	r0, [sp, #4]
 1381 0064 FFF7FEFF 		bl	__aeabi_fcmpgt
 1382              	.LVL186:
 1383 0068 0028     		cmp	r0, #0
 1384 006a 01D0     		beq	.L116
 1385              		.loc 1 725 0 is_stmt 0 discriminator 1
 1386 006c 0135     		adds	r5, r5, #1
 1387              	.LVL187:
 1388 006e 00E0     		b	.L99
 1389              	.LVL188:
 1390              	.L116:
 1391              		.loc 1 725 0
 1392 0070 0025     		movs	r5, #0
 1393              	.LVL189:
 1394              	.L99:
 726:..\..\..\liblc3\src/spec.c ****         if (z > 2*w)
 1395              		.loc 1 726 0 is_stmt 1 discriminator 4
 1396 0072 7300     		lsls	r3, r6, #1
 1397 0074 9D42     		cmp	r5, r3
 1398 0076 0ADD     		ble	.L101
 727:..\..\..\liblc3\src/spec.c ****             sum += fabsf(x[i - w]), ns++;
 1399              		.loc 1 727 0
 1400 0078 A31B     		subs	r3, r4, r6
 1401 007a 9B00     		lsls	r3, r3, #2
 1402 007c 5A46     		mov	r2, fp
 1403 007e D158     		ldr	r1, [r2, r3]
 1404 0080 4900     		lsls	r1, r1, #1
 1405 0082 4908     		lsrs	r1, r1, #1
 1406 0084 0098     		ldr	r0, [sp]
 1407 0086 FFF7FEFF 		bl	__aeabi_fadd
 1408              	.LVL190:
 1409 008a 0090     		str	r0, [sp]
 1410              	.LVL191:
 1411 008c 0137     		adds	r7, r7, #1
 1412              	.LVL192:
 1413              	.L101:
 724:..\..\..\liblc3\src/spec.c ****         z = fabsf(x[i]) < xq_lim ? z + 1 : 0;
 1414              		.loc 1 724 0 discriminator 2
ARM GAS  C:\Users\rdn\AppData\Local\Temp\cciiQw7C.s 			page 40


 1415 008e 0134     		adds	r4, r4, #1
 1416              	.LVL193:
 1417              	.L98:
 724:..\..\..\liblc3\src/spec.c ****         z = fabsf(x[i]) < xq_lim ? z + 1 : 0;
 1418              		.loc 1 724 0 is_stmt 0 discriminator 1
 1419 0090 0A9B     		ldr	r3, [sp, #40]
 1420 0092 4B45     		cmp	r3, r9
 1421 0094 00DD     		ble	.L102
 1422 0096 4B46     		mov	r3, r9
 1423              	.L102:
 1424 0098 9C42     		cmp	r4, r3
 1425 009a DDDB     		blt	.L103
 1426 009c 0FE0     		b	.L104
 1427              	.L106:
 728:..\..\..\liblc3\src/spec.c ****     }
 729:..\..\..\liblc3\src/spec.c **** 
 730:..\..\..\liblc3\src/spec.c ****     for ( ; i < bw_stop + w; i++)
 731:..\..\..\liblc3\src/spec.c ****         if (++z > 2*w)
 1428              		.loc 1 731 0 is_stmt 1
 1429 009e 0135     		adds	r5, r5, #1
 1430              	.LVL194:
 1431 00a0 7300     		lsls	r3, r6, #1
 1432 00a2 9D42     		cmp	r5, r3
 1433 00a4 0ADD     		ble	.L105
 732:..\..\..\liblc3\src/spec.c ****             sum += fabsf(x[i - w]), ns++;
 1434              		.loc 1 732 0
 1435 00a6 A31B     		subs	r3, r4, r6
 1436 00a8 9B00     		lsls	r3, r3, #2
 1437 00aa 5A46     		mov	r2, fp
 1438 00ac D158     		ldr	r1, [r2, r3]
 1439 00ae 4900     		lsls	r1, r1, #1
 1440 00b0 4908     		lsrs	r1, r1, #1
 1441 00b2 0098     		ldr	r0, [sp]
 1442 00b4 FFF7FEFF 		bl	__aeabi_fadd
 1443              	.LVL195:
 1444 00b8 0090     		str	r0, [sp]
 1445              	.LVL196:
 1446 00ba 0137     		adds	r7, r7, #1
 1447              	.LVL197:
 1448              	.L105:
 730:..\..\..\liblc3\src/spec.c ****         if (++z > 2*w)
 1449              		.loc 1 730 0
 1450 00bc 0134     		adds	r4, r4, #1
 1451              	.LVL198:
 1452              	.L104:
 730:..\..\..\liblc3\src/spec.c ****         if (++z > 2*w)
 1453              		.loc 1 730 0 is_stmt 0 discriminator 1
 1454 00be 4B46     		mov	r3, r9
 1455 00c0 F318     		adds	r3, r6, r3
 1456 00c2 9C42     		cmp	r4, r3
 1457 00c4 EBDB     		blt	.L106
 733:..\..\..\liblc3\src/spec.c **** 
 734:..\..\..\liblc3\src/spec.c ****     int nf = ns ? 8 - (int)((16 * sum) / ns + 0.5f) : 8;
 1458              		.loc 1 734 0 is_stmt 1
 1459 00c6 002F     		cmp	r7, #0
 1460 00c8 15D0     		beq	.L113
 1461              		.loc 1 734 0 is_stmt 0 discriminator 1
ARM GAS  C:\Users\rdn\AppData\Local\Temp\cciiQw7C.s 			page 41


 1462 00ca 8321     		movs	r1, #131
 1463 00cc C905     		lsls	r1, r1, #23
 1464 00ce 0098     		ldr	r0, [sp]
 1465 00d0 FFF7FEFF 		bl	__aeabi_fmul
 1466              	.LVL199:
 1467 00d4 041C     		adds	r4, r0, #0
 1468              	.LVL200:
 1469 00d6 3800     		movs	r0, r7
 1470 00d8 FFF7FEFF 		bl	__aeabi_i2f
 1471              	.LVL201:
 1472 00dc 011C     		adds	r1, r0, #0
 1473 00de 201C     		adds	r0, r4, #0
 1474 00e0 FFF7FEFF 		bl	__aeabi_fdiv
 1475              	.LVL202:
 1476 00e4 FC21     		movs	r1, #252
 1477 00e6 8905     		lsls	r1, r1, #22
 1478 00e8 FFF7FEFF 		bl	__aeabi_fadd
 1479              	.LVL203:
 1480 00ec FFF7FEFF 		bl	__aeabi_f2iz
 1481              	.LVL204:
 1482 00f0 0823     		movs	r3, #8
 1483 00f2 181A     		subs	r0, r3, r0
 1484 00f4 00E0     		b	.L107
 1485              	.LVL205:
 1486              	.L113:
 1487              		.loc 1 734 0
 1488 00f6 0820     		movs	r0, #8
 1489              	.LVL206:
 1490              	.L107:
 735:..\..\..\liblc3\src/spec.c **** 
 736:..\..\..\liblc3\src/spec.c ****     return LC3_CLIP(nf, 0, 7);
 1491              		.loc 1 736 0 is_stmt 1 discriminator 4
 1492 00f8 0628     		cmp	r0, #6
 1493 00fa 03DC     		bgt	.L114
 1494              		.loc 1 736 0 is_stmt 0 discriminator 1
 1495 00fc 0028     		cmp	r0, #0
 1496 00fe 02DA     		bge	.L108
 1497 0100 0020     		movs	r0, #0
 1498              	.LVL207:
 1499 0102 00E0     		b	.L108
 1500              	.LVL208:
 1501              	.L114:
 1502              		.loc 1 736 0
 1503 0104 0720     		movs	r0, #7
 1504              	.LVL209:
 1505              	.L108:
 737:..\..\..\liblc3\src/spec.c **** }
 1506              		.loc 1 737 0 is_stmt 1 discriminator 4
 1507 0106 03B0     		add	sp, sp, #12
 1508              	.LVL210:
 1509              		@ sp needed
 1510              	.LVL211:
 1511              	.LVL212:
 1512              	.LVL213:
 1513              	.LVL214:
 1514 0108 0CBC     		pop	{r2, r3}
 1515 010a 9146     		mov	r9, r2
ARM GAS  C:\Users\rdn\AppData\Local\Temp\cciiQw7C.s 			page 42


 1516 010c 9B46     		mov	fp, r3
 1517 010e F0BD     		pop	{r4, r5, r6, r7, pc}
 1518              	.L118:
 1519              		.align	2
 1520              	.L117:
 1521 0110 00000000 		.word	lc3_ne_2m5
 1522 0114 0000203F 		.word	1059061760
 1523              		.cfi_endproc
 1524              	.LFE34:
 1525              		.size	estimate_noise, .-estimate_noise
 1526              		.global	__aeabi_fcmpeq
 1527              		.section	.text.fill_noise,"ax",%progbits
 1528              		.align	2
 1529              		.code	16
 1530              		.thumb_func
 1531              		.type	fill_noise, %function
 1532              	fill_noise:
 1533              	.LFB35:
 738:..\..\..\liblc3\src/spec.c **** 
 739:..\..\..\liblc3\src/spec.c **** /**
 740:..\..\..\liblc3\src/spec.c ****  * Noise filling
 741:..\..\..\liblc3\src/spec.c ****  * dt, bw          Duration and bandwidth of the frame
 742:..\..\..\liblc3\src/spec.c ****  * nf, nf_seed     The noise factor and pseudo-random seed
 743:..\..\..\liblc3\src/spec.c ****  * g               Quantization gain
 744:..\..\..\liblc3\src/spec.c ****  * x, nq           Spectral quantized, and count of significants
 745:..\..\..\liblc3\src/spec.c ****  */
 746:..\..\..\liblc3\src/spec.c **** LC3_HOT static void fill_noise(enum lc3_dt dt, enum lc3_bandwidth bw,
 747:..\..\..\liblc3\src/spec.c ****     int nf, uint16_t nf_seed, float g, float *x, int nq)
 748:..\..\..\liblc3\src/spec.c **** {
 1534              		.loc 1 748 0
 1535              		.cfi_startproc
 1536              		@ args = 12, pretend = 0, frame = 8
 1537              		@ frame_needed = 0, uses_anonymous_args = 0
 1538              	.LVL215:
 1539 0000 F0B5     		push	{r4, r5, r6, r7, lr}
 1540              		.cfi_def_cfa_offset 20
 1541              		.cfi_offset 4, -20
 1542              		.cfi_offset 5, -16
 1543              		.cfi_offset 6, -12
 1544              		.cfi_offset 7, -8
 1545              		.cfi_offset 14, -4
 1546 0002 5F46     		mov	r7, fp
 1547 0004 5646     		mov	r6, r10
 1548 0006 C0B4     		push	{r6, r7}
 1549              		.cfi_def_cfa_offset 28
 1550              		.cfi_offset 10, -28
 1551              		.cfi_offset 11, -24
 1552 0008 83B0     		sub	sp, sp, #12
 1553              		.cfi_def_cfa_offset 40
 1554 000a 9B46     		mov	fp, r3
 1555 000c 0B9B     		ldr	r3, [sp, #44]
 1556              	.LVL216:
 1557 000e 9A46     		mov	r10, r3
 749:..\..\..\liblc3\src/spec.c ****     int bw_stop = lc3_ne(dt, (enum lc3_srate)LC3_MIN(bw, LC3_BANDWIDTH_FB));
 1558              		.loc 1 749 0
 1559 0010 0B1C     		adds	r3, r1, #0
 1560 0012 0429     		cmp	r1, #4
ARM GAS  C:\Users\rdn\AppData\Local\Temp\cciiQw7C.s 			page 43


 1561 0014 00D9     		bls	.L120
 1562 0016 0423     		movs	r3, #4
 1563              	.L120:
 1564 0018 DBB2     		uxtb	r3, r3
 1565              	.LVL217:
 1566              	.LBB117:
 1567              	.LBB118:
 1568              		.loc 2 51 0
 1569 001a 9B00     		lsls	r3, r3, #2
 1570              	.LVL218:
 1571 001c 3949     		ldr	r1, .L139
 1572              	.LVL219:
 1573 001e 5B58     		ldr	r3, [r3, r1]
 1574 0020 441C     		adds	r4, r0, #1
 1575 0022 6343     		muls	r3, r4
 1576 0024 1E00     		movs	r6, r3
 1577              	.LVL220:
 1578              	.LBE118:
 1579              	.LBE117:
 750:..\..\..\liblc3\src/spec.c ****     int w = 1 + (dt >= LC3_DT_7M5) + (dt>= LC3_DT_10M);
 1580              		.loc 1 750 0
 1581 0026 0128     		cmp	r0, #1
 1582 0028 01D9     		bls	.L133
 1583 002a 0221     		movs	r1, #2
 1584 002c 00E0     		b	.L121
 1585              	.L133:
 1586 002e 0121     		movs	r1, #1
 1587              	.L121:
 1588              		.loc 1 750 0 is_stmt 0 discriminator 4
 1589 0030 0223     		movs	r3, #2
 1590 0032 8342     		cmp	r3, r0
 1591 0034 8041     		sbcs	r0, r0, r0
 1592              	.LVL221:
 1593 0036 4042     		rsbs	r0, r0, #0
 1594 0038 0F18     		adds	r7, r1, r0
 1595              	.LVL222:
 751:..\..\..\liblc3\src/spec.c **** 
 752:..\..\..\liblc3\src/spec.c ****     float s = g * (float)(8 - nf) / 16;
 1596              		.loc 1 752 0 is_stmt 1 discriminator 4
 1597 003a 0820     		movs	r0, #8
 1598 003c 801A     		subs	r0, r0, r2
 1599 003e FFF7FEFF 		bl	__aeabi_i2f
 1600              	.LVL223:
 1601 0042 0A99     		ldr	r1, [sp, #40]
 1602 0044 FFF7FEFF 		bl	__aeabi_fmul
 1603              	.LVL224:
 1604 0048 F621     		movs	r1, #246
 1605 004a 8905     		lsls	r1, r1, #22
 1606 004c FFF7FEFF 		bl	__aeabi_fmul
 1607              	.LVL225:
 1608 0050 0190     		str	r0, [sp, #4]
 1609              	.LVL226:
 753:..\..\..\liblc3\src/spec.c ****     int i, z = 0;
 754:..\..\..\liblc3\src/spec.c **** 
 755:..\..\..\liblc3\src/spec.c ****     for (i = 6 * (1 + dt) - w; i < LC3_MIN(nq, bw_stop); i++) {
 1610              		.loc 1 755 0 discriminator 4
 1611 0052 6300     		lsls	r3, r4, #1
ARM GAS  C:\Users\rdn\AppData\Local\Temp\cciiQw7C.s 			page 44


 1612 0054 1C19     		adds	r4, r3, r4
 1613 0056 6300     		lsls	r3, r4, #1
 1614 0058 DC1B     		subs	r4, r3, r7
 1615              	.LVL227:
 753:..\..\..\liblc3\src/spec.c ****     int i, z = 0;
 1616              		.loc 1 753 0 discriminator 4
 1617 005a 0025     		movs	r5, #0
 1618              		.loc 1 755 0 discriminator 4
 1619 005c 26E0     		b	.L122
 1620              	.LVL228:
 1621              	.L128:
 756:..\..\..\liblc3\src/spec.c ****         z = x[i] ? 0 : z + 1;
 1622              		.loc 1 756 0
 1623 005e A300     		lsls	r3, r4, #2
 1624 0060 5246     		mov	r2, r10
 1625 0062 9858     		ldr	r0, [r3, r2]
 1626 0064 0021     		movs	r1, #0
 1627 0066 FFF7FEFF 		bl	__aeabi_fcmpeq
 1628              	.LVL229:
 1629 006a 0028     		cmp	r0, #0
 1630 006c 01D0     		beq	.L138
 1631              		.loc 1 756 0 is_stmt 0 discriminator 1
 1632 006e 0135     		adds	r5, r5, #1
 1633              	.LVL230:
 1634 0070 00E0     		b	.L123
 1635              	.LVL231:
 1636              	.L138:
 1637              		.loc 1 756 0
 1638 0072 0025     		movs	r5, #0
 1639              	.LVL232:
 1640              	.L123:
 757:..\..\..\liblc3\src/spec.c ****         if (z > 2*w) {
 1641              		.loc 1 757 0 is_stmt 1 discriminator 4
 1642 0074 7B00     		lsls	r3, r7, #1
 1643 0076 9D42     		cmp	r5, r3
 1644 0078 17DD     		ble	.L125
 758:..\..\..\liblc3\src/spec.c ****             nf_seed = (13849 + nf_seed*31821) & 0xffff;
 1645              		.loc 1 758 0
 1646 007a 234B     		ldr	r3, .L139+4
 1647 007c 5A46     		mov	r2, fp
 1648 007e 5343     		muls	r3, r2
 1649 0080 9BB2     		uxth	r3, r3
 1650 0082 224A     		ldr	r2, .L139+8
 1651 0084 9446     		mov	ip, r2
 1652 0086 6344     		add	r3, r3, ip
 1653 0088 9BB2     		uxth	r3, r3
 1654 008a 9B46     		mov	fp, r3
 1655              	.LVL233:
 759:..\..\..\liblc3\src/spec.c ****             x[i - w] = nf_seed & 0x8000 ? -s : s;
 1656              		.loc 1 759 0
 1657 008c E31B     		subs	r3, r4, r7
 1658 008e 9B00     		lsls	r3, r3, #2
 1659 0090 5344     		add	r3, r3, r10
 1660 0092 5A46     		mov	r2, fp
 1661 0094 12B2     		sxth	r2, r2
 1662 0096 002A     		cmp	r2, #0
 1663 0098 05DA     		bge	.L135
ARM GAS  C:\Users\rdn\AppData\Local\Temp\cciiQw7C.s 			page 45


 1664              		.loc 1 759 0 is_stmt 0 discriminator 1
 1665 009a 019A     		ldr	r2, [sp, #4]
 1666 009c 8021     		movs	r1, #128
 1667 009e 0906     		lsls	r1, r1, #24
 1668 00a0 8C46     		mov	ip, r1
 1669 00a2 6244     		add	r2, r2, ip
 1670 00a4 00E0     		b	.L126
 1671              	.L135:
 1672              		.loc 1 759 0
 1673 00a6 019A     		ldr	r2, [sp, #4]
 1674              	.L126:
 1675              		.loc 1 759 0 discriminator 4
 1676 00a8 1A60     		str	r2, [r3]
 1677              	.L125:
 755:..\..\..\liblc3\src/spec.c ****         z = x[i] ? 0 : z + 1;
 1678              		.loc 1 755 0 is_stmt 1 discriminator 2
 1679 00aa 0134     		adds	r4, r4, #1
 1680              	.LVL234:
 1681              	.L122:
 755:..\..\..\liblc3\src/spec.c ****         z = x[i] ? 0 : z + 1;
 1682              		.loc 1 755 0 is_stmt 0 discriminator 1
 1683 00ac 0C9B     		ldr	r3, [sp, #48]
 1684 00ae B342     		cmp	r3, r6
 1685 00b0 00DD     		ble	.L127
 1686 00b2 3300     		movs	r3, r6
 1687              	.L127:
 1688 00b4 9C42     		cmp	r4, r3
 1689 00b6 D2DB     		blt	.L128
 1690 00b8 1CE0     		b	.L129
 1691              	.L132:
 760:..\..\..\liblc3\src/spec.c ****         }
 761:..\..\..\liblc3\src/spec.c ****     }
 762:..\..\..\liblc3\src/spec.c **** 
 763:..\..\..\liblc3\src/spec.c ****     for ( ; i < bw_stop + w; i++)
 764:..\..\..\liblc3\src/spec.c ****         if (++z > 2*w) {
 1692              		.loc 1 764 0 is_stmt 1
 1693 00ba 0135     		adds	r5, r5, #1
 1694              	.LVL235:
 1695 00bc 7B00     		lsls	r3, r7, #1
 1696 00be 9D42     		cmp	r5, r3
 1697 00c0 17DD     		ble	.L130
 765:..\..\..\liblc3\src/spec.c ****             nf_seed = (13849 + nf_seed*31821) & 0xffff;
 1698              		.loc 1 765 0
 1699 00c2 114B     		ldr	r3, .L139+4
 1700 00c4 5A46     		mov	r2, fp
 1701 00c6 5343     		muls	r3, r2
 1702 00c8 9BB2     		uxth	r3, r3
 1703 00ca 104A     		ldr	r2, .L139+8
 1704 00cc 9446     		mov	ip, r2
 1705 00ce 6344     		add	r3, r3, ip
 1706 00d0 9BB2     		uxth	r3, r3
 1707 00d2 9B46     		mov	fp, r3
 1708              	.LVL236:
 766:..\..\..\liblc3\src/spec.c ****             x[i - w] = nf_seed & 0x8000 ? -s : s;
 1709              		.loc 1 766 0
 1710 00d4 E31B     		subs	r3, r4, r7
 1711 00d6 9B00     		lsls	r3, r3, #2
ARM GAS  C:\Users\rdn\AppData\Local\Temp\cciiQw7C.s 			page 46


 1712 00d8 5344     		add	r3, r3, r10
 1713 00da 5A46     		mov	r2, fp
 1714 00dc 12B2     		sxth	r2, r2
 1715 00de 002A     		cmp	r2, #0
 1716 00e0 05DA     		bge	.L136
 1717              		.loc 1 766 0 is_stmt 0 discriminator 1
 1718 00e2 019A     		ldr	r2, [sp, #4]
 1719 00e4 8021     		movs	r1, #128
 1720 00e6 0906     		lsls	r1, r1, #24
 1721 00e8 8C46     		mov	ip, r1
 1722 00ea 6244     		add	r2, r2, ip
 1723 00ec 00E0     		b	.L131
 1724              	.L136:
 1725              		.loc 1 766 0
 1726 00ee 019A     		ldr	r2, [sp, #4]
 1727              	.L131:
 1728              		.loc 1 766 0 discriminator 4
 1729 00f0 1A60     		str	r2, [r3]
 1730              	.L130:
 763:..\..\..\liblc3\src/spec.c ****         if (++z > 2*w) {
 1731              		.loc 1 763 0 is_stmt 1
 1732 00f2 0134     		adds	r4, r4, #1
 1733              	.LVL237:
 1734              	.L129:
 763:..\..\..\liblc3\src/spec.c ****         if (++z > 2*w) {
 1735              		.loc 1 763 0 is_stmt 0 discriminator 1
 1736 00f4 BB19     		adds	r3, r7, r6
 1737 00f6 9C42     		cmp	r4, r3
 1738 00f8 DFDB     		blt	.L132
 767:..\..\..\liblc3\src/spec.c ****         }
 768:..\..\..\liblc3\src/spec.c **** }
 1739              		.loc 1 768 0 is_stmt 1
 1740 00fa 03B0     		add	sp, sp, #12
 1741              		@ sp needed
 1742              	.LVL238:
 1743              	.LVL239:
 1744              	.LVL240:
 1745              	.LVL241:
 1746 00fc 0CBC     		pop	{r2, r3}
 1747 00fe 9246     		mov	r10, r2
 1748 0100 9B46     		mov	fp, r3
 1749 0102 F0BD     		pop	{r4, r5, r6, r7, pc}
 1750              	.L140:
 1751              		.align	2
 1752              	.L139:
 1753 0104 00000000 		.word	lc3_ne_2m5
 1754 0108 4D7C0000 		.word	31821
 1755 010c 19360000 		.word	13849
 1756              		.cfi_endproc
 1757              	.LFE35:
 1758              		.size	fill_noise, .-fill_noise
 1759              		.section	.text.get_nbits_nq,"ax",%progbits
 1760              		.align	2
 1761              		.code	16
 1762              		.thumb_func
 1763              		.type	get_nbits_nq, %function
 1764              	get_nbits_nq:
ARM GAS  C:\Users\rdn\AppData\Local\Temp\cciiQw7C.s 			page 47


 1765              	.LFB38:
 769:..\..\..\liblc3\src/spec.c **** 
 770:..\..\..\liblc3\src/spec.c **** /**
 771:..\..\..\liblc3\src/spec.c ****  * Put noise factor
 772:..\..\..\liblc3\src/spec.c ****  * bits            Bitstream context
 773:..\..\..\liblc3\src/spec.c ****  * nf              Noise factor (0 to 7)
 774:..\..\..\liblc3\src/spec.c ****  */
 775:..\..\..\liblc3\src/spec.c **** static void put_noise_factor(lc3_bits_t *bits, int nf)
 776:..\..\..\liblc3\src/spec.c **** {
 777:..\..\..\liblc3\src/spec.c ****     lc3_put_bits(bits, nf, 3);
 778:..\..\..\liblc3\src/spec.c **** }
 779:..\..\..\liblc3\src/spec.c **** 
 780:..\..\..\liblc3\src/spec.c **** /**
 781:..\..\..\liblc3\src/spec.c ****  * Get noise factor
 782:..\..\..\liblc3\src/spec.c ****  * bits            Bitstream context
 783:..\..\..\liblc3\src/spec.c ****  * return          Noise factor (0 to 7)
 784:..\..\..\liblc3\src/spec.c ****  */
 785:..\..\..\liblc3\src/spec.c **** static int get_noise_factor(lc3_bits_t *bits)
 786:..\..\..\liblc3\src/spec.c **** {
 787:..\..\..\liblc3\src/spec.c ****     return lc3_get_bits(bits, 3);
 788:..\..\..\liblc3\src/spec.c **** }
 789:..\..\..\liblc3\src/spec.c **** 
 790:..\..\..\liblc3\src/spec.c **** 
 791:..\..\..\liblc3\src/spec.c **** /* ----------------------------------------------------------------------------
 792:..\..\..\liblc3\src/spec.c ****  *  Encoding
 793:..\..\..\liblc3\src/spec.c ****  * -------------------------------------------------------------------------- */
 794:..\..\..\liblc3\src/spec.c **** 
 795:..\..\..\liblc3\src/spec.c **** /**
 796:..\..\..\liblc3\src/spec.c ****  * Bit consumption of the number of coded coefficients
 797:..\..\..\liblc3\src/spec.c ****  * dt, sr, nbytes  Duration, samplerate and size of the frame
 798:..\..\..\liblc3\src/spec.c ****  * return          Bit consumpution of the number of coded coefficients
 799:..\..\..\liblc3\src/spec.c ****  */
 800:..\..\..\liblc3\src/spec.c **** static int get_nbits_nq(enum lc3_dt dt, enum lc3_srate sr)
 801:..\..\..\liblc3\src/spec.c **** {
 1766              		.loc 1 801 0
 1767              		.cfi_startproc
 1768              		@ args = 0, pretend = 0, frame = 0
 1769              		@ frame_needed = 0, uses_anonymous_args = 0
 1770              	.LVL242:
 1771 0000 10B5     		push	{r4, lr}
 1772              		.cfi_def_cfa_offset 8
 1773              		.cfi_offset 4, -8
 1774              		.cfi_offset 14, -4
 1775              	.LVL243:
 1776              	.LBB119:
 1777              	.LBB120:
 1778              		.loc 2 51 0
 1779 0002 8900     		lsls	r1, r1, #2
 1780              	.LVL244:
 1781 0004 104B     		ldr	r3, .L148
 1782 0006 CB58     		ldr	r3, [r1, r3]
 1783 0008 0130     		adds	r0, r0, #1
 1784              	.LVL245:
 1785 000a 4343     		muls	r3, r0
 1786              	.LVL246:
 1787              	.LBE120:
 1788              	.LBE119:
ARM GAS  C:\Users\rdn\AppData\Local\Temp\cciiQw7C.s 			page 48


 802:..\..\..\liblc3\src/spec.c ****     int ne = lc3_ne(dt, sr);
 803:..\..\..\liblc3\src/spec.c ****     return 4 + (ne > 32) + (ne > 64) + (ne > 128) + (ne > 256) + (ne > 512);
 1789              		.loc 1 803 0
 1790 000c 202B     		cmp	r3, #32
 1791 000e 01DD     		ble	.L147
 1792 0010 0524     		movs	r4, #5
 1793 0012 00E0     		b	.L142
 1794              	.L147:
 1795 0014 0424     		movs	r4, #4
 1796              	.L142:
 1797              		.loc 1 803 0 is_stmt 0 discriminator 4
 1798 0016 0120     		movs	r0, #1
 1799 0018 402B     		cmp	r3, #64
 1800 001a 00DC     		bgt	.L143
 1801 001c 0020     		movs	r0, #0
 1802              	.L143:
 1803 001e 2018     		adds	r0, r4, r0
 1804 0020 0124     		movs	r4, #1
 1805 0022 802B     		cmp	r3, #128
 1806 0024 00DC     		bgt	.L144
 1807 0026 0024     		movs	r4, #0
 1808              	.L144:
 1809 0028 0019     		adds	r0, r0, r4
 1810 002a 0121     		movs	r1, #1
 1811 002c 8022     		movs	r2, #128
 1812 002e 5200     		lsls	r2, r2, #1
 1813 0030 9342     		cmp	r3, r2
 1814 0032 00DC     		bgt	.L145
 1815 0034 0021     		movs	r1, #0
 1816              	.L145:
 1817 0036 4018     		adds	r0, r0, r1
 1818 0038 0122     		movs	r2, #1
 1819 003a 8021     		movs	r1, #128
 1820 003c 8900     		lsls	r1, r1, #2
 1821 003e 8B42     		cmp	r3, r1
 1822 0040 00DC     		bgt	.L146
 1823 0042 0022     		movs	r2, #0
 1824              	.L146:
 1825 0044 8018     		adds	r0, r0, r2
 804:..\..\..\liblc3\src/spec.c **** }
 1826              		.loc 1 804 0 is_stmt 1 discriminator 4
 1827              		@ sp needed
 1828 0046 10BD     		pop	{r4, pc}
 1829              	.L149:
 1830              		.align	2
 1831              	.L148:
 1832 0048 00000000 		.word	lc3_ne_2m5
 1833              		.cfi_endproc
 1834              	.LFE38:
 1835              		.size	get_nbits_nq, .-get_nbits_nq
 1836              		.section	.text.get_nbits_ac,"ax",%progbits
 1837              		.align	2
 1838              		.code	16
 1839              		.thumb_func
 1840              		.type	get_nbits_ac, %function
 1841              	get_nbits_ac:
 1842              	.LFB39:
ARM GAS  C:\Users\rdn\AppData\Local\Temp\cciiQw7C.s 			page 49


 805:..\..\..\liblc3\src/spec.c **** 
 806:..\..\..\liblc3\src/spec.c **** /**
 807:..\..\..\liblc3\src/spec.c ****  * Bit consumption of the arithmetic coder
 808:..\..\..\liblc3\src/spec.c ****  * dt, sr, nbytes  Duration, samplerate and size of the frame
 809:..\..\..\liblc3\src/spec.c ****  * return          Bit consumption of bitstream data
 810:..\..\..\liblc3\src/spec.c ****  */
 811:..\..\..\liblc3\src/spec.c **** static int get_nbits_ac(enum lc3_dt dt, enum lc3_srate sr, int nbytes)
 812:..\..\..\liblc3\src/spec.c **** {
 1843              		.loc 1 812 0
 1844              		.cfi_startproc
 1845              		@ args = 0, pretend = 0, frame = 0
 1846              		@ frame_needed = 0, uses_anonymous_args = 0
 1847              	.LVL247:
 1848 0000 70B5     		push	{r4, r5, r6, lr}
 1849              		.cfi_def_cfa_offset 16
 1850              		.cfi_offset 4, -16
 1851              		.cfi_offset 5, -12
 1852              		.cfi_offset 6, -8
 1853              		.cfi_offset 14, -4
 1854 0002 0D00     		movs	r5, r1
 1855 0004 1600     		movs	r6, r2
 813:..\..\..\liblc3\src/spec.c ****     return get_nbits_nq(dt, sr) +
 1856              		.loc 1 813 0
 1857 0006 FFF7FEFF 		bl	get_nbits_nq
 1858              	.LVL248:
 1859 000a 0330     		adds	r0, r0, #3
 1860              	.LVL249:
 1861              	.LBB121:
 1862              	.LBB122:
 1863              		.file 3 "..\\..\\..\\liblc3\\src\\common.h"
   1:..\..\..\liblc3\src/common.h **** /******************************************************************************
   2:..\..\..\liblc3\src/common.h ****  *
   3:..\..\..\liblc3\src/common.h ****  *  Copyright 2022 Google LLC
   4:..\..\..\liblc3\src/common.h ****  *
   5:..\..\..\liblc3\src/common.h ****  *  Licensed under the Apache License, Version 2.0 (the "License");
   6:..\..\..\liblc3\src/common.h ****  *  you may not use this file except in compliance with the License.
   7:..\..\..\liblc3\src/common.h ****  *  You may obtain a copy of the License at:
   8:..\..\..\liblc3\src/common.h ****  *
   9:..\..\..\liblc3\src/common.h ****  *  http://www.apache.org/licenses/LICENSE-2.0
  10:..\..\..\liblc3\src/common.h ****  *
  11:..\..\..\liblc3\src/common.h ****  *  Unless required by applicable law or agreed to in writing, software
  12:..\..\..\liblc3\src/common.h ****  *  distributed under the License is distributed on an "AS IS" BASIS,
  13:..\..\..\liblc3\src/common.h ****  *  WITHOUT WARRANTIES OR CONDITIONS OF ANY KIND, either express or implied.
  14:..\..\..\liblc3\src/common.h ****  *  See the License for the specific language governing permissions and
  15:..\..\..\liblc3\src/common.h ****  *  limitations under the License.
  16:..\..\..\liblc3\src/common.h ****  *
  17:..\..\..\liblc3\src/common.h ****  ******************************************************************************/
  18:..\..\..\liblc3\src/common.h **** 
  19:..\..\..\liblc3\src/common.h **** #ifndef __LC3_COMMON_H
  20:..\..\..\liblc3\src/common.h **** #define __LC3_COMMON_H
  21:..\..\..\liblc3\src/common.h **** 
  22:..\..\..\liblc3\src/common.h **** #include <lc3.h>
  23:..\..\..\liblc3\src/common.h **** #include "fastmath.h"
  24:..\..\..\liblc3\src/common.h **** 
  25:..\..\..\liblc3\src/common.h **** #include <limits.h>
  26:..\..\..\liblc3\src/common.h **** #include <stdalign.h>
  27:..\..\..\liblc3\src/common.h **** #include <string.h>
ARM GAS  C:\Users\rdn\AppData\Local\Temp\cciiQw7C.s 			page 50


  28:..\..\..\liblc3\src/common.h **** 
  29:..\..\..\liblc3\src/common.h **** #ifdef __ARM_ARCH
  30:..\..\..\liblc3\src/common.h **** #include <arm_acle.h>
  31:..\..\..\liblc3\src/common.h **** #endif
  32:..\..\..\liblc3\src/common.h **** 
  33:..\..\..\liblc3\src/common.h **** 
  34:..\..\..\liblc3\src/common.h **** /**
  35:..\..\..\liblc3\src/common.h ****  * Acivation flags for LC3-Plus and LC3-Plus HR features
  36:..\..\..\liblc3\src/common.h ****  */
  37:..\..\..\liblc3\src/common.h **** 
  38:..\..\..\liblc3\src/common.h **** #ifndef LC3_PLUS
  39:..\..\..\liblc3\src/common.h **** #define LC3_PLUS 1
  40:..\..\..\liblc3\src/common.h **** #endif
  41:..\..\..\liblc3\src/common.h **** 
  42:..\..\..\liblc3\src/common.h **** #ifndef LC3_PLUS_HR
  43:..\..\..\liblc3\src/common.h **** #define LC3_PLUS_HR 1
  44:..\..\..\liblc3\src/common.h **** #endif
  45:..\..\..\liblc3\src/common.h **** 
  46:..\..\..\liblc3\src/common.h **** #if LC3_PLUS
  47:..\..\..\liblc3\src/common.h **** #define LC3_IF_PLUS(a, b) (a)
  48:..\..\..\liblc3\src/common.h **** #else
  49:..\..\..\liblc3\src/common.h **** #define LC3_IF_PLUS(a, b) (b)
  50:..\..\..\liblc3\src/common.h **** #endif
  51:..\..\..\liblc3\src/common.h **** 
  52:..\..\..\liblc3\src/common.h **** #if LC3_PLUS_HR
  53:..\..\..\liblc3\src/common.h **** #define LC3_IF_PLUS_HR(a, b) (a)
  54:..\..\..\liblc3\src/common.h **** #else
  55:..\..\..\liblc3\src/common.h **** #define LC3_IF_PLUS_HR(a, b) (b)
  56:..\..\..\liblc3\src/common.h **** #endif
  57:..\..\..\liblc3\src/common.h **** 
  58:..\..\..\liblc3\src/common.h **** 
  59:..\..\..\liblc3\src/common.h **** /**
  60:..\..\..\liblc3\src/common.h ****  * Hot Function attribute
  61:..\..\..\liblc3\src/common.h ****  * Selectively disable sanitizer
  62:..\..\..\liblc3\src/common.h ****  */
  63:..\..\..\liblc3\src/common.h **** 
  64:..\..\..\liblc3\src/common.h **** #ifdef __clang__
  65:..\..\..\liblc3\src/common.h **** 
  66:..\..\..\liblc3\src/common.h **** #define LC3_HOT \
  67:..\..\..\liblc3\src/common.h ****     __attribute__((no_sanitize("bounds"))) \
  68:..\..\..\liblc3\src/common.h ****     __attribute__((no_sanitize("integer")))
  69:..\..\..\liblc3\src/common.h **** 
  70:..\..\..\liblc3\src/common.h **** #else /* __clang__ */
  71:..\..\..\liblc3\src/common.h **** 
  72:..\..\..\liblc3\src/common.h **** #define LC3_HOT
  73:..\..\..\liblc3\src/common.h **** 
  74:..\..\..\liblc3\src/common.h **** #endif /* __clang__ */
  75:..\..\..\liblc3\src/common.h **** 
  76:..\..\..\liblc3\src/common.h **** 
  77:..\..\..\liblc3\src/common.h **** /**
  78:..\..\..\liblc3\src/common.h ****  * Macros
  79:..\..\..\liblc3\src/common.h ****  * MIN/MAX  Minimum and maximum between 2 values
  80:..\..\..\liblc3\src/common.h ****  * CLIP     Clip a value between low and high limits
  81:..\..\..\liblc3\src/common.h ****  * SATXX    Signed saturation on 'xx' bits
  82:..\..\..\liblc3\src/common.h ****  * ABS      Return absolute value
  83:..\..\..\liblc3\src/common.h ****  */
  84:..\..\..\liblc3\src/common.h **** 
ARM GAS  C:\Users\rdn\AppData\Local\Temp\cciiQw7C.s 			page 51


  85:..\..\..\liblc3\src/common.h **** #define LC3_MIN(a, b)  ( (a) < (b) ?  (a) : (b) )
  86:..\..\..\liblc3\src/common.h **** #define LC3_MAX(a, b)  ( (a) > (b) ?  (a) : (b) )
  87:..\..\..\liblc3\src/common.h **** 
  88:..\..\..\liblc3\src/common.h **** #define LC3_CLIP(v, min, max)  LC3_MIN(LC3_MAX(v, min), max)
  89:..\..\..\liblc3\src/common.h **** #define LC3_SAT16(v)  LC3_CLIP(v, -(1 << 15), (1 << 15) - 1)
  90:..\..\..\liblc3\src/common.h **** #define LC3_SAT24(v)  LC3_CLIP(v, -(1 << 23), (1 << 23) - 1)
  91:..\..\..\liblc3\src/common.h **** 
  92:..\..\..\liblc3\src/common.h **** #define LC3_ABS(v)  ( (v) < 0 ? -(v) : (v) )
  93:..\..\..\liblc3\src/common.h **** 
  94:..\..\..\liblc3\src/common.h **** 
  95:..\..\..\liblc3\src/common.h **** #if defined(__ARM_FEATURE_SAT) && !(__GNUC__ < 10)
  96:..\..\..\liblc3\src/common.h **** 
  97:..\..\..\liblc3\src/common.h **** #undef  LC3_SAT16
  98:..\..\..\liblc3\src/common.h **** #define LC3_SAT16(v) __ssat(v, 16)
  99:..\..\..\liblc3\src/common.h **** 
 100:..\..\..\liblc3\src/common.h **** #undef  LC3_SAT24
 101:..\..\..\liblc3\src/common.h **** #define LC3_SAT24(v) __ssat(v, 24)
 102:..\..\..\liblc3\src/common.h **** 
 103:..\..\..\liblc3\src/common.h **** #endif /* __ARM_FEATURE_SAT */
 104:..\..\..\liblc3\src/common.h **** 
 105:..\..\..\liblc3\src/common.h **** 
 106:..\..\..\liblc3\src/common.h **** /**
 107:..\..\..\liblc3\src/common.h ****  * Return `true` when high-resolution mode
 108:..\..\..\liblc3\src/common.h ****  */
 109:..\..\..\liblc3\src/common.h **** static inline bool lc3_hr(enum lc3_srate sr) {
 110:..\..\..\liblc3\src/common.h ****     return LC3_PLUS_HR && (sr >= LC3_SRATE_48K_HR);
 1864              		.loc 3 110 0
 1865 000c 0424     		movs	r4, #4
 1866 000e AC42     		cmp	r4, r5
 1867 0010 A441     		sbcs	r4, r4, r4
 1868 0012 6442     		rsbs	r4, r4, #0
 1869              	.LVL250:
 1870              	.LBE122:
 1871              	.LBE121:
 814:..\..\..\liblc3\src/spec.c ****         3 + lc3_hr(sr) + LC3_MIN((nbytes-1) / 160, 2);
 1872              		.loc 1 814 0
 1873 0014 2418     		adds	r4, r4, r0
 1874 0016 701E     		subs	r0, r6, #1
 1875 0018 4023     		movs	r3, #64
 1876 001a FF33     		adds	r3, r3, #255
 1877 001c 9842     		cmp	r0, r3
 1878 001e 03DC     		bgt	.L152
 1879              		.loc 1 814 0 is_stmt 0 discriminator 1
 1880 0020 A021     		movs	r1, #160
 1881 0022 FFF7FEFF 		bl	__aeabi_idiv
 1882              	.LVL251:
 1883 0026 00E0     		b	.L151
 1884              	.L152:
 1885              		.loc 1 814 0
 1886 0028 0220     		movs	r0, #2
 1887              	.L151:
 813:..\..\..\liblc3\src/spec.c ****     return get_nbits_nq(dt, sr) +
 1888              		.loc 1 813 0 is_stmt 1
 1889 002a 0019     		adds	r0, r0, r4
 815:..\..\..\liblc3\src/spec.c **** }
 1890              		.loc 1 815 0
 1891              		@ sp needed
ARM GAS  C:\Users\rdn\AppData\Local\Temp\cciiQw7C.s 			page 52


 1892              	.LVL252:
 1893 002c 70BD     		pop	{r4, r5, r6, pc}
 1894              		.cfi_endproc
 1895              	.LFE39:
 1896              		.size	get_nbits_ac, .-get_nbits_ac
 1897              		.global	__aeabi_fsub
 1898              		.global	__aeabi_fcmplt
 1899 002e C046     		.section	.text.estimate_gain,"ax",%progbits
 1900              		.align	2
 1901              		.code	16
 1902              		.thumb_func
 1903              		.type	estimate_gain, %function
 1904              	estimate_gain:
 1905              	.LFB22:
  86:..\..\..\liblc3\src/spec.c ****     int n4 = lc3_ne(dt, sr) / 4;
 1906              		.loc 1 86 0
 1907              		.cfi_startproc
 1908              		@ args = 20, pretend = 0, frame = 1024
 1909              		@ frame_needed = 0, uses_anonymous_args = 0
 1910              	.LVL253:
 1911 0000 F0B5     		push	{r4, r5, r6, r7, lr}
 1912              		.cfi_def_cfa_offset 20
 1913              		.cfi_offset 4, -20
 1914              		.cfi_offset 5, -16
 1915              		.cfi_offset 6, -12
 1916              		.cfi_offset 7, -8
 1917              		.cfi_offset 14, -4
 1918 0002 5F46     		mov	r7, fp
 1919 0004 5646     		mov	r6, r10
 1920 0006 4D46     		mov	r5, r9
 1921 0008 4446     		mov	r4, r8
 1922 000a F0B4     		push	{r4, r5, r6, r7}
 1923              		.cfi_def_cfa_offset 36
 1924              		.cfi_offset 8, -36
 1925              		.cfi_offset 9, -32
 1926              		.cfi_offset 10, -28
 1927              		.cfi_offset 11, -24
 1928 000c E94C     		ldr	r4, .L195
 1929 000e A544     		add	sp, sp, r4
 1930              		.cfi_def_cfa_offset 1064
 1931 0010 0500     		movs	r5, r0
 1932 0012 0800     		movs	r0, r1
 1933              	.LVL254:
 1934 0014 1700     		movs	r7, r2
 1935 0016 9846     		mov	r8, r3
 1936 0018 FFAA     		add	r2, sp, #1020
 1937              	.LVL255:
 1938 001a 3C32     		adds	r2, r2, #60
 1939 001c 1268     		ldr	r2, [r2]
 1940 001e 9346     		mov	fp, r2
 1941              	.LVL256:
 1942              	.LBB140:
 1943              	.LBB141:
 1944              		.loc 2 51 0
 1945 0020 8A00     		lsls	r2, r1, #2
 1946 0022 E54B     		ldr	r3, .L195+4
 1947              	.LVL257:
ARM GAS  C:\Users\rdn\AppData\Local\Temp\cciiQw7C.s 			page 53


 1948 0024 D358     		ldr	r3, [r2, r3]
 1949 0026 6A1C     		adds	r2, r5, #1
 1950 0028 9146     		mov	r9, r2
 1951 002a 5343     		muls	r3, r2
 1952              	.LVL258:
 1953              	.LBE141:
 1954              	.LBE140:
  87:..\..\..\liblc3\src/spec.c ****     union { float f; int32_t q16; } e[LC3_MAX_NE / 4];
 1955              		.loc 1 87 0
 1956 002c DA17     		asrs	r2, r3, #31
 1957 002e 0321     		movs	r1, #3
 1958              	.LVL259:
 1959 0030 0A40     		ands	r2, r1
 1960 0032 D318     		adds	r3, r2, r3
 1961 0034 9E10     		asrs	r6, r3, #2
 1962              	.LVL260:
  95:..\..\..\liblc3\src/spec.c ****         int reg_c = (const int [LC3_NUM_DT][LC3_NUM_SRATE - LC3_SRATE_48K_HR]){
 1963              		.loc 1 95 0
 1964 0036 0590     		str	r0, [sp, #20]
 1965 0038 0428     		cmp	r0, #4
 1966 003a 00D8     		bhi	.LCB2255
 1967 003c B9E0     		b	.L183	@long jump
 1968              	.LCB2255:
 1969              	.LBB142:
  96:..\..\..\liblc3\src/spec.c ****             [LC3_DT_2M5] = { -6, -6 },
 1970              		.loc 1 96 0
 1971 003e F8AC     		add	r4, sp, #992
 1972 0040 2022     		movs	r2, #32
 1973 0042 0021     		movs	r1, #0
 1974 0044 2000     		movs	r0, r4
 1975 0046 FFF7FEFF 		bl	memset
 1976              	.LVL261:
 1977 004a 0623     		movs	r3, #6
 1978 004c 5B42     		rsbs	r3, r3, #0
 1979 004e F893     		str	r3, [sp, #992]
 1980 0050 6360     		str	r3, [r4, #4]
 1981 0052 0833     		adds	r3, r3, #8
 1982 0054 A361     		str	r3, [r4, #24]
 1983 0056 0333     		adds	r3, r3, #3
 1984 0058 E361     		str	r3, [r4, #28]
 100:..\..\..\liblc3\src/spec.c **** 
 1985              		.loc 1 100 0
 1986 005a 059B     		ldr	r3, [sp, #20]
 1987 005c 053B     		subs	r3, r3, #5
  96:..\..\..\liblc3\src/spec.c ****             [LC3_DT_2M5] = { -6, -6 },
 1988              		.loc 1 96 0
 1989 005e 6A00     		lsls	r2, r5, #1
 1990 0060 D318     		adds	r3, r2, r3
 1991 0062 9B00     		lsls	r3, r3, #2
 1992 0064 1C59     		ldr	r4, [r3, r4]
 1993              	.LVL262:
 102:..\..\..\liblc3\src/spec.c ****         reg_bits = LC3_CLIP(reg_bits + reg_c, 6, 23);
 1994              		.loc 1 102 0
 1995 0066 4346     		mov	r3, r8
 1996 0068 5801     		lsls	r0, r3, #5
 1997 006a 4B46     		mov	r3, r9
 1998 006c 5901     		lsls	r1, r3, #5
ARM GAS  C:\Users\rdn\AppData\Local\Temp\cciiQw7C.s 			page 54


 1999 006e C91A     		subs	r1, r1, r3
 2000 0070 8900     		lsls	r1, r1, #2
 2001 0072 4944     		add	r1, r1, r9
 2002 0074 FFF7FEFF 		bl	__aeabi_idiv
 2003              	.LVL263:
 103:..\..\..\liblc3\src/spec.c **** 
 2004              		.loc 1 103 0
 2005 0078 2418     		adds	r4, r4, r0
 2006              	.LVL264:
 2007 007a 162C     		cmp	r4, #22
 2008 007c 05DC     		bgt	.L184
 103:..\..\..\liblc3\src/spec.c **** 
 2009              		.loc 1 103 0 is_stmt 0 discriminator 1
 2010 007e A246     		mov	r10, r4
 2011 0080 062C     		cmp	r4, #6
 2012 0082 04DA     		bge	.L155
 2013 0084 0623     		movs	r3, #6
 2014 0086 9A46     		mov	r10, r3
 2015 0088 01E0     		b	.L155
 2016              	.L184:
 103:..\..\..\liblc3\src/spec.c **** 
 2017              		.loc 1 103 0
 2018 008a 1723     		movs	r3, #23
 2019 008c 9A46     		mov	r10, r3
 2020              	.L155:
 2021              	.LVL265:
 2022              	.LBB143:
 107:..\..\..\liblc3\src/spec.c ****             m0 += fabsf(x[4*i + 0]),  m1 += fabsf(x[4*i + 0]) * k++;
 2023              		.loc 1 107 0 is_stmt 1 discriminator 4
 2024 008e 0025     		movs	r5, #0
 2025              	.LVL266:
 2026              	.LBE143:
 105:..\..\..\liblc3\src/spec.c **** 
 2027              		.loc 1 105 0 discriminator 4
 2028 0090 0023     		movs	r3, #0
 2029 0092 0093     		str	r3, [sp]
 2030 0094 C94B     		ldr	r3, .L195+8
 2031 0096 0293     		str	r3, [sp, #8]
 2032 0098 0193     		str	r3, [sp, #4]
 2033 009a D046     		mov	r8, r10
 2034              	.LVL267:
 2035 009c DA46     		mov	r10, fp
 2036              	.LVL268:
 2037 009e B346     		mov	fp, r6
 2038 00a0 3E00     		movs	r6, r7
 2039              	.LVL269:
 2040 00a2 2F00     		movs	r7, r5
 2041              	.LVL270:
 2042              	.LBB144:
 107:..\..\..\liblc3\src/spec.c ****             m0 += fabsf(x[4*i + 0]),  m1 += fabsf(x[4*i + 0]) * k++;
 2043              		.loc 1 107 0 discriminator 4
 2044 00a4 63E0     		b	.L157
 2045              	.LVL271:
 2046              	.L158:
 108:..\..\..\liblc3\src/spec.c ****             m0 += fabsf(x[4*i + 1]),  m1 += fabsf(x[4*i + 1]) * k++;
 2047              		.loc 1 108 0 discriminator 3
 2048 00a6 3D01     		lsls	r5, r7, #4
ARM GAS  C:\Users\rdn\AppData\Local\Temp\cciiQw7C.s 			page 55


 2049 00a8 7359     		ldr	r3, [r6, r5]
 2050 00aa 5C00     		lsls	r4, r3, #1
 2051 00ac 6408     		lsrs	r4, r4, #1
 2052 00ae 211C     		adds	r1, r4, #0
 2053 00b0 0198     		ldr	r0, [sp, #4]
 2054 00b2 FFF7FEFF 		bl	__aeabi_fadd
 2055              	.LVL272:
 2056 00b6 0390     		str	r0, [sp, #12]
 2057              	.LVL273:
 2058 00b8 FE21     		movs	r1, #254
 2059 00ba 8905     		lsls	r1, r1, #22
 2060 00bc 0098     		ldr	r0, [sp]
 2061              	.LVL274:
 2062 00be FFF7FEFF 		bl	__aeabi_fadd
 2063              	.LVL275:
 2064 00c2 0190     		str	r0, [sp, #4]
 2065              	.LVL276:
 2066 00c4 211C     		adds	r1, r4, #0
 2067 00c6 0098     		ldr	r0, [sp]
 2068              	.LVL277:
 2069 00c8 FFF7FEFF 		bl	__aeabi_fmul
 2070              	.LVL278:
 2071 00cc 011C     		adds	r1, r0, #0
 2072 00ce 0298     		ldr	r0, [sp, #8]
 2073 00d0 FFF7FEFF 		bl	__aeabi_fadd
 2074              	.LVL279:
 2075 00d4 0290     		str	r0, [sp, #8]
 2076              	.LVL280:
 109:..\..\..\liblc3\src/spec.c ****             m0 += fabsf(x[4*i + 2]),  m1 += fabsf(x[4*i + 2]) * k++;
 2077              		.loc 1 109 0 discriminator 3
 2078 00d6 2B1D     		adds	r3, r5, #4
 2079 00d8 F458     		ldr	r4, [r6, r3]
 2080 00da 6400     		lsls	r4, r4, #1
 2081 00dc 6408     		lsrs	r4, r4, #1
 2082 00de 211C     		adds	r1, r4, #0
 2083 00e0 0398     		ldr	r0, [sp, #12]
 2084              	.LVL281:
 2085 00e2 FFF7FEFF 		bl	__aeabi_fadd
 2086              	.LVL282:
 2087 00e6 0390     		str	r0, [sp, #12]
 2088              	.LVL283:
 2089 00e8 FE21     		movs	r1, #254
 2090 00ea 8905     		lsls	r1, r1, #22
 2091 00ec 0198     		ldr	r0, [sp, #4]
 2092              	.LVL284:
 2093 00ee FFF7FEFF 		bl	__aeabi_fadd
 2094              	.LVL285:
 2095 00f2 0090     		str	r0, [sp]
 2096              	.LVL286:
 2097 00f4 211C     		adds	r1, r4, #0
 2098 00f6 0198     		ldr	r0, [sp, #4]
 2099              	.LVL287:
 2100 00f8 FFF7FEFF 		bl	__aeabi_fmul
 2101              	.LVL288:
 2102 00fc 011C     		adds	r1, r0, #0
 2103 00fe 0298     		ldr	r0, [sp, #8]
 2104 0100 FFF7FEFF 		bl	__aeabi_fadd
ARM GAS  C:\Users\rdn\AppData\Local\Temp\cciiQw7C.s 			page 56


 2105              	.LVL289:
 2106 0104 0190     		str	r0, [sp, #4]
 2107              	.LVL290:
 110:..\..\..\liblc3\src/spec.c ****             m0 += fabsf(x[4*i + 3]),  m1 += fabsf(x[4*i + 3]) * k++;
 2108              		.loc 1 110 0 discriminator 3
 2109 0106 2B00     		movs	r3, r5
 2110 0108 0833     		adds	r3, r3, #8
 2111 010a F458     		ldr	r4, [r6, r3]
 2112 010c 6400     		lsls	r4, r4, #1
 2113 010e 6408     		lsrs	r4, r4, #1
 2114 0110 211C     		adds	r1, r4, #0
 2115 0112 0398     		ldr	r0, [sp, #12]
 2116              	.LVL291:
 2117 0114 FFF7FEFF 		bl	__aeabi_fadd
 2118              	.LVL292:
 2119 0118 0290     		str	r0, [sp, #8]
 2120              	.LVL293:
 2121 011a FE21     		movs	r1, #254
 2122 011c 8905     		lsls	r1, r1, #22
 2123 011e 0098     		ldr	r0, [sp]
 2124              	.LVL294:
 2125 0120 FFF7FEFF 		bl	__aeabi_fadd
 2126              	.LVL295:
 2127 0124 0390     		str	r0, [sp, #12]
 2128              	.LVL296:
 2129 0126 211C     		adds	r1, r4, #0
 2130 0128 0098     		ldr	r0, [sp]
 2131              	.LVL297:
 2132 012a FFF7FEFF 		bl	__aeabi_fmul
 2133              	.LVL298:
 2134 012e 011C     		adds	r1, r0, #0
 2135 0130 0198     		ldr	r0, [sp, #4]
 2136 0132 FFF7FEFF 		bl	__aeabi_fadd
 2137              	.LVL299:
 2138 0136 0490     		str	r0, [sp, #16]
 2139              	.LVL300:
 111:..\..\..\liblc3\src/spec.c ****         }
 2140              		.loc 1 111 0 discriminator 3
 2141 0138 2B00     		movs	r3, r5
 2142 013a 0C33     		adds	r3, r3, #12
 2143 013c F458     		ldr	r4, [r6, r3]
 2144 013e 6400     		lsls	r4, r4, #1
 2145 0140 6408     		lsrs	r4, r4, #1
 2146 0142 211C     		adds	r1, r4, #0
 2147 0144 0298     		ldr	r0, [sp, #8]
 2148              	.LVL301:
 2149 0146 FFF7FEFF 		bl	__aeabi_fadd
 2150              	.LVL302:
 2151 014a 0190     		str	r0, [sp, #4]
 2152              	.LVL303:
 2153 014c FE21     		movs	r1, #254
 2154 014e 8905     		lsls	r1, r1, #22
 2155 0150 039D     		ldr	r5, [sp, #12]
 2156 0152 281C     		adds	r0, r5, #0
 2157              	.LVL304:
 2158 0154 FFF7FEFF 		bl	__aeabi_fadd
 2159              	.LVL305:
ARM GAS  C:\Users\rdn\AppData\Local\Temp\cciiQw7C.s 			page 57


 2160 0158 0090     		str	r0, [sp]
 2161              	.LVL306:
 2162 015a 211C     		adds	r1, r4, #0
 2163 015c 281C     		adds	r0, r5, #0
 2164              	.LVL307:
 2165 015e FFF7FEFF 		bl	__aeabi_fmul
 2166              	.LVL308:
 2167 0162 011C     		adds	r1, r0, #0
 2168 0164 0498     		ldr	r0, [sp, #16]
 2169 0166 FFF7FEFF 		bl	__aeabi_fadd
 2170              	.LVL309:
 2171 016a 0290     		str	r0, [sp, #8]
 2172              	.LVL310:
 107:..\..\..\liblc3\src/spec.c ****             m0 += fabsf(x[4*i + 0]),  m1 += fabsf(x[4*i + 0]) * k++;
 2173              		.loc 1 107 0 discriminator 3
 2174 016c 0137     		adds	r7, r7, #1
 2175              	.LVL311:
 2176              	.L157:
 107:..\..\..\liblc3\src/spec.c ****             m0 += fabsf(x[4*i + 0]),  m1 += fabsf(x[4*i + 0]) * k++;
 2177              		.loc 1 107 0 is_stmt 0 discriminator 1
 2178 016e 5F45     		cmp	r7, fp
 2179 0170 99DB     		blt	.L158
 2180 0172 3700     		movs	r7, r6
 2181              	.LVL312:
 2182 0174 5E46     		mov	r6, fp
 2183              	.LVL313:
 2184 0176 D346     		mov	fp, r10
 2185              	.LVL314:
 2186 0178 C246     		mov	r10, r8
 2187              	.LBE144:
 114:..\..\..\liblc3\src/spec.c ****         low_bits = 8 - LC3_MIN(m, 8);
 2188              		.loc 1 114 0 is_stmt 1
 2189 017a 9149     		ldr	r1, .L195+12
 2190 017c 0198     		ldr	r0, [sp, #4]
 2191 017e FFF7FEFF 		bl	__aeabi_fmul
 2192              	.LVL315:
 2193 0182 041C     		adds	r4, r0, #0
 2194 0184 4846     		mov	r0, r9
 2195 0186 FFF7FEFF 		bl	__aeabi_i2f
 2196              	.LVL316:
 2197 018a 0299     		ldr	r1, [sp, #8]
 2198 018c FFF7FEFF 		bl	__aeabi_fmul
 2199              	.LVL317:
 2200 0190 011C     		adds	r1, r0, #0
 2201 0192 201C     		adds	r0, r4, #0
 2202 0194 FFF7FEFF 		bl	__aeabi_fdiv
 2203              	.LVL318:
 2204 0198 FFF7FEFF 		bl	roundf
 2205              	.LVL319:
 2206 019c FFF7FEFF 		bl	__aeabi_f2iz
 2207              	.LVL320:
 115:..\..\..\liblc3\src/spec.c ****     }
 2208              		.loc 1 115 0
 2209 01a0 0828     		cmp	r0, #8
 2210 01a2 00DD     		ble	.L159
 2211 01a4 0820     		movs	r0, #8
 2212              	.LVL321:
ARM GAS  C:\Users\rdn\AppData\Local\Temp\cciiQw7C.s 			page 58


 2213              	.L159:
 2214 01a6 0823     		movs	r3, #8
 2215 01a8 181A     		subs	r0, r3, r0
 2216 01aa FFF7FEFF 		bl	__aeabi_i2f
 2217              	.LVL322:
 2218 01ae 8046     		mov	r8, r0
 2219              	.LVL323:
 2220 01b0 03E0     		b	.L154
 2221              	.LVL324:
 2222              	.L183:
 2223              	.LBE142:
  93:..\..\..\liblc3\src/spec.c **** 
 2224              		.loc 1 93 0
 2225 01b2 0023     		movs	r3, #0
 2226 01b4 9846     		mov	r8, r3
 2227              	.LVL325:
  92:..\..\..\liblc3\src/spec.c ****     float low_bits = 0;
 2228              		.loc 1 92 0
 2229 01b6 0023     		movs	r3, #0
 2230 01b8 9A46     		mov	r10, r3
 2231              	.LVL326:
 2232              	.L154:
 2233              	.LBB145:
 122:..\..\..\liblc3\src/spec.c ****         float x0 = x[4*i + 0] * x[4*i + 0];
 2234              		.loc 1 122 0
 2235 01ba 0025     		movs	r5, #0
 2236              	.LBE145:
 120:..\..\..\liblc3\src/spec.c **** 
 2237              		.loc 1 120 0
 2238 01bc 0023     		movs	r3, #0
 2239 01be 0393     		str	r3, [sp, #12]
 2240 01c0 D146     		mov	r9, r10
 2241 01c2 3B00     		movs	r3, r7
 2242 01c4 2F00     		movs	r7, r5
 2243              	.LVL327:
 2244 01c6 3500     		movs	r5, r6
 2245 01c8 1E00     		movs	r6, r3
 2246              	.LVL328:
 2247              	.LBB147:
 122:..\..\..\liblc3\src/spec.c ****         float x0 = x[4*i + 0] * x[4*i + 0];
 2248              		.loc 1 122 0
 2249 01ca 36E0     		b	.L160
 2250              	.LVL329:
 2251              	.L161:
 2252              	.LBB146:
 123:..\..\..\liblc3\src/spec.c ****         float x1 = x[4*i + 1] * x[4*i + 1];
 2253              		.loc 1 123 0 discriminator 3
 2254 01cc 3C01     		lsls	r4, r7, #4
 2255 01ce 3159     		ldr	r1, [r6, r4]
 2256 01d0 081C     		adds	r0, r1, #0
 2257 01d2 FFF7FEFF 		bl	__aeabi_fmul
 2258              	.LVL330:
 2259 01d6 0090     		str	r0, [sp]
 2260              	.LVL331:
 124:..\..\..\liblc3\src/spec.c ****         float x2 = x[4*i + 2] * x[4*i + 2];
 2261              		.loc 1 124 0 discriminator 3
 2262 01d8 231D     		adds	r3, r4, #4
ARM GAS  C:\Users\rdn\AppData\Local\Temp\cciiQw7C.s 			page 59


 2263 01da F058     		ldr	r0, [r6, r3]
 2264              	.LVL332:
 2265 01dc 011C     		adds	r1, r0, #0
 2266 01de FFF7FEFF 		bl	__aeabi_fmul
 2267              	.LVL333:
 2268 01e2 0190     		str	r0, [sp, #4]
 2269              	.LVL334:
 125:..\..\..\liblc3\src/spec.c ****         float x3 = x[4*i + 3] * x[4*i + 3];
 2270              		.loc 1 125 0 discriminator 3
 2271 01e4 2300     		movs	r3, r4
 2272 01e6 0833     		adds	r3, r3, #8
 2273 01e8 F058     		ldr	r0, [r6, r3]
 2274              	.LVL335:
 2275 01ea 011C     		adds	r1, r0, #0
 2276 01ec FFF7FEFF 		bl	__aeabi_fmul
 2277              	.LVL336:
 2278 01f0 0290     		str	r0, [sp, #8]
 2279              	.LVL337:
 126:..\..\..\liblc3\src/spec.c **** 
 2280              		.loc 1 126 0 discriminator 3
 2281 01f2 0C34     		adds	r4, r4, #12
 2282 01f4 3059     		ldr	r0, [r6, r4]
 2283              	.LVL338:
 2284 01f6 011C     		adds	r1, r0, #0
 2285 01f8 FFF7FEFF 		bl	__aeabi_fmul
 2286              	.LVL339:
 2287 01fc 041C     		adds	r4, r0, #0
 2288              	.LVL340:
 128:..\..\..\liblc3\src/spec.c ****         x2_max = fmaxf(x2_max, x1);
 2289              		.loc 1 128 0 discriminator 3
 2290 01fe 0099     		ldr	r1, [sp]
 2291 0200 0398     		ldr	r0, [sp, #12]
 2292              	.LVL341:
 2293 0202 FFF7FEFF 		bl	fmaxf
 2294              	.LVL342:
 129:..\..\..\liblc3\src/spec.c ****         x2_max = fmaxf(x2_max, x2);
 2295              		.loc 1 129 0 discriminator 3
 2296 0206 0199     		ldr	r1, [sp, #4]
 2297 0208 FFF7FEFF 		bl	fmaxf
 2298              	.LVL343:
 130:..\..\..\liblc3\src/spec.c ****         x2_max = fmaxf(x2_max, x3);
 2299              		.loc 1 130 0 discriminator 3
 2300 020c 0299     		ldr	r1, [sp, #8]
 2301 020e FFF7FEFF 		bl	fmaxf
 2302              	.LVL344:
 131:..\..\..\liblc3\src/spec.c **** 
 2303              		.loc 1 131 0 discriminator 3
 2304 0212 211C     		adds	r1, r4, #0
 2305 0214 FFF7FEFF 		bl	fmaxf
 2306              	.LVL345:
 2307 0218 0390     		str	r0, [sp, #12]
 2308              	.LVL346:
 133:..\..\..\liblc3\src/spec.c ****     }
 2309              		.loc 1 133 0 discriminator 3
 2310 021a 0199     		ldr	r1, [sp, #4]
 2311 021c 0098     		ldr	r0, [sp]
 2312              	.LVL347:
ARM GAS  C:\Users\rdn\AppData\Local\Temp\cciiQw7C.s 			page 60


 2313 021e FFF7FEFF 		bl	__aeabi_fadd
 2314              	.LVL348:
 2315 0222 011C     		adds	r1, r0, #0
 2316 0224 0298     		ldr	r0, [sp, #8]
 2317 0226 FFF7FEFF 		bl	__aeabi_fadd
 2318              	.LVL349:
 2319 022a 011C     		adds	r1, r0, #0
 2320 022c 201C     		adds	r0, r4, #0
 2321 022e FFF7FEFF 		bl	__aeabi_fadd
 2322              	.LVL350:
 2323 0232 BA00     		lsls	r2, r7, #2
 2324 0234 08AB     		add	r3, sp, #32
 2325 0236 D050     		str	r0, [r2, r3]
 2326              	.LBE146:
 122:..\..\..\liblc3\src/spec.c ****         float x0 = x[4*i + 0] * x[4*i + 0];
 2327              		.loc 1 122 0 discriminator 3
 2328 0238 0137     		adds	r7, r7, #1
 2329              	.LVL351:
 2330              	.L160:
 122:..\..\..\liblc3\src/spec.c ****         float x0 = x[4*i + 0] * x[4*i + 0];
 2331              		.loc 1 122 0 is_stmt 0 discriminator 1
 2332 023a AF42     		cmp	r7, r5
 2333 023c C6DB     		blt	.L161
 2334 023e 2E00     		movs	r6, r5
 2335              	.LVL352:
 2336              	.LBE147:
 136:..\..\..\liblc3\src/spec.c ****     float nf = lc3_hr(sr) ?
 2337              		.loc 1 136 0 is_stmt 1
 2338 0240 0398     		ldr	r0, [sp, #12]
 2339 0242 FFF7FEFF 		bl	sqrtf
 2340              	.LVL353:
 2341 0246 0190     		str	r0, [sp, #4]
 2342              	.LVL354:
 138:..\..\..\liblc3\src/spec.c **** 
 2343              		.loc 1 138 0
 2344 0248 059B     		ldr	r3, [sp, #20]
 2345 024a 042B     		cmp	r3, #4
 2346 024c 48D9     		bls	.L185
 138:..\..\..\liblc3\src/spec.c **** 
 2347              		.loc 1 138 0 is_stmt 0 discriminator 1
 2348 024e 4B46     		mov	r3, r9
 2349 0250 5C42     		rsbs	r4, r3, #0
 2350              	.LVL355:
 2351              	.LBB148:
 2352              	.LBB149:
 2353              		.file 4 "..\\..\\..\\liblc3\\src\\fastmath.h"
   1:..\..\..\liblc3\src/fastmath.h **** /******************************************************************************
   2:..\..\..\liblc3\src/fastmath.h ****  *
   3:..\..\..\liblc3\src/fastmath.h ****  *  Copyright 2022 Google LLC
   4:..\..\..\liblc3\src/fastmath.h ****  *
   5:..\..\..\liblc3\src/fastmath.h ****  *  Licensed under the Apache License, Version 2.0 (the "License");
   6:..\..\..\liblc3\src/fastmath.h ****  *  you may not use this file except in compliance with the License.
   7:..\..\..\liblc3\src/fastmath.h ****  *  You may obtain a copy of the License at:
   8:..\..\..\liblc3\src/fastmath.h ****  *
   9:..\..\..\liblc3\src/fastmath.h ****  *  http://www.apache.org/licenses/LICENSE-2.0
  10:..\..\..\liblc3\src/fastmath.h ****  *
  11:..\..\..\liblc3\src/fastmath.h ****  *  Unless required by applicable law or agreed to in writing, software
ARM GAS  C:\Users\rdn\AppData\Local\Temp\cciiQw7C.s 			page 61


  12:..\..\..\liblc3\src/fastmath.h ****  *  distributed under the License is distributed on an "AS IS" BASIS,
  13:..\..\..\liblc3\src/fastmath.h ****  *  WITHOUT WARRANTIES OR CONDITIONS OF ANY KIND, either express or implied.
  14:..\..\..\liblc3\src/fastmath.h ****  *  See the License for the specific language governing permissions and
  15:..\..\..\liblc3\src/fastmath.h ****  *  limitations under the License.
  16:..\..\..\liblc3\src/fastmath.h ****  *
  17:..\..\..\liblc3\src/fastmath.h ****  ******************************************************************************/
  18:..\..\..\liblc3\src/fastmath.h **** 
  19:..\..\..\liblc3\src/fastmath.h **** #ifndef __LC3_FASTMATH_H
  20:..\..\..\liblc3\src/fastmath.h **** #define __LC3_FASTMATH_H
  21:..\..\..\liblc3\src/fastmath.h **** 
  22:..\..\..\liblc3\src/fastmath.h **** #include <stdint.h>
  23:..\..\..\liblc3\src/fastmath.h **** #include <math.h>
  24:..\..\..\liblc3\src/fastmath.h **** 
  25:..\..\..\liblc3\src/fastmath.h **** 
  26:..\..\..\liblc3\src/fastmath.h **** /**
  27:..\..\..\liblc3\src/fastmath.h ****  * IEEE 754 Floating point representation
  28:..\..\..\liblc3\src/fastmath.h ****  */
  29:..\..\..\liblc3\src/fastmath.h **** 
  30:..\..\..\liblc3\src/fastmath.h **** #define LC3_IEEE754_SIGN_SHL   (31)
  31:..\..\..\liblc3\src/fastmath.h **** #define LC3_IEEE754_SIGN_MASK  (1 << LC3_IEEE754_SIGN_SHL)
  32:..\..\..\liblc3\src/fastmath.h **** 
  33:..\..\..\liblc3\src/fastmath.h **** #define LC3_IEEE754_EXP_SHL    (23)
  34:..\..\..\liblc3\src/fastmath.h **** #define LC3_IEEE754_EXP_MASK   (0xff << LC3_IEEE754_EXP_SHL)
  35:..\..\..\liblc3\src/fastmath.h **** #define LC3_IEEE754_EXP_BIAS   (127)
  36:..\..\..\liblc3\src/fastmath.h **** 
  37:..\..\..\liblc3\src/fastmath.h **** 
  38:..\..\..\liblc3\src/fastmath.h **** /**
  39:..\..\..\liblc3\src/fastmath.h ****  * Fast multiply floating-point number by integral power of 2
  40:..\..\..\liblc3\src/fastmath.h ****  * x               Operand, finite number
  41:..\..\..\liblc3\src/fastmath.h ****  * exp             Exponent such that 2^x is finite
  42:..\..\..\liblc3\src/fastmath.h ****  * return          2^exp
  43:..\..\..\liblc3\src/fastmath.h ****  */
  44:..\..\..\liblc3\src/fastmath.h **** static inline float lc3_ldexpf(float _x, int exp) {
  45:..\..\..\liblc3\src/fastmath.h ****     union { float f; int32_t s; } x = { .f = _x };
 2354              		.loc 4 45 0 is_stmt 1 discriminator 1
 2355 0252 0300     		movs	r3, r0
 2356              	.LVL356:
  46:..\..\..\liblc3\src/fastmath.h **** 
  47:..\..\..\liblc3\src/fastmath.h ****     if (x.s & LC3_IEEE754_EXP_MASK)
 2357              		.loc 4 47 0 discriminator 1
 2358 0254 FF22     		movs	r2, #255
 2359 0256 D205     		lsls	r2, r2, #23
 2360 0258 0242     		tst	r2, r0
 2361 025a 01D0     		beq	.L163
  48:..\..\..\liblc3\src/fastmath.h ****         x.s += exp << LC3_IEEE754_EXP_SHL;
 2362              		.loc 4 48 0
 2363 025c E405     		lsls	r4, r4, #23
 2364              	.LVL357:
 2365 025e 2318     		adds	r3, r4, r0
 2366              	.L163:
 2367              	.LVL358:
  49:..\..\..\liblc3\src/fastmath.h **** 
  50:..\..\..\liblc3\src/fastmath.h ****     return x.f;
 2368              		.loc 4 50 0
 2369 0260 1C1C     		adds	r4, r3, #0
 2370              	.LVL359:
 2371              	.LBE149:
ARM GAS  C:\Users\rdn\AppData\Local\Temp\cciiQw7C.s 			page 62


 2372              	.LBE148:
 138:..\..\..\liblc3\src/spec.c **** 
 2373              		.loc 1 138 0
 2374 0262 8023     		movs	r3, #128
 2375              	.LVL360:
 2376 0264 1B06     		lsls	r3, r3, #24
 2377 0266 4344     		add	r3, r3, r8
 2378 0268 1D00     		movs	r5, r3
 2379              	.LVL361:
 2380              	.LBB150:
 2381              	.LBB151:
  51:..\..\..\liblc3\src/fastmath.h **** }
  52:..\..\..\liblc3\src/fastmath.h **** 
  53:..\..\..\liblc3\src/fastmath.h **** /**
  54:..\..\..\liblc3\src/fastmath.h ****  * Fast convert floating-point number to fractional and integral components
  55:..\..\..\liblc3\src/fastmath.h ****  * x               Operand, finite number
  56:..\..\..\liblc3\src/fastmath.h ****  * exp             Return the exponent part
  57:..\..\..\liblc3\src/fastmath.h ****  * return          The normalized fraction in [0.5:1[
  58:..\..\..\liblc3\src/fastmath.h ****  */
  59:..\..\..\liblc3\src/fastmath.h **** static inline float lc3_frexpf(float _x, int *exp) {
  60:..\..\..\liblc3\src/fastmath.h ****     union { float f; uint32_t u; } x = { .f = _x };
  61:..\..\..\liblc3\src/fastmath.h **** 
  62:..\..\..\liblc3\src/fastmath.h ****     int e = (x.u & LC3_IEEE754_EXP_MASK) >> LC3_IEEE754_EXP_SHL;
  63:..\..\..\liblc3\src/fastmath.h ****     *exp = e - (LC3_IEEE754_EXP_BIAS - 1);
  64:..\..\..\liblc3\src/fastmath.h **** 
  65:..\..\..\liblc3\src/fastmath.h ****     x.u = (x.u & ~LC3_IEEE754_EXP_MASK) |
  66:..\..\..\liblc3\src/fastmath.h ****         ((LC3_IEEE754_EXP_BIAS - 1) << LC3_IEEE754_EXP_SHL);
  67:..\..\..\liblc3\src/fastmath.h **** 
  68:..\..\..\liblc3\src/fastmath.h ****     return x.f;
  69:..\..\..\liblc3\src/fastmath.h **** }
  70:..\..\..\liblc3\src/fastmath.h **** 
  71:..\..\..\liblc3\src/fastmath.h **** /**
  72:..\..\..\liblc3\src/fastmath.h ****  * Fast 2^n approximation
  73:..\..\..\liblc3\src/fastmath.h ****  * x               Operand, range -100 to 100
  74:..\..\..\liblc3\src/fastmath.h ****  * return          2^x approximation (max relative error ~ 4e-7)
  75:..\..\..\liblc3\src/fastmath.h ****  */
  76:..\..\..\liblc3\src/fastmath.h **** static inline float lc3_exp2f(float x)
  77:..\..\..\liblc3\src/fastmath.h **** {
  78:..\..\..\liblc3\src/fastmath.h ****     /* --- 2^(i/8) for i from 0 to 7 --- */
  79:..\..\..\liblc3\src/fastmath.h **** 
  80:..\..\..\liblc3\src/fastmath.h ****     static const float e[] = {
  81:..\..\..\liblc3\src/fastmath.h ****         1.00000000e+00, 1.09050773e+00, 1.18920712e+00, 1.29683955e+00,
  82:..\..\..\liblc3\src/fastmath.h ****         1.41421356e+00, 1.54221083e+00, 1.68179283e+00, 1.83400809e+00 };
  83:..\..\..\liblc3\src/fastmath.h **** 
  84:..\..\..\liblc3\src/fastmath.h ****     /* --- Polynomial approx in range 0 to 1/8 --- */
  85:..\..\..\liblc3\src/fastmath.h **** 
  86:..\..\..\liblc3\src/fastmath.h ****     static const float p[] = {
  87:..\..\..\liblc3\src/fastmath.h ****         1.00448128e-02, 5.54563260e-02, 2.40228756e-01, 6.93147140e-01 };
  88:..\..\..\liblc3\src/fastmath.h **** 
  89:..\..\..\liblc3\src/fastmath.h ****     /* --- Split the operand ---
  90:..\..\..\liblc3\src/fastmath.h ****      *
  91:..\..\..\liblc3\src/fastmath.h ****      * Such as x = k/8 + y, with k an integer, and |y| < 0.5/8
  92:..\..\..\liblc3\src/fastmath.h ****      *
  93:..\..\..\liblc3\src/fastmath.h ****      * Note that `fast-math` compiler option leads to rounding error,
  94:..\..\..\liblc3\src/fastmath.h ****      * disable optimisation with `volatile`. */
  95:..\..\..\liblc3\src/fastmath.h **** 
  96:..\..\..\liblc3\src/fastmath.h ****     volatile union { float f; int32_t s; } v;
ARM GAS  C:\Users\rdn\AppData\Local\Temp\cciiQw7C.s 			page 63


  97:..\..\..\liblc3\src/fastmath.h **** 
  98:..\..\..\liblc3\src/fastmath.h ****     v.f = x + 0x1.8p20f;
 2382              		.loc 4 98 0
 2383 026a 5649     		ldr	r1, .L195+16
 2384 026c 181C     		adds	r0, r3, #0
 2385              	.LVL362:
 2386 026e FFF7FEFF 		bl	__aeabi_fadd
 2387              	.LVL363:
 2388 0272 0790     		str	r0, [sp, #28]
  99:..\..\..\liblc3\src/fastmath.h ****     int k = v.s;
 2389              		.loc 4 99 0
 2390 0274 079F     		ldr	r7, [sp, #28]
 2391              	.LVL364:
 100:..\..\..\liblc3\src/fastmath.h ****     x -= v.f - 0x1.8p20f;
 2392              		.loc 4 100 0
 2393 0276 0798     		ldr	r0, [sp, #28]
 2394 0278 5249     		ldr	r1, .L195+16
 2395 027a FFF7FEFF 		bl	__aeabi_fsub
 2396              	.LVL365:
 2397 027e 011C     		adds	r1, r0, #0
 2398 0280 281C     		adds	r0, r5, #0
 2399 0282 FFF7FEFF 		bl	__aeabi_fsub
 2400              	.LVL366:
 2401 0286 051C     		adds	r5, r0, #0
 2402              	.LVL367:
 101:..\..\..\liblc3\src/fastmath.h **** 
 102:..\..\..\liblc3\src/fastmath.h ****     /* --- Compute 2^x, with |x| < 1 ---
 103:..\..\..\liblc3\src/fastmath.h ****      * Perform polynomial approximation in range -0.5/8 to 0.5/8,
 104:..\..\..\liblc3\src/fastmath.h ****      * and muplity by precomputed value of 2^(i/8), i in [0:7] */
 105:..\..\..\liblc3\src/fastmath.h **** 
 106:..\..\..\liblc3\src/fastmath.h ****     union { float f; int32_t s; } y;
 107:..\..\..\liblc3\src/fastmath.h **** 
 108:..\..\..\liblc3\src/fastmath.h ****     y.f = (      p[0]) * x;
 2403              		.loc 4 108 0
 2404 0288 4F49     		ldr	r1, .L195+20
 2405 028a FFF7FEFF 		bl	__aeabi_fmul
 2406              	.LVL368:
 109:..\..\..\liblc3\src/fastmath.h ****     y.f = (y.f + p[1]) * x;
 2407              		.loc 4 109 0
 2408 028e 4F49     		ldr	r1, .L195+24
 2409 0290 FFF7FEFF 		bl	__aeabi_fadd
 2410              	.LVL369:
 2411 0294 011C     		adds	r1, r0, #0
 2412 0296 281C     		adds	r0, r5, #0
 2413 0298 FFF7FEFF 		bl	__aeabi_fmul
 2414              	.LVL370:
 110:..\..\..\liblc3\src/fastmath.h ****     y.f = (y.f + p[2]) * x;
 2415              		.loc 4 110 0
 2416 029c 4C49     		ldr	r1, .L195+28
 2417 029e FFF7FEFF 		bl	__aeabi_fadd
 2418              	.LVL371:
 2419 02a2 011C     		adds	r1, r0, #0
 2420 02a4 281C     		adds	r0, r5, #0
 2421 02a6 FFF7FEFF 		bl	__aeabi_fmul
 2422              	.LVL372:
 111:..\..\..\liblc3\src/fastmath.h ****     y.f = (y.f + p[3]) * x;
 2423              		.loc 4 111 0
ARM GAS  C:\Users\rdn\AppData\Local\Temp\cciiQw7C.s 			page 64


 2424 02aa 4A49     		ldr	r1, .L195+32
 2425 02ac FFF7FEFF 		bl	__aeabi_fadd
 2426              	.LVL373:
 2427 02b0 011C     		adds	r1, r0, #0
 2428 02b2 281C     		adds	r0, r5, #0
 2429 02b4 FFF7FEFF 		bl	__aeabi_fmul
 2430              	.LVL374:
 112:..\..\..\liblc3\src/fastmath.h ****     y.f = (y.f +  1.f) * e[k & 7];
 2431              		.loc 4 112 0
 2432 02b8 FE21     		movs	r1, #254
 2433 02ba 8905     		lsls	r1, r1, #22
 2434 02bc FFF7FEFF 		bl	__aeabi_fadd
 2435              	.LVL375:
 2436 02c0 0723     		movs	r3, #7
 2437 02c2 3B40     		ands	r3, r7
 2438 02c4 9B00     		lsls	r3, r3, #2
 2439 02c6 444A     		ldr	r2, .L195+36
 2440 02c8 D318     		adds	r3, r2, r3
 2441 02ca 596C     		ldr	r1, [r3, #68]
 2442 02cc FFF7FEFF 		bl	__aeabi_fmul
 2443              	.LVL376:
 113:..\..\..\liblc3\src/fastmath.h **** 
 114:..\..\..\liblc3\src/fastmath.h ****     /* --- Add the exponent --- */
 115:..\..\..\liblc3\src/fastmath.h **** 
 116:..\..\..\liblc3\src/fastmath.h ****     y.s += (k >> 3) << LC3_IEEE754_EXP_SHL;
 2444              		.loc 4 116 0
 2445 02d0 FF10     		asrs	r7, r7, #3
 2446              	.LVL377:
 2447 02d2 FF05     		lsls	r7, r7, #23
 2448 02d4 3918     		adds	r1, r7, r0
 2449              	.LVL378:
 2450              	.LBE151:
 2451              	.LBE150:
 138:..\..\..\liblc3\src/spec.c **** 
 2452              		.loc 1 138 0
 2453 02d6 201C     		adds	r0, r4, #0
 2454 02d8 FFF7FEFF 		bl	__aeabi_fmul
 2455              	.LVL379:
 2456 02dc 041C     		adds	r4, r0, #0
 2457 02de 00E0     		b	.L162
 2458              	.LVL380:
 2459              	.L185:
 2460 02e0 0024     		movs	r4, #0
 2461              	.LVL381:
 2462              	.L162:
 2463              	.LBB152:
 140:..\..\..\liblc3\src/spec.c ****         e[i].q16 = lc3_db_q16(fmaxf(e[i].f + nf, 1e-10f));
 2464              		.loc 1 140 0
 2465 02e2 0025     		movs	r5, #0
 2466 02e4 29E0     		b	.L164
 2467              	.LVL382:
 2468              	.L165:
 141:..\..\..\liblc3\src/spec.c **** 
 2469              		.loc 1 141 0 discriminator 3
 2470 02e6 AF00     		lsls	r7, r5, #2
 2471 02e8 06AB     		add	r3, sp, #24
 2472 02ea 0822     		movs	r2, #8
ARM GAS  C:\Users\rdn\AppData\Local\Temp\cciiQw7C.s 			page 65


 2473 02ec 9B18     		adds	r3, r3, r2
 2474 02ee DB59     		ldr	r3, [r3, r7]
 2475 02f0 0093     		str	r3, [sp]
 2476 02f2 191C     		adds	r1, r3, #0
 2477 02f4 201C     		adds	r0, r4, #0
 2478 02f6 FFF7FEFF 		bl	__aeabi_fadd
 2479              	.LVL383:
 2480 02fa 3849     		ldr	r1, .L195+40
 2481 02fc FFF7FEFF 		bl	fmaxf
 2482              	.LVL384:
 2483              	.LBB153:
 2484              	.LBB154:
 117:..\..\..\liblc3\src/fastmath.h **** 
 118:..\..\..\liblc3\src/fastmath.h ****     return y.f;
 119:..\..\..\liblc3\src/fastmath.h **** }
 120:..\..\..\liblc3\src/fastmath.h **** 
 121:..\..\..\liblc3\src/fastmath.h **** /**
 122:..\..\..\liblc3\src/fastmath.h ****  * Fast log2(x) approximation
 123:..\..\..\liblc3\src/fastmath.h ****  * x               Operand, greater than 0
 124:..\..\..\liblc3\src/fastmath.h ****  * return          log2(x) approximation (max absolute error ~ 1e-4)
 125:..\..\..\liblc3\src/fastmath.h ****  */
 126:..\..\..\liblc3\src/fastmath.h **** static inline float lc3_log2f(float x)
 127:..\..\..\liblc3\src/fastmath.h **** {
 128:..\..\..\liblc3\src/fastmath.h ****     float y;
 129:..\..\..\liblc3\src/fastmath.h ****     int e;
 130:..\..\..\liblc3\src/fastmath.h **** 
 131:..\..\..\liblc3\src/fastmath.h ****     /* --- Polynomial approx in range 0.5 to 1 --- */
 132:..\..\..\liblc3\src/fastmath.h **** 
 133:..\..\..\liblc3\src/fastmath.h ****     static const float c[] = {
 134:..\..\..\liblc3\src/fastmath.h ****         -1.29479677, 5.11769018, -8.42295281, 8.10557963, -3.50567360 };
 135:..\..\..\liblc3\src/fastmath.h **** 
 136:..\..\..\liblc3\src/fastmath.h ****     x = lc3_frexpf(x, &e);
 137:..\..\..\liblc3\src/fastmath.h **** 
 138:..\..\..\liblc3\src/fastmath.h ****     y = (    c[0]) * x;
 139:..\..\..\liblc3\src/fastmath.h ****     y = (y + c[1]) * x;
 140:..\..\..\liblc3\src/fastmath.h ****     y = (y + c[2]) * x;
 141:..\..\..\liblc3\src/fastmath.h ****     y = (y + c[3]) * x;
 142:..\..\..\liblc3\src/fastmath.h ****     y = (y + c[4]);
 143:..\..\..\liblc3\src/fastmath.h **** 
 144:..\..\..\liblc3\src/fastmath.h ****     /* --- Add log2f(2^e) and return --- */
 145:..\..\..\liblc3\src/fastmath.h **** 
 146:..\..\..\liblc3\src/fastmath.h ****     return e + y;
 147:..\..\..\liblc3\src/fastmath.h **** }
 148:..\..\..\liblc3\src/fastmath.h **** 
 149:..\..\..\liblc3\src/fastmath.h **** /**
 150:..\..\..\liblc3\src/fastmath.h ****  * Fast log10(x) approximation
 151:..\..\..\liblc3\src/fastmath.h ****  * x               Operand, greater than 0
 152:..\..\..\liblc3\src/fastmath.h ****  * return          log10(x) approximation (max absolute error ~ 1e-4)
 153:..\..\..\liblc3\src/fastmath.h ****  */
 154:..\..\..\liblc3\src/fastmath.h **** static inline float lc3_log10f(float x)
 155:..\..\..\liblc3\src/fastmath.h **** {
 156:..\..\..\liblc3\src/fastmath.h ****     return log10f(2) * lc3_log2f(x);
 157:..\..\..\liblc3\src/fastmath.h **** }
 158:..\..\..\liblc3\src/fastmath.h **** 
 159:..\..\..\liblc3\src/fastmath.h **** /**
 160:..\..\..\liblc3\src/fastmath.h ****  * Fast `10 * log10(x)` (or dB) approximation in fixed Q16
 161:..\..\..\liblc3\src/fastmath.h ****  * x               Operand, in range 2^-63 to 2^63 (1e-19 to 1e19)
ARM GAS  C:\Users\rdn\AppData\Local\Temp\cciiQw7C.s 			page 66


 162:..\..\..\liblc3\src/fastmath.h ****  * return          10 * log10(x) in fixed Q16 (-190 to 192 dB)
 163:..\..\..\liblc3\src/fastmath.h ****  *
 164:..\..\..\liblc3\src/fastmath.h ****  * - The 0 value is accepted and return the minimum value ~ -191dB
 165:..\..\..\liblc3\src/fastmath.h ****  * - This function assumed that float 32 bits is coded IEEE 754
 166:..\..\..\liblc3\src/fastmath.h ****  */
 167:..\..\..\liblc3\src/fastmath.h **** static inline int32_t lc3_db_q16(float x)
 168:..\..\..\liblc3\src/fastmath.h **** {
 169:..\..\..\liblc3\src/fastmath.h ****     /* --- Table in Q15 --- */
 170:..\..\..\liblc3\src/fastmath.h **** 
 171:..\..\..\liblc3\src/fastmath.h ****     static const uint16_t t[][2] = {
 172:..\..\..\liblc3\src/fastmath.h **** 
 173:..\..\..\liblc3\src/fastmath.h ****         /* [n][0] = 10 * log10(2) * log2(1 + n/32), with n = [0..15]     */
 174:..\..\..\liblc3\src/fastmath.h ****         /* [n][1] = [n+1][0] - [n][0] (while defining [16][0])           */
 175:..\..\..\liblc3\src/fastmath.h **** 
 176:..\..\..\liblc3\src/fastmath.h ****         {     0, 4379 }, {  4379, 4248 }, {  8627, 4125 }, { 12753, 4009 },
 177:..\..\..\liblc3\src/fastmath.h ****         { 16762, 3899 }, { 20661, 3795 }, { 24456, 3697 }, { 28153, 3603 },
 178:..\..\..\liblc3\src/fastmath.h ****         { 31755, 3514 }, { 35269, 3429 }, { 38699, 3349 }, { 42047, 3272 },
 179:..\..\..\liblc3\src/fastmath.h ****         { 45319, 3198 }, { 48517, 3128 }, { 51645, 3061 }, { 54705, 2996 },
 180:..\..\..\liblc3\src/fastmath.h **** 
 181:..\..\..\liblc3\src/fastmath.h ****         /* [n][0] = 10 * log10(2) * log2(1 + n/32) - 10 * log10(2) / 2,  */
 182:..\..\..\liblc3\src/fastmath.h ****         /*     with n = [16..31]                                         */
 183:..\..\..\liblc3\src/fastmath.h ****         /* [n][1] = [n+1][0] - [n][0] (while defining [32][0])           */
 184:..\..\..\liblc3\src/fastmath.h **** 
 185:..\..\..\liblc3\src/fastmath.h ****         {  8381, 2934 }, { 11315, 2875 }, { 14190, 2818 }, { 17008, 2763 },
 186:..\..\..\liblc3\src/fastmath.h ****         { 19772, 2711 }, { 22482, 2660 }, { 25142, 2611 }, { 27754, 2564 },
 187:..\..\..\liblc3\src/fastmath.h ****         { 30318, 2519 }, { 32837, 2475 }, { 35312, 2433 }, { 37744, 2392 },
 188:..\..\..\liblc3\src/fastmath.h ****         { 40136, 2352 }, { 42489, 2314 }, { 44803, 2277 }, { 47080, 2241 },
 189:..\..\..\liblc3\src/fastmath.h **** 
 190:..\..\..\liblc3\src/fastmath.h ****     };
 191:..\..\..\liblc3\src/fastmath.h **** 
 192:..\..\..\liblc3\src/fastmath.h ****     /* --- Approximation ---
 193:..\..\..\liblc3\src/fastmath.h ****      *
 194:..\..\..\liblc3\src/fastmath.h ****      *   10 * log10(x^2) = 10 * log10(2) * log2(x^2)
 195:..\..\..\liblc3\src/fastmath.h ****      *
 196:..\..\..\liblc3\src/fastmath.h ****      *   And log2(x^2) = 2 * log2( (1 + m) * 2^e )
 197:..\..\..\liblc3\src/fastmath.h ****      *                 = 2 * (e + log2(1 + m)) , with m in range [0..1]
 198:..\..\..\liblc3\src/fastmath.h ****      *
 199:..\..\..\liblc3\src/fastmath.h ****      * Split the float values in :
 200:..\..\..\liblc3\src/fastmath.h ****      *   e2  Double value of the exponent (2 * e + k)
 201:..\..\..\liblc3\src/fastmath.h ****      *   hi  High 5 bits of mantissa, for precalculated result `t[hi][0]`
 202:..\..\..\liblc3\src/fastmath.h ****      *   lo  Low 16 bits of mantissa, for linear interpolation `t[hi][1]`
 203:..\..\..\liblc3\src/fastmath.h ****      *
 204:..\..\..\liblc3\src/fastmath.h ****      * Two cases, from the range of the mantissa :
 205:..\..\..\liblc3\src/fastmath.h ****      *   0 to 0.5   `k = 0`, use 1st part of the table
 206:..\..\..\liblc3\src/fastmath.h ****      *   0.5 to 1   `k = 1`, use 2nd part of the table  */
 207:..\..\..\liblc3\src/fastmath.h **** 
 208:..\..\..\liblc3\src/fastmath.h ****     union { float f; uint32_t u; } x2 = { .f = x*x };
 2485              		.loc 4 208 0 discriminator 3
 2486 0300 011C     		adds	r1, r0, #0
 2487 0302 FFF7FEFF 		bl	__aeabi_fmul
 2488              	.LVL385:
 209:..\..\..\liblc3\src/fastmath.h **** 
 210:..\..\..\liblc3\src/fastmath.h ****     int e2 = (int)(x2.u >> 22) - 2*127;
 2489              		.loc 4 210 0 discriminator 3
 2490 0306 810D     		lsrs	r1, r0, #22
 2491 0308 FE39     		subs	r1, r1, #254
 2492              	.LVL386:
ARM GAS  C:\Users\rdn\AppData\Local\Temp\cciiQw7C.s 			page 67


 211:..\..\..\liblc3\src/fastmath.h ****     int hi = (x2.u >> 18) & 0x1f;
 2493              		.loc 4 211 0 discriminator 3
 2494 030a 830C     		lsrs	r3, r0, #18
 2495 030c 1F22     		movs	r2, #31
 2496 030e 1340     		ands	r3, r2
 2497              	.LVL387:
 212:..\..\..\liblc3\src/fastmath.h ****     int lo = (x2.u >>  2) & 0xffff;
 2498              		.loc 4 212 0 discriminator 3
 2499 0310 8008     		lsrs	r0, r0, #2
 2500 0312 0204     		lsls	r2, r0, #16
 2501 0314 100C     		lsrs	r0, r2, #16
 2502              	.LVL388:
 213:..\..\..\liblc3\src/fastmath.h **** 
 214:..\..\..\liblc3\src/fastmath.h ****     return e2 * 49321 + t[hi][0] + ((t[hi][1] * lo) >> 16);
 2503              		.loc 4 214 0 discriminator 3
 2504 0316 324A     		ldr	r2, .L195+44
 2505 0318 5143     		muls	r1, r2
 2506              	.LVL389:
 2507 031a 9B00     		lsls	r3, r3, #2
 2508              	.LVL390:
 2509 031c 2E4A     		ldr	r2, .L195+36
 2510 031e D318     		adds	r3, r2, r3
 2511 0320 6422     		movs	r2, #100
 2512 0322 9A5A     		ldrh	r2, [r3, r2]
 2513 0324 5118     		adds	r1, r2, r1
 2514 0326 6633     		adds	r3, r3, #102
 2515 0328 1A88     		ldrh	r2, [r3]
 2516 032a 4243     		muls	r2, r0
 2517 032c 1214     		asrs	r2, r2, #16
 2518 032e 8B18     		adds	r3, r1, r2
 2519              	.LVL391:
 2520              	.LBE154:
 2521              	.LBE153:
 141:..\..\..\liblc3\src/spec.c **** 
 2522              		.loc 1 141 0 discriminator 3
 2523 0330 06AA     		add	r2, sp, #24
 2524 0332 0821     		movs	r1, #8
 2525 0334 5218     		adds	r2, r2, r1
 2526 0336 D351     		str	r3, [r2, r7]
 140:..\..\..\liblc3\src/spec.c ****         e[i].q16 = lc3_db_q16(fmaxf(e[i].f + nf, 1e-10f));
 2527              		.loc 1 140 0 discriminator 3
 2528 0338 0135     		adds	r5, r5, #1
 2529              	.LVL392:
 2530              	.L164:
 140:..\..\..\liblc3\src/spec.c ****         e[i].q16 = lc3_db_q16(fmaxf(e[i].f + nf, 1e-10f));
 2531              		.loc 1 140 0 is_stmt 0 discriminator 1
 2532 033a B542     		cmp	r5, r6
 2533 033c D3DB     		blt	.L165
 2534              	.LBE152:
 145:..\..\..\liblc3\src/spec.c ****     int g_int = 255 - g_off;
 2535              		.loc 1 145 0 is_stmt 1
 2536 033e FFAB     		add	r3, sp, #1020
 2537 0340 2C33     		adds	r3, r3, #44
 2538 0342 1868     		ldr	r0, [r3]
 2539 0344 FFF7FEFF 		bl	__aeabi_i2f
 2540              	.LVL393:
 2541 0348 FFAB     		add	r3, sp, #1020
ARM GAS  C:\Users\rdn\AppData\Local\Temp\cciiQw7C.s 			page 68


 2542 034a 3033     		adds	r3, r3, #48
 2543 034c 1968     		ldr	r1, [r3]
 2544 034e FFF7FEFF 		bl	__aeabi_fadd
 2545              	.LVL394:
 2546 0352 FC21     		movs	r1, #252
 2547 0354 8905     		lsls	r1, r1, #22
 2548 0356 FFF7FEFF 		bl	__aeabi_fadd
 2549              	.LVL395:
 2550 035a FFF7FEFF 		bl	__aeabi_f2iz
 2551              	.LVL396:
 2552 035e 8046     		mov	r8, r0
 2553              	.LVL397:
 146:..\..\..\liblc3\src/spec.c **** 
 2554              		.loc 1 146 0
 2555 0360 FF23     		movs	r3, #255
 2556 0362 FFAA     		add	r2, sp, #1020
 2557 0364 3432     		adds	r2, r2, #52
 2558 0366 1268     		ldr	r2, [r2]
 2559 0368 9B1A     		subs	r3, r3, r2
 2560 036a 9C46     		mov	ip, r3
 2561              	.LVL398:
 2562              	.LBB155:
 152:..\..\..\liblc3\src/spec.c ****         int gn = (g_int - i) * k_20_28;
 2563              		.loc 1 152 0
 2564 036c 731E     		subs	r3, r6, #1
 2565              	.LVL399:
 2566 036e 0093     		str	r3, [sp]
 2567              	.LVL400:
 2568              	.LBE155:
 146:..\..\..\liblc3\src/spec.c **** 
 2569              		.loc 1 146 0
 2570 0370 E146     		mov	r9, ip
 2571              	.LVL401:
 2572              	.LBB158:
 152:..\..\..\liblc3\src/spec.c ****         int gn = (g_int - i) * k_20_28;
 2573              		.loc 1 152 0
 2574 0372 8027     		movs	r7, #128
 2575 0374 50E0     		b	.L166
 2576              	.LVL402:
 2577              	.L174:
 2578              	.LBB156:
 153:..\..\..\liblc3\src/spec.c ****         int v = 0;
 2579              		.loc 1 153 0
 2580 0376 4B46     		mov	r3, r9
 2581 0378 DC1B     		subs	r4, r3, r7
 2582 037a 1A49     		ldr	r1, .L195+48
 2583 037c 6143     		muls	r1, r4
 2584              	.LVL403:
 156:..\..\..\liblc3\src/spec.c **** 
 2585              		.loc 1 156 0
 2586 037e 0098     		ldr	r0, [sp]
 2587 0380 00E0     		b	.L167
 2588              	.LVL404:
 2589              	.L169:
 156:..\..\..\liblc3\src/spec.c **** 
 2590              		.loc 1 156 0 is_stmt 0 discriminator 4
 2591 0382 0138     		subs	r0, r0, #1
ARM GAS  C:\Users\rdn\AppData\Local\Temp\cciiQw7C.s 			page 69


 2592              	.LVL405:
 2593              	.L167:
 156:..\..\..\liblc3\src/spec.c **** 
 2594              		.loc 1 156 0 discriminator 1
 2595 0384 0028     		cmp	r0, #0
 2596 0386 3ADB     		blt	.L186
 156:..\..\..\liblc3\src/spec.c **** 
 2597              		.loc 1 156 0 discriminator 3
 2598 0388 8300     		lsls	r3, r0, #2
 2599 038a 08AA     		add	r2, sp, #32
 2600 038c 9B58     		ldr	r3, [r3, r2]
 2601 038e 9942     		cmp	r1, r3
 2602 0390 F7DC     		bgt	.L169
 2603 0392 0200     		movs	r2, r0
 2604 0394 0026     		movs	r6, #0
 2605 0396 34E0     		b	.L168
 2606              	.LVL406:
 2607              	.L172:
 2608              	.LBB157:
 159:..\..\..\liblc3\src/spec.c **** 
 2609              		.loc 1 159 0 is_stmt 1
 2610 0398 9300     		lsls	r3, r2, #2
 2611 039a 08AD     		add	r5, sp, #32
 2612 039c 5B59     		ldr	r3, [r3, r5]
 2613 039e 5B1A     		subs	r3, r3, r1
 2614              	.LVL407:
 161:..\..\..\liblc3\src/spec.c ****                  e_diff < 43 << 16 ?   e_diff + ( 7 << 16)
 2615              		.loc 1 161 0
 2616 03a0 29D4     		bmi	.L187
 161:..\..\..\liblc3\src/spec.c ****                  e_diff < 43 << 16 ?   e_diff + ( 7 << 16)
 2617              		.loc 1 161 0 is_stmt 0 discriminator 1
 2618 03a2 114D     		ldr	r5, .L195+52
 2619 03a4 AB42     		cmp	r3, r5
 2620 03a6 21DC     		bgt	.L171
 161:..\..\..\liblc3\src/spec.c ****                  e_diff < 43 << 16 ?   e_diff + ( 7 << 16)
 2621              		.loc 1 161 0 discriminator 3
 2622 03a8 E025     		movs	r5, #224
 2623 03aa ED02     		lsls	r5, r5, #11
 2624 03ac AA46     		mov	r10, r5
 2625 03ae 5344     		add	r3, r3, r10
 2626              	.LVL408:
 2627 03b0 22E0     		b	.L170
 2628              	.L196:
 2629 03b2 C046     		.align	2
 2630              	.L195:
 2631 03b4 FCFBFFFF 		.word	-1028
 2632 03b8 00000000 		.word	lc3_ne_2m5
 2633 03bc ACC52737 		.word	925353388
 2634 03c0 CDCCCC3F 		.word	1070386381
 2635 03c4 0000C049 		.word	1237319680
 2636 03c8 0093243C 		.word	1009029888
 2637 03cc 2C26633D 		.word	1029908012
 2638 03d0 87FE753E 		.word	1047920263
 2639 03d4 1772313F 		.word	1060205079
 2640 03d8 80000000 		.word	.LANCHOR1
 2641 03dc FFE6DB2E 		.word	786163455
 2642 03e0 A9C00000 		.word	49321
ARM GAS  C:\Users\rdn\AppData\Local\Temp\cciiQw7C.s 			page 70


 2643 03e4 DBB60000 		.word	46811
 2644 03e8 FFFF2A00 		.word	2818047
 2645              	.LVL409:
 2646              	.L171:
 163:..\..\..\liblc3\src/spec.c ****         }
 2647              		.loc 1 163 0 is_stmt 1 discriminator 4
 2648 03ec 2B4D     		ldr	r5, .L197
 2649 03ee AA46     		mov	r10, r5
 2650 03f0 5344     		add	r3, r3, r10
 2651              	.LVL410:
 161:..\..\..\liblc3\src/spec.c ****                  e_diff < 43 << 16 ?   e_diff + ( 7 << 16)
 2652              		.loc 1 161 0 discriminator 4
 2653 03f2 5B00     		lsls	r3, r3, #1
 2654              	.LVL411:
 2655 03f4 00E0     		b	.L170
 2656              	.LVL412:
 2657              	.L187:
 161:..\..\..\liblc3\src/spec.c ****                  e_diff < 43 << 16 ?   e_diff + ( 7 << 16)
 2658              		.loc 1 161 0 is_stmt 0
 2659 03f6 2A4B     		ldr	r3, .L197+4
 2660              	.LVL413:
 2661              	.L170:
 161:..\..\..\liblc3\src/spec.c ****                  e_diff < 43 << 16 ?   e_diff + ( 7 << 16)
 2662              		.loc 1 161 0 discriminator 8
 2663 03f8 F618     		adds	r6, r6, r3
 2664              	.LVL414:
 2665              	.LBE157:
 158:..\..\..\liblc3\src/spec.c ****             int e_diff = e[j].q16 - gn;
 2666              		.loc 1 158 0 is_stmt 1 discriminator 8
 2667 03fa 013A     		subs	r2, r2, #1
 2668              	.LVL415:
 2669 03fc 01E0     		b	.L168
 2670              	.LVL416:
 2671              	.L186:
 2672 03fe 0200     		movs	r2, r0
 2673 0400 0026     		movs	r6, #0
 2674              	.LVL417:
 2675              	.L168:
 158:..\..\..\liblc3\src/spec.c ****             int e_diff = e[j].q16 - gn;
 2676              		.loc 1 158 0 is_stmt 0 discriminator 2
 2677 0402 002A     		cmp	r2, #0
 2678 0404 C8DA     		bge	.L172
 166:..\..\..\liblc3\src/spec.c ****             j0 = j1;
 2679              		.loc 1 166 0 is_stmt 1
 2680 0406 274B     		ldr	r3, .L197+8
 2681 0408 4246     		mov	r2, r8
 2682              	.LVL418:
 2683 040a 5343     		muls	r3, r2
 2684 040c 9E42     		cmp	r6, r3
 2685 040e 01DD     		ble	.L188
 2686              	.LVL419:
 167:..\..\..\liblc3\src/spec.c ****         else
 2687              		.loc 1 167 0
 2688 0410 0090     		str	r0, [sp]
 2689              	.LVL420:
 2690 0412 00E0     		b	.L173
 2691              	.LVL421:
ARM GAS  C:\Users\rdn\AppData\Local\Temp\cciiQw7C.s 			page 71


 2692              	.L188:
 169:..\..\..\liblc3\src/spec.c ****     }
 2693              		.loc 1 169 0
 2694 0414 A146     		mov	r9, r4
 2695              	.LVL422:
 2696              	.L173:
 2697              	.LBE156:
 152:..\..\..\liblc3\src/spec.c ****         int gn = (g_int - i) * k_20_28;
 2698              		.loc 1 152 0 discriminator 2
 2699 0416 7F10     		asrs	r7, r7, #1
 2700              	.LVL423:
 2701              	.L166:
 152:..\..\..\liblc3\src/spec.c ****         int gn = (g_int - i) * k_20_28;
 2702              		.loc 1 152 0 is_stmt 0 discriminator 1
 2703 0418 002F     		cmp	r7, #0
 2704 041a ACDC     		bgt	.L174
 2705              	.LBE158:
 174:..\..\..\liblc3\src/spec.c **** 
 2706              		.loc 1 174 0 is_stmt 1
 2707 041c 059B     		ldr	r3, [sp, #20]
 2708 041e 042B     		cmp	r3, #4
 2709 0420 01D9     		bls	.L189
 2710 0422 214C     		ldr	r4, .L197+12
 2711 0424 00E0     		b	.L175
 2712              	.L189:
 2713 0426 214C     		ldr	r4, .L197+16
 2714              	.L175:
 2715              	.LVL424:
 176:..\..\..\liblc3\src/spec.c ****     for (int i = 128 ; i > 0; i >>= 1)
 2716              		.loc 1 176 0 discriminator 4
 2717 0428 5B46     		mov	r3, fp
 2718 042a 6246     		mov	r2, ip
 2719 042c 1A60     		str	r2, [r3]
 2720              	.LVL425:
 2721              	.LBB159:
 177:..\..\..\liblc3\src/spec.c ****         if (x_lim * unquantize_gain(*g_min - i) > x_max)
 2722              		.loc 1 177 0 discriminator 4
 2723 042e 8025     		movs	r5, #128
 2724 0430 5F46     		mov	r7, fp
 2725              	.LVL426:
 2726 0432 10E0     		b	.L176
 2727              	.LVL427:
 2728              	.L179:
 178:..\..\..\liblc3\src/spec.c ****             *g_min -= i;
 2729              		.loc 1 178 0
 2730 0434 3B68     		ldr	r3, [r7]
 2731 0436 5E1B     		subs	r6, r3, r5
 2732 0438 3000     		movs	r0, r6
 2733 043a FFF7FEFF 		bl	unquantize_gain
 2734              	.LVL428:
 2735 043e 011C     		adds	r1, r0, #0
 2736 0440 201C     		adds	r0, r4, #0
 2737 0442 FFF7FEFF 		bl	__aeabi_fmul
 2738              	.LVL429:
 2739 0446 011C     		adds	r1, r0, #0
 2740 0448 0198     		ldr	r0, [sp, #4]
 2741 044a FFF7FEFF 		bl	__aeabi_fcmplt
ARM GAS  C:\Users\rdn\AppData\Local\Temp\cciiQw7C.s 			page 72


 2742              	.LVL430:
 2743 044e 0028     		cmp	r0, #0
 2744 0450 00D0     		beq	.L177
 179:..\..\..\liblc3\src/spec.c **** 
 2745              		.loc 1 179 0
 2746 0452 3E60     		str	r6, [r7]
 2747              	.L177:
 177:..\..\..\liblc3\src/spec.c ****         if (x_lim * unquantize_gain(*g_min - i) > x_max)
 2748              		.loc 1 177 0 discriminator 2
 2749 0454 6D10     		asrs	r5, r5, #1
 2750              	.LVL431:
 2751              	.L176:
 177:..\..\..\liblc3\src/spec.c ****         if (x_lim * unquantize_gain(*g_min - i) > x_max)
 2752              		.loc 1 177 0 is_stmt 0 discriminator 1
 2753 0456 002D     		cmp	r5, #0
 2754 0458 ECDC     		bgt	.L179
 2755 045a BB46     		mov	fp, r7
 2756              	.LBE159:
 181:..\..\..\liblc3\src/spec.c ****     if (*reset_off)
 2757              		.loc 1 181 0 is_stmt 1
 2758 045c 3B68     		ldr	r3, [r7]
 2759 045e 9945     		cmp	r9, r3
 2760 0460 07DB     		blt	.L190
 181:..\..\..\liblc3\src/spec.c ****     if (*reset_off)
 2761              		.loc 1 181 0 is_stmt 0 discriminator 2
 2762 0462 0021     		movs	r1, #0
 2763 0464 0198     		ldr	r0, [sp, #4]
 2764 0466 FFF7FEFF 		bl	__aeabi_fcmpeq
 2765              	.LVL432:
 2766 046a 0028     		cmp	r0, #0
 2767 046c 03D0     		beq	.L194
 181:..\..\..\liblc3\src/spec.c ****     if (*reset_off)
 2768              		.loc 1 181 0
 2769 046e 0123     		movs	r3, #1
 2770 0470 02E0     		b	.L180
 2771              	.L190:
 2772 0472 0123     		movs	r3, #1
 2773 0474 00E0     		b	.L180
 2774              	.L194:
 2775 0476 0023     		movs	r3, #0
 2776              	.L180:
 181:..\..\..\liblc3\src/spec.c ****     if (*reset_off)
 2777              		.loc 1 181 0 discriminator 6
 2778 0478 FFAA     		add	r2, sp, #1020
 2779 047a 3832     		adds	r2, r2, #56
 2780 047c 1268     		ldr	r2, [r2]
 2781 047e 1370     		strb	r3, [r2]
 182:..\..\..\liblc3\src/spec.c ****         g_int = *g_min;
 2782              		.loc 1 182 0 is_stmt 1 discriminator 6
 2783 0480 002B     		cmp	r3, #0
 2784 0482 02D0     		beq	.L182
 183:..\..\..\liblc3\src/spec.c **** 
 2785              		.loc 1 183 0
 2786 0484 5B46     		mov	r3, fp
 2787 0486 1B68     		ldr	r3, [r3]
 2788 0488 9946     		mov	r9, r3
 2789              	.LVL433:
ARM GAS  C:\Users\rdn\AppData\Local\Temp\cciiQw7C.s 			page 73


 2790              	.L182:
 186:..\..\..\liblc3\src/spec.c **** 
 2791              		.loc 1 186 0
 2792 048a 4846     		mov	r0, r9
 2793 048c 084B     		ldr	r3, .L197+20
 2794 048e 9D44     		add	sp, sp, r3
 2795              		@ sp needed
 2796              	.LVL434:
 2797              	.LVL435:
 2798              	.LVL436:
 2799              	.LVL437:
 2800 0490 3CBC     		pop	{r2, r3, r4, r5}
 2801 0492 9046     		mov	r8, r2
 2802 0494 9946     		mov	r9, r3
 2803 0496 A246     		mov	r10, r4
 2804 0498 AB46     		mov	fp, r5
 2805 049a F0BD     		pop	{r4, r5, r6, r7, pc}
 2806              	.L198:
 2807              		.align	2
 2808              	.L197:
 2809 049c 0000EEFF 		.word	-1179648
 2810 04a0 33B30200 		.word	176947
 2811 04a4 66660100 		.word	91750
 2812 04a8 00FEFF4A 		.word	1258290688
 2813 04ac 00FEFF46 		.word	1191181824
 2814 04b0 04040000 		.word	1028
 2815              		.cfi_endproc
 2816              	.LFE22:
 2817              		.size	estimate_gain, .-estimate_gain
 2818              		.section	.text.put_noise_factor,"ax",%progbits
 2819              		.align	2
 2820              		.code	16
 2821              		.thumb_func
 2822              		.type	put_noise_factor, %function
 2823              	put_noise_factor:
 2824              	.LFB36:
 776:..\..\..\liblc3\src/spec.c ****     lc3_put_bits(bits, nf, 3);
 2825              		.loc 1 776 0
 2826              		.cfi_startproc
 2827              		@ args = 0, pretend = 0, frame = 0
 2828              		@ frame_needed = 0, uses_anonymous_args = 0
 2829              	.LVL438:
 2830 0000 10B5     		push	{r4, lr}
 2831              		.cfi_def_cfa_offset 8
 2832              		.cfi_offset 4, -8
 2833              		.cfi_offset 14, -4
 2834              	.LVL439:
 2835              	.LBB160:
 2836              	.LBB161:
 2837              		.file 5 "..\\..\\..\\liblc3\\src\\bits.h"
   1:..\..\..\liblc3\src/bits.h **** /******************************************************************************
   2:..\..\..\liblc3\src/bits.h ****  *
   3:..\..\..\liblc3\src/bits.h ****  *  Copyright 2022 Google LLC
   4:..\..\..\liblc3\src/bits.h ****  *
   5:..\..\..\liblc3\src/bits.h ****  *  Licensed under the Apache License, Version 2.0 (the "License");
   6:..\..\..\liblc3\src/bits.h ****  *  you may not use this file except in compliance with the License.
   7:..\..\..\liblc3\src/bits.h ****  *  You may obtain a copy of the License at:
ARM GAS  C:\Users\rdn\AppData\Local\Temp\cciiQw7C.s 			page 74


   8:..\..\..\liblc3\src/bits.h ****  *
   9:..\..\..\liblc3\src/bits.h ****  *  http://www.apache.org/licenses/LICENSE-2.0
  10:..\..\..\liblc3\src/bits.h ****  *
  11:..\..\..\liblc3\src/bits.h ****  *  Unless required by applicable law or agreed to in writing, software
  12:..\..\..\liblc3\src/bits.h ****  *  distributed under the License is distributed on an "AS IS" BASIS,
  13:..\..\..\liblc3\src/bits.h ****  *  WITHOUT WARRANTIES OR CONDITIONS OF ANY KIND, either express or implied.
  14:..\..\..\liblc3\src/bits.h ****  *  See the License for the specific language governing permissions and
  15:..\..\..\liblc3\src/bits.h ****  *  limitations under the License.
  16:..\..\..\liblc3\src/bits.h ****  *
  17:..\..\..\liblc3\src/bits.h ****  ******************************************************************************/
  18:..\..\..\liblc3\src/bits.h **** 
  19:..\..\..\liblc3\src/bits.h **** /**
  20:..\..\..\liblc3\src/bits.h ****  * The bitstream is written by the 2 ends of the buffer :
  21:..\..\..\liblc3\src/bits.h ****  *
  22:..\..\..\liblc3\src/bits.h ****  * - Arthmetic coder put bits while increasing memory addresses
  23:..\..\..\liblc3\src/bits.h ****  *   in the buffer (forward)
  24:..\..\..\liblc3\src/bits.h ****  *
  25:..\..\..\liblc3\src/bits.h ****  * - Plain bits are puts starting the end of the buffer, with memeory
  26:..\..\..\liblc3\src/bits.h ****  *   addresses decreasing (backward)
  27:..\..\..\liblc3\src/bits.h ****  *
  28:..\..\..\liblc3\src/bits.h ****  *       .---------------------------------------------------.
  29:..\..\..\liblc3\src/bits.h ****  *       | > > > > > > > > > > :         : < < < < < < < < < |
  30:..\..\..\liblc3\src/bits.h ****  *       '---------------------------------------------------'
  31:..\..\..\liblc3\src/bits.h ****  *       |---------------------> - - - - - - - - - - - - - ->|
  32:..\..\..\liblc3\src/bits.h ****  *                              |< - - - <-------------------|
  33:..\..\..\liblc3\src/bits.h ****  *          Arithmetic coding                  Plain bits
  34:..\..\..\liblc3\src/bits.h ****  *          `lc3_put_symbol()`               `lc3_put_bits()`
  35:..\..\..\liblc3\src/bits.h ****  *
  36:..\..\..\liblc3\src/bits.h ****  * - The forward writing is protected against buffer overflow, it cannot
  37:..\..\..\liblc3\src/bits.h ****  *   write after the buffer, but can overwrite plain bits previously
  38:..\..\..\liblc3\src/bits.h ****  *   written in the buffer.
  39:..\..\..\liblc3\src/bits.h ****  *
  40:..\..\..\liblc3\src/bits.h ****  * - The backward writing is protected against overwrite of the arithmetic
  41:..\..\..\liblc3\src/bits.h ****  *   coder bitstream. In such way, the backward bitstream is always limited
  42:..\..\..\liblc3\src/bits.h ****  *   by the aritmetic coder bitstream, and can be overwritten by him.
  43:..\..\..\liblc3\src/bits.h ****  *
  44:..\..\..\liblc3\src/bits.h ****  *       .---------------------------------------------------.
  45:..\..\..\liblc3\src/bits.h ****  *       | > > > > > > > > > > :         : < < < < < < < < < |
  46:..\..\..\liblc3\src/bits.h ****  *       '---------------------------------------------------'
  47:..\..\..\liblc3\src/bits.h ****  *       |---------------------> - - - - - - - - - - - - - ->|
  48:..\..\..\liblc3\src/bits.h ****  *       |< - - - - - - - - - - -  - - - <-------------------|
  49:..\..\..\liblc3\src/bits.h ****  *          Arithmetic coding                  Plain bits
  50:..\..\..\liblc3\src/bits.h ****  *          `lc3_get_symbol()`               `lc3_get_bits()`
  51:..\..\..\liblc3\src/bits.h ****  *
  52:..\..\..\liblc3\src/bits.h ****  * - Reading is limited to read of the complementary end of the buffer.
  53:..\..\..\liblc3\src/bits.h ****  *
  54:..\..\..\liblc3\src/bits.h ****  * - The procedure `lc3_check_bits()` returns indication that read has been
  55:..\..\..\liblc3\src/bits.h ****  *   made crossing the other bit plane.
  56:..\..\..\liblc3\src/bits.h ****  *
  57:..\..\..\liblc3\src/bits.h ****  */
  58:..\..\..\liblc3\src/bits.h **** 
  59:..\..\..\liblc3\src/bits.h **** #ifndef __LC3_BITS_H
  60:..\..\..\liblc3\src/bits.h **** #define __LC3_BITS_H
  61:..\..\..\liblc3\src/bits.h **** 
  62:..\..\..\liblc3\src/bits.h **** #include "common.h"
  63:..\..\..\liblc3\src/bits.h **** 
  64:..\..\..\liblc3\src/bits.h **** 
ARM GAS  C:\Users\rdn\AppData\Local\Temp\cciiQw7C.s 			page 75


  65:..\..\..\liblc3\src/bits.h **** /**
  66:..\..\..\liblc3\src/bits.h ****  * Bitstream mode
  67:..\..\..\liblc3\src/bits.h ****  */
  68:..\..\..\liblc3\src/bits.h **** 
  69:..\..\..\liblc3\src/bits.h **** enum lc3_bits_mode {
  70:..\..\..\liblc3\src/bits.h ****     LC3_BITS_MODE_READ,
  71:..\..\..\liblc3\src/bits.h ****     LC3_BITS_MODE_WRITE,
  72:..\..\..\liblc3\src/bits.h **** };
  73:..\..\..\liblc3\src/bits.h **** 
  74:..\..\..\liblc3\src/bits.h **** /**
  75:..\..\..\liblc3\src/bits.h ****  * Arithmetic coder symbol interval
  76:..\..\..\liblc3\src/bits.h ****  * The model split the interval in 17 symbols
  77:..\..\..\liblc3\src/bits.h ****  */
  78:..\..\..\liblc3\src/bits.h **** 
  79:..\..\..\liblc3\src/bits.h **** struct lc3_ac_symbol {
  80:..\..\..\liblc3\src/bits.h ****     uint16_t low   : 16;
  81:..\..\..\liblc3\src/bits.h ****     uint16_t range : 16;
  82:..\..\..\liblc3\src/bits.h **** };
  83:..\..\..\liblc3\src/bits.h **** 
  84:..\..\..\liblc3\src/bits.h **** struct lc3_ac_model {
  85:..\..\..\liblc3\src/bits.h ****     struct lc3_ac_symbol s[17];
  86:..\..\..\liblc3\src/bits.h **** };
  87:..\..\..\liblc3\src/bits.h **** 
  88:..\..\..\liblc3\src/bits.h **** /**
  89:..\..\..\liblc3\src/bits.h ****  * Bitstream context
  90:..\..\..\liblc3\src/bits.h ****  */
  91:..\..\..\liblc3\src/bits.h **** 
  92:..\..\..\liblc3\src/bits.h **** #define LC3_ACCU_BITS (int)(8 * sizeof(unsigned))
  93:..\..\..\liblc3\src/bits.h **** 
  94:..\..\..\liblc3\src/bits.h **** struct lc3_bits_accu {
  95:..\..\..\liblc3\src/bits.h ****     unsigned v;
  96:..\..\..\liblc3\src/bits.h ****     int n, nover;
  97:..\..\..\liblc3\src/bits.h **** };
  98:..\..\..\liblc3\src/bits.h **** 
  99:..\..\..\liblc3\src/bits.h **** #define LC3_AC_BITS (int)(24)
 100:..\..\..\liblc3\src/bits.h **** 
 101:..\..\..\liblc3\src/bits.h **** struct lc3_bits_ac {
 102:..\..\..\liblc3\src/bits.h ****     unsigned low, range;
 103:..\..\..\liblc3\src/bits.h ****     int cache, carry, carry_count;
 104:..\..\..\liblc3\src/bits.h ****     bool error;
 105:..\..\..\liblc3\src/bits.h **** };
 106:..\..\..\liblc3\src/bits.h **** 
 107:..\..\..\liblc3\src/bits.h **** struct lc3_bits_buffer {
 108:..\..\..\liblc3\src/bits.h ****     const uint8_t *start, *end;
 109:..\..\..\liblc3\src/bits.h ****     uint8_t *p_fw, *p_bw;
 110:..\..\..\liblc3\src/bits.h **** };
 111:..\..\..\liblc3\src/bits.h **** 
 112:..\..\..\liblc3\src/bits.h **** typedef struct lc3_bits {
 113:..\..\..\liblc3\src/bits.h ****     enum lc3_bits_mode mode;
 114:..\..\..\liblc3\src/bits.h ****     struct lc3_bits_ac ac;
 115:..\..\..\liblc3\src/bits.h ****     struct lc3_bits_accu accu;
 116:..\..\..\liblc3\src/bits.h ****     struct lc3_bits_buffer buffer;
 117:..\..\..\liblc3\src/bits.h **** } lc3_bits_t;
 118:..\..\..\liblc3\src/bits.h **** 
 119:..\..\..\liblc3\src/bits.h **** 
 120:..\..\..\liblc3\src/bits.h **** /**
 121:..\..\..\liblc3\src/bits.h ****  * Setup bitstream reading/writing
ARM GAS  C:\Users\rdn\AppData\Local\Temp\cciiQw7C.s 			page 76


 122:..\..\..\liblc3\src/bits.h ****  * bits            Bitstream context
 123:..\..\..\liblc3\src/bits.h ****  * mode            Either READ or WRITE mode
 124:..\..\..\liblc3\src/bits.h ****  * buffer, len     Output buffer and length (in bytes)
 125:..\..\..\liblc3\src/bits.h ****  */
 126:..\..\..\liblc3\src/bits.h **** void lc3_setup_bits(lc3_bits_t *bits,
 127:..\..\..\liblc3\src/bits.h ****     enum lc3_bits_mode mode, void *buffer, int len);
 128:..\..\..\liblc3\src/bits.h **** 
 129:..\..\..\liblc3\src/bits.h **** /**
 130:..\..\..\liblc3\src/bits.h ****  * Return number of bits left in the bitstream
 131:..\..\..\liblc3\src/bits.h ****  * bits            Bitstream context
 132:..\..\..\liblc3\src/bits.h ****  * return          Number of bits left
 133:..\..\..\liblc3\src/bits.h ****  */
 134:..\..\..\liblc3\src/bits.h **** int lc3_get_bits_left(const lc3_bits_t *bits);
 135:..\..\..\liblc3\src/bits.h **** 
 136:..\..\..\liblc3\src/bits.h **** /**
 137:..\..\..\liblc3\src/bits.h ****  * Check if error occured on bitstream reading/writing
 138:..\..\..\liblc3\src/bits.h ****  * bits            Bitstream context
 139:..\..\..\liblc3\src/bits.h ****  * return          0: Ok  -1: Bitstream overflow or AC reading error
 140:..\..\..\liblc3\src/bits.h ****  */
 141:..\..\..\liblc3\src/bits.h **** int lc3_check_bits(const lc3_bits_t *bits);
 142:..\..\..\liblc3\src/bits.h **** 
 143:..\..\..\liblc3\src/bits.h **** /**
 144:..\..\..\liblc3\src/bits.h ****  * Put a bit
 145:..\..\..\liblc3\src/bits.h ****  * bits            Bitstream context
 146:..\..\..\liblc3\src/bits.h ****  * v               Bit value, 0 or 1
 147:..\..\..\liblc3\src/bits.h ****  */
 148:..\..\..\liblc3\src/bits.h **** static inline void lc3_put_bit(lc3_bits_t *bits, int v);
 149:..\..\..\liblc3\src/bits.h **** 
 150:..\..\..\liblc3\src/bits.h **** /**
 151:..\..\..\liblc3\src/bits.h ****  * Put from 1 to 32 bits
 152:..\..\..\liblc3\src/bits.h ****  * bits            Bitstream context
 153:..\..\..\liblc3\src/bits.h ****  * v, n            Value, in range 0 to 2^n - 1, and bits count (1 to 32)
 154:..\..\..\liblc3\src/bits.h ****  */
 155:..\..\..\liblc3\src/bits.h **** static inline void lc3_put_bits(lc3_bits_t *bits, unsigned v, int n);
 156:..\..\..\liblc3\src/bits.h **** 
 157:..\..\..\liblc3\src/bits.h **** /**
 158:..\..\..\liblc3\src/bits.h ****  * Put arithmetic coder symbol
 159:..\..\..\liblc3\src/bits.h ****  * bits            Bitstream context
 160:..\..\..\liblc3\src/bits.h ****  * model, s        Model distribution and symbol value
 161:..\..\..\liblc3\src/bits.h ****  */
 162:..\..\..\liblc3\src/bits.h **** static inline void lc3_put_symbol(lc3_bits_t *bits,
 163:..\..\..\liblc3\src/bits.h ****     const struct lc3_ac_model *model, unsigned s);
 164:..\..\..\liblc3\src/bits.h **** 
 165:..\..\..\liblc3\src/bits.h **** /**
 166:..\..\..\liblc3\src/bits.h ****  * Flush and terminate bitstream writing
 167:..\..\..\liblc3\src/bits.h ****  * bits            Bitstream context
 168:..\..\..\liblc3\src/bits.h ****  */
 169:..\..\..\liblc3\src/bits.h **** void lc3_flush_bits(lc3_bits_t *bits);
 170:..\..\..\liblc3\src/bits.h **** 
 171:..\..\..\liblc3\src/bits.h **** /**
 172:..\..\..\liblc3\src/bits.h ****  * Get a bit
 173:..\..\..\liblc3\src/bits.h ****  * bits            Bitstream context
 174:..\..\..\liblc3\src/bits.h ****  */
 175:..\..\..\liblc3\src/bits.h **** static inline int lc3_get_bit(lc3_bits_t *bits);
 176:..\..\..\liblc3\src/bits.h **** 
 177:..\..\..\liblc3\src/bits.h **** /**
 178:..\..\..\liblc3\src/bits.h ****  * Get from 1 to 32 bits
ARM GAS  C:\Users\rdn\AppData\Local\Temp\cciiQw7C.s 			page 77


 179:..\..\..\liblc3\src/bits.h ****  * bits            Bitstream context
 180:..\..\..\liblc3\src/bits.h ****  * n               Number of bits to read (1 to 32)
 181:..\..\..\liblc3\src/bits.h ****  * return          The value read
 182:..\..\..\liblc3\src/bits.h ****  */
 183:..\..\..\liblc3\src/bits.h **** static inline unsigned lc3_get_bits(lc3_bits_t *bits,  int n);
 184:..\..\..\liblc3\src/bits.h **** 
 185:..\..\..\liblc3\src/bits.h **** /**
 186:..\..\..\liblc3\src/bits.h ****  * Get arithmetic coder symbol
 187:..\..\..\liblc3\src/bits.h ****  * bits            Bitstream context
 188:..\..\..\liblc3\src/bits.h ****  * model           Model distribution
 189:..\..\..\liblc3\src/bits.h ****  * return          The value read
 190:..\..\..\liblc3\src/bits.h ****  */
 191:..\..\..\liblc3\src/bits.h **** static inline unsigned lc3_get_symbol(lc3_bits_t *bits,
 192:..\..\..\liblc3\src/bits.h ****     const struct lc3_ac_model *model);
 193:..\..\..\liblc3\src/bits.h **** 
 194:..\..\..\liblc3\src/bits.h **** 
 195:..\..\..\liblc3\src/bits.h **** 
 196:..\..\..\liblc3\src/bits.h **** /* ----------------------------------------------------------------------------
 197:..\..\..\liblc3\src/bits.h ****  *  Inline implementations
 198:..\..\..\liblc3\src/bits.h ****  * -------------------------------------------------------------------------- */
 199:..\..\..\liblc3\src/bits.h **** 
 200:..\..\..\liblc3\src/bits.h **** void lc3_put_bits_generic(lc3_bits_t *bits, unsigned v, int n);
 201:..\..\..\liblc3\src/bits.h **** unsigned lc3_get_bits_generic(struct lc3_bits *bits, int n);
 202:..\..\..\liblc3\src/bits.h **** 
 203:..\..\..\liblc3\src/bits.h **** void lc3_ac_read_renorm(lc3_bits_t *bits);
 204:..\..\..\liblc3\src/bits.h **** void lc3_ac_write_renorm(lc3_bits_t *bits);
 205:..\..\..\liblc3\src/bits.h **** 
 206:..\..\..\liblc3\src/bits.h **** 
 207:..\..\..\liblc3\src/bits.h **** /**
 208:..\..\..\liblc3\src/bits.h ****  * Put a bit
 209:..\..\..\liblc3\src/bits.h ****  */
 210:..\..\..\liblc3\src/bits.h **** LC3_HOT static inline void lc3_put_bit(lc3_bits_t *bits, int v)
 211:..\..\..\liblc3\src/bits.h **** {
 212:..\..\..\liblc3\src/bits.h ****     lc3_put_bits(bits, v, 1);
 213:..\..\..\liblc3\src/bits.h **** }
 214:..\..\..\liblc3\src/bits.h **** 
 215:..\..\..\liblc3\src/bits.h **** /**
 216:..\..\..\liblc3\src/bits.h ****  * Put from 1 to 32 bits
 217:..\..\..\liblc3\src/bits.h ****  */
 218:..\..\..\liblc3\src/bits.h **** LC3_HOT static inline void lc3_put_bits(
 219:..\..\..\liblc3\src/bits.h ****     struct lc3_bits *bits, unsigned v, int n)
 220:..\..\..\liblc3\src/bits.h **** {
 221:..\..\..\liblc3\src/bits.h ****     struct lc3_bits_accu *accu = &bits->accu;
 222:..\..\..\liblc3\src/bits.h **** 
 223:..\..\..\liblc3\src/bits.h ****     if (accu->n + n <= LC3_ACCU_BITS) {
 2838              		.loc 5 223 0
 2839 0002 026A     		ldr	r2, [r0, #32]
 2840 0004 D31C     		adds	r3, r2, #3
 2841 0006 202B     		cmp	r3, #32
 2842 0008 05DC     		bgt	.L200
 224:..\..\..\liblc3\src/bits.h ****         accu->v |= v << accu->n;
 2843              		.loc 5 224 0
 2844 000a 9140     		lsls	r1, r1, r2
 2845              	.LVL440:
 2846 000c C269     		ldr	r2, [r0, #28]
 2847 000e 1143     		orrs	r1, r2
 2848 0010 C161     		str	r1, [r0, #28]
ARM GAS  C:\Users\rdn\AppData\Local\Temp\cciiQw7C.s 			page 78


 225:..\..\..\liblc3\src/bits.h ****         accu->n += n;
 2849              		.loc 5 225 0
 2850 0012 0362     		str	r3, [r0, #32]
 2851 0014 02E0     		b	.L199
 2852              	.LVL441:
 2853              	.L200:
 226:..\..\..\liblc3\src/bits.h ****     } else {
 227:..\..\..\liblc3\src/bits.h ****         lc3_put_bits_generic(bits, v, n);
 2854              		.loc 5 227 0
 2855 0016 0322     		movs	r2, #3
 2856 0018 FFF7FEFF 		bl	lc3_put_bits_generic
 2857              	.LVL442:
 2858              	.L199:
 2859              	.LBE161:
 2860              	.LBE160:
 778:..\..\..\liblc3\src/spec.c **** 
 2861              		.loc 1 778 0
 2862              		@ sp needed
 2863 001c 10BD     		pop	{r4, pc}
 2864              		.cfi_endproc
 2865              	.LFE36:
 2866              		.size	put_noise_factor, .-put_noise_factor
 2867 001e C046     		.section	.text.get_noise_factor,"ax",%progbits
 2868              		.align	2
 2869              		.code	16
 2870              		.thumb_func
 2871              		.type	get_noise_factor, %function
 2872              	get_noise_factor:
 2873              	.LFB37:
 786:..\..\..\liblc3\src/spec.c ****     return lc3_get_bits(bits, 3);
 2874              		.loc 1 786 0
 2875              		.cfi_startproc
 2876              		@ args = 0, pretend = 0, frame = 0
 2877              		@ frame_needed = 0, uses_anonymous_args = 0
 2878              	.LVL443:
 2879 0000 10B5     		push	{r4, lr}
 2880              		.cfi_def_cfa_offset 8
 2881              		.cfi_offset 4, -8
 2882              		.cfi_offset 14, -4
 2883              	.LVL444:
 2884              	.LBB162:
 2885              	.LBB163:
 228:..\..\..\liblc3\src/bits.h ****     }
 229:..\..\..\liblc3\src/bits.h **** }
 230:..\..\..\liblc3\src/bits.h **** 
 231:..\..\..\liblc3\src/bits.h **** /**
 232:..\..\..\liblc3\src/bits.h ****  * Get a bit
 233:..\..\..\liblc3\src/bits.h ****  */
 234:..\..\..\liblc3\src/bits.h **** LC3_HOT static inline int lc3_get_bit(lc3_bits_t *bits)
 235:..\..\..\liblc3\src/bits.h **** {
 236:..\..\..\liblc3\src/bits.h ****     return lc3_get_bits(bits, 1);
 237:..\..\..\liblc3\src/bits.h **** }
 238:..\..\..\liblc3\src/bits.h **** 
 239:..\..\..\liblc3\src/bits.h **** /**
 240:..\..\..\liblc3\src/bits.h ****  * Get from 1 to 32 bits
 241:..\..\..\liblc3\src/bits.h ****  */
 242:..\..\..\liblc3\src/bits.h **** LC3_HOT static inline unsigned lc3_get_bits(struct lc3_bits *bits, int n)
ARM GAS  C:\Users\rdn\AppData\Local\Temp\cciiQw7C.s 			page 79


 243:..\..\..\liblc3\src/bits.h **** {
 244:..\..\..\liblc3\src/bits.h ****     struct lc3_bits_accu *accu = &bits->accu;
 245:..\..\..\liblc3\src/bits.h **** 
 246:..\..\..\liblc3\src/bits.h ****     if (accu->n + n <= LC3_ACCU_BITS) {
 2886              		.loc 5 246 0
 2887 0002 036A     		ldr	r3, [r0, #32]
 2888 0004 DA1C     		adds	r2, r3, #3
 2889 0006 202A     		cmp	r2, #32
 2890 0008 06DC     		bgt	.L203
 2891              	.LBB164:
 247:..\..\..\liblc3\src/bits.h ****         int v = (accu->v >> accu->n) & ((1u << n) - 1);
 2892              		.loc 5 247 0
 2893 000a C169     		ldr	r1, [r0, #28]
 2894 000c D940     		lsrs	r1, r1, r3
 2895 000e 0B00     		movs	r3, r1
 2896 0010 0721     		movs	r1, #7
 2897 0012 0B40     		ands	r3, r1
 2898              	.LVL445:
 248:..\..\..\liblc3\src/bits.h ****         return (accu->n += n), v;
 2899              		.loc 5 248 0
 2900 0014 0262     		str	r2, [r0, #32]
 2901 0016 03E0     		b	.L204
 2902              	.LVL446:
 2903              	.L203:
 2904              	.LBE164:
 249:..\..\..\liblc3\src/bits.h ****     }
 250:..\..\..\liblc3\src/bits.h ****     else {
 251:..\..\..\liblc3\src/bits.h ****         return lc3_get_bits_generic(bits, n);
 2905              		.loc 5 251 0
 2906 0018 0321     		movs	r1, #3
 2907 001a FFF7FEFF 		bl	lc3_get_bits_generic
 2908              	.LVL447:
 2909 001e 0300     		movs	r3, r0
 2910              	.L204:
 2911              	.LVL448:
 2912              	.LBE163:
 2913              	.LBE162:
 788:..\..\..\liblc3\src/spec.c **** 
 2914              		.loc 1 788 0
 2915 0020 1800     		movs	r0, r3
 2916              		@ sp needed
 2917 0022 10BD     		pop	{r4, pc}
 2918              		.cfi_endproc
 2919              	.LFE37:
 2920              		.size	get_noise_factor, .-get_noise_factor
 2921              		.section	.text.put_residual,"ax",%progbits
 2922              		.align	2
 2923              		.code	16
 2924              		.thumb_func
 2925              		.type	put_residual, %function
 2926              	put_residual:
 2927              	.LFB30:
 576:..\..\..\liblc3\src/spec.c ****     float xq_lim = hrmode ? 0.5f : 10.f/16;
 2928              		.loc 1 576 0
 2929              		.cfi_startproc
 2930              		@ args = 4, pretend = 0, frame = 24
 2931              		@ frame_needed = 0, uses_anonymous_args = 0
ARM GAS  C:\Users\rdn\AppData\Local\Temp\cciiQw7C.s 			page 80


 2932              	.LVL449:
 2933 0000 F0B5     		push	{r4, r5, r6, r7, lr}
 2934              		.cfi_def_cfa_offset 20
 2935              		.cfi_offset 4, -20
 2936              		.cfi_offset 5, -16
 2937              		.cfi_offset 6, -12
 2938              		.cfi_offset 7, -8
 2939              		.cfi_offset 14, -4
 2940 0002 5F46     		mov	r7, fp
 2941 0004 5646     		mov	r6, r10
 2942 0006 4D46     		mov	r5, r9
 2943 0008 4446     		mov	r4, r8
 2944 000a F0B4     		push	{r4, r5, r6, r7}
 2945              		.cfi_def_cfa_offset 36
 2946              		.cfi_offset 8, -36
 2947              		.cfi_offset 9, -32
 2948              		.cfi_offset 10, -28
 2949              		.cfi_offset 11, -24
 2950 000c 87B0     		sub	sp, sp, #28
 2951              		.cfi_def_cfa_offset 64
 2952 000e 8146     		mov	r9, r0
 2953 0010 8846     		mov	r8, r1
 2954 0012 0592     		str	r2, [sp, #20]
 2955 0014 9B46     		mov	fp, r3
 2956 0016 109B     		ldr	r3, [sp, #64]
 2957              	.LVL450:
 2958 0018 9A46     		mov	r10, r3
 577:..\..\..\liblc3\src/spec.c ****     float xq_off = xq_lim / 2;
 2959              		.loc 1 577 0
 2960 001a 002A     		cmp	r2, #0
 2961 001c 03D0     		beq	.L219
 2962 001e FC23     		movs	r3, #252
 2963 0020 9B05     		lsls	r3, r3, #22
 2964 0022 0193     		str	r3, [sp, #4]
 2965 0024 01E0     		b	.L206
 2966              	.L219:
 2967 0026 3F4B     		ldr	r3, .L223
 2968 0028 0193     		str	r3, [sp, #4]
 2969              	.L206:
 2970              	.LVL451:
 578:..\..\..\liblc3\src/spec.c **** 
 2971              		.loc 1 578 0 discriminator 4
 2972 002a FC21     		movs	r1, #252
 2973              	.LVL452:
 2974 002c 8905     		lsls	r1, r1, #22
 2975 002e 0198     		ldr	r0, [sp, #4]
 2976              	.LVL453:
 2977 0030 FFF7FEFF 		bl	__aeabi_fmul
 2978              	.LVL454:
 2979 0034 0390     		str	r0, [sp, #12]
 2980              	.LVL455:
 2981              	.LBB172:
 580:..\..\..\liblc3\src/spec.c ****         for (int i = 0; i < n && nbits > 0; i++) {
 2982              		.loc 1 580 0 discriminator 4
 2983 0036 0023     		movs	r3, #0
 2984 0038 0493     		str	r3, [sp, #16]
 2985 003a 5FE0     		b	.L207
ARM GAS  C:\Users\rdn\AppData\Local\Temp\cciiQw7C.s 			page 81


 2986              	.LVL456:
 2987              	.L215:
 2988              	.LBB173:
 2989              	.LBB174:
 583:..\..\..\liblc3\src/spec.c ****             if (xr < xq_lim)
 2990              		.loc 1 583 0
 2991 003c B400     		lsls	r4, r6, #2
 2992 003e 5C44     		add	r4, r4, fp
 2993 0040 2768     		ldr	r7, [r4]
 2994 0042 7D00     		lsls	r5, r7, #1
 2995 0044 6D08     		lsrs	r5, r5, #1
 2996              	.LVL457:
 584:..\..\..\liblc3\src/spec.c ****                 continue;
 2997              		.loc 1 584 0
 2998 0046 291C     		adds	r1, r5, #0
 2999 0048 0198     		ldr	r0, [sp, #4]
 3000 004a FFF7FEFF 		bl	__aeabi_fcmpgt
 3001              	.LVL458:
 3002 004e 0028     		cmp	r0, #0
 3003 0050 44D1     		bne	.L208
 587:..\..\..\liblc3\src/spec.c ****             lc3_put_bit(bits, b);
 3004              		.loc 1 587 0
 3005 0052 281C     		adds	r0, r5, #0
 3006 0054 FFF7FEFF 		bl	truncf
 3007              	.LVL459:
 3008 0058 011C     		adds	r1, r0, #0
 3009 005a 281C     		adds	r0, r5, #0
 3010 005c FFF7FEFF 		bl	__aeabi_fsub
 3011              	.LVL460:
 3012 0060 011C     		adds	r1, r0, #0
 3013 0062 0125     		movs	r5, #1
 3014              	.LVL461:
 3015 0064 0198     		ldr	r0, [sp, #4]
 3016 0066 FFF7FEFF 		bl	__aeabi_fcmpgt
 3017              	.LVL462:
 3018 006a 0028     		cmp	r0, #0
 3019 006c 00D1     		bne	.L209
 3020 006e 0025     		movs	r5, #0
 3021              	.L209:
 3022 0070 EDB2     		uxtb	r5, r5
 3023 0072 0123     		movs	r3, #1
 3024 0074 6A46     		mov	r2, sp
 3025 0076 D372     		strb	r3, [r2, #11]
 3026 0078 0021     		movs	r1, #0
 3027 007a 381C     		adds	r0, r7, #0
 3028 007c FFF7FEFF 		bl	__aeabi_fcmplt
 3029              	.LVL463:
 3030 0080 0028     		cmp	r0, #0
 3031 0082 02D1     		bne	.L210
 3032 0084 0023     		movs	r3, #0
 3033 0086 6A46     		mov	r2, sp
 3034 0088 D372     		strb	r3, [r2, #11]
 3035              	.L210:
 3036 008a 6B46     		mov	r3, sp
 3037 008c DB7A     		ldrb	r3, [r3, #11]
 3038 008e 5D40     		eors	r5, r3
 3039              	.LVL464:
ARM GAS  C:\Users\rdn\AppData\Local\Temp\cciiQw7C.s 			page 82


 3040              	.LBB175:
 3041              	.LBB176:
 3042              	.LBB177:
 3043              	.LBB178:
 223:..\..\..\liblc3\src/bits.h ****         accu->v |= v << accu->n;
 3044              		.loc 5 223 0
 3045 0090 4B46     		mov	r3, r9
 3046 0092 1A6A     		ldr	r2, [r3, #32]
 3047 0094 531C     		adds	r3, r2, #1
 3048 0096 202B     		cmp	r3, #32
 3049 0098 09DC     		bgt	.L211
 224:..\..\..\liblc3\src/bits.h ****         accu->n += n;
 3050              		.loc 5 224 0
 3051 009a 2900     		movs	r1, r5
 3052 009c 9140     		lsls	r1, r1, r2
 3053 009e 0A00     		movs	r2, r1
 3054 00a0 4946     		mov	r1, r9
 3055 00a2 C969     		ldr	r1, [r1, #28]
 3056 00a4 0A43     		orrs	r2, r1
 3057 00a6 4946     		mov	r1, r9
 3058 00a8 CA61     		str	r2, [r1, #28]
 225:..\..\..\liblc3\src/bits.h ****     } else {
 3059              		.loc 5 225 0
 3060 00aa 0B62     		str	r3, [r1, #32]
 3061 00ac 04E0     		b	.L212
 3062              	.L211:
 227:..\..\..\liblc3\src/bits.h ****     }
 3063              		.loc 5 227 0
 3064 00ae 0122     		movs	r2, #1
 3065 00b0 2900     		movs	r1, r5
 3066 00b2 4846     		mov	r0, r9
 3067 00b4 FFF7FEFF 		bl	lc3_put_bits_generic
 3068              	.LVL465:
 3069              	.L212:
 3070              	.LBE178:
 3071              	.LBE177:
 3072              	.LBE176:
 3073              	.LBE175:
 589:..\..\..\liblc3\src/spec.c **** 
 3074              		.loc 1 589 0
 3075 00b8 0123     		movs	r3, #1
 3076 00ba 5B42     		rsbs	r3, r3, #0
 3077 00bc 9C46     		mov	ip, r3
 3078 00be E044     		add	r8, r8, ip
 3079              	.LVL466:
 591:..\..\..\liblc3\src/spec.c ****         }
 3080              		.loc 1 591 0
 3081 00c0 2168     		ldr	r1, [r4]
 3082 00c2 002D     		cmp	r5, #0
 3083 00c4 06D0     		beq	.L220
 591:..\..\..\liblc3\src/spec.c ****         }
 3084              		.loc 1 591 0 is_stmt 0 discriminator 1
 3085 00c6 039B     		ldr	r3, [sp, #12]
 3086 00c8 8022     		movs	r2, #128
 3087 00ca 1206     		lsls	r2, r2, #24
 3088 00cc 9446     		mov	ip, r2
 3089 00ce 6344     		add	r3, r3, ip
ARM GAS  C:\Users\rdn\AppData\Local\Temp\cciiQw7C.s 			page 83


 3090 00d0 1800     		movs	r0, r3
 3091 00d2 00E0     		b	.L213
 3092              	.L220:
 591:..\..\..\liblc3\src/spec.c ****         }
 3093              		.loc 1 591 0
 3094 00d4 0398     		ldr	r0, [sp, #12]
 3095              	.L213:
 591:..\..\..\liblc3\src/spec.c ****         }
 3096              		.loc 1 591 0 discriminator 4
 3097 00d6 FFF7FEFF 		bl	__aeabi_fadd
 3098              	.LVL467:
 3099 00da 2060     		str	r0, [r4]
 3100              	.LVL468:
 3101              	.L208:
 3102              	.LBE174:
 581:..\..\..\liblc3\src/spec.c **** 
 3103              		.loc 1 581 0 is_stmt 1 discriminator 2
 3104 00dc 0136     		adds	r6, r6, #1
 3105              	.LVL469:
 3106 00de 00E0     		b	.L218
 3107              	.LVL470:
 3108              	.L222:
 3109              	.LBE173:
 3110 00e0 0026     		movs	r6, #0
 3111              	.LVL471:
 3112              	.L218:
 3113              	.LBB179:
 581:..\..\..\liblc3\src/spec.c **** 
 3114              		.loc 1 581 0 is_stmt 0 discriminator 1
 3115 00e2 5645     		cmp	r6, r10
 3116 00e4 02DA     		bge	.L214
 581:..\..\..\liblc3\src/spec.c **** 
 3117              		.loc 1 581 0 discriminator 3
 3118 00e6 4346     		mov	r3, r8
 3119 00e8 002B     		cmp	r3, #0
 3120 00ea A7DC     		bgt	.L215
 3121              	.L214:
 3122              	.LBE179:
 594:..\..\..\liblc3\src/spec.c ****     }
 3123              		.loc 1 594 0 is_stmt 1 discriminator 2
 3124 00ec 0199     		ldr	r1, [sp, #4]
 3125 00ee 0398     		ldr	r0, [sp, #12]
 3126 00f0 FFF7FEFF 		bl	__aeabi_fmul
 3127              	.LVL472:
 3128 00f4 0390     		str	r0, [sp, #12]
 3129              	.LVL473:
 580:..\..\..\liblc3\src/spec.c ****         for (int i = 0; i < n && nbits > 0; i++) {
 3130              		.loc 1 580 0 discriminator 2
 3131 00f6 049B     		ldr	r3, [sp, #16]
 3132 00f8 0133     		adds	r3, r3, #1
 3133 00fa 0493     		str	r3, [sp, #16]
 3134              	.LVL474:
 3135              	.L207:
 580:..\..\..\liblc3\src/spec.c ****         for (int i = 0; i < n && nbits > 0; i++) {
 3136              		.loc 1 580 0 is_stmt 0 discriminator 1
 3137 00fc 059B     		ldr	r3, [sp, #20]
 3138 00fe 002B     		cmp	r3, #0
ARM GAS  C:\Users\rdn\AppData\Local\Temp\cciiQw7C.s 			page 84


 3139 0100 01D0     		beq	.L221
 580:..\..\..\liblc3\src/spec.c ****         for (int i = 0; i < n && nbits > 0; i++) {
 3140              		.loc 1 580 0
 3141 0102 1423     		movs	r3, #20
 3142 0104 00E0     		b	.L216
 3143              	.L221:
 3144 0106 0123     		movs	r3, #1
 3145              	.L216:
 580:..\..\..\liblc3\src/spec.c ****         for (int i = 0; i < n && nbits > 0; i++) {
 3146              		.loc 1 580 0 discriminator 6
 3147 0108 049A     		ldr	r2, [sp, #16]
 3148 010a 9A42     		cmp	r2, r3
 3149 010c 02DA     		bge	.L205
 580:..\..\..\liblc3\src/spec.c ****         for (int i = 0; i < n && nbits > 0; i++) {
 3150              		.loc 1 580 0 discriminator 7
 3151 010e 4346     		mov	r3, r8
 3152 0110 002B     		cmp	r3, #0
 3153 0112 E5DC     		bgt	.L222
 3154              	.L205:
 3155              	.LBE172:
 596:..\..\..\liblc3\src/spec.c **** 
 3156              		.loc 1 596 0 is_stmt 1
 3157 0114 07B0     		add	sp, sp, #28
 3158              		@ sp needed
 3159              	.LVL475:
 3160              	.LVL476:
 3161              	.LVL477:
 3162 0116 3CBC     		pop	{r2, r3, r4, r5}
 3163 0118 9046     		mov	r8, r2
 3164 011a 9946     		mov	r9, r3
 3165 011c A246     		mov	r10, r4
 3166 011e AB46     		mov	fp, r5
 3167 0120 F0BD     		pop	{r4, r5, r6, r7, pc}
 3168              	.L224:
 3169 0122 C046     		.align	2
 3170              	.L223:
 3171 0124 0000203F 		.word	1059061760
 3172              		.cfi_endproc
 3173              	.LFE30:
 3174              		.size	put_residual, .-put_residual
 3175              		.section	.text.get_residual,"ax",%progbits
 3176              		.align	2
 3177              		.code	16
 3178              		.thumb_func
 3179              		.type	get_residual, %function
 3180              	get_residual:
 3181              	.LFB31:
 607:..\..\..\liblc3\src/spec.c ****     float xq_off_1 = hrmode ? 0.25f : 5.f/16;
 3182              		.loc 1 607 0
 3183              		.cfi_startproc
 3184              		@ args = 4, pretend = 0, frame = 16
 3185              		@ frame_needed = 0, uses_anonymous_args = 0
 3186              	.LVL478:
 3187 0000 F0B5     		push	{r4, r5, r6, r7, lr}
 3188              		.cfi_def_cfa_offset 20
 3189              		.cfi_offset 4, -20
 3190              		.cfi_offset 5, -16
ARM GAS  C:\Users\rdn\AppData\Local\Temp\cciiQw7C.s 			page 85


 3191              		.cfi_offset 6, -12
 3192              		.cfi_offset 7, -8
 3193              		.cfi_offset 14, -4
 3194 0002 5F46     		mov	r7, fp
 3195 0004 5646     		mov	r6, r10
 3196 0006 4D46     		mov	r5, r9
 3197 0008 4446     		mov	r4, r8
 3198 000a F0B4     		push	{r4, r5, r6, r7}
 3199              		.cfi_def_cfa_offset 36
 3200              		.cfi_offset 8, -36
 3201              		.cfi_offset 9, -32
 3202              		.cfi_offset 10, -28
 3203              		.cfi_offset 11, -24
 3204 000c 85B0     		sub	sp, sp, #20
 3205              		.cfi_def_cfa_offset 56
 3206 000e 0700     		movs	r7, r0
 3207 0010 0E00     		movs	r6, r1
 3208 0012 9246     		mov	r10, r2
 3209 0014 9946     		mov	r9, r3
 3210 0016 0E9B     		ldr	r3, [sp, #56]
 3211              	.LVL479:
 3212 0018 9846     		mov	r8, r3
 608:..\..\..\liblc3\src/spec.c ****     float xq_off_2 = hrmode ? 0.25f : 3.f/16;
 3213              		.loc 1 608 0
 3214 001a 002A     		cmp	r2, #0
 3215 001c 03D0     		beq	.L243
 3216 001e FA23     		movs	r3, #250
 3217 0020 9B05     		lsls	r3, r3, #22
 3218 0022 0193     		str	r3, [sp, #4]
 3219 0024 01E0     		b	.L226
 3220              	.L243:
 3221 0026 3C4B     		ldr	r3, .L253
 3222 0028 0193     		str	r3, [sp, #4]
 3223              	.L226:
 3224              	.LVL480:
 609:..\..\..\liblc3\src/spec.c **** 
 3225              		.loc 1 609 0 discriminator 4
 3226 002a 5346     		mov	r3, r10
 3227 002c 002B     		cmp	r3, #0
 3228 002e 03D0     		beq	.L244
 609:..\..\..\liblc3\src/spec.c **** 
 3229              		.loc 1 609 0 is_stmt 0
 3230 0030 FA23     		movs	r3, #250
 3231 0032 9B05     		lsls	r3, r3, #22
 3232 0034 0293     		str	r3, [sp, #8]
 3233 0036 02E0     		b	.L227
 3234              	.L244:
 3235 0038 F923     		movs	r3, #249
 3236 003a 9B05     		lsls	r3, r3, #22
 3237 003c 0293     		str	r3, [sp, #8]
 3238              	.L227:
 3239              	.LBB187:
 3240 003e 0023     		movs	r3, #0
 3241 0040 9B46     		mov	fp, r3
 3242 0042 58E0     		b	.L228
 3243              	.LVL481:
 3244              	.L239:
ARM GAS  C:\Users\rdn\AppData\Local\Temp\cciiQw7C.s 			page 86


 3245              	.LBB188:
 614:..\..\..\liblc3\src/spec.c ****               continue;
 3246              		.loc 1 614 0 is_stmt 1
 3247 0044 AC00     		lsls	r4, r5, #2
 3248 0046 4C44     		add	r4, r4, r9
 3249 0048 0021     		movs	r1, #0
 3250 004a 2068     		ldr	r0, [r4]
 3251 004c FFF7FEFF 		bl	__aeabi_fcmpeq
 3252              	.LVL482:
 3253 0050 0028     		cmp	r0, #0
 3254 0052 32D1     		bne	.L229
 3255              	.LVL483:
 3256              	.LBB189:
 3257              	.LBB190:
 3258              	.LBB191:
 3259              	.LBB192:
 246:..\..\..\liblc3\src/bits.h ****         int v = (accu->v >> accu->n) & ((1u << n) - 1);
 3260              		.loc 5 246 0
 3261 0054 4346     		mov	r3, r8
 3262 0056 1B6A     		ldr	r3, [r3, #32]
 3263 0058 5A1C     		adds	r2, r3, #1
 3264 005a 202A     		cmp	r2, #32
 3265 005c 07DC     		bgt	.L230
 3266              	.LBB193:
 247:..\..\..\liblc3\src/bits.h ****         return (accu->n += n), v;
 3267              		.loc 5 247 0
 3268 005e 4146     		mov	r1, r8
 3269 0060 C969     		ldr	r1, [r1, #28]
 3270 0062 D940     		lsrs	r1, r1, r3
 3271 0064 0130     		adds	r0, r0, #1
 3272 0066 0840     		ands	r0, r1
 3273              	.LVL484:
 248:..\..\..\liblc3\src/bits.h ****     }
 3274              		.loc 5 248 0
 3275 0068 4346     		mov	r3, r8
 3276 006a 1A62     		str	r2, [r3, #32]
 3277 006c 03E0     		b	.L231
 3278              	.LVL485:
 3279              	.L230:
 3280              	.LBE193:
 3281              		.loc 5 251 0
 3282 006e 0121     		movs	r1, #1
 3283 0070 4046     		mov	r0, r8
 3284 0072 FFF7FEFF 		bl	lc3_get_bits_generic
 3285              	.LVL486:
 3286              	.L231:
 3287              	.LBE192:
 3288              	.LBE191:
 3289              	.LBE190:
 3290              	.LBE189:
 617:..\..\..\liblc3\src/spec.c ****                 x[i] -= x[i] < 0 ? xq_off_1 : xq_off_2;
 3291              		.loc 1 617 0
 3292 0076 0028     		cmp	r0, #0
 3293 0078 0FD1     		bne	.L232
 618:..\..\..\liblc3\src/spec.c ****             else
 3294              		.loc 1 618 0
 3295 007a 2368     		ldr	r3, [r4]
ARM GAS  C:\Users\rdn\AppData\Local\Temp\cciiQw7C.s 			page 87


 3296 007c 0393     		str	r3, [sp, #12]
 3297 007e 0021     		movs	r1, #0
 3298 0080 181C     		adds	r0, r3, #0
 3299 0082 FFF7FEFF 		bl	__aeabi_fcmplt
 3300              	.LVL487:
 3301 0086 0028     		cmp	r0, #0
 3302 0088 01D0     		beq	.L251
 3303 008a 0199     		ldr	r1, [sp, #4]
 3304 008c 00E0     		b	.L233
 3305              	.L251:
 3306 008e 0299     		ldr	r1, [sp, #8]
 3307              	.L233:
 618:..\..\..\liblc3\src/spec.c ****             else
 3308              		.loc 1 618 0 is_stmt 0 discriminator 4
 3309 0090 0398     		ldr	r0, [sp, #12]
 3310 0092 FFF7FEFF 		bl	__aeabi_fsub
 3311              	.LVL488:
 3312 0096 2060     		str	r0, [r4]
 3313 0098 0EE0     		b	.L235
 3314              	.L232:
 620:..\..\..\liblc3\src/spec.c **** 
 3315              		.loc 1 620 0 is_stmt 1
 3316 009a 2368     		ldr	r3, [r4]
 3317 009c 0393     		str	r3, [sp, #12]
 3318 009e 0021     		movs	r1, #0
 3319 00a0 181C     		adds	r0, r3, #0
 3320 00a2 FFF7FEFF 		bl	__aeabi_fcmpgt
 3321              	.LVL489:
 3322 00a6 0028     		cmp	r0, #0
 3323 00a8 01D0     		beq	.L252
 3324 00aa 0198     		ldr	r0, [sp, #4]
 3325 00ac 00E0     		b	.L236
 3326              	.L252:
 3327 00ae 0298     		ldr	r0, [sp, #8]
 3328              	.L236:
 620:..\..\..\liblc3\src/spec.c **** 
 3329              		.loc 1 620 0 is_stmt 0 discriminator 4
 3330 00b0 0399     		ldr	r1, [sp, #12]
 3331 00b2 FFF7FEFF 		bl	__aeabi_fadd
 3332              	.LVL490:
 3333 00b6 2060     		str	r0, [r4]
 3334              	.L235:
 622:..\..\..\liblc3\src/spec.c ****         }
 3335              		.loc 1 622 0 is_stmt 1
 3336 00b8 013E     		subs	r6, r6, #1
 3337              	.LVL491:
 3338              	.L229:
 612:..\..\..\liblc3\src/spec.c **** 
 3339              		.loc 1 612 0 discriminator 2
 3340 00ba 0135     		adds	r5, r5, #1
 3341              	.LVL492:
 3342 00bc 04E0     		b	.L242
 3343              	.LVL493:
 3344              	.L248:
 3345              	.LBE188:
 3346 00be 0025     		movs	r5, #0
 3347 00c0 4346     		mov	r3, r8
ARM GAS  C:\Users\rdn\AppData\Local\Temp\cciiQw7C.s 			page 88


 3348 00c2 0E93     		str	r3, [sp, #56]
 3349 00c4 B846     		mov	r8, r7
 3350 00c6 1F00     		movs	r7, r3
 3351              	.LVL494:
 3352              	.L242:
 3353              	.LBB194:
 612:..\..\..\liblc3\src/spec.c **** 
 3354              		.loc 1 612 0 is_stmt 0 discriminator 1
 3355 00c8 BD42     		cmp	r5, r7
 3356 00ca 01DA     		bge	.L238
 612:..\..\..\liblc3\src/spec.c **** 
 3357              		.loc 1 612 0 discriminator 3
 3358 00cc 002E     		cmp	r6, #0
 3359 00ce B9DC     		bgt	.L239
 3360              	.L238:
 3361 00d0 0E97     		str	r7, [sp, #56]
 3362 00d2 4746     		mov	r7, r8
 3363 00d4 0E9B     		ldr	r3, [sp, #56]
 3364 00d6 9846     		mov	r8, r3
 3365              	.LVL495:
 3366              	.LBE194:
 625:..\..\..\liblc3\src/spec.c ****         xq_off_2 *= 0.5f;
 3367              		.loc 1 625 0 is_stmt 1 discriminator 2
 3368 00d8 FC21     		movs	r1, #252
 3369 00da 8905     		lsls	r1, r1, #22
 3370 00dc 0198     		ldr	r0, [sp, #4]
 3371 00de FFF7FEFF 		bl	__aeabi_fmul
 3372              	.LVL496:
 3373 00e2 0190     		str	r0, [sp, #4]
 3374              	.LVL497:
 626:..\..\..\liblc3\src/spec.c ****     }
 3375              		.loc 1 626 0 discriminator 2
 3376 00e4 FC21     		movs	r1, #252
 3377 00e6 8905     		lsls	r1, r1, #22
 3378 00e8 0298     		ldr	r0, [sp, #8]
 3379              	.LVL498:
 3380 00ea FFF7FEFF 		bl	__aeabi_fmul
 3381              	.LVL499:
 3382 00ee 0290     		str	r0, [sp, #8]
 3383              	.LVL500:
 611:..\..\..\liblc3\src/spec.c ****         for (int i = 0; i < n && nbits > 0; i++) {
 3384              		.loc 1 611 0 discriminator 2
 3385 00f0 0123     		movs	r3, #1
 3386 00f2 9C46     		mov	ip, r3
 3387 00f4 E344     		add	fp, fp, ip
 3388              	.LVL501:
 3389              	.L228:
 611:..\..\..\liblc3\src/spec.c ****         for (int i = 0; i < n && nbits > 0; i++) {
 3390              		.loc 1 611 0 is_stmt 0 discriminator 1
 3391 00f6 5346     		mov	r3, r10
 3392 00f8 002B     		cmp	r3, #0
 3393 00fa 01D0     		beq	.L247
 611:..\..\..\liblc3\src/spec.c ****         for (int i = 0; i < n && nbits > 0; i++) {
 3394              		.loc 1 611 0
 3395 00fc 1423     		movs	r3, #20
 3396 00fe 00E0     		b	.L240
 3397              	.L247:
ARM GAS  C:\Users\rdn\AppData\Local\Temp\cciiQw7C.s 			page 89


 3398 0100 0123     		movs	r3, #1
 3399              	.L240:
 611:..\..\..\liblc3\src/spec.c ****         for (int i = 0; i < n && nbits > 0; i++) {
 3400              		.loc 1 611 0 discriminator 6
 3401 0102 9B45     		cmp	fp, r3
 3402 0104 01DA     		bge	.L225
 611:..\..\..\liblc3\src/spec.c ****         for (int i = 0; i < n && nbits > 0; i++) {
 3403              		.loc 1 611 0 discriminator 7
 3404 0106 002E     		cmp	r6, #0
 3405 0108 D9DC     		bgt	.L248
 3406              	.L225:
 3407              	.LBE187:
 628:..\..\..\liblc3\src/spec.c **** 
 3408              		.loc 1 628 0 is_stmt 1
 3409 010a 05B0     		add	sp, sp, #20
 3410              		@ sp needed
 3411              	.LVL502:
 3412              	.LVL503:
 3413              	.LVL504:
 3414              	.LVL505:
 3415 010c 3CBC     		pop	{r2, r3, r4, r5}
 3416 010e 9046     		mov	r8, r2
 3417 0110 9946     		mov	r9, r3
 3418 0112 A246     		mov	r10, r4
 3419 0114 AB46     		mov	fp, r5
 3420 0116 F0BD     		pop	{r4, r5, r6, r7, pc}
 3421              	.L254:
 3422              		.align	2
 3423              	.L253:
 3424 0118 0000A03E 		.word	1050673152
 3425              		.cfi_endproc
 3426              	.LFE31:
 3427              		.size	get_residual, .-get_residual
 3428              		.section	.text.put_quantized,"ax",%progbits
 3429              		.align	2
 3430              		.code	16
 3431              		.thumb_func
 3432              		.type	put_quantized, %function
 3433              	put_quantized:
 3434              	.LFB28:
 422:..\..\..\liblc3\src/spec.c ****     bool high_rate = resolve_modes(sr, nbytes, NULL);
 3435              		.loc 1 422 0
 3436              		.cfi_startproc
 3437              		@ args = 12, pretend = 0, frame = 32
 3438              		@ frame_needed = 0, uses_anonymous_args = 0
 3439              	.LVL506:
 3440 0000 F0B5     		push	{r4, r5, r6, r7, lr}
 3441              		.cfi_def_cfa_offset 20
 3442              		.cfi_offset 4, -20
 3443              		.cfi_offset 5, -16
 3444              		.cfi_offset 6, -12
 3445              		.cfi_offset 7, -8
 3446              		.cfi_offset 14, -4
 3447 0002 5F46     		mov	r7, fp
 3448 0004 5646     		mov	r6, r10
 3449 0006 4D46     		mov	r5, r9
 3450 0008 4446     		mov	r4, r8
ARM GAS  C:\Users\rdn\AppData\Local\Temp\cciiQw7C.s 			page 90


 3451 000a F0B4     		push	{r4, r5, r6, r7}
 3452              		.cfi_def_cfa_offset 36
 3453              		.cfi_offset 8, -36
 3454              		.cfi_offset 9, -32
 3455              		.cfi_offset 10, -28
 3456              		.cfi_offset 11, -24
 3457 000c 89B0     		sub	sp, sp, #36
 3458              		.cfi_def_cfa_offset 72
 3459 000e 0700     		movs	r7, r0
 3460 0010 0C00     		movs	r4, r1
 3461 0012 1500     		movs	r5, r2
 3462 0014 0692     		str	r2, [sp, #24]
 3463 0016 14AA     		add	r2, sp, #80
 3464              	.LVL507:
 3465 0018 1178     		ldrb	r1, [r2]
 3466              	.LVL508:
 3467 001a 0391     		str	r1, [sp, #12]
 423:..\..\..\liblc3\src/spec.c ****     int ne = lc3_ne(dt, sr);
 3468              		.loc 1 423 0
 3469 001c 0022     		movs	r2, #0
 3470              	.LVL509:
 3471 001e 1900     		movs	r1, r3
 3472 0020 2800     		movs	r0, r5
 3473              	.LVL510:
 3474 0022 FFF7FEFF 		bl	resolve_modes
 3475              	.LVL511:
 3476 0026 0790     		str	r0, [sp, #28]
 3477              	.LVL512:
 3478              	.LBB222:
 3479              	.LBB223:
 3480              		.loc 2 51 0
 3481 0028 AA00     		lsls	r2, r5, #2
 3482 002a B14B     		ldr	r3, .L286
 3483 002c D358     		ldr	r3, [r2, r3]
 3484 002e 0134     		adds	r4, r4, #1
 3485              	.LVL513:
 3486 0030 5C43     		muls	r4, r3
 3487 0032 0494     		str	r4, [sp, #16]
 3488              	.LVL514:
 3489              	.LBE223:
 3490              	.LBE222:
 3491              	.LBB224:
 430:..\..\..\liblc3\src/spec.c ****         const uint8_t (*lut_coeff)[4] = lc3_spectrum_lookup[high_rate][h];
 3492              		.loc 1 430 0
 3493 0034 0023     		movs	r3, #0
 3494 0036 0293     		str	r3, [sp, #8]
 3495 0038 0093     		str	r3, [sp]
 3496              	.LBE224:
 428:..\..\..\liblc3\src/spec.c **** 
 3497              		.loc 1 428 0
 3498 003a 0193     		str	r3, [sp, #4]
 3499              	.LBB249:
 430:..\..\..\liblc3\src/spec.c ****         const uint8_t (*lut_coeff)[4] = lc3_spectrum_lookup[high_rate][h];
 3500              		.loc 1 430 0
 3501 003c 4CE1     		b	.L256
 3502              	.LVL515:
 3503              	.L281:
ARM GAS  C:\Users\rdn\AppData\Local\Temp\cciiQw7C.s 			page 91


 3504              	.LBB225:
 431:..\..\..\liblc3\src/spec.c **** 
 3505              		.loc 1 431 0
 3506 003e 079B     		ldr	r3, [sp, #28]
 3507              	.LVL516:
 3508 0040 5B00     		lsls	r3, r3, #1
 3509 0042 029A     		ldr	r2, [sp, #8]
 3510 0044 9446     		mov	ip, r2
 3511 0046 6344     		add	r3, r3, ip
 3512 0048 9B02     		lsls	r3, r3, #10
 3513 004a AA4A     		ldr	r2, .L286+4
 3514 004c 9B18     		adds	r3, r3, r2
 3515 004e 0593     		str	r3, [sp, #20]
 3516              	.LVL517:
 433:..\..\..\liblc3\src/spec.c **** 
 3517              		.loc 1 433 0
 3518 0050 31E1     		b	.L257
 3519              	.LVL518:
 3520              	.L280:
 3521              	.LBB226:
 435:..\..\..\liblc3\src/spec.c ****             uint32_t a = fabsf(x[i+0]) + xq_off;
 3522              		.loc 1 435 0
 3523 0052 069B     		ldr	r3, [sp, #24]
 3524 0054 042B     		cmp	r3, #4
 3525 0056 02D9     		bls	.L282
 3526 0058 FC24     		movs	r4, #252
 3527 005a A405     		lsls	r4, r4, #22
 3528 005c 01E0     		b	.L258
 3529              	.L282:
 3530 005e FB24     		movs	r4, #251
 3531 0060 A405     		lsls	r4, r4, #22
 3532              	.L258:
 3533              	.LVL519:
 436:..\..\..\liblc3\src/spec.c ****             uint32_t b = fabsf(x[i+1]) + xq_off;
 3534              		.loc 1 436 0 discriminator 4
 3535 0062 009D     		ldr	r5, [sp]
 3536 0064 AB00     		lsls	r3, r5, #2
 3537 0066 129A     		ldr	r2, [sp, #72]
 3538 0068 9246     		mov	r10, r2
 3539 006a 9A44     		add	r10, r10, r3
 3540 006c 5346     		mov	r3, r10
 3541 006e 1B68     		ldr	r3, [r3]
 3542 0070 5900     		lsls	r1, r3, #1
 3543 0072 4908     		lsrs	r1, r1, #1
 3544 0074 201C     		adds	r0, r4, #0
 3545 0076 FFF7FEFF 		bl	__aeabi_fadd
 3546              	.LVL520:
 3547 007a FFF7FEFF 		bl	__aeabi_f2uiz
 3548              	.LVL521:
 3549 007e 8046     		mov	r8, r0
 3550              	.LVL522:
 437:..\..\..\liblc3\src/spec.c **** 
 3551              		.loc 1 437 0 discriminator 4
 3552 0080 2B00     		movs	r3, r5
 3553 0082 0133     		adds	r3, r3, #1
 3554 0084 9B00     		lsls	r3, r3, #2
 3555 0086 129A     		ldr	r2, [sp, #72]
ARM GAS  C:\Users\rdn\AppData\Local\Temp\cciiQw7C.s 			page 92


 3556 0088 9146     		mov	r9, r2
 3557 008a 9944     		add	r9, r9, r3
 3558 008c 4B46     		mov	r3, r9
 3559 008e 1B68     		ldr	r3, [r3]
 3560 0090 5900     		lsls	r1, r3, #1
 3561 0092 4908     		lsrs	r1, r1, #1
 3562 0094 201C     		adds	r0, r4, #0
 3563              	.LVL523:
 3564 0096 FFF7FEFF 		bl	__aeabi_fadd
 3565              	.LVL524:
 3566 009a FFF7FEFF 		bl	__aeabi_f2uiz
 3567              	.LVL525:
 3568 009e 0600     		movs	r6, r0
 3569              	.LVL526:
 439:..\..\..\liblc3\src/spec.c **** 
 3570              		.loc 1 439 0 discriminator 4
 3571 00a0 019B     		ldr	r3, [sp, #4]
 3572 00a2 9B00     		lsls	r3, r3, #2
 3573 00a4 059A     		ldr	r2, [sp, #20]
 3574 00a6 9346     		mov	fp, r2
 3575 00a8 9B44     		add	fp, fp, r3
 3576              	.LVL527:
 446:..\..\..\liblc3\src/spec.c ****             unsigned k = 0, shr = 0;
 3577              		.loc 1 446 0 discriminator 4
 3578 00aa 4546     		mov	r5, r8
 3579 00ac 0543     		orrs	r5, r0
 3580 00ae AD08     		lsrs	r5, r5, #2
 3581              	.LVL528:
 449:..\..\..\liblc3\src/spec.c **** 
 3582              		.loc 1 449 0 discriminator 4
 3583 00b0 00D1     		bne	.LCB4150
 3584 00b2 86E0     		b	.L283	@long jump
 3585              	.LCB4150:
 451:..\..\..\liblc3\src/spec.c ****                     lc3_put_symbol(bits,
 3586              		.loc 1 451 0
 3587 00b4 039B     		ldr	r3, [sp, #12]
 3588 00b6 002B     		cmp	r3, #0
 3589 00b8 21D0     		beq	.L284
 3590              	.LVL529:
 453:..\..\..\liblc3\src/spec.c **** 
 3591              		.loc 1 453 0
 3592 00ba 5B46     		mov	r3, fp
 3593 00bc 1B78     		ldrb	r3, [r3]
 3594 00be 1A01     		lsls	r2, r3, #4
 3595 00c0 D318     		adds	r3, r2, r3
 3596 00c2 9900     		lsls	r1, r3, #2
 452:..\..\..\liblc3\src/spec.c ****                         lc3_spectrum_models + lut[k++], 16);
 3597              		.loc 1 452 0
 3598 00c4 8C4B     		ldr	r3, .L286+8
 3599 00c6 C918     		adds	r1, r1, r3
 3600              	.LVL530:
 3601              	.LBB227:
 3602              	.LBB228:
 252:..\..\..\liblc3\src/bits.h ****     }
 253:..\..\..\liblc3\src/bits.h **** }
 254:..\..\..\liblc3\src/bits.h **** 
 255:..\..\..\liblc3\src/bits.h **** /**
ARM GAS  C:\Users\rdn\AppData\Local\Temp\cciiQw7C.s 			page 93


 256:..\..\..\liblc3\src/bits.h ****  * Put arithmetic coder symbol
 257:..\..\..\liblc3\src/bits.h ****  */
 258:..\..\..\liblc3\src/bits.h **** LC3_HOT static inline void lc3_put_symbol(
 259:..\..\..\liblc3\src/bits.h ****     struct lc3_bits *bits, const struct lc3_ac_model *model, unsigned s)
 260:..\..\..\liblc3\src/bits.h **** {
 261:..\..\..\liblc3\src/bits.h ****     const struct lc3_ac_symbol *symbols = model->s;
 262:..\..\..\liblc3\src/bits.h ****     struct lc3_bits_ac *ac = &bits->ac;
 263:..\..\..\liblc3\src/bits.h ****     unsigned range = ac->range >> 10;
 3603              		.loc 5 263 0
 3604 00c8 BB68     		ldr	r3, [r7, #8]
 3605 00ca 9A0A     		lsrs	r2, r3, #10
 3606              	.LVL531:
 264:..\..\..\liblc3\src/bits.h **** 
 265:..\..\..\liblc3\src/bits.h ****     ac->low += range * symbols[s].low;
 3607              		.loc 5 265 0
 3608 00cc 4031     		adds	r1, r1, #64
 3609              	.LVL532:
 3610 00ce 0B88     		ldrh	r3, [r1]
 3611 00d0 5343     		muls	r3, r2
 3612 00d2 7868     		ldr	r0, [r7, #4]
 3613              	.LVL533:
 3614 00d4 8446     		mov	ip, r0
 3615 00d6 6344     		add	r3, r3, ip
 3616 00d8 7B60     		str	r3, [r7, #4]
 266:..\..\..\liblc3\src/bits.h ****     ac->range = range * symbols[s].range;
 3617              		.loc 5 266 0
 3618 00da 4988     		ldrh	r1, [r1, #2]
 3619              	.LVL534:
 3620 00dc 4A43     		muls	r2, r1
 3621              	.LVL535:
 3622 00de BA60     		str	r2, [r7, #8]
 3623              	.LVL536:
 267:..\..\..\liblc3\src/bits.h **** 
 268:..\..\..\liblc3\src/bits.h ****     ac->carry |= ac->low >> 24;
 3624              		.loc 5 268 0
 3625 00e0 190E     		lsrs	r1, r3, #24
 3626 00e2 3869     		ldr	r0, [r7, #16]
 3627 00e4 0143     		orrs	r1, r0
 3628 00e6 3961     		str	r1, [r7, #16]
 269:..\..\..\liblc3\src/bits.h ****     ac->low &= 0xffffff;
 3629              		.loc 5 269 0
 3630 00e8 1B02     		lsls	r3, r3, #8
 3631 00ea 1B0A     		lsrs	r3, r3, #8
 3632 00ec 7B60     		str	r3, [r7, #4]
 270:..\..\..\liblc3\src/bits.h **** 
 271:..\..\..\liblc3\src/bits.h ****     if (ac->range < 0x10000)
 3633              		.loc 5 271 0
 3634 00ee 834B     		ldr	r3, .L286+12
 3635 00f0 9A42     		cmp	r2, r3
 3636 00f2 06D8     		bhi	.L285
 272:..\..\..\liblc3\src/bits.h ****         lc3_ac_write_renorm(bits);
 3637              		.loc 5 272 0
 3638 00f4 3800     		movs	r0, r7
 3639 00f6 FFF7FEFF 		bl	lc3_ac_write_renorm
 3640              	.LVL537:
 3641              	.LBE228:
 3642              	.LBE227:
ARM GAS  C:\Users\rdn\AppData\Local\Temp\cciiQw7C.s 			page 94


 453:..\..\..\liblc3\src/spec.c **** 
 3643              		.loc 1 453 0
 3644 00fa 0124     		movs	r4, #1
 3645              	.LVL538:
 3646 00fc 02E0     		b	.L260
 3647              	.LVL539:
 3648              	.L284:
 447:..\..\..\liblc3\src/spec.c **** 
 3649              		.loc 1 447 0
 3650 00fe 0024     		movs	r4, #0
 3651              	.LVL540:
 3652 0100 00E0     		b	.L260
 3653              	.LVL541:
 3654              	.L285:
 453:..\..\..\liblc3\src/spec.c **** 
 3655              		.loc 1 453 0
 3656 0102 0124     		movs	r4, #1
 3657              	.LVL542:
 3658              	.L260:
 455:..\..\..\liblc3\src/spec.c ****                     lc3_put_bit(bits, (a >> k) & 1);
 3659              		.loc 1 455 0
 3660 0104 039B     		ldr	r3, [sp, #12]
 3661 0106 DD40     		lsrs	r5, r5, r3
 3662              	.LVL543:
 3663 0108 3300     		movs	r3, r6
 3664 010a 4646     		mov	r6, r8
 3665              	.LVL544:
 3666 010c 9846     		mov	r8, r3
 3667              	.LVL545:
 3668 010e 49E0     		b	.L261
 3669              	.LVL546:
 3670              	.L268:
 456:..\..\..\liblc3\src/spec.c ****                     lc3_put_bit(bits, (b >> k) & 1);
 3671              		.loc 1 456 0 discriminator 3
 3672 0110 3300     		movs	r3, r6
 3673 0112 E340     		lsrs	r3, r3, r4
 3674 0114 0121     		movs	r1, #1
 3675 0116 1940     		ands	r1, r3
 3676              	.LVL547:
 3677              	.LBB229:
 3678              	.LBB230:
 3679              	.LBB231:
 3680              	.LBB232:
 223:..\..\..\liblc3\src/bits.h ****         accu->v |= v << accu->n;
 3681              		.loc 5 223 0 discriminator 3
 3682 0118 3A6A     		ldr	r2, [r7, #32]
 3683 011a 531C     		adds	r3, r2, #1
 3684 011c 202B     		cmp	r3, #32
 3685 011e 05DC     		bgt	.L262
 224:..\..\..\liblc3\src/bits.h ****         accu->n += n;
 3686              		.loc 5 224 0
 3687 0120 9140     		lsls	r1, r1, r2
 3688              	.LVL548:
 3689 0122 FA69     		ldr	r2, [r7, #28]
 3690 0124 1143     		orrs	r1, r2
 3691 0126 F961     		str	r1, [r7, #28]
 225:..\..\..\liblc3\src/bits.h ****     } else {
ARM GAS  C:\Users\rdn\AppData\Local\Temp\cciiQw7C.s 			page 95


 3692              		.loc 5 225 0
 3693 0128 3B62     		str	r3, [r7, #32]
 3694 012a 03E0     		b	.L263
 3695              	.LVL549:
 3696              	.L262:
 227:..\..\..\liblc3\src/bits.h ****     }
 3697              		.loc 5 227 0
 3698 012c 0122     		movs	r2, #1
 3699 012e 3800     		movs	r0, r7
 3700 0130 FFF7FEFF 		bl	lc3_put_bits_generic
 3701              	.LVL550:
 3702              	.L263:
 3703              	.LBE232:
 3704              	.LBE231:
 3705              	.LBE230:
 3706              	.LBE229:
 457:..\..\..\liblc3\src/spec.c ****                     lc3_put_symbol(bits,
 3707              		.loc 1 457 0 discriminator 3
 3708 0134 4346     		mov	r3, r8
 3709 0136 E340     		lsrs	r3, r3, r4
 3710 0138 0121     		movs	r1, #1
 3711 013a 1940     		ands	r1, r3
 3712              	.LVL551:
 3713              	.LBB233:
 3714              	.LBB234:
 3715              	.LBB235:
 3716              	.LBB236:
 223:..\..\..\liblc3\src/bits.h ****         accu->v |= v << accu->n;
 3717              		.loc 5 223 0 discriminator 3
 3718 013c 3A6A     		ldr	r2, [r7, #32]
 3719 013e 531C     		adds	r3, r2, #1
 3720 0140 202B     		cmp	r3, #32
 3721 0142 05DC     		bgt	.L264
 224:..\..\..\liblc3\src/bits.h ****         accu->n += n;
 3722              		.loc 5 224 0
 3723 0144 9140     		lsls	r1, r1, r2
 3724              	.LVL552:
 3725 0146 FA69     		ldr	r2, [r7, #28]
 3726 0148 1143     		orrs	r1, r2
 3727 014a F961     		str	r1, [r7, #28]
 225:..\..\..\liblc3\src/bits.h ****     } else {
 3728              		.loc 5 225 0
 3729 014c 3B62     		str	r3, [r7, #32]
 3730 014e 03E0     		b	.L265
 3731              	.LVL553:
 3732              	.L264:
 227:..\..\..\liblc3\src/bits.h ****     }
 3733              		.loc 5 227 0
 3734 0150 0122     		movs	r2, #1
 3735 0152 3800     		movs	r0, r7
 3736 0154 FFF7FEFF 		bl	lc3_put_bits_generic
 3737              	.LVL554:
 3738              	.L265:
 3739              	.LBE236:
 3740              	.LBE235:
 3741              	.LBE234:
 3742              	.LBE233:
ARM GAS  C:\Users\rdn\AppData\Local\Temp\cciiQw7C.s 			page 96


 459:..\..\..\liblc3\src/spec.c ****                 }
 3743              		.loc 1 459 0 discriminator 3
 3744 0158 2300     		movs	r3, r4
 3745 015a 032C     		cmp	r4, #3
 3746 015c 00D9     		bls	.L266
 3747              	.LVL555:
 3748 015e 0323     		movs	r3, #3
 3749              	.LVL556:
 3750              	.L266:
 3751 0160 5A46     		mov	r2, fp
 3752 0162 D35C     		ldrb	r3, [r2, r3]
 3753 0164 1A01     		lsls	r2, r3, #4
 3754 0166 D318     		adds	r3, r2, r3
 3755 0168 9900     		lsls	r1, r3, #2
 458:..\..\..\liblc3\src/spec.c ****                         lc3_spectrum_models + lut[LC3_MIN(k, 3)], 16);
 3756              		.loc 1 458 0 discriminator 3
 3757 016a 634B     		ldr	r3, .L286+8
 3758 016c C918     		adds	r1, r1, r3
 3759              	.LVL557:
 3760              	.LBB237:
 3761              	.LBB238:
 263:..\..\..\liblc3\src/bits.h **** 
 3762              		.loc 5 263 0 discriminator 3
 3763 016e BB68     		ldr	r3, [r7, #8]
 3764 0170 9A0A     		lsrs	r2, r3, #10
 3765              	.LVL558:
 265:..\..\..\liblc3\src/bits.h ****     ac->range = range * symbols[s].range;
 3766              		.loc 5 265 0 discriminator 3
 3767 0172 4031     		adds	r1, r1, #64
 3768              	.LVL559:
 3769 0174 0B88     		ldrh	r3, [r1]
 3770 0176 5343     		muls	r3, r2
 3771 0178 7868     		ldr	r0, [r7, #4]
 3772 017a 8446     		mov	ip, r0
 3773 017c 6344     		add	r3, r3, ip
 3774 017e 7B60     		str	r3, [r7, #4]
 266:..\..\..\liblc3\src/bits.h **** 
 3775              		.loc 5 266 0 discriminator 3
 3776 0180 4988     		ldrh	r1, [r1, #2]
 3777              	.LVL560:
 3778 0182 4A43     		muls	r2, r1
 3779              	.LVL561:
 3780 0184 BA60     		str	r2, [r7, #8]
 3781              	.LVL562:
 268:..\..\..\liblc3\src/bits.h ****     ac->low &= 0xffffff;
 3782              		.loc 5 268 0 discriminator 3
 3783 0186 190E     		lsrs	r1, r3, #24
 3784 0188 3869     		ldr	r0, [r7, #16]
 3785 018a 0143     		orrs	r1, r0
 3786 018c 3961     		str	r1, [r7, #16]
 269:..\..\..\liblc3\src/bits.h **** 
 3787              		.loc 5 269 0 discriminator 3
 3788 018e 1B02     		lsls	r3, r3, #8
 3789 0190 1B0A     		lsrs	r3, r3, #8
 3790 0192 7B60     		str	r3, [r7, #4]
 271:..\..\..\liblc3\src/bits.h ****         lc3_ac_write_renorm(bits);
 3791              		.loc 5 271 0 discriminator 3
ARM GAS  C:\Users\rdn\AppData\Local\Temp\cciiQw7C.s 			page 97


 3792 0194 594B     		ldr	r3, .L286+12
 3793 0196 9A42     		cmp	r2, r3
 3794 0198 02D8     		bhi	.L267
 3795              		.loc 5 272 0
 3796 019a 3800     		movs	r0, r7
 3797 019c FFF7FEFF 		bl	lc3_ac_write_renorm
 3798              	.LVL563:
 3799              	.L267:
 3800              	.LBE238:
 3801              	.LBE237:
 455:..\..\..\liblc3\src/spec.c ****                     lc3_put_bit(bits, (a >> k) & 1);
 3802              		.loc 1 455 0 discriminator 3
 3803 01a0 6D08     		lsrs	r5, r5, #1
 3804              	.LVL564:
 3805 01a2 0134     		adds	r4, r4, #1
 3806              	.LVL565:
 3807              	.L261:
 455:..\..\..\liblc3\src/spec.c ****                     lc3_put_bit(bits, (a >> k) & 1);
 3808              		.loc 1 455 0 is_stmt 0 discriminator 1
 3809 01a4 002D     		cmp	r5, #0
 3810 01a6 B3D1     		bne	.L268
 3811 01a8 4346     		mov	r3, r8
 3812 01aa B046     		mov	r8, r6
 3813              	.LVL566:
 3814 01ac 1E00     		movs	r6, r3
 3815              	.LVL567:
 462:..\..\..\liblc3\src/spec.c ****                 b >>= lsb_mode;
 3816              		.loc 1 462 0 is_stmt 1
 3817 01ae 4246     		mov	r2, r8
 3818 01b0 039B     		ldr	r3, [sp, #12]
 3819              	.LVL568:
 3820 01b2 DA40     		lsrs	r2, r2, r3
 3821 01b4 9046     		mov	r8, r2
 3822              	.LVL569:
 463:..\..\..\liblc3\src/spec.c **** 
 3823              		.loc 1 463 0
 3824 01b6 DE40     		lsrs	r6, r6, r3
 3825              	.LVL570:
 465:..\..\..\liblc3\src/spec.c ****                 k = LC3_MIN(k, 3);
 3826              		.loc 1 465 0
 3827 01b8 E51A     		subs	r5, r4, r3
 3828              	.LVL571:
 466:..\..\..\liblc3\src/spec.c ****             }
 3829              		.loc 1 466 0
 3830 01ba 032C     		cmp	r4, #3
 3831 01bc 03D9     		bls	.L259
 3832 01be 0324     		movs	r4, #3
 3833              	.LVL572:
 3834 01c0 01E0     		b	.L259
 3835              	.LVL573:
 3836              	.L283:
 447:..\..\..\liblc3\src/spec.c **** 
 3837              		.loc 1 447 0
 3838 01c2 0025     		movs	r5, #0
 3839              	.LVL574:
 3840 01c4 0024     		movs	r4, #0
 3841              	.LVL575:
ARM GAS  C:\Users\rdn\AppData\Local\Temp\cciiQw7C.s 			page 98


 3842              	.L259:
 471:..\..\..\liblc3\src/spec.c ****             if (b) lc3_put_bit(bits, x[i+1] < 0);
 3843              		.loc 1 471 0
 3844 01c6 4346     		mov	r3, r8
 3845 01c8 002B     		cmp	r3, #0
 3846 01ca 1BD0     		beq	.L270
 3847              	.LVL576:
 471:..\..\..\liblc3\src/spec.c ****             if (b) lc3_put_bit(bits, x[i+1] < 0);
 3848              		.loc 1 471 0 is_stmt 0 discriminator 1
 3849 01cc 5346     		mov	r3, r10
 3850              	.LVL577:
 3851 01ce 1868     		ldr	r0, [r3]
 3852 01d0 0123     		movs	r3, #1
 3853 01d2 9A46     		mov	r10, r3
 3854 01d4 0021     		movs	r1, #0
 3855 01d6 FFF7FEFF 		bl	__aeabi_fcmplt
 3856              	.LVL578:
 3857 01da 0028     		cmp	r0, #0
 3858 01dc 01D1     		bne	.L271
 3859 01de 0023     		movs	r3, #0
 3860 01e0 9A46     		mov	r10, r3
 3861              	.L271:
 3862              	.LVL579:
 3863              	.LBB239:
 3864              	.LBB240:
 3865              	.LBB241:
 3866              	.LBB242:
 223:..\..\..\liblc3\src/bits.h ****         accu->v |= v << accu->n;
 3867              		.loc 5 223 0 is_stmt 1 discriminator 1
 3868 01e2 3A6A     		ldr	r2, [r7, #32]
 3869 01e4 531C     		adds	r3, r2, #1
 3870 01e6 202B     		cmp	r3, #32
 3871 01e8 07DC     		bgt	.L272
 224:..\..\..\liblc3\src/bits.h ****         accu->n += n;
 3872              		.loc 5 224 0
 3873 01ea 5146     		mov	r1, r10
 3874 01ec 9140     		lsls	r1, r1, r2
 3875 01ee 0A00     		movs	r2, r1
 3876 01f0 F969     		ldr	r1, [r7, #28]
 3877 01f2 0A43     		orrs	r2, r1
 3878 01f4 FA61     		str	r2, [r7, #28]
 225:..\..\..\liblc3\src/bits.h ****     } else {
 3879              		.loc 5 225 0
 3880 01f6 3B62     		str	r3, [r7, #32]
 3881 01f8 04E0     		b	.L270
 3882              	.L272:
 227:..\..\..\liblc3\src/bits.h ****     }
 3883              		.loc 5 227 0
 3884 01fa 0122     		movs	r2, #1
 3885 01fc 5146     		mov	r1, r10
 3886 01fe 3800     		movs	r0, r7
 3887 0200 FFF7FEFF 		bl	lc3_put_bits_generic
 3888              	.LVL580:
 3889              	.L270:
 3890              	.LBE242:
 3891              	.LBE241:
 3892              	.LBE240:
ARM GAS  C:\Users\rdn\AppData\Local\Temp\cciiQw7C.s 			page 99


 3893              	.LBE239:
 472:..\..\..\liblc3\src/spec.c **** 
 3894              		.loc 1 472 0
 3895 0204 002E     		cmp	r6, #0
 3896 0206 1BD0     		beq	.L273
 472:..\..\..\liblc3\src/spec.c **** 
 3897              		.loc 1 472 0 is_stmt 0 discriminator 1
 3898 0208 4B46     		mov	r3, r9
 3899 020a 1868     		ldr	r0, [r3]
 3900 020c 0123     		movs	r3, #1
 3901 020e 9946     		mov	r9, r3
 3902 0210 0021     		movs	r1, #0
 3903 0212 FFF7FEFF 		bl	__aeabi_fcmplt
 3904              	.LVL581:
 3905 0216 0028     		cmp	r0, #0
 3906 0218 01D1     		bne	.L274
 3907 021a 0023     		movs	r3, #0
 3908 021c 9946     		mov	r9, r3
 3909              	.L274:
 3910              	.LVL582:
 3911              	.LBB243:
 3912              	.LBB244:
 3913              	.LBB245:
 3914              	.LBB246:
 223:..\..\..\liblc3\src/bits.h ****         accu->v |= v << accu->n;
 3915              		.loc 5 223 0 is_stmt 1 discriminator 1
 3916 021e 3A6A     		ldr	r2, [r7, #32]
 3917 0220 531C     		adds	r3, r2, #1
 3918 0222 202B     		cmp	r3, #32
 3919 0224 07DC     		bgt	.L275
 224:..\..\..\liblc3\src/bits.h ****         accu->n += n;
 3920              		.loc 5 224 0
 3921 0226 4946     		mov	r1, r9
 3922 0228 9140     		lsls	r1, r1, r2
 3923 022a 0A00     		movs	r2, r1
 3924 022c F969     		ldr	r1, [r7, #28]
 3925 022e 0A43     		orrs	r2, r1
 3926 0230 FA61     		str	r2, [r7, #28]
 225:..\..\..\liblc3\src/bits.h ****     } else {
 3927              		.loc 5 225 0
 3928 0232 3B62     		str	r3, [r7, #32]
 3929 0234 04E0     		b	.L273
 3930              	.L275:
 227:..\..\..\liblc3\src/bits.h ****     }
 3931              		.loc 5 227 0
 3932 0236 0122     		movs	r2, #1
 3933 0238 4946     		mov	r1, r9
 3934 023a 3800     		movs	r0, r7
 3935 023c FFF7FEFF 		bl	lc3_put_bits_generic
 3936              	.LVL583:
 3937              	.L273:
 3938              	.LBE246:
 3939              	.LBE245:
 3940              	.LBE244:
 3941              	.LBE243:
 476:..\..\..\liblc3\src/spec.c ****             b >>= shr;
 3942              		.loc 1 476 0
ARM GAS  C:\Users\rdn\AppData\Local\Temp\cciiQw7C.s 			page 100


 3943 0240 4346     		mov	r3, r8
 3944 0242 EB40     		lsrs	r3, r3, r5
 3945 0244 9846     		mov	r8, r3
 3946              	.LVL584:
 477:..\..\..\liblc3\src/spec.c **** 
 3947              		.loc 1 477 0
 3948 0246 EE40     		lsrs	r6, r6, r5
 3949              	.LVL585:
 479:..\..\..\liblc3\src/spec.c **** 
 3950              		.loc 1 479 0
 3951 0248 5B46     		mov	r3, fp
 3952              	.LVL586:
 3953 024a 1B5D     		ldrb	r3, [r3, r4]
 3954 024c 1A01     		lsls	r2, r3, #4
 3955 024e D318     		adds	r3, r2, r3
 3956 0250 9A00     		lsls	r2, r3, #2
 3957 0252 294B     		ldr	r3, .L286+8
 3958 0254 D218     		adds	r2, r2, r3
 3959 0256 B300     		lsls	r3, r6, #2
 3960 0258 4344     		add	r3, r3, r8
 3961              	.LVL587:
 3962              	.LBB247:
 3963              	.LBB248:
 263:..\..\..\liblc3\src/bits.h **** 
 3964              		.loc 5 263 0
 3965 025a B968     		ldr	r1, [r7, #8]
 3966 025c 890A     		lsrs	r1, r1, #10
 3967              	.LVL588:
 265:..\..\..\liblc3\src/bits.h ****     ac->range = range * symbols[s].range;
 3968              		.loc 5 265 0
 3969 025e 9B00     		lsls	r3, r3, #2
 3970              	.LVL589:
 3971 0260 D218     		adds	r2, r2, r3
 3972              	.LVL590:
 3973 0262 1388     		ldrh	r3, [r2]
 3974 0264 4B43     		muls	r3, r1
 3975 0266 7868     		ldr	r0, [r7, #4]
 3976 0268 8446     		mov	ip, r0
 3977 026a 6344     		add	r3, r3, ip
 3978 026c 7B60     		str	r3, [r7, #4]
 3979              	.LVL591:
 266:..\..\..\liblc3\src/bits.h **** 
 3980              		.loc 5 266 0
 3981 026e 5288     		ldrh	r2, [r2, #2]
 3982 0270 4A43     		muls	r2, r1
 3983 0272 BA60     		str	r2, [r7, #8]
 268:..\..\..\liblc3\src/bits.h ****     ac->low &= 0xffffff;
 3984              		.loc 5 268 0
 3985 0274 190E     		lsrs	r1, r3, #24
 3986              	.LVL592:
 3987 0276 3869     		ldr	r0, [r7, #16]
 3988 0278 0143     		orrs	r1, r0
 3989 027a 3961     		str	r1, [r7, #16]
 269:..\..\..\liblc3\src/bits.h **** 
 3990              		.loc 5 269 0
 3991 027c 1B02     		lsls	r3, r3, #8
 3992 027e 1B0A     		lsrs	r3, r3, #8
ARM GAS  C:\Users\rdn\AppData\Local\Temp\cciiQw7C.s 			page 101


 3993 0280 7B60     		str	r3, [r7, #4]
 271:..\..\..\liblc3\src/bits.h ****         lc3_ac_write_renorm(bits);
 3994              		.loc 5 271 0
 3995 0282 1E4B     		ldr	r3, .L286+12
 3996 0284 9A42     		cmp	r2, r3
 3997 0286 02D8     		bhi	.L276
 3998              		.loc 5 272 0
 3999 0288 3800     		movs	r0, r7
 4000 028a FFF7FEFF 		bl	lc3_ac_write_renorm
 4001              	.LVL593:
 4002              	.L276:
 4003              	.LBE248:
 4004              	.LBE247:
 483:..\..\..\liblc3\src/spec.c ****         }
 4005              		.loc 1 483 0
 4006 028e 019B     		ldr	r3, [sp, #4]
 4007 0290 1A01     		lsls	r2, r3, #4
 4008 0292 D2B2     		uxtb	r2, r2
 4009 0294 012C     		cmp	r4, #1
 4010 0296 03D9     		bls	.L277
 483:..\..\..\liblc3\src/spec.c ****         }
 4011              		.loc 1 483 0 is_stmt 0 discriminator 1
 4012 0298 2300     		movs	r3, r4
 4013 029a 0C33     		adds	r3, r3, #12
 4014 029c DCB2     		uxtb	r4, r3
 4015              	.LVL594:
 4016 029e 04E0     		b	.L278
 4017              	.LVL595:
 4018              	.L277:
 483:..\..\..\liblc3\src/spec.c ****         }
 4019              		.loc 1 483 0 discriminator 2
 4020 02a0 4644     		add	r6, r6, r8
 4021              	.LVL596:
 4022 02a2 0134     		adds	r4, r4, #1
 4023              	.LVL597:
 4024 02a4 6643     		muls	r6, r4
 4025 02a6 0136     		adds	r6, r6, #1
 4026 02a8 F4B2     		uxtb	r4, r6
 4027              	.LVL598:
 4028              	.L278:
 483:..\..\..\liblc3\src/spec.c ****         }
 4029              		.loc 1 483 0 discriminator 4
 4030 02aa A418     		adds	r4, r4, r2
 4031 02ac E3B2     		uxtb	r3, r4
 4032 02ae 0193     		str	r3, [sp, #4]
 4033              	.LVL599:
 4034              	.LBE226:
 433:..\..\..\liblc3\src/spec.c **** 
 4035              		.loc 1 433 0 is_stmt 1 discriminator 4
 4036 02b0 009B     		ldr	r3, [sp]
 4037 02b2 0233     		adds	r3, r3, #2
 4038 02b4 0093     		str	r3, [sp]
 4039              	.LVL600:
 4040              	.L257:
 433:..\..\..\liblc3\src/spec.c **** 
 4041              		.loc 1 433 0 is_stmt 0 discriminator 1
 4042 02b6 049B     		ldr	r3, [sp, #16]
ARM GAS  C:\Users\rdn\AppData\Local\Temp\cciiQw7C.s 			page 102


 4043 02b8 0233     		adds	r3, r3, #2
 4044 02ba 0122     		movs	r2, #1
 4045 02bc 0299     		ldr	r1, [sp, #8]
 4046 02be 521A     		subs	r2, r2, r1
 4047 02c0 1341     		asrs	r3, r3, r2
 4048 02c2 139A     		ldr	r2, [sp, #76]
 4049 02c4 9342     		cmp	r3, r2
 4050 02c6 00DD     		ble	.L279
 4051 02c8 1300     		movs	r3, r2
 4052              	.L279:
 4053 02ca 009A     		ldr	r2, [sp]
 4054 02cc 9A42     		cmp	r2, r3
 4055 02ce 00DA     		bge	.LCB4768
 4056 02d0 BFE6     		b	.L280	@long jump
 4057              	.LCB4768:
 4058              	.LBE225:
 430:..\..\..\liblc3\src/spec.c ****         const uint8_t (*lut_coeff)[4] = lc3_spectrum_lookup[high_rate][h];
 4059              		.loc 1 430 0 is_stmt 1 discriminator 2
 4060 02d2 029B     		ldr	r3, [sp, #8]
 4061 02d4 0133     		adds	r3, r3, #1
 4062 02d6 0293     		str	r3, [sp, #8]
 4063              	.LVL601:
 4064              	.L256:
 430:..\..\..\liblc3\src/spec.c ****         const uint8_t (*lut_coeff)[4] = lc3_spectrum_lookup[high_rate][h];
 4065              		.loc 1 430 0 is_stmt 0 discriminator 1
 4066 02d8 029B     		ldr	r3, [sp, #8]
 4067 02da 012B     		cmp	r3, #1
 4068 02dc 00DC     		bgt	.LCB4786
 4069 02de AEE6     		b	.L281	@long jump
 4070              	.LCB4786:
 4071              	.LBE249:
 486:..\..\..\liblc3\src/spec.c **** 
 4072              		.loc 1 486 0 is_stmt 1
 4073 02e0 09B0     		add	sp, sp, #36
 4074              	.LVL602:
 4075              		@ sp needed
 4076              	.LVL603:
 4077 02e2 3CBC     		pop	{r2, r3, r4, r5}
 4078 02e4 9046     		mov	r8, r2
 4079 02e6 9946     		mov	r9, r3
 4080 02e8 A246     		mov	r10, r4
 4081 02ea AB46     		mov	fp, r5
 4082 02ec F0BD     		pop	{r4, r5, r6, r7, pc}
 4083              	.L287:
 4084 02ee C046     		.align	2
 4085              	.L286:
 4086 02f0 00000000 		.word	lc3_ne_2m5
 4087 02f4 00000000 		.word	lc3_spectrum_lookup
 4088 02f8 00000000 		.word	lc3_spectrum_models
 4089 02fc FFFF0000 		.word	65535
 4090              		.cfi_endproc
 4091              	.LFE28:
 4092              		.size	put_quantized, .-put_quantized
 4093              		.section	.text.put_lsb,"ax",%progbits
 4094              		.align	2
 4095              		.code	16
 4096              		.thumb_func
ARM GAS  C:\Users\rdn\AppData\Local\Temp\cciiQw7C.s 			page 103


 4097              		.type	put_lsb, %function
 4098              	put_lsb:
 4099              	.LFB32:
 639:..\..\..\liblc3\src/spec.c ****     for (int i = 0; i < n && nbits > 0; i += 2) {
 4100              		.loc 1 639 0
 4101              		.cfi_startproc
 4102              		@ args = 4, pretend = 0, frame = 8
 4103              		@ frame_needed = 0, uses_anonymous_args = 0
 4104              	.LVL604:
 4105 0000 F0B5     		push	{r4, r5, r6, r7, lr}
 4106              		.cfi_def_cfa_offset 20
 4107              		.cfi_offset 4, -20
 4108              		.cfi_offset 5, -16
 4109              		.cfi_offset 6, -12
 4110              		.cfi_offset 7, -8
 4111              		.cfi_offset 14, -4
 4112 0002 5F46     		mov	r7, fp
 4113 0004 5646     		mov	r6, r10
 4114 0006 4D46     		mov	r5, r9
 4115 0008 4446     		mov	r4, r8
 4116 000a F0B4     		push	{r4, r5, r6, r7}
 4117              		.cfi_def_cfa_offset 36
 4118              		.cfi_offset 8, -36
 4119              		.cfi_offset 9, -32
 4120              		.cfi_offset 10, -28
 4121              		.cfi_offset 11, -24
 4122 000c 83B0     		sub	sp, sp, #12
 4123              		.cfi_def_cfa_offset 48
 4124 000e 8246     		mov	r10, r0
 4125 0010 8846     		mov	r8, r1
 4126 0012 0192     		str	r2, [sp, #4]
 4127 0014 9946     		mov	r9, r3
 4128              	.LVL605:
 4129              	.LBB268:
 640:..\..\..\liblc3\src/spec.c **** 
 4130              		.loc 1 640 0
 4131 0016 0025     		movs	r5, #0
 4132 0018 A5E0     		b	.L289
 4133              	.LVL606:
 4134              	.L302:
 4135              	.LBB269:
 642:..\..\..\liblc3\src/spec.c ****         uint32_t a = fabsf(x[i+0]) + xq_off;
 4136              		.loc 1 642 0
 4137 001a 019B     		ldr	r3, [sp, #4]
 4138              	.LVL607:
 4139 001c 002B     		cmp	r3, #0
 4140 001e 02D0     		beq	.L303
 4141 0020 FC27     		movs	r7, #252
 4142 0022 BF05     		lsls	r7, r7, #22
 4143 0024 01E0     		b	.L290
 4144              	.L303:
 4145 0026 FB27     		movs	r7, #251
 4146 0028 BF05     		lsls	r7, r7, #22
 4147              	.L290:
 4148              	.LVL608:
 643:..\..\..\liblc3\src/spec.c ****         uint32_t b = fabsf(x[i+1]) + xq_off;
 4149              		.loc 1 643 0 discriminator 4
ARM GAS  C:\Users\rdn\AppData\Local\Temp\cciiQw7C.s 			page 104


 4150 002a AE00     		lsls	r6, r5, #2
 4151 002c 4E44     		add	r6, r6, r9
 4152 002e 3368     		ldr	r3, [r6]
 4153 0030 5900     		lsls	r1, r3, #1
 4154 0032 4908     		lsrs	r1, r1, #1
 4155 0034 381C     		adds	r0, r7, #0
 4156 0036 FFF7FEFF 		bl	__aeabi_fadd
 4157              	.LVL609:
 4158 003a FFF7FEFF 		bl	__aeabi_f2uiz
 4159              	.LVL610:
 4160 003e 8346     		mov	fp, r0
 4161 0040 0090     		str	r0, [sp]
 4162              	.LVL611:
 644:..\..\..\liblc3\src/spec.c **** 
 4163              		.loc 1 644 0 discriminator 4
 4164 0042 6C1C     		adds	r4, r5, #1
 4165 0044 A400     		lsls	r4, r4, #2
 4166 0046 4C44     		add	r4, r4, r9
 4167 0048 2268     		ldr	r2, [r4]
 4168 004a 5100     		lsls	r1, r2, #1
 4169 004c 4908     		lsrs	r1, r1, #1
 4170 004e 381C     		adds	r0, r7, #0
 4171              	.LVL612:
 4172 0050 FFF7FEFF 		bl	__aeabi_fadd
 4173              	.LVL613:
 4174 0054 FFF7FEFF 		bl	__aeabi_f2uiz
 4175              	.LVL614:
 4176 0058 0700     		movs	r7, r0
 4177              	.LVL615:
 646:..\..\..\liblc3\src/spec.c ****             continue;
 4178              		.loc 1 646 0 discriminator 4
 4179 005a 5A46     		mov	r2, fp
 4180 005c 5B46     		mov	r3, fp
 4181 005e 0343     		orrs	r3, r0
 4182 0060 9B08     		lsrs	r3, r3, #2
 4183 0062 7FD0     		beq	.L291
 649:..\..\..\liblc3\src/spec.c ****             lc3_put_bit(bits, a & 1);
 4184              		.loc 1 649 0
 4185 0064 0123     		movs	r3, #1
 4186 0066 5B42     		rsbs	r3, r3, #0
 4187 0068 4344     		add	r3, r3, r8
 4188 006a 9B46     		mov	fp, r3
 4189              	.LVL616:
 4190 006c 4346     		mov	r3, r8
 4191              	.LVL617:
 4192 006e 002B     		cmp	r3, #0
 4193 0070 12DD     		ble	.L292
 650:..\..\..\liblc3\src/spec.c **** 
 4194              		.loc 1 650 0
 4195 0072 0121     		movs	r1, #1
 4196 0074 1140     		ands	r1, r2
 4197              	.LVL618:
 4198              	.LBB270:
 4199              	.LBB271:
 4200              	.LBB272:
 4201              	.LBB273:
 223:..\..\..\liblc3\src/bits.h ****         accu->v |= v << accu->n;
ARM GAS  C:\Users\rdn\AppData\Local\Temp\cciiQw7C.s 			page 105


 4202              		.loc 5 223 0
 4203 0076 5346     		mov	r3, r10
 4204 0078 1A6A     		ldr	r2, [r3, #32]
 4205              	.LVL619:
 4206 007a 531C     		adds	r3, r2, #1
 4207 007c 202B     		cmp	r3, #32
 4208 007e 07DC     		bgt	.L293
 224:..\..\..\liblc3\src/bits.h ****         accu->n += n;
 4209              		.loc 5 224 0
 4210 0080 9140     		lsls	r1, r1, r2
 4211              	.LVL620:
 4212 0082 5246     		mov	r2, r10
 4213 0084 D269     		ldr	r2, [r2, #28]
 4214 0086 1143     		orrs	r1, r2
 4215 0088 5246     		mov	r2, r10
 4216 008a D161     		str	r1, [r2, #28]
 225:..\..\..\liblc3\src/bits.h ****     } else {
 4217              		.loc 5 225 0
 4218 008c 1362     		str	r3, [r2, #32]
 4219 008e 03E0     		b	.L292
 4220              	.LVL621:
 4221              	.L293:
 227:..\..\..\liblc3\src/bits.h ****     }
 4222              		.loc 5 227 0
 4223 0090 0122     		movs	r2, #1
 4224 0092 5046     		mov	r0, r10
 4225              	.LVL622:
 4226 0094 FFF7FEFF 		bl	lc3_put_bits_generic
 4227              	.LVL623:
 4228              	.L292:
 4229              	.LBE273:
 4230              	.LBE272:
 4231              	.LBE271:
 4232              	.LBE270:
 652:..\..\..\liblc3\src/spec.c ****             lc3_put_bit(bits, x[i+0] < 0);
 4233              		.loc 1 652 0
 4234 0098 009B     		ldr	r3, [sp]
 4235 009a 012B     		cmp	r3, #1
 4236 009c 23D1     		bne	.L294
 652:..\..\..\liblc3\src/spec.c ****             lc3_put_bit(bits, x[i+0] < 0);
 4237              		.loc 1 652 0 is_stmt 0 discriminator 1
 4238 009e 033B     		subs	r3, r3, #3
 4239 00a0 9C46     		mov	ip, r3
 4240 00a2 E044     		add	r8, r8, ip
 4241              	.LVL624:
 4242 00a4 5B46     		mov	r3, fp
 4243 00a6 002B     		cmp	r3, #0
 4244 00a8 1CDD     		ble	.L304
 653:..\..\..\liblc3\src/spec.c **** 
 4245              		.loc 1 653 0 is_stmt 1
 4246 00aa 3068     		ldr	r0, [r6]
 4247 00ac 0126     		movs	r6, #1
 4248 00ae 0021     		movs	r1, #0
 4249 00b0 FFF7FEFF 		bl	__aeabi_fcmplt
 4250              	.LVL625:
 4251 00b4 0028     		cmp	r0, #0
 4252 00b6 00D1     		bne	.L295
ARM GAS  C:\Users\rdn\AppData\Local\Temp\cciiQw7C.s 			page 106


 4253 00b8 0026     		movs	r6, #0
 4254              	.L295:
 4255              	.LVL626:
 4256              	.LBB274:
 4257              	.LBB275:
 4258              	.LBB276:
 4259              	.LBB277:
 223:..\..\..\liblc3\src/bits.h ****         accu->v |= v << accu->n;
 4260              		.loc 5 223 0
 4261 00ba 5346     		mov	r3, r10
 4262 00bc 1A6A     		ldr	r2, [r3, #32]
 4263 00be 531C     		adds	r3, r2, #1
 4264 00c0 202B     		cmp	r3, #32
 4265 00c2 08DC     		bgt	.L296
 224:..\..\..\liblc3\src/bits.h ****         accu->n += n;
 4266              		.loc 5 224 0
 4267 00c4 9640     		lsls	r6, r6, r2
 4268              	.LVL627:
 4269 00c6 5246     		mov	r2, r10
 4270 00c8 D269     		ldr	r2, [r2, #28]
 4271 00ca 1643     		orrs	r6, r2
 4272 00cc 5246     		mov	r2, r10
 4273 00ce D661     		str	r6, [r2, #28]
 225:..\..\..\liblc3\src/bits.h ****     } else {
 4274              		.loc 5 225 0
 4275 00d0 1362     		str	r3, [r2, #32]
 4276              	.LBE277:
 4277              	.LBE276:
 4278              	.LBE275:
 4279              	.LBE274:
 652:..\..\..\liblc3\src/spec.c ****             lc3_put_bit(bits, x[i+0] < 0);
 4280              		.loc 1 652 0
 4281 00d2 C346     		mov	fp, r8
 4282 00d4 07E0     		b	.L294
 4283              	.LVL628:
 4284              	.L296:
 4285              	.LBB281:
 4286              	.LBB280:
 4287              	.LBB279:
 4288              	.LBB278:
 227:..\..\..\liblc3\src/bits.h ****     }
 4289              		.loc 5 227 0
 4290 00d6 0122     		movs	r2, #1
 4291 00d8 3100     		movs	r1, r6
 4292 00da 5046     		mov	r0, r10
 4293 00dc FFF7FEFF 		bl	lc3_put_bits_generic
 4294              	.LVL629:
 4295              	.LBE278:
 4296              	.LBE279:
 4297              	.LBE280:
 4298              	.LBE281:
 652:..\..\..\liblc3\src/spec.c ****             lc3_put_bit(bits, x[i+0] < 0);
 4299              		.loc 1 652 0
 4300 00e0 C346     		mov	fp, r8
 4301 00e2 00E0     		b	.L294
 4302              	.LVL630:
 4303              	.L304:
ARM GAS  C:\Users\rdn\AppData\Local\Temp\cciiQw7C.s 			page 107


 4304 00e4 C346     		mov	fp, r8
 4305              	.LVL631:
 4306              	.L294:
 655:..\..\..\liblc3\src/spec.c ****             lc3_put_bit(bits, b & 1);
 4307              		.loc 1 655 0
 4308 00e6 0123     		movs	r3, #1
 4309 00e8 5B42     		rsbs	r3, r3, #0
 4310 00ea 5B44     		add	r3, r3, fp
 4311 00ec 9846     		mov	r8, r3
 4312              	.LVL632:
 4313 00ee 5B46     		mov	r3, fp
 4314              	.LVL633:
 4315 00f0 002B     		cmp	r3, #0
 4316 00f2 12DD     		ble	.L297
 656:..\..\..\liblc3\src/spec.c **** 
 4317              		.loc 1 656 0
 4318 00f4 0121     		movs	r1, #1
 4319 00f6 3940     		ands	r1, r7
 4320              	.LVL634:
 4321              	.LBB282:
 4322              	.LBB283:
 4323              	.LBB284:
 4324              	.LBB285:
 223:..\..\..\liblc3\src/bits.h ****         accu->v |= v << accu->n;
 4325              		.loc 5 223 0
 4326 00f8 5346     		mov	r3, r10
 4327 00fa 1A6A     		ldr	r2, [r3, #32]
 4328 00fc 531C     		adds	r3, r2, #1
 4329 00fe 202B     		cmp	r3, #32
 4330 0100 07DC     		bgt	.L298
 224:..\..\..\liblc3\src/bits.h ****         accu->n += n;
 4331              		.loc 5 224 0
 4332 0102 9140     		lsls	r1, r1, r2
 4333              	.LVL635:
 4334 0104 5246     		mov	r2, r10
 4335 0106 D269     		ldr	r2, [r2, #28]
 4336 0108 1143     		orrs	r1, r2
 4337 010a 5246     		mov	r2, r10
 4338 010c D161     		str	r1, [r2, #28]
 225:..\..\..\liblc3\src/bits.h ****     } else {
 4339              		.loc 5 225 0
 4340 010e 1362     		str	r3, [r2, #32]
 4341 0110 03E0     		b	.L297
 4342              	.LVL636:
 4343              	.L298:
 227:..\..\..\liblc3\src/bits.h ****     }
 4344              		.loc 5 227 0
 4345 0112 0122     		movs	r2, #1
 4346 0114 5046     		mov	r0, r10
 4347 0116 FFF7FEFF 		bl	lc3_put_bits_generic
 4348              	.LVL637:
 4349              	.L297:
 4350              	.LBE285:
 4351              	.LBE284:
 4352              	.LBE283:
 4353              	.LBE282:
 658:..\..\..\liblc3\src/spec.c ****             lc3_put_bit(bits, x[i+1] < 0);
ARM GAS  C:\Users\rdn\AppData\Local\Temp\cciiQw7C.s 			page 108


 4354              		.loc 1 658 0
 4355 011a 012F     		cmp	r7, #1
 4356 011c 22D1     		bne	.L291
 658:..\..\..\liblc3\src/spec.c ****             lc3_put_bit(bits, x[i+1] < 0);
 4357              		.loc 1 658 0 is_stmt 0 discriminator 1
 4358 011e 5E46     		mov	r6, fp
 4359 0120 023E     		subs	r6, r6, #2
 4360              	.LVL638:
 4361 0122 4346     		mov	r3, r8
 4362 0124 002B     		cmp	r3, #0
 4363 0126 1CDD     		ble	.L305
 659:..\..\..\liblc3\src/spec.c ****     }
 4364              		.loc 1 659 0 is_stmt 1
 4365 0128 2068     		ldr	r0, [r4]
 4366 012a 0124     		movs	r4, #1
 4367 012c 0021     		movs	r1, #0
 4368 012e FFF7FEFF 		bl	__aeabi_fcmplt
 4369              	.LVL639:
 4370 0132 0028     		cmp	r0, #0
 4371 0134 00D1     		bne	.L299
 4372 0136 0024     		movs	r4, #0
 4373              	.L299:
 4374              	.LVL640:
 4375              	.LBB286:
 4376              	.LBB287:
 4377              	.LBB288:
 4378              	.LBB289:
 223:..\..\..\liblc3\src/bits.h ****         accu->v |= v << accu->n;
 4379              		.loc 5 223 0
 4380 0138 5346     		mov	r3, r10
 4381 013a 1A6A     		ldr	r2, [r3, #32]
 4382 013c 531C     		adds	r3, r2, #1
 4383 013e 202B     		cmp	r3, #32
 4384 0140 08DC     		bgt	.L300
 224:..\..\..\liblc3\src/bits.h ****         accu->n += n;
 4385              		.loc 5 224 0
 4386 0142 9440     		lsls	r4, r4, r2
 4387              	.LVL641:
 4388 0144 5246     		mov	r2, r10
 4389 0146 D269     		ldr	r2, [r2, #28]
 4390 0148 1443     		orrs	r4, r2
 4391 014a 5246     		mov	r2, r10
 4392 014c D461     		str	r4, [r2, #28]
 225:..\..\..\liblc3\src/bits.h ****     } else {
 4393              		.loc 5 225 0
 4394 014e 1362     		str	r3, [r2, #32]
 4395              	.LBE289:
 4396              	.LBE288:
 4397              	.LBE287:
 4398              	.LBE286:
 658:..\..\..\liblc3\src/spec.c ****             lc3_put_bit(bits, x[i+1] < 0);
 4399              		.loc 1 658 0
 4400 0150 B046     		mov	r8, r6
 4401 0152 07E0     		b	.L291
 4402              	.LVL642:
 4403              	.L300:
 4404              	.LBB293:
ARM GAS  C:\Users\rdn\AppData\Local\Temp\cciiQw7C.s 			page 109


 4405              	.LBB292:
 4406              	.LBB291:
 4407              	.LBB290:
 227:..\..\..\liblc3\src/bits.h ****     }
 4408              		.loc 5 227 0
 4409 0154 0122     		movs	r2, #1
 4410 0156 2100     		movs	r1, r4
 4411 0158 5046     		mov	r0, r10
 4412 015a FFF7FEFF 		bl	lc3_put_bits_generic
 4413              	.LVL643:
 4414              	.LBE290:
 4415              	.LBE291:
 4416              	.LBE292:
 4417              	.LBE293:
 658:..\..\..\liblc3\src/spec.c ****             lc3_put_bit(bits, x[i+1] < 0);
 4418              		.loc 1 658 0
 4419 015e B046     		mov	r8, r6
 4420 0160 00E0     		b	.L291
 4421              	.LVL644:
 4422              	.L305:
 4423 0162 B046     		mov	r8, r6
 4424              	.LVL645:
 4425              	.L291:
 4426              	.LBE269:
 640:..\..\..\liblc3\src/spec.c **** 
 4427              		.loc 1 640 0 discriminator 2
 4428 0164 0235     		adds	r5, r5, #2
 4429              	.LVL646:
 4430              	.L289:
 640:..\..\..\liblc3\src/spec.c **** 
 4431              		.loc 1 640 0 is_stmt 0 discriminator 1
 4432 0166 0C9B     		ldr	r3, [sp, #48]
 4433 0168 9D42     		cmp	r5, r3
 4434 016a 03DA     		bge	.L288
 640:..\..\..\liblc3\src/spec.c **** 
 4435              		.loc 1 640 0 discriminator 3
 4436 016c 4346     		mov	r3, r8
 4437 016e 002B     		cmp	r3, #0
 4438 0170 00DD     		ble	.LCB5236
 4439 0172 52E7     		b	.L302	@long jump
 4440              	.LCB5236:
 4441              	.L288:
 4442              	.LBE268:
 661:..\..\..\liblc3\src/spec.c **** 
 4443              		.loc 1 661 0 is_stmt 1
 4444 0174 03B0     		add	sp, sp, #12
 4445              		@ sp needed
 4446              	.LVL647:
 4447              	.LVL648:
 4448              	.LVL649:
 4449              	.LVL650:
 4450 0176 3CBC     		pop	{r2, r3, r4, r5}
 4451 0178 9046     		mov	r8, r2
 4452 017a 9946     		mov	r9, r3
 4453 017c A246     		mov	r10, r4
 4454 017e AB46     		mov	fp, r5
 4455 0180 F0BD     		pop	{r4, r5, r6, r7, pc}
ARM GAS  C:\Users\rdn\AppData\Local\Temp\cciiQw7C.s 			page 110


 4456              		.cfi_endproc
 4457              	.LFE32:
 4458              		.size	put_lsb, .-put_lsb
 4459              		.section	.text.get_quantized,"ax",%progbits
 4460              		.align	2
 4461              		.code	16
 4462              		.thumb_func
 4463              		.type	get_quantized, %function
 4464              	get_quantized:
 4465              	.LFB29:
 500:..\..\..\liblc3\src/spec.c ****     bool high_rate = resolve_modes(sr, nbytes, NULL);
 4466              		.loc 1 500 0
 4467              		.cfi_startproc
 4468              		@ args = 16, pretend = 0, frame = 40
 4469              		@ frame_needed = 0, uses_anonymous_args = 0
 4470              	.LVL651:
 4471 0000 F0B5     		push	{r4, r5, r6, r7, lr}
 4472              		.cfi_def_cfa_offset 20
 4473              		.cfi_offset 4, -20
 4474              		.cfi_offset 5, -16
 4475              		.cfi_offset 6, -12
 4476              		.cfi_offset 7, -8
 4477              		.cfi_offset 14, -4
 4478 0002 5F46     		mov	r7, fp
 4479 0004 5646     		mov	r6, r10
 4480 0006 4D46     		mov	r5, r9
 4481 0008 4446     		mov	r4, r8
 4482 000a F0B4     		push	{r4, r5, r6, r7}
 4483              		.cfi_def_cfa_offset 36
 4484              		.cfi_offset 8, -36
 4485              		.cfi_offset 9, -32
 4486              		.cfi_offset 10, -28
 4487              		.cfi_offset 11, -24
 4488 000c 8BB0     		sub	sp, sp, #44
 4489              		.cfi_def_cfa_offset 80
 4490 000e 0500     		movs	r5, r0
 4491 0010 0C00     		movs	r4, r1
 4492 0012 1600     		movs	r6, r2
 4493 0014 0792     		str	r2, [sp, #28]
 4494 0016 14AA     		add	r2, sp, #80
 4495              	.LVL652:
 4496 0018 02CA     		ldmia	r2!, {r1}
 4497              	.LVL653:
 4498 001a 0591     		str	r1, [sp, #20]
 4499 001c 1178     		ldrb	r1, [r2]
 4500 001e 0891     		str	r1, [sp, #32]
 501:..\..\..\liblc3\src/spec.c ****     int ne = lc3_ne(dt, sr);
 4501              		.loc 1 501 0
 4502 0020 0022     		movs	r2, #0
 4503              	.LVL654:
 4504 0022 1900     		movs	r1, r3
 4505 0024 3000     		movs	r0, r6
 4506              	.LVL655:
 4507 0026 FFF7FEFF 		bl	resolve_modes
 4508              	.LVL656:
 4509 002a 0990     		str	r0, [sp, #36]
 4510              	.LVL657:
ARM GAS  C:\Users\rdn\AppData\Local\Temp\cciiQw7C.s 			page 111


 4511              	.LBB325:
 4512              	.LBB326:
 4513              		.loc 2 51 0
 4514 002c B200     		lsls	r2, r6, #2
 4515 002e C94B     		ldr	r3, .L366
 4516 0030 D358     		ldr	r3, [r2, r3]
 4517 0032 0134     		adds	r4, r4, #1
 4518              	.LVL658:
 4519 0034 5C43     		muls	r4, r3
 4520 0036 0494     		str	r4, [sp, #16]
 4521              	.LVL659:
 4522              	.LBE326:
 4523              	.LBE325:
 504:..\..\..\liblc3\src/spec.c **** 
 4524              		.loc 1 504 0
 4525 0038 0023     		movs	r3, #0
 4526 003a 179A     		ldr	r2, [sp, #92]
 4527 003c 1380     		strh	r3, [r2]
 4528              	.LVL660:
 4529              	.LBB327:
 510:..\..\..\liblc3\src/spec.c ****         const uint8_t (*lut_coeff)[4] = lc3_spectrum_lookup[high_rate][h];
 4530              		.loc 1 510 0
 4531 003e 0393     		str	r3, [sp, #12]
 4532              	.LBE327:
 508:..\..\..\liblc3\src/spec.c **** 
 4533              		.loc 1 508 0
 4534 0040 0293     		str	r3, [sp, #8]
 4535 0042 0193     		str	r3, [sp, #4]
 4536              	.LBB360:
 510:..\..\..\liblc3\src/spec.c ****         const uint8_t (*lut_coeff)[4] = lc3_spectrum_lookup[high_rate][h];
 4537              		.loc 1 510 0
 4538 0044 E8E1     		b	.L307
 4539              	.LVL661:
 4540              	.L349:
 4541              	.LBB328:
 511:..\..\..\liblc3\src/spec.c **** 
 4542              		.loc 1 511 0
 4543 0046 099B     		ldr	r3, [sp, #36]
 4544              	.LVL662:
 4545 0048 5B00     		lsls	r3, r3, #1
 4546 004a 039A     		ldr	r2, [sp, #12]
 4547 004c 9446     		mov	ip, r2
 4548 004e 6344     		add	r3, r3, ip
 4549 0050 9B02     		lsls	r3, r3, #10
 4550 0052 C14A     		ldr	r2, .L366+4
 4551 0054 9B18     		adds	r3, r3, r2
 4552 0056 0693     		str	r3, [sp, #24]
 4553              	.LVL663:
 513:..\..\..\liblc3\src/spec.c **** 
 4554              		.loc 1 513 0
 4555 0058 CDE1     		b	.L308
 4556              	.LVL664:
 4557              	.L348:
 4558              	.LBB329:
 515:..\..\..\liblc3\src/spec.c ****             int max_shl = lc3_hr(sr) ? 22 : 14;
 4559              		.loc 1 515 0
 4560 005a 029B     		ldr	r3, [sp, #8]
ARM GAS  C:\Users\rdn\AppData\Local\Temp\cciiQw7C.s 			page 112


 4561 005c 9B00     		lsls	r3, r3, #2
 4562 005e 069A     		ldr	r2, [sp, #24]
 4563 0060 9246     		mov	r10, r2
 4564 0062 9A44     		add	r10, r10, r3
 4565              	.LVL665:
 516:..\..\..\liblc3\src/spec.c **** 
 4566              		.loc 1 516 0
 4567 0064 079B     		ldr	r3, [sp, #28]
 4568 0066 042B     		cmp	r3, #4
 4569 0068 02D9     		bls	.L350
 4570 006a 1623     		movs	r3, #22
 4571 006c 9B46     		mov	fp, r3
 4572 006e 01E0     		b	.L309
 4573              	.L350:
 4574 0070 0E23     		movs	r3, #14
 4575 0072 9B46     		mov	fp, r3
 4576              	.L309:
 4577              	.LVL666:
 526:..\..\..\liblc3\src/spec.c **** 
 4578              		.loc 1 526 0 discriminator 4
 4579 0074 5346     		mov	r3, r10
 4580 0076 1B78     		ldrb	r3, [r3]
 4581 0078 1A01     		lsls	r2, r3, #4
 4582 007a D318     		adds	r3, r2, r3
 4583 007c 9A00     		lsls	r2, r3, #2
 4584 007e B74C     		ldr	r4, .L366+8
 4585 0080 1419     		adds	r4, r2, r4
 4586              	.LVL667:
 4587              	.LBB330:
 4588              	.LBB331:
 273:..\..\..\liblc3\src/bits.h **** }
 274:..\..\..\liblc3\src/bits.h **** 
 275:..\..\..\liblc3\src/bits.h **** /**
 276:..\..\..\liblc3\src/bits.h ****  * Get arithmetic coder symbol
 277:..\..\..\liblc3\src/bits.h ****  */
 278:..\..\..\liblc3\src/bits.h **** LC3_HOT static inline unsigned lc3_get_symbol(
 279:..\..\..\liblc3\src/bits.h ****     lc3_bits_t *bits, const struct lc3_ac_model *model)
 280:..\..\..\liblc3\src/bits.h **** {
 281:..\..\..\liblc3\src/bits.h ****     const struct lc3_ac_symbol *symbols = model->s;
 282:..\..\..\liblc3\src/bits.h ****     struct lc3_bits_ac *ac = &bits->ac;
 283:..\..\..\liblc3\src/bits.h **** 
 284:..\..\..\liblc3\src/bits.h ****     unsigned range = (ac->range >> 10) & 0xffff;
 4589              		.loc 5 284 0 discriminator 4
 4590 0082 AB68     		ldr	r3, [r5, #8]
 4591 0084 9B0A     		lsrs	r3, r3, #10
 4592 0086 1B04     		lsls	r3, r3, #16
 4593 0088 1B0C     		lsrs	r3, r3, #16
 4594              	.LVL668:
 285:..\..\..\liblc3\src/bits.h **** 
 286:..\..\..\liblc3\src/bits.h ****     ac->error |= (ac->low >= (range << 10));
 4595              		.loc 5 286 0 discriminator 4
 4596 008a 297E     		ldrb	r1, [r5, #24]
 4597 008c 9A02     		lsls	r2, r3, #10
 4598 008e 0020     		movs	r0, #0
 4599 0090 6E68     		ldr	r6, [r5, #4]
 4600 0092 9642     		cmp	r6, r2
 4601 0094 4041     		adcs	r0, r0, r0
ARM GAS  C:\Users\rdn\AppData\Local\Temp\cciiQw7C.s 			page 113


 4602 0096 C0B2     		uxtb	r0, r0
 4603 0098 0143     		orrs	r1, r0
 4604 009a 2976     		strb	r1, [r5, #24]
 287:..\..\..\liblc3\src/bits.h ****     if (ac->error)
 4605              		.loc 5 287 0 discriminator 4
 4606 009c 01D0     		beq	.L310
 288:..\..\..\liblc3\src/bits.h ****         ac->low = 0;
 4607              		.loc 5 288 0
 4608 009e 0022     		movs	r2, #0
 4609 00a0 6A60     		str	r2, [r5, #4]
 4610              	.L310:
 4611              	.LVL669:
 289:..\..\..\liblc3\src/bits.h **** 
 290:..\..\..\liblc3\src/bits.h ****     int s = 16;
 291:..\..\..\liblc3\src/bits.h **** 
 292:..\..\..\liblc3\src/bits.h ****     if (ac->low < range * symbols[s].low) {
 4612              		.loc 5 292 0
 4613 00a2 6868     		ldr	r0, [r5, #4]
 4614 00a4 2200     		movs	r2, r4
 4615 00a6 4032     		adds	r2, r2, #64
 4616 00a8 1288     		ldrh	r2, [r2]
 4617 00aa 5A43     		muls	r2, r3
 4618 00ac 9042     		cmp	r0, r2
 4619 00ae 25D2     		bcs	.L351
 4620              	.LVL670:
 293:..\..\..\liblc3\src/bits.h ****         s >>= 1;
 294:..\..\..\liblc3\src/bits.h ****         s -= ac->low < range * symbols[s].low ? 4 : -4;
 4621              		.loc 5 294 0
 4622 00b0 228C     		ldrh	r2, [r4, #32]
 4623 00b2 5A43     		muls	r2, r3
 4624 00b4 9042     		cmp	r0, r2
 4625 00b6 01D2     		bcs	.L352
 4626 00b8 0422     		movs	r2, #4
 4627 00ba 01E0     		b	.L312
 4628              	.L352:
 4629 00bc 0422     		movs	r2, #4
 4630 00be 5242     		rsbs	r2, r2, #0
 4631              	.L312:
 4632 00c0 0821     		movs	r1, #8
 4633 00c2 8A1A     		subs	r2, r1, r2
 4634              	.LVL671:
 295:..\..\..\liblc3\src/bits.h ****         s -= ac->low < range * symbols[s].low ? 2 : -2;
 4635              		.loc 5 295 0
 4636 00c4 9100     		lsls	r1, r2, #2
 4637 00c6 615A     		ldrh	r1, [r4, r1]
 4638 00c8 5943     		muls	r1, r3
 4639 00ca 8842     		cmp	r0, r1
 4640 00cc 01D2     		bcs	.L353
 4641 00ce 0221     		movs	r1, #2
 4642 00d0 01E0     		b	.L313
 4643              	.L353:
 4644 00d2 0221     		movs	r1, #2
 4645 00d4 4942     		rsbs	r1, r1, #0
 4646              	.L313:
 4647 00d6 521A     		subs	r2, r2, r1
 4648              	.LVL672:
 296:..\..\..\liblc3\src/bits.h ****         s -= ac->low < range * symbols[s].low ? 1 : -1;
ARM GAS  C:\Users\rdn\AppData\Local\Temp\cciiQw7C.s 			page 114


 4649              		.loc 5 296 0
 4650 00d8 9100     		lsls	r1, r2, #2
 4651 00da 615A     		ldrh	r1, [r4, r1]
 4652 00dc 5943     		muls	r1, r3
 4653 00de 8842     		cmp	r0, r1
 4654 00e0 01D2     		bcs	.L354
 4655 00e2 0121     		movs	r1, #1
 4656 00e4 01E0     		b	.L314
 4657              	.L354:
 4658 00e6 0121     		movs	r1, #1
 4659 00e8 4942     		rsbs	r1, r1, #0
 4660              	.L314:
 4661 00ea 511A     		subs	r1, r2, r1
 4662              	.LVL673:
 297:..\..\..\liblc3\src/bits.h ****         s -= ac->low < range * symbols[s].low;
 4663              		.loc 5 297 0
 4664 00ec 8A00     		lsls	r2, r1, #2
 4665 00ee A25A     		ldrh	r2, [r4, r2]
 4666 00f0 5A43     		muls	r2, r3
 4667 00f2 9042     		cmp	r0, r2
 4668 00f4 9241     		sbcs	r2, r2, r2
 4669 00f6 5242     		rsbs	r2, r2, #0
 4670 00f8 8A1A     		subs	r2, r1, r2
 4671              	.LVL674:
 4672 00fa 00E0     		b	.L311
 4673              	.LVL675:
 4674              	.L351:
 290:..\..\..\liblc3\src/bits.h **** 
 4675              		.loc 5 290 0
 4676 00fc 1022     		movs	r2, #16
 4677              	.LVL676:
 4678              	.L311:
 298:..\..\..\liblc3\src/bits.h ****     }
 299:..\..\..\liblc3\src/bits.h **** 
 300:..\..\..\liblc3\src/bits.h ****     ac->low -= range * symbols[s].low;
 4679              		.loc 5 300 0
 4680 00fe 1700     		movs	r7, r2
 4681 0100 9200     		lsls	r2, r2, #2
 4682              	.LVL677:
 4683 0102 A218     		adds	r2, r4, r2
 4684 0104 1188     		ldrh	r1, [r2]
 4685 0106 5943     		muls	r1, r3
 4686 0108 411A     		subs	r1, r0, r1
 4687 010a 6960     		str	r1, [r5, #4]
 301:..\..\..\liblc3\src/bits.h ****     ac->range = range * symbols[s].range;
 4688              		.loc 5 301 0
 4689 010c 5288     		ldrh	r2, [r2, #2]
 4690 010e 5343     		muls	r3, r2
 4691              	.LVL678:
 4692 0110 AB60     		str	r3, [r5, #8]
 4693              	.LVL679:
 302:..\..\..\liblc3\src/bits.h **** 
 303:..\..\..\liblc3\src/bits.h ****     if (ac->range < 0x10000)
 4694              		.loc 5 303 0
 4695 0112 934A     		ldr	r2, .L366+12
 4696 0114 9342     		cmp	r3, r2
 4697 0116 02D8     		bhi	.L315
ARM GAS  C:\Users\rdn\AppData\Local\Temp\cciiQw7C.s 			page 115


 304:..\..\..\liblc3\src/bits.h ****         lc3_ac_read_renorm(bits);
 4698              		.loc 5 304 0
 4699 0118 2800     		movs	r0, r5
 4700 011a FFF7FEFF 		bl	lc3_ac_read_renorm
 4701              	.LVL680:
 4702              	.L315:
 4703              	.LBE331:
 4704              	.LBE330:
 528:..\..\..\liblc3\src/spec.c ****                 s = lc3_get_symbol(bits, lc3_spectrum_models + lut[++k]);
 4705              		.loc 1 528 0
 4706 011e 089B     		ldr	r3, [sp, #32]
 4707 0120 002B     		cmp	r3, #0
 4708 0122 59D0     		beq	.L355
 528:..\..\..\liblc3\src/spec.c ****                 s = lc3_get_symbol(bits, lc3_spectrum_models + lut[++k]);
 4709              		.loc 1 528 0 is_stmt 0 discriminator 1
 4710 0124 0F2F     		cmp	r7, #15
 4711 0126 5AD9     		bls	.L356
 4712              	.LVL681:
 529:..\..\..\liblc3\src/spec.c ****                 shl++;
 4713              		.loc 1 529 0 is_stmt 1
 4714 0128 5346     		mov	r3, r10
 4715 012a 5B78     		ldrb	r3, [r3, #1]
 4716 012c 1A01     		lsls	r2, r3, #4
 4717 012e D318     		adds	r3, r2, r3
 4718 0130 9A00     		lsls	r2, r3, #2
 4719 0132 8A4C     		ldr	r4, .L366+8
 4720 0134 1419     		adds	r4, r2, r4
 4721              	.LVL682:
 4722              	.LBB332:
 4723              	.LBB333:
 284:..\..\..\liblc3\src/bits.h **** 
 4724              		.loc 5 284 0
 4725 0136 AB68     		ldr	r3, [r5, #8]
 4726 0138 9B0A     		lsrs	r3, r3, #10
 4727 013a 1B04     		lsls	r3, r3, #16
 4728 013c 1B0C     		lsrs	r3, r3, #16
 4729              	.LVL683:
 286:..\..\..\liblc3\src/bits.h ****     if (ac->error)
 4730              		.loc 5 286 0
 4731 013e 297E     		ldrb	r1, [r5, #24]
 4732 0140 9A02     		lsls	r2, r3, #10
 4733 0142 0020     		movs	r0, #0
 4734 0144 6E68     		ldr	r6, [r5, #4]
 4735 0146 9642     		cmp	r6, r2
 4736 0148 4041     		adcs	r0, r0, r0
 4737 014a C0B2     		uxtb	r0, r0
 4738 014c 0143     		orrs	r1, r0
 4739 014e 2976     		strb	r1, [r5, #24]
 287:..\..\..\liblc3\src/bits.h ****         ac->low = 0;
 4740              		.loc 5 287 0
 4741 0150 01D0     		beq	.L317
 288:..\..\..\liblc3\src/bits.h **** 
 4742              		.loc 5 288 0
 4743 0152 0022     		movs	r2, #0
 4744 0154 6A60     		str	r2, [r5, #4]
 4745              	.L317:
 4746              	.LVL684:
ARM GAS  C:\Users\rdn\AppData\Local\Temp\cciiQw7C.s 			page 116


 292:..\..\..\liblc3\src/bits.h ****         s >>= 1;
 4747              		.loc 5 292 0
 4748 0156 6868     		ldr	r0, [r5, #4]
 4749 0158 2200     		movs	r2, r4
 4750 015a 4032     		adds	r2, r2, #64
 4751 015c 1288     		ldrh	r2, [r2]
 4752 015e 5A43     		muls	r2, r3
 4753 0160 9042     		cmp	r0, r2
 4754 0162 25D2     		bcs	.L357
 4755              	.LVL685:
 294:..\..\..\liblc3\src/bits.h ****         s -= ac->low < range * symbols[s].low ? 2 : -2;
 4756              		.loc 5 294 0
 4757 0164 228C     		ldrh	r2, [r4, #32]
 4758 0166 5A43     		muls	r2, r3
 4759 0168 9042     		cmp	r0, r2
 4760 016a 01D2     		bcs	.L358
 4761 016c 0422     		movs	r2, #4
 4762 016e 01E0     		b	.L319
 4763              	.L358:
 4764 0170 0422     		movs	r2, #4
 4765 0172 5242     		rsbs	r2, r2, #0
 4766              	.L319:
 4767 0174 0821     		movs	r1, #8
 4768 0176 8A1A     		subs	r2, r1, r2
 4769              	.LVL686:
 295:..\..\..\liblc3\src/bits.h ****         s -= ac->low < range * symbols[s].low ? 1 : -1;
 4770              		.loc 5 295 0
 4771 0178 9100     		lsls	r1, r2, #2
 4772 017a 615A     		ldrh	r1, [r4, r1]
 4773 017c 5943     		muls	r1, r3
 4774 017e 8842     		cmp	r0, r1
 4775 0180 01D2     		bcs	.L359
 4776 0182 0221     		movs	r1, #2
 4777 0184 01E0     		b	.L320
 4778              	.L359:
 4779 0186 0221     		movs	r1, #2
 4780 0188 4942     		rsbs	r1, r1, #0
 4781              	.L320:
 4782 018a 521A     		subs	r2, r2, r1
 4783              	.LVL687:
 296:..\..\..\liblc3\src/bits.h ****         s -= ac->low < range * symbols[s].low;
 4784              		.loc 5 296 0
 4785 018c 9100     		lsls	r1, r2, #2
 4786 018e 615A     		ldrh	r1, [r4, r1]
 4787 0190 5943     		muls	r1, r3
 4788 0192 8842     		cmp	r0, r1
 4789 0194 01D2     		bcs	.L360
 4790 0196 0121     		movs	r1, #1
 4791 0198 01E0     		b	.L321
 4792              	.L360:
 4793 019a 0121     		movs	r1, #1
 4794 019c 4942     		rsbs	r1, r1, #0
 4795              	.L321:
 4796 019e 511A     		subs	r1, r2, r1
 4797              	.LVL688:
 297:..\..\..\liblc3\src/bits.h ****     }
 4798              		.loc 5 297 0
ARM GAS  C:\Users\rdn\AppData\Local\Temp\cciiQw7C.s 			page 117


 4799 01a0 8A00     		lsls	r2, r1, #2
 4800 01a2 A25A     		ldrh	r2, [r4, r2]
 4801 01a4 5A43     		muls	r2, r3
 4802 01a6 9042     		cmp	r0, r2
 4803 01a8 9241     		sbcs	r2, r2, r2
 4804 01aa 5242     		rsbs	r2, r2, #0
 4805 01ac 8A1A     		subs	r2, r1, r2
 4806              	.LVL689:
 4807 01ae 00E0     		b	.L318
 4808              	.LVL690:
 4809              	.L357:
 290:..\..\..\liblc3\src/bits.h **** 
 4810              		.loc 5 290 0
 4811 01b0 1022     		movs	r2, #16
 4812              	.LVL691:
 4813              	.L318:
 300:..\..\..\liblc3\src/bits.h ****     ac->range = range * symbols[s].range;
 4814              		.loc 5 300 0
 4815 01b2 1700     		movs	r7, r2
 4816 01b4 9200     		lsls	r2, r2, #2
 4817              	.LVL692:
 4818 01b6 A218     		adds	r2, r4, r2
 4819 01b8 1188     		ldrh	r1, [r2]
 4820 01ba 5943     		muls	r1, r3
 4821 01bc 411A     		subs	r1, r0, r1
 4822 01be 6960     		str	r1, [r5, #4]
 301:..\..\..\liblc3\src/bits.h **** 
 4823              		.loc 5 301 0
 4824 01c0 5288     		ldrh	r2, [r2, #2]
 4825 01c2 5343     		muls	r3, r2
 4826              	.LVL693:
 4827 01c4 AB60     		str	r3, [r5, #8]
 4828              	.LVL694:
 303:..\..\..\liblc3\src/bits.h ****         lc3_ac_read_renorm(bits);
 4829              		.loc 5 303 0
 4830 01c6 664A     		ldr	r2, .L366+12
 4831 01c8 9342     		cmp	r3, r2
 4832 01ca 02D8     		bhi	.L322
 4833              		.loc 5 304 0
 4834 01cc 2800     		movs	r0, r5
 4835 01ce FFF7FEFF 		bl	lc3_ac_read_renorm
 4836              	.LVL695:
 4837              	.L322:
 4838              	.LBE333:
 4839              	.LBE332:
 530:..\..\..\liblc3\src/spec.c ****             }
 4840              		.loc 1 530 0
 4841 01d2 0126     		movs	r6, #1
 529:..\..\..\liblc3\src/spec.c ****                 shl++;
 4842              		.loc 1 529 0
 4843 01d4 0124     		movs	r4, #1
 4844 01d6 04E0     		b	.L316
 4845              	.LVL696:
 4846              	.L355:
 524:..\..\..\liblc3\src/spec.c **** 
 4847              		.loc 1 524 0
 4848 01d8 0026     		movs	r6, #0
ARM GAS  C:\Users\rdn\AppData\Local\Temp\cciiQw7C.s 			page 118


 4849 01da 0024     		movs	r4, #0
 4850 01dc 01E0     		b	.L316
 4851              	.L356:
 4852 01de 0026     		movs	r6, #0
 4853 01e0 0024     		movs	r4, #0
 4854              	.LVL697:
 4855              	.L316:
 4856              	.LBB334:
 4857              	.LBB335:
 290:..\..\..\liblc3\src/bits.h **** 
 4858              		.loc 5 290 0 discriminator 1
 4859 01e2 0023     		movs	r3, #0
 4860 01e4 9846     		mov	r8, r3
 4861 01e6 9946     		mov	r9, r3
 4862 01e8 80E0     		b	.L323
 4863              	.LVL698:
 4864              	.L335:
 4865              	.LBE335:
 4866              	.LBE334:
 4867              	.LBB337:
 4868              	.LBB338:
 4869              	.LBB339:
 4870              	.LBB340:
 246:..\..\..\liblc3\src/bits.h ****         int v = (accu->v >> accu->n) & ((1u << n) - 1);
 4871              		.loc 5 246 0
 4872 01ea 2B6A     		ldr	r3, [r5, #32]
 4873 01ec 5A1C     		adds	r2, r3, #1
 4874 01ee 202A     		cmp	r2, #32
 4875 01f0 05DC     		bgt	.L324
 4876              	.LBB341:
 247:..\..\..\liblc3\src/bits.h ****         return (accu->n += n), v;
 4877              		.loc 5 247 0
 4878 01f2 E969     		ldr	r1, [r5, #28]
 4879 01f4 D940     		lsrs	r1, r1, r3
 4880 01f6 0120     		movs	r0, #1
 4881 01f8 0840     		ands	r0, r1
 4882              	.LVL699:
 248:..\..\..\liblc3\src/bits.h ****     }
 4883              		.loc 5 248 0
 4884 01fa 2A62     		str	r2, [r5, #32]
 4885 01fc 03E0     		b	.L325
 4886              	.LVL700:
 4887              	.L324:
 4888              	.LBE341:
 251:..\..\..\liblc3\src/bits.h ****     }
 4889              		.loc 5 251 0
 4890 01fe 0121     		movs	r1, #1
 4891 0200 2800     		movs	r0, r5
 4892 0202 FFF7FEFF 		bl	lc3_get_bits_generic
 4893              	.LVL701:
 4894              	.L325:
 4895              	.LBE340:
 4896              	.LBE339:
 4897              	.LBE338:
 4898              	.LBE337:
 534:..\..\..\liblc3\src/spec.c ****                 v |= lc3_get_bit(bits) << shl;
 4899              		.loc 1 534 0
ARM GAS  C:\Users\rdn\AppData\Local\Temp\cciiQw7C.s 			page 119


 4900 0206 B040     		lsls	r0, r0, r6
 4901 0208 4B46     		mov	r3, r9
 4902 020a 0343     		orrs	r3, r0
 4903 020c 9946     		mov	r9, r3
 4904              	.LVL702:
 4905              	.LBB342:
 4906              	.LBB343:
 4907              	.LBB344:
 4908              	.LBB345:
 246:..\..\..\liblc3\src/bits.h ****         int v = (accu->v >> accu->n) & ((1u << n) - 1);
 4909              		.loc 5 246 0
 4910 020e 2B6A     		ldr	r3, [r5, #32]
 4911              	.LVL703:
 4912 0210 5A1C     		adds	r2, r3, #1
 4913 0212 202A     		cmp	r2, #32
 4914 0214 05DC     		bgt	.L326
 4915              	.LBB346:
 247:..\..\..\liblc3\src/bits.h ****         return (accu->n += n), v;
 4916              		.loc 5 247 0
 4917 0216 E969     		ldr	r1, [r5, #28]
 4918 0218 D940     		lsrs	r1, r1, r3
 4919 021a 0120     		movs	r0, #1
 4920 021c 0840     		ands	r0, r1
 4921              	.LVL704:
 248:..\..\..\liblc3\src/bits.h ****     }
 4922              		.loc 5 248 0
 4923 021e 2A62     		str	r2, [r5, #32]
 4924 0220 03E0     		b	.L327
 4925              	.LVL705:
 4926              	.L326:
 4927              	.LBE346:
 251:..\..\..\liblc3\src/bits.h ****     }
 4928              		.loc 5 251 0
 4929 0222 0121     		movs	r1, #1
 4930 0224 2800     		movs	r0, r5
 4931 0226 FFF7FEFF 		bl	lc3_get_bits_generic
 4932              	.LVL706:
 4933              	.L327:
 4934              	.LBE345:
 4935              	.LBE344:
 4936              	.LBE343:
 4937              	.LBE342:
 535:..\..\..\liblc3\src/spec.c **** 
 4938              		.loc 1 535 0
 4939 022a B040     		lsls	r0, r0, r6
 4940 022c 4346     		mov	r3, r8
 4941 022e 0343     		orrs	r3, r0
 4942 0230 9846     		mov	r8, r3
 4943              	.LVL707:
 537:..\..\..\liblc3\src/spec.c ****                 s  = lc3_get_symbol(bits, lc3_spectrum_models + lut[k]);
 4944              		.loc 1 537 0
 4945 0232 E30F     		lsrs	r3, r4, #31
 4946              	.LVL708:
 4947 0234 0021     		movs	r1, #0
 4948 0236 0222     		movs	r2, #2
 4949 0238 A242     		cmp	r2, r4
 4950 023a 4B41     		adcs	r3, r3, r1
ARM GAS  C:\Users\rdn\AppData\Local\Temp\cciiQw7C.s 			page 120


 4951 023c E418     		adds	r4, r4, r3
 4952              	.LVL709:
 538:..\..\..\liblc3\src/spec.c ****             }
 4953              		.loc 1 538 0
 4954 023e 5346     		mov	r3, r10
 4955 0240 1B5D     		ldrb	r3, [r3, r4]
 4956 0242 1A01     		lsls	r2, r3, #4
 4957 0244 D318     		adds	r3, r2, r3
 4958 0246 9A00     		lsls	r2, r3, #2
 4959 0248 444B     		ldr	r3, .L366+8
 4960 024a D218     		adds	r2, r2, r3
 4961              	.LVL710:
 4962              	.LBB347:
 4963              	.LBB336:
 284:..\..\..\liblc3\src/bits.h **** 
 4964              		.loc 5 284 0
 4965 024c AB68     		ldr	r3, [r5, #8]
 4966 024e 9B0A     		lsrs	r3, r3, #10
 4967 0250 1B04     		lsls	r3, r3, #16
 4968 0252 1B0C     		lsrs	r3, r3, #16
 4969              	.LVL711:
 286:..\..\..\liblc3\src/bits.h ****     if (ac->error)
 4970              		.loc 5 286 0
 4971 0254 287E     		ldrb	r0, [r5, #24]
 4972 0256 8446     		mov	ip, r0
 4973 0258 9802     		lsls	r0, r3, #10
 4974 025a 6F68     		ldr	r7, [r5, #4]
 4975              	.LVL712:
 4976 025c 8742     		cmp	r7, r0
 4977 025e 4941     		adcs	r1, r1, r1
 4978 0260 C9B2     		uxtb	r1, r1
 4979 0262 6046     		mov	r0, ip
 4980 0264 0143     		orrs	r1, r0
 4981 0266 2976     		strb	r1, [r5, #24]
 287:..\..\..\liblc3\src/bits.h ****         ac->low = 0;
 4982              		.loc 5 287 0
 4983 0268 01D0     		beq	.L328
 288:..\..\..\liblc3\src/bits.h **** 
 4984              		.loc 5 288 0
 4985 026a 0021     		movs	r1, #0
 4986 026c 6960     		str	r1, [r5, #4]
 4987              	.L328:
 4988              	.LVL713:
 292:..\..\..\liblc3\src/bits.h ****         s >>= 1;
 4989              		.loc 5 292 0
 4990 026e 6968     		ldr	r1, [r5, #4]
 4991 0270 1000     		movs	r0, r2
 4992 0272 4030     		adds	r0, r0, #64
 4993 0274 0088     		ldrh	r0, [r0]
 4994 0276 5843     		muls	r0, r3
 4995 0278 8142     		cmp	r1, r0
 4996 027a 25D2     		bcs	.L361
 4997              	.LVL714:
 294:..\..\..\liblc3\src/bits.h ****         s -= ac->low < range * symbols[s].low ? 2 : -2;
 4998              		.loc 5 294 0
 4999 027c 108C     		ldrh	r0, [r2, #32]
 5000 027e 5843     		muls	r0, r3
ARM GAS  C:\Users\rdn\AppData\Local\Temp\cciiQw7C.s 			page 121


 5001 0280 8142     		cmp	r1, r0
 5002 0282 01D2     		bcs	.L362
 5003 0284 0420     		movs	r0, #4
 5004 0286 01E0     		b	.L330
 5005              	.L362:
 5006 0288 0420     		movs	r0, #4
 5007 028a 4042     		rsbs	r0, r0, #0
 5008              	.L330:
 5009 028c 0827     		movs	r7, #8
 5010 028e 381A     		subs	r0, r7, r0
 5011              	.LVL715:
 295:..\..\..\liblc3\src/bits.h ****         s -= ac->low < range * symbols[s].low ? 1 : -1;
 5012              		.loc 5 295 0
 5013 0290 8700     		lsls	r7, r0, #2
 5014 0292 D75B     		ldrh	r7, [r2, r7]
 5015 0294 5F43     		muls	r7, r3
 5016 0296 B942     		cmp	r1, r7
 5017 0298 01D2     		bcs	.L363
 5018 029a 0227     		movs	r7, #2
 5019 029c 01E0     		b	.L331
 5020              	.L363:
 5021 029e 0227     		movs	r7, #2
 5022 02a0 7F42     		rsbs	r7, r7, #0
 5023              	.L331:
 5024 02a2 C01B     		subs	r0, r0, r7
 5025              	.LVL716:
 296:..\..\..\liblc3\src/bits.h ****         s -= ac->low < range * symbols[s].low;
 5026              		.loc 5 296 0
 5027 02a4 8700     		lsls	r7, r0, #2
 5028 02a6 D75B     		ldrh	r7, [r2, r7]
 5029 02a8 5F43     		muls	r7, r3
 5030 02aa B942     		cmp	r1, r7
 5031 02ac 01D2     		bcs	.L364
 5032 02ae 0127     		movs	r7, #1
 5033 02b0 01E0     		b	.L332
 5034              	.L364:
 5035 02b2 0127     		movs	r7, #1
 5036 02b4 7F42     		rsbs	r7, r7, #0
 5037              	.L332:
 5038 02b6 C71B     		subs	r7, r0, r7
 5039              	.LVL717:
 297:..\..\..\liblc3\src/bits.h ****     }
 5040              		.loc 5 297 0
 5041 02b8 B800     		lsls	r0, r7, #2
 5042 02ba 105A     		ldrh	r0, [r2, r0]
 5043 02bc 5843     		muls	r0, r3
 5044 02be 8142     		cmp	r1, r0
 5045 02c0 8041     		sbcs	r0, r0, r0
 5046 02c2 4042     		rsbs	r0, r0, #0
 5047 02c4 381A     		subs	r0, r7, r0
 5048              	.LVL718:
 5049 02c6 00E0     		b	.L329
 5050              	.LVL719:
 5051              	.L361:
 290:..\..\..\liblc3\src/bits.h **** 
 5052              		.loc 5 290 0
 5053 02c8 1020     		movs	r0, #16
ARM GAS  C:\Users\rdn\AppData\Local\Temp\cciiQw7C.s 			page 122


 5054              	.LVL720:
 5055              	.L329:
 300:..\..\..\liblc3\src/bits.h ****     ac->range = range * symbols[s].range;
 5056              		.loc 5 300 0
 5057 02ca 0700     		movs	r7, r0
 5058 02cc 8000     		lsls	r0, r0, #2
 5059              	.LVL721:
 5060 02ce 1218     		adds	r2, r2, r0
 5061              	.LVL722:
 5062 02d0 1088     		ldrh	r0, [r2]
 5063 02d2 5843     		muls	r0, r3
 5064 02d4 091A     		subs	r1, r1, r0
 5065 02d6 6960     		str	r1, [r5, #4]
 301:..\..\..\liblc3\src/bits.h **** 
 5066              		.loc 5 301 0
 5067 02d8 5288     		ldrh	r2, [r2, #2]
 5068 02da 5343     		muls	r3, r2
 5069              	.LVL723:
 5070 02dc AB60     		str	r3, [r5, #8]
 5071              	.LVL724:
 303:..\..\..\liblc3\src/bits.h ****         lc3_ac_read_renorm(bits);
 5072              		.loc 5 303 0
 5073 02de 204A     		ldr	r2, .L366+12
 5074 02e0 9342     		cmp	r3, r2
 5075 02e2 02D8     		bhi	.L333
 5076              		.loc 5 304 0
 5077 02e4 2800     		movs	r0, r5
 5078 02e6 FFF7FEFF 		bl	lc3_ac_read_renorm
 5079              	.LVL725:
 5080              	.L333:
 5081              	.LBE336:
 5082              	.LBE347:
 533:..\..\..\liblc3\src/spec.c ****                 u |= lc3_get_bit(bits) << shl;
 5083              		.loc 1 533 0
 5084 02ea 0136     		adds	r6, r6, #1
 5085              	.LVL726:
 5086              	.L323:
 533:..\..\..\liblc3\src/spec.c ****                 u |= lc3_get_bit(bits) << shl;
 5087              		.loc 1 533 0 is_stmt 0 discriminator 1
 5088 02ec 0F2F     		cmp	r7, #15
 5089 02ee 02D9     		bls	.L334
 533:..\..\..\liblc3\src/spec.c ****                 u |= lc3_get_bit(bits) << shl;
 5090              		.loc 1 533 0 discriminator 2
 5091 02f0 5E45     		cmp	r6, fp
 5092 02f2 00DA     		bge	.LCB6017
 5093 02f4 79E7     		b	.L335	@long jump
 5094              	.LCB6017:
 5095              	.L334:
 541:..\..\..\liblc3\src/spec.c ****                 return -1;
 5096              		.loc 1 541 0 is_stmt 1
 5097 02f6 0F2F     		cmp	r7, #15
 5098 02f8 00D9     		bls	.LCB6020
 5099 02fa 93E0     		b	.L365	@long jump
 5100              	.LCB6020:
 546:..\..\..\liblc3\src/spec.c ****             int b = s / 4;
 5101              		.loc 1 546 0
 5102 02fc 0323     		movs	r3, #3
ARM GAS  C:\Users\rdn\AppData\Local\Temp\cciiQw7C.s 			page 123


 5103 02fe 3B40     		ands	r3, r7
 5104 0300 9A46     		mov	r10, r3
 5105              	.LVL727:
 547:..\..\..\liblc3\src/spec.c **** 
 5106              		.loc 1 547 0
 5107 0302 BB08     		lsrs	r3, r7, #2
 5108              	.LVL728:
 5109 0304 9B46     		mov	fp, r3
 5110              	.LVL729:
 549:..\..\..\liblc3\src/spec.c ****             v |= b << shl;
 5111              		.loc 1 549 0
 5112 0306 5746     		mov	r7, r10
 5113              	.LVL730:
 5114 0308 B740     		lsls	r7, r7, r6
 5115 030a 4B46     		mov	r3, r9
 5116              	.LVL731:
 5117 030c 3B43     		orrs	r3, r7
 5118 030e 1F00     		movs	r7, r3
 5119              	.LVL732:
 550:..\..\..\liblc3\src/spec.c **** 
 5120              		.loc 1 550 0
 5121 0310 5B46     		mov	r3, fp
 5122              	.LVL733:
 5123 0312 B340     		lsls	r3, r3, r6
 5124 0314 1E00     		movs	r6, r3
 5125              	.LVL734:
 5126 0316 4346     		mov	r3, r8
 5127 0318 3343     		orrs	r3, r6
 5128 031a 1E00     		movs	r6, r3
 5129              	.LVL735:
 552:..\..\..\liblc3\src/spec.c ****             x[i+1] = v && lc3_get_bit(bits) ? -v : v;
 5130              		.loc 1 552 0
 5131 031c 019A     		ldr	r2, [sp, #4]
 5132 031e 9046     		mov	r8, r2
 5133 0320 9300     		lsls	r3, r2, #2
 5134              	.LVL736:
 5135 0322 169A     		ldr	r2, [sp, #88]
 5136 0324 9146     		mov	r9, r2
 5137 0326 9944     		add	r9, r9, r3
 5138 0328 002F     		cmp	r7, #0
 5139 032a 1BD0     		beq	.L337
 5140              	.LVL737:
 5141              	.LBB348:
 5142              	.LBB349:
 5143              	.LBB350:
 5144              	.LBB351:
 246:..\..\..\liblc3\src/bits.h ****         int v = (accu->v >> accu->n) & ((1u << n) - 1);
 5145              		.loc 5 246 0
 5146 032c 2B6A     		ldr	r3, [r5, #32]
 5147 032e 5A1C     		adds	r2, r3, #1
 5148 0330 202A     		cmp	r2, #32
 5149 0332 05DC     		bgt	.L338
 5150              	.LBB352:
 247:..\..\..\liblc3\src/bits.h ****         return (accu->n += n), v;
 5151              		.loc 5 247 0
 5152 0334 E969     		ldr	r1, [r5, #28]
 5153 0336 D940     		lsrs	r1, r1, r3
ARM GAS  C:\Users\rdn\AppData\Local\Temp\cciiQw7C.s 			page 124


 5154 0338 0120     		movs	r0, #1
 5155 033a 0840     		ands	r0, r1
 5156              	.LVL738:
 248:..\..\..\liblc3\src/bits.h ****     }
 5157              		.loc 5 248 0
 5158 033c 2A62     		str	r2, [r5, #32]
 5159 033e 03E0     		b	.L339
 5160              	.LVL739:
 5161              	.L338:
 5162              	.LBE352:
 251:..\..\..\liblc3\src/bits.h ****     }
 5163              		.loc 5 251 0
 5164 0340 0121     		movs	r1, #1
 5165 0342 2800     		movs	r0, r5
 5166 0344 FFF7FEFF 		bl	lc3_get_bits_generic
 5167              	.LVL740:
 5168              	.L339:
 5169              	.LBE351:
 5170              	.LBE350:
 5171              	.LBE349:
 5172              	.LBE348:
 552:..\..\..\liblc3\src/spec.c ****             x[i+1] = v && lc3_get_bit(bits) ? -v : v;
 5173              		.loc 1 552 0
 5174 0348 0028     		cmp	r0, #0
 5175 034a 0BD0     		beq	.L337
 552:..\..\..\liblc3\src/spec.c ****             x[i+1] = v && lc3_get_bit(bits) ? -v : v;
 5176              		.loc 1 552 0 is_stmt 0 discriminator 3
 5177 034c 7842     		rsbs	r0, r7, #0
 5178 034e FFF7FEFF 		bl	__aeabi_i2f
 5179              	.LVL741:
 5180 0352 0AE0     		b	.L340
 5181              	.L367:
 5182              		.align	2
 5183              	.L366:
 5184 0354 00000000 		.word	lc3_ne_2m5
 5185 0358 00000000 		.word	lc3_spectrum_lookup
 5186 035c 00000000 		.word	lc3_spectrum_models
 5187 0360 FFFF0000 		.word	65535
 5188              	.LVL742:
 5189              	.L337:
 552:..\..\..\liblc3\src/spec.c ****             x[i+1] = v && lc3_get_bit(bits) ? -v : v;
 5190              		.loc 1 552 0 discriminator 4
 5191 0364 3800     		movs	r0, r7
 5192 0366 FFF7FEFF 		bl	__aeabi_i2f
 5193              	.LVL743:
 5194              	.L340:
 552:..\..\..\liblc3\src/spec.c ****             x[i+1] = v && lc3_get_bit(bits) ? -v : v;
 5195              		.loc 1 552 0 discriminator 6
 5196 036a 4B46     		mov	r3, r9
 5197 036c 1860     		str	r0, [r3]
 553:..\..\..\liblc3\src/spec.c **** 
 5198              		.loc 1 553 0 is_stmt 1 discriminator 6
 5199 036e 4346     		mov	r3, r8
 5200 0370 0133     		adds	r3, r3, #1
 5201 0372 9B00     		lsls	r3, r3, #2
 5202 0374 169A     		ldr	r2, [sp, #88]
 5203 0376 9046     		mov	r8, r2
ARM GAS  C:\Users\rdn\AppData\Local\Temp\cciiQw7C.s 			page 125


 5204 0378 9844     		add	r8, r8, r3
 5205 037a 002E     		cmp	r6, #0
 5206 037c 13D0     		beq	.L341
 5207              	.LVL744:
 5208              	.LBB353:
 5209              	.LBB354:
 5210              	.LBB355:
 5211              	.LBB356:
 246:..\..\..\liblc3\src/bits.h ****         int v = (accu->v >> accu->n) & ((1u << n) - 1);
 5212              		.loc 5 246 0
 5213 037e 2B6A     		ldr	r3, [r5, #32]
 5214 0380 5A1C     		adds	r2, r3, #1
 5215 0382 202A     		cmp	r2, #32
 5216 0384 05DC     		bgt	.L342
 5217              	.LBB357:
 247:..\..\..\liblc3\src/bits.h ****         return (accu->n += n), v;
 5218              		.loc 5 247 0
 5219 0386 E969     		ldr	r1, [r5, #28]
 5220 0388 D940     		lsrs	r1, r1, r3
 5221 038a 0120     		movs	r0, #1
 5222 038c 0840     		ands	r0, r1
 5223              	.LVL745:
 248:..\..\..\liblc3\src/bits.h ****     }
 5224              		.loc 5 248 0
 5225 038e 2A62     		str	r2, [r5, #32]
 5226 0390 03E0     		b	.L343
 5227              	.LVL746:
 5228              	.L342:
 5229              	.LBE357:
 251:..\..\..\liblc3\src/bits.h ****     }
 5230              		.loc 5 251 0
 5231 0392 0121     		movs	r1, #1
 5232 0394 2800     		movs	r0, r5
 5233 0396 FFF7FEFF 		bl	lc3_get_bits_generic
 5234              	.LVL747:
 5235              	.L343:
 5236              	.LBE356:
 5237              	.LBE355:
 5238              	.LBE354:
 5239              	.LBE353:
 553:..\..\..\liblc3\src/spec.c **** 
 5240              		.loc 1 553 0
 5241 039a 0028     		cmp	r0, #0
 5242 039c 03D0     		beq	.L341
 553:..\..\..\liblc3\src/spec.c **** 
 5243              		.loc 1 553 0 is_stmt 0 discriminator 3
 5244 039e 7042     		rsbs	r0, r6, #0
 5245 03a0 FFF7FEFF 		bl	__aeabi_i2f
 5246              	.LVL748:
 5247 03a4 02E0     		b	.L344
 5248              	.LVL749:
 5249              	.L341:
 553:..\..\..\liblc3\src/spec.c **** 
 5250              		.loc 1 553 0 discriminator 4
 5251 03a6 3000     		movs	r0, r6
 5252 03a8 FFF7FEFF 		bl	__aeabi_i2f
 5253              	.LVL750:
ARM GAS  C:\Users\rdn\AppData\Local\Temp\cciiQw7C.s 			page 126


 5254              	.L344:
 553:..\..\..\liblc3\src/spec.c **** 
 5255              		.loc 1 553 0 discriminator 6
 5256 03ac 4346     		mov	r3, r8
 5257 03ae 1860     		str	r0, [r3]
 556:..\..\..\liblc3\src/spec.c **** 
 5258              		.loc 1 556 0 is_stmt 1 discriminator 6
 5259 03b0 0199     		ldr	r1, [sp, #4]
 5260 03b2 4A1C     		adds	r2, r1, #1
 555:..\..\..\liblc3\src/spec.c ****                                  + (v & 0x7fff) * (i+1)) & 0xffff;
 5261              		.loc 1 555 0 discriminator 6
 5262 03b4 7604     		lsls	r6, r6, #17
 5263              	.LVL751:
 5264 03b6 730C     		lsrs	r3, r6, #17
 5265 03b8 1600     		movs	r6, r2
 5266 03ba 5E43     		muls	r6, r3
 5267 03bc 7F04     		lsls	r7, r7, #17
 5268              	.LVL752:
 5269 03be 7F0C     		lsrs	r7, r7, #17
 5270 03c0 4F43     		muls	r7, r1
 5271 03c2 F619     		adds	r6, r6, r7
 5272 03c4 179B     		ldr	r3, [sp, #92]
 5273 03c6 1F88     		ldrh	r7, [r3]
 5274 03c8 F619     		adds	r6, r6, r7
 5275 03ca 1E80     		strh	r6, [r3]
 560:..\..\..\liblc3\src/spec.c ****         }
 5276              		.loc 1 560 0 discriminator 6
 5277 03cc 029B     		ldr	r3, [sp, #8]
 5278 03ce 1A01     		lsls	r2, r3, #4
 5279 03d0 D2B2     		uxtb	r2, r2
 5280 03d2 012C     		cmp	r4, #1
 5281 03d4 03DD     		ble	.L345
 560:..\..\..\liblc3\src/spec.c ****         }
 5282              		.loc 1 560 0 is_stmt 0 discriminator 1
 5283 03d6 2300     		movs	r3, r4
 5284 03d8 0C33     		adds	r3, r3, #12
 5285 03da DCB2     		uxtb	r4, r3
 5286              	.LVL753:
 5287 03dc 05E0     		b	.L346
 5288              	.LVL754:
 5289              	.L345:
 560:..\..\..\liblc3\src/spec.c ****         }
 5290              		.loc 1 560 0 discriminator 2
 5291 03de 5746     		mov	r7, r10
 5292 03e0 5F44     		add	r7, r7, fp
 5293 03e2 0134     		adds	r4, r4, #1
 5294              	.LVL755:
 5295 03e4 7C43     		muls	r4, r7
 5296              	.LVL756:
 5297 03e6 671C     		adds	r7, r4, #1
 5298 03e8 FCB2     		uxtb	r4, r7
 5299              	.L346:
 560:..\..\..\liblc3\src/spec.c ****         }
 5300              		.loc 1 560 0 discriminator 4
 5301 03ea A418     		adds	r4, r4, r2
 5302 03ec E3B2     		uxtb	r3, r4
 5303 03ee 0293     		str	r3, [sp, #8]
ARM GAS  C:\Users\rdn\AppData\Local\Temp\cciiQw7C.s 			page 127


 5304              	.LVL757:
 5305              	.LBE329:
 513:..\..\..\liblc3\src/spec.c **** 
 5306              		.loc 1 513 0 is_stmt 1 discriminator 4
 5307 03f0 019B     		ldr	r3, [sp, #4]
 5308 03f2 0233     		adds	r3, r3, #2
 5309 03f4 0193     		str	r3, [sp, #4]
 5310              	.LVL758:
 5311              	.L308:
 513:..\..\..\liblc3\src/spec.c **** 
 5312              		.loc 1 513 0 is_stmt 0 discriminator 1
 5313 03f6 049B     		ldr	r3, [sp, #16]
 5314 03f8 0233     		adds	r3, r3, #2
 5315 03fa 0122     		movs	r2, #1
 5316 03fc 0399     		ldr	r1, [sp, #12]
 5317 03fe 521A     		subs	r2, r2, r1
 5318 0400 1341     		asrs	r3, r3, r2
 5319 0402 0599     		ldr	r1, [sp, #20]
 5320 0404 8B42     		cmp	r3, r1
 5321 0406 00DD     		ble	.L347
 5322 0408 0B00     		movs	r3, r1
 5323              	.L347:
 5324 040a 019A     		ldr	r2, [sp, #4]
 5325 040c 9A42     		cmp	r2, r3
 5326 040e 00DA     		bge	.LCB6286
 5327 0410 23E6     		b	.L348	@long jump
 5328              	.LCB6286:
 5329              	.LBE328:
 510:..\..\..\liblc3\src/spec.c ****         const uint8_t (*lut_coeff)[4] = lc3_spectrum_lookup[high_rate][h];
 5330              		.loc 1 510 0 is_stmt 1 discriminator 2
 5331 0412 039B     		ldr	r3, [sp, #12]
 5332 0414 0133     		adds	r3, r3, #1
 5333 0416 0393     		str	r3, [sp, #12]
 5334              	.LVL759:
 5335              	.L307:
 510:..\..\..\liblc3\src/spec.c ****         const uint8_t (*lut_coeff)[4] = lc3_spectrum_lookup[high_rate][h];
 5336              		.loc 1 510 0 is_stmt 0 discriminator 1
 5337 0418 039B     		ldr	r3, [sp, #12]
 5338 041a 012B     		cmp	r3, #1
 5339 041c 00DC     		bgt	.LCB6304
 5340 041e 12E6     		b	.L349	@long jump
 5341              	.LCB6304:
 5342              	.LBE360:
 564:..\..\..\liblc3\src/spec.c **** }
 5343              		.loc 1 564 0 is_stmt 1
 5344 0420 0020     		movs	r0, #0
 5345              	.LBB361:
 5346 0422 01E0     		b	.L336
 5347              	.LVL760:
 5348              	.L365:
 5349              	.LBB359:
 5350              	.LBB358:
 542:..\..\..\liblc3\src/spec.c **** 
 5351              		.loc 1 542 0
 5352 0424 0120     		movs	r0, #1
 5353 0426 4042     		rsbs	r0, r0, #0
 5354              	.LVL761:
ARM GAS  C:\Users\rdn\AppData\Local\Temp\cciiQw7C.s 			page 128


 5355              	.L336:
 5356              	.LBE358:
 5357              	.LBE359:
 5358              	.LBE361:
 565:..\..\..\liblc3\src/spec.c **** 
 5359              		.loc 1 565 0
 5360 0428 0BB0     		add	sp, sp, #44
 5361              		@ sp needed
 5362              	.LVL762:
 5363 042a 3CBC     		pop	{r2, r3, r4, r5}
 5364 042c 9046     		mov	r8, r2
 5365 042e 9946     		mov	r9, r3
 5366 0430 A246     		mov	r10, r4
 5367 0432 AB46     		mov	fp, r5
 5368 0434 F0BD     		pop	{r4, r5, r6, r7, pc}
 5369              		.cfi_endproc
 5370              	.LFE29:
 5371              		.size	get_quantized, .-get_quantized
 5372 0436 C046     		.section	.text.get_lsb,"ax",%progbits
 5373              		.align	2
 5374              		.code	16
 5375              		.thumb_func
 5376              		.type	get_lsb, %function
 5377              	get_lsb:
 5378              	.LFB33:
 672:..\..\..\liblc3\src/spec.c ****     for (int i = 0; i < nq && nbits > 0; i += 2) {
 5379              		.loc 1 672 0
 5380              		.cfi_startproc
 5381              		@ args = 4, pretend = 0, frame = 8
 5382              		@ frame_needed = 0, uses_anonymous_args = 0
 5383              	.LVL763:
 5384 0000 F0B5     		push	{r4, r5, r6, r7, lr}
 5385              		.cfi_def_cfa_offset 20
 5386              		.cfi_offset 4, -20
 5387              		.cfi_offset 5, -16
 5388              		.cfi_offset 6, -12
 5389              		.cfi_offset 7, -8
 5390              		.cfi_offset 14, -4
 5391 0002 5F46     		mov	r7, fp
 5392 0004 5646     		mov	r6, r10
 5393 0006 4D46     		mov	r5, r9
 5394 0008 4446     		mov	r4, r8
 5395 000a F0B4     		push	{r4, r5, r6, r7}
 5396              		.cfi_def_cfa_offset 36
 5397              		.cfi_offset 8, -36
 5398              		.cfi_offset 9, -32
 5399              		.cfi_offset 10, -28
 5400              		.cfi_offset 11, -24
 5401 000c 83B0     		sub	sp, sp, #12
 5402              		.cfi_def_cfa_offset 48
 5403 000e 8346     		mov	fp, r0
 5404 0010 8946     		mov	r9, r1
 5405 0012 9246     		mov	r10, r2
 5406 0014 0093     		str	r3, [sp]
 5407              	.LVL764:
 5408              	.LBB384:
 673:..\..\..\liblc3\src/spec.c **** 
ARM GAS  C:\Users\rdn\AppData\Local\Temp\cciiQw7C.s 			page 129


 5409              		.loc 1 673 0
 5410 0016 0027     		movs	r7, #0
 5411 0018 CDE0     		b	.L369
 5412              	.LVL765:
 5413              	.L391:
 5414              	.LBB385:
 675:..\..\..\liblc3\src/spec.c **** 
 5415              		.loc 1 675 0
 5416 001a BE00     		lsls	r6, r7, #2
 5417 001c 5644     		add	r6, r6, r10
 5418 001e 3368     		ldr	r3, [r6]
 5419              	.LVL766:
 5420 0020 5D00     		lsls	r5, r3, #1
 5421 0022 6D08     		lsrs	r5, r5, #1
 5422              	.LVL767:
 5423 0024 7C1C     		adds	r4, r7, #1
 5424 0026 A400     		lsls	r4, r4, #2
 5425 0028 5444     		add	r4, r4, r10
 5426 002a 2368     		ldr	r3, [r4]
 5427 002c 5B00     		lsls	r3, r3, #1
 5428 002e 5B08     		lsrs	r3, r3, #1
 5429 0030 1900     		movs	r1, r3
 5430 0032 0193     		str	r3, [sp, #4]
 5431              	.LVL768:
 677:..\..\..\liblc3\src/spec.c ****             continue;
 5432              		.loc 1 677 0
 5433 0034 281C     		adds	r0, r5, #0
 5434 0036 FFF7FEFF 		bl	fmaxf
 5435              	.LVL769:
 5436 003a 8121     		movs	r1, #129
 5437 003c C905     		lsls	r1, r1, #23
 5438 003e FFF7FEFF 		bl	__aeabi_fcmplt
 5439              	.LVL770:
 5440 0042 0028     		cmp	r0, #0
 5441 0044 00D0     		beq	.LCB6437
 5442 0046 B5E0     		b	.L370	@long jump
 5443              	.LCB6437:
 680:..\..\..\liblc3\src/spec.c ****             if (a) {
 5444              		.loc 1 680 0
 5445 0048 0123     		movs	r3, #1
 5446 004a 5B42     		rsbs	r3, r3, #0
 5447 004c 4B44     		add	r3, r3, r9
 5448 004e 9846     		mov	r8, r3
 5449              	.LVL771:
 5450 0050 4B46     		mov	r3, r9
 5451              	.LVL772:
 5452 0052 002B     		cmp	r3, #0
 5453 0054 52DD     		ble	.L371
 5454              	.LVL773:
 5455              	.LBB386:
 5456              	.LBB387:
 5457              	.LBB388:
 5458              	.LBB389:
 246:..\..\..\liblc3\src/bits.h ****         int v = (accu->v >> accu->n) & ((1u << n) - 1);
 5459              		.loc 5 246 0
 5460 0056 5B46     		mov	r3, fp
 5461 0058 1B6A     		ldr	r3, [r3, #32]
ARM GAS  C:\Users\rdn\AppData\Local\Temp\cciiQw7C.s 			page 130


 5462 005a 5A1C     		adds	r2, r3, #1
 5463 005c 202A     		cmp	r2, #32
 5464 005e 07DC     		bgt	.L372
 5465              	.LBB390:
 247:..\..\..\liblc3\src/bits.h ****         return (accu->n += n), v;
 5466              		.loc 5 247 0
 5467 0060 5946     		mov	r1, fp
 5468 0062 C969     		ldr	r1, [r1, #28]
 5469 0064 D940     		lsrs	r1, r1, r3
 5470 0066 0130     		adds	r0, r0, #1
 5471 0068 0840     		ands	r0, r1
 5472              	.LVL774:
 248:..\..\..\liblc3\src/bits.h ****     }
 5473              		.loc 5 248 0
 5474 006a 5B46     		mov	r3, fp
 5475 006c 1A62     		str	r2, [r3, #32]
 5476 006e 03E0     		b	.L373
 5477              	.LVL775:
 5478              	.L372:
 5479              	.LBE390:
 251:..\..\..\liblc3\src/bits.h ****     }
 5480              		.loc 5 251 0
 5481 0070 0121     		movs	r1, #1
 5482 0072 5846     		mov	r0, fp
 5483 0074 FFF7FEFF 		bl	lc3_get_bits_generic
 5484              	.LVL776:
 5485              	.L373:
 5486              	.LBE389:
 5487              	.LBE388:
 5488              	.LBE387:
 5489              	.LBE386:
 680:..\..\..\liblc3\src/spec.c ****             if (a) {
 5490              		.loc 1 680 0
 5491 0078 0028     		cmp	r0, #0
 5492 007a 3FD0     		beq	.L371
 681:..\..\..\liblc3\src/spec.c ****                 x[i] += x[i] < 0 ? -1 : 1;
 5493              		.loc 1 681 0
 5494 007c 0021     		movs	r1, #0
 5495 007e 281C     		adds	r0, r5, #0
 5496 0080 FFF7FEFF 		bl	__aeabi_fcmpeq
 5497              	.LVL777:
 5498 0084 0028     		cmp	r0, #0
 5499 0086 14D1     		bne	.L402
 682:..\..\..\liblc3\src/spec.c ****                 *nf_seed = (*nf_seed + i) & 0xffff;
 5500              		.loc 1 682 0
 5501 0088 3568     		ldr	r5, [r6]
 5502              	.LVL778:
 5503 008a 0021     		movs	r1, #0
 5504 008c 281C     		adds	r0, r5, #0
 5505 008e FFF7FEFF 		bl	__aeabi_fcmplt
 5506              	.LVL779:
 5507 0092 0028     		cmp	r0, #0
 5508 0094 01D0     		beq	.L403
 5509 0096 4F48     		ldr	r0, .L406
 5510 0098 01E0     		b	.L376
 5511              	.L403:
 5512 009a FE20     		movs	r0, #254
ARM GAS  C:\Users\rdn\AppData\Local\Temp\cciiQw7C.s 			page 131


 5513 009c 8005     		lsls	r0, r0, #22
 5514              	.L376:
 682:..\..\..\liblc3\src/spec.c ****                 *nf_seed = (*nf_seed + i) & 0xffff;
 5515              		.loc 1 682 0 is_stmt 0 discriminator 4
 5516 009e 291C     		adds	r1, r5, #0
 5517 00a0 FFF7FEFF 		bl	__aeabi_fadd
 5518              	.LVL780:
 5519 00a4 3060     		str	r0, [r6]
 683:..\..\..\liblc3\src/spec.c ****             } else if (nbits-- > 0) {
 5520              		.loc 1 683 0 is_stmt 1 discriminator 4
 5521 00a6 0C9B     		ldr	r3, [sp, #48]
 5522 00a8 1B88     		ldrh	r3, [r3]
 5523 00aa DB19     		adds	r3, r3, r7
 5524 00ac 0C9A     		ldr	r2, [sp, #48]
 5525 00ae 1380     		strh	r3, [r2]
 5526 00b0 24E0     		b	.L371
 5527              	.LVL781:
 5528              	.L402:
 684:..\..\..\liblc3\src/spec.c ****                 x[i] = lc3_get_bit(bits) ? -1 : 1;
 5529              		.loc 1 684 0
 5530 00b2 4D46     		mov	r5, r9
 5531              	.LVL782:
 5532 00b4 023D     		subs	r5, r5, #2
 5533              	.LVL783:
 5534 00b6 4346     		mov	r3, r8
 5535 00b8 002B     		cmp	r3, #0
 5536 00ba 1EDD     		ble	.L393
 5537              	.LVL784:
 5538              	.LBB391:
 5539              	.LBB392:
 5540              	.LBB393:
 5541              	.LBB394:
 246:..\..\..\liblc3\src/bits.h ****         int v = (accu->v >> accu->n) & ((1u << n) - 1);
 5542              		.loc 5 246 0
 5543 00bc 5B46     		mov	r3, fp
 5544 00be 1B6A     		ldr	r3, [r3, #32]
 5545 00c0 5A1C     		adds	r2, r3, #1
 5546 00c2 202A     		cmp	r2, #32
 5547 00c4 07DC     		bgt	.L378
 5548              	.LBB395:
 247:..\..\..\liblc3\src/bits.h ****         return (accu->n += n), v;
 5549              		.loc 5 247 0
 5550 00c6 5946     		mov	r1, fp
 5551 00c8 C969     		ldr	r1, [r1, #28]
 5552 00ca D940     		lsrs	r1, r1, r3
 5553 00cc 0120     		movs	r0, #1
 5554 00ce 0840     		ands	r0, r1
 5555              	.LVL785:
 248:..\..\..\liblc3\src/bits.h ****     }
 5556              		.loc 5 248 0
 5557 00d0 5B46     		mov	r3, fp
 5558 00d2 1A62     		str	r2, [r3, #32]
 5559 00d4 03E0     		b	.L379
 5560              	.LVL786:
 5561              	.L378:
 5562              	.LBE395:
 251:..\..\..\liblc3\src/bits.h ****     }
ARM GAS  C:\Users\rdn\AppData\Local\Temp\cciiQw7C.s 			page 132


 5563              		.loc 5 251 0
 5564 00d6 0121     		movs	r1, #1
 5565 00d8 5846     		mov	r0, fp
 5566 00da FFF7FEFF 		bl	lc3_get_bits_generic
 5567              	.LVL787:
 5568              	.L379:
 5569              	.LBE394:
 5570              	.LBE393:
 5571              	.LBE392:
 5572              	.LBE391:
 685:..\..\..\liblc3\src/spec.c ****                 *nf_seed = (*nf_seed + i) & 0xffff;
 5573              		.loc 1 685 0
 5574 00de 0028     		cmp	r0, #0
 5575 00e0 01D0     		beq	.L394
 5576 00e2 3C4B     		ldr	r3, .L406
 5577 00e4 01E0     		b	.L380
 5578              	.L394:
 5579 00e6 FE23     		movs	r3, #254
 5580 00e8 9B05     		lsls	r3, r3, #22
 5581              	.L380:
 685:..\..\..\liblc3\src/spec.c ****                 *nf_seed = (*nf_seed + i) & 0xffff;
 5582              		.loc 1 685 0 is_stmt 0 discriminator 4
 5583 00ea 3360     		str	r3, [r6]
 686:..\..\..\liblc3\src/spec.c ****             }
 5584              		.loc 1 686 0 is_stmt 1 discriminator 4
 5585 00ec 0C9B     		ldr	r3, [sp, #48]
 5586 00ee 1B88     		ldrh	r3, [r3]
 5587 00f0 DB19     		adds	r3, r3, r7
 5588 00f2 0C9A     		ldr	r2, [sp, #48]
 5589 00f4 1380     		strh	r3, [r2]
 684:..\..\..\liblc3\src/spec.c ****                 x[i] = lc3_get_bit(bits) ? -1 : 1;
 5590              		.loc 1 684 0 discriminator 4
 5591 00f6 A846     		mov	r8, r5
 5592 00f8 00E0     		b	.L371
 5593              	.LVL788:
 5594              	.L393:
 684:..\..\..\liblc3\src/spec.c ****                 x[i] = lc3_get_bit(bits) ? -1 : 1;
 5595              		.loc 1 684 0 is_stmt 0
 5596 00fa A846     		mov	r8, r5
 5597              	.LVL789:
 5598              	.L371:
 690:..\..\..\liblc3\src/spec.c ****             if (b) {
 5599              		.loc 1 690 0 is_stmt 1
 5600 00fc 0123     		movs	r3, #1
 5601 00fe 5B42     		rsbs	r3, r3, #0
 5602 0100 4344     		add	r3, r3, r8
 5603 0102 9946     		mov	r9, r3
 5604              	.LVL790:
 5605 0104 4346     		mov	r3, r8
 5606              	.LVL791:
 5607 0106 002B     		cmp	r3, #0
 5608 0108 54DD     		ble	.L370
 5609              	.LVL792:
 5610              	.LBB396:
 5611              	.LBB397:
 5612              	.LBB398:
 5613              	.LBB399:
ARM GAS  C:\Users\rdn\AppData\Local\Temp\cciiQw7C.s 			page 133


 246:..\..\..\liblc3\src/bits.h ****         int v = (accu->v >> accu->n) & ((1u << n) - 1);
 5614              		.loc 5 246 0
 5615 010a 5B46     		mov	r3, fp
 5616 010c 1B6A     		ldr	r3, [r3, #32]
 5617 010e 5A1C     		adds	r2, r3, #1
 5618 0110 202A     		cmp	r2, #32
 5619 0112 07DC     		bgt	.L381
 5620              	.LBB400:
 247:..\..\..\liblc3\src/bits.h ****         return (accu->n += n), v;
 5621              		.loc 5 247 0
 5622 0114 5946     		mov	r1, fp
 5623 0116 C969     		ldr	r1, [r1, #28]
 5624 0118 D940     		lsrs	r1, r1, r3
 5625 011a 0120     		movs	r0, #1
 5626 011c 0840     		ands	r0, r1
 5627              	.LVL793:
 248:..\..\..\liblc3\src/bits.h ****     }
 5628              		.loc 5 248 0
 5629 011e 5B46     		mov	r3, fp
 5630 0120 1A62     		str	r2, [r3, #32]
 5631 0122 03E0     		b	.L382
 5632              	.LVL794:
 5633              	.L381:
 5634              	.LBE400:
 251:..\..\..\liblc3\src/bits.h ****     }
 5635              		.loc 5 251 0
 5636 0124 0121     		movs	r1, #1
 5637 0126 5846     		mov	r0, fp
 5638 0128 FFF7FEFF 		bl	lc3_get_bits_generic
 5639              	.LVL795:
 5640              	.L382:
 5641              	.LBE399:
 5642              	.LBE398:
 5643              	.LBE397:
 5644              	.LBE396:
 690:..\..\..\liblc3\src/spec.c ****             if (b) {
 5645              		.loc 1 690 0
 5646 012c 0028     		cmp	r0, #0
 5647 012e 41D0     		beq	.L370
 691:..\..\..\liblc3\src/spec.c ****                 x[i+1] += x[i+1] < 0 ? -1 : 1;
 5648              		.loc 1 691 0
 5649 0130 0021     		movs	r1, #0
 5650 0132 0198     		ldr	r0, [sp, #4]
 5651 0134 FFF7FEFF 		bl	__aeabi_fcmpeq
 5652              	.LVL796:
 5653 0138 0028     		cmp	r0, #0
 5654 013a 15D1     		bne	.L404
 692:..\..\..\liblc3\src/spec.c ****                 *nf_seed = (*nf_seed + i+1) & 0xffff;
 5655              		.loc 1 692 0
 5656 013c 2568     		ldr	r5, [r4]
 5657 013e 0021     		movs	r1, #0
 5658 0140 281C     		adds	r0, r5, #0
 5659 0142 FFF7FEFF 		bl	__aeabi_fcmplt
 5660              	.LVL797:
 5661 0146 0028     		cmp	r0, #0
 5662 0148 01D0     		beq	.L405
 5663 014a 2248     		ldr	r0, .L406
ARM GAS  C:\Users\rdn\AppData\Local\Temp\cciiQw7C.s 			page 134


 5664 014c 01E0     		b	.L385
 5665              	.L405:
 5666 014e FE20     		movs	r0, #254
 5667 0150 8005     		lsls	r0, r0, #22
 5668              	.L385:
 692:..\..\..\liblc3\src/spec.c ****                 *nf_seed = (*nf_seed + i+1) & 0xffff;
 5669              		.loc 1 692 0 is_stmt 0 discriminator 4
 5670 0152 291C     		adds	r1, r5, #0
 5671 0154 FFF7FEFF 		bl	__aeabi_fadd
 5672              	.LVL798:
 5673 0158 2060     		str	r0, [r4]
 693:..\..\..\liblc3\src/spec.c ****             } else if (nbits-- > 0) {
 5674              		.loc 1 693 0 is_stmt 1 discriminator 4
 5675 015a 0C9B     		ldr	r3, [sp, #48]
 5676 015c 1B88     		ldrh	r3, [r3]
 5677 015e DB19     		adds	r3, r3, r7
 5678 0160 0133     		adds	r3, r3, #1
 5679 0162 0C9A     		ldr	r2, [sp, #48]
 5680 0164 1380     		strh	r3, [r2]
 5681 0166 25E0     		b	.L370
 5682              	.L404:
 694:..\..\..\liblc3\src/spec.c ****                 x[i+1] = lc3_get_bit(bits) ? -1 : 1;
 5683              		.loc 1 694 0
 5684 0168 4546     		mov	r5, r8
 5685 016a 023D     		subs	r5, r5, #2
 5686              	.LVL799:
 5687 016c 4B46     		mov	r3, r9
 5688 016e 002B     		cmp	r3, #0
 5689 0170 1FDD     		ble	.L396
 5690              	.LVL800:
 5691              	.LBB401:
 5692              	.LBB402:
 5693              	.LBB403:
 5694              	.LBB404:
 246:..\..\..\liblc3\src/bits.h ****         int v = (accu->v >> accu->n) & ((1u << n) - 1);
 5695              		.loc 5 246 0
 5696 0172 5B46     		mov	r3, fp
 5697 0174 1B6A     		ldr	r3, [r3, #32]
 5698 0176 5A1C     		adds	r2, r3, #1
 5699 0178 202A     		cmp	r2, #32
 5700 017a 07DC     		bgt	.L387
 5701              	.LBB405:
 247:..\..\..\liblc3\src/bits.h ****         return (accu->n += n), v;
 5702              		.loc 5 247 0
 5703 017c 5946     		mov	r1, fp
 5704 017e C969     		ldr	r1, [r1, #28]
 5705 0180 D940     		lsrs	r1, r1, r3
 5706 0182 0120     		movs	r0, #1
 5707 0184 0840     		ands	r0, r1
 5708              	.LVL801:
 248:..\..\..\liblc3\src/bits.h ****     }
 5709              		.loc 5 248 0
 5710 0186 5B46     		mov	r3, fp
 5711 0188 1A62     		str	r2, [r3, #32]
 5712 018a 03E0     		b	.L388
 5713              	.LVL802:
 5714              	.L387:
ARM GAS  C:\Users\rdn\AppData\Local\Temp\cciiQw7C.s 			page 135


 5715              	.LBE405:
 251:..\..\..\liblc3\src/bits.h ****     }
 5716              		.loc 5 251 0
 5717 018c 0121     		movs	r1, #1
 5718 018e 5846     		mov	r0, fp
 5719 0190 FFF7FEFF 		bl	lc3_get_bits_generic
 5720              	.LVL803:
 5721              	.L388:
 5722              	.LBE404:
 5723              	.LBE403:
 5724              	.LBE402:
 5725              	.LBE401:
 695:..\..\..\liblc3\src/spec.c ****                 *nf_seed = (*nf_seed + i+1) & 0xffff;
 5726              		.loc 1 695 0
 5727 0194 0028     		cmp	r0, #0
 5728 0196 01D0     		beq	.L397
 5729 0198 0E4B     		ldr	r3, .L406
 5730 019a 01E0     		b	.L389
 5731              	.L397:
 5732 019c FE23     		movs	r3, #254
 5733 019e 9B05     		lsls	r3, r3, #22
 5734              	.L389:
 695:..\..\..\liblc3\src/spec.c ****                 *nf_seed = (*nf_seed + i+1) & 0xffff;
 5735              		.loc 1 695 0 is_stmt 0 discriminator 4
 5736 01a0 2360     		str	r3, [r4]
 696:..\..\..\liblc3\src/spec.c ****             }
 5737              		.loc 1 696 0 is_stmt 1 discriminator 4
 5738 01a2 0C9B     		ldr	r3, [sp, #48]
 5739 01a4 1B88     		ldrh	r3, [r3]
 5740 01a6 DB19     		adds	r3, r3, r7
 5741 01a8 0133     		adds	r3, r3, #1
 5742 01aa 0C9A     		ldr	r2, [sp, #48]
 5743 01ac 1380     		strh	r3, [r2]
 694:..\..\..\liblc3\src/spec.c ****                 x[i+1] = lc3_get_bit(bits) ? -1 : 1;
 5744              		.loc 1 694 0 discriminator 4
 5745 01ae A946     		mov	r9, r5
 5746 01b0 00E0     		b	.L370
 5747              	.LVL804:
 5748              	.L396:
 694:..\..\..\liblc3\src/spec.c ****                 x[i+1] = lc3_get_bit(bits) ? -1 : 1;
 5749              		.loc 1 694 0 is_stmt 0
 5750 01b2 A946     		mov	r9, r5
 5751              	.LVL805:
 5752              	.L370:
 5753              	.LBE385:
 673:..\..\..\liblc3\src/spec.c **** 
 5754              		.loc 1 673 0 is_stmt 1 discriminator 2
 5755 01b4 0237     		adds	r7, r7, #2
 5756              	.LVL806:
 5757              	.L369:
 673:..\..\..\liblc3\src/spec.c **** 
 5758              		.loc 1 673 0 is_stmt 0 discriminator 1
 5759 01b6 009B     		ldr	r3, [sp]
 5760 01b8 9F42     		cmp	r7, r3
 5761 01ba 03DA     		bge	.L368
 673:..\..\..\liblc3\src/spec.c **** 
 5762              		.loc 1 673 0 discriminator 3
ARM GAS  C:\Users\rdn\AppData\Local\Temp\cciiQw7C.s 			page 136


 5763 01bc 4B46     		mov	r3, r9
 5764 01be 002B     		cmp	r3, #0
 5765 01c0 00DD     		ble	.LCB6841
 5766 01c2 2AE7     		b	.L391	@long jump
 5767              	.LCB6841:
 5768              	.L368:
 5769              	.LBE384:
 700:..\..\..\liblc3\src/spec.c **** 
 5770              		.loc 1 700 0 is_stmt 1
 5771 01c4 03B0     		add	sp, sp, #12
 5772              	.LVL807:
 5773              		@ sp needed
 5774              	.LVL808:
 5775              	.LVL809:
 5776              	.LVL810:
 5777              	.LVL811:
 5778 01c6 3CBC     		pop	{r2, r3, r4, r5}
 5779 01c8 9046     		mov	r8, r2
 5780 01ca 9946     		mov	r9, r3
 5781 01cc A246     		mov	r10, r4
 5782 01ce AB46     		mov	fp, r5
 5783 01d0 F0BD     		pop	{r4, r5, r6, r7, pc}
 5784              	.L407:
 5785 01d2 C046     		.align	2
 5786              	.L406:
 5787 01d4 000080BF 		.word	-1082130432
 5788              		.cfi_endproc
 5789              	.LFE33:
 5790              		.size	get_lsb, .-get_lsb
 5791              		.section	.text.lc3_spec_analyze,"ax",%progbits
 5792              		.align	2
 5793              		.global	lc3_spec_analyze
 5794              		.code	16
 5795              		.thumb_func
 5796              		.type	lc3_spec_analyze, %function
 5797              	lc3_spec_analyze:
 5798              	.LFB40:
 816:..\..\..\liblc3\src/spec.c **** 
 817:..\..\..\liblc3\src/spec.c **** /**
 818:..\..\..\liblc3\src/spec.c ****  * Spectrum analysis
 819:..\..\..\liblc3\src/spec.c ****  */
 820:..\..\..\liblc3\src/spec.c **** void lc3_spec_analyze(
 821:..\..\..\liblc3\src/spec.c ****     enum lc3_dt dt, enum lc3_srate sr, int nbytes,
 822:..\..\..\liblc3\src/spec.c ****     bool pitch, const lc3_tns_data_t *tns,
 823:..\..\..\liblc3\src/spec.c ****     struct lc3_spec_analysis *spec,
 824:..\..\..\liblc3\src/spec.c ****     float *x, struct lc3_spec_side *side)
 825:..\..\..\liblc3\src/spec.c **** {
 5799              		.loc 1 825 0
 5800              		.cfi_startproc
 5801              		@ args = 16, pretend = 0, frame = 24
 5802              		@ frame_needed = 0, uses_anonymous_args = 0
 5803              	.LVL812:
 5804 0000 F0B5     		push	{r4, r5, r6, r7, lr}
 5805              		.cfi_def_cfa_offset 20
 5806              		.cfi_offset 4, -20
 5807              		.cfi_offset 5, -16
 5808              		.cfi_offset 6, -12
ARM GAS  C:\Users\rdn\AppData\Local\Temp\cciiQw7C.s 			page 137


 5809              		.cfi_offset 7, -8
 5810              		.cfi_offset 14, -4
 5811 0002 5F46     		mov	r7, fp
 5812 0004 4E46     		mov	r6, r9
 5813 0006 C0B4     		push	{r6, r7}
 5814              		.cfi_def_cfa_offset 28
 5815              		.cfi_offset 9, -28
 5816              		.cfi_offset 11, -24
 5817 0008 8DB0     		sub	sp, sp, #52
 5818              		.cfi_def_cfa_offset 80
 5819 000a 0C00     		movs	r4, r1
 5820 000c 1E00     		movs	r6, r3
 5821 000e 159B     		ldr	r3, [sp, #84]
 5822              	.LVL813:
 5823 0010 9946     		mov	r9, r3
 5824              	.LVL814:
 826:..\..\..\liblc3\src/spec.c ****     bool reset_off;
 827:..\..\..\liblc3\src/spec.c **** 
 828:..\..\..\liblc3\src/spec.c ****     /* --- Bit budget --- */
 829:..\..\..\liblc3\src/spec.c **** 
 830:..\..\..\liblc3\src/spec.c ****     const int nbits_gain = 8;
 831:..\..\..\liblc3\src/spec.c ****     const int nbits_nf = 3;
 832:..\..\..\liblc3\src/spec.c **** 
 833:..\..\..\liblc3\src/spec.c ****     int nbits_budget = 8*nbytes - get_nbits_ac(dt, sr, nbytes) -
 5825              		.loc 1 833 0
 5826 0012 D700     		lsls	r7, r2, #3
 5827 0014 0892     		str	r2, [sp, #32]
 5828 0016 0690     		str	r0, [sp, #24]
 5829 0018 FFF7FEFF 		bl	get_nbits_ac
 5830              	.LVL815:
 5831 001c 3F1A     		subs	r7, r7, r0
 834:..\..\..\liblc3\src/spec.c ****         lc3_bwdet_get_nbits(sr) - lc3_ltpf_get_nbits(pitch) -
 5832              		.loc 1 834 0
 5833 001e 2000     		movs	r0, r4
 5834 0020 FFF7FEFF 		bl	lc3_bwdet_get_nbits
 5835              	.LVL816:
 833:..\..\..\liblc3\src/spec.c ****         lc3_bwdet_get_nbits(sr) - lc3_ltpf_get_nbits(pitch) -
 5836              		.loc 1 833 0
 5837 0024 3F1A     		subs	r7, r7, r0
 5838              		.loc 1 834 0
 5839 0026 3000     		movs	r0, r6
 5840 0028 FFF7FEFF 		bl	lc3_ltpf_get_nbits
 5841              	.LVL817:
 5842 002c 3E1A     		subs	r6, r7, r0
 835:..\..\..\liblc3\src/spec.c ****         lc3_sns_get_nbits() - lc3_tns_get_nbits(tns) - nbits_gain - nbits_nf;
 5843              		.loc 1 835 0
 5844 002e FFF7FEFF 		bl	lc3_sns_get_nbits
 5845              	.LVL818:
 834:..\..\..\liblc3\src/spec.c ****         lc3_bwdet_get_nbits(sr) - lc3_ltpf_get_nbits(pitch) -
 5846              		.loc 1 834 0
 5847 0032 361A     		subs	r6, r6, r0
 5848              		.loc 1 835 0
 5849 0034 1498     		ldr	r0, [sp, #80]
 5850 0036 FFF7FEFF 		bl	lc3_tns_get_nbits
 5851              	.LVL819:
 5852 003a 301A     		subs	r0, r6, r0
 833:..\..\..\liblc3\src/spec.c ****         lc3_bwdet_get_nbits(sr) - lc3_ltpf_get_nbits(pitch) -
ARM GAS  C:\Users\rdn\AppData\Local\Temp\cciiQw7C.s 			page 138


 5853              		.loc 1 833 0
 5854 003c 0500     		movs	r5, r0
 5855 003e 0B3D     		subs	r5, r5, #11
 5856              	.LVL820:
 836:..\..\..\liblc3\src/spec.c **** 
 837:..\..\..\liblc3\src/spec.c ****     /* --- Global gain --- */
 838:..\..\..\liblc3\src/spec.c **** 
 839:..\..\..\liblc3\src/spec.c ****     float nbits_off = spec->nbits_off + spec->nbits_spare;
 5857              		.loc 1 839 0
 5858 0040 4A46     		mov	r2, r9
 5859 0042 1668     		ldr	r6, [r2]
 5860 0044 5068     		ldr	r0, [r2, #4]
 5861 0046 FFF7FEFF 		bl	__aeabi_i2f
 5862              	.LVL821:
 5863 004a 011C     		adds	r1, r0, #0
 5864 004c 301C     		adds	r0, r6, #0
 5865 004e FFF7FEFF 		bl	__aeabi_fadd
 5866              	.LVL822:
 840:..\..\..\liblc3\src/spec.c ****     nbits_off = fminf(fmaxf(nbits_off, -40), 40);
 5867              		.loc 1 840 0
 5868 0052 3D49     		ldr	r1, .L414
 5869 0054 FFF7FEFF 		bl	fmaxf
 5870              	.LVL823:
 5871 0058 3C49     		ldr	r1, .L414+4
 5872 005a FFF7FEFF 		bl	fminf
 5873              	.LVL824:
 5874 005e 071C     		adds	r7, r0, #0
 5875              	.LVL825:
 841:..\..\..\liblc3\src/spec.c ****     nbits_off = 0.8f * spec->nbits_off + 0.2f * nbits_off;
 5876              		.loc 1 841 0
 5877 0060 3B49     		ldr	r1, .L414+8
 5878 0062 301C     		adds	r0, r6, #0
 5879              	.LVL826:
 5880 0064 FFF7FEFF 		bl	__aeabi_fmul
 5881              	.LVL827:
 5882 0068 061C     		adds	r6, r0, #0
 5883 006a 3A49     		ldr	r1, .L414+12
 5884 006c 381C     		adds	r0, r7, #0
 5885 006e FFF7FEFF 		bl	__aeabi_fmul
 5886              	.LVL828:
 5887 0072 011C     		adds	r1, r0, #0
 5888 0074 301C     		adds	r0, r6, #0
 5889 0076 FFF7FEFF 		bl	__aeabi_fadd
 5890              	.LVL829:
 5891 007a 0990     		str	r0, [sp, #36]
 5892              	.LVL830:
 842:..\..\..\liblc3\src/spec.c **** 
 843:..\..\..\liblc3\src/spec.c ****     int g_off = resolve_gain_offset(sr, nbytes);
 5893              		.loc 1 843 0
 5894 007c 0899     		ldr	r1, [sp, #32]
 5895 007e 2000     		movs	r0, r4
 5896              	.LVL831:
 5897 0080 FFF7FEFF 		bl	resolve_gain_offset
 5898              	.LVL832:
 5899 0084 0700     		movs	r7, r0
 5900              	.LVL833:
 844:..\..\..\liblc3\src/spec.c **** 
ARM GAS  C:\Users\rdn\AppData\Local\Temp\cciiQw7C.s 			page 139


 845:..\..\..\liblc3\src/spec.c ****     int g_min, g_int = estimate_gain(dt, sr,
 5901              		.loc 1 845 0
 5902 0086 0AAB     		add	r3, sp, #40
 5903 0088 0493     		str	r3, [sp, #16]
 5904 008a 1F26     		movs	r6, #31
 5905 008c 04AB     		add	r3, sp, #16
 5906 008e 9C46     		mov	ip, r3
 5907 0090 6644     		add	r6, r6, ip
 5908 0092 0396     		str	r6, [sp, #12]
 5909 0094 0290     		str	r0, [sp, #8]
 5910 0096 099A     		ldr	r2, [sp, #36]
 5911 0098 0192     		str	r2, [sp, #4]
 5912 009a 0095     		str	r5, [sp]
 5913 009c 089B     		ldr	r3, [sp, #32]
 5914 009e 169A     		ldr	r2, [sp, #88]
 5915 00a0 0794     		str	r4, [sp, #28]
 5916 00a2 2100     		movs	r1, r4
 5917 00a4 0698     		ldr	r0, [sp, #24]
 5918              	.LVL834:
 5919 00a6 FFF7FEFF 		bl	estimate_gain
 5920              	.LVL835:
 5921 00aa 8346     		mov	fp, r0
 5922              	.LVL836:
 846:..\..\..\liblc3\src/spec.c ****         x, nbytes, nbits_budget, nbits_off, g_off, &reset_off, &g_min);
 847:..\..\..\liblc3\src/spec.c **** 
 848:..\..\..\liblc3\src/spec.c ****     /* --- Quantization --- */
 849:..\..\..\liblc3\src/spec.c **** 
 850:..\..\..\liblc3\src/spec.c ****     quantize(dt, sr, g_int, x, &side->nq);
 5923              		.loc 1 850 0
 5924 00ac 1799     		ldr	r1, [sp, #92]
 5925 00ae 0C1D     		adds	r4, r1, #4
 5926 00b0 0094     		str	r4, [sp]
 5927 00b2 169B     		ldr	r3, [sp, #88]
 5928 00b4 0200     		movs	r2, r0
 5929 00b6 0799     		ldr	r1, [sp, #28]
 5930 00b8 0698     		ldr	r0, [sp, #24]
 5931              	.LVL837:
 5932 00ba FFF7FEFF 		bl	quantize
 5933              	.LVL838:
 851:..\..\..\liblc3\src/spec.c **** 
 852:..\..\..\liblc3\src/spec.c ****     int nbits = compute_nbits(dt, sr, nbytes, x, &side->nq, 0, NULL);
 5934              		.loc 1 852 0
 5935 00be 0023     		movs	r3, #0
 5936 00c0 0293     		str	r3, [sp, #8]
 5937 00c2 0193     		str	r3, [sp, #4]
 5938 00c4 0094     		str	r4, [sp]
 5939 00c6 169B     		ldr	r3, [sp, #88]
 5940 00c8 089A     		ldr	r2, [sp, #32]
 5941 00ca 0799     		ldr	r1, [sp, #28]
 5942 00cc 0698     		ldr	r0, [sp, #24]
 5943 00ce FFF7FEFF 		bl	compute_nbits
 5944              	.LVL839:
 5945 00d2 0300     		movs	r3, r0
 5946              	.LVL840:
 853:..\..\..\liblc3\src/spec.c **** 
 854:..\..\..\liblc3\src/spec.c ****     spec->nbits_off = reset_off ? 0 : nbits_off;
 5947              		.loc 1 854 0
ARM GAS  C:\Users\rdn\AppData\Local\Temp\cciiQw7C.s 			page 140


 5948 00d4 3278     		ldrb	r2, [r6]
 5949 00d6 002A     		cmp	r2, #0
 5950 00d8 01D0     		beq	.L412
 5951 00da 0022     		movs	r2, #0
 5952 00dc 00E0     		b	.L409
 5953              	.L412:
 5954 00de 099A     		ldr	r2, [sp, #36]
 5955              	.L409:
 5956              		.loc 1 854 0 is_stmt 0 discriminator 4
 5957 00e0 4946     		mov	r1, r9
 5958 00e2 0A60     		str	r2, [r1]
 855:..\..\..\liblc3\src/spec.c ****     spec->nbits_spare = reset_off ? 0 : nbits_budget - nbits;
 5959              		.loc 1 855 0 is_stmt 1 discriminator 4
 5960 00e4 1F22     		movs	r2, #31
 5961 00e6 04A9     		add	r1, sp, #16
 5962 00e8 8C46     		mov	ip, r1
 5963 00ea 6244     		add	r2, r2, ip
 5964 00ec 1278     		ldrb	r2, [r2]
 5965 00ee 002A     		cmp	r2, #0
 5966 00f0 01D1     		bne	.L413
 5967              		.loc 1 855 0 is_stmt 0 discriminator 2
 5968 00f2 EA1A     		subs	r2, r5, r3
 5969 00f4 00E0     		b	.L410
 5970              	.L413:
 5971              		.loc 1 855 0
 5972 00f6 0022     		movs	r2, #0
 5973              	.L410:
 5974              		.loc 1 855 0 discriminator 4
 5975 00f8 4946     		mov	r1, r9
 5976 00fa 4A60     		str	r2, [r1, #4]
 856:..\..\..\liblc3\src/spec.c **** 
 857:..\..\..\liblc3\src/spec.c ****     /* --- Adjust gain and requantize --- */
 858:..\..\..\liblc3\src/spec.c **** 
 859:..\..\..\liblc3\src/spec.c ****     int g_adj = adjust_gain(dt, sr,
 5977              		.loc 1 859 0 is_stmt 1 discriminator 4
 5978 00fc 5A46     		mov	r2, fp
 5979 00fe BA18     		adds	r2, r7, r2
 5980 0100 0A99     		ldr	r1, [sp, #40]
 5981 0102 7918     		adds	r1, r7, r1
 5982 0104 0191     		str	r1, [sp, #4]
 5983 0106 0095     		str	r5, [sp]
 5984 0108 0799     		ldr	r1, [sp, #28]
 5985 010a 0698     		ldr	r0, [sp, #24]
 5986              	.LVL841:
 5987 010c FFF7FEFF 		bl	adjust_gain
 5988              	.LVL842:
 5989 0110 061E     		subs	r6, r0, #0
 5990              	.LVL843:
 860:..\..\..\liblc3\src/spec.c ****         g_off + g_int, nbits, nbits_budget, g_off + g_min);
 861:..\..\..\liblc3\src/spec.c **** 
 862:..\..\..\liblc3\src/spec.c ****     if (g_adj)
 5991              		.loc 1 862 0 discriminator 4
 5992 0112 06D0     		beq	.L411
 863:..\..\..\liblc3\src/spec.c ****         quantize(dt, sr, g_adj, x, &side->nq);
 5993              		.loc 1 863 0
 5994 0114 0094     		str	r4, [sp]
 5995 0116 169B     		ldr	r3, [sp, #88]
ARM GAS  C:\Users\rdn\AppData\Local\Temp\cciiQw7C.s 			page 141


 5996 0118 0200     		movs	r2, r0
 5997 011a 0799     		ldr	r1, [sp, #28]
 5998 011c 0698     		ldr	r0, [sp, #24]
 5999              	.LVL844:
 6000 011e FFF7FEFF 		bl	quantize
 6001              	.LVL845:
 6002              	.L411:
 864:..\..\..\liblc3\src/spec.c **** 
 865:..\..\..\liblc3\src/spec.c ****     side->g_idx = g_int + g_adj + g_off;
 6003              		.loc 1 865 0
 6004 0122 5E44     		add	r6, r6, fp
 6005              	.LVL846:
 6006 0124 BF19     		adds	r7, r7, r6
 6007              	.LVL847:
 6008 0126 179B     		ldr	r3, [sp, #92]
 6009 0128 1F60     		str	r7, [r3]
 866:..\..\..\liblc3\src/spec.c ****     nbits = compute_nbits(dt, sr, nbytes,
 6010              		.loc 1 866 0
 6011 012a 0833     		adds	r3, r3, #8
 6012 012c 0293     		str	r3, [sp, #8]
 6013 012e 0195     		str	r5, [sp, #4]
 6014 0130 0094     		str	r4, [sp]
 6015 0132 169B     		ldr	r3, [sp, #88]
 6016 0134 089A     		ldr	r2, [sp, #32]
 6017 0136 0799     		ldr	r1, [sp, #28]
 6018 0138 0698     		ldr	r0, [sp, #24]
 6019 013a FFF7FEFF 		bl	compute_nbits
 6020              	.LVL848:
 867:..\..\..\liblc3\src/spec.c ****         x, &side->nq, nbits_budget, &side->lsb_mode);
 868:..\..\..\liblc3\src/spec.c **** }
 6021              		.loc 1 868 0
 6022 013e 0DB0     		add	sp, sp, #52
 6023              		@ sp needed
 6024              	.LVL849:
 6025              	.LVL850:
 6026 0140 0CBC     		pop	{r2, r3}
 6027 0142 9146     		mov	r9, r2
 6028 0144 9B46     		mov	fp, r3
 6029 0146 F0BD     		pop	{r4, r5, r6, r7, pc}
 6030              	.L415:
 6031              		.align	2
 6032              	.L414:
 6033 0148 000020C2 		.word	-1038090240
 6034 014c 00002042 		.word	1109393408
 6035 0150 CDCC4C3F 		.word	1061997773
 6036 0154 CDCC4C3E 		.word	1045220557
 6037              		.cfi_endproc
 6038              	.LFE40:
 6039              		.size	lc3_spec_analyze, .-lc3_spec_analyze
 6040              		.section	.text.lc3_spec_put_side,"ax",%progbits
 6041              		.align	2
 6042              		.global	lc3_spec_put_side
 6043              		.code	16
 6044              		.thumb_func
 6045              		.type	lc3_spec_put_side, %function
 6046              	lc3_spec_put_side:
 6047              	.LFB41:
ARM GAS  C:\Users\rdn\AppData\Local\Temp\cciiQw7C.s 			page 142


 869:..\..\..\liblc3\src/spec.c **** 
 870:..\..\..\liblc3\src/spec.c **** /**
 871:..\..\..\liblc3\src/spec.c ****  * Put spectral quantization side data
 872:..\..\..\liblc3\src/spec.c ****  */
 873:..\..\..\liblc3\src/spec.c **** void lc3_spec_put_side(lc3_bits_t *bits,
 874:..\..\..\liblc3\src/spec.c ****     enum lc3_dt dt, enum lc3_srate sr,
 875:..\..\..\liblc3\src/spec.c ****     const struct lc3_spec_side *side)
 876:..\..\..\liblc3\src/spec.c **** {
 6048              		.loc 1 876 0
 6049              		.cfi_startproc
 6050              		@ args = 0, pretend = 0, frame = 0
 6051              		@ frame_needed = 0, uses_anonymous_args = 0
 6052              	.LVL851:
 6053 0000 70B5     		push	{r4, r5, r6, lr}
 6054              		.cfi_def_cfa_offset 16
 6055              		.cfi_offset 4, -16
 6056              		.cfi_offset 5, -12
 6057              		.cfi_offset 6, -8
 6058              		.cfi_offset 14, -4
 6059 0002 0400     		movs	r4, r0
 6060 0004 0800     		movs	r0, r1
 6061              	.LVL852:
 6062 0006 1D00     		movs	r5, r3
 877:..\..\..\liblc3\src/spec.c ****     int nbits_nq = get_nbits_nq(dt, sr);
 6063              		.loc 1 877 0
 6064 0008 1100     		movs	r1, r2
 6065              	.LVL853:
 6066 000a FFF7FEFF 		bl	get_nbits_nq
 6067              	.LVL854:
 878:..\..\..\liblc3\src/spec.c **** 
 879:..\..\..\liblc3\src/spec.c ****     lc3_put_bits(bits, LC3_MAX(side->nq >> 1, 1) - 1, nbits_nq);
 6068              		.loc 1 879 0
 6069 000e 6B68     		ldr	r3, [r5, #4]
 6070 0010 5910     		asrs	r1, r3, #1
 6071 0012 0029     		cmp	r1, #0
 6072 0014 00DC     		bgt	.L417
 6073 0016 0121     		movs	r1, #1
 6074              	.L417:
 6075 0018 0139     		subs	r1, r1, #1
 6076              	.LVL855:
 6077              	.LBB406:
 6078              	.LBB407:
 223:..\..\..\liblc3\src/bits.h ****         accu->v |= v << accu->n;
 6079              		.loc 5 223 0
 6080 001a 266A     		ldr	r6, [r4, #32]
 6081 001c 8319     		adds	r3, r0, r6
 6082 001e 202B     		cmp	r3, #32
 6083 0020 05DC     		bgt	.L418
 224:..\..\..\liblc3\src/bits.h ****         accu->n += n;
 6084              		.loc 5 224 0
 6085 0022 B140     		lsls	r1, r1, r6
 6086              	.LVL856:
 6087 0024 E269     		ldr	r2, [r4, #28]
 6088 0026 1143     		orrs	r1, r2
 6089 0028 E161     		str	r1, [r4, #28]
 225:..\..\..\liblc3\src/bits.h ****     } else {
 6090              		.loc 5 225 0
ARM GAS  C:\Users\rdn\AppData\Local\Temp\cciiQw7C.s 			page 143


 6091 002a 2362     		str	r3, [r4, #32]
 6092 002c 03E0     		b	.L419
 6093              	.LVL857:
 6094              	.L418:
 227:..\..\..\liblc3\src/bits.h ****     }
 6095              		.loc 5 227 0
 6096 002e 0200     		movs	r2, r0
 6097 0030 2000     		movs	r0, r4
 6098              	.LVL858:
 6099 0032 FFF7FEFF 		bl	lc3_put_bits_generic
 6100              	.LVL859:
 6101              	.L419:
 6102              	.LBE407:
 6103              	.LBE406:
 880:..\..\..\liblc3\src/spec.c ****     lc3_put_bits(bits, side->lsb_mode, 1);
 6104              		.loc 1 880 0
 6105 0036 297A     		ldrb	r1, [r5, #8]
 6106              	.LVL860:
 6107              	.LBB408:
 6108              	.LBB409:
 223:..\..\..\liblc3\src/bits.h ****         accu->v |= v << accu->n;
 6109              		.loc 5 223 0
 6110 0038 226A     		ldr	r2, [r4, #32]
 6111 003a 531C     		adds	r3, r2, #1
 6112 003c 202B     		cmp	r3, #32
 6113 003e 05DC     		bgt	.L420
 224:..\..\..\liblc3\src/bits.h ****         accu->n += n;
 6114              		.loc 5 224 0
 6115 0040 9140     		lsls	r1, r1, r2
 6116              	.LVL861:
 6117 0042 E269     		ldr	r2, [r4, #28]
 6118 0044 1143     		orrs	r1, r2
 6119 0046 E161     		str	r1, [r4, #28]
 6120              	.LVL862:
 225:..\..\..\liblc3\src/bits.h ****     } else {
 6121              		.loc 5 225 0
 6122 0048 2362     		str	r3, [r4, #32]
 6123 004a 03E0     		b	.L421
 6124              	.LVL863:
 6125              	.L420:
 227:..\..\..\liblc3\src/bits.h ****     }
 6126              		.loc 5 227 0
 6127 004c 0122     		movs	r2, #1
 6128 004e 2000     		movs	r0, r4
 6129 0050 FFF7FEFF 		bl	lc3_put_bits_generic
 6130              	.LVL864:
 6131              	.L421:
 6132              	.LBE409:
 6133              	.LBE408:
 881:..\..\..\liblc3\src/spec.c ****     lc3_put_bits(bits, side->g_idx, 8);
 6134              		.loc 1 881 0
 6135 0054 2968     		ldr	r1, [r5]
 6136              	.LVL865:
 6137              	.LBB410:
 6138              	.LBB411:
 223:..\..\..\liblc3\src/bits.h ****         accu->v |= v << accu->n;
 6139              		.loc 5 223 0
ARM GAS  C:\Users\rdn\AppData\Local\Temp\cciiQw7C.s 			page 144


 6140 0056 226A     		ldr	r2, [r4, #32]
 6141 0058 1300     		movs	r3, r2
 6142 005a 0833     		adds	r3, r3, #8
 6143 005c 202B     		cmp	r3, #32
 6144 005e 05DC     		bgt	.L422
 224:..\..\..\liblc3\src/bits.h ****         accu->n += n;
 6145              		.loc 5 224 0
 6146 0060 9140     		lsls	r1, r1, r2
 6147              	.LVL866:
 6148 0062 E269     		ldr	r2, [r4, #28]
 6149 0064 1143     		orrs	r1, r2
 6150 0066 E161     		str	r1, [r4, #28]
 6151              	.LVL867:
 225:..\..\..\liblc3\src/bits.h ****     } else {
 6152              		.loc 5 225 0
 6153 0068 2362     		str	r3, [r4, #32]
 6154 006a 03E0     		b	.L416
 6155              	.LVL868:
 6156              	.L422:
 227:..\..\..\liblc3\src/bits.h ****     }
 6157              		.loc 5 227 0
 6158 006c 0822     		movs	r2, #8
 6159 006e 2000     		movs	r0, r4
 6160 0070 FFF7FEFF 		bl	lc3_put_bits_generic
 6161              	.LVL869:
 6162              	.L416:
 6163              	.LBE411:
 6164              	.LBE410:
 882:..\..\..\liblc3\src/spec.c **** }
 6165              		.loc 1 882 0
 6166              		@ sp needed
 6167              	.LVL870:
 6168              	.LVL871:
 6169 0074 70BD     		pop	{r4, r5, r6, pc}
 6170              		.cfi_endproc
 6171              	.LFE41:
 6172              		.size	lc3_spec_put_side, .-lc3_spec_put_side
 6173 0076 C046     		.section	.text.lc3_spec_encode,"ax",%progbits
 6174              		.align	2
 6175              		.global	lc3_spec_encode
 6176              		.code	16
 6177              		.thumb_func
 6178              		.type	lc3_spec_encode, %function
 6179              	lc3_spec_encode:
 6180              	.LFB42:
 883:..\..\..\liblc3\src/spec.c **** 
 884:..\..\..\liblc3\src/spec.c **** /**
 885:..\..\..\liblc3\src/spec.c ****  * Encode spectral coefficients
 886:..\..\..\liblc3\src/spec.c ****  */
 887:..\..\..\liblc3\src/spec.c **** void lc3_spec_encode(lc3_bits_t *bits,
 888:..\..\..\liblc3\src/spec.c ****     enum lc3_dt dt, enum lc3_srate sr, enum lc3_bandwidth bw,
 889:..\..\..\liblc3\src/spec.c ****     int nbytes, const lc3_spec_side_t *side, float *x)
 890:..\..\..\liblc3\src/spec.c **** {
 6181              		.loc 1 890 0
 6182              		.cfi_startproc
 6183              		@ args = 12, pretend = 0, frame = 8
 6184              		@ frame_needed = 0, uses_anonymous_args = 0
ARM GAS  C:\Users\rdn\AppData\Local\Temp\cciiQw7C.s 			page 145


 6185              	.LVL872:
 6186 0000 F0B5     		push	{r4, r5, r6, r7, lr}
 6187              		.cfi_def_cfa_offset 20
 6188              		.cfi_offset 4, -20
 6189              		.cfi_offset 5, -16
 6190              		.cfi_offset 6, -12
 6191              		.cfi_offset 7, -8
 6192              		.cfi_offset 14, -4
 6193 0002 87B0     		sub	sp, sp, #28
 6194              		.cfi_def_cfa_offset 48
 6195 0004 0490     		str	r0, [sp, #16]
 6196 0006 0800     		movs	r0, r1
 6197              	.LVL873:
 6198 0008 1700     		movs	r7, r2
 6199 000a 1900     		movs	r1, r3
 6200              	.LVL874:
 6201 000c 0D9B     		ldr	r3, [sp, #52]
 6202              	.LVL875:
 891:..\..\..\liblc3\src/spec.c ****     bool lsb_mode = side->lsb_mode;
 6203              		.loc 1 891 0
 6204 000e 1D7A     		ldrb	r5, [r3, #8]
 6205              	.LVL876:
 892:..\..\..\liblc3\src/spec.c ****     int nq = side->nq;
 6206              		.loc 1 892 0
 6207 0010 5E68     		ldr	r6, [r3, #4]
 6208              	.LVL877:
 6209              	.LBB412:
 6210              	.LBB413:
 6211              		.loc 3 110 0
 6212 0012 0424     		movs	r4, #4
 6213 0014 9442     		cmp	r4, r2
 6214 0016 A441     		sbcs	r4, r4, r4
 6215 0018 6442     		rsbs	r4, r4, #0
 6216              	.LVL878:
 6217              	.LBE413:
 6218              	.LBE412:
 893:..\..\..\liblc3\src/spec.c **** 
 894:..\..\..\liblc3\src/spec.c ****     put_noise_factor(bits, estimate_noise(dt, bw, lc3_hr(sr), x, nq));
 6219              		.loc 1 894 0
 6220 001a 0096     		str	r6, [sp]
 6221 001c 0E9B     		ldr	r3, [sp, #56]
 6222 001e 2200     		movs	r2, r4
 6223              	.LVL879:
 6224 0020 0590     		str	r0, [sp, #20]
 6225 0022 FFF7FEFF 		bl	estimate_noise
 6226              	.LVL880:
 6227 0026 0100     		movs	r1, r0
 6228 0028 0498     		ldr	r0, [sp, #16]
 6229 002a FFF7FEFF 		bl	put_noise_factor
 6230              	.LVL881:
 895:..\..\..\liblc3\src/spec.c **** 
 896:..\..\..\liblc3\src/spec.c ****     put_quantized(bits, dt, sr, nbytes, x, nq, lsb_mode);
 6231              		.loc 1 896 0
 6232 002e 0295     		str	r5, [sp, #8]
 6233 0030 0196     		str	r6, [sp, #4]
 6234 0032 0E9B     		ldr	r3, [sp, #56]
 6235 0034 0093     		str	r3, [sp]
ARM GAS  C:\Users\rdn\AppData\Local\Temp\cciiQw7C.s 			page 146


 6236 0036 0C9B     		ldr	r3, [sp, #48]
 6237 0038 3A00     		movs	r2, r7
 6238 003a 0599     		ldr	r1, [sp, #20]
 6239 003c 049F     		ldr	r7, [sp, #16]
 6240 003e 3800     		movs	r0, r7
 6241 0040 FFF7FEFF 		bl	put_quantized
 6242              	.LVL882:
 897:..\..\..\liblc3\src/spec.c **** 
 898:..\..\..\liblc3\src/spec.c ****     int nbits_left = lc3_get_bits_left(bits);
 6243              		.loc 1 898 0
 6244 0044 3800     		movs	r0, r7
 6245 0046 FFF7FEFF 		bl	lc3_get_bits_left
 6246              	.LVL883:
 6247 004a 0100     		movs	r1, r0
 6248              	.LVL884:
 899:..\..\..\liblc3\src/spec.c **** 
 900:..\..\..\liblc3\src/spec.c ****     if (lsb_mode)
 6249              		.loc 1 900 0
 6250 004c 002D     		cmp	r5, #0
 6251 004e 06D0     		beq	.L425
 901:..\..\..\liblc3\src/spec.c ****         put_lsb(bits, nbits_left, lc3_hr(sr), x, nq);
 6252              		.loc 1 901 0
 6253 0050 0096     		str	r6, [sp]
 6254 0052 0E9B     		ldr	r3, [sp, #56]
 6255 0054 2200     		movs	r2, r4
 6256 0056 0498     		ldr	r0, [sp, #16]
 6257              	.LVL885:
 6258 0058 FFF7FEFF 		bl	put_lsb
 6259              	.LVL886:
 6260 005c 05E0     		b	.L424
 6261              	.LVL887:
 6262              	.L425:
 902:..\..\..\liblc3\src/spec.c ****     else
 903:..\..\..\liblc3\src/spec.c ****         put_residual(bits, nbits_left, lc3_hr(sr), x, nq);
 6263              		.loc 1 903 0
 6264 005e 0096     		str	r6, [sp]
 6265 0060 0E9B     		ldr	r3, [sp, #56]
 6266 0062 2200     		movs	r2, r4
 6267 0064 0498     		ldr	r0, [sp, #16]
 6268              	.LVL888:
 6269 0066 FFF7FEFF 		bl	put_residual
 6270              	.LVL889:
 6271              	.L424:
 904:..\..\..\liblc3\src/spec.c **** }
 6272              		.loc 1 904 0
 6273 006a 07B0     		add	sp, sp, #28
 6274              		@ sp needed
 6275              	.LVL890:
 6276              	.LVL891:
 6277 006c F0BD     		pop	{r4, r5, r6, r7, pc}
 6278              		.cfi_endproc
 6279              	.LFE42:
 6280              		.size	lc3_spec_encode, .-lc3_spec_encode
 6281 006e C046     		.section	.text.lc3_spec_get_side,"ax",%progbits
 6282              		.align	2
 6283              		.global	lc3_spec_get_side
 6284              		.code	16
ARM GAS  C:\Users\rdn\AppData\Local\Temp\cciiQw7C.s 			page 147


 6285              		.thumb_func
 6286              		.type	lc3_spec_get_side, %function
 6287              	lc3_spec_get_side:
 6288              	.LFB43:
 905:..\..\..\liblc3\src/spec.c **** 
 906:..\..\..\liblc3\src/spec.c **** 
 907:..\..\..\liblc3\src/spec.c **** /* ----------------------------------------------------------------------------
 908:..\..\..\liblc3\src/spec.c ****  *  Decoding
 909:..\..\..\liblc3\src/spec.c ****  * -------------------------------------------------------------------------- */
 910:..\..\..\liblc3\src/spec.c **** 
 911:..\..\..\liblc3\src/spec.c **** /**
 912:..\..\..\liblc3\src/spec.c ****  * Get spectral quantization side data
 913:..\..\..\liblc3\src/spec.c ****  */
 914:..\..\..\liblc3\src/spec.c **** int lc3_spec_get_side(lc3_bits_t *bits,
 915:..\..\..\liblc3\src/spec.c ****     enum lc3_dt dt, enum lc3_srate sr, struct lc3_spec_side *side)
 916:..\..\..\liblc3\src/spec.c **** {
 6289              		.loc 1 916 0
 6290              		.cfi_startproc
 6291              		@ args = 0, pretend = 0, frame = 0
 6292              		@ frame_needed = 0, uses_anonymous_args = 0
 6293              	.LVL892:
 6294 0000 F8B5     		push	{r3, r4, r5, r6, r7, lr}
 6295              		.cfi_def_cfa_offset 24
 6296              		.cfi_offset 3, -24
 6297              		.cfi_offset 4, -20
 6298              		.cfi_offset 5, -16
 6299              		.cfi_offset 6, -12
 6300              		.cfi_offset 7, -8
 6301              		.cfi_offset 14, -4
 6302 0002 0400     		movs	r4, r0
 6303 0004 0F00     		movs	r7, r1
 6304 0006 1500     		movs	r5, r2
 6305 0008 1E00     		movs	r6, r3
 917:..\..\..\liblc3\src/spec.c ****     int nbits_nq = get_nbits_nq(dt, sr);
 6306              		.loc 1 917 0
 6307 000a 1100     		movs	r1, r2
 6308              	.LVL893:
 6309 000c 3800     		movs	r0, r7
 6310              	.LVL894:
 6311 000e FFF7FEFF 		bl	get_nbits_nq
 6312              	.LVL895:
 6313              	.LBB427:
 6314              	.LBB428:
 6315              		.loc 2 51 0
 6316 0012 AD00     		lsls	r5, r5, #2
 6317              	.LVL896:
 6318 0014 214B     		ldr	r3, .L436
 6319 0016 ED58     		ldr	r5, [r5, r3]
 6320 0018 0137     		adds	r7, r7, #1
 6321              	.LVL897:
 6322 001a 7D43     		muls	r5, r7
 6323              	.LVL898:
 6324              	.LBE428:
 6325              	.LBE427:
 6326              	.LBB429:
 6327              	.LBB430:
 246:..\..\..\liblc3\src/bits.h ****         int v = (accu->v >> accu->n) & ((1u << n) - 1);
ARM GAS  C:\Users\rdn\AppData\Local\Temp\cciiQw7C.s 			page 148


 6328              		.loc 5 246 0
 6329 001c 236A     		ldr	r3, [r4, #32]
 6330 001e C118     		adds	r1, r0, r3
 6331 0020 2029     		cmp	r1, #32
 6332 0022 09DC     		bgt	.L428
 6333              	.LBB431:
 247:..\..\..\liblc3\src/bits.h ****         return (accu->n += n), v;
 6334              		.loc 5 247 0
 6335 0024 E269     		ldr	r2, [r4, #28]
 6336 0026 DA40     		lsrs	r2, r2, r3
 6337 0028 1300     		movs	r3, r2
 6338 002a 0122     		movs	r2, #1
 6339 002c 8240     		lsls	r2, r2, r0
 6340 002e 1000     		movs	r0, r2
 6341              	.LVL899:
 6342 0030 0138     		subs	r0, r0, #1
 6343 0032 1840     		ands	r0, r3
 6344              	.LVL900:
 248:..\..\..\liblc3\src/bits.h ****     }
 6345              		.loc 5 248 0
 6346 0034 2162     		str	r1, [r4, #32]
 6347 0036 03E0     		b	.L429
 6348              	.LVL901:
 6349              	.L428:
 6350              	.LBE431:
 251:..\..\..\liblc3\src/bits.h ****     }
 6351              		.loc 5 251 0
 6352 0038 0100     		movs	r1, r0
 6353 003a 2000     		movs	r0, r4
 6354              	.LVL902:
 6355 003c FFF7FEFF 		bl	lc3_get_bits_generic
 6356              	.LVL903:
 6357              	.L429:
 6358              	.LBE430:
 6359              	.LBE429:
 918:..\..\..\liblc3\src/spec.c ****     int ne = lc3_ne(dt, sr);
 919:..\..\..\liblc3\src/spec.c **** 
 920:..\..\..\liblc3\src/spec.c ****     side->nq = (lc3_get_bits(bits, nbits_nq) + 1) << 1;
 6360              		.loc 1 920 0
 6361 0040 0130     		adds	r0, r0, #1
 6362 0042 4000     		lsls	r0, r0, #1
 6363 0044 7060     		str	r0, [r6, #4]
 6364              	.LVL904:
 6365              	.LBB432:
 6366              	.LBB433:
 6367              	.LBB434:
 6368              	.LBB435:
 246:..\..\..\liblc3\src/bits.h ****         int v = (accu->v >> accu->n) & ((1u << n) - 1);
 6369              		.loc 5 246 0
 6370 0046 236A     		ldr	r3, [r4, #32]
 6371 0048 5A1C     		adds	r2, r3, #1
 6372 004a 202A     		cmp	r2, #32
 6373 004c 05DC     		bgt	.L430
 6374              	.LBB436:
 247:..\..\..\liblc3\src/bits.h ****         return (accu->n += n), v;
 6375              		.loc 5 247 0
 6376 004e E169     		ldr	r1, [r4, #28]
ARM GAS  C:\Users\rdn\AppData\Local\Temp\cciiQw7C.s 			page 149


 6377 0050 D940     		lsrs	r1, r1, r3
 6378 0052 0120     		movs	r0, #1
 6379 0054 0840     		ands	r0, r1
 6380              	.LVL905:
 248:..\..\..\liblc3\src/bits.h ****     }
 6381              		.loc 5 248 0
 6382 0056 2262     		str	r2, [r4, #32]
 6383 0058 03E0     		b	.L431
 6384              	.LVL906:
 6385              	.L430:
 6386              	.LBE436:
 251:..\..\..\liblc3\src/bits.h ****     }
 6387              		.loc 5 251 0
 6388 005a 0121     		movs	r1, #1
 6389 005c 2000     		movs	r0, r4
 6390 005e FFF7FEFF 		bl	lc3_get_bits_generic
 6391              	.LVL907:
 6392              	.L431:
 6393              	.LBE435:
 6394              	.LBE434:
 6395              	.LBE433:
 6396              	.LBE432:
 921:..\..\..\liblc3\src/spec.c ****     side->lsb_mode = lc3_get_bit(bits);
 6397              		.loc 1 921 0
 6398 0062 431E     		subs	r3, r0, #1
 6399 0064 9841     		sbcs	r0, r0, r3
 6400 0066 3072     		strb	r0, [r6, #8]
 6401              	.LVL908:
 6402              	.LBB437:
 6403              	.LBB438:
 246:..\..\..\liblc3\src/bits.h ****         int v = (accu->v >> accu->n) & ((1u << n) - 1);
 6404              		.loc 5 246 0
 6405 0068 236A     		ldr	r3, [r4, #32]
 6406 006a 1A00     		movs	r2, r3
 6407 006c 0832     		adds	r2, r2, #8
 6408 006e 202A     		cmp	r2, #32
 6409 0070 05DC     		bgt	.L432
 6410              	.LBB439:
 247:..\..\..\liblc3\src/bits.h ****         return (accu->n += n), v;
 6411              		.loc 5 247 0
 6412 0072 E169     		ldr	r1, [r4, #28]
 6413 0074 D940     		lsrs	r1, r1, r3
 6414 0076 FF20     		movs	r0, #255
 6415 0078 0840     		ands	r0, r1
 6416              	.LVL909:
 248:..\..\..\liblc3\src/bits.h ****     }
 6417              		.loc 5 248 0
 6418 007a 2262     		str	r2, [r4, #32]
 6419 007c 03E0     		b	.L433
 6420              	.LVL910:
 6421              	.L432:
 6422              	.LBE439:
 251:..\..\..\liblc3\src/bits.h ****     }
 6423              		.loc 5 251 0
 6424 007e 0821     		movs	r1, #8
 6425 0080 2000     		movs	r0, r4
 6426 0082 FFF7FEFF 		bl	lc3_get_bits_generic
ARM GAS  C:\Users\rdn\AppData\Local\Temp\cciiQw7C.s 			page 150


 6427              	.LVL911:
 6428              	.L433:
 6429              	.LBE438:
 6430              	.LBE437:
 922:..\..\..\liblc3\src/spec.c ****     side->g_idx = lc3_get_bits(bits, 8);
 6431              		.loc 1 922 0
 6432 0086 3060     		str	r0, [r6]
 923:..\..\..\liblc3\src/spec.c **** 
 924:..\..\..\liblc3\src/spec.c ****     return side->nq > ne ? (side->nq = ne), -1 : 0;
 6433              		.loc 1 924 0
 6434 0088 7368     		ldr	r3, [r6, #4]
 6435 008a AB42     		cmp	r3, r5
 6436 008c 03DD     		ble	.L435
 6437              		.loc 1 924 0 is_stmt 0 discriminator 1
 6438 008e 7560     		str	r5, [r6, #4]
 6439 0090 0120     		movs	r0, #1
 6440 0092 4042     		rsbs	r0, r0, #0
 6441 0094 00E0     		b	.L434
 6442              	.L435:
 6443              		.loc 1 924 0
 6444 0096 0020     		movs	r0, #0
 6445              	.L434:
 925:..\..\..\liblc3\src/spec.c **** }
 6446              		.loc 1 925 0 is_stmt 1 discriminator 4
 6447              		@ sp needed
 6448              	.LVL912:
 6449              	.LVL913:
 6450 0098 F8BD     		pop	{r3, r4, r5, r6, r7, pc}
 6451              	.L437:
 6452 009a C046     		.align	2
 6453              	.L436:
 6454 009c 00000000 		.word	lc3_ne_2m5
 6455              		.cfi_endproc
 6456              	.LFE43:
 6457              		.size	lc3_spec_get_side, .-lc3_spec_get_side
 6458              		.section	.text.lc3_spec_decode,"ax",%progbits
 6459              		.align	2
 6460              		.global	lc3_spec_decode
 6461              		.code	16
 6462              		.thumb_func
 6463              		.type	lc3_spec_decode, %function
 6464              	lc3_spec_decode:
 6465              	.LFB44:
 926:..\..\..\liblc3\src/spec.c **** 
 927:..\..\..\liblc3\src/spec.c **** /**
 928:..\..\..\liblc3\src/spec.c ****  * Decode spectral coefficients
 929:..\..\..\liblc3\src/spec.c ****  */
 930:..\..\..\liblc3\src/spec.c **** int lc3_spec_decode(lc3_bits_t *bits,
 931:..\..\..\liblc3\src/spec.c ****     enum lc3_dt dt, enum lc3_srate sr, enum lc3_bandwidth bw,
 932:..\..\..\liblc3\src/spec.c ****     int nbytes, const lc3_spec_side_t *side, float *x)
 933:..\..\..\liblc3\src/spec.c **** {
 6466              		.loc 1 933 0
 6467              		.cfi_startproc
 6468              		@ args = 12, pretend = 0, frame = 32
 6469              		@ frame_needed = 0, uses_anonymous_args = 0
 6470              	.LVL914:
 6471 0000 F0B5     		push	{r4, r5, r6, r7, lr}
ARM GAS  C:\Users\rdn\AppData\Local\Temp\cciiQw7C.s 			page 151


 6472              		.cfi_def_cfa_offset 20
 6473              		.cfi_offset 4, -20
 6474              		.cfi_offset 5, -16
 6475              		.cfi_offset 6, -12
 6476              		.cfi_offset 7, -8
 6477              		.cfi_offset 14, -4
 6478 0002 8DB0     		sub	sp, sp, #52
 6479              		.cfi_def_cfa_offset 72
 6480 0004 0791     		str	r1, [sp, #28]
 6481 0006 0592     		str	r2, [sp, #20]
 6482 0008 0993     		str	r3, [sp, #36]
 6483 000a 139E     		ldr	r6, [sp, #76]
 6484 000c 149C     		ldr	r4, [sp, #80]
 934:..\..\..\liblc3\src/spec.c ****     bool lsb_mode = side->lsb_mode;
 6485              		.loc 1 934 0
 6486 000e 357A     		ldrb	r5, [r6, #8]
 6487              	.LVL915:
 935:..\..\..\liblc3\src/spec.c ****     int nq = side->nq;
 6488              		.loc 1 935 0
 6489 0010 7768     		ldr	r7, [r6, #4]
 6490              	.LVL916:
 936:..\..\..\liblc3\src/spec.c ****     int ret = 0;
 937:..\..\..\liblc3\src/spec.c **** 
 938:..\..\..\liblc3\src/spec.c ****     int nf = get_noise_factor(bits);
 6491              		.loc 1 938 0
 6492 0012 0690     		str	r0, [sp, #24]
 6493 0014 FFF7FEFF 		bl	get_noise_factor
 6494              	.LVL917:
 6495 0018 0890     		str	r0, [sp, #32]
 6496              	.LVL918:
 939:..\..\..\liblc3\src/spec.c ****     uint16_t nf_seed;
 940:..\..\..\liblc3\src/spec.c **** 
 941:..\..\..\liblc3\src/spec.c ****     if ((ret = get_quantized(bits, dt, sr, nbytes,
 6497              		.loc 1 941 0
 6498 001a 1623     		movs	r3, #22
 6499 001c 06AA     		add	r2, sp, #24
 6500              	.LVL919:
 6501 001e 9446     		mov	ip, r2
 6502 0020 6344     		add	r3, r3, ip
 6503 0022 0393     		str	r3, [sp, #12]
 6504 0024 0294     		str	r4, [sp, #8]
 6505 0026 0195     		str	r5, [sp, #4]
 6506 0028 0097     		str	r7, [sp]
 6507 002a 129B     		ldr	r3, [sp, #72]
 6508 002c 059A     		ldr	r2, [sp, #20]
 6509              	.LVL920:
 6510 002e 0799     		ldr	r1, [sp, #28]
 6511 0030 0698     		ldr	r0, [sp, #24]
 6512              	.LVL921:
 6513 0032 FFF7FEFF 		bl	get_quantized
 6514              	.LVL922:
 6515 0036 0028     		cmp	r0, #0
 6516 0038 4CDB     		blt	.L439
 942:..\..\..\liblc3\src/spec.c ****                     nq, lsb_mode, x, &nf_seed)) < 0)
 943:..\..\..\liblc3\src/spec.c ****         return ret;
 944:..\..\..\liblc3\src/spec.c **** 
 945:..\..\..\liblc3\src/spec.c ****     int nbits_left = lc3_get_bits_left(bits);
ARM GAS  C:\Users\rdn\AppData\Local\Temp\cciiQw7C.s 			page 152


 6517              		.loc 1 945 0
 6518 003a 0698     		ldr	r0, [sp, #24]
 6519              	.LVL923:
 6520 003c FFF7FEFF 		bl	lc3_get_bits_left
 6521              	.LVL924:
 946:..\..\..\liblc3\src/spec.c **** 
 947:..\..\..\liblc3\src/spec.c ****     if (lsb_mode)
 6522              		.loc 1 947 0
 6523 0040 002D     		cmp	r5, #0
 6524 0042 0BD0     		beq	.L440
 948:..\..\..\liblc3\src/spec.c ****         get_lsb(bits, nbits_left, x, nq, &nf_seed);
 6525              		.loc 1 948 0
 6526 0044 1623     		movs	r3, #22
 6527 0046 06AA     		add	r2, sp, #24
 6528              	.LVL925:
 6529 0048 9446     		mov	ip, r2
 6530 004a 6344     		add	r3, r3, ip
 6531 004c 0093     		str	r3, [sp]
 6532 004e 3B00     		movs	r3, r7
 6533 0050 2200     		movs	r2, r4
 6534              	.LVL926:
 6535 0052 0100     		movs	r1, r0
 6536 0054 0698     		ldr	r0, [sp, #24]
 6537              	.LVL927:
 6538 0056 FFF7FEFF 		bl	get_lsb
 6539              	.LVL928:
 6540 005a 0AE0     		b	.L441
 6541              	.LVL929:
 6542              	.L440:
 6543              	.LBB440:
 6544              	.LBB441:
 6545              		.loc 3 110 0
 6546 005c 0422     		movs	r2, #4
 6547 005e 059B     		ldr	r3, [sp, #20]
 6548 0060 9A42     		cmp	r2, r3
 6549 0062 9241     		sbcs	r2, r2, r2
 6550 0064 5242     		rsbs	r2, r2, #0
 6551              	.LVL930:
 6552              	.LBE441:
 6553              	.LBE440:
 949:..\..\..\liblc3\src/spec.c ****     else
 950:..\..\..\liblc3\src/spec.c ****         get_residual(bits, nbits_left, lc3_hr(sr), x, nq);
 6554              		.loc 1 950 0
 6555 0066 0097     		str	r7, [sp]
 6556 0068 2300     		movs	r3, r4
 6557 006a 0100     		movs	r1, r0
 6558 006c 0698     		ldr	r0, [sp, #24]
 6559              	.LVL931:
 6560 006e FFF7FEFF 		bl	get_residual
 6561              	.LVL932:
 6562              	.L441:
 951:..\..\..\liblc3\src/spec.c **** 
 952:..\..\..\liblc3\src/spec.c ****     int g_int = side->g_idx - resolve_gain_offset(sr, nbytes);
 6563              		.loc 1 952 0
 6564 0072 3568     		ldr	r5, [r6]
 6565              	.LVL933:
 6566 0074 1299     		ldr	r1, [sp, #72]
ARM GAS  C:\Users\rdn\AppData\Local\Temp\cciiQw7C.s 			page 153


 6567 0076 0598     		ldr	r0, [sp, #20]
 6568 0078 FFF7FEFF 		bl	resolve_gain_offset
 6569              	.LVL934:
 6570 007c 2A1A     		subs	r2, r5, r0
 6571              	.LVL935:
 953:..\..\..\liblc3\src/spec.c ****     float g = unquantize(dt, sr, g_int, x, nq);
 6572              		.loc 1 953 0
 6573 007e 0097     		str	r7, [sp]
 6574 0080 2300     		movs	r3, r4
 6575 0082 0599     		ldr	r1, [sp, #20]
 6576 0084 0798     		ldr	r0, [sp, #28]
 6577 0086 FFF7FEFF 		bl	unquantize
 6578              	.LVL936:
 6579 008a 051C     		adds	r5, r0, #0
 6580              	.LVL937:
 954:..\..\..\liblc3\src/spec.c **** 
 955:..\..\..\liblc3\src/spec.c ****     if (nq > 2 || x[0] || x[1] || side->g_idx > 0 || nf < 7)
 6581              		.loc 1 955 0
 6582 008c 022F     		cmp	r7, #2
 6583 008e 11DC     		bgt	.L442
 6584              		.loc 1 955 0 is_stmt 0 discriminator 1
 6585 0090 0021     		movs	r1, #0
 6586 0092 2068     		ldr	r0, [r4]
 6587              	.LVL938:
 6588 0094 FFF7FEFF 		bl	__aeabi_fcmpeq
 6589              	.LVL939:
 6590 0098 0028     		cmp	r0, #0
 6591 009a 0BD0     		beq	.L442
 6592              		.loc 1 955 0 discriminator 2
 6593 009c 0021     		movs	r1, #0
 6594 009e 6068     		ldr	r0, [r4, #4]
 6595 00a0 FFF7FEFF 		bl	__aeabi_fcmpeq
 6596              	.LVL940:
 6597 00a4 0028     		cmp	r0, #0
 6598 00a6 05D0     		beq	.L442
 6599              		.loc 1 955 0 discriminator 3
 6600 00a8 3368     		ldr	r3, [r6]
 6601 00aa 002B     		cmp	r3, #0
 6602 00ac 02DC     		bgt	.L442
 6603              		.loc 1 955 0 discriminator 4
 6604 00ae 089B     		ldr	r3, [sp, #32]
 6605 00b0 062B     		cmp	r3, #6
 6606 00b2 0EDC     		bgt	.L444
 6607              	.L442:
 956:..\..\..\liblc3\src/spec.c ****         fill_noise(dt, bw, nf, nf_seed, g, x, nq);
 6608              		.loc 1 956 0 is_stmt 1
 6609 00b4 1623     		movs	r3, #22
 6610 00b6 06AA     		add	r2, sp, #24
 6611              	.LVL941:
 6612 00b8 9446     		mov	ip, r2
 6613 00ba 6344     		add	r3, r3, ip
 6614 00bc 1B88     		ldrh	r3, [r3]
 6615 00be 0297     		str	r7, [sp, #8]
 6616 00c0 0194     		str	r4, [sp, #4]
 6617 00c2 0095     		str	r5, [sp]
 6618 00c4 089A     		ldr	r2, [sp, #32]
 6619              	.LVL942:
ARM GAS  C:\Users\rdn\AppData\Local\Temp\cciiQw7C.s 			page 154


 6620 00c6 0999     		ldr	r1, [sp, #36]
 6621 00c8 0798     		ldr	r0, [sp, #28]
 6622 00ca FFF7FEFF 		bl	fill_noise
 6623              	.LVL943:
 957:..\..\..\liblc3\src/spec.c **** 
 958:..\..\..\liblc3\src/spec.c ****     return 0;
 6624              		.loc 1 958 0
 6625 00ce 0020     		movs	r0, #0
 6626 00d0 00E0     		b	.L439
 6627              	.L444:
 6628 00d2 0020     		movs	r0, #0
 6629              	.LVL944:
 6630              	.L439:
 959:..\..\..\liblc3\src/spec.c **** }
 6631              		.loc 1 959 0
 6632 00d4 0DB0     		add	sp, sp, #52
 6633              		@ sp needed
 6634              	.LVL945:
 6635 00d6 F0BD     		pop	{r4, r5, r6, r7, pc}
 6636              		.cfi_endproc
 6637              	.LFE44:
 6638              		.size	lc3_spec_decode, .-lc3_spec_decode
 6639              		.section	.rodata
 6640              		.align	2
 6641              		.set	.LANCHOR0,. + 0
 6642              		.set	.LANCHOR1,. + 128
 6643              		.type	iq_table.5644, %object
 6644              		.size	iq_table.5644, 112
 6645              	iq_table.5644:
 6646 0000 0000803F 		.word	1065353216
 6647 0004 95F88A3F 		.word	1066072213
 6648 0008 E4E1963F 		.word	1066852836
 6649 000c 8FD0A33F 		.word	1067700367
 6650 0010 FDDAB13F 		.word	1068620541
 6651 0014 8019C13F 		.word	1069619584
 6652 0018 80A6D13F 		.word	1070704256
 6653 001c A99EE33F 		.word	1071881897
 6654 0020 1A21F73F 		.word	1073160474
 6655 0024 D0270640 		.word	1074145232
 6656 0028 76A71140 		.word	1074898806
 6657 002c 69231E40 		.word	1075716969
 6658 0030 4AB12B40 		.word	1076605258
 6659 0034 93683A40 		.word	1077569683
 6660 0038 C2624A40 		.word	1078616770
 6661 003c 84BB5B40 		.word	1079753604
 6662 0040 E5906E40 		.word	1080987877
 6663 0044 C3818140 		.word	1082229187
 6664 0048 689B8C40 		.word	1082956648
 6665 004c 9DA89840 		.word	1083746461
 6666 0050 42BEA540 		.word	1084603970
 6667 0054 00F3B340 		.word	1085534976
 6668 0058 755FC340 		.word	1086545781
 6669 005c 561ED440 		.word	1087643222
 6670 0060 A64CE640 		.word	1088834726
 6671 0064 E409FA40 		.word	1090128356
 6672 0068 20BC0741 		.word	1091025952
 6673 006c 6D5E1341 		.word	1091788397
ARM GAS  C:\Users\rdn\AppData\Local\Temp\cciiQw7C.s 			page 155


 6674              	.LC0:
 6675 0070 50000000 		.word	80
 6676 0074 F4010000 		.word	500
 6677 0078 52030000 		.word	850
 6678 007c E6000000 		.word	230
 6679 0080 01040000 		.word	1025
 6680 0084 A4060000 		.word	1700
 6681 0088 7C010000 		.word	380
 6682 008c 0E060000 		.word	1550
 6683 0090 F6090000 		.word	2550
 6684 0094 12020000 		.word	530
 6685 0098 1B080000 		.word	2075
 6686 009c 480D0000 		.word	3400
 6687 00a0 A8020000 		.word	680
 6688 00a4 280A0000 		.word	2600
 6689 00a8 9A100000 		.word	4250
 6690 00ac A8020000 		.word	680
 6691 00b0 280A0000 		.word	2600
 6692 00b4 9A100000 		.word	4250
 6693 00b8 3E030000 		.word	830
 6694 00bc 350C0000 		.word	3125
 6695 00c0 EC130000 		.word	5100
 6696              		.type	e.5109, %object
 6697              		.size	e.5109, 32
 6698              	e.5109:
 6699 00c4 0000803F 		.word	1065353216
 6700 00c8 C2958B3F 		.word	1066112450
 6701 00cc F037983F 		.word	1066940400
 6702 00d0 D7FEA53F 		.word	1067843287
 6703 00d4 F304B53F 		.word	1068827891
 6704 00d8 2A67C53F 		.word	1069901610
 6705 00dc FD44D73F 		.word	1071072509
 6706 00e0 C7C0EA3F 		.word	1072349383
 6707              		.type	t.5132, %object
 6708              		.size	t.5132, 128
 6709              	t.5132:
 6710 00e4 0000     		.short	0
 6711 00e6 1B11     		.short	4379
 6712 00e8 1B11     		.short	4379
 6713 00ea 9810     		.short	4248
 6714 00ec B321     		.short	8627
 6715 00ee 1D10     		.short	4125
 6716 00f0 D131     		.short	12753
 6717 00f2 A90F     		.short	4009
 6718 00f4 7A41     		.short	16762
 6719 00f6 3B0F     		.short	3899
 6720 00f8 B550     		.short	20661
 6721 00fa D30E     		.short	3795
 6722 00fc 885F     		.short	24456
 6723 00fe 710E     		.short	3697
 6724 0100 F96D     		.short	28153
 6725 0102 130E     		.short	3603
 6726 0104 0B7C     		.short	31755
 6727 0106 BA0D     		.short	3514
 6728 0108 C589     		.short	-30267
 6729 010a 650D     		.short	3429
 6730 010c 2B97     		.short	-26837
ARM GAS  C:\Users\rdn\AppData\Local\Temp\cciiQw7C.s 			page 156


 6731 010e 150D     		.short	3349
 6732 0110 3FA4     		.short	-23489
 6733 0112 C80C     		.short	3272
 6734 0114 07B1     		.short	-20217
 6735 0116 7E0C     		.short	3198
 6736 0118 85BD     		.short	-17019
 6737 011a 380C     		.short	3128
 6738 011c BDC9     		.short	-13891
 6739 011e F50B     		.short	3061
 6740 0120 B1D5     		.short	-10831
 6741 0122 B40B     		.short	2996
 6742 0124 BD20     		.short	8381
 6743 0126 760B     		.short	2934
 6744 0128 332C     		.short	11315
 6745 012a 3B0B     		.short	2875
 6746 012c 6E37     		.short	14190
 6747 012e 020B     		.short	2818
 6748 0130 7042     		.short	17008
 6749 0132 CB0A     		.short	2763
 6750 0134 3C4D     		.short	19772
 6751 0136 970A     		.short	2711
 6752 0138 D257     		.short	22482
 6753 013a 640A     		.short	2660
 6754 013c 3662     		.short	25142
 6755 013e 330A     		.short	2611
 6756 0140 6A6C     		.short	27754
 6757 0142 040A     		.short	2564
 6758 0144 6E76     		.short	30318
 6759 0146 D709     		.short	2519
 6760 0148 4580     		.short	-32699
 6761 014a AB09     		.short	2475
 6762 014c F089     		.short	-30224
 6763 014e 8109     		.short	2433
 6764 0150 7093     		.short	-27792
 6765 0152 5809     		.short	2392
 6766 0154 C89C     		.short	-25400
 6767 0156 3009     		.short	2352
 6768 0158 F9A5     		.short	-23047
 6769 015a 0A09     		.short	2314
 6770 015c 03AF     		.short	-20733
 6771 015e E508     		.short	2277
 6772 0160 E8B7     		.short	-18456
 6773 0162 C108     		.short	2241
 6774              		.text
 6775              	.Letext0:
 6776              		.file 6 "c:\\program files (x86)\\cypress\\psoc creator\\4.4\\psoc creator\\import\\gnu\\arm\\5.4.
 6777              		.file 7 "c:\\program files (x86)\\cypress\\psoc creator\\4.4\\psoc creator\\import\\gnu\\arm\\5.4.
 6778              		.file 8 ".\\liblc3\\include/lc3_private.h"
 6779              		.file 9 "..\\..\\..\\liblc3\\src\\tns.h"
 6780              		.file 10 "..\\..\\..\\liblc3\\src\\spec.h"
 6781              		.file 11 "c:\\program files (x86)\\cypress\\psoc creator\\4.4\\psoc creator\\import\\gnu\\arm\\5.4
 6782              		.file 12 "..\\..\\..\\liblc3\\src\\bwdet.h"
 6783              		.file 13 "..\\..\\..\\liblc3\\src\\ltpf.h"
 6784              		.file 14 "..\\..\\..\\liblc3\\src\\sns.h"
 6785              		.section	.debug_info,"",%progbits
 6786              	.Ldebug_info0:
 6787 0000 FE330000 		.4byte	0x33fe
ARM GAS  C:\Users\rdn\AppData\Local\Temp\cciiQw7C.s 			page 157


 6788 0004 0400     		.2byte	0x4
 6789 0006 00000000 		.4byte	.Ldebug_abbrev0
 6790 000a 04       		.byte	0x4
 6791 000b 01       		.uleb128 0x1
 6792 000c E8010000 		.4byte	.LASF192
 6793 0010 0C       		.byte	0xc
 6794 0011 8D030000 		.4byte	.LASF193
 6795 0015 F7030000 		.4byte	.LASF194
 6796 0019 A0010000 		.4byte	.Ldebug_ranges0+0x1a0
 6797 001d 00000000 		.4byte	0
 6798 0021 00000000 		.4byte	.Ldebug_line0
 6799 0025 02       		.uleb128 0x2
 6800 0026 04       		.byte	0x4
 6801 0027 04       		.byte	0x4
 6802 0028 E2010000 		.4byte	.LASF0
 6803 002c 02       		.uleb128 0x2
 6804 002d 01       		.byte	0x1
 6805 002e 06       		.byte	0x6
 6806 002f 4F080000 		.4byte	.LASF1
 6807 0033 03       		.uleb128 0x3
 6808 0034 D3060000 		.4byte	.LASF4
 6809 0038 06       		.byte	0x6
 6810 0039 1D       		.byte	0x1d
 6811 003a 3E000000 		.4byte	0x3e
 6812 003e 02       		.uleb128 0x2
 6813 003f 01       		.byte	0x1
 6814 0040 08       		.byte	0x8
 6815 0041 AE070000 		.4byte	.LASF2
 6816 0045 02       		.uleb128 0x2
 6817 0046 02       		.byte	0x2
 6818 0047 05       		.byte	0x5
 6819 0048 44060000 		.4byte	.LASF3
 6820 004c 03       		.uleb128 0x3
 6821 004d E6020000 		.4byte	.LASF5
 6822 0051 06       		.byte	0x6
 6823 0052 2B       		.byte	0x2b
 6824 0053 57000000 		.4byte	0x57
 6825 0057 02       		.uleb128 0x2
 6826 0058 02       		.byte	0x2
 6827 0059 07       		.byte	0x7
 6828 005a 61080000 		.4byte	.LASF6
 6829 005e 03       		.uleb128 0x3
 6830 005f DF000000 		.4byte	.LASF7
 6831 0063 06       		.byte	0x6
 6832 0064 3F       		.byte	0x3f
 6833 0065 69000000 		.4byte	0x69
 6834 0069 02       		.uleb128 0x2
 6835 006a 04       		.byte	0x4
 6836 006b 05       		.byte	0x5
 6837 006c 68060000 		.4byte	.LASF8
 6838 0070 03       		.uleb128 0x3
 6839 0071 C9070000 		.4byte	.LASF9
 6840 0075 06       		.byte	0x6
 6841 0076 41       		.byte	0x41
 6842 0077 7B000000 		.4byte	0x7b
 6843 007b 02       		.uleb128 0x2
 6844 007c 04       		.byte	0x4
ARM GAS  C:\Users\rdn\AppData\Local\Temp\cciiQw7C.s 			page 158


 6845 007d 07       		.byte	0x7
 6846 007e 56070000 		.4byte	.LASF10
 6847 0082 02       		.uleb128 0x2
 6848 0083 08       		.byte	0x8
 6849 0084 05       		.byte	0x5
 6850 0085 A5040000 		.4byte	.LASF11
 6851 0089 02       		.uleb128 0x2
 6852 008a 08       		.byte	0x8
 6853 008b 07       		.byte	0x7
 6854 008c A7020000 		.4byte	.LASF12
 6855 0090 04       		.uleb128 0x4
 6856 0091 04       		.byte	0x4
 6857 0092 05       		.byte	0x5
 6858 0093 696E7400 		.ascii	"int\000"
 6859 0097 02       		.uleb128 0x2
 6860 0098 04       		.byte	0x4
 6861 0099 07       		.byte	0x7
 6862 009a 91000000 		.4byte	.LASF13
 6863 009e 03       		.uleb128 0x3
 6864 009f 58040000 		.4byte	.LASF14
 6865 00a3 07       		.byte	0x7
 6866 00a4 18       		.byte	0x18
 6867 00a5 33000000 		.4byte	0x33
 6868 00a9 03       		.uleb128 0x3
 6869 00aa F9050000 		.4byte	.LASF15
 6870 00ae 07       		.byte	0x7
 6871 00af 24       		.byte	0x24
 6872 00b0 4C000000 		.4byte	0x4c
 6873 00b4 03       		.uleb128 0x3
 6874 00b5 84070000 		.4byte	.LASF16
 6875 00b9 07       		.byte	0x7
 6876 00ba 2C       		.byte	0x2c
 6877 00bb 5E000000 		.4byte	0x5e
 6878 00bf 03       		.uleb128 0x3
 6879 00c0 BD010000 		.4byte	.LASF17
 6880 00c4 07       		.byte	0x7
 6881 00c5 30       		.byte	0x30
 6882 00c6 70000000 		.4byte	0x70
 6883 00ca 05       		.uleb128 0x5
 6884 00cb 20010000 		.4byte	.LASF23
 6885 00cf 01       		.byte	0x1
 6886 00d0 3E000000 		.4byte	0x3e
 6887 00d4 08       		.byte	0x8
 6888 00d5 3B       		.byte	0x3b
 6889 00d6 F9000000 		.4byte	0xf9
 6890 00da 06       		.uleb128 0x6
 6891 00db 4E060000 		.4byte	.LASF18
 6892 00df 00       		.byte	0
 6893 00e0 06       		.uleb128 0x6
 6894 00e1 B3010000 		.4byte	.LASF19
 6895 00e5 01       		.byte	0x1
 6896 00e6 06       		.uleb128 0x6
 6897 00e7 33060000 		.4byte	.LASF20
 6898 00eb 02       		.byte	0x2
 6899 00ec 06       		.uleb128 0x6
 6900 00ed 11070000 		.4byte	.LASF21
 6901 00f1 03       		.byte	0x3
ARM GAS  C:\Users\rdn\AppData\Local\Temp\cciiQw7C.s 			page 159


 6902 00f2 06       		.uleb128 0x6
 6903 00f3 14030000 		.4byte	.LASF22
 6904 00f7 04       		.byte	0x4
 6905 00f8 00       		.byte	0
 6906 00f9 05       		.uleb128 0x5
 6907 00fa 92070000 		.4byte	.LASF24
 6908 00fe 01       		.byte	0x1
 6909 00ff 3E000000 		.4byte	0x3e
 6910 0103 08       		.byte	0x8
 6911 0104 49       		.byte	0x49
 6912 0105 3A010000 		.4byte	0x13a
 6913 0109 06       		.uleb128 0x6
 6914 010a 42080000 		.4byte	.LASF25
 6915 010e 00       		.byte	0
 6916 010f 06       		.uleb128 0x6
 6917 0110 F6060000 		.4byte	.LASF26
 6918 0114 01       		.byte	0x1
 6919 0115 06       		.uleb128 0x6
 6920 0116 16000000 		.4byte	.LASF27
 6921 011a 02       		.byte	0x2
 6922 011b 06       		.uleb128 0x6
 6923 011c FD020000 		.4byte	.LASF28
 6924 0120 03       		.byte	0x3
 6925 0121 06       		.uleb128 0x6
 6926 0122 9E000000 		.4byte	.LASF29
 6927 0126 04       		.byte	0x4
 6928 0127 06       		.uleb128 0x6
 6929 0128 37010000 		.4byte	.LASF30
 6930 012c 05       		.byte	0x5
 6931 012d 06       		.uleb128 0x6
 6932 012e F8080000 		.4byte	.LASF31
 6933 0132 06       		.byte	0x6
 6934 0133 06       		.uleb128 0x6
 6935 0134 1D060000 		.4byte	.LASF32
 6936 0138 07       		.byte	0x7
 6937 0139 00       		.byte	0
 6938 013a 02       		.uleb128 0x2
 6939 013b 01       		.byte	0x1
 6940 013c 02       		.byte	0x2
 6941 013d 5B030000 		.4byte	.LASF33
 6942 0141 02       		.uleb128 0x2
 6943 0142 04       		.byte	0x4
 6944 0143 07       		.byte	0x7
 6945 0144 46070000 		.4byte	.LASF34
 6946 0148 07       		.uleb128 0x7
 6947 0149 9C070000 		.4byte	.LASF52
 6948 014d 08       		.byte	0x8
 6949 014e 08       		.byte	0x8
 6950 014f 6E       		.byte	0x6e
 6951 0150 6D010000 		.4byte	0x16d
 6952 0154 08       		.uleb128 0x8
 6953 0155 E3040000 		.4byte	.LASF35
 6954 0159 08       		.byte	0x8
 6955 015a 6F       		.byte	0x6f
 6956 015b 25000000 		.4byte	0x25
 6957 015f 00       		.byte	0
 6958 0160 08       		.uleb128 0x8
ARM GAS  C:\Users\rdn\AppData\Local\Temp\cciiQw7C.s 			page 160


 6959 0161 EB030000 		.4byte	.LASF36
 6960 0165 08       		.byte	0x8
 6961 0166 70       		.byte	0x70
 6962 0167 90000000 		.4byte	0x90
 6963 016b 04       		.byte	0x4
 6964 016c 00       		.byte	0
 6965 016d 02       		.uleb128 0x2
 6966 016e 08       		.byte	0x8
 6967 016f 04       		.byte	0x4
 6968 0170 E0050000 		.4byte	.LASF37
 6969 0174 02       		.uleb128 0x2
 6970 0175 01       		.byte	0x1
 6971 0176 08       		.byte	0x8
 6972 0177 C6030000 		.4byte	.LASF38
 6973 017b 02       		.uleb128 0x2
 6974 017c 08       		.byte	0x8
 6975 017d 04       		.byte	0x4
 6976 017e F1080000 		.4byte	.LASF39
 6977 0182 05       		.uleb128 0x5
 6978 0183 E0070000 		.4byte	.LASF40
 6979 0187 01       		.byte	0x1
 6980 0188 3E000000 		.4byte	0x3e
 6981 018c 03       		.byte	0x3
 6982 018d 76       		.byte	0x76
 6983 018e C3010000 		.4byte	0x1c3
 6984 0192 06       		.uleb128 0x6
 6985 0193 35040000 		.4byte	.LASF41
 6986 0197 00       		.byte	0
 6987 0198 06       		.uleb128 0x6
 6988 0199 3E000000 		.4byte	.LASF42
 6989 019d 01       		.byte	0x1
 6990 019e 06       		.uleb128 0x6
 6991 019f 33070000 		.4byte	.LASF43
 6992 01a3 02       		.byte	0x2
 6993 01a4 06       		.uleb128 0x6
 6994 01a5 01050000 		.4byte	.LASF44
 6995 01a9 03       		.byte	0x3
 6996 01aa 06       		.uleb128 0x6
 6997 01ab 88080000 		.4byte	.LASF45
 6998 01af 04       		.byte	0x4
 6999 01b0 06       		.uleb128 0x6
 7000 01b1 2A000000 		.4byte	.LASF46
 7001 01b5 05       		.byte	0x5
 7002 01b6 06       		.uleb128 0x6
 7003 01b7 9B050000 		.4byte	.LASF47
 7004 01bb 06       		.byte	0x6
 7005 01bc 06       		.uleb128 0x6
 7006 01bd A1080000 		.4byte	.LASF48
 7007 01c1 07       		.byte	0x7
 7008 01c2 00       		.byte	0
 7009 01c3 05       		.uleb128 0x5
 7010 01c4 6D010000 		.4byte	.LASF49
 7011 01c8 01       		.byte	0x1
 7012 01c9 3E000000 		.4byte	0x3e
 7013 01cd 05       		.byte	0x5
 7014 01ce 45       		.byte	0x45
 7015 01cf E0010000 		.4byte	0x1e0
ARM GAS  C:\Users\rdn\AppData\Local\Temp\cciiQw7C.s 			page 161


 7016 01d3 06       		.uleb128 0x6
 7017 01d4 F6070000 		.4byte	.LASF50
 7018 01d8 00       		.byte	0
 7019 01d9 06       		.uleb128 0x6
 7020 01da BF060000 		.4byte	.LASF51
 7021 01de 01       		.byte	0x1
 7022 01df 00       		.byte	0
 7023 01e0 07       		.uleb128 0x7
 7024 01e1 C9040000 		.4byte	.LASF53
 7025 01e5 04       		.byte	0x4
 7026 01e6 05       		.byte	0x5
 7027 01e7 4F       		.byte	0x4f
 7028 01e8 0B020000 		.4byte	0x20b
 7029 01ec 09       		.uleb128 0x9
 7030 01ed 6C6F7700 		.ascii	"low\000"
 7031 01f1 05       		.byte	0x5
 7032 01f2 50       		.byte	0x50
 7033 01f3 A9000000 		.4byte	0xa9
 7034 01f7 02       		.byte	0x2
 7035 01f8 10       		.byte	0x10
 7036 01f9 00       		.byte	0
 7037 01fa 00       		.byte	0
 7038 01fb 0A       		.uleb128 0xa
 7039 01fc 3A050000 		.4byte	.LASF54
 7040 0200 05       		.byte	0x5
 7041 0201 51       		.byte	0x51
 7042 0202 A9000000 		.4byte	0xa9
 7043 0206 02       		.byte	0x2
 7044 0207 10       		.byte	0x10
 7045 0208 00       		.byte	0
 7046 0209 02       		.byte	0x2
 7047 020a 00       		.byte	0
 7048 020b 07       		.uleb128 0x7
 7049 020c 95060000 		.4byte	.LASF55
 7050 0210 44       		.byte	0x44
 7051 0211 05       		.byte	0x5
 7052 0212 54       		.byte	0x54
 7053 0213 22020000 		.4byte	0x222
 7054 0217 0B       		.uleb128 0xb
 7055 0218 7300     		.ascii	"s\000"
 7056 021a 05       		.byte	0x5
 7057 021b 55       		.byte	0x55
 7058 021c 22020000 		.4byte	0x222
 7059 0220 00       		.byte	0
 7060 0221 00       		.byte	0
 7061 0222 0C       		.uleb128 0xc
 7062 0223 E0010000 		.4byte	0x1e0
 7063 0227 32020000 		.4byte	0x232
 7064 022b 0D       		.uleb128 0xd
 7065 022c 41010000 		.4byte	0x141
 7066 0230 10       		.byte	0x10
 7067 0231 00       		.byte	0
 7068 0232 07       		.uleb128 0x7
 7069 0233 DD030000 		.4byte	.LASF56
 7070 0237 0C       		.byte	0xc
 7071 0238 05       		.byte	0x5
 7072 0239 5E       		.byte	0x5e
ARM GAS  C:\Users\rdn\AppData\Local\Temp\cciiQw7C.s 			page 162


 7073 023a 5F020000 		.4byte	0x25f
 7074 023e 0B       		.uleb128 0xb
 7075 023f 7600     		.ascii	"v\000"
 7076 0241 05       		.byte	0x5
 7077 0242 5F       		.byte	0x5f
 7078 0243 97000000 		.4byte	0x97
 7079 0247 00       		.byte	0
 7080 0248 0B       		.uleb128 0xb
 7081 0249 6E00     		.ascii	"n\000"
 7082 024b 05       		.byte	0x5
 7083 024c 60       		.byte	0x60
 7084 024d 90000000 		.4byte	0x90
 7085 0251 04       		.byte	0x4
 7086 0252 08       		.uleb128 0x8
 7087 0253 2F040000 		.4byte	.LASF57
 7088 0257 05       		.byte	0x5
 7089 0258 60       		.byte	0x60
 7090 0259 90000000 		.4byte	0x90
 7091 025d 08       		.byte	0x8
 7092 025e 00       		.byte	0
 7093 025f 07       		.uleb128 0x7
 7094 0260 09090000 		.4byte	.LASF58
 7095 0264 18       		.byte	0x18
 7096 0265 05       		.byte	0x5
 7097 0266 65       		.byte	0x65
 7098 0267 B4020000 		.4byte	0x2b4
 7099 026b 0B       		.uleb128 0xb
 7100 026c 6C6F7700 		.ascii	"low\000"
 7101 0270 05       		.byte	0x5
 7102 0271 66       		.byte	0x66
 7103 0272 97000000 		.4byte	0x97
 7104 0276 00       		.byte	0
 7105 0277 08       		.uleb128 0x8
 7106 0278 3A050000 		.4byte	.LASF54
 7107 027c 05       		.byte	0x5
 7108 027d 66       		.byte	0x66
 7109 027e 97000000 		.4byte	0x97
 7110 0282 04       		.byte	0x4
 7111 0283 08       		.uleb128 0x8
 7112 0284 AF050000 		.4byte	.LASF59
 7113 0288 05       		.byte	0x5
 7114 0289 67       		.byte	0x67
 7115 028a 90000000 		.4byte	0x90
 7116 028e 08       		.byte	0x8
 7117 028f 08       		.uleb128 0x8
 7118 0290 8F020000 		.4byte	.LASF60
 7119 0294 05       		.byte	0x5
 7120 0295 67       		.byte	0x67
 7121 0296 90000000 		.4byte	0x90
 7122 029a 0C       		.byte	0xc
 7123 029b 08       		.uleb128 0x8
 7124 029c D3000000 		.4byte	.LASF61
 7125 02a0 05       		.byte	0x5
 7126 02a1 67       		.byte	0x67
 7127 02a2 90000000 		.4byte	0x90
 7128 02a6 10       		.byte	0x10
 7129 02a7 08       		.uleb128 0x8
ARM GAS  C:\Users\rdn\AppData\Local\Temp\cciiQw7C.s 			page 163


 7130 02a8 15010000 		.4byte	.LASF62
 7131 02ac 05       		.byte	0x5
 7132 02ad 68       		.byte	0x68
 7133 02ae 3A010000 		.4byte	0x13a
 7134 02b2 14       		.byte	0x14
 7135 02b3 00       		.byte	0
 7136 02b4 07       		.uleb128 0x7
 7137 02b5 6F000000 		.4byte	.LASF63
 7138 02b9 10       		.byte	0x10
 7139 02ba 05       		.byte	0x5
 7140 02bb 6B       		.byte	0x6b
 7141 02bc F1020000 		.4byte	0x2f1
 7142 02c0 08       		.uleb128 0x8
 7143 02c1 F0060000 		.4byte	.LASF64
 7144 02c5 05       		.byte	0x5
 7145 02c6 6C       		.byte	0x6c
 7146 02c7 F1020000 		.4byte	0x2f1
 7147 02cb 00       		.byte	0
 7148 02cc 0B       		.uleb128 0xb
 7149 02cd 656E6400 		.ascii	"end\000"
 7150 02d1 05       		.byte	0x5
 7151 02d2 6C       		.byte	0x6c
 7152 02d3 F1020000 		.4byte	0x2f1
 7153 02d7 04       		.byte	0x4
 7154 02d8 08       		.uleb128 0x8
 7155 02d9 58090000 		.4byte	.LASF65
 7156 02dd 05       		.byte	0x5
 7157 02de 6D       		.byte	0x6d
 7158 02df FC020000 		.4byte	0x2fc
 7159 02e3 08       		.byte	0x8
 7160 02e4 08       		.uleb128 0x8
 7161 02e5 75040000 		.4byte	.LASF66
 7162 02e9 05       		.byte	0x5
 7163 02ea 6D       		.byte	0x6d
 7164 02eb FC020000 		.4byte	0x2fc
 7165 02ef 0C       		.byte	0xc
 7166 02f0 00       		.byte	0
 7167 02f1 0E       		.uleb128 0xe
 7168 02f2 04       		.byte	0x4
 7169 02f3 F7020000 		.4byte	0x2f7
 7170 02f7 0F       		.uleb128 0xf
 7171 02f8 9E000000 		.4byte	0x9e
 7172 02fc 0E       		.uleb128 0xe
 7173 02fd 04       		.byte	0x4
 7174 02fe 9E000000 		.4byte	0x9e
 7175 0302 07       		.uleb128 0x7
 7176 0303 C3050000 		.4byte	.LASF67
 7177 0307 38       		.byte	0x38
 7178 0308 05       		.byte	0x5
 7179 0309 70       		.byte	0x70
 7180 030a 3E030000 		.4byte	0x33e
 7181 030e 08       		.uleb128 0x8
 7182 030f 1B010000 		.4byte	.LASF68
 7183 0313 05       		.byte	0x5
 7184 0314 71       		.byte	0x71
 7185 0315 C3010000 		.4byte	0x1c3
 7186 0319 00       		.byte	0
ARM GAS  C:\Users\rdn\AppData\Local\Temp\cciiQw7C.s 			page 164


 7187 031a 0B       		.uleb128 0xb
 7188 031b 616300   		.ascii	"ac\000"
 7189 031e 05       		.byte	0x5
 7190 031f 72       		.byte	0x72
 7191 0320 5F020000 		.4byte	0x25f
 7192 0324 04       		.byte	0x4
 7193 0325 08       		.uleb128 0x8
 7194 0326 C1030000 		.4byte	.LASF69
 7195 032a 05       		.byte	0x5
 7196 032b 73       		.byte	0x73
 7197 032c 32020000 		.4byte	0x232
 7198 0330 1C       		.byte	0x1c
 7199 0331 08       		.uleb128 0x8
 7200 0332 7F000000 		.4byte	.LASF70
 7201 0336 05       		.byte	0x5
 7202 0337 74       		.byte	0x74
 7203 0338 B4020000 		.4byte	0x2b4
 7204 033c 28       		.byte	0x28
 7205 033d 00       		.byte	0
 7206 033e 03       		.uleb128 0x3
 7207 033f 79030000 		.4byte	.LASF71
 7208 0343 05       		.byte	0x5
 7209 0344 75       		.byte	0x75
 7210 0345 02030000 		.4byte	0x302
 7211 0349 0E       		.uleb128 0xe
 7212 034a 04       		.byte	0x4
 7213 034b 4F030000 		.4byte	0x34f
 7214 034f 0F       		.uleb128 0xf
 7215 0350 25000000 		.4byte	0x25
 7216 0354 07       		.uleb128 0x7
 7217 0355 90010000 		.4byte	.LASF72
 7218 0359 50       		.byte	0x50
 7219 035a 09       		.byte	0x9
 7220 035b 1E       		.byte	0x1e
 7221 035c 90030000 		.4byte	0x390
 7222 0360 08       		.uleb128 0x8
 7223 0361 1C070000 		.4byte	.LASF73
 7224 0365 09       		.byte	0x9
 7225 0366 1F       		.byte	0x1f
 7226 0367 90000000 		.4byte	0x90
 7227 036b 00       		.byte	0
 7228 036c 08       		.uleb128 0x8
 7229 036d 25070000 		.4byte	.LASF74
 7230 0371 09       		.byte	0x9
 7231 0372 20       		.byte	0x20
 7232 0373 3A010000 		.4byte	0x13a
 7233 0377 04       		.byte	0x4
 7234 0378 08       		.uleb128 0x8
 7235 0379 66000000 		.4byte	.LASF75
 7236 037d 09       		.byte	0x9
 7237 037e 21       		.byte	0x21
 7238 037f 90030000 		.4byte	0x390
 7239 0383 08       		.byte	0x8
 7240 0384 0B       		.uleb128 0xb
 7241 0385 726300   		.ascii	"rc\000"
 7242 0388 09       		.byte	0x9
 7243 0389 22       		.byte	0x22
ARM GAS  C:\Users\rdn\AppData\Local\Temp\cciiQw7C.s 			page 165


 7244 038a A0030000 		.4byte	0x3a0
 7245 038e 10       		.byte	0x10
 7246 038f 00       		.byte	0
 7247 0390 0C       		.uleb128 0xc
 7248 0391 90000000 		.4byte	0x90
 7249 0395 A0030000 		.4byte	0x3a0
 7250 0399 0D       		.uleb128 0xd
 7251 039a 41010000 		.4byte	0x141
 7252 039e 01       		.byte	0x1
 7253 039f 00       		.byte	0
 7254 03a0 0C       		.uleb128 0xc
 7255 03a1 90000000 		.4byte	0x90
 7256 03a5 B6030000 		.4byte	0x3b6
 7257 03a9 0D       		.uleb128 0xd
 7258 03aa 41010000 		.4byte	0x141
 7259 03ae 01       		.byte	0x1
 7260 03af 0D       		.uleb128 0xd
 7261 03b0 41010000 		.4byte	0x141
 7262 03b4 07       		.byte	0x7
 7263 03b5 00       		.byte	0
 7264 03b6 03       		.uleb128 0x3
 7265 03b7 06010000 		.4byte	.LASF76
 7266 03bb 09       		.byte	0x9
 7267 03bc 23       		.byte	0x23
 7268 03bd 54030000 		.4byte	0x354
 7269 03c1 07       		.uleb128 0x7
 7270 03c2 B5050000 		.4byte	.LASF77
 7271 03c6 0C       		.byte	0xc
 7272 03c7 0A       		.byte	0xa
 7273 03c8 21       		.byte	0x21
 7274 03c9 F1030000 		.4byte	0x3f1
 7275 03cd 08       		.uleb128 0x8
 7276 03ce 9D010000 		.4byte	.LASF78
 7277 03d2 0A       		.byte	0xa
 7278 03d3 22       		.byte	0x22
 7279 03d4 90000000 		.4byte	0x90
 7280 03d8 00       		.byte	0
 7281 03d9 0B       		.uleb128 0xb
 7282 03da 6E7100   		.ascii	"nq\000"
 7283 03dd 0A       		.byte	0xa
 7284 03de 22       		.byte	0x22
 7285 03df 90000000 		.4byte	0x90
 7286 03e3 04       		.byte	0x4
 7287 03e4 08       		.uleb128 0x8
 7288 03e5 D7050000 		.4byte	.LASF79
 7289 03e9 0A       		.byte	0xa
 7290 03ea 23       		.byte	0x23
 7291 03eb 3A010000 		.4byte	0x13a
 7292 03ef 08       		.byte	0x8
 7293 03f0 00       		.byte	0
 7294 03f1 03       		.uleb128 0x3
 7295 03f2 A3010000 		.4byte	.LASF80
 7296 03f6 0A       		.byte	0xa
 7297 03f7 24       		.byte	0x24
 7298 03f8 C1030000 		.4byte	0x3c1
 7299 03fc 10       		.uleb128 0x10
 7300 03fd A8030000 		.4byte	.LASF81
ARM GAS  C:\Users\rdn\AppData\Local\Temp\cciiQw7C.s 			page 166


 7301 0401 03       		.byte	0x3
 7302 0402 6D       		.byte	0x6d
 7303 0403 3A010000 		.4byte	0x13a
 7304 0407 03       		.byte	0x3
 7305 0408 17040000 		.4byte	0x417
 7306 040c 11       		.uleb128 0x11
 7307 040d 737200   		.ascii	"sr\000"
 7308 0410 03       		.byte	0x3
 7309 0411 6D       		.byte	0x6d
 7310 0412 F9000000 		.4byte	0xf9
 7311 0416 00       		.byte	0
 7312 0417 10       		.uleb128 0x10
 7313 0418 4F070000 		.4byte	.LASF82
 7314 041c 02       		.byte	0x2
 7315 041d 32       		.byte	0x32
 7316 041e 90000000 		.4byte	0x90
 7317 0422 03       		.byte	0x3
 7318 0423 3C040000 		.4byte	0x43c
 7319 0427 11       		.uleb128 0x11
 7320 0428 647400   		.ascii	"dt\000"
 7321 042b 02       		.byte	0x2
 7322 042c 32       		.byte	0x32
 7323 042d CA000000 		.4byte	0xca
 7324 0431 11       		.uleb128 0x11
 7325 0432 737200   		.ascii	"sr\000"
 7326 0435 02       		.byte	0x2
 7327 0436 32       		.byte	0x32
 7328 0437 F9000000 		.4byte	0xf9
 7329 043b 00       		.byte	0
 7330 043c 10       		.uleb128 0x10
 7331 043d C6010000 		.4byte	.LASF83
 7332 0441 04       		.byte	0x4
 7333 0442 2C       		.byte	0x2c
 7334 0443 25000000 		.4byte	0x25
 7335 0447 03       		.byte	0x3
 7336 0448 86040000 		.4byte	0x486
 7337 044c 11       		.uleb128 0x11
 7338 044d 5F7800   		.ascii	"_x\000"
 7339 0450 04       		.byte	0x4
 7340 0451 2C       		.byte	0x2c
 7341 0452 25000000 		.4byte	0x25
 7342 0456 11       		.uleb128 0x11
 7343 0457 65787000 		.ascii	"exp\000"
 7344 045b 04       		.byte	0x4
 7345 045c 2C       		.byte	0x2c
 7346 045d 90000000 		.4byte	0x90
 7347 0461 12       		.uleb128 0x12
 7348 0462 04       		.byte	0x4
 7349 0463 04       		.byte	0x4
 7350 0464 2D       		.byte	0x2d
 7351 0465 7C040000 		.4byte	0x47c
 7352 0469 13       		.uleb128 0x13
 7353 046a 6600     		.ascii	"f\000"
 7354 046c 04       		.byte	0x4
 7355 046d 2D       		.byte	0x2d
 7356 046e 25000000 		.4byte	0x25
 7357 0472 13       		.uleb128 0x13
ARM GAS  C:\Users\rdn\AppData\Local\Temp\cciiQw7C.s 			page 167


 7358 0473 7300     		.ascii	"s\000"
 7359 0475 04       		.byte	0x4
 7360 0476 2D       		.byte	0x2d
 7361 0477 B4000000 		.4byte	0xb4
 7362 047b 00       		.byte	0
 7363 047c 14       		.uleb128 0x14
 7364 047d 7800     		.ascii	"x\000"
 7365 047f 04       		.byte	0x4
 7366 0480 2D       		.byte	0x2d
 7367 0481 61040000 		.4byte	0x461
 7368 0485 00       		.byte	0
 7369 0486 10       		.uleb128 0x10
 7370 0487 E9000000 		.4byte	.LASF84
 7371 048b 04       		.byte	0x4
 7372 048c A7       		.byte	0xa7
 7373 048d B4000000 		.4byte	0xb4
 7374 0491 03       		.byte	0x3
 7375 0492 6D050000 		.4byte	0x56d
 7376 0496 11       		.uleb128 0x11
 7377 0497 7800     		.ascii	"x\000"
 7378 0499 04       		.byte	0x4
 7379 049a A7       		.byte	0xa7
 7380 049b 25000000 		.4byte	0x25
 7381 049f 15       		.uleb128 0x15
 7382 04a0 7400     		.ascii	"t\000"
 7383 04a2 04       		.byte	0x4
 7384 04a3 AB       		.byte	0xab
 7385 04a4 88050000 		.4byte	0x588
 7386 04a8 80       		.byte	0x80
 7387 04a9 00       		.byte	0
 7388 04aa 00       		.byte	0
 7389 04ab 1B       		.byte	0x1b
 7390 04ac 11       		.byte	0x11
 7391 04ad 1B       		.byte	0x1b
 7392 04ae 11       		.byte	0x11
 7393 04af 98       		.byte	0x98
 7394 04b0 10       		.byte	0x10
 7395 04b1 B3       		.byte	0xb3
 7396 04b2 21       		.byte	0x21
 7397 04b3 1D       		.byte	0x1d
 7398 04b4 10       		.byte	0x10
 7399 04b5 D1       		.byte	0xd1
 7400 04b6 31       		.byte	0x31
 7401 04b7 A9       		.byte	0xa9
 7402 04b8 0F       		.byte	0xf
 7403 04b9 7A       		.byte	0x7a
 7404 04ba 41       		.byte	0x41
 7405 04bb 3B       		.byte	0x3b
 7406 04bc 0F       		.byte	0xf
 7407 04bd B5       		.byte	0xb5
 7408 04be 50       		.byte	0x50
 7409 04bf D3       		.byte	0xd3
 7410 04c0 0E       		.byte	0xe
 7411 04c1 88       		.byte	0x88
 7412 04c2 5F       		.byte	0x5f
 7413 04c3 71       		.byte	0x71
 7414 04c4 0E       		.byte	0xe
ARM GAS  C:\Users\rdn\AppData\Local\Temp\cciiQw7C.s 			page 168


 7415 04c5 F9       		.byte	0xf9
 7416 04c6 6D       		.byte	0x6d
 7417 04c7 13       		.byte	0x13
 7418 04c8 0E       		.byte	0xe
 7419 04c9 0B       		.byte	0xb
 7420 04ca 7C       		.byte	0x7c
 7421 04cb BA       		.byte	0xba
 7422 04cc 0D       		.byte	0xd
 7423 04cd C5       		.byte	0xc5
 7424 04ce 89       		.byte	0x89
 7425 04cf 65       		.byte	0x65
 7426 04d0 0D       		.byte	0xd
 7427 04d1 2B       		.byte	0x2b
 7428 04d2 97       		.byte	0x97
 7429 04d3 15       		.byte	0x15
 7430 04d4 0D       		.byte	0xd
 7431 04d5 3F       		.byte	0x3f
 7432 04d6 A4       		.byte	0xa4
 7433 04d7 C8       		.byte	0xc8
 7434 04d8 0C       		.byte	0xc
 7435 04d9 07       		.byte	0x7
 7436 04da B1       		.byte	0xb1
 7437 04db 7E       		.byte	0x7e
 7438 04dc 0C       		.byte	0xc
 7439 04dd 85       		.byte	0x85
 7440 04de BD       		.byte	0xbd
 7441 04df 38       		.byte	0x38
 7442 04e0 0C       		.byte	0xc
 7443 04e1 BD       		.byte	0xbd
 7444 04e2 C9       		.byte	0xc9
 7445 04e3 F5       		.byte	0xf5
 7446 04e4 0B       		.byte	0xb
 7447 04e5 B1       		.byte	0xb1
 7448 04e6 D5       		.byte	0xd5
 7449 04e7 B4       		.byte	0xb4
 7450 04e8 0B       		.byte	0xb
 7451 04e9 BD       		.byte	0xbd
 7452 04ea 20       		.byte	0x20
 7453 04eb 76       		.byte	0x76
 7454 04ec 0B       		.byte	0xb
 7455 04ed 33       		.byte	0x33
 7456 04ee 2C       		.byte	0x2c
 7457 04ef 3B       		.byte	0x3b
 7458 04f0 0B       		.byte	0xb
 7459 04f1 6E       		.byte	0x6e
 7460 04f2 37       		.byte	0x37
 7461 04f3 02       		.byte	0x2
 7462 04f4 0B       		.byte	0xb
 7463 04f5 70       		.byte	0x70
 7464 04f6 42       		.byte	0x42
 7465 04f7 CB       		.byte	0xcb
 7466 04f8 0A       		.byte	0xa
 7467 04f9 3C       		.byte	0x3c
 7468 04fa 4D       		.byte	0x4d
 7469 04fb 97       		.byte	0x97
 7470 04fc 0A       		.byte	0xa
 7471 04fd D2       		.byte	0xd2
ARM GAS  C:\Users\rdn\AppData\Local\Temp\cciiQw7C.s 			page 169


 7472 04fe 57       		.byte	0x57
 7473 04ff 64       		.byte	0x64
 7474 0500 0A       		.byte	0xa
 7475 0501 36       		.byte	0x36
 7476 0502 62       		.byte	0x62
 7477 0503 33       		.byte	0x33
 7478 0504 0A       		.byte	0xa
 7479 0505 6A       		.byte	0x6a
 7480 0506 6C       		.byte	0x6c
 7481 0507 04       		.byte	0x4
 7482 0508 0A       		.byte	0xa
 7483 0509 6E       		.byte	0x6e
 7484 050a 76       		.byte	0x76
 7485 050b D7       		.byte	0xd7
 7486 050c 09       		.byte	0x9
 7487 050d 45       		.byte	0x45
 7488 050e 80       		.byte	0x80
 7489 050f AB       		.byte	0xab
 7490 0510 09       		.byte	0x9
 7491 0511 F0       		.byte	0xf0
 7492 0512 89       		.byte	0x89
 7493 0513 81       		.byte	0x81
 7494 0514 09       		.byte	0x9
 7495 0515 70       		.byte	0x70
 7496 0516 93       		.byte	0x93
 7497 0517 58       		.byte	0x58
 7498 0518 09       		.byte	0x9
 7499 0519 C8       		.byte	0xc8
 7500 051a 9C       		.byte	0x9c
 7501 051b 30       		.byte	0x30
 7502 051c 09       		.byte	0x9
 7503 051d F9       		.byte	0xf9
 7504 051e A5       		.byte	0xa5
 7505 051f 0A       		.byte	0xa
 7506 0520 09       		.byte	0x9
 7507 0521 03       		.byte	0x3
 7508 0522 AF       		.byte	0xaf
 7509 0523 E5       		.byte	0xe5
 7510 0524 08       		.byte	0x8
 7511 0525 E8       		.byte	0xe8
 7512 0526 B7       		.byte	0xb7
 7513 0527 C1       		.byte	0xc1
 7514 0528 08       		.byte	0x8
 7515 0529 12       		.uleb128 0x12
 7516 052a 04       		.byte	0x4
 7517 052b 04       		.byte	0x4
 7518 052c D0       		.byte	0xd0
 7519 052d 44050000 		.4byte	0x544
 7520 0531 13       		.uleb128 0x13
 7521 0532 6600     		.ascii	"f\000"
 7522 0534 04       		.byte	0x4
 7523 0535 D0       		.byte	0xd0
 7524 0536 25000000 		.4byte	0x25
 7525 053a 13       		.uleb128 0x13
 7526 053b 7500     		.ascii	"u\000"
 7527 053d 04       		.byte	0x4
 7528 053e D0       		.byte	0xd0
ARM GAS  C:\Users\rdn\AppData\Local\Temp\cciiQw7C.s 			page 170


 7529 053f BF000000 		.4byte	0xbf
 7530 0543 00       		.byte	0
 7531 0544 14       		.uleb128 0x14
 7532 0545 783200   		.ascii	"x2\000"
 7533 0548 04       		.byte	0x4
 7534 0549 D0       		.byte	0xd0
 7535 054a 29050000 		.4byte	0x529
 7536 054e 14       		.uleb128 0x14
 7537 054f 653200   		.ascii	"e2\000"
 7538 0552 04       		.byte	0x4
 7539 0553 D2       		.byte	0xd2
 7540 0554 90000000 		.4byte	0x90
 7541 0558 14       		.uleb128 0x14
 7542 0559 686900   		.ascii	"hi\000"
 7543 055c 04       		.byte	0x4
 7544 055d D3       		.byte	0xd3
 7545 055e 90000000 		.4byte	0x90
 7546 0562 14       		.uleb128 0x14
 7547 0563 6C6F00   		.ascii	"lo\000"
 7548 0566 04       		.byte	0x4
 7549 0567 D4       		.byte	0xd4
 7550 0568 90000000 		.4byte	0x90
 7551 056c 00       		.byte	0
 7552 056d 0C       		.uleb128 0xc
 7553 056e 83050000 		.4byte	0x583
 7554 0572 83050000 		.4byte	0x583
 7555 0576 0D       		.uleb128 0xd
 7556 0577 41010000 		.4byte	0x141
 7557 057b 1F       		.byte	0x1f
 7558 057c 0D       		.uleb128 0xd
 7559 057d 41010000 		.4byte	0x141
 7560 0581 01       		.byte	0x1
 7561 0582 00       		.byte	0
 7562 0583 0F       		.uleb128 0xf
 7563 0584 A9000000 		.4byte	0xa9
 7564 0588 0F       		.uleb128 0xf
 7565 0589 6D050000 		.4byte	0x56d
 7566 058d 16       		.uleb128 0x16
 7567 058e 1F030000 		.4byte	.LASF139
 7568 0592 05       		.byte	0x5
 7569 0593 DA       		.byte	0xda
 7570 0594 03       		.byte	0x3
 7571 0595 C2050000 		.4byte	0x5c2
 7572 0599 17       		.uleb128 0x17
 7573 059a 7A040000 		.4byte	.LASF85
 7574 059e 05       		.byte	0x5
 7575 059f DB       		.byte	0xdb
 7576 05a0 C2050000 		.4byte	0x5c2
 7577 05a4 11       		.uleb128 0x11
 7578 05a5 7600     		.ascii	"v\000"
 7579 05a7 05       		.byte	0x5
 7580 05a8 DB       		.byte	0xdb
 7581 05a9 97000000 		.4byte	0x97
 7582 05ad 11       		.uleb128 0x11
 7583 05ae 6E00     		.ascii	"n\000"
 7584 05b0 05       		.byte	0x5
 7585 05b1 DB       		.byte	0xdb
ARM GAS  C:\Users\rdn\AppData\Local\Temp\cciiQw7C.s 			page 171


 7586 05b2 90000000 		.4byte	0x90
 7587 05b6 18       		.uleb128 0x18
 7588 05b7 C1030000 		.4byte	.LASF69
 7589 05bb 05       		.byte	0x5
 7590 05bc DD       		.byte	0xdd
 7591 05bd C8050000 		.4byte	0x5c8
 7592 05c1 00       		.byte	0
 7593 05c2 0E       		.uleb128 0xe
 7594 05c3 04       		.byte	0x4
 7595 05c4 02030000 		.4byte	0x302
 7596 05c8 0E       		.uleb128 0xe
 7597 05c9 04       		.byte	0x4
 7598 05ca 32020000 		.4byte	0x232
 7599 05ce 10       		.uleb128 0x10
 7600 05cf F9000000 		.4byte	.LASF86
 7601 05d3 05       		.byte	0x5
 7602 05d4 F2       		.byte	0xf2
 7603 05d5 97000000 		.4byte	0x97
 7604 05d9 03       		.byte	0x3
 7605 05da 09060000 		.4byte	0x609
 7606 05de 17       		.uleb128 0x17
 7607 05df 7A040000 		.4byte	.LASF85
 7608 05e3 05       		.byte	0x5
 7609 05e4 F2       		.byte	0xf2
 7610 05e5 C2050000 		.4byte	0x5c2
 7611 05e9 11       		.uleb128 0x11
 7612 05ea 6E00     		.ascii	"n\000"
 7613 05ec 05       		.byte	0x5
 7614 05ed F2       		.byte	0xf2
 7615 05ee 90000000 		.4byte	0x90
 7616 05f2 18       		.uleb128 0x18
 7617 05f3 C1030000 		.4byte	.LASF69
 7618 05f7 05       		.byte	0x5
 7619 05f8 F4       		.byte	0xf4
 7620 05f9 C8050000 		.4byte	0x5c8
 7621 05fd 19       		.uleb128 0x19
 7622 05fe 14       		.uleb128 0x14
 7623 05ff 7600     		.ascii	"v\000"
 7624 0601 05       		.byte	0x5
 7625 0602 F7       		.byte	0xf7
 7626 0603 90000000 		.4byte	0x90
 7627 0607 00       		.byte	0
 7628 0608 00       		.byte	0
 7629 0609 1A       		.uleb128 0x1a
 7630 060a BF000000 		.4byte	.LASF90
 7631 060e 01       		.byte	0x1
 7632 060f 21       		.byte	0x21
 7633 0610 90000000 		.4byte	0x90
 7634 0614 00000000 		.4byte	.LFB20
 7635 0618 3A000000 		.4byte	.LFE20-.LFB20
 7636 061c 01       		.uleb128 0x1
 7637 061d 9C       		.byte	0x9c
 7638 061e 5E060000 		.4byte	0x65e
 7639 0622 1B       		.uleb128 0x1b
 7640 0623 737200   		.ascii	"sr\000"
 7641 0626 01       		.byte	0x1
 7642 0627 21       		.byte	0x21
ARM GAS  C:\Users\rdn\AppData\Local\Temp\cciiQw7C.s 			page 172


 7643 0628 F9000000 		.4byte	0xf9
 7644 062c 00000000 		.4byte	.LLST0
 7645 0630 1C       		.uleb128 0x1c
 7646 0631 22050000 		.4byte	.LASF87
 7647 0635 01       		.byte	0x1
 7648 0636 21       		.byte	0x21
 7649 0637 90000000 		.4byte	0x90
 7650 063b 21000000 		.4byte	.LLST1
 7651 063f 1D       		.uleb128 0x1d
 7652 0640 48010000 		.4byte	.LASF88
 7653 0644 01       		.byte	0x1
 7654 0645 23       		.byte	0x23
 7655 0646 90000000 		.4byte	0x90
 7656 064a 42000000 		.4byte	.LLST2
 7657 064e 1D       		.uleb128 0x1d
 7658 064f 62060000 		.4byte	.LASF89
 7659 0653 01       		.byte	0x1
 7660 0654 25       		.byte	0x25
 7661 0655 90000000 		.4byte	0x90
 7662 0659 62000000 		.4byte	.LLST3
 7663 065d 00       		.byte	0
 7664 065e 1A       		.uleb128 0x1a
 7665 065f 71060000 		.4byte	.LASF91
 7666 0663 01       		.byte	0x1
 7667 0664 2F       		.byte	0x2f
 7668 0665 25000000 		.4byte	0x25
 7669 0669 00000000 		.4byte	.LFB21
 7670 066d 3C000000 		.4byte	.LFE21-.LFB21
 7671 0671 01       		.uleb128 0x1
 7672 0672 9C       		.byte	0x9c
 7673 0673 A5060000 		.4byte	0x6a5
 7674 0677 1C       		.uleb128 0x1c
 7675 0678 D4070000 		.4byte	.LASF92
 7676 067c 01       		.byte	0x1
 7677 067d 2F       		.byte	0x2f
 7678 067e 90000000 		.4byte	0x90
 7679 0682 75000000 		.4byte	.LLST4
 7680 0686 1E       		.uleb128 0x1e
 7681 0687 59060000 		.4byte	.LASF93
 7682 068b 01       		.byte	0x1
 7683 068c 34       		.byte	0x34
 7684 068d B5060000 		.4byte	0x6b5
 7685 0691 05       		.uleb128 0x5
 7686 0692 03       		.byte	0x3
 7687 0693 00000000 		.4byte	iq_table.5644
 7688 0697 1F       		.uleb128 0x1f
 7689 0698 6700     		.ascii	"g\000"
 7690 069a 01       		.byte	0x1
 7691 069b 3E       		.byte	0x3e
 7692 069c 25000000 		.4byte	0x25
 7693 06a0 93000000 		.4byte	.LLST5
 7694 06a4 00       		.byte	0
 7695 06a5 0C       		.uleb128 0xc
 7696 06a6 4F030000 		.4byte	0x34f
 7697 06aa B5060000 		.4byte	0x6b5
 7698 06ae 0D       		.uleb128 0xd
 7699 06af 41010000 		.4byte	0x141
ARM GAS  C:\Users\rdn\AppData\Local\Temp\cciiQw7C.s 			page 173


 7700 06b3 1B       		.byte	0x1b
 7701 06b4 00       		.byte	0
 7702 06b5 0F       		.uleb128 0xf
 7703 06b6 A5060000 		.4byte	0x6a5
 7704 06ba 1A       		.uleb128 0x1a
 7705 06bb 68070000 		.4byte	.LASF94
 7706 06bf 01       		.byte	0x1
 7707 06c0 C5       		.byte	0xc5
 7708 06c1 90000000 		.4byte	0x90
 7709 06c5 00000000 		.4byte	.LFB23
 7710 06c9 1C010000 		.4byte	.LFE23-.LFB23
 7711 06cd 01       		.uleb128 0x1
 7712 06ce 9C       		.byte	0x9c
 7713 06cf CC070000 		.4byte	0x7cc
 7714 06d3 1B       		.uleb128 0x1b
 7715 06d4 647400   		.ascii	"dt\000"
 7716 06d7 01       		.byte	0x1
 7717 06d8 C6       		.byte	0xc6
 7718 06d9 CA000000 		.4byte	0xca
 7719 06dd CC000000 		.4byte	.LLST6
 7720 06e1 1B       		.uleb128 0x1b
 7721 06e2 737200   		.ascii	"sr\000"
 7722 06e5 01       		.byte	0x1
 7723 06e6 C6       		.byte	0xc6
 7724 06e7 F9000000 		.4byte	0xf9
 7725 06eb ED000000 		.4byte	.LLST7
 7726 06ef 1C       		.uleb128 0x1c
 7727 06f0 9D010000 		.4byte	.LASF78
 7728 06f4 01       		.byte	0x1
 7729 06f5 C7       		.byte	0xc7
 7730 06f6 90000000 		.4byte	0x90
 7731 06fa 0E010000 		.4byte	.LLST8
 7732 06fe 1C       		.uleb128 0x1c
 7733 06ff FB040000 		.4byte	.LASF95
 7734 0703 01       		.byte	0x1
 7735 0704 C7       		.byte	0xc7
 7736 0705 90000000 		.4byte	0x90
 7737 0709 3A010000 		.4byte	.LLST9
 7738 070d 20       		.uleb128 0x20
 7739 070e B3040000 		.4byte	.LASF96
 7740 0712 01       		.byte	0x1
 7741 0713 C7       		.byte	0xc7
 7742 0714 90000000 		.4byte	0x90
 7743 0718 02       		.uleb128 0x2
 7744 0719 91       		.byte	0x91
 7745 071a 00       		.sleb128 0
 7746 071b 20       		.uleb128 0x20
 7747 071c 6F030000 		.4byte	.LASF97
 7748 0720 01       		.byte	0x1
 7749 0721 C7       		.byte	0xc7
 7750 0722 90000000 		.4byte	0x90
 7751 0726 02       		.uleb128 0x2
 7752 0727 91       		.byte	0x91
 7753 0728 04       		.sleb128 4
 7754 0729 1F       		.uleb128 0x1f
 7755 072a 7400     		.ascii	"t\000"
 7756 072c 01       		.byte	0x1
ARM GAS  C:\Users\rdn\AppData\Local\Temp\cciiQw7C.s 			page 174


 7757 072d CB       		.byte	0xcb
 7758 072e CC070000 		.4byte	0x7cc
 7759 0732 7C010000 		.4byte	.LLST10
 7760 0736 1D       		.uleb128 0x1d
 7761 0737 5B080000 		.4byte	.LASF98
 7762 073b 01       		.byte	0x1
 7763 073c D1       		.byte	0xd1
 7764 073d 90000000 		.4byte	0x90
 7765 0741 CE010000 		.4byte	.LLST11
 7766 0745 1F       		.uleb128 0x1f
 7767 0746 64656E00 		.ascii	"den\000"
 7768 074a 01       		.byte	0x1
 7769 074b D1       		.byte	0xd1
 7770 074c 90000000 		.4byte	0x90
 7771 0750 7B020000 		.4byte	.LLST12
 7772 0754 21       		.uleb128 0x21
 7773 0755 40000000 		.4byte	.LBB101
 7774 0759 22000000 		.4byte	.LBE101-.LBB101
 7775 075d 7F070000 		.4byte	0x77f
 7776 0761 1F       		.uleb128 0x1f
 7777 0762 6E3000   		.ascii	"n0\000"
 7778 0765 01       		.byte	0x1
 7779 0766 D7       		.byte	0xd7
 7780 0767 90000000 		.4byte	0x90
 7781 076b B3020000 		.4byte	.LLST13
 7782 076f 1D       		.uleb128 0x1d
 7783 0770 3A050000 		.4byte	.LASF54
 7784 0774 01       		.byte	0x1
 7785 0775 D7       		.byte	0xd7
 7786 0776 90000000 		.4byte	0x90
 7787 077a F8020000 		.4byte	.LLST14
 7788 077e 00       		.byte	0
 7789 077f 21       		.uleb128 0x21
 7790 0780 84000000 		.4byte	.LBB102
 7791 0784 36000000 		.4byte	.LBE102-.LBB102
 7792 0788 AB070000 		.4byte	0x7ab
 7793 078c 1D       		.uleb128 0x1d
 7794 078d 3F090000 		.4byte	.LASF99
 7795 0791 01       		.byte	0x1
 7796 0792 E4       		.byte	0xe4
 7797 0793 90000000 		.4byte	0x90
 7798 0797 29030000 		.4byte	.LLST15
 7799 079b 1D       		.uleb128 0x1d
 7800 079c 94050000 		.4byte	.LASF100
 7801 07a0 01       		.byte	0x1
 7802 07a1 E7       		.byte	0xe7
 7803 07a2 90000000 		.4byte	0x90
 7804 07a6 3C030000 		.4byte	.LLST16
 7805 07aa 00       		.byte	0
 7806 07ab 22       		.uleb128 0x22
 7807 07ac 1C000000 		.4byte	.LVL22
 7808 07b0 50330000 		.4byte	0x3350
 7809 07b4 23       		.uleb128 0x23
 7810 07b5 01       		.uleb128 0x1
 7811 07b6 50       		.byte	0x50
 7812 07b7 03       		.uleb128 0x3
 7813 07b8 91       		.byte	0x91
ARM GAS  C:\Users\rdn\AppData\Local\Temp\cciiQw7C.s 			page 175


 7814 07b9 947F     		.sleb128 -108
 7815 07bb 23       		.uleb128 0x23
 7816 07bc 01       		.uleb128 0x1
 7817 07bd 51       		.byte	0x51
 7818 07be 05       		.uleb128 0x5
 7819 07bf 03       		.byte	0x3
 7820 07c0 70000000 		.4byte	.LANCHOR0+112
 7821 07c4 23       		.uleb128 0x23
 7822 07c5 01       		.uleb128 0x1
 7823 07c6 52       		.byte	0x52
 7824 07c7 02       		.uleb128 0x2
 7825 07c8 08       		.byte	0x8
 7826 07c9 54       		.byte	0x54
 7827 07ca 00       		.byte	0
 7828 07cb 00       		.byte	0
 7829 07cc 0E       		.uleb128 0xe
 7830 07cd 04       		.byte	0x4
 7831 07ce D2070000 		.4byte	0x7d2
 7832 07d2 0F       		.uleb128 0xf
 7833 07d3 90000000 		.4byte	0x90
 7834 07d7 24       		.uleb128 0x24
 7835 07d8 DD060000 		.4byte	.LASF118
 7836 07dc 01       		.byte	0x1
 7837 07dd FB       		.byte	0xfb
 7838 07de 00000000 		.4byte	.LFB24
 7839 07e2 B0000000 		.4byte	.LFE24-.LFB24
 7840 07e6 01       		.uleb128 0x1
 7841 07e7 9C       		.byte	0x9c
 7842 07e8 B8080000 		.4byte	0x8b8
 7843 07ec 1B       		.uleb128 0x1b
 7844 07ed 647400   		.ascii	"dt\000"
 7845 07f0 01       		.byte	0x1
 7846 07f1 FC       		.byte	0xfc
 7847 07f2 CA000000 		.4byte	0xca
 7848 07f6 4F030000 		.4byte	.LLST17
 7849 07fa 1B       		.uleb128 0x1b
 7850 07fb 737200   		.ascii	"sr\000"
 7851 07fe 01       		.byte	0x1
 7852 07ff FC       		.byte	0xfc
 7853 0800 F9000000 		.4byte	0xf9
 7854 0804 70030000 		.4byte	.LLST18
 7855 0808 1C       		.uleb128 0x1c
 7856 0809 D4070000 		.4byte	.LASF92
 7857 080d 01       		.byte	0x1
 7858 080e FC       		.byte	0xfc
 7859 080f 90000000 		.4byte	0x90
 7860 0813 91030000 		.4byte	.LLST19
 7861 0817 1B       		.uleb128 0x1b
 7862 0818 7800     		.ascii	"x\000"
 7863 081a 01       		.byte	0x1
 7864 081b FC       		.byte	0xfc
 7865 081c B8080000 		.4byte	0x8b8
 7866 0820 B2030000 		.4byte	.LLST20
 7867 0824 25       		.uleb128 0x25
 7868 0825 6E00     		.ascii	"n\000"
 7869 0827 01       		.byte	0x1
 7870 0828 FC       		.byte	0xfc
ARM GAS  C:\Users\rdn\AppData\Local\Temp\cciiQw7C.s 			page 176


 7871 0829 BE080000 		.4byte	0x8be
 7872 082d 02       		.uleb128 0x2
 7873 082e 91       		.byte	0x91
 7874 082f 00       		.sleb128 0
 7875 0830 1D       		.uleb128 0x1d
 7876 0831 DA070000 		.4byte	.LASF101
 7877 0835 01       		.byte	0x1
 7878 0836 FE       		.byte	0xfe
 7879 0837 25000000 		.4byte	0x25
 7880 083b DE030000 		.4byte	.LLST21
 7881 083f 14       		.uleb128 0x14
 7882 0840 6E6500   		.ascii	"ne\000"
 7883 0843 01       		.byte	0x1
 7884 0844 FF       		.byte	0xff
 7885 0845 90000000 		.4byte	0x90
 7886 0849 26       		.uleb128 0x26
 7887 084a 17040000 		.4byte	0x417
 7888 084e 1E000000 		.4byte	.LBB103
 7889 0852 0E000000 		.4byte	.LBE103-.LBB103
 7890 0856 01       		.byte	0x1
 7891 0857 FF       		.byte	0xff
 7892 0858 6F080000 		.4byte	0x86f
 7893 085c 27       		.uleb128 0x27
 7894 085d 31040000 		.4byte	0x431
 7895 0861 09040000 		.4byte	.LLST22
 7896 0865 27       		.uleb128 0x27
 7897 0866 27040000 		.4byte	0x427
 7898 086a 1C040000 		.4byte	.LLST23
 7899 086e 00       		.byte	0
 7900 086f 21       		.uleb128 0x21
 7901 0870 2E000000 		.4byte	.LBB105
 7902 0874 6C000000 		.4byte	.LBE105-.LBB105
 7903 0878 A5080000 		.4byte	0x8a5
 7904 087c 28       		.uleb128 0x28
 7905 087d 6900     		.ascii	"i\000"
 7906 087f 01       		.byte	0x1
 7907 0880 0301     		.2byte	0x103
 7908 0882 90000000 		.4byte	0x90
 7909 0886 2F040000 		.4byte	.LLST24
 7910 088a 29       		.uleb128 0x29
 7911 088b 32000000 		.4byte	.LBB106
 7912 088f 62000000 		.4byte	.LBE106-.LBB106
 7913 0893 2A       		.uleb128 0x2a
 7914 0894 0A070000 		.4byte	.LASF102
 7915 0898 01       		.byte	0x1
 7916 0899 0401     		.2byte	0x104
 7917 089b 25000000 		.4byte	0x25
 7918 089f 4E040000 		.4byte	.LLST25
 7919 08a3 00       		.byte	0
 7920 08a4 00       		.byte	0
 7921 08a5 22       		.uleb128 0x22
 7922 08a6 1C000000 		.4byte	.LVL62
 7923 08aa 5E060000 		.4byte	0x65e
 7924 08ae 23       		.uleb128 0x23
 7925 08af 01       		.uleb128 0x1
 7926 08b0 50       		.byte	0x50
 7927 08b1 04       		.uleb128 0x4
ARM GAS  C:\Users\rdn\AppData\Local\Temp\cciiQw7C.s 			page 177


 7928 08b2 F3       		.byte	0xf3
 7929 08b3 01       		.uleb128 0x1
 7930 08b4 52       		.byte	0x52
 7931 08b5 1F       		.byte	0x1f
 7932 08b6 00       		.byte	0
 7933 08b7 00       		.byte	0
 7934 08b8 0E       		.uleb128 0xe
 7935 08b9 04       		.byte	0x4
 7936 08ba 25000000 		.4byte	0x25
 7937 08be 0E       		.uleb128 0xe
 7938 08bf 04       		.byte	0x4
 7939 08c0 90000000 		.4byte	0x90
 7940 08c4 2B       		.uleb128 0x2b
 7941 08c5 37080000 		.4byte	.LASF103
 7942 08c9 01       		.byte	0x1
 7943 08ca 1501     		.2byte	0x115
 7944 08cc 25000000 		.4byte	0x25
 7945 08d0 00000000 		.4byte	.LFB25
 7946 08d4 5C000000 		.4byte	.LFE25-.LFB25
 7947 08d8 01       		.uleb128 0x1
 7948 08d9 9C       		.byte	0x9c
 7949 08da 88090000 		.4byte	0x988
 7950 08de 2C       		.uleb128 0x2c
 7951 08df 647400   		.ascii	"dt\000"
 7952 08e2 01       		.byte	0x1
 7953 08e3 1601     		.2byte	0x116
 7954 08e5 CA000000 		.4byte	0xca
 7955 08e9 62040000 		.4byte	.LLST26
 7956 08ed 2C       		.uleb128 0x2c
 7957 08ee 737200   		.ascii	"sr\000"
 7958 08f1 01       		.byte	0x1
 7959 08f2 1601     		.2byte	0x116
 7960 08f4 F9000000 		.4byte	0xf9
 7961 08f8 83040000 		.4byte	.LLST27
 7962 08fc 2D       		.uleb128 0x2d
 7963 08fd D4070000 		.4byte	.LASF92
 7964 0901 01       		.byte	0x1
 7965 0902 1701     		.2byte	0x117
 7966 0904 90000000 		.4byte	0x90
 7967 0908 A4040000 		.4byte	.LLST28
 7968 090c 2C       		.uleb128 0x2c
 7969 090d 7800     		.ascii	"x\000"
 7970 090f 01       		.byte	0x1
 7971 0910 1701     		.2byte	0x117
 7972 0912 B8080000 		.4byte	0x8b8
 7973 0916 C5040000 		.4byte	.LLST29
 7974 091a 2E       		.uleb128 0x2e
 7975 091b 6E7100   		.ascii	"nq\000"
 7976 091e 01       		.byte	0x1
 7977 091f 1701     		.2byte	0x117
 7978 0921 90000000 		.4byte	0x90
 7979 0925 02       		.uleb128 0x2
 7980 0926 91       		.byte	0x91
 7981 0927 00       		.sleb128 0
 7982 0928 28       		.uleb128 0x28
 7983 0929 6700     		.ascii	"g\000"
 7984 092b 01       		.byte	0x1
ARM GAS  C:\Users\rdn\AppData\Local\Temp\cciiQw7C.s 			page 178


 7985 092c 1901     		.2byte	0x119
 7986 092e 25000000 		.4byte	0x25
 7987 0932 F1040000 		.4byte	.LLST30
 7988 0936 28       		.uleb128 0x28
 7989 0937 6900     		.ascii	"i\000"
 7990 0939 01       		.byte	0x1
 7991 093a 1A01     		.2byte	0x11a
 7992 093c 90000000 		.4byte	0x90
 7993 0940 10050000 		.4byte	.LLST31
 7994 0944 2F       		.uleb128 0x2f
 7995 0945 6E6500   		.ascii	"ne\000"
 7996 0948 01       		.byte	0x1
 7997 0949 1A01     		.2byte	0x11a
 7998 094b 90000000 		.4byte	0x90
 7999 094f 30       		.uleb128 0x30
 8000 0950 17040000 		.4byte	0x417
 8001 0954 1A000000 		.4byte	.LBB107
 8002 0958 0C000000 		.4byte	.LBE107-.LBB107
 8003 095c 01       		.byte	0x1
 8004 095d 1A01     		.2byte	0x11a
 8005 095f 76090000 		.4byte	0x976
 8006 0963 27       		.uleb128 0x27
 8007 0964 31040000 		.4byte	0x431
 8008 0968 2F050000 		.4byte	.LLST32
 8009 096c 27       		.uleb128 0x27
 8010 096d 27040000 		.4byte	0x427
 8011 0971 42050000 		.4byte	.LLST33
 8012 0975 00       		.byte	0
 8013 0976 22       		.uleb128 0x22
 8014 0977 18000000 		.4byte	.LVL80
 8015 097b 5E060000 		.4byte	0x65e
 8016 097f 23       		.uleb128 0x23
 8017 0980 01       		.uleb128 0x1
 8018 0981 50       		.byte	0x50
 8019 0982 03       		.uleb128 0x3
 8020 0983 F3       		.byte	0xf3
 8021 0984 01       		.uleb128 0x1
 8022 0985 52       		.byte	0x52
 8023 0986 00       		.byte	0
 8024 0987 00       		.byte	0
 8025 0988 31       		.uleb128 0x31
 8026 0989 0F060000 		.4byte	.LASF104
 8027 098d 01       		.byte	0x1
 8028 098e 3001     		.2byte	0x130
 8029 0990 3A010000 		.4byte	0x13a
 8030 0994 00000000 		.4byte	.LFB26
 8031 0998 48000000 		.4byte	.LFE26-.LFB26
 8032 099c 01       		.uleb128 0x1
 8033 099d 9C       		.byte	0x9c
 8034 099e E0090000 		.4byte	0x9e0
 8035 09a2 2C       		.uleb128 0x2c
 8036 09a3 737200   		.ascii	"sr\000"
 8037 09a6 01       		.byte	0x1
 8038 09a7 3001     		.2byte	0x130
 8039 09a9 F9000000 		.4byte	0xf9
 8040 09ad 55050000 		.4byte	.LLST34
 8041 09b1 32       		.uleb128 0x32
ARM GAS  C:\Users\rdn\AppData\Local\Temp\cciiQw7C.s 			page 179


 8042 09b2 22050000 		.4byte	.LASF87
 8043 09b6 01       		.byte	0x1
 8044 09b7 3001     		.2byte	0x130
 8045 09b9 90000000 		.4byte	0x90
 8046 09bd 01       		.uleb128 0x1
 8047 09be 51       		.byte	0x51
 8048 09bf 2D       		.uleb128 0x2d
 8049 09c0 84020000 		.4byte	.LASF105
 8050 09c4 01       		.byte	0x1
 8051 09c5 3001     		.2byte	0x130
 8052 09c7 E0090000 		.4byte	0x9e0
 8053 09cb A8050000 		.4byte	.LLST35
 8054 09cf 2A       		.uleb128 0x2a
 8055 09d0 48010000 		.4byte	.LASF88
 8056 09d4 01       		.byte	0x1
 8057 09d5 3201     		.2byte	0x132
 8058 09d7 90000000 		.4byte	0x90
 8059 09db C9050000 		.4byte	.LLST36
 8060 09df 00       		.byte	0
 8061 09e0 0E       		.uleb128 0xe
 8062 09e1 04       		.byte	0x4
 8063 09e2 3A010000 		.4byte	0x13a
 8064 09e6 2B       		.uleb128 0x2b
 8065 09e7 31090000 		.4byte	.LASF106
 8066 09eb 01       		.byte	0x1
 8067 09ec 4301     		.2byte	0x143
 8068 09ee 90000000 		.4byte	0x90
 8069 09f2 00000000 		.4byte	.LFB27
 8070 09f6 70020000 		.4byte	.LFE27-.LFB27
 8071 09fa 01       		.uleb128 0x1
 8072 09fb 9C       		.byte	0x9c
 8073 09fc D70B0000 		.4byte	0xbd7
 8074 0a00 2C       		.uleb128 0x2c
 8075 0a01 647400   		.ascii	"dt\000"
 8076 0a04 01       		.byte	0x1
 8077 0a05 4401     		.2byte	0x144
 8078 0a07 CA000000 		.4byte	0xca
 8079 0a0b E9050000 		.4byte	.LLST37
 8080 0a0f 2C       		.uleb128 0x2c
 8081 0a10 737200   		.ascii	"sr\000"
 8082 0a13 01       		.byte	0x1
 8083 0a14 4401     		.2byte	0x144
 8084 0a16 F9000000 		.4byte	0xf9
 8085 0a1a 0A060000 		.4byte	.LLST38
 8086 0a1e 2D       		.uleb128 0x2d
 8087 0a1f 22050000 		.4byte	.LASF87
 8088 0a23 01       		.byte	0x1
 8089 0a24 4401     		.2byte	0x144
 8090 0a26 90000000 		.4byte	0x90
 8091 0a2a 2B060000 		.4byte	.LLST39
 8092 0a2e 2C       		.uleb128 0x2c
 8093 0a2f 7800     		.ascii	"x\000"
 8094 0a31 01       		.byte	0x1
 8095 0a32 4501     		.2byte	0x145
 8096 0a34 49030000 		.4byte	0x349
 8097 0a38 57060000 		.4byte	.LLST40
 8098 0a3c 2E       		.uleb128 0x2e
ARM GAS  C:\Users\rdn\AppData\Local\Temp\cciiQw7C.s 			page 180


 8099 0a3d 6E00     		.ascii	"n\000"
 8100 0a3f 01       		.byte	0x1
 8101 0a40 4501     		.2byte	0x145
 8102 0a42 BE080000 		.4byte	0x8be
 8103 0a46 02       		.uleb128 0x2
 8104 0a47 91       		.byte	0x91
 8105 0a48 00       		.sleb128 0
 8106 0a49 2D       		.uleb128 0x2d
 8107 0a4a B3040000 		.4byte	.LASF96
 8108 0a4e 01       		.byte	0x1
 8109 0a4f 4501     		.2byte	0x145
 8110 0a51 90000000 		.4byte	0x90
 8111 0a55 82060000 		.4byte	.LLST41
 8112 0a59 32       		.uleb128 0x32
 8113 0a5a 84020000 		.4byte	.LASF105
 8114 0a5e 01       		.byte	0x1
 8115 0a5f 4501     		.2byte	0x145
 8116 0a61 E0090000 		.4byte	0x9e0
 8117 0a65 02       		.uleb128 0x2
 8118 0a66 91       		.byte	0x91
 8119 0a67 08       		.sleb128 8
 8120 0a68 33       		.uleb128 0x33
 8121 0a69 D7050000 		.4byte	.LASF79
 8122 0a6d 01       		.byte	0x1
 8123 0a6e 4701     		.2byte	0x147
 8124 0a70 3A010000 		.4byte	0x13a
 8125 0a74 02       		.uleb128 0x2
 8126 0a75 91       		.byte	0x91
 8127 0a76 57       		.sleb128 -41
 8128 0a77 2A       		.uleb128 0x2a
 8129 0a78 BE020000 		.4byte	.LASF107
 8130 0a7c 01       		.byte	0x1
 8131 0a7d 4701     		.2byte	0x147
 8132 0a7f 3A010000 		.4byte	0x13a
 8133 0a83 A3060000 		.4byte	.LLST42
 8134 0a87 2F       		.uleb128 0x2f
 8135 0a88 6E6500   		.ascii	"ne\000"
 8136 0a8b 01       		.byte	0x1
 8137 0a8c 4801     		.2byte	0x148
 8138 0a8e 90000000 		.4byte	0x90
 8139 0a92 2A       		.uleb128 0x2a
 8140 0a93 FB040000 		.4byte	.LASF95
 8141 0a97 01       		.byte	0x1
 8142 0a98 4C01     		.2byte	0x14c
 8143 0a9a 90000000 		.4byte	0x90
 8144 0a9e C2060000 		.4byte	.LLST43
 8145 0aa2 2A       		.uleb128 0x2a
 8146 0aa3 7B010000 		.4byte	.LASF108
 8147 0aa7 01       		.byte	0x1
 8148 0aa8 4C01     		.2byte	0x14c
 8149 0aaa 90000000 		.4byte	0x90
 8150 0aae F7060000 		.4byte	.LLST44
 8151 0ab2 2A       		.uleb128 0x2a
 8152 0ab3 09080000 		.4byte	.LASF109
 8153 0ab7 01       		.byte	0x1
 8154 0ab8 4D01     		.2byte	0x14d
 8155 0aba 9E000000 		.4byte	0x9e
ARM GAS  C:\Users\rdn\AppData\Local\Temp\cciiQw7C.s 			page 181


 8156 0abe 2E070000 		.4byte	.LLST45
 8157 0ac2 2A       		.uleb128 0x2a
 8158 0ac3 7A020000 		.4byte	.LASF110
 8159 0ac7 01       		.byte	0x1
 8160 0ac8 4F01     		.2byte	0x14f
 8161 0aca 90000000 		.4byte	0x90
 8162 0ace 63070000 		.4byte	.LLST46
 8163 0ad2 2A       		.uleb128 0x2a
 8164 0ad3 7E070000 		.4byte	.LASF111
 8165 0ad7 01       		.byte	0x1
 8166 0ad8 5001     		.2byte	0x150
 8167 0ada 90000000 		.4byte	0x90
 8168 0ade B1070000 		.4byte	.LLST47
 8169 0ae2 30       		.uleb128 0x30
 8170 0ae3 17040000 		.4byte	0x417
 8171 0ae7 28000000 		.4byte	.LBB109
 8172 0aeb 0C000000 		.4byte	.LBE109-.LBB109
 8173 0aef 01       		.byte	0x1
 8174 0af0 4801     		.2byte	0x148
 8175 0af2 090B0000 		.4byte	0xb09
 8176 0af6 27       		.uleb128 0x27
 8177 0af7 31040000 		.4byte	0x431
 8178 0afb FF070000 		.4byte	.LLST48
 8179 0aff 27       		.uleb128 0x27
 8180 0b00 27040000 		.4byte	0x427
 8181 0b04 12080000 		.4byte	.LLST49
 8182 0b08 00       		.byte	0
 8183 0b09 34       		.uleb128 0x34
 8184 0b0a 00000000 		.4byte	.Ldebug_ranges0+0
 8185 0b0e B90B0000 		.4byte	0xbb9
 8186 0b12 28       		.uleb128 0x28
 8187 0b13 6900     		.ascii	"i\000"
 8188 0b15 01       		.byte	0x1
 8189 0b16 5401     		.2byte	0x154
 8190 0b18 90000000 		.4byte	0x90
 8191 0b1c 25080000 		.4byte	.LLST50
 8192 0b20 28       		.uleb128 0x28
 8193 0b21 6800     		.ascii	"h\000"
 8194 0b23 01       		.byte	0x1
 8195 0b24 5401     		.2byte	0x154
 8196 0b26 90000000 		.4byte	0x90
 8197 0b2a 44080000 		.4byte	.LLST51
 8198 0b2e 29       		.uleb128 0x29
 8199 0b2f 5A000000 		.4byte	.LBB112
 8200 0b33 86010000 		.4byte	.LBE112-.LBB112
 8201 0b37 2A       		.uleb128 0x2a
 8202 0b38 E6060000 		.4byte	.LASF112
 8203 0b3c 01       		.byte	0x1
 8204 0b3d 5501     		.2byte	0x155
 8205 0b3f E70B0000 		.4byte	0xbe7
 8206 0b43 70080000 		.4byte	.LLST52
 8207 0b47 29       		.uleb128 0x29
 8208 0b48 70000000 		.4byte	.LBB113
 8209 0b4c 4A010000 		.4byte	.LBE113-.LBB113
 8210 0b50 2A       		.uleb128 0x2a
 8211 0b51 61030000 		.4byte	.LASF113
 8212 0b55 01       		.byte	0x1
ARM GAS  C:\Users\rdn\AppData\Local\Temp\cciiQw7C.s 			page 182


 8213 0b56 5A01     		.2byte	0x15a
 8214 0b58 25000000 		.4byte	0x25
 8215 0b5c 90080000 		.4byte	.LLST53
 8216 0b60 28       		.uleb128 0x28
 8217 0b61 6100     		.ascii	"a\000"
 8218 0b63 01       		.byte	0x1
 8219 0b64 5B01     		.2byte	0x15b
 8220 0b66 BF000000 		.4byte	0xbf
 8221 0b6a A3080000 		.4byte	.LLST54
 8222 0b6e 28       		.uleb128 0x28
 8223 0b6f 6200     		.ascii	"b\000"
 8224 0b71 01       		.byte	0x1
 8225 0b72 5C01     		.2byte	0x15c
 8226 0b74 BF000000 		.4byte	0xbf
 8227 0b78 2E090000 		.4byte	.LLST55
 8228 0b7c 28       		.uleb128 0x28
 8229 0b7d 6C757400 		.ascii	"lut\000"
 8230 0b81 01       		.byte	0x1
 8231 0b82 5E01     		.2byte	0x15e
 8232 0b84 F1020000 		.4byte	0x2f1
 8233 0b88 4C090000 		.4byte	.LLST56
 8234 0b8c 28       		.uleb128 0x28
 8235 0b8d 7300     		.ascii	"s\000"
 8236 0b8f 01       		.byte	0x1
 8237 0b90 6201     		.2byte	0x162
 8238 0b92 90000000 		.4byte	0x90
 8239 0b96 73090000 		.4byte	.LLST57
 8240 0b9a 28       		.uleb128 0x28
 8241 0b9b 6D00     		.ascii	"m\000"
 8242 0b9d 01       		.byte	0x1
 8243 0b9e 6B01     		.2byte	0x16b
 8244 0ba0 BF000000 		.4byte	0xbf
 8245 0ba4 93090000 		.4byte	.LLST58
 8246 0ba8 28       		.uleb128 0x28
 8247 0ba9 6B00     		.ascii	"k\000"
 8248 0bab 01       		.byte	0x1
 8249 0bac 6C01     		.2byte	0x16c
 8250 0bae 97000000 		.4byte	0x97
 8251 0bb2 ED090000 		.4byte	.LLST59
 8252 0bb6 00       		.byte	0
 8253 0bb7 00       		.byte	0
 8254 0bb8 00       		.byte	0
 8255 0bb9 22       		.uleb128 0x22
 8256 0bba 26000000 		.4byte	.LVL106
 8257 0bbe 88090000 		.4byte	0x988
 8258 0bc2 23       		.uleb128 0x23
 8259 0bc3 01       		.uleb128 0x1
 8260 0bc4 50       		.byte	0x50
 8261 0bc5 02       		.uleb128 0x2
 8262 0bc6 75       		.byte	0x75
 8263 0bc7 00       		.sleb128 0
 8264 0bc8 23       		.uleb128 0x23
 8265 0bc9 01       		.uleb128 0x1
 8266 0bca 51       		.byte	0x51
 8267 0bcb 03       		.uleb128 0x3
 8268 0bcc F3       		.byte	0xf3
 8269 0bcd 01       		.uleb128 0x1
ARM GAS  C:\Users\rdn\AppData\Local\Temp\cciiQw7C.s 			page 183


 8270 0bce 52       		.byte	0x52
 8271 0bcf 23       		.uleb128 0x23
 8272 0bd0 01       		.uleb128 0x1
 8273 0bd1 52       		.byte	0x52
 8274 0bd2 02       		.uleb128 0x2
 8275 0bd3 91       		.byte	0x91
 8276 0bd4 57       		.sleb128 -41
 8277 0bd5 00       		.byte	0
 8278 0bd6 00       		.byte	0
 8279 0bd7 0C       		.uleb128 0xc
 8280 0bd8 F7020000 		.4byte	0x2f7
 8281 0bdc E70B0000 		.4byte	0xbe7
 8282 0be0 0D       		.uleb128 0xd
 8283 0be1 41010000 		.4byte	0x141
 8284 0be5 03       		.byte	0x3
 8285 0be6 00       		.byte	0
 8286 0be7 0E       		.uleb128 0xe
 8287 0be8 04       		.byte	0x4
 8288 0be9 D70B0000 		.4byte	0xbd7
 8289 0bed 2B       		.uleb128 0x2b
 8290 0bee 60040000 		.4byte	.LASF114
 8291 0bf2 01       		.byte	0x1
 8292 0bf3 CA02     		.2byte	0x2ca
 8293 0bf5 90000000 		.4byte	0x90
 8294 0bf9 00000000 		.4byte	.LFB34
 8295 0bfd 18010000 		.4byte	.LFE34-.LFB34
 8296 0c01 01       		.uleb128 0x1
 8297 0c02 9C       		.byte	0x9c
 8298 0c03 E70C0000 		.4byte	0xce7
 8299 0c07 2C       		.uleb128 0x2c
 8300 0c08 647400   		.ascii	"dt\000"
 8301 0c0b 01       		.byte	0x1
 8302 0c0c CB02     		.2byte	0x2cb
 8303 0c0e CA000000 		.4byte	0xca
 8304 0c12 890A0000 		.4byte	.LLST60
 8305 0c16 2C       		.uleb128 0x2c
 8306 0c17 627700   		.ascii	"bw\000"
 8307 0c1a 01       		.byte	0x1
 8308 0c1b CB02     		.2byte	0x2cb
 8309 0c1d 82010000 		.4byte	0x182
 8310 0c21 AA0A0000 		.4byte	.LLST61
 8311 0c25 2D       		.uleb128 0x2d
 8312 0c26 7F040000 		.4byte	.LASF115
 8313 0c2a 01       		.byte	0x1
 8314 0c2b CB02     		.2byte	0x2cb
 8315 0c2d 3A010000 		.4byte	0x13a
 8316 0c31 CB0A0000 		.4byte	.LLST62
 8317 0c35 2C       		.uleb128 0x2c
 8318 0c36 7800     		.ascii	"x\000"
 8319 0c38 01       		.byte	0x1
 8320 0c39 CB02     		.2byte	0x2cb
 8321 0c3b 49030000 		.4byte	0x349
 8322 0c3f 050B0000 		.4byte	.LLST63
 8323 0c43 2E       		.uleb128 0x2e
 8324 0c44 6E00     		.ascii	"n\000"
 8325 0c46 01       		.byte	0x1
 8326 0c47 CB02     		.2byte	0x2cb
ARM GAS  C:\Users\rdn\AppData\Local\Temp\cciiQw7C.s 			page 184


 8327 0c49 90000000 		.4byte	0x90
 8328 0c4d 02       		.uleb128 0x2
 8329 0c4e 91       		.byte	0x91
 8330 0c4f 00       		.sleb128 0
 8331 0c50 35       		.uleb128 0x35
 8332 0c51 EE070000 		.4byte	.LASF116
 8333 0c55 01       		.byte	0x1
 8334 0c56 CD02     		.2byte	0x2cd
 8335 0c58 90000000 		.4byte	0x90
 8336 0c5c 28       		.uleb128 0x28
 8337 0c5d 7700     		.ascii	"w\000"
 8338 0c5f 01       		.byte	0x1
 8339 0c60 CE02     		.2byte	0x2ce
 8340 0c62 90000000 		.4byte	0x90
 8341 0c66 310B0000 		.4byte	.LLST64
 8342 0c6a 33       		.uleb128 0x33
 8343 0c6b 68030000 		.4byte	.LASF117
 8344 0c6f 01       		.byte	0x1
 8345 0c70 D002     		.2byte	0x2d0
 8346 0c72 25000000 		.4byte	0x25
 8347 0c76 02       		.uleb128 0x2
 8348 0c77 91       		.byte	0x91
 8349 0c78 5C       		.sleb128 -36
 8350 0c79 28       		.uleb128 0x28
 8351 0c7a 73756D00 		.ascii	"sum\000"
 8352 0c7e 01       		.byte	0x1
 8353 0c7f D102     		.2byte	0x2d1
 8354 0c81 25000000 		.4byte	0x25
 8355 0c85 440B0000 		.4byte	.LLST65
 8356 0c89 28       		.uleb128 0x28
 8357 0c8a 6900     		.ascii	"i\000"
 8358 0c8c 01       		.byte	0x1
 8359 0c8d D202     		.2byte	0x2d2
 8360 0c8f 90000000 		.4byte	0x90
 8361 0c93 A20B0000 		.4byte	.LLST66
 8362 0c97 28       		.uleb128 0x28
 8363 0c98 6E7300   		.ascii	"ns\000"
 8364 0c9b 01       		.byte	0x1
 8365 0c9c D202     		.2byte	0x2d2
 8366 0c9e 90000000 		.4byte	0x90
 8367 0ca2 C00B0000 		.4byte	.LLST67
 8368 0ca6 28       		.uleb128 0x28
 8369 0ca7 7A00     		.ascii	"z\000"
 8370 0ca9 01       		.byte	0x1
 8371 0caa D202     		.2byte	0x2d2
 8372 0cac 90000000 		.4byte	0x90
 8373 0cb0 DF0B0000 		.4byte	.LLST68
 8374 0cb4 28       		.uleb128 0x28
 8375 0cb5 6E6600   		.ascii	"nf\000"
 8376 0cb8 01       		.byte	0x1
 8377 0cb9 DE02     		.2byte	0x2de
 8378 0cbb 90000000 		.4byte	0x90
 8379 0cbf 160C0000 		.4byte	.LLST69
 8380 0cc3 36       		.uleb128 0x36
 8381 0cc4 17040000 		.4byte	0x417
 8382 0cc8 16000000 		.4byte	.LBB115
 8383 0ccc 0C000000 		.4byte	.LBE115-.LBB115
ARM GAS  C:\Users\rdn\AppData\Local\Temp\cciiQw7C.s 			page 185


 8384 0cd0 01       		.byte	0x1
 8385 0cd1 CD02     		.2byte	0x2cd
 8386 0cd3 27       		.uleb128 0x27
 8387 0cd4 31040000 		.4byte	0x431
 8388 0cd8 340C0000 		.4byte	.LLST70
 8389 0cdc 27       		.uleb128 0x27
 8390 0cdd 27040000 		.4byte	0x427
 8391 0ce1 470C0000 		.4byte	.LLST71
 8392 0ce5 00       		.byte	0
 8393 0ce6 00       		.byte	0
 8394 0ce7 37       		.uleb128 0x37
 8395 0ce8 86040000 		.4byte	.LASF119
 8396 0cec 01       		.byte	0x1
 8397 0ced EA02     		.2byte	0x2ea
 8398 0cef 00000000 		.4byte	.LFB35
 8399 0cf3 10010000 		.4byte	.LFE35-.LFB35
 8400 0cf7 01       		.uleb128 0x1
 8401 0cf8 9C       		.byte	0x9c
 8402 0cf9 CA0D0000 		.4byte	0xdca
 8403 0cfd 2C       		.uleb128 0x2c
 8404 0cfe 647400   		.ascii	"dt\000"
 8405 0d01 01       		.byte	0x1
 8406 0d02 EA02     		.2byte	0x2ea
 8407 0d04 CA000000 		.4byte	0xca
 8408 0d08 5A0C0000 		.4byte	.LLST72
 8409 0d0c 2C       		.uleb128 0x2c
 8410 0d0d 627700   		.ascii	"bw\000"
 8411 0d10 01       		.byte	0x1
 8412 0d11 EA02     		.2byte	0x2ea
 8413 0d13 82010000 		.4byte	0x182
 8414 0d17 7B0C0000 		.4byte	.LLST73
 8415 0d1b 2C       		.uleb128 0x2c
 8416 0d1c 6E6600   		.ascii	"nf\000"
 8417 0d1f 01       		.byte	0x1
 8418 0d20 EB02     		.2byte	0x2eb
 8419 0d22 90000000 		.4byte	0x90
 8420 0d26 9C0C0000 		.4byte	.LLST74
 8421 0d2a 2D       		.uleb128 0x2d
 8422 0d2b 68050000 		.4byte	.LASF120
 8423 0d2f 01       		.byte	0x1
 8424 0d30 EB02     		.2byte	0x2eb
 8425 0d32 A9000000 		.4byte	0xa9
 8426 0d36 BD0C0000 		.4byte	.LLST75
 8427 0d3a 2E       		.uleb128 0x2e
 8428 0d3b 6700     		.ascii	"g\000"
 8429 0d3d 01       		.byte	0x1
 8430 0d3e EB02     		.2byte	0x2eb
 8431 0d40 25000000 		.4byte	0x25
 8432 0d44 02       		.uleb128 0x2
 8433 0d45 91       		.byte	0x91
 8434 0d46 00       		.sleb128 0
 8435 0d47 2E       		.uleb128 0x2e
 8436 0d48 7800     		.ascii	"x\000"
 8437 0d4a 01       		.byte	0x1
 8438 0d4b EB02     		.2byte	0x2eb
 8439 0d4d B8080000 		.4byte	0x8b8
 8440 0d51 02       		.uleb128 0x2
ARM GAS  C:\Users\rdn\AppData\Local\Temp\cciiQw7C.s 			page 186


 8441 0d52 91       		.byte	0x91
 8442 0d53 04       		.sleb128 4
 8443 0d54 2E       		.uleb128 0x2e
 8444 0d55 6E7100   		.ascii	"nq\000"
 8445 0d58 01       		.byte	0x1
 8446 0d59 EB02     		.2byte	0x2eb
 8447 0d5b 90000000 		.4byte	0x90
 8448 0d5f 02       		.uleb128 0x2
 8449 0d60 91       		.byte	0x91
 8450 0d61 08       		.sleb128 8
 8451 0d62 35       		.uleb128 0x35
 8452 0d63 EE070000 		.4byte	.LASF116
 8453 0d67 01       		.byte	0x1
 8454 0d68 ED02     		.2byte	0x2ed
 8455 0d6a 90000000 		.4byte	0x90
 8456 0d6e 28       		.uleb128 0x28
 8457 0d6f 7700     		.ascii	"w\000"
 8458 0d71 01       		.byte	0x1
 8459 0d72 EE02     		.2byte	0x2ee
 8460 0d74 90000000 		.4byte	0x90
 8461 0d78 E90C0000 		.4byte	.LLST76
 8462 0d7c 28       		.uleb128 0x28
 8463 0d7d 7300     		.ascii	"s\000"
 8464 0d7f 01       		.byte	0x1
 8465 0d80 F002     		.2byte	0x2f0
 8466 0d82 25000000 		.4byte	0x25
 8467 0d86 FC0C0000 		.4byte	.LLST77
 8468 0d8a 28       		.uleb128 0x28
 8469 0d8b 6900     		.ascii	"i\000"
 8470 0d8d 01       		.byte	0x1
 8471 0d8e F102     		.2byte	0x2f1
 8472 0d90 90000000 		.4byte	0x90
 8473 0d94 1B0D0000 		.4byte	.LLST78
 8474 0d98 28       		.uleb128 0x28
 8475 0d99 7A00     		.ascii	"z\000"
 8476 0d9b 01       		.byte	0x1
 8477 0d9c F102     		.2byte	0x2f1
 8478 0d9e 90000000 		.4byte	0x90
 8479 0da2 2E0D0000 		.4byte	.LLST79
 8480 0da6 36       		.uleb128 0x36
 8481 0da7 17040000 		.4byte	0x417
 8482 0dab 1A000000 		.4byte	.LBB117
 8483 0daf 0C000000 		.4byte	.LBE117-.LBB117
 8484 0db3 01       		.byte	0x1
 8485 0db4 ED02     		.2byte	0x2ed
 8486 0db6 27       		.uleb128 0x27
 8487 0db7 31040000 		.4byte	0x431
 8488 0dbb 650D0000 		.4byte	.LLST80
 8489 0dbf 27       		.uleb128 0x27
 8490 0dc0 27040000 		.4byte	0x427
 8491 0dc4 780D0000 		.4byte	.LLST81
 8492 0dc8 00       		.byte	0
 8493 0dc9 00       		.byte	0
 8494 0dca 31       		.uleb128 0x31
 8495 0dcb EC050000 		.4byte	.LASF121
 8496 0dcf 01       		.byte	0x1
 8497 0dd0 2003     		.2byte	0x320
ARM GAS  C:\Users\rdn\AppData\Local\Temp\cciiQw7C.s 			page 187


 8498 0dd2 90000000 		.4byte	0x90
 8499 0dd6 00000000 		.4byte	.LFB38
 8500 0dda 4C000000 		.4byte	.LFE38-.LFB38
 8501 0dde 01       		.uleb128 0x1
 8502 0ddf 9C       		.byte	0x9c
 8503 0de0 310E0000 		.4byte	0xe31
 8504 0de4 2C       		.uleb128 0x2c
 8505 0de5 647400   		.ascii	"dt\000"
 8506 0de8 01       		.byte	0x1
 8507 0de9 2003     		.2byte	0x320
 8508 0deb CA000000 		.4byte	0xca
 8509 0def 8B0D0000 		.4byte	.LLST82
 8510 0df3 2C       		.uleb128 0x2c
 8511 0df4 737200   		.ascii	"sr\000"
 8512 0df7 01       		.byte	0x1
 8513 0df8 2003     		.2byte	0x320
 8514 0dfa F9000000 		.4byte	0xf9
 8515 0dfe AC0D0000 		.4byte	.LLST83
 8516 0e02 2F       		.uleb128 0x2f
 8517 0e03 6E6500   		.ascii	"ne\000"
 8518 0e06 01       		.byte	0x1
 8519 0e07 2203     		.2byte	0x322
 8520 0e09 90000000 		.4byte	0x90
 8521 0e0d 36       		.uleb128 0x36
 8522 0e0e 17040000 		.4byte	0x417
 8523 0e12 02000000 		.4byte	.LBB119
 8524 0e16 0A000000 		.4byte	.LBE119-.LBB119
 8525 0e1a 01       		.byte	0x1
 8526 0e1b 2203     		.2byte	0x322
 8527 0e1d 27       		.uleb128 0x27
 8528 0e1e 31040000 		.4byte	0x431
 8529 0e22 CD0D0000 		.4byte	.LLST84
 8530 0e26 27       		.uleb128 0x27
 8531 0e27 27040000 		.4byte	0x427
 8532 0e2b EE0D0000 		.4byte	.LLST85
 8533 0e2f 00       		.byte	0
 8534 0e30 00       		.byte	0
 8535 0e31 2B       		.uleb128 0x2b
 8536 0e32 AC000000 		.4byte	.LASF122
 8537 0e36 01       		.byte	0x1
 8538 0e37 2B03     		.2byte	0x32b
 8539 0e39 90000000 		.4byte	0x90
 8540 0e3d 00000000 		.4byte	.LFB39
 8541 0e41 2E000000 		.4byte	.LFE39-.LFB39
 8542 0e45 01       		.uleb128 0x1
 8543 0e46 9C       		.byte	0x9c
 8544 0e47 A80E0000 		.4byte	0xea8
 8545 0e4b 2C       		.uleb128 0x2c
 8546 0e4c 647400   		.ascii	"dt\000"
 8547 0e4f 01       		.byte	0x1
 8548 0e50 2B03     		.2byte	0x32b
 8549 0e52 CA000000 		.4byte	0xca
 8550 0e56 0F0E0000 		.4byte	.LLST86
 8551 0e5a 2C       		.uleb128 0x2c
 8552 0e5b 737200   		.ascii	"sr\000"
 8553 0e5e 01       		.byte	0x1
 8554 0e5f 2B03     		.2byte	0x32b
ARM GAS  C:\Users\rdn\AppData\Local\Temp\cciiQw7C.s 			page 188


 8555 0e61 F9000000 		.4byte	0xf9
 8556 0e65 300E0000 		.4byte	.LLST87
 8557 0e69 2D       		.uleb128 0x2d
 8558 0e6a 22050000 		.4byte	.LASF87
 8559 0e6e 01       		.byte	0x1
 8560 0e6f 2B03     		.2byte	0x32b
 8561 0e71 90000000 		.4byte	0x90
 8562 0e75 510E0000 		.4byte	.LLST88
 8563 0e79 30       		.uleb128 0x30
 8564 0e7a FC030000 		.4byte	0x3fc
 8565 0e7e 0C000000 		.4byte	.LBB121
 8566 0e82 08000000 		.4byte	.LBE121-.LBB121
 8567 0e86 01       		.byte	0x1
 8568 0e87 2E03     		.2byte	0x32e
 8569 0e89 970E0000 		.4byte	0xe97
 8570 0e8d 27       		.uleb128 0x27
 8571 0e8e 0C040000 		.4byte	0x40c
 8572 0e92 7D0E0000 		.4byte	.LLST89
 8573 0e96 00       		.byte	0
 8574 0e97 22       		.uleb128 0x22
 8575 0e98 0A000000 		.4byte	.LVL248
 8576 0e9c CA0D0000 		.4byte	0xdca
 8577 0ea0 23       		.uleb128 0x23
 8578 0ea1 01       		.uleb128 0x1
 8579 0ea2 51       		.byte	0x51
 8580 0ea3 02       		.uleb128 0x2
 8581 0ea4 75       		.byte	0x75
 8582 0ea5 00       		.sleb128 0
 8583 0ea6 00       		.byte	0
 8584 0ea7 00       		.byte	0
 8585 0ea8 10       		.uleb128 0x10
 8586 0ea9 74070000 		.4byte	.LASF123
 8587 0ead 04       		.byte	0x4
 8588 0eae 4C       		.byte	0x4c
 8589 0eaf 25000000 		.4byte	0x25
 8590 0eb3 03       		.byte	0x3
 8591 0eb4 5C0F0000 		.4byte	0xf5c
 8592 0eb8 11       		.uleb128 0x11
 8593 0eb9 7800     		.ascii	"x\000"
 8594 0ebb 04       		.byte	0x4
 8595 0ebc 4C       		.byte	0x4c
 8596 0ebd 25000000 		.4byte	0x25
 8597 0ec1 15       		.uleb128 0x15
 8598 0ec2 6500     		.ascii	"e\000"
 8599 0ec4 04       		.byte	0x4
 8600 0ec5 50       		.byte	0x50
 8601 0ec6 6C0F0000 		.4byte	0xf6c
 8602 0eca 20       		.byte	0x20
 8603 0ecb 00       		.byte	0
 8604 0ecc 00       		.byte	0
 8605 0ecd 80       		.byte	0x80
 8606 0ece 3F       		.byte	0x3f
 8607 0ecf C2       		.byte	0xc2
 8608 0ed0 95       		.byte	0x95
 8609 0ed1 8B       		.byte	0x8b
 8610 0ed2 3F       		.byte	0x3f
 8611 0ed3 F0       		.byte	0xf0
ARM GAS  C:\Users\rdn\AppData\Local\Temp\cciiQw7C.s 			page 189


 8612 0ed4 37       		.byte	0x37
 8613 0ed5 98       		.byte	0x98
 8614 0ed6 3F       		.byte	0x3f
 8615 0ed7 D7       		.byte	0xd7
 8616 0ed8 FE       		.byte	0xfe
 8617 0ed9 A5       		.byte	0xa5
 8618 0eda 3F       		.byte	0x3f
 8619 0edb F3       		.byte	0xf3
 8620 0edc 04       		.byte	0x4
 8621 0edd B5       		.byte	0xb5
 8622 0ede 3F       		.byte	0x3f
 8623 0edf 2A       		.byte	0x2a
 8624 0ee0 67       		.byte	0x67
 8625 0ee1 C5       		.byte	0xc5
 8626 0ee2 3F       		.byte	0x3f
 8627 0ee3 FD       		.byte	0xfd
 8628 0ee4 44       		.byte	0x44
 8629 0ee5 D7       		.byte	0xd7
 8630 0ee6 3F       		.byte	0x3f
 8631 0ee7 C7       		.byte	0xc7
 8632 0ee8 C0       		.byte	0xc0
 8633 0ee9 EA       		.byte	0xea
 8634 0eea 3F       		.byte	0x3f
 8635 0eeb 15       		.uleb128 0x15
 8636 0eec 7000     		.ascii	"p\000"
 8637 0eee 04       		.byte	0x4
 8638 0eef 56       		.byte	0x56
 8639 0ef0 810F0000 		.4byte	0xf81
 8640 0ef4 10       		.byte	0x10
 8641 0ef5 00       		.byte	0
 8642 0ef6 93       		.byte	0x93
 8643 0ef7 24       		.byte	0x24
 8644 0ef8 3C       		.byte	0x3c
 8645 0ef9 2C       		.byte	0x2c
 8646 0efa 26       		.byte	0x26
 8647 0efb 63       		.byte	0x63
 8648 0efc 3D       		.byte	0x3d
 8649 0efd 87       		.byte	0x87
 8650 0efe FE       		.byte	0xfe
 8651 0eff 75       		.byte	0x75
 8652 0f00 3E       		.byte	0x3e
 8653 0f01 17       		.byte	0x17
 8654 0f02 72       		.byte	0x72
 8655 0f03 31       		.byte	0x31
 8656 0f04 3F       		.byte	0x3f
 8657 0f05 12       		.uleb128 0x12
 8658 0f06 04       		.byte	0x4
 8659 0f07 04       		.byte	0x4
 8660 0f08 60       		.byte	0x60
 8661 0f09 200F0000 		.4byte	0xf20
 8662 0f0d 13       		.uleb128 0x13
 8663 0f0e 6600     		.ascii	"f\000"
 8664 0f10 04       		.byte	0x4
 8665 0f11 60       		.byte	0x60
 8666 0f12 25000000 		.4byte	0x25
 8667 0f16 13       		.uleb128 0x13
 8668 0f17 7300     		.ascii	"s\000"
ARM GAS  C:\Users\rdn\AppData\Local\Temp\cciiQw7C.s 			page 190


 8669 0f19 04       		.byte	0x4
 8670 0f1a 60       		.byte	0x60
 8671 0f1b B4000000 		.4byte	0xb4
 8672 0f1f 00       		.byte	0
 8673 0f20 14       		.uleb128 0x14
 8674 0f21 7600     		.ascii	"v\000"
 8675 0f23 04       		.byte	0x4
 8676 0f24 60       		.byte	0x60
 8677 0f25 290F0000 		.4byte	0xf29
 8678 0f29 38       		.uleb128 0x38
 8679 0f2a 050F0000 		.4byte	0xf05
 8680 0f2e 14       		.uleb128 0x14
 8681 0f2f 6B00     		.ascii	"k\000"
 8682 0f31 04       		.byte	0x4
 8683 0f32 63       		.byte	0x63
 8684 0f33 90000000 		.4byte	0x90
 8685 0f37 12       		.uleb128 0x12
 8686 0f38 04       		.byte	0x4
 8687 0f39 04       		.byte	0x4
 8688 0f3a 6A       		.byte	0x6a
 8689 0f3b 520F0000 		.4byte	0xf52
 8690 0f3f 13       		.uleb128 0x13
 8691 0f40 6600     		.ascii	"f\000"
 8692 0f42 04       		.byte	0x4
 8693 0f43 6A       		.byte	0x6a
 8694 0f44 25000000 		.4byte	0x25
 8695 0f48 13       		.uleb128 0x13
 8696 0f49 7300     		.ascii	"s\000"
 8697 0f4b 04       		.byte	0x4
 8698 0f4c 6A       		.byte	0x6a
 8699 0f4d B4000000 		.4byte	0xb4
 8700 0f51 00       		.byte	0
 8701 0f52 14       		.uleb128 0x14
 8702 0f53 7900     		.ascii	"y\000"
 8703 0f55 04       		.byte	0x4
 8704 0f56 6A       		.byte	0x6a
 8705 0f57 370F0000 		.4byte	0xf37
 8706 0f5b 00       		.byte	0
 8707 0f5c 0C       		.uleb128 0xc
 8708 0f5d 4F030000 		.4byte	0x34f
 8709 0f61 6C0F0000 		.4byte	0xf6c
 8710 0f65 0D       		.uleb128 0xd
 8711 0f66 41010000 		.4byte	0x141
 8712 0f6a 07       		.byte	0x7
 8713 0f6b 00       		.byte	0
 8714 0f6c 0F       		.uleb128 0xf
 8715 0f6d 5C0F0000 		.4byte	0xf5c
 8716 0f71 0C       		.uleb128 0xc
 8717 0f72 4F030000 		.4byte	0x34f
 8718 0f76 810F0000 		.4byte	0xf81
 8719 0f7a 0D       		.uleb128 0xd
 8720 0f7b 41010000 		.4byte	0x141
 8721 0f7f 03       		.byte	0x3
 8722 0f80 00       		.byte	0
 8723 0f81 0F       		.uleb128 0xf
 8724 0f82 710F0000 		.4byte	0xf71
 8725 0f86 1A       		.uleb128 0x1a
ARM GAS  C:\Users\rdn\AppData\Local\Temp\cciiQw7C.s 			page 191


 8726 0f87 ED040000 		.4byte	.LASF124
 8727 0f8b 01       		.byte	0x1
 8728 0f8c 52       		.byte	0x52
 8729 0f8d 90000000 		.4byte	0x90
 8730 0f91 00000000 		.4byte	.LFB22
 8731 0f95 B4040000 		.4byte	.LFE22-.LFB22
 8732 0f99 01       		.uleb128 0x1
 8733 0f9a 9C       		.byte	0x9c
 8734 0f9b 22140000 		.4byte	0x1422
 8735 0f9f 1B       		.uleb128 0x1b
 8736 0fa0 647400   		.ascii	"dt\000"
 8737 0fa3 01       		.byte	0x1
 8738 0fa4 53       		.byte	0x53
 8739 0fa5 CA000000 		.4byte	0xca
 8740 0fa9 900E0000 		.4byte	.LLST90
 8741 0fad 1B       		.uleb128 0x1b
 8742 0fae 737200   		.ascii	"sr\000"
 8743 0fb1 01       		.byte	0x1
 8744 0fb2 53       		.byte	0x53
 8745 0fb3 F9000000 		.4byte	0xf9
 8746 0fb7 B10E0000 		.4byte	.LLST91
 8747 0fbb 1B       		.uleb128 0x1b
 8748 0fbc 7800     		.ascii	"x\000"
 8749 0fbe 01       		.byte	0x1
 8750 0fbf 53       		.byte	0x53
 8751 0fc0 49030000 		.4byte	0x349
 8752 0fc4 D20E0000 		.4byte	.LLST92
 8753 0fc8 1C       		.uleb128 0x1c
 8754 0fc9 22050000 		.4byte	.LASF87
 8755 0fcd 01       		.byte	0x1
 8756 0fce 54       		.byte	0x54
 8757 0fcf 90000000 		.4byte	0x90
 8758 0fd3 2A0F0000 		.4byte	.LLST93
 8759 0fd7 20       		.uleb128 0x20
 8760 0fd8 B3040000 		.4byte	.LASF96
 8761 0fdc 01       		.byte	0x1
 8762 0fdd 54       		.byte	0x54
 8763 0fde 90000000 		.4byte	0x90
 8764 0fe2 02       		.uleb128 0x2
 8765 0fe3 91       		.byte	0x91
 8766 0fe4 00       		.sleb128 0
 8767 0fe5 20       		.uleb128 0x20
 8768 0fe6 E3040000 		.4byte	.LASF35
 8769 0fea 01       		.byte	0x1
 8770 0feb 54       		.byte	0x54
 8771 0fec 25000000 		.4byte	0x25
 8772 0ff0 02       		.uleb128 0x2
 8773 0ff1 91       		.byte	0x91
 8774 0ff2 04       		.sleb128 4
 8775 0ff3 20       		.uleb128 0x20
 8776 0ff4 62060000 		.4byte	.LASF89
 8777 0ff8 01       		.byte	0x1
 8778 0ff9 54       		.byte	0x54
 8779 0ffa 90000000 		.4byte	0x90
 8780 0ffe 02       		.uleb128 0x2
 8781 0fff 91       		.byte	0x91
 8782 1000 08       		.sleb128 8
ARM GAS  C:\Users\rdn\AppData\Local\Temp\cciiQw7C.s 			page 192


 8783 1001 20       		.uleb128 0x20
 8784 1002 B3080000 		.4byte	.LASF125
 8785 1006 01       		.byte	0x1
 8786 1007 55       		.byte	0x55
 8787 1008 E0090000 		.4byte	0x9e0
 8788 100c 02       		.uleb128 0x2
 8789 100d 91       		.byte	0x91
 8790 100e 0C       		.sleb128 12
 8791 100f 20       		.uleb128 0x20
 8792 1010 04070000 		.4byte	.LASF126
 8793 1014 01       		.byte	0x1
 8794 1015 55       		.byte	0x55
 8795 1016 BE080000 		.4byte	0x8be
 8796 101a 02       		.uleb128 0x2
 8797 101b 91       		.byte	0x91
 8798 101c 10       		.sleb128 16
 8799 101d 1F       		.uleb128 0x1f
 8800 101e 6E3400   		.ascii	"n4\000"
 8801 1021 01       		.byte	0x1
 8802 1022 57       		.byte	0x57
 8803 1023 90000000 		.4byte	0x90
 8804 1027 6F0F0000 		.4byte	.LLST94
 8805 102b 12       		.uleb128 0x12
 8806 102c 04       		.byte	0x4
 8807 102d 01       		.byte	0x1
 8808 102e 58       		.byte	0x58
 8809 102f 48100000 		.4byte	0x1048
 8810 1033 13       		.uleb128 0x13
 8811 1034 6600     		.ascii	"f\000"
 8812 1036 01       		.byte	0x1
 8813 1037 58       		.byte	0x58
 8814 1038 25000000 		.4byte	0x25
 8815 103c 13       		.uleb128 0x13
 8816 103d 71313600 		.ascii	"q16\000"
 8817 1041 01       		.byte	0x1
 8818 1042 58       		.byte	0x58
 8819 1043 B4000000 		.4byte	0xb4
 8820 1047 00       		.byte	0
 8821 1048 39       		.uleb128 0x39
 8822 1049 6500     		.ascii	"e\000"
 8823 104b 01       		.byte	0x1
 8824 104c 58       		.byte	0x58
 8825 104d 22140000 		.4byte	0x1422
 8826 1051 03       		.uleb128 0x3
 8827 1052 91       		.byte	0x91
 8828 1053 F877     		.sleb128 -1032
 8829 1055 1D       		.uleb128 0x1d
 8830 1056 0B030000 		.4byte	.LASF127
 8831 105a 01       		.byte	0x1
 8832 105b 5C       		.byte	0x5c
 8833 105c 90000000 		.4byte	0x90
 8834 1060 C40F0000 		.4byte	.LLST95
 8835 1064 1D       		.uleb128 0x1d
 8836 1065 84030000 		.4byte	.LASF128
 8837 1069 01       		.byte	0x1
 8838 106a 5D       		.byte	0x5d
 8839 106b 25000000 		.4byte	0x25
ARM GAS  C:\Users\rdn\AppData\Local\Temp\cciiQw7C.s 			page 193


 8840 106f 31100000 		.4byte	.LLST96
 8841 1073 1D       		.uleb128 0x1d
 8842 1074 2C030000 		.4byte	.LASF129
 8843 1078 01       		.byte	0x1
 8844 1079 78       		.byte	0x78
 8845 107a 25000000 		.4byte	0x25
 8846 107e 6F100000 		.4byte	.LLST97
 8847 1082 1D       		.uleb128 0x1d
 8848 1083 8C070000 		.4byte	.LASF130
 8849 1087 01       		.byte	0x1
 8850 1088 88       		.byte	0x88
 8851 1089 25000000 		.4byte	0x25
 8852 108d CD100000 		.4byte	.LLST98
 8853 1091 1F       		.uleb128 0x1f
 8854 1092 6E6600   		.ascii	"nf\000"
 8855 1095 01       		.byte	0x1
 8856 1096 89       		.byte	0x89
 8857 1097 25000000 		.4byte	0x25
 8858 109b 05110000 		.4byte	.LLST99
 8859 109f 1D       		.uleb128 0x1d
 8860 10a0 FB040000 		.4byte	.LASF95
 8861 10a4 01       		.byte	0x1
 8862 10a5 91       		.byte	0x91
 8863 10a6 90000000 		.4byte	0x90
 8864 10aa 18110000 		.4byte	.LLST100
 8865 10ae 1D       		.uleb128 0x1d
 8866 10af D4070000 		.4byte	.LASF92
 8867 10b3 01       		.byte	0x1
 8868 10b4 92       		.byte	0x92
 8869 10b5 90000000 		.4byte	0x90
 8870 10b9 4C110000 		.4byte	.LLST101
 8871 10bd 3A       		.uleb128 0x3a
 8872 10be 00000000 		.4byte	.LASF131
 8873 10c2 01       		.byte	0x1
 8874 10c3 94       		.byte	0x94
 8875 10c4 D2070000 		.4byte	0x7d2
 8876 10c8 DBB6     		.2byte	0xb6db
 8877 10ca 3B       		.uleb128 0x3b
 8878 10cb 24000000 		.4byte	.LASF132
 8879 10cf 01       		.byte	0x1
 8880 10d0 95       		.byte	0x95
 8881 10d1 D2070000 		.4byte	0x7d2
 8882 10d5 33B30200 		.4byte	0x2b333
 8883 10d9 3B       		.uleb128 0x3b
 8884 10da 02060000 		.4byte	.LASF133
 8885 10de 01       		.byte	0x1
 8886 10df 96       		.byte	0x96
 8887 10e0 D2070000 		.4byte	0x7d2
 8888 10e4 66660100 		.4byte	0x16666
 8889 10e8 1D       		.uleb128 0x1d
 8890 10e9 3E060000 		.4byte	.LASF134
 8891 10ed 01       		.byte	0x1
 8892 10ee AE       		.byte	0xae
 8893 10ef 25000000 		.4byte	0x25
 8894 10f3 80110000 		.4byte	.LLST102
 8895 10f7 26       		.uleb128 0x26
 8896 10f8 17040000 		.4byte	0x417
ARM GAS  C:\Users\rdn\AppData\Local\Temp\cciiQw7C.s 			page 194


 8897 10fc 20000000 		.4byte	.LBB140
 8898 1100 0C000000 		.4byte	.LBE140-.LBB140
 8899 1104 01       		.byte	0x1
 8900 1105 57       		.byte	0x57
 8901 1106 1D110000 		.4byte	0x111d
 8902 110a 27       		.uleb128 0x27
 8903 110b 31040000 		.4byte	0x431
 8904 110f 93110000 		.4byte	.LLST103
 8905 1113 27       		.uleb128 0x27
 8906 1114 27040000 		.4byte	0x427
 8907 1118 A6110000 		.4byte	.LLST104
 8908 111c 00       		.byte	0
 8909 111d 21       		.uleb128 0x21
 8910 111e 3E000000 		.4byte	.LBB142
 8911 1122 74010000 		.4byte	.LBE142-.LBB142
 8912 1126 AF110000 		.4byte	0x11af
 8913 112a 1D       		.uleb128 0x1d
 8914 112b 53050000 		.4byte	.LASF135
 8915 112f 01       		.byte	0x1
 8916 1130 60       		.byte	0x60
 8917 1131 90000000 		.4byte	0x90
 8918 1135 B9110000 		.4byte	.LLST105
 8919 1139 1F       		.uleb128 0x1f
 8920 113a 6D3000   		.ascii	"m0\000"
 8921 113d 01       		.byte	0x1
 8922 113e 69       		.byte	0x69
 8923 113f 25000000 		.4byte	0x25
 8924 1143 06120000 		.4byte	.LLST106
 8925 1147 1F       		.uleb128 0x1f
 8926 1148 6D3100   		.ascii	"m1\000"
 8927 114b 01       		.byte	0x1
 8928 114c 69       		.byte	0x69
 8929 114d 25000000 		.4byte	0x25
 8930 1151 8B120000 		.4byte	.LLST107
 8931 1155 1F       		.uleb128 0x1f
 8932 1156 6B00     		.ascii	"k\000"
 8933 1158 01       		.byte	0x1
 8934 1159 69       		.byte	0x69
 8935 115a 25000000 		.4byte	0x25
 8936 115e 10130000 		.4byte	.LLST108
 8937 1162 1F       		.uleb128 0x1f
 8938 1163 6D00     		.ascii	"m\000"
 8939 1165 01       		.byte	0x1
 8940 1166 72       		.byte	0x72
 8941 1167 90000000 		.4byte	0x90
 8942 116b 95130000 		.4byte	.LLST109
 8943 116f 34       		.uleb128 0x34
 8944 1170 18000000 		.4byte	.Ldebug_ranges0+0x18
 8945 1174 86110000 		.4byte	0x1186
 8946 1178 1F       		.uleb128 0x1f
 8947 1179 6900     		.ascii	"i\000"
 8948 117b 01       		.byte	0x1
 8949 117c 6B       		.byte	0x6b
 8950 117d 90000000 		.4byte	0x90
 8951 1181 A8130000 		.4byte	.LLST110
 8952 1185 00       		.byte	0
 8953 1186 3C       		.uleb128 0x3c
ARM GAS  C:\Users\rdn\AppData\Local\Temp\cciiQw7C.s 			page 195


 8954 1187 4A000000 		.4byte	.LVL261
 8955 118b 59330000 		.4byte	0x3359
 8956 118f A5110000 		.4byte	0x11a5
 8957 1193 23       		.uleb128 0x23
 8958 1194 01       		.uleb128 0x1
 8959 1195 50       		.byte	0x50
 8960 1196 02       		.uleb128 0x2
 8961 1197 74       		.byte	0x74
 8962 1198 00       		.sleb128 0
 8963 1199 23       		.uleb128 0x23
 8964 119a 01       		.uleb128 0x1
 8965 119b 51       		.byte	0x51
 8966 119c 01       		.uleb128 0x1
 8967 119d 30       		.byte	0x30
 8968 119e 23       		.uleb128 0x23
 8969 119f 01       		.uleb128 0x1
 8970 11a0 52       		.byte	0x52
 8971 11a1 02       		.uleb128 0x2
 8972 11a2 08       		.byte	0x8
 8973 11a3 20       		.byte	0x20
 8974 11a4 00       		.byte	0
 8975 11a5 3D       		.uleb128 0x3d
 8976 11a6 9C010000 		.4byte	.LVL319
 8977 11aa 62330000 		.4byte	0x3362
 8978 11ae 00       		.byte	0
 8979 11af 34       		.uleb128 0x34
 8980 11b0 30000000 		.4byte	.Ldebug_ranges0+0x30
 8981 11b4 6B120000 		.4byte	0x126b
 8982 11b8 1F       		.uleb128 0x1f
 8983 11b9 6900     		.ascii	"i\000"
 8984 11bb 01       		.byte	0x1
 8985 11bc 7A       		.byte	0x7a
 8986 11bd 90000000 		.4byte	0x90
 8987 11c1 C7130000 		.4byte	.LLST111
 8988 11c5 29       		.uleb128 0x29
 8989 11c6 CC010000 		.4byte	.LBB146
 8990 11ca 6C000000 		.4byte	.LBE146-.LBB146
 8991 11ce 1F       		.uleb128 0x1f
 8992 11cf 783000   		.ascii	"x0\000"
 8993 11d2 01       		.byte	0x1
 8994 11d3 7B       		.byte	0x7b
 8995 11d4 25000000 		.4byte	0x25
 8996 11d8 F1130000 		.4byte	.LLST112
 8997 11dc 1F       		.uleb128 0x1f
 8998 11dd 783100   		.ascii	"x1\000"
 8999 11e0 01       		.byte	0x1
 9000 11e1 7C       		.byte	0x7c
 9001 11e2 25000000 		.4byte	0x25
 9002 11e6 11140000 		.4byte	.LLST113
 9003 11ea 1F       		.uleb128 0x1f
 9004 11eb 783200   		.ascii	"x2\000"
 9005 11ee 01       		.byte	0x1
 9006 11ef 7D       		.byte	0x7d
 9007 11f0 25000000 		.4byte	0x25
 9008 11f4 31140000 		.4byte	.LLST114
 9009 11f8 1F       		.uleb128 0x1f
 9010 11f9 783300   		.ascii	"x3\000"
ARM GAS  C:\Users\rdn\AppData\Local\Temp\cciiQw7C.s 			page 196


 9011 11fc 01       		.byte	0x1
 9012 11fd 7E       		.byte	0x7e
 9013 11fe 25000000 		.4byte	0x25
 9014 1202 51140000 		.4byte	.LLST115
 9015 1206 3C       		.uleb128 0x3c
 9016 1207 06020000 		.4byte	.LVL342
 9017 120b 6E330000 		.4byte	0x336e
 9018 120f 28120000 		.4byte	0x1228
 9019 1213 23       		.uleb128 0x23
 9020 1214 01       		.uleb128 0x1
 9021 1215 50       		.byte	0x50
 9022 1216 06       		.uleb128 0x6
 9023 1217 91       		.byte	0x91
 9024 1218 E477     		.sleb128 -1052
 9025 121a F6       		.byte	0xf6
 9026 121b 04       		.byte	0x4
 9027 121c 25       		.uleb128 0x25
 9028 121d 23       		.uleb128 0x23
 9029 121e 01       		.uleb128 0x1
 9030 121f 51       		.byte	0x51
 9031 1220 06       		.uleb128 0x6
 9032 1221 91       		.byte	0x91
 9033 1222 D877     		.sleb128 -1064
 9034 1224 F6       		.byte	0xf6
 9035 1225 04       		.byte	0x4
 9036 1226 25       		.uleb128 0x25
 9037 1227 00       		.byte	0
 9038 1228 3C       		.uleb128 0x3c
 9039 1229 0C020000 		.4byte	.LVL343
 9040 122d 6E330000 		.4byte	0x336e
 9041 1231 40120000 		.4byte	0x1240
 9042 1235 23       		.uleb128 0x23
 9043 1236 01       		.uleb128 0x1
 9044 1237 51       		.byte	0x51
 9045 1238 06       		.uleb128 0x6
 9046 1239 91       		.byte	0x91
 9047 123a DC77     		.sleb128 -1060
 9048 123c F6       		.byte	0xf6
 9049 123d 04       		.byte	0x4
 9050 123e 25       		.uleb128 0x25
 9051 123f 00       		.byte	0
 9052 1240 3C       		.uleb128 0x3c
 9053 1241 12020000 		.4byte	.LVL344
 9054 1245 6E330000 		.4byte	0x336e
 9055 1249 58120000 		.4byte	0x1258
 9056 124d 23       		.uleb128 0x23
 9057 124e 01       		.uleb128 0x1
 9058 124f 51       		.byte	0x51
 9059 1250 06       		.uleb128 0x6
 9060 1251 91       		.byte	0x91
 9061 1252 E077     		.sleb128 -1056
 9062 1254 F6       		.byte	0xf6
 9063 1255 04       		.byte	0x4
 9064 1256 25       		.uleb128 0x25
 9065 1257 00       		.byte	0
 9066 1258 22       		.uleb128 0x22
 9067 1259 18020000 		.4byte	.LVL345
ARM GAS  C:\Users\rdn\AppData\Local\Temp\cciiQw7C.s 			page 197


 9068 125d 6E330000 		.4byte	0x336e
 9069 1261 23       		.uleb128 0x23
 9070 1262 01       		.uleb128 0x1
 9071 1263 51       		.byte	0x51
 9072 1264 03       		.uleb128 0x3
 9073 1265 F5       		.byte	0xf5
 9074 1266 04       		.uleb128 0x4
 9075 1267 25       		.uleb128 0x25
 9076 1268 00       		.byte	0
 9077 1269 00       		.byte	0
 9078 126a 00       		.byte	0
 9079 126b 26       		.uleb128 0x26
 9080 126c 3C040000 		.4byte	0x43c
 9081 1270 52020000 		.4byte	.LBB148
 9082 1274 10000000 		.4byte	.LBE148-.LBB148
 9083 1278 01       		.byte	0x1
 9084 1279 8A       		.byte	0x8a
 9085 127a A4120000 		.4byte	0x12a4
 9086 127e 27       		.uleb128 0x27
 9087 127f 56040000 		.4byte	0x456
 9088 1283 6F140000 		.4byte	.LLST116
 9089 1287 27       		.uleb128 0x27
 9090 1288 4C040000 		.4byte	0x44c
 9091 128c 90140000 		.4byte	.LLST117
 9092 1290 29       		.uleb128 0x29
 9093 1291 52020000 		.4byte	.LBB149
 9094 1295 10000000 		.4byte	.LBE149-.LBB149
 9095 1299 3E       		.uleb128 0x3e
 9096 129a 7C040000 		.4byte	0x47c
 9097 129e A3140000 		.4byte	.LLST118
 9098 12a2 00       		.byte	0
 9099 12a3 00       		.byte	0
 9100 12a4 26       		.uleb128 0x26
 9101 12a5 A80E0000 		.4byte	0xea8
 9102 12a9 6A020000 		.4byte	.LBB150
 9103 12ad 6C000000 		.4byte	.LBE150-.LBB150
 9104 12b1 01       		.byte	0x1
 9105 12b2 8A       		.byte	0x8a
 9106 12b3 F2120000 		.4byte	0x12f2
 9107 12b7 27       		.uleb128 0x27
 9108 12b8 B80E0000 		.4byte	0xeb8
 9109 12bc B6140000 		.4byte	.LLST119
 9110 12c0 29       		.uleb128 0x29
 9111 12c1 6A020000 		.4byte	.LBB151
 9112 12c5 6C000000 		.4byte	.LBE151-.LBB151
 9113 12c9 3F       		.uleb128 0x3f
 9114 12ca 200F0000 		.4byte	0xf20
 9115 12ce 03       		.uleb128 0x3
 9116 12cf 91       		.byte	0x91
 9117 12d0 F477     		.sleb128 -1036
 9118 12d2 3E       		.uleb128 0x3e
 9119 12d3 2E0F0000 		.4byte	0xf2e
 9120 12d7 DF140000 		.4byte	.LLST120
 9121 12db 40       		.uleb128 0x40
 9122 12dc 520F0000 		.4byte	0xf52
 9123 12e0 3F       		.uleb128 0x3f
 9124 12e1 C10E0000 		.4byte	0xec1
ARM GAS  C:\Users\rdn\AppData\Local\Temp\cciiQw7C.s 			page 198


 9125 12e5 05       		.uleb128 0x5
 9126 12e6 03       		.byte	0x3
 9127 12e7 C4000000 		.4byte	e.5109
 9128 12eb 40       		.uleb128 0x40
 9129 12ec EB0E0000 		.4byte	0xeeb
 9130 12f0 00       		.byte	0
 9131 12f1 00       		.byte	0
 9132 12f2 21       		.uleb128 0x21
 9133 12f3 E2020000 		.4byte	.LBB152
 9134 12f7 5C000000 		.4byte	.LBE152-.LBB152
 9135 12fb 68130000 		.4byte	0x1368
 9136 12ff 1F       		.uleb128 0x1f
 9137 1300 6900     		.ascii	"i\000"
 9138 1302 01       		.byte	0x1
 9139 1303 8C       		.byte	0x8c
 9140 1304 90000000 		.4byte	0x90
 9141 1308 F2140000 		.4byte	.LLST121
 9142 130c 26       		.uleb128 0x26
 9143 130d 86040000 		.4byte	0x486
 9144 1311 00030000 		.4byte	.LBB153
 9145 1315 30000000 		.4byte	.LBE153-.LBB153
 9146 1319 01       		.byte	0x1
 9147 131a 8D       		.byte	0x8d
 9148 131b 5E130000 		.4byte	0x135e
 9149 131f 27       		.uleb128 0x27
 9150 1320 96040000 		.4byte	0x496
 9151 1324 11150000 		.4byte	.LLST122
 9152 1328 29       		.uleb128 0x29
 9153 1329 00030000 		.4byte	.LBB154
 9154 132d 30000000 		.4byte	.LBE154-.LBB154
 9155 1331 40       		.uleb128 0x40
 9156 1332 44050000 		.4byte	0x544
 9157 1336 3E       		.uleb128 0x3e
 9158 1337 4E050000 		.4byte	0x54e
 9159 133b 24150000 		.4byte	.LLST123
 9160 133f 3E       		.uleb128 0x3e
 9161 1340 58050000 		.4byte	0x558
 9162 1344 37150000 		.4byte	.LLST124
 9163 1348 3E       		.uleb128 0x3e
 9164 1349 62050000 		.4byte	0x562
 9165 134d 4A150000 		.4byte	.LLST125
 9166 1351 3F       		.uleb128 0x3f
 9167 1352 9F040000 		.4byte	0x49f
 9168 1356 05       		.uleb128 0x5
 9169 1357 03       		.byte	0x3
 9170 1358 E4000000 		.4byte	t.5132
 9171 135c 00       		.byte	0
 9172 135d 00       		.byte	0
 9173 135e 3D       		.uleb128 0x3d
 9174 135f 00030000 		.4byte	.LVL384
 9175 1363 6E330000 		.4byte	0x336e
 9176 1367 00       		.byte	0
 9177 1368 34       		.uleb128 0x34
 9178 1369 48000000 		.4byte	.Ldebug_ranges0+0x48
 9179 136d E2130000 		.4byte	0x13e2
 9180 1371 1F       		.uleb128 0x1f
 9181 1372 6900     		.ascii	"i\000"
ARM GAS  C:\Users\rdn\AppData\Local\Temp\cciiQw7C.s 			page 199


 9182 1374 01       		.byte	0x1
 9183 1375 98       		.byte	0x98
 9184 1376 90000000 		.4byte	0x90
 9185 137a 5D150000 		.4byte	.LLST126
 9186 137e 1F       		.uleb128 0x1f
 9187 137f 6A00     		.ascii	"j\000"
 9188 1381 01       		.byte	0x1
 9189 1382 98       		.byte	0x98
 9190 1383 90000000 		.4byte	0x90
 9191 1387 7D150000 		.4byte	.LLST127
 9192 138b 1F       		.uleb128 0x1f
 9193 138c 6A3000   		.ascii	"j0\000"
 9194 138f 01       		.byte	0x1
 9195 1390 98       		.byte	0x98
 9196 1391 90000000 		.4byte	0x90
 9197 1395 BE150000 		.4byte	.LLST128
 9198 1399 14       		.uleb128 0x14
 9199 139a 6A3100   		.ascii	"j1\000"
 9200 139d 01       		.byte	0x1
 9201 139e 98       		.byte	0x98
 9202 139f 90000000 		.4byte	0x90
 9203 13a3 29       		.uleb128 0x29
 9204 13a4 76030000 		.4byte	.LBB156
 9205 13a8 A0000000 		.4byte	.LBE156-.LBB156
 9206 13ac 1F       		.uleb128 0x1f
 9207 13ad 676E00   		.ascii	"gn\000"
 9208 13b0 01       		.byte	0x1
 9209 13b1 99       		.byte	0x99
 9210 13b2 90000000 		.4byte	0x90
 9211 13b6 EB150000 		.4byte	.LLST129
 9212 13ba 1F       		.uleb128 0x1f
 9213 13bb 7600     		.ascii	"v\000"
 9214 13bd 01       		.byte	0x1
 9215 13be 9A       		.byte	0x9a
 9216 13bf 90000000 		.4byte	0x90
 9217 13c3 FE150000 		.4byte	.LLST130
 9218 13c7 29       		.uleb128 0x29
 9219 13c8 98030000 		.4byte	.LBB157
 9220 13cc 62000000 		.4byte	.LBE157-.LBB157
 9221 13d0 1D       		.uleb128 0x1d
 9222 13d1 08060000 		.4byte	.LASF136
 9223 13d5 01       		.byte	0x1
 9224 13d6 9F       		.byte	0x9f
 9225 13d7 90000000 		.4byte	0x90
 9226 13db 34160000 		.4byte	.LLST131
 9227 13df 00       		.byte	0
 9228 13e0 00       		.byte	0
 9229 13e1 00       		.byte	0
 9230 13e2 21       		.uleb128 0x21
 9231 13e3 2E040000 		.4byte	.LBB159
 9232 13e7 2E000000 		.4byte	.LBE159-.LBB159
 9233 13eb 0D140000 		.4byte	0x140d
 9234 13ef 1F       		.uleb128 0x1f
 9235 13f0 6900     		.ascii	"i\000"
 9236 13f2 01       		.byte	0x1
 9237 13f3 B1       		.byte	0xb1
 9238 13f4 90000000 		.4byte	0x90
ARM GAS  C:\Users\rdn\AppData\Local\Temp\cciiQw7C.s 			page 200


 9239 13f8 CA160000 		.4byte	.LLST132
 9240 13fc 22       		.uleb128 0x22
 9241 13fd 3E040000 		.4byte	.LVL428
 9242 1401 5E060000 		.4byte	0x65e
 9243 1405 23       		.uleb128 0x23
 9244 1406 01       		.uleb128 0x1
 9245 1407 50       		.byte	0x50
 9246 1408 02       		.uleb128 0x2
 9247 1409 76       		.byte	0x76
 9248 140a 00       		.sleb128 0
 9249 140b 00       		.byte	0
 9250 140c 00       		.byte	0
 9251 140d 22       		.uleb128 0x22
 9252 140e 46020000 		.4byte	.LVL353
 9253 1412 7A330000 		.4byte	0x337a
 9254 1416 23       		.uleb128 0x23
 9255 1417 01       		.uleb128 0x1
 9256 1418 50       		.byte	0x50
 9257 1419 06       		.uleb128 0x6
 9258 141a 91       		.byte	0x91
 9259 141b E477     		.sleb128 -1052
 9260 141d F6       		.byte	0xf6
 9261 141e 04       		.byte	0x4
 9262 141f 25       		.uleb128 0x25
 9263 1420 00       		.byte	0
 9264 1421 00       		.byte	0
 9265 1422 0C       		.uleb128 0xc
 9266 1423 2B100000 		.4byte	0x102b
 9267 1427 32140000 		.4byte	0x1432
 9268 142b 0D       		.uleb128 0xd
 9269 142c 41010000 		.4byte	0x141
 9270 1430 EF       		.byte	0xef
 9271 1431 00       		.byte	0
 9272 1432 41       		.uleb128 0x41
 9273 1433 D1010000 		.4byte	.LASF137
 9274 1437 01       		.byte	0x1
 9275 1438 0703     		.2byte	0x307
 9276 143a 00000000 		.4byte	.LFB36
 9277 143e 1E000000 		.4byte	.LFE36-.LFB36
 9278 1442 01       		.uleb128 0x1
 9279 1443 9C       		.byte	0x9c
 9280 1444 B6140000 		.4byte	0x14b6
 9281 1448 2D       		.uleb128 0x2d
 9282 1449 7A040000 		.4byte	.LASF85
 9283 144d 01       		.byte	0x1
 9284 144e 0703     		.2byte	0x307
 9285 1450 B6140000 		.4byte	0x14b6
 9286 1454 EA160000 		.4byte	.LLST133
 9287 1458 2C       		.uleb128 0x2c
 9288 1459 6E6600   		.ascii	"nf\000"
 9289 145c 01       		.byte	0x1
 9290 145d 0703     		.2byte	0x307
 9291 145f 90000000 		.4byte	0x90
 9292 1463 0B170000 		.4byte	.LLST134
 9293 1467 36       		.uleb128 0x36
 9294 1468 8D050000 		.4byte	0x58d
 9295 146c 02000000 		.4byte	.LBB160
ARM GAS  C:\Users\rdn\AppData\Local\Temp\cciiQw7C.s 			page 201


 9296 1470 1A000000 		.4byte	.LBE160-.LBB160
 9297 1474 01       		.byte	0x1
 9298 1475 0903     		.2byte	0x309
 9299 1477 27       		.uleb128 0x27
 9300 1478 AD050000 		.4byte	0x5ad
 9301 147c 45170000 		.4byte	.LLST135
 9302 1480 27       		.uleb128 0x27
 9303 1481 A4050000 		.4byte	0x5a4
 9304 1485 59170000 		.4byte	.LLST136
 9305 1489 27       		.uleb128 0x27
 9306 148a 99050000 		.4byte	0x599
 9307 148e 93170000 		.4byte	.LLST137
 9308 1492 29       		.uleb128 0x29
 9309 1493 02000000 		.4byte	.LBB161
 9310 1497 1A000000 		.4byte	.LBE161-.LBB161
 9311 149b 3E       		.uleb128 0x3e
 9312 149c B6050000 		.4byte	0x5b6
 9313 14a0 B4170000 		.4byte	.LLST138
 9314 14a4 22       		.uleb128 0x22
 9315 14a5 1C000000 		.4byte	.LVL442
 9316 14a9 86330000 		.4byte	0x3386
 9317 14ad 23       		.uleb128 0x23
 9318 14ae 01       		.uleb128 0x1
 9319 14af 52       		.byte	0x52
 9320 14b0 01       		.uleb128 0x1
 9321 14b1 33       		.byte	0x33
 9322 14b2 00       		.byte	0
 9323 14b3 00       		.byte	0
 9324 14b4 00       		.byte	0
 9325 14b5 00       		.byte	0
 9326 14b6 0E       		.uleb128 0xe
 9327 14b7 04       		.byte	0x4
 9328 14b8 3E030000 		.4byte	0x33e
 9329 14bc 31       		.uleb128 0x31
 9330 14bd 29050000 		.4byte	.LASF138
 9331 14c1 01       		.byte	0x1
 9332 14c2 1103     		.2byte	0x311
 9333 14c4 90000000 		.4byte	0x90
 9334 14c8 00000000 		.4byte	.LFB37
 9335 14cc 24000000 		.4byte	.LFE37-.LFB37
 9336 14d0 01       		.uleb128 0x1
 9337 14d1 9C       		.byte	0x9c
 9338 14d2 43150000 		.4byte	0x1543
 9339 14d6 2D       		.uleb128 0x2d
 9340 14d7 7A040000 		.4byte	.LASF85
 9341 14db 01       		.byte	0x1
 9342 14dc 1103     		.2byte	0x311
 9343 14de B6140000 		.4byte	0x14b6
 9344 14e2 D9170000 		.4byte	.LLST139
 9345 14e6 36       		.uleb128 0x36
 9346 14e7 CE050000 		.4byte	0x5ce
 9347 14eb 02000000 		.4byte	.LBB162
 9348 14ef 1E000000 		.4byte	.LBE162-.LBB162
 9349 14f3 01       		.byte	0x1
 9350 14f4 1303     		.2byte	0x313
 9351 14f6 27       		.uleb128 0x27
 9352 14f7 E9050000 		.4byte	0x5e9
ARM GAS  C:\Users\rdn\AppData\Local\Temp\cciiQw7C.s 			page 202


 9353 14fb FA170000 		.4byte	.LLST140
 9354 14ff 27       		.uleb128 0x27
 9355 1500 DE050000 		.4byte	0x5de
 9356 1504 0E180000 		.4byte	.LLST141
 9357 1508 29       		.uleb128 0x29
 9358 1509 02000000 		.4byte	.LBB163
 9359 150d 1E000000 		.4byte	.LBE163-.LBB163
 9360 1511 3E       		.uleb128 0x3e
 9361 1512 F2050000 		.4byte	0x5f2
 9362 1516 2F180000 		.4byte	.LLST142
 9363 151a 21       		.uleb128 0x21
 9364 151b 0A000000 		.4byte	.LBB164
 9365 151f 0E000000 		.4byte	.LBE164-.LBB164
 9366 1523 31150000 		.4byte	0x1531
 9367 1527 3E       		.uleb128 0x3e
 9368 1528 FE050000 		.4byte	0x5fe
 9369 152c 54180000 		.4byte	.LLST143
 9370 1530 00       		.byte	0
 9371 1531 22       		.uleb128 0x22
 9372 1532 1E000000 		.4byte	.LVL447
 9373 1536 91330000 		.4byte	0x3391
 9374 153a 23       		.uleb128 0x23
 9375 153b 01       		.uleb128 0x1
 9376 153c 51       		.byte	0x51
 9377 153d 01       		.uleb128 0x1
 9378 153e 33       		.byte	0x33
 9379 153f 00       		.byte	0
 9380 1540 00       		.byte	0
 9381 1541 00       		.byte	0
 9382 1542 00       		.byte	0
 9383 1543 16       		.uleb128 0x16
 9384 1544 F1020000 		.4byte	.LASF140
 9385 1548 05       		.byte	0x5
 9386 1549 D2       		.byte	0xd2
 9387 154a 03       		.byte	0x3
 9388 154b 64150000 		.4byte	0x1564
 9389 154f 17       		.uleb128 0x17
 9390 1550 7A040000 		.4byte	.LASF85
 9391 1554 05       		.byte	0x5
 9392 1555 D2       		.byte	0xd2
 9393 1556 B6140000 		.4byte	0x14b6
 9394 155a 11       		.uleb128 0x11
 9395 155b 7600     		.ascii	"v\000"
 9396 155d 05       		.byte	0x5
 9397 155e D2       		.byte	0xd2
 9398 155f 90000000 		.4byte	0x90
 9399 1563 00       		.byte	0
 9400 1564 37       		.uleb128 0x37
 9401 1565 74080000 		.4byte	.LASF141
 9402 1569 01       		.byte	0x1
 9403 156a 3E02     		.2byte	0x23e
 9404 156c 00000000 		.4byte	.LFB30
 9405 1570 28010000 		.4byte	.LFE30-.LFB30
 9406 1574 01       		.uleb128 0x1
 9407 1575 9C       		.byte	0x9c
 9408 1576 CB160000 		.4byte	0x16cb
 9409 157a 2D       		.uleb128 0x2d
ARM GAS  C:\Users\rdn\AppData\Local\Temp\cciiQw7C.s 			page 203


 9410 157b 7A040000 		.4byte	.LASF85
 9411 157f 01       		.byte	0x1
 9412 1580 3E02     		.2byte	0x23e
 9413 1582 B6140000 		.4byte	0x14b6
 9414 1586 67180000 		.4byte	.LLST144
 9415 158a 2D       		.uleb128 0x2d
 9416 158b FB040000 		.4byte	.LASF95
 9417 158f 01       		.byte	0x1
 9418 1590 3F02     		.2byte	0x23f
 9419 1592 90000000 		.4byte	0x90
 9420 1596 93180000 		.4byte	.LLST145
 9421 159a 2D       		.uleb128 0x2d
 9422 159b 7F040000 		.4byte	.LASF115
 9423 159f 01       		.byte	0x1
 9424 15a0 3F02     		.2byte	0x23f
 9425 15a2 3A010000 		.4byte	0x13a
 9426 15a6 DD180000 		.4byte	.LLST146
 9427 15aa 2C       		.uleb128 0x2c
 9428 15ab 7800     		.ascii	"x\000"
 9429 15ad 01       		.byte	0x1
 9430 15ae 3F02     		.2byte	0x23f
 9431 15b0 B8080000 		.4byte	0x8b8
 9432 15b4 FE180000 		.4byte	.LLST147
 9433 15b8 2E       		.uleb128 0x2e
 9434 15b9 6E00     		.ascii	"n\000"
 9435 15bb 01       		.byte	0x1
 9436 15bc 3F02     		.2byte	0x23f
 9437 15be 90000000 		.4byte	0x90
 9438 15c2 02       		.uleb128 0x2
 9439 15c3 91       		.byte	0x91
 9440 15c4 00       		.sleb128 0
 9441 15c5 33       		.uleb128 0x33
 9442 15c6 68030000 		.4byte	.LASF117
 9443 15ca 01       		.byte	0x1
 9444 15cb 4102     		.2byte	0x241
 9445 15cd 25000000 		.4byte	0x25
 9446 15d1 02       		.uleb128 0x2
 9447 15d2 91       		.byte	0x91
 9448 15d3 44       		.sleb128 -60
 9449 15d4 2A       		.uleb128 0x2a
 9450 15d5 61030000 		.4byte	.LASF113
 9451 15d9 01       		.byte	0x1
 9452 15da 4202     		.2byte	0x242
 9453 15dc 25000000 		.4byte	0x25
 9454 15e0 2A190000 		.4byte	.LLST148
 9455 15e4 29       		.uleb128 0x29
 9456 15e5 36000000 		.4byte	.LBB172
 9457 15e9 DE000000 		.4byte	.LBE172-.LBB172
 9458 15ed 2A       		.uleb128 0x2a
 9459 15ee 15080000 		.4byte	.LASF142
 9460 15f2 01       		.byte	0x1
 9461 15f3 4402     		.2byte	0x244
 9462 15f5 90000000 		.4byte	0x90
 9463 15f9 60190000 		.4byte	.LLST149
 9464 15fd 42       		.uleb128 0x42
 9465 15fe 60000000 		.4byte	.Ldebug_ranges0+0x60
 9466 1602 28       		.uleb128 0x28
ARM GAS  C:\Users\rdn\AppData\Local\Temp\cciiQw7C.s 			page 204


 9467 1603 6900     		.ascii	"i\000"
 9468 1605 01       		.byte	0x1
 9469 1606 4502     		.2byte	0x245
 9470 1608 90000000 		.4byte	0x90
 9471 160c 80190000 		.4byte	.LLST150
 9472 1610 29       		.uleb128 0x29
 9473 1611 3C000000 		.4byte	.LBB174
 9474 1615 A0000000 		.4byte	.LBE174-.LBB174
 9475 1619 28       		.uleb128 0x28
 9476 161a 787200   		.ascii	"xr\000"
 9477 161d 01       		.byte	0x1
 9478 161e 4702     		.2byte	0x247
 9479 1620 25000000 		.4byte	0x25
 9480 1624 9E190000 		.4byte	.LLST151
 9481 1628 28       		.uleb128 0x28
 9482 1629 6200     		.ascii	"b\000"
 9483 162b 01       		.byte	0x1
 9484 162c 4B02     		.2byte	0x24b
 9485 162e 3A010000 		.4byte	0x13a
 9486 1632 B1190000 		.4byte	.LLST152
 9487 1636 30       		.uleb128 0x30
 9488 1637 43150000 		.4byte	0x1543
 9489 163b 90000000 		.4byte	.LBB175
 9490 163f 28000000 		.4byte	.LBE175-.LBB175
 9491 1643 01       		.byte	0x1
 9492 1644 4C02     		.2byte	0x24c
 9493 1646 B6160000 		.4byte	0x16b6
 9494 164a 27       		.uleb128 0x27
 9495 164b 5A150000 		.4byte	0x155a
 9496 164f C4190000 		.4byte	.LLST153
 9497 1653 27       		.uleb128 0x27
 9498 1654 4F150000 		.4byte	0x154f
 9499 1658 D7190000 		.4byte	.LLST154
 9500 165c 43       		.uleb128 0x43
 9501 165d 8D050000 		.4byte	0x58d
 9502 1661 90000000 		.4byte	.LBB177
 9503 1665 28000000 		.4byte	.LBE177-.LBB177
 9504 1669 05       		.byte	0x5
 9505 166a D4       		.byte	0xd4
 9506 166b 27       		.uleb128 0x27
 9507 166c AD050000 		.4byte	0x5ad
 9508 1670 EA190000 		.4byte	.LLST155
 9509 1674 27       		.uleb128 0x27
 9510 1675 A4050000 		.4byte	0x5a4
 9511 1679 C4190000 		.4byte	.LLST153
 9512 167d 27       		.uleb128 0x27
 9513 167e 99050000 		.4byte	0x599
 9514 1682 D7190000 		.4byte	.LLST154
 9515 1686 29       		.uleb128 0x29
 9516 1687 90000000 		.4byte	.LBB178
 9517 168b 28000000 		.4byte	.LBE178-.LBB178
 9518 168f 3E       		.uleb128 0x3e
 9519 1690 B6050000 		.4byte	0x5b6
 9520 1694 FE190000 		.4byte	.LLST158
 9521 1698 22       		.uleb128 0x22
 9522 1699 B8000000 		.4byte	.LVL465
 9523 169d 86330000 		.4byte	0x3386
ARM GAS  C:\Users\rdn\AppData\Local\Temp\cciiQw7C.s 			page 205


 9524 16a1 23       		.uleb128 0x23
 9525 16a2 01       		.uleb128 0x1
 9526 16a3 50       		.byte	0x50
 9527 16a4 02       		.uleb128 0x2
 9528 16a5 79       		.byte	0x79
 9529 16a6 00       		.sleb128 0
 9530 16a7 23       		.uleb128 0x23
 9531 16a8 01       		.uleb128 0x1
 9532 16a9 51       		.byte	0x51
 9533 16aa 02       		.uleb128 0x2
 9534 16ab 75       		.byte	0x75
 9535 16ac 00       		.sleb128 0
 9536 16ad 23       		.uleb128 0x23
 9537 16ae 01       		.uleb128 0x1
 9538 16af 52       		.byte	0x52
 9539 16b0 01       		.uleb128 0x1
 9540 16b1 31       		.byte	0x31
 9541 16b2 00       		.byte	0
 9542 16b3 00       		.byte	0
 9543 16b4 00       		.byte	0
 9544 16b5 00       		.byte	0
 9545 16b6 22       		.uleb128 0x22
 9546 16b7 58000000 		.4byte	.LVL459
 9547 16bb 9C330000 		.4byte	0x339c
 9548 16bf 23       		.uleb128 0x23
 9549 16c0 01       		.uleb128 0x1
 9550 16c1 50       		.byte	0x50
 9551 16c2 03       		.uleb128 0x3
 9552 16c3 F5       		.byte	0xf5
 9553 16c4 05       		.uleb128 0x5
 9554 16c5 25       		.uleb128 0x25
 9555 16c6 00       		.byte	0
 9556 16c7 00       		.byte	0
 9557 16c8 00       		.byte	0
 9558 16c9 00       		.byte	0
 9559 16ca 00       		.byte	0
 9560 16cb 10       		.uleb128 0x10
 9561 16cc D7040000 		.4byte	.LASF143
 9562 16d0 05       		.byte	0x5
 9563 16d1 EA       		.byte	0xea
 9564 16d2 90000000 		.4byte	0x90
 9565 16d6 03       		.byte	0x3
 9566 16d7 E7160000 		.4byte	0x16e7
 9567 16db 17       		.uleb128 0x17
 9568 16dc 7A040000 		.4byte	.LASF85
 9569 16e0 05       		.byte	0x5
 9570 16e1 EA       		.byte	0xea
 9571 16e2 B6140000 		.4byte	0x14b6
 9572 16e6 00       		.byte	0
 9573 16e7 37       		.uleb128 0x37
 9574 16e8 BC070000 		.4byte	.LASF144
 9575 16ec 01       		.byte	0x1
 9576 16ed 5D02     		.2byte	0x25d
 9577 16ef 00000000 		.4byte	.LFB31
 9578 16f3 1C010000 		.4byte	.LFE31-.LFB31
 9579 16f7 01       		.uleb128 0x1
 9580 16f8 9C       		.byte	0x9c
ARM GAS  C:\Users\rdn\AppData\Local\Temp\cciiQw7C.s 			page 206


 9581 16f9 13180000 		.4byte	0x1813
 9582 16fd 2D       		.uleb128 0x2d
 9583 16fe 7A040000 		.4byte	.LASF85
 9584 1702 01       		.byte	0x1
 9585 1703 5D02     		.2byte	0x25d
 9586 1705 B6140000 		.4byte	0x14b6
 9587 1709 131A0000 		.4byte	.LLST159
 9588 170d 2D       		.uleb128 0x2d
 9589 170e FB040000 		.4byte	.LASF95
 9590 1712 01       		.byte	0x1
 9591 1713 5E02     		.2byte	0x25e
 9592 1715 90000000 		.4byte	0x90
 9593 1719 601A0000 		.4byte	.LLST160
 9594 171d 2D       		.uleb128 0x2d
 9595 171e 7F040000 		.4byte	.LASF115
 9596 1722 01       		.byte	0x1
 9597 1723 5E02     		.2byte	0x25e
 9598 1725 3A010000 		.4byte	0x13a
 9599 1729 7E1A0000 		.4byte	.LLST161
 9600 172d 2C       		.uleb128 0x2c
 9601 172e 7800     		.ascii	"x\000"
 9602 1730 01       		.byte	0x1
 9603 1731 5E02     		.2byte	0x25e
 9604 1733 B8080000 		.4byte	0x8b8
 9605 1737 9F1A0000 		.4byte	.LLST162
 9606 173b 2C       		.uleb128 0x2c
 9607 173c 6E00     		.ascii	"n\000"
 9608 173e 01       		.byte	0x1
 9609 173f 5E02     		.2byte	0x25e
 9610 1741 90000000 		.4byte	0x90
 9611 1745 CB1A0000 		.4byte	.LLST163
 9612 1749 2A       		.uleb128 0x2a
 9613 174a AF030000 		.4byte	.LASF145
 9614 174e 01       		.byte	0x1
 9615 174f 6002     		.2byte	0x260
 9616 1751 25000000 		.4byte	0x25
 9617 1755 DF1A0000 		.4byte	.LLST164
 9618 1759 2A       		.uleb128 0x2a
 9619 175a B8030000 		.4byte	.LASF146
 9620 175e 01       		.byte	0x1
 9621 175f 6102     		.2byte	0x261
 9622 1761 25000000 		.4byte	0x25
 9623 1765 0A1B0000 		.4byte	.LLST165
 9624 1769 29       		.uleb128 0x29
 9625 176a 3E000000 		.4byte	.LBB187
 9626 176e CC000000 		.4byte	.LBE187-.LBB187
 9627 1772 2A       		.uleb128 0x2a
 9628 1773 15080000 		.4byte	.LASF142
 9629 1777 01       		.byte	0x1
 9630 1778 6302     		.2byte	0x263
 9631 177a 90000000 		.4byte	0x90
 9632 177e 351B0000 		.4byte	.LLST166
 9633 1782 42       		.uleb128 0x42
 9634 1783 78000000 		.4byte	.Ldebug_ranges0+0x78
 9635 1787 28       		.uleb128 0x28
 9636 1788 6900     		.ascii	"i\000"
 9637 178a 01       		.byte	0x1
ARM GAS  C:\Users\rdn\AppData\Local\Temp\cciiQw7C.s 			page 207


 9638 178b 6402     		.2byte	0x264
 9639 178d 90000000 		.4byte	0x90
 9640 1791 481B0000 		.4byte	.LLST167
 9641 1795 36       		.uleb128 0x36
 9642 1796 CB160000 		.4byte	0x16cb
 9643 179a 54000000 		.4byte	.LBB189
 9644 179e 22000000 		.4byte	.LBE189-.LBB189
 9645 17a2 01       		.byte	0x1
 9646 17a3 6902     		.2byte	0x269
 9647 17a5 27       		.uleb128 0x27
 9648 17a6 DB160000 		.4byte	0x16db
 9649 17aa 661B0000 		.4byte	.LLST168
 9650 17ae 43       		.uleb128 0x43
 9651 17af CE050000 		.4byte	0x5ce
 9652 17b3 54000000 		.4byte	.LBB191
 9653 17b7 22000000 		.4byte	.LBE191-.LBB191
 9654 17bb 05       		.byte	0x5
 9655 17bc EC       		.byte	0xec
 9656 17bd 27       		.uleb128 0x27
 9657 17be E9050000 		.4byte	0x5e9
 9658 17c2 791B0000 		.4byte	.LLST169
 9659 17c6 27       		.uleb128 0x27
 9660 17c7 DE050000 		.4byte	0x5de
 9661 17cb 661B0000 		.4byte	.LLST168
 9662 17cf 29       		.uleb128 0x29
 9663 17d0 54000000 		.4byte	.LBB192
 9664 17d4 22000000 		.4byte	.LBE192-.LBB192
 9665 17d8 3E       		.uleb128 0x3e
 9666 17d9 F2050000 		.4byte	0x5f2
 9667 17dd 8D1B0000 		.4byte	.LLST171
 9668 17e1 21       		.uleb128 0x21
 9669 17e2 5E000000 		.4byte	.LBB193
 9670 17e6 10000000 		.4byte	.LBE193-.LBB193
 9671 17ea F8170000 		.4byte	0x17f8
 9672 17ee 3E       		.uleb128 0x3e
 9673 17ef FE050000 		.4byte	0x5fe
 9674 17f3 A21B0000 		.4byte	.LLST172
 9675 17f7 00       		.byte	0
 9676 17f8 22       		.uleb128 0x22
 9677 17f9 76000000 		.4byte	.LVL486
 9678 17fd 91330000 		.4byte	0x3391
 9679 1801 23       		.uleb128 0x23
 9680 1802 01       		.uleb128 0x1
 9681 1803 50       		.byte	0x50
 9682 1804 02       		.uleb128 0x2
 9683 1805 78       		.byte	0x78
 9684 1806 00       		.sleb128 0
 9685 1807 23       		.uleb128 0x23
 9686 1808 01       		.uleb128 0x1
 9687 1809 51       		.byte	0x51
 9688 180a 01       		.uleb128 0x1
 9689 180b 31       		.byte	0x31
 9690 180c 00       		.byte	0
 9691 180d 00       		.byte	0
 9692 180e 00       		.byte	0
 9693 180f 00       		.byte	0
 9694 1810 00       		.byte	0
ARM GAS  C:\Users\rdn\AppData\Local\Temp\cciiQw7C.s 			page 208


 9695 1811 00       		.byte	0
 9696 1812 00       		.byte	0
 9697 1813 44       		.uleb128 0x44
 9698 1814 59050000 		.4byte	.LASF147
 9699 1818 05       		.byte	0x5
 9700 1819 0201     		.2byte	0x102
 9701 181b 03       		.byte	0x3
 9702 181c 66180000 		.4byte	0x1866
 9703 1820 45       		.uleb128 0x45
 9704 1821 7A040000 		.4byte	.LASF85
 9705 1825 05       		.byte	0x5
 9706 1826 0301     		.2byte	0x103
 9707 1828 C2050000 		.4byte	0x5c2
 9708 182c 45       		.uleb128 0x45
 9709 182d B9000000 		.4byte	.LASF148
 9710 1831 05       		.byte	0x5
 9711 1832 0301     		.2byte	0x103
 9712 1834 66180000 		.4byte	0x1866
 9713 1838 46       		.uleb128 0x46
 9714 1839 7300     		.ascii	"s\000"
 9715 183b 05       		.byte	0x5
 9716 183c 0301     		.2byte	0x103
 9717 183e 97000000 		.4byte	0x97
 9718 1842 35       		.uleb128 0x35
 9719 1843 2B060000 		.4byte	.LASF149
 9720 1847 05       		.byte	0x5
 9721 1848 0501     		.2byte	0x105
 9722 184a 71180000 		.4byte	0x1871
 9723 184e 2F       		.uleb128 0x2f
 9724 184f 616300   		.ascii	"ac\000"
 9725 1852 05       		.byte	0x5
 9726 1853 0601     		.2byte	0x106
 9727 1855 7C180000 		.4byte	0x187c
 9728 1859 35       		.uleb128 0x35
 9729 185a 3A050000 		.4byte	.LASF54
 9730 185e 05       		.byte	0x5
 9731 185f 0701     		.2byte	0x107
 9732 1861 97000000 		.4byte	0x97
 9733 1865 00       		.byte	0
 9734 1866 0E       		.uleb128 0xe
 9735 1867 04       		.byte	0x4
 9736 1868 6C180000 		.4byte	0x186c
 9737 186c 0F       		.uleb128 0xf
 9738 186d 0B020000 		.4byte	0x20b
 9739 1871 0E       		.uleb128 0xe
 9740 1872 04       		.byte	0x4
 9741 1873 77180000 		.4byte	0x1877
 9742 1877 0F       		.uleb128 0xf
 9743 1878 E0010000 		.4byte	0x1e0
 9744 187c 0E       		.uleb128 0xe
 9745 187d 04       		.byte	0x4
 9746 187e 5F020000 		.4byte	0x25f
 9747 1882 37       		.uleb128 0x37
 9748 1883 58000000 		.4byte	.LASF150
 9749 1887 01       		.byte	0x1
 9750 1888 A301     		.2byte	0x1a3
 9751 188a 00000000 		.4byte	.LFB28
ARM GAS  C:\Users\rdn\AppData\Local\Temp\cciiQw7C.s 			page 209


 9752 188e 00030000 		.4byte	.LFE28-.LFB28
 9753 1892 01       		.uleb128 0x1
 9754 1893 9C       		.byte	0x9c
 9755 1894 391D0000 		.4byte	0x1d39
 9756 1898 2D       		.uleb128 0x2d
 9757 1899 7A040000 		.4byte	.LASF85
 9758 189d 01       		.byte	0x1
 9759 189e A301     		.2byte	0x1a3
 9760 18a0 B6140000 		.4byte	0x14b6
 9761 18a4 B51B0000 		.4byte	.LLST173
 9762 18a8 2C       		.uleb128 0x2c
 9763 18a9 647400   		.ascii	"dt\000"
 9764 18ac 01       		.byte	0x1
 9765 18ad A401     		.2byte	0x1a4
 9766 18af CA000000 		.4byte	0xca
 9767 18b3 E11B0000 		.4byte	.LLST174
 9768 18b7 2C       		.uleb128 0x2c
 9769 18b8 737200   		.ascii	"sr\000"
 9770 18bb 01       		.byte	0x1
 9771 18bc A401     		.2byte	0x1a4
 9772 18be F9000000 		.4byte	0xf9
 9773 18c2 021C0000 		.4byte	.LLST175
 9774 18c6 2D       		.uleb128 0x2d
 9775 18c7 22050000 		.4byte	.LASF87
 9776 18cb 01       		.byte	0x1
 9777 18cc A401     		.2byte	0x1a4
 9778 18ce 90000000 		.4byte	0x90
 9779 18d2 231C0000 		.4byte	.LLST176
 9780 18d6 2E       		.uleb128 0x2e
 9781 18d7 7800     		.ascii	"x\000"
 9782 18d9 01       		.byte	0x1
 9783 18da A501     		.2byte	0x1a5
 9784 18dc 49030000 		.4byte	0x349
 9785 18e0 02       		.uleb128 0x2
 9786 18e1 91       		.byte	0x91
 9787 18e2 00       		.sleb128 0
 9788 18e3 2E       		.uleb128 0x2e
 9789 18e4 6E7100   		.ascii	"nq\000"
 9790 18e7 01       		.byte	0x1
 9791 18e8 A501     		.2byte	0x1a5
 9792 18ea 90000000 		.4byte	0x90
 9793 18ee 02       		.uleb128 0x2
 9794 18ef 91       		.byte	0x91
 9795 18f0 04       		.sleb128 4
 9796 18f1 2D       		.uleb128 0x2d
 9797 18f2 D7050000 		.4byte	.LASF79
 9798 18f6 01       		.byte	0x1
 9799 18f7 A501     		.2byte	0x1a5
 9800 18f9 3A010000 		.4byte	0x13a
 9801 18fd 441C0000 		.4byte	.LLST177
 9802 1901 2A       		.uleb128 0x2a
 9803 1902 BE020000 		.4byte	.LASF107
 9804 1906 01       		.byte	0x1
 9805 1907 A701     		.2byte	0x1a7
 9806 1909 3A010000 		.4byte	0x13a
 9807 190d 701C0000 		.4byte	.LLST178
 9808 1911 2F       		.uleb128 0x2f
ARM GAS  C:\Users\rdn\AppData\Local\Temp\cciiQw7C.s 			page 210


 9809 1912 6E6500   		.ascii	"ne\000"
 9810 1915 01       		.byte	0x1
 9811 1916 A801     		.2byte	0x1a8
 9812 1918 90000000 		.4byte	0x90
 9813 191c 2A       		.uleb128 0x2a
 9814 191d 09080000 		.4byte	.LASF109
 9815 1921 01       		.byte	0x1
 9816 1922 AC01     		.2byte	0x1ac
 9817 1924 9E000000 		.4byte	0x9e
 9818 1928 8F1C0000 		.4byte	.LLST179
 9819 192c 30       		.uleb128 0x30
 9820 192d 17040000 		.4byte	0x417
 9821 1931 28000000 		.4byte	.LBB222
 9822 1935 0C000000 		.4byte	.LBE222-.LBB222
 9823 1939 01       		.byte	0x1
 9824 193a A801     		.2byte	0x1a8
 9825 193c 53190000 		.4byte	0x1953
 9826 1940 27       		.uleb128 0x27
 9827 1941 31040000 		.4byte	0x431
 9828 1945 B01C0000 		.4byte	.LLST180
 9829 1949 27       		.uleb128 0x27
 9830 194a 27040000 		.4byte	0x427
 9831 194e C31C0000 		.4byte	.LLST181
 9832 1952 00       		.byte	0
 9833 1953 34       		.uleb128 0x34
 9834 1954 90000000 		.4byte	.Ldebug_ranges0+0x90
 9835 1958 1C1D0000 		.4byte	0x1d1c
 9836 195c 28       		.uleb128 0x28
 9837 195d 6900     		.ascii	"i\000"
 9838 195f 01       		.byte	0x1
 9839 1960 AE01     		.2byte	0x1ae
 9840 1962 90000000 		.4byte	0x90
 9841 1966 D61C0000 		.4byte	.LLST182
 9842 196a 28       		.uleb128 0x28
 9843 196b 6800     		.ascii	"h\000"
 9844 196d 01       		.byte	0x1
 9845 196e AE01     		.2byte	0x1ae
 9846 1970 90000000 		.4byte	0x90
 9847 1974 031D0000 		.4byte	.LLST183
 9848 1978 29       		.uleb128 0x29
 9849 1979 3E000000 		.4byte	.LBB225
 9850 197d 94020000 		.4byte	.LBE225-.LBB225
 9851 1981 2A       		.uleb128 0x2a
 9852 1982 E6060000 		.4byte	.LASF112
 9853 1986 01       		.byte	0x1
 9854 1987 AF01     		.2byte	0x1af
 9855 1989 E70B0000 		.4byte	0xbe7
 9856 198d 2E1D0000 		.4byte	.LLST184
 9857 1991 29       		.uleb128 0x29
 9858 1992 52000000 		.4byte	.LBB226
 9859 1996 5E020000 		.4byte	.LBE226-.LBB226
 9860 199a 2A       		.uleb128 0x2a
 9861 199b 61030000 		.4byte	.LASF113
 9862 199f 01       		.byte	0x1
 9863 19a0 B301     		.2byte	0x1b3
 9864 19a2 25000000 		.4byte	0x25
 9865 19a6 4D1D0000 		.4byte	.LLST185
ARM GAS  C:\Users\rdn\AppData\Local\Temp\cciiQw7C.s 			page 211


 9866 19aa 28       		.uleb128 0x28
 9867 19ab 6100     		.ascii	"a\000"
 9868 19ad 01       		.byte	0x1
 9869 19ae B401     		.2byte	0x1b4
 9870 19b0 BF000000 		.4byte	0xbf
 9871 19b4 811D0000 		.4byte	.LLST186
 9872 19b8 28       		.uleb128 0x28
 9873 19b9 6200     		.ascii	"b\000"
 9874 19bb 01       		.byte	0x1
 9875 19bc B501     		.2byte	0x1b5
 9876 19be BF000000 		.4byte	0xbf
 9877 19c2 F71D0000 		.4byte	.LLST187
 9878 19c6 28       		.uleb128 0x28
 9879 19c7 6C757400 		.ascii	"lut\000"
 9880 19cb 01       		.byte	0x1
 9881 19cc B701     		.2byte	0x1b7
 9882 19ce F1020000 		.4byte	0x2f1
 9883 19d2 6D1E0000 		.4byte	.LLST188
 9884 19d6 28       		.uleb128 0x28
 9885 19d7 6D00     		.ascii	"m\000"
 9886 19d9 01       		.byte	0x1
 9887 19da BE01     		.2byte	0x1be
 9888 19dc BF000000 		.4byte	0xbf
 9889 19e0 801E0000 		.4byte	.LLST189
 9890 19e4 28       		.uleb128 0x28
 9891 19e5 6B00     		.ascii	"k\000"
 9892 19e7 01       		.byte	0x1
 9893 19e8 BF01     		.2byte	0x1bf
 9894 19ea 97000000 		.4byte	0x97
 9895 19ee B01E0000 		.4byte	.LLST190
 9896 19f2 28       		.uleb128 0x28
 9897 19f3 73687200 		.ascii	"shr\000"
 9898 19f7 01       		.byte	0x1
 9899 19f8 BF01     		.2byte	0x1bf
 9900 19fa 97000000 		.4byte	0x97
 9901 19fe 511F0000 		.4byte	.LLST191
 9902 1a02 30       		.uleb128 0x30
 9903 1a03 13180000 		.4byte	0x1813
 9904 1a07 C8000000 		.4byte	.LBB227
 9905 1a0b 32000000 		.4byte	.LBE227-.LBB227
 9906 1a0f 01       		.byte	0x1
 9907 1a10 C401     		.2byte	0x1c4
 9908 1a12 671A0000 		.4byte	0x1a67
 9909 1a16 27       		.uleb128 0x27
 9910 1a17 38180000 		.4byte	0x1838
 9911 1a1b 871F0000 		.4byte	.LLST192
 9912 1a1f 27       		.uleb128 0x27
 9913 1a20 2C180000 		.4byte	0x182c
 9914 1a24 A71F0000 		.4byte	.LLST193
 9915 1a28 27       		.uleb128 0x27
 9916 1a29 20180000 		.4byte	0x1820
 9917 1a2d C71F0000 		.4byte	.LLST194
 9918 1a31 29       		.uleb128 0x29
 9919 1a32 C8000000 		.4byte	.LBB228
 9920 1a36 32000000 		.4byte	.LBE228-.LBB228
 9921 1a3a 3E       		.uleb128 0x3e
 9922 1a3b 42180000 		.4byte	0x1842
ARM GAS  C:\Users\rdn\AppData\Local\Temp\cciiQw7C.s 			page 212


 9923 1a3f A71F0000 		.4byte	.LLST193
 9924 1a43 3E       		.uleb128 0x3e
 9925 1a44 4E180000 		.4byte	0x184e
 9926 1a48 E51F0000 		.4byte	.LLST196
 9927 1a4c 3E       		.uleb128 0x3e
 9928 1a4d 59180000 		.4byte	0x1859
 9929 1a51 07200000 		.4byte	.LLST197
 9930 1a55 22       		.uleb128 0x22
 9931 1a56 FA000000 		.4byte	.LVL537
 9932 1a5a A8330000 		.4byte	0x33a8
 9933 1a5e 23       		.uleb128 0x23
 9934 1a5f 01       		.uleb128 0x1
 9935 1a60 50       		.byte	0x50
 9936 1a61 02       		.uleb128 0x2
 9937 1a62 77       		.byte	0x77
 9938 1a63 00       		.sleb128 0
 9939 1a64 00       		.byte	0
 9940 1a65 00       		.byte	0
 9941 1a66 00       		.byte	0
 9942 1a67 30       		.uleb128 0x30
 9943 1a68 43150000 		.4byte	0x1543
 9944 1a6c 18010000 		.4byte	.LBB229
 9945 1a70 1C000000 		.4byte	.LBE229-.LBB229
 9946 1a74 01       		.byte	0x1
 9947 1a75 C801     		.2byte	0x1c8
 9948 1a77 DD1A0000 		.4byte	0x1add
 9949 1a7b 47       		.uleb128 0x47
 9950 1a7c 5A150000 		.4byte	0x155a
 9951 1a80 27       		.uleb128 0x27
 9952 1a81 4F150000 		.4byte	0x154f
 9953 1a85 2A200000 		.4byte	.LLST198
 9954 1a89 43       		.uleb128 0x43
 9955 1a8a 8D050000 		.4byte	0x58d
 9956 1a8e 18010000 		.4byte	.LBB231
 9957 1a92 1C000000 		.4byte	.LBE231-.LBB231
 9958 1a96 05       		.byte	0x5
 9959 1a97 D4       		.byte	0xd4
 9960 1a98 27       		.uleb128 0x27
 9961 1a99 AD050000 		.4byte	0x5ad
 9962 1a9d 3D200000 		.4byte	.LLST199
 9963 1aa1 27       		.uleb128 0x27
 9964 1aa2 A4050000 		.4byte	0x5a4
 9965 1aa6 51200000 		.4byte	.LLST200
 9966 1aaa 27       		.uleb128 0x27
 9967 1aab 99050000 		.4byte	0x599
 9968 1aaf 2A200000 		.4byte	.LLST198
 9969 1ab3 29       		.uleb128 0x29
 9970 1ab4 18010000 		.4byte	.LBB232
 9971 1ab8 1C000000 		.4byte	.LBE232-.LBB232
 9972 1abc 3E       		.uleb128 0x3e
 9973 1abd B6050000 		.4byte	0x5b6
 9974 1ac1 93200000 		.4byte	.LLST202
 9975 1ac5 22       		.uleb128 0x22
 9976 1ac6 34010000 		.4byte	.LVL550
 9977 1aca 86330000 		.4byte	0x3386
 9978 1ace 23       		.uleb128 0x23
 9979 1acf 01       		.uleb128 0x1
ARM GAS  C:\Users\rdn\AppData\Local\Temp\cciiQw7C.s 			page 213


 9980 1ad0 50       		.byte	0x50
 9981 1ad1 02       		.uleb128 0x2
 9982 1ad2 77       		.byte	0x77
 9983 1ad3 00       		.sleb128 0
 9984 1ad4 23       		.uleb128 0x23
 9985 1ad5 01       		.uleb128 0x1
 9986 1ad6 52       		.byte	0x52
 9987 1ad7 01       		.uleb128 0x1
 9988 1ad8 31       		.byte	0x31
 9989 1ad9 00       		.byte	0
 9990 1ada 00       		.byte	0
 9991 1adb 00       		.byte	0
 9992 1adc 00       		.byte	0
 9993 1add 30       		.uleb128 0x30
 9994 1ade 43150000 		.4byte	0x1543
 9995 1ae2 3C010000 		.4byte	.LBB233
 9996 1ae6 1C000000 		.4byte	.LBE233-.LBB233
 9997 1aea 01       		.byte	0x1
 9998 1aeb C901     		.2byte	0x1c9
 9999 1aed 531B0000 		.4byte	0x1b53
 10000 1af1 47       		.uleb128 0x47
 10001 1af2 5A150000 		.4byte	0x155a
 10002 1af6 27       		.uleb128 0x27
 10003 1af7 4F150000 		.4byte	0x154f
 10004 1afb A8200000 		.4byte	.LLST203
 10005 1aff 43       		.uleb128 0x43
 10006 1b00 8D050000 		.4byte	0x58d
 10007 1b04 3C010000 		.4byte	.LBB235
 10008 1b08 1C000000 		.4byte	.LBE235-.LBB235
 10009 1b0c 05       		.byte	0x5
 10010 1b0d D4       		.byte	0xd4
 10011 1b0e 27       		.uleb128 0x27
 10012 1b0f AD050000 		.4byte	0x5ad
 10013 1b13 BB200000 		.4byte	.LLST204
 10014 1b17 27       		.uleb128 0x27
 10015 1b18 A4050000 		.4byte	0x5a4
 10016 1b1c CF200000 		.4byte	.LLST205
 10017 1b20 27       		.uleb128 0x27
 10018 1b21 99050000 		.4byte	0x599
 10019 1b25 A8200000 		.4byte	.LLST203
 10020 1b29 29       		.uleb128 0x29
 10021 1b2a 3C010000 		.4byte	.LBB236
 10022 1b2e 1C000000 		.4byte	.LBE236-.LBB236
 10023 1b32 3E       		.uleb128 0x3e
 10024 1b33 B6050000 		.4byte	0x5b6
 10025 1b37 11210000 		.4byte	.LLST207
 10026 1b3b 22       		.uleb128 0x22
 10027 1b3c 58010000 		.4byte	.LVL554
 10028 1b40 86330000 		.4byte	0x3386
 10029 1b44 23       		.uleb128 0x23
 10030 1b45 01       		.uleb128 0x1
 10031 1b46 50       		.byte	0x50
 10032 1b47 02       		.uleb128 0x2
 10033 1b48 77       		.byte	0x77
 10034 1b49 00       		.sleb128 0
 10035 1b4a 23       		.uleb128 0x23
 10036 1b4b 01       		.uleb128 0x1
ARM GAS  C:\Users\rdn\AppData\Local\Temp\cciiQw7C.s 			page 214


 10037 1b4c 52       		.byte	0x52
 10038 1b4d 01       		.uleb128 0x1
 10039 1b4e 31       		.byte	0x31
 10040 1b4f 00       		.byte	0
 10041 1b50 00       		.byte	0
 10042 1b51 00       		.byte	0
 10043 1b52 00       		.byte	0
 10044 1b53 30       		.uleb128 0x30
 10045 1b54 13180000 		.4byte	0x1813
 10046 1b58 6E010000 		.4byte	.LBB237
 10047 1b5c 32000000 		.4byte	.LBE237-.LBB237
 10048 1b60 01       		.byte	0x1
 10049 1b61 CA01     		.2byte	0x1ca
 10050 1b63 B81B0000 		.4byte	0x1bb8
 10051 1b67 27       		.uleb128 0x27
 10052 1b68 38180000 		.4byte	0x1838
 10053 1b6c 26210000 		.4byte	.LLST208
 10054 1b70 27       		.uleb128 0x27
 10055 1b71 2C180000 		.4byte	0x182c
 10056 1b75 3A210000 		.4byte	.LLST209
 10057 1b79 27       		.uleb128 0x27
 10058 1b7a 20180000 		.4byte	0x1820
 10059 1b7e 5A210000 		.4byte	.LLST210
 10060 1b82 29       		.uleb128 0x29
 10061 1b83 6E010000 		.4byte	.LBB238
 10062 1b87 32000000 		.4byte	.LBE238-.LBB238
 10063 1b8b 3E       		.uleb128 0x3e
 10064 1b8c 42180000 		.4byte	0x1842
 10065 1b90 3A210000 		.4byte	.LLST209
 10066 1b94 3E       		.uleb128 0x3e
 10067 1b95 4E180000 		.4byte	0x184e
 10068 1b99 6D210000 		.4byte	.LLST212
 10069 1b9d 3E       		.uleb128 0x3e
 10070 1b9e 59180000 		.4byte	0x1859
 10071 1ba2 82210000 		.4byte	.LLST213
 10072 1ba6 22       		.uleb128 0x22
 10073 1ba7 A0010000 		.4byte	.LVL563
 10074 1bab A8330000 		.4byte	0x33a8
 10075 1baf 23       		.uleb128 0x23
 10076 1bb0 01       		.uleb128 0x1
 10077 1bb1 50       		.byte	0x50
 10078 1bb2 02       		.uleb128 0x2
 10079 1bb3 77       		.byte	0x77
 10080 1bb4 00       		.sleb128 0
 10081 1bb5 00       		.byte	0
 10082 1bb6 00       		.byte	0
 10083 1bb7 00       		.byte	0
 10084 1bb8 30       		.uleb128 0x30
 10085 1bb9 43150000 		.4byte	0x1543
 10086 1bbd E2010000 		.4byte	.LBB239
 10087 1bc1 22000000 		.4byte	.LBE239-.LBB239
 10088 1bc5 01       		.byte	0x1
 10089 1bc6 D701     		.2byte	0x1d7
 10090 1bc8 381C0000 		.4byte	0x1c38
 10091 1bcc 27       		.uleb128 0x27
 10092 1bcd 5A150000 		.4byte	0x155a
 10093 1bd1 A5210000 		.4byte	.LLST214
ARM GAS  C:\Users\rdn\AppData\Local\Temp\cciiQw7C.s 			page 215


 10094 1bd5 27       		.uleb128 0x27
 10095 1bd6 4F150000 		.4byte	0x154f
 10096 1bda B8210000 		.4byte	.LLST215
 10097 1bde 43       		.uleb128 0x43
 10098 1bdf 8D050000 		.4byte	0x58d
 10099 1be3 E2010000 		.4byte	.LBB241
 10100 1be7 22000000 		.4byte	.LBE241-.LBB241
 10101 1beb 05       		.byte	0x5
 10102 1bec D4       		.byte	0xd4
 10103 1bed 27       		.uleb128 0x27
 10104 1bee AD050000 		.4byte	0x5ad
 10105 1bf2 CB210000 		.4byte	.LLST216
 10106 1bf6 27       		.uleb128 0x27
 10107 1bf7 A4050000 		.4byte	0x5a4
 10108 1bfb A5210000 		.4byte	.LLST214
 10109 1bff 27       		.uleb128 0x27
 10110 1c00 99050000 		.4byte	0x599
 10111 1c04 B8210000 		.4byte	.LLST215
 10112 1c08 29       		.uleb128 0x29
 10113 1c09 E2010000 		.4byte	.LBB242
 10114 1c0d 22000000 		.4byte	.LBE242-.LBB242
 10115 1c11 3E       		.uleb128 0x3e
 10116 1c12 B6050000 		.4byte	0x5b6
 10117 1c16 DF210000 		.4byte	.LLST219
 10118 1c1a 22       		.uleb128 0x22
 10119 1c1b 04020000 		.4byte	.LVL580
 10120 1c1f 86330000 		.4byte	0x3386
 10121 1c23 23       		.uleb128 0x23
 10122 1c24 01       		.uleb128 0x1
 10123 1c25 50       		.byte	0x50
 10124 1c26 02       		.uleb128 0x2
 10125 1c27 77       		.byte	0x77
 10126 1c28 00       		.sleb128 0
 10127 1c29 23       		.uleb128 0x23
 10128 1c2a 01       		.uleb128 0x1
 10129 1c2b 51       		.byte	0x51
 10130 1c2c 02       		.uleb128 0x2
 10131 1c2d 7A       		.byte	0x7a
 10132 1c2e 00       		.sleb128 0
 10133 1c2f 23       		.uleb128 0x23
 10134 1c30 01       		.uleb128 0x1
 10135 1c31 52       		.byte	0x52
 10136 1c32 01       		.uleb128 0x1
 10137 1c33 31       		.byte	0x31
 10138 1c34 00       		.byte	0
 10139 1c35 00       		.byte	0
 10140 1c36 00       		.byte	0
 10141 1c37 00       		.byte	0
 10142 1c38 30       		.uleb128 0x30
 10143 1c39 43150000 		.4byte	0x1543
 10144 1c3d 1E020000 		.4byte	.LBB243
 10145 1c41 22000000 		.4byte	.LBE243-.LBB243
 10146 1c45 01       		.byte	0x1
 10147 1c46 D801     		.2byte	0x1d8
 10148 1c48 B81C0000 		.4byte	0x1cb8
 10149 1c4c 27       		.uleb128 0x27
 10150 1c4d 5A150000 		.4byte	0x155a
ARM GAS  C:\Users\rdn\AppData\Local\Temp\cciiQw7C.s 			page 216


 10151 1c51 F4210000 		.4byte	.LLST220
 10152 1c55 27       		.uleb128 0x27
 10153 1c56 4F150000 		.4byte	0x154f
 10154 1c5a 07220000 		.4byte	.LLST221
 10155 1c5e 43       		.uleb128 0x43
 10156 1c5f 8D050000 		.4byte	0x58d
 10157 1c63 1E020000 		.4byte	.LBB245
 10158 1c67 22000000 		.4byte	.LBE245-.LBB245
 10159 1c6b 05       		.byte	0x5
 10160 1c6c D4       		.byte	0xd4
 10161 1c6d 27       		.uleb128 0x27
 10162 1c6e AD050000 		.4byte	0x5ad
 10163 1c72 1A220000 		.4byte	.LLST222
 10164 1c76 27       		.uleb128 0x27
 10165 1c77 A4050000 		.4byte	0x5a4
 10166 1c7b F4210000 		.4byte	.LLST220
 10167 1c7f 27       		.uleb128 0x27
 10168 1c80 99050000 		.4byte	0x599
 10169 1c84 07220000 		.4byte	.LLST221
 10170 1c88 29       		.uleb128 0x29
 10171 1c89 1E020000 		.4byte	.LBB246
 10172 1c8d 22000000 		.4byte	.LBE246-.LBB246
 10173 1c91 3E       		.uleb128 0x3e
 10174 1c92 B6050000 		.4byte	0x5b6
 10175 1c96 2E220000 		.4byte	.LLST225
 10176 1c9a 22       		.uleb128 0x22
 10177 1c9b 40020000 		.4byte	.LVL583
 10178 1c9f 86330000 		.4byte	0x3386
 10179 1ca3 23       		.uleb128 0x23
 10180 1ca4 01       		.uleb128 0x1
 10181 1ca5 50       		.byte	0x50
 10182 1ca6 02       		.uleb128 0x2
 10183 1ca7 77       		.byte	0x77
 10184 1ca8 00       		.sleb128 0
 10185 1ca9 23       		.uleb128 0x23
 10186 1caa 01       		.uleb128 0x1
 10187 1cab 51       		.byte	0x51
 10188 1cac 02       		.uleb128 0x2
 10189 1cad 79       		.byte	0x79
 10190 1cae 00       		.sleb128 0
 10191 1caf 23       		.uleb128 0x23
 10192 1cb0 01       		.uleb128 0x1
 10193 1cb1 52       		.byte	0x52
 10194 1cb2 01       		.uleb128 0x1
 10195 1cb3 31       		.byte	0x31
 10196 1cb4 00       		.byte	0
 10197 1cb5 00       		.byte	0
 10198 1cb6 00       		.byte	0
 10199 1cb7 00       		.byte	0
 10200 1cb8 36       		.uleb128 0x36
 10201 1cb9 13180000 		.4byte	0x1813
 10202 1cbd 5A020000 		.4byte	.LBB247
 10203 1cc1 34000000 		.4byte	.LBE247-.LBB247
 10204 1cc5 01       		.byte	0x1
 10205 1cc6 DF01     		.2byte	0x1df
 10206 1cc8 27       		.uleb128 0x27
 10207 1cc9 38180000 		.4byte	0x1838
ARM GAS  C:\Users\rdn\AppData\Local\Temp\cciiQw7C.s 			page 217


 10208 1ccd 43220000 		.4byte	.LLST226
 10209 1cd1 27       		.uleb128 0x27
 10210 1cd2 2C180000 		.4byte	0x182c
 10211 1cd6 68220000 		.4byte	.LLST227
 10212 1cda 27       		.uleb128 0x27
 10213 1cdb 20180000 		.4byte	0x1820
 10214 1cdf 7B220000 		.4byte	.LLST228
 10215 1ce3 29       		.uleb128 0x29
 10216 1ce4 5A020000 		.4byte	.LBB248
 10217 1ce8 34000000 		.4byte	.LBE248-.LBB248
 10218 1cec 3E       		.uleb128 0x3e
 10219 1ced 42180000 		.4byte	0x1842
 10220 1cf1 68220000 		.4byte	.LLST227
 10221 1cf5 3E       		.uleb128 0x3e
 10222 1cf6 4E180000 		.4byte	0x184e
 10223 1cfa 8E220000 		.4byte	.LLST230
 10224 1cfe 3E       		.uleb128 0x3e
 10225 1cff 59180000 		.4byte	0x1859
 10226 1d03 A3220000 		.4byte	.LLST231
 10227 1d07 22       		.uleb128 0x22
 10228 1d08 8E020000 		.4byte	.LVL593
 10229 1d0c A8330000 		.4byte	0x33a8
 10230 1d10 23       		.uleb128 0x23
 10231 1d11 01       		.uleb128 0x1
 10232 1d12 50       		.byte	0x50
 10233 1d13 02       		.uleb128 0x2
 10234 1d14 77       		.byte	0x77
 10235 1d15 00       		.sleb128 0
 10236 1d16 00       		.byte	0
 10237 1d17 00       		.byte	0
 10238 1d18 00       		.byte	0
 10239 1d19 00       		.byte	0
 10240 1d1a 00       		.byte	0
 10241 1d1b 00       		.byte	0
 10242 1d1c 22       		.uleb128 0x22
 10243 1d1d 26000000 		.4byte	.LVL511
 10244 1d21 88090000 		.4byte	0x988
 10245 1d25 23       		.uleb128 0x23
 10246 1d26 01       		.uleb128 0x1
 10247 1d27 50       		.byte	0x50
 10248 1d28 02       		.uleb128 0x2
 10249 1d29 75       		.byte	0x75
 10250 1d2a 00       		.sleb128 0
 10251 1d2b 23       		.uleb128 0x23
 10252 1d2c 01       		.uleb128 0x1
 10253 1d2d 51       		.byte	0x51
 10254 1d2e 03       		.uleb128 0x3
 10255 1d2f F3       		.byte	0xf3
 10256 1d30 01       		.uleb128 0x1
 10257 1d31 53       		.byte	0x53
 10258 1d32 23       		.uleb128 0x23
 10259 1d33 01       		.uleb128 0x1
 10260 1d34 52       		.byte	0x52
 10261 1d35 01       		.uleb128 0x1
 10262 1d36 30       		.byte	0x30
 10263 1d37 00       		.byte	0
 10264 1d38 00       		.byte	0
ARM GAS  C:\Users\rdn\AppData\Local\Temp\cciiQw7C.s 			page 218


 10265 1d39 37       		.uleb128 0x37
 10266 1d3a 85050000 		.4byte	.LASF151
 10267 1d3e 01       		.byte	0x1
 10268 1d3f 7D02     		.2byte	0x27d
 10269 1d41 00000000 		.4byte	.LFB32
 10270 1d45 82010000 		.4byte	.LFE32-.LFB32
 10271 1d49 01       		.uleb128 0x1
 10272 1d4a 9C       		.byte	0x9c
 10273 1d4b C91F0000 		.4byte	0x1fc9
 10274 1d4f 2D       		.uleb128 0x2d
 10275 1d50 7A040000 		.4byte	.LASF85
 10276 1d54 01       		.byte	0x1
 10277 1d55 7D02     		.2byte	0x27d
 10278 1d57 B6140000 		.4byte	0x14b6
 10279 1d5b B6220000 		.4byte	.LLST232
 10280 1d5f 2D       		.uleb128 0x2d
 10281 1d60 FB040000 		.4byte	.LASF95
 10282 1d64 01       		.byte	0x1
 10283 1d65 7E02     		.2byte	0x27e
 10284 1d67 90000000 		.4byte	0x90
 10285 1d6b E2220000 		.4byte	.LLST233
 10286 1d6f 2D       		.uleb128 0x2d
 10287 1d70 7F040000 		.4byte	.LASF115
 10288 1d74 01       		.byte	0x1
 10289 1d75 7E02     		.2byte	0x27e
 10290 1d77 3A010000 		.4byte	0x13a
 10291 1d7b 63230000 		.4byte	.LLST234
 10292 1d7f 2C       		.uleb128 0x2c
 10293 1d80 7800     		.ascii	"x\000"
 10294 1d82 01       		.byte	0x1
 10295 1d83 7E02     		.2byte	0x27e
 10296 1d85 49030000 		.4byte	0x349
 10297 1d89 84230000 		.4byte	.LLST235
 10298 1d8d 2E       		.uleb128 0x2e
 10299 1d8e 6E00     		.ascii	"n\000"
 10300 1d90 01       		.byte	0x1
 10301 1d91 7E02     		.2byte	0x27e
 10302 1d93 90000000 		.4byte	0x90
 10303 1d97 02       		.uleb128 0x2
 10304 1d98 91       		.byte	0x91
 10305 1d99 00       		.sleb128 0
 10306 1d9a 29       		.uleb128 0x29
 10307 1d9b 16000000 		.4byte	.LBB268
 10308 1d9f 5E010000 		.4byte	.LBE268-.LBB268
 10309 1da3 28       		.uleb128 0x28
 10310 1da4 6900     		.ascii	"i\000"
 10311 1da6 01       		.byte	0x1
 10312 1da7 8002     		.2byte	0x280
 10313 1da9 90000000 		.4byte	0x90
 10314 1dad B0230000 		.4byte	.LLST236
 10315 1db1 29       		.uleb128 0x29
 10316 1db2 1A000000 		.4byte	.LBB269
 10317 1db6 4A010000 		.4byte	.LBE269-.LBB269
 10318 1dba 2A       		.uleb128 0x2a
 10319 1dbb 61030000 		.4byte	.LASF113
 10320 1dbf 01       		.byte	0x1
 10321 1dc0 8202     		.2byte	0x282
ARM GAS  C:\Users\rdn\AppData\Local\Temp\cciiQw7C.s 			page 219


 10322 1dc2 25000000 		.4byte	0x25
 10323 1dc6 CF230000 		.4byte	.LLST237
 10324 1dca 28       		.uleb128 0x28
 10325 1dcb 6100     		.ascii	"a\000"
 10326 1dcd 01       		.byte	0x1
 10327 1dce 8302     		.2byte	0x283
 10328 1dd0 BF000000 		.4byte	0xbf
 10329 1dd4 E2230000 		.4byte	.LLST238
 10330 1dd8 28       		.uleb128 0x28
 10331 1dd9 6200     		.ascii	"b\000"
 10332 1ddb 01       		.byte	0x1
 10333 1ddc 8402     		.2byte	0x284
 10334 1dde BF000000 		.4byte	0xbf
 10335 1de2 17240000 		.4byte	.LLST239
 10336 1de6 30       		.uleb128 0x30
 10337 1de7 43150000 		.4byte	0x1543
 10338 1deb 76000000 		.4byte	.LBB270
 10339 1def 22000000 		.4byte	.LBE270-.LBB270
 10340 1df3 01       		.byte	0x1
 10341 1df4 8A02     		.2byte	0x28a
 10342 1df6 5C1E0000 		.4byte	0x1e5c
 10343 1dfa 47       		.uleb128 0x47
 10344 1dfb 5A150000 		.4byte	0x155a
 10345 1dff 27       		.uleb128 0x27
 10346 1e00 4F150000 		.4byte	0x154f
 10347 1e04 35240000 		.4byte	.LLST240
 10348 1e08 43       		.uleb128 0x43
 10349 1e09 8D050000 		.4byte	0x58d
 10350 1e0d 76000000 		.4byte	.LBB272
 10351 1e11 22000000 		.4byte	.LBE272-.LBB272
 10352 1e15 05       		.byte	0x5
 10353 1e16 D4       		.byte	0xd4
 10354 1e17 27       		.uleb128 0x27
 10355 1e18 AD050000 		.4byte	0x5ad
 10356 1e1c 48240000 		.4byte	.LLST241
 10357 1e20 27       		.uleb128 0x27
 10358 1e21 A4050000 		.4byte	0x5a4
 10359 1e25 5C240000 		.4byte	.LLST242
 10360 1e29 27       		.uleb128 0x27
 10361 1e2a 99050000 		.4byte	0x599
 10362 1e2e 35240000 		.4byte	.LLST240
 10363 1e32 29       		.uleb128 0x29
 10364 1e33 76000000 		.4byte	.LBB273
 10365 1e37 22000000 		.4byte	.LBE273-.LBB273
 10366 1e3b 3E       		.uleb128 0x3e
 10367 1e3c B6050000 		.4byte	0x5b6
 10368 1e40 9A240000 		.4byte	.LLST244
 10369 1e44 22       		.uleb128 0x22
 10370 1e45 98000000 		.4byte	.LVL623
 10371 1e49 86330000 		.4byte	0x3386
 10372 1e4d 23       		.uleb128 0x23
 10373 1e4e 01       		.uleb128 0x1
 10374 1e4f 50       		.byte	0x50
 10375 1e50 02       		.uleb128 0x2
 10376 1e51 7A       		.byte	0x7a
 10377 1e52 00       		.sleb128 0
 10378 1e53 23       		.uleb128 0x23
ARM GAS  C:\Users\rdn\AppData\Local\Temp\cciiQw7C.s 			page 220


 10379 1e54 01       		.uleb128 0x1
 10380 1e55 52       		.byte	0x52
 10381 1e56 01       		.uleb128 0x1
 10382 1e57 31       		.byte	0x31
 10383 1e58 00       		.byte	0
 10384 1e59 00       		.byte	0
 10385 1e5a 00       		.byte	0
 10386 1e5b 00       		.byte	0
 10387 1e5c 48       		.uleb128 0x48
 10388 1e5d 43150000 		.4byte	0x1543
 10389 1e61 BA000000 		.4byte	.LBB274
 10390 1e65 A8000000 		.4byte	.Ldebug_ranges0+0xa8
 10391 1e69 01       		.byte	0x1
 10392 1e6a 8D02     		.2byte	0x28d
 10393 1e6c D81E0000 		.4byte	0x1ed8
 10394 1e70 27       		.uleb128 0x27
 10395 1e71 5A150000 		.4byte	0x155a
 10396 1e75 AF240000 		.4byte	.LLST245
 10397 1e79 27       		.uleb128 0x27
 10398 1e7a 4F150000 		.4byte	0x154f
 10399 1e7e CD240000 		.4byte	.LLST246
 10400 1e82 49       		.uleb128 0x49
 10401 1e83 8D050000 		.4byte	0x58d
 10402 1e87 BA000000 		.4byte	.LBB276
 10403 1e8b C0000000 		.4byte	.Ldebug_ranges0+0xc0
 10404 1e8f 05       		.byte	0x5
 10405 1e90 D4       		.byte	0xd4
 10406 1e91 27       		.uleb128 0x27
 10407 1e92 AD050000 		.4byte	0x5ad
 10408 1e96 E0240000 		.4byte	.LLST247
 10409 1e9a 27       		.uleb128 0x27
 10410 1e9b A4050000 		.4byte	0x5a4
 10411 1e9f AF240000 		.4byte	.LLST245
 10412 1ea3 27       		.uleb128 0x27
 10413 1ea4 99050000 		.4byte	0x599
 10414 1ea8 CD240000 		.4byte	.LLST246
 10415 1eac 42       		.uleb128 0x42
 10416 1ead D8000000 		.4byte	.Ldebug_ranges0+0xd8
 10417 1eb1 3E       		.uleb128 0x3e
 10418 1eb2 B6050000 		.4byte	0x5b6
 10419 1eb6 F4240000 		.4byte	.LLST250
 10420 1eba 22       		.uleb128 0x22
 10421 1ebb E0000000 		.4byte	.LVL629
 10422 1ebf 86330000 		.4byte	0x3386
 10423 1ec3 23       		.uleb128 0x23
 10424 1ec4 01       		.uleb128 0x1
 10425 1ec5 50       		.byte	0x50
 10426 1ec6 02       		.uleb128 0x2
 10427 1ec7 7A       		.byte	0x7a
 10428 1ec8 00       		.sleb128 0
 10429 1ec9 23       		.uleb128 0x23
 10430 1eca 01       		.uleb128 0x1
 10431 1ecb 51       		.byte	0x51
 10432 1ecc 02       		.uleb128 0x2
 10433 1ecd 76       		.byte	0x76
 10434 1ece 00       		.sleb128 0
 10435 1ecf 23       		.uleb128 0x23
ARM GAS  C:\Users\rdn\AppData\Local\Temp\cciiQw7C.s 			page 221


 10436 1ed0 01       		.uleb128 0x1
 10437 1ed1 52       		.byte	0x52
 10438 1ed2 01       		.uleb128 0x1
 10439 1ed3 31       		.byte	0x31
 10440 1ed4 00       		.byte	0
 10441 1ed5 00       		.byte	0
 10442 1ed6 00       		.byte	0
 10443 1ed7 00       		.byte	0
 10444 1ed8 30       		.uleb128 0x30
 10445 1ed9 43150000 		.4byte	0x1543
 10446 1edd F8000000 		.4byte	.LBB282
 10447 1ee1 22000000 		.4byte	.LBE282-.LBB282
 10448 1ee5 01       		.byte	0x1
 10449 1ee6 9002     		.2byte	0x290
 10450 1ee8 4E1F0000 		.4byte	0x1f4e
 10451 1eec 47       		.uleb128 0x47
 10452 1eed 5A150000 		.4byte	0x155a
 10453 1ef1 27       		.uleb128 0x27
 10454 1ef2 4F150000 		.4byte	0x154f
 10455 1ef6 09250000 		.4byte	.LLST251
 10456 1efa 43       		.uleb128 0x43
 10457 1efb 8D050000 		.4byte	0x58d
 10458 1eff F8000000 		.4byte	.LBB284
 10459 1f03 22000000 		.4byte	.LBE284-.LBB284
 10460 1f07 05       		.byte	0x5
 10461 1f08 D4       		.byte	0xd4
 10462 1f09 27       		.uleb128 0x27
 10463 1f0a AD050000 		.4byte	0x5ad
 10464 1f0e 1C250000 		.4byte	.LLST252
 10465 1f12 27       		.uleb128 0x27
 10466 1f13 A4050000 		.4byte	0x5a4
 10467 1f17 30250000 		.4byte	.LLST253
 10468 1f1b 27       		.uleb128 0x27
 10469 1f1c 99050000 		.4byte	0x599
 10470 1f20 09250000 		.4byte	.LLST251
 10471 1f24 29       		.uleb128 0x29
 10472 1f25 F8000000 		.4byte	.LBB285
 10473 1f29 22000000 		.4byte	.LBE285-.LBB285
 10474 1f2d 3E       		.uleb128 0x3e
 10475 1f2e B6050000 		.4byte	0x5b6
 10476 1f32 6C250000 		.4byte	.LLST255
 10477 1f36 22       		.uleb128 0x22
 10478 1f37 1A010000 		.4byte	.LVL637
 10479 1f3b 86330000 		.4byte	0x3386
 10480 1f3f 23       		.uleb128 0x23
 10481 1f40 01       		.uleb128 0x1
 10482 1f41 50       		.byte	0x50
 10483 1f42 02       		.uleb128 0x2
 10484 1f43 7A       		.byte	0x7a
 10485 1f44 00       		.sleb128 0
 10486 1f45 23       		.uleb128 0x23
 10487 1f46 01       		.uleb128 0x1
 10488 1f47 52       		.byte	0x52
 10489 1f48 01       		.uleb128 0x1
 10490 1f49 31       		.byte	0x31
 10491 1f4a 00       		.byte	0
 10492 1f4b 00       		.byte	0
ARM GAS  C:\Users\rdn\AppData\Local\Temp\cciiQw7C.s 			page 222


 10493 1f4c 00       		.byte	0
 10494 1f4d 00       		.byte	0
 10495 1f4e 4A       		.uleb128 0x4a
 10496 1f4f 43150000 		.4byte	0x1543
 10497 1f53 38010000 		.4byte	.LBB286
 10498 1f57 F0000000 		.4byte	.Ldebug_ranges0+0xf0
 10499 1f5b 01       		.byte	0x1
 10500 1f5c 9302     		.2byte	0x293
 10501 1f5e 27       		.uleb128 0x27
 10502 1f5f 5A150000 		.4byte	0x155a
 10503 1f63 81250000 		.4byte	.LLST256
 10504 1f67 27       		.uleb128 0x27
 10505 1f68 4F150000 		.4byte	0x154f
 10506 1f6c 9F250000 		.4byte	.LLST257
 10507 1f70 49       		.uleb128 0x49
 10508 1f71 8D050000 		.4byte	0x58d
 10509 1f75 38010000 		.4byte	.LBB288
 10510 1f79 08010000 		.4byte	.Ldebug_ranges0+0x108
 10511 1f7d 05       		.byte	0x5
 10512 1f7e D4       		.byte	0xd4
 10513 1f7f 27       		.uleb128 0x27
 10514 1f80 AD050000 		.4byte	0x5ad
 10515 1f84 B2250000 		.4byte	.LLST258
 10516 1f88 27       		.uleb128 0x27
 10517 1f89 A4050000 		.4byte	0x5a4
 10518 1f8d 81250000 		.4byte	.LLST256
 10519 1f91 27       		.uleb128 0x27
 10520 1f92 99050000 		.4byte	0x599
 10521 1f96 9F250000 		.4byte	.LLST257
 10522 1f9a 42       		.uleb128 0x42
 10523 1f9b 20010000 		.4byte	.Ldebug_ranges0+0x120
 10524 1f9f 3E       		.uleb128 0x3e
 10525 1fa0 B6050000 		.4byte	0x5b6
 10526 1fa4 C6250000 		.4byte	.LLST261
 10527 1fa8 22       		.uleb128 0x22
 10528 1fa9 5E010000 		.4byte	.LVL643
 10529 1fad 86330000 		.4byte	0x3386
 10530 1fb1 23       		.uleb128 0x23
 10531 1fb2 01       		.uleb128 0x1
 10532 1fb3 50       		.byte	0x50
 10533 1fb4 02       		.uleb128 0x2
 10534 1fb5 7A       		.byte	0x7a
 10535 1fb6 00       		.sleb128 0
 10536 1fb7 23       		.uleb128 0x23
 10537 1fb8 01       		.uleb128 0x1
 10538 1fb9 51       		.byte	0x51
 10539 1fba 02       		.uleb128 0x2
 10540 1fbb 74       		.byte	0x74
 10541 1fbc 00       		.sleb128 0
 10542 1fbd 23       		.uleb128 0x23
 10543 1fbe 01       		.uleb128 0x1
 10544 1fbf 52       		.byte	0x52
 10545 1fc0 01       		.uleb128 0x1
 10546 1fc1 31       		.byte	0x31
 10547 1fc2 00       		.byte	0
 10548 1fc3 00       		.byte	0
 10549 1fc4 00       		.byte	0
ARM GAS  C:\Users\rdn\AppData\Local\Temp\cciiQw7C.s 			page 223


 10550 1fc5 00       		.byte	0
 10551 1fc6 00       		.byte	0
 10552 1fc7 00       		.byte	0
 10553 1fc8 00       		.byte	0
 10554 1fc9 4B       		.uleb128 0x4b
 10555 1fca BD080000 		.4byte	.LASF152
 10556 1fce 05       		.byte	0x5
 10557 1fcf 1601     		.2byte	0x116
 10558 1fd1 97000000 		.4byte	0x97
 10559 1fd5 03       		.byte	0x3
 10560 1fd6 20200000 		.4byte	0x2020
 10561 1fda 45       		.uleb128 0x45
 10562 1fdb 7A040000 		.4byte	.LASF85
 10563 1fdf 05       		.byte	0x5
 10564 1fe0 1701     		.2byte	0x117
 10565 1fe2 B6140000 		.4byte	0x14b6
 10566 1fe6 45       		.uleb128 0x45
 10567 1fe7 B9000000 		.4byte	.LASF148
 10568 1feb 05       		.byte	0x5
 10569 1fec 1701     		.2byte	0x117
 10570 1fee 66180000 		.4byte	0x1866
 10571 1ff2 35       		.uleb128 0x35
 10572 1ff3 2B060000 		.4byte	.LASF149
 10573 1ff7 05       		.byte	0x5
 10574 1ff8 1901     		.2byte	0x119
 10575 1ffa 71180000 		.4byte	0x1871
 10576 1ffe 2F       		.uleb128 0x2f
 10577 1fff 616300   		.ascii	"ac\000"
 10578 2002 05       		.byte	0x5
 10579 2003 1A01     		.2byte	0x11a
 10580 2005 7C180000 		.4byte	0x187c
 10581 2009 35       		.uleb128 0x35
 10582 200a 3A050000 		.4byte	.LASF54
 10583 200e 05       		.byte	0x5
 10584 200f 1C01     		.2byte	0x11c
 10585 2011 97000000 		.4byte	0x97
 10586 2015 2F       		.uleb128 0x2f
 10587 2016 7300     		.ascii	"s\000"
 10588 2018 05       		.byte	0x5
 10589 2019 2201     		.2byte	0x122
 10590 201b 90000000 		.4byte	0x90
 10591 201f 00       		.byte	0
 10592 2020 2B       		.uleb128 0x2b
 10593 2021 08000000 		.4byte	.LASF153
 10594 2025 01       		.byte	0x1
 10595 2026 F101     		.2byte	0x1f1
 10596 2028 90000000 		.4byte	0x90
 10597 202c 00000000 		.4byte	.LFB29
 10598 2030 36040000 		.4byte	.LFE29-.LFB29
 10599 2034 01       		.uleb128 0x1
 10600 2035 9C       		.byte	0x9c
 10601 2036 01250000 		.4byte	0x2501
 10602 203a 2D       		.uleb128 0x2d
 10603 203b 7A040000 		.4byte	.LASF85
 10604 203f 01       		.byte	0x1
 10605 2040 F101     		.2byte	0x1f1
 10606 2042 B6140000 		.4byte	0x14b6
ARM GAS  C:\Users\rdn\AppData\Local\Temp\cciiQw7C.s 			page 224


 10607 2046 DB250000 		.4byte	.LLST262
 10608 204a 2C       		.uleb128 0x2c
 10609 204b 647400   		.ascii	"dt\000"
 10610 204e 01       		.byte	0x1
 10611 204f F201     		.2byte	0x1f2
 10612 2051 CA000000 		.4byte	0xca
 10613 2055 07260000 		.4byte	.LLST263
 10614 2059 2C       		.uleb128 0x2c
 10615 205a 737200   		.ascii	"sr\000"
 10616 205d 01       		.byte	0x1
 10617 205e F201     		.2byte	0x1f2
 10618 2060 F9000000 		.4byte	0xf9
 10619 2064 28260000 		.4byte	.LLST264
 10620 2068 2D       		.uleb128 0x2d
 10621 2069 22050000 		.4byte	.LASF87
 10622 206d 01       		.byte	0x1
 10623 206e F201     		.2byte	0x1f2
 10624 2070 90000000 		.4byte	0x90
 10625 2074 49260000 		.4byte	.LLST265
 10626 2078 2C       		.uleb128 0x2c
 10627 2079 6E7100   		.ascii	"nq\000"
 10628 207c 01       		.byte	0x1
 10629 207d F301     		.2byte	0x1f3
 10630 207f 90000000 		.4byte	0x90
 10631 2083 6A260000 		.4byte	.LLST266
 10632 2087 2D       		.uleb128 0x2d
 10633 2088 D7050000 		.4byte	.LASF79
 10634 208c 01       		.byte	0x1
 10635 208d F301     		.2byte	0x1f3
 10636 208f 3A010000 		.4byte	0x13a
 10637 2093 A2260000 		.4byte	.LLST267
 10638 2097 2C       		.uleb128 0x2c
 10639 2098 7800     		.ascii	"x\000"
 10640 209a 01       		.byte	0x1
 10641 209b F301     		.2byte	0x1f3
 10642 209d B8080000 		.4byte	0x8b8
 10643 20a1 DA260000 		.4byte	.LLST268
 10644 20a5 2D       		.uleb128 0x2d
 10645 20a6 68050000 		.4byte	.LASF120
 10646 20aa 01       		.byte	0x1
 10647 20ab F301     		.2byte	0x1f3
 10648 20ad 01250000 		.4byte	0x2501
 10649 20b1 12270000 		.4byte	.LLST269
 10650 20b5 2A       		.uleb128 0x2a
 10651 20b6 BE020000 		.4byte	.LASF107
 10652 20ba 01       		.byte	0x1
 10653 20bb F501     		.2byte	0x1f5
 10654 20bd 3A010000 		.4byte	0x13a
 10655 20c1 4A270000 		.4byte	.LLST270
 10656 20c5 2F       		.uleb128 0x2f
 10657 20c6 6E6500   		.ascii	"ne\000"
 10658 20c9 01       		.byte	0x1
 10659 20ca F601     		.2byte	0x1f6
 10660 20cc 90000000 		.4byte	0x90
 10661 20d0 2A       		.uleb128 0x2a
 10662 20d1 09080000 		.4byte	.LASF109
 10663 20d5 01       		.byte	0x1
ARM GAS  C:\Users\rdn\AppData\Local\Temp\cciiQw7C.s 			page 225


 10664 20d6 FC01     		.2byte	0x1fc
 10665 20d8 9E000000 		.4byte	0x9e
 10666 20dc 69270000 		.4byte	.LLST271
 10667 20e0 30       		.uleb128 0x30
 10668 20e1 17040000 		.4byte	0x417
 10669 20e5 2C000000 		.4byte	.LBB325
 10670 20e9 0C000000 		.4byte	.LBE325-.LBB325
 10671 20ed 01       		.byte	0x1
 10672 20ee F601     		.2byte	0x1f6
 10673 20f0 07210000 		.4byte	0x2107
 10674 20f4 27       		.uleb128 0x27
 10675 20f5 31040000 		.4byte	0x431
 10676 20f9 8A270000 		.4byte	.LLST272
 10677 20fd 27       		.uleb128 0x27
 10678 20fe 27040000 		.4byte	0x427
 10679 2102 9D270000 		.4byte	.LLST273
 10680 2106 00       		.byte	0
 10681 2107 34       		.uleb128 0x34
 10682 2108 38010000 		.4byte	.Ldebug_ranges0+0x138
 10683 210c E4240000 		.4byte	0x24e4
 10684 2110 28       		.uleb128 0x28
 10685 2111 6900     		.ascii	"i\000"
 10686 2113 01       		.byte	0x1
 10687 2114 FE01     		.2byte	0x1fe
 10688 2116 90000000 		.4byte	0x90
 10689 211a B0270000 		.4byte	.LLST274
 10690 211e 28       		.uleb128 0x28
 10691 211f 6800     		.ascii	"h\000"
 10692 2121 01       		.byte	0x1
 10693 2122 FE01     		.2byte	0x1fe
 10694 2124 90000000 		.4byte	0x90
 10695 2128 D1270000 		.4byte	.LLST275
 10696 212c 42       		.uleb128 0x42
 10697 212d 58010000 		.4byte	.Ldebug_ranges0+0x158
 10698 2131 2A       		.uleb128 0x2a
 10699 2132 E6060000 		.4byte	.LASF112
 10700 2136 01       		.byte	0x1
 10701 2137 FF01     		.2byte	0x1ff
 10702 2139 E70B0000 		.4byte	0xbe7
 10703 213d FD270000 		.4byte	.LLST276
 10704 2141 42       		.uleb128 0x42
 10705 2142 70010000 		.4byte	.Ldebug_ranges0+0x170
 10706 2146 28       		.uleb128 0x28
 10707 2147 6C757400 		.ascii	"lut\000"
 10708 214b 01       		.byte	0x1
 10709 214c 0302     		.2byte	0x203
 10710 214e F1020000 		.4byte	0x2f1
 10711 2152 28280000 		.4byte	.LLST277
 10712 2156 2A       		.uleb128 0x2a
 10713 2157 13050000 		.4byte	.LASF154
 10714 215b 01       		.byte	0x1
 10715 215c 0402     		.2byte	0x204
 10716 215e 90000000 		.4byte	0x90
 10717 2162 5B280000 		.4byte	.LLST278
 10718 2166 28       		.uleb128 0x28
 10719 2167 7500     		.ascii	"u\000"
 10720 2169 01       		.byte	0x1
ARM GAS  C:\Users\rdn\AppData\Local\Temp\cciiQw7C.s 			page 226


 10721 216a 0B02     		.2byte	0x20b
 10722 216c 90000000 		.4byte	0x90
 10723 2170 79280000 		.4byte	.LLST279
 10724 2174 28       		.uleb128 0x28
 10725 2175 7600     		.ascii	"v\000"
 10726 2177 01       		.byte	0x1
 10727 2178 0B02     		.2byte	0x20b
 10728 217a 90000000 		.4byte	0x90
 10729 217e CF280000 		.4byte	.LLST280
 10730 2182 28       		.uleb128 0x28
 10731 2183 6B00     		.ascii	"k\000"
 10732 2185 01       		.byte	0x1
 10733 2186 0C02     		.2byte	0x20c
 10734 2188 90000000 		.4byte	0x90
 10735 218c 25290000 		.4byte	.LLST281
 10736 2190 28       		.uleb128 0x28
 10737 2191 73686C00 		.ascii	"shl\000"
 10738 2195 01       		.byte	0x1
 10739 2196 0C02     		.2byte	0x20c
 10740 2198 90000000 		.4byte	0x90
 10741 219c 8C290000 		.4byte	.LLST282
 10742 21a0 28       		.uleb128 0x28
 10743 21a1 7300     		.ascii	"s\000"
 10744 21a3 01       		.byte	0x1
 10745 21a4 0E02     		.2byte	0x20e
 10746 21a6 97000000 		.4byte	0x97
 10747 21aa CE290000 		.4byte	.LLST283
 10748 21ae 28       		.uleb128 0x28
 10749 21af 6100     		.ascii	"a\000"
 10750 21b1 01       		.byte	0x1
 10751 21b2 2202     		.2byte	0x222
 10752 21b4 90000000 		.4byte	0x90
 10753 21b8 F7290000 		.4byte	.LLST284
 10754 21bc 28       		.uleb128 0x28
 10755 21bd 6200     		.ascii	"b\000"
 10756 21bf 01       		.byte	0x1
 10757 21c0 2302     		.2byte	0x223
 10758 21c2 90000000 		.4byte	0x90
 10759 21c6 152A0000 		.4byte	.LLST285
 10760 21ca 30       		.uleb128 0x30
 10761 21cb C91F0000 		.4byte	0x1fc9
 10762 21cf 82000000 		.4byte	.LBB330
 10763 21d3 9C000000 		.4byte	.LBE330-.LBB330
 10764 21d7 01       		.byte	0x1
 10765 21d8 0E02     		.2byte	0x20e
 10766 21da 2B220000 		.4byte	0x222b
 10767 21de 47       		.uleb128 0x47
 10768 21df E61F0000 		.4byte	0x1fe6
 10769 21e3 27       		.uleb128 0x27
 10770 21e4 DA1F0000 		.4byte	0x1fda
 10771 21e8 332A0000 		.4byte	.LLST286
 10772 21ec 29       		.uleb128 0x29
 10773 21ed 82000000 		.4byte	.LBB331
 10774 21f1 9C000000 		.4byte	.LBE331-.LBB331
 10775 21f5 3E       		.uleb128 0x3e
 10776 21f6 F21F0000 		.4byte	0x1ff2
 10777 21fa 462A0000 		.4byte	.LLST287
ARM GAS  C:\Users\rdn\AppData\Local\Temp\cciiQw7C.s 			page 227


 10778 21fe 3E       		.uleb128 0x3e
 10779 21ff FE1F0000 		.4byte	0x1ffe
 10780 2203 592A0000 		.4byte	.LLST288
 10781 2207 3E       		.uleb128 0x3e
 10782 2208 09200000 		.4byte	0x2009
 10783 220c 7B2A0000 		.4byte	.LLST289
 10784 2210 3E       		.uleb128 0x3e
 10785 2211 15200000 		.4byte	0x2015
 10786 2215 A22A0000 		.4byte	.LLST290
 10787 2219 22       		.uleb128 0x22
 10788 221a 1E010000 		.4byte	.LVL680
 10789 221e B3330000 		.4byte	0x33b3
 10790 2222 23       		.uleb128 0x23
 10791 2223 01       		.uleb128 0x1
 10792 2224 50       		.byte	0x50
 10793 2225 02       		.uleb128 0x2
 10794 2226 75       		.byte	0x75
 10795 2227 00       		.sleb128 0
 10796 2228 00       		.byte	0
 10797 2229 00       		.byte	0
 10798 222a 00       		.byte	0
 10799 222b 30       		.uleb128 0x30
 10800 222c C91F0000 		.4byte	0x1fc9
 10801 2230 36010000 		.4byte	.LBB332
 10802 2234 9C000000 		.4byte	.LBE332-.LBB332
 10803 2238 01       		.byte	0x1
 10804 2239 1102     		.2byte	0x211
 10805 223b 8C220000 		.4byte	0x228c
 10806 223f 47       		.uleb128 0x47
 10807 2240 E61F0000 		.4byte	0x1fe6
 10808 2244 27       		.uleb128 0x27
 10809 2245 DA1F0000 		.4byte	0x1fda
 10810 2249 052B0000 		.4byte	.LLST291
 10811 224d 29       		.uleb128 0x29
 10812 224e 36010000 		.4byte	.LBB333
 10813 2252 9C000000 		.4byte	.LBE333-.LBB333
 10814 2256 3E       		.uleb128 0x3e
 10815 2257 F21F0000 		.4byte	0x1ff2
 10816 225b 182B0000 		.4byte	.LLST292
 10817 225f 3E       		.uleb128 0x3e
 10818 2260 FE1F0000 		.4byte	0x1ffe
 10819 2264 2B2B0000 		.4byte	.LLST293
 10820 2268 3E       		.uleb128 0x3e
 10821 2269 09200000 		.4byte	0x2009
 10822 226d 402B0000 		.4byte	.LLST294
 10823 2271 3E       		.uleb128 0x3e
 10824 2272 15200000 		.4byte	0x2015
 10825 2276 672B0000 		.4byte	.LLST295
 10826 227a 22       		.uleb128 0x22
 10827 227b D2010000 		.4byte	.LVL695
 10828 227f B3330000 		.4byte	0x33b3
 10829 2283 23       		.uleb128 0x23
 10830 2284 01       		.uleb128 0x1
 10831 2285 50       		.byte	0x50
 10832 2286 02       		.uleb128 0x2
 10833 2287 75       		.byte	0x75
 10834 2288 00       		.sleb128 0
ARM GAS  C:\Users\rdn\AppData\Local\Temp\cciiQw7C.s 			page 228


 10835 2289 00       		.byte	0
 10836 228a 00       		.byte	0
 10837 228b 00       		.byte	0
 10838 228c 48       		.uleb128 0x48
 10839 228d C91F0000 		.4byte	0x1fc9
 10840 2291 E2010000 		.4byte	.LBB334
 10841 2295 88010000 		.4byte	.Ldebug_ranges0+0x188
 10842 2299 01       		.byte	0x1
 10843 229a 1A02     		.2byte	0x21a
 10844 229c E9220000 		.4byte	0x22e9
 10845 22a0 47       		.uleb128 0x47
 10846 22a1 E61F0000 		.4byte	0x1fe6
 10847 22a5 27       		.uleb128 0x27
 10848 22a6 DA1F0000 		.4byte	0x1fda
 10849 22aa CA2B0000 		.4byte	.LLST296
 10850 22ae 42       		.uleb128 0x42
 10851 22af 88010000 		.4byte	.Ldebug_ranges0+0x188
 10852 22b3 3E       		.uleb128 0x3e
 10853 22b4 F21F0000 		.4byte	0x1ff2
 10854 22b8 DD2B0000 		.4byte	.LLST297
 10855 22bc 3E       		.uleb128 0x3e
 10856 22bd FE1F0000 		.4byte	0x1ffe
 10857 22c1 F02B0000 		.4byte	.LLST298
 10858 22c5 3E       		.uleb128 0x3e
 10859 22c6 09200000 		.4byte	0x2009
 10860 22ca 052C0000 		.4byte	.LLST299
 10861 22ce 3E       		.uleb128 0x3e
 10862 22cf 15200000 		.4byte	0x2015
 10863 22d3 2C2C0000 		.4byte	.LLST300
 10864 22d7 22       		.uleb128 0x22
 10865 22d8 EA020000 		.4byte	.LVL725
 10866 22dc B3330000 		.4byte	0x33b3
 10867 22e0 23       		.uleb128 0x23
 10868 22e1 01       		.uleb128 0x1
 10869 22e2 50       		.byte	0x50
 10870 22e3 02       		.uleb128 0x2
 10871 22e4 75       		.byte	0x75
 10872 22e5 00       		.sleb128 0
 10873 22e6 00       		.byte	0
 10874 22e7 00       		.byte	0
 10875 22e8 00       		.byte	0
 10876 22e9 30       		.uleb128 0x30
 10877 22ea CB160000 		.4byte	0x16cb
 10878 22ee EA010000 		.4byte	.LBB337
 10879 22f2 1C000000 		.4byte	.LBE337-.LBB337
 10880 22f6 01       		.byte	0x1
 10881 22f7 1602     		.2byte	0x216
 10882 22f9 68230000 		.4byte	0x2368
 10883 22fd 27       		.uleb128 0x27
 10884 22fe DB160000 		.4byte	0x16db
 10885 2302 8F2C0000 		.4byte	.LLST301
 10886 2306 43       		.uleb128 0x43
 10887 2307 CE050000 		.4byte	0x5ce
 10888 230b EA010000 		.4byte	.LBB339
 10889 230f 1C000000 		.4byte	.LBE339-.LBB339
 10890 2313 05       		.byte	0x5
 10891 2314 EC       		.byte	0xec
ARM GAS  C:\Users\rdn\AppData\Local\Temp\cciiQw7C.s 			page 229


 10892 2315 27       		.uleb128 0x27
 10893 2316 E9050000 		.4byte	0x5e9
 10894 231a A22C0000 		.4byte	.LLST302
 10895 231e 27       		.uleb128 0x27
 10896 231f DE050000 		.4byte	0x5de
 10897 2323 8F2C0000 		.4byte	.LLST301
 10898 2327 29       		.uleb128 0x29
 10899 2328 EA010000 		.4byte	.LBB340
 10900 232c 1C000000 		.4byte	.LBE340-.LBB340
 10901 2330 3E       		.uleb128 0x3e
 10902 2331 F2050000 		.4byte	0x5f2
 10903 2335 B62C0000 		.4byte	.LLST304
 10904 2339 21       		.uleb128 0x21
 10905 233a F2010000 		.4byte	.LBB341
 10906 233e 0C000000 		.4byte	.LBE341-.LBB341
 10907 2342 50230000 		.4byte	0x2350
 10908 2346 3E       		.uleb128 0x3e
 10909 2347 FE050000 		.4byte	0x5fe
 10910 234b CB2C0000 		.4byte	.LLST305
 10911 234f 00       		.byte	0
 10912 2350 22       		.uleb128 0x22
 10913 2351 06020000 		.4byte	.LVL701
 10914 2355 91330000 		.4byte	0x3391
 10915 2359 23       		.uleb128 0x23
 10916 235a 01       		.uleb128 0x1
 10917 235b 50       		.byte	0x50
 10918 235c 02       		.uleb128 0x2
 10919 235d 75       		.byte	0x75
 10920 235e 00       		.sleb128 0
 10921 235f 23       		.uleb128 0x23
 10922 2360 01       		.uleb128 0x1
 10923 2361 51       		.byte	0x51
 10924 2362 01       		.uleb128 0x1
 10925 2363 31       		.byte	0x31
 10926 2364 00       		.byte	0
 10927 2365 00       		.byte	0
 10928 2366 00       		.byte	0
 10929 2367 00       		.byte	0
 10930 2368 30       		.uleb128 0x30
 10931 2369 CB160000 		.4byte	0x16cb
 10932 236d 0E020000 		.4byte	.LBB342
 10933 2371 1C000000 		.4byte	.LBE342-.LBB342
 10934 2375 01       		.byte	0x1
 10935 2376 1702     		.2byte	0x217
 10936 2378 E7230000 		.4byte	0x23e7
 10937 237c 27       		.uleb128 0x27
 10938 237d DB160000 		.4byte	0x16db
 10939 2381 DE2C0000 		.4byte	.LLST306
 10940 2385 43       		.uleb128 0x43
 10941 2386 CE050000 		.4byte	0x5ce
 10942 238a 0E020000 		.4byte	.LBB344
 10943 238e 1C000000 		.4byte	.LBE344-.LBB344
 10944 2392 05       		.byte	0x5
 10945 2393 EC       		.byte	0xec
 10946 2394 27       		.uleb128 0x27
 10947 2395 E9050000 		.4byte	0x5e9
 10948 2399 F12C0000 		.4byte	.LLST307
ARM GAS  C:\Users\rdn\AppData\Local\Temp\cciiQw7C.s 			page 230


 10949 239d 27       		.uleb128 0x27
 10950 239e DE050000 		.4byte	0x5de
 10951 23a2 DE2C0000 		.4byte	.LLST306
 10952 23a6 29       		.uleb128 0x29
 10953 23a7 0E020000 		.4byte	.LBB345
 10954 23ab 1C000000 		.4byte	.LBE345-.LBB345
 10955 23af 3E       		.uleb128 0x3e
 10956 23b0 F2050000 		.4byte	0x5f2
 10957 23b4 052D0000 		.4byte	.LLST309
 10958 23b8 21       		.uleb128 0x21
 10959 23b9 16020000 		.4byte	.LBB346
 10960 23bd 0C000000 		.4byte	.LBE346-.LBB346
 10961 23c1 CF230000 		.4byte	0x23cf
 10962 23c5 3E       		.uleb128 0x3e
 10963 23c6 FE050000 		.4byte	0x5fe
 10964 23ca 1A2D0000 		.4byte	.LLST310
 10965 23ce 00       		.byte	0
 10966 23cf 22       		.uleb128 0x22
 10967 23d0 2A020000 		.4byte	.LVL706
 10968 23d4 91330000 		.4byte	0x3391
 10969 23d8 23       		.uleb128 0x23
 10970 23d9 01       		.uleb128 0x1
 10971 23da 50       		.byte	0x50
 10972 23db 02       		.uleb128 0x2
 10973 23dc 75       		.byte	0x75
 10974 23dd 00       		.sleb128 0
 10975 23de 23       		.uleb128 0x23
 10976 23df 01       		.uleb128 0x1
 10977 23e0 51       		.byte	0x51
 10978 23e1 01       		.uleb128 0x1
 10979 23e2 31       		.byte	0x31
 10980 23e3 00       		.byte	0
 10981 23e4 00       		.byte	0
 10982 23e5 00       		.byte	0
 10983 23e6 00       		.byte	0
 10984 23e7 30       		.uleb128 0x30
 10985 23e8 CB160000 		.4byte	0x16cb
 10986 23ec 2C030000 		.4byte	.LBB348
 10987 23f0 1C000000 		.4byte	.LBE348-.LBB348
 10988 23f4 01       		.byte	0x1
 10989 23f5 2802     		.2byte	0x228
 10990 23f7 66240000 		.4byte	0x2466
 10991 23fb 27       		.uleb128 0x27
 10992 23fc DB160000 		.4byte	0x16db
 10993 2400 2D2D0000 		.4byte	.LLST311
 10994 2404 43       		.uleb128 0x43
 10995 2405 CE050000 		.4byte	0x5ce
 10996 2409 2C030000 		.4byte	.LBB350
 10997 240d 1C000000 		.4byte	.LBE350-.LBB350
 10998 2411 05       		.byte	0x5
 10999 2412 EC       		.byte	0xec
 11000 2413 27       		.uleb128 0x27
 11001 2414 E9050000 		.4byte	0x5e9
 11002 2418 402D0000 		.4byte	.LLST312
 11003 241c 27       		.uleb128 0x27
 11004 241d DE050000 		.4byte	0x5de
 11005 2421 2D2D0000 		.4byte	.LLST311
ARM GAS  C:\Users\rdn\AppData\Local\Temp\cciiQw7C.s 			page 231


 11006 2425 29       		.uleb128 0x29
 11007 2426 2C030000 		.4byte	.LBB351
 11008 242a 1C000000 		.4byte	.LBE351-.LBB351
 11009 242e 3E       		.uleb128 0x3e
 11010 242f F2050000 		.4byte	0x5f2
 11011 2433 542D0000 		.4byte	.LLST314
 11012 2437 21       		.uleb128 0x21
 11013 2438 34030000 		.4byte	.LBB352
 11014 243c 0C000000 		.4byte	.LBE352-.LBB352
 11015 2440 4E240000 		.4byte	0x244e
 11016 2444 3E       		.uleb128 0x3e
 11017 2445 FE050000 		.4byte	0x5fe
 11018 2449 692D0000 		.4byte	.LLST315
 11019 244d 00       		.byte	0
 11020 244e 22       		.uleb128 0x22
 11021 244f 48030000 		.4byte	.LVL740
 11022 2453 91330000 		.4byte	0x3391
 11023 2457 23       		.uleb128 0x23
 11024 2458 01       		.uleb128 0x1
 11025 2459 50       		.byte	0x50
 11026 245a 02       		.uleb128 0x2
 11027 245b 75       		.byte	0x75
 11028 245c 00       		.sleb128 0
 11029 245d 23       		.uleb128 0x23
 11030 245e 01       		.uleb128 0x1
 11031 245f 51       		.byte	0x51
 11032 2460 01       		.uleb128 0x1
 11033 2461 31       		.byte	0x31
 11034 2462 00       		.byte	0
 11035 2463 00       		.byte	0
 11036 2464 00       		.byte	0
 11037 2465 00       		.byte	0
 11038 2466 36       		.uleb128 0x36
 11039 2467 CB160000 		.4byte	0x16cb
 11040 246b 7E030000 		.4byte	.LBB353
 11041 246f 1C000000 		.4byte	.LBE353-.LBB353
 11042 2473 01       		.byte	0x1
 11043 2474 2902     		.2byte	0x229
 11044 2476 27       		.uleb128 0x27
 11045 2477 DB160000 		.4byte	0x16db
 11046 247b 7C2D0000 		.4byte	.LLST316
 11047 247f 43       		.uleb128 0x43
 11048 2480 CE050000 		.4byte	0x5ce
 11049 2484 7E030000 		.4byte	.LBB355
 11050 2488 1C000000 		.4byte	.LBE355-.LBB355
 11051 248c 05       		.byte	0x5
 11052 248d EC       		.byte	0xec
 11053 248e 27       		.uleb128 0x27
 11054 248f E9050000 		.4byte	0x5e9
 11055 2493 8F2D0000 		.4byte	.LLST317
 11056 2497 27       		.uleb128 0x27
 11057 2498 DE050000 		.4byte	0x5de
 11058 249c 7C2D0000 		.4byte	.LLST316
 11059 24a0 29       		.uleb128 0x29
 11060 24a1 7E030000 		.4byte	.LBB356
 11061 24a5 1C000000 		.4byte	.LBE356-.LBB356
 11062 24a9 3E       		.uleb128 0x3e
ARM GAS  C:\Users\rdn\AppData\Local\Temp\cciiQw7C.s 			page 232


 11063 24aa F2050000 		.4byte	0x5f2
 11064 24ae A32D0000 		.4byte	.LLST319
 11065 24b2 21       		.uleb128 0x21
 11066 24b3 86030000 		.4byte	.LBB357
 11067 24b7 0C000000 		.4byte	.LBE357-.LBB357
 11068 24bb C9240000 		.4byte	0x24c9
 11069 24bf 3E       		.uleb128 0x3e
 11070 24c0 FE050000 		.4byte	0x5fe
 11071 24c4 B82D0000 		.4byte	.LLST320
 11072 24c8 00       		.byte	0
 11073 24c9 22       		.uleb128 0x22
 11074 24ca 9A030000 		.4byte	.LVL747
 11075 24ce 91330000 		.4byte	0x3391
 11076 24d2 23       		.uleb128 0x23
 11077 24d3 01       		.uleb128 0x1
 11078 24d4 50       		.byte	0x50
 11079 24d5 02       		.uleb128 0x2
 11080 24d6 75       		.byte	0x75
 11081 24d7 00       		.sleb128 0
 11082 24d8 23       		.uleb128 0x23
 11083 24d9 01       		.uleb128 0x1
 11084 24da 51       		.byte	0x51
 11085 24db 01       		.uleb128 0x1
 11086 24dc 31       		.byte	0x31
 11087 24dd 00       		.byte	0
 11088 24de 00       		.byte	0
 11089 24df 00       		.byte	0
 11090 24e0 00       		.byte	0
 11091 24e1 00       		.byte	0
 11092 24e2 00       		.byte	0
 11093 24e3 00       		.byte	0
 11094 24e4 22       		.uleb128 0x22
 11095 24e5 2A000000 		.4byte	.LVL656
 11096 24e9 88090000 		.4byte	0x988
 11097 24ed 23       		.uleb128 0x23
 11098 24ee 01       		.uleb128 0x1
 11099 24ef 50       		.byte	0x50
 11100 24f0 02       		.uleb128 0x2
 11101 24f1 76       		.byte	0x76
 11102 24f2 00       		.sleb128 0
 11103 24f3 23       		.uleb128 0x23
 11104 24f4 01       		.uleb128 0x1
 11105 24f5 51       		.byte	0x51
 11106 24f6 03       		.uleb128 0x3
 11107 24f7 F3       		.byte	0xf3
 11108 24f8 01       		.uleb128 0x1
 11109 24f9 53       		.byte	0x53
 11110 24fa 23       		.uleb128 0x23
 11111 24fb 01       		.uleb128 0x1
 11112 24fc 52       		.byte	0x52
 11113 24fd 01       		.uleb128 0x1
 11114 24fe 30       		.byte	0x30
 11115 24ff 00       		.byte	0
 11116 2500 00       		.byte	0
 11117 2501 0E       		.uleb128 0xe
 11118 2502 04       		.byte	0x4
 11119 2503 A9000000 		.4byte	0xa9
ARM GAS  C:\Users\rdn\AppData\Local\Temp\cciiQw7C.s 			page 233


 11120 2507 37       		.uleb128 0x37
 11121 2508 99080000 		.4byte	.LASF155
 11122 250c 01       		.byte	0x1
 11123 250d 9E02     		.2byte	0x29e
 11124 250f 00000000 		.4byte	.LFB33
 11125 2513 D8010000 		.4byte	.LFE33-.LFB33
 11126 2517 01       		.uleb128 0x1
 11127 2518 9C       		.byte	0x9c
 11128 2519 B5270000 		.4byte	0x27b5
 11129 251d 2D       		.uleb128 0x2d
 11130 251e 7A040000 		.4byte	.LASF85
 11131 2522 01       		.byte	0x1
 11132 2523 9E02     		.2byte	0x29e
 11133 2525 B6140000 		.4byte	0x14b6
 11134 2529 CB2D0000 		.4byte	.LLST321
 11135 252d 2D       		.uleb128 0x2d
 11136 252e FB040000 		.4byte	.LASF95
 11137 2532 01       		.byte	0x1
 11138 2533 9F02     		.2byte	0x29f
 11139 2535 90000000 		.4byte	0x90
 11140 2539 F72D0000 		.4byte	.LLST322
 11141 253d 2C       		.uleb128 0x2c
 11142 253e 7800     		.ascii	"x\000"
 11143 2540 01       		.byte	0x1
 11144 2541 9F02     		.2byte	0x29f
 11145 2543 B8080000 		.4byte	0x8b8
 11146 2547 782E0000 		.4byte	.LLST323
 11147 254b 2C       		.uleb128 0x2c
 11148 254c 6E7100   		.ascii	"nq\000"
 11149 254f 01       		.byte	0x1
 11150 2550 9F02     		.2byte	0x29f
 11151 2552 90000000 		.4byte	0x90
 11152 2556 A42E0000 		.4byte	.LLST324
 11153 255a 32       		.uleb128 0x32
 11154 255b 68050000 		.4byte	.LASF120
 11155 255f 01       		.byte	0x1
 11156 2560 9F02     		.2byte	0x29f
 11157 2562 01250000 		.4byte	0x2501
 11158 2566 02       		.uleb128 0x2
 11159 2567 91       		.byte	0x91
 11160 2568 00       		.sleb128 0
 11161 2569 29       		.uleb128 0x29
 11162 256a 16000000 		.4byte	.LBB384
 11163 256e AE010000 		.4byte	.LBE384-.LBB384
 11164 2572 28       		.uleb128 0x28
 11165 2573 6900     		.ascii	"i\000"
 11166 2575 01       		.byte	0x1
 11167 2576 A102     		.2byte	0x2a1
 11168 2578 90000000 		.4byte	0x90
 11169 257c CF2E0000 		.4byte	.LLST325
 11170 2580 29       		.uleb128 0x29
 11171 2581 1A000000 		.4byte	.LBB385
 11172 2585 9A010000 		.4byte	.LBE385-.LBB385
 11173 2589 28       		.uleb128 0x28
 11174 258a 6100     		.ascii	"a\000"
 11175 258c 01       		.byte	0x1
 11176 258d A302     		.2byte	0x2a3
ARM GAS  C:\Users\rdn\AppData\Local\Temp\cciiQw7C.s 			page 234


 11177 258f 25000000 		.4byte	0x25
 11178 2593 EE2E0000 		.4byte	.LLST326
 11179 2597 28       		.uleb128 0x28
 11180 2598 6200     		.ascii	"b\000"
 11181 259a 01       		.byte	0x1
 11182 259b A302     		.2byte	0x2a3
 11183 259d 25000000 		.4byte	0x25
 11184 25a1 0C2F0000 		.4byte	.LLST327
 11185 25a5 30       		.uleb128 0x30
 11186 25a6 CB160000 		.4byte	0x16cb
 11187 25aa 56000000 		.4byte	.LBB386
 11188 25ae 22000000 		.4byte	.LBE386-.LBB386
 11189 25b2 01       		.byte	0x1
 11190 25b3 A802     		.2byte	0x2a8
 11191 25b5 24260000 		.4byte	0x2624
 11192 25b9 27       		.uleb128 0x27
 11193 25ba DB160000 		.4byte	0x16db
 11194 25be 1F2F0000 		.4byte	.LLST328
 11195 25c2 43       		.uleb128 0x43
 11196 25c3 CE050000 		.4byte	0x5ce
 11197 25c7 56000000 		.4byte	.LBB388
 11198 25cb 22000000 		.4byte	.LBE388-.LBB388
 11199 25cf 05       		.byte	0x5
 11200 25d0 EC       		.byte	0xec
 11201 25d1 27       		.uleb128 0x27
 11202 25d2 E9050000 		.4byte	0x5e9
 11203 25d6 322F0000 		.4byte	.LLST329
 11204 25da 27       		.uleb128 0x27
 11205 25db DE050000 		.4byte	0x5de
 11206 25df 1F2F0000 		.4byte	.LLST328
 11207 25e3 29       		.uleb128 0x29
 11208 25e4 56000000 		.4byte	.LBB389
 11209 25e8 22000000 		.4byte	.LBE389-.LBB389
 11210 25ec 3E       		.uleb128 0x3e
 11211 25ed F2050000 		.4byte	0x5f2
 11212 25f1 462F0000 		.4byte	.LLST331
 11213 25f5 21       		.uleb128 0x21
 11214 25f6 60000000 		.4byte	.LBB390
 11215 25fa 10000000 		.4byte	.LBE390-.LBB390
 11216 25fe 0C260000 		.4byte	0x260c
 11217 2602 3E       		.uleb128 0x3e
 11218 2603 FE050000 		.4byte	0x5fe
 11219 2607 5B2F0000 		.4byte	.LLST332
 11220 260b 00       		.byte	0
 11221 260c 22       		.uleb128 0x22
 11222 260d 78000000 		.4byte	.LVL776
 11223 2611 91330000 		.4byte	0x3391
 11224 2615 23       		.uleb128 0x23
 11225 2616 01       		.uleb128 0x1
 11226 2617 50       		.byte	0x50
 11227 2618 02       		.uleb128 0x2
 11228 2619 7B       		.byte	0x7b
 11229 261a 00       		.sleb128 0
 11230 261b 23       		.uleb128 0x23
 11231 261c 01       		.uleb128 0x1
 11232 261d 51       		.byte	0x51
 11233 261e 01       		.uleb128 0x1
ARM GAS  C:\Users\rdn\AppData\Local\Temp\cciiQw7C.s 			page 235


 11234 261f 31       		.byte	0x31
 11235 2620 00       		.byte	0
 11236 2621 00       		.byte	0
 11237 2622 00       		.byte	0
 11238 2623 00       		.byte	0
 11239 2624 30       		.uleb128 0x30
 11240 2625 CB160000 		.4byte	0x16cb
 11241 2629 BC000000 		.4byte	.LBB391
 11242 262d 22000000 		.4byte	.LBE391-.LBB391
 11243 2631 01       		.byte	0x1
 11244 2632 AD02     		.2byte	0x2ad
 11245 2634 A3260000 		.4byte	0x26a3
 11246 2638 27       		.uleb128 0x27
 11247 2639 DB160000 		.4byte	0x16db
 11248 263d 6E2F0000 		.4byte	.LLST333
 11249 2641 43       		.uleb128 0x43
 11250 2642 CE050000 		.4byte	0x5ce
 11251 2646 BC000000 		.4byte	.LBB393
 11252 264a 22000000 		.4byte	.LBE393-.LBB393
 11253 264e 05       		.byte	0x5
 11254 264f EC       		.byte	0xec
 11255 2650 27       		.uleb128 0x27
 11256 2651 E9050000 		.4byte	0x5e9
 11257 2655 812F0000 		.4byte	.LLST334
 11258 2659 27       		.uleb128 0x27
 11259 265a DE050000 		.4byte	0x5de
 11260 265e 6E2F0000 		.4byte	.LLST333
 11261 2662 29       		.uleb128 0x29
 11262 2663 BC000000 		.4byte	.LBB394
 11263 2667 22000000 		.4byte	.LBE394-.LBB394
 11264 266b 3E       		.uleb128 0x3e
 11265 266c F2050000 		.4byte	0x5f2
 11266 2670 952F0000 		.4byte	.LLST336
 11267 2674 21       		.uleb128 0x21
 11268 2675 C6000000 		.4byte	.LBB395
 11269 2679 10000000 		.4byte	.LBE395-.LBB395
 11270 267d 8B260000 		.4byte	0x268b
 11271 2681 3E       		.uleb128 0x3e
 11272 2682 FE050000 		.4byte	0x5fe
 11273 2686 AA2F0000 		.4byte	.LLST337
 11274 268a 00       		.byte	0
 11275 268b 22       		.uleb128 0x22
 11276 268c DE000000 		.4byte	.LVL787
 11277 2690 91330000 		.4byte	0x3391
 11278 2694 23       		.uleb128 0x23
 11279 2695 01       		.uleb128 0x1
 11280 2696 50       		.byte	0x50
 11281 2697 02       		.uleb128 0x2
 11282 2698 7B       		.byte	0x7b
 11283 2699 00       		.sleb128 0
 11284 269a 23       		.uleb128 0x23
 11285 269b 01       		.uleb128 0x1
 11286 269c 51       		.byte	0x51
 11287 269d 01       		.uleb128 0x1
 11288 269e 31       		.byte	0x31
 11289 269f 00       		.byte	0
 11290 26a0 00       		.byte	0
ARM GAS  C:\Users\rdn\AppData\Local\Temp\cciiQw7C.s 			page 236


 11291 26a1 00       		.byte	0
 11292 26a2 00       		.byte	0
 11293 26a3 30       		.uleb128 0x30
 11294 26a4 CB160000 		.4byte	0x16cb
 11295 26a8 0A010000 		.4byte	.LBB396
 11296 26ac 22000000 		.4byte	.LBE396-.LBB396
 11297 26b0 01       		.byte	0x1
 11298 26b1 B202     		.2byte	0x2b2
 11299 26b3 22270000 		.4byte	0x2722
 11300 26b7 27       		.uleb128 0x27
 11301 26b8 DB160000 		.4byte	0x16db
 11302 26bc BD2F0000 		.4byte	.LLST338
 11303 26c0 43       		.uleb128 0x43
 11304 26c1 CE050000 		.4byte	0x5ce
 11305 26c5 0A010000 		.4byte	.LBB398
 11306 26c9 22000000 		.4byte	.LBE398-.LBB398
 11307 26cd 05       		.byte	0x5
 11308 26ce EC       		.byte	0xec
 11309 26cf 27       		.uleb128 0x27
 11310 26d0 E9050000 		.4byte	0x5e9
 11311 26d4 D02F0000 		.4byte	.LLST339
 11312 26d8 27       		.uleb128 0x27
 11313 26d9 DE050000 		.4byte	0x5de
 11314 26dd BD2F0000 		.4byte	.LLST338
 11315 26e1 29       		.uleb128 0x29
 11316 26e2 0A010000 		.4byte	.LBB399
 11317 26e6 22000000 		.4byte	.LBE399-.LBB399
 11318 26ea 3E       		.uleb128 0x3e
 11319 26eb F2050000 		.4byte	0x5f2
 11320 26ef E42F0000 		.4byte	.LLST341
 11321 26f3 21       		.uleb128 0x21
 11322 26f4 14010000 		.4byte	.LBB400
 11323 26f8 10000000 		.4byte	.LBE400-.LBB400
 11324 26fc 0A270000 		.4byte	0x270a
 11325 2700 3E       		.uleb128 0x3e
 11326 2701 FE050000 		.4byte	0x5fe
 11327 2705 F92F0000 		.4byte	.LLST342
 11328 2709 00       		.byte	0
 11329 270a 22       		.uleb128 0x22
 11330 270b 2C010000 		.4byte	.LVL795
 11331 270f 91330000 		.4byte	0x3391
 11332 2713 23       		.uleb128 0x23
 11333 2714 01       		.uleb128 0x1
 11334 2715 50       		.byte	0x50
 11335 2716 02       		.uleb128 0x2
 11336 2717 7B       		.byte	0x7b
 11337 2718 00       		.sleb128 0
 11338 2719 23       		.uleb128 0x23
 11339 271a 01       		.uleb128 0x1
 11340 271b 51       		.byte	0x51
 11341 271c 01       		.uleb128 0x1
 11342 271d 31       		.byte	0x31
 11343 271e 00       		.byte	0
 11344 271f 00       		.byte	0
 11345 2720 00       		.byte	0
 11346 2721 00       		.byte	0
 11347 2722 30       		.uleb128 0x30
ARM GAS  C:\Users\rdn\AppData\Local\Temp\cciiQw7C.s 			page 237


 11348 2723 CB160000 		.4byte	0x16cb
 11349 2727 72010000 		.4byte	.LBB401
 11350 272b 22000000 		.4byte	.LBE401-.LBB401
 11351 272f 01       		.byte	0x1
 11352 2730 B702     		.2byte	0x2b7
 11353 2732 A1270000 		.4byte	0x27a1
 11354 2736 27       		.uleb128 0x27
 11355 2737 DB160000 		.4byte	0x16db
 11356 273b 0C300000 		.4byte	.LLST343
 11357 273f 43       		.uleb128 0x43
 11358 2740 CE050000 		.4byte	0x5ce
 11359 2744 72010000 		.4byte	.LBB403
 11360 2748 22000000 		.4byte	.LBE403-.LBB403
 11361 274c 05       		.byte	0x5
 11362 274d EC       		.byte	0xec
 11363 274e 27       		.uleb128 0x27
 11364 274f E9050000 		.4byte	0x5e9
 11365 2753 1F300000 		.4byte	.LLST344
 11366 2757 27       		.uleb128 0x27
 11367 2758 DE050000 		.4byte	0x5de
 11368 275c 0C300000 		.4byte	.LLST343
 11369 2760 29       		.uleb128 0x29
 11370 2761 72010000 		.4byte	.LBB404
 11371 2765 22000000 		.4byte	.LBE404-.LBB404
 11372 2769 3E       		.uleb128 0x3e
 11373 276a F2050000 		.4byte	0x5f2
 11374 276e 33300000 		.4byte	.LLST346
 11375 2772 21       		.uleb128 0x21
 11376 2773 7C010000 		.4byte	.LBB405
 11377 2777 10000000 		.4byte	.LBE405-.LBB405
 11378 277b 89270000 		.4byte	0x2789
 11379 277f 3E       		.uleb128 0x3e
 11380 2780 FE050000 		.4byte	0x5fe
 11381 2784 48300000 		.4byte	.LLST347
 11382 2788 00       		.byte	0
 11383 2789 22       		.uleb128 0x22
 11384 278a 94010000 		.4byte	.LVL803
 11385 278e 91330000 		.4byte	0x3391
 11386 2792 23       		.uleb128 0x23
 11387 2793 01       		.uleb128 0x1
 11388 2794 50       		.byte	0x50
 11389 2795 02       		.uleb128 0x2
 11390 2796 7B       		.byte	0x7b
 11391 2797 00       		.sleb128 0
 11392 2798 23       		.uleb128 0x23
 11393 2799 01       		.uleb128 0x1
 11394 279a 51       		.byte	0x51
 11395 279b 01       		.uleb128 0x1
 11396 279c 31       		.byte	0x31
 11397 279d 00       		.byte	0
 11398 279e 00       		.byte	0
 11399 279f 00       		.byte	0
 11400 27a0 00       		.byte	0
 11401 27a1 22       		.uleb128 0x22
 11402 27a2 3A000000 		.4byte	.LVL769
 11403 27a6 6E330000 		.4byte	0x336e
 11404 27aa 23       		.uleb128 0x23
ARM GAS  C:\Users\rdn\AppData\Local\Temp\cciiQw7C.s 			page 238


 11405 27ab 01       		.uleb128 0x1
 11406 27ac 50       		.byte	0x50
 11407 27ad 03       		.uleb128 0x3
 11408 27ae F5       		.byte	0xf5
 11409 27af 05       		.uleb128 0x5
 11410 27b0 25       		.uleb128 0x25
 11411 27b1 00       		.byte	0
 11412 27b2 00       		.byte	0
 11413 27b3 00       		.byte	0
 11414 27b4 00       		.byte	0
 11415 27b5 4C       		.uleb128 0x4c
 11416 27b6 CC080000 		.4byte	.LASF162
 11417 27ba 01       		.byte	0x1
 11418 27bb 3403     		.2byte	0x334
 11419 27bd 00000000 		.4byte	.LFB40
 11420 27c1 58010000 		.4byte	.LFE40-.LFB40
 11421 27c5 01       		.uleb128 0x1
 11422 27c6 9C       		.byte	0x9c
 11423 27c7 D32A0000 		.4byte	0x2ad3
 11424 27cb 2C       		.uleb128 0x2c
 11425 27cc 647400   		.ascii	"dt\000"
 11426 27cf 01       		.byte	0x1
 11427 27d0 3503     		.2byte	0x335
 11428 27d2 CA000000 		.4byte	0xca
 11429 27d6 5B300000 		.4byte	.LLST348
 11430 27da 2C       		.uleb128 0x2c
 11431 27db 737200   		.ascii	"sr\000"
 11432 27de 01       		.byte	0x1
 11433 27df 3503     		.2byte	0x335
 11434 27e1 F9000000 		.4byte	0xf9
 11435 27e5 7C300000 		.4byte	.LLST349
 11436 27e9 2D       		.uleb128 0x2d
 11437 27ea 22050000 		.4byte	.LASF87
 11438 27ee 01       		.byte	0x1
 11439 27ef 3503     		.2byte	0x335
 11440 27f1 90000000 		.4byte	0x90
 11441 27f5 9D300000 		.4byte	.LLST350
 11442 27f9 2D       		.uleb128 0x2d
 11443 27fa C8020000 		.4byte	.LASF156
 11444 27fe 01       		.byte	0x1
 11445 27ff 3603     		.2byte	0x336
 11446 2801 3A010000 		.4byte	0x13a
 11447 2805 BC300000 		.4byte	.LLST351
 11448 2809 2E       		.uleb128 0x2e
 11449 280a 746E7300 		.ascii	"tns\000"
 11450 280e 01       		.byte	0x1
 11451 280f 3603     		.2byte	0x336
 11452 2811 D32A0000 		.4byte	0x2ad3
 11453 2815 02       		.uleb128 0x2
 11454 2816 91       		.byte	0x91
 11455 2817 00       		.sleb128 0
 11456 2818 32       		.uleb128 0x32
 11457 2819 2C090000 		.4byte	.LASF157
 11458 281d 01       		.byte	0x1
 11459 281e 3703     		.2byte	0x337
 11460 2820 DE2A0000 		.4byte	0x2ade
 11461 2824 02       		.uleb128 0x2
ARM GAS  C:\Users\rdn\AppData\Local\Temp\cciiQw7C.s 			page 239


 11462 2825 91       		.byte	0x91
 11463 2826 04       		.sleb128 4
 11464 2827 2E       		.uleb128 0x2e
 11465 2828 7800     		.ascii	"x\000"
 11466 282a 01       		.byte	0x1
 11467 282b 3803     		.2byte	0x338
 11468 282d B8080000 		.4byte	0x8b8
 11469 2831 02       		.uleb128 0x2
 11470 2832 91       		.byte	0x91
 11471 2833 08       		.sleb128 8
 11472 2834 32       		.uleb128 0x32
 11473 2835 F4000000 		.4byte	.LASF158
 11474 2839 01       		.byte	0x1
 11475 283a 3803     		.2byte	0x338
 11476 283c E42A0000 		.4byte	0x2ae4
 11477 2840 02       		.uleb128 0x2
 11478 2841 91       		.byte	0x91
 11479 2842 0C       		.sleb128 12
 11480 2843 33       		.uleb128 0x33
 11481 2844 B3080000 		.4byte	.LASF125
 11482 2848 01       		.byte	0x1
 11483 2849 3A03     		.2byte	0x33a
 11484 284b 3A010000 		.4byte	0x13a
 11485 284f 02       		.uleb128 0x2
 11486 2850 91       		.byte	0x91
 11487 2851 5F       		.sleb128 -33
 11488 2852 4D       		.uleb128 0x4d
 11489 2853 CC050000 		.4byte	.LASF159
 11490 2857 01       		.byte	0x1
 11491 2858 3E03     		.2byte	0x33e
 11492 285a D2070000 		.4byte	0x7d2
 11493 285e 08       		.byte	0x8
 11494 285f 4D       		.uleb128 0x4d
 11495 2860 4F000000 		.4byte	.LASF160
 11496 2864 01       		.byte	0x1
 11497 2865 3F03     		.2byte	0x33f
 11498 2867 D2070000 		.4byte	0x7d2
 11499 286b 03       		.byte	0x3
 11500 286c 2A       		.uleb128 0x2a
 11501 286d B3040000 		.4byte	.LASF96
 11502 2871 01       		.byte	0x1
 11503 2872 4103     		.2byte	0x341
 11504 2874 90000000 		.4byte	0x90
 11505 2878 DD300000 		.4byte	.LLST352
 11506 287c 2A       		.uleb128 0x2a
 11507 287d E3040000 		.4byte	.LASF35
 11508 2881 01       		.byte	0x1
 11509 2882 4703     		.2byte	0x347
 11510 2884 25000000 		.4byte	0x25
 11511 2888 F0300000 		.4byte	.LLST353
 11512 288c 2A       		.uleb128 0x2a
 11513 288d 62060000 		.4byte	.LASF89
 11514 2891 01       		.byte	0x1
 11515 2892 4B03     		.2byte	0x34b
 11516 2894 90000000 		.4byte	0x90
 11517 2898 30310000 		.4byte	.LLST354
 11518 289c 33       		.uleb128 0x33
ARM GAS  C:\Users\rdn\AppData\Local\Temp\cciiQw7C.s 			page 240


 11519 289d 04070000 		.4byte	.LASF126
 11520 28a1 01       		.byte	0x1
 11521 28a2 4D03     		.2byte	0x34d
 11522 28a4 90000000 		.4byte	0x90
 11523 28a8 02       		.uleb128 0x2
 11524 28a9 91       		.byte	0x91
 11525 28aa 58       		.sleb128 -40
 11526 28ab 2A       		.uleb128 0x2a
 11527 28ac D4070000 		.4byte	.LASF92
 11528 28b0 01       		.byte	0x1
 11529 28b1 4D03     		.2byte	0x34d
 11530 28b3 90000000 		.4byte	0x90
 11531 28b7 4E310000 		.4byte	.LLST355
 11532 28bb 2A       		.uleb128 0x2a
 11533 28bc FB040000 		.4byte	.LASF95
 11534 28c0 01       		.byte	0x1
 11535 28c1 5403     		.2byte	0x354
 11536 28c3 90000000 		.4byte	0x90
 11537 28c7 77310000 		.4byte	.LLST356
 11538 28cb 2A       		.uleb128 0x2a
 11539 28cc 6F040000 		.4byte	.LASF161
 11540 28d0 01       		.byte	0x1
 11541 28d1 5B03     		.2byte	0x35b
 11542 28d3 90000000 		.4byte	0x90
 11543 28d7 95310000 		.4byte	.LLST357
 11544 28db 3C       		.uleb128 0x3c
 11545 28dc 1C000000 		.4byte	.LVL815
 11546 28e0 310E0000 		.4byte	0xe31
 11547 28e4 FE280000 		.4byte	0x28fe
 11548 28e8 23       		.uleb128 0x23
 11549 28e9 01       		.uleb128 0x1
 11550 28ea 50       		.byte	0x50
 11551 28eb 04       		.uleb128 0x4
 11552 28ec 91       		.byte	0x91
 11553 28ed 48       		.sleb128 -56
 11554 28ee 94       		.byte	0x94
 11555 28ef 01       		.byte	0x1
 11556 28f0 23       		.uleb128 0x23
 11557 28f1 01       		.uleb128 0x1
 11558 28f2 51       		.byte	0x51
 11559 28f3 02       		.uleb128 0x2
 11560 28f4 74       		.byte	0x74
 11561 28f5 00       		.sleb128 0
 11562 28f6 23       		.uleb128 0x23
 11563 28f7 01       		.uleb128 0x1
 11564 28f8 52       		.byte	0x52
 11565 28f9 03       		.uleb128 0x3
 11566 28fa 91       		.byte	0x91
 11567 28fb 50       		.sleb128 -48
 11568 28fc 06       		.byte	0x6
 11569 28fd 00       		.byte	0
 11570 28fe 3C       		.uleb128 0x3c
 11571 28ff 24000000 		.4byte	.LVL816
 11572 2903 BE330000 		.4byte	0x33be
 11573 2907 12290000 		.4byte	0x2912
 11574 290b 23       		.uleb128 0x23
 11575 290c 01       		.uleb128 0x1
ARM GAS  C:\Users\rdn\AppData\Local\Temp\cciiQw7C.s 			page 241


 11576 290d 50       		.byte	0x50
 11577 290e 02       		.uleb128 0x2
 11578 290f 74       		.byte	0x74
 11579 2910 00       		.sleb128 0
 11580 2911 00       		.byte	0
 11581 2912 3C       		.uleb128 0x3c
 11582 2913 2C000000 		.4byte	.LVL817
 11583 2917 C9330000 		.4byte	0x33c9
 11584 291b 26290000 		.4byte	0x2926
 11585 291f 23       		.uleb128 0x23
 11586 2920 01       		.uleb128 0x1
 11587 2921 50       		.byte	0x50
 11588 2922 02       		.uleb128 0x2
 11589 2923 76       		.byte	0x76
 11590 2924 00       		.sleb128 0
 11591 2925 00       		.byte	0
 11592 2926 3D       		.uleb128 0x3d
 11593 2927 32000000 		.4byte	.LVL818
 11594 292b D4330000 		.4byte	0x33d4
 11595 292f 3C       		.uleb128 0x3c
 11596 2930 3A000000 		.4byte	.LVL819
 11597 2934 DF330000 		.4byte	0x33df
 11598 2938 44290000 		.4byte	0x2944
 11599 293c 23       		.uleb128 0x23
 11600 293d 01       		.uleb128 0x1
 11601 293e 50       		.byte	0x50
 11602 293f 03       		.uleb128 0x3
 11603 2940 91       		.byte	0x91
 11604 2941 00       		.sleb128 0
 11605 2942 06       		.byte	0x6
 11606 2943 00       		.byte	0
 11607 2944 3D       		.uleb128 0x3d
 11608 2945 58000000 		.4byte	.LVL823
 11609 2949 6E330000 		.4byte	0x336e
 11610 294d 3D       		.uleb128 0x3d
 11611 294e 5E000000 		.4byte	.LVL824
 11612 2952 EA330000 		.4byte	0x33ea
 11613 2956 3C       		.uleb128 0x3c
 11614 2957 84000000 		.4byte	.LVL832
 11615 295b 09060000 		.4byte	0x609
 11616 295f 71290000 		.4byte	0x2971
 11617 2963 23       		.uleb128 0x23
 11618 2964 01       		.uleb128 0x1
 11619 2965 50       		.byte	0x50
 11620 2966 02       		.uleb128 0x2
 11621 2967 74       		.byte	0x74
 11622 2968 00       		.sleb128 0
 11623 2969 23       		.uleb128 0x23
 11624 296a 01       		.uleb128 0x1
 11625 296b 51       		.byte	0x51
 11626 296c 03       		.uleb128 0x3
 11627 296d 91       		.byte	0x91
 11628 296e 50       		.sleb128 -48
 11629 296f 06       		.byte	0x6
 11630 2970 00       		.byte	0
 11631 2971 3C       		.uleb128 0x3c
 11632 2972 AA000000 		.4byte	.LVL835
ARM GAS  C:\Users\rdn\AppData\Local\Temp\cciiQw7C.s 			page 242


 11633 2976 860F0000 		.4byte	0xf86
 11634 297a C1290000 		.4byte	0x29c1
 11635 297e 23       		.uleb128 0x23
 11636 297f 01       		.uleb128 0x1
 11637 2980 50       		.byte	0x50
 11638 2981 04       		.uleb128 0x4
 11639 2982 91       		.byte	0x91
 11640 2983 48       		.sleb128 -56
 11641 2984 94       		.byte	0x94
 11642 2985 01       		.byte	0x1
 11643 2986 23       		.uleb128 0x23
 11644 2987 01       		.uleb128 0x1
 11645 2988 51       		.byte	0x51
 11646 2989 02       		.uleb128 0x2
 11647 298a 74       		.byte	0x74
 11648 298b 00       		.sleb128 0
 11649 298c 23       		.uleb128 0x23
 11650 298d 01       		.uleb128 0x1
 11651 298e 52       		.byte	0x52
 11652 298f 03       		.uleb128 0x3
 11653 2990 91       		.byte	0x91
 11654 2991 08       		.sleb128 8
 11655 2992 06       		.byte	0x6
 11656 2993 23       		.uleb128 0x23
 11657 2994 01       		.uleb128 0x1
 11658 2995 53       		.byte	0x53
 11659 2996 03       		.uleb128 0x3
 11660 2997 91       		.byte	0x91
 11661 2998 50       		.sleb128 -48
 11662 2999 06       		.byte	0x6
 11663 299a 23       		.uleb128 0x23
 11664 299b 02       		.uleb128 0x2
 11665 299c 7D       		.byte	0x7d
 11666 299d 00       		.sleb128 0
 11667 299e 02       		.uleb128 0x2
 11668 299f 75       		.byte	0x75
 11669 29a0 00       		.sleb128 0
 11670 29a1 23       		.uleb128 0x23
 11671 29a2 02       		.uleb128 0x2
 11672 29a3 7D       		.byte	0x7d
 11673 29a4 04       		.sleb128 4
 11674 29a5 05       		.uleb128 0x5
 11675 29a6 91       		.byte	0x91
 11676 29a7 54       		.sleb128 -44
 11677 29a8 F6       		.byte	0xf6
 11678 29a9 04       		.byte	0x4
 11679 29aa 25       		.uleb128 0x25
 11680 29ab 23       		.uleb128 0x23
 11681 29ac 02       		.uleb128 0x2
 11682 29ad 7D       		.byte	0x7d
 11683 29ae 08       		.sleb128 8
 11684 29af 02       		.uleb128 0x2
 11685 29b0 77       		.byte	0x77
 11686 29b1 00       		.sleb128 0
 11687 29b2 23       		.uleb128 0x23
 11688 29b3 02       		.uleb128 0x2
 11689 29b4 7D       		.byte	0x7d
ARM GAS  C:\Users\rdn\AppData\Local\Temp\cciiQw7C.s 			page 243


 11690 29b5 0C       		.sleb128 12
 11691 29b6 02       		.uleb128 0x2
 11692 29b7 76       		.byte	0x76
 11693 29b8 00       		.sleb128 0
 11694 29b9 23       		.uleb128 0x23
 11695 29ba 02       		.uleb128 0x2
 11696 29bb 7D       		.byte	0x7d
 11697 29bc 10       		.sleb128 16
 11698 29bd 02       		.uleb128 0x2
 11699 29be 91       		.byte	0x91
 11700 29bf 58       		.sleb128 -40
 11701 29c0 00       		.byte	0
 11702 29c1 3C       		.uleb128 0x3c
 11703 29c2 BE000000 		.4byte	.LVL838
 11704 29c6 D7070000 		.4byte	0x7d7
 11705 29ca F3290000 		.4byte	0x29f3
 11706 29ce 23       		.uleb128 0x23
 11707 29cf 01       		.uleb128 0x1
 11708 29d0 50       		.byte	0x50
 11709 29d1 04       		.uleb128 0x4
 11710 29d2 91       		.byte	0x91
 11711 29d3 48       		.sleb128 -56
 11712 29d4 94       		.byte	0x94
 11713 29d5 01       		.byte	0x1
 11714 29d6 23       		.uleb128 0x23
 11715 29d7 01       		.uleb128 0x1
 11716 29d8 51       		.byte	0x51
 11717 29d9 04       		.uleb128 0x4
 11718 29da 91       		.byte	0x91
 11719 29db 4C       		.sleb128 -52
 11720 29dc 94       		.byte	0x94
 11721 29dd 01       		.byte	0x1
 11722 29de 23       		.uleb128 0x23
 11723 29df 01       		.uleb128 0x1
 11724 29e0 52       		.byte	0x52
 11725 29e1 02       		.uleb128 0x2
 11726 29e2 7B       		.byte	0x7b
 11727 29e3 00       		.sleb128 0
 11728 29e4 23       		.uleb128 0x23
 11729 29e5 01       		.uleb128 0x1
 11730 29e6 53       		.byte	0x53
 11731 29e7 03       		.uleb128 0x3
 11732 29e8 91       		.byte	0x91
 11733 29e9 08       		.sleb128 8
 11734 29ea 06       		.byte	0x6
 11735 29eb 23       		.uleb128 0x23
 11736 29ec 02       		.uleb128 0x2
 11737 29ed 7D       		.byte	0x7d
 11738 29ee 00       		.sleb128 0
 11739 29ef 02       		.uleb128 0x2
 11740 29f0 74       		.byte	0x74
 11741 29f1 00       		.sleb128 0
 11742 29f2 00       		.byte	0
 11743 29f3 3C       		.uleb128 0x3c
 11744 29f4 D2000000 		.4byte	.LVL839
 11745 29f8 E6090000 		.4byte	0x9e6
 11746 29fc 322A0000 		.4byte	0x2a32
ARM GAS  C:\Users\rdn\AppData\Local\Temp\cciiQw7C.s 			page 244


 11747 2a00 23       		.uleb128 0x23
 11748 2a01 01       		.uleb128 0x1
 11749 2a02 50       		.byte	0x50
 11750 2a03 04       		.uleb128 0x4
 11751 2a04 91       		.byte	0x91
 11752 2a05 48       		.sleb128 -56
 11753 2a06 94       		.byte	0x94
 11754 2a07 01       		.byte	0x1
 11755 2a08 23       		.uleb128 0x23
 11756 2a09 01       		.uleb128 0x1
 11757 2a0a 51       		.byte	0x51
 11758 2a0b 04       		.uleb128 0x4
 11759 2a0c 91       		.byte	0x91
 11760 2a0d 4C       		.sleb128 -52
 11761 2a0e 94       		.byte	0x94
 11762 2a0f 01       		.byte	0x1
 11763 2a10 23       		.uleb128 0x23
 11764 2a11 01       		.uleb128 0x1
 11765 2a12 52       		.byte	0x52
 11766 2a13 03       		.uleb128 0x3
 11767 2a14 91       		.byte	0x91
 11768 2a15 50       		.sleb128 -48
 11769 2a16 06       		.byte	0x6
 11770 2a17 23       		.uleb128 0x23
 11771 2a18 01       		.uleb128 0x1
 11772 2a19 53       		.byte	0x53
 11773 2a1a 03       		.uleb128 0x3
 11774 2a1b 91       		.byte	0x91
 11775 2a1c 08       		.sleb128 8
 11776 2a1d 06       		.byte	0x6
 11777 2a1e 23       		.uleb128 0x23
 11778 2a1f 02       		.uleb128 0x2
 11779 2a20 7D       		.byte	0x7d
 11780 2a21 00       		.sleb128 0
 11781 2a22 02       		.uleb128 0x2
 11782 2a23 74       		.byte	0x74
 11783 2a24 00       		.sleb128 0
 11784 2a25 23       		.uleb128 0x23
 11785 2a26 02       		.uleb128 0x2
 11786 2a27 7D       		.byte	0x7d
 11787 2a28 04       		.sleb128 4
 11788 2a29 01       		.uleb128 0x1
 11789 2a2a 30       		.byte	0x30
 11790 2a2b 23       		.uleb128 0x23
 11791 2a2c 02       		.uleb128 0x2
 11792 2a2d 7D       		.byte	0x7d
 11793 2a2e 08       		.sleb128 8
 11794 2a2f 01       		.uleb128 0x1
 11795 2a30 30       		.byte	0x30
 11796 2a31 00       		.byte	0
 11797 2a32 3C       		.uleb128 0x3c
 11798 2a33 10010000 		.4byte	.LVL842
 11799 2a37 BA060000 		.4byte	0x6ba
 11800 2a3b 602A0000 		.4byte	0x2a60
 11801 2a3f 23       		.uleb128 0x23
 11802 2a40 01       		.uleb128 0x1
 11803 2a41 50       		.byte	0x50
ARM GAS  C:\Users\rdn\AppData\Local\Temp\cciiQw7C.s 			page 245


 11804 2a42 04       		.uleb128 0x4
 11805 2a43 91       		.byte	0x91
 11806 2a44 48       		.sleb128 -56
 11807 2a45 94       		.byte	0x94
 11808 2a46 01       		.byte	0x1
 11809 2a47 23       		.uleb128 0x23
 11810 2a48 01       		.uleb128 0x1
 11811 2a49 51       		.byte	0x51
 11812 2a4a 04       		.uleb128 0x4
 11813 2a4b 91       		.byte	0x91
 11814 2a4c 4C       		.sleb128 -52
 11815 2a4d 94       		.byte	0x94
 11816 2a4e 01       		.byte	0x1
 11817 2a4f 23       		.uleb128 0x23
 11818 2a50 01       		.uleb128 0x1
 11819 2a51 52       		.byte	0x52
 11820 2a52 05       		.uleb128 0x5
 11821 2a53 77       		.byte	0x77
 11822 2a54 00       		.sleb128 0
 11823 2a55 7B       		.byte	0x7b
 11824 2a56 00       		.sleb128 0
 11825 2a57 22       		.byte	0x22
 11826 2a58 23       		.uleb128 0x23
 11827 2a59 02       		.uleb128 0x2
 11828 2a5a 7D       		.byte	0x7d
 11829 2a5b 00       		.sleb128 0
 11830 2a5c 02       		.uleb128 0x2
 11831 2a5d 75       		.byte	0x75
 11832 2a5e 00       		.sleb128 0
 11833 2a5f 00       		.byte	0
 11834 2a60 3C       		.uleb128 0x3c
 11835 2a61 22010000 		.4byte	.LVL845
 11836 2a65 D7070000 		.4byte	0x7d7
 11837 2a69 922A0000 		.4byte	0x2a92
 11838 2a6d 23       		.uleb128 0x23
 11839 2a6e 01       		.uleb128 0x1
 11840 2a6f 50       		.byte	0x50
 11841 2a70 04       		.uleb128 0x4
 11842 2a71 91       		.byte	0x91
 11843 2a72 48       		.sleb128 -56
 11844 2a73 94       		.byte	0x94
 11845 2a74 01       		.byte	0x1
 11846 2a75 23       		.uleb128 0x23
 11847 2a76 01       		.uleb128 0x1
 11848 2a77 51       		.byte	0x51
 11849 2a78 04       		.uleb128 0x4
 11850 2a79 91       		.byte	0x91
 11851 2a7a 4C       		.sleb128 -52
 11852 2a7b 94       		.byte	0x94
 11853 2a7c 01       		.byte	0x1
 11854 2a7d 23       		.uleb128 0x23
 11855 2a7e 01       		.uleb128 0x1
 11856 2a7f 52       		.byte	0x52
 11857 2a80 02       		.uleb128 0x2
 11858 2a81 76       		.byte	0x76
 11859 2a82 00       		.sleb128 0
 11860 2a83 23       		.uleb128 0x23
ARM GAS  C:\Users\rdn\AppData\Local\Temp\cciiQw7C.s 			page 246


 11861 2a84 01       		.uleb128 0x1
 11862 2a85 53       		.byte	0x53
 11863 2a86 03       		.uleb128 0x3
 11864 2a87 91       		.byte	0x91
 11865 2a88 08       		.sleb128 8
 11866 2a89 06       		.byte	0x6
 11867 2a8a 23       		.uleb128 0x23
 11868 2a8b 02       		.uleb128 0x2
 11869 2a8c 7D       		.byte	0x7d
 11870 2a8d 00       		.sleb128 0
 11871 2a8e 02       		.uleb128 0x2
 11872 2a8f 74       		.byte	0x74
 11873 2a90 00       		.sleb128 0
 11874 2a91 00       		.byte	0
 11875 2a92 22       		.uleb128 0x22
 11876 2a93 3E010000 		.4byte	.LVL848
 11877 2a97 E6090000 		.4byte	0x9e6
 11878 2a9b 23       		.uleb128 0x23
 11879 2a9c 01       		.uleb128 0x1
 11880 2a9d 50       		.byte	0x50
 11881 2a9e 04       		.uleb128 0x4
 11882 2a9f 91       		.byte	0x91
 11883 2aa0 48       		.sleb128 -56
 11884 2aa1 94       		.byte	0x94
 11885 2aa2 01       		.byte	0x1
 11886 2aa3 23       		.uleb128 0x23
 11887 2aa4 01       		.uleb128 0x1
 11888 2aa5 51       		.byte	0x51
 11889 2aa6 04       		.uleb128 0x4
 11890 2aa7 91       		.byte	0x91
 11891 2aa8 4C       		.sleb128 -52
 11892 2aa9 94       		.byte	0x94
 11893 2aaa 01       		.byte	0x1
 11894 2aab 23       		.uleb128 0x23
 11895 2aac 01       		.uleb128 0x1
 11896 2aad 52       		.byte	0x52
 11897 2aae 03       		.uleb128 0x3
 11898 2aaf 91       		.byte	0x91
 11899 2ab0 50       		.sleb128 -48
 11900 2ab1 06       		.byte	0x6
 11901 2ab2 23       		.uleb128 0x23
 11902 2ab3 01       		.uleb128 0x1
 11903 2ab4 53       		.byte	0x53
 11904 2ab5 03       		.uleb128 0x3
 11905 2ab6 91       		.byte	0x91
 11906 2ab7 08       		.sleb128 8
 11907 2ab8 06       		.byte	0x6
 11908 2ab9 23       		.uleb128 0x23
 11909 2aba 02       		.uleb128 0x2
 11910 2abb 7D       		.byte	0x7d
 11911 2abc 00       		.sleb128 0
 11912 2abd 02       		.uleb128 0x2
 11913 2abe 74       		.byte	0x74
 11914 2abf 00       		.sleb128 0
 11915 2ac0 23       		.uleb128 0x23
 11916 2ac1 02       		.uleb128 0x2
 11917 2ac2 7D       		.byte	0x7d
ARM GAS  C:\Users\rdn\AppData\Local\Temp\cciiQw7C.s 			page 247


 11918 2ac3 04       		.sleb128 4
 11919 2ac4 02       		.uleb128 0x2
 11920 2ac5 75       		.byte	0x75
 11921 2ac6 00       		.sleb128 0
 11922 2ac7 23       		.uleb128 0x23
 11923 2ac8 02       		.uleb128 0x2
 11924 2ac9 7D       		.byte	0x7d
 11925 2aca 08       		.sleb128 8
 11926 2acb 05       		.uleb128 0x5
 11927 2acc 91       		.byte	0x91
 11928 2acd 0C       		.sleb128 12
 11929 2ace 06       		.byte	0x6
 11930 2acf 23       		.byte	0x23
 11931 2ad0 08       		.uleb128 0x8
 11932 2ad1 00       		.byte	0
 11933 2ad2 00       		.byte	0
 11934 2ad3 0E       		.uleb128 0xe
 11935 2ad4 04       		.byte	0x4
 11936 2ad5 D92A0000 		.4byte	0x2ad9
 11937 2ad9 0F       		.uleb128 0xf
 11938 2ada B6030000 		.4byte	0x3b6
 11939 2ade 0E       		.uleb128 0xe
 11940 2adf 04       		.byte	0x4
 11941 2ae0 48010000 		.4byte	0x148
 11942 2ae4 0E       		.uleb128 0xe
 11943 2ae5 04       		.byte	0x4
 11944 2ae6 C1030000 		.4byte	0x3c1
 11945 2aea 4E       		.uleb128 0x4e
 11946 2aeb CB030000 		.4byte	.LASF163
 11947 2aef 01       		.byte	0x1
 11948 2af0 6903     		.2byte	0x369
 11949 2af2 00000000 		.4byte	.LFB41
 11950 2af6 76000000 		.4byte	.LFE41-.LFB41
 11951 2afa 01       		.uleb128 0x1
 11952 2afb 9C       		.byte	0x9c
 11953 2afc 5B2C0000 		.4byte	0x2c5b
 11954 2b00 2D       		.uleb128 0x2d
 11955 2b01 7A040000 		.4byte	.LASF85
 11956 2b05 01       		.byte	0x1
 11957 2b06 6903     		.2byte	0x369
 11958 2b08 B6140000 		.4byte	0x14b6
 11959 2b0c BE310000 		.4byte	.LLST358
 11960 2b10 2C       		.uleb128 0x2c
 11961 2b11 647400   		.ascii	"dt\000"
 11962 2b14 01       		.byte	0x1
 11963 2b15 6A03     		.2byte	0x36a
 11964 2b17 CA000000 		.4byte	0xca
 11965 2b1b EA310000 		.4byte	.LLST359
 11966 2b1f 2C       		.uleb128 0x2c
 11967 2b20 737200   		.ascii	"sr\000"
 11968 2b23 01       		.byte	0x1
 11969 2b24 6A03     		.2byte	0x36a
 11970 2b26 F9000000 		.4byte	0xf9
 11971 2b2a 0B320000 		.4byte	.LLST360
 11972 2b2e 2D       		.uleb128 0x2d
 11973 2b2f F4000000 		.4byte	.LASF158
 11974 2b33 01       		.byte	0x1
ARM GAS  C:\Users\rdn\AppData\Local\Temp\cciiQw7C.s 			page 248


 11975 2b34 6B03     		.2byte	0x36b
 11976 2b36 5B2C0000 		.4byte	0x2c5b
 11977 2b3a 2C320000 		.4byte	.LLST361
 11978 2b3e 2A       		.uleb128 0x2a
 11979 2b3f C0040000 		.4byte	.LASF164
 11980 2b43 01       		.byte	0x1
 11981 2b44 6D03     		.2byte	0x36d
 11982 2b46 90000000 		.4byte	0x90
 11983 2b4a 58320000 		.4byte	.LLST362
 11984 2b4e 30       		.uleb128 0x30
 11985 2b4f 8D050000 		.4byte	0x58d
 11986 2b53 1A000000 		.4byte	.LBB406
 11987 2b57 1C000000 		.4byte	.LBE406-.LBB406
 11988 2b5b 01       		.byte	0x1
 11989 2b5c 6F03     		.2byte	0x36f
 11990 2b5e A12B0000 		.4byte	0x2ba1
 11991 2b62 27       		.uleb128 0x27
 11992 2b63 AD050000 		.4byte	0x5ad
 11993 2b67 76320000 		.4byte	.LLST363
 11994 2b6b 27       		.uleb128 0x27
 11995 2b6c A4050000 		.4byte	0x5a4
 11996 2b70 94320000 		.4byte	.LLST364
 11997 2b74 27       		.uleb128 0x27
 11998 2b75 99050000 		.4byte	0x599
 11999 2b79 B2320000 		.4byte	.LLST365
 12000 2b7d 29       		.uleb128 0x29
 12001 2b7e 1A000000 		.4byte	.LBB407
 12002 2b82 1C000000 		.4byte	.LBE407-.LBB407
 12003 2b86 3E       		.uleb128 0x3e
 12004 2b87 B6050000 		.4byte	0x5b6
 12005 2b8b C5320000 		.4byte	.LLST366
 12006 2b8f 22       		.uleb128 0x22
 12007 2b90 36000000 		.4byte	.LVL859
 12008 2b94 86330000 		.4byte	0x3386
 12009 2b98 23       		.uleb128 0x23
 12010 2b99 01       		.uleb128 0x1
 12011 2b9a 50       		.byte	0x50
 12012 2b9b 02       		.uleb128 0x2
 12013 2b9c 74       		.byte	0x74
 12014 2b9d 00       		.sleb128 0
 12015 2b9e 00       		.byte	0
 12016 2b9f 00       		.byte	0
 12017 2ba0 00       		.byte	0
 12018 2ba1 30       		.uleb128 0x30
 12019 2ba2 8D050000 		.4byte	0x58d
 12020 2ba6 38000000 		.4byte	.LBB408
 12021 2baa 1C000000 		.4byte	.LBE408-.LBB408
 12022 2bae 01       		.byte	0x1
 12023 2baf 7003     		.2byte	0x370
 12024 2bb1 F92B0000 		.4byte	0x2bf9
 12025 2bb5 27       		.uleb128 0x27
 12026 2bb6 AD050000 		.4byte	0x5ad
 12027 2bba EA320000 		.4byte	.LLST367
 12028 2bbe 27       		.uleb128 0x27
 12029 2bbf A4050000 		.4byte	0x5a4
 12030 2bc3 FE320000 		.4byte	.LLST368
 12031 2bc7 27       		.uleb128 0x27
ARM GAS  C:\Users\rdn\AppData\Local\Temp\cciiQw7C.s 			page 249


 12032 2bc8 99050000 		.4byte	0x599
 12033 2bcc 2E330000 		.4byte	.LLST369
 12034 2bd0 29       		.uleb128 0x29
 12035 2bd1 38000000 		.4byte	.LBB409
 12036 2bd5 1C000000 		.4byte	.LBE409-.LBB409
 12037 2bd9 3E       		.uleb128 0x3e
 12038 2bda B6050000 		.4byte	0x5b6
 12039 2bde 41330000 		.4byte	.LLST370
 12040 2be2 22       		.uleb128 0x22
 12041 2be3 54000000 		.4byte	.LVL864
 12042 2be7 86330000 		.4byte	0x3386
 12043 2beb 23       		.uleb128 0x23
 12044 2bec 01       		.uleb128 0x1
 12045 2bed 50       		.byte	0x50
 12046 2bee 02       		.uleb128 0x2
 12047 2bef 74       		.byte	0x74
 12048 2bf0 00       		.sleb128 0
 12049 2bf1 23       		.uleb128 0x23
 12050 2bf2 01       		.uleb128 0x1
 12051 2bf3 52       		.byte	0x52
 12052 2bf4 01       		.uleb128 0x1
 12053 2bf5 31       		.byte	0x31
 12054 2bf6 00       		.byte	0
 12055 2bf7 00       		.byte	0
 12056 2bf8 00       		.byte	0
 12057 2bf9 30       		.uleb128 0x30
 12058 2bfa 8D050000 		.4byte	0x58d
 12059 2bfe 56000000 		.4byte	.LBB410
 12060 2c02 1E000000 		.4byte	.LBE410-.LBB410
 12061 2c06 01       		.byte	0x1
 12062 2c07 7103     		.2byte	0x371
 12063 2c09 512C0000 		.4byte	0x2c51
 12064 2c0d 27       		.uleb128 0x27
 12065 2c0e AD050000 		.4byte	0x5ad
 12066 2c12 66330000 		.4byte	.LLST371
 12067 2c16 27       		.uleb128 0x27
 12068 2c17 A4050000 		.4byte	0x5a4
 12069 2c1b 7A330000 		.4byte	.LLST372
 12070 2c1f 27       		.uleb128 0x27
 12071 2c20 99050000 		.4byte	0x599
 12072 2c24 A4330000 		.4byte	.LLST373
 12073 2c28 29       		.uleb128 0x29
 12074 2c29 56000000 		.4byte	.LBB411
 12075 2c2d 1E000000 		.4byte	.LBE411-.LBB411
 12076 2c31 3E       		.uleb128 0x3e
 12077 2c32 B6050000 		.4byte	0x5b6
 12078 2c36 B7330000 		.4byte	.LLST374
 12079 2c3a 22       		.uleb128 0x22
 12080 2c3b 74000000 		.4byte	.LVL869
 12081 2c3f 86330000 		.4byte	0x3386
 12082 2c43 23       		.uleb128 0x23
 12083 2c44 01       		.uleb128 0x1
 12084 2c45 50       		.byte	0x50
 12085 2c46 02       		.uleb128 0x2
 12086 2c47 74       		.byte	0x74
 12087 2c48 00       		.sleb128 0
 12088 2c49 23       		.uleb128 0x23
ARM GAS  C:\Users\rdn\AppData\Local\Temp\cciiQw7C.s 			page 250


 12089 2c4a 01       		.uleb128 0x1
 12090 2c4b 52       		.byte	0x52
 12091 2c4c 01       		.uleb128 0x1
 12092 2c4d 38       		.byte	0x38
 12093 2c4e 00       		.byte	0
 12094 2c4f 00       		.byte	0
 12095 2c50 00       		.byte	0
 12096 2c51 3D       		.uleb128 0x3d
 12097 2c52 0E000000 		.4byte	.LVL854
 12098 2c56 CA0D0000 		.4byte	0xdca
 12099 2c5a 00       		.byte	0
 12100 2c5b 0E       		.uleb128 0xe
 12101 2c5c 04       		.byte	0x4
 12102 2c5d 612C0000 		.4byte	0x2c61
 12103 2c61 0F       		.uleb128 0xf
 12104 2c62 C1030000 		.4byte	0x3c1
 12105 2c66 4E       		.uleb128 0x4e
 12106 2c67 A2060000 		.4byte	.LASF165
 12107 2c6b 01       		.byte	0x1
 12108 2c6c 7703     		.2byte	0x377
 12109 2c6e 00000000 		.4byte	.LFB42
 12110 2c72 6E000000 		.4byte	.LFE42-.LFB42
 12111 2c76 01       		.uleb128 0x1
 12112 2c77 9C       		.byte	0x9c
 12113 2c78 0C2E0000 		.4byte	0x2e0c
 12114 2c7c 2D       		.uleb128 0x2d
 12115 2c7d 7A040000 		.4byte	.LASF85
 12116 2c81 01       		.byte	0x1
 12117 2c82 7703     		.2byte	0x377
 12118 2c84 B6140000 		.4byte	0x14b6
 12119 2c88 DC330000 		.4byte	.LLST375
 12120 2c8c 2C       		.uleb128 0x2c
 12121 2c8d 647400   		.ascii	"dt\000"
 12122 2c90 01       		.byte	0x1
 12123 2c91 7803     		.2byte	0x378
 12124 2c93 CA000000 		.4byte	0xca
 12125 2c97 FB330000 		.4byte	.LLST376
 12126 2c9b 2C       		.uleb128 0x2c
 12127 2c9c 737200   		.ascii	"sr\000"
 12128 2c9f 01       		.byte	0x1
 12129 2ca0 7803     		.2byte	0x378
 12130 2ca2 F9000000 		.4byte	0xf9
 12131 2ca6 1C340000 		.4byte	.LLST377
 12132 2caa 2C       		.uleb128 0x2c
 12133 2cab 627700   		.ascii	"bw\000"
 12134 2cae 01       		.byte	0x1
 12135 2caf 7803     		.2byte	0x378
 12136 2cb1 82010000 		.4byte	0x182
 12137 2cb5 3D340000 		.4byte	.LLST378
 12138 2cb9 32       		.uleb128 0x32
 12139 2cba 22050000 		.4byte	.LASF87
 12140 2cbe 01       		.byte	0x1
 12141 2cbf 7903     		.2byte	0x379
 12142 2cc1 90000000 		.4byte	0x90
 12143 2cc5 02       		.uleb128 0x2
 12144 2cc6 91       		.byte	0x91
 12145 2cc7 00       		.sleb128 0
ARM GAS  C:\Users\rdn\AppData\Local\Temp\cciiQw7C.s 			page 251


 12146 2cc8 32       		.uleb128 0x32
 12147 2cc9 F4000000 		.4byte	.LASF158
 12148 2ccd 01       		.byte	0x1
 12149 2cce 7903     		.2byte	0x379
 12150 2cd0 0C2E0000 		.4byte	0x2e0c
 12151 2cd4 02       		.uleb128 0x2
 12152 2cd5 91       		.byte	0x91
 12153 2cd6 04       		.sleb128 4
 12154 2cd7 2E       		.uleb128 0x2e
 12155 2cd8 7800     		.ascii	"x\000"
 12156 2cda 01       		.byte	0x1
 12157 2cdb 7903     		.2byte	0x379
 12158 2cdd B8080000 		.4byte	0x8b8
 12159 2ce1 02       		.uleb128 0x2
 12160 2ce2 91       		.byte	0x91
 12161 2ce3 08       		.sleb128 8
 12162 2ce4 2A       		.uleb128 0x2a
 12163 2ce5 D7050000 		.4byte	.LASF79
 12164 2ce9 01       		.byte	0x1
 12165 2cea 7B03     		.2byte	0x37b
 12166 2cec 3A010000 		.4byte	0x13a
 12167 2cf0 5E340000 		.4byte	.LLST379
 12168 2cf4 28       		.uleb128 0x28
 12169 2cf5 6E7100   		.ascii	"nq\000"
 12170 2cf8 01       		.byte	0x1
 12171 2cf9 7C03     		.2byte	0x37c
 12172 2cfb 90000000 		.4byte	0x90
 12173 2cff 71340000 		.4byte	.LLST380
 12174 2d03 2A       		.uleb128 0x2a
 12175 2d04 1A080000 		.4byte	.LASF166
 12176 2d08 01       		.byte	0x1
 12177 2d09 8203     		.2byte	0x382
 12178 2d0b 90000000 		.4byte	0x90
 12179 2d0f 84340000 		.4byte	.LLST381
 12180 2d13 30       		.uleb128 0x30
 12181 2d14 FC030000 		.4byte	0x3fc
 12182 2d18 12000000 		.4byte	.LBB412
 12183 2d1c 08000000 		.4byte	.LBE412-.LBB412
 12184 2d20 01       		.byte	0x1
 12185 2d21 7E03     		.2byte	0x37e
 12186 2d23 312D0000 		.4byte	0x2d31
 12187 2d27 27       		.uleb128 0x27
 12188 2d28 0C040000 		.4byte	0x40c
 12189 2d2c B8340000 		.4byte	.LLST382
 12190 2d30 00       		.byte	0
 12191 2d31 3C       		.uleb128 0x3c
 12192 2d32 26000000 		.4byte	.LVL880
 12193 2d36 ED0B0000 		.4byte	0xbed
 12194 2d3a 5B2D0000 		.4byte	0x2d5b
 12195 2d3e 23       		.uleb128 0x23
 12196 2d3f 01       		.uleb128 0x1
 12197 2d40 50       		.byte	0x50
 12198 2d41 04       		.uleb128 0x4
 12199 2d42 91       		.byte	0x91
 12200 2d43 64       		.sleb128 -28
 12201 2d44 94       		.byte	0x94
 12202 2d45 01       		.byte	0x1
ARM GAS  C:\Users\rdn\AppData\Local\Temp\cciiQw7C.s 			page 252


 12203 2d46 23       		.uleb128 0x23
 12204 2d47 01       		.uleb128 0x1
 12205 2d48 52       		.byte	0x52
 12206 2d49 02       		.uleb128 0x2
 12207 2d4a 74       		.byte	0x74
 12208 2d4b 00       		.sleb128 0
 12209 2d4c 23       		.uleb128 0x23
 12210 2d4d 01       		.uleb128 0x1
 12211 2d4e 53       		.byte	0x53
 12212 2d4f 03       		.uleb128 0x3
 12213 2d50 91       		.byte	0x91
 12214 2d51 08       		.sleb128 8
 12215 2d52 06       		.byte	0x6
 12216 2d53 23       		.uleb128 0x23
 12217 2d54 02       		.uleb128 0x2
 12218 2d55 7D       		.byte	0x7d
 12219 2d56 00       		.sleb128 0
 12220 2d57 02       		.uleb128 0x2
 12221 2d58 76       		.byte	0x76
 12222 2d59 00       		.sleb128 0
 12223 2d5a 00       		.byte	0
 12224 2d5b 3C       		.uleb128 0x3c
 12225 2d5c 2E000000 		.4byte	.LVL881
 12226 2d60 32140000 		.4byte	0x1432
 12227 2d64 702D0000 		.4byte	0x2d70
 12228 2d68 23       		.uleb128 0x23
 12229 2d69 01       		.uleb128 0x1
 12230 2d6a 50       		.byte	0x50
 12231 2d6b 03       		.uleb128 0x3
 12232 2d6c 91       		.byte	0x91
 12233 2d6d 60       		.sleb128 -32
 12234 2d6e 06       		.byte	0x6
 12235 2d6f 00       		.byte	0
 12236 2d70 3C       		.uleb128 0x3c
 12237 2d71 44000000 		.4byte	.LVL882
 12238 2d75 82180000 		.4byte	0x1882
 12239 2d79 A92D0000 		.4byte	0x2da9
 12240 2d7d 23       		.uleb128 0x23
 12241 2d7e 01       		.uleb128 0x1
 12242 2d7f 50       		.byte	0x50
 12243 2d80 02       		.uleb128 0x2
 12244 2d81 77       		.byte	0x77
 12245 2d82 00       		.sleb128 0
 12246 2d83 23       		.uleb128 0x23
 12247 2d84 01       		.uleb128 0x1
 12248 2d85 51       		.byte	0x51
 12249 2d86 04       		.uleb128 0x4
 12250 2d87 91       		.byte	0x91
 12251 2d88 64       		.sleb128 -28
 12252 2d89 94       		.byte	0x94
 12253 2d8a 01       		.byte	0x1
 12254 2d8b 23       		.uleb128 0x23
 12255 2d8c 01       		.uleb128 0x1
 12256 2d8d 53       		.byte	0x53
 12257 2d8e 03       		.uleb128 0x3
 12258 2d8f 91       		.byte	0x91
 12259 2d90 00       		.sleb128 0
ARM GAS  C:\Users\rdn\AppData\Local\Temp\cciiQw7C.s 			page 253


 12260 2d91 06       		.byte	0x6
 12261 2d92 23       		.uleb128 0x23
 12262 2d93 02       		.uleb128 0x2
 12263 2d94 7D       		.byte	0x7d
 12264 2d95 00       		.sleb128 0
 12265 2d96 03       		.uleb128 0x3
 12266 2d97 91       		.byte	0x91
 12267 2d98 08       		.sleb128 8
 12268 2d99 06       		.byte	0x6
 12269 2d9a 23       		.uleb128 0x23
 12270 2d9b 02       		.uleb128 0x2
 12271 2d9c 7D       		.byte	0x7d
 12272 2d9d 04       		.sleb128 4
 12273 2d9e 02       		.uleb128 0x2
 12274 2d9f 76       		.byte	0x76
 12275 2da0 00       		.sleb128 0
 12276 2da1 23       		.uleb128 0x23
 12277 2da2 02       		.uleb128 0x2
 12278 2da3 7D       		.byte	0x7d
 12279 2da4 08       		.sleb128 8
 12280 2da5 02       		.uleb128 0x2
 12281 2da6 75       		.byte	0x75
 12282 2da7 00       		.sleb128 0
 12283 2da8 00       		.byte	0
 12284 2da9 3C       		.uleb128 0x3c
 12285 2daa 4A000000 		.4byte	.LVL883
 12286 2dae F6330000 		.4byte	0x33f6
 12287 2db2 BD2D0000 		.4byte	0x2dbd
 12288 2db6 23       		.uleb128 0x23
 12289 2db7 01       		.uleb128 0x1
 12290 2db8 50       		.byte	0x50
 12291 2db9 02       		.uleb128 0x2
 12292 2dba 77       		.byte	0x77
 12293 2dbb 00       		.sleb128 0
 12294 2dbc 00       		.byte	0
 12295 2dbd 3C       		.uleb128 0x3c
 12296 2dbe 5C000000 		.4byte	.LVL886
 12297 2dc2 391D0000 		.4byte	0x1d39
 12298 2dc6 E62D0000 		.4byte	0x2de6
 12299 2dca 23       		.uleb128 0x23
 12300 2dcb 01       		.uleb128 0x1
 12301 2dcc 50       		.byte	0x50
 12302 2dcd 03       		.uleb128 0x3
 12303 2dce 91       		.byte	0x91
 12304 2dcf 60       		.sleb128 -32
 12305 2dd0 06       		.byte	0x6
 12306 2dd1 23       		.uleb128 0x23
 12307 2dd2 01       		.uleb128 0x1
 12308 2dd3 52       		.byte	0x52
 12309 2dd4 02       		.uleb128 0x2
 12310 2dd5 74       		.byte	0x74
 12311 2dd6 00       		.sleb128 0
 12312 2dd7 23       		.uleb128 0x23
 12313 2dd8 01       		.uleb128 0x1
 12314 2dd9 53       		.byte	0x53
 12315 2dda 03       		.uleb128 0x3
 12316 2ddb 91       		.byte	0x91
ARM GAS  C:\Users\rdn\AppData\Local\Temp\cciiQw7C.s 			page 254


 12317 2ddc 08       		.sleb128 8
 12318 2ddd 06       		.byte	0x6
 12319 2dde 23       		.uleb128 0x23
 12320 2ddf 02       		.uleb128 0x2
 12321 2de0 7D       		.byte	0x7d
 12322 2de1 00       		.sleb128 0
 12323 2de2 02       		.uleb128 0x2
 12324 2de3 76       		.byte	0x76
 12325 2de4 00       		.sleb128 0
 12326 2de5 00       		.byte	0
 12327 2de6 22       		.uleb128 0x22
 12328 2de7 6A000000 		.4byte	.LVL889
 12329 2deb 64150000 		.4byte	0x1564
 12330 2def 23       		.uleb128 0x23
 12331 2df0 01       		.uleb128 0x1
 12332 2df1 50       		.byte	0x50
 12333 2df2 03       		.uleb128 0x3
 12334 2df3 91       		.byte	0x91
 12335 2df4 60       		.sleb128 -32
 12336 2df5 06       		.byte	0x6
 12337 2df6 23       		.uleb128 0x23
 12338 2df7 01       		.uleb128 0x1
 12339 2df8 52       		.byte	0x52
 12340 2df9 02       		.uleb128 0x2
 12341 2dfa 74       		.byte	0x74
 12342 2dfb 00       		.sleb128 0
 12343 2dfc 23       		.uleb128 0x23
 12344 2dfd 01       		.uleb128 0x1
 12345 2dfe 53       		.byte	0x53
 12346 2dff 03       		.uleb128 0x3
 12347 2e00 91       		.byte	0x91
 12348 2e01 08       		.sleb128 8
 12349 2e02 06       		.byte	0x6
 12350 2e03 23       		.uleb128 0x23
 12351 2e04 02       		.uleb128 0x2
 12352 2e05 7D       		.byte	0x7d
 12353 2e06 00       		.sleb128 0
 12354 2e07 02       		.uleb128 0x2
 12355 2e08 76       		.byte	0x76
 12356 2e09 00       		.sleb128 0
 12357 2e0a 00       		.byte	0
 12358 2e0b 00       		.byte	0
 12359 2e0c 0E       		.uleb128 0xe
 12360 2e0d 04       		.byte	0x4
 12361 2e0e 122E0000 		.4byte	0x2e12
 12362 2e12 0F       		.uleb128 0xf
 12363 2e13 F1030000 		.4byte	0x3f1
 12364 2e17 4F       		.uleb128 0x4f
 12365 2e18 D4020000 		.4byte	.LASF167
 12366 2e1c 01       		.byte	0x1
 12367 2e1d 9203     		.2byte	0x392
 12368 2e1f 90000000 		.4byte	0x90
 12369 2e23 00000000 		.4byte	.LFB43
 12370 2e27 A0000000 		.4byte	.LFE43-.LFB43
 12371 2e2b 01       		.uleb128 0x1
 12372 2e2c 9C       		.byte	0x9c
 12373 2e2d 0E300000 		.4byte	0x300e
ARM GAS  C:\Users\rdn\AppData\Local\Temp\cciiQw7C.s 			page 255


 12374 2e31 2D       		.uleb128 0x2d
 12375 2e32 7A040000 		.4byte	.LASF85
 12376 2e36 01       		.byte	0x1
 12377 2e37 9203     		.2byte	0x392
 12378 2e39 B6140000 		.4byte	0x14b6
 12379 2e3d CB340000 		.4byte	.LLST383
 12380 2e41 2C       		.uleb128 0x2c
 12381 2e42 647400   		.ascii	"dt\000"
 12382 2e45 01       		.byte	0x1
 12383 2e46 9303     		.2byte	0x393
 12384 2e48 CA000000 		.4byte	0xca
 12385 2e4c F7340000 		.4byte	.LLST384
 12386 2e50 2C       		.uleb128 0x2c
 12387 2e51 737200   		.ascii	"sr\000"
 12388 2e54 01       		.byte	0x1
 12389 2e55 9303     		.2byte	0x393
 12390 2e57 F9000000 		.4byte	0xf9
 12391 2e5b 18350000 		.4byte	.LLST385
 12392 2e5f 2D       		.uleb128 0x2d
 12393 2e60 F4000000 		.4byte	.LASF158
 12394 2e64 01       		.byte	0x1
 12395 2e65 9303     		.2byte	0x393
 12396 2e67 E42A0000 		.4byte	0x2ae4
 12397 2e6b 39350000 		.4byte	.LLST386
 12398 2e6f 2A       		.uleb128 0x2a
 12399 2e70 C0040000 		.4byte	.LASF164
 12400 2e74 01       		.byte	0x1
 12401 2e75 9503     		.2byte	0x395
 12402 2e77 90000000 		.4byte	0x90
 12403 2e7b 65350000 		.4byte	.LLST387
 12404 2e7f 2F       		.uleb128 0x2f
 12405 2e80 6E6500   		.ascii	"ne\000"
 12406 2e83 01       		.byte	0x1
 12407 2e84 9603     		.2byte	0x396
 12408 2e86 90000000 		.4byte	0x90
 12409 2e8a 30       		.uleb128 0x30
 12410 2e8b 17040000 		.4byte	0x417
 12411 2e8f 12000000 		.4byte	.LBB427
 12412 2e93 0A000000 		.4byte	.LBE427-.LBB427
 12413 2e97 01       		.byte	0x1
 12414 2e98 9603     		.2byte	0x396
 12415 2e9a B12E0000 		.4byte	0x2eb1
 12416 2e9e 27       		.uleb128 0x27
 12417 2e9f 31040000 		.4byte	0x431
 12418 2ea3 8E350000 		.4byte	.LLST388
 12419 2ea7 27       		.uleb128 0x27
 12420 2ea8 27040000 		.4byte	0x427
 12421 2eac A1350000 		.4byte	.LLST389
 12422 2eb0 00       		.byte	0
 12423 2eb1 30       		.uleb128 0x30
 12424 2eb2 CE050000 		.4byte	0x5ce
 12425 2eb6 1C000000 		.4byte	.LBB429
 12426 2eba 24000000 		.4byte	.LBE429-.LBB429
 12427 2ebe 01       		.byte	0x1
 12428 2ebf 9803     		.2byte	0x398
 12429 2ec1 122F0000 		.4byte	0x2f12
 12430 2ec5 27       		.uleb128 0x27
ARM GAS  C:\Users\rdn\AppData\Local\Temp\cciiQw7C.s 			page 256


 12431 2ec6 E9050000 		.4byte	0x5e9
 12432 2eca B4350000 		.4byte	.LLST390
 12433 2ece 27       		.uleb128 0x27
 12434 2ecf DE050000 		.4byte	0x5de
 12435 2ed3 DD350000 		.4byte	.LLST391
 12436 2ed7 29       		.uleb128 0x29
 12437 2ed8 1C000000 		.4byte	.LBB430
 12438 2edc 24000000 		.4byte	.LBE430-.LBB430
 12439 2ee0 3E       		.uleb128 0x3e
 12440 2ee1 F2050000 		.4byte	0x5f2
 12441 2ee5 F0350000 		.4byte	.LLST392
 12442 2ee9 21       		.uleb128 0x21
 12443 2eea 24000000 		.4byte	.LBB431
 12444 2eee 14000000 		.4byte	.LBE431-.LBB431
 12445 2ef2 002F0000 		.4byte	0x2f00
 12446 2ef6 3E       		.uleb128 0x3e
 12447 2ef7 FE050000 		.4byte	0x5fe
 12448 2efb 15360000 		.4byte	.LLST393
 12449 2eff 00       		.byte	0
 12450 2f00 22       		.uleb128 0x22
 12451 2f01 40000000 		.4byte	.LVL903
 12452 2f05 91330000 		.4byte	0x3391
 12453 2f09 23       		.uleb128 0x23
 12454 2f0a 01       		.uleb128 0x1
 12455 2f0b 50       		.byte	0x50
 12456 2f0c 02       		.uleb128 0x2
 12457 2f0d 74       		.byte	0x74
 12458 2f0e 00       		.sleb128 0
 12459 2f0f 00       		.byte	0
 12460 2f10 00       		.byte	0
 12461 2f11 00       		.byte	0
 12462 2f12 30       		.uleb128 0x30
 12463 2f13 CB160000 		.4byte	0x16cb
 12464 2f17 46000000 		.4byte	.LBB432
 12465 2f1b 1C000000 		.4byte	.LBE432-.LBB432
 12466 2f1f 01       		.byte	0x1
 12467 2f20 9903     		.2byte	0x399
 12468 2f22 912F0000 		.4byte	0x2f91
 12469 2f26 27       		.uleb128 0x27
 12470 2f27 DB160000 		.4byte	0x16db
 12471 2f2b 28360000 		.4byte	.LLST394
 12472 2f2f 43       		.uleb128 0x43
 12473 2f30 CE050000 		.4byte	0x5ce
 12474 2f34 46000000 		.4byte	.LBB434
 12475 2f38 1C000000 		.4byte	.LBE434-.LBB434
 12476 2f3c 05       		.byte	0x5
 12477 2f3d EC       		.byte	0xec
 12478 2f3e 27       		.uleb128 0x27
 12479 2f3f E9050000 		.4byte	0x5e9
 12480 2f43 3B360000 		.4byte	.LLST395
 12481 2f47 27       		.uleb128 0x27
 12482 2f48 DE050000 		.4byte	0x5de
 12483 2f4c 28360000 		.4byte	.LLST394
 12484 2f50 29       		.uleb128 0x29
 12485 2f51 46000000 		.4byte	.LBB435
 12486 2f55 1C000000 		.4byte	.LBE435-.LBB435
 12487 2f59 3E       		.uleb128 0x3e
ARM GAS  C:\Users\rdn\AppData\Local\Temp\cciiQw7C.s 			page 257


 12488 2f5a F2050000 		.4byte	0x5f2
 12489 2f5e 4F360000 		.4byte	.LLST397
 12490 2f62 21       		.uleb128 0x21
 12491 2f63 4E000000 		.4byte	.LBB436
 12492 2f67 0C000000 		.4byte	.LBE436-.LBB436
 12493 2f6b 792F0000 		.4byte	0x2f79
 12494 2f6f 3E       		.uleb128 0x3e
 12495 2f70 FE050000 		.4byte	0x5fe
 12496 2f74 74360000 		.4byte	.LLST398
 12497 2f78 00       		.byte	0
 12498 2f79 22       		.uleb128 0x22
 12499 2f7a 62000000 		.4byte	.LVL907
 12500 2f7e 91330000 		.4byte	0x3391
 12501 2f82 23       		.uleb128 0x23
 12502 2f83 01       		.uleb128 0x1
 12503 2f84 50       		.byte	0x50
 12504 2f85 02       		.uleb128 0x2
 12505 2f86 74       		.byte	0x74
 12506 2f87 00       		.sleb128 0
 12507 2f88 23       		.uleb128 0x23
 12508 2f89 01       		.uleb128 0x1
 12509 2f8a 51       		.byte	0x51
 12510 2f8b 01       		.uleb128 0x1
 12511 2f8c 31       		.byte	0x31
 12512 2f8d 00       		.byte	0
 12513 2f8e 00       		.byte	0
 12514 2f8f 00       		.byte	0
 12515 2f90 00       		.byte	0
 12516 2f91 30       		.uleb128 0x30
 12517 2f92 CE050000 		.4byte	0x5ce
 12518 2f96 68000000 		.4byte	.LBB437
 12519 2f9a 1E000000 		.4byte	.LBE437-.LBB437
 12520 2f9e 01       		.byte	0x1
 12521 2f9f 9A03     		.2byte	0x39a
 12522 2fa1 F72F0000 		.4byte	0x2ff7
 12523 2fa5 27       		.uleb128 0x27
 12524 2fa6 E9050000 		.4byte	0x5e9
 12525 2faa 87360000 		.4byte	.LLST399
 12526 2fae 27       		.uleb128 0x27
 12527 2faf DE050000 		.4byte	0x5de
 12528 2fb3 9B360000 		.4byte	.LLST400
 12529 2fb7 29       		.uleb128 0x29
 12530 2fb8 68000000 		.4byte	.LBB438
 12531 2fbc 1E000000 		.4byte	.LBE438-.LBB438
 12532 2fc0 3E       		.uleb128 0x3e
 12533 2fc1 F2050000 		.4byte	0x5f2
 12534 2fc5 AE360000 		.4byte	.LLST401
 12535 2fc9 21       		.uleb128 0x21
 12536 2fca 72000000 		.4byte	.LBB439
 12537 2fce 0C000000 		.4byte	.LBE439-.LBB439
 12538 2fd2 E02F0000 		.4byte	0x2fe0
 12539 2fd6 3E       		.uleb128 0x3e
 12540 2fd7 FE050000 		.4byte	0x5fe
 12541 2fdb D3360000 		.4byte	.LLST402
 12542 2fdf 00       		.byte	0
 12543 2fe0 22       		.uleb128 0x22
 12544 2fe1 86000000 		.4byte	.LVL911
ARM GAS  C:\Users\rdn\AppData\Local\Temp\cciiQw7C.s 			page 258


 12545 2fe5 91330000 		.4byte	0x3391
 12546 2fe9 23       		.uleb128 0x23
 12547 2fea 01       		.uleb128 0x1
 12548 2feb 50       		.byte	0x50
 12549 2fec 02       		.uleb128 0x2
 12550 2fed 74       		.byte	0x74
 12551 2fee 00       		.sleb128 0
 12552 2fef 23       		.uleb128 0x23
 12553 2ff0 01       		.uleb128 0x1
 12554 2ff1 51       		.byte	0x51
 12555 2ff2 01       		.uleb128 0x1
 12556 2ff3 38       		.byte	0x38
 12557 2ff4 00       		.byte	0
 12558 2ff5 00       		.byte	0
 12559 2ff6 00       		.byte	0
 12560 2ff7 22       		.uleb128 0x22
 12561 2ff8 12000000 		.4byte	.LVL895
 12562 2ffc CA0D0000 		.4byte	0xdca
 12563 3000 23       		.uleb128 0x23
 12564 3001 01       		.uleb128 0x1
 12565 3002 50       		.byte	0x50
 12566 3003 02       		.uleb128 0x2
 12567 3004 77       		.byte	0x77
 12568 3005 00       		.sleb128 0
 12569 3006 23       		.uleb128 0x23
 12570 3007 01       		.uleb128 0x1
 12571 3008 51       		.byte	0x51
 12572 3009 02       		.uleb128 0x2
 12573 300a 75       		.byte	0x75
 12574 300b 00       		.sleb128 0
 12575 300c 00       		.byte	0
 12576 300d 00       		.byte	0
 12577 300e 50       		.uleb128 0x50
 12578 300f 27010000 		.4byte	.LASF168
 12579 3013 01       		.byte	0x1
 12580 3014 A203     		.2byte	0x3a2
 12581 3016 90000000 		.4byte	0x90
 12582 301a 00000000 		.4byte	.LFB44
 12583 301e D8000000 		.4byte	.LFE44-.LFB44
 12584 3022 01       		.uleb128 0x1
 12585 3023 9C       		.byte	0x9c
 12586 3024 76320000 		.4byte	0x3276
 12587 3028 2D       		.uleb128 0x2d
 12588 3029 7A040000 		.4byte	.LASF85
 12589 302d 01       		.byte	0x1
 12590 302e A203     		.2byte	0x3a2
 12591 3030 B6140000 		.4byte	0x14b6
 12592 3034 E6360000 		.4byte	.LLST403
 12593 3038 2C       		.uleb128 0x2c
 12594 3039 647400   		.ascii	"dt\000"
 12595 303c 01       		.byte	0x1
 12596 303d A303     		.2byte	0x3a3
 12597 303f CA000000 		.4byte	0xca
 12598 3043 71370000 		.4byte	.LLST404
 12599 3047 2C       		.uleb128 0x2c
 12600 3048 737200   		.ascii	"sr\000"
 12601 304b 01       		.byte	0x1
ARM GAS  C:\Users\rdn\AppData\Local\Temp\cciiQw7C.s 			page 259


 12602 304c A303     		.2byte	0x3a3
 12603 304e F9000000 		.4byte	0xf9
 12604 3052 92370000 		.4byte	.LLST405
 12605 3056 2C       		.uleb128 0x2c
 12606 3057 627700   		.ascii	"bw\000"
 12607 305a 01       		.byte	0x1
 12608 305b A303     		.2byte	0x3a3
 12609 305d 82010000 		.4byte	0x182
 12610 3061 B3370000 		.4byte	.LLST406
 12611 3065 32       		.uleb128 0x32
 12612 3066 22050000 		.4byte	.LASF87
 12613 306a 01       		.byte	0x1
 12614 306b A403     		.2byte	0x3a4
 12615 306d 90000000 		.4byte	0x90
 12616 3071 02       		.uleb128 0x2
 12617 3072 91       		.byte	0x91
 12618 3073 00       		.sleb128 0
 12619 3074 32       		.uleb128 0x32
 12620 3075 F4000000 		.4byte	.LASF158
 12621 3079 01       		.byte	0x1
 12622 307a A403     		.2byte	0x3a4
 12623 307c 0C2E0000 		.4byte	0x2e0c
 12624 3080 02       		.uleb128 0x2
 12625 3081 91       		.byte	0x91
 12626 3082 04       		.sleb128 4
 12627 3083 2E       		.uleb128 0x2e
 12628 3084 7800     		.ascii	"x\000"
 12629 3086 01       		.byte	0x1
 12630 3087 A403     		.2byte	0x3a4
 12631 3089 B8080000 		.4byte	0x8b8
 12632 308d 02       		.uleb128 0x2
 12633 308e 91       		.byte	0x91
 12634 308f 08       		.sleb128 8
 12635 3090 2A       		.uleb128 0x2a
 12636 3091 D7050000 		.4byte	.LASF79
 12637 3095 01       		.byte	0x1
 12638 3096 A603     		.2byte	0x3a6
 12639 3098 3A010000 		.4byte	0x13a
 12640 309c D4370000 		.4byte	.LLST407
 12641 30a0 28       		.uleb128 0x28
 12642 30a1 6E7100   		.ascii	"nq\000"
 12643 30a4 01       		.byte	0x1
 12644 30a5 A703     		.2byte	0x3a7
 12645 30a7 90000000 		.4byte	0x90
 12646 30ab E7370000 		.4byte	.LLST408
 12647 30af 28       		.uleb128 0x28
 12648 30b0 72657400 		.ascii	"ret\000"
 12649 30b4 01       		.byte	0x1
 12650 30b5 A803     		.2byte	0x3a8
 12651 30b7 90000000 		.4byte	0x90
 12652 30bb FA370000 		.4byte	.LLST409
 12653 30bf 28       		.uleb128 0x28
 12654 30c0 6E6600   		.ascii	"nf\000"
 12655 30c3 01       		.byte	0x1
 12656 30c4 AA03     		.2byte	0x3aa
 12657 30c6 90000000 		.4byte	0x90
 12658 30ca 19380000 		.4byte	.LLST410
ARM GAS  C:\Users\rdn\AppData\Local\Temp\cciiQw7C.s 			page 260


 12659 30ce 33       		.uleb128 0x33
 12660 30cf 68050000 		.4byte	.LASF120
 12661 30d3 01       		.byte	0x1
 12662 30d4 AB03     		.2byte	0x3ab
 12663 30d6 A9000000 		.4byte	0xa9
 12664 30da 02       		.uleb128 0x2
 12665 30db 91       		.byte	0x91
 12666 30dc 66       		.sleb128 -26
 12667 30dd 2A       		.uleb128 0x2a
 12668 30de 1A080000 		.4byte	.LASF166
 12669 30e2 01       		.byte	0x1
 12670 30e3 B103     		.2byte	0x3b1
 12671 30e5 90000000 		.4byte	0x90
 12672 30e9 38380000 		.4byte	.LLST411
 12673 30ed 2A       		.uleb128 0x2a
 12674 30ee D4070000 		.4byte	.LASF92
 12675 30f2 01       		.byte	0x1
 12676 30f3 B803     		.2byte	0x3b8
 12677 30f5 90000000 		.4byte	0x90
 12678 30f9 6C380000 		.4byte	.LLST412
 12679 30fd 28       		.uleb128 0x28
 12680 30fe 6700     		.ascii	"g\000"
 12681 3100 01       		.byte	0x1
 12682 3101 B903     		.2byte	0x3b9
 12683 3103 25000000 		.4byte	0x25
 12684 3107 7F380000 		.4byte	.LLST413
 12685 310b 30       		.uleb128 0x30
 12686 310c FC030000 		.4byte	0x3fc
 12687 3110 5C000000 		.4byte	.LBB440
 12688 3114 0A000000 		.4byte	.LBE440-.LBB440
 12689 3118 01       		.byte	0x1
 12690 3119 B603     		.2byte	0x3b6
 12691 311b 29310000 		.4byte	0x3129
 12692 311f 27       		.uleb128 0x27
 12693 3120 0C040000 		.4byte	0x40c
 12694 3124 9D380000 		.4byte	.LLST414
 12695 3128 00       		.byte	0
 12696 3129 3C       		.uleb128 0x3c
 12697 312a 18000000 		.4byte	.LVL917
 12698 312e BC140000 		.4byte	0x14bc
 12699 3132 3E310000 		.4byte	0x313e
 12700 3136 23       		.uleb128 0x23
 12701 3137 01       		.uleb128 0x1
 12702 3138 50       		.byte	0x50
 12703 3139 03       		.uleb128 0x3
 12704 313a 91       		.byte	0x91
 12705 313b 50       		.sleb128 -48
 12706 313c 06       		.byte	0x6
 12707 313d 00       		.byte	0
 12708 313e 3C       		.uleb128 0x3c
 12709 313f 36000000 		.4byte	.LVL922
 12710 3143 20200000 		.4byte	0x2020
 12711 3147 86310000 		.4byte	0x3186
 12712 314b 23       		.uleb128 0x23
 12713 314c 01       		.uleb128 0x1
 12714 314d 50       		.byte	0x50
 12715 314e 03       		.uleb128 0x3
ARM GAS  C:\Users\rdn\AppData\Local\Temp\cciiQw7C.s 			page 261


 12716 314f 91       		.byte	0x91
 12717 3150 50       		.sleb128 -48
 12718 3151 06       		.byte	0x6
 12719 3152 23       		.uleb128 0x23
 12720 3153 01       		.uleb128 0x1
 12721 3154 51       		.byte	0x51
 12722 3155 04       		.uleb128 0x4
 12723 3156 91       		.byte	0x91
 12724 3157 54       		.sleb128 -44
 12725 3158 94       		.byte	0x94
 12726 3159 01       		.byte	0x1
 12727 315a 23       		.uleb128 0x23
 12728 315b 01       		.uleb128 0x1
 12729 315c 52       		.byte	0x52
 12730 315d 04       		.uleb128 0x4
 12731 315e 91       		.byte	0x91
 12732 315f 4C       		.sleb128 -52
 12733 3160 94       		.byte	0x94
 12734 3161 01       		.byte	0x1
 12735 3162 23       		.uleb128 0x23
 12736 3163 01       		.uleb128 0x1
 12737 3164 53       		.byte	0x53
 12738 3165 03       		.uleb128 0x3
 12739 3166 91       		.byte	0x91
 12740 3167 00       		.sleb128 0
 12741 3168 06       		.byte	0x6
 12742 3169 23       		.uleb128 0x23
 12743 316a 02       		.uleb128 0x2
 12744 316b 7D       		.byte	0x7d
 12745 316c 00       		.sleb128 0
 12746 316d 02       		.uleb128 0x2
 12747 316e 77       		.byte	0x77
 12748 316f 00       		.sleb128 0
 12749 3170 23       		.uleb128 0x23
 12750 3171 02       		.uleb128 0x2
 12751 3172 7D       		.byte	0x7d
 12752 3173 04       		.sleb128 4
 12753 3174 02       		.uleb128 0x2
 12754 3175 75       		.byte	0x75
 12755 3176 00       		.sleb128 0
 12756 3177 23       		.uleb128 0x23
 12757 3178 02       		.uleb128 0x2
 12758 3179 7D       		.byte	0x7d
 12759 317a 08       		.sleb128 8
 12760 317b 02       		.uleb128 0x2
 12761 317c 74       		.byte	0x74
 12762 317d 00       		.sleb128 0
 12763 317e 23       		.uleb128 0x23
 12764 317f 02       		.uleb128 0x2
 12765 3180 7D       		.byte	0x7d
 12766 3181 0C       		.sleb128 12
 12767 3182 02       		.uleb128 0x2
 12768 3183 91       		.byte	0x91
 12769 3184 66       		.sleb128 -26
 12770 3185 00       		.byte	0
 12771 3186 3C       		.uleb128 0x3c
 12772 3187 40000000 		.4byte	.LVL924
ARM GAS  C:\Users\rdn\AppData\Local\Temp\cciiQw7C.s 			page 262


 12773 318b F6330000 		.4byte	0x33f6
 12774 318f 9B310000 		.4byte	0x319b
 12775 3193 23       		.uleb128 0x23
 12776 3194 01       		.uleb128 0x1
 12777 3195 50       		.byte	0x50
 12778 3196 03       		.uleb128 0x3
 12779 3197 91       		.byte	0x91
 12780 3198 50       		.sleb128 -48
 12781 3199 06       		.byte	0x6
 12782 319a 00       		.byte	0
 12783 319b 3C       		.uleb128 0x3c
 12784 319c 5A000000 		.4byte	.LVL928
 12785 31a0 07250000 		.4byte	0x2507
 12786 31a4 C3310000 		.4byte	0x31c3
 12787 31a8 23       		.uleb128 0x23
 12788 31a9 01       		.uleb128 0x1
 12789 31aa 50       		.byte	0x50
 12790 31ab 03       		.uleb128 0x3
 12791 31ac 91       		.byte	0x91
 12792 31ad 50       		.sleb128 -48
 12793 31ae 06       		.byte	0x6
 12794 31af 23       		.uleb128 0x23
 12795 31b0 01       		.uleb128 0x1
 12796 31b1 52       		.byte	0x52
 12797 31b2 02       		.uleb128 0x2
 12798 31b3 74       		.byte	0x74
 12799 31b4 00       		.sleb128 0
 12800 31b5 23       		.uleb128 0x23
 12801 31b6 01       		.uleb128 0x1
 12802 31b7 53       		.byte	0x53
 12803 31b8 02       		.uleb128 0x2
 12804 31b9 77       		.byte	0x77
 12805 31ba 00       		.sleb128 0
 12806 31bb 23       		.uleb128 0x23
 12807 31bc 02       		.uleb128 0x2
 12808 31bd 7D       		.byte	0x7d
 12809 31be 00       		.sleb128 0
 12810 31bf 02       		.uleb128 0x2
 12811 31c0 91       		.byte	0x91
 12812 31c1 66       		.sleb128 -26
 12813 31c2 00       		.byte	0
 12814 31c3 3C       		.uleb128 0x3c
 12815 31c4 72000000 		.4byte	.LVL932
 12816 31c8 E7160000 		.4byte	0x16e7
 12817 31cc F6310000 		.4byte	0x31f6
 12818 31d0 23       		.uleb128 0x23
 12819 31d1 01       		.uleb128 0x1
 12820 31d2 50       		.byte	0x50
 12821 31d3 03       		.uleb128 0x3
 12822 31d4 91       		.byte	0x91
 12823 31d5 50       		.sleb128 -48
 12824 31d6 06       		.byte	0x6
 12825 31d7 23       		.uleb128 0x23
 12826 31d8 01       		.uleb128 0x1
 12827 31d9 52       		.byte	0x52
 12828 31da 0D       		.uleb128 0xd
 12829 31db 34       		.byte	0x34
ARM GAS  C:\Users\rdn\AppData\Local\Temp\cciiQw7C.s 			page 263


 12830 31dc 40       		.byte	0x40
 12831 31dd 4B       		.byte	0x4b
 12832 31de 24       		.byte	0x24
 12833 31df 22       		.byte	0x22
 12834 31e0 91       		.byte	0x91
 12835 31e1 4C       		.sleb128 -52
 12836 31e2 06       		.byte	0x6
 12837 31e3 40       		.byte	0x40
 12838 31e4 4B       		.byte	0x4b
 12839 31e5 24       		.byte	0x24
 12840 31e6 22       		.byte	0x22
 12841 31e7 2D       		.byte	0x2d
 12842 31e8 23       		.uleb128 0x23
 12843 31e9 01       		.uleb128 0x1
 12844 31ea 53       		.byte	0x53
 12845 31eb 02       		.uleb128 0x2
 12846 31ec 74       		.byte	0x74
 12847 31ed 00       		.sleb128 0
 12848 31ee 23       		.uleb128 0x23
 12849 31ef 02       		.uleb128 0x2
 12850 31f0 7D       		.byte	0x7d
 12851 31f1 00       		.sleb128 0
 12852 31f2 02       		.uleb128 0x2
 12853 31f3 77       		.byte	0x77
 12854 31f4 00       		.sleb128 0
 12855 31f5 00       		.byte	0
 12856 31f6 3C       		.uleb128 0x3c
 12857 31f7 7C000000 		.4byte	.LVL934
 12858 31fb 09060000 		.4byte	0x609
 12859 31ff 13320000 		.4byte	0x3213
 12860 3203 23       		.uleb128 0x23
 12861 3204 01       		.uleb128 0x1
 12862 3205 50       		.byte	0x50
 12863 3206 04       		.uleb128 0x4
 12864 3207 91       		.byte	0x91
 12865 3208 4C       		.sleb128 -52
 12866 3209 94       		.byte	0x94
 12867 320a 01       		.byte	0x1
 12868 320b 23       		.uleb128 0x23
 12869 320c 01       		.uleb128 0x1
 12870 320d 51       		.byte	0x51
 12871 320e 03       		.uleb128 0x3
 12872 320f 91       		.byte	0x91
 12873 3210 00       		.sleb128 0
 12874 3211 06       		.byte	0x6
 12875 3212 00       		.byte	0
 12876 3213 3C       		.uleb128 0x3c
 12877 3214 8A000000 		.4byte	.LVL936
 12878 3218 C4080000 		.4byte	0x8c4
 12879 321c 3E320000 		.4byte	0x323e
 12880 3220 23       		.uleb128 0x23
 12881 3221 01       		.uleb128 0x1
 12882 3222 50       		.byte	0x50
 12883 3223 04       		.uleb128 0x4
 12884 3224 91       		.byte	0x91
 12885 3225 54       		.sleb128 -44
 12886 3226 94       		.byte	0x94
ARM GAS  C:\Users\rdn\AppData\Local\Temp\cciiQw7C.s 			page 264


 12887 3227 01       		.byte	0x1
 12888 3228 23       		.uleb128 0x23
 12889 3229 01       		.uleb128 0x1
 12890 322a 51       		.byte	0x51
 12891 322b 04       		.uleb128 0x4
 12892 322c 91       		.byte	0x91
 12893 322d 4C       		.sleb128 -52
 12894 322e 94       		.byte	0x94
 12895 322f 01       		.byte	0x1
 12896 3230 23       		.uleb128 0x23
 12897 3231 01       		.uleb128 0x1
 12898 3232 53       		.byte	0x53
 12899 3233 02       		.uleb128 0x2
 12900 3234 74       		.byte	0x74
 12901 3235 00       		.sleb128 0
 12902 3236 23       		.uleb128 0x23
 12903 3237 02       		.uleb128 0x2
 12904 3238 7D       		.byte	0x7d
 12905 3239 00       		.sleb128 0
 12906 323a 02       		.uleb128 0x2
 12907 323b 77       		.byte	0x77
 12908 323c 00       		.sleb128 0
 12909 323d 00       		.byte	0
 12910 323e 22       		.uleb128 0x22
 12911 323f CE000000 		.4byte	.LVL943
 12912 3243 E70C0000 		.4byte	0xce7
 12913 3247 23       		.uleb128 0x23
 12914 3248 01       		.uleb128 0x1
 12915 3249 50       		.byte	0x50
 12916 324a 04       		.uleb128 0x4
 12917 324b 91       		.byte	0x91
 12918 324c 54       		.sleb128 -44
 12919 324d 94       		.byte	0x94
 12920 324e 01       		.byte	0x1
 12921 324f 23       		.uleb128 0x23
 12922 3250 01       		.uleb128 0x1
 12923 3251 51       		.byte	0x51
 12924 3252 04       		.uleb128 0x4
 12925 3253 91       		.byte	0x91
 12926 3254 5C       		.sleb128 -36
 12927 3255 94       		.byte	0x94
 12928 3256 01       		.byte	0x1
 12929 3257 23       		.uleb128 0x23
 12930 3258 01       		.uleb128 0x1
 12931 3259 52       		.byte	0x52
 12932 325a 03       		.uleb128 0x3
 12933 325b 91       		.byte	0x91
 12934 325c 58       		.sleb128 -40
 12935 325d 06       		.byte	0x6
 12936 325e 23       		.uleb128 0x23
 12937 325f 02       		.uleb128 0x2
 12938 3260 7D       		.byte	0x7d
 12939 3261 00       		.sleb128 0
 12940 3262 03       		.uleb128 0x3
 12941 3263 F5       		.byte	0xf5
 12942 3264 05       		.uleb128 0x5
 12943 3265 25       		.uleb128 0x25
ARM GAS  C:\Users\rdn\AppData\Local\Temp\cciiQw7C.s 			page 265


 12944 3266 23       		.uleb128 0x23
 12945 3267 02       		.uleb128 0x2
 12946 3268 7D       		.byte	0x7d
 12947 3269 04       		.sleb128 4
 12948 326a 02       		.uleb128 0x2
 12949 326b 74       		.byte	0x74
 12950 326c 00       		.sleb128 0
 12951 326d 23       		.uleb128 0x23
 12952 326e 02       		.uleb128 0x2
 12953 326f 7D       		.byte	0x7d
 12954 3270 08       		.sleb128 8
 12955 3271 02       		.uleb128 0x2
 12956 3272 77       		.byte	0x77
 12957 3273 00       		.sleb128 0
 12958 3274 00       		.byte	0
 12959 3275 00       		.byte	0
 12960 3276 0C       		.uleb128 0xc
 12961 3277 D2070000 		.4byte	0x7d2
 12962 327b 86320000 		.4byte	0x3286
 12963 327f 0D       		.uleb128 0xd
 12964 3280 41010000 		.4byte	0x141
 12965 3284 06       		.byte	0x6
 12966 3285 00       		.byte	0
 12967 3286 51       		.uleb128 0x51
 12968 3287 85010000 		.4byte	.LASF169
 12969 328b 02       		.byte	0x2
 12970 328c 2A       		.byte	0x2a
 12971 328d 91320000 		.4byte	0x3291
 12972 3291 0F       		.uleb128 0xf
 12973 3292 76320000 		.4byte	0x3276
 12974 3296 51       		.uleb128 0x51
 12975 3297 86000000 		.4byte	.LASF170
 12976 329b 02       		.byte	0x2
 12977 329c 2B       		.byte	0x2b
 12978 329d A1320000 		.4byte	0x32a1
 12979 32a1 0F       		.uleb128 0xf
 12980 32a2 76320000 		.4byte	0x3276
 12981 32a6 51       		.uleb128 0x51
 12982 32a7 4F010000 		.4byte	.LASF171
 12983 32ab 02       		.byte	0x2
 12984 32ac 2C       		.byte	0x2c
 12985 32ad B1320000 		.4byte	0x32b1
 12986 32b1 0F       		.uleb128 0xf
 12987 32b2 76320000 		.4byte	0x3276
 12988 32b6 0C       		.uleb128 0xc
 12989 32b7 D2070000 		.4byte	0x7d2
 12990 32bb D2320000 		.4byte	0x32d2
 12991 32bf 0D       		.uleb128 0xd
 12992 32c0 41010000 		.4byte	0x141
 12993 32c4 03       		.byte	0x3
 12994 32c5 0D       		.uleb128 0xd
 12995 32c6 41010000 		.4byte	0x141
 12996 32ca 01       		.byte	0x1
 12997 32cb 0D       		.uleb128 0xd
 12998 32cc 41010000 		.4byte	0x141
 12999 32d0 01       		.byte	0x1
 13000 32d1 00       		.byte	0
ARM GAS  C:\Users\rdn\AppData\Local\Temp\cciiQw7C.s 			page 266


 13001 32d2 51       		.uleb128 0x51
 13002 32d3 15090000 		.4byte	.LASF172
 13003 32d7 02       		.byte	0x2
 13004 32d8 4E       		.byte	0x4e
 13005 32d9 DD320000 		.4byte	0x32dd
 13006 32dd 0F       		.uleb128 0xf
 13007 32de B6320000 		.4byte	0x32b6
 13008 32e2 0C       		.uleb128 0xc
 13009 32e3 F7020000 		.4byte	0x2f7
 13010 32e7 04330000 		.4byte	0x3304
 13011 32eb 0D       		.uleb128 0xd
 13012 32ec 41010000 		.4byte	0x141
 13013 32f0 01       		.byte	0x1
 13014 32f1 0D       		.uleb128 0xd
 13015 32f2 41010000 		.4byte	0x141
 13016 32f6 01       		.byte	0x1
 13017 32f7 0D       		.uleb128 0xd
 13018 32f8 41010000 		.4byte	0x141
 13019 32fc FF       		.byte	0xff
 13020 32fd 0D       		.uleb128 0xd
 13021 32fe 41010000 		.4byte	0x141
 13022 3302 03       		.byte	0x3
 13023 3303 00       		.byte	0
 13024 3304 51       		.uleb128 0x51
 13025 3305 91040000 		.4byte	.LASF173
 13026 3309 02       		.byte	0x2
 13027 330a 9C       		.byte	0x9c
 13028 330b 0F330000 		.4byte	0x330f
 13029 330f 0F       		.uleb128 0xf
 13030 3310 E2320000 		.4byte	0x32e2
 13031 3314 0C       		.uleb128 0xc
 13032 3315 6C180000 		.4byte	0x186c
 13033 3319 1F330000 		.4byte	0x331f
 13034 331d 52       		.uleb128 0x52
 13035 331e 00       		.byte	0
 13036 331f 51       		.uleb128 0x51
 13037 3320 81060000 		.4byte	.LASF174
 13038 3324 02       		.byte	0x2
 13039 3325 9D       		.byte	0x9d
 13040 3326 2A330000 		.4byte	0x332a
 13041 332a 0F       		.uleb128 0xf
 13042 332b 14330000 		.4byte	0x3314
 13043 332f 0C       		.uleb128 0xc
 13044 3330 83050000 		.4byte	0x583
 13045 3334 40330000 		.4byte	0x3340
 13046 3338 52       		.uleb128 0x52
 13047 3339 0D       		.uleb128 0xd
 13048 333a 41010000 		.4byte	0x141
 13049 333e 10       		.byte	0x10
 13050 333f 00       		.byte	0
 13051 3340 51       		.uleb128 0x51
 13052 3341 95020000 		.4byte	.LASF175
 13053 3345 02       		.byte	0x2
 13054 3346 9E       		.byte	0x9e
 13055 3347 4B330000 		.4byte	0x334b
 13056 334b 0F       		.uleb128 0xf
 13057 334c 2F330000 		.4byte	0x332f
ARM GAS  C:\Users\rdn\AppData\Local\Temp\cciiQw7C.s 			page 267


 13058 3350 53       		.uleb128 0x53
 13059 3351 81080000 		.4byte	.LASF176
 13060 3355 81080000 		.4byte	.LASF176
 13061 3359 53       		.uleb128 0x53
 13062 335a 1B050000 		.4byte	.LASF177
 13063 335e 1B050000 		.4byte	.LASF177
 13064 3362 54       		.uleb128 0x54
 13065 3363 8D050000 		.4byte	.LASF178
 13066 3367 8D050000 		.4byte	.LASF178
 13067 336b 0B       		.byte	0xb
 13068 336c 9101     		.2byte	0x191
 13069 336e 54       		.uleb128 0x54
 13070 336f B9060000 		.4byte	.LASF179
 13071 3373 B9060000 		.4byte	.LASF179
 13072 3377 0B       		.byte	0xb
 13073 3378 9701     		.2byte	0x197
 13074 337a 54       		.uleb128 0x54
 13075 337b 0F080000 		.4byte	.LASF180
 13076 337f 0F080000 		.4byte	.LASF180
 13077 3383 0B       		.byte	0xb
 13078 3384 8501     		.2byte	0x185
 13079 3386 55       		.uleb128 0x55
 13080 3387 70050000 		.4byte	.LASF181
 13081 338b 70050000 		.4byte	.LASF181
 13082 338f 05       		.byte	0x5
 13083 3390 C8       		.byte	0xc8
 13084 3391 55       		.uleb128 0x55
 13085 3392 46030000 		.4byte	.LASF182
 13086 3396 46030000 		.4byte	.LASF182
 13087 339a 05       		.byte	0x5
 13088 339b C9       		.byte	0xc9
 13089 339c 54       		.uleb128 0x54
 13090 339d B2060000 		.4byte	.LASF183
 13091 33a1 B2060000 		.4byte	.LASF183
 13092 33a5 0B       		.byte	0xb
 13093 33a6 9401     		.2byte	0x194
 13094 33a8 55       		.uleb128 0x55
 13095 33a9 59010000 		.4byte	.LASF184
 13096 33ad 59010000 		.4byte	.LASF184
 13097 33b1 05       		.byte	0x5
 13098 33b2 CC       		.byte	0xcc
 13099 33b3 55       		.uleb128 0x55
 13100 33b4 40050000 		.4byte	.LASF185
 13101 33b8 40050000 		.4byte	.LASF185
 13102 33bc 05       		.byte	0x5
 13103 33bd CB       		.byte	0xcb
 13104 33be 55       		.uleb128 0x55
 13105 33bf DD080000 		.4byte	.LASF186
 13106 33c3 DD080000 		.4byte	.LASF186
 13107 33c7 0C       		.byte	0xc
 13108 33c8 28       		.byte	0x28
 13109 33c9 55       		.uleb128 0x55
 13110 33ca 33030000 		.4byte	.LASF187
 13111 33ce 33030000 		.4byte	.LASF187
 13112 33d2 0D       		.byte	0xd
 13113 33d3 43       		.byte	0x43
 13114 33d4 55       		.uleb128 0x55
ARM GAS  C:\Users\rdn\AppData\Local\Temp\cciiQw7C.s 			page 268


 13115 33d5 46040000 		.4byte	.LASF188
 13116 33d9 46040000 		.4byte	.LASF188
 13117 33dd 0E       		.byte	0xe
 13118 33de 3F       		.byte	0x3f
 13119 33df 55       		.uleb128 0x55
 13120 33e0 46090000 		.4byte	.LASF189
 13121 33e4 46090000 		.4byte	.LASF189
 13122 33e8 09       		.byte	0x9
 13123 33e9 3A       		.byte	0x3a
 13124 33ea 54       		.uleb128 0x54
 13125 33eb CE020000 		.4byte	.LASF190
 13126 33ef CE020000 		.4byte	.LASF190
 13127 33f3 0B       		.byte	0xb
 13128 33f4 9801     		.2byte	0x198
 13129 33f6 55       		.uleb128 0x55
 13130 33f7 25080000 		.4byte	.LASF191
 13131 33fb 25080000 		.4byte	.LASF191
 13132 33ff 05       		.byte	0x5
 13133 3400 86       		.byte	0x86
 13134 3401 00       		.byte	0
 13135              		.section	.debug_abbrev,"",%progbits
 13136              	.Ldebug_abbrev0:
 13137 0000 01       		.uleb128 0x1
 13138 0001 11       		.uleb128 0x11
 13139 0002 01       		.byte	0x1
 13140 0003 25       		.uleb128 0x25
 13141 0004 0E       		.uleb128 0xe
 13142 0005 13       		.uleb128 0x13
 13143 0006 0B       		.uleb128 0xb
 13144 0007 03       		.uleb128 0x3
 13145 0008 0E       		.uleb128 0xe
 13146 0009 1B       		.uleb128 0x1b
 13147 000a 0E       		.uleb128 0xe
 13148 000b 55       		.uleb128 0x55
 13149 000c 17       		.uleb128 0x17
 13150 000d 11       		.uleb128 0x11
 13151 000e 01       		.uleb128 0x1
 13152 000f 10       		.uleb128 0x10
 13153 0010 17       		.uleb128 0x17
 13154 0011 00       		.byte	0
 13155 0012 00       		.byte	0
 13156 0013 02       		.uleb128 0x2
 13157 0014 24       		.uleb128 0x24
 13158 0015 00       		.byte	0
 13159 0016 0B       		.uleb128 0xb
 13160 0017 0B       		.uleb128 0xb
 13161 0018 3E       		.uleb128 0x3e
 13162 0019 0B       		.uleb128 0xb
 13163 001a 03       		.uleb128 0x3
 13164 001b 0E       		.uleb128 0xe
 13165 001c 00       		.byte	0
 13166 001d 00       		.byte	0
 13167 001e 03       		.uleb128 0x3
 13168 001f 16       		.uleb128 0x16
 13169 0020 00       		.byte	0
 13170 0021 03       		.uleb128 0x3
 13171 0022 0E       		.uleb128 0xe
ARM GAS  C:\Users\rdn\AppData\Local\Temp\cciiQw7C.s 			page 269


 13172 0023 3A       		.uleb128 0x3a
 13173 0024 0B       		.uleb128 0xb
 13174 0025 3B       		.uleb128 0x3b
 13175 0026 0B       		.uleb128 0xb
 13176 0027 49       		.uleb128 0x49
 13177 0028 13       		.uleb128 0x13
 13178 0029 00       		.byte	0
 13179 002a 00       		.byte	0
 13180 002b 04       		.uleb128 0x4
 13181 002c 24       		.uleb128 0x24
 13182 002d 00       		.byte	0
 13183 002e 0B       		.uleb128 0xb
 13184 002f 0B       		.uleb128 0xb
 13185 0030 3E       		.uleb128 0x3e
 13186 0031 0B       		.uleb128 0xb
 13187 0032 03       		.uleb128 0x3
 13188 0033 08       		.uleb128 0x8
 13189 0034 00       		.byte	0
 13190 0035 00       		.byte	0
 13191 0036 05       		.uleb128 0x5
 13192 0037 04       		.uleb128 0x4
 13193 0038 01       		.byte	0x1
 13194 0039 03       		.uleb128 0x3
 13195 003a 0E       		.uleb128 0xe
 13196 003b 0B       		.uleb128 0xb
 13197 003c 0B       		.uleb128 0xb
 13198 003d 49       		.uleb128 0x49
 13199 003e 13       		.uleb128 0x13
 13200 003f 3A       		.uleb128 0x3a
 13201 0040 0B       		.uleb128 0xb
 13202 0041 3B       		.uleb128 0x3b
 13203 0042 0B       		.uleb128 0xb
 13204 0043 01       		.uleb128 0x1
 13205 0044 13       		.uleb128 0x13
 13206 0045 00       		.byte	0
 13207 0046 00       		.byte	0
 13208 0047 06       		.uleb128 0x6
 13209 0048 28       		.uleb128 0x28
 13210 0049 00       		.byte	0
 13211 004a 03       		.uleb128 0x3
 13212 004b 0E       		.uleb128 0xe
 13213 004c 1C       		.uleb128 0x1c
 13214 004d 0B       		.uleb128 0xb
 13215 004e 00       		.byte	0
 13216 004f 00       		.byte	0
 13217 0050 07       		.uleb128 0x7
 13218 0051 13       		.uleb128 0x13
 13219 0052 01       		.byte	0x1
 13220 0053 03       		.uleb128 0x3
 13221 0054 0E       		.uleb128 0xe
 13222 0055 0B       		.uleb128 0xb
 13223 0056 0B       		.uleb128 0xb
 13224 0057 3A       		.uleb128 0x3a
 13225 0058 0B       		.uleb128 0xb
 13226 0059 3B       		.uleb128 0x3b
 13227 005a 0B       		.uleb128 0xb
 13228 005b 01       		.uleb128 0x1
ARM GAS  C:\Users\rdn\AppData\Local\Temp\cciiQw7C.s 			page 270


 13229 005c 13       		.uleb128 0x13
 13230 005d 00       		.byte	0
 13231 005e 00       		.byte	0
 13232 005f 08       		.uleb128 0x8
 13233 0060 0D       		.uleb128 0xd
 13234 0061 00       		.byte	0
 13235 0062 03       		.uleb128 0x3
 13236 0063 0E       		.uleb128 0xe
 13237 0064 3A       		.uleb128 0x3a
 13238 0065 0B       		.uleb128 0xb
 13239 0066 3B       		.uleb128 0x3b
 13240 0067 0B       		.uleb128 0xb
 13241 0068 49       		.uleb128 0x49
 13242 0069 13       		.uleb128 0x13
 13243 006a 38       		.uleb128 0x38
 13244 006b 0B       		.uleb128 0xb
 13245 006c 00       		.byte	0
 13246 006d 00       		.byte	0
 13247 006e 09       		.uleb128 0x9
 13248 006f 0D       		.uleb128 0xd
 13249 0070 00       		.byte	0
 13250 0071 03       		.uleb128 0x3
 13251 0072 08       		.uleb128 0x8
 13252 0073 3A       		.uleb128 0x3a
 13253 0074 0B       		.uleb128 0xb
 13254 0075 3B       		.uleb128 0x3b
 13255 0076 0B       		.uleb128 0xb
 13256 0077 49       		.uleb128 0x49
 13257 0078 13       		.uleb128 0x13
 13258 0079 0B       		.uleb128 0xb
 13259 007a 0B       		.uleb128 0xb
 13260 007b 0D       		.uleb128 0xd
 13261 007c 0B       		.uleb128 0xb
 13262 007d 0C       		.uleb128 0xc
 13263 007e 0B       		.uleb128 0xb
 13264 007f 38       		.uleb128 0x38
 13265 0080 0B       		.uleb128 0xb
 13266 0081 00       		.byte	0
 13267 0082 00       		.byte	0
 13268 0083 0A       		.uleb128 0xa
 13269 0084 0D       		.uleb128 0xd
 13270 0085 00       		.byte	0
 13271 0086 03       		.uleb128 0x3
 13272 0087 0E       		.uleb128 0xe
 13273 0088 3A       		.uleb128 0x3a
 13274 0089 0B       		.uleb128 0xb
 13275 008a 3B       		.uleb128 0x3b
 13276 008b 0B       		.uleb128 0xb
 13277 008c 49       		.uleb128 0x49
 13278 008d 13       		.uleb128 0x13
 13279 008e 0B       		.uleb128 0xb
 13280 008f 0B       		.uleb128 0xb
 13281 0090 0D       		.uleb128 0xd
 13282 0091 0B       		.uleb128 0xb
 13283 0092 0C       		.uleb128 0xc
 13284 0093 0B       		.uleb128 0xb
 13285 0094 38       		.uleb128 0x38
ARM GAS  C:\Users\rdn\AppData\Local\Temp\cciiQw7C.s 			page 271


 13286 0095 0B       		.uleb128 0xb
 13287 0096 00       		.byte	0
 13288 0097 00       		.byte	0
 13289 0098 0B       		.uleb128 0xb
 13290 0099 0D       		.uleb128 0xd
 13291 009a 00       		.byte	0
 13292 009b 03       		.uleb128 0x3
 13293 009c 08       		.uleb128 0x8
 13294 009d 3A       		.uleb128 0x3a
 13295 009e 0B       		.uleb128 0xb
 13296 009f 3B       		.uleb128 0x3b
 13297 00a0 0B       		.uleb128 0xb
 13298 00a1 49       		.uleb128 0x49
 13299 00a2 13       		.uleb128 0x13
 13300 00a3 38       		.uleb128 0x38
 13301 00a4 0B       		.uleb128 0xb
 13302 00a5 00       		.byte	0
 13303 00a6 00       		.byte	0
 13304 00a7 0C       		.uleb128 0xc
 13305 00a8 01       		.uleb128 0x1
 13306 00a9 01       		.byte	0x1
 13307 00aa 49       		.uleb128 0x49
 13308 00ab 13       		.uleb128 0x13
 13309 00ac 01       		.uleb128 0x1
 13310 00ad 13       		.uleb128 0x13
 13311 00ae 00       		.byte	0
 13312 00af 00       		.byte	0
 13313 00b0 0D       		.uleb128 0xd
 13314 00b1 21       		.uleb128 0x21
 13315 00b2 00       		.byte	0
 13316 00b3 49       		.uleb128 0x49
 13317 00b4 13       		.uleb128 0x13
 13318 00b5 2F       		.uleb128 0x2f
 13319 00b6 0B       		.uleb128 0xb
 13320 00b7 00       		.byte	0
 13321 00b8 00       		.byte	0
 13322 00b9 0E       		.uleb128 0xe
 13323 00ba 0F       		.uleb128 0xf
 13324 00bb 00       		.byte	0
 13325 00bc 0B       		.uleb128 0xb
 13326 00bd 0B       		.uleb128 0xb
 13327 00be 49       		.uleb128 0x49
 13328 00bf 13       		.uleb128 0x13
 13329 00c0 00       		.byte	0
 13330 00c1 00       		.byte	0
 13331 00c2 0F       		.uleb128 0xf
 13332 00c3 26       		.uleb128 0x26
 13333 00c4 00       		.byte	0
 13334 00c5 49       		.uleb128 0x49
 13335 00c6 13       		.uleb128 0x13
 13336 00c7 00       		.byte	0
 13337 00c8 00       		.byte	0
 13338 00c9 10       		.uleb128 0x10
 13339 00ca 2E       		.uleb128 0x2e
 13340 00cb 01       		.byte	0x1
 13341 00cc 03       		.uleb128 0x3
 13342 00cd 0E       		.uleb128 0xe
ARM GAS  C:\Users\rdn\AppData\Local\Temp\cciiQw7C.s 			page 272


 13343 00ce 3A       		.uleb128 0x3a
 13344 00cf 0B       		.uleb128 0xb
 13345 00d0 3B       		.uleb128 0x3b
 13346 00d1 0B       		.uleb128 0xb
 13347 00d2 27       		.uleb128 0x27
 13348 00d3 19       		.uleb128 0x19
 13349 00d4 49       		.uleb128 0x49
 13350 00d5 13       		.uleb128 0x13
 13351 00d6 20       		.uleb128 0x20
 13352 00d7 0B       		.uleb128 0xb
 13353 00d8 01       		.uleb128 0x1
 13354 00d9 13       		.uleb128 0x13
 13355 00da 00       		.byte	0
 13356 00db 00       		.byte	0
 13357 00dc 11       		.uleb128 0x11
 13358 00dd 05       		.uleb128 0x5
 13359 00de 00       		.byte	0
 13360 00df 03       		.uleb128 0x3
 13361 00e0 08       		.uleb128 0x8
 13362 00e1 3A       		.uleb128 0x3a
 13363 00e2 0B       		.uleb128 0xb
 13364 00e3 3B       		.uleb128 0x3b
 13365 00e4 0B       		.uleb128 0xb
 13366 00e5 49       		.uleb128 0x49
 13367 00e6 13       		.uleb128 0x13
 13368 00e7 00       		.byte	0
 13369 00e8 00       		.byte	0
 13370 00e9 12       		.uleb128 0x12
 13371 00ea 17       		.uleb128 0x17
 13372 00eb 01       		.byte	0x1
 13373 00ec 0B       		.uleb128 0xb
 13374 00ed 0B       		.uleb128 0xb
 13375 00ee 3A       		.uleb128 0x3a
 13376 00ef 0B       		.uleb128 0xb
 13377 00f0 3B       		.uleb128 0x3b
 13378 00f1 0B       		.uleb128 0xb
 13379 00f2 01       		.uleb128 0x1
 13380 00f3 13       		.uleb128 0x13
 13381 00f4 00       		.byte	0
 13382 00f5 00       		.byte	0
 13383 00f6 13       		.uleb128 0x13
 13384 00f7 0D       		.uleb128 0xd
 13385 00f8 00       		.byte	0
 13386 00f9 03       		.uleb128 0x3
 13387 00fa 08       		.uleb128 0x8
 13388 00fb 3A       		.uleb128 0x3a
 13389 00fc 0B       		.uleb128 0xb
 13390 00fd 3B       		.uleb128 0x3b
 13391 00fe 0B       		.uleb128 0xb
 13392 00ff 49       		.uleb128 0x49
 13393 0100 13       		.uleb128 0x13
 13394 0101 00       		.byte	0
 13395 0102 00       		.byte	0
 13396 0103 14       		.uleb128 0x14
 13397 0104 34       		.uleb128 0x34
 13398 0105 00       		.byte	0
 13399 0106 03       		.uleb128 0x3
ARM GAS  C:\Users\rdn\AppData\Local\Temp\cciiQw7C.s 			page 273


 13400 0107 08       		.uleb128 0x8
 13401 0108 3A       		.uleb128 0x3a
 13402 0109 0B       		.uleb128 0xb
 13403 010a 3B       		.uleb128 0x3b
 13404 010b 0B       		.uleb128 0xb
 13405 010c 49       		.uleb128 0x49
 13406 010d 13       		.uleb128 0x13
 13407 010e 00       		.byte	0
 13408 010f 00       		.byte	0
 13409 0110 15       		.uleb128 0x15
 13410 0111 34       		.uleb128 0x34
 13411 0112 00       		.byte	0
 13412 0113 03       		.uleb128 0x3
 13413 0114 08       		.uleb128 0x8
 13414 0115 3A       		.uleb128 0x3a
 13415 0116 0B       		.uleb128 0xb
 13416 0117 3B       		.uleb128 0x3b
 13417 0118 0B       		.uleb128 0xb
 13418 0119 49       		.uleb128 0x49
 13419 011a 13       		.uleb128 0x13
 13420 011b 1C       		.uleb128 0x1c
 13421 011c 0A       		.uleb128 0xa
 13422 011d 00       		.byte	0
 13423 011e 00       		.byte	0
 13424 011f 16       		.uleb128 0x16
 13425 0120 2E       		.uleb128 0x2e
 13426 0121 01       		.byte	0x1
 13427 0122 03       		.uleb128 0x3
 13428 0123 0E       		.uleb128 0xe
 13429 0124 3A       		.uleb128 0x3a
 13430 0125 0B       		.uleb128 0xb
 13431 0126 3B       		.uleb128 0x3b
 13432 0127 0B       		.uleb128 0xb
 13433 0128 27       		.uleb128 0x27
 13434 0129 19       		.uleb128 0x19
 13435 012a 20       		.uleb128 0x20
 13436 012b 0B       		.uleb128 0xb
 13437 012c 01       		.uleb128 0x1
 13438 012d 13       		.uleb128 0x13
 13439 012e 00       		.byte	0
 13440 012f 00       		.byte	0
 13441 0130 17       		.uleb128 0x17
 13442 0131 05       		.uleb128 0x5
 13443 0132 00       		.byte	0
 13444 0133 03       		.uleb128 0x3
 13445 0134 0E       		.uleb128 0xe
 13446 0135 3A       		.uleb128 0x3a
 13447 0136 0B       		.uleb128 0xb
 13448 0137 3B       		.uleb128 0x3b
 13449 0138 0B       		.uleb128 0xb
 13450 0139 49       		.uleb128 0x49
 13451 013a 13       		.uleb128 0x13
 13452 013b 00       		.byte	0
 13453 013c 00       		.byte	0
 13454 013d 18       		.uleb128 0x18
 13455 013e 34       		.uleb128 0x34
 13456 013f 00       		.byte	0
ARM GAS  C:\Users\rdn\AppData\Local\Temp\cciiQw7C.s 			page 274


 13457 0140 03       		.uleb128 0x3
 13458 0141 0E       		.uleb128 0xe
 13459 0142 3A       		.uleb128 0x3a
 13460 0143 0B       		.uleb128 0xb
 13461 0144 3B       		.uleb128 0x3b
 13462 0145 0B       		.uleb128 0xb
 13463 0146 49       		.uleb128 0x49
 13464 0147 13       		.uleb128 0x13
 13465 0148 00       		.byte	0
 13466 0149 00       		.byte	0
 13467 014a 19       		.uleb128 0x19
 13468 014b 0B       		.uleb128 0xb
 13469 014c 01       		.byte	0x1
 13470 014d 00       		.byte	0
 13471 014e 00       		.byte	0
 13472 014f 1A       		.uleb128 0x1a
 13473 0150 2E       		.uleb128 0x2e
 13474 0151 01       		.byte	0x1
 13475 0152 03       		.uleb128 0x3
 13476 0153 0E       		.uleb128 0xe
 13477 0154 3A       		.uleb128 0x3a
 13478 0155 0B       		.uleb128 0xb
 13479 0156 3B       		.uleb128 0x3b
 13480 0157 0B       		.uleb128 0xb
 13481 0158 27       		.uleb128 0x27
 13482 0159 19       		.uleb128 0x19
 13483 015a 49       		.uleb128 0x49
 13484 015b 13       		.uleb128 0x13
 13485 015c 11       		.uleb128 0x11
 13486 015d 01       		.uleb128 0x1
 13487 015e 12       		.uleb128 0x12
 13488 015f 06       		.uleb128 0x6
 13489 0160 40       		.uleb128 0x40
 13490 0161 18       		.uleb128 0x18
 13491 0162 9642     		.uleb128 0x2116
 13492 0164 19       		.uleb128 0x19
 13493 0165 01       		.uleb128 0x1
 13494 0166 13       		.uleb128 0x13
 13495 0167 00       		.byte	0
 13496 0168 00       		.byte	0
 13497 0169 1B       		.uleb128 0x1b
 13498 016a 05       		.uleb128 0x5
 13499 016b 00       		.byte	0
 13500 016c 03       		.uleb128 0x3
 13501 016d 08       		.uleb128 0x8
 13502 016e 3A       		.uleb128 0x3a
 13503 016f 0B       		.uleb128 0xb
 13504 0170 3B       		.uleb128 0x3b
 13505 0171 0B       		.uleb128 0xb
 13506 0172 49       		.uleb128 0x49
 13507 0173 13       		.uleb128 0x13
 13508 0174 02       		.uleb128 0x2
 13509 0175 17       		.uleb128 0x17
 13510 0176 00       		.byte	0
 13511 0177 00       		.byte	0
 13512 0178 1C       		.uleb128 0x1c
 13513 0179 05       		.uleb128 0x5
ARM GAS  C:\Users\rdn\AppData\Local\Temp\cciiQw7C.s 			page 275


 13514 017a 00       		.byte	0
 13515 017b 03       		.uleb128 0x3
 13516 017c 0E       		.uleb128 0xe
 13517 017d 3A       		.uleb128 0x3a
 13518 017e 0B       		.uleb128 0xb
 13519 017f 3B       		.uleb128 0x3b
 13520 0180 0B       		.uleb128 0xb
 13521 0181 49       		.uleb128 0x49
 13522 0182 13       		.uleb128 0x13
 13523 0183 02       		.uleb128 0x2
 13524 0184 17       		.uleb128 0x17
 13525 0185 00       		.byte	0
 13526 0186 00       		.byte	0
 13527 0187 1D       		.uleb128 0x1d
 13528 0188 34       		.uleb128 0x34
 13529 0189 00       		.byte	0
 13530 018a 03       		.uleb128 0x3
 13531 018b 0E       		.uleb128 0xe
 13532 018c 3A       		.uleb128 0x3a
 13533 018d 0B       		.uleb128 0xb
 13534 018e 3B       		.uleb128 0x3b
 13535 018f 0B       		.uleb128 0xb
 13536 0190 49       		.uleb128 0x49
 13537 0191 13       		.uleb128 0x13
 13538 0192 02       		.uleb128 0x2
 13539 0193 17       		.uleb128 0x17
 13540 0194 00       		.byte	0
 13541 0195 00       		.byte	0
 13542 0196 1E       		.uleb128 0x1e
 13543 0197 34       		.uleb128 0x34
 13544 0198 00       		.byte	0
 13545 0199 03       		.uleb128 0x3
 13546 019a 0E       		.uleb128 0xe
 13547 019b 3A       		.uleb128 0x3a
 13548 019c 0B       		.uleb128 0xb
 13549 019d 3B       		.uleb128 0x3b
 13550 019e 0B       		.uleb128 0xb
 13551 019f 49       		.uleb128 0x49
 13552 01a0 13       		.uleb128 0x13
 13553 01a1 02       		.uleb128 0x2
 13554 01a2 18       		.uleb128 0x18
 13555 01a3 00       		.byte	0
 13556 01a4 00       		.byte	0
 13557 01a5 1F       		.uleb128 0x1f
 13558 01a6 34       		.uleb128 0x34
 13559 01a7 00       		.byte	0
 13560 01a8 03       		.uleb128 0x3
 13561 01a9 08       		.uleb128 0x8
 13562 01aa 3A       		.uleb128 0x3a
 13563 01ab 0B       		.uleb128 0xb
 13564 01ac 3B       		.uleb128 0x3b
 13565 01ad 0B       		.uleb128 0xb
 13566 01ae 49       		.uleb128 0x49
 13567 01af 13       		.uleb128 0x13
 13568 01b0 02       		.uleb128 0x2
 13569 01b1 17       		.uleb128 0x17
 13570 01b2 00       		.byte	0
ARM GAS  C:\Users\rdn\AppData\Local\Temp\cciiQw7C.s 			page 276


 13571 01b3 00       		.byte	0
 13572 01b4 20       		.uleb128 0x20
 13573 01b5 05       		.uleb128 0x5
 13574 01b6 00       		.byte	0
 13575 01b7 03       		.uleb128 0x3
 13576 01b8 0E       		.uleb128 0xe
 13577 01b9 3A       		.uleb128 0x3a
 13578 01ba 0B       		.uleb128 0xb
 13579 01bb 3B       		.uleb128 0x3b
 13580 01bc 0B       		.uleb128 0xb
 13581 01bd 49       		.uleb128 0x49
 13582 01be 13       		.uleb128 0x13
 13583 01bf 02       		.uleb128 0x2
 13584 01c0 18       		.uleb128 0x18
 13585 01c1 00       		.byte	0
 13586 01c2 00       		.byte	0
 13587 01c3 21       		.uleb128 0x21
 13588 01c4 0B       		.uleb128 0xb
 13589 01c5 01       		.byte	0x1
 13590 01c6 11       		.uleb128 0x11
 13591 01c7 01       		.uleb128 0x1
 13592 01c8 12       		.uleb128 0x12
 13593 01c9 06       		.uleb128 0x6
 13594 01ca 01       		.uleb128 0x1
 13595 01cb 13       		.uleb128 0x13
 13596 01cc 00       		.byte	0
 13597 01cd 00       		.byte	0
 13598 01ce 22       		.uleb128 0x22
 13599 01cf 898201   		.uleb128 0x4109
 13600 01d2 01       		.byte	0x1
 13601 01d3 11       		.uleb128 0x11
 13602 01d4 01       		.uleb128 0x1
 13603 01d5 31       		.uleb128 0x31
 13604 01d6 13       		.uleb128 0x13
 13605 01d7 00       		.byte	0
 13606 01d8 00       		.byte	0
 13607 01d9 23       		.uleb128 0x23
 13608 01da 8A8201   		.uleb128 0x410a
 13609 01dd 00       		.byte	0
 13610 01de 02       		.uleb128 0x2
 13611 01df 18       		.uleb128 0x18
 13612 01e0 9142     		.uleb128 0x2111
 13613 01e2 18       		.uleb128 0x18
 13614 01e3 00       		.byte	0
 13615 01e4 00       		.byte	0
 13616 01e5 24       		.uleb128 0x24
 13617 01e6 2E       		.uleb128 0x2e
 13618 01e7 01       		.byte	0x1
 13619 01e8 03       		.uleb128 0x3
 13620 01e9 0E       		.uleb128 0xe
 13621 01ea 3A       		.uleb128 0x3a
 13622 01eb 0B       		.uleb128 0xb
 13623 01ec 3B       		.uleb128 0x3b
 13624 01ed 0B       		.uleb128 0xb
 13625 01ee 27       		.uleb128 0x27
 13626 01ef 19       		.uleb128 0x19
 13627 01f0 11       		.uleb128 0x11
ARM GAS  C:\Users\rdn\AppData\Local\Temp\cciiQw7C.s 			page 277


 13628 01f1 01       		.uleb128 0x1
 13629 01f2 12       		.uleb128 0x12
 13630 01f3 06       		.uleb128 0x6
 13631 01f4 40       		.uleb128 0x40
 13632 01f5 18       		.uleb128 0x18
 13633 01f6 9642     		.uleb128 0x2116
 13634 01f8 19       		.uleb128 0x19
 13635 01f9 01       		.uleb128 0x1
 13636 01fa 13       		.uleb128 0x13
 13637 01fb 00       		.byte	0
 13638 01fc 00       		.byte	0
 13639 01fd 25       		.uleb128 0x25
 13640 01fe 05       		.uleb128 0x5
 13641 01ff 00       		.byte	0
 13642 0200 03       		.uleb128 0x3
 13643 0201 08       		.uleb128 0x8
 13644 0202 3A       		.uleb128 0x3a
 13645 0203 0B       		.uleb128 0xb
 13646 0204 3B       		.uleb128 0x3b
 13647 0205 0B       		.uleb128 0xb
 13648 0206 49       		.uleb128 0x49
 13649 0207 13       		.uleb128 0x13
 13650 0208 02       		.uleb128 0x2
 13651 0209 18       		.uleb128 0x18
 13652 020a 00       		.byte	0
 13653 020b 00       		.byte	0
 13654 020c 26       		.uleb128 0x26
 13655 020d 1D       		.uleb128 0x1d
 13656 020e 01       		.byte	0x1
 13657 020f 31       		.uleb128 0x31
 13658 0210 13       		.uleb128 0x13
 13659 0211 11       		.uleb128 0x11
 13660 0212 01       		.uleb128 0x1
 13661 0213 12       		.uleb128 0x12
 13662 0214 06       		.uleb128 0x6
 13663 0215 58       		.uleb128 0x58
 13664 0216 0B       		.uleb128 0xb
 13665 0217 59       		.uleb128 0x59
 13666 0218 0B       		.uleb128 0xb
 13667 0219 01       		.uleb128 0x1
 13668 021a 13       		.uleb128 0x13
 13669 021b 00       		.byte	0
 13670 021c 00       		.byte	0
 13671 021d 27       		.uleb128 0x27
 13672 021e 05       		.uleb128 0x5
 13673 021f 00       		.byte	0
 13674 0220 31       		.uleb128 0x31
 13675 0221 13       		.uleb128 0x13
 13676 0222 02       		.uleb128 0x2
 13677 0223 17       		.uleb128 0x17
 13678 0224 00       		.byte	0
 13679 0225 00       		.byte	0
 13680 0226 28       		.uleb128 0x28
 13681 0227 34       		.uleb128 0x34
 13682 0228 00       		.byte	0
 13683 0229 03       		.uleb128 0x3
 13684 022a 08       		.uleb128 0x8
ARM GAS  C:\Users\rdn\AppData\Local\Temp\cciiQw7C.s 			page 278


 13685 022b 3A       		.uleb128 0x3a
 13686 022c 0B       		.uleb128 0xb
 13687 022d 3B       		.uleb128 0x3b
 13688 022e 05       		.uleb128 0x5
 13689 022f 49       		.uleb128 0x49
 13690 0230 13       		.uleb128 0x13
 13691 0231 02       		.uleb128 0x2
 13692 0232 17       		.uleb128 0x17
 13693 0233 00       		.byte	0
 13694 0234 00       		.byte	0
 13695 0235 29       		.uleb128 0x29
 13696 0236 0B       		.uleb128 0xb
 13697 0237 01       		.byte	0x1
 13698 0238 11       		.uleb128 0x11
 13699 0239 01       		.uleb128 0x1
 13700 023a 12       		.uleb128 0x12
 13701 023b 06       		.uleb128 0x6
 13702 023c 00       		.byte	0
 13703 023d 00       		.byte	0
 13704 023e 2A       		.uleb128 0x2a
 13705 023f 34       		.uleb128 0x34
 13706 0240 00       		.byte	0
 13707 0241 03       		.uleb128 0x3
 13708 0242 0E       		.uleb128 0xe
 13709 0243 3A       		.uleb128 0x3a
 13710 0244 0B       		.uleb128 0xb
 13711 0245 3B       		.uleb128 0x3b
 13712 0246 05       		.uleb128 0x5
 13713 0247 49       		.uleb128 0x49
 13714 0248 13       		.uleb128 0x13
 13715 0249 02       		.uleb128 0x2
 13716 024a 17       		.uleb128 0x17
 13717 024b 00       		.byte	0
 13718 024c 00       		.byte	0
 13719 024d 2B       		.uleb128 0x2b
 13720 024e 2E       		.uleb128 0x2e
 13721 024f 01       		.byte	0x1
 13722 0250 03       		.uleb128 0x3
 13723 0251 0E       		.uleb128 0xe
 13724 0252 3A       		.uleb128 0x3a
 13725 0253 0B       		.uleb128 0xb
 13726 0254 3B       		.uleb128 0x3b
 13727 0255 05       		.uleb128 0x5
 13728 0256 27       		.uleb128 0x27
 13729 0257 19       		.uleb128 0x19
 13730 0258 49       		.uleb128 0x49
 13731 0259 13       		.uleb128 0x13
 13732 025a 11       		.uleb128 0x11
 13733 025b 01       		.uleb128 0x1
 13734 025c 12       		.uleb128 0x12
 13735 025d 06       		.uleb128 0x6
 13736 025e 40       		.uleb128 0x40
 13737 025f 18       		.uleb128 0x18
 13738 0260 9642     		.uleb128 0x2116
 13739 0262 19       		.uleb128 0x19
 13740 0263 01       		.uleb128 0x1
 13741 0264 13       		.uleb128 0x13
ARM GAS  C:\Users\rdn\AppData\Local\Temp\cciiQw7C.s 			page 279


 13742 0265 00       		.byte	0
 13743 0266 00       		.byte	0
 13744 0267 2C       		.uleb128 0x2c
 13745 0268 05       		.uleb128 0x5
 13746 0269 00       		.byte	0
 13747 026a 03       		.uleb128 0x3
 13748 026b 08       		.uleb128 0x8
 13749 026c 3A       		.uleb128 0x3a
 13750 026d 0B       		.uleb128 0xb
 13751 026e 3B       		.uleb128 0x3b
 13752 026f 05       		.uleb128 0x5
 13753 0270 49       		.uleb128 0x49
 13754 0271 13       		.uleb128 0x13
 13755 0272 02       		.uleb128 0x2
 13756 0273 17       		.uleb128 0x17
 13757 0274 00       		.byte	0
 13758 0275 00       		.byte	0
 13759 0276 2D       		.uleb128 0x2d
 13760 0277 05       		.uleb128 0x5
 13761 0278 00       		.byte	0
 13762 0279 03       		.uleb128 0x3
 13763 027a 0E       		.uleb128 0xe
 13764 027b 3A       		.uleb128 0x3a
 13765 027c 0B       		.uleb128 0xb
 13766 027d 3B       		.uleb128 0x3b
 13767 027e 05       		.uleb128 0x5
 13768 027f 49       		.uleb128 0x49
 13769 0280 13       		.uleb128 0x13
 13770 0281 02       		.uleb128 0x2
 13771 0282 17       		.uleb128 0x17
 13772 0283 00       		.byte	0
 13773 0284 00       		.byte	0
 13774 0285 2E       		.uleb128 0x2e
 13775 0286 05       		.uleb128 0x5
 13776 0287 00       		.byte	0
 13777 0288 03       		.uleb128 0x3
 13778 0289 08       		.uleb128 0x8
 13779 028a 3A       		.uleb128 0x3a
 13780 028b 0B       		.uleb128 0xb
 13781 028c 3B       		.uleb128 0x3b
 13782 028d 05       		.uleb128 0x5
 13783 028e 49       		.uleb128 0x49
 13784 028f 13       		.uleb128 0x13
 13785 0290 02       		.uleb128 0x2
 13786 0291 18       		.uleb128 0x18
 13787 0292 00       		.byte	0
 13788 0293 00       		.byte	0
 13789 0294 2F       		.uleb128 0x2f
 13790 0295 34       		.uleb128 0x34
 13791 0296 00       		.byte	0
 13792 0297 03       		.uleb128 0x3
 13793 0298 08       		.uleb128 0x8
 13794 0299 3A       		.uleb128 0x3a
 13795 029a 0B       		.uleb128 0xb
 13796 029b 3B       		.uleb128 0x3b
 13797 029c 05       		.uleb128 0x5
 13798 029d 49       		.uleb128 0x49
ARM GAS  C:\Users\rdn\AppData\Local\Temp\cciiQw7C.s 			page 280


 13799 029e 13       		.uleb128 0x13
 13800 029f 00       		.byte	0
 13801 02a0 00       		.byte	0
 13802 02a1 30       		.uleb128 0x30
 13803 02a2 1D       		.uleb128 0x1d
 13804 02a3 01       		.byte	0x1
 13805 02a4 31       		.uleb128 0x31
 13806 02a5 13       		.uleb128 0x13
 13807 02a6 11       		.uleb128 0x11
 13808 02a7 01       		.uleb128 0x1
 13809 02a8 12       		.uleb128 0x12
 13810 02a9 06       		.uleb128 0x6
 13811 02aa 58       		.uleb128 0x58
 13812 02ab 0B       		.uleb128 0xb
 13813 02ac 59       		.uleb128 0x59
 13814 02ad 05       		.uleb128 0x5
 13815 02ae 01       		.uleb128 0x1
 13816 02af 13       		.uleb128 0x13
 13817 02b0 00       		.byte	0
 13818 02b1 00       		.byte	0
 13819 02b2 31       		.uleb128 0x31
 13820 02b3 2E       		.uleb128 0x2e
 13821 02b4 01       		.byte	0x1
 13822 02b5 03       		.uleb128 0x3
 13823 02b6 0E       		.uleb128 0xe
 13824 02b7 3A       		.uleb128 0x3a
 13825 02b8 0B       		.uleb128 0xb
 13826 02b9 3B       		.uleb128 0x3b
 13827 02ba 05       		.uleb128 0x5
 13828 02bb 27       		.uleb128 0x27
 13829 02bc 19       		.uleb128 0x19
 13830 02bd 49       		.uleb128 0x49
 13831 02be 13       		.uleb128 0x13
 13832 02bf 11       		.uleb128 0x11
 13833 02c0 01       		.uleb128 0x1
 13834 02c1 12       		.uleb128 0x12
 13835 02c2 06       		.uleb128 0x6
 13836 02c3 40       		.uleb128 0x40
 13837 02c4 18       		.uleb128 0x18
 13838 02c5 9742     		.uleb128 0x2117
 13839 02c7 19       		.uleb128 0x19
 13840 02c8 01       		.uleb128 0x1
 13841 02c9 13       		.uleb128 0x13
 13842 02ca 00       		.byte	0
 13843 02cb 00       		.byte	0
 13844 02cc 32       		.uleb128 0x32
 13845 02cd 05       		.uleb128 0x5
 13846 02ce 00       		.byte	0
 13847 02cf 03       		.uleb128 0x3
 13848 02d0 0E       		.uleb128 0xe
 13849 02d1 3A       		.uleb128 0x3a
 13850 02d2 0B       		.uleb128 0xb
 13851 02d3 3B       		.uleb128 0x3b
 13852 02d4 05       		.uleb128 0x5
 13853 02d5 49       		.uleb128 0x49
 13854 02d6 13       		.uleb128 0x13
 13855 02d7 02       		.uleb128 0x2
ARM GAS  C:\Users\rdn\AppData\Local\Temp\cciiQw7C.s 			page 281


 13856 02d8 18       		.uleb128 0x18
 13857 02d9 00       		.byte	0
 13858 02da 00       		.byte	0
 13859 02db 33       		.uleb128 0x33
 13860 02dc 34       		.uleb128 0x34
 13861 02dd 00       		.byte	0
 13862 02de 03       		.uleb128 0x3
 13863 02df 0E       		.uleb128 0xe
 13864 02e0 3A       		.uleb128 0x3a
 13865 02e1 0B       		.uleb128 0xb
 13866 02e2 3B       		.uleb128 0x3b
 13867 02e3 05       		.uleb128 0x5
 13868 02e4 49       		.uleb128 0x49
 13869 02e5 13       		.uleb128 0x13
 13870 02e6 02       		.uleb128 0x2
 13871 02e7 18       		.uleb128 0x18
 13872 02e8 00       		.byte	0
 13873 02e9 00       		.byte	0
 13874 02ea 34       		.uleb128 0x34
 13875 02eb 0B       		.uleb128 0xb
 13876 02ec 01       		.byte	0x1
 13877 02ed 55       		.uleb128 0x55
 13878 02ee 17       		.uleb128 0x17
 13879 02ef 01       		.uleb128 0x1
 13880 02f0 13       		.uleb128 0x13
 13881 02f1 00       		.byte	0
 13882 02f2 00       		.byte	0
 13883 02f3 35       		.uleb128 0x35
 13884 02f4 34       		.uleb128 0x34
 13885 02f5 00       		.byte	0
 13886 02f6 03       		.uleb128 0x3
 13887 02f7 0E       		.uleb128 0xe
 13888 02f8 3A       		.uleb128 0x3a
 13889 02f9 0B       		.uleb128 0xb
 13890 02fa 3B       		.uleb128 0x3b
 13891 02fb 05       		.uleb128 0x5
 13892 02fc 49       		.uleb128 0x49
 13893 02fd 13       		.uleb128 0x13
 13894 02fe 00       		.byte	0
 13895 02ff 00       		.byte	0
 13896 0300 36       		.uleb128 0x36
 13897 0301 1D       		.uleb128 0x1d
 13898 0302 01       		.byte	0x1
 13899 0303 31       		.uleb128 0x31
 13900 0304 13       		.uleb128 0x13
 13901 0305 11       		.uleb128 0x11
 13902 0306 01       		.uleb128 0x1
 13903 0307 12       		.uleb128 0x12
 13904 0308 06       		.uleb128 0x6
 13905 0309 58       		.uleb128 0x58
 13906 030a 0B       		.uleb128 0xb
 13907 030b 59       		.uleb128 0x59
 13908 030c 05       		.uleb128 0x5
 13909 030d 00       		.byte	0
 13910 030e 00       		.byte	0
 13911 030f 37       		.uleb128 0x37
 13912 0310 2E       		.uleb128 0x2e
ARM GAS  C:\Users\rdn\AppData\Local\Temp\cciiQw7C.s 			page 282


 13913 0311 01       		.byte	0x1
 13914 0312 03       		.uleb128 0x3
 13915 0313 0E       		.uleb128 0xe
 13916 0314 3A       		.uleb128 0x3a
 13917 0315 0B       		.uleb128 0xb
 13918 0316 3B       		.uleb128 0x3b
 13919 0317 05       		.uleb128 0x5
 13920 0318 27       		.uleb128 0x27
 13921 0319 19       		.uleb128 0x19
 13922 031a 11       		.uleb128 0x11
 13923 031b 01       		.uleb128 0x1
 13924 031c 12       		.uleb128 0x12
 13925 031d 06       		.uleb128 0x6
 13926 031e 40       		.uleb128 0x40
 13927 031f 18       		.uleb128 0x18
 13928 0320 9642     		.uleb128 0x2116
 13929 0322 19       		.uleb128 0x19
 13930 0323 01       		.uleb128 0x1
 13931 0324 13       		.uleb128 0x13
 13932 0325 00       		.byte	0
 13933 0326 00       		.byte	0
 13934 0327 38       		.uleb128 0x38
 13935 0328 35       		.uleb128 0x35
 13936 0329 00       		.byte	0
 13937 032a 49       		.uleb128 0x49
 13938 032b 13       		.uleb128 0x13
 13939 032c 00       		.byte	0
 13940 032d 00       		.byte	0
 13941 032e 39       		.uleb128 0x39
 13942 032f 34       		.uleb128 0x34
 13943 0330 00       		.byte	0
 13944 0331 03       		.uleb128 0x3
 13945 0332 08       		.uleb128 0x8
 13946 0333 3A       		.uleb128 0x3a
 13947 0334 0B       		.uleb128 0xb
 13948 0335 3B       		.uleb128 0x3b
 13949 0336 0B       		.uleb128 0xb
 13950 0337 49       		.uleb128 0x49
 13951 0338 13       		.uleb128 0x13
 13952 0339 02       		.uleb128 0x2
 13953 033a 18       		.uleb128 0x18
 13954 033b 00       		.byte	0
 13955 033c 00       		.byte	0
 13956 033d 3A       		.uleb128 0x3a
 13957 033e 34       		.uleb128 0x34
 13958 033f 00       		.byte	0
 13959 0340 03       		.uleb128 0x3
 13960 0341 0E       		.uleb128 0xe
 13961 0342 3A       		.uleb128 0x3a
 13962 0343 0B       		.uleb128 0xb
 13963 0344 3B       		.uleb128 0x3b
 13964 0345 0B       		.uleb128 0xb
 13965 0346 49       		.uleb128 0x49
 13966 0347 13       		.uleb128 0x13
 13967 0348 1C       		.uleb128 0x1c
 13968 0349 05       		.uleb128 0x5
 13969 034a 00       		.byte	0
ARM GAS  C:\Users\rdn\AppData\Local\Temp\cciiQw7C.s 			page 283


 13970 034b 00       		.byte	0
 13971 034c 3B       		.uleb128 0x3b
 13972 034d 34       		.uleb128 0x34
 13973 034e 00       		.byte	0
 13974 034f 03       		.uleb128 0x3
 13975 0350 0E       		.uleb128 0xe
 13976 0351 3A       		.uleb128 0x3a
 13977 0352 0B       		.uleb128 0xb
 13978 0353 3B       		.uleb128 0x3b
 13979 0354 0B       		.uleb128 0xb
 13980 0355 49       		.uleb128 0x49
 13981 0356 13       		.uleb128 0x13
 13982 0357 1C       		.uleb128 0x1c
 13983 0358 06       		.uleb128 0x6
 13984 0359 00       		.byte	0
 13985 035a 00       		.byte	0
 13986 035b 3C       		.uleb128 0x3c
 13987 035c 898201   		.uleb128 0x4109
 13988 035f 01       		.byte	0x1
 13989 0360 11       		.uleb128 0x11
 13990 0361 01       		.uleb128 0x1
 13991 0362 31       		.uleb128 0x31
 13992 0363 13       		.uleb128 0x13
 13993 0364 01       		.uleb128 0x1
 13994 0365 13       		.uleb128 0x13
 13995 0366 00       		.byte	0
 13996 0367 00       		.byte	0
 13997 0368 3D       		.uleb128 0x3d
 13998 0369 898201   		.uleb128 0x4109
 13999 036c 00       		.byte	0
 14000 036d 11       		.uleb128 0x11
 14001 036e 01       		.uleb128 0x1
 14002 036f 31       		.uleb128 0x31
 14003 0370 13       		.uleb128 0x13
 14004 0371 00       		.byte	0
 14005 0372 00       		.byte	0
 14006 0373 3E       		.uleb128 0x3e
 14007 0374 34       		.uleb128 0x34
 14008 0375 00       		.byte	0
 14009 0376 31       		.uleb128 0x31
 14010 0377 13       		.uleb128 0x13
 14011 0378 02       		.uleb128 0x2
 14012 0379 17       		.uleb128 0x17
 14013 037a 00       		.byte	0
 14014 037b 00       		.byte	0
 14015 037c 3F       		.uleb128 0x3f
 14016 037d 34       		.uleb128 0x34
 14017 037e 00       		.byte	0
 14018 037f 31       		.uleb128 0x31
 14019 0380 13       		.uleb128 0x13
 14020 0381 02       		.uleb128 0x2
 14021 0382 18       		.uleb128 0x18
 14022 0383 00       		.byte	0
 14023 0384 00       		.byte	0
 14024 0385 40       		.uleb128 0x40
 14025 0386 34       		.uleb128 0x34
 14026 0387 00       		.byte	0
ARM GAS  C:\Users\rdn\AppData\Local\Temp\cciiQw7C.s 			page 284


 14027 0388 31       		.uleb128 0x31
 14028 0389 13       		.uleb128 0x13
 14029 038a 00       		.byte	0
 14030 038b 00       		.byte	0
 14031 038c 41       		.uleb128 0x41
 14032 038d 2E       		.uleb128 0x2e
 14033 038e 01       		.byte	0x1
 14034 038f 03       		.uleb128 0x3
 14035 0390 0E       		.uleb128 0xe
 14036 0391 3A       		.uleb128 0x3a
 14037 0392 0B       		.uleb128 0xb
 14038 0393 3B       		.uleb128 0x3b
 14039 0394 05       		.uleb128 0x5
 14040 0395 27       		.uleb128 0x27
 14041 0396 19       		.uleb128 0x19
 14042 0397 11       		.uleb128 0x11
 14043 0398 01       		.uleb128 0x1
 14044 0399 12       		.uleb128 0x12
 14045 039a 06       		.uleb128 0x6
 14046 039b 40       		.uleb128 0x40
 14047 039c 18       		.uleb128 0x18
 14048 039d 9742     		.uleb128 0x2117
 14049 039f 19       		.uleb128 0x19
 14050 03a0 01       		.uleb128 0x1
 14051 03a1 13       		.uleb128 0x13
 14052 03a2 00       		.byte	0
 14053 03a3 00       		.byte	0
 14054 03a4 42       		.uleb128 0x42
 14055 03a5 0B       		.uleb128 0xb
 14056 03a6 01       		.byte	0x1
 14057 03a7 55       		.uleb128 0x55
 14058 03a8 17       		.uleb128 0x17
 14059 03a9 00       		.byte	0
 14060 03aa 00       		.byte	0
 14061 03ab 43       		.uleb128 0x43
 14062 03ac 1D       		.uleb128 0x1d
 14063 03ad 01       		.byte	0x1
 14064 03ae 31       		.uleb128 0x31
 14065 03af 13       		.uleb128 0x13
 14066 03b0 11       		.uleb128 0x11
 14067 03b1 01       		.uleb128 0x1
 14068 03b2 12       		.uleb128 0x12
 14069 03b3 06       		.uleb128 0x6
 14070 03b4 58       		.uleb128 0x58
 14071 03b5 0B       		.uleb128 0xb
 14072 03b6 59       		.uleb128 0x59
 14073 03b7 0B       		.uleb128 0xb
 14074 03b8 00       		.byte	0
 14075 03b9 00       		.byte	0
 14076 03ba 44       		.uleb128 0x44
 14077 03bb 2E       		.uleb128 0x2e
 14078 03bc 01       		.byte	0x1
 14079 03bd 03       		.uleb128 0x3
 14080 03be 0E       		.uleb128 0xe
 14081 03bf 3A       		.uleb128 0x3a
 14082 03c0 0B       		.uleb128 0xb
 14083 03c1 3B       		.uleb128 0x3b
ARM GAS  C:\Users\rdn\AppData\Local\Temp\cciiQw7C.s 			page 285


 14084 03c2 05       		.uleb128 0x5
 14085 03c3 27       		.uleb128 0x27
 14086 03c4 19       		.uleb128 0x19
 14087 03c5 20       		.uleb128 0x20
 14088 03c6 0B       		.uleb128 0xb
 14089 03c7 01       		.uleb128 0x1
 14090 03c8 13       		.uleb128 0x13
 14091 03c9 00       		.byte	0
 14092 03ca 00       		.byte	0
 14093 03cb 45       		.uleb128 0x45
 14094 03cc 05       		.uleb128 0x5
 14095 03cd 00       		.byte	0
 14096 03ce 03       		.uleb128 0x3
 14097 03cf 0E       		.uleb128 0xe
 14098 03d0 3A       		.uleb128 0x3a
 14099 03d1 0B       		.uleb128 0xb
 14100 03d2 3B       		.uleb128 0x3b
 14101 03d3 05       		.uleb128 0x5
 14102 03d4 49       		.uleb128 0x49
 14103 03d5 13       		.uleb128 0x13
 14104 03d6 00       		.byte	0
 14105 03d7 00       		.byte	0
 14106 03d8 46       		.uleb128 0x46
 14107 03d9 05       		.uleb128 0x5
 14108 03da 00       		.byte	0
 14109 03db 03       		.uleb128 0x3
 14110 03dc 08       		.uleb128 0x8
 14111 03dd 3A       		.uleb128 0x3a
 14112 03de 0B       		.uleb128 0xb
 14113 03df 3B       		.uleb128 0x3b
 14114 03e0 05       		.uleb128 0x5
 14115 03e1 49       		.uleb128 0x49
 14116 03e2 13       		.uleb128 0x13
 14117 03e3 00       		.byte	0
 14118 03e4 00       		.byte	0
 14119 03e5 47       		.uleb128 0x47
 14120 03e6 05       		.uleb128 0x5
 14121 03e7 00       		.byte	0
 14122 03e8 31       		.uleb128 0x31
 14123 03e9 13       		.uleb128 0x13
 14124 03ea 00       		.byte	0
 14125 03eb 00       		.byte	0
 14126 03ec 48       		.uleb128 0x48
 14127 03ed 1D       		.uleb128 0x1d
 14128 03ee 01       		.byte	0x1
 14129 03ef 31       		.uleb128 0x31
 14130 03f0 13       		.uleb128 0x13
 14131 03f1 52       		.uleb128 0x52
 14132 03f2 01       		.uleb128 0x1
 14133 03f3 55       		.uleb128 0x55
 14134 03f4 17       		.uleb128 0x17
 14135 03f5 58       		.uleb128 0x58
 14136 03f6 0B       		.uleb128 0xb
 14137 03f7 59       		.uleb128 0x59
 14138 03f8 05       		.uleb128 0x5
 14139 03f9 01       		.uleb128 0x1
 14140 03fa 13       		.uleb128 0x13
ARM GAS  C:\Users\rdn\AppData\Local\Temp\cciiQw7C.s 			page 286


 14141 03fb 00       		.byte	0
 14142 03fc 00       		.byte	0
 14143 03fd 49       		.uleb128 0x49
 14144 03fe 1D       		.uleb128 0x1d
 14145 03ff 01       		.byte	0x1
 14146 0400 31       		.uleb128 0x31
 14147 0401 13       		.uleb128 0x13
 14148 0402 52       		.uleb128 0x52
 14149 0403 01       		.uleb128 0x1
 14150 0404 55       		.uleb128 0x55
 14151 0405 17       		.uleb128 0x17
 14152 0406 58       		.uleb128 0x58
 14153 0407 0B       		.uleb128 0xb
 14154 0408 59       		.uleb128 0x59
 14155 0409 0B       		.uleb128 0xb
 14156 040a 00       		.byte	0
 14157 040b 00       		.byte	0
 14158 040c 4A       		.uleb128 0x4a
 14159 040d 1D       		.uleb128 0x1d
 14160 040e 01       		.byte	0x1
 14161 040f 31       		.uleb128 0x31
 14162 0410 13       		.uleb128 0x13
 14163 0411 52       		.uleb128 0x52
 14164 0412 01       		.uleb128 0x1
 14165 0413 55       		.uleb128 0x55
 14166 0414 17       		.uleb128 0x17
 14167 0415 58       		.uleb128 0x58
 14168 0416 0B       		.uleb128 0xb
 14169 0417 59       		.uleb128 0x59
 14170 0418 05       		.uleb128 0x5
 14171 0419 00       		.byte	0
 14172 041a 00       		.byte	0
 14173 041b 4B       		.uleb128 0x4b
 14174 041c 2E       		.uleb128 0x2e
 14175 041d 01       		.byte	0x1
 14176 041e 03       		.uleb128 0x3
 14177 041f 0E       		.uleb128 0xe
 14178 0420 3A       		.uleb128 0x3a
 14179 0421 0B       		.uleb128 0xb
 14180 0422 3B       		.uleb128 0x3b
 14181 0423 05       		.uleb128 0x5
 14182 0424 27       		.uleb128 0x27
 14183 0425 19       		.uleb128 0x19
 14184 0426 49       		.uleb128 0x49
 14185 0427 13       		.uleb128 0x13
 14186 0428 20       		.uleb128 0x20
 14187 0429 0B       		.uleb128 0xb
 14188 042a 01       		.uleb128 0x1
 14189 042b 13       		.uleb128 0x13
 14190 042c 00       		.byte	0
 14191 042d 00       		.byte	0
 14192 042e 4C       		.uleb128 0x4c
 14193 042f 2E       		.uleb128 0x2e
 14194 0430 01       		.byte	0x1
 14195 0431 3F       		.uleb128 0x3f
 14196 0432 19       		.uleb128 0x19
 14197 0433 03       		.uleb128 0x3
ARM GAS  C:\Users\rdn\AppData\Local\Temp\cciiQw7C.s 			page 287


 14198 0434 0E       		.uleb128 0xe
 14199 0435 3A       		.uleb128 0x3a
 14200 0436 0B       		.uleb128 0xb
 14201 0437 3B       		.uleb128 0x3b
 14202 0438 05       		.uleb128 0x5
 14203 0439 27       		.uleb128 0x27
 14204 043a 19       		.uleb128 0x19
 14205 043b 11       		.uleb128 0x11
 14206 043c 01       		.uleb128 0x1
 14207 043d 12       		.uleb128 0x12
 14208 043e 06       		.uleb128 0x6
 14209 043f 40       		.uleb128 0x40
 14210 0440 18       		.uleb128 0x18
 14211 0441 9642     		.uleb128 0x2116
 14212 0443 19       		.uleb128 0x19
 14213 0444 01       		.uleb128 0x1
 14214 0445 13       		.uleb128 0x13
 14215 0446 00       		.byte	0
 14216 0447 00       		.byte	0
 14217 0448 4D       		.uleb128 0x4d
 14218 0449 34       		.uleb128 0x34
 14219 044a 00       		.byte	0
 14220 044b 03       		.uleb128 0x3
 14221 044c 0E       		.uleb128 0xe
 14222 044d 3A       		.uleb128 0x3a
 14223 044e 0B       		.uleb128 0xb
 14224 044f 3B       		.uleb128 0x3b
 14225 0450 05       		.uleb128 0x5
 14226 0451 49       		.uleb128 0x49
 14227 0452 13       		.uleb128 0x13
 14228 0453 1C       		.uleb128 0x1c
 14229 0454 0B       		.uleb128 0xb
 14230 0455 00       		.byte	0
 14231 0456 00       		.byte	0
 14232 0457 4E       		.uleb128 0x4e
 14233 0458 2E       		.uleb128 0x2e
 14234 0459 01       		.byte	0x1
 14235 045a 3F       		.uleb128 0x3f
 14236 045b 19       		.uleb128 0x19
 14237 045c 03       		.uleb128 0x3
 14238 045d 0E       		.uleb128 0xe
 14239 045e 3A       		.uleb128 0x3a
 14240 045f 0B       		.uleb128 0xb
 14241 0460 3B       		.uleb128 0x3b
 14242 0461 05       		.uleb128 0x5
 14243 0462 27       		.uleb128 0x27
 14244 0463 19       		.uleb128 0x19
 14245 0464 11       		.uleb128 0x11
 14246 0465 01       		.uleb128 0x1
 14247 0466 12       		.uleb128 0x12
 14248 0467 06       		.uleb128 0x6
 14249 0468 40       		.uleb128 0x40
 14250 0469 18       		.uleb128 0x18
 14251 046a 9742     		.uleb128 0x2117
 14252 046c 19       		.uleb128 0x19
 14253 046d 01       		.uleb128 0x1
 14254 046e 13       		.uleb128 0x13
ARM GAS  C:\Users\rdn\AppData\Local\Temp\cciiQw7C.s 			page 288


 14255 046f 00       		.byte	0
 14256 0470 00       		.byte	0
 14257 0471 4F       		.uleb128 0x4f
 14258 0472 2E       		.uleb128 0x2e
 14259 0473 01       		.byte	0x1
 14260 0474 3F       		.uleb128 0x3f
 14261 0475 19       		.uleb128 0x19
 14262 0476 03       		.uleb128 0x3
 14263 0477 0E       		.uleb128 0xe
 14264 0478 3A       		.uleb128 0x3a
 14265 0479 0B       		.uleb128 0xb
 14266 047a 3B       		.uleb128 0x3b
 14267 047b 05       		.uleb128 0x5
 14268 047c 27       		.uleb128 0x27
 14269 047d 19       		.uleb128 0x19
 14270 047e 49       		.uleb128 0x49
 14271 047f 13       		.uleb128 0x13
 14272 0480 11       		.uleb128 0x11
 14273 0481 01       		.uleb128 0x1
 14274 0482 12       		.uleb128 0x12
 14275 0483 06       		.uleb128 0x6
 14276 0484 40       		.uleb128 0x40
 14277 0485 18       		.uleb128 0x18
 14278 0486 9742     		.uleb128 0x2117
 14279 0488 19       		.uleb128 0x19
 14280 0489 01       		.uleb128 0x1
 14281 048a 13       		.uleb128 0x13
 14282 048b 00       		.byte	0
 14283 048c 00       		.byte	0
 14284 048d 50       		.uleb128 0x50
 14285 048e 2E       		.uleb128 0x2e
 14286 048f 01       		.byte	0x1
 14287 0490 3F       		.uleb128 0x3f
 14288 0491 19       		.uleb128 0x19
 14289 0492 03       		.uleb128 0x3
 14290 0493 0E       		.uleb128 0xe
 14291 0494 3A       		.uleb128 0x3a
 14292 0495 0B       		.uleb128 0xb
 14293 0496 3B       		.uleb128 0x3b
 14294 0497 05       		.uleb128 0x5
 14295 0498 27       		.uleb128 0x27
 14296 0499 19       		.uleb128 0x19
 14297 049a 49       		.uleb128 0x49
 14298 049b 13       		.uleb128 0x13
 14299 049c 11       		.uleb128 0x11
 14300 049d 01       		.uleb128 0x1
 14301 049e 12       		.uleb128 0x12
 14302 049f 06       		.uleb128 0x6
 14303 04a0 40       		.uleb128 0x40
 14304 04a1 18       		.uleb128 0x18
 14305 04a2 9642     		.uleb128 0x2116
 14306 04a4 19       		.uleb128 0x19
 14307 04a5 01       		.uleb128 0x1
 14308 04a6 13       		.uleb128 0x13
 14309 04a7 00       		.byte	0
 14310 04a8 00       		.byte	0
 14311 04a9 51       		.uleb128 0x51
ARM GAS  C:\Users\rdn\AppData\Local\Temp\cciiQw7C.s 			page 289


 14312 04aa 34       		.uleb128 0x34
 14313 04ab 00       		.byte	0
 14314 04ac 03       		.uleb128 0x3
 14315 04ad 0E       		.uleb128 0xe
 14316 04ae 3A       		.uleb128 0x3a
 14317 04af 0B       		.uleb128 0xb
 14318 04b0 3B       		.uleb128 0x3b
 14319 04b1 0B       		.uleb128 0xb
 14320 04b2 49       		.uleb128 0x49
 14321 04b3 13       		.uleb128 0x13
 14322 04b4 3F       		.uleb128 0x3f
 14323 04b5 19       		.uleb128 0x19
 14324 04b6 3C       		.uleb128 0x3c
 14325 04b7 19       		.uleb128 0x19
 14326 04b8 00       		.byte	0
 14327 04b9 00       		.byte	0
 14328 04ba 52       		.uleb128 0x52
 14329 04bb 21       		.uleb128 0x21
 14330 04bc 00       		.byte	0
 14331 04bd 00       		.byte	0
 14332 04be 00       		.byte	0
 14333 04bf 53       		.uleb128 0x53
 14334 04c0 2E       		.uleb128 0x2e
 14335 04c1 00       		.byte	0
 14336 04c2 3F       		.uleb128 0x3f
 14337 04c3 19       		.uleb128 0x19
 14338 04c4 3C       		.uleb128 0x3c
 14339 04c5 19       		.uleb128 0x19
 14340 04c6 6E       		.uleb128 0x6e
 14341 04c7 0E       		.uleb128 0xe
 14342 04c8 03       		.uleb128 0x3
 14343 04c9 0E       		.uleb128 0xe
 14344 04ca 00       		.byte	0
 14345 04cb 00       		.byte	0
 14346 04cc 54       		.uleb128 0x54
 14347 04cd 2E       		.uleb128 0x2e
 14348 04ce 00       		.byte	0
 14349 04cf 3F       		.uleb128 0x3f
 14350 04d0 19       		.uleb128 0x19
 14351 04d1 3C       		.uleb128 0x3c
 14352 04d2 19       		.uleb128 0x19
 14353 04d3 6E       		.uleb128 0x6e
 14354 04d4 0E       		.uleb128 0xe
 14355 04d5 03       		.uleb128 0x3
 14356 04d6 0E       		.uleb128 0xe
 14357 04d7 3A       		.uleb128 0x3a
 14358 04d8 0B       		.uleb128 0xb
 14359 04d9 3B       		.uleb128 0x3b
 14360 04da 05       		.uleb128 0x5
 14361 04db 00       		.byte	0
 14362 04dc 00       		.byte	0
 14363 04dd 55       		.uleb128 0x55
 14364 04de 2E       		.uleb128 0x2e
 14365 04df 00       		.byte	0
 14366 04e0 3F       		.uleb128 0x3f
 14367 04e1 19       		.uleb128 0x19
 14368 04e2 3C       		.uleb128 0x3c
ARM GAS  C:\Users\rdn\AppData\Local\Temp\cciiQw7C.s 			page 290


 14369 04e3 19       		.uleb128 0x19
 14370 04e4 6E       		.uleb128 0x6e
 14371 04e5 0E       		.uleb128 0xe
 14372 04e6 03       		.uleb128 0x3
 14373 04e7 0E       		.uleb128 0xe
 14374 04e8 3A       		.uleb128 0x3a
 14375 04e9 0B       		.uleb128 0xb
 14376 04ea 3B       		.uleb128 0x3b
 14377 04eb 0B       		.uleb128 0xb
 14378 04ec 00       		.byte	0
 14379 04ed 00       		.byte	0
 14380 04ee 00       		.byte	0
 14381              		.section	.debug_loc,"",%progbits
 14382              	.Ldebug_loc0:
 14383              	.LLST0:
 14384 0000 00000000 		.4byte	.LVL0
 14385 0004 10000000 		.4byte	.LVL2
 14386 0008 0100     		.2byte	0x1
 14387 000a 50       		.byte	0x50
 14388 000b 10000000 		.4byte	.LVL2
 14389 000f 3A000000 		.4byte	.LFE20
 14390 0013 0400     		.2byte	0x4
 14391 0015 F3       		.byte	0xf3
 14392 0016 01       		.uleb128 0x1
 14393 0017 50       		.byte	0x50
 14394 0018 9F       		.byte	0x9f
 14395 0019 00000000 		.4byte	0
 14396 001d 00000000 		.4byte	0
 14397              	.LLST1:
 14398 0021 00000000 		.4byte	.LVL0
 14399 0025 18000000 		.4byte	.LVL4
 14400 0029 0100     		.2byte	0x1
 14401 002b 51       		.byte	0x51
 14402 002c 18000000 		.4byte	.LVL4
 14403 0030 3A000000 		.4byte	.LFE20
 14404 0034 0400     		.2byte	0x4
 14405 0036 F3       		.byte	0xf3
 14406 0037 01       		.uleb128 0x1
 14407 0038 51       		.byte	0x51
 14408 0039 9F       		.byte	0x9f
 14409 003a 00000000 		.4byte	0
 14410 003e 00000000 		.4byte	0
 14411              	.LLST2:
 14412 0042 0E000000 		.4byte	.LVL1
 14413 0046 12000000 		.4byte	.LVL3
 14414 004a 0100     		.2byte	0x1
 14415 004c 54       		.byte	0x54
 14416 004d 12000000 		.4byte	.LVL3
 14417 0051 1E000000 		.4byte	.LVL6
 14418 0055 0300     		.2byte	0x3
 14419 0057 74       		.byte	0x74
 14420 0058 7F       		.sleb128 -1
 14421 0059 9F       		.byte	0x9f
 14422 005a 00000000 		.4byte	0
 14423 005e 00000000 		.4byte	0
 14424              	.LLST3:
 14425 0062 1C000000 		.4byte	.LVL5
ARM GAS  C:\Users\rdn\AppData\Local\Temp\cciiQw7C.s 			page 291


 14426 0066 26000000 		.4byte	.LVL7
 14427 006a 0100     		.2byte	0x1
 14428 006c 50       		.byte	0x50
 14429 006d 00000000 		.4byte	0
 14430 0071 00000000 		.4byte	0
 14431              	.LLST4:
 14432 0075 00000000 		.4byte	.LVL8
 14433 0079 06000000 		.4byte	.LVL10
 14434 007d 0100     		.2byte	0x1
 14435 007f 50       		.byte	0x50
 14436 0080 06000000 		.4byte	.LVL10
 14437 0084 26000000 		.4byte	.LVL16
 14438 0088 0100     		.2byte	0x1
 14439 008a 54       		.byte	0x54
 14440 008b 00000000 		.4byte	0
 14441 008f 00000000 		.4byte	0
 14442              	.LLST5:
 14443 0093 04000000 		.4byte	.LVL9
 14444 0097 0A000000 		.4byte	.LVL11
 14445 009b 0600     		.2byte	0x6
 14446 009d 9E       		.byte	0x9e
 14447 009e 04       		.uleb128 0x4
 14448 009f 0000803F 		.4byte	0x3f800000
 14449 00a3 0A000000 		.4byte	.LVL11
 14450 00a7 11000000 		.4byte	.LVL13-1
 14451 00ab 0100     		.2byte	0x1
 14452 00ad 50       		.byte	0x50
 14453 00ae 12000000 		.4byte	.LVL13
 14454 00b2 1F000000 		.4byte	.LVL15-1
 14455 00b6 0100     		.2byte	0x1
 14456 00b8 50       		.byte	0x50
 14457 00b9 20000000 		.4byte	.LVL15
 14458 00bd 2D000000 		.4byte	.LVL17-1
 14459 00c1 0100     		.2byte	0x1
 14460 00c3 50       		.byte	0x50
 14461 00c4 00000000 		.4byte	0
 14462 00c8 00000000 		.4byte	0
 14463              	.LLST6:
 14464 00cc 00000000 		.4byte	.LVL18
 14465 00d0 18000000 		.4byte	.LVL21
 14466 00d4 0100     		.2byte	0x1
 14467 00d6 50       		.byte	0x50
 14468 00d7 18000000 		.4byte	.LVL21
 14469 00db 1C010000 		.4byte	.LFE23
 14470 00df 0400     		.2byte	0x4
 14471 00e1 F3       		.byte	0xf3
 14472 00e2 01       		.uleb128 0x1
 14473 00e3 50       		.byte	0x50
 14474 00e4 9F       		.byte	0x9f
 14475 00e5 00000000 		.4byte	0
 14476 00e9 00000000 		.4byte	0
 14477              	.LLST7:
 14478 00ed 00000000 		.4byte	.LVL18
 14479 00f1 14000000 		.4byte	.LVL20
 14480 00f5 0100     		.2byte	0x1
 14481 00f7 51       		.byte	0x51
 14482 00f8 14000000 		.4byte	.LVL20
ARM GAS  C:\Users\rdn\AppData\Local\Temp\cciiQw7C.s 			page 292


 14483 00fc 1C010000 		.4byte	.LFE23
 14484 0100 0400     		.2byte	0x4
 14485 0102 F3       		.byte	0xf3
 14486 0103 01       		.uleb128 0x1
 14487 0104 51       		.byte	0x51
 14488 0105 9F       		.byte	0x9f
 14489 0106 00000000 		.4byte	0
 14490 010a 00000000 		.4byte	0
 14491              	.LLST8:
 14492 010e 00000000 		.4byte	.LVL18
 14493 0112 12000000 		.4byte	.LVL19
 14494 0116 0100     		.2byte	0x1
 14495 0118 52       		.byte	0x52
 14496 0119 12000000 		.4byte	.LVL19
 14497 011d 0E010000 		.4byte	.LVL59
 14498 0121 0100     		.2byte	0x1
 14499 0123 57       		.byte	0x57
 14500 0124 0E010000 		.4byte	.LVL59
 14501 0128 1C010000 		.4byte	.LFE23
 14502 012c 0400     		.2byte	0x4
 14503 012e F3       		.byte	0xf3
 14504 012f 01       		.uleb128 0x1
 14505 0130 52       		.byte	0x52
 14506 0131 9F       		.byte	0x9f
 14507 0132 00000000 		.4byte	0
 14508 0136 00000000 		.4byte	0
 14509              	.LLST9:
 14510 013a 00000000 		.4byte	.LVL18
 14511 013e 1B000000 		.4byte	.LVL22-1
 14512 0142 0100     		.2byte	0x1
 14513 0144 53       		.byte	0x53
 14514 0145 1B000000 		.4byte	.LVL22-1
 14515 0149 6C000000 		.4byte	.LVL33
 14516 014d 0100     		.2byte	0x1
 14517 014f 54       		.byte	0x54
 14518 0150 6C000000 		.4byte	.LVL33
 14519 0154 6E000000 		.4byte	.LVL34
 14520 0158 0100     		.2byte	0x1
 14521 015a 50       		.byte	0x50
 14522 015b 6E000000 		.4byte	.LVL34
 14523 015f 0E010000 		.4byte	.LVL57
 14524 0163 0100     		.2byte	0x1
 14525 0165 54       		.byte	0x54
 14526 0166 0E010000 		.4byte	.LVL57
 14527 016a 1C010000 		.4byte	.LFE23
 14528 016e 0400     		.2byte	0x4
 14529 0170 F3       		.byte	0xf3
 14530 0171 01       		.uleb128 0x1
 14531 0172 53       		.byte	0x53
 14532 0173 9F       		.byte	0x9f
 14533 0174 00000000 		.4byte	0
 14534 0178 00000000 		.4byte	0
 14535              	.LLST10:
 14536 017c 26000000 		.4byte	.LVL23
 14537 0180 42000000 		.4byte	.LVL26
 14538 0184 0100     		.2byte	0x1
 14539 0186 52       		.byte	0x52
ARM GAS  C:\Users\rdn\AppData\Local\Temp\cciiQw7C.s 			page 293


 14540 0187 42000000 		.4byte	.LVL26
 14541 018b 64000000 		.4byte	.LVL32
 14542 018f 1000     		.2byte	0x10
 14543 0191 76       		.byte	0x76
 14544 0192 00       		.sleb128 0
 14545 0193 31       		.byte	0x31
 14546 0194 24       		.byte	0x24
 14547 0195 76       		.byte	0x76
 14548 0196 00       		.sleb128 0
 14549 0197 22       		.byte	0x22
 14550 0198 32       		.byte	0x32
 14551 0199 24       		.byte	0x24
 14552 019a 91       		.byte	0x91
 14553 019b 00       		.sleb128 0
 14554 019c 22       		.byte	0x22
 14555 019d 08       		.byte	0x8
 14556 019e 6C       		.byte	0x6c
 14557 019f 1C       		.byte	0x1c
 14558 01a0 9F       		.byte	0x9f
 14559 01a1 64000000 		.4byte	.LVL32
 14560 01a5 70000000 		.4byte	.LVL35
 14561 01a9 0100     		.2byte	0x1
 14562 01ab 52       		.byte	0x52
 14563 01ac 70000000 		.4byte	.LVL35
 14564 01b0 0E010000 		.4byte	.LVL58
 14565 01b4 1000     		.2byte	0x10
 14566 01b6 76       		.byte	0x76
 14567 01b7 00       		.sleb128 0
 14568 01b8 31       		.byte	0x31
 14569 01b9 24       		.byte	0x24
 14570 01ba 76       		.byte	0x76
 14571 01bb 00       		.sleb128 0
 14572 01bc 22       		.byte	0x22
 14573 01bd 32       		.byte	0x32
 14574 01be 24       		.byte	0x24
 14575 01bf 91       		.byte	0x91
 14576 01c0 00       		.sleb128 0
 14577 01c1 22       		.byte	0x22
 14578 01c2 08       		.byte	0x8
 14579 01c3 6C       		.byte	0x6c
 14580 01c4 1C       		.byte	0x1c
 14581 01c5 9F       		.byte	0x9f
 14582 01c6 00000000 		.4byte	0
 14583 01ca 00000000 		.4byte	0
 14584              	.LLST11:
 14585 01ce 34000000 		.4byte	.LVL24
 14586 01d2 38000000 		.4byte	.LVL25
 14587 01d6 0100     		.2byte	0x1
 14588 01d8 50       		.byte	0x50
 14589 01d9 5C000000 		.4byte	.LVL29
 14590 01dd 64000000 		.4byte	.LVL32
 14591 01e1 0100     		.2byte	0x1
 14592 01e3 50       		.byte	0x50
 14593 01e4 6E000000 		.4byte	.LVL34
 14594 01e8 74000000 		.4byte	.LVL36
 14595 01ec 0100     		.2byte	0x1
 14596 01ee 50       		.byte	0x50
ARM GAS  C:\Users\rdn\AppData\Local\Temp\cciiQw7C.s 			page 294


 14597 01ef 7A000000 		.4byte	.LVL38
 14598 01f3 8A000000 		.4byte	.LVL39
 14599 01f7 0100     		.2byte	0x1
 14600 01f9 50       		.byte	0x50
 14601 01fa 8A000000 		.4byte	.LVL39
 14602 01fe 8C000000 		.4byte	.LVL40
 14603 0202 0100     		.2byte	0x1
 14604 0204 51       		.byte	0x51
 14605 0205 8C000000 		.4byte	.LVL40
 14606 0209 8E000000 		.4byte	.LVL41
 14607 020d 0100     		.2byte	0x1
 14608 020f 50       		.byte	0x50
 14609 0210 8E000000 		.4byte	.LVL41
 14610 0214 AB000000 		.4byte	.LVL43-1
 14611 0218 0100     		.2byte	0x1
 14612 021a 51       		.byte	0x51
 14613 021b BA000000 		.4byte	.LVL46
 14614 021f CA000000 		.4byte	.LVL47
 14615 0223 0100     		.2byte	0x1
 14616 0225 50       		.byte	0x50
 14617 0226 CA000000 		.4byte	.LVL47
 14618 022a D6000000 		.4byte	.LVL48
 14619 022e 0100     		.2byte	0x1
 14620 0230 51       		.byte	0x51
 14621 0231 D6000000 		.4byte	.LVL48
 14622 0235 E2000000 		.4byte	.LVL49
 14623 0239 0100     		.2byte	0x1
 14624 023b 50       		.byte	0x50
 14625 023c E2000000 		.4byte	.LVL49
 14626 0240 F4000000 		.4byte	.LVL50
 14627 0244 0100     		.2byte	0x1
 14628 0246 51       		.byte	0x51
 14629 0247 FC000000 		.4byte	.LVL51
 14630 024b 00010000 		.4byte	.LVL52
 14631 024f 0100     		.2byte	0x1
 14632 0251 51       		.byte	0x51
 14633 0252 06010000 		.4byte	.LVL53
 14634 0256 08010000 		.4byte	.LVL54
 14635 025a 0100     		.2byte	0x1
 14636 025c 50       		.byte	0x50
 14637 025d 08010000 		.4byte	.LVL54
 14638 0261 0A010000 		.4byte	.LVL55
 14639 0265 0100     		.2byte	0x1
 14640 0267 51       		.byte	0x51
 14641 0268 0A010000 		.4byte	.LVL55
 14642 026c 0C010000 		.4byte	.LVL56
 14643 0270 0100     		.2byte	0x1
 14644 0272 50       		.byte	0x50
 14645 0273 00000000 		.4byte	0
 14646 0277 00000000 		.4byte	0
 14647              	.LLST12:
 14648 027b 26000000 		.4byte	.LVL23
 14649 027f 62000000 		.4byte	.LVL31
 14650 0283 0300     		.2byte	0x3
 14651 0285 08       		.byte	0x8
 14652 0286 30       		.byte	0x30
 14653 0287 9F       		.byte	0x9f
ARM GAS  C:\Users\rdn\AppData\Local\Temp\cciiQw7C.s 			page 295


 14654 0288 62000000 		.4byte	.LVL31
 14655 028c 64000000 		.4byte	.LVL32
 14656 0290 0100     		.2byte	0x1
 14657 0292 51       		.byte	0x51
 14658 0293 64000000 		.4byte	.LVL32
 14659 0297 70000000 		.4byte	.LVL35
 14660 029b 0300     		.2byte	0x3
 14661 029d 08       		.byte	0x8
 14662 029e 30       		.byte	0x30
 14663 029f 9F       		.byte	0x9f
 14664 02a0 70000000 		.4byte	.LVL35
 14665 02a4 77000000 		.4byte	.LVL37-1
 14666 02a8 0100     		.2byte	0x1
 14667 02aa 51       		.byte	0x51
 14668 02ab 00000000 		.4byte	0
 14669 02af 00000000 		.4byte	0
 14670              	.LLST13:
 14671 02b3 48000000 		.4byte	.LVL27
 14672 02b7 5C000000 		.4byte	.LVL29
 14673 02bb 0100     		.2byte	0x1
 14674 02bd 50       		.byte	0x50
 14675 02be 5C000000 		.4byte	.LVL29
 14676 02c2 64000000 		.4byte	.LVL32
 14677 02c6 2800     		.2byte	0x28
 14678 02c8 76       		.byte	0x76
 14679 02c9 00       		.sleb128 0
 14680 02ca 31       		.byte	0x31
 14681 02cb 24       		.byte	0x24
 14682 02cc 76       		.byte	0x76
 14683 02cd 00       		.sleb128 0
 14684 02ce 22       		.byte	0x22
 14685 02cf 32       		.byte	0x32
 14686 02d0 24       		.byte	0x24
 14687 02d1 91       		.byte	0x91
 14688 02d2 00       		.sleb128 0
 14689 02d3 22       		.byte	0x22
 14690 02d4 08       		.byte	0x8
 14691 02d5 6C       		.byte	0x6c
 14692 02d6 1C       		.byte	0x1c
 14693 02d7 06       		.byte	0x6
 14694 02d8 23       		.byte	0x23
 14695 02d9 30       		.uleb128 0x30
 14696 02da 76       		.byte	0x76
 14697 02db 00       		.sleb128 0
 14698 02dc 31       		.byte	0x31
 14699 02dd 24       		.byte	0x24
 14700 02de 76       		.byte	0x76
 14701 02df 00       		.sleb128 0
 14702 02e0 22       		.byte	0x22
 14703 02e1 32       		.byte	0x32
 14704 02e2 24       		.byte	0x24
 14705 02e3 91       		.byte	0x91
 14706 02e4 00       		.sleb128 0
 14707 02e5 22       		.byte	0x22
 14708 02e6 08       		.byte	0x8
 14709 02e7 6C       		.byte	0x6c
 14710 02e8 1C       		.byte	0x1c
ARM GAS  C:\Users\rdn\AppData\Local\Temp\cciiQw7C.s 			page 296


 14711 02e9 06       		.byte	0x6
 14712 02ea 23       		.byte	0x23
 14713 02eb 30       		.uleb128 0x30
 14714 02ec 31       		.byte	0x31
 14715 02ed 24       		.byte	0x24
 14716 02ee 22       		.byte	0x22
 14717 02ef 9F       		.byte	0x9f
 14718 02f0 00000000 		.4byte	0
 14719 02f4 00000000 		.4byte	0
 14720              	.LLST14:
 14721 02f8 4A000000 		.4byte	.LVL28
 14722 02fc 60000000 		.4byte	.LVL30
 14723 0300 0100     		.2byte	0x1
 14724 0302 52       		.byte	0x52
 14725 0303 60000000 		.4byte	.LVL30
 14726 0307 64000000 		.4byte	.LVL32
 14727 030b 1400     		.2byte	0x14
 14728 030d 78       		.byte	0x78
 14729 030e 00       		.sleb128 0
 14730 030f 76       		.byte	0x76
 14731 0310 00       		.sleb128 0
 14732 0311 31       		.byte	0x31
 14733 0312 24       		.byte	0x24
 14734 0313 76       		.byte	0x76
 14735 0314 00       		.sleb128 0
 14736 0315 22       		.byte	0x22
 14737 0316 32       		.byte	0x32
 14738 0317 24       		.byte	0x24
 14739 0318 91       		.byte	0x91
 14740 0319 00       		.sleb128 0
 14741 031a 22       		.byte	0x22
 14742 031b 08       		.byte	0x8
 14743 031c 6C       		.byte	0x6c
 14744 031d 1C       		.byte	0x1c
 14745 031e 06       		.byte	0x6
 14746 031f 1C       		.byte	0x1c
 14747 0320 9F       		.byte	0x9f
 14748 0321 00000000 		.4byte	0
 14749 0325 00000000 		.4byte	0
 14750              	.LLST15:
 14751 0329 A2000000 		.4byte	.LVL42
 14752 032d BA000000 		.4byte	.LVL46
 14753 0331 0100     		.2byte	0x1
 14754 0333 55       		.byte	0x55
 14755 0334 00000000 		.4byte	0
 14756 0338 00000000 		.4byte	0
 14757              	.LLST16:
 14758 033c AE000000 		.4byte	.LVL44
 14759 0340 B0000000 		.4byte	.LVL45
 14760 0344 0100     		.2byte	0x1
 14761 0346 50       		.byte	0x50
 14762 0347 00000000 		.4byte	0
 14763 034b 00000000 		.4byte	0
 14764              	.LLST17:
 14765 034f 00000000 		.4byte	.LVL60
 14766 0353 18000000 		.4byte	.LVL61
 14767 0357 0100     		.2byte	0x1
ARM GAS  C:\Users\rdn\AppData\Local\Temp\cciiQw7C.s 			page 297


 14768 0359 50       		.byte	0x50
 14769 035a 18000000 		.4byte	.LVL61
 14770 035e B0000000 		.4byte	.LFE24
 14771 0362 0400     		.2byte	0x4
 14772 0364 F3       		.byte	0xf3
 14773 0365 01       		.uleb128 0x1
 14774 0366 50       		.byte	0x50
 14775 0367 9F       		.byte	0x9f
 14776 0368 00000000 		.4byte	0
 14777 036c 00000000 		.4byte	0
 14778              	.LLST18:
 14779 0370 00000000 		.4byte	.LVL60
 14780 0374 1B000000 		.4byte	.LVL62-1
 14781 0378 0100     		.2byte	0x1
 14782 037a 51       		.byte	0x51
 14783 037b 1B000000 		.4byte	.LVL62-1
 14784 037f B0000000 		.4byte	.LFE24
 14785 0383 0400     		.2byte	0x4
 14786 0385 F3       		.byte	0xf3
 14787 0386 01       		.uleb128 0x1
 14788 0387 51       		.byte	0x51
 14789 0388 9F       		.byte	0x9f
 14790 0389 00000000 		.4byte	0
 14791 038d 00000000 		.4byte	0
 14792              	.LLST19:
 14793 0391 00000000 		.4byte	.LVL60
 14794 0395 1B000000 		.4byte	.LVL62-1
 14795 0399 0100     		.2byte	0x1
 14796 039b 52       		.byte	0x52
 14797 039c 1B000000 		.4byte	.LVL62-1
 14798 03a0 B0000000 		.4byte	.LFE24
 14799 03a4 0400     		.2byte	0x4
 14800 03a6 F3       		.byte	0xf3
 14801 03a7 01       		.uleb128 0x1
 14802 03a8 52       		.byte	0x52
 14803 03a9 9F       		.byte	0x9f
 14804 03aa 00000000 		.4byte	0
 14805 03ae 00000000 		.4byte	0
 14806              	.LLST20:
 14807 03b2 00000000 		.4byte	.LVL60
 14808 03b6 1B000000 		.4byte	.LVL62-1
 14809 03ba 0100     		.2byte	0x1
 14810 03bc 53       		.byte	0x53
 14811 03bd 1B000000 		.4byte	.LVL62-1
 14812 03c1 9C000000 		.4byte	.LVL76
 14813 03c5 0100     		.2byte	0x1
 14814 03c7 5A       		.byte	0x5a
 14815 03c8 9C000000 		.4byte	.LVL76
 14816 03cc B0000000 		.4byte	.LFE24
 14817 03d0 0400     		.2byte	0x4
 14818 03d2 F3       		.byte	0xf3
 14819 03d3 01       		.uleb128 0x1
 14820 03d4 53       		.byte	0x53
 14821 03d5 9F       		.byte	0x9f
 14822 03d6 00000000 		.4byte	0
 14823 03da 00000000 		.4byte	0
 14824              	.LLST21:
ARM GAS  C:\Users\rdn\AppData\Local\Temp\cciiQw7C.s 			page 298


 14825 03de 1E000000 		.4byte	.LVL63
 14826 03e2 32000000 		.4byte	.LVL67
 14827 03e6 0100     		.2byte	0x1
 14828 03e8 50       		.byte	0x50
 14829 03e9 32000000 		.4byte	.LVL67
 14830 03ed 9C000000 		.4byte	.LVL74
 14831 03f1 0200     		.2byte	0x2
 14832 03f3 7D       		.byte	0x7d
 14833 03f4 00       		.sleb128 0
 14834 03f5 9C000000 		.4byte	.LVL74
 14835 03f9 B0000000 		.4byte	.LFE24
 14836 03fd 0200     		.2byte	0x2
 14837 03ff 91       		.byte	0x91
 14838 0400 50       		.sleb128 -48
 14839 0401 00000000 		.4byte	0
 14840 0405 00000000 		.4byte	0
 14841              	.LLST22:
 14842 0409 1E000000 		.4byte	.LVL63
 14843 040d 2C000000 		.4byte	.LVL65
 14844 0411 0100     		.2byte	0x1
 14845 0413 5B       		.byte	0x5b
 14846 0414 00000000 		.4byte	0
 14847 0418 00000000 		.4byte	0
 14848              	.LLST23:
 14849 041c 1E000000 		.4byte	.LVL63
 14850 0420 28000000 		.4byte	.LVL64
 14851 0424 0100     		.2byte	0x1
 14852 0426 54       		.byte	0x54
 14853 0427 00000000 		.4byte	0
 14854 042b 00000000 		.4byte	0
 14855              	.LLST24:
 14856 042f 2E000000 		.4byte	.LVL66
 14857 0433 32000000 		.4byte	.LVL67
 14858 0437 0200     		.2byte	0x2
 14859 0439 30       		.byte	0x30
 14860 043a 9F       		.byte	0x9f
 14861 043b 32000000 		.4byte	.LVL67
 14862 043f 9C000000 		.4byte	.LVL75
 14863 0443 0100     		.2byte	0x1
 14864 0445 56       		.byte	0x56
 14865 0446 00000000 		.4byte	0
 14866 044a 00000000 		.4byte	0
 14867              	.LLST25:
 14868 044e 44000000 		.4byte	.LVL68
 14869 0452 96000000 		.4byte	.LVL73
 14870 0456 0200     		.2byte	0x2
 14871 0458 91       		.byte	0x91
 14872 0459 54       		.sleb128 -44
 14873 045a 00000000 		.4byte	0
 14874 045e 00000000 		.4byte	0
 14875              	.LLST26:
 14876 0462 00000000 		.4byte	.LVL77
 14877 0466 14000000 		.4byte	.LVL79
 14878 046a 0100     		.2byte	0x1
 14879 046c 50       		.byte	0x50
 14880 046d 14000000 		.4byte	.LVL79
 14881 0471 5C000000 		.4byte	.LFE25
ARM GAS  C:\Users\rdn\AppData\Local\Temp\cciiQw7C.s 			page 299


 14882 0475 0400     		.2byte	0x4
 14883 0477 F3       		.byte	0xf3
 14884 0478 01       		.uleb128 0x1
 14885 0479 50       		.byte	0x50
 14886 047a 9F       		.byte	0x9f
 14887 047b 00000000 		.4byte	0
 14888 047f 00000000 		.4byte	0
 14889              	.LLST27:
 14890 0483 00000000 		.4byte	.LVL77
 14891 0487 17000000 		.4byte	.LVL80-1
 14892 048b 0100     		.2byte	0x1
 14893 048d 51       		.byte	0x51
 14894 048e 17000000 		.4byte	.LVL80-1
 14895 0492 5C000000 		.4byte	.LFE25
 14896 0496 0400     		.2byte	0x4
 14897 0498 F3       		.byte	0xf3
 14898 0499 01       		.uleb128 0x1
 14899 049a 51       		.byte	0x51
 14900 049b 9F       		.byte	0x9f
 14901 049c 00000000 		.4byte	0
 14902 04a0 00000000 		.4byte	0
 14903              	.LLST28:
 14904 04a4 00000000 		.4byte	.LVL77
 14905 04a8 17000000 		.4byte	.LVL80-1
 14906 04ac 0100     		.2byte	0x1
 14907 04ae 52       		.byte	0x52
 14908 04af 17000000 		.4byte	.LVL80-1
 14909 04b3 5C000000 		.4byte	.LFE25
 14910 04b7 0400     		.2byte	0x4
 14911 04b9 F3       		.byte	0xf3
 14912 04ba 01       		.uleb128 0x1
 14913 04bb 52       		.byte	0x52
 14914 04bc 9F       		.byte	0x9f
 14915 04bd 00000000 		.4byte	0
 14916 04c1 00000000 		.4byte	0
 14917              	.LLST29:
 14918 04c5 00000000 		.4byte	.LVL77
 14919 04c9 10000000 		.4byte	.LVL78
 14920 04cd 0100     		.2byte	0x1
 14921 04cf 53       		.byte	0x53
 14922 04d0 10000000 		.4byte	.LVL78
 14923 04d4 50000000 		.4byte	.LVL90
 14924 04d8 0100     		.2byte	0x1
 14925 04da 57       		.byte	0x57
 14926 04db 50000000 		.4byte	.LVL90
 14927 04df 5C000000 		.4byte	.LFE25
 14928 04e3 0400     		.2byte	0x4
 14929 04e5 F3       		.byte	0xf3
 14930 04e6 01       		.uleb128 0x1
 14931 04e7 53       		.byte	0x53
 14932 04e8 9F       		.byte	0x9f
 14933 04e9 00000000 		.4byte	0
 14934 04ed 00000000 		.4byte	0
 14935              	.LLST30:
 14936 04f1 1A000000 		.4byte	.LVL81
 14937 04f5 2A000000 		.4byte	.LVL85
 14938 04f9 0100     		.2byte	0x1
ARM GAS  C:\Users\rdn\AppData\Local\Temp\cciiQw7C.s 			page 300


 14939 04fb 50       		.byte	0x50
 14940 04fc 2A000000 		.4byte	.LVL85
 14941 0500 5C000000 		.4byte	.LFE25
 14942 0504 0200     		.2byte	0x2
 14943 0506 91       		.byte	0x91
 14944 0507 64       		.sleb128 -28
 14945 0508 00000000 		.4byte	0
 14946 050c 00000000 		.4byte	0
 14947              	.LLST31:
 14948 0510 26000000 		.4byte	.LVL84
 14949 0514 2A000000 		.4byte	.LVL85
 14950 0518 0200     		.2byte	0x2
 14951 051a 30       		.byte	0x30
 14952 051b 9F       		.byte	0x9f
 14953 051c 2A000000 		.4byte	.LVL85
 14954 0520 50000000 		.4byte	.LVL89
 14955 0524 0100     		.2byte	0x1
 14956 0526 54       		.byte	0x54
 14957 0527 00000000 		.4byte	0
 14958 052b 00000000 		.4byte	0
 14959              	.LLST32:
 14960 052f 1A000000 		.4byte	.LVL81
 14961 0533 1C000000 		.4byte	.LVL82
 14962 0537 0100     		.2byte	0x1
 14963 0539 55       		.byte	0x55
 14964 053a 00000000 		.4byte	0
 14965 053e 00000000 		.4byte	0
 14966              	.LLST33:
 14967 0542 1A000000 		.4byte	.LVL81
 14968 0546 22000000 		.4byte	.LVL83
 14969 054a 0100     		.2byte	0x1
 14970 054c 54       		.byte	0x54
 14971 054d 00000000 		.4byte	0
 14972 0551 00000000 		.4byte	0
 14973              	.LLST34:
 14974 0555 00000000 		.4byte	.LVL91
 14975 0559 3E000000 		.4byte	.LVL96
 14976 055d 0100     		.2byte	0x1
 14977 055f 50       		.byte	0x50
 14978 0560 3E000000 		.4byte	.LVL96
 14979 0564 40000000 		.4byte	.LVL97
 14980 0568 0400     		.2byte	0x4
 14981 056a F3       		.byte	0xf3
 14982 056b 01       		.uleb128 0x1
 14983 056c 50       		.byte	0x50
 14984 056d 9F       		.byte	0x9f
 14985 056e 40000000 		.4byte	.LVL97
 14986 0572 42000000 		.4byte	.LVL98
 14987 0576 0100     		.2byte	0x1
 14988 0578 50       		.byte	0x50
 14989 0579 42000000 		.4byte	.LVL98
 14990 057d 44000000 		.4byte	.LVL99
 14991 0581 0400     		.2byte	0x4
 14992 0583 F3       		.byte	0xf3
 14993 0584 01       		.uleb128 0x1
 14994 0585 50       		.byte	0x50
 14995 0586 9F       		.byte	0x9f
ARM GAS  C:\Users\rdn\AppData\Local\Temp\cciiQw7C.s 			page 301


 14996 0587 44000000 		.4byte	.LVL99
 14997 058b 46000000 		.4byte	.LVL100
 14998 058f 0100     		.2byte	0x1
 14999 0591 50       		.byte	0x50
 15000 0592 46000000 		.4byte	.LVL100
 15001 0596 48000000 		.4byte	.LFE26
 15002 059a 0400     		.2byte	0x4
 15003 059c F3       		.byte	0xf3
 15004 059d 01       		.uleb128 0x1
 15005 059e 50       		.byte	0x50
 15006 059f 9F       		.byte	0x9f
 15007 05a0 00000000 		.4byte	0
 15008 05a4 00000000 		.4byte	0
 15009              	.LLST35:
 15010 05a8 00000000 		.4byte	.LVL91
 15011 05ac 30000000 		.4byte	.LVL94
 15012 05b0 0100     		.2byte	0x1
 15013 05b2 52       		.byte	0x52
 15014 05b3 30000000 		.4byte	.LVL94
 15015 05b7 48000000 		.4byte	.LFE26
 15016 05bb 0400     		.2byte	0x4
 15017 05bd F3       		.byte	0xf3
 15018 05be 01       		.uleb128 0x1
 15019 05bf 52       		.byte	0x52
 15020 05c0 9F       		.byte	0x9f
 15021 05c1 00000000 		.4byte	0
 15022 05c5 00000000 		.4byte	0
 15023              	.LLST36:
 15024 05c9 0C000000 		.4byte	.LVL92
 15025 05cd 2E000000 		.4byte	.LVL93
 15026 05d1 0100     		.2byte	0x1
 15027 05d3 53       		.byte	0x53
 15028 05d4 2E000000 		.4byte	.LVL93
 15029 05d8 32000000 		.4byte	.LVL95
 15030 05dc 0300     		.2byte	0x3
 15031 05de 73       		.byte	0x73
 15032 05df 7F       		.sleb128 -1
 15033 05e0 9F       		.byte	0x9f
 15034 05e1 00000000 		.4byte	0
 15035 05e5 00000000 		.4byte	0
 15036              	.LLST37:
 15037 05e9 00000000 		.4byte	.LVL101
 15038 05ed 22000000 		.4byte	.LVL105
 15039 05f1 0100     		.2byte	0x1
 15040 05f3 50       		.byte	0x50
 15041 05f4 22000000 		.4byte	.LVL105
 15042 05f8 70020000 		.4byte	.LFE27
 15043 05fc 0400     		.2byte	0x4
 15044 05fe F3       		.byte	0xf3
 15045 05ff 01       		.uleb128 0x1
 15046 0600 50       		.byte	0x50
 15047 0601 9F       		.byte	0x9f
 15048 0602 00000000 		.4byte	0
 15049 0606 00000000 		.4byte	0
 15050              	.LLST38:
 15051 060a 00000000 		.4byte	.LVL101
 15052 060e 16000000 		.4byte	.LVL102
ARM GAS  C:\Users\rdn\AppData\Local\Temp\cciiQw7C.s 			page 302


 15053 0612 0100     		.2byte	0x1
 15054 0614 51       		.byte	0x51
 15055 0615 16000000 		.4byte	.LVL102
 15056 0619 70020000 		.4byte	.LFE27
 15057 061d 0400     		.2byte	0x4
 15058 061f F3       		.byte	0xf3
 15059 0620 01       		.uleb128 0x1
 15060 0621 51       		.byte	0x51
 15061 0622 9F       		.byte	0x9f
 15062 0623 00000000 		.4byte	0
 15063 0627 00000000 		.4byte	0
 15064              	.LLST39:
 15065 062b 00000000 		.4byte	.LVL101
 15066 062f 20000000 		.4byte	.LVL104
 15067 0633 0100     		.2byte	0x1
 15068 0635 52       		.byte	0x52
 15069 0636 20000000 		.4byte	.LVL104
 15070 063a 25000000 		.4byte	.LVL106-1
 15071 063e 0100     		.2byte	0x1
 15072 0640 51       		.byte	0x51
 15073 0641 25000000 		.4byte	.LVL106-1
 15074 0645 70020000 		.4byte	.LFE27
 15075 0649 0400     		.2byte	0x4
 15076 064b F3       		.byte	0xf3
 15077 064c 01       		.uleb128 0x1
 15078 064d 52       		.byte	0x52
 15079 064e 9F       		.byte	0x9f
 15080 064f 00000000 		.4byte	0
 15081 0653 00000000 		.4byte	0
 15082              	.LLST40:
 15083 0657 00000000 		.4byte	.LVL101
 15084 065b 1A000000 		.4byte	.LVL103
 15085 065f 0100     		.2byte	0x1
 15086 0661 53       		.byte	0x53
 15087 0662 1A000000 		.4byte	.LVL103
 15088 0666 5A000000 		.4byte	.LVL111
 15089 066a 0100     		.2byte	0x1
 15090 066c 58       		.byte	0x58
 15091 066d 5A000000 		.4byte	.LVL111
 15092 0671 70020000 		.4byte	.LFE27
 15093 0675 0300     		.2byte	0x3
 15094 0677 91       		.byte	0x91
 15095 0678 B87F     		.sleb128 -72
 15096 067a 00000000 		.4byte	0
 15097 067e 00000000 		.4byte	0
 15098              	.LLST41:
 15099 0682 00000000 		.4byte	.LVL101
 15100 0686 44000000 		.4byte	.LVL110
 15101 068a 0200     		.2byte	0x2
 15102 068c 91       		.byte	0x91
 15103 068d 04       		.sleb128 4
 15104 068e 44000000 		.4byte	.LVL110
 15105 0692 70020000 		.4byte	.LFE27
 15106 0696 0300     		.2byte	0x3
 15107 0698 91       		.byte	0x91
 15108 0699 A47F     		.sleb128 -92
 15109 069b 00000000 		.4byte	0
ARM GAS  C:\Users\rdn\AppData\Local\Temp\cciiQw7C.s 			page 303


 15110 069f 00000000 		.4byte	0
 15111              	.LLST42:
 15112 06a3 28000000 		.4byte	.LVL107
 15113 06a7 5A000000 		.4byte	.LVL111
 15114 06ab 0100     		.2byte	0x1
 15115 06ad 50       		.byte	0x50
 15116 06ae 5A000000 		.4byte	.LVL111
 15117 06b2 70020000 		.4byte	.LFE27
 15118 06b6 0200     		.2byte	0x2
 15119 06b8 91       		.byte	0x91
 15120 06b9 4C       		.sleb128 -52
 15121 06ba 00000000 		.4byte	0
 15122 06be 00000000 		.4byte	0
 15123              	.LLST43:
 15124 06c2 34000000 		.4byte	.LVL109
 15125 06c6 5A000000 		.4byte	.LVL111
 15126 06ca 0200     		.2byte	0x2
 15127 06cc 30       		.byte	0x30
 15128 06cd 9F       		.byte	0x9f
 15129 06ce 5A000000 		.4byte	.LVL111
 15130 06d2 CA000000 		.4byte	.LVL125
 15131 06d6 0100     		.2byte	0x1
 15132 06d8 59       		.byte	0x59
 15133 06d9 CA000000 		.4byte	.LVL125
 15134 06dd 7C010000 		.4byte	.LVL153
 15135 06e1 0100     		.2byte	0x1
 15136 06e3 52       		.byte	0x52
 15137 06e4 7C010000 		.4byte	.LVL153
 15138 06e8 4C020000 		.4byte	.LVL171
 15139 06ec 0100     		.2byte	0x1
 15140 06ee 59       		.byte	0x59
 15141 06ef 00000000 		.4byte	0
 15142 06f3 00000000 		.4byte	0
 15143              	.LLST44:
 15144 06f7 34000000 		.4byte	.LVL109
 15145 06fb 5A000000 		.4byte	.LVL111
 15146 06ff 0200     		.2byte	0x2
 15147 0701 30       		.byte	0x30
 15148 0702 9F       		.byte	0x9f
 15149 0703 5A000000 		.4byte	.LVL111
 15150 0707 14010000 		.4byte	.LVL133
 15151 070b 0200     		.2byte	0x2
 15152 070d 91       		.byte	0x91
 15153 070e 40       		.sleb128 -64
 15154 070f 14010000 		.4byte	.LVL133
 15155 0713 18010000 		.4byte	.LVL134
 15156 0717 0100     		.2byte	0x1
 15157 0719 54       		.byte	0x54
 15158 071a 18010000 		.4byte	.LVL134
 15159 071e 70020000 		.4byte	.LFE27
 15160 0722 0200     		.2byte	0x2
 15161 0724 91       		.byte	0x91
 15162 0725 40       		.sleb128 -64
 15163 0726 00000000 		.4byte	0
 15164 072a 00000000 		.4byte	0
 15165              	.LLST45:
 15166 072e 34000000 		.4byte	.LVL109
ARM GAS  C:\Users\rdn\AppData\Local\Temp\cciiQw7C.s 			page 304


 15167 0732 5A000000 		.4byte	.LVL111
 15168 0736 0200     		.2byte	0x2
 15169 0738 30       		.byte	0x30
 15170 0739 9F       		.byte	0x9f
 15171 073a 5A000000 		.4byte	.LVL111
 15172 073e 70000000 		.4byte	.LVL114
 15173 0742 0100     		.2byte	0x1
 15174 0744 51       		.byte	0x51
 15175 0745 70000000 		.4byte	.LVL114
 15176 0749 E6010000 		.4byte	.LVL165
 15177 074d 0100     		.2byte	0x1
 15178 074f 5A       		.byte	0x5a
 15179 0750 E6010000 		.4byte	.LVL165
 15180 0754 70020000 		.4byte	.LFE27
 15181 0758 0100     		.2byte	0x1
 15182 075a 51       		.byte	0x51
 15183 075b 00000000 		.4byte	0
 15184 075f 00000000 		.4byte	0
 15185              	.LLST46:
 15186 0763 34000000 		.4byte	.LVL109
 15187 0767 5A000000 		.4byte	.LVL111
 15188 076b 0200     		.2byte	0x2
 15189 076d 30       		.byte	0x30
 15190 076e 9F       		.byte	0x9f
 15191 076f 5A000000 		.4byte	.LVL111
 15192 0773 8C010000 		.4byte	.LVL154
 15193 0777 0200     		.2byte	0x2
 15194 0779 91       		.byte	0x91
 15195 077a 44       		.sleb128 -60
 15196 077b 8C010000 		.4byte	.LVL154
 15197 077f 90010000 		.4byte	.LVL156
 15198 0783 0100     		.2byte	0x1
 15199 0785 59       		.byte	0x59
 15200 0786 90010000 		.4byte	.LVL156
 15201 078a 1C020000 		.4byte	.LVL167
 15202 078e 0200     		.2byte	0x2
 15203 0790 91       		.byte	0x91
 15204 0791 44       		.sleb128 -60
 15205 0792 1C020000 		.4byte	.LVL167
 15206 0796 1E020000 		.4byte	.LVL168
 15207 079a 0100     		.2byte	0x1
 15208 079c 5C       		.byte	0x5c
 15209 079d 1E020000 		.4byte	.LVL168
 15210 07a1 70020000 		.4byte	.LFE27
 15211 07a5 0200     		.2byte	0x2
 15212 07a7 91       		.byte	0x91
 15213 07a8 44       		.sleb128 -60
 15214 07a9 00000000 		.4byte	0
 15215 07ad 00000000 		.4byte	0
 15216              	.LLST47:
 15217 07b1 34000000 		.4byte	.LVL109
 15218 07b5 5A000000 		.4byte	.LVL111
 15219 07b9 0200     		.2byte	0x2
 15220 07bb 30       		.byte	0x30
 15221 07bc 9F       		.byte	0x9f
 15222 07bd 5A000000 		.4byte	.LVL111
 15223 07c1 8C010000 		.4byte	.LVL154
ARM GAS  C:\Users\rdn\AppData\Local\Temp\cciiQw7C.s 			page 305


 15224 07c5 0200     		.2byte	0x2
 15225 07c7 91       		.byte	0x91
 15226 07c8 48       		.sleb128 -56
 15227 07c9 8C010000 		.4byte	.LVL154
 15228 07cd 8E010000 		.4byte	.LVL155
 15229 07d1 0100     		.2byte	0x1
 15230 07d3 53       		.byte	0x53
 15231 07d4 8E010000 		.4byte	.LVL155
 15232 07d8 18020000 		.4byte	.LVL166
 15233 07dc 0200     		.2byte	0x2
 15234 07de 91       		.byte	0x91
 15235 07df 48       		.sleb128 -56
 15236 07e0 18020000 		.4byte	.LVL166
 15237 07e4 1C020000 		.4byte	.LVL167
 15238 07e8 0100     		.2byte	0x1
 15239 07ea 52       		.byte	0x52
 15240 07eb 1C020000 		.4byte	.LVL167
 15241 07ef 70020000 		.4byte	.LFE27
 15242 07f3 0200     		.2byte	0x2
 15243 07f5 91       		.byte	0x91
 15244 07f6 48       		.sleb128 -56
 15245 07f7 00000000 		.4byte	0
 15246 07fb 00000000 		.4byte	0
 15247              	.LLST48:
 15248 07ff 28000000 		.4byte	.LVL107
 15249 0803 34000000 		.4byte	.LVL109
 15250 0807 0100     		.2byte	0x1
 15251 0809 55       		.byte	0x55
 15252 080a 00000000 		.4byte	0
 15253 080e 00000000 		.4byte	0
 15254              	.LLST49:
 15255 0812 28000000 		.4byte	.LVL107
 15256 0816 30000000 		.4byte	.LVL108
 15257 081a 0100     		.2byte	0x1
 15258 081c 54       		.byte	0x54
 15259 081d 00000000 		.4byte	0
 15260 0821 00000000 		.4byte	0
 15261              	.LLST50:
 15262 0825 44000000 		.4byte	.LVL110
 15263 0829 5A000000 		.4byte	.LVL111
 15264 082d 0200     		.2byte	0x2
 15265 082f 30       		.byte	0x30
 15266 0830 9F       		.byte	0x9f
 15267 0831 5A000000 		.4byte	.LVL111
 15268 0835 4C020000 		.4byte	.LVL170
 15269 0839 0100     		.2byte	0x1
 15270 083b 56       		.byte	0x56
 15271 083c 00000000 		.4byte	0
 15272 0840 00000000 		.4byte	0
 15273              	.LLST51:
 15274 0844 44000000 		.4byte	.LVL110
 15275 0848 5A000000 		.4byte	.LVL111
 15276 084c 0200     		.2byte	0x2
 15277 084e 30       		.byte	0x30
 15278 084f 9F       		.byte	0x9f
 15279 0850 5A000000 		.4byte	.LVL111
 15280 0854 5C000000 		.4byte	.LVL112
ARM GAS  C:\Users\rdn\AppData\Local\Temp\cciiQw7C.s 			page 306


 15281 0858 0100     		.2byte	0x1
 15282 085a 53       		.byte	0x53
 15283 085b 5C000000 		.4byte	.LVL112
 15284 085f 70020000 		.4byte	.LFE27
 15285 0863 0300     		.2byte	0x3
 15286 0865 91       		.byte	0x91
 15287 0866 A87F     		.sleb128 -88
 15288 0868 00000000 		.4byte	0
 15289 086c 00000000 		.4byte	0
 15290              	.LLST52:
 15291 0870 6C000000 		.4byte	.LVL113
 15292 0874 70000000 		.4byte	.LVL114
 15293 0878 0100     		.2byte	0x1
 15294 087a 53       		.byte	0x53
 15295 087b 70000000 		.4byte	.LVL114
 15296 087f E6010000 		.4byte	.LVL165
 15297 0883 0300     		.2byte	0x3
 15298 0885 91       		.byte	0x91
 15299 0886 B07F     		.sleb128 -80
 15300 0888 00000000 		.4byte	0
 15301 088c 00000000 		.4byte	0
 15302              	.LLST53:
 15303 0890 80000000 		.4byte	.LVL115
 15304 0894 B8000000 		.4byte	.LVL123
 15305 0898 0100     		.2byte	0x1
 15306 089a 55       		.byte	0x55
 15307 089b 00000000 		.4byte	0
 15308 089f 00000000 		.4byte	0
 15309              	.LLST54:
 15310 08a3 98000000 		.4byte	.LVL118
 15311 08a7 A4000000 		.4byte	.LVL119
 15312 08ab 0100     		.2byte	0x1
 15313 08ad 50       		.byte	0x50
 15314 08ae A4000000 		.4byte	.LVL119
 15315 08b2 FE000000 		.4byte	.LVL130
 15316 08b6 0100     		.2byte	0x1
 15317 08b8 54       		.byte	0x54
 15318 08b9 FE000000 		.4byte	.LVL130
 15319 08bd 00010000 		.4byte	.LVL131
 15320 08c1 0300     		.2byte	0x3
 15321 08c3 91       		.byte	0x91
 15322 08c4 9C7F     		.sleb128 -100
 15323 08c6 00010000 		.4byte	.LVL131
 15324 08ca 02010000 		.4byte	.LVL132
 15325 08ce 0100     		.2byte	0x1
 15326 08d0 54       		.byte	0x54
 15327 08d1 02010000 		.4byte	.LVL132
 15328 08d5 18010000 		.4byte	.LVL134
 15329 08d9 0300     		.2byte	0x3
 15330 08db 91       		.byte	0x91
 15331 08dc 9C7F     		.sleb128 -100
 15332 08de 18010000 		.4byte	.LVL134
 15333 08e2 1A010000 		.4byte	.LVL135
 15334 08e6 0100     		.2byte	0x1
 15335 08e8 54       		.byte	0x54
 15336 08e9 1A010000 		.4byte	.LVL135
 15337 08ed 4C010000 		.4byte	.LVL145
ARM GAS  C:\Users\rdn\AppData\Local\Temp\cciiQw7C.s 			page 307


 15338 08f1 0300     		.2byte	0x3
 15339 08f3 91       		.byte	0x91
 15340 08f4 9C7F     		.sleb128 -100
 15341 08f6 4C010000 		.4byte	.LVL145
 15342 08fa 56010000 		.4byte	.LVL147
 15343 08fe 0100     		.2byte	0x1
 15344 0900 53       		.byte	0x53
 15345 0901 56010000 		.4byte	.LVL147
 15346 0905 5A010000 		.4byte	.LVL149
 15347 0909 0300     		.2byte	0x3
 15348 090b 91       		.byte	0x91
 15349 090c 9C7F     		.sleb128 -100
 15350 090e 5A010000 		.4byte	.LVL149
 15351 0912 5E010000 		.4byte	.LVL151
 15352 0916 0100     		.2byte	0x1
 15353 0918 54       		.byte	0x54
 15354 0919 5E010000 		.4byte	.LVL151
 15355 091d BC010000 		.4byte	.LVL164
 15356 0921 0300     		.2byte	0x3
 15357 0923 91       		.byte	0x91
 15358 0924 9C7F     		.sleb128 -100
 15359 0926 00000000 		.4byte	0
 15360 092a 00000000 		.4byte	0
 15361              	.LLST55:
 15362 092e AC000000 		.4byte	.LVL121
 15363 0932 9E010000 		.4byte	.LVL158
 15364 0936 0100     		.2byte	0x1
 15365 0938 50       		.byte	0x50
 15366 0939 A4010000 		.4byte	.LVL160
 15367 093d AA010000 		.4byte	.LVL162
 15368 0941 0100     		.2byte	0x1
 15369 0943 50       		.byte	0x50
 15370 0944 00000000 		.4byte	0
 15371 0948 00000000 		.4byte	0
 15372              	.LLST56:
 15373 094c B6000000 		.4byte	.LVL122
 15374 0950 62010000 		.4byte	.LVL152
 15375 0954 0100     		.2byte	0x1
 15376 0956 51       		.byte	0x51
 15377 0957 62010000 		.4byte	.LVL152
 15378 095b BA010000 		.4byte	.LVL163
 15379 095f 0A00     		.2byte	0xa
 15380 0961 7A       		.byte	0x7a
 15381 0962 00       		.sleb128 0
 15382 0963 32       		.byte	0x32
 15383 0964 24       		.byte	0x24
 15384 0965 91       		.byte	0x91
 15385 0966 B07F     		.sleb128 -80
 15386 0968 06       		.byte	0x6
 15387 0969 22       		.byte	0x22
 15388 096a 9F       		.byte	0x9f
 15389 096b 00000000 		.4byte	0
 15390 096f 00000000 		.4byte	0
 15391              	.LLST57:
 15392 0973 C6000000 		.4byte	.LVL124
 15393 0977 CC000000 		.4byte	.LVL126
 15394 097b 0100     		.2byte	0x1
ARM GAS  C:\Users\rdn\AppData\Local\Temp\cciiQw7C.s 			page 308


 15395 097d 53       		.byte	0x53
 15396 097e CC000000 		.4byte	.LVL126
 15397 0982 BC010000 		.4byte	.LVL164
 15398 0986 0300     		.2byte	0x3
 15399 0988 91       		.byte	0x91
 15400 0989 A07F     		.sleb128 -96
 15401 098b 00000000 		.4byte	0
 15402 098f 00000000 		.4byte	0
 15403              	.LLST58:
 15404 0993 D0000000 		.4byte	.LVL127
 15405 0997 1E010000 		.4byte	.LVL136
 15406 099b 0100     		.2byte	0x1
 15407 099d 53       		.byte	0x53
 15408 099e 1E010000 		.4byte	.LVL136
 15409 09a2 20010000 		.4byte	.LVL137
 15410 09a6 0A00     		.2byte	0xa
 15411 09a8 91       		.byte	0x91
 15412 09a9 9C7F     		.sleb128 -100
 15413 09ab 06       		.byte	0x6
 15414 09ac 70       		.byte	0x70
 15415 09ad 00       		.sleb128 0
 15416 09ae 21       		.byte	0x21
 15417 09af 32       		.byte	0x32
 15418 09b0 25       		.byte	0x25
 15419 09b1 9F       		.byte	0x9f
 15420 09b2 20010000 		.4byte	.LVL137
 15421 09b6 22010000 		.4byte	.LVL138
 15422 09ba 0100     		.2byte	0x1
 15423 09bc 53       		.byte	0x53
 15424 09bd 22010000 		.4byte	.LVL138
 15425 09c1 5A010000 		.4byte	.LVL149
 15426 09c5 0100     		.2byte	0x1
 15427 09c7 55       		.byte	0x55
 15428 09c8 5A010000 		.4byte	.LVL149
 15429 09cc 5C010000 		.4byte	.LVL150
 15430 09d0 0100     		.2byte	0x1
 15431 09d2 53       		.byte	0x53
 15432 09d3 5C010000 		.4byte	.LVL150
 15433 09d7 5E010000 		.4byte	.LVL151
 15434 09db 0800     		.2byte	0x8
 15435 09dd 74       		.byte	0x74
 15436 09de 00       		.sleb128 0
 15437 09df 70       		.byte	0x70
 15438 09e0 00       		.sleb128 0
 15439 09e1 21       		.byte	0x21
 15440 09e2 32       		.byte	0x32
 15441 09e3 25       		.byte	0x25
 15442 09e4 9F       		.byte	0x9f
 15443 09e5 00000000 		.4byte	0
 15444 09e9 00000000 		.4byte	0
 15445              	.LLST59:
 15446 09ed D0000000 		.4byte	.LVL127
 15447 09f1 DE000000 		.4byte	.LVL128
 15448 09f5 0200     		.2byte	0x2
 15449 09f7 30       		.byte	0x30
 15450 09f8 9F       		.byte	0x9f
 15451 09f9 DE000000 		.4byte	.LVL128
ARM GAS  C:\Users\rdn\AppData\Local\Temp\cciiQw7C.s 			page 309


 15452 09fd 18010000 		.4byte	.LVL134
 15453 0a01 0200     		.2byte	0x2
 15454 0a03 31       		.byte	0x31
 15455 0a04 9F       		.byte	0x9f
 15456 0a05 18010000 		.4byte	.LVL134
 15457 0a09 1A010000 		.4byte	.LVL135
 15458 0a0d 0200     		.2byte	0x2
 15459 0a0f 30       		.byte	0x30
 15460 0a10 9F       		.byte	0x9f
 15461 0a11 1A010000 		.4byte	.LVL135
 15462 0a15 28010000 		.4byte	.LVL139
 15463 0a19 0100     		.2byte	0x1
 15464 0a1b 57       		.byte	0x57
 15465 0a1c 28010000 		.4byte	.LVL139
 15466 0a20 2A010000 		.4byte	.LVL140
 15467 0a24 0100     		.2byte	0x1
 15468 0a26 53       		.byte	0x53
 15469 0a27 2A010000 		.4byte	.LVL140
 15470 0a2b 58010000 		.4byte	.LVL148
 15471 0a2f 0100     		.2byte	0x1
 15472 0a31 57       		.byte	0x57
 15473 0a32 58010000 		.4byte	.LVL148
 15474 0a36 5A010000 		.4byte	.LVL149
 15475 0a3a 0200     		.2byte	0x2
 15476 0a3c 33       		.byte	0x33
 15477 0a3d 9F       		.byte	0x9f
 15478 0a3e 5A010000 		.4byte	.LVL149
 15479 0a42 5E010000 		.4byte	.LVL151
 15480 0a46 0200     		.2byte	0x2
 15481 0a48 30       		.byte	0x30
 15482 0a49 9F       		.byte	0x9f
 15483 0a4a 5E010000 		.4byte	.LVL151
 15484 0a4e 9C010000 		.4byte	.LVL157
 15485 0a52 0100     		.2byte	0x1
 15486 0a54 58       		.byte	0x58
 15487 0a55 9C010000 		.4byte	.LVL157
 15488 0a59 A2010000 		.4byte	.LVL159
 15489 0a5d 0100     		.2byte	0x1
 15490 0a5f 53       		.byte	0x53
 15491 0a60 A2010000 		.4byte	.LVL159
 15492 0a64 A4010000 		.4byte	.LVL160
 15493 0a68 0100     		.2byte	0x1
 15494 0a6a 58       		.byte	0x58
 15495 0a6b A4010000 		.4byte	.LVL160
 15496 0a6f A6010000 		.4byte	.LVL161
 15497 0a73 0100     		.2byte	0x1
 15498 0a75 53       		.byte	0x53
 15499 0a76 A6010000 		.4byte	.LVL161
 15500 0a7a BC010000 		.4byte	.LVL164
 15501 0a7e 0100     		.2byte	0x1
 15502 0a80 58       		.byte	0x58
 15503 0a81 00000000 		.4byte	0
 15504 0a85 00000000 		.4byte	0
 15505              	.LLST60:
 15506 0a89 00000000 		.4byte	.LVL172
 15507 0a8d 32000000 		.4byte	.LVL178
 15508 0a91 0100     		.2byte	0x1
ARM GAS  C:\Users\rdn\AppData\Local\Temp\cciiQw7C.s 			page 310


 15509 0a93 50       		.byte	0x50
 15510 0a94 32000000 		.4byte	.LVL178
 15511 0a98 18010000 		.4byte	.LFE34
 15512 0a9c 0400     		.2byte	0x4
 15513 0a9e F3       		.byte	0xf3
 15514 0a9f 01       		.uleb128 0x1
 15515 0aa0 50       		.byte	0x50
 15516 0aa1 9F       		.byte	0x9f
 15517 0aa2 00000000 		.4byte	0
 15518 0aa6 00000000 		.4byte	0
 15519              	.LLST61:
 15520 0aaa 00000000 		.4byte	.LVL172
 15521 0aae 1A000000 		.4byte	.LVL176
 15522 0ab2 0100     		.2byte	0x1
 15523 0ab4 51       		.byte	0x51
 15524 0ab5 1A000000 		.4byte	.LVL176
 15525 0ab9 18010000 		.4byte	.LFE34
 15526 0abd 0400     		.2byte	0x4
 15527 0abf F3       		.byte	0xf3
 15528 0ac0 01       		.uleb128 0x1
 15529 0ac1 51       		.byte	0x51
 15530 0ac2 9F       		.byte	0x9f
 15531 0ac3 00000000 		.4byte	0
 15532 0ac7 00000000 		.4byte	0
 15533              	.LLST62:
 15534 0acb 00000000 		.4byte	.LVL172
 15535 0acf 3C000000 		.4byte	.LVL180
 15536 0ad3 0100     		.2byte	0x1
 15537 0ad5 52       		.byte	0x52
 15538 0ad6 3C000000 		.4byte	.LVL180
 15539 0ada 42000000 		.4byte	.LVL181
 15540 0ade 0400     		.2byte	0x4
 15541 0ae0 F3       		.byte	0xf3
 15542 0ae1 01       		.uleb128 0x1
 15543 0ae2 52       		.byte	0x52
 15544 0ae3 9F       		.byte	0x9f
 15545 0ae4 42000000 		.4byte	.LVL181
 15546 0ae8 44000000 		.4byte	.LVL182
 15547 0aec 0100     		.2byte	0x1
 15548 0aee 52       		.byte	0x52
 15549 0aef 44000000 		.4byte	.LVL182
 15550 0af3 18010000 		.4byte	.LFE34
 15551 0af7 0400     		.2byte	0x4
 15552 0af9 F3       		.byte	0xf3
 15553 0afa 01       		.uleb128 0x1
 15554 0afb 52       		.byte	0x52
 15555 0afc 9F       		.byte	0x9f
 15556 0afd 00000000 		.4byte	0
 15557 0b01 00000000 		.4byte	0
 15558              	.LLST63:
 15559 0b05 00000000 		.4byte	.LVL172
 15560 0b09 0E000000 		.4byte	.LVL173
 15561 0b0d 0100     		.2byte	0x1
 15562 0b0f 53       		.byte	0x53
 15563 0b10 0E000000 		.4byte	.LVL173
 15564 0b14 08010000 		.4byte	.LVL214
 15565 0b18 0100     		.2byte	0x1
ARM GAS  C:\Users\rdn\AppData\Local\Temp\cciiQw7C.s 			page 311


 15566 0b1a 5B       		.byte	0x5b
 15567 0b1b 08010000 		.4byte	.LVL214
 15568 0b1f 18010000 		.4byte	.LFE34
 15569 0b23 0400     		.2byte	0x4
 15570 0b25 F3       		.byte	0xf3
 15571 0b26 01       		.uleb128 0x1
 15572 0b27 53       		.byte	0x53
 15573 0b28 9F       		.byte	0x9f
 15574 0b29 00000000 		.4byte	0
 15575 0b2d 00000000 		.4byte	0
 15576              	.LLST64:
 15577 0b31 36000000 		.4byte	.LVL179
 15578 0b35 08010000 		.4byte	.LVL212
 15579 0b39 0100     		.2byte	0x1
 15580 0b3b 56       		.byte	0x56
 15581 0b3c 00000000 		.4byte	0
 15582 0b40 00000000 		.4byte	0
 15583              	.LLST65:
 15584 0b44 46000000 		.4byte	.LVL183
 15585 0b48 58000000 		.4byte	.LVL185
 15586 0b4c 0600     		.2byte	0x6
 15587 0b4e 9E       		.byte	0x9e
 15588 0b4f 04       		.uleb128 0x4
 15589 0b50 00000000 		.4byte	0
 15590 0b54 58000000 		.4byte	.LVL185
 15591 0b58 8C000000 		.4byte	.LVL191
 15592 0b5c 0200     		.2byte	0x2
 15593 0b5e 7D       		.byte	0x7d
 15594 0b5f 00       		.sleb128 0
 15595 0b60 8C000000 		.4byte	.LVL191
 15596 0b64 8E000000 		.4byte	.LVL192
 15597 0b68 0100     		.2byte	0x1
 15598 0b6a 50       		.byte	0x50
 15599 0b6b 8E000000 		.4byte	.LVL192
 15600 0b6f BA000000 		.4byte	.LVL196
 15601 0b73 0200     		.2byte	0x2
 15602 0b75 7D       		.byte	0x7d
 15603 0b76 00       		.sleb128 0
 15604 0b77 BA000000 		.4byte	.LVL196
 15605 0b7b BC000000 		.4byte	.LVL197
 15606 0b7f 0100     		.2byte	0x1
 15607 0b81 50       		.byte	0x50
 15608 0b82 BC000000 		.4byte	.LVL197
 15609 0b86 08010000 		.4byte	.LVL210
 15610 0b8a 0200     		.2byte	0x2
 15611 0b8c 7D       		.byte	0x7d
 15612 0b8d 00       		.sleb128 0
 15613 0b8e 08010000 		.4byte	.LVL210
 15614 0b92 18010000 		.4byte	.LFE34
 15615 0b96 0200     		.2byte	0x2
 15616 0b98 91       		.byte	0x91
 15617 0b99 58       		.sleb128 -40
 15618 0b9a 00000000 		.4byte	0
 15619 0b9e 00000000 		.4byte	0
 15620              	.LLST66:
 15621 0ba2 4E000000 		.4byte	.LVL184
 15622 0ba6 D6000000 		.4byte	.LVL200
ARM GAS  C:\Users\rdn\AppData\Local\Temp\cciiQw7C.s 			page 312


 15623 0baa 0100     		.2byte	0x1
 15624 0bac 54       		.byte	0x54
 15625 0bad F6000000 		.4byte	.LVL205
 15626 0bb1 F8000000 		.4byte	.LVL206
 15627 0bb5 0100     		.2byte	0x1
 15628 0bb7 54       		.byte	0x54
 15629 0bb8 00000000 		.4byte	0
 15630 0bbc 00000000 		.4byte	0
 15631              	.LLST67:
 15632 0bc0 46000000 		.4byte	.LVL183
 15633 0bc4 58000000 		.4byte	.LVL185
 15634 0bc8 0200     		.2byte	0x2
 15635 0bca 30       		.byte	0x30
 15636 0bcb 9F       		.byte	0x9f
 15637 0bcc 58000000 		.4byte	.LVL185
 15638 0bd0 08010000 		.4byte	.LVL213
 15639 0bd4 0100     		.2byte	0x1
 15640 0bd6 57       		.byte	0x57
 15641 0bd7 00000000 		.4byte	0
 15642 0bdb 00000000 		.4byte	0
 15643              	.LLST68:
 15644 0bdf 46000000 		.4byte	.LVL183
 15645 0be3 58000000 		.4byte	.LVL185
 15646 0be7 0200     		.2byte	0x2
 15647 0be9 30       		.byte	0x30
 15648 0bea 9F       		.byte	0x9f
 15649 0beb 58000000 		.4byte	.LVL185
 15650 0bef 6E000000 		.4byte	.LVL187
 15651 0bf3 0100     		.2byte	0x1
 15652 0bf5 55       		.byte	0x55
 15653 0bf6 6E000000 		.4byte	.LVL187
 15654 0bfa 70000000 		.4byte	.LVL188
 15655 0bfe 0300     		.2byte	0x3
 15656 0c00 75       		.byte	0x75
 15657 0c01 7F       		.sleb128 -1
 15658 0c02 9F       		.byte	0x9f
 15659 0c03 70000000 		.4byte	.LVL188
 15660 0c07 08010000 		.4byte	.LVL211
 15661 0c0b 0100     		.2byte	0x1
 15662 0c0d 55       		.byte	0x55
 15663 0c0e 00000000 		.4byte	0
 15664 0c12 00000000 		.4byte	0
 15665              	.LLST69:
 15666 0c16 F8000000 		.4byte	.LVL206
 15667 0c1a 02010000 		.4byte	.LVL207
 15668 0c1e 0100     		.2byte	0x1
 15669 0c20 50       		.byte	0x50
 15670 0c21 04010000 		.4byte	.LVL208
 15671 0c25 06010000 		.4byte	.LVL209
 15672 0c29 0100     		.2byte	0x1
 15673 0c2b 50       		.byte	0x50
 15674 0c2c 00000000 		.4byte	0
 15675 0c30 00000000 		.4byte	0
 15676              	.LLST70:
 15677 0c34 16000000 		.4byte	.LVL174
 15678 0c38 18000000 		.4byte	.LVL175
 15679 0c3c 0100     		.2byte	0x1
ARM GAS  C:\Users\rdn\AppData\Local\Temp\cciiQw7C.s 			page 313


 15680 0c3e 53       		.byte	0x53
 15681 0c3f 00000000 		.4byte	0
 15682 0c43 00000000 		.4byte	0
 15683              	.LLST71:
 15684 0c47 16000000 		.4byte	.LVL174
 15685 0c4b 22000000 		.4byte	.LVL177
 15686 0c4f 0100     		.2byte	0x1
 15687 0c51 50       		.byte	0x50
 15688 0c52 00000000 		.4byte	0
 15689 0c56 00000000 		.4byte	0
 15690              	.LLST72:
 15691 0c5a 00000000 		.4byte	.LVL215
 15692 0c5e 36000000 		.4byte	.LVL221
 15693 0c62 0100     		.2byte	0x1
 15694 0c64 50       		.byte	0x50
 15695 0c65 36000000 		.4byte	.LVL221
 15696 0c69 10010000 		.4byte	.LFE35
 15697 0c6d 0400     		.2byte	0x4
 15698 0c6f F3       		.byte	0xf3
 15699 0c70 01       		.uleb128 0x1
 15700 0c71 50       		.byte	0x50
 15701 0c72 9F       		.byte	0x9f
 15702 0c73 00000000 		.4byte	0
 15703 0c77 00000000 		.4byte	0
 15704              	.LLST73:
 15705 0c7b 00000000 		.4byte	.LVL215
 15706 0c7f 1E000000 		.4byte	.LVL219
 15707 0c83 0100     		.2byte	0x1
 15708 0c85 51       		.byte	0x51
 15709 0c86 1E000000 		.4byte	.LVL219
 15710 0c8a 10010000 		.4byte	.LFE35
 15711 0c8e 0400     		.2byte	0x4
 15712 0c90 F3       		.byte	0xf3
 15713 0c91 01       		.uleb128 0x1
 15714 0c92 51       		.byte	0x51
 15715 0c93 9F       		.byte	0x9f
 15716 0c94 00000000 		.4byte	0
 15717 0c98 00000000 		.4byte	0
 15718              	.LLST74:
 15719 0c9c 00000000 		.4byte	.LVL215
 15720 0ca0 41000000 		.4byte	.LVL223-1
 15721 0ca4 0100     		.2byte	0x1
 15722 0ca6 52       		.byte	0x52
 15723 0ca7 41000000 		.4byte	.LVL223-1
 15724 0cab 10010000 		.4byte	.LFE35
 15725 0caf 0400     		.2byte	0x4
 15726 0cb1 F3       		.byte	0xf3
 15727 0cb2 01       		.uleb128 0x1
 15728 0cb3 52       		.byte	0x52
 15729 0cb4 9F       		.byte	0x9f
 15730 0cb5 00000000 		.4byte	0
 15731 0cb9 00000000 		.4byte	0
 15732              	.LLST75:
 15733 0cbd 00000000 		.4byte	.LVL215
 15734 0cc1 0E000000 		.4byte	.LVL216
 15735 0cc5 0100     		.2byte	0x1
 15736 0cc7 53       		.byte	0x53
ARM GAS  C:\Users\rdn\AppData\Local\Temp\cciiQw7C.s 			page 314


 15737 0cc8 0E000000 		.4byte	.LVL216
 15738 0ccc 5E000000 		.4byte	.LVL228
 15739 0cd0 0400     		.2byte	0x4
 15740 0cd2 F3       		.byte	0xf3
 15741 0cd3 01       		.uleb128 0x1
 15742 0cd4 53       		.byte	0x53
 15743 0cd5 9F       		.byte	0x9f
 15744 0cd6 5E000000 		.4byte	.LVL228
 15745 0cda FC000000 		.4byte	.LVL241
 15746 0cde 0100     		.2byte	0x1
 15747 0ce0 5B       		.byte	0x5b
 15748 0ce1 00000000 		.4byte	0
 15749 0ce5 00000000 		.4byte	0
 15750              	.LLST76:
 15751 0ce9 3A000000 		.4byte	.LVL222
 15752 0ced FC000000 		.4byte	.LVL240
 15753 0cf1 0100     		.2byte	0x1
 15754 0cf3 57       		.byte	0x57
 15755 0cf4 00000000 		.4byte	0
 15756 0cf8 00000000 		.4byte	0
 15757              	.LLST77:
 15758 0cfc 52000000 		.4byte	.LVL226
 15759 0d00 5E000000 		.4byte	.LVL228
 15760 0d04 0100     		.2byte	0x1
 15761 0d06 50       		.byte	0x50
 15762 0d07 5E000000 		.4byte	.LVL228
 15763 0d0b 10010000 		.4byte	.LFE35
 15764 0d0f 0200     		.2byte	0x2
 15765 0d11 91       		.byte	0x91
 15766 0d12 5C       		.sleb128 -36
 15767 0d13 00000000 		.4byte	0
 15768 0d17 00000000 		.4byte	0
 15769              	.LLST78:
 15770 0d1b 5A000000 		.4byte	.LVL227
 15771 0d1f FC000000 		.4byte	.LVL238
 15772 0d23 0100     		.2byte	0x1
 15773 0d25 54       		.byte	0x54
 15774 0d26 00000000 		.4byte	0
 15775 0d2a 00000000 		.4byte	0
 15776              	.LLST79:
 15777 0d2e 52000000 		.4byte	.LVL226
 15778 0d32 5E000000 		.4byte	.LVL228
 15779 0d36 0200     		.2byte	0x2
 15780 0d38 30       		.byte	0x30
 15781 0d39 9F       		.byte	0x9f
 15782 0d3a 5E000000 		.4byte	.LVL228
 15783 0d3e 70000000 		.4byte	.LVL230
 15784 0d42 0100     		.2byte	0x1
 15785 0d44 55       		.byte	0x55
 15786 0d45 70000000 		.4byte	.LVL230
 15787 0d49 72000000 		.4byte	.LVL231
 15788 0d4d 0300     		.2byte	0x3
 15789 0d4f 75       		.byte	0x75
 15790 0d50 7F       		.sleb128 -1
 15791 0d51 9F       		.byte	0x9f
 15792 0d52 72000000 		.4byte	.LVL231
 15793 0d56 FC000000 		.4byte	.LVL239
ARM GAS  C:\Users\rdn\AppData\Local\Temp\cciiQw7C.s 			page 315


 15794 0d5a 0100     		.2byte	0x1
 15795 0d5c 55       		.byte	0x55
 15796 0d5d 00000000 		.4byte	0
 15797 0d61 00000000 		.4byte	0
 15798              	.LLST80:
 15799 0d65 1A000000 		.4byte	.LVL217
 15800 0d69 1C000000 		.4byte	.LVL218
 15801 0d6d 0100     		.2byte	0x1
 15802 0d6f 53       		.byte	0x53
 15803 0d70 00000000 		.4byte	0
 15804 0d74 00000000 		.4byte	0
 15805              	.LLST81:
 15806 0d78 1A000000 		.4byte	.LVL217
 15807 0d7c 26000000 		.4byte	.LVL220
 15808 0d80 0100     		.2byte	0x1
 15809 0d82 50       		.byte	0x50
 15810 0d83 00000000 		.4byte	0
 15811 0d87 00000000 		.4byte	0
 15812              	.LLST82:
 15813 0d8b 00000000 		.4byte	.LVL242
 15814 0d8f 0A000000 		.4byte	.LVL245
 15815 0d93 0100     		.2byte	0x1
 15816 0d95 50       		.byte	0x50
 15817 0d96 0A000000 		.4byte	.LVL245
 15818 0d9a 4C000000 		.4byte	.LFE38
 15819 0d9e 0400     		.2byte	0x4
 15820 0da0 F3       		.byte	0xf3
 15821 0da1 01       		.uleb128 0x1
 15822 0da2 50       		.byte	0x50
 15823 0da3 9F       		.byte	0x9f
 15824 0da4 00000000 		.4byte	0
 15825 0da8 00000000 		.4byte	0
 15826              	.LLST83:
 15827 0dac 00000000 		.4byte	.LVL242
 15828 0db0 04000000 		.4byte	.LVL244
 15829 0db4 0100     		.2byte	0x1
 15830 0db6 51       		.byte	0x51
 15831 0db7 04000000 		.4byte	.LVL244
 15832 0dbb 4C000000 		.4byte	.LFE38
 15833 0dbf 0400     		.2byte	0x4
 15834 0dc1 F3       		.byte	0xf3
 15835 0dc2 01       		.uleb128 0x1
 15836 0dc3 51       		.byte	0x51
 15837 0dc4 9F       		.byte	0x9f
 15838 0dc5 00000000 		.4byte	0
 15839 0dc9 00000000 		.4byte	0
 15840              	.LLST84:
 15841 0dcd 02000000 		.4byte	.LVL243
 15842 0dd1 04000000 		.4byte	.LVL244
 15843 0dd5 0100     		.2byte	0x1
 15844 0dd7 51       		.byte	0x51
 15845 0dd8 04000000 		.4byte	.LVL244
 15846 0ddc 0C000000 		.4byte	.LVL246
 15847 0de0 0400     		.2byte	0x4
 15848 0de2 F3       		.byte	0xf3
 15849 0de3 01       		.uleb128 0x1
 15850 0de4 51       		.byte	0x51
ARM GAS  C:\Users\rdn\AppData\Local\Temp\cciiQw7C.s 			page 316


 15851 0de5 9F       		.byte	0x9f
 15852 0de6 00000000 		.4byte	0
 15853 0dea 00000000 		.4byte	0
 15854              	.LLST85:
 15855 0dee 02000000 		.4byte	.LVL243
 15856 0df2 0A000000 		.4byte	.LVL245
 15857 0df6 0100     		.2byte	0x1
 15858 0df8 50       		.byte	0x50
 15859 0df9 0A000000 		.4byte	.LVL245
 15860 0dfd 0C000000 		.4byte	.LVL246
 15861 0e01 0400     		.2byte	0x4
 15862 0e03 F3       		.byte	0xf3
 15863 0e04 01       		.uleb128 0x1
 15864 0e05 50       		.byte	0x50
 15865 0e06 9F       		.byte	0x9f
 15866 0e07 00000000 		.4byte	0
 15867 0e0b 00000000 		.4byte	0
 15868              	.LLST86:
 15869 0e0f 00000000 		.4byte	.LVL247
 15870 0e13 09000000 		.4byte	.LVL248-1
 15871 0e17 0100     		.2byte	0x1
 15872 0e19 50       		.byte	0x50
 15873 0e1a 09000000 		.4byte	.LVL248-1
 15874 0e1e 2E000000 		.4byte	.LFE39
 15875 0e22 0400     		.2byte	0x4
 15876 0e24 F3       		.byte	0xf3
 15877 0e25 01       		.uleb128 0x1
 15878 0e26 50       		.byte	0x50
 15879 0e27 9F       		.byte	0x9f
 15880 0e28 00000000 		.4byte	0
 15881 0e2c 00000000 		.4byte	0
 15882              	.LLST87:
 15883 0e30 00000000 		.4byte	.LVL247
 15884 0e34 09000000 		.4byte	.LVL248-1
 15885 0e38 0100     		.2byte	0x1
 15886 0e3a 51       		.byte	0x51
 15887 0e3b 09000000 		.4byte	.LVL248-1
 15888 0e3f 2E000000 		.4byte	.LFE39
 15889 0e43 0400     		.2byte	0x4
 15890 0e45 F3       		.byte	0xf3
 15891 0e46 01       		.uleb128 0x1
 15892 0e47 51       		.byte	0x51
 15893 0e48 9F       		.byte	0x9f
 15894 0e49 00000000 		.4byte	0
 15895 0e4d 00000000 		.4byte	0
 15896              	.LLST88:
 15897 0e51 00000000 		.4byte	.LVL247
 15898 0e55 09000000 		.4byte	.LVL248-1
 15899 0e59 0100     		.2byte	0x1
 15900 0e5b 52       		.byte	0x52
 15901 0e5c 09000000 		.4byte	.LVL248-1
 15902 0e60 2C000000 		.4byte	.LVL252
 15903 0e64 0100     		.2byte	0x1
 15904 0e66 56       		.byte	0x56
 15905 0e67 2C000000 		.4byte	.LVL252
 15906 0e6b 2E000000 		.4byte	.LFE39
 15907 0e6f 0400     		.2byte	0x4
ARM GAS  C:\Users\rdn\AppData\Local\Temp\cciiQw7C.s 			page 317


 15908 0e71 F3       		.byte	0xf3
 15909 0e72 01       		.uleb128 0x1
 15910 0e73 52       		.byte	0x52
 15911 0e74 9F       		.byte	0x9f
 15912 0e75 00000000 		.4byte	0
 15913 0e79 00000000 		.4byte	0
 15914              	.LLST89:
 15915 0e7d 0C000000 		.4byte	.LVL249
 15916 0e81 14000000 		.4byte	.LVL250
 15917 0e85 0100     		.2byte	0x1
 15918 0e87 55       		.byte	0x55
 15919 0e88 00000000 		.4byte	0
 15920 0e8c 00000000 		.4byte	0
 15921              	.LLST90:
 15922 0e90 00000000 		.4byte	.LVL253
 15923 0e94 14000000 		.4byte	.LVL254
 15924 0e98 0100     		.2byte	0x1
 15925 0e9a 50       		.byte	0x50
 15926 0e9b 14000000 		.4byte	.LVL254
 15927 0e9f B4040000 		.4byte	.LFE22
 15928 0ea3 0400     		.2byte	0x4
 15929 0ea5 F3       		.byte	0xf3
 15930 0ea6 01       		.uleb128 0x1
 15931 0ea7 50       		.byte	0x50
 15932 0ea8 9F       		.byte	0x9f
 15933 0ea9 00000000 		.4byte	0
 15934 0ead 00000000 		.4byte	0
 15935              	.LLST91:
 15936 0eb1 00000000 		.4byte	.LVL253
 15937 0eb5 30000000 		.4byte	.LVL259
 15938 0eb9 0100     		.2byte	0x1
 15939 0ebb 51       		.byte	0x51
 15940 0ebc 30000000 		.4byte	.LVL259
 15941 0ec0 B4040000 		.4byte	.LFE22
 15942 0ec4 0400     		.2byte	0x4
 15943 0ec6 F3       		.byte	0xf3
 15944 0ec7 01       		.uleb128 0x1
 15945 0ec8 51       		.byte	0x51
 15946 0ec9 9F       		.byte	0x9f
 15947 0eca 00000000 		.4byte	0
 15948 0ece 00000000 		.4byte	0
 15949              	.LLST92:
 15950 0ed2 00000000 		.4byte	.LVL253
 15951 0ed6 1A000000 		.4byte	.LVL255
 15952 0eda 0100     		.2byte	0x1
 15953 0edc 52       		.byte	0x52
 15954 0edd 1A000000 		.4byte	.LVL255
 15955 0ee1 A4000000 		.4byte	.LVL270
 15956 0ee5 0100     		.2byte	0x1
 15957 0ee7 57       		.byte	0x57
 15958 0ee8 A4000000 		.4byte	.LVL270
 15959 0eec 76010000 		.4byte	.LVL313
 15960 0ef0 0100     		.2byte	0x1
 15961 0ef2 56       		.byte	0x56
 15962 0ef3 76010000 		.4byte	.LVL313
 15963 0ef7 C6010000 		.4byte	.LVL327
 15964 0efb 0100     		.2byte	0x1
ARM GAS  C:\Users\rdn\AppData\Local\Temp\cciiQw7C.s 			page 318


 15965 0efd 57       		.byte	0x57
 15966 0efe C6010000 		.4byte	.LVL327
 15967 0f02 CC010000 		.4byte	.LVL329
 15968 0f06 0100     		.2byte	0x1
 15969 0f08 53       		.byte	0x53
 15970 0f09 CC010000 		.4byte	.LVL329
 15971 0f0d 40020000 		.4byte	.LVL352
 15972 0f11 0100     		.2byte	0x1
 15973 0f13 56       		.byte	0x56
 15974 0f14 40020000 		.4byte	.LVL352
 15975 0f18 B4040000 		.4byte	.LFE22
 15976 0f1c 0400     		.2byte	0x4
 15977 0f1e F3       		.byte	0xf3
 15978 0f1f 01       		.uleb128 0x1
 15979 0f20 52       		.byte	0x52
 15980 0f21 9F       		.byte	0x9f
 15981 0f22 00000000 		.4byte	0
 15982 0f26 00000000 		.4byte	0
 15983              	.LLST93:
 15984 0f2a 00000000 		.4byte	.LVL253
 15985 0f2e 24000000 		.4byte	.LVL257
 15986 0f32 0100     		.2byte	0x1
 15987 0f34 53       		.byte	0x53
 15988 0f35 24000000 		.4byte	.LVL257
 15989 0f39 9C000000 		.4byte	.LVL267
 15990 0f3d 0100     		.2byte	0x1
 15991 0f3f 58       		.byte	0x58
 15992 0f40 9C000000 		.4byte	.LVL267
 15993 0f44 B2010000 		.4byte	.LVL324
 15994 0f48 0400     		.2byte	0x4
 15995 0f4a F3       		.byte	0xf3
 15996 0f4b 01       		.uleb128 0x1
 15997 0f4c 53       		.byte	0x53
 15998 0f4d 9F       		.byte	0x9f
 15999 0f4e B2010000 		.4byte	.LVL324
 16000 0f52 B6010000 		.4byte	.LVL325
 16001 0f56 0100     		.2byte	0x1
 16002 0f58 58       		.byte	0x58
 16003 0f59 B6010000 		.4byte	.LVL325
 16004 0f5d B4040000 		.4byte	.LFE22
 16005 0f61 0400     		.2byte	0x4
 16006 0f63 F3       		.byte	0xf3
 16007 0f64 01       		.uleb128 0x1
 16008 0f65 53       		.byte	0x53
 16009 0f66 9F       		.byte	0x9f
 16010 0f67 00000000 		.4byte	0
 16011 0f6b 00000000 		.4byte	0
 16012              	.LLST94:
 16013 0f6f 36000000 		.4byte	.LVL260
 16014 0f73 A2000000 		.4byte	.LVL269
 16015 0f77 0100     		.2byte	0x1
 16016 0f79 56       		.byte	0x56
 16017 0f7a A2000000 		.4byte	.LVL269
 16018 0f7e 78010000 		.4byte	.LVL314
 16019 0f82 0100     		.2byte	0x1
 16020 0f84 5B       		.byte	0x5b
 16021 0f85 78010000 		.4byte	.LVL314
ARM GAS  C:\Users\rdn\AppData\Local\Temp\cciiQw7C.s 			page 319


 16022 0f89 CA010000 		.4byte	.LVL328
 16023 0f8d 0100     		.2byte	0x1
 16024 0f8f 56       		.byte	0x56
 16025 0f90 CA010000 		.4byte	.LVL328
 16026 0f94 6A020000 		.4byte	.LVL361
 16027 0f98 0100     		.2byte	0x1
 16028 0f9a 55       		.byte	0x55
 16029 0f9b 6A020000 		.4byte	.LVL361
 16030 0f9f E0020000 		.4byte	.LVL380
 16031 0fa3 0100     		.2byte	0x1
 16032 0fa5 56       		.byte	0x56
 16033 0fa6 E0020000 		.4byte	.LVL380
 16034 0faa E2020000 		.4byte	.LVL381
 16035 0fae 0100     		.2byte	0x1
 16036 0fb0 55       		.byte	0x55
 16037 0fb1 E2020000 		.4byte	.LVL381
 16038 0fb5 76030000 		.4byte	.LVL402
 16039 0fb9 0100     		.2byte	0x1
 16040 0fbb 56       		.byte	0x56
 16041 0fbc 00000000 		.4byte	0
 16042 0fc0 00000000 		.4byte	0
 16043              	.LLST95:
 16044 0fc4 36000000 		.4byte	.LVL260
 16045 0fc8 78000000 		.4byte	.LVL263
 16046 0fcc 0200     		.2byte	0x2
 16047 0fce 30       		.byte	0x30
 16048 0fcf 9F       		.byte	0x9f
 16049 0fd0 78000000 		.4byte	.LVL263
 16050 0fd4 8E000000 		.4byte	.LVL265
 16051 0fd8 0100     		.2byte	0x1
 16052 0fda 50       		.byte	0x50
 16053 0fdb 8E000000 		.4byte	.LVL265
 16054 0fdf 9E000000 		.4byte	.LVL268
 16055 0fe3 0100     		.2byte	0x1
 16056 0fe5 5A       		.byte	0x5a
 16057 0fe6 9E000000 		.4byte	.LVL268
 16058 0fea B0010000 		.4byte	.LVL323
 16059 0fee 0100     		.2byte	0x1
 16060 0ff0 58       		.byte	0x58
 16061 0ff1 B0010000 		.4byte	.LVL323
 16062 0ff5 B2010000 		.4byte	.LVL324
 16063 0ff9 0100     		.2byte	0x1
 16064 0ffb 5A       		.byte	0x5a
 16065 0ffc B2010000 		.4byte	.LVL324
 16066 1000 BA010000 		.4byte	.LVL326
 16067 1004 0200     		.2byte	0x2
 16068 1006 30       		.byte	0x30
 16069 1007 9F       		.byte	0x9f
 16070 1008 BA010000 		.4byte	.LVL326
 16071 100c E0020000 		.4byte	.LVL380
 16072 1010 0100     		.2byte	0x1
 16073 1012 5A       		.byte	0x5a
 16074 1013 E0020000 		.4byte	.LVL380
 16075 1017 72030000 		.4byte	.LVL401
 16076 101b 0100     		.2byte	0x1
 16077 101d 59       		.byte	0x59
 16078 101e 72030000 		.4byte	.LVL401
ARM GAS  C:\Users\rdn\AppData\Local\Temp\cciiQw7C.s 			page 320


 16079 1022 76030000 		.4byte	.LVL402
 16080 1026 0100     		.2byte	0x1
 16081 1028 5A       		.byte	0x5a
 16082 1029 00000000 		.4byte	0
 16083 102d 00000000 		.4byte	0
 16084              	.LLST96:
 16085 1031 36000000 		.4byte	.LVL260
 16086 1035 B0010000 		.4byte	.LVL323
 16087 1039 0600     		.2byte	0x6
 16088 103b 9E       		.byte	0x9e
 16089 103c 04       		.uleb128 0x4
 16090 103d 00000000 		.4byte	0
 16091 1041 B0010000 		.4byte	.LVL323
 16092 1045 B2010000 		.4byte	.LVL324
 16093 1049 0100     		.2byte	0x1
 16094 104b 50       		.byte	0x50
 16095 104c B2010000 		.4byte	.LVL324
 16096 1050 BA010000 		.4byte	.LVL326
 16097 1054 0600     		.2byte	0x6
 16098 1056 9E       		.byte	0x9e
 16099 1057 04       		.uleb128 0x4
 16100 1058 00000000 		.4byte	0
 16101 105c BA010000 		.4byte	.LVL326
 16102 1060 60030000 		.4byte	.LVL397
 16103 1064 0100     		.2byte	0x1
 16104 1066 58       		.byte	0x58
 16105 1067 00000000 		.4byte	0
 16106 106b 00000000 		.4byte	0
 16107              	.LLST97:
 16108 106f BA010000 		.4byte	.LVL326
 16109 1073 CC010000 		.4byte	.LVL329
 16110 1077 0600     		.2byte	0x6
 16111 1079 9E       		.byte	0x9e
 16112 107a 04       		.uleb128 0x4
 16113 107b 00000000 		.4byte	0
 16114 107f CC010000 		.4byte	.LVL329
 16115 1083 06020000 		.4byte	.LVL342
 16116 1087 0300     		.2byte	0x3
 16117 1089 91       		.byte	0x91
 16118 108a E477     		.sleb128 -1052
 16119 108c 06020000 		.4byte	.LVL342
 16120 1090 0B020000 		.4byte	.LVL343-1
 16121 1094 0100     		.2byte	0x1
 16122 1096 50       		.byte	0x50
 16123 1097 0C020000 		.4byte	.LVL343
 16124 109b 11020000 		.4byte	.LVL344-1
 16125 109f 0100     		.2byte	0x1
 16126 10a1 50       		.byte	0x50
 16127 10a2 12020000 		.4byte	.LVL344
 16128 10a6 17020000 		.4byte	.LVL345-1
 16129 10aa 0100     		.2byte	0x1
 16130 10ac 50       		.byte	0x50
 16131 10ad 1A020000 		.4byte	.LVL346
 16132 10b1 1E020000 		.4byte	.LVL347
 16133 10b5 0100     		.2byte	0x1
 16134 10b7 50       		.byte	0x50
 16135 10b8 1E020000 		.4byte	.LVL347
ARM GAS  C:\Users\rdn\AppData\Local\Temp\cciiQw7C.s 			page 321


 16136 10bc B4040000 		.4byte	.LFE22
 16137 10c0 0300     		.2byte	0x3
 16138 10c2 91       		.byte	0x91
 16139 10c3 E477     		.sleb128 -1052
 16140 10c5 00000000 		.4byte	0
 16141 10c9 00000000 		.4byte	0
 16142              	.LLST98:
 16143 10cd 48020000 		.4byte	.LVL354
 16144 10d1 6E020000 		.4byte	.LVL362
 16145 10d5 0100     		.2byte	0x1
 16146 10d7 50       		.byte	0x50
 16147 10d8 6E020000 		.4byte	.LVL362
 16148 10dc E0020000 		.4byte	.LVL380
 16149 10e0 0300     		.2byte	0x3
 16150 10e2 91       		.byte	0x91
 16151 10e3 DC77     		.sleb128 -1060
 16152 10e5 E0020000 		.4byte	.LVL380
 16153 10e9 E2020000 		.4byte	.LVL381
 16154 10ed 0100     		.2byte	0x1
 16155 10ef 50       		.byte	0x50
 16156 10f0 E2020000 		.4byte	.LVL381
 16157 10f4 B4040000 		.4byte	.LFE22
 16158 10f8 0300     		.2byte	0x3
 16159 10fa 91       		.byte	0x91
 16160 10fb DC77     		.sleb128 -1060
 16161 10fd 00000000 		.4byte	0
 16162 1101 00000000 		.4byte	0
 16163              	.LLST99:
 16164 1105 E2020000 		.4byte	.LVL381
 16165 1109 76030000 		.4byte	.LVL402
 16166 110d 0100     		.2byte	0x1
 16167 110f 54       		.byte	0x54
 16168 1110 00000000 		.4byte	0
 16169 1114 00000000 		.4byte	0
 16170              	.LLST100:
 16171 1118 60030000 		.4byte	.LVL397
 16172 111c 76030000 		.4byte	.LVL402
 16173 1120 0100     		.2byte	0x1
 16174 1122 50       		.byte	0x50
 16175 1123 76030000 		.4byte	.LVL402
 16176 1127 10040000 		.4byte	.LVL419
 16177 112b 0100     		.2byte	0x1
 16178 112d 58       		.byte	0x58
 16179 112e 10040000 		.4byte	.LVL419
 16180 1132 18040000 		.4byte	.LVL423
 16181 1136 0100     		.2byte	0x1
 16182 1138 52       		.byte	0x52
 16183 1139 18040000 		.4byte	.LVL423
 16184 113d 90040000 		.4byte	.LVL436
 16185 1141 0100     		.2byte	0x1
 16186 1143 58       		.byte	0x58
 16187 1144 00000000 		.4byte	0
 16188 1148 00000000 		.4byte	0
 16189              	.LLST101:
 16190 114c 6C030000 		.4byte	.LVL398
 16191 1150 6E030000 		.4byte	.LVL399
 16192 1154 0100     		.2byte	0x1
ARM GAS  C:\Users\rdn\AppData\Local\Temp\cciiQw7C.s 			page 322


 16193 1156 53       		.byte	0x53
 16194 1157 6E030000 		.4byte	.LVL399
 16195 115b 76030000 		.4byte	.LVL402
 16196 115f 0100     		.2byte	0x1
 16197 1161 5C       		.byte	0x5c
 16198 1162 76030000 		.4byte	.LVL402
 16199 1166 90040000 		.4byte	.LVL437
 16200 116a 0100     		.2byte	0x1
 16201 116c 59       		.byte	0x59
 16202 116d 90040000 		.4byte	.LVL437
 16203 1171 B4040000 		.4byte	.LFE22
 16204 1175 0100     		.2byte	0x1
 16205 1177 50       		.byte	0x50
 16206 1178 00000000 		.4byte	0
 16207 117c 00000000 		.4byte	0
 16208              	.LLST102:
 16209 1180 28040000 		.4byte	.LVL424
 16210 1184 90040000 		.4byte	.LVL434
 16211 1188 0100     		.2byte	0x1
 16212 118a 54       		.byte	0x54
 16213 118b 00000000 		.4byte	0
 16214 118f 00000000 		.4byte	0
 16215              	.LLST103:
 16216 1193 20000000 		.4byte	.LVL256
 16217 1197 2C000000 		.4byte	.LVL258
 16218 119b 0100     		.2byte	0x1
 16219 119d 51       		.byte	0x51
 16220 119e 00000000 		.4byte	0
 16221 11a2 00000000 		.4byte	0
 16222              	.LLST104:
 16223 11a6 20000000 		.4byte	.LVL256
 16224 11aa 2C000000 		.4byte	.LVL258
 16225 11ae 0100     		.2byte	0x1
 16226 11b0 55       		.byte	0x55
 16227 11b1 00000000 		.4byte	0
 16228 11b5 00000000 		.4byte	0
 16229              	.LLST105:
 16230 11b9 66000000 		.4byte	.LVL262
 16231 11bd 7A000000 		.4byte	.LVL264
 16232 11c1 0100     		.2byte	0x1
 16233 11c3 54       		.byte	0x54
 16234 11c4 7A000000 		.4byte	.LVL264
 16235 11c8 90000000 		.4byte	.LVL266
 16236 11cc 1300     		.2byte	0x13
 16237 11ce 75       		.byte	0x75
 16238 11cf 00       		.sleb128 0
 16239 11d0 31       		.byte	0x31
 16240 11d1 24       		.byte	0x24
 16241 11d2 91       		.byte	0x91
 16242 11d3 EC77     		.sleb128 -1044
 16243 11d5 06       		.byte	0x6
 16244 11d6 22       		.byte	0x22
 16245 11d7 35       		.byte	0x35
 16246 11d8 1C       		.byte	0x1c
 16247 11d9 32       		.byte	0x32
 16248 11da 24       		.byte	0x24
 16249 11db 91       		.byte	0x91
ARM GAS  C:\Users\rdn\AppData\Local\Temp\cciiQw7C.s 			page 323


 16250 11dc 00       		.sleb128 0
 16251 11dd 22       		.byte	0x22
 16252 11de 08       		.byte	0x8
 16253 11df 48       		.byte	0x48
 16254 11e0 1C       		.byte	0x1c
 16255 11e1 90000000 		.4byte	.LVL266
 16256 11e5 B2010000 		.4byte	.LVL324
 16257 11e9 1300     		.2byte	0x13
 16258 11eb 79       		.byte	0x79
 16259 11ec 7F       		.sleb128 -1
 16260 11ed 31       		.byte	0x31
 16261 11ee 24       		.byte	0x24
 16262 11ef 91       		.byte	0x91
 16263 11f0 EC77     		.sleb128 -1044
 16264 11f2 06       		.byte	0x6
 16265 11f3 22       		.byte	0x22
 16266 11f4 35       		.byte	0x35
 16267 11f5 1C       		.byte	0x1c
 16268 11f6 32       		.byte	0x32
 16269 11f7 24       		.byte	0x24
 16270 11f8 91       		.byte	0x91
 16271 11f9 00       		.sleb128 0
 16272 11fa 22       		.byte	0x22
 16273 11fb 08       		.byte	0x8
 16274 11fc 48       		.byte	0x48
 16275 11fd 1C       		.byte	0x1c
 16276 11fe 00000000 		.4byte	0
 16277 1202 00000000 		.4byte	0
 16278              	.LLST106:
 16279 1206 8E000000 		.4byte	.LVL265
 16280 120a A6000000 		.4byte	.LVL271
 16281 120e 0600     		.2byte	0x6
 16282 1210 9E       		.byte	0x9e
 16283 1211 04       		.uleb128 0x4
 16284 1212 ACC52737 		.4byte	0x3727c5ac
 16285 1216 A6000000 		.4byte	.LVL271
 16286 121a B8000000 		.4byte	.LVL273
 16287 121e 0300     		.2byte	0x3
 16288 1220 91       		.byte	0x91
 16289 1221 DC77     		.sleb128 -1060
 16290 1223 B8000000 		.4byte	.LVL273
 16291 1227 BE000000 		.4byte	.LVL274
 16292 122b 0100     		.2byte	0x1
 16293 122d 50       		.byte	0x50
 16294 122e BE000000 		.4byte	.LVL274
 16295 1232 E8000000 		.4byte	.LVL283
 16296 1236 0300     		.2byte	0x3
 16297 1238 91       		.byte	0x91
 16298 1239 E477     		.sleb128 -1052
 16299 123b E8000000 		.4byte	.LVL283
 16300 123f EE000000 		.4byte	.LVL284
 16301 1243 0100     		.2byte	0x1
 16302 1245 50       		.byte	0x50
 16303 1246 EE000000 		.4byte	.LVL284
 16304 124a 1A010000 		.4byte	.LVL293
 16305 124e 0300     		.2byte	0x3
 16306 1250 91       		.byte	0x91
ARM GAS  C:\Users\rdn\AppData\Local\Temp\cciiQw7C.s 			page 324


 16307 1251 E477     		.sleb128 -1052
 16308 1253 1A010000 		.4byte	.LVL293
 16309 1257 20010000 		.4byte	.LVL294
 16310 125b 0100     		.2byte	0x1
 16311 125d 50       		.byte	0x50
 16312 125e 20010000 		.4byte	.LVL294
 16313 1262 4C010000 		.4byte	.LVL303
 16314 1266 0300     		.2byte	0x3
 16315 1268 91       		.byte	0x91
 16316 1269 E077     		.sleb128 -1056
 16317 126b 4C010000 		.4byte	.LVL303
 16318 126f 54010000 		.4byte	.LVL304
 16319 1273 0100     		.2byte	0x1
 16320 1275 50       		.byte	0x50
 16321 1276 54010000 		.4byte	.LVL304
 16322 127a B2010000 		.4byte	.LVL324
 16323 127e 0300     		.2byte	0x3
 16324 1280 91       		.byte	0x91
 16325 1281 DC77     		.sleb128 -1060
 16326 1283 00000000 		.4byte	0
 16327 1287 00000000 		.4byte	0
 16328              	.LLST107:
 16329 128b 8E000000 		.4byte	.LVL265
 16330 128f A6000000 		.4byte	.LVL271
 16331 1293 0600     		.2byte	0x6
 16332 1295 9E       		.byte	0x9e
 16333 1296 04       		.uleb128 0x4
 16334 1297 ACC52737 		.4byte	0x3727c5ac
 16335 129b A6000000 		.4byte	.LVL271
 16336 129f D6000000 		.4byte	.LVL280
 16337 12a3 0300     		.2byte	0x3
 16338 12a5 91       		.byte	0x91
 16339 12a6 E077     		.sleb128 -1056
 16340 12a8 D6000000 		.4byte	.LVL280
 16341 12ac E2000000 		.4byte	.LVL281
 16342 12b0 0100     		.2byte	0x1
 16343 12b2 50       		.byte	0x50
 16344 12b3 E2000000 		.4byte	.LVL281
 16345 12b7 06010000 		.4byte	.LVL290
 16346 12bb 0300     		.2byte	0x3
 16347 12bd 91       		.byte	0x91
 16348 12be E077     		.sleb128 -1056
 16349 12c0 06010000 		.4byte	.LVL290
 16350 12c4 14010000 		.4byte	.LVL291
 16351 12c8 0100     		.2byte	0x1
 16352 12ca 50       		.byte	0x50
 16353 12cb 14010000 		.4byte	.LVL291
 16354 12cf 38010000 		.4byte	.LVL300
 16355 12d3 0300     		.2byte	0x3
 16356 12d5 91       		.byte	0x91
 16357 12d6 DC77     		.sleb128 -1060
 16358 12d8 38010000 		.4byte	.LVL300
 16359 12dc 46010000 		.4byte	.LVL301
 16360 12e0 0100     		.2byte	0x1
 16361 12e2 50       		.byte	0x50
 16362 12e3 46010000 		.4byte	.LVL301
 16363 12e7 6C010000 		.4byte	.LVL310
ARM GAS  C:\Users\rdn\AppData\Local\Temp\cciiQw7C.s 			page 325


 16364 12eb 0300     		.2byte	0x3
 16365 12ed 91       		.byte	0x91
 16366 12ee E877     		.sleb128 -1048
 16367 12f0 6C010000 		.4byte	.LVL310
 16368 12f4 6E010000 		.4byte	.LVL311
 16369 12f8 0100     		.2byte	0x1
 16370 12fa 50       		.byte	0x50
 16371 12fb 6E010000 		.4byte	.LVL311
 16372 12ff B2010000 		.4byte	.LVL324
 16373 1303 0300     		.2byte	0x3
 16374 1305 91       		.byte	0x91
 16375 1306 E077     		.sleb128 -1056
 16376 1308 00000000 		.4byte	0
 16377 130c 00000000 		.4byte	0
 16378              	.LLST108:
 16379 1310 8E000000 		.4byte	.LVL265
 16380 1314 A6000000 		.4byte	.LVL271
 16381 1318 0600     		.2byte	0x6
 16382 131a 9E       		.byte	0x9e
 16383 131b 04       		.uleb128 0x4
 16384 131c 00000000 		.4byte	0
 16385 1320 A6000000 		.4byte	.LVL271
 16386 1324 C4000000 		.4byte	.LVL276
 16387 1328 0300     		.2byte	0x3
 16388 132a 91       		.byte	0x91
 16389 132b D877     		.sleb128 -1064
 16390 132d C4000000 		.4byte	.LVL276
 16391 1331 C8000000 		.4byte	.LVL277
 16392 1335 0100     		.2byte	0x1
 16393 1337 50       		.byte	0x50
 16394 1338 C8000000 		.4byte	.LVL277
 16395 133c F4000000 		.4byte	.LVL286
 16396 1340 0300     		.2byte	0x3
 16397 1342 91       		.byte	0x91
 16398 1343 DC77     		.sleb128 -1060
 16399 1345 F4000000 		.4byte	.LVL286
 16400 1349 F8000000 		.4byte	.LVL287
 16401 134d 0100     		.2byte	0x1
 16402 134f 50       		.byte	0x50
 16403 1350 F8000000 		.4byte	.LVL287
 16404 1354 26010000 		.4byte	.LVL296
 16405 1358 0300     		.2byte	0x3
 16406 135a 91       		.byte	0x91
 16407 135b D877     		.sleb128 -1064
 16408 135d 26010000 		.4byte	.LVL296
 16409 1361 2A010000 		.4byte	.LVL297
 16410 1365 0100     		.2byte	0x1
 16411 1367 50       		.byte	0x50
 16412 1368 2A010000 		.4byte	.LVL297
 16413 136c 5A010000 		.4byte	.LVL306
 16414 1370 0300     		.2byte	0x3
 16415 1372 91       		.byte	0x91
 16416 1373 E477     		.sleb128 -1052
 16417 1375 5A010000 		.4byte	.LVL306
 16418 1379 5E010000 		.4byte	.LVL307
 16419 137d 0100     		.2byte	0x1
 16420 137f 50       		.byte	0x50
ARM GAS  C:\Users\rdn\AppData\Local\Temp\cciiQw7C.s 			page 326


 16421 1380 5E010000 		.4byte	.LVL307
 16422 1384 B2010000 		.4byte	.LVL324
 16423 1388 0300     		.2byte	0x3
 16424 138a 91       		.byte	0x91
 16425 138b D877     		.sleb128 -1064
 16426 138d 00000000 		.4byte	0
 16427 1391 00000000 		.4byte	0
 16428              	.LLST109:
 16429 1395 A0010000 		.4byte	.LVL320
 16430 1399 A6010000 		.4byte	.LVL321
 16431 139d 0100     		.2byte	0x1
 16432 139f 50       		.byte	0x50
 16433 13a0 00000000 		.4byte	0
 16434 13a4 00000000 		.4byte	0
 16435              	.LLST110:
 16436 13a8 8E000000 		.4byte	.LVL265
 16437 13ac A6000000 		.4byte	.LVL271
 16438 13b0 0200     		.2byte	0x2
 16439 13b2 30       		.byte	0x30
 16440 13b3 9F       		.byte	0x9f
 16441 13b4 A6000000 		.4byte	.LVL271
 16442 13b8 74010000 		.4byte	.LVL312
 16443 13bc 0100     		.2byte	0x1
 16444 13be 57       		.byte	0x57
 16445 13bf 00000000 		.4byte	0
 16446 13c3 00000000 		.4byte	0
 16447              	.LLST111:
 16448 13c7 BA010000 		.4byte	.LVL326
 16449 13cb CC010000 		.4byte	.LVL329
 16450 13cf 0200     		.2byte	0x2
 16451 13d1 30       		.byte	0x30
 16452 13d2 9F       		.byte	0x9f
 16453 13d3 CC010000 		.4byte	.LVL329
 16454 13d7 76020000 		.4byte	.LVL364
 16455 13db 0100     		.2byte	0x1
 16456 13dd 57       		.byte	0x57
 16457 13de E0020000 		.4byte	.LVL380
 16458 13e2 E2020000 		.4byte	.LVL381
 16459 13e6 0100     		.2byte	0x1
 16460 13e8 57       		.byte	0x57
 16461 13e9 00000000 		.4byte	0
 16462 13ed 00000000 		.4byte	0
 16463              	.LLST112:
 16464 13f1 D8010000 		.4byte	.LVL331
 16465 13f5 DC010000 		.4byte	.LVL332
 16466 13f9 0100     		.2byte	0x1
 16467 13fb 50       		.byte	0x50
 16468 13fc DC010000 		.4byte	.LVL332
 16469 1400 3A020000 		.4byte	.LVL351
 16470 1404 0300     		.2byte	0x3
 16471 1406 91       		.byte	0x91
 16472 1407 D877     		.sleb128 -1064
 16473 1409 00000000 		.4byte	0
 16474 140d 00000000 		.4byte	0
 16475              	.LLST113:
 16476 1411 E4010000 		.4byte	.LVL334
 16477 1415 EA010000 		.4byte	.LVL335
ARM GAS  C:\Users\rdn\AppData\Local\Temp\cciiQw7C.s 			page 327


 16478 1419 0100     		.2byte	0x1
 16479 141b 50       		.byte	0x50
 16480 141c EA010000 		.4byte	.LVL335
 16481 1420 3A020000 		.4byte	.LVL351
 16482 1424 0300     		.2byte	0x3
 16483 1426 91       		.byte	0x91
 16484 1427 DC77     		.sleb128 -1060
 16485 1429 00000000 		.4byte	0
 16486 142d 00000000 		.4byte	0
 16487              	.LLST114:
 16488 1431 F2010000 		.4byte	.LVL337
 16489 1435 F6010000 		.4byte	.LVL338
 16490 1439 0100     		.2byte	0x1
 16491 143b 50       		.byte	0x50
 16492 143c F6010000 		.4byte	.LVL338
 16493 1440 3A020000 		.4byte	.LVL351
 16494 1444 0300     		.2byte	0x3
 16495 1446 91       		.byte	0x91
 16496 1447 E077     		.sleb128 -1056
 16497 1449 00000000 		.4byte	0
 16498 144d 00000000 		.4byte	0
 16499              	.LLST115:
 16500 1451 FE010000 		.4byte	.LVL340
 16501 1455 02020000 		.4byte	.LVL341
 16502 1459 0100     		.2byte	0x1
 16503 145b 50       		.byte	0x50
 16504 145c 02020000 		.4byte	.LVL341
 16505 1460 3A020000 		.4byte	.LVL351
 16506 1464 0100     		.2byte	0x1
 16507 1466 54       		.byte	0x54
 16508 1467 00000000 		.4byte	0
 16509 146b 00000000 		.4byte	0
 16510              	.LLST116:
 16511 146f 52020000 		.4byte	.LVL355
 16512 1473 5E020000 		.4byte	.LVL357
 16513 1477 0100     		.2byte	0x1
 16514 1479 54       		.byte	0x54
 16515 147a 5E020000 		.4byte	.LVL357
 16516 147e 62020000 		.4byte	.LVL359
 16517 1482 0400     		.2byte	0x4
 16518 1484 7A       		.byte	0x7a
 16519 1485 00       		.sleb128 0
 16520 1486 1F       		.byte	0x1f
 16521 1487 9F       		.byte	0x9f
 16522 1488 00000000 		.4byte	0
 16523 148c 00000000 		.4byte	0
 16524              	.LLST117:
 16525 1490 52020000 		.4byte	.LVL355
 16526 1494 62020000 		.4byte	.LVL359
 16527 1498 0100     		.2byte	0x1
 16528 149a 50       		.byte	0x50
 16529 149b 00000000 		.4byte	0
 16530 149f 00000000 		.4byte	0
 16531              	.LLST118:
 16532 14a3 60020000 		.4byte	.LVL358
 16533 14a7 64020000 		.4byte	.LVL360
 16534 14ab 0100     		.2byte	0x1
ARM GAS  C:\Users\rdn\AppData\Local\Temp\cciiQw7C.s 			page 328


 16535 14ad 53       		.byte	0x53
 16536 14ae 00000000 		.4byte	0
 16537 14b2 00000000 		.4byte	0
 16538              	.LLST119:
 16539 14b6 6A020000 		.4byte	.LVL361
 16540 14ba 71020000 		.4byte	.LVL363-1
 16541 14be 0100     		.2byte	0x1
 16542 14c0 53       		.byte	0x53
 16543 14c1 88020000 		.4byte	.LVL367
 16544 14c5 8D020000 		.4byte	.LVL368-1
 16545 14c9 0100     		.2byte	0x1
 16546 14cb 50       		.byte	0x50
 16547 14cc 8D020000 		.4byte	.LVL368-1
 16548 14d0 D6020000 		.4byte	.LVL378
 16549 14d4 0100     		.2byte	0x1
 16550 14d6 55       		.byte	0x55
 16551 14d7 00000000 		.4byte	0
 16552 14db 00000000 		.4byte	0
 16553              	.LLST120:
 16554 14df 76020000 		.4byte	.LVL364
 16555 14e3 D2020000 		.4byte	.LVL377
 16556 14e7 0100     		.2byte	0x1
 16557 14e9 57       		.byte	0x57
 16558 14ea 00000000 		.4byte	0
 16559 14ee 00000000 		.4byte	0
 16560              	.LLST121:
 16561 14f2 E2020000 		.4byte	.LVL381
 16562 14f6 E6020000 		.4byte	.LVL382
 16563 14fa 0200     		.2byte	0x2
 16564 14fc 30       		.byte	0x30
 16565 14fd 9F       		.byte	0x9f
 16566 14fe E6020000 		.4byte	.LVL382
 16567 1502 76030000 		.4byte	.LVL402
 16568 1506 0100     		.2byte	0x1
 16569 1508 55       		.byte	0x55
 16570 1509 00000000 		.4byte	0
 16571 150d 00000000 		.4byte	0
 16572              	.LLST122:
 16573 1511 00030000 		.4byte	.LVL384
 16574 1515 05030000 		.4byte	.LVL385-1
 16575 1519 0100     		.2byte	0x1
 16576 151b 50       		.byte	0x50
 16577 151c 00000000 		.4byte	0
 16578 1520 00000000 		.4byte	0
 16579              	.LLST123:
 16580 1524 0A030000 		.4byte	.LVL386
 16581 1528 1A030000 		.4byte	.LVL389
 16582 152c 0100     		.2byte	0x1
 16583 152e 51       		.byte	0x51
 16584 152f 00000000 		.4byte	0
 16585 1533 00000000 		.4byte	0
 16586              	.LLST124:
 16587 1537 10030000 		.4byte	.LVL387
 16588 153b 1C030000 		.4byte	.LVL390
 16589 153f 0100     		.2byte	0x1
 16590 1541 53       		.byte	0x53
 16591 1542 00000000 		.4byte	0
ARM GAS  C:\Users\rdn\AppData\Local\Temp\cciiQw7C.s 			page 329


 16592 1546 00000000 		.4byte	0
 16593              	.LLST125:
 16594 154a 16030000 		.4byte	.LVL388
 16595 154e 30030000 		.4byte	.LVL391
 16596 1552 0100     		.2byte	0x1
 16597 1554 50       		.byte	0x50
 16598 1555 00000000 		.4byte	0
 16599 1559 00000000 		.4byte	0
 16600              	.LLST126:
 16601 155d 6C030000 		.4byte	.LVL398
 16602 1561 76030000 		.4byte	.LVL402
 16603 1565 0300     		.2byte	0x3
 16604 1567 08       		.byte	0x8
 16605 1568 80       		.byte	0x80
 16606 1569 9F       		.byte	0x9f
 16607 156a 76030000 		.4byte	.LVL402
 16608 156e 32040000 		.4byte	.LVL426
 16609 1572 0100     		.2byte	0x1
 16610 1574 57       		.byte	0x57
 16611 1575 00000000 		.4byte	0
 16612 1579 00000000 		.4byte	0
 16613              	.LLST127:
 16614 157d 7E030000 		.4byte	.LVL403
 16615 1581 82030000 		.4byte	.LVL404
 16616 1585 0300     		.2byte	0x3
 16617 1587 91       		.byte	0x91
 16618 1588 D877     		.sleb128 -1064
 16619 158a 82030000 		.4byte	.LVL404
 16620 158e 98030000 		.4byte	.LVL406
 16621 1592 0100     		.2byte	0x1
 16622 1594 50       		.byte	0x50
 16623 1595 98030000 		.4byte	.LVL406
 16624 1599 FE030000 		.4byte	.LVL416
 16625 159d 0100     		.2byte	0x1
 16626 159f 52       		.byte	0x52
 16627 15a0 FE030000 		.4byte	.LVL416
 16628 15a4 02040000 		.4byte	.LVL417
 16629 15a8 0100     		.2byte	0x1
 16630 15aa 50       		.byte	0x50
 16631 15ab 02040000 		.4byte	.LVL417
 16632 15af 0A040000 		.4byte	.LVL418
 16633 15b3 0100     		.2byte	0x1
 16634 15b5 52       		.byte	0x52
 16635 15b6 00000000 		.4byte	0
 16636 15ba 00000000 		.4byte	0
 16637              	.LLST128:
 16638 15be 70030000 		.4byte	.LVL400
 16639 15c2 76030000 		.4byte	.LVL402
 16640 15c6 0100     		.2byte	0x1
 16641 15c8 53       		.byte	0x53
 16642 15c9 76030000 		.4byte	.LVL402
 16643 15cd 12040000 		.4byte	.LVL420
 16644 15d1 0300     		.2byte	0x3
 16645 15d3 91       		.byte	0x91
 16646 15d4 D877     		.sleb128 -1064
 16647 15d6 14040000 		.4byte	.LVL421
 16648 15da B4040000 		.4byte	.LFE22
ARM GAS  C:\Users\rdn\AppData\Local\Temp\cciiQw7C.s 			page 330


 16649 15de 0300     		.2byte	0x3
 16650 15e0 91       		.byte	0x91
 16651 15e1 D877     		.sleb128 -1064
 16652 15e3 00000000 		.4byte	0
 16653 15e7 00000000 		.4byte	0
 16654              	.LLST129:
 16655 15eb 7E030000 		.4byte	.LVL403
 16656 15ef 18040000 		.4byte	.LVL423
 16657 15f3 0100     		.2byte	0x1
 16658 15f5 51       		.byte	0x51
 16659 15f6 00000000 		.4byte	0
 16660 15fa 00000000 		.4byte	0
 16661              	.LLST130:
 16662 15fe 7E030000 		.4byte	.LVL403
 16663 1602 98030000 		.4byte	.LVL406
 16664 1606 0200     		.2byte	0x2
 16665 1608 30       		.byte	0x30
 16666 1609 9F       		.byte	0x9f
 16667 160a 98030000 		.4byte	.LVL406
 16668 160e FE030000 		.4byte	.LVL416
 16669 1612 0100     		.2byte	0x1
 16670 1614 56       		.byte	0x56
 16671 1615 FE030000 		.4byte	.LVL416
 16672 1619 02040000 		.4byte	.LVL417
 16673 161d 0200     		.2byte	0x2
 16674 161f 30       		.byte	0x30
 16675 1620 9F       		.byte	0x9f
 16676 1621 02040000 		.4byte	.LVL417
 16677 1625 18040000 		.4byte	.LVL423
 16678 1629 0100     		.2byte	0x1
 16679 162b 56       		.byte	0x56
 16680 162c 00000000 		.4byte	0
 16681 1630 00000000 		.4byte	0
 16682              	.LLST131:
 16683 1634 A0030000 		.4byte	.LVL407
 16684 1638 B0030000 		.4byte	.LVL408
 16685 163c 0100     		.2byte	0x1
 16686 163e 53       		.byte	0x53
 16687 163f B0030000 		.4byte	.LVL408
 16688 1643 EC030000 		.4byte	.LVL409
 16689 1647 0500     		.2byte	0x5
 16690 1649 73       		.byte	0x73
 16691 164a 808064   		.sleb128 -458752
 16692 164d 9F       		.byte	0x9f
 16693 164e EC030000 		.4byte	.LVL409
 16694 1652 F2030000 		.4byte	.LVL410
 16695 1656 0100     		.2byte	0x1
 16696 1658 53       		.byte	0x53
 16697 1659 F2030000 		.4byte	.LVL410
 16698 165d F4030000 		.4byte	.LVL411
 16699 1661 0600     		.2byte	0x6
 16700 1663 73       		.byte	0x73
 16701 1664 8080C800 		.sleb128 1179648
 16702 1668 9F       		.byte	0x9f
 16703 1669 F4030000 		.4byte	.LVL411
 16704 166d F6030000 		.4byte	.LVL412
 16705 1671 1000     		.2byte	0x10
ARM GAS  C:\Users\rdn\AppData\Local\Temp\cciiQw7C.s 			page 331


 16706 1673 72       		.byte	0x72
 16707 1674 00       		.sleb128 0
 16708 1675 32       		.byte	0x32
 16709 1676 24       		.byte	0x24
 16710 1677 91       		.byte	0x91
 16711 1678 00       		.sleb128 0
 16712 1679 22       		.byte	0x22
 16713 167a 0A       		.byte	0xa
 16714 167b 0804     		.2byte	0x408
 16715 167d 1C       		.byte	0x1c
 16716 167e 06       		.byte	0x6
 16717 167f 71       		.byte	0x71
 16718 1680 00       		.sleb128 0
 16719 1681 1C       		.byte	0x1c
 16720 1682 9F       		.byte	0x9f
 16721 1683 F6030000 		.4byte	.LVL412
 16722 1687 F8030000 		.4byte	.LVL413
 16723 168b 0100     		.2byte	0x1
 16724 168d 53       		.byte	0x53
 16725 168e F8030000 		.4byte	.LVL413
 16726 1692 FC030000 		.4byte	.LVL415
 16727 1696 1000     		.2byte	0x10
 16728 1698 72       		.byte	0x72
 16729 1699 00       		.sleb128 0
 16730 169a 32       		.byte	0x32
 16731 169b 24       		.byte	0x24
 16732 169c 91       		.byte	0x91
 16733 169d 00       		.sleb128 0
 16734 169e 22       		.byte	0x22
 16735 169f 0A       		.byte	0xa
 16736 16a0 0804     		.2byte	0x408
 16737 16a2 1C       		.byte	0x1c
 16738 16a3 06       		.byte	0x6
 16739 16a4 71       		.byte	0x71
 16740 16a5 00       		.sleb128 0
 16741 16a6 1C       		.byte	0x1c
 16742 16a7 9F       		.byte	0x9f
 16743 16a8 FC030000 		.4byte	.LVL415
 16744 16ac FE030000 		.4byte	.LVL416
 16745 16b0 1000     		.2byte	0x10
 16746 16b2 72       		.byte	0x72
 16747 16b3 01       		.sleb128 1
 16748 16b4 32       		.byte	0x32
 16749 16b5 24       		.byte	0x24
 16750 16b6 91       		.byte	0x91
 16751 16b7 00       		.sleb128 0
 16752 16b8 22       		.byte	0x22
 16753 16b9 0A       		.byte	0xa
 16754 16ba 0804     		.2byte	0x408
 16755 16bc 1C       		.byte	0x1c
 16756 16bd 06       		.byte	0x6
 16757 16be 71       		.byte	0x71
 16758 16bf 00       		.sleb128 0
 16759 16c0 1C       		.byte	0x1c
 16760 16c1 9F       		.byte	0x9f
 16761 16c2 00000000 		.4byte	0
 16762 16c6 00000000 		.4byte	0
ARM GAS  C:\Users\rdn\AppData\Local\Temp\cciiQw7C.s 			page 332


 16763              	.LLST132:
 16764 16ca 2E040000 		.4byte	.LVL425
 16765 16ce 34040000 		.4byte	.LVL427
 16766 16d2 0300     		.2byte	0x3
 16767 16d4 08       		.byte	0x8
 16768 16d5 80       		.byte	0x80
 16769 16d6 9F       		.byte	0x9f
 16770 16d7 34040000 		.4byte	.LVL427
 16771 16db 90040000 		.4byte	.LVL435
 16772 16df 0100     		.2byte	0x1
 16773 16e1 55       		.byte	0x55
 16774 16e2 00000000 		.4byte	0
 16775 16e6 00000000 		.4byte	0
 16776              	.LLST133:
 16777 16ea 00000000 		.4byte	.LVL438
 16778 16ee 1B000000 		.4byte	.LVL442-1
 16779 16f2 0100     		.2byte	0x1
 16780 16f4 50       		.byte	0x50
 16781 16f5 1B000000 		.4byte	.LVL442-1
 16782 16f9 1E000000 		.4byte	.LFE36
 16783 16fd 0400     		.2byte	0x4
 16784 16ff F3       		.byte	0xf3
 16785 1700 01       		.uleb128 0x1
 16786 1701 50       		.byte	0x50
 16787 1702 9F       		.byte	0x9f
 16788 1703 00000000 		.4byte	0
 16789 1707 00000000 		.4byte	0
 16790              	.LLST134:
 16791 170b 00000000 		.4byte	.LVL438
 16792 170f 0C000000 		.4byte	.LVL440
 16793 1713 0100     		.2byte	0x1
 16794 1715 51       		.byte	0x51
 16795 1716 0C000000 		.4byte	.LVL440
 16796 171a 16000000 		.4byte	.LVL441
 16797 171e 0400     		.2byte	0x4
 16798 1720 F3       		.byte	0xf3
 16799 1721 01       		.uleb128 0x1
 16800 1722 51       		.byte	0x51
 16801 1723 9F       		.byte	0x9f
 16802 1724 16000000 		.4byte	.LVL441
 16803 1728 1B000000 		.4byte	.LVL442-1
 16804 172c 0100     		.2byte	0x1
 16805 172e 51       		.byte	0x51
 16806 172f 1B000000 		.4byte	.LVL442-1
 16807 1733 1E000000 		.4byte	.LFE36
 16808 1737 0400     		.2byte	0x4
 16809 1739 F3       		.byte	0xf3
 16810 173a 01       		.uleb128 0x1
 16811 173b 51       		.byte	0x51
 16812 173c 9F       		.byte	0x9f
 16813 173d 00000000 		.4byte	0
 16814 1741 00000000 		.4byte	0
 16815              	.LLST135:
 16816 1745 02000000 		.4byte	.LVL439
 16817 1749 1C000000 		.4byte	.LVL442
 16818 174d 0200     		.2byte	0x2
 16819 174f 33       		.byte	0x33
ARM GAS  C:\Users\rdn\AppData\Local\Temp\cciiQw7C.s 			page 333


 16820 1750 9F       		.byte	0x9f
 16821 1751 00000000 		.4byte	0
 16822 1755 00000000 		.4byte	0
 16823              	.LLST136:
 16824 1759 02000000 		.4byte	.LVL439
 16825 175d 0C000000 		.4byte	.LVL440
 16826 1761 0100     		.2byte	0x1
 16827 1763 51       		.byte	0x51
 16828 1764 0C000000 		.4byte	.LVL440
 16829 1768 16000000 		.4byte	.LVL441
 16830 176c 0400     		.2byte	0x4
 16831 176e F3       		.byte	0xf3
 16832 176f 01       		.uleb128 0x1
 16833 1770 51       		.byte	0x51
 16834 1771 9F       		.byte	0x9f
 16835 1772 16000000 		.4byte	.LVL441
 16836 1776 1B000000 		.4byte	.LVL442-1
 16837 177a 0100     		.2byte	0x1
 16838 177c 51       		.byte	0x51
 16839 177d 1B000000 		.4byte	.LVL442-1
 16840 1781 1C000000 		.4byte	.LVL442
 16841 1785 0400     		.2byte	0x4
 16842 1787 F3       		.byte	0xf3
 16843 1788 01       		.uleb128 0x1
 16844 1789 51       		.byte	0x51
 16845 178a 9F       		.byte	0x9f
 16846 178b 00000000 		.4byte	0
 16847 178f 00000000 		.4byte	0
 16848              	.LLST137:
 16849 1793 02000000 		.4byte	.LVL439
 16850 1797 1B000000 		.4byte	.LVL442-1
 16851 179b 0100     		.2byte	0x1
 16852 179d 50       		.byte	0x50
 16853 179e 1B000000 		.4byte	.LVL442-1
 16854 17a2 1C000000 		.4byte	.LVL442
 16855 17a6 0400     		.2byte	0x4
 16856 17a8 F3       		.byte	0xf3
 16857 17a9 01       		.uleb128 0x1
 16858 17aa 50       		.byte	0x50
 16859 17ab 9F       		.byte	0x9f
 16860 17ac 00000000 		.4byte	0
 16861 17b0 00000000 		.4byte	0
 16862              	.LLST138:
 16863 17b4 02000000 		.4byte	.LVL439
 16864 17b8 1B000000 		.4byte	.LVL442-1
 16865 17bc 0300     		.2byte	0x3
 16866 17be 70       		.byte	0x70
 16867 17bf 1C       		.sleb128 28
 16868 17c0 9F       		.byte	0x9f
 16869 17c1 1B000000 		.4byte	.LVL442-1
 16870 17c5 1E000000 		.4byte	.LFE36
 16871 17c9 0600     		.2byte	0x6
 16872 17cb F3       		.byte	0xf3
 16873 17cc 01       		.uleb128 0x1
 16874 17cd 50       		.byte	0x50
 16875 17ce 23       		.byte	0x23
 16876 17cf 1C       		.uleb128 0x1c
ARM GAS  C:\Users\rdn\AppData\Local\Temp\cciiQw7C.s 			page 334


 16877 17d0 9F       		.byte	0x9f
 16878 17d1 00000000 		.4byte	0
 16879 17d5 00000000 		.4byte	0
 16880              	.LLST139:
 16881 17d9 00000000 		.4byte	.LVL443
 16882 17dd 1D000000 		.4byte	.LVL447-1
 16883 17e1 0100     		.2byte	0x1
 16884 17e3 50       		.byte	0x50
 16885 17e4 1D000000 		.4byte	.LVL447-1
 16886 17e8 24000000 		.4byte	.LFE37
 16887 17ec 0400     		.2byte	0x4
 16888 17ee F3       		.byte	0xf3
 16889 17ef 01       		.uleb128 0x1
 16890 17f0 50       		.byte	0x50
 16891 17f1 9F       		.byte	0x9f
 16892 17f2 00000000 		.4byte	0
 16893 17f6 00000000 		.4byte	0
 16894              	.LLST140:
 16895 17fa 02000000 		.4byte	.LVL444
 16896 17fe 20000000 		.4byte	.LVL448
 16897 1802 0200     		.2byte	0x2
 16898 1804 33       		.byte	0x33
 16899 1805 9F       		.byte	0x9f
 16900 1806 00000000 		.4byte	0
 16901 180a 00000000 		.4byte	0
 16902              	.LLST141:
 16903 180e 02000000 		.4byte	.LVL444
 16904 1812 1D000000 		.4byte	.LVL447-1
 16905 1816 0100     		.2byte	0x1
 16906 1818 50       		.byte	0x50
 16907 1819 1D000000 		.4byte	.LVL447-1
 16908 181d 20000000 		.4byte	.LVL448
 16909 1821 0400     		.2byte	0x4
 16910 1823 F3       		.byte	0xf3
 16911 1824 01       		.uleb128 0x1
 16912 1825 50       		.byte	0x50
 16913 1826 9F       		.byte	0x9f
 16914 1827 00000000 		.4byte	0
 16915 182b 00000000 		.4byte	0
 16916              	.LLST142:
 16917 182f 02000000 		.4byte	.LVL444
 16918 1833 1D000000 		.4byte	.LVL447-1
 16919 1837 0300     		.2byte	0x3
 16920 1839 70       		.byte	0x70
 16921 183a 1C       		.sleb128 28
 16922 183b 9F       		.byte	0x9f
 16923 183c 1D000000 		.4byte	.LVL447-1
 16924 1840 24000000 		.4byte	.LFE37
 16925 1844 0600     		.2byte	0x6
 16926 1846 F3       		.byte	0xf3
 16927 1847 01       		.uleb128 0x1
 16928 1848 50       		.byte	0x50
 16929 1849 23       		.byte	0x23
 16930 184a 1C       		.uleb128 0x1c
 16931 184b 9F       		.byte	0x9f
 16932 184c 00000000 		.4byte	0
 16933 1850 00000000 		.4byte	0
ARM GAS  C:\Users\rdn\AppData\Local\Temp\cciiQw7C.s 			page 335


 16934              	.LLST143:
 16935 1854 14000000 		.4byte	.LVL445
 16936 1858 18000000 		.4byte	.LVL446
 16937 185c 0100     		.2byte	0x1
 16938 185e 53       		.byte	0x53
 16939 185f 00000000 		.4byte	0
 16940 1863 00000000 		.4byte	0
 16941              	.LLST144:
 16942 1867 00000000 		.4byte	.LVL449
 16943 186b 30000000 		.4byte	.LVL453
 16944 186f 0100     		.2byte	0x1
 16945 1871 50       		.byte	0x50
 16946 1872 30000000 		.4byte	.LVL453
 16947 1876 16010000 		.4byte	.LVL476
 16948 187a 0100     		.2byte	0x1
 16949 187c 59       		.byte	0x59
 16950 187d 16010000 		.4byte	.LVL476
 16951 1881 28010000 		.4byte	.LFE30
 16952 1885 0400     		.2byte	0x4
 16953 1887 F3       		.byte	0xf3
 16954 1888 01       		.uleb128 0x1
 16955 1889 50       		.byte	0x50
 16956 188a 9F       		.byte	0x9f
 16957 188b 00000000 		.4byte	0
 16958 188f 00000000 		.4byte	0
 16959              	.LLST145:
 16960 1893 00000000 		.4byte	.LVL449
 16961 1897 2C000000 		.4byte	.LVL452
 16962 189b 0100     		.2byte	0x1
 16963 189d 51       		.byte	0x51
 16964 189e 2C000000 		.4byte	.LVL452
 16965 18a2 3C000000 		.4byte	.LVL456
 16966 18a6 0100     		.2byte	0x1
 16967 18a8 58       		.byte	0x58
 16968 18a9 3C000000 		.4byte	.LVL456
 16969 18ad 4D000000 		.4byte	.LVL458-1
 16970 18b1 0100     		.2byte	0x1
 16971 18b3 53       		.byte	0x53
 16972 18b4 4D000000 		.4byte	.LVL458-1
 16973 18b8 E0000000 		.4byte	.LVL470
 16974 18bc 0100     		.2byte	0x1
 16975 18be 58       		.byte	0x58
 16976 18bf E0000000 		.4byte	.LVL470
 16977 18c3 E2000000 		.4byte	.LVL471
 16978 18c7 0100     		.2byte	0x1
 16979 18c9 53       		.byte	0x53
 16980 18ca E2000000 		.4byte	.LVL471
 16981 18ce 16010000 		.4byte	.LVL475
 16982 18d2 0100     		.2byte	0x1
 16983 18d4 58       		.byte	0x58
 16984 18d5 00000000 		.4byte	0
 16985 18d9 00000000 		.4byte	0
 16986              	.LLST146:
 16987 18dd 00000000 		.4byte	.LVL449
 16988 18e1 33000000 		.4byte	.LVL454-1
 16989 18e5 0100     		.2byte	0x1
 16990 18e7 52       		.byte	0x52
ARM GAS  C:\Users\rdn\AppData\Local\Temp\cciiQw7C.s 			page 336


 16991 18e8 33000000 		.4byte	.LVL454-1
 16992 18ec 28010000 		.4byte	.LFE30
 16993 18f0 0400     		.2byte	0x4
 16994 18f2 F3       		.byte	0xf3
 16995 18f3 01       		.uleb128 0x1
 16996 18f4 52       		.byte	0x52
 16997 18f5 9F       		.byte	0x9f
 16998 18f6 00000000 		.4byte	0
 16999 18fa 00000000 		.4byte	0
 17000              	.LLST147:
 17001 18fe 00000000 		.4byte	.LVL449
 17002 1902 18000000 		.4byte	.LVL450
 17003 1906 0100     		.2byte	0x1
 17004 1908 53       		.byte	0x53
 17005 1909 18000000 		.4byte	.LVL450
 17006 190d 16010000 		.4byte	.LVL477
 17007 1911 0100     		.2byte	0x1
 17008 1913 5B       		.byte	0x5b
 17009 1914 16010000 		.4byte	.LVL477
 17010 1918 28010000 		.4byte	.LFE30
 17011 191c 0400     		.2byte	0x4
 17012 191e F3       		.byte	0xf3
 17013 191f 01       		.uleb128 0x1
 17014 1920 53       		.byte	0x53
 17015 1921 9F       		.byte	0x9f
 17016 1922 00000000 		.4byte	0
 17017 1926 00000000 		.4byte	0
 17018              	.LLST148:
 17019 192a 36000000 		.4byte	.LVL455
 17020 192e 3C000000 		.4byte	.LVL456
 17021 1932 0100     		.2byte	0x1
 17022 1934 50       		.byte	0x50
 17023 1935 3C000000 		.4byte	.LVL456
 17024 1939 F6000000 		.4byte	.LVL473
 17025 193d 0200     		.2byte	0x2
 17026 193f 91       		.byte	0x91
 17027 1940 4C       		.sleb128 -52
 17028 1941 F6000000 		.4byte	.LVL473
 17029 1945 FC000000 		.4byte	.LVL474
 17030 1949 0100     		.2byte	0x1
 17031 194b 50       		.byte	0x50
 17032 194c FC000000 		.4byte	.LVL474
 17033 1950 28010000 		.4byte	.LFE30
 17034 1954 0200     		.2byte	0x2
 17035 1956 91       		.byte	0x91
 17036 1957 4C       		.sleb128 -52
 17037 1958 00000000 		.4byte	0
 17038 195c 00000000 		.4byte	0
 17039              	.LLST149:
 17040 1960 36000000 		.4byte	.LVL455
 17041 1964 3C000000 		.4byte	.LVL456
 17042 1968 0200     		.2byte	0x2
 17043 196a 30       		.byte	0x30
 17044 196b 9F       		.byte	0x9f
 17045 196c 3C000000 		.4byte	.LVL456
 17046 1970 28010000 		.4byte	.LFE30
 17047 1974 0200     		.2byte	0x2
ARM GAS  C:\Users\rdn\AppData\Local\Temp\cciiQw7C.s 			page 337


 17048 1976 91       		.byte	0x91
 17049 1977 50       		.sleb128 -48
 17050 1978 00000000 		.4byte	0
 17051 197c 00000000 		.4byte	0
 17052              	.LLST150:
 17053 1980 3C000000 		.4byte	.LVL456
 17054 1984 E0000000 		.4byte	.LVL470
 17055 1988 0100     		.2byte	0x1
 17056 198a 56       		.byte	0x56
 17057 198b E2000000 		.4byte	.LVL471
 17058 198f FC000000 		.4byte	.LVL474
 17059 1993 0100     		.2byte	0x1
 17060 1995 56       		.byte	0x56
 17061 1996 00000000 		.4byte	0
 17062 199a 00000000 		.4byte	0
 17063              	.LLST151:
 17064 199e 46000000 		.4byte	.LVL457
 17065 19a2 64000000 		.4byte	.LVL461
 17066 19a6 0100     		.2byte	0x1
 17067 19a8 55       		.byte	0x55
 17068 19a9 00000000 		.4byte	0
 17069 19ad 00000000 		.4byte	0
 17070              	.LLST152:
 17071 19b1 90000000 		.4byte	.LVL464
 17072 19b5 DC000000 		.4byte	.LVL468
 17073 19b9 0100     		.2byte	0x1
 17074 19bb 55       		.byte	0x55
 17075 19bc 00000000 		.4byte	0
 17076 19c0 00000000 		.4byte	0
 17077              	.LLST153:
 17078 19c4 90000000 		.4byte	.LVL464
 17079 19c8 B8000000 		.4byte	.LVL465
 17080 19cc 0100     		.2byte	0x1
 17081 19ce 55       		.byte	0x55
 17082 19cf 00000000 		.4byte	0
 17083 19d3 00000000 		.4byte	0
 17084              	.LLST154:
 17085 19d7 90000000 		.4byte	.LVL464
 17086 19db B8000000 		.4byte	.LVL465
 17087 19df 0100     		.2byte	0x1
 17088 19e1 59       		.byte	0x59
 17089 19e2 00000000 		.4byte	0
 17090 19e6 00000000 		.4byte	0
 17091              	.LLST155:
 17092 19ea 90000000 		.4byte	.LVL464
 17093 19ee B8000000 		.4byte	.LVL465
 17094 19f2 0200     		.2byte	0x2
 17095 19f4 31       		.byte	0x31
 17096 19f5 9F       		.byte	0x9f
 17097 19f6 00000000 		.4byte	0
 17098 19fa 00000000 		.4byte	0
 17099              	.LLST158:
 17100 19fe 90000000 		.4byte	.LVL464
 17101 1a02 DC000000 		.4byte	.LVL468
 17102 1a06 0300     		.2byte	0x3
 17103 1a08 79       		.byte	0x79
 17104 1a09 1C       		.sleb128 28
ARM GAS  C:\Users\rdn\AppData\Local\Temp\cciiQw7C.s 			page 338


 17105 1a0a 9F       		.byte	0x9f
 17106 1a0b 00000000 		.4byte	0
 17107 1a0f 00000000 		.4byte	0
 17108              	.LLST159:
 17109 1a13 00000000 		.4byte	.LVL478
 17110 1a17 44000000 		.4byte	.LVL481
 17111 1a1b 0100     		.2byte	0x1
 17112 1a1d 50       		.byte	0x50
 17113 1a1e 44000000 		.4byte	.LVL481
 17114 1a22 BE000000 		.4byte	.LVL493
 17115 1a26 0100     		.2byte	0x1
 17116 1a28 58       		.byte	0x58
 17117 1a29 BE000000 		.4byte	.LVL493
 17118 1a2d C8000000 		.4byte	.LVL494
 17119 1a31 0100     		.2byte	0x1
 17120 1a33 57       		.byte	0x57
 17121 1a34 C8000000 		.4byte	.LVL494
 17122 1a38 D8000000 		.4byte	.LVL495
 17123 1a3c 0100     		.2byte	0x1
 17124 1a3e 58       		.byte	0x58
 17125 1a3f D8000000 		.4byte	.LVL495
 17126 1a43 0C010000 		.4byte	.LVL503
 17127 1a47 0100     		.2byte	0x1
 17128 1a49 57       		.byte	0x57
 17129 1a4a 0C010000 		.4byte	.LVL503
 17130 1a4e 1C010000 		.4byte	.LFE31
 17131 1a52 0400     		.2byte	0x4
 17132 1a54 F3       		.byte	0xf3
 17133 1a55 01       		.uleb128 0x1
 17134 1a56 50       		.byte	0x50
 17135 1a57 9F       		.byte	0x9f
 17136 1a58 00000000 		.4byte	0
 17137 1a5c 00000000 		.4byte	0
 17138              	.LLST160:
 17139 1a60 00000000 		.4byte	.LVL478
 17140 1a64 44000000 		.4byte	.LVL481
 17141 1a68 0100     		.2byte	0x1
 17142 1a6a 51       		.byte	0x51
 17143 1a6b 44000000 		.4byte	.LVL481
 17144 1a6f 0C010000 		.4byte	.LVL502
 17145 1a73 0100     		.2byte	0x1
 17146 1a75 56       		.byte	0x56
 17147 1a76 00000000 		.4byte	0
 17148 1a7a 00000000 		.4byte	0
 17149              	.LLST161:
 17150 1a7e 00000000 		.4byte	.LVL478
 17151 1a82 44000000 		.4byte	.LVL481
 17152 1a86 0100     		.2byte	0x1
 17153 1a88 52       		.byte	0x52
 17154 1a89 44000000 		.4byte	.LVL481
 17155 1a8d 1C010000 		.4byte	.LFE31
 17156 1a91 0400     		.2byte	0x4
 17157 1a93 F3       		.byte	0xf3
 17158 1a94 01       		.uleb128 0x1
 17159 1a95 52       		.byte	0x52
 17160 1a96 9F       		.byte	0x9f
 17161 1a97 00000000 		.4byte	0
ARM GAS  C:\Users\rdn\AppData\Local\Temp\cciiQw7C.s 			page 339


 17162 1a9b 00000000 		.4byte	0
 17163              	.LLST162:
 17164 1a9f 00000000 		.4byte	.LVL478
 17165 1aa3 18000000 		.4byte	.LVL479
 17166 1aa7 0100     		.2byte	0x1
 17167 1aa9 53       		.byte	0x53
 17168 1aaa 18000000 		.4byte	.LVL479
 17169 1aae 0C010000 		.4byte	.LVL504
 17170 1ab2 0100     		.2byte	0x1
 17171 1ab4 59       		.byte	0x59
 17172 1ab5 0C010000 		.4byte	.LVL504
 17173 1ab9 1C010000 		.4byte	.LFE31
 17174 1abd 0400     		.2byte	0x4
 17175 1abf F3       		.byte	0xf3
 17176 1ac0 01       		.uleb128 0x1
 17177 1ac1 53       		.byte	0x53
 17178 1ac2 9F       		.byte	0x9f
 17179 1ac3 00000000 		.4byte	0
 17180 1ac7 00000000 		.4byte	0
 17181              	.LLST163:
 17182 1acb 00000000 		.4byte	.LVL478
 17183 1acf 44000000 		.4byte	.LVL481
 17184 1ad3 0200     		.2byte	0x2
 17185 1ad5 91       		.byte	0x91
 17186 1ad6 00       		.sleb128 0
 17187 1ad7 00000000 		.4byte	0
 17188 1adb 00000000 		.4byte	0
 17189              	.LLST164:
 17190 1adf 2A000000 		.4byte	.LVL480
 17191 1ae3 E4000000 		.4byte	.LVL497
 17192 1ae7 0200     		.2byte	0x2
 17193 1ae9 91       		.byte	0x91
 17194 1aea 4C       		.sleb128 -52
 17195 1aeb E4000000 		.4byte	.LVL497
 17196 1aef EA000000 		.4byte	.LVL498
 17197 1af3 0100     		.2byte	0x1
 17198 1af5 50       		.byte	0x50
 17199 1af6 EA000000 		.4byte	.LVL498
 17200 1afa 1C010000 		.4byte	.LFE31
 17201 1afe 0200     		.2byte	0x2
 17202 1b00 91       		.byte	0x91
 17203 1b01 4C       		.sleb128 -52
 17204 1b02 00000000 		.4byte	0
 17205 1b06 00000000 		.4byte	0
 17206              	.LLST165:
 17207 1b0a 44000000 		.4byte	.LVL481
 17208 1b0e F0000000 		.4byte	.LVL500
 17209 1b12 0200     		.2byte	0x2
 17210 1b14 91       		.byte	0x91
 17211 1b15 50       		.sleb128 -48
 17212 1b16 F0000000 		.4byte	.LVL500
 17213 1b1a F6000000 		.4byte	.LVL501
 17214 1b1e 0100     		.2byte	0x1
 17215 1b20 50       		.byte	0x50
 17216 1b21 F6000000 		.4byte	.LVL501
 17217 1b25 1C010000 		.4byte	.LFE31
 17218 1b29 0200     		.2byte	0x2
ARM GAS  C:\Users\rdn\AppData\Local\Temp\cciiQw7C.s 			page 340


 17219 1b2b 91       		.byte	0x91
 17220 1b2c 50       		.sleb128 -48
 17221 1b2d 00000000 		.4byte	0
 17222 1b31 00000000 		.4byte	0
 17223              	.LLST166:
 17224 1b35 44000000 		.4byte	.LVL481
 17225 1b39 0C010000 		.4byte	.LVL505
 17226 1b3d 0100     		.2byte	0x1
 17227 1b3f 5B       		.byte	0x5b
 17228 1b40 00000000 		.4byte	0
 17229 1b44 00000000 		.4byte	0
 17230              	.LLST167:
 17231 1b48 44000000 		.4byte	.LVL481
 17232 1b4c BE000000 		.4byte	.LVL493
 17233 1b50 0100     		.2byte	0x1
 17234 1b52 55       		.byte	0x55
 17235 1b53 C8000000 		.4byte	.LVL494
 17236 1b57 F6000000 		.4byte	.LVL501
 17237 1b5b 0100     		.2byte	0x1
 17238 1b5d 55       		.byte	0x55
 17239 1b5e 00000000 		.4byte	0
 17240 1b62 00000000 		.4byte	0
 17241              	.LLST168:
 17242 1b66 54000000 		.4byte	.LVL483
 17243 1b6a 76000000 		.4byte	.LVL486
 17244 1b6e 0100     		.2byte	0x1
 17245 1b70 58       		.byte	0x58
 17246 1b71 00000000 		.4byte	0
 17247 1b75 00000000 		.4byte	0
 17248              	.LLST169:
 17249 1b79 54000000 		.4byte	.LVL483
 17250 1b7d 76000000 		.4byte	.LVL486
 17251 1b81 0200     		.2byte	0x2
 17252 1b83 31       		.byte	0x31
 17253 1b84 9F       		.byte	0x9f
 17254 1b85 00000000 		.4byte	0
 17255 1b89 00000000 		.4byte	0
 17256              	.LLST171:
 17257 1b8d 54000000 		.4byte	.LVL483
 17258 1b91 BA000000 		.4byte	.LVL491
 17259 1b95 0300     		.2byte	0x3
 17260 1b97 78       		.byte	0x78
 17261 1b98 1C       		.sleb128 28
 17262 1b99 9F       		.byte	0x9f
 17263 1b9a 00000000 		.4byte	0
 17264 1b9e 00000000 		.4byte	0
 17265              	.LLST172:
 17266 1ba2 68000000 		.4byte	.LVL484
 17267 1ba6 6E000000 		.4byte	.LVL485
 17268 1baa 0100     		.2byte	0x1
 17269 1bac 50       		.byte	0x50
 17270 1bad 00000000 		.4byte	0
 17271 1bb1 00000000 		.4byte	0
 17272              	.LLST173:
 17273 1bb5 00000000 		.4byte	.LVL506
 17274 1bb9 22000000 		.4byte	.LVL510
 17275 1bbd 0100     		.2byte	0x1
ARM GAS  C:\Users\rdn\AppData\Local\Temp\cciiQw7C.s 			page 341


 17276 1bbf 50       		.byte	0x50
 17277 1bc0 22000000 		.4byte	.LVL510
 17278 1bc4 E2020000 		.4byte	.LVL603
 17279 1bc8 0100     		.2byte	0x1
 17280 1bca 57       		.byte	0x57
 17281 1bcb E2020000 		.4byte	.LVL603
 17282 1bcf 00030000 		.4byte	.LFE28
 17283 1bd3 0400     		.2byte	0x4
 17284 1bd5 F3       		.byte	0xf3
 17285 1bd6 01       		.uleb128 0x1
 17286 1bd7 50       		.byte	0x50
 17287 1bd8 9F       		.byte	0x9f
 17288 1bd9 00000000 		.4byte	0
 17289 1bdd 00000000 		.4byte	0
 17290              	.LLST174:
 17291 1be1 00000000 		.4byte	.LVL506
 17292 1be5 1A000000 		.4byte	.LVL508
 17293 1be9 0100     		.2byte	0x1
 17294 1beb 51       		.byte	0x51
 17295 1bec 1A000000 		.4byte	.LVL508
 17296 1bf0 00030000 		.4byte	.LFE28
 17297 1bf4 0400     		.2byte	0x4
 17298 1bf6 F3       		.byte	0xf3
 17299 1bf7 01       		.uleb128 0x1
 17300 1bf8 51       		.byte	0x51
 17301 1bf9 9F       		.byte	0x9f
 17302 1bfa 00000000 		.4byte	0
 17303 1bfe 00000000 		.4byte	0
 17304              	.LLST175:
 17305 1c02 00000000 		.4byte	.LVL506
 17306 1c06 18000000 		.4byte	.LVL507
 17307 1c0a 0100     		.2byte	0x1
 17308 1c0c 52       		.byte	0x52
 17309 1c0d 18000000 		.4byte	.LVL507
 17310 1c11 00030000 		.4byte	.LFE28
 17311 1c15 0400     		.2byte	0x4
 17312 1c17 F3       		.byte	0xf3
 17313 1c18 01       		.uleb128 0x1
 17314 1c19 52       		.byte	0x52
 17315 1c1a 9F       		.byte	0x9f
 17316 1c1b 00000000 		.4byte	0
 17317 1c1f 00000000 		.4byte	0
 17318              	.LLST176:
 17319 1c23 00000000 		.4byte	.LVL506
 17320 1c27 25000000 		.4byte	.LVL511-1
 17321 1c2b 0100     		.2byte	0x1
 17322 1c2d 53       		.byte	0x53
 17323 1c2e 25000000 		.4byte	.LVL511-1
 17324 1c32 00030000 		.4byte	.LFE28
 17325 1c36 0400     		.2byte	0x4
 17326 1c38 F3       		.byte	0xf3
 17327 1c39 01       		.uleb128 0x1
 17328 1c3a 53       		.byte	0x53
 17329 1c3b 9F       		.byte	0x9f
 17330 1c3c 00000000 		.4byte	0
 17331 1c40 00000000 		.4byte	0
 17332              	.LLST177:
ARM GAS  C:\Users\rdn\AppData\Local\Temp\cciiQw7C.s 			page 342


 17333 1c44 00000000 		.4byte	.LVL506
 17334 1c48 18000000 		.4byte	.LVL507
 17335 1c4c 0200     		.2byte	0x2
 17336 1c4e 91       		.byte	0x91
 17337 1c4f 08       		.sleb128 8
 17338 1c50 18000000 		.4byte	.LVL507
 17339 1c54 1E000000 		.4byte	.LVL509
 17340 1c58 0200     		.2byte	0x2
 17341 1c5a 72       		.byte	0x72
 17342 1c5b 00       		.sleb128 0
 17343 1c5c 1E000000 		.4byte	.LVL509
 17344 1c60 00030000 		.4byte	.LFE28
 17345 1c64 0200     		.2byte	0x2
 17346 1c66 91       		.byte	0x91
 17347 1c67 08       		.sleb128 8
 17348 1c68 00000000 		.4byte	0
 17349 1c6c 00000000 		.4byte	0
 17350              	.LLST178:
 17351 1c70 28000000 		.4byte	.LVL512
 17352 1c74 3E000000 		.4byte	.LVL515
 17353 1c78 0100     		.2byte	0x1
 17354 1c7a 50       		.byte	0x50
 17355 1c7b 3E000000 		.4byte	.LVL515
 17356 1c7f 00030000 		.4byte	.LFE28
 17357 1c83 0200     		.2byte	0x2
 17358 1c85 91       		.byte	0x91
 17359 1c86 54       		.sleb128 -44
 17360 1c87 00000000 		.4byte	0
 17361 1c8b 00000000 		.4byte	0
 17362              	.LLST179:
 17363 1c8f 34000000 		.4byte	.LVL514
 17364 1c93 3E000000 		.4byte	.LVL515
 17365 1c97 0200     		.2byte	0x2
 17366 1c99 30       		.byte	0x30
 17367 1c9a 9F       		.byte	0x9f
 17368 1c9b 3E000000 		.4byte	.LVL515
 17369 1c9f 00030000 		.4byte	.LFE28
 17370 1ca3 0300     		.2byte	0x3
 17371 1ca5 91       		.byte	0x91
 17372 1ca6 BC7F     		.sleb128 -68
 17373 1ca8 00000000 		.4byte	0
 17374 1cac 00000000 		.4byte	0
 17375              	.LLST180:
 17376 1cb0 28000000 		.4byte	.LVL512
 17377 1cb4 34000000 		.4byte	.LVL514
 17378 1cb8 0100     		.2byte	0x1
 17379 1cba 55       		.byte	0x55
 17380 1cbb 00000000 		.4byte	0
 17381 1cbf 00000000 		.4byte	0
 17382              	.LLST181:
 17383 1cc3 28000000 		.4byte	.LVL512
 17384 1cc7 30000000 		.4byte	.LVL513
 17385 1ccb 0100     		.2byte	0x1
 17386 1ccd 54       		.byte	0x54
 17387 1cce 00000000 		.4byte	0
 17388 1cd2 00000000 		.4byte	0
 17389              	.LLST182:
ARM GAS  C:\Users\rdn\AppData\Local\Temp\cciiQw7C.s 			page 343


 17390 1cd6 34000000 		.4byte	.LVL514
 17391 1cda 3E000000 		.4byte	.LVL515
 17392 1cde 0200     		.2byte	0x2
 17393 1ce0 30       		.byte	0x30
 17394 1ce1 9F       		.byte	0x9f
 17395 1ce2 3E000000 		.4byte	.LVL515
 17396 1ce6 E2020000 		.4byte	.LVL602
 17397 1cea 0200     		.2byte	0x2
 17398 1cec 7D       		.byte	0x7d
 17399 1ced 00       		.sleb128 0
 17400 1cee E2020000 		.4byte	.LVL602
 17401 1cf2 00030000 		.4byte	.LFE28
 17402 1cf6 0300     		.2byte	0x3
 17403 1cf8 91       		.byte	0x91
 17404 1cf9 B87F     		.sleb128 -72
 17405 1cfb 00000000 		.4byte	0
 17406 1cff 00000000 		.4byte	0
 17407              	.LLST183:
 17408 1d03 34000000 		.4byte	.LVL514
 17409 1d07 3E000000 		.4byte	.LVL515
 17410 1d0b 0200     		.2byte	0x2
 17411 1d0d 30       		.byte	0x30
 17412 1d0e 9F       		.byte	0x9f
 17413 1d0f 3E000000 		.4byte	.LVL515
 17414 1d13 40000000 		.4byte	.LVL516
 17415 1d17 0100     		.2byte	0x1
 17416 1d19 53       		.byte	0x53
 17417 1d1a 40000000 		.4byte	.LVL516
 17418 1d1e 00030000 		.4byte	.LFE28
 17419 1d22 0200     		.2byte	0x2
 17420 1d24 91       		.byte	0x91
 17421 1d25 40       		.sleb128 -64
 17422 1d26 00000000 		.4byte	0
 17423 1d2a 00000000 		.4byte	0
 17424              	.LLST184:
 17425 1d2e 50000000 		.4byte	.LVL517
 17426 1d32 52000000 		.4byte	.LVL518
 17427 1d36 0100     		.2byte	0x1
 17428 1d38 53       		.byte	0x53
 17429 1d39 52000000 		.4byte	.LVL518
 17430 1d3d D8020000 		.4byte	.LVL601
 17431 1d41 0200     		.2byte	0x2
 17432 1d43 91       		.byte	0x91
 17433 1d44 4C       		.sleb128 -52
 17434 1d45 00000000 		.4byte	0
 17435 1d49 00000000 		.4byte	0
 17436              	.LLST185:
 17437 1d4d 62000000 		.4byte	.LVL519
 17438 1d51 FC000000 		.4byte	.LVL538
 17439 1d55 0100     		.2byte	0x1
 17440 1d57 54       		.byte	0x54
 17441 1d58 FE000000 		.4byte	.LVL539
 17442 1d5c 00010000 		.4byte	.LVL540
 17443 1d60 0100     		.2byte	0x1
 17444 1d62 54       		.byte	0x54
 17445 1d63 02010000 		.4byte	.LVL541
 17446 1d67 04010000 		.4byte	.LVL542
ARM GAS  C:\Users\rdn\AppData\Local\Temp\cciiQw7C.s 			page 344


 17447 1d6b 0100     		.2byte	0x1
 17448 1d6d 54       		.byte	0x54
 17449 1d6e C2010000 		.4byte	.LVL573
 17450 1d72 C6010000 		.4byte	.LVL575
 17451 1d76 0100     		.2byte	0x1
 17452 1d78 54       		.byte	0x54
 17453 1d79 00000000 		.4byte	0
 17454 1d7d 00000000 		.4byte	0
 17455              	.LLST186:
 17456 1d81 80000000 		.4byte	.LVL522
 17457 1d85 96000000 		.4byte	.LVL523
 17458 1d89 0100     		.2byte	0x1
 17459 1d8b 50       		.byte	0x50
 17460 1d8c 96000000 		.4byte	.LVL523
 17461 1d90 0E010000 		.4byte	.LVL545
 17462 1d94 0100     		.2byte	0x1
 17463 1d96 58       		.byte	0x58
 17464 1d97 0E010000 		.4byte	.LVL545
 17465 1d9b AE010000 		.4byte	.LVL567
 17466 1d9f 0100     		.2byte	0x1
 17467 1da1 56       		.byte	0x56
 17468 1da2 AE010000 		.4byte	.LVL567
 17469 1da6 B6010000 		.4byte	.LVL569
 17470 1daa 0100     		.2byte	0x1
 17471 1dac 58       		.byte	0x58
 17472 1dad B6010000 		.4byte	.LVL569
 17473 1db1 C2010000 		.4byte	.LVL573
 17474 1db5 0100     		.2byte	0x1
 17475 1db7 52       		.byte	0x52
 17476 1db8 C2010000 		.4byte	.LVL573
 17477 1dbc CC010000 		.4byte	.LVL576
 17478 1dc0 0100     		.2byte	0x1
 17479 1dc2 58       		.byte	0x58
 17480 1dc3 CC010000 		.4byte	.LVL576
 17481 1dc7 CE010000 		.4byte	.LVL577
 17482 1dcb 0100     		.2byte	0x1
 17483 1dcd 53       		.byte	0x53
 17484 1dce CE010000 		.4byte	.LVL577
 17485 1dd2 46020000 		.4byte	.LVL584
 17486 1dd6 0100     		.2byte	0x1
 17487 1dd8 58       		.byte	0x58
 17488 1dd9 46020000 		.4byte	.LVL584
 17489 1ddd 4A020000 		.4byte	.LVL586
 17490 1de1 0100     		.2byte	0x1
 17491 1de3 53       		.byte	0x53
 17492 1de4 4A020000 		.4byte	.LVL586
 17493 1de8 B6020000 		.4byte	.LVL600
 17494 1dec 0100     		.2byte	0x1
 17495 1dee 58       		.byte	0x58
 17496 1def 00000000 		.4byte	0
 17497 1df3 00000000 		.4byte	0
 17498              	.LLST187:
 17499 1df7 A0000000 		.4byte	.LVL526
 17500 1dfb D4000000 		.4byte	.LVL533
 17501 1dff 0100     		.2byte	0x1
 17502 1e01 50       		.byte	0x50
 17503 1e02 D4000000 		.4byte	.LVL533
ARM GAS  C:\Users\rdn\AppData\Local\Temp\cciiQw7C.s 			page 345


 17504 1e06 FE000000 		.4byte	.LVL539
 17505 1e0a 0100     		.2byte	0x1
 17506 1e0c 56       		.byte	0x56
 17507 1e0d FE000000 		.4byte	.LVL539
 17508 1e11 02010000 		.4byte	.LVL541
 17509 1e15 0100     		.2byte	0x1
 17510 1e17 50       		.byte	0x50
 17511 1e18 02010000 		.4byte	.LVL541
 17512 1e1c 0C010000 		.4byte	.LVL544
 17513 1e20 0100     		.2byte	0x1
 17514 1e22 56       		.byte	0x56
 17515 1e23 0C010000 		.4byte	.LVL544
 17516 1e27 10010000 		.4byte	.LVL546
 17517 1e2b 0100     		.2byte	0x1
 17518 1e2d 53       		.byte	0x53
 17519 1e2e 10010000 		.4byte	.LVL546
 17520 1e32 AC010000 		.4byte	.LVL566
 17521 1e36 0100     		.2byte	0x1
 17522 1e38 58       		.byte	0x58
 17523 1e39 AC010000 		.4byte	.LVL566
 17524 1e3d B2010000 		.4byte	.LVL568
 17525 1e41 0100     		.2byte	0x1
 17526 1e43 53       		.byte	0x53
 17527 1e44 B2010000 		.4byte	.LVL568
 17528 1e48 C2010000 		.4byte	.LVL573
 17529 1e4c 0100     		.2byte	0x1
 17530 1e4e 56       		.byte	0x56
 17531 1e4f C2010000 		.4byte	.LVL573
 17532 1e53 C6010000 		.4byte	.LVL575
 17533 1e57 0100     		.2byte	0x1
 17534 1e59 50       		.byte	0x50
 17535 1e5a C6010000 		.4byte	.LVL575
 17536 1e5e A2020000 		.4byte	.LVL596
 17537 1e62 0100     		.2byte	0x1
 17538 1e64 56       		.byte	0x56
 17539 1e65 00000000 		.4byte	0
 17540 1e69 00000000 		.4byte	0
 17541              	.LLST188:
 17542 1e6d AA000000 		.4byte	.LVL527
 17543 1e71 B6020000 		.4byte	.LVL600
 17544 1e75 0100     		.2byte	0x1
 17545 1e77 5B       		.byte	0x5b
 17546 1e78 00000000 		.4byte	0
 17547 1e7c 00000000 		.4byte	0
 17548              	.LLST189:
 17549 1e80 B0000000 		.4byte	.LVL528
 17550 1e84 BA010000 		.4byte	.LVL571
 17551 1e88 0100     		.2byte	0x1
 17552 1e8a 55       		.byte	0x55
 17553 1e8b C2010000 		.4byte	.LVL573
 17554 1e8f C4010000 		.4byte	.LVL574
 17555 1e93 0100     		.2byte	0x1
 17556 1e95 55       		.byte	0x55
 17557 1e96 C4010000 		.4byte	.LVL574
 17558 1e9a C6010000 		.4byte	.LVL575
 17559 1e9e 0800     		.2byte	0x8
 17560 1ea0 78       		.byte	0x78
ARM GAS  C:\Users\rdn\AppData\Local\Temp\cciiQw7C.s 			page 346


 17561 1ea1 00       		.sleb128 0
 17562 1ea2 70       		.byte	0x70
 17563 1ea3 00       		.sleb128 0
 17564 1ea4 21       		.byte	0x21
 17565 1ea5 32       		.byte	0x32
 17566 1ea6 25       		.byte	0x25
 17567 1ea7 9F       		.byte	0x9f
 17568 1ea8 00000000 		.4byte	0
 17569 1eac 00000000 		.4byte	0
 17570              	.LLST190:
 17571 1eb0 B0000000 		.4byte	.LVL528
 17572 1eb4 BA000000 		.4byte	.LVL529
 17573 1eb8 0200     		.2byte	0x2
 17574 1eba 30       		.byte	0x30
 17575 1ebb 9F       		.byte	0x9f
 17576 1ebc BA000000 		.4byte	.LVL529
 17577 1ec0 FE000000 		.4byte	.LVL539
 17578 1ec4 0200     		.2byte	0x2
 17579 1ec6 31       		.byte	0x31
 17580 1ec7 9F       		.byte	0x9f
 17581 1ec8 FE000000 		.4byte	.LVL539
 17582 1ecc 02010000 		.4byte	.LVL541
 17583 1ed0 0200     		.2byte	0x2
 17584 1ed2 30       		.byte	0x30
 17585 1ed3 9F       		.byte	0x9f
 17586 1ed4 02010000 		.4byte	.LVL541
 17587 1ed8 04010000 		.4byte	.LVL542
 17588 1edc 0200     		.2byte	0x2
 17589 1ede 31       		.byte	0x31
 17590 1edf 9F       		.byte	0x9f
 17591 1ee0 04010000 		.4byte	.LVL542
 17592 1ee4 5E010000 		.4byte	.LVL555
 17593 1ee8 0100     		.2byte	0x1
 17594 1eea 54       		.byte	0x54
 17595 1eeb 5E010000 		.4byte	.LVL555
 17596 1eef 60010000 		.4byte	.LVL556
 17597 1ef3 0100     		.2byte	0x1
 17598 1ef5 53       		.byte	0x53
 17599 1ef6 60010000 		.4byte	.LVL556
 17600 1efa C0010000 		.4byte	.LVL572
 17601 1efe 0100     		.2byte	0x1
 17602 1f00 54       		.byte	0x54
 17603 1f01 C0010000 		.4byte	.LVL572
 17604 1f05 C2010000 		.4byte	.LVL573
 17605 1f09 0200     		.2byte	0x2
 17606 1f0b 33       		.byte	0x33
 17607 1f0c 9F       		.byte	0x9f
 17608 1f0d C2010000 		.4byte	.LVL573
 17609 1f11 C6010000 		.4byte	.LVL575
 17610 1f15 0200     		.2byte	0x2
 17611 1f17 30       		.byte	0x30
 17612 1f18 9F       		.byte	0x9f
 17613 1f19 C6010000 		.4byte	.LVL575
 17614 1f1d 9E020000 		.4byte	.LVL594
 17615 1f21 0100     		.2byte	0x1
 17616 1f23 54       		.byte	0x54
 17617 1f24 9E020000 		.4byte	.LVL594
ARM GAS  C:\Users\rdn\AppData\Local\Temp\cciiQw7C.s 			page 347


 17618 1f28 A0020000 		.4byte	.LVL595
 17619 1f2c 0300     		.2byte	0x3
 17620 1f2e 73       		.byte	0x73
 17621 1f2f 74       		.sleb128 -12
 17622 1f30 9F       		.byte	0x9f
 17623 1f31 A0020000 		.4byte	.LVL595
 17624 1f35 A4020000 		.4byte	.LVL597
 17625 1f39 0100     		.2byte	0x1
 17626 1f3b 54       		.byte	0x54
 17627 1f3c A4020000 		.4byte	.LVL597
 17628 1f40 AA020000 		.4byte	.LVL598
 17629 1f44 0300     		.2byte	0x3
 17630 1f46 74       		.byte	0x74
 17631 1f47 7F       		.sleb128 -1
 17632 1f48 9F       		.byte	0x9f
 17633 1f49 00000000 		.4byte	0
 17634 1f4d 00000000 		.4byte	0
 17635              	.LLST191:
 17636 1f51 B0000000 		.4byte	.LVL528
 17637 1f55 BA010000 		.4byte	.LVL571
 17638 1f59 0200     		.2byte	0x2
 17639 1f5b 30       		.byte	0x30
 17640 1f5c 9F       		.byte	0x9f
 17641 1f5d BA010000 		.4byte	.LVL571
 17642 1f61 C2010000 		.4byte	.LVL573
 17643 1f65 0100     		.2byte	0x1
 17644 1f67 55       		.byte	0x55
 17645 1f68 C2010000 		.4byte	.LVL573
 17646 1f6c C6010000 		.4byte	.LVL575
 17647 1f70 0200     		.2byte	0x2
 17648 1f72 30       		.byte	0x30
 17649 1f73 9F       		.byte	0x9f
 17650 1f74 C6010000 		.4byte	.LVL575
 17651 1f78 B6020000 		.4byte	.LVL600
 17652 1f7c 0100     		.2byte	0x1
 17653 1f7e 55       		.byte	0x55
 17654 1f7f 00000000 		.4byte	0
 17655 1f83 00000000 		.4byte	0
 17656              	.LLST192:
 17657 1f87 C8000000 		.4byte	.LVL530
 17658 1f8b FE000000 		.4byte	.LVL539
 17659 1f8f 0200     		.2byte	0x2
 17660 1f91 40       		.byte	0x40
 17661 1f92 9F       		.byte	0x9f
 17662 1f93 02010000 		.4byte	.LVL541
 17663 1f97 04010000 		.4byte	.LVL542
 17664 1f9b 0200     		.2byte	0x2
 17665 1f9d 40       		.byte	0x40
 17666 1f9e 9F       		.byte	0x9f
 17667 1f9f 00000000 		.4byte	0
 17668 1fa3 00000000 		.4byte	0
 17669              	.LLST193:
 17670 1fa7 C8000000 		.4byte	.LVL530
 17671 1fab CE000000 		.4byte	.LVL532
 17672 1faf 0100     		.2byte	0x1
 17673 1fb1 51       		.byte	0x51
 17674 1fb2 CE000000 		.4byte	.LVL532
ARM GAS  C:\Users\rdn\AppData\Local\Temp\cciiQw7C.s 			page 348


 17675 1fb6 DC000000 		.4byte	.LVL534
 17676 1fba 0300     		.2byte	0x3
 17677 1fbc 71       		.byte	0x71
 17678 1fbd 40       		.sleb128 -64
 17679 1fbe 9F       		.byte	0x9f
 17680 1fbf 00000000 		.4byte	0
 17681 1fc3 00000000 		.4byte	0
 17682              	.LLST194:
 17683 1fc7 C8000000 		.4byte	.LVL530
 17684 1fcb FE000000 		.4byte	.LVL539
 17685 1fcf 0100     		.2byte	0x1
 17686 1fd1 57       		.byte	0x57
 17687 1fd2 02010000 		.4byte	.LVL541
 17688 1fd6 04010000 		.4byte	.LVL542
 17689 1fda 0100     		.2byte	0x1
 17690 1fdc 57       		.byte	0x57
 17691 1fdd 00000000 		.4byte	0
 17692 1fe1 00000000 		.4byte	0
 17693              	.LLST196:
 17694 1fe5 C8000000 		.4byte	.LVL530
 17695 1fe9 FE000000 		.4byte	.LVL539
 17696 1fed 0300     		.2byte	0x3
 17697 1fef 77       		.byte	0x77
 17698 1ff0 04       		.sleb128 4
 17699 1ff1 9F       		.byte	0x9f
 17700 1ff2 02010000 		.4byte	.LVL541
 17701 1ff6 04010000 		.4byte	.LVL542
 17702 1ffa 0300     		.2byte	0x3
 17703 1ffc 77       		.byte	0x77
 17704 1ffd 04       		.sleb128 4
 17705 1ffe 9F       		.byte	0x9f
 17706 1fff 00000000 		.4byte	0
 17707 2003 00000000 		.4byte	0
 17708              	.LLST197:
 17709 2007 CC000000 		.4byte	.LVL531
 17710 200b DE000000 		.4byte	.LVL535
 17711 200f 0100     		.2byte	0x1
 17712 2011 52       		.byte	0x52
 17713 2012 DE000000 		.4byte	.LVL535
 17714 2016 E0000000 		.4byte	.LVL536
 17715 201a 0600     		.2byte	0x6
 17716 201c 77       		.byte	0x77
 17717 201d 08       		.sleb128 8
 17718 201e 06       		.byte	0x6
 17719 201f 3A       		.byte	0x3a
 17720 2020 25       		.byte	0x25
 17721 2021 9F       		.byte	0x9f
 17722 2022 00000000 		.4byte	0
 17723 2026 00000000 		.4byte	0
 17724              	.LLST198:
 17725 202a 18010000 		.4byte	.LVL547
 17726 202e 34010000 		.4byte	.LVL550
 17727 2032 0100     		.2byte	0x1
 17728 2034 57       		.byte	0x57
 17729 2035 00000000 		.4byte	0
 17730 2039 00000000 		.4byte	0
 17731              	.LLST199:
ARM GAS  C:\Users\rdn\AppData\Local\Temp\cciiQw7C.s 			page 349


 17732 203d 18010000 		.4byte	.LVL547
 17733 2041 34010000 		.4byte	.LVL550
 17734 2045 0200     		.2byte	0x2
 17735 2047 31       		.byte	0x31
 17736 2048 9F       		.byte	0x9f
 17737 2049 00000000 		.4byte	0
 17738 204d 00000000 		.4byte	0
 17739              	.LLST200:
 17740 2051 18010000 		.4byte	.LVL547
 17741 2055 22010000 		.4byte	.LVL548
 17742 2059 0100     		.2byte	0x1
 17743 205b 51       		.byte	0x51
 17744 205c 22010000 		.4byte	.LVL548
 17745 2060 2C010000 		.4byte	.LVL549
 17746 2064 0800     		.2byte	0x8
 17747 2066 76       		.byte	0x76
 17748 2067 00       		.sleb128 0
 17749 2068 74       		.byte	0x74
 17750 2069 00       		.sleb128 0
 17751 206a 25       		.byte	0x25
 17752 206b 31       		.byte	0x31
 17753 206c 1A       		.byte	0x1a
 17754 206d 9F       		.byte	0x9f
 17755 206e 2C010000 		.4byte	.LVL549
 17756 2072 33010000 		.4byte	.LVL550-1
 17757 2076 0100     		.2byte	0x1
 17758 2078 51       		.byte	0x51
 17759 2079 33010000 		.4byte	.LVL550-1
 17760 207d 34010000 		.4byte	.LVL550
 17761 2081 0800     		.2byte	0x8
 17762 2083 76       		.byte	0x76
 17763 2084 00       		.sleb128 0
 17764 2085 74       		.byte	0x74
 17765 2086 00       		.sleb128 0
 17766 2087 25       		.byte	0x25
 17767 2088 31       		.byte	0x31
 17768 2089 1A       		.byte	0x1a
 17769 208a 9F       		.byte	0x9f
 17770 208b 00000000 		.4byte	0
 17771 208f 00000000 		.4byte	0
 17772              	.LLST202:
 17773 2093 18010000 		.4byte	.LVL547
 17774 2097 A4010000 		.4byte	.LVL565
 17775 209b 0300     		.2byte	0x3
 17776 209d 77       		.byte	0x77
 17777 209e 1C       		.sleb128 28
 17778 209f 9F       		.byte	0x9f
 17779 20a0 00000000 		.4byte	0
 17780 20a4 00000000 		.4byte	0
 17781              	.LLST203:
 17782 20a8 3C010000 		.4byte	.LVL551
 17783 20ac 58010000 		.4byte	.LVL554
 17784 20b0 0100     		.2byte	0x1
 17785 20b2 57       		.byte	0x57
 17786 20b3 00000000 		.4byte	0
 17787 20b7 00000000 		.4byte	0
 17788              	.LLST204:
ARM GAS  C:\Users\rdn\AppData\Local\Temp\cciiQw7C.s 			page 350


 17789 20bb 3C010000 		.4byte	.LVL551
 17790 20bf 58010000 		.4byte	.LVL554
 17791 20c3 0200     		.2byte	0x2
 17792 20c5 31       		.byte	0x31
 17793 20c6 9F       		.byte	0x9f
 17794 20c7 00000000 		.4byte	0
 17795 20cb 00000000 		.4byte	0
 17796              	.LLST205:
 17797 20cf 3C010000 		.4byte	.LVL551
 17798 20d3 46010000 		.4byte	.LVL552
 17799 20d7 0100     		.2byte	0x1
 17800 20d9 51       		.byte	0x51
 17801 20da 46010000 		.4byte	.LVL552
 17802 20de 50010000 		.4byte	.LVL553
 17803 20e2 0800     		.2byte	0x8
 17804 20e4 78       		.byte	0x78
 17805 20e5 00       		.sleb128 0
 17806 20e6 74       		.byte	0x74
 17807 20e7 00       		.sleb128 0
 17808 20e8 25       		.byte	0x25
 17809 20e9 31       		.byte	0x31
 17810 20ea 1A       		.byte	0x1a
 17811 20eb 9F       		.byte	0x9f
 17812 20ec 50010000 		.4byte	.LVL553
 17813 20f0 57010000 		.4byte	.LVL554-1
 17814 20f4 0100     		.2byte	0x1
 17815 20f6 51       		.byte	0x51
 17816 20f7 57010000 		.4byte	.LVL554-1
 17817 20fb 58010000 		.4byte	.LVL554
 17818 20ff 0800     		.2byte	0x8
 17819 2101 78       		.byte	0x78
 17820 2102 00       		.sleb128 0
 17821 2103 74       		.byte	0x74
 17822 2104 00       		.sleb128 0
 17823 2105 25       		.byte	0x25
 17824 2106 31       		.byte	0x31
 17825 2107 1A       		.byte	0x1a
 17826 2108 9F       		.byte	0x9f
 17827 2109 00000000 		.4byte	0
 17828 210d 00000000 		.4byte	0
 17829              	.LLST207:
 17830 2111 3C010000 		.4byte	.LVL551
 17831 2115 A4010000 		.4byte	.LVL565
 17832 2119 0300     		.2byte	0x3
 17833 211b 77       		.byte	0x77
 17834 211c 1C       		.sleb128 28
 17835 211d 9F       		.byte	0x9f
 17836 211e 00000000 		.4byte	0
 17837 2122 00000000 		.4byte	0
 17838              	.LLST208:
 17839 2126 6E010000 		.4byte	.LVL557
 17840 212a A0010000 		.4byte	.LVL563
 17841 212e 0200     		.2byte	0x2
 17842 2130 40       		.byte	0x40
 17843 2131 9F       		.byte	0x9f
 17844 2132 00000000 		.4byte	0
 17845 2136 00000000 		.4byte	0
ARM GAS  C:\Users\rdn\AppData\Local\Temp\cciiQw7C.s 			page 351


 17846              	.LLST209:
 17847 213a 6E010000 		.4byte	.LVL557
 17848 213e 74010000 		.4byte	.LVL559
 17849 2142 0100     		.2byte	0x1
 17850 2144 51       		.byte	0x51
 17851 2145 74010000 		.4byte	.LVL559
 17852 2149 82010000 		.4byte	.LVL560
 17853 214d 0300     		.2byte	0x3
 17854 214f 71       		.byte	0x71
 17855 2150 40       		.sleb128 -64
 17856 2151 9F       		.byte	0x9f
 17857 2152 00000000 		.4byte	0
 17858 2156 00000000 		.4byte	0
 17859              	.LLST210:
 17860 215a 6E010000 		.4byte	.LVL557
 17861 215e A0010000 		.4byte	.LVL563
 17862 2162 0100     		.2byte	0x1
 17863 2164 57       		.byte	0x57
 17864 2165 00000000 		.4byte	0
 17865 2169 00000000 		.4byte	0
 17866              	.LLST212:
 17867 216d 6E010000 		.4byte	.LVL557
 17868 2171 A4010000 		.4byte	.LVL565
 17869 2175 0300     		.2byte	0x3
 17870 2177 77       		.byte	0x77
 17871 2178 04       		.sleb128 4
 17872 2179 9F       		.byte	0x9f
 17873 217a 00000000 		.4byte	0
 17874 217e 00000000 		.4byte	0
 17875              	.LLST213:
 17876 2182 72010000 		.4byte	.LVL558
 17877 2186 84010000 		.4byte	.LVL561
 17878 218a 0100     		.2byte	0x1
 17879 218c 52       		.byte	0x52
 17880 218d 84010000 		.4byte	.LVL561
 17881 2191 86010000 		.4byte	.LVL562
 17882 2195 0600     		.2byte	0x6
 17883 2197 77       		.byte	0x77
 17884 2198 08       		.sleb128 8
 17885 2199 06       		.byte	0x6
 17886 219a 3A       		.byte	0x3a
 17887 219b 25       		.byte	0x25
 17888 219c 9F       		.byte	0x9f
 17889 219d 00000000 		.4byte	0
 17890 21a1 00000000 		.4byte	0
 17891              	.LLST214:
 17892 21a5 E2010000 		.4byte	.LVL579
 17893 21a9 04020000 		.4byte	.LVL580
 17894 21ad 0100     		.2byte	0x1
 17895 21af 5A       		.byte	0x5a
 17896 21b0 00000000 		.4byte	0
 17897 21b4 00000000 		.4byte	0
 17898              	.LLST215:
 17899 21b8 E2010000 		.4byte	.LVL579
 17900 21bc 04020000 		.4byte	.LVL580
 17901 21c0 0100     		.2byte	0x1
 17902 21c2 57       		.byte	0x57
ARM GAS  C:\Users\rdn\AppData\Local\Temp\cciiQw7C.s 			page 352


 17903 21c3 00000000 		.4byte	0
 17904 21c7 00000000 		.4byte	0
 17905              	.LLST216:
 17906 21cb E2010000 		.4byte	.LVL579
 17907 21cf 04020000 		.4byte	.LVL580
 17908 21d3 0200     		.2byte	0x2
 17909 21d5 31       		.byte	0x31
 17910 21d6 9F       		.byte	0x9f
 17911 21d7 00000000 		.4byte	0
 17912 21db 00000000 		.4byte	0
 17913              	.LLST219:
 17914 21df E2010000 		.4byte	.LVL579
 17915 21e3 04020000 		.4byte	.LVL580
 17916 21e7 0300     		.2byte	0x3
 17917 21e9 77       		.byte	0x77
 17918 21ea 1C       		.sleb128 28
 17919 21eb 9F       		.byte	0x9f
 17920 21ec 00000000 		.4byte	0
 17921 21f0 00000000 		.4byte	0
 17922              	.LLST220:
 17923 21f4 1E020000 		.4byte	.LVL582
 17924 21f8 40020000 		.4byte	.LVL583
 17925 21fc 0100     		.2byte	0x1
 17926 21fe 59       		.byte	0x59
 17927 21ff 00000000 		.4byte	0
 17928 2203 00000000 		.4byte	0
 17929              	.LLST221:
 17930 2207 1E020000 		.4byte	.LVL582
 17931 220b 40020000 		.4byte	.LVL583
 17932 220f 0100     		.2byte	0x1
 17933 2211 57       		.byte	0x57
 17934 2212 00000000 		.4byte	0
 17935 2216 00000000 		.4byte	0
 17936              	.LLST222:
 17937 221a 1E020000 		.4byte	.LVL582
 17938 221e 40020000 		.4byte	.LVL583
 17939 2222 0200     		.2byte	0x2
 17940 2224 31       		.byte	0x31
 17941 2225 9F       		.byte	0x9f
 17942 2226 00000000 		.4byte	0
 17943 222a 00000000 		.4byte	0
 17944              	.LLST225:
 17945 222e 1E020000 		.4byte	.LVL582
 17946 2232 40020000 		.4byte	.LVL583
 17947 2236 0300     		.2byte	0x3
 17948 2238 77       		.byte	0x77
 17949 2239 1C       		.sleb128 28
 17950 223a 9F       		.byte	0x9f
 17951 223b 00000000 		.4byte	0
 17952 223f 00000000 		.4byte	0
 17953              	.LLST226:
 17954 2243 5A020000 		.4byte	.LVL587
 17955 2247 60020000 		.4byte	.LVL589
 17956 224b 0100     		.2byte	0x1
 17957 224d 53       		.byte	0x53
 17958 224e 60020000 		.4byte	.LVL589
 17959 2252 8E020000 		.4byte	.LVL593
ARM GAS  C:\Users\rdn\AppData\Local\Temp\cciiQw7C.s 			page 353


 17960 2256 0800     		.2byte	0x8
 17961 2258 76       		.byte	0x76
 17962 2259 00       		.sleb128 0
 17963 225a 32       		.byte	0x32
 17964 225b 24       		.byte	0x24
 17965 225c 78       		.byte	0x78
 17966 225d 00       		.sleb128 0
 17967 225e 22       		.byte	0x22
 17968 225f 9F       		.byte	0x9f
 17969 2260 00000000 		.4byte	0
 17970 2264 00000000 		.4byte	0
 17971              	.LLST227:
 17972 2268 5A020000 		.4byte	.LVL587
 17973 226c 62020000 		.4byte	.LVL590
 17974 2270 0100     		.2byte	0x1
 17975 2272 52       		.byte	0x52
 17976 2273 00000000 		.4byte	0
 17977 2277 00000000 		.4byte	0
 17978              	.LLST228:
 17979 227b 5A020000 		.4byte	.LVL587
 17980 227f 8E020000 		.4byte	.LVL593
 17981 2283 0100     		.2byte	0x1
 17982 2285 57       		.byte	0x57
 17983 2286 00000000 		.4byte	0
 17984 228a 00000000 		.4byte	0
 17985              	.LLST230:
 17986 228e 5A020000 		.4byte	.LVL587
 17987 2292 B6020000 		.4byte	.LVL600
 17988 2296 0300     		.2byte	0x3
 17989 2298 77       		.byte	0x77
 17990 2299 04       		.sleb128 4
 17991 229a 9F       		.byte	0x9f
 17992 229b 00000000 		.4byte	0
 17993 229f 00000000 		.4byte	0
 17994              	.LLST231:
 17995 22a3 5E020000 		.4byte	.LVL588
 17996 22a7 76020000 		.4byte	.LVL592
 17997 22ab 0100     		.2byte	0x1
 17998 22ad 51       		.byte	0x51
 17999 22ae 00000000 		.4byte	0
 18000 22b2 00000000 		.4byte	0
 18001              	.LLST232:
 18002 22b6 00000000 		.4byte	.LVL604
 18003 22ba 1A000000 		.4byte	.LVL606
 18004 22be 0100     		.2byte	0x1
 18005 22c0 50       		.byte	0x50
 18006 22c1 1A000000 		.4byte	.LVL606
 18007 22c5 76010000 		.4byte	.LVL650
 18008 22c9 0100     		.2byte	0x1
 18009 22cb 5A       		.byte	0x5a
 18010 22cc 76010000 		.4byte	.LVL650
 18011 22d0 82010000 		.4byte	.LFE32
 18012 22d4 0400     		.2byte	0x4
 18013 22d6 F3       		.byte	0xf3
 18014 22d7 01       		.uleb128 0x1
 18015 22d8 50       		.byte	0x50
 18016 22d9 9F       		.byte	0x9f
ARM GAS  C:\Users\rdn\AppData\Local\Temp\cciiQw7C.s 			page 354


 18017 22da 00000000 		.4byte	0
 18018 22de 00000000 		.4byte	0
 18019              	.LLST233:
 18020 22e2 00000000 		.4byte	.LVL604
 18021 22e6 1A000000 		.4byte	.LVL606
 18022 22ea 0100     		.2byte	0x1
 18023 22ec 51       		.byte	0x51
 18024 22ed 1A000000 		.4byte	.LVL606
 18025 22f1 1C000000 		.4byte	.LVL607
 18026 22f5 0100     		.2byte	0x1
 18027 22f7 53       		.byte	0x53
 18028 22f8 1C000000 		.4byte	.LVL607
 18029 22fc 6C000000 		.4byte	.LVL616
 18030 2300 0100     		.2byte	0x1
 18031 2302 58       		.byte	0x58
 18032 2303 6C000000 		.4byte	.LVL616
 18033 2307 6E000000 		.4byte	.LVL617
 18034 230b 0100     		.2byte	0x1
 18035 230d 53       		.byte	0x53
 18036 230e 6E000000 		.4byte	.LVL617
 18037 2312 A4000000 		.4byte	.LVL624
 18038 2316 0100     		.2byte	0x1
 18039 2318 5B       		.byte	0x5b
 18040 2319 A4000000 		.4byte	.LVL624
 18041 231d E6000000 		.4byte	.LVL631
 18042 2321 0100     		.2byte	0x1
 18043 2323 58       		.byte	0x58
 18044 2324 E6000000 		.4byte	.LVL631
 18045 2328 EE000000 		.4byte	.LVL632
 18046 232c 0100     		.2byte	0x1
 18047 232e 5B       		.byte	0x5b
 18048 232f EE000000 		.4byte	.LVL632
 18049 2333 F0000000 		.4byte	.LVL633
 18050 2337 0100     		.2byte	0x1
 18051 2339 53       		.byte	0x53
 18052 233a F0000000 		.4byte	.LVL633
 18053 233e 22010000 		.4byte	.LVL638
 18054 2342 0100     		.2byte	0x1
 18055 2344 58       		.byte	0x58
 18056 2345 22010000 		.4byte	.LVL638
 18057 2349 64010000 		.4byte	.LVL645
 18058 234d 0100     		.2byte	0x1
 18059 234f 56       		.byte	0x56
 18060 2350 64010000 		.4byte	.LVL645
 18061 2354 76010000 		.4byte	.LVL648
 18062 2358 0100     		.2byte	0x1
 18063 235a 58       		.byte	0x58
 18064 235b 00000000 		.4byte	0
 18065 235f 00000000 		.4byte	0
 18066              	.LLST234:
 18067 2363 00000000 		.4byte	.LVL604
 18068 2367 1A000000 		.4byte	.LVL606
 18069 236b 0100     		.2byte	0x1
 18070 236d 52       		.byte	0x52
 18071 236e 1A000000 		.4byte	.LVL606
 18072 2372 82010000 		.4byte	.LFE32
 18073 2376 0400     		.2byte	0x4
ARM GAS  C:\Users\rdn\AppData\Local\Temp\cciiQw7C.s 			page 355


 18074 2378 F3       		.byte	0xf3
 18075 2379 01       		.uleb128 0x1
 18076 237a 52       		.byte	0x52
 18077 237b 9F       		.byte	0x9f
 18078 237c 00000000 		.4byte	0
 18079 2380 00000000 		.4byte	0
 18080              	.LLST235:
 18081 2384 00000000 		.4byte	.LVL604
 18082 2388 1A000000 		.4byte	.LVL606
 18083 238c 0100     		.2byte	0x1
 18084 238e 53       		.byte	0x53
 18085 238f 1A000000 		.4byte	.LVL606
 18086 2393 76010000 		.4byte	.LVL649
 18087 2397 0100     		.2byte	0x1
 18088 2399 59       		.byte	0x59
 18089 239a 76010000 		.4byte	.LVL649
 18090 239e 82010000 		.4byte	.LFE32
 18091 23a2 0400     		.2byte	0x4
 18092 23a4 F3       		.byte	0xf3
 18093 23a5 01       		.uleb128 0x1
 18094 23a6 53       		.byte	0x53
 18095 23a7 9F       		.byte	0x9f
 18096 23a8 00000000 		.4byte	0
 18097 23ac 00000000 		.4byte	0
 18098              	.LLST236:
 18099 23b0 16000000 		.4byte	.LVL605
 18100 23b4 1A000000 		.4byte	.LVL606
 18101 23b8 0200     		.2byte	0x2
 18102 23ba 30       		.byte	0x30
 18103 23bb 9F       		.byte	0x9f
 18104 23bc 1A000000 		.4byte	.LVL606
 18105 23c0 76010000 		.4byte	.LVL647
 18106 23c4 0100     		.2byte	0x1
 18107 23c6 55       		.byte	0x55
 18108 23c7 00000000 		.4byte	0
 18109 23cb 00000000 		.4byte	0
 18110              	.LLST237:
 18111 23cf 2A000000 		.4byte	.LVL608
 18112 23d3 5A000000 		.4byte	.LVL615
 18113 23d7 0100     		.2byte	0x1
 18114 23d9 57       		.byte	0x57
 18115 23da 00000000 		.4byte	0
 18116 23de 00000000 		.4byte	0
 18117              	.LLST238:
 18118 23e2 42000000 		.4byte	.LVL611
 18119 23e6 50000000 		.4byte	.LVL612
 18120 23ea 0100     		.2byte	0x1
 18121 23ec 50       		.byte	0x50
 18122 23ed 50000000 		.4byte	.LVL612
 18123 23f1 6C000000 		.4byte	.LVL616
 18124 23f5 0100     		.2byte	0x1
 18125 23f7 5B       		.byte	0x5b
 18126 23f8 6C000000 		.4byte	.LVL616
 18127 23fc 7A000000 		.4byte	.LVL619
 18128 2400 0100     		.2byte	0x1
 18129 2402 52       		.byte	0x52
 18130 2403 7A000000 		.4byte	.LVL619
ARM GAS  C:\Users\rdn\AppData\Local\Temp\cciiQw7C.s 			page 356


 18131 2407 66010000 		.4byte	.LVL646
 18132 240b 0200     		.2byte	0x2
 18133 240d 7D       		.byte	0x7d
 18134 240e 00       		.sleb128 0
 18135 240f 00000000 		.4byte	0
 18136 2413 00000000 		.4byte	0
 18137              	.LLST239:
 18138 2417 5A000000 		.4byte	.LVL615
 18139 241b 94000000 		.4byte	.LVL622
 18140 241f 0100     		.2byte	0x1
 18141 2421 50       		.byte	0x50
 18142 2422 94000000 		.4byte	.LVL622
 18143 2426 66010000 		.4byte	.LVL646
 18144 242a 0100     		.2byte	0x1
 18145 242c 57       		.byte	0x57
 18146 242d 00000000 		.4byte	0
 18147 2431 00000000 		.4byte	0
 18148              	.LLST240:
 18149 2435 76000000 		.4byte	.LVL618
 18150 2439 98000000 		.4byte	.LVL623
 18151 243d 0100     		.2byte	0x1
 18152 243f 5A       		.byte	0x5a
 18153 2440 00000000 		.4byte	0
 18154 2444 00000000 		.4byte	0
 18155              	.LLST241:
 18156 2448 76000000 		.4byte	.LVL618
 18157 244c 98000000 		.4byte	.LVL623
 18158 2450 0200     		.2byte	0x2
 18159 2452 31       		.byte	0x31
 18160 2453 9F       		.byte	0x9f
 18161 2454 00000000 		.4byte	0
 18162 2458 00000000 		.4byte	0
 18163              	.LLST242:
 18164 245c 76000000 		.4byte	.LVL618
 18165 2460 82000000 		.4byte	.LVL620
 18166 2464 0100     		.2byte	0x1
 18167 2466 51       		.byte	0x51
 18168 2467 82000000 		.4byte	.LVL620
 18169 246b 90000000 		.4byte	.LVL621
 18170 246f 0600     		.2byte	0x6
 18171 2471 7D       		.byte	0x7d
 18172 2472 00       		.sleb128 0
 18173 2473 06       		.byte	0x6
 18174 2474 31       		.byte	0x31
 18175 2475 1A       		.byte	0x1a
 18176 2476 9F       		.byte	0x9f
 18177 2477 90000000 		.4byte	.LVL621
 18178 247b 97000000 		.4byte	.LVL623-1
 18179 247f 0100     		.2byte	0x1
 18180 2481 51       		.byte	0x51
 18181 2482 97000000 		.4byte	.LVL623-1
 18182 2486 98000000 		.4byte	.LVL623
 18183 248a 0600     		.2byte	0x6
 18184 248c 7D       		.byte	0x7d
 18185 248d 00       		.sleb128 0
 18186 248e 06       		.byte	0x6
 18187 248f 31       		.byte	0x31
ARM GAS  C:\Users\rdn\AppData\Local\Temp\cciiQw7C.s 			page 357


 18188 2490 1A       		.byte	0x1a
 18189 2491 9F       		.byte	0x9f
 18190 2492 00000000 		.4byte	0
 18191 2496 00000000 		.4byte	0
 18192              	.LLST244:
 18193 249a 76000000 		.4byte	.LVL618
 18194 249e 98000000 		.4byte	.LVL623
 18195 24a2 0300     		.2byte	0x3
 18196 24a4 7A       		.byte	0x7a
 18197 24a5 1C       		.sleb128 28
 18198 24a6 9F       		.byte	0x9f
 18199 24a7 00000000 		.4byte	0
 18200 24ab 00000000 		.4byte	0
 18201              	.LLST245:
 18202 24af BA000000 		.4byte	.LVL626
 18203 24b3 C6000000 		.4byte	.LVL627
 18204 24b7 0100     		.2byte	0x1
 18205 24b9 56       		.byte	0x56
 18206 24ba D6000000 		.4byte	.LVL628
 18207 24be E4000000 		.4byte	.LVL630
 18208 24c2 0100     		.2byte	0x1
 18209 24c4 56       		.byte	0x56
 18210 24c5 00000000 		.4byte	0
 18211 24c9 00000000 		.4byte	0
 18212              	.LLST246:
 18213 24cd BA000000 		.4byte	.LVL626
 18214 24d1 E4000000 		.4byte	.LVL630
 18215 24d5 0100     		.2byte	0x1
 18216 24d7 5A       		.byte	0x5a
 18217 24d8 00000000 		.4byte	0
 18218 24dc 00000000 		.4byte	0
 18219              	.LLST247:
 18220 24e0 BA000000 		.4byte	.LVL626
 18221 24e4 E4000000 		.4byte	.LVL630
 18222 24e8 0200     		.2byte	0x2
 18223 24ea 31       		.byte	0x31
 18224 24eb 9F       		.byte	0x9f
 18225 24ec 00000000 		.4byte	0
 18226 24f0 00000000 		.4byte	0
 18227              	.LLST250:
 18228 24f4 BA000000 		.4byte	.LVL626
 18229 24f8 E4000000 		.4byte	.LVL630
 18230 24fc 0300     		.2byte	0x3
 18231 24fe 7A       		.byte	0x7a
 18232 24ff 1C       		.sleb128 28
 18233 2500 9F       		.byte	0x9f
 18234 2501 00000000 		.4byte	0
 18235 2505 00000000 		.4byte	0
 18236              	.LLST251:
 18237 2509 F8000000 		.4byte	.LVL634
 18238 250d 1A010000 		.4byte	.LVL637
 18239 2511 0100     		.2byte	0x1
 18240 2513 5A       		.byte	0x5a
 18241 2514 00000000 		.4byte	0
 18242 2518 00000000 		.4byte	0
 18243              	.LLST252:
 18244 251c F8000000 		.4byte	.LVL634
ARM GAS  C:\Users\rdn\AppData\Local\Temp\cciiQw7C.s 			page 358


 18245 2520 1A010000 		.4byte	.LVL637
 18246 2524 0200     		.2byte	0x2
 18247 2526 31       		.byte	0x31
 18248 2527 9F       		.byte	0x9f
 18249 2528 00000000 		.4byte	0
 18250 252c 00000000 		.4byte	0
 18251              	.LLST253:
 18252 2530 F8000000 		.4byte	.LVL634
 18253 2534 04010000 		.4byte	.LVL635
 18254 2538 0100     		.2byte	0x1
 18255 253a 51       		.byte	0x51
 18256 253b 04010000 		.4byte	.LVL635
 18257 253f 12010000 		.4byte	.LVL636
 18258 2543 0500     		.2byte	0x5
 18259 2545 77       		.byte	0x77
 18260 2546 00       		.sleb128 0
 18261 2547 31       		.byte	0x31
 18262 2548 1A       		.byte	0x1a
 18263 2549 9F       		.byte	0x9f
 18264 254a 12010000 		.4byte	.LVL636
 18265 254e 19010000 		.4byte	.LVL637-1
 18266 2552 0100     		.2byte	0x1
 18267 2554 51       		.byte	0x51
 18268 2555 19010000 		.4byte	.LVL637-1
 18269 2559 1A010000 		.4byte	.LVL637
 18270 255d 0500     		.2byte	0x5
 18271 255f 77       		.byte	0x77
 18272 2560 00       		.sleb128 0
 18273 2561 31       		.byte	0x31
 18274 2562 1A       		.byte	0x1a
 18275 2563 9F       		.byte	0x9f
 18276 2564 00000000 		.4byte	0
 18277 2568 00000000 		.4byte	0
 18278              	.LLST255:
 18279 256c F8000000 		.4byte	.LVL634
 18280 2570 1A010000 		.4byte	.LVL637
 18281 2574 0300     		.2byte	0x3
 18282 2576 7A       		.byte	0x7a
 18283 2577 1C       		.sleb128 28
 18284 2578 9F       		.byte	0x9f
 18285 2579 00000000 		.4byte	0
 18286 257d 00000000 		.4byte	0
 18287              	.LLST256:
 18288 2581 38010000 		.4byte	.LVL640
 18289 2585 44010000 		.4byte	.LVL641
 18290 2589 0100     		.2byte	0x1
 18291 258b 54       		.byte	0x54
 18292 258c 54010000 		.4byte	.LVL642
 18293 2590 62010000 		.4byte	.LVL644
 18294 2594 0100     		.2byte	0x1
 18295 2596 54       		.byte	0x54
 18296 2597 00000000 		.4byte	0
 18297 259b 00000000 		.4byte	0
 18298              	.LLST257:
 18299 259f 38010000 		.4byte	.LVL640
 18300 25a3 62010000 		.4byte	.LVL644
 18301 25a7 0100     		.2byte	0x1
ARM GAS  C:\Users\rdn\AppData\Local\Temp\cciiQw7C.s 			page 359


 18302 25a9 5A       		.byte	0x5a
 18303 25aa 00000000 		.4byte	0
 18304 25ae 00000000 		.4byte	0
 18305              	.LLST258:
 18306 25b2 38010000 		.4byte	.LVL640
 18307 25b6 62010000 		.4byte	.LVL644
 18308 25ba 0200     		.2byte	0x2
 18309 25bc 31       		.byte	0x31
 18310 25bd 9F       		.byte	0x9f
 18311 25be 00000000 		.4byte	0
 18312 25c2 00000000 		.4byte	0
 18313              	.LLST261:
 18314 25c6 38010000 		.4byte	.LVL640
 18315 25ca 62010000 		.4byte	.LVL644
 18316 25ce 0300     		.2byte	0x3
 18317 25d0 7A       		.byte	0x7a
 18318 25d1 1C       		.sleb128 28
 18319 25d2 9F       		.byte	0x9f
 18320 25d3 00000000 		.4byte	0
 18321 25d7 00000000 		.4byte	0
 18322              	.LLST262:
 18323 25db 00000000 		.4byte	.LVL651
 18324 25df 26000000 		.4byte	.LVL655
 18325 25e3 0100     		.2byte	0x1
 18326 25e5 50       		.byte	0x50
 18327 25e6 26000000 		.4byte	.LVL655
 18328 25ea 2A040000 		.4byte	.LVL762
 18329 25ee 0100     		.2byte	0x1
 18330 25f0 55       		.byte	0x55
 18331 25f1 2A040000 		.4byte	.LVL762
 18332 25f5 36040000 		.4byte	.LFE29
 18333 25f9 0400     		.2byte	0x4
 18334 25fb F3       		.byte	0xf3
 18335 25fc 01       		.uleb128 0x1
 18336 25fd 50       		.byte	0x50
 18337 25fe 9F       		.byte	0x9f
 18338 25ff 00000000 		.4byte	0
 18339 2603 00000000 		.4byte	0
 18340              	.LLST263:
 18341 2607 00000000 		.4byte	.LVL651
 18342 260b 1A000000 		.4byte	.LVL653
 18343 260f 0100     		.2byte	0x1
 18344 2611 51       		.byte	0x51
 18345 2612 1A000000 		.4byte	.LVL653
 18346 2616 36040000 		.4byte	.LFE29
 18347 261a 0400     		.2byte	0x4
 18348 261c F3       		.byte	0xf3
 18349 261d 01       		.uleb128 0x1
 18350 261e 51       		.byte	0x51
 18351 261f 9F       		.byte	0x9f
 18352 2620 00000000 		.4byte	0
 18353 2624 00000000 		.4byte	0
 18354              	.LLST264:
 18355 2628 00000000 		.4byte	.LVL651
 18356 262c 18000000 		.4byte	.LVL652
 18357 2630 0100     		.2byte	0x1
 18358 2632 52       		.byte	0x52
ARM GAS  C:\Users\rdn\AppData\Local\Temp\cciiQw7C.s 			page 360


 18359 2633 18000000 		.4byte	.LVL652
 18360 2637 36040000 		.4byte	.LFE29
 18361 263b 0400     		.2byte	0x4
 18362 263d F3       		.byte	0xf3
 18363 263e 01       		.uleb128 0x1
 18364 263f 52       		.byte	0x52
 18365 2640 9F       		.byte	0x9f
 18366 2641 00000000 		.4byte	0
 18367 2645 00000000 		.4byte	0
 18368              	.LLST265:
 18369 2649 00000000 		.4byte	.LVL651
 18370 264d 29000000 		.4byte	.LVL656-1
 18371 2651 0100     		.2byte	0x1
 18372 2653 53       		.byte	0x53
 18373 2654 29000000 		.4byte	.LVL656-1
 18374 2658 36040000 		.4byte	.LFE29
 18375 265c 0400     		.2byte	0x4
 18376 265e F3       		.byte	0xf3
 18377 265f 01       		.uleb128 0x1
 18378 2660 53       		.byte	0x53
 18379 2661 9F       		.byte	0x9f
 18380 2662 00000000 		.4byte	0
 18381 2666 00000000 		.4byte	0
 18382              	.LLST266:
 18383 266a 00000000 		.4byte	.LVL651
 18384 266e 18000000 		.4byte	.LVL652
 18385 2672 0200     		.2byte	0x2
 18386 2674 91       		.byte	0x91
 18387 2675 00       		.sleb128 0
 18388 2676 18000000 		.4byte	.LVL652
 18389 267a 1A000000 		.4byte	.LVL653
 18390 267e 0200     		.2byte	0x2
 18391 2680 72       		.byte	0x72
 18392 2681 00       		.sleb128 0
 18393 2682 1A000000 		.4byte	.LVL653
 18394 2686 22000000 		.4byte	.LVL654
 18395 268a 0200     		.2byte	0x2
 18396 268c 72       		.byte	0x72
 18397 268d 7C       		.sleb128 -4
 18398 268e 22000000 		.4byte	.LVL654
 18399 2692 36040000 		.4byte	.LFE29
 18400 2696 0200     		.2byte	0x2
 18401 2698 91       		.byte	0x91
 18402 2699 00       		.sleb128 0
 18403 269a 00000000 		.4byte	0
 18404 269e 00000000 		.4byte	0
 18405              	.LLST267:
 18406 26a2 00000000 		.4byte	.LVL651
 18407 26a6 18000000 		.4byte	.LVL652
 18408 26aa 0200     		.2byte	0x2
 18409 26ac 91       		.byte	0x91
 18410 26ad 04       		.sleb128 4
 18411 26ae 18000000 		.4byte	.LVL652
 18412 26b2 1A000000 		.4byte	.LVL653
 18413 26b6 0200     		.2byte	0x2
 18414 26b8 72       		.byte	0x72
 18415 26b9 04       		.sleb128 4
ARM GAS  C:\Users\rdn\AppData\Local\Temp\cciiQw7C.s 			page 361


 18416 26ba 1A000000 		.4byte	.LVL653
 18417 26be 22000000 		.4byte	.LVL654
 18418 26c2 0200     		.2byte	0x2
 18419 26c4 72       		.byte	0x72
 18420 26c5 00       		.sleb128 0
 18421 26c6 22000000 		.4byte	.LVL654
 18422 26ca 36040000 		.4byte	.LFE29
 18423 26ce 0200     		.2byte	0x2
 18424 26d0 91       		.byte	0x91
 18425 26d1 04       		.sleb128 4
 18426 26d2 00000000 		.4byte	0
 18427 26d6 00000000 		.4byte	0
 18428              	.LLST268:
 18429 26da 00000000 		.4byte	.LVL651
 18430 26de 18000000 		.4byte	.LVL652
 18431 26e2 0200     		.2byte	0x2
 18432 26e4 91       		.byte	0x91
 18433 26e5 08       		.sleb128 8
 18434 26e6 18000000 		.4byte	.LVL652
 18435 26ea 1A000000 		.4byte	.LVL653
 18436 26ee 0200     		.2byte	0x2
 18437 26f0 72       		.byte	0x72
 18438 26f1 08       		.sleb128 8
 18439 26f2 1A000000 		.4byte	.LVL653
 18440 26f6 22000000 		.4byte	.LVL654
 18441 26fa 0200     		.2byte	0x2
 18442 26fc 72       		.byte	0x72
 18443 26fd 04       		.sleb128 4
 18444 26fe 22000000 		.4byte	.LVL654
 18445 2702 36040000 		.4byte	.LFE29
 18446 2706 0200     		.2byte	0x2
 18447 2708 91       		.byte	0x91
 18448 2709 08       		.sleb128 8
 18449 270a 00000000 		.4byte	0
 18450 270e 00000000 		.4byte	0
 18451              	.LLST269:
 18452 2712 00000000 		.4byte	.LVL651
 18453 2716 18000000 		.4byte	.LVL652
 18454 271a 0200     		.2byte	0x2
 18455 271c 91       		.byte	0x91
 18456 271d 0C       		.sleb128 12
 18457 271e 18000000 		.4byte	.LVL652
 18458 2722 1A000000 		.4byte	.LVL653
 18459 2726 0200     		.2byte	0x2
 18460 2728 72       		.byte	0x72
 18461 2729 0C       		.sleb128 12
 18462 272a 1A000000 		.4byte	.LVL653
 18463 272e 22000000 		.4byte	.LVL654
 18464 2732 0200     		.2byte	0x2
 18465 2734 72       		.byte	0x72
 18466 2735 08       		.sleb128 8
 18467 2736 22000000 		.4byte	.LVL654
 18468 273a 36040000 		.4byte	.LFE29
 18469 273e 0200     		.2byte	0x2
 18470 2740 91       		.byte	0x91
 18471 2741 0C       		.sleb128 12
 18472 2742 00000000 		.4byte	0
ARM GAS  C:\Users\rdn\AppData\Local\Temp\cciiQw7C.s 			page 362


 18473 2746 00000000 		.4byte	0
 18474              	.LLST270:
 18475 274a 2C000000 		.4byte	.LVL657
 18476 274e 46000000 		.4byte	.LVL661
 18477 2752 0100     		.2byte	0x1
 18478 2754 50       		.byte	0x50
 18479 2755 46000000 		.4byte	.LVL661
 18480 2759 36040000 		.4byte	.LFE29
 18481 275d 0200     		.2byte	0x2
 18482 275f 91       		.byte	0x91
 18483 2760 54       		.sleb128 -44
 18484 2761 00000000 		.4byte	0
 18485 2765 00000000 		.4byte	0
 18486              	.LLST271:
 18487 2769 3E000000 		.4byte	.LVL660
 18488 276d 46000000 		.4byte	.LVL661
 18489 2771 0200     		.2byte	0x2
 18490 2773 30       		.byte	0x30
 18491 2774 9F       		.byte	0x9f
 18492 2775 46000000 		.4byte	.LVL661
 18493 2779 36040000 		.4byte	.LFE29
 18494 277d 0300     		.2byte	0x3
 18495 277f 91       		.byte	0x91
 18496 2780 B87F     		.sleb128 -72
 18497 2782 00000000 		.4byte	0
 18498 2786 00000000 		.4byte	0
 18499              	.LLST272:
 18500 278a 2C000000 		.4byte	.LVL657
 18501 278e 38000000 		.4byte	.LVL659
 18502 2792 0100     		.2byte	0x1
 18503 2794 56       		.byte	0x56
 18504 2795 00000000 		.4byte	0
 18505 2799 00000000 		.4byte	0
 18506              	.LLST273:
 18507 279d 2C000000 		.4byte	.LVL657
 18508 27a1 34000000 		.4byte	.LVL658
 18509 27a5 0100     		.2byte	0x1
 18510 27a7 54       		.byte	0x54
 18511 27a8 00000000 		.4byte	0
 18512 27ac 00000000 		.4byte	0
 18513              	.LLST274:
 18514 27b0 3E000000 		.4byte	.LVL660
 18515 27b4 46000000 		.4byte	.LVL661
 18516 27b8 0200     		.2byte	0x2
 18517 27ba 30       		.byte	0x30
 18518 27bb 9F       		.byte	0x9f
 18519 27bc 46000000 		.4byte	.LVL661
 18520 27c0 36040000 		.4byte	.LFE29
 18521 27c4 0300     		.2byte	0x3
 18522 27c6 91       		.byte	0x91
 18523 27c7 B47F     		.sleb128 -76
 18524 27c9 00000000 		.4byte	0
 18525 27cd 00000000 		.4byte	0
 18526              	.LLST275:
 18527 27d1 3E000000 		.4byte	.LVL660
 18528 27d5 46000000 		.4byte	.LVL661
 18529 27d9 0200     		.2byte	0x2
ARM GAS  C:\Users\rdn\AppData\Local\Temp\cciiQw7C.s 			page 363


 18530 27db 30       		.byte	0x30
 18531 27dc 9F       		.byte	0x9f
 18532 27dd 46000000 		.4byte	.LVL661
 18533 27e1 48000000 		.4byte	.LVL662
 18534 27e5 0100     		.2byte	0x1
 18535 27e7 53       		.byte	0x53
 18536 27e8 48000000 		.4byte	.LVL662
 18537 27ec 36040000 		.4byte	.LFE29
 18538 27f0 0300     		.2byte	0x3
 18539 27f2 91       		.byte	0x91
 18540 27f3 BC7F     		.sleb128 -68
 18541 27f5 00000000 		.4byte	0
 18542 27f9 00000000 		.4byte	0
 18543              	.LLST276:
 18544 27fd 58000000 		.4byte	.LVL663
 18545 2801 5A000000 		.4byte	.LVL664
 18546 2805 0100     		.2byte	0x1
 18547 2807 53       		.byte	0x53
 18548 2808 5A000000 		.4byte	.LVL664
 18549 280c 18040000 		.4byte	.LVL759
 18550 2810 0200     		.2byte	0x2
 18551 2812 91       		.byte	0x91
 18552 2813 48       		.sleb128 -56
 18553 2814 24040000 		.4byte	.LVL760
 18554 2818 28040000 		.4byte	.LVL761
 18555 281c 0200     		.2byte	0x2
 18556 281e 91       		.byte	0x91
 18557 281f 48       		.sleb128 -56
 18558 2820 00000000 		.4byte	0
 18559 2824 00000000 		.4byte	0
 18560              	.LLST277:
 18561 2828 64000000 		.4byte	.LVL665
 18562 282c 02030000 		.4byte	.LVL727
 18563 2830 0100     		.2byte	0x1
 18564 2832 5A       		.byte	0x5a
 18565 2833 02030000 		.4byte	.LVL727
 18566 2837 F0030000 		.4byte	.LVL757
 18567 283b 0B00     		.2byte	0xb
 18568 283d 91       		.byte	0x91
 18569 283e B87F     		.sleb128 -72
 18570 2840 06       		.byte	0x6
 18571 2841 32       		.byte	0x32
 18572 2842 24       		.byte	0x24
 18573 2843 91       		.byte	0x91
 18574 2844 48       		.sleb128 -56
 18575 2845 06       		.byte	0x6
 18576 2846 22       		.byte	0x22
 18577 2847 9F       		.byte	0x9f
 18578 2848 24040000 		.4byte	.LVL760
 18579 284c 28040000 		.4byte	.LVL761
 18580 2850 0100     		.2byte	0x1
 18581 2852 5A       		.byte	0x5a
 18582 2853 00000000 		.4byte	0
 18583 2857 00000000 		.4byte	0
 18584              	.LLST278:
 18585 285b 74000000 		.4byte	.LVL666
 18586 285f 06030000 		.4byte	.LVL729
ARM GAS  C:\Users\rdn\AppData\Local\Temp\cciiQw7C.s 			page 364


 18587 2863 0100     		.2byte	0x1
 18588 2865 5B       		.byte	0x5b
 18589 2866 24040000 		.4byte	.LVL760
 18590 286a 28040000 		.4byte	.LVL761
 18591 286e 0100     		.2byte	0x1
 18592 2870 5B       		.byte	0x5b
 18593 2871 00000000 		.4byte	0
 18594 2875 00000000 		.4byte	0
 18595              	.LLST279:
 18596 2879 74000000 		.4byte	.LVL666
 18597 287d EA010000 		.4byte	.LVL698
 18598 2881 0200     		.2byte	0x2
 18599 2883 30       		.byte	0x30
 18600 2884 9F       		.byte	0x9f
 18601 2885 EA010000 		.4byte	.LVL698
 18602 2889 0E020000 		.4byte	.LVL702
 18603 288d 0100     		.2byte	0x1
 18604 288f 59       		.byte	0x59
 18605 2890 0E020000 		.4byte	.LVL702
 18606 2894 10020000 		.4byte	.LVL703
 18607 2898 0100     		.2byte	0x1
 18608 289a 53       		.byte	0x53
 18609 289b 10020000 		.4byte	.LVL703
 18610 289f 10030000 		.4byte	.LVL732
 18611 28a3 0100     		.2byte	0x1
 18612 28a5 59       		.byte	0x59
 18613 28a6 10030000 		.4byte	.LVL732
 18614 28aa 12030000 		.4byte	.LVL733
 18615 28ae 0100     		.2byte	0x1
 18616 28b0 53       		.byte	0x53
 18617 28b1 12030000 		.4byte	.LVL733
 18618 28b5 BE030000 		.4byte	.LVL752
 18619 28b9 0100     		.2byte	0x1
 18620 28bb 57       		.byte	0x57
 18621 28bc 24040000 		.4byte	.LVL760
 18622 28c0 28040000 		.4byte	.LVL761
 18623 28c4 0100     		.2byte	0x1
 18624 28c6 59       		.byte	0x59
 18625 28c7 00000000 		.4byte	0
 18626 28cb 00000000 		.4byte	0
 18627              	.LLST280:
 18628 28cf 74000000 		.4byte	.LVL666
 18629 28d3 EA010000 		.4byte	.LVL698
 18630 28d7 0200     		.2byte	0x2
 18631 28d9 30       		.byte	0x30
 18632 28da 9F       		.byte	0x9f
 18633 28db EA010000 		.4byte	.LVL698
 18634 28df 32020000 		.4byte	.LVL707
 18635 28e3 0100     		.2byte	0x1
 18636 28e5 58       		.byte	0x58
 18637 28e6 32020000 		.4byte	.LVL707
 18638 28ea 34020000 		.4byte	.LVL708
 18639 28ee 0100     		.2byte	0x1
 18640 28f0 53       		.byte	0x53
 18641 28f1 34020000 		.4byte	.LVL708
 18642 28f5 1C030000 		.4byte	.LVL735
 18643 28f9 0100     		.2byte	0x1
ARM GAS  C:\Users\rdn\AppData\Local\Temp\cciiQw7C.s 			page 365


 18644 28fb 58       		.byte	0x58
 18645 28fc 1C030000 		.4byte	.LVL735
 18646 2900 22030000 		.4byte	.LVL736
 18647 2904 0100     		.2byte	0x1
 18648 2906 53       		.byte	0x53
 18649 2907 22030000 		.4byte	.LVL736
 18650 290b B6030000 		.4byte	.LVL751
 18651 290f 0100     		.2byte	0x1
 18652 2911 56       		.byte	0x56
 18653 2912 24040000 		.4byte	.LVL760
 18654 2916 28040000 		.4byte	.LVL761
 18655 291a 0100     		.2byte	0x1
 18656 291c 58       		.byte	0x58
 18657 291d 00000000 		.4byte	0
 18658 2921 00000000 		.4byte	0
 18659              	.LLST281:
 18660 2925 74000000 		.4byte	.LVL666
 18661 2929 28010000 		.4byte	.LVL681
 18662 292d 0200     		.2byte	0x2
 18663 292f 30       		.byte	0x30
 18664 2930 9F       		.byte	0x9f
 18665 2931 28010000 		.4byte	.LVL681
 18666 2935 D8010000 		.4byte	.LVL696
 18667 2939 0200     		.2byte	0x2
 18668 293b 31       		.byte	0x31
 18669 293c 9F       		.byte	0x9f
 18670 293d D8010000 		.4byte	.LVL696
 18671 2941 E2010000 		.4byte	.LVL697
 18672 2945 0200     		.2byte	0x2
 18673 2947 30       		.byte	0x30
 18674 2948 9F       		.byte	0x9f
 18675 2949 EA010000 		.4byte	.LVL698
 18676 294d DC030000 		.4byte	.LVL753
 18677 2951 0100     		.2byte	0x1
 18678 2953 54       		.byte	0x54
 18679 2954 DC030000 		.4byte	.LVL753
 18680 2958 DE030000 		.4byte	.LVL754
 18681 295c 0300     		.2byte	0x3
 18682 295e 73       		.byte	0x73
 18683 295f 74       		.sleb128 -12
 18684 2960 9F       		.byte	0x9f
 18685 2961 DE030000 		.4byte	.LVL754
 18686 2965 E4030000 		.4byte	.LVL755
 18687 2969 0100     		.2byte	0x1
 18688 296b 54       		.byte	0x54
 18689 296c E4030000 		.4byte	.LVL755
 18690 2970 E6030000 		.4byte	.LVL756
 18691 2974 0300     		.2byte	0x3
 18692 2976 74       		.byte	0x74
 18693 2977 7F       		.sleb128 -1
 18694 2978 9F       		.byte	0x9f
 18695 2979 24040000 		.4byte	.LVL760
 18696 297d 28040000 		.4byte	.LVL761
 18697 2981 0100     		.2byte	0x1
 18698 2983 54       		.byte	0x54
 18699 2984 00000000 		.4byte	0
 18700 2988 00000000 		.4byte	0
ARM GAS  C:\Users\rdn\AppData\Local\Temp\cciiQw7C.s 			page 366


 18701              	.LLST282:
 18702 298c 74000000 		.4byte	.LVL666
 18703 2990 D2010000 		.4byte	.LVL695
 18704 2994 0200     		.2byte	0x2
 18705 2996 30       		.byte	0x30
 18706 2997 9F       		.byte	0x9f
 18707 2998 D2010000 		.4byte	.LVL695
 18708 299c D8010000 		.4byte	.LVL696
 18709 29a0 0200     		.2byte	0x2
 18710 29a2 31       		.byte	0x31
 18711 29a3 9F       		.byte	0x9f
 18712 29a4 D8010000 		.4byte	.LVL696
 18713 29a8 E2010000 		.4byte	.LVL697
 18714 29ac 0200     		.2byte	0x2
 18715 29ae 30       		.byte	0x30
 18716 29af 9F       		.byte	0x9f
 18717 29b0 EA010000 		.4byte	.LVL698
 18718 29b4 16030000 		.4byte	.LVL734
 18719 29b8 0100     		.2byte	0x1
 18720 29ba 56       		.byte	0x56
 18721 29bb 24040000 		.4byte	.LVL760
 18722 29bf 28040000 		.4byte	.LVL761
 18723 29c3 0100     		.2byte	0x1
 18724 29c5 56       		.byte	0x56
 18725 29c6 00000000 		.4byte	0
 18726 29ca 00000000 		.4byte	0
 18727              	.LLST283:
 18728 29ce EA010000 		.4byte	.LVL698
 18729 29d2 5C020000 		.4byte	.LVL712
 18730 29d6 0100     		.2byte	0x1
 18731 29d8 57       		.byte	0x57
 18732 29d9 EC020000 		.4byte	.LVL726
 18733 29dd 08030000 		.4byte	.LVL730
 18734 29e1 0100     		.2byte	0x1
 18735 29e3 57       		.byte	0x57
 18736 29e4 24040000 		.4byte	.LVL760
 18737 29e8 28040000 		.4byte	.LVL761
 18738 29ec 0100     		.2byte	0x1
 18739 29ee 57       		.byte	0x57
 18740 29ef 00000000 		.4byte	0
 18741 29f3 00000000 		.4byte	0
 18742              	.LLST284:
 18743 29f7 02030000 		.4byte	.LVL727
 18744 29fb 04030000 		.4byte	.LVL728
 18745 29ff 0100     		.2byte	0x1
 18746 2a01 53       		.byte	0x53
 18747 2a02 04030000 		.4byte	.LVL728
 18748 2a06 F6030000 		.4byte	.LVL758
 18749 2a0a 0100     		.2byte	0x1
 18750 2a0c 5A       		.byte	0x5a
 18751 2a0d 00000000 		.4byte	0
 18752 2a11 00000000 		.4byte	0
 18753              	.LLST285:
 18754 2a15 06030000 		.4byte	.LVL729
 18755 2a19 0C030000 		.4byte	.LVL731
 18756 2a1d 0100     		.2byte	0x1
 18757 2a1f 53       		.byte	0x53
ARM GAS  C:\Users\rdn\AppData\Local\Temp\cciiQw7C.s 			page 367


 18758 2a20 0C030000 		.4byte	.LVL731
 18759 2a24 F6030000 		.4byte	.LVL758
 18760 2a28 0100     		.2byte	0x1
 18761 2a2a 5B       		.byte	0x5b
 18762 2a2b 00000000 		.4byte	0
 18763 2a2f 00000000 		.4byte	0
 18764              	.LLST286:
 18765 2a33 82000000 		.4byte	.LVL667
 18766 2a37 1E010000 		.4byte	.LVL680
 18767 2a3b 0100     		.2byte	0x1
 18768 2a3d 55       		.byte	0x55
 18769 2a3e 00000000 		.4byte	0
 18770 2a42 00000000 		.4byte	0
 18771              	.LLST287:
 18772 2a46 82000000 		.4byte	.LVL667
 18773 2a4a 1E010000 		.4byte	.LVL680
 18774 2a4e 0100     		.2byte	0x1
 18775 2a50 54       		.byte	0x54
 18776 2a51 00000000 		.4byte	0
 18777 2a55 00000000 		.4byte	0
 18778              	.LLST288:
 18779 2a59 82000000 		.4byte	.LVL667
 18780 2a5d E2010000 		.4byte	.LVL697
 18781 2a61 0300     		.2byte	0x3
 18782 2a63 75       		.byte	0x75
 18783 2a64 04       		.sleb128 4
 18784 2a65 9F       		.byte	0x9f
 18785 2a66 4C020000 		.4byte	.LVL710
 18786 2a6a EC020000 		.4byte	.LVL726
 18787 2a6e 0300     		.2byte	0x3
 18788 2a70 75       		.byte	0x75
 18789 2a71 04       		.sleb128 4
 18790 2a72 9F       		.byte	0x9f
 18791 2a73 00000000 		.4byte	0
 18792 2a77 00000000 		.4byte	0
 18793              	.LLST289:
 18794 2a7b 8A000000 		.4byte	.LVL668
 18795 2a7f 10010000 		.4byte	.LVL678
 18796 2a83 0100     		.2byte	0x1
 18797 2a85 53       		.byte	0x53
 18798 2a86 10010000 		.4byte	.LVL678
 18799 2a8a 12010000 		.4byte	.LVL679
 18800 2a8e 0A00     		.2byte	0xa
 18801 2a90 75       		.byte	0x75
 18802 2a91 08       		.sleb128 8
 18803 2a92 06       		.byte	0x6
 18804 2a93 3A       		.byte	0x3a
 18805 2a94 25       		.byte	0x25
 18806 2a95 40       		.byte	0x40
 18807 2a96 24       		.byte	0x24
 18808 2a97 40       		.byte	0x40
 18809 2a98 25       		.byte	0x25
 18810 2a99 9F       		.byte	0x9f
 18811 2a9a 00000000 		.4byte	0
 18812 2a9e 00000000 		.4byte	0
 18813              	.LLST290:
 18814 2aa2 A2000000 		.4byte	.LVL669
ARM GAS  C:\Users\rdn\AppData\Local\Temp\cciiQw7C.s 			page 368


 18815 2aa6 B0000000 		.4byte	.LVL670
 18816 2aaa 0200     		.2byte	0x2
 18817 2aac 40       		.byte	0x40
 18818 2aad 9F       		.byte	0x9f
 18819 2aae B0000000 		.4byte	.LVL670
 18820 2ab2 C4000000 		.4byte	.LVL671
 18821 2ab6 0200     		.2byte	0x2
 18822 2ab8 38       		.byte	0x38
 18823 2ab9 9F       		.byte	0x9f
 18824 2aba C4000000 		.4byte	.LVL671
 18825 2abe EC000000 		.4byte	.LVL673
 18826 2ac2 0100     		.2byte	0x1
 18827 2ac4 52       		.byte	0x52
 18828 2ac5 EC000000 		.4byte	.LVL673
 18829 2ac9 FA000000 		.4byte	.LVL674
 18830 2acd 0100     		.2byte	0x1
 18831 2acf 51       		.byte	0x51
 18832 2ad0 FA000000 		.4byte	.LVL674
 18833 2ad4 FC000000 		.4byte	.LVL675
 18834 2ad8 0100     		.2byte	0x1
 18835 2ada 52       		.byte	0x52
 18836 2adb FC000000 		.4byte	.LVL675
 18837 2adf FE000000 		.4byte	.LVL676
 18838 2ae3 0200     		.2byte	0x2
 18839 2ae5 40       		.byte	0x40
 18840 2ae6 9F       		.byte	0x9f
 18841 2ae7 FE000000 		.4byte	.LVL676
 18842 2aeb 02010000 		.4byte	.LVL677
 18843 2aef 0100     		.2byte	0x1
 18844 2af1 52       		.byte	0x52
 18845 2af2 02010000 		.4byte	.LVL677
 18846 2af6 1E010000 		.4byte	.LVL680
 18847 2afa 0100     		.2byte	0x1
 18848 2afc 57       		.byte	0x57
 18849 2afd 00000000 		.4byte	0
 18850 2b01 00000000 		.4byte	0
 18851              	.LLST291:
 18852 2b05 36010000 		.4byte	.LVL682
 18853 2b09 D2010000 		.4byte	.LVL695
 18854 2b0d 0100     		.2byte	0x1
 18855 2b0f 55       		.byte	0x55
 18856 2b10 00000000 		.4byte	0
 18857 2b14 00000000 		.4byte	0
 18858              	.LLST292:
 18859 2b18 36010000 		.4byte	.LVL682
 18860 2b1c D2010000 		.4byte	.LVL695
 18861 2b20 0100     		.2byte	0x1
 18862 2b22 54       		.byte	0x54
 18863 2b23 00000000 		.4byte	0
 18864 2b27 00000000 		.4byte	0
 18865              	.LLST293:
 18866 2b2b 36010000 		.4byte	.LVL682
 18867 2b2f D8010000 		.4byte	.LVL696
 18868 2b33 0300     		.2byte	0x3
 18869 2b35 75       		.byte	0x75
 18870 2b36 04       		.sleb128 4
 18871 2b37 9F       		.byte	0x9f
ARM GAS  C:\Users\rdn\AppData\Local\Temp\cciiQw7C.s 			page 369


 18872 2b38 00000000 		.4byte	0
 18873 2b3c 00000000 		.4byte	0
 18874              	.LLST294:
 18875 2b40 3E010000 		.4byte	.LVL683
 18876 2b44 C4010000 		.4byte	.LVL693
 18877 2b48 0100     		.2byte	0x1
 18878 2b4a 53       		.byte	0x53
 18879 2b4b C4010000 		.4byte	.LVL693
 18880 2b4f C6010000 		.4byte	.LVL694
 18881 2b53 0A00     		.2byte	0xa
 18882 2b55 75       		.byte	0x75
 18883 2b56 08       		.sleb128 8
 18884 2b57 06       		.byte	0x6
 18885 2b58 3A       		.byte	0x3a
 18886 2b59 25       		.byte	0x25
 18887 2b5a 40       		.byte	0x40
 18888 2b5b 24       		.byte	0x24
 18889 2b5c 40       		.byte	0x40
 18890 2b5d 25       		.byte	0x25
 18891 2b5e 9F       		.byte	0x9f
 18892 2b5f 00000000 		.4byte	0
 18893 2b63 00000000 		.4byte	0
 18894              	.LLST295:
 18895 2b67 56010000 		.4byte	.LVL684
 18896 2b6b 64010000 		.4byte	.LVL685
 18897 2b6f 0200     		.2byte	0x2
 18898 2b71 40       		.byte	0x40
 18899 2b72 9F       		.byte	0x9f
 18900 2b73 64010000 		.4byte	.LVL685
 18901 2b77 78010000 		.4byte	.LVL686
 18902 2b7b 0200     		.2byte	0x2
 18903 2b7d 38       		.byte	0x38
 18904 2b7e 9F       		.byte	0x9f
 18905 2b7f 78010000 		.4byte	.LVL686
 18906 2b83 A0010000 		.4byte	.LVL688
 18907 2b87 0100     		.2byte	0x1
 18908 2b89 52       		.byte	0x52
 18909 2b8a A0010000 		.4byte	.LVL688
 18910 2b8e AE010000 		.4byte	.LVL689
 18911 2b92 0100     		.2byte	0x1
 18912 2b94 51       		.byte	0x51
 18913 2b95 AE010000 		.4byte	.LVL689
 18914 2b99 B0010000 		.4byte	.LVL690
 18915 2b9d 0100     		.2byte	0x1
 18916 2b9f 52       		.byte	0x52
 18917 2ba0 B0010000 		.4byte	.LVL690
 18918 2ba4 B2010000 		.4byte	.LVL691
 18919 2ba8 0200     		.2byte	0x2
 18920 2baa 40       		.byte	0x40
 18921 2bab 9F       		.byte	0x9f
 18922 2bac B2010000 		.4byte	.LVL691
 18923 2bb0 B6010000 		.4byte	.LVL692
 18924 2bb4 0100     		.2byte	0x1
 18925 2bb6 52       		.byte	0x52
 18926 2bb7 B6010000 		.4byte	.LVL692
 18927 2bbb D2010000 		.4byte	.LVL695
 18928 2bbf 0100     		.2byte	0x1
ARM GAS  C:\Users\rdn\AppData\Local\Temp\cciiQw7C.s 			page 370


 18929 2bc1 57       		.byte	0x57
 18930 2bc2 00000000 		.4byte	0
 18931 2bc6 00000000 		.4byte	0
 18932              	.LLST296:
 18933 2bca 4C020000 		.4byte	.LVL710
 18934 2bce EA020000 		.4byte	.LVL725
 18935 2bd2 0100     		.2byte	0x1
 18936 2bd4 55       		.byte	0x55
 18937 2bd5 00000000 		.4byte	0
 18938 2bd9 00000000 		.4byte	0
 18939              	.LLST297:
 18940 2bdd 4C020000 		.4byte	.LVL710
 18941 2be1 D0020000 		.4byte	.LVL722
 18942 2be5 0100     		.2byte	0x1
 18943 2be7 52       		.byte	0x52
 18944 2be8 00000000 		.4byte	0
 18945 2bec 00000000 		.4byte	0
 18946              	.LLST298:
 18947 2bf0 4C020000 		.4byte	.LVL710
 18948 2bf4 EC020000 		.4byte	.LVL726
 18949 2bf8 0300     		.2byte	0x3
 18950 2bfa 75       		.byte	0x75
 18951 2bfb 04       		.sleb128 4
 18952 2bfc 9F       		.byte	0x9f
 18953 2bfd 00000000 		.4byte	0
 18954 2c01 00000000 		.4byte	0
 18955              	.LLST299:
 18956 2c05 54020000 		.4byte	.LVL711
 18957 2c09 DC020000 		.4byte	.LVL723
 18958 2c0d 0100     		.2byte	0x1
 18959 2c0f 53       		.byte	0x53
 18960 2c10 DC020000 		.4byte	.LVL723
 18961 2c14 DE020000 		.4byte	.LVL724
 18962 2c18 0A00     		.2byte	0xa
 18963 2c1a 75       		.byte	0x75
 18964 2c1b 08       		.sleb128 8
 18965 2c1c 06       		.byte	0x6
 18966 2c1d 3A       		.byte	0x3a
 18967 2c1e 25       		.byte	0x25
 18968 2c1f 40       		.byte	0x40
 18969 2c20 24       		.byte	0x24
 18970 2c21 40       		.byte	0x40
 18971 2c22 25       		.byte	0x25
 18972 2c23 9F       		.byte	0x9f
 18973 2c24 00000000 		.4byte	0
 18974 2c28 00000000 		.4byte	0
 18975              	.LLST300:
 18976 2c2c 6E020000 		.4byte	.LVL713
 18977 2c30 7C020000 		.4byte	.LVL714
 18978 2c34 0200     		.2byte	0x2
 18979 2c36 40       		.byte	0x40
 18980 2c37 9F       		.byte	0x9f
 18981 2c38 7C020000 		.4byte	.LVL714
 18982 2c3c 90020000 		.4byte	.LVL715
 18983 2c40 0200     		.2byte	0x2
 18984 2c42 38       		.byte	0x38
 18985 2c43 9F       		.byte	0x9f
ARM GAS  C:\Users\rdn\AppData\Local\Temp\cciiQw7C.s 			page 371


 18986 2c44 90020000 		.4byte	.LVL715
 18987 2c48 B8020000 		.4byte	.LVL717
 18988 2c4c 0100     		.2byte	0x1
 18989 2c4e 50       		.byte	0x50
 18990 2c4f B8020000 		.4byte	.LVL717
 18991 2c53 C6020000 		.4byte	.LVL718
 18992 2c57 0100     		.2byte	0x1
 18993 2c59 57       		.byte	0x57
 18994 2c5a C6020000 		.4byte	.LVL718
 18995 2c5e C8020000 		.4byte	.LVL719
 18996 2c62 0100     		.2byte	0x1
 18997 2c64 50       		.byte	0x50
 18998 2c65 C8020000 		.4byte	.LVL719
 18999 2c69 CA020000 		.4byte	.LVL720
 19000 2c6d 0200     		.2byte	0x2
 19001 2c6f 40       		.byte	0x40
 19002 2c70 9F       		.byte	0x9f
 19003 2c71 CA020000 		.4byte	.LVL720
 19004 2c75 CE020000 		.4byte	.LVL721
 19005 2c79 0100     		.2byte	0x1
 19006 2c7b 50       		.byte	0x50
 19007 2c7c CE020000 		.4byte	.LVL721
 19008 2c80 EA020000 		.4byte	.LVL725
 19009 2c84 0100     		.2byte	0x1
 19010 2c86 57       		.byte	0x57
 19011 2c87 00000000 		.4byte	0
 19012 2c8b 00000000 		.4byte	0
 19013              	.LLST301:
 19014 2c8f EA010000 		.4byte	.LVL698
 19015 2c93 06020000 		.4byte	.LVL701
 19016 2c97 0100     		.2byte	0x1
 19017 2c99 55       		.byte	0x55
 19018 2c9a 00000000 		.4byte	0
 19019 2c9e 00000000 		.4byte	0
 19020              	.LLST302:
 19021 2ca2 EA010000 		.4byte	.LVL698
 19022 2ca6 06020000 		.4byte	.LVL701
 19023 2caa 0200     		.2byte	0x2
 19024 2cac 31       		.byte	0x31
 19025 2cad 9F       		.byte	0x9f
 19026 2cae 00000000 		.4byte	0
 19027 2cb2 00000000 		.4byte	0
 19028              	.LLST304:
 19029 2cb6 EA010000 		.4byte	.LVL698
 19030 2cba EC020000 		.4byte	.LVL726
 19031 2cbe 0300     		.2byte	0x3
 19032 2cc0 75       		.byte	0x75
 19033 2cc1 1C       		.sleb128 28
 19034 2cc2 9F       		.byte	0x9f
 19035 2cc3 00000000 		.4byte	0
 19036 2cc7 00000000 		.4byte	0
 19037              	.LLST305:
 19038 2ccb FA010000 		.4byte	.LVL699
 19039 2ccf FE010000 		.4byte	.LVL700
 19040 2cd3 0100     		.2byte	0x1
 19041 2cd5 50       		.byte	0x50
 19042 2cd6 00000000 		.4byte	0
ARM GAS  C:\Users\rdn\AppData\Local\Temp\cciiQw7C.s 			page 372


 19043 2cda 00000000 		.4byte	0
 19044              	.LLST306:
 19045 2cde 0E020000 		.4byte	.LVL702
 19046 2ce2 2A020000 		.4byte	.LVL706
 19047 2ce6 0100     		.2byte	0x1
 19048 2ce8 55       		.byte	0x55
 19049 2ce9 00000000 		.4byte	0
 19050 2ced 00000000 		.4byte	0
 19051              	.LLST307:
 19052 2cf1 0E020000 		.4byte	.LVL702
 19053 2cf5 2A020000 		.4byte	.LVL706
 19054 2cf9 0200     		.2byte	0x2
 19055 2cfb 31       		.byte	0x31
 19056 2cfc 9F       		.byte	0x9f
 19057 2cfd 00000000 		.4byte	0
 19058 2d01 00000000 		.4byte	0
 19059              	.LLST309:
 19060 2d05 0E020000 		.4byte	.LVL702
 19061 2d09 EC020000 		.4byte	.LVL726
 19062 2d0d 0300     		.2byte	0x3
 19063 2d0f 75       		.byte	0x75
 19064 2d10 1C       		.sleb128 28
 19065 2d11 9F       		.byte	0x9f
 19066 2d12 00000000 		.4byte	0
 19067 2d16 00000000 		.4byte	0
 19068              	.LLST310:
 19069 2d1a 1E020000 		.4byte	.LVL704
 19070 2d1e 22020000 		.4byte	.LVL705
 19071 2d22 0100     		.2byte	0x1
 19072 2d24 50       		.byte	0x50
 19073 2d25 00000000 		.4byte	0
 19074 2d29 00000000 		.4byte	0
 19075              	.LLST311:
 19076 2d2d 2C030000 		.4byte	.LVL737
 19077 2d31 48030000 		.4byte	.LVL740
 19078 2d35 0100     		.2byte	0x1
 19079 2d37 55       		.byte	0x55
 19080 2d38 00000000 		.4byte	0
 19081 2d3c 00000000 		.4byte	0
 19082              	.LLST312:
 19083 2d40 2C030000 		.4byte	.LVL737
 19084 2d44 48030000 		.4byte	.LVL740
 19085 2d48 0200     		.2byte	0x2
 19086 2d4a 31       		.byte	0x31
 19087 2d4b 9F       		.byte	0x9f
 19088 2d4c 00000000 		.4byte	0
 19089 2d50 00000000 		.4byte	0
 19090              	.LLST314:
 19091 2d54 2C030000 		.4byte	.LVL737
 19092 2d58 64030000 		.4byte	.LVL742
 19093 2d5c 0300     		.2byte	0x3
 19094 2d5e 75       		.byte	0x75
 19095 2d5f 1C       		.sleb128 28
 19096 2d60 9F       		.byte	0x9f
 19097 2d61 00000000 		.4byte	0
 19098 2d65 00000000 		.4byte	0
 19099              	.LLST315:
ARM GAS  C:\Users\rdn\AppData\Local\Temp\cciiQw7C.s 			page 373


 19100 2d69 3C030000 		.4byte	.LVL738
 19101 2d6d 40030000 		.4byte	.LVL739
 19102 2d71 0100     		.2byte	0x1
 19103 2d73 50       		.byte	0x50
 19104 2d74 00000000 		.4byte	0
 19105 2d78 00000000 		.4byte	0
 19106              	.LLST316:
 19107 2d7c 7E030000 		.4byte	.LVL744
 19108 2d80 9A030000 		.4byte	.LVL747
 19109 2d84 0100     		.2byte	0x1
 19110 2d86 55       		.byte	0x55
 19111 2d87 00000000 		.4byte	0
 19112 2d8b 00000000 		.4byte	0
 19113              	.LLST317:
 19114 2d8f 7E030000 		.4byte	.LVL744
 19115 2d93 9A030000 		.4byte	.LVL747
 19116 2d97 0200     		.2byte	0x2
 19117 2d99 31       		.byte	0x31
 19118 2d9a 9F       		.byte	0x9f
 19119 2d9b 00000000 		.4byte	0
 19120 2d9f 00000000 		.4byte	0
 19121              	.LLST319:
 19122 2da3 7E030000 		.4byte	.LVL744
 19123 2da7 A6030000 		.4byte	.LVL749
 19124 2dab 0300     		.2byte	0x3
 19125 2dad 75       		.byte	0x75
 19126 2dae 1C       		.sleb128 28
 19127 2daf 9F       		.byte	0x9f
 19128 2db0 00000000 		.4byte	0
 19129 2db4 00000000 		.4byte	0
 19130              	.LLST320:
 19131 2db8 8E030000 		.4byte	.LVL745
 19132 2dbc 92030000 		.4byte	.LVL746
 19133 2dc0 0100     		.2byte	0x1
 19134 2dc2 50       		.byte	0x50
 19135 2dc3 00000000 		.4byte	0
 19136 2dc7 00000000 		.4byte	0
 19137              	.LLST321:
 19138 2dcb 00000000 		.4byte	.LVL763
 19139 2dcf 1A000000 		.4byte	.LVL765
 19140 2dd3 0100     		.2byte	0x1
 19141 2dd5 50       		.byte	0x50
 19142 2dd6 1A000000 		.4byte	.LVL765
 19143 2dda C6010000 		.4byte	.LVL811
 19144 2dde 0100     		.2byte	0x1
 19145 2de0 5B       		.byte	0x5b
 19146 2de1 C6010000 		.4byte	.LVL811
 19147 2de5 D8010000 		.4byte	.LFE33
 19148 2de9 0400     		.2byte	0x4
 19149 2deb F3       		.byte	0xf3
 19150 2dec 01       		.uleb128 0x1
 19151 2ded 50       		.byte	0x50
 19152 2dee 9F       		.byte	0x9f
 19153 2def 00000000 		.4byte	0
 19154 2df3 00000000 		.4byte	0
 19155              	.LLST322:
 19156 2df7 00000000 		.4byte	.LVL763
ARM GAS  C:\Users\rdn\AppData\Local\Temp\cciiQw7C.s 			page 374


 19157 2dfb 1A000000 		.4byte	.LVL765
 19158 2dff 0100     		.2byte	0x1
 19159 2e01 51       		.byte	0x51
 19160 2e02 1A000000 		.4byte	.LVL765
 19161 2e06 20000000 		.4byte	.LVL766
 19162 2e0a 0100     		.2byte	0x1
 19163 2e0c 53       		.byte	0x53
 19164 2e0d 20000000 		.4byte	.LVL766
 19165 2e11 50000000 		.4byte	.LVL771
 19166 2e15 0100     		.2byte	0x1
 19167 2e17 59       		.byte	0x59
 19168 2e18 50000000 		.4byte	.LVL771
 19169 2e1c 52000000 		.4byte	.LVL772
 19170 2e20 0100     		.2byte	0x1
 19171 2e22 53       		.byte	0x53
 19172 2e23 52000000 		.4byte	.LVL772
 19173 2e27 B6000000 		.4byte	.LVL783
 19174 2e2b 0100     		.2byte	0x1
 19175 2e2d 58       		.byte	0x58
 19176 2e2e B6000000 		.4byte	.LVL783
 19177 2e32 FC000000 		.4byte	.LVL789
 19178 2e36 0100     		.2byte	0x1
 19179 2e38 55       		.byte	0x55
 19180 2e39 FC000000 		.4byte	.LVL789
 19181 2e3d 04010000 		.4byte	.LVL790
 19182 2e41 0100     		.2byte	0x1
 19183 2e43 58       		.byte	0x58
 19184 2e44 04010000 		.4byte	.LVL790
 19185 2e48 06010000 		.4byte	.LVL791
 19186 2e4c 0100     		.2byte	0x1
 19187 2e4e 53       		.byte	0x53
 19188 2e4f 06010000 		.4byte	.LVL791
 19189 2e53 6C010000 		.4byte	.LVL799
 19190 2e57 0100     		.2byte	0x1
 19191 2e59 59       		.byte	0x59
 19192 2e5a 6C010000 		.4byte	.LVL799
 19193 2e5e B4010000 		.4byte	.LVL805
 19194 2e62 0100     		.2byte	0x1
 19195 2e64 55       		.byte	0x55
 19196 2e65 B4010000 		.4byte	.LVL805
 19197 2e69 C6010000 		.4byte	.LVL809
 19198 2e6d 0100     		.2byte	0x1
 19199 2e6f 59       		.byte	0x59
 19200 2e70 00000000 		.4byte	0
 19201 2e74 00000000 		.4byte	0
 19202              	.LLST323:
 19203 2e78 00000000 		.4byte	.LVL763
 19204 2e7c 1A000000 		.4byte	.LVL765
 19205 2e80 0100     		.2byte	0x1
 19206 2e82 52       		.byte	0x52
 19207 2e83 1A000000 		.4byte	.LVL765
 19208 2e87 C6010000 		.4byte	.LVL810
 19209 2e8b 0100     		.2byte	0x1
 19210 2e8d 5A       		.byte	0x5a
 19211 2e8e C6010000 		.4byte	.LVL810
 19212 2e92 D8010000 		.4byte	.LFE33
 19213 2e96 0400     		.2byte	0x4
ARM GAS  C:\Users\rdn\AppData\Local\Temp\cciiQw7C.s 			page 375


 19214 2e98 F3       		.byte	0xf3
 19215 2e99 01       		.uleb128 0x1
 19216 2e9a 52       		.byte	0x52
 19217 2e9b 9F       		.byte	0x9f
 19218 2e9c 00000000 		.4byte	0
 19219 2ea0 00000000 		.4byte	0
 19220              	.LLST324:
 19221 2ea4 00000000 		.4byte	.LVL763
 19222 2ea8 1A000000 		.4byte	.LVL765
 19223 2eac 0100     		.2byte	0x1
 19224 2eae 53       		.byte	0x53
 19225 2eaf 1A000000 		.4byte	.LVL765
 19226 2eb3 C6010000 		.4byte	.LVL807
 19227 2eb7 0200     		.2byte	0x2
 19228 2eb9 7D       		.byte	0x7d
 19229 2eba 00       		.sleb128 0
 19230 2ebb C6010000 		.4byte	.LVL807
 19231 2ebf D8010000 		.4byte	.LFE33
 19232 2ec3 0200     		.2byte	0x2
 19233 2ec5 91       		.byte	0x91
 19234 2ec6 50       		.sleb128 -48
 19235 2ec7 00000000 		.4byte	0
 19236 2ecb 00000000 		.4byte	0
 19237              	.LLST325:
 19238 2ecf 16000000 		.4byte	.LVL764
 19239 2ed3 1A000000 		.4byte	.LVL765
 19240 2ed7 0200     		.2byte	0x2
 19241 2ed9 30       		.byte	0x30
 19242 2eda 9F       		.byte	0x9f
 19243 2edb 1A000000 		.4byte	.LVL765
 19244 2edf C6010000 		.4byte	.LVL808
 19245 2ee3 0100     		.2byte	0x1
 19246 2ee5 57       		.byte	0x57
 19247 2ee6 00000000 		.4byte	0
 19248 2eea 00000000 		.4byte	0
 19249              	.LLST326:
 19250 2eee 24000000 		.4byte	.LVL767
 19251 2ef2 8A000000 		.4byte	.LVL778
 19252 2ef6 0100     		.2byte	0x1
 19253 2ef8 55       		.byte	0x55
 19254 2ef9 B2000000 		.4byte	.LVL781
 19255 2efd B4000000 		.4byte	.LVL782
 19256 2f01 0100     		.2byte	0x1
 19257 2f03 55       		.byte	0x55
 19258 2f04 00000000 		.4byte	0
 19259 2f08 00000000 		.4byte	0
 19260              	.LLST327:
 19261 2f0c 34000000 		.4byte	.LVL768
 19262 2f10 39000000 		.4byte	.LVL769-1
 19263 2f14 0100     		.2byte	0x1
 19264 2f16 51       		.byte	0x51
 19265 2f17 00000000 		.4byte	0
 19266 2f1b 00000000 		.4byte	0
 19267              	.LLST328:
 19268 2f1f 56000000 		.4byte	.LVL773
 19269 2f23 78000000 		.4byte	.LVL776
 19270 2f27 0100     		.2byte	0x1
ARM GAS  C:\Users\rdn\AppData\Local\Temp\cciiQw7C.s 			page 376


 19271 2f29 5B       		.byte	0x5b
 19272 2f2a 00000000 		.4byte	0
 19273 2f2e 00000000 		.4byte	0
 19274              	.LLST329:
 19275 2f32 56000000 		.4byte	.LVL773
 19276 2f36 78000000 		.4byte	.LVL776
 19277 2f3a 0200     		.2byte	0x2
 19278 2f3c 31       		.byte	0x31
 19279 2f3d 9F       		.byte	0x9f
 19280 2f3e 00000000 		.4byte	0
 19281 2f42 00000000 		.4byte	0
 19282              	.LLST331:
 19283 2f46 56000000 		.4byte	.LVL773
 19284 2f4a FC000000 		.4byte	.LVL789
 19285 2f4e 0300     		.2byte	0x3
 19286 2f50 7B       		.byte	0x7b
 19287 2f51 1C       		.sleb128 28
 19288 2f52 9F       		.byte	0x9f
 19289 2f53 00000000 		.4byte	0
 19290 2f57 00000000 		.4byte	0
 19291              	.LLST332:
 19292 2f5b 6A000000 		.4byte	.LVL774
 19293 2f5f 70000000 		.4byte	.LVL775
 19294 2f63 0100     		.2byte	0x1
 19295 2f65 50       		.byte	0x50
 19296 2f66 00000000 		.4byte	0
 19297 2f6a 00000000 		.4byte	0
 19298              	.LLST333:
 19299 2f6e BC000000 		.4byte	.LVL784
 19300 2f72 DE000000 		.4byte	.LVL787
 19301 2f76 0100     		.2byte	0x1
 19302 2f78 5B       		.byte	0x5b
 19303 2f79 00000000 		.4byte	0
 19304 2f7d 00000000 		.4byte	0
 19305              	.LLST334:
 19306 2f81 BC000000 		.4byte	.LVL784
 19307 2f85 DE000000 		.4byte	.LVL787
 19308 2f89 0200     		.2byte	0x2
 19309 2f8b 31       		.byte	0x31
 19310 2f8c 9F       		.byte	0x9f
 19311 2f8d 00000000 		.4byte	0
 19312 2f91 00000000 		.4byte	0
 19313              	.LLST336:
 19314 2f95 BC000000 		.4byte	.LVL784
 19315 2f99 FA000000 		.4byte	.LVL788
 19316 2f9d 0300     		.2byte	0x3
 19317 2f9f 7B       		.byte	0x7b
 19318 2fa0 1C       		.sleb128 28
 19319 2fa1 9F       		.byte	0x9f
 19320 2fa2 00000000 		.4byte	0
 19321 2fa6 00000000 		.4byte	0
 19322              	.LLST337:
 19323 2faa D0000000 		.4byte	.LVL785
 19324 2fae D6000000 		.4byte	.LVL786
 19325 2fb2 0100     		.2byte	0x1
 19326 2fb4 50       		.byte	0x50
 19327 2fb5 00000000 		.4byte	0
ARM GAS  C:\Users\rdn\AppData\Local\Temp\cciiQw7C.s 			page 377


 19328 2fb9 00000000 		.4byte	0
 19329              	.LLST338:
 19330 2fbd 0A010000 		.4byte	.LVL792
 19331 2fc1 2C010000 		.4byte	.LVL795
 19332 2fc5 0100     		.2byte	0x1
 19333 2fc7 5B       		.byte	0x5b
 19334 2fc8 00000000 		.4byte	0
 19335 2fcc 00000000 		.4byte	0
 19336              	.LLST339:
 19337 2fd0 0A010000 		.4byte	.LVL792
 19338 2fd4 2C010000 		.4byte	.LVL795
 19339 2fd8 0200     		.2byte	0x2
 19340 2fda 31       		.byte	0x31
 19341 2fdb 9F       		.byte	0x9f
 19342 2fdc 00000000 		.4byte	0
 19343 2fe0 00000000 		.4byte	0
 19344              	.LLST341:
 19345 2fe4 0A010000 		.4byte	.LVL792
 19346 2fe8 B4010000 		.4byte	.LVL805
 19347 2fec 0300     		.2byte	0x3
 19348 2fee 7B       		.byte	0x7b
 19349 2fef 1C       		.sleb128 28
 19350 2ff0 9F       		.byte	0x9f
 19351 2ff1 00000000 		.4byte	0
 19352 2ff5 00000000 		.4byte	0
 19353              	.LLST342:
 19354 2ff9 1E010000 		.4byte	.LVL793
 19355 2ffd 24010000 		.4byte	.LVL794
 19356 3001 0100     		.2byte	0x1
 19357 3003 50       		.byte	0x50
 19358 3004 00000000 		.4byte	0
 19359 3008 00000000 		.4byte	0
 19360              	.LLST343:
 19361 300c 72010000 		.4byte	.LVL800
 19362 3010 94010000 		.4byte	.LVL803
 19363 3014 0100     		.2byte	0x1
 19364 3016 5B       		.byte	0x5b
 19365 3017 00000000 		.4byte	0
 19366 301b 00000000 		.4byte	0
 19367              	.LLST344:
 19368 301f 72010000 		.4byte	.LVL800
 19369 3023 94010000 		.4byte	.LVL803
 19370 3027 0200     		.2byte	0x2
 19371 3029 31       		.byte	0x31
 19372 302a 9F       		.byte	0x9f
 19373 302b 00000000 		.4byte	0
 19374 302f 00000000 		.4byte	0
 19375              	.LLST346:
 19376 3033 72010000 		.4byte	.LVL800
 19377 3037 B2010000 		.4byte	.LVL804
 19378 303b 0300     		.2byte	0x3
 19379 303d 7B       		.byte	0x7b
 19380 303e 1C       		.sleb128 28
 19381 303f 9F       		.byte	0x9f
 19382 3040 00000000 		.4byte	0
 19383 3044 00000000 		.4byte	0
 19384              	.LLST347:
ARM GAS  C:\Users\rdn\AppData\Local\Temp\cciiQw7C.s 			page 378


 19385 3048 86010000 		.4byte	.LVL801
 19386 304c 8C010000 		.4byte	.LVL802
 19387 3050 0100     		.2byte	0x1
 19388 3052 50       		.byte	0x50
 19389 3053 00000000 		.4byte	0
 19390 3057 00000000 		.4byte	0
 19391              	.LLST348:
 19392 305b 00000000 		.4byte	.LVL812
 19393 305f 1B000000 		.4byte	.LVL815-1
 19394 3063 0100     		.2byte	0x1
 19395 3065 50       		.byte	0x50
 19396 3066 1B000000 		.4byte	.LVL815-1
 19397 306a 58010000 		.4byte	.LFE40
 19398 306e 0400     		.2byte	0x4
 19399 3070 F3       		.byte	0xf3
 19400 3071 01       		.uleb128 0x1
 19401 3072 50       		.byte	0x50
 19402 3073 9F       		.byte	0x9f
 19403 3074 00000000 		.4byte	0
 19404 3078 00000000 		.4byte	0
 19405              	.LLST349:
 19406 307c 00000000 		.4byte	.LVL812
 19407 3080 1B000000 		.4byte	.LVL815-1
 19408 3084 0100     		.2byte	0x1
 19409 3086 51       		.byte	0x51
 19410 3087 1B000000 		.4byte	.LVL815-1
 19411 308b 58010000 		.4byte	.LFE40
 19412 308f 0400     		.2byte	0x4
 19413 3091 F3       		.byte	0xf3
 19414 3092 01       		.uleb128 0x1
 19415 3093 51       		.byte	0x51
 19416 3094 9F       		.byte	0x9f
 19417 3095 00000000 		.4byte	0
 19418 3099 00000000 		.4byte	0
 19419              	.LLST350:
 19420 309d 00000000 		.4byte	.LVL812
 19421 30a1 1B000000 		.4byte	.LVL815-1
 19422 30a5 0100     		.2byte	0x1
 19423 30a7 52       		.byte	0x52
 19424 30a8 1B000000 		.4byte	.LVL815-1
 19425 30ac 58010000 		.4byte	.LFE40
 19426 30b0 0200     		.2byte	0x2
 19427 30b2 91       		.byte	0x91
 19428 30b3 50       		.sleb128 -48
 19429 30b4 00000000 		.4byte	0
 19430 30b8 00000000 		.4byte	0
 19431              	.LLST351:
 19432 30bc 00000000 		.4byte	.LVL812
 19433 30c0 10000000 		.4byte	.LVL813
 19434 30c4 0100     		.2byte	0x1
 19435 30c6 53       		.byte	0x53
 19436 30c7 10000000 		.4byte	.LVL813
 19437 30cb 58010000 		.4byte	.LFE40
 19438 30cf 0400     		.2byte	0x4
 19439 30d1 F3       		.byte	0xf3
 19440 30d2 01       		.uleb128 0x1
 19441 30d3 53       		.byte	0x53
ARM GAS  C:\Users\rdn\AppData\Local\Temp\cciiQw7C.s 			page 379


 19442 30d4 9F       		.byte	0x9f
 19443 30d5 00000000 		.4byte	0
 19444 30d9 00000000 		.4byte	0
 19445              	.LLST352:
 19446 30dd 40000000 		.4byte	.LVL820
 19447 30e1 40010000 		.4byte	.LVL849
 19448 30e5 0100     		.2byte	0x1
 19449 30e7 55       		.byte	0x55
 19450 30e8 00000000 		.4byte	0
 19451 30ec 00000000 		.4byte	0
 19452              	.LLST353:
 19453 30f0 52000000 		.4byte	.LVL822
 19454 30f4 57000000 		.4byte	.LVL823-1
 19455 30f8 0100     		.2byte	0x1
 19456 30fa 50       		.byte	0x50
 19457 30fb 60000000 		.4byte	.LVL825
 19458 30ff 64000000 		.4byte	.LVL826
 19459 3103 0100     		.2byte	0x1
 19460 3105 50       		.byte	0x50
 19461 3106 64000000 		.4byte	.LVL826
 19462 310a 7C000000 		.4byte	.LVL830
 19463 310e 0100     		.2byte	0x1
 19464 3110 57       		.byte	0x57
 19465 3111 7C000000 		.4byte	.LVL830
 19466 3115 80000000 		.4byte	.LVL831
 19467 3119 0100     		.2byte	0x1
 19468 311b 50       		.byte	0x50
 19469 311c 80000000 		.4byte	.LVL831
 19470 3120 58010000 		.4byte	.LFE40
 19471 3124 0200     		.2byte	0x2
 19472 3126 91       		.byte	0x91
 19473 3127 54       		.sleb128 -44
 19474 3128 00000000 		.4byte	0
 19475 312c 00000000 		.4byte	0
 19476              	.LLST354:
 19477 3130 86000000 		.4byte	.LVL833
 19478 3134 A6000000 		.4byte	.LVL834
 19479 3138 0100     		.2byte	0x1
 19480 313a 50       		.byte	0x50
 19481 313b A6000000 		.4byte	.LVL834
 19482 313f 26010000 		.4byte	.LVL847
 19483 3143 0100     		.2byte	0x1
 19484 3145 57       		.byte	0x57
 19485 3146 00000000 		.4byte	0
 19486 314a 00000000 		.4byte	0
 19487              	.LLST355:
 19488 314e AC000000 		.4byte	.LVL836
 19489 3152 BA000000 		.4byte	.LVL837
 19490 3156 0100     		.2byte	0x1
 19491 3158 50       		.byte	0x50
 19492 3159 BA000000 		.4byte	.LVL837
 19493 315d BD000000 		.4byte	.LVL838-1
 19494 3161 0100     		.2byte	0x1
 19495 3163 52       		.byte	0x52
 19496 3164 BD000000 		.4byte	.LVL838-1
 19497 3168 40010000 		.4byte	.LVL850
 19498 316c 0100     		.2byte	0x1
ARM GAS  C:\Users\rdn\AppData\Local\Temp\cciiQw7C.s 			page 380


 19499 316e 5B       		.byte	0x5b
 19500 316f 00000000 		.4byte	0
 19501 3173 00000000 		.4byte	0
 19502              	.LLST356:
 19503 3177 D4000000 		.4byte	.LVL840
 19504 317b 0C010000 		.4byte	.LVL841
 19505 317f 0100     		.2byte	0x1
 19506 3181 50       		.byte	0x50
 19507 3182 0C010000 		.4byte	.LVL841
 19508 3186 0F010000 		.4byte	.LVL842-1
 19509 318a 0100     		.2byte	0x1
 19510 318c 53       		.byte	0x53
 19511 318d 00000000 		.4byte	0
 19512 3191 00000000 		.4byte	0
 19513              	.LLST357:
 19514 3195 12010000 		.4byte	.LVL843
 19515 3199 1E010000 		.4byte	.LVL844
 19516 319d 0100     		.2byte	0x1
 19517 319f 50       		.byte	0x50
 19518 31a0 1E010000 		.4byte	.LVL844
 19519 31a4 21010000 		.4byte	.LVL845-1
 19520 31a8 0100     		.2byte	0x1
 19521 31aa 52       		.byte	0x52
 19522 31ab 21010000 		.4byte	.LVL845-1
 19523 31af 24010000 		.4byte	.LVL846
 19524 31b3 0100     		.2byte	0x1
 19525 31b5 56       		.byte	0x56
 19526 31b6 00000000 		.4byte	0
 19527 31ba 00000000 		.4byte	0
 19528              	.LLST358:
 19529 31be 00000000 		.4byte	.LVL851
 19530 31c2 06000000 		.4byte	.LVL852
 19531 31c6 0100     		.2byte	0x1
 19532 31c8 50       		.byte	0x50
 19533 31c9 06000000 		.4byte	.LVL852
 19534 31cd 74000000 		.4byte	.LVL870
 19535 31d1 0100     		.2byte	0x1
 19536 31d3 54       		.byte	0x54
 19537 31d4 74000000 		.4byte	.LVL870
 19538 31d8 76000000 		.4byte	.LFE41
 19539 31dc 0400     		.2byte	0x4
 19540 31de F3       		.byte	0xf3
 19541 31df 01       		.uleb128 0x1
 19542 31e0 50       		.byte	0x50
 19543 31e1 9F       		.byte	0x9f
 19544 31e2 00000000 		.4byte	0
 19545 31e6 00000000 		.4byte	0
 19546              	.LLST359:
 19547 31ea 00000000 		.4byte	.LVL851
 19548 31ee 0A000000 		.4byte	.LVL853
 19549 31f2 0100     		.2byte	0x1
 19550 31f4 51       		.byte	0x51
 19551 31f5 0A000000 		.4byte	.LVL853
 19552 31f9 76000000 		.4byte	.LFE41
 19553 31fd 0400     		.2byte	0x4
 19554 31ff F3       		.byte	0xf3
 19555 3200 01       		.uleb128 0x1
ARM GAS  C:\Users\rdn\AppData\Local\Temp\cciiQw7C.s 			page 381


 19556 3201 51       		.byte	0x51
 19557 3202 9F       		.byte	0x9f
 19558 3203 00000000 		.4byte	0
 19559 3207 00000000 		.4byte	0
 19560              	.LLST360:
 19561 320b 00000000 		.4byte	.LVL851
 19562 320f 0D000000 		.4byte	.LVL854-1
 19563 3213 0100     		.2byte	0x1
 19564 3215 52       		.byte	0x52
 19565 3216 0D000000 		.4byte	.LVL854-1
 19566 321a 76000000 		.4byte	.LFE41
 19567 321e 0400     		.2byte	0x4
 19568 3220 F3       		.byte	0xf3
 19569 3221 01       		.uleb128 0x1
 19570 3222 52       		.byte	0x52
 19571 3223 9F       		.byte	0x9f
 19572 3224 00000000 		.4byte	0
 19573 3228 00000000 		.4byte	0
 19574              	.LLST361:
 19575 322c 00000000 		.4byte	.LVL851
 19576 3230 0D000000 		.4byte	.LVL854-1
 19577 3234 0100     		.2byte	0x1
 19578 3236 53       		.byte	0x53
 19579 3237 0D000000 		.4byte	.LVL854-1
 19580 323b 74000000 		.4byte	.LVL871
 19581 323f 0100     		.2byte	0x1
 19582 3241 55       		.byte	0x55
 19583 3242 74000000 		.4byte	.LVL871
 19584 3246 76000000 		.4byte	.LFE41
 19585 324a 0400     		.2byte	0x4
 19586 324c F3       		.byte	0xf3
 19587 324d 01       		.uleb128 0x1
 19588 324e 53       		.byte	0x53
 19589 324f 9F       		.byte	0x9f
 19590 3250 00000000 		.4byte	0
 19591 3254 00000000 		.4byte	0
 19592              	.LLST362:
 19593 3258 0E000000 		.4byte	.LVL854
 19594 325c 32000000 		.4byte	.LVL858
 19595 3260 0100     		.2byte	0x1
 19596 3262 50       		.byte	0x50
 19597 3263 32000000 		.4byte	.LVL858
 19598 3267 35000000 		.4byte	.LVL859-1
 19599 326b 0100     		.2byte	0x1
 19600 326d 52       		.byte	0x52
 19601 326e 00000000 		.4byte	0
 19602 3272 00000000 		.4byte	0
 19603              	.LLST363:
 19604 3276 1A000000 		.4byte	.LVL855
 19605 327a 32000000 		.4byte	.LVL858
 19606 327e 0100     		.2byte	0x1
 19607 3280 50       		.byte	0x50
 19608 3281 32000000 		.4byte	.LVL858
 19609 3285 35000000 		.4byte	.LVL859-1
 19610 3289 0100     		.2byte	0x1
 19611 328b 52       		.byte	0x52
 19612 328c 00000000 		.4byte	0
ARM GAS  C:\Users\rdn\AppData\Local\Temp\cciiQw7C.s 			page 382


 19613 3290 00000000 		.4byte	0
 19614              	.LLST364:
 19615 3294 1A000000 		.4byte	.LVL855
 19616 3298 24000000 		.4byte	.LVL856
 19617 329c 0100     		.2byte	0x1
 19618 329e 51       		.byte	0x51
 19619 329f 2E000000 		.4byte	.LVL857
 19620 32a3 35000000 		.4byte	.LVL859-1
 19621 32a7 0100     		.2byte	0x1
 19622 32a9 51       		.byte	0x51
 19623 32aa 00000000 		.4byte	0
 19624 32ae 00000000 		.4byte	0
 19625              	.LLST365:
 19626 32b2 1A000000 		.4byte	.LVL855
 19627 32b6 36000000 		.4byte	.LVL859
 19628 32ba 0100     		.2byte	0x1
 19629 32bc 54       		.byte	0x54
 19630 32bd 00000000 		.4byte	0
 19631 32c1 00000000 		.4byte	0
 19632              	.LLST366:
 19633 32c5 1A000000 		.4byte	.LVL855
 19634 32c9 74000000 		.4byte	.LVL870
 19635 32cd 0300     		.2byte	0x3
 19636 32cf 74       		.byte	0x74
 19637 32d0 1C       		.sleb128 28
 19638 32d1 9F       		.byte	0x9f
 19639 32d2 74000000 		.4byte	.LVL870
 19640 32d6 76000000 		.4byte	.LFE41
 19641 32da 0600     		.2byte	0x6
 19642 32dc F3       		.byte	0xf3
 19643 32dd 01       		.uleb128 0x1
 19644 32de 50       		.byte	0x50
 19645 32df 23       		.byte	0x23
 19646 32e0 1C       		.uleb128 0x1c
 19647 32e1 9F       		.byte	0x9f
 19648 32e2 00000000 		.4byte	0
 19649 32e6 00000000 		.4byte	0
 19650              	.LLST367:
 19651 32ea 38000000 		.4byte	.LVL860
 19652 32ee 54000000 		.4byte	.LVL864
 19653 32f2 0200     		.2byte	0x2
 19654 32f4 31       		.byte	0x31
 19655 32f5 9F       		.byte	0x9f
 19656 32f6 00000000 		.4byte	0
 19657 32fa 00000000 		.4byte	0
 19658              	.LLST368:
 19659 32fe 38000000 		.4byte	.LVL860
 19660 3302 42000000 		.4byte	.LVL861
 19661 3306 0100     		.2byte	0x1
 19662 3308 51       		.byte	0x51
 19663 3309 42000000 		.4byte	.LVL861
 19664 330d 48000000 		.4byte	.LVL862
 19665 3311 0800     		.2byte	0x8
 19666 3313 75       		.byte	0x75
 19667 3314 08       		.sleb128 8
 19668 3315 94       		.byte	0x94
 19669 3316 01       		.byte	0x1
ARM GAS  C:\Users\rdn\AppData\Local\Temp\cciiQw7C.s 			page 383


 19670 3317 08       		.byte	0x8
 19671 3318 FF       		.byte	0xff
 19672 3319 1A       		.byte	0x1a
 19673 331a 9F       		.byte	0x9f
 19674 331b 4C000000 		.4byte	.LVL863
 19675 331f 53000000 		.4byte	.LVL864-1
 19676 3323 0100     		.2byte	0x1
 19677 3325 51       		.byte	0x51
 19678 3326 00000000 		.4byte	0
 19679 332a 00000000 		.4byte	0
 19680              	.LLST369:
 19681 332e 38000000 		.4byte	.LVL860
 19682 3332 54000000 		.4byte	.LVL864
 19683 3336 0100     		.2byte	0x1
 19684 3338 54       		.byte	0x54
 19685 3339 00000000 		.4byte	0
 19686 333d 00000000 		.4byte	0
 19687              	.LLST370:
 19688 3341 38000000 		.4byte	.LVL860
 19689 3345 74000000 		.4byte	.LVL870
 19690 3349 0300     		.2byte	0x3
 19691 334b 74       		.byte	0x74
 19692 334c 1C       		.sleb128 28
 19693 334d 9F       		.byte	0x9f
 19694 334e 74000000 		.4byte	.LVL870
 19695 3352 76000000 		.4byte	.LFE41
 19696 3356 0600     		.2byte	0x6
 19697 3358 F3       		.byte	0xf3
 19698 3359 01       		.uleb128 0x1
 19699 335a 50       		.byte	0x50
 19700 335b 23       		.byte	0x23
 19701 335c 1C       		.uleb128 0x1c
 19702 335d 9F       		.byte	0x9f
 19703 335e 00000000 		.4byte	0
 19704 3362 00000000 		.4byte	0
 19705              	.LLST371:
 19706 3366 56000000 		.4byte	.LVL865
 19707 336a 74000000 		.4byte	.LVL869
 19708 336e 0200     		.2byte	0x2
 19709 3370 38       		.byte	0x38
 19710 3371 9F       		.byte	0x9f
 19711 3372 00000000 		.4byte	0
 19712 3376 00000000 		.4byte	0
 19713              	.LLST372:
 19714 337a 56000000 		.4byte	.LVL865
 19715 337e 62000000 		.4byte	.LVL866
 19716 3382 0100     		.2byte	0x1
 19717 3384 51       		.byte	0x51
 19718 3385 62000000 		.4byte	.LVL866
 19719 3389 68000000 		.4byte	.LVL867
 19720 338d 0200     		.2byte	0x2
 19721 338f 75       		.byte	0x75
 19722 3390 00       		.sleb128 0
 19723 3391 6C000000 		.4byte	.LVL868
 19724 3395 73000000 		.4byte	.LVL869-1
 19725 3399 0100     		.2byte	0x1
 19726 339b 51       		.byte	0x51
ARM GAS  C:\Users\rdn\AppData\Local\Temp\cciiQw7C.s 			page 384


 19727 339c 00000000 		.4byte	0
 19728 33a0 00000000 		.4byte	0
 19729              	.LLST373:
 19730 33a4 56000000 		.4byte	.LVL865
 19731 33a8 74000000 		.4byte	.LVL869
 19732 33ac 0100     		.2byte	0x1
 19733 33ae 54       		.byte	0x54
 19734 33af 00000000 		.4byte	0
 19735 33b3 00000000 		.4byte	0
 19736              	.LLST374:
 19737 33b7 56000000 		.4byte	.LVL865
 19738 33bb 74000000 		.4byte	.LVL870
 19739 33bf 0300     		.2byte	0x3
 19740 33c1 74       		.byte	0x74
 19741 33c2 1C       		.sleb128 28
 19742 33c3 9F       		.byte	0x9f
 19743 33c4 74000000 		.4byte	.LVL870
 19744 33c8 76000000 		.4byte	.LFE41
 19745 33cc 0600     		.2byte	0x6
 19746 33ce F3       		.byte	0xf3
 19747 33cf 01       		.uleb128 0x1
 19748 33d0 50       		.byte	0x50
 19749 33d1 23       		.byte	0x23
 19750 33d2 1C       		.uleb128 0x1c
 19751 33d3 9F       		.byte	0x9f
 19752 33d4 00000000 		.4byte	0
 19753 33d8 00000000 		.4byte	0
 19754              	.LLST375:
 19755 33dc 00000000 		.4byte	.LVL872
 19756 33e0 08000000 		.4byte	.LVL873
 19757 33e4 0100     		.2byte	0x1
 19758 33e6 50       		.byte	0x50
 19759 33e7 08000000 		.4byte	.LVL873
 19760 33eb 6E000000 		.4byte	.LFE42
 19761 33ef 0200     		.2byte	0x2
 19762 33f1 91       		.byte	0x91
 19763 33f2 60       		.sleb128 -32
 19764 33f3 00000000 		.4byte	0
 19765 33f7 00000000 		.4byte	0
 19766              	.LLST376:
 19767 33fb 00000000 		.4byte	.LVL872
 19768 33ff 0C000000 		.4byte	.LVL874
 19769 3403 0100     		.2byte	0x1
 19770 3405 51       		.byte	0x51
 19771 3406 0C000000 		.4byte	.LVL874
 19772 340a 6E000000 		.4byte	.LFE42
 19773 340e 0400     		.2byte	0x4
 19774 3410 F3       		.byte	0xf3
 19775 3411 01       		.uleb128 0x1
 19776 3412 51       		.byte	0x51
 19777 3413 9F       		.byte	0x9f
 19778 3414 00000000 		.4byte	0
 19779 3418 00000000 		.4byte	0
 19780              	.LLST377:
 19781 341c 00000000 		.4byte	.LVL872
 19782 3420 20000000 		.4byte	.LVL879
 19783 3424 0100     		.2byte	0x1
ARM GAS  C:\Users\rdn\AppData\Local\Temp\cciiQw7C.s 			page 385


 19784 3426 52       		.byte	0x52
 19785 3427 20000000 		.4byte	.LVL879
 19786 342b 6E000000 		.4byte	.LFE42
 19787 342f 0400     		.2byte	0x4
 19788 3431 F3       		.byte	0xf3
 19789 3432 01       		.uleb128 0x1
 19790 3433 52       		.byte	0x52
 19791 3434 9F       		.byte	0x9f
 19792 3435 00000000 		.4byte	0
 19793 3439 00000000 		.4byte	0
 19794              	.LLST378:
 19795 343d 00000000 		.4byte	.LVL872
 19796 3441 0E000000 		.4byte	.LVL875
 19797 3445 0100     		.2byte	0x1
 19798 3447 53       		.byte	0x53
 19799 3448 0E000000 		.4byte	.LVL875
 19800 344c 6E000000 		.4byte	.LFE42
 19801 3450 0400     		.2byte	0x4
 19802 3452 F3       		.byte	0xf3
 19803 3453 01       		.uleb128 0x1
 19804 3454 53       		.byte	0x53
 19805 3455 9F       		.byte	0x9f
 19806 3456 00000000 		.4byte	0
 19807 345a 00000000 		.4byte	0
 19808              	.LLST379:
 19809 345e 10000000 		.4byte	.LVL876
 19810 3462 6C000000 		.4byte	.LVL890
 19811 3466 0100     		.2byte	0x1
 19812 3468 55       		.byte	0x55
 19813 3469 00000000 		.4byte	0
 19814 346d 00000000 		.4byte	0
 19815              	.LLST380:
 19816 3471 12000000 		.4byte	.LVL877
 19817 3475 6C000000 		.4byte	.LVL891
 19818 3479 0100     		.2byte	0x1
 19819 347b 56       		.byte	0x56
 19820 347c 00000000 		.4byte	0
 19821 3480 00000000 		.4byte	0
 19822              	.LLST381:
 19823 3484 4C000000 		.4byte	.LVL884
 19824 3488 58000000 		.4byte	.LVL885
 19825 348c 0100     		.2byte	0x1
 19826 348e 50       		.byte	0x50
 19827 348f 58000000 		.4byte	.LVL885
 19828 3493 5B000000 		.4byte	.LVL886-1
 19829 3497 0100     		.2byte	0x1
 19830 3499 51       		.byte	0x51
 19831 349a 5E000000 		.4byte	.LVL887
 19832 349e 66000000 		.4byte	.LVL888
 19833 34a2 0100     		.2byte	0x1
 19834 34a4 50       		.byte	0x50
 19835 34a5 66000000 		.4byte	.LVL888
 19836 34a9 69000000 		.4byte	.LVL889-1
 19837 34ad 0100     		.2byte	0x1
 19838 34af 51       		.byte	0x51
 19839 34b0 00000000 		.4byte	0
 19840 34b4 00000000 		.4byte	0
ARM GAS  C:\Users\rdn\AppData\Local\Temp\cciiQw7C.s 			page 386


 19841              	.LLST382:
 19842 34b8 12000000 		.4byte	.LVL877
 19843 34bc 1A000000 		.4byte	.LVL878
 19844 34c0 0100     		.2byte	0x1
 19845 34c2 52       		.byte	0x52
 19846 34c3 00000000 		.4byte	0
 19847 34c7 00000000 		.4byte	0
 19848              	.LLST383:
 19849 34cb 00000000 		.4byte	.LVL892
 19850 34cf 0E000000 		.4byte	.LVL894
 19851 34d3 0100     		.2byte	0x1
 19852 34d5 50       		.byte	0x50
 19853 34d6 0E000000 		.4byte	.LVL894
 19854 34da 98000000 		.4byte	.LVL912
 19855 34de 0100     		.2byte	0x1
 19856 34e0 54       		.byte	0x54
 19857 34e1 98000000 		.4byte	.LVL912
 19858 34e5 A0000000 		.4byte	.LFE43
 19859 34e9 0400     		.2byte	0x4
 19860 34eb F3       		.byte	0xf3
 19861 34ec 01       		.uleb128 0x1
 19862 34ed 50       		.byte	0x50
 19863 34ee 9F       		.byte	0x9f
 19864 34ef 00000000 		.4byte	0
 19865 34f3 00000000 		.4byte	0
 19866              	.LLST384:
 19867 34f7 00000000 		.4byte	.LVL892
 19868 34fb 0C000000 		.4byte	.LVL893
 19869 34ff 0100     		.2byte	0x1
 19870 3501 51       		.byte	0x51
 19871 3502 0C000000 		.4byte	.LVL893
 19872 3506 A0000000 		.4byte	.LFE43
 19873 350a 0400     		.2byte	0x4
 19874 350c F3       		.byte	0xf3
 19875 350d 01       		.uleb128 0x1
 19876 350e 51       		.byte	0x51
 19877 350f 9F       		.byte	0x9f
 19878 3510 00000000 		.4byte	0
 19879 3514 00000000 		.4byte	0
 19880              	.LLST385:
 19881 3518 00000000 		.4byte	.LVL892
 19882 351c 11000000 		.4byte	.LVL895-1
 19883 3520 0100     		.2byte	0x1
 19884 3522 52       		.byte	0x52
 19885 3523 11000000 		.4byte	.LVL895-1
 19886 3527 A0000000 		.4byte	.LFE43
 19887 352b 0400     		.2byte	0x4
 19888 352d F3       		.byte	0xf3
 19889 352e 01       		.uleb128 0x1
 19890 352f 52       		.byte	0x52
 19891 3530 9F       		.byte	0x9f
 19892 3531 00000000 		.4byte	0
 19893 3535 00000000 		.4byte	0
 19894              	.LLST386:
 19895 3539 00000000 		.4byte	.LVL892
 19896 353d 11000000 		.4byte	.LVL895-1
 19897 3541 0100     		.2byte	0x1
ARM GAS  C:\Users\rdn\AppData\Local\Temp\cciiQw7C.s 			page 387


 19898 3543 53       		.byte	0x53
 19899 3544 11000000 		.4byte	.LVL895-1
 19900 3548 98000000 		.4byte	.LVL913
 19901 354c 0100     		.2byte	0x1
 19902 354e 56       		.byte	0x56
 19903 354f 98000000 		.4byte	.LVL913
 19904 3553 A0000000 		.4byte	.LFE43
 19905 3557 0400     		.2byte	0x4
 19906 3559 F3       		.byte	0xf3
 19907 355a 01       		.uleb128 0x1
 19908 355b 53       		.byte	0x53
 19909 355c 9F       		.byte	0x9f
 19910 355d 00000000 		.4byte	0
 19911 3561 00000000 		.4byte	0
 19912              	.LLST387:
 19913 3565 12000000 		.4byte	.LVL895
 19914 3569 30000000 		.4byte	.LVL899
 19915 356d 0100     		.2byte	0x1
 19916 356f 50       		.byte	0x50
 19917 3570 38000000 		.4byte	.LVL901
 19918 3574 3C000000 		.4byte	.LVL902
 19919 3578 0100     		.2byte	0x1
 19920 357a 50       		.byte	0x50
 19921 357b 3C000000 		.4byte	.LVL902
 19922 357f 3F000000 		.4byte	.LVL903-1
 19923 3583 0100     		.2byte	0x1
 19924 3585 51       		.byte	0x51
 19925 3586 00000000 		.4byte	0
 19926 358a 00000000 		.4byte	0
 19927              	.LLST388:
 19928 358e 12000000 		.4byte	.LVL895
 19929 3592 14000000 		.4byte	.LVL896
 19930 3596 0100     		.2byte	0x1
 19931 3598 55       		.byte	0x55
 19932 3599 00000000 		.4byte	0
 19933 359d 00000000 		.4byte	0
 19934              	.LLST389:
 19935 35a1 12000000 		.4byte	.LVL895
 19936 35a5 1A000000 		.4byte	.LVL897
 19937 35a9 0100     		.2byte	0x1
 19938 35ab 57       		.byte	0x57
 19939 35ac 00000000 		.4byte	0
 19940 35b0 00000000 		.4byte	0
 19941              	.LLST390:
 19942 35b4 1C000000 		.4byte	.LVL898
 19943 35b8 30000000 		.4byte	.LVL899
 19944 35bc 0100     		.2byte	0x1
 19945 35be 50       		.byte	0x50
 19946 35bf 38000000 		.4byte	.LVL901
 19947 35c3 3C000000 		.4byte	.LVL902
 19948 35c7 0100     		.2byte	0x1
 19949 35c9 50       		.byte	0x50
 19950 35ca 3C000000 		.4byte	.LVL902
 19951 35ce 3F000000 		.4byte	.LVL903-1
 19952 35d2 0100     		.2byte	0x1
 19953 35d4 51       		.byte	0x51
 19954 35d5 00000000 		.4byte	0
ARM GAS  C:\Users\rdn\AppData\Local\Temp\cciiQw7C.s 			page 388


 19955 35d9 00000000 		.4byte	0
 19956              	.LLST391:
 19957 35dd 1C000000 		.4byte	.LVL898
 19958 35e1 40000000 		.4byte	.LVL903
 19959 35e5 0100     		.2byte	0x1
 19960 35e7 54       		.byte	0x54
 19961 35e8 00000000 		.4byte	0
 19962 35ec 00000000 		.4byte	0
 19963              	.LLST392:
 19964 35f0 1C000000 		.4byte	.LVL898
 19965 35f4 98000000 		.4byte	.LVL912
 19966 35f8 0300     		.2byte	0x3
 19967 35fa 74       		.byte	0x74
 19968 35fb 1C       		.sleb128 28
 19969 35fc 9F       		.byte	0x9f
 19970 35fd 98000000 		.4byte	.LVL912
 19971 3601 A0000000 		.4byte	.LFE43
 19972 3605 0600     		.2byte	0x6
 19973 3607 F3       		.byte	0xf3
 19974 3608 01       		.uleb128 0x1
 19975 3609 50       		.byte	0x50
 19976 360a 23       		.byte	0x23
 19977 360b 1C       		.uleb128 0x1c
 19978 360c 9F       		.byte	0x9f
 19979 360d 00000000 		.4byte	0
 19980 3611 00000000 		.4byte	0
 19981              	.LLST393:
 19982 3615 34000000 		.4byte	.LVL900
 19983 3619 38000000 		.4byte	.LVL901
 19984 361d 0100     		.2byte	0x1
 19985 361f 50       		.byte	0x50
 19986 3620 00000000 		.4byte	0
 19987 3624 00000000 		.4byte	0
 19988              	.LLST394:
 19989 3628 46000000 		.4byte	.LVL904
 19990 362c 62000000 		.4byte	.LVL907
 19991 3630 0100     		.2byte	0x1
 19992 3632 54       		.byte	0x54
 19993 3633 00000000 		.4byte	0
 19994 3637 00000000 		.4byte	0
 19995              	.LLST395:
 19996 363b 46000000 		.4byte	.LVL904
 19997 363f 62000000 		.4byte	.LVL907
 19998 3643 0200     		.2byte	0x2
 19999 3645 31       		.byte	0x31
 20000 3646 9F       		.byte	0x9f
 20001 3647 00000000 		.4byte	0
 20002 364b 00000000 		.4byte	0
 20003              	.LLST397:
 20004 364f 46000000 		.4byte	.LVL904
 20005 3653 98000000 		.4byte	.LVL912
 20006 3657 0300     		.2byte	0x3
 20007 3659 74       		.byte	0x74
 20008 365a 1C       		.sleb128 28
 20009 365b 9F       		.byte	0x9f
 20010 365c 98000000 		.4byte	.LVL912
 20011 3660 A0000000 		.4byte	.LFE43
ARM GAS  C:\Users\rdn\AppData\Local\Temp\cciiQw7C.s 			page 389


 20012 3664 0600     		.2byte	0x6
 20013 3666 F3       		.byte	0xf3
 20014 3667 01       		.uleb128 0x1
 20015 3668 50       		.byte	0x50
 20016 3669 23       		.byte	0x23
 20017 366a 1C       		.uleb128 0x1c
 20018 366b 9F       		.byte	0x9f
 20019 366c 00000000 		.4byte	0
 20020 3670 00000000 		.4byte	0
 20021              	.LLST398:
 20022 3674 56000000 		.4byte	.LVL905
 20023 3678 5A000000 		.4byte	.LVL906
 20024 367c 0100     		.2byte	0x1
 20025 367e 50       		.byte	0x50
 20026 367f 00000000 		.4byte	0
 20027 3683 00000000 		.4byte	0
 20028              	.LLST399:
 20029 3687 68000000 		.4byte	.LVL908
 20030 368b 86000000 		.4byte	.LVL911
 20031 368f 0200     		.2byte	0x2
 20032 3691 38       		.byte	0x38
 20033 3692 9F       		.byte	0x9f
 20034 3693 00000000 		.4byte	0
 20035 3697 00000000 		.4byte	0
 20036              	.LLST400:
 20037 369b 68000000 		.4byte	.LVL908
 20038 369f 86000000 		.4byte	.LVL911
 20039 36a3 0100     		.2byte	0x1
 20040 36a5 54       		.byte	0x54
 20041 36a6 00000000 		.4byte	0
 20042 36aa 00000000 		.4byte	0
 20043              	.LLST401:
 20044 36ae 68000000 		.4byte	.LVL908
 20045 36b2 98000000 		.4byte	.LVL912
 20046 36b6 0300     		.2byte	0x3
 20047 36b8 74       		.byte	0x74
 20048 36b9 1C       		.sleb128 28
 20049 36ba 9F       		.byte	0x9f
 20050 36bb 98000000 		.4byte	.LVL912
 20051 36bf A0000000 		.4byte	.LFE43
 20052 36c3 0600     		.2byte	0x6
 20053 36c5 F3       		.byte	0xf3
 20054 36c6 01       		.uleb128 0x1
 20055 36c7 50       		.byte	0x50
 20056 36c8 23       		.byte	0x23
 20057 36c9 1C       		.uleb128 0x1c
 20058 36ca 9F       		.byte	0x9f
 20059 36cb 00000000 		.4byte	0
 20060 36cf 00000000 		.4byte	0
 20061              	.LLST402:
 20062 36d3 7A000000 		.4byte	.LVL909
 20063 36d7 7E000000 		.4byte	.LVL910
 20064 36db 0100     		.2byte	0x1
 20065 36dd 50       		.byte	0x50
 20066 36de 00000000 		.4byte	0
 20067 36e2 00000000 		.4byte	0
 20068              	.LLST403:
ARM GAS  C:\Users\rdn\AppData\Local\Temp\cciiQw7C.s 			page 390


 20069 36e6 00000000 		.4byte	.LVL914
 20070 36ea 17000000 		.4byte	.LVL917-1
 20071 36ee 0100     		.2byte	0x1
 20072 36f0 50       		.byte	0x50
 20073 36f1 17000000 		.4byte	.LVL917-1
 20074 36f5 1E000000 		.4byte	.LVL919
 20075 36f9 0200     		.2byte	0x2
 20076 36fb 91       		.byte	0x91
 20077 36fc 50       		.sleb128 -48
 20078 36fd 1E000000 		.4byte	.LVL919
 20079 3701 2E000000 		.4byte	.LVL920
 20080 3705 0200     		.2byte	0x2
 20081 3707 72       		.byte	0x72
 20082 3708 00       		.sleb128 0
 20083 3709 2E000000 		.4byte	.LVL920
 20084 370d 35000000 		.4byte	.LVL922-1
 20085 3711 0200     		.2byte	0x2
 20086 3713 7C       		.byte	0x7c
 20087 3714 00       		.sleb128 0
 20088 3715 35000000 		.4byte	.LVL922-1
 20089 3719 48000000 		.4byte	.LVL925
 20090 371d 0200     		.2byte	0x2
 20091 371f 91       		.byte	0x91
 20092 3720 50       		.sleb128 -48
 20093 3721 48000000 		.4byte	.LVL925
 20094 3725 52000000 		.4byte	.LVL926
 20095 3729 0200     		.2byte	0x2
 20096 372b 72       		.byte	0x72
 20097 372c 00       		.sleb128 0
 20098 372d 52000000 		.4byte	.LVL926
 20099 3731 59000000 		.4byte	.LVL928-1
 20100 3735 0200     		.2byte	0x2
 20101 3737 7C       		.byte	0x7c
 20102 3738 00       		.sleb128 0
 20103 3739 59000000 		.4byte	.LVL928-1
 20104 373d B8000000 		.4byte	.LVL941
 20105 3741 0200     		.2byte	0x2
 20106 3743 91       		.byte	0x91
 20107 3744 50       		.sleb128 -48
 20108 3745 B8000000 		.4byte	.LVL941
 20109 3749 C6000000 		.4byte	.LVL942
 20110 374d 0200     		.2byte	0x2
 20111 374f 72       		.byte	0x72
 20112 3750 00       		.sleb128 0
 20113 3751 C6000000 		.4byte	.LVL942
 20114 3755 CD000000 		.4byte	.LVL943-1
 20115 3759 0200     		.2byte	0x2
 20116 375b 7C       		.byte	0x7c
 20117 375c 00       		.sleb128 0
 20118 375d CD000000 		.4byte	.LVL943-1
 20119 3761 D8000000 		.4byte	.LFE44
 20120 3765 0200     		.2byte	0x2
 20121 3767 91       		.byte	0x91
 20122 3768 50       		.sleb128 -48
 20123 3769 00000000 		.4byte	0
 20124 376d 00000000 		.4byte	0
 20125              	.LLST404:
ARM GAS  C:\Users\rdn\AppData\Local\Temp\cciiQw7C.s 			page 391


 20126 3771 00000000 		.4byte	.LVL914
 20127 3775 17000000 		.4byte	.LVL917-1
 20128 3779 0100     		.2byte	0x1
 20129 377b 51       		.byte	0x51
 20130 377c 17000000 		.4byte	.LVL917-1
 20131 3780 D8000000 		.4byte	.LFE44
 20132 3784 0400     		.2byte	0x4
 20133 3786 F3       		.byte	0xf3
 20134 3787 01       		.uleb128 0x1
 20135 3788 51       		.byte	0x51
 20136 3789 9F       		.byte	0x9f
 20137 378a 00000000 		.4byte	0
 20138 378e 00000000 		.4byte	0
 20139              	.LLST405:
 20140 3792 00000000 		.4byte	.LVL914
 20141 3796 17000000 		.4byte	.LVL917-1
 20142 379a 0100     		.2byte	0x1
 20143 379c 52       		.byte	0x52
 20144 379d 17000000 		.4byte	.LVL917-1
 20145 37a1 D8000000 		.4byte	.LFE44
 20146 37a5 0400     		.2byte	0x4
 20147 37a7 F3       		.byte	0xf3
 20148 37a8 01       		.uleb128 0x1
 20149 37a9 52       		.byte	0x52
 20150 37aa 9F       		.byte	0x9f
 20151 37ab 00000000 		.4byte	0
 20152 37af 00000000 		.4byte	0
 20153              	.LLST406:
 20154 37b3 00000000 		.4byte	.LVL914
 20155 37b7 17000000 		.4byte	.LVL917-1
 20156 37bb 0100     		.2byte	0x1
 20157 37bd 53       		.byte	0x53
 20158 37be 17000000 		.4byte	.LVL917-1
 20159 37c2 D8000000 		.4byte	.LFE44
 20160 37c6 0400     		.2byte	0x4
 20161 37c8 F3       		.byte	0xf3
 20162 37c9 01       		.uleb128 0x1
 20163 37ca 53       		.byte	0x53
 20164 37cb 9F       		.byte	0x9f
 20165 37cc 00000000 		.4byte	0
 20166 37d0 00000000 		.4byte	0
 20167              	.LLST407:
 20168 37d4 10000000 		.4byte	.LVL915
 20169 37d8 74000000 		.4byte	.LVL933
 20170 37dc 0100     		.2byte	0x1
 20171 37de 55       		.byte	0x55
 20172 37df 00000000 		.4byte	0
 20173 37e3 00000000 		.4byte	0
 20174              	.LLST408:
 20175 37e7 12000000 		.4byte	.LVL916
 20176 37eb D6000000 		.4byte	.LVL945
 20177 37ef 0100     		.2byte	0x1
 20178 37f1 57       		.byte	0x57
 20179 37f2 00000000 		.4byte	0
 20180 37f6 00000000 		.4byte	0
 20181              	.LLST409:
 20182 37fa 12000000 		.4byte	.LVL916
ARM GAS  C:\Users\rdn\AppData\Local\Temp\cciiQw7C.s 			page 392


 20183 37fe 36000000 		.4byte	.LVL922
 20184 3802 0200     		.2byte	0x2
 20185 3804 30       		.byte	0x30
 20186 3805 9F       		.byte	0x9f
 20187 3806 36000000 		.4byte	.LVL922
 20188 380a 3C000000 		.4byte	.LVL923
 20189 380e 0100     		.2byte	0x1
 20190 3810 50       		.byte	0x50
 20191 3811 00000000 		.4byte	0
 20192 3815 00000000 		.4byte	0
 20193              	.LLST410:
 20194 3819 1A000000 		.4byte	.LVL918
 20195 381d 32000000 		.4byte	.LVL921
 20196 3821 0100     		.2byte	0x1
 20197 3823 50       		.byte	0x50
 20198 3824 32000000 		.4byte	.LVL921
 20199 3828 D8000000 		.4byte	.LFE44
 20200 382c 0200     		.2byte	0x2
 20201 382e 91       		.byte	0x91
 20202 382f 58       		.sleb128 -40
 20203 3830 00000000 		.4byte	0
 20204 3834 00000000 		.4byte	0
 20205              	.LLST411:
 20206 3838 40000000 		.4byte	.LVL924
 20207 383c 56000000 		.4byte	.LVL927
 20208 3840 0100     		.2byte	0x1
 20209 3842 50       		.byte	0x50
 20210 3843 56000000 		.4byte	.LVL927
 20211 3847 59000000 		.4byte	.LVL928-1
 20212 384b 0100     		.2byte	0x1
 20213 384d 51       		.byte	0x51
 20214 384e 5C000000 		.4byte	.LVL929
 20215 3852 6E000000 		.4byte	.LVL931
 20216 3856 0100     		.2byte	0x1
 20217 3858 50       		.byte	0x50
 20218 3859 6E000000 		.4byte	.LVL931
 20219 385d 71000000 		.4byte	.LVL932-1
 20220 3861 0100     		.2byte	0x1
 20221 3863 51       		.byte	0x51
 20222 3864 00000000 		.4byte	0
 20223 3868 00000000 		.4byte	0
 20224              	.LLST412:
 20225 386c 7E000000 		.4byte	.LVL935
 20226 3870 89000000 		.4byte	.LVL936-1
 20227 3874 0100     		.2byte	0x1
 20228 3876 52       		.byte	0x52
 20229 3877 00000000 		.4byte	0
 20230 387b 00000000 		.4byte	0
 20231              	.LLST413:
 20232 387f 8C000000 		.4byte	.LVL937
 20233 3883 94000000 		.4byte	.LVL938
 20234 3887 0100     		.2byte	0x1
 20235 3889 50       		.byte	0x50
 20236 388a 94000000 		.4byte	.LVL938
 20237 388e D4000000 		.4byte	.LVL944
 20238 3892 0100     		.2byte	0x1
 20239 3894 55       		.byte	0x55
ARM GAS  C:\Users\rdn\AppData\Local\Temp\cciiQw7C.s 			page 393


 20240 3895 00000000 		.4byte	0
 20241 3899 00000000 		.4byte	0
 20242              	.LLST414:
 20243 389d 5C000000 		.4byte	.LVL929
 20244 38a1 66000000 		.4byte	.LVL930
 20245 38a5 0200     		.2byte	0x2
 20246 38a7 91       		.byte	0x91
 20247 38a8 4C       		.sleb128 -52
 20248 38a9 00000000 		.4byte	0
 20249 38ad 00000000 		.4byte	0
 20250              		.section	.debug_aranges,"",%progbits
 20251 0000 DC000000 		.4byte	0xdc
 20252 0004 0200     		.2byte	0x2
 20253 0006 00000000 		.4byte	.Ldebug_info0
 20254 000a 04       		.byte	0x4
 20255 000b 00       		.byte	0
 20256 000c 0000     		.2byte	0
 20257 000e 0000     		.2byte	0
 20258 0010 00000000 		.4byte	.LFB20
 20259 0014 3A000000 		.4byte	.LFE20-.LFB20
 20260 0018 00000000 		.4byte	.LFB21
 20261 001c 3C000000 		.4byte	.LFE21-.LFB21
 20262 0020 00000000 		.4byte	.LFB23
 20263 0024 1C010000 		.4byte	.LFE23-.LFB23
 20264 0028 00000000 		.4byte	.LFB24
 20265 002c B0000000 		.4byte	.LFE24-.LFB24
 20266 0030 00000000 		.4byte	.LFB25
 20267 0034 5C000000 		.4byte	.LFE25-.LFB25
 20268 0038 00000000 		.4byte	.LFB26
 20269 003c 48000000 		.4byte	.LFE26-.LFB26
 20270 0040 00000000 		.4byte	.LFB27
 20271 0044 70020000 		.4byte	.LFE27-.LFB27
 20272 0048 00000000 		.4byte	.LFB34
 20273 004c 18010000 		.4byte	.LFE34-.LFB34
 20274 0050 00000000 		.4byte	.LFB35
 20275 0054 10010000 		.4byte	.LFE35-.LFB35
 20276 0058 00000000 		.4byte	.LFB38
 20277 005c 4C000000 		.4byte	.LFE38-.LFB38
 20278 0060 00000000 		.4byte	.LFB39
 20279 0064 2E000000 		.4byte	.LFE39-.LFB39
 20280 0068 00000000 		.4byte	.LFB22
 20281 006c B4040000 		.4byte	.LFE22-.LFB22
 20282 0070 00000000 		.4byte	.LFB36
 20283 0074 1E000000 		.4byte	.LFE36-.LFB36
 20284 0078 00000000 		.4byte	.LFB37
 20285 007c 24000000 		.4byte	.LFE37-.LFB37
 20286 0080 00000000 		.4byte	.LFB30
 20287 0084 28010000 		.4byte	.LFE30-.LFB30
 20288 0088 00000000 		.4byte	.LFB31
 20289 008c 1C010000 		.4byte	.LFE31-.LFB31
 20290 0090 00000000 		.4byte	.LFB28
 20291 0094 00030000 		.4byte	.LFE28-.LFB28
 20292 0098 00000000 		.4byte	.LFB32
 20293 009c 82010000 		.4byte	.LFE32-.LFB32
 20294 00a0 00000000 		.4byte	.LFB29
 20295 00a4 36040000 		.4byte	.LFE29-.LFB29
 20296 00a8 00000000 		.4byte	.LFB33
ARM GAS  C:\Users\rdn\AppData\Local\Temp\cciiQw7C.s 			page 394


 20297 00ac D8010000 		.4byte	.LFE33-.LFB33
 20298 00b0 00000000 		.4byte	.LFB40
 20299 00b4 58010000 		.4byte	.LFE40-.LFB40
 20300 00b8 00000000 		.4byte	.LFB41
 20301 00bc 76000000 		.4byte	.LFE41-.LFB41
 20302 00c0 00000000 		.4byte	.LFB42
 20303 00c4 6E000000 		.4byte	.LFE42-.LFB42
 20304 00c8 00000000 		.4byte	.LFB43
 20305 00cc A0000000 		.4byte	.LFE43-.LFB43
 20306 00d0 00000000 		.4byte	.LFB44
 20307 00d4 D8000000 		.4byte	.LFE44-.LFB44
 20308 00d8 00000000 		.4byte	0
 20309 00dc 00000000 		.4byte	0
 20310              		.section	.debug_ranges,"",%progbits
 20311              	.Ldebug_ranges0:
 20312 0000 44000000 		.4byte	.LBB111
 20313 0004 4A000000 		.4byte	.LBE111
 20314 0008 58000000 		.4byte	.LBB114
 20315 000c EE010000 		.4byte	.LBE114
 20316 0010 00000000 		.4byte	0
 20317 0014 00000000 		.4byte	0
 20318 0018 8E000000 		.4byte	.LBB143
 20319 001c 90000000 		.4byte	.LBE143
 20320 0020 A4000000 		.4byte	.LBB144
 20321 0024 7A010000 		.4byte	.LBE144
 20322 0028 00000000 		.4byte	0
 20323 002c 00000000 		.4byte	0
 20324 0030 BA010000 		.4byte	.LBB145
 20325 0034 BC010000 		.4byte	.LBE145
 20326 0038 CA010000 		.4byte	.LBB147
 20327 003c 40020000 		.4byte	.LBE147
 20328 0040 00000000 		.4byte	0
 20329 0044 00000000 		.4byte	0
 20330 0048 6C030000 		.4byte	.LBB155
 20331 004c 70030000 		.4byte	.LBE155
 20332 0050 72030000 		.4byte	.LBB158
 20333 0054 1C040000 		.4byte	.LBE158
 20334 0058 00000000 		.4byte	0
 20335 005c 00000000 		.4byte	0
 20336 0060 3C000000 		.4byte	.LBB173
 20337 0064 E0000000 		.4byte	.LBE173
 20338 0068 E2000000 		.4byte	.LBB179
 20339 006c EC000000 		.4byte	.LBE179
 20340 0070 00000000 		.4byte	0
 20341 0074 00000000 		.4byte	0
 20342 0078 44000000 		.4byte	.LBB188
 20343 007c BE000000 		.4byte	.LBE188
 20344 0080 C8000000 		.4byte	.LBB194
 20345 0084 D8000000 		.4byte	.LBE194
 20346 0088 00000000 		.4byte	0
 20347 008c 00000000 		.4byte	0
 20348 0090 34000000 		.4byte	.LBB224
 20349 0094 3A000000 		.4byte	.LBE224
 20350 0098 3C000000 		.4byte	.LBB249
 20351 009c E0020000 		.4byte	.LBE249
 20352 00a0 00000000 		.4byte	0
 20353 00a4 00000000 		.4byte	0
ARM GAS  C:\Users\rdn\AppData\Local\Temp\cciiQw7C.s 			page 395


 20354 00a8 BA000000 		.4byte	.LBB274
 20355 00ac D2000000 		.4byte	.LBE274
 20356 00b0 D6000000 		.4byte	.LBB281
 20357 00b4 E0000000 		.4byte	.LBE281
 20358 00b8 00000000 		.4byte	0
 20359 00bc 00000000 		.4byte	0
 20360 00c0 BA000000 		.4byte	.LBB276
 20361 00c4 D2000000 		.4byte	.LBE276
 20362 00c8 D6000000 		.4byte	.LBB279
 20363 00cc E0000000 		.4byte	.LBE279
 20364 00d0 00000000 		.4byte	0
 20365 00d4 00000000 		.4byte	0
 20366 00d8 BA000000 		.4byte	.LBB277
 20367 00dc D2000000 		.4byte	.LBE277
 20368 00e0 D6000000 		.4byte	.LBB278
 20369 00e4 E0000000 		.4byte	.LBE278
 20370 00e8 00000000 		.4byte	0
 20371 00ec 00000000 		.4byte	0
 20372 00f0 38010000 		.4byte	.LBB286
 20373 00f4 50010000 		.4byte	.LBE286
 20374 00f8 54010000 		.4byte	.LBB293
 20375 00fc 5E010000 		.4byte	.LBE293
 20376 0100 00000000 		.4byte	0
 20377 0104 00000000 		.4byte	0
 20378 0108 38010000 		.4byte	.LBB288
 20379 010c 50010000 		.4byte	.LBE288
 20380 0110 54010000 		.4byte	.LBB291
 20381 0114 5E010000 		.4byte	.LBE291
 20382 0118 00000000 		.4byte	0
 20383 011c 00000000 		.4byte	0
 20384 0120 38010000 		.4byte	.LBB289
 20385 0124 50010000 		.4byte	.LBE289
 20386 0128 54010000 		.4byte	.LBB290
 20387 012c 5E010000 		.4byte	.LBE290
 20388 0130 00000000 		.4byte	0
 20389 0134 00000000 		.4byte	0
 20390 0138 3E000000 		.4byte	.LBB327
 20391 013c 40000000 		.4byte	.LBE327
 20392 0140 44000000 		.4byte	.LBB360
 20393 0144 20040000 		.4byte	.LBE360
 20394 0148 22040000 		.4byte	.LBB361
 20395 014c 28040000 		.4byte	.LBE361
 20396 0150 00000000 		.4byte	0
 20397 0154 00000000 		.4byte	0
 20398 0158 46000000 		.4byte	.LBB328
 20399 015c 12040000 		.4byte	.LBE328
 20400 0160 24040000 		.4byte	.LBB359
 20401 0164 28040000 		.4byte	.LBE359
 20402 0168 00000000 		.4byte	0
 20403 016c 00000000 		.4byte	0
 20404 0170 5A000000 		.4byte	.LBB329
 20405 0174 F0030000 		.4byte	.LBE329
 20406 0178 24040000 		.4byte	.LBB358
 20407 017c 28040000 		.4byte	.LBE358
 20408 0180 00000000 		.4byte	0
 20409 0184 00000000 		.4byte	0
 20410 0188 E2010000 		.4byte	.LBB334
ARM GAS  C:\Users\rdn\AppData\Local\Temp\cciiQw7C.s 			page 396


 20411 018c EA010000 		.4byte	.LBE334
 20412 0190 4C020000 		.4byte	.LBB347
 20413 0194 EA020000 		.4byte	.LBE347
 20414 0198 00000000 		.4byte	0
 20415 019c 00000000 		.4byte	0
 20416 01a0 00000000 		.4byte	.LFB20
 20417 01a4 3A000000 		.4byte	.LFE20
 20418 01a8 00000000 		.4byte	.LFB21
 20419 01ac 3C000000 		.4byte	.LFE21
 20420 01b0 00000000 		.4byte	.LFB23
 20421 01b4 1C010000 		.4byte	.LFE23
 20422 01b8 00000000 		.4byte	.LFB24
 20423 01bc B0000000 		.4byte	.LFE24
 20424 01c0 00000000 		.4byte	.LFB25
 20425 01c4 5C000000 		.4byte	.LFE25
 20426 01c8 00000000 		.4byte	.LFB26
 20427 01cc 48000000 		.4byte	.LFE26
 20428 01d0 00000000 		.4byte	.LFB27
 20429 01d4 70020000 		.4byte	.LFE27
 20430 01d8 00000000 		.4byte	.LFB34
 20431 01dc 18010000 		.4byte	.LFE34
 20432 01e0 00000000 		.4byte	.LFB35
 20433 01e4 10010000 		.4byte	.LFE35
 20434 01e8 00000000 		.4byte	.LFB38
 20435 01ec 4C000000 		.4byte	.LFE38
 20436 01f0 00000000 		.4byte	.LFB39
 20437 01f4 2E000000 		.4byte	.LFE39
 20438 01f8 00000000 		.4byte	.LFB22
 20439 01fc B4040000 		.4byte	.LFE22
 20440 0200 00000000 		.4byte	.LFB36
 20441 0204 1E000000 		.4byte	.LFE36
 20442 0208 00000000 		.4byte	.LFB37
 20443 020c 24000000 		.4byte	.LFE37
 20444 0210 00000000 		.4byte	.LFB30
 20445 0214 28010000 		.4byte	.LFE30
 20446 0218 00000000 		.4byte	.LFB31
 20447 021c 1C010000 		.4byte	.LFE31
 20448 0220 00000000 		.4byte	.LFB28
 20449 0224 00030000 		.4byte	.LFE28
 20450 0228 00000000 		.4byte	.LFB32
 20451 022c 82010000 		.4byte	.LFE32
 20452 0230 00000000 		.4byte	.LFB29
 20453 0234 36040000 		.4byte	.LFE29
 20454 0238 00000000 		.4byte	.LFB33
 20455 023c D8010000 		.4byte	.LFE33
 20456 0240 00000000 		.4byte	.LFB40
 20457 0244 58010000 		.4byte	.LFE40
 20458 0248 00000000 		.4byte	.LFB41
 20459 024c 76000000 		.4byte	.LFE41
 20460 0250 00000000 		.4byte	.LFB42
 20461 0254 6E000000 		.4byte	.LFE42
 20462 0258 00000000 		.4byte	.LFB43
 20463 025c A0000000 		.4byte	.LFE43
 20464 0260 00000000 		.4byte	.LFB44
 20465 0264 D8000000 		.4byte	.LFE44
 20466 0268 00000000 		.4byte	0
 20467 026c 00000000 		.4byte	0
ARM GAS  C:\Users\rdn\AppData\Local\Temp\cciiQw7C.s 			page 397


 20468              		.section	.debug_line,"",%progbits
 20469              	.Ldebug_line0:
 20470 0000 CD0D0000 		.section	.debug_str,"MS",%progbits,1
 20470      02002302 
 20470      00000201 
 20470      FB0E0D00 
 20470      01010101 
 20471              	.LASF131:
 20472 0000 6B5F3230 		.ascii	"k_20_28\000"
 20472      5F323800 
 20473              	.LASF153:
 20474 0008 6765745F 		.ascii	"get_quantized\000"
 20474      7175616E 
 20474      74697A65 
 20474      6400
 20475              	.LASF27:
 20476 0016 4C43335F 		.ascii	"LC3_SRATE_24K\000"
 20476      53524154 
 20476      455F3234 
 20476      4B00
 20477              	.LASF132:
 20478 0024 6B5F3275 		.ascii	"k_2u7\000"
 20478      3700
 20479              	.LASF46:
 20480 002a 4C43335F 		.ascii	"LC3_BANDWIDTH_FB_HR\000"
 20480      42414E44 
 20480      57494454 
 20480      485F4642 
 20480      5F485200 
 20481              	.LASF42:
 20482 003e 4C43335F 		.ascii	"LC3_BANDWIDTH_WB\000"
 20482      42414E44 
 20482      57494454 
 20482      485F5742 
 20482      00
 20483              	.LASF160:
 20484 004f 6E626974 		.ascii	"nbits_nf\000"
 20484      735F6E66 
 20484      00
 20485              	.LASF150:
 20486 0058 7075745F 		.ascii	"put_quantized\000"
 20486      7175616E 
 20486      74697A65 
 20486      6400
 20487              	.LASF75:
 20488 0066 72635F6F 		.ascii	"rc_order\000"
 20488      72646572 
 20488      00
 20489              	.LASF63:
 20490 006f 6C63335F 		.ascii	"lc3_bits_buffer\000"
 20490      62697473 
 20490      5F627566 
 20490      66657200 
 20491              	.LASF70:
 20492 007f 62756666 		.ascii	"buffer\000"
 20492      657200
 20493              	.LASF170:
ARM GAS  C:\Users\rdn\AppData\Local\Temp\cciiQw7C.s 			page 398


 20494 0086 6C63335F 		.ascii	"lc3_ne_2m5\000"
 20494      6E655F32 
 20494      6D3500
 20495              	.LASF13:
 20496 0091 756E7369 		.ascii	"unsigned int\000"
 20496      676E6564 
 20496      20696E74 
 20496      00
 20497              	.LASF29:
 20498 009e 4C43335F 		.ascii	"LC3_SRATE_48K\000"
 20498      53524154 
 20498      455F3438 
 20498      4B00
 20499              	.LASF122:
 20500 00ac 6765745F 		.ascii	"get_nbits_ac\000"
 20500      6E626974 
 20500      735F6163 
 20500      00
 20501              	.LASF148:
 20502 00b9 6D6F6465 		.ascii	"model\000"
 20502      6C00
 20503              	.LASF90:
 20504 00bf 7265736F 		.ascii	"resolve_gain_offset\000"
 20504      6C76655F 
 20504      6761696E 
 20504      5F6F6666 
 20504      73657400 
 20505              	.LASF61:
 20506 00d3 63617272 		.ascii	"carry_count\000"
 20506      795F636F 
 20506      756E7400 
 20507              	.LASF7:
 20508 00df 5F5F696E 		.ascii	"__int32_t\000"
 20508      7433325F 
 20508      7400
 20509              	.LASF84:
 20510 00e9 6C63335F 		.ascii	"lc3_db_q16\000"
 20510      64625F71 
 20510      313600
 20511              	.LASF158:
 20512 00f4 73696465 		.ascii	"side\000"
 20512      00
 20513              	.LASF86:
 20514 00f9 6C63335F 		.ascii	"lc3_get_bits\000"
 20514      6765745F 
 20514      62697473 
 20514      00
 20515              	.LASF76:
 20516 0106 6C63335F 		.ascii	"lc3_tns_data_t\000"
 20516      746E735F 
 20516      64617461 
 20516      5F7400
 20517              	.LASF62:
 20518 0115 6572726F 		.ascii	"error\000"
 20518      7200
 20519              	.LASF68:
 20520 011b 6D6F6465 		.ascii	"mode\000"
ARM GAS  C:\Users\rdn\AppData\Local\Temp\cciiQw7C.s 			page 399


 20520      00
 20521              	.LASF23:
 20522 0120 6C63335F 		.ascii	"lc3_dt\000"
 20522      647400
 20523              	.LASF168:
 20524 0127 6C63335F 		.ascii	"lc3_spec_decode\000"
 20524      73706563 
 20524      5F646563 
 20524      6F646500 
 20525              	.LASF30:
 20526 0137 4C43335F 		.ascii	"LC3_SRATE_48K_HR\000"
 20526      53524154 
 20526      455F3438 
 20526      4B5F4852 
 20526      00
 20527              	.LASF88:
 20528 0148 73725F69 		.ascii	"sr_ind\000"
 20528      6E6400
 20529              	.LASF171:
 20530 014f 6C63335F 		.ascii	"lc3_ns_4m\000"
 20530      6E735F34 
 20530      6D00
 20531              	.LASF184:
 20532 0159 6C63335F 		.ascii	"lc3_ac_write_renorm\000"
 20532      61635F77 
 20532      72697465 
 20532      5F72656E 
 20532      6F726D00 
 20533              	.LASF49:
 20534 016d 6C63335F 		.ascii	"lc3_bits_mode\000"
 20534      62697473 
 20534      5F6D6F64 
 20534      6500
 20535              	.LASF108:
 20536 017b 6E626974 		.ascii	"nbits_lsb\000"
 20536      735F6C73 
 20536      6200
 20537              	.LASF169:
 20538 0185 6C63335F 		.ascii	"lc3_ns_2m5\000"
 20538      6E735F32 
 20538      6D3500
 20539              	.LASF72:
 20540 0190 6C63335F 		.ascii	"lc3_tns_data\000"
 20540      746E735F 
 20540      64617461 
 20540      00
 20541              	.LASF78:
 20542 019d 675F6964 		.ascii	"g_idx\000"
 20542      7800
 20543              	.LASF80:
 20544 01a3 6C63335F 		.ascii	"lc3_spec_side_t\000"
 20544      73706563 
 20544      5F736964 
 20544      655F7400 
 20545              	.LASF19:
 20546 01b3 4C43335F 		.ascii	"LC3_DT_5M\000"
 20546      44545F35 
ARM GAS  C:\Users\rdn\AppData\Local\Temp\cciiQw7C.s 			page 400


 20546      4D00
 20547              	.LASF17:
 20548 01bd 75696E74 		.ascii	"uint32_t\000"
 20548      33325F74 
 20548      00
 20549              	.LASF83:
 20550 01c6 6C63335F 		.ascii	"lc3_ldexpf\000"
 20550      6C646578 
 20550      706600
 20551              	.LASF137:
 20552 01d1 7075745F 		.ascii	"put_noise_factor\000"
 20552      6E6F6973 
 20552      655F6661 
 20552      63746F72 
 20552      00
 20553              	.LASF0:
 20554 01e2 666C6F61 		.ascii	"float\000"
 20554      7400
 20555              	.LASF192:
 20556 01e8 474E5520 		.ascii	"GNU C11 5.4.1 20160609 (release) [ARM/embedded-5-br"
 20556      43313120 
 20556      352E342E 
 20556      31203230 
 20556      31363036 
 20557 021b 616E6368 		.ascii	"anch revision 237715] -mcpu=cortex-m0plus -mthumb -"
 20557      20726576 
 20557      6973696F 
 20557      6E203233 
 20557      37373135 
 20558 024e 67202D4F 		.ascii	"g -Og -ffunction-sections -ffat-lto-objects\000"
 20558      67202D66 
 20558      66756E63 
 20558      74696F6E 
 20558      2D736563 
 20559              	.LASF110:
 20560 027a 6E626974 		.ascii	"nbits_end\000"
 20560      735F656E 
 20560      6400
 20561              	.LASF105:
 20562 0284 705F6C73 		.ascii	"p_lsb_mode\000"
 20562      625F6D6F 
 20562      646500
 20563              	.LASF60:
 20564 028f 63617272 		.ascii	"carry\000"
 20564      7900
 20565              	.LASF175:
 20566 0295 6C63335F 		.ascii	"lc3_spectrum_bits\000"
 20566      73706563 
 20566      7472756D 
 20566      5F626974 
 20566      7300
 20567              	.LASF12:
 20568 02a7 6C6F6E67 		.ascii	"long long unsigned int\000"
 20568      206C6F6E 
 20568      6720756E 
 20568      7369676E 
 20568      65642069 
ARM GAS  C:\Users\rdn\AppData\Local\Temp\cciiQw7C.s 			page 401


 20569              	.LASF107:
 20570 02be 68696768 		.ascii	"high_rate\000"
 20570      5F726174 
 20570      6500
 20571              	.LASF156:
 20572 02c8 70697463 		.ascii	"pitch\000"
 20572      6800
 20573              	.LASF190:
 20574 02ce 666D696E 		.ascii	"fminf\000"
 20574      6600
 20575              	.LASF167:
 20576 02d4 6C63335F 		.ascii	"lc3_spec_get_side\000"
 20576      73706563 
 20576      5F676574 
 20576      5F736964 
 20576      6500
 20577              	.LASF5:
 20578 02e6 5F5F7569 		.ascii	"__uint16_t\000"
 20578      6E743136 
 20578      5F7400
 20579              	.LASF140:
 20580 02f1 6C63335F 		.ascii	"lc3_put_bit\000"
 20580      7075745F 
 20580      62697400 
 20581              	.LASF28:
 20582 02fd 4C43335F 		.ascii	"LC3_SRATE_32K\000"
 20582      53524154 
 20582      455F3332 
 20582      4B00
 20583              	.LASF127:
 20584 030b 7265675F 		.ascii	"reg_bits\000"
 20584      62697473 
 20584      00
 20585              	.LASF22:
 20586 0314 4C43335F 		.ascii	"LC3_NUM_DT\000"
 20586      4E554D5F 
 20586      445400
 20587              	.LASF139:
 20588 031f 6C63335F 		.ascii	"lc3_put_bits\000"
 20588      7075745F 
 20588      62697473 
 20588      00
 20589              	.LASF129:
 20590 032c 78325F6D 		.ascii	"x2_max\000"
 20590      617800
 20591              	.LASF187:
 20592 0333 6C63335F 		.ascii	"lc3_ltpf_get_nbits\000"
 20592      6C747066 
 20592      5F676574 
 20592      5F6E6269 
 20592      747300
 20593              	.LASF182:
 20594 0346 6C63335F 		.ascii	"lc3_get_bits_generic\000"
 20594      6765745F 
 20594      62697473 
 20594      5F67656E 
 20594      65726963 
ARM GAS  C:\Users\rdn\AppData\Local\Temp\cciiQw7C.s 			page 402


 20595              	.LASF33:
 20596 035b 5F426F6F 		.ascii	"_Bool\000"
 20596      6C00
 20597              	.LASF113:
 20598 0361 78715F6F 		.ascii	"xq_off\000"
 20598      666600
 20599              	.LASF117:
 20600 0368 78715F6C 		.ascii	"xq_lim\000"
 20600      696D00
 20601              	.LASF97:
 20602 036f 675F6964 		.ascii	"g_idx_min\000"
 20602      785F6D69 
 20602      6E00
 20603              	.LASF71:
 20604 0379 6C63335F 		.ascii	"lc3_bits_t\000"
 20604      62697473 
 20604      5F7400
 20605              	.LASF128:
 20606 0384 6C6F775F 		.ascii	"low_bits\000"
 20606      62697473 
 20606      00
 20607              	.LASF193:
 20608 038d 2E2E5C2E 		.ascii	"..\\..\\..\\liblc3\\src\\spec.c\000"
 20608      2E5C2E2E 
 20608      5C6C6962 
 20608      6C63335C 
 20608      7372635C 
 20609              	.LASF81:
 20610 03a8 6C63335F 		.ascii	"lc3_hr\000"
 20610      687200
 20611              	.LASF145:
 20612 03af 78715F6F 		.ascii	"xq_off_1\000"
 20612      66665F31 
 20612      00
 20613              	.LASF146:
 20614 03b8 78715F6F 		.ascii	"xq_off_2\000"
 20614      66665F32 
 20614      00
 20615              	.LASF69:
 20616 03c1 61636375 		.ascii	"accu\000"
 20616      00
 20617              	.LASF38:
 20618 03c6 63686172 		.ascii	"char\000"
 20618      00
 20619              	.LASF163:
 20620 03cb 6C63335F 		.ascii	"lc3_spec_put_side\000"
 20620      73706563 
 20620      5F707574 
 20620      5F736964 
 20620      6500
 20621              	.LASF56:
 20622 03dd 6C63335F 		.ascii	"lc3_bits_accu\000"
 20622      62697473 
 20622      5F616363 
 20622      7500
 20623              	.LASF36:
 20624 03eb 6E626974 		.ascii	"nbits_spare\000"
ARM GAS  C:\Users\rdn\AppData\Local\Temp\cciiQw7C.s 			page 403


 20624      735F7370 
 20624      61726500 
 20625              	.LASF194:
 20626 03f7 433A5C55 		.ascii	"C:\\Users\\rdn\\Documents\\PSoC Creator\\SEES\\ble_"
 20626      73657273 
 20626      5C72646E 
 20626      5C446F63 
 20626      756D656E 
 20627 0424 74657374 		.ascii	"test.cydsn\000"
 20627      2E637964 
 20627      736E00
 20628              	.LASF57:
 20629 042f 6E6F7665 		.ascii	"nover\000"
 20629      7200
 20630              	.LASF41:
 20631 0435 4C43335F 		.ascii	"LC3_BANDWIDTH_NB\000"
 20631      42414E44 
 20631      57494454 
 20631      485F4E42 
 20631      00
 20632              	.LASF188:
 20633 0446 6C63335F 		.ascii	"lc3_sns_get_nbits\000"
 20633      736E735F 
 20633      6765745F 
 20633      6E626974 
 20633      7300
 20634              	.LASF14:
 20635 0458 75696E74 		.ascii	"uint8_t\000"
 20635      385F7400 
 20636              	.LASF114:
 20637 0460 65737469 		.ascii	"estimate_noise\000"
 20637      6D617465 
 20637      5F6E6F69 
 20637      736500
 20638              	.LASF161:
 20639 046f 675F6164 		.ascii	"g_adj\000"
 20639      6A00
 20640              	.LASF66:
 20641 0475 705F6277 		.ascii	"p_bw\000"
 20641      00
 20642              	.LASF85:
 20643 047a 62697473 		.ascii	"bits\000"
 20643      00
 20644              	.LASF115:
 20645 047f 68726D6F 		.ascii	"hrmode\000"
 20645      646500
 20646              	.LASF119:
 20647 0486 66696C6C 		.ascii	"fill_noise\000"
 20647      5F6E6F69 
 20647      736500
 20648              	.LASF173:
 20649 0491 6C63335F 		.ascii	"lc3_spectrum_lookup\000"
 20649      73706563 
 20649      7472756D 
 20649      5F6C6F6F 
 20649      6B757000 
 20650              	.LASF11:
ARM GAS  C:\Users\rdn\AppData\Local\Temp\cciiQw7C.s 			page 404


 20651 04a5 6C6F6E67 		.ascii	"long long int\000"
 20651      206C6F6E 
 20651      6720696E 
 20651      7400
 20652              	.LASF96:
 20653 04b3 6E626974 		.ascii	"nbits_budget\000"
 20653      735F6275 
 20653      64676574 
 20653      00
 20654              	.LASF164:
 20655 04c0 6E626974 		.ascii	"nbits_nq\000"
 20655      735F6E71 
 20655      00
 20656              	.LASF53:
 20657 04c9 6C63335F 		.ascii	"lc3_ac_symbol\000"
 20657      61635F73 
 20657      796D626F 
 20657      6C00
 20658              	.LASF143:
 20659 04d7 6C63335F 		.ascii	"lc3_get_bit\000"
 20659      6765745F 
 20659      62697400 
 20660              	.LASF35:
 20661 04e3 6E626974 		.ascii	"nbits_off\000"
 20661      735F6F66 
 20661      6600
 20662              	.LASF124:
 20663 04ed 65737469 		.ascii	"estimate_gain\000"
 20663      6D617465 
 20663      5F676169 
 20663      6E00
 20664              	.LASF95:
 20665 04fb 6E626974 		.ascii	"nbits\000"
 20665      7300
 20666              	.LASF44:
 20667 0501 4C43335F 		.ascii	"LC3_BANDWIDTH_SWB\000"
 20667      42414E44 
 20667      57494454 
 20667      485F5357 
 20667      4200
 20668              	.LASF154:
 20669 0513 6D61785F 		.ascii	"max_shl\000"
 20669      73686C00 
 20670              	.LASF177:
 20671 051b 6D656D73 		.ascii	"memset\000"
 20671      657400
 20672              	.LASF87:
 20673 0522 6E627974 		.ascii	"nbytes\000"
 20673      657300
 20674              	.LASF138:
 20675 0529 6765745F 		.ascii	"get_noise_factor\000"
 20675      6E6F6973 
 20675      655F6661 
 20675      63746F72 
 20675      00
 20676              	.LASF54:
 20677 053a 72616E67 		.ascii	"range\000"
ARM GAS  C:\Users\rdn\AppData\Local\Temp\cciiQw7C.s 			page 405


 20677      6500
 20678              	.LASF185:
 20679 0540 6C63335F 		.ascii	"lc3_ac_read_renorm\000"
 20679      61635F72 
 20679      6561645F 
 20679      72656E6F 
 20679      726D00
 20680              	.LASF135:
 20681 0553 7265675F 		.ascii	"reg_c\000"
 20681      6300
 20682              	.LASF147:
 20683 0559 6C63335F 		.ascii	"lc3_put_symbol\000"
 20683      7075745F 
 20683      73796D62 
 20683      6F6C00
 20684              	.LASF120:
 20685 0568 6E665F73 		.ascii	"nf_seed\000"
 20685      65656400 
 20686              	.LASF181:
 20687 0570 6C63335F 		.ascii	"lc3_put_bits_generic\000"
 20687      7075745F 
 20687      62697473 
 20687      5F67656E 
 20687      65726963 
 20688              	.LASF151:
 20689 0585 7075745F 		.ascii	"put_lsb\000"
 20689      6C736200 
 20690              	.LASF178:
 20691 058d 726F756E 		.ascii	"roundf\000"
 20691      646600
 20692              	.LASF100:
 20693 0594 675F696E 		.ascii	"g_incr\000"
 20693      637200
 20694              	.LASF47:
 20695 059b 4C43335F 		.ascii	"LC3_BANDWIDTH_UB_HR\000"
 20695      42414E44 
 20695      57494454 
 20695      485F5542 
 20695      5F485200 
 20696              	.LASF59:
 20697 05af 63616368 		.ascii	"cache\000"
 20697      6500
 20698              	.LASF77:
 20699 05b5 6C63335F 		.ascii	"lc3_spec_side\000"
 20699      73706563 
 20699      5F736964 
 20699      6500
 20700              	.LASF67:
 20701 05c3 6C63335F 		.ascii	"lc3_bits\000"
 20701      62697473 
 20701      00
 20702              	.LASF159:
 20703 05cc 6E626974 		.ascii	"nbits_gain\000"
 20703      735F6761 
 20703      696E00
 20704              	.LASF79:
 20705 05d7 6C73625F 		.ascii	"lsb_mode\000"
ARM GAS  C:\Users\rdn\AppData\Local\Temp\cciiQw7C.s 			page 406


 20705      6D6F6465 
 20705      00
 20706              	.LASF37:
 20707 05e0 6C6F6E67 		.ascii	"long double\000"
 20707      20646F75 
 20707      626C6500 
 20708              	.LASF121:
 20709 05ec 6765745F 		.ascii	"get_nbits_nq\000"
 20709      6E626974 
 20709      735F6E71 
 20709      00
 20710              	.LASF15:
 20711 05f9 75696E74 		.ascii	"uint16_t\000"
 20711      31365F74 
 20711      00
 20712              	.LASF133:
 20713 0602 6B5F3175 		.ascii	"k_1u4\000"
 20713      3400
 20714              	.LASF136:
 20715 0608 655F6469 		.ascii	"e_diff\000"
 20715      666600
 20716              	.LASF104:
 20717 060f 7265736F 		.ascii	"resolve_modes\000"
 20717      6C76655F 
 20717      6D6F6465 
 20717      7300
 20718              	.LASF32:
 20719 061d 4C43335F 		.ascii	"LC3_NUM_SRATE\000"
 20719      4E554D5F 
 20719      53524154 
 20719      4500
 20720              	.LASF149:
 20721 062b 73796D62 		.ascii	"symbols\000"
 20721      6F6C7300 
 20722              	.LASF20:
 20723 0633 4C43335F 		.ascii	"LC3_DT_7M5\000"
 20723      44545F37 
 20723      4D3500
 20724              	.LASF134:
 20725 063e 785F6C69 		.ascii	"x_lim\000"
 20725      6D00
 20726              	.LASF3:
 20727 0644 73686F72 		.ascii	"short int\000"
 20727      7420696E 
 20727      7400
 20728              	.LASF18:
 20729 064e 4C43335F 		.ascii	"LC3_DT_2M5\000"
 20729      44545F32 
 20729      4D3500
 20730              	.LASF93:
 20731 0659 69715F74 		.ascii	"iq_table\000"
 20731      61626C65 
 20731      00
 20732              	.LASF89:
 20733 0662 675F6F66 		.ascii	"g_off\000"
 20733      6600
 20734              	.LASF8:
ARM GAS  C:\Users\rdn\AppData\Local\Temp\cciiQw7C.s 			page 407


 20735 0668 6C6F6E67 		.ascii	"long int\000"
 20735      20696E74 
 20735      00
 20736              	.LASF91:
 20737 0671 756E7175 		.ascii	"unquantize_gain\000"
 20737      616E7469 
 20737      7A655F67 
 20737      61696E00 
 20738              	.LASF174:
 20739 0681 6C63335F 		.ascii	"lc3_spectrum_models\000"
 20739      73706563 
 20739      7472756D 
 20739      5F6D6F64 
 20739      656C7300 
 20740              	.LASF55:
 20741 0695 6C63335F 		.ascii	"lc3_ac_model\000"
 20741      61635F6D 
 20741      6F64656C 
 20741      00
 20742              	.LASF165:
 20743 06a2 6C63335F 		.ascii	"lc3_spec_encode\000"
 20743      73706563 
 20743      5F656E63 
 20743      6F646500 
 20744              	.LASF183:
 20745 06b2 7472756E 		.ascii	"truncf\000"
 20745      636600
 20746              	.LASF179:
 20747 06b9 666D6178 		.ascii	"fmaxf\000"
 20747      6600
 20748              	.LASF51:
 20749 06bf 4C43335F 		.ascii	"LC3_BITS_MODE_WRITE\000"
 20749      42495453 
 20749      5F4D4F44 
 20749      455F5752 
 20749      49544500 
 20750              	.LASF4:
 20751 06d3 5F5F7569 		.ascii	"__uint8_t\000"
 20751      6E74385F 
 20751      7400
 20752              	.LASF118:
 20753 06dd 7175616E 		.ascii	"quantize\000"
 20753      74697A65 
 20753      00
 20754              	.LASF112:
 20755 06e6 6C75745F 		.ascii	"lut_coeff\000"
 20755      636F6566 
 20755      6600
 20756              	.LASF64:
 20757 06f0 73746172 		.ascii	"start\000"
 20757      7400
 20758              	.LASF26:
 20759 06f6 4C43335F 		.ascii	"LC3_SRATE_16K\000"
 20759      53524154 
 20759      455F3136 
 20759      4B00
 20760              	.LASF126:
ARM GAS  C:\Users\rdn\AppData\Local\Temp\cciiQw7C.s 			page 408


 20761 0704 675F6D69 		.ascii	"g_min\000"
 20761      6E00
 20762              	.LASF102:
 20763 070a 78715F6D 		.ascii	"xq_min\000"
 20763      696E00
 20764              	.LASF21:
 20765 0711 4C43335F 		.ascii	"LC3_DT_10M\000"
 20765      44545F31 
 20765      304D00
 20766              	.LASF73:
 20767 071c 6E66696C 		.ascii	"nfilters\000"
 20767      74657273 
 20767      00
 20768              	.LASF74:
 20769 0725 6C70635F 		.ascii	"lpc_weighting\000"
 20769      77656967 
 20769      6874696E 
 20769      6700
 20770              	.LASF43:
 20771 0733 4C43335F 		.ascii	"LC3_BANDWIDTH_SSWB\000"
 20771      42414E44 
 20771      57494454 
 20771      485F5353 
 20771      574200
 20772              	.LASF34:
 20773 0746 73697A65 		.ascii	"sizetype\000"
 20773      74797065 
 20773      00
 20774              	.LASF82:
 20775 074f 6C63335F 		.ascii	"lc3_ne\000"
 20775      6E6500
 20776              	.LASF10:
 20777 0756 6C6F6E67 		.ascii	"long unsigned int\000"
 20777      20756E73 
 20777      69676E65 
 20777      6420696E 
 20777      7400
 20778              	.LASF94:
 20779 0768 61646A75 		.ascii	"adjust_gain\000"
 20779      73745F67 
 20779      61696E00 
 20780              	.LASF123:
 20781 0774 6C63335F 		.ascii	"lc3_exp2f\000"
 20781      65787032 
 20781      6600
 20782              	.LASF111:
 20783 077e 6E5F656E 		.ascii	"n_end\000"
 20783      6400
 20784              	.LASF16:
 20785 0784 696E7433 		.ascii	"int32_t\000"
 20785      325F7400 
 20786              	.LASF130:
 20787 078c 785F6D61 		.ascii	"x_max\000"
 20787      7800
 20788              	.LASF24:
 20789 0792 6C63335F 		.ascii	"lc3_srate\000"
 20789      73726174 
ARM GAS  C:\Users\rdn\AppData\Local\Temp\cciiQw7C.s 			page 409


 20789      6500
 20790              	.LASF52:
 20791 079c 6C63335F 		.ascii	"lc3_spec_analysis\000"
 20791      73706563 
 20791      5F616E61 
 20791      6C797369 
 20791      7300
 20792              	.LASF2:
 20793 07ae 756E7369 		.ascii	"unsigned char\000"
 20793      676E6564 
 20793      20636861 
 20793      7200
 20794              	.LASF144:
 20795 07bc 6765745F 		.ascii	"get_residual\000"
 20795      72657369 
 20795      6475616C 
 20795      00
 20796              	.LASF9:
 20797 07c9 5F5F7569 		.ascii	"__uint32_t\000"
 20797      6E743332 
 20797      5F7400
 20798              	.LASF92:
 20799 07d4 675F696E 		.ascii	"g_int\000"
 20799      7400
 20800              	.LASF101:
 20801 07da 675F696E 		.ascii	"g_inv\000"
 20801      7600
 20802              	.LASF40:
 20803 07e0 6C63335F 		.ascii	"lc3_bandwidth\000"
 20803      62616E64 
 20803      77696474 
 20803      6800
 20804              	.LASF116:
 20805 07ee 62775F73 		.ascii	"bw_stop\000"
 20805      746F7000 
 20806              	.LASF50:
 20807 07f6 4C43335F 		.ascii	"LC3_BITS_MODE_READ\000"
 20807      42495453 
 20807      5F4D4F44 
 20807      455F5245 
 20807      414400
 20808              	.LASF109:
 20809 0809 73746174 		.ascii	"state\000"
 20809      6500
 20810              	.LASF180:
 20811 080f 73717274 		.ascii	"sqrtf\000"
 20811      6600
 20812              	.LASF142:
 20813 0815 69746572 		.ascii	"iter\000"
 20813      00
 20814              	.LASF166:
 20815 081a 6E626974 		.ascii	"nbits_left\000"
 20815      735F6C65 
 20815      667400
 20816              	.LASF191:
 20817 0825 6C63335F 		.ascii	"lc3_get_bits_left\000"
 20817      6765745F 
ARM GAS  C:\Users\rdn\AppData\Local\Temp\cciiQw7C.s 			page 410


 20817      62697473 
 20817      5F6C6566 
 20817      7400
 20818              	.LASF103:
 20819 0837 756E7175 		.ascii	"unquantize\000"
 20819      616E7469 
 20819      7A6500
 20820              	.LASF25:
 20821 0842 4C43335F 		.ascii	"LC3_SRATE_8K\000"
 20821      53524154 
 20821      455F384B 
 20821      00
 20822              	.LASF1:
 20823 084f 7369676E 		.ascii	"signed char\000"
 20823      65642063 
 20823      68617200 
 20824              	.LASF98:
 20825 085b 64656C74 		.ascii	"delta\000"
 20825      6100
 20826              	.LASF6:
 20827 0861 73686F72 		.ascii	"short unsigned int\000"
 20827      7420756E 
 20827      7369676E 
 20827      65642069 
 20827      6E7400
 20828              	.LASF141:
 20829 0874 7075745F 		.ascii	"put_residual\000"
 20829      72657369 
 20829      6475616C 
 20829      00
 20830              	.LASF176:
 20831 0881 6D656D63 		.ascii	"memcpy\000"
 20831      707900
 20832              	.LASF45:
 20833 0888 4C43335F 		.ascii	"LC3_BANDWIDTH_FB\000"
 20833      42414E44 
 20833      57494454 
 20833      485F4642 
 20833      00
 20834              	.LASF155:
 20835 0899 6765745F 		.ascii	"get_lsb\000"
 20835      6C736200 
 20836              	.LASF48:
 20837 08a1 4C43335F 		.ascii	"LC3_NUM_BANDWIDTH\000"
 20837      4E554D5F 
 20837      42414E44 
 20837      57494454 
 20837      4800
 20838              	.LASF125:
 20839 08b3 72657365 		.ascii	"reset_off\000"
 20839      745F6F66 
 20839      6600
 20840              	.LASF152:
 20841 08bd 6C63335F 		.ascii	"lc3_get_symbol\000"
 20841      6765745F 
 20841      73796D62 
 20841      6F6C00
ARM GAS  C:\Users\rdn\AppData\Local\Temp\cciiQw7C.s 			page 411


 20842              	.LASF162:
 20843 08cc 6C63335F 		.ascii	"lc3_spec_analyze\000"
 20843      73706563 
 20843      5F616E61 
 20843      6C797A65 
 20843      00
 20844              	.LASF186:
 20845 08dd 6C63335F 		.ascii	"lc3_bwdet_get_nbits\000"
 20845      62776465 
 20845      745F6765 
 20845      745F6E62 
 20845      69747300 
 20846              	.LASF39:
 20847 08f1 646F7562 		.ascii	"double\000"
 20847      6C6500
 20848              	.LASF31:
 20849 08f8 4C43335F 		.ascii	"LC3_SRATE_96K_HR\000"
 20849      53524154 
 20849      455F3936 
 20849      4B5F4852 
 20849      00
 20850              	.LASF58:
 20851 0909 6C63335F 		.ascii	"lc3_bits_ac\000"
 20851      62697473 
 20851      5F616300 
 20852              	.LASF172:
 20853 0915 6C63335F 		.ascii	"lc3_frame_bytes_hr_lim\000"
 20853      6672616D 
 20853      655F6279 
 20853      7465735F 
 20853      68725F6C 
 20854              	.LASF157:
 20855 092c 73706563 		.ascii	"spec\000"
 20855      00
 20856              	.LASF106:
 20857 0931 636F6D70 		.ascii	"compute_nbits\000"
 20857      7574655F 
 20857      6E626974 
 20857      7300
 20858              	.LASF99:
 20859 093f 66616374 		.ascii	"factor\000"
 20859      6F7200
 20860              	.LASF189:
 20861 0946 6C63335F 		.ascii	"lc3_tns_get_nbits\000"
 20861      746E735F 
 20861      6765745F 
 20861      6E626974 
 20861      7300
 20862              	.LASF65:
 20863 0958 705F6677 		.ascii	"p_fw\000"
 20863      00
 20864              		.ident	"GCC: (GNU Tools for ARM Embedded Processors) 5.4.1 20160609 (release) [ARM/embedded-5-bran
