ARM GAS  C:\Users\rdn\AppData\Local\Temp\ccet7BYP.s 			page 1


   1              		.syntax unified
   2              		.cpu cortex-m0plus
   3              		.fpu softvfp
   4              		.eabi_attribute 20, 1
   5              		.eabi_attribute 21, 1
   6              		.eabi_attribute 23, 3
   7              		.eabi_attribute 24, 1
   8              		.eabi_attribute 25, 1
   9              		.eabi_attribute 26, 1
  10              		.eabi_attribute 30, 1
  11              		.eabi_attribute 34, 0
  12              		.eabi_attribute 18, 4
  13              		.thumb
  14              		.syntax unified
  15              		.file	"tns.c"
  16              		.text
  17              	.Ltext0:
  18              		.cfi_sections	.debug_frame
  19              		.section	.text.resolve_lpc_weighting,"ax",%progbits
  20              		.align	2
  21              		.code	16
  22              		.thumb_func
  23              		.type	resolve_lpc_weighting, %function
  24              	resolve_lpc_weighting:
  25              	.LFB20:
  26              		.file 1 "..\\..\\..\\liblc3\\src\\tns.c"
   1:..\..\..\liblc3\src/tns.c **** /******************************************************************************
   2:..\..\..\liblc3\src/tns.c ****  *
   3:..\..\..\liblc3\src/tns.c ****  *  Copyright 2022 Google LLC
   4:..\..\..\liblc3\src/tns.c ****  *
   5:..\..\..\liblc3\src/tns.c ****  *  Licensed under the Apache License, Version 2.0 (the "License");
   6:..\..\..\liblc3\src/tns.c ****  *  you may not use this file except in compliance with the License.
   7:..\..\..\liblc3\src/tns.c ****  *  You may obtain a copy of the License at:
   8:..\..\..\liblc3\src/tns.c ****  *
   9:..\..\..\liblc3\src/tns.c ****  *  http://www.apache.org/licenses/LICENSE-2.0
  10:..\..\..\liblc3\src/tns.c ****  *
  11:..\..\..\liblc3\src/tns.c ****  *  Unless required by applicable law or agreed to in writing, software
  12:..\..\..\liblc3\src/tns.c ****  *  distributed under the License is distributed on an "AS IS" BASIS,
  13:..\..\..\liblc3\src/tns.c ****  *  WITHOUT WARRANTIES OR CONDITIONS OF ANY KIND, either express or implied.
  14:..\..\..\liblc3\src/tns.c ****  *  See the License for the specific language governing permissions and
  15:..\..\..\liblc3\src/tns.c ****  *  limitations under the License.
  16:..\..\..\liblc3\src/tns.c ****  *
  17:..\..\..\liblc3\src/tns.c ****  ******************************************************************************/
  18:..\..\..\liblc3\src/tns.c **** 
  19:..\..\..\liblc3\src/tns.c **** #include "tns.h"
  20:..\..\..\liblc3\src/tns.c **** #include "tables.h"
  21:..\..\..\liblc3\src/tns.c **** 
  22:..\..\..\liblc3\src/tns.c **** 
  23:..\..\..\liblc3\src/tns.c **** /* ----------------------------------------------------------------------------
  24:..\..\..\liblc3\src/tns.c ****  *  Filter Coefficients
  25:..\..\..\liblc3\src/tns.c ****  * -------------------------------------------------------------------------- */
  26:..\..\..\liblc3\src/tns.c **** 
  27:..\..\..\liblc3\src/tns.c **** /**
  28:..\..\..\liblc3\src/tns.c ****  * Resolve LPC Weighting indication according bitrate
  29:..\..\..\liblc3\src/tns.c ****  * dt, nbytes      Duration and size of the frame
  30:..\..\..\liblc3\src/tns.c ****  * return          True when LPC Weighting enabled
  31:..\..\..\liblc3\src/tns.c ****  */
ARM GAS  C:\Users\rdn\AppData\Local\Temp\ccet7BYP.s 			page 2


  32:..\..\..\liblc3\src/tns.c **** static bool resolve_lpc_weighting(enum lc3_dt dt, int nbytes)
  33:..\..\..\liblc3\src/tns.c **** {
  27              		.loc 1 33 0
  28              		.cfi_startproc
  29              		@ args = 0, pretend = 0, frame = 0
  30              		@ frame_needed = 0, uses_anonymous_args = 0
  31              		@ link register save eliminated.
  32              	.LVL0:
  34:..\..\..\liblc3\src/tns.c ****     return nbytes * 8 < 120 * (int)(1 + dt);
  33              		.loc 1 34 0
  34 0000 C900     		lsls	r1, r1, #3
  35              	.LVL1:
  36 0002 0130     		adds	r0, r0, #1
  37              	.LVL2:
  38 0004 0301     		lsls	r3, r0, #4
  39 0006 181A     		subs	r0, r3, r0
  40 0008 C300     		lsls	r3, r0, #3
  41 000a 0120     		movs	r0, #1
  42 000c 9942     		cmp	r1, r3
  43 000e 00DB     		blt	.L2
  44 0010 0020     		movs	r0, #0
  45              	.L2:
  46 0012 C0B2     		uxtb	r0, r0
  35:..\..\..\liblc3\src/tns.c **** }
  47              		.loc 1 35 0
  48              		@ sp needed
  49 0014 7047     		bx	lr
  50              		.cfi_endproc
  51              	.LFE20:
  52              		.size	resolve_lpc_weighting, .-resolve_lpc_weighting
  53              		.global	__aeabi_fmul
  54              		.global	__aeabi_fadd
  55              		.global	__aeabi_i2f
  56              		.global	__aeabi_fcmpeq
  57              		.global	__aeabi_fdiv
  58              		.global	__aeabi_fsub
  59 0016 C046     		.section	.text.compute_lpc_coeffs,"ax",%progbits
  60              		.align	2
  61              		.code	16
  62              		.thumb_func
  63              		.type	compute_lpc_coeffs, %function
  64              	compute_lpc_coeffs:
  65              	.LFB22:
  36:..\..\..\liblc3\src/tns.c **** 
  37:..\..\..\liblc3\src/tns.c **** /**
  38:..\..\..\liblc3\src/tns.c ****  * Return dot product of 2 vectors
  39:..\..\..\liblc3\src/tns.c ****  * a, b, n         The 2 vectors of size `n`
  40:..\..\..\liblc3\src/tns.c ****  * return          sum( a[i] * b[i] ), i = [0..n-1]
  41:..\..\..\liblc3\src/tns.c ****  */
  42:..\..\..\liblc3\src/tns.c **** LC3_HOT static inline float dot(const float *a, const float *b, int n)
  43:..\..\..\liblc3\src/tns.c **** {
  44:..\..\..\liblc3\src/tns.c ****     float v = 0;
  45:..\..\..\liblc3\src/tns.c **** 
  46:..\..\..\liblc3\src/tns.c ****     while (n--)
  47:..\..\..\liblc3\src/tns.c ****         v += *(a++) * *(b++);
  48:..\..\..\liblc3\src/tns.c **** 
  49:..\..\..\liblc3\src/tns.c ****     return v;
ARM GAS  C:\Users\rdn\AppData\Local\Temp\ccet7BYP.s 			page 3


  50:..\..\..\liblc3\src/tns.c **** }
  51:..\..\..\liblc3\src/tns.c **** 
  52:..\..\..\liblc3\src/tns.c **** /**
  53:..\..\..\liblc3\src/tns.c ****  * LPC Coefficients
  54:..\..\..\liblc3\src/tns.c ****  * dt, bw          Duration and bandwidth of the frame
  55:..\..\..\liblc3\src/tns.c ****  * maxorder        Maximum order of filter
  56:..\..\..\liblc3\src/tns.c ****  * x               Spectral coefficients
  57:..\..\..\liblc3\src/tns.c ****  * gain, a         Output the prediction gains and LPC coefficients
  58:..\..\..\liblc3\src/tns.c ****  */
  59:..\..\..\liblc3\src/tns.c **** LC3_HOT static void compute_lpc_coeffs(
  60:..\..\..\liblc3\src/tns.c ****     enum lc3_dt dt, enum lc3_bandwidth bw, int maxorder,
  61:..\..\..\liblc3\src/tns.c ****     const float *x, float *gain, float (*a)[9])
  62:..\..\..\liblc3\src/tns.c **** {
  66              		.loc 1 62 0
  67              		.cfi_startproc
  68              		@ args = 8, pretend = 0, frame = 336
  69              		@ frame_needed = 0, uses_anonymous_args = 0
  70              	.LVL3:
  71 0000 F0B5     		push	{r4, r5, r6, r7, lr}
  72              		.cfi_def_cfa_offset 20
  73              		.cfi_offset 4, -20
  74              		.cfi_offset 5, -16
  75              		.cfi_offset 6, -12
  76              		.cfi_offset 7, -8
  77              		.cfi_offset 14, -4
  78 0002 5F46     		mov	r7, fp
  79 0004 5646     		mov	r6, r10
  80 0006 4D46     		mov	r5, r9
  81 0008 4446     		mov	r4, r8
  82 000a F0B4     		push	{r4, r5, r6, r7}
  83              		.cfi_def_cfa_offset 36
  84              		.cfi_offset 8, -36
  85              		.cfi_offset 9, -32
  86              		.cfi_offset 10, -28
  87              		.cfi_offset 11, -24
  88 000c D5B0     		sub	sp, sp, #340
  89              		.cfi_def_cfa_offset 376
  90 000e 0500     		movs	r5, r0
  91 0010 0E00     		movs	r6, r1
  92 0012 0692     		str	r2, [sp, #24]
  93 0014 0493     		str	r3, [sp, #16]
  63:..\..\..\liblc3\src/tns.c **** 
  64:..\..\..\liblc3\src/tns.c **** #if LC3_PLUS
  65:..\..\..\liblc3\src/tns.c **** 
  66:..\..\..\liblc3\src/tns.c ****     static const int sub_2m5_nb[]   = {  3,  10,  20 };
  67:..\..\..\liblc3\src/tns.c ****     static const int sub_2m5_wb[]   = {  3,  20,  40 };
  68:..\..\..\liblc3\src/tns.c ****     static const int sub_2m5_sswb[] = {  3,  30,  60 };
  69:..\..\..\liblc3\src/tns.c ****     static const int sub_2m5_swb[]  = {  3,  40,  80 };
  70:..\..\..\liblc3\src/tns.c ****     static const int sub_2m5_fb[]   = {  3,  51, 100 };
  71:..\..\..\liblc3\src/tns.c **** 
  72:..\..\..\liblc3\src/tns.c ****     static const int sub_5m_nb[]    = {  6,  23,  40 };
  73:..\..\..\liblc3\src/tns.c ****     static const int sub_5m_wb[]    = {  6,  43,  80 };
  74:..\..\..\liblc3\src/tns.c ****     static const int sub_5m_sswb[]  = {  6,  63, 120 };
  75:..\..\..\liblc3\src/tns.c ****     static const int sub_5m_swb[]   = {  6,  43,  80, 120, 160 };
  76:..\..\..\liblc3\src/tns.c ****     static const int sub_5m_fb[]    = {  6,  53, 100, 150, 200 };
  77:..\..\..\liblc3\src/tns.c **** 
  78:..\..\..\liblc3\src/tns.c **** #endif /* LC3_PLUS */
ARM GAS  C:\Users\rdn\AppData\Local\Temp\ccet7BYP.s 			page 4


  79:..\..\..\liblc3\src/tns.c **** 
  80:..\..\..\liblc3\src/tns.c ****     static const int sub_7m5_nb[]   = {  9,  26,  43,  60 };
  81:..\..\..\liblc3\src/tns.c ****     static const int sub_7m5_wb[]   = {  9,  46,  83, 120 };
  82:..\..\..\liblc3\src/tns.c ****     static const int sub_7m5_sswb[] = {  9,  66, 123, 180 };
  83:..\..\..\liblc3\src/tns.c ****     static const int sub_7m5_swb[]  = {  9,  46,  82, 120, 159, 200, 240 };
  84:..\..\..\liblc3\src/tns.c ****     static const int sub_7m5_fb[]   = {  9,  56, 103, 150, 200, 250, 300 };
  85:..\..\..\liblc3\src/tns.c **** 
  86:..\..\..\liblc3\src/tns.c ****     static const int sub_10m_nb[]   = { 12,  34,  57,  80 };
  87:..\..\..\liblc3\src/tns.c ****     static const int sub_10m_wb[]   = { 12,  61, 110, 160 };
  88:..\..\..\liblc3\src/tns.c ****     static const int sub_10m_sswb[] = { 12,  88, 164, 240 };
  89:..\..\..\liblc3\src/tns.c ****     static const int sub_10m_swb[]  = { 12,  61, 110, 160, 213, 266, 320 };
  90:..\..\..\liblc3\src/tns.c ****     static const int sub_10m_fb[]   = { 12,  74, 137, 200, 266, 333, 400 };
  91:..\..\..\liblc3\src/tns.c **** 
  92:..\..\..\liblc3\src/tns.c ****     static const float lag_window[] = {
  93:..\..\..\liblc3\src/tns.c ****         1.00000000e+00, 9.98028026e-01, 9.92135406e-01, 9.82391584e-01,
  94:..\..\..\liblc3\src/tns.c ****         9.68910791e-01, 9.51849807e-01, 9.31404933e-01, 9.07808230e-01,
  95:..\..\..\liblc3\src/tns.c ****         8.81323137e-01
  96:..\..\..\liblc3\src/tns.c ****     };
  97:..\..\..\liblc3\src/tns.c **** 
  98:..\..\..\liblc3\src/tns.c ****     const int *sub = (const int * const [LC3_NUM_DT][LC3_NUM_BANDWIDTH]){
  94              		.loc 1 98 0
  95 0016 38AC     		add	r4, sp, #224
  96 0018 7022     		movs	r2, #112
  97              	.LVL4:
  98 001a 0021     		movs	r1, #0
  99              	.LVL5:
 100 001c 2000     		movs	r0, r4
 101              	.LVL6:
 102 001e FFF7FEFF 		bl	memset
 103              	.LVL7:
 104 0022 E34B     		ldr	r3, .L57
 105 0024 3893     		str	r3, [sp, #224]
 106 0026 1A00     		movs	r2, r3
 107 0028 0C32     		adds	r2, r2, #12
 108 002a 6260     		str	r2, [r4, #4]
 109 002c 1A00     		movs	r2, r3
 110 002e 1832     		adds	r2, r2, #24
 111 0030 A260     		str	r2, [r4, #8]
 112 0032 1A00     		movs	r2, r3
 113 0034 2432     		adds	r2, r2, #36
 114 0036 E260     		str	r2, [r4, #12]
 115 0038 1A00     		movs	r2, r3
 116 003a 3032     		adds	r2, r2, #48
 117 003c 2261     		str	r2, [r4, #16]
 118 003e 6261     		str	r2, [r4, #20]
 119 0040 A261     		str	r2, [r4, #24]
 120 0042 1A00     		movs	r2, r3
 121 0044 3C32     		adds	r2, r2, #60
 122 0046 E261     		str	r2, [r4, #28]
 123 0048 1A00     		movs	r2, r3
 124 004a 4832     		adds	r2, r2, #72
 125 004c 2262     		str	r2, [r4, #32]
 126 004e 1A00     		movs	r2, r3
 127 0050 5432     		adds	r2, r2, #84
 128 0052 6262     		str	r2, [r4, #36]
 129 0054 1A00     		movs	r2, r3
 130 0056 6032     		adds	r2, r2, #96
ARM GAS  C:\Users\rdn\AppData\Local\Temp\ccet7BYP.s 			page 5


 131 0058 A262     		str	r2, [r4, #40]
 132 005a 7433     		adds	r3, r3, #116
 133 005c E362     		str	r3, [r4, #44]
 134 005e 2363     		str	r3, [r4, #48]
 135 0060 6363     		str	r3, [r4, #52]
 136 0062 D44B     		ldr	r3, .L57+4
 137 0064 1A00     		movs	r2, r3
 138 0066 0832     		adds	r2, r2, #8
 139 0068 A263     		str	r2, [r4, #56]
 140 006a 1A00     		movs	r2, r3
 141 006c 1832     		adds	r2, r2, #24
 142 006e E263     		str	r2, [r4, #60]
 143 0070 1A00     		movs	r2, r3
 144 0072 2832     		adds	r2, r2, #40
 145 0074 2264     		str	r2, [r4, #64]
 146 0076 1A00     		movs	r2, r3
 147 0078 3832     		adds	r2, r2, #56
 148 007a 6264     		str	r2, [r4, #68]
 149 007c 1A00     		movs	r2, r3
 150 007e 5432     		adds	r2, r2, #84
 151 0080 A264     		str	r2, [r4, #72]
 152 0082 7033     		adds	r3, r3, #112
 153 0084 6365     		str	r3, [r4, #84]
 154 0086 CC4B     		ldr	r3, .L57+8
 155 0088 A365     		str	r3, [r4, #88]
 156 008a 1A00     		movs	r2, r3
 157 008c 1032     		adds	r2, r2, #16
 158 008e E265     		str	r2, [r4, #92]
 159 0090 1A00     		movs	r2, r3
 160 0092 2032     		adds	r2, r2, #32
 161 0094 2266     		str	r2, [r4, #96]
 162 0096 3C33     		adds	r3, r3, #60
 163 0098 6366     		str	r3, [r4, #100]
 164 009a A366     		str	r3, [r4, #104]
 165 009c E366     		str	r3, [r4, #108]
 166 009e EB00     		lsls	r3, r5, #3
 167 00a0 5B1B     		subs	r3, r3, r5
 168 00a2 9B19     		adds	r3, r3, r6
 169 00a4 9B00     		lsls	r3, r3, #2
 170 00a6 1B59     		ldr	r3, [r3, r4]
 171 00a8 0293     		str	r3, [sp, #8]
 172              	.LVL8:
  99:..\..\..\liblc3\src/tns.c **** 
 100:..\..\..\liblc3\src/tns.c **** #if LC3_PLUS
 101:..\..\..\liblc3\src/tns.c **** 
 102:..\..\..\liblc3\src/tns.c ****         [LC3_DT_2M5] = {
 103:..\..\..\liblc3\src/tns.c ****           sub_2m5_nb, sub_2m5_wb, sub_2m5_sswb, sub_2m5_swb,
 104:..\..\..\liblc3\src/tns.c ****           sub_2m5_fb, sub_2m5_fb, sub_2m5_fb                },
 105:..\..\..\liblc3\src/tns.c **** 
 106:..\..\..\liblc3\src/tns.c ****         [LC3_DT_5M] = {
 107:..\..\..\liblc3\src/tns.c ****             sub_5m_nb , sub_5m_wb , sub_5m_sswb , sub_5m_swb ,
 108:..\..\..\liblc3\src/tns.c ****             sub_5m_fb , sub_5m_fb , sub_5m_fb                 },
 109:..\..\..\liblc3\src/tns.c **** 
 110:..\..\..\liblc3\src/tns.c **** #endif /* LC3_PLUS */
 111:..\..\..\liblc3\src/tns.c **** 
 112:..\..\..\liblc3\src/tns.c ****         [LC3_DT_7M5] = {
 113:..\..\..\liblc3\src/tns.c ****             sub_7m5_nb, sub_7m5_wb, sub_7m5_sswb, sub_7m5_swb,
ARM GAS  C:\Users\rdn\AppData\Local\Temp\ccet7BYP.s 			page 6


 114:..\..\..\liblc3\src/tns.c ****             sub_7m5_fb                                        },
 115:..\..\..\liblc3\src/tns.c **** 
 116:..\..\..\liblc3\src/tns.c ****         [LC3_DT_10M] = {
 117:..\..\..\liblc3\src/tns.c ****             sub_10m_nb, sub_10m_wb, sub_10m_sswb, sub_10m_swb,
 118:..\..\..\liblc3\src/tns.c ****             sub_10m_fb, sub_10m_fb, sub_10m_fb                },
 119:..\..\..\liblc3\src/tns.c **** 
 120:..\..\..\liblc3\src/tns.c ****     }[dt][bw];
 121:..\..\..\liblc3\src/tns.c **** 
 122:..\..\..\liblc3\src/tns.c ****     /* --- Normalized autocorrelation --- */
 123:..\..\..\liblc3\src/tns.c **** 
 124:..\..\..\liblc3\src/tns.c ****     int nfilters = 1 + (dt >= LC3_DT_5M && bw >= LC3_BANDWIDTH_SWB);
 173              		.loc 1 124 0
 174 00aa 002D     		cmp	r5, #0
 175 00ac 03D0     		beq	.L39
 176              		.loc 1 124 0 is_stmt 0 discriminator 1
 177 00ae 022E     		cmp	r6, #2
 178 00b0 03D8     		bhi	.L40
 179              		.loc 1 124 0
 180 00b2 0023     		movs	r3, #0
 181              	.LVL9:
 182 00b4 02E0     		b	.L4
 183              	.LVL10:
 184              	.L39:
 185 00b6 0023     		movs	r3, #0
 186              	.LVL11:
 187 00b8 00E0     		b	.L4
 188              	.LVL12:
 189              	.L40:
 190 00ba 0123     		movs	r3, #1
 191              	.LVL13:
 192              	.L4:
 193              		.loc 1 124 0 discriminator 6
 194 00bc 0133     		adds	r3, r3, #1
 195 00be 0793     		str	r3, [sp, #28]
 196              	.LVL14:
 125:..\..\..\liblc3\src/tns.c ****     int nsubdivisions = 2 + (dt >= LC3_DT_7M5);
 197              		.loc 1 125 0 is_stmt 1 discriminator 6
 198 00c0 012D     		cmp	r5, #1
 199 00c2 02D9     		bls	.L41
 200              		.loc 1 125 0 is_stmt 0
 201 00c4 0323     		movs	r3, #3
 202              	.LVL15:
 203 00c6 0393     		str	r3, [sp, #12]
 204 00c8 01E0     		b	.L5
 205              	.LVL16:
 206              	.L41:
 207 00ca 0223     		movs	r3, #2
 208              	.LVL17:
 209 00cc 0393     		str	r3, [sp, #12]
 210              	.L5:
 211              	.LVL18:
 126:..\..\..\liblc3\src/tns.c **** 
 127:..\..\..\liblc3\src/tns.c ****     const float *xs, *xe = x + *sub;
 212              		.loc 1 127 0 is_stmt 1 discriminator 4
 213 00ce 029B     		ldr	r3, [sp, #8]
 214 00d0 1B68     		ldr	r3, [r3]
 215 00d2 0193     		str	r3, [sp, #4]
ARM GAS  C:\Users\rdn\AppData\Local\Temp\ccet7BYP.s 			page 7


 216 00d4 9B00     		lsls	r3, r3, #2
 217 00d6 049A     		ldr	r2, [sp, #16]
 218 00d8 9046     		mov	r8, r2
 219 00da 9844     		add	r8, r8, r3
 220              	.LVL19:
 221              	.LBB40:
 128:..\..\..\liblc3\src/tns.c ****     float r[2][9];
 129:..\..\..\liblc3\src/tns.c **** 
 130:..\..\..\liblc3\src/tns.c ****     for (int f = 0; f < nfilters; f++) {
 222              		.loc 1 130 0 discriminator 4
 223 00dc 0023     		movs	r3, #0
 224 00de 0593     		str	r3, [sp, #20]
 225 00e0 069B     		ldr	r3, [sp, #24]
 226 00e2 9A46     		mov	r10, r3
 227 00e4 E7E0     		b	.L6
 228              	.LVL20:
 229              	.L26:
 230              	.LBB41:
 131:..\..\..\liblc3\src/tns.c ****         float c[9][3] = { 0 };
 231              		.loc 1 131 0
 232 00e6 6C22     		movs	r2, #108
 233 00e8 0021     		movs	r1, #0
 234 00ea 0BA8     		add	r0, sp, #44
 235 00ec FFF7FEFF 		bl	memset
 236              	.LVL21:
 237              	.LBB42:
 132:..\..\..\liblc3\src/tns.c **** 
 133:..\..\..\liblc3\src/tns.c ****         for (int s = 0; s < nsubdivisions; s++) {
 238              		.loc 1 133 0
 239 00f0 0023     		movs	r3, #0
 240 00f2 9B46     		mov	fp, r3
 241 00f4 39E0     		b	.L7
 242              	.LVL22:
 243              	.L12:
 134:..\..\..\liblc3\src/tns.c ****             xs = xe, xe = x + *(++sub);
 244              		.loc 1 134 0
 245 00f6 029B     		ldr	r3, [sp, #8]
 246 00f8 0433     		adds	r3, r3, #4
 247 00fa 0293     		str	r3, [sp, #8]
 248              	.LVL23:
 249 00fc 1B68     		ldr	r3, [r3]
 250              	.LVL24:
 251 00fe 9B00     		lsls	r3, r3, #2
 252 0100 049A     		ldr	r2, [sp, #16]
 253 0102 9446     		mov	ip, r2
 254 0104 6344     		add	r3, r3, ip
 255 0106 0193     		str	r3, [sp, #4]
 256              	.LVL25:
 257              	.LBB43:
 135:..\..\..\liblc3\src/tns.c **** 
 136:..\..\..\liblc3\src/tns.c ****             for (int k = 0; k <= maxorder; k++)
 258              		.loc 1 136 0
 259 0108 0023     		movs	r3, #0
 260              	.LVL26:
 261 010a 9946     		mov	r9, r3
 262 010c 26E0     		b	.L8
 263              	.LVL27:
ARM GAS  C:\Users\rdn\AppData\Local\Temp\ccet7BYP.s 			page 8


 264              	.L11:
 137:..\..\..\liblc3\src/tns.c ****                 c[k][s] = dot(xs, xs + k, (xe - xs) - k);
 265              		.loc 1 137 0 discriminator 3
 266 010e 4B46     		mov	r3, r9
 267 0110 9A00     		lsls	r2, r3, #2
 268 0112 4244     		add	r2, r2, r8
 269 0114 019B     		ldr	r3, [sp, #4]
 270 0116 4146     		mov	r1, r8
 271 0118 5B1A     		subs	r3, r3, r1
 272 011a 9B10     		asrs	r3, r3, #2
 273 011c 4946     		mov	r1, r9
 274 011e 5B1A     		subs	r3, r3, r1
 275              	.LVL28:
 276 0120 4146     		mov	r1, r8
 277              	.LBB44:
 278              	.LBB45:
  44:..\..\..\liblc3\src/tns.c **** 
 279              		.loc 1 44 0 discriminator 3
 280 0122 0024     		movs	r4, #0
 281 0124 0DE0     		b	.L9
 282              	.LVL29:
 283              	.L10:
  47:..\..\..\liblc3\src/tns.c **** 
 284              		.loc 1 47 0
 285 0126 0E1D     		adds	r6, r1, #4
 286              	.LVL30:
 287 0128 0868     		ldr	r0, [r1]
 288 012a 171D     		adds	r7, r2, #4
 289              	.LVL31:
 290 012c 1168     		ldr	r1, [r2]
 291 012e FFF7FEFF 		bl	__aeabi_fmul
 292              	.LVL32:
 293 0132 011C     		adds	r1, r0, #0
 294 0134 201C     		adds	r0, r4, #0
 295 0136 FFF7FEFF 		bl	__aeabi_fadd
 296              	.LVL33:
 297 013a 041C     		adds	r4, r0, #0
 298              	.LVL34:
  46:..\..\..\liblc3\src/tns.c ****         v += *(a++) * *(b++);
 299              		.loc 1 46 0
 300 013c 2B00     		movs	r3, r5
  47:..\..\..\liblc3\src/tns.c **** 
 301              		.loc 1 47 0
 302 013e 3A00     		movs	r2, r7
 303 0140 3100     		movs	r1, r6
 304              	.LVL35:
 305              	.L9:
  46:..\..\..\liblc3\src/tns.c ****         v += *(a++) * *(b++);
 306              		.loc 1 46 0
 307 0142 5D1E     		subs	r5, r3, #1
 308              	.LVL36:
 309 0144 002B     		cmp	r3, #0
 310 0146 EED1     		bne	.L10
 311              	.LVL37:
 312              	.LBE45:
 313              	.LBE44:
 314              		.loc 1 137 0
ARM GAS  C:\Users\rdn\AppData\Local\Temp\ccet7BYP.s 			page 9


 315 0148 4B46     		mov	r3, r9
 316 014a 5B00     		lsls	r3, r3, #1
 317 014c 4B44     		add	r3, r3, r9
 318 014e 5B44     		add	r3, r3, fp
 319 0150 9B00     		lsls	r3, r3, #2
 320 0152 0BAA     		add	r2, sp, #44
 321 0154 9C50     		str	r4, [r3, r2]
 136:..\..\..\liblc3\src/tns.c ****                 c[k][s] = dot(xs, xs + k, (xe - xs) - k);
 322              		.loc 1 136 0
 323 0156 0123     		movs	r3, #1
 324 0158 9C46     		mov	ip, r3
 325 015a E144     		add	r9, r9, ip
 326              	.LVL38:
 327              	.L8:
 136:..\..\..\liblc3\src/tns.c ****                 c[k][s] = dot(xs, xs + k, (xe - xs) - k);
 328              		.loc 1 136 0 is_stmt 0 discriminator 1
 329 015c D145     		cmp	r9, r10
 330 015e D6DD     		ble	.L11
 331              	.LBE43:
 133:..\..\..\liblc3\src/tns.c ****             xs = xe, xe = x + *(++sub);
 332              		.loc 1 133 0 is_stmt 1 discriminator 2
 333 0160 0123     		movs	r3, #1
 334 0162 9C46     		mov	ip, r3
 335 0164 E344     		add	fp, fp, ip
 336              	.LVL39:
 134:..\..\..\liblc3\src/tns.c **** 
 337              		.loc 1 134 0 discriminator 2
 338 0166 019B     		ldr	r3, [sp, #4]
 339 0168 9846     		mov	r8, r3
 340              	.LVL40:
 341              	.L7:
 133:..\..\..\liblc3\src/tns.c ****             xs = xe, xe = x + *(++sub);
 342              		.loc 1 133 0 discriminator 1
 343 016a 039B     		ldr	r3, [sp, #12]
 344 016c 9B45     		cmp	fp, r3
 345 016e C2DB     		blt	.L12
 346              	.LBE42:
 138:..\..\..\liblc3\src/tns.c ****         }
 139:..\..\..\liblc3\src/tns.c **** 
 140:..\..\..\liblc3\src/tns.c ****         r[f][0] = nsubdivisions;
 347              		.loc 1 140 0
 348 0170 059A     		ldr	r2, [sp, #20]
 349 0172 D300     		lsls	r3, r2, #3
 350 0174 9446     		mov	ip, r2
 351 0176 6344     		add	r3, r3, ip
 352 0178 9C00     		lsls	r4, r3, #2
 353 017a 039D     		ldr	r5, [sp, #12]
 354 017c 2800     		movs	r0, r5
 355 017e FFF7FEFF 		bl	__aeabi_i2f
 356              	.LVL41:
 357 0182 26AB     		add	r3, sp, #152
 358 0184 E050     		str	r0, [r4, r3]
 141:..\..\..\liblc3\src/tns.c ****         if (nsubdivisions == 2) {
 359              		.loc 1 141 0
 360 0186 022D     		cmp	r5, #2
 361 0188 3ED1     		bne	.L13
 362              	.LBB46:
ARM GAS  C:\Users\rdn\AppData\Local\Temp\ccet7BYP.s 			page 10


 142:..\..\..\liblc3\src/tns.c ****             float e0 = c[0][0], e1 = c[0][1];
 363              		.loc 1 142 0
 364 018a 0B9D     		ldr	r5, [sp, #44]
 365              	.LVL42:
 366 018c 0C9B     		ldr	r3, [sp, #48]
 367 018e 0193     		str	r3, [sp, #4]
 368              	.LVL43:
 369              	.LBB47:
 143:..\..\..\liblc3\src/tns.c ****             for (int k = 1; k <= maxorder; k++)
 370              		.loc 1 143 0
 371 0190 0126     		movs	r6, #1
 372 0192 5446     		mov	r4, r10
 373 0194 34E0     		b	.L14
 374              	.LVL44:
 375              	.L18:
 144:..\..\..\liblc3\src/tns.c ****                 r[f][k] = e0 == 0 || e1 == 0 ? 0 :
 376              		.loc 1 144 0
 377 0196 0021     		movs	r1, #0
 378 0198 281C     		adds	r0, r5, #0
 379 019a FFF7FEFF 		bl	__aeabi_fcmpeq
 380              	.LVL45:
 381 019e 0028     		cmp	r0, #0
 382 01a0 22D1     		bne	.L52
 383              		.loc 1 144 0 is_stmt 0 discriminator 1
 384 01a2 0021     		movs	r1, #0
 385 01a4 0198     		ldr	r0, [sp, #4]
 386 01a6 FFF7FEFF 		bl	__aeabi_fcmpeq
 387              	.LVL46:
 388 01aa 0028     		cmp	r0, #0
 389 01ac 1ED1     		bne	.L53
 145:..\..\..\liblc3\src/tns.c ****                   (c[k][0]/e0 + c[k][1]/e1) * lag_window[k];
 390              		.loc 1 145 0 is_stmt 1 discriminator 3
 391 01ae 0BAF     		add	r7, sp, #44
 392 01b0 7300     		lsls	r3, r6, #1
 393 01b2 9946     		mov	r9, r3
 394 01b4 9A19     		adds	r2, r3, r6
 395 01b6 9300     		lsls	r3, r2, #2
 396 01b8 D859     		ldr	r0, [r3, r7]
 397 01ba 291C     		adds	r1, r5, #0
 398 01bc FFF7FEFF 		bl	__aeabi_fdiv
 399              	.LVL47:
 400 01c0 0890     		str	r0, [sp, #32]
 401 01c2 4B46     		mov	r3, r9
 402 01c4 9B19     		adds	r3, r3, r6
 403 01c6 9A00     		lsls	r2, r3, #2
 404 01c8 BA18     		adds	r2, r7, r2
 405 01ca 5068     		ldr	r0, [r2, #4]
 406 01cc 0199     		ldr	r1, [sp, #4]
 407 01ce FFF7FEFF 		bl	__aeabi_fdiv
 408              	.LVL48:
 409 01d2 011C     		adds	r1, r0, #0
 410 01d4 0898     		ldr	r0, [sp, #32]
 411 01d6 FFF7FEFF 		bl	__aeabi_fadd
 412              	.LVL49:
 413 01da B300     		lsls	r3, r6, #2
 414 01dc 764A     		ldr	r2, .L57+8
 415 01de D318     		adds	r3, r2, r3
ARM GAS  C:\Users\rdn\AppData\Local\Temp\ccet7BYP.s 			page 11


 416 01e0 996D     		ldr	r1, [r3, #88]
 144:..\..\..\liblc3\src/tns.c ****                 r[f][k] = e0 == 0 || e1 == 0 ? 0 :
 417              		.loc 1 144 0 discriminator 3
 418 01e2 FFF7FEFF 		bl	__aeabi_fmul
 419              	.LVL50:
 420 01e6 02E0     		b	.L15
 421              	.L52:
 144:..\..\..\liblc3\src/tns.c ****                 r[f][k] = e0 == 0 || e1 == 0 ? 0 :
 422              		.loc 1 144 0 is_stmt 0
 423 01e8 0020     		movs	r0, #0
 424 01ea 00E0     		b	.L15
 425              	.L53:
 426 01ec 0020     		movs	r0, #0
 427              	.L15:
 144:..\..\..\liblc3\src/tns.c ****                 r[f][k] = e0 == 0 || e1 == 0 ? 0 :
 428              		.loc 1 144 0 discriminator 6
 429 01ee 059A     		ldr	r2, [sp, #20]
 430 01f0 D300     		lsls	r3, r2, #3
 431 01f2 9446     		mov	ip, r2
 432 01f4 6344     		add	r3, r3, ip
 433 01f6 9B19     		adds	r3, r3, r6
 434 01f8 9B00     		lsls	r3, r3, #2
 435 01fa 26AA     		add	r2, sp, #152
 436 01fc 9850     		str	r0, [r3, r2]
 143:..\..\..\liblc3\src/tns.c ****             for (int k = 1; k <= maxorder; k++)
 437              		.loc 1 143 0 is_stmt 1 discriminator 6
 438 01fe 0136     		adds	r6, r6, #1
 439              	.LVL51:
 440              	.L14:
 143:..\..\..\liblc3\src/tns.c ****             for (int k = 1; k <= maxorder; k++)
 441              		.loc 1 143 0 is_stmt 0 discriminator 2
 442 0200 A642     		cmp	r6, r4
 443 0202 C8DD     		ble	.L18
 444 0204 A246     		mov	r10, r4
 445 0206 53E0     		b	.L19
 446              	.LVL52:
 447              	.L13:
 448              	.LBE47:
 449              	.LBE46:
 450              	.LBB48:
 146:..\..\..\liblc3\src/tns.c **** 
 147:..\..\..\liblc3\src/tns.c ****         } else {
 148:..\..\..\liblc3\src/tns.c ****             float e0 = c[0][0], e1 = c[0][1], e2 = c[0][2];
 451              		.loc 1 148 0 is_stmt 1
 452 0208 0B9C     		ldr	r4, [sp, #44]
 453              	.LVL53:
 454 020a 0C9B     		ldr	r3, [sp, #48]
 455 020c 0193     		str	r3, [sp, #4]
 456              	.LVL54:
 457 020e 0D9B     		ldr	r3, [sp, #52]
 458              	.LVL55:
 459 0210 0893     		str	r3, [sp, #32]
 460              	.LVL56:
 461              	.LBB49:
 149:..\..\..\liblc3\src/tns.c ****             for (int k = 1; k <= maxorder; k++)
 462              		.loc 1 149 0
 463 0212 0125     		movs	r5, #1
ARM GAS  C:\Users\rdn\AppData\Local\Temp\ccet7BYP.s 			page 12


 464 0214 059E     		ldr	r6, [sp, #20]
 465 0216 5746     		mov	r7, r10
 466 0218 47E0     		b	.L20
 467              	.LVL57:
 468              	.L25:
 150:..\..\..\liblc3\src/tns.c ****                 r[f][k] = e0 == 0 || e1 == 0 || e2 == 0 ? 0 :
 469              		.loc 1 150 0
 470 021a 0021     		movs	r1, #0
 471 021c 201C     		adds	r0, r4, #0
 472 021e FFF7FEFF 		bl	__aeabi_fcmpeq
 473              	.LVL58:
 474 0222 0028     		cmp	r0, #0
 475 0224 35D1     		bne	.L54
 476              		.loc 1 150 0 is_stmt 0 discriminator 1
 477 0226 0021     		movs	r1, #0
 478 0228 0198     		ldr	r0, [sp, #4]
 479 022a FFF7FEFF 		bl	__aeabi_fcmpeq
 480              	.LVL59:
 481 022e 0028     		cmp	r0, #0
 482 0230 31D1     		bne	.L55
 483              		.loc 1 150 0 discriminator 3
 484 0232 0021     		movs	r1, #0
 485 0234 0898     		ldr	r0, [sp, #32]
 486 0236 FFF7FEFF 		bl	__aeabi_fcmpeq
 487              	.LVL60:
 488 023a 0028     		cmp	r0, #0
 489 023c 2DD1     		bne	.L56
 151:..\..\..\liblc3\src/tns.c ****                   (c[k][0]/e0 + c[k][1]/e1 + c[k][2]/e2) * lag_window[k];
 490              		.loc 1 151 0 is_stmt 1 discriminator 5
 491 023e 0BAB     		add	r3, sp, #44
 492 0240 9946     		mov	r9, r3
 493 0242 6B00     		lsls	r3, r5, #1
 494 0244 9B46     		mov	fp, r3
 495 0246 5A19     		adds	r2, r3, r5
 496 0248 9300     		lsls	r3, r2, #2
 497 024a 4A46     		mov	r2, r9
 498 024c 9858     		ldr	r0, [r3, r2]
 499 024e 211C     		adds	r1, r4, #0
 500 0250 FFF7FEFF 		bl	__aeabi_fdiv
 501              	.LVL61:
 502 0254 0990     		str	r0, [sp, #36]
 503 0256 5B46     		mov	r3, fp
 504 0258 5B19     		adds	r3, r3, r5
 505 025a 9A00     		lsls	r2, r3, #2
 506 025c 9144     		add	r9, r9, r2
 507 025e 0199     		ldr	r1, [sp, #4]
 508 0260 4B46     		mov	r3, r9
 509 0262 5868     		ldr	r0, [r3, #4]
 510 0264 FFF7FEFF 		bl	__aeabi_fdiv
 511              	.LVL62:
 512 0268 011C     		adds	r1, r0, #0
 513 026a 0998     		ldr	r0, [sp, #36]
 514 026c FFF7FEFF 		bl	__aeabi_fadd
 515              	.LVL63:
 516 0270 0990     		str	r0, [sp, #36]
 517 0272 4B46     		mov	r3, r9
 518 0274 9868     		ldr	r0, [r3, #8]
ARM GAS  C:\Users\rdn\AppData\Local\Temp\ccet7BYP.s 			page 13


 519 0276 0899     		ldr	r1, [sp, #32]
 520 0278 FFF7FEFF 		bl	__aeabi_fdiv
 521              	.LVL64:
 522 027c 011C     		adds	r1, r0, #0
 523 027e 0998     		ldr	r0, [sp, #36]
 524 0280 FFF7FEFF 		bl	__aeabi_fadd
 525              	.LVL65:
 526 0284 AB00     		lsls	r3, r5, #2
 527 0286 4C4A     		ldr	r2, .L57+8
 528 0288 D318     		adds	r3, r2, r3
 529 028a 996D     		ldr	r1, [r3, #88]
 150:..\..\..\liblc3\src/tns.c ****                 r[f][k] = e0 == 0 || e1 == 0 || e2 == 0 ? 0 :
 530              		.loc 1 150 0 discriminator 5
 531 028c FFF7FEFF 		bl	__aeabi_fmul
 532              	.LVL66:
 533 0290 04E0     		b	.L21
 534              	.L54:
 150:..\..\..\liblc3\src/tns.c ****                 r[f][k] = e0 == 0 || e1 == 0 || e2 == 0 ? 0 :
 535              		.loc 1 150 0 is_stmt 0
 536 0292 0020     		movs	r0, #0
 537 0294 02E0     		b	.L21
 538              	.L55:
 539 0296 0020     		movs	r0, #0
 540 0298 00E0     		b	.L21
 541              	.L56:
 542 029a 0020     		movs	r0, #0
 543              	.L21:
 150:..\..\..\liblc3\src/tns.c ****                 r[f][k] = e0 == 0 || e1 == 0 || e2 == 0 ? 0 :
 544              		.loc 1 150 0 discriminator 8
 545 029c F300     		lsls	r3, r6, #3
 546 029e 9B19     		adds	r3, r3, r6
 547 02a0 5B19     		adds	r3, r3, r5
 548 02a2 9B00     		lsls	r3, r3, #2
 549 02a4 26AA     		add	r2, sp, #152
 550 02a6 9850     		str	r0, [r3, r2]
 149:..\..\..\liblc3\src/tns.c ****             for (int k = 1; k <= maxorder; k++)
 551              		.loc 1 149 0 is_stmt 1 discriminator 8
 552 02a8 0135     		adds	r5, r5, #1
 553              	.LVL67:
 554              	.L20:
 149:..\..\..\liblc3\src/tns.c ****             for (int k = 1; k <= maxorder; k++)
 555              		.loc 1 149 0 is_stmt 0 discriminator 2
 556 02aa BD42     		cmp	r5, r7
 557 02ac B5DD     		ble	.L25
 558 02ae BA46     		mov	r10, r7
 559              	.LVL68:
 560              	.L19:
 561              	.LBE49:
 562              	.LBE48:
 563              	.LBE41:
 130:..\..\..\liblc3\src/tns.c ****         float c[9][3] = { 0 };
 564              		.loc 1 130 0 is_stmt 1 discriminator 1
 565 02b0 059B     		ldr	r3, [sp, #20]
 566 02b2 0133     		adds	r3, r3, #1
 567 02b4 0593     		str	r3, [sp, #20]
 568              	.LVL69:
 569              	.L6:
ARM GAS  C:\Users\rdn\AppData\Local\Temp\ccet7BYP.s 			page 14


 130:..\..\..\liblc3\src/tns.c ****         float c[9][3] = { 0 };
 570              		.loc 1 130 0 is_stmt 0 discriminator 2
 571 02b6 059B     		ldr	r3, [sp, #20]
 572 02b8 079A     		ldr	r2, [sp, #28]
 573 02ba 9342     		cmp	r3, r2
 574 02bc 00DA     		bge	.LCB623
 575 02be 12E7     		b	.L26	@long jump
 576              	.LCB623:
 577 02c0 0026     		movs	r6, #0
 578 02c2 CCE0     		b	.L27
 579              	.LVL70:
 580              	.L38:
 581              	.LBE40:
 582              	.LBB50:
 583              	.LBB51:
 152:..\..\..\liblc3\src/tns.c ****         }
 153:..\..\..\liblc3\src/tns.c ****     }
 154:..\..\..\liblc3\src/tns.c **** 
 155:..\..\..\liblc3\src/tns.c ****     /* --- Levinson-Durbin recursion --- */
 156:..\..\..\liblc3\src/tns.c **** 
 157:..\..\..\liblc3\src/tns.c ****     for (int f = 0; f < nfilters; f++) {
 158:..\..\..\liblc3\src/tns.c ****         float *a0 = a[f], a1[9];
 584              		.loc 1 158 0 is_stmt 1
 585 02c4 F300     		lsls	r3, r6, #3
 586 02c6 9919     		adds	r1, r3, r6
 587 02c8 8A00     		lsls	r2, r1, #2
 588 02ca 5F99     		ldr	r1, [sp, #380]
 589 02cc 8D18     		adds	r5, r1, r2
 590              	.LVL71:
 159:..\..\..\liblc3\src/tns.c ****         float err = r[f][0], rc;
 591              		.loc 1 159 0
 592 02ce 26AB     		add	r3, sp, #152
 593 02d0 D358     		ldr	r3, [r2, r3]
 594 02d2 1A1C     		adds	r2, r3, #0
 595 02d4 0293     		str	r3, [sp, #8]
 596              	.LVL72:
 160:..\..\..\liblc3\src/tns.c **** 
 161:..\..\..\liblc3\src/tns.c ****         gain[f] = err;
 597              		.loc 1 161 0
 598 02d6 B300     		lsls	r3, r6, #2
 599 02d8 5E99     		ldr	r1, [sp, #376]
 600 02da 8C46     		mov	ip, r1
 601 02dc 6344     		add	r3, r3, ip
 602 02de 9B46     		mov	fp, r3
 603 02e0 1900     		movs	r1, r3
 604 02e2 0A60     		str	r2, [r1]
 162:..\..\..\liblc3\src/tns.c **** 
 163:..\..\..\liblc3\src/tns.c ****         a0[0] = 1;
 605              		.loc 1 163 0
 606 02e4 FE23     		movs	r3, #254
 607 02e6 9B05     		lsls	r3, r3, #22
 608 02e8 2B60     		str	r3, [r5]
 609              	.LVL73:
 610              	.LBB52:
 164:..\..\..\liblc3\src/tns.c ****         for (int k = 1; k <= maxorder; ) {
 611              		.loc 1 164 0
 612 02ea 0124     		movs	r4, #1
ARM GAS  C:\Users\rdn\AppData\Local\Temp\ccet7BYP.s 			page 15


 613 02ec A946     		mov	r9, r5
 614 02ee 3500     		movs	r5, r6
 615              	.LVL74:
 616 02f0 A9E0     		b	.L28
 617              	.LVL75:
 618              	.L37:
 165:..\..\..\liblc3\src/tns.c **** 
 166:..\..\..\liblc3\src/tns.c ****             rc = -r[f][k];
 619              		.loc 1 166 0
 620 02f2 EB00     		lsls	r3, r5, #3
 621 02f4 5B19     		adds	r3, r3, r5
 622 02f6 1B19     		adds	r3, r3, r4
 623 02f8 9B00     		lsls	r3, r3, #2
 624 02fa 26AA     		add	r2, sp, #152
 625 02fc 9B58     		ldr	r3, [r3, r2]
 626 02fe 8022     		movs	r2, #128
 627 0300 1206     		lsls	r2, r2, #24
 628 0302 9F18     		adds	r7, r3, r2
 629              	.LVL76:
 630              	.LBB53:
 167:..\..\..\liblc3\src/tns.c ****             for (int i = 1; i < k; i++)
 631              		.loc 1 167 0
 632 0304 0126     		movs	r6, #1
 633 0306 0197     		str	r7, [sp, #4]
 634 0308 4F46     		mov	r7, r9
 635              	.LVL77:
 636 030a 10E0     		b	.L29
 637              	.LVL78:
 638              	.L30:
 168:..\..\..\liblc3\src/tns.c ****                 rc -= a0[i] * r[f][k-i];
 639              		.loc 1 168 0 discriminator 3
 640 030c B300     		lsls	r3, r6, #2
 641 030e D859     		ldr	r0, [r3, r7]
 642 0310 A21B     		subs	r2, r4, r6
 643 0312 EB00     		lsls	r3, r5, #3
 644 0314 5B19     		adds	r3, r3, r5
 645 0316 9B18     		adds	r3, r3, r2
 646 0318 9B00     		lsls	r3, r3, #2
 647 031a 26AA     		add	r2, sp, #152
 648 031c 9958     		ldr	r1, [r3, r2]
 649 031e FFF7FEFF 		bl	__aeabi_fmul
 650              	.LVL79:
 651 0322 011C     		adds	r1, r0, #0
 652 0324 0198     		ldr	r0, [sp, #4]
 653 0326 FFF7FEFF 		bl	__aeabi_fsub
 654              	.LVL80:
 655 032a 0190     		str	r0, [sp, #4]
 656              	.LVL81:
 167:..\..\..\liblc3\src/tns.c ****             for (int i = 1; i < k; i++)
 657              		.loc 1 167 0 discriminator 3
 658 032c 0136     		adds	r6, r6, #1
 659              	.LVL82:
 660              	.L29:
 167:..\..\..\liblc3\src/tns.c ****             for (int i = 1; i < k; i++)
 661              		.loc 1 167 0 is_stmt 0 discriminator 1
 662 032e B442     		cmp	r4, r6
 663 0330 ECDC     		bgt	.L30
ARM GAS  C:\Users\rdn\AppData\Local\Temp\ccet7BYP.s 			page 16


 664 0332 B946     		mov	r9, r7
 665 0334 019F     		ldr	r7, [sp, #4]
 666              	.LVL83:
 667              	.LBE53:
 169:..\..\..\liblc3\src/tns.c **** 
 170:..\..\..\liblc3\src/tns.c ****             rc /= err;
 668              		.loc 1 170 0 is_stmt 1
 669 0336 029E     		ldr	r6, [sp, #8]
 670              	.LVL84:
 671 0338 311C     		adds	r1, r6, #0
 672 033a 381C     		adds	r0, r7, #0
 673 033c FFF7FEFF 		bl	__aeabi_fdiv
 674              	.LVL85:
 675 0340 0190     		str	r0, [sp, #4]
 676              	.LVL86:
 171:..\..\..\liblc3\src/tns.c ****             err *= 1 - rc * rc;
 677              		.loc 1 171 0
 678 0342 011C     		adds	r1, r0, #0
 679 0344 FFF7FEFF 		bl	__aeabi_fmul
 680              	.LVL87:
 681 0348 011C     		adds	r1, r0, #0
 682 034a FE20     		movs	r0, #254
 683 034c 8005     		lsls	r0, r0, #22
 684 034e FFF7FEFF 		bl	__aeabi_fsub
 685              	.LVL88:
 686 0352 011C     		adds	r1, r0, #0
 687 0354 301C     		adds	r0, r6, #0
 688 0356 FFF7FEFF 		bl	__aeabi_fmul
 689              	.LVL89:
 690 035a 0290     		str	r0, [sp, #8]
 691              	.LVL90:
 692              	.LBB54:
 172:..\..\..\liblc3\src/tns.c **** 
 173:..\..\..\liblc3\src/tns.c ****             for (int i = 1; i < k; i++)
 693              		.loc 1 173 0
 694 035c 0127     		movs	r7, #1
 695 035e A846     		mov	r8, r5
 696 0360 4D46     		mov	r5, r9
 697              	.LVL91:
 698 0362 0FE0     		b	.L31
 699              	.LVL92:
 700              	.L32:
 174:..\..\..\liblc3\src/tns.c ****                 a1[i] = a0[i] + rc * a0[k-i];
 701              		.loc 1 174 0 discriminator 3
 702 0364 BE00     		lsls	r6, r7, #2
 703 0366 7359     		ldr	r3, [r6, r5]
 704 0368 9946     		mov	r9, r3
 705 036a E31B     		subs	r3, r4, r7
 706 036c 9B00     		lsls	r3, r3, #2
 707 036e 5959     		ldr	r1, [r3, r5]
 708 0370 0198     		ldr	r0, [sp, #4]
 709 0372 FFF7FEFF 		bl	__aeabi_fmul
 710              	.LVL93:
 711 0376 011C     		adds	r1, r0, #0
 712 0378 4846     		mov	r0, r9
 713 037a FFF7FEFF 		bl	__aeabi_fadd
 714              	.LVL94:
ARM GAS  C:\Users\rdn\AppData\Local\Temp\ccet7BYP.s 			page 17


 715 037e 0BAB     		add	r3, sp, #44
 716 0380 F050     		str	r0, [r6, r3]
 173:..\..\..\liblc3\src/tns.c ****                 a1[i] = a0[i] + rc * a0[k-i];
 717              		.loc 1 173 0 discriminator 3
 718 0382 0137     		adds	r7, r7, #1
 719              	.LVL95:
 720              	.L31:
 173:..\..\..\liblc3\src/tns.c ****                 a1[i] = a0[i] + rc * a0[k-i];
 721              		.loc 1 173 0 is_stmt 0 discriminator 1
 722 0384 BC42     		cmp	r4, r7
 723 0386 EDDC     		bgt	.L32
 724 0388 A946     		mov	r9, r5
 725 038a 4546     		mov	r5, r8
 726              	.LVL96:
 727              	.LBE54:
 175:..\..\..\liblc3\src/tns.c ****             a1[k++] = rc;
 728              		.loc 1 175 0 is_stmt 1
 729 038c 671C     		adds	r7, r4, #1
 730              	.LVL97:
 731 038e A300     		lsls	r3, r4, #2
 732 0390 0BAA     		add	r2, sp, #44
 733 0392 0199     		ldr	r1, [sp, #4]
 734 0394 9950     		str	r1, [r3, r2]
 176:..\..\..\liblc3\src/tns.c **** 
 177:..\..\..\liblc3\src/tns.c ****             rc = -r[f][k];
 735              		.loc 1 177 0
 736 0396 EB00     		lsls	r3, r5, #3
 737 0398 5B19     		adds	r3, r3, r5
 738 039a DB19     		adds	r3, r3, r7
 739 039c 9B00     		lsls	r3, r3, #2
 740 039e 26AA     		add	r2, sp, #152
 741 03a0 9B58     		ldr	r3, [r3, r2]
 742 03a2 8022     		movs	r2, #128
 743 03a4 1206     		lsls	r2, r2, #24
 744 03a6 9446     		mov	ip, r2
 745 03a8 6344     		add	r3, r3, ip
 746 03aa 0193     		str	r3, [sp, #4]
 747              	.LVL98:
 748              	.LBB55:
 178:..\..\..\liblc3\src/tns.c ****             for (int i = 1; i < k; i++)
 749              		.loc 1 178 0
 750 03ac 0126     		movs	r6, #1
 751 03ae 17E0     		b	.L33
 752              	.L58:
 753              		.align	2
 754              	.L57:
 755 03b0 00000000 		.word	.LANCHOR0
 756 03b4 80000000 		.word	.LANCHOR1
 757 03b8 00010000 		.word	.LANCHOR2
 758              	.LVL99:
 759              	.L34:
 179:..\..\..\liblc3\src/tns.c ****                 rc -= a1[i] * r[f][k-i];
 760              		.loc 1 179 0 discriminator 3
 761 03bc B200     		lsls	r2, r6, #2
 762 03be 0BAB     		add	r3, sp, #44
 763 03c0 D058     		ldr	r0, [r2, r3]
 764 03c2 BA1B     		subs	r2, r7, r6
ARM GAS  C:\Users\rdn\AppData\Local\Temp\ccet7BYP.s 			page 18


 765 03c4 EB00     		lsls	r3, r5, #3
 766 03c6 5B19     		adds	r3, r3, r5
 767 03c8 9B18     		adds	r3, r3, r2
 768 03ca 9B00     		lsls	r3, r3, #2
 769 03cc 26AA     		add	r2, sp, #152
 770 03ce 9958     		ldr	r1, [r3, r2]
 771 03d0 FFF7FEFF 		bl	__aeabi_fmul
 772              	.LVL100:
 773 03d4 011C     		adds	r1, r0, #0
 774 03d6 0198     		ldr	r0, [sp, #4]
 775 03d8 FFF7FEFF 		bl	__aeabi_fsub
 776              	.LVL101:
 777 03dc 0190     		str	r0, [sp, #4]
 778              	.LVL102:
 178:..\..\..\liblc3\src/tns.c ****             for (int i = 1; i < k; i++)
 779              		.loc 1 178 0 discriminator 3
 780 03de 0136     		adds	r6, r6, #1
 781              	.LVL103:
 782              	.L33:
 178:..\..\..\liblc3\src/tns.c ****             for (int i = 1; i < k; i++)
 783              		.loc 1 178 0 is_stmt 0 discriminator 1
 784 03e0 BE42     		cmp	r6, r7
 785 03e2 EBDB     		blt	.L34
 786              	.LBE55:
 180:..\..\..\liblc3\src/tns.c **** 
 181:..\..\..\liblc3\src/tns.c ****             rc /= err;
 787              		.loc 1 181 0 is_stmt 1
 788 03e4 029E     		ldr	r6, [sp, #8]
 789              	.LVL104:
 790 03e6 311C     		adds	r1, r6, #0
 791 03e8 0198     		ldr	r0, [sp, #4]
 792 03ea FFF7FEFF 		bl	__aeabi_fdiv
 793              	.LVL105:
 794 03ee 0190     		str	r0, [sp, #4]
 795              	.LVL106:
 182:..\..\..\liblc3\src/tns.c ****             err *= 1 - rc * rc;
 796              		.loc 1 182 0
 797 03f0 011C     		adds	r1, r0, #0
 798 03f2 FFF7FEFF 		bl	__aeabi_fmul
 799              	.LVL107:
 800 03f6 011C     		adds	r1, r0, #0
 801 03f8 FE20     		movs	r0, #254
 802 03fa 8005     		lsls	r0, r0, #22
 803 03fc FFF7FEFF 		bl	__aeabi_fsub
 804              	.LVL108:
 805 0400 011C     		adds	r1, r0, #0
 806 0402 301C     		adds	r0, r6, #0
 807 0404 FFF7FEFF 		bl	__aeabi_fmul
 808              	.LVL109:
 809 0408 0290     		str	r0, [sp, #8]
 810              	.LVL110:
 811              	.LBB56:
 183:..\..\..\liblc3\src/tns.c **** 
 184:..\..\..\liblc3\src/tns.c ****             for (int i = 1; i < k; i++)
 812              		.loc 1 184 0
 813 040a 0126     		movs	r6, #1
 814 040c A846     		mov	r8, r5
ARM GAS  C:\Users\rdn\AppData\Local\Temp\ccet7BYP.s 			page 19


 815 040e A246     		mov	r10, r4
 816 0410 10E0     		b	.L35
 817              	.LVL111:
 818              	.L36:
 185:..\..\..\liblc3\src/tns.c ****                 a0[i] = a1[i] + rc * a1[k-i];
 819              		.loc 1 185 0 discriminator 3
 820 0412 B300     		lsls	r3, r6, #2
 821 0414 4A46     		mov	r2, r9
 822 0416 D418     		adds	r4, r2, r3
 823 0418 0BAA     		add	r2, sp, #44
 824 041a 9D58     		ldr	r5, [r3, r2]
 825 041c BB1B     		subs	r3, r7, r6
 826 041e 9B00     		lsls	r3, r3, #2
 827 0420 9958     		ldr	r1, [r3, r2]
 828 0422 0198     		ldr	r0, [sp, #4]
 829 0424 FFF7FEFF 		bl	__aeabi_fmul
 830              	.LVL112:
 831 0428 011C     		adds	r1, r0, #0
 832 042a 281C     		adds	r0, r5, #0
 833 042c FFF7FEFF 		bl	__aeabi_fadd
 834              	.LVL113:
 835 0430 2060     		str	r0, [r4]
 184:..\..\..\liblc3\src/tns.c ****                 a0[i] = a1[i] + rc * a1[k-i];
 836              		.loc 1 184 0 discriminator 3
 837 0432 0136     		adds	r6, r6, #1
 838              	.LVL114:
 839              	.L35:
 184:..\..\..\liblc3\src/tns.c ****                 a0[i] = a1[i] + rc * a1[k-i];
 840              		.loc 1 184 0 is_stmt 0 discriminator 1
 841 0434 BE42     		cmp	r6, r7
 842 0436 ECDB     		blt	.L36
 843 0438 4546     		mov	r5, r8
 844 043a 5446     		mov	r4, r10
 845              	.LBE56:
 186:..\..\..\liblc3\src/tns.c ****             a0[k++] = rc;
 846              		.loc 1 186 0 is_stmt 1
 847 043c 0234     		adds	r4, r4, #2
 848              	.LVL115:
 849 043e BF00     		lsls	r7, r7, #2
 850 0440 4B46     		mov	r3, r9
 851 0442 019A     		ldr	r2, [sp, #4]
 852 0444 DA51     		str	r2, [r3, r7]
 853              	.LVL116:
 854              	.L28:
 164:..\..\..\liblc3\src/tns.c **** 
 855              		.loc 1 164 0 discriminator 1
 856 0446 069B     		ldr	r3, [sp, #24]
 857 0448 9C42     		cmp	r4, r3
 858 044a 00DC     		bgt	.LCB963
 859 044c 51E7     		b	.L37	@long jump
 860              	.LCB963:
 861 044e 2E00     		movs	r6, r5
 862              	.LBE52:
 187:..\..\..\liblc3\src/tns.c ****         }
 188:..\..\..\liblc3\src/tns.c **** 
 189:..\..\..\liblc3\src/tns.c ****         gain[f] /= err;
 863              		.loc 1 189 0 discriminator 2
ARM GAS  C:\Users\rdn\AppData\Local\Temp\ccet7BYP.s 			page 20


 864 0450 0299     		ldr	r1, [sp, #8]
 865 0452 5C46     		mov	r4, fp
 866              	.LVL117:
 867 0454 2068     		ldr	r0, [r4]
 868 0456 FFF7FEFF 		bl	__aeabi_fdiv
 869              	.LVL118:
 870 045a 2060     		str	r0, [r4]
 871              	.LBE51:
 157:..\..\..\liblc3\src/tns.c ****         float *a0 = a[f], a1[9];
 872              		.loc 1 157 0 discriminator 2
 873 045c 0136     		adds	r6, r6, #1
 874              	.LVL119:
 875              	.L27:
 157:..\..\..\liblc3\src/tns.c ****         float *a0 = a[f], a1[9];
 876              		.loc 1 157 0 is_stmt 0 discriminator 1
 877 045e 079B     		ldr	r3, [sp, #28]
 878 0460 9E42     		cmp	r6, r3
 879 0462 00DA     		bge	.LCB985
 880 0464 2EE7     		b	.L38	@long jump
 881              	.LCB985:
 882              	.LBE50:
 190:..\..\..\liblc3\src/tns.c ****     }
 191:..\..\..\liblc3\src/tns.c **** }
 883              		.loc 1 191 0 is_stmt 1
 884 0466 55B0     		add	sp, sp, #340
 885              		@ sp needed
 886              	.LVL120:
 887 0468 3CBC     		pop	{r2, r3, r4, r5}
 888 046a 9046     		mov	r8, r2
 889 046c 9946     		mov	r9, r3
 890 046e A246     		mov	r10, r4
 891 0470 AB46     		mov	fp, r5
 892 0472 F0BD     		pop	{r4, r5, r6, r7, pc}
 893              		.cfi_endproc
 894              	.LFE22:
 895              		.size	compute_lpc_coeffs, .-compute_lpc_coeffs
 896              		.section	.text.lpc_weighting,"ax",%progbits
 897              		.align	2
 898              		.code	16
 899              		.thumb_func
 900              		.type	lpc_weighting, %function
 901              	lpc_weighting:
 902              	.LFB23:
 192:..\..\..\liblc3\src/tns.c **** 
 193:..\..\..\liblc3\src/tns.c **** /**
 194:..\..\..\liblc3\src/tns.c ****  * LPC Weighting
 195:..\..\..\liblc3\src/tns.c ****  * gain, a         Prediction gain and LPC coefficients, weighted as output
 196:..\..\..\liblc3\src/tns.c ****  */
 197:..\..\..\liblc3\src/tns.c **** LC3_HOT static void lpc_weighting(float pred_gain, float *a)
 198:..\..\..\liblc3\src/tns.c **** {
 903              		.loc 1 198 0
 904              		.cfi_startproc
 905              		@ args = 0, pretend = 0, frame = 8
 906              		@ frame_needed = 0, uses_anonymous_args = 0
 907              	.LVL121:
 908 0000 F0B5     		push	{r4, r5, r6, r7, lr}
 909              		.cfi_def_cfa_offset 20
ARM GAS  C:\Users\rdn\AppData\Local\Temp\ccet7BYP.s 			page 21


 910              		.cfi_offset 4, -20
 911              		.cfi_offset 5, -16
 912              		.cfi_offset 6, -12
 913              		.cfi_offset 7, -8
 914              		.cfi_offset 14, -4
 915 0002 83B0     		sub	sp, sp, #12
 916              		.cfi_def_cfa_offset 32
 917 0004 0E00     		movs	r6, r1
 199:..\..\..\liblc3\src/tns.c ****     float gamma = 1.f - (1.f - 0.85f) * (2.f - pred_gain) / (2.f - 1.5f);
 918              		.loc 1 199 0
 919 0006 011C     		adds	r1, r0, #0
 920              	.LVL122:
 921 0008 8020     		movs	r0, #128
 922              	.LVL123:
 923 000a C005     		lsls	r0, r0, #23
 924 000c FFF7FEFF 		bl	__aeabi_fsub
 925              	.LVL124:
 926 0010 1049     		ldr	r1, .L62
 927 0012 FFF7FEFF 		bl	__aeabi_fmul
 928              	.LVL125:
 929 0016 011C     		adds	r1, r0, #0
 930 0018 FFF7FEFF 		bl	__aeabi_fadd
 931              	.LVL126:
 932 001c 011C     		adds	r1, r0, #0
 933 001e FE20     		movs	r0, #254
 934 0020 8005     		lsls	r0, r0, #22
 935 0022 FFF7FEFF 		bl	__aeabi_fsub
 936              	.LVL127:
 937 0026 0190     		str	r0, [sp, #4]
 938              	.LVL128:
 939              	.LBB57:
 200:..\..\..\liblc3\src/tns.c ****     float g = 1.f;
 201:..\..\..\liblc3\src/tns.c **** 
 202:..\..\..\liblc3\src/tns.c ****     for (int i = 1; i < 9; i++)
 940              		.loc 1 202 0
 941 0028 0127     		movs	r7, #1
 942              	.LBE57:
 200:..\..\..\liblc3\src/tns.c ****     float g = 1.f;
 943              		.loc 1 200 0
 944 002a FE25     		movs	r5, #254
 945 002c AD05     		lsls	r5, r5, #22
 946              	.LBB58:
 947              		.loc 1 202 0
 948 002e 0CE0     		b	.L60
 949              	.LVL129:
 950              	.L61:
 203:..\..\..\liblc3\src/tns.c ****         a[i] *= (g *= gamma);
 951              		.loc 1 203 0 discriminator 3
 952 0030 0199     		ldr	r1, [sp, #4]
 953 0032 281C     		adds	r0, r5, #0
 954 0034 FFF7FEFF 		bl	__aeabi_fmul
 955              	.LVL130:
 956 0038 051C     		adds	r5, r0, #0
 957              	.LVL131:
 958 003a BC00     		lsls	r4, r7, #2
 959 003c 3419     		adds	r4, r6, r4
 960 003e 011C     		adds	r1, r0, #0
ARM GAS  C:\Users\rdn\AppData\Local\Temp\ccet7BYP.s 			page 22


 961 0040 2068     		ldr	r0, [r4]
 962              	.LVL132:
 963 0042 FFF7FEFF 		bl	__aeabi_fmul
 964              	.LVL133:
 965 0046 2060     		str	r0, [r4]
 202:..\..\..\liblc3\src/tns.c ****         a[i] *= (g *= gamma);
 966              		.loc 1 202 0 discriminator 3
 967 0048 0137     		adds	r7, r7, #1
 968              	.LVL134:
 969              	.L60:
 202:..\..\..\liblc3\src/tns.c ****         a[i] *= (g *= gamma);
 970              		.loc 1 202 0 is_stmt 0 discriminator 1
 971 004a 082F     		cmp	r7, #8
 972 004c F0DD     		ble	.L61
 973              	.LBE58:
 204:..\..\..\liblc3\src/tns.c **** }
 974              		.loc 1 204 0 is_stmt 1
 975 004e 03B0     		add	sp, sp, #12
 976              		@ sp needed
 977              	.LVL135:
 978              	.LVL136:
 979              	.LVL137:
 980 0050 F0BD     		pop	{r4, r5, r6, r7, pc}
 981              	.L63:
 982 0052 C046     		.align	2
 983              	.L62:
 984 0054 9899193E 		.word	1041865112
 985              		.cfi_endproc
 986              	.LFE23:
 987              		.size	lpc_weighting, .-lpc_weighting
 988              		.section	.text.lpc_reflection,"ax",%progbits
 989              		.align	2
 990              		.code	16
 991              		.thumb_func
 992              		.type	lpc_reflection, %function
 993              	lpc_reflection:
 994              	.LFB24:
 205:..\..\..\liblc3\src/tns.c **** 
 206:..\..\..\liblc3\src/tns.c **** /**
 207:..\..\..\liblc3\src/tns.c ****  * LPC reflection
 208:..\..\..\liblc3\src/tns.c ****  * a, maxorder     LPC coefficients, and maximum order (4 or 8)
 209:..\..\..\liblc3\src/tns.c ****  * rc              Output refelection coefficients
 210:..\..\..\liblc3\src/tns.c ****  */
 211:..\..\..\liblc3\src/tns.c **** LC3_HOT static void lpc_reflection(
 212:..\..\..\liblc3\src/tns.c ****     const float *a, int maxorder, float *rc)
 213:..\..\..\liblc3\src/tns.c **** {
 995              		.loc 1 213 0
 996              		.cfi_startproc
 997              		@ args = 0, pretend = 0, frame = 64
 998              		@ frame_needed = 0, uses_anonymous_args = 0
 999              	.LVL138:
 1000 0000 F0B5     		push	{r4, r5, r6, r7, lr}
 1001              		.cfi_def_cfa_offset 20
 1002              		.cfi_offset 4, -20
 1003              		.cfi_offset 5, -16
 1004              		.cfi_offset 6, -12
 1005              		.cfi_offset 7, -8
ARM GAS  C:\Users\rdn\AppData\Local\Temp\ccet7BYP.s 			page 23


 1006              		.cfi_offset 14, -4
 1007 0002 5F46     		mov	r7, fp
 1008 0004 5646     		mov	r6, r10
 1009 0006 4D46     		mov	r5, r9
 1010 0008 4446     		mov	r4, r8
 1011 000a F0B4     		push	{r4, r5, r6, r7}
 1012              		.cfi_def_cfa_offset 36
 1013              		.cfi_offset 8, -36
 1014              		.cfi_offset 9, -32
 1015              		.cfi_offset 10, -28
 1016              		.cfi_offset 11, -24
 1017 000c 91B0     		sub	sp, sp, #68
 1018              		.cfi_def_cfa_offset 104
 1019 000e 0500     		movs	r5, r0
 1020 0010 0F00     		movs	r7, r1
 1021 0012 9246     		mov	r10, r2
 214:..\..\..\liblc3\src/tns.c ****     float e, b[2][7], *b0, *b1;
 215:..\..\..\liblc3\src/tns.c **** 
 216:..\..\..\liblc3\src/tns.c ****     rc[maxorder-1] = a[maxorder];
 1022              		.loc 1 216 0
 1023 0014 3A4B     		ldr	r3, .L71
 1024 0016 CB18     		adds	r3, r1, r3
 1025 0018 9B00     		lsls	r3, r3, #2
 1026 001a 9146     		mov	r9, r2
 1027 001c 9944     		add	r9, r9, r3
 1028 001e 8B00     		lsls	r3, r1, #2
 1029 0020 1858     		ldr	r0, [r3, r0]
 1030              	.LVL139:
 1031 0022 4B46     		mov	r3, r9
 1032 0024 1860     		str	r0, [r3]
 217:..\..\..\liblc3\src/tns.c ****     e = 1 - rc[maxorder-1] * rc[maxorder-1];
 1033              		.loc 1 217 0
 1034 0026 011C     		adds	r1, r0, #0
 1035              	.LVL140:
 1036 0028 FFF7FEFF 		bl	__aeabi_fmul
 1037              	.LVL141:
 1038 002c 011C     		adds	r1, r0, #0
 1039 002e FE20     		movs	r0, #254
 1040 0030 8005     		lsls	r0, r0, #22
 1041 0032 FFF7FEFF 		bl	__aeabi_fsub
 1042              	.LVL142:
 1043 0036 0190     		str	r0, [sp, #4]
 1044              	.LVL143:
 1045              	.LBB59:
 218:..\..\..\liblc3\src/tns.c **** 
 219:..\..\..\liblc3\src/tns.c ****     b1 = b[1];
 220:..\..\..\liblc3\src/tns.c ****     for (int i = 0; i < maxorder-1; i++)
 1046              		.loc 1 220 0
 1047 0038 0022     		movs	r2, #0
 1048 003a 17E0     		b	.L65
 1049              	.LVL144:
 1050              	.L66:
 221:..\..\..\liblc3\src/tns.c ****         b1[i] = (a[1+i] - rc[maxorder-1] * a[(maxorder-1)-i]) / e;
 1051              		.loc 1 221 0 discriminator 3
 1052 003c 9400     		lsls	r4, r2, #2
 1053 003e 09A9     		add	r1, sp, #36
 1054              	.LVL145:
ARM GAS  C:\Users\rdn\AppData\Local\Temp\ccet7BYP.s 			page 24


 1055 0040 8C46     		mov	ip, r1
 1056 0042 6444     		add	r4, r4, ip
 1057 0044 561C     		adds	r6, r2, #1
 1058 0046 B100     		lsls	r1, r6, #2
 1059              	.LVL146:
 1060 0048 4959     		ldr	r1, [r1, r5]
 1061 004a 8846     		mov	r8, r1
 1062 004c 9B1A     		subs	r3, r3, r2
 1063 004e 9B00     		lsls	r3, r3, #2
 1064 0050 5959     		ldr	r1, [r3, r5]
 1065 0052 4B46     		mov	r3, r9
 1066 0054 1868     		ldr	r0, [r3]
 1067 0056 FFF7FEFF 		bl	__aeabi_fmul
 1068              	.LVL147:
 1069 005a 011C     		adds	r1, r0, #0
 1070 005c 4046     		mov	r0, r8
 1071 005e FFF7FEFF 		bl	__aeabi_fsub
 1072              	.LVL148:
 1073 0062 0199     		ldr	r1, [sp, #4]
 1074 0064 FFF7FEFF 		bl	__aeabi_fdiv
 1075              	.LVL149:
 1076 0068 2060     		str	r0, [r4]
 1077              	.LVL150:
 220:..\..\..\liblc3\src/tns.c ****         b1[i] = (a[1+i] - rc[maxorder-1] * a[(maxorder-1)-i]) / e;
 1078              		.loc 1 220 0 discriminator 3
 1079 006a 3200     		movs	r2, r6
 1080              	.LVL151:
 1081              	.L65:
 220:..\..\..\liblc3\src/tns.c ****         b1[i] = (a[1+i] - rc[maxorder-1] * a[(maxorder-1)-i]) / e;
 1082              		.loc 1 220 0 is_stmt 0 discriminator 1
 1083 006c 7B1E     		subs	r3, r7, #1
 1084 006e 9A42     		cmp	r2, r3
 1085 0070 E4DB     		blt	.L66
 1086              	.LBE59:
 1087              	.LBB60:
 222:..\..\..\liblc3\src/tns.c **** 
 223:..\..\..\liblc3\src/tns.c ****     for (int k = maxorder-2; k > 0; k--) {
 1088              		.loc 1 223 0 is_stmt 1
 1089 0072 BD1E     		subs	r5, r7, #2
 1090              	.LVL152:
 1091              	.LBE60:
 219:..\..\..\liblc3\src/tns.c ****     for (int i = 0; i < maxorder-1; i++)
 1092              		.loc 1 219 0
 1093 0074 09AE     		add	r6, sp, #36
 1094              	.LVL153:
 1095              	.LBB62:
 1096              		.loc 1 223 0
 1097 0076 34E0     		b	.L67
 1098              	.LVL154:
 1099              	.L70:
 224:..\..\..\liblc3\src/tns.c ****         b0 = b1, b1 = b[k & 1];
 1100              		.loc 1 224 0
 1101 0078 0123     		movs	r3, #1
 1102 007a 2B40     		ands	r3, r5
 1103 007c DA00     		lsls	r2, r3, #3
 1104 007e D31A     		subs	r3, r2, r3
 1105 0080 9A00     		lsls	r2, r3, #2
ARM GAS  C:\Users\rdn\AppData\Local\Temp\ccet7BYP.s 			page 25


 1106 0082 02AB     		add	r3, sp, #8
 1107 0084 9C46     		mov	ip, r3
 1108 0086 6244     		add	r2, r2, ip
 1109 0088 1700     		movs	r7, r2
 1110              	.LVL155:
 225:..\..\..\liblc3\src/tns.c **** 
 226:..\..\..\liblc3\src/tns.c ****         rc[k] = b0[k];
 1111              		.loc 1 226 0
 1112 008a AB00     		lsls	r3, r5, #2
 1113 008c D346     		mov	fp, r10
 1114 008e 9B44     		add	fp, fp, r3
 1115 0090 F058     		ldr	r0, [r6, r3]
 1116 0092 5B46     		mov	r3, fp
 1117 0094 1860     		str	r0, [r3]
 227:..\..\..\liblc3\src/tns.c ****         e = 1 - rc[k] * rc[k];
 1118              		.loc 1 227 0
 1119 0096 011C     		adds	r1, r0, #0
 1120 0098 FFF7FEFF 		bl	__aeabi_fmul
 1121              	.LVL156:
 1122 009c 011C     		adds	r1, r0, #0
 1123 009e FE20     		movs	r0, #254
 1124 00a0 8005     		lsls	r0, r0, #22
 1125 00a2 FFF7FEFF 		bl	__aeabi_fsub
 1126              	.LVL157:
 1127 00a6 0190     		str	r0, [sp, #4]
 1128              	.LVL158:
 1129              	.LBB61:
 228:..\..\..\liblc3\src/tns.c **** 
 229:..\..\..\liblc3\src/tns.c ****         for (int i = 0; i < k; i++)
 1130              		.loc 1 229 0
 1131 00a8 0024     		movs	r4, #0
 1132 00aa 16E0     		b	.L68
 1133              	.LVL159:
 1134              	.L69:
 230:..\..\..\liblc3\src/tns.c ****             b1[i] = (b0[i] - rc[k] * b0[k-1-i]) / e;
 1135              		.loc 1 230 0 discriminator 3
 1136 00ac A300     		lsls	r3, r4, #2
 1137 00ae FA18     		adds	r2, r7, r3
 1138 00b0 9046     		mov	r8, r2
 1139 00b2 F358     		ldr	r3, [r6, r3]
 1140 00b4 9946     		mov	r9, r3
 1141 00b6 6B1E     		subs	r3, r5, #1
 1142 00b8 1B1B     		subs	r3, r3, r4
 1143 00ba 9B00     		lsls	r3, r3, #2
 1144 00bc 9959     		ldr	r1, [r3, r6]
 1145 00be 5B46     		mov	r3, fp
 1146 00c0 1868     		ldr	r0, [r3]
 1147 00c2 FFF7FEFF 		bl	__aeabi_fmul
 1148              	.LVL160:
 1149 00c6 011C     		adds	r1, r0, #0
 1150 00c8 4846     		mov	r0, r9
 1151 00ca FFF7FEFF 		bl	__aeabi_fsub
 1152              	.LVL161:
 1153 00ce 0199     		ldr	r1, [sp, #4]
 1154 00d0 FFF7FEFF 		bl	__aeabi_fdiv
 1155              	.LVL162:
 1156 00d4 4346     		mov	r3, r8
ARM GAS  C:\Users\rdn\AppData\Local\Temp\ccet7BYP.s 			page 26


 1157 00d6 1860     		str	r0, [r3]
 229:..\..\..\liblc3\src/tns.c ****             b1[i] = (b0[i] - rc[k] * b0[k-1-i]) / e;
 1158              		.loc 1 229 0 discriminator 3
 1159 00d8 0134     		adds	r4, r4, #1
 1160              	.LVL163:
 1161              	.L68:
 229:..\..\..\liblc3\src/tns.c ****             b1[i] = (b0[i] - rc[k] * b0[k-1-i]) / e;
 1162              		.loc 1 229 0 is_stmt 0 discriminator 1
 1163 00da A542     		cmp	r5, r4
 1164 00dc E6DC     		bgt	.L69
 1165              	.LBE61:
 223:..\..\..\liblc3\src/tns.c ****         b0 = b1, b1 = b[k & 1];
 1166              		.loc 1 223 0 is_stmt 1 discriminator 2
 1167 00de 013D     		subs	r5, r5, #1
 1168              	.LVL164:
 224:..\..\..\liblc3\src/tns.c **** 
 1169              		.loc 1 224 0 discriminator 2
 1170 00e0 3E00     		movs	r6, r7
 1171              	.LVL165:
 1172              	.L67:
 223:..\..\..\liblc3\src/tns.c ****         b0 = b1, b1 = b[k & 1];
 1173              		.loc 1 223 0 discriminator 1
 1174 00e2 002D     		cmp	r5, #0
 1175 00e4 C8DC     		bgt	.L70
 1176              	.LBE62:
 231:..\..\..\liblc3\src/tns.c ****     }
 232:..\..\..\liblc3\src/tns.c **** 
 233:..\..\..\liblc3\src/tns.c ****     rc[0] = b1[0];
 1177              		.loc 1 233 0
 1178 00e6 3368     		ldr	r3, [r6]
 1179 00e8 0193     		str	r3, [sp, #4]
 1180 00ea 5346     		mov	r3, r10
 1181 00ec 019A     		ldr	r2, [sp, #4]
 1182 00ee 1A60     		str	r2, [r3]
 234:..\..\..\liblc3\src/tns.c **** }
 1183              		.loc 1 234 0
 1184 00f0 11B0     		add	sp, sp, #68
 1185              		@ sp needed
 1186              	.LVL166:
 1187              	.LVL167:
 1188              	.LVL168:
 1189 00f2 3CBC     		pop	{r2, r3, r4, r5}
 1190 00f4 9046     		mov	r8, r2
 1191 00f6 9946     		mov	r9, r3
 1192 00f8 A246     		mov	r10, r4
 1193 00fa AB46     		mov	fp, r5
 1194 00fc F0BD     		pop	{r4, r5, r6, r7, pc}
 1195              	.L72:
 1196 00fe C046     		.align	2
 1197              	.L71:
 1198 0100 FFFFFF3F 		.word	1073741823
 1199              		.cfi_endproc
 1200              	.LFE24:
 1201              		.size	lpc_reflection, .-lpc_reflection
 1202              		.global	__aeabi_fcmpge
 1203              		.global	__aeabi_fcmplt
 1204              		.section	.text.quantize_rc,"ax",%progbits
ARM GAS  C:\Users\rdn\AppData\Local\Temp\ccet7BYP.s 			page 27


 1205              		.align	2
 1206              		.code	16
 1207              		.thumb_func
 1208              		.type	quantize_rc, %function
 1209              	quantize_rc:
 1210              	.LFB25:
 235:..\..\..\liblc3\src/tns.c **** 
 236:..\..\..\liblc3\src/tns.c **** /**
 237:..\..\..\liblc3\src/tns.c ****  * Quantization of RC coefficients
 238:..\..\..\liblc3\src/tns.c ****  * rc, maxorder    Refelection coefficients, and maximum order (4 or 8)
 239:..\..\..\liblc3\src/tns.c ****  * order           Return order of coefficients
 240:..\..\..\liblc3\src/tns.c ****  * rc_i            Return quantized coefficients
 241:..\..\..\liblc3\src/tns.c ****  */
 242:..\..\..\liblc3\src/tns.c **** static void quantize_rc(const float *rc, int maxorder, int *order, int *rc_q)
 243:..\..\..\liblc3\src/tns.c **** {
 1211              		.loc 1 243 0
 1212              		.cfi_startproc
 1213              		@ args = 0, pretend = 0, frame = 8
 1214              		@ frame_needed = 0, uses_anonymous_args = 0
 1215              	.LVL169:
 1216 0000 F0B5     		push	{r4, r5, r6, r7, lr}
 1217              		.cfi_def_cfa_offset 20
 1218              		.cfi_offset 4, -20
 1219              		.cfi_offset 5, -16
 1220              		.cfi_offset 6, -12
 1221              		.cfi_offset 7, -8
 1222              		.cfi_offset 14, -4
 1223 0002 5F46     		mov	r7, fp
 1224 0004 5646     		mov	r6, r10
 1225 0006 4D46     		mov	r5, r9
 1226 0008 4446     		mov	r4, r8
 1227 000a F0B4     		push	{r4, r5, r6, r7}
 1228              		.cfi_def_cfa_offset 36
 1229              		.cfi_offset 8, -36
 1230              		.cfi_offset 9, -32
 1231              		.cfi_offset 10, -28
 1232              		.cfi_offset 11, -24
 1233 000c 83B0     		sub	sp, sp, #12
 1234              		.cfi_def_cfa_offset 48
 1235 000e 0190     		str	r0, [sp, #4]
 1236 0010 0091     		str	r1, [sp]
 1237 0012 9346     		mov	fp, r2
 1238 0014 9A46     		mov	r10, r3
 244:..\..\..\liblc3\src/tns.c ****     /* Quantization table, sin(delta * (i + 0.5)), delta = Pi / 17,
 245:..\..\..\liblc3\src/tns.c ****      * rounded to fixed point Q15 value (LC3-Plus HR requirements). */
 246:..\..\..\liblc3\src/tns.c **** 
 247:..\..\..\liblc3\src/tns.c ****     static float q_thr[] = {
 248:..\..\..\liblc3\src/tns.c ****         0x0bcfp-15, 0x2307p-15, 0x390ep-15, 0x4d23p-15,
 249:..\..\..\liblc3\src/tns.c ****         0x5e98p-15, 0x6cd4p-15, 0x775bp-15, 0x7dd2p-15,
 250:..\..\..\liblc3\src/tns.c ****     };
 251:..\..\..\liblc3\src/tns.c **** 
 252:..\..\..\liblc3\src/tns.c ****     *order = maxorder;
 1239              		.loc 1 252 0
 1240 0016 1300     		movs	r3, r2
 1241              	.LVL170:
 1242 0018 1960     		str	r1, [r3]
 1243              	.LVL171:
ARM GAS  C:\Users\rdn\AppData\Local\Temp\ccet7BYP.s 			page 28


 1244              	.LBB63:
 253:..\..\..\liblc3\src/tns.c **** 
 254:..\..\..\liblc3\src/tns.c ****     for (int i = 0; i < maxorder; i++) {
 1245              		.loc 1 254 0
 1246 001a 0023     		movs	r3, #0
 1247 001c 9846     		mov	r8, r3
 1248 001e 3BE0     		b	.L74
 1249              	.LVL172:
 1250              	.L83:
 1251              	.LBB64:
 255:..\..\..\liblc3\src/tns.c ****         float rc_m = fabsf(rc[i]);
 1252              		.loc 1 255 0
 1253 0020 4346     		mov	r3, r8
 1254 0022 9D00     		lsls	r5, r3, #2
 1255 0024 019B     		ldr	r3, [sp, #4]
 1256 0026 9946     		mov	r9, r3
 1257 0028 A944     		add	r9, r9, r5
 1258 002a 4B46     		mov	r3, r9
 1259 002c 1B68     		ldr	r3, [r3]
 1260 002e 5F00     		lsls	r7, r3, #1
 1261 0030 7F08     		lsrs	r7, r7, #1
 1262              	.LVL173:
 256:..\..\..\liblc3\src/tns.c **** 
 257:..\..\..\liblc3\src/tns.c ****         rc_q[i] = 4 * (rc_m >= q_thr[4]);
 1263              		.loc 1 257 0
 1264 0032 5544     		add	r5, r5, r10
 1265 0034 1D49     		ldr	r1, .L89
 1266 0036 381C     		adds	r0, r7, #0
 1267 0038 FFF7FEFF 		bl	__aeabi_fcmpge
 1268              	.LVL174:
 1269 003c 0028     		cmp	r0, #0
 1270 003e 01D0     		beq	.L88
 1271 0040 0423     		movs	r3, #4
 1272 0042 00E0     		b	.L75
 1273              	.L88:
 1274 0044 0023     		movs	r3, #0
 1275              	.L75:
 1276              		.loc 1 257 0 is_stmt 0 discriminator 4
 1277 0046 2B60     		str	r3, [r5]
 1278              	.LVL175:
 1279              	.LBB65:
 258:..\..\..\liblc3\src/tns.c ****         for (int j = 0; j < 4 && rc_m >= q_thr[rc_q[i]]; j++, rc_q[i]++);
 1280              		.loc 1 258 0 is_stmt 1 discriminator 4
 1281 0048 0026     		movs	r6, #0
 1282 004a 02E0     		b	.L77
 1283              	.LVL176:
 1284              	.L79:
 1285 004c 0136     		adds	r6, r6, #1
 1286              	.LVL177:
 1287 004e 0134     		adds	r4, r4, #1
 1288 0050 2C60     		str	r4, [r5]
 1289              	.LVL178:
 1290              	.L77:
 1291              		.loc 1 258 0 is_stmt 0 discriminator 1
 1292 0052 032E     		cmp	r6, #3
 1293 0054 09DC     		bgt	.L78
 1294              		.loc 1 258 0 discriminator 3
ARM GAS  C:\Users\rdn\AppData\Local\Temp\ccet7BYP.s 			page 29


 1295 0056 2C68     		ldr	r4, [r5]
 1296 0058 A300     		lsls	r3, r4, #2
 1297 005a 154A     		ldr	r2, .L89+4
 1298 005c D318     		adds	r3, r2, r3
 1299 005e D96F     		ldr	r1, [r3, #124]
 1300 0060 381C     		adds	r0, r7, #0
 1301 0062 FFF7FEFF 		bl	__aeabi_fcmpge
 1302              	.LVL179:
 1303 0066 0028     		cmp	r0, #0
 1304 0068 F0D1     		bne	.L79
 1305              	.L78:
 1306              	.LBE65:
 259:..\..\..\liblc3\src/tns.c **** 
 260:..\..\..\liblc3\src/tns.c ****         if (rc[i] < 0)
 1307              		.loc 1 260 0 is_stmt 1
 1308 006a 4B46     		mov	r3, r9
 1309 006c 1868     		ldr	r0, [r3]
 1310 006e 0021     		movs	r1, #0
 1311 0070 FFF7FEFF 		bl	__aeabi_fcmplt
 1312              	.LVL180:
 1313 0074 0028     		cmp	r0, #0
 1314 0076 02D0     		beq	.L80
 261:..\..\..\liblc3\src/tns.c ****             rc_q[i] = -rc_q[i];
 1315              		.loc 1 261 0
 1316 0078 2B68     		ldr	r3, [r5]
 1317 007a 5B42     		rsbs	r3, r3, #0
 1318 007c 2B60     		str	r3, [r5]
 1319              	.L80:
 262:..\..\..\liblc3\src/tns.c **** 
 263:..\..\..\liblc3\src/tns.c ****         *order = rc_q[i] != 0 ? maxorder : *order - 1;
 1320              		.loc 1 263 0
 1321 007e 2B68     		ldr	r3, [r5]
 1322 0080 002B     		cmp	r3, #0
 1323 0082 03D1     		bne	.L85
 1324              		.loc 1 263 0 is_stmt 0 discriminator 1
 1325 0084 5B46     		mov	r3, fp
 1326 0086 1B68     		ldr	r3, [r3]
 1327 0088 013B     		subs	r3, r3, #1
 1328 008a 00E0     		b	.L82
 1329              	.L85:
 1330              		.loc 1 263 0
 1331 008c 009B     		ldr	r3, [sp]
 1332              	.L82:
 1333              		.loc 1 263 0 discriminator 4
 1334 008e 5A46     		mov	r2, fp
 1335 0090 1360     		str	r3, [r2]
 1336              	.LBE64:
 254:..\..\..\liblc3\src/tns.c ****         float rc_m = fabsf(rc[i]);
 1337              		.loc 1 254 0 is_stmt 1 discriminator 4
 1338 0092 0123     		movs	r3, #1
 1339 0094 9C46     		mov	ip, r3
 1340 0096 E044     		add	r8, r8, ip
 1341              	.LVL181:
 1342              	.L74:
 254:..\..\..\liblc3\src/tns.c ****         float rc_m = fabsf(rc[i]);
 1343              		.loc 1 254 0 is_stmt 0 discriminator 2
 1344 0098 009B     		ldr	r3, [sp]
ARM GAS  C:\Users\rdn\AppData\Local\Temp\ccet7BYP.s 			page 30


 1345 009a 9845     		cmp	r8, r3
 1346 009c C0DB     		blt	.L83
 1347              	.LBE63:
 264:..\..\..\liblc3\src/tns.c ****     }
 265:..\..\..\liblc3\src/tns.c **** }
 1348              		.loc 1 265 0 is_stmt 1
 1349 009e 03B0     		add	sp, sp, #12
 1350              	.LVL182:
 1351              		@ sp needed
 1352              	.LVL183:
 1353              	.LVL184:
 1354 00a0 3CBC     		pop	{r2, r3, r4, r5}
 1355 00a2 9046     		mov	r8, r2
 1356 00a4 9946     		mov	r9, r3
 1357 00a6 A246     		mov	r10, r4
 1358 00a8 AB46     		mov	fp, r5
 1359 00aa F0BD     		pop	{r4, r5, r6, r7, pc}
 1360              	.L90:
 1361              		.align	2
 1362              	.L89:
 1363 00ac 00303D3F 		.word	1060974592
 1364 00b0 00010000 		.word	.LANCHOR2
 1365              		.cfi_endproc
 1366              	.LFE25:
 1367              		.size	quantize_rc, .-quantize_rc
 1368              		.section	.text.unquantize_rc,"ax",%progbits
 1369              		.align	2
 1370              		.code	16
 1371              		.thumb_func
 1372              		.type	unquantize_rc, %function
 1373              	unquantize_rc:
 1374              	.LFB26:
 266:..\..\..\liblc3\src/tns.c **** 
 267:..\..\..\liblc3\src/tns.c **** /**
 268:..\..\..\liblc3\src/tns.c ****  * Unquantization of RC coefficients
 269:..\..\..\liblc3\src/tns.c ****  * rc_q, order     Quantized coefficients, and order
 270:..\..\..\liblc3\src/tns.c ****  * rc              Return refelection coefficients
 271:..\..\..\liblc3\src/tns.c ****  */
 272:..\..\..\liblc3\src/tns.c **** static void unquantize_rc(const int *rc_q, int order, float rc[8])
 273:..\..\..\liblc3\src/tns.c **** {
 1375              		.loc 1 273 0
 1376              		.cfi_startproc
 1377              		@ args = 0, pretend = 0, frame = 0
 1378              		@ frame_needed = 0, uses_anonymous_args = 0
 1379              	.LVL185:
 1380 0000 F0B5     		push	{r4, r5, r6, r7, lr}
 1381              		.cfi_def_cfa_offset 20
 1382              		.cfi_offset 4, -20
 1383              		.cfi_offset 5, -16
 1384              		.cfi_offset 6, -12
 1385              		.cfi_offset 7, -8
 1386              		.cfi_offset 14, -4
 1387              	.LVL186:
 274:..\..\..\liblc3\src/tns.c ****     /* Quantization table, sin(delta * i), delta = Pi / 17,
 275:..\..\..\liblc3\src/tns.c ****      * rounded to fixed point Q15 value (LC3-Plus HR requirements). */
 276:..\..\..\liblc3\src/tns.c **** 
 277:..\..\..\liblc3\src/tns.c ****     static float q_inv[] = {
ARM GAS  C:\Users\rdn\AppData\Local\Temp\ccet7BYP.s 			page 31


 278:..\..\..\liblc3\src/tns.c ****         0x0000p-15, 0x1785p-15, 0x2e3dp-15, 0x4362p-15,
 279:..\..\..\liblc3\src/tns.c ****         0x563cp-15, 0x6625p-15, 0x7295p-15, 0x7b1dp-15, 0x7f74p-15,
 280:..\..\..\liblc3\src/tns.c ****     };
 281:..\..\..\liblc3\src/tns.c **** 
 282:..\..\..\liblc3\src/tns.c ****     int i;
 283:..\..\..\liblc3\src/tns.c **** 
 284:..\..\..\liblc3\src/tns.c ****     for (i = 0; i < order; i++) {
 1388              		.loc 1 284 0
 1389 0002 0025     		movs	r5, #0
 1390 0004 11E0     		b	.L92
 1391              	.LVL187:
 1392              	.L94:
 1393              	.LBB66:
 285:..\..\..\liblc3\src/tns.c ****         float rc_m = q_inv[LC3_ABS(rc_q[i])];
 1394              		.loc 1 285 0
 1395 0006 AC00     		lsls	r4, r5, #2
 1396 0008 0659     		ldr	r6, [r0, r4]
 1397 000a F717     		asrs	r7, r6, #31
 1398 000c F319     		adds	r3, r6, r7
 1399 000e 7B40     		eors	r3, r7
 1400 0010 9B00     		lsls	r3, r3, #2
 1401 0012 074F     		ldr	r7, .L96
 1402 0014 FB18     		adds	r3, r7, r3
 1403 0016 DB69     		ldr	r3, [r3, #28]
 1404              	.LVL188:
 286:..\..\..\liblc3\src/tns.c ****         rc[i] = rc_q[i] < 0 ? -rc_m : rc_m;
 1405              		.loc 1 286 0
 1406 0018 1419     		adds	r4, r2, r4
 1407 001a 002E     		cmp	r6, #0
 1408 001c 03DA     		bge	.L93
 1409              		.loc 1 286 0 is_stmt 0 discriminator 1
 1410 001e 8026     		movs	r6, #128
 1411 0020 3606     		lsls	r6, r6, #24
 1412 0022 B446     		mov	ip, r6
 1413 0024 6344     		add	r3, r3, ip
 1414              	.LVL189:
 1415              	.L93:
 1416              		.loc 1 286 0 discriminator 4
 1417 0026 2360     		str	r3, [r4]
 1418              	.LVL190:
 1419              	.LBE66:
 284:..\..\..\liblc3\src/tns.c ****         float rc_m = q_inv[LC3_ABS(rc_q[i])];
 1420              		.loc 1 284 0 is_stmt 1 discriminator 4
 1421 0028 0135     		adds	r5, r5, #1
 1422              	.LVL191:
 1423              	.L92:
 284:..\..\..\liblc3\src/tns.c ****         float rc_m = q_inv[LC3_ABS(rc_q[i])];
 1424              		.loc 1 284 0 is_stmt 0 discriminator 2
 1425 002a 8D42     		cmp	r5, r1
 1426 002c EBDB     		blt	.L94
 287:..\..\..\liblc3\src/tns.c ****     }
 288:..\..\..\liblc3\src/tns.c **** }
 1427              		.loc 1 288 0 is_stmt 1
 1428              		@ sp needed
 1429              	.LVL192:
 1430 002e F0BD     		pop	{r4, r5, r6, r7, pc}
 1431              	.L97:
ARM GAS  C:\Users\rdn\AppData\Local\Temp\ccet7BYP.s 			page 32


 1432              		.align	2
 1433              	.L96:
 1434 0030 80010000 		.word	.LANCHOR3
 1435              		.cfi_endproc
 1436              	.LFE26:
 1437              		.size	unquantize_rc, .-unquantize_rc
 1438              		.section	.text.forward_filtering,"ax",%progbits
 1439              		.align	2
 1440              		.code	16
 1441              		.thumb_func
 1442              		.type	forward_filtering, %function
 1443              	forward_filtering:
 1444              	.LFB27:
 289:..\..\..\liblc3\src/tns.c **** 
 290:..\..\..\liblc3\src/tns.c **** 
 291:..\..\..\liblc3\src/tns.c **** /* ----------------------------------------------------------------------------
 292:..\..\..\liblc3\src/tns.c ****  *  Filtering
 293:..\..\..\liblc3\src/tns.c ****  * -------------------------------------------------------------------------- */
 294:..\..\..\liblc3\src/tns.c **** 
 295:..\..\..\liblc3\src/tns.c **** /**
 296:..\..\..\liblc3\src/tns.c ****  * Forward filtering
 297:..\..\..\liblc3\src/tns.c ****  * dt, bw          Duration and bandwidth of the frame
 298:..\..\..\liblc3\src/tns.c ****  * rc_order, rc    Order of coefficients, and coefficients
 299:..\..\..\liblc3\src/tns.c ****  * x               Spectral coefficients, filtered as output
 300:..\..\..\liblc3\src/tns.c ****  */
 301:..\..\..\liblc3\src/tns.c **** LC3_HOT static void forward_filtering(
 302:..\..\..\liblc3\src/tns.c ****     enum lc3_dt dt, enum lc3_bandwidth bw,
 303:..\..\..\liblc3\src/tns.c ****     const int rc_order[2], float (* const rc)[8], float *x)
 304:..\..\..\liblc3\src/tns.c **** {
 1445              		.loc 1 304 0
 1446              		.cfi_startproc
 1447              		@ args = 4, pretend = 0, frame = 64
 1448              		@ frame_needed = 0, uses_anonymous_args = 0
 1449              	.LVL193:
 1450 0000 F0B5     		push	{r4, r5, r6, r7, lr}
 1451              		.cfi_def_cfa_offset 20
 1452              		.cfi_offset 4, -20
 1453              		.cfi_offset 5, -16
 1454              		.cfi_offset 6, -12
 1455              		.cfi_offset 7, -8
 1456              		.cfi_offset 14, -4
 1457 0002 5F46     		mov	r7, fp
 1458 0004 5646     		mov	r6, r10
 1459 0006 4D46     		mov	r5, r9
 1460 0008 4446     		mov	r4, r8
 1461 000a F0B4     		push	{r4, r5, r6, r7}
 1462              		.cfi_def_cfa_offset 36
 1463              		.cfi_offset 8, -36
 1464              		.cfi_offset 9, -32
 1465              		.cfi_offset 10, -28
 1466              		.cfi_offset 11, -24
 1467 000c 91B0     		sub	sp, sp, #68
 1468              		.cfi_def_cfa_offset 104
 1469 000e 0692     		str	r2, [sp, #24]
 1470 0010 0793     		str	r3, [sp, #28]
 305:..\..\..\liblc3\src/tns.c ****     int nfilters = 1 + (dt >= LC3_DT_5M && bw >= LC3_BANDWIDTH_SWB);
 1471              		.loc 1 305 0
ARM GAS  C:\Users\rdn\AppData\Local\Temp\ccet7BYP.s 			page 33


 1472 0012 0028     		cmp	r0, #0
 1473 0014 03D0     		beq	.L108
 1474              		.loc 1 305 0 is_stmt 0 discriminator 1
 1475 0016 0229     		cmp	r1, #2
 1476 0018 03D8     		bhi	.L109
 1477              		.loc 1 305 0
 1478 001a 0022     		movs	r2, #0
 1479              	.LVL194:
 1480 001c 02E0     		b	.L99
 1481              	.LVL195:
 1482              	.L108:
 1483 001e 0022     		movs	r2, #0
 1484              	.LVL196:
 1485 0020 00E0     		b	.L99
 1486              	.LVL197:
 1487              	.L109:
 1488 0022 0122     		movs	r2, #1
 1489              	.LVL198:
 1490              	.L99:
 1491              		.loc 1 305 0 discriminator 6
 1492 0024 531C     		adds	r3, r2, #1
 1493              	.LVL199:
 1494 0026 0493     		str	r3, [sp, #16]
 1495              	.LVL200:
 306:..\..\..\liblc3\src/tns.c ****     int nf = lc3_ne(dt, (enum lc3_srate)LC3_MIN(bw, LC3_BANDWIDTH_FB))
 1496              		.loc 1 306 0 is_stmt 1 discriminator 6
 1497 0028 0B1C     		adds	r3, r1, #0
 1498              	.LVL201:
 1499 002a 0429     		cmp	r1, #4
 1500 002c 00D9     		bls	.L100
 1501 002e 0423     		movs	r3, #4
 1502              	.L100:
 1503 0030 DBB2     		uxtb	r3, r3
 1504              	.LVL202:
 1505              	.LBB67:
 1506              	.LBB68:
 1507              		.file 2 "..\\..\\..\\liblc3\\src\\tables.h"
   1:..\..\..\liblc3\src/tables.h **** /******************************************************************************
   2:..\..\..\liblc3\src/tables.h ****  *
   3:..\..\..\liblc3\src/tables.h ****  *  Copyright 2022 Google LLC
   4:..\..\..\liblc3\src/tables.h ****  *
   5:..\..\..\liblc3\src/tables.h ****  *  Licensed under the Apache License, Version 2.0 (the "License");
   6:..\..\..\liblc3\src/tables.h ****  *  you may not use this file except in compliance with the License.
   7:..\..\..\liblc3\src/tables.h ****  *  You may obtain a copy of the License at:
   8:..\..\..\liblc3\src/tables.h ****  *
   9:..\..\..\liblc3\src/tables.h ****  *  http://www.apache.org/licenses/LICENSE-2.0
  10:..\..\..\liblc3\src/tables.h ****  *
  11:..\..\..\liblc3\src/tables.h ****  *  Unless required by applicable law or agreed to in writing, software
  12:..\..\..\liblc3\src/tables.h ****  *  distributed under the License is distributed on an "AS IS" BASIS,
  13:..\..\..\liblc3\src/tables.h ****  *  WITHOUT WARRANTIES OR CONDITIONS OF ANY KIND, either express or implied.
  14:..\..\..\liblc3\src/tables.h ****  *  See the License for the specific language governing permissions and
  15:..\..\..\liblc3\src/tables.h ****  *  limitations under the License.
  16:..\..\..\liblc3\src/tables.h ****  *
  17:..\..\..\liblc3\src/tables.h ****  ******************************************************************************/
  18:..\..\..\liblc3\src/tables.h **** 
  19:..\..\..\liblc3\src/tables.h **** #ifndef __LC3_TABLES_H
  20:..\..\..\liblc3\src/tables.h **** #define __LC3_TABLES_H
ARM GAS  C:\Users\rdn\AppData\Local\Temp\ccet7BYP.s 			page 34


  21:..\..\..\liblc3\src/tables.h **** 
  22:..\..\..\liblc3\src/tables.h **** #include "common.h"
  23:..\..\..\liblc3\src/tables.h **** #include "bits.h"
  24:..\..\..\liblc3\src/tables.h **** 
  25:..\..\..\liblc3\src/tables.h **** 
  26:..\..\..\liblc3\src/tables.h **** /**
  27:..\..\..\liblc3\src/tables.h ****  * Characteristics
  28:..\..\..\liblc3\src/tables.h ****  *
  29:..\..\..\liblc3\src/tables.h ****  *   ns   Number of temporal samples / frequency coefficients within a frame
  30:..\..\..\liblc3\src/tables.h ****  *
  31:..\..\..\liblc3\src/tables.h ****  *   ne   Number of encoded frequency coefficients
  32:..\..\..\liblc3\src/tables.h ****  *
  33:..\..\..\liblc3\src/tables.h ****  *   nd   Number of MDCT delayed samples, sum of half a frame and an ovelap
  34:..\..\..\liblc3\src/tables.h ****  *        of future by 1.25 ms (2.5ms, 5ms and 10ms frame durations),
  35:..\..\..\liblc3\src/tables.h ****  *        or 2 ms (7.5ms frame duration).
  36:..\..\..\liblc3\src/tables.h ****  *
  37:..\..\..\liblc3\src/tables.h ****  *   nh   Number of 18 ms samples of the history buffer, aligned on a frame
  38:..\..\..\liblc3\src/tables.h ****  *
  39:..\..\..\liblc3\src/tables.h ****  *   nt   Number of 1.25 ms previous samples
  40:..\..\..\liblc3\src/tables.h ****  */
  41:..\..\..\liblc3\src/tables.h **** 
  42:..\..\..\liblc3\src/tables.h **** extern const int lc3_ns_2m5[LC3_NUM_SRATE];
  43:..\..\..\liblc3\src/tables.h **** extern const int lc3_ne_2m5[LC3_NUM_SRATE];
  44:..\..\..\liblc3\src/tables.h **** extern const int lc3_ns_4m [LC3_NUM_SRATE];
  45:..\..\..\liblc3\src/tables.h **** 
  46:..\..\..\liblc3\src/tables.h **** static inline int lc3_ns(enum lc3_dt dt, enum lc3_srate sr) {
  47:..\..\..\liblc3\src/tables.h ****     return lc3_ns_2m5[sr] * (1 + dt);
  48:..\..\..\liblc3\src/tables.h **** }
  49:..\..\..\liblc3\src/tables.h **** 
  50:..\..\..\liblc3\src/tables.h **** static inline int lc3_ne(enum lc3_dt dt, enum lc3_srate sr) {
  51:..\..\..\liblc3\src/tables.h ****     return lc3_ne_2m5[sr] * (1 + dt);
 1508              		.loc 2 51 0 discriminator 6
 1509 0032 9B00     		lsls	r3, r3, #2
 1510              	.LVL203:
 1511 0034 3249     		ldr	r1, .L110
 1512              	.LVL204:
 1513 0036 5B58     		ldr	r3, [r3, r1]
 1514 0038 0130     		adds	r0, r0, #1
 1515              	.LVL205:
 1516 003a 4343     		muls	r3, r0
 1517              	.LVL206:
 1518              	.LBE68:
 1519              	.LBE67:
 1520              		.loc 1 306 0 discriminator 6
 1521 003c 1341     		asrs	r3, r3, r2
 1522 003e 0593     		str	r3, [sp, #20]
 1523              	.LVL207:
 307:..\..\..\liblc3\src/tns.c ****                 >> (nfilters - 1);
 308:..\..\..\liblc3\src/tns.c ****     int i0, ie = 3*(1 + dt);
 1524              		.loc 1 308 0 discriminator 6
 1525 0040 4300     		lsls	r3, r0, #1
 1526              	.LVL208:
 1527 0042 9846     		mov	r8, r3
 1528 0044 8044     		add	r8, r8, r0
 1529              	.LVL209:
 309:..\..\..\liblc3\src/tns.c **** 
 310:..\..\..\liblc3\src/tns.c ****     float s[8] = { 0 };
ARM GAS  C:\Users\rdn\AppData\Local\Temp\ccet7BYP.s 			page 35


 1530              		.loc 1 310 0 discriminator 6
 1531 0046 2022     		movs	r2, #32
 1532 0048 0021     		movs	r1, #0
 1533 004a 08A8     		add	r0, sp, #32
 1534 004c FFF7FEFF 		bl	memset
 1535              	.LVL210:
 1536              	.LBB69:
 311:..\..\..\liblc3\src/tns.c **** 
 312:..\..\..\liblc3\src/tns.c ****     for (int f = 0; f < nfilters; f++) {
 1537              		.loc 1 312 0 discriminator 6
 1538 0050 0023     		movs	r3, #0
 1539 0052 4AE0     		b	.L101
 1540              	.LVL211:
 1541              	.L107:
 313:..\..\..\liblc3\src/tns.c **** 
 314:..\..\..\liblc3\src/tns.c ****         i0 = ie;
 315:..\..\..\liblc3\src/tns.c ****         ie = nf * (1 + f);
 1542              		.loc 1 315 0
 1543 0054 5A1C     		adds	r2, r3, #1
 1544 0056 0392     		str	r2, [sp, #12]
 1545 0058 0599     		ldr	r1, [sp, #20]
 1546 005a 5143     		muls	r1, r2
 1547 005c 0291     		str	r1, [sp, #8]
 1548              	.LVL212:
 316:..\..\..\liblc3\src/tns.c **** 
 317:..\..\..\liblc3\src/tns.c ****         if (!rc_order[f])
 1549              		.loc 1 317 0
 1550 005e 9A46     		mov	r10, r3
 1551 0060 9B00     		lsls	r3, r3, #2
 1552              	.LVL213:
 1553 0062 069A     		ldr	r2, [sp, #24]
 1554 0064 D518     		adds	r5, r2, r3
 1555 0066 2B68     		ldr	r3, [r5]
 1556 0068 002B     		cmp	r3, #0
 1557 006a 3BD0     		beq	.L102
 1558 006c 2E00     		movs	r6, r5
 1559 006e 079B     		ldr	r3, [sp, #28]
 1560 0070 9B46     		mov	fp, r3
 1561 0072 34E0     		b	.L103
 1562              	.LVL214:
 1563              	.L106:
 1564              	.LBB70:
 1565              	.LBB71:
 318:..\..\..\liblc3\src/tns.c ****             continue;
 319:..\..\..\liblc3\src/tns.c **** 
 320:..\..\..\liblc3\src/tns.c ****         for (int i = i0; i < ie; i++) {
 321:..\..\..\liblc3\src/tns.c ****             float xi = x[i];
 1566              		.loc 1 321 0
 1567 0074 4346     		mov	r3, r8
 1568 0076 9B00     		lsls	r3, r3, #2
 1569 0078 1A9A     		ldr	r2, [sp, #104]
 1570 007a 9146     		mov	r9, r2
 1571 007c 9944     		add	r9, r9, r3
 1572 007e 4B46     		mov	r3, r9
 1573 0080 1B68     		ldr	r3, [r3]
 1574 0082 0093     		str	r3, [sp]
 1575              	.LVL215:
ARM GAS  C:\Users\rdn\AppData\Local\Temp\ccet7BYP.s 			page 36


 322:..\..\..\liblc3\src/tns.c ****             float s0, s1 = xi;
 1576              		.loc 1 322 0
 1577 0084 0193     		str	r3, [sp, #4]
 1578              	.LBB72:
 323:..\..\..\liblc3\src/tns.c **** 
 324:..\..\..\liblc3\src/tns.c ****             for (int k = 0; k < rc_order[f]; k++) {
 1579              		.loc 1 324 0
 1580 0086 0024     		movs	r4, #0
 1581 0088 2500     		movs	r5, r4
 1582 008a 4B46     		mov	r3, r9
 1583              	.LVL216:
 1584 008c C146     		mov	r9, r8
 1585 008e 9846     		mov	r8, r3
 1586              	.LVL217:
 1587 0090 1BE0     		b	.L104
 1588              	.LVL218:
 1589              	.L105:
 325:..\..\..\liblc3\src/tns.c ****                 s0 = s[k];
 1590              		.loc 1 325 0 discriminator 3
 1591 0092 AA00     		lsls	r2, r5, #2
 1592 0094 08AB     		add	r3, sp, #32
 1593 0096 D758     		ldr	r7, [r2, r3]
 1594              	.LVL219:
 326:..\..\..\liblc3\src/tns.c ****                 s[k] = s1;
 1595              		.loc 1 326 0 discriminator 3
 1596 0098 0199     		ldr	r1, [sp, #4]
 1597 009a D150     		str	r1, [r2, r3]
 327:..\..\..\liblc3\src/tns.c **** 
 328:..\..\..\liblc3\src/tns.c ****                 s1  = rc[f][k] * xi + s0;
 1598              		.loc 1 328 0 discriminator 3
 1599 009c 5346     		mov	r3, r10
 1600 009e 5B01     		lsls	r3, r3, #5
 1601 00a0 5B44     		add	r3, r3, fp
 1602 00a2 D458     		ldr	r4, [r2, r3]
 1603 00a4 211C     		adds	r1, r4, #0
 1604 00a6 0098     		ldr	r0, [sp]
 1605 00a8 FFF7FEFF 		bl	__aeabi_fmul
 1606              	.LVL220:
 1607 00ac 011C     		adds	r1, r0, #0
 1608 00ae 381C     		adds	r0, r7, #0
 1609 00b0 FFF7FEFF 		bl	__aeabi_fadd
 1610              	.LVL221:
 1611 00b4 0190     		str	r0, [sp, #4]
 1612              	.LVL222:
 329:..\..\..\liblc3\src/tns.c ****                 xi += rc[f][k] * s0;
 1613              		.loc 1 329 0 discriminator 3
 1614 00b6 211C     		adds	r1, r4, #0
 1615 00b8 381C     		adds	r0, r7, #0
 1616              	.LVL223:
 1617 00ba FFF7FEFF 		bl	__aeabi_fmul
 1618              	.LVL224:
 1619 00be 011C     		adds	r1, r0, #0
 1620 00c0 0098     		ldr	r0, [sp]
 1621 00c2 FFF7FEFF 		bl	__aeabi_fadd
 1622              	.LVL225:
 1623 00c6 0090     		str	r0, [sp]
 1624              	.LVL226:
ARM GAS  C:\Users\rdn\AppData\Local\Temp\ccet7BYP.s 			page 37


 324:..\..\..\liblc3\src/tns.c ****                 s0 = s[k];
 1625              		.loc 1 324 0 discriminator 3
 1626 00c8 0135     		adds	r5, r5, #1
 1627              	.LVL227:
 1628              	.L104:
 324:..\..\..\liblc3\src/tns.c ****                 s0 = s[k];
 1629              		.loc 1 324 0 is_stmt 0 discriminator 1
 1630 00ca 3368     		ldr	r3, [r6]
 1631 00cc 9D42     		cmp	r5, r3
 1632 00ce E0DB     		blt	.L105
 1633 00d0 4346     		mov	r3, r8
 1634 00d2 C846     		mov	r8, r9
 1635              	.LBE72:
 330:..\..\..\liblc3\src/tns.c ****             }
 331:..\..\..\liblc3\src/tns.c **** 
 332:..\..\..\liblc3\src/tns.c ****             x[i] = xi;
 1636              		.loc 1 332 0 is_stmt 1 discriminator 2
 1637 00d4 009A     		ldr	r2, [sp]
 1638 00d6 1A60     		str	r2, [r3]
 1639              	.LBE71:
 320:..\..\..\liblc3\src/tns.c ****             float xi = x[i];
 1640              		.loc 1 320 0 discriminator 2
 1641 00d8 0123     		movs	r3, #1
 1642 00da 9C46     		mov	ip, r3
 1643 00dc E044     		add	r8, r8, ip
 1644              	.LVL228:
 1645              	.L103:
 320:..\..\..\liblc3\src/tns.c ****             float xi = x[i];
 1646              		.loc 1 320 0 is_stmt 0 discriminator 1
 1647 00de 029B     		ldr	r3, [sp, #8]
 1648 00e0 9845     		cmp	r8, r3
 1649 00e2 C7DB     		blt	.L106
 1650              	.LVL229:
 1651              	.L102:
 1652              	.LBB74:
 1653              	.LBB73:
 324:..\..\..\liblc3\src/tns.c ****                 s0 = s[k];
 1654              		.loc 1 324 0 is_stmt 1 discriminator 1
 1655 00e4 039B     		ldr	r3, [sp, #12]
 1656 00e6 029A     		ldr	r2, [sp, #8]
 1657 00e8 9046     		mov	r8, r2
 1658              	.LVL230:
 1659              	.L101:
 1660              	.LBE73:
 1661              	.LBE74:
 1662              	.LBE70:
 312:..\..\..\liblc3\src/tns.c **** 
 1663              		.loc 1 312 0 discriminator 1
 1664 00ea 049A     		ldr	r2, [sp, #16]
 1665 00ec 9342     		cmp	r3, r2
 1666 00ee B1DB     		blt	.L107
 1667              	.LBE69:
 333:..\..\..\liblc3\src/tns.c ****         }
 334:..\..\..\liblc3\src/tns.c ****     }
 335:..\..\..\liblc3\src/tns.c **** }
 1668              		.loc 1 335 0
 1669 00f0 11B0     		add	sp, sp, #68
ARM GAS  C:\Users\rdn\AppData\Local\Temp\ccet7BYP.s 			page 38


 1670              		@ sp needed
 1671              	.LVL231:
 1672 00f2 3CBC     		pop	{r2, r3, r4, r5}
 1673 00f4 9046     		mov	r8, r2
 1674 00f6 9946     		mov	r9, r3
 1675 00f8 A246     		mov	r10, r4
 1676 00fa AB46     		mov	fp, r5
 1677 00fc F0BD     		pop	{r4, r5, r6, r7, pc}
 1678              	.L111:
 1679 00fe C046     		.align	2
 1680              	.L110:
 1681 0100 00000000 		.word	lc3_ne_2m5
 1682              		.cfi_endproc
 1683              	.LFE27:
 1684              		.size	forward_filtering, .-forward_filtering
 1685              		.section	.text.inverse_filtering,"ax",%progbits
 1686              		.align	2
 1687              		.code	16
 1688              		.thumb_func
 1689              		.type	inverse_filtering, %function
 1690              	inverse_filtering:
 1691              	.LFB28:
 336:..\..\..\liblc3\src/tns.c **** 
 337:..\..\..\liblc3\src/tns.c **** /**
 338:..\..\..\liblc3\src/tns.c ****  * Inverse filtering
 339:..\..\..\liblc3\src/tns.c ****  * dt, bw          Duration and bandwidth of the frame
 340:..\..\..\liblc3\src/tns.c ****  * rc_order, rc    Order of coefficients, and unquantized coefficients
 341:..\..\..\liblc3\src/tns.c ****  * x               Spectral coefficients, filtered as output
 342:..\..\..\liblc3\src/tns.c ****  */
 343:..\..\..\liblc3\src/tns.c **** LC3_HOT static void inverse_filtering(
 344:..\..\..\liblc3\src/tns.c ****     enum lc3_dt dt, enum lc3_bandwidth bw,
 345:..\..\..\liblc3\src/tns.c ****     const int rc_order[2], float (* const rc)[8], float *x)
 346:..\..\..\liblc3\src/tns.c **** {
 1692              		.loc 1 346 0
 1693              		.cfi_startproc
 1694              		@ args = 4, pretend = 0, frame = 64
 1695              		@ frame_needed = 0, uses_anonymous_args = 0
 1696              	.LVL232:
 1697 0000 F0B5     		push	{r4, r5, r6, r7, lr}
 1698              		.cfi_def_cfa_offset 20
 1699              		.cfi_offset 4, -20
 1700              		.cfi_offset 5, -16
 1701              		.cfi_offset 6, -12
 1702              		.cfi_offset 7, -8
 1703              		.cfi_offset 14, -4
 1704 0002 5F46     		mov	r7, fp
 1705 0004 5646     		mov	r6, r10
 1706 0006 4D46     		mov	r5, r9
 1707 0008 4446     		mov	r4, r8
 1708 000a F0B4     		push	{r4, r5, r6, r7}
 1709              		.cfi_def_cfa_offset 36
 1710              		.cfi_offset 8, -36
 1711              		.cfi_offset 9, -32
 1712              		.cfi_offset 10, -28
 1713              		.cfi_offset 11, -24
 1714 000c 91B0     		sub	sp, sp, #68
 1715              		.cfi_def_cfa_offset 104
ARM GAS  C:\Users\rdn\AppData\Local\Temp\ccet7BYP.s 			page 39


 1716 000e 0692     		str	r2, [sp, #24]
 1717 0010 0293     		str	r3, [sp, #8]
 347:..\..\..\liblc3\src/tns.c ****     int nfilters = 1 + (dt >= LC3_DT_5M && bw >= LC3_BANDWIDTH_SWB);
 1718              		.loc 1 347 0
 1719 0012 0028     		cmp	r0, #0
 1720 0014 03D0     		beq	.L124
 1721              		.loc 1 347 0 is_stmt 0 discriminator 1
 1722 0016 0229     		cmp	r1, #2
 1723 0018 03D8     		bhi	.L125
 1724              		.loc 1 347 0
 1725 001a 0022     		movs	r2, #0
 1726              	.LVL233:
 1727 001c 02E0     		b	.L113
 1728              	.LVL234:
 1729              	.L124:
 1730 001e 0022     		movs	r2, #0
 1731              	.LVL235:
 1732 0020 00E0     		b	.L113
 1733              	.LVL236:
 1734              	.L125:
 1735 0022 0122     		movs	r2, #1
 1736              	.LVL237:
 1737              	.L113:
 1738              		.loc 1 347 0 discriminator 6
 1739 0024 531C     		adds	r3, r2, #1
 1740              	.LVL238:
 1741 0026 0493     		str	r3, [sp, #16]
 1742              	.LVL239:
 348:..\..\..\liblc3\src/tns.c ****     int nf = lc3_ne(dt, (enum lc3_srate)LC3_MIN(bw, LC3_BANDWIDTH_FB))
 1743              		.loc 1 348 0 is_stmt 1 discriminator 6
 1744 0028 0B1C     		adds	r3, r1, #0
 1745              	.LVL240:
 1746 002a 0429     		cmp	r1, #4
 1747 002c 00D9     		bls	.L114
 1748 002e 0423     		movs	r3, #4
 1749              	.L114:
 1750 0030 DBB2     		uxtb	r3, r3
 1751              	.LVL241:
 1752              	.LBB75:
 1753              	.LBB76:
 1754              		.loc 2 51 0 discriminator 6
 1755 0032 9B00     		lsls	r3, r3, #2
 1756              	.LVL242:
 1757 0034 3C49     		ldr	r1, .L126
 1758              	.LVL243:
 1759 0036 5B58     		ldr	r3, [r3, r1]
 1760 0038 0130     		adds	r0, r0, #1
 1761              	.LVL244:
 1762 003a 4343     		muls	r3, r0
 1763              	.LVL245:
 1764              	.LBE76:
 1765              	.LBE75:
 1766              		.loc 1 348 0 discriminator 6
 1767 003c 1341     		asrs	r3, r3, r2
 1768 003e 0593     		str	r3, [sp, #20]
 1769              	.LVL246:
 349:..\..\..\liblc3\src/tns.c ****                 >> (nfilters - 1);
ARM GAS  C:\Users\rdn\AppData\Local\Temp\ccet7BYP.s 			page 40


 350:..\..\..\liblc3\src/tns.c ****     int i0, ie = 3*(1 + dt);
 1770              		.loc 1 350 0 discriminator 6
 1771 0040 4300     		lsls	r3, r0, #1
 1772              	.LVL247:
 1773 0042 1B18     		adds	r3, r3, r0
 1774 0044 1C00     		movs	r4, r3
 1775              	.LVL248:
 351:..\..\..\liblc3\src/tns.c **** 
 352:..\..\..\liblc3\src/tns.c ****     float s[8] = { 0 };
 1776              		.loc 1 352 0 discriminator 6
 1777 0046 2022     		movs	r2, #32
 1778 0048 0021     		movs	r1, #0
 1779 004a 08A8     		add	r0, sp, #32
 1780 004c FFF7FEFF 		bl	memset
 1781              	.LVL249:
 1782              	.LBB77:
 353:..\..\..\liblc3\src/tns.c **** 
 354:..\..\..\liblc3\src/tns.c ****     for (int f = 0; f < nfilters; f++) {
 1783              		.loc 1 354 0 discriminator 6
 1784 0050 0023     		movs	r3, #0
 1785 0052 5EE0     		b	.L115
 1786              	.LVL250:
 1787              	.L123:
 355:..\..\..\liblc3\src/tns.c **** 
 356:..\..\..\liblc3\src/tns.c ****         i0 = ie;
 357:..\..\..\liblc3\src/tns.c ****         ie = nf * (1 + f);
 1788              		.loc 1 357 0
 1789 0054 5A1C     		adds	r2, r3, #1
 1790 0056 0392     		str	r2, [sp, #12]
 1791 0058 0599     		ldr	r1, [sp, #20]
 1792 005a 5143     		muls	r1, r2
 1793 005c 8946     		mov	r9, r1
 1794              	.LVL251:
 358:..\..\..\liblc3\src/tns.c **** 
 359:..\..\..\liblc3\src/tns.c ****         if (!rc_order[f])
 1795              		.loc 1 359 0
 1796 005e 0193     		str	r3, [sp, #4]
 1797 0060 9B00     		lsls	r3, r3, #2
 1798              	.LVL252:
 1799 0062 069A     		ldr	r2, [sp, #24]
 1800 0064 9346     		mov	fp, r2
 1801 0066 9B44     		add	fp, fp, r3
 1802 0068 5B46     		mov	r3, fp
 1803 006a 1B68     		ldr	r3, [r3]
 1804 006c 002B     		cmp	r3, #0
 1805 006e 4ED0     		beq	.L116
 1806 0070 5B46     		mov	r3, fp
 1807 0072 0793     		str	r3, [sp, #28]
 1808 0074 A346     		mov	fp, r4
 1809 0076 3BE0     		b	.L117
 1810              	.LVL253:
 1811              	.L120:
 1812              	.LBB78:
 1813              	.LBB79:
 360:..\..\..\liblc3\src/tns.c ****             continue;
 361:..\..\..\liblc3\src/tns.c **** 
 362:..\..\..\liblc3\src/tns.c ****         for (int i = i0; i < ie; i++) {
ARM GAS  C:\Users\rdn\AppData\Local\Temp\ccet7BYP.s 			page 41


 363:..\..\..\liblc3\src/tns.c ****             float xi = x[i];
 1814              		.loc 1 363 0
 1815 0078 5B46     		mov	r3, fp
 1816 007a 9B00     		lsls	r3, r3, #2
 1817 007c 1A9A     		ldr	r2, [sp, #104]
 1818 007e 9246     		mov	r10, r2
 1819 0080 9A44     		add	r10, r10, r3
 1820 0082 5346     		mov	r3, r10
 1821 0084 1C68     		ldr	r4, [r3]
 1822              	.LVL254:
 364:..\..\..\liblc3\src/tns.c **** 
 365:..\..\..\liblc3\src/tns.c ****             xi -= s[7] * rc[f][7];
 1823              		.loc 1 365 0
 1824 0086 019B     		ldr	r3, [sp, #4]
 1825 0088 5B01     		lsls	r3, r3, #5
 1826 008a 029A     		ldr	r2, [sp, #8]
 1827 008c D518     		adds	r5, r2, r3
 1828 008e E969     		ldr	r1, [r5, #28]
 1829 0090 0F98     		ldr	r0, [sp, #60]
 1830 0092 FFF7FEFF 		bl	__aeabi_fmul
 1831              	.LVL255:
 1832 0096 011C     		adds	r1, r0, #0
 1833 0098 201C     		adds	r0, r4, #0
 1834 009a FFF7FEFF 		bl	__aeabi_fsub
 1835              	.LVL256:
 1836 009e 0090     		str	r0, [sp]
 1837              	.LVL257:
 1838              	.LBB80:
 366:..\..\..\liblc3\src/tns.c ****             for (int k = 6; k >= 0; k--) {
 1839              		.loc 1 366 0
 1840 00a0 0624     		movs	r4, #6
 1841 00a2 2E00     		movs	r6, r5
 1842 00a4 1BE0     		b	.L118
 1843              	.LVL258:
 1844              	.L119:
 367:..\..\..\liblc3\src/tns.c ****                 xi -= s[k] * rc[f][k];
 1845              		.loc 1 367 0 discriminator 3
 1846 00a6 A300     		lsls	r3, r4, #2
 1847 00a8 08AA     		add	r2, sp, #32
 1848 00aa 9F58     		ldr	r7, [r3, r2]
 1849 00ac 9D59     		ldr	r5, [r3, r6]
 1850 00ae 291C     		adds	r1, r5, #0
 1851 00b0 381C     		adds	r0, r7, #0
 1852 00b2 FFF7FEFF 		bl	__aeabi_fmul
 1853              	.LVL259:
 1854 00b6 011C     		adds	r1, r0, #0
 1855 00b8 0098     		ldr	r0, [sp]
 1856 00ba FFF7FEFF 		bl	__aeabi_fsub
 1857              	.LVL260:
 1858 00be 011C     		adds	r1, r0, #0
 1859 00c0 0090     		str	r0, [sp]
 1860              	.LVL261:
 368:..\..\..\liblc3\src/tns.c ****                 s[k+1] = s[k] + rc[f][k] * xi;
 1861              		.loc 1 368 0 discriminator 3
 1862 00c2 631C     		adds	r3, r4, #1
 1863 00c4 9846     		mov	r8, r3
 1864 00c6 281C     		adds	r0, r5, #0
ARM GAS  C:\Users\rdn\AppData\Local\Temp\ccet7BYP.s 			page 42


 1865              	.LVL262:
 1866 00c8 FFF7FEFF 		bl	__aeabi_fmul
 1867              	.LVL263:
 1868 00cc 011C     		adds	r1, r0, #0
 1869 00ce 381C     		adds	r0, r7, #0
 1870 00d0 FFF7FEFF 		bl	__aeabi_fadd
 1871              	.LVL264:
 1872 00d4 4346     		mov	r3, r8
 1873 00d6 9B00     		lsls	r3, r3, #2
 1874 00d8 08AA     		add	r2, sp, #32
 1875 00da 9850     		str	r0, [r3, r2]
 366:..\..\..\liblc3\src/tns.c ****             for (int k = 6; k >= 0; k--) {
 1876              		.loc 1 366 0 discriminator 3
 1877 00dc 013C     		subs	r4, r4, #1
 1878              	.LVL265:
 1879              	.L118:
 366:..\..\..\liblc3\src/tns.c ****             for (int k = 6; k >= 0; k--) {
 1880              		.loc 1 366 0 is_stmt 0 discriminator 1
 1881 00de 002C     		cmp	r4, #0
 1882 00e0 E1DA     		bge	.L119
 1883              	.LBE80:
 369:..\..\..\liblc3\src/tns.c ****             }
 370:..\..\..\liblc3\src/tns.c ****             s[0] = xi;
 1884              		.loc 1 370 0 is_stmt 1 discriminator 2
 1885 00e2 009B     		ldr	r3, [sp]
 1886 00e4 0893     		str	r3, [sp, #32]
 371:..\..\..\liblc3\src/tns.c ****             x[i] = xi;
 1887              		.loc 1 371 0 discriminator 2
 1888 00e6 5246     		mov	r2, r10
 1889 00e8 1360     		str	r3, [r2]
 1890              	.LBE79:
 362:..\..\..\liblc3\src/tns.c ****             float xi = x[i];
 1891              		.loc 1 362 0 discriminator 2
 1892 00ea 0123     		movs	r3, #1
 1893 00ec 9C46     		mov	ip, r3
 1894 00ee E344     		add	fp, fp, ip
 1895              	.LVL266:
 1896              	.L117:
 362:..\..\..\liblc3\src/tns.c ****             float xi = x[i];
 1897              		.loc 1 362 0 is_stmt 0 discriminator 1
 1898 00f0 CB45     		cmp	fp, r9
 1899 00f2 C1DB     		blt	.L120
 1900 00f4 079B     		ldr	r3, [sp, #28]
 1901 00f6 9B46     		mov	fp, r3
 1902              	.LVL267:
 1903 00f8 0723     		movs	r3, #7
 1904 00fa 5846     		mov	r0, fp
 1905 00fc 04E0     		b	.L121
 1906              	.LVL268:
 1907              	.L122:
 1908              	.LBE78:
 1909              	.LBB81:
 372:..\..\..\liblc3\src/tns.c ****         }
 373:..\..\..\liblc3\src/tns.c **** 
 374:..\..\..\liblc3\src/tns.c ****         for (int k = 7; k >= rc_order[f]; k--)
 375:..\..\..\liblc3\src/tns.c ****             s[k] = 0;
 1910              		.loc 1 375 0 is_stmt 1 discriminator 3
ARM GAS  C:\Users\rdn\AppData\Local\Temp\ccet7BYP.s 			page 43


 1911 00fe 9A00     		lsls	r2, r3, #2
 1912 0100 0021     		movs	r1, #0
 1913 0102 08AC     		add	r4, sp, #32
 1914 0104 1151     		str	r1, [r2, r4]
 374:..\..\..\liblc3\src/tns.c ****             s[k] = 0;
 1915              		.loc 1 374 0 discriminator 3
 1916 0106 013B     		subs	r3, r3, #1
 1917              	.LVL269:
 1918              	.L121:
 374:..\..\..\liblc3\src/tns.c ****             s[k] = 0;
 1919              		.loc 1 374 0 is_stmt 0 discriminator 1
 1920 0108 0268     		ldr	r2, [r0]
 1921 010a 9342     		cmp	r3, r2
 1922 010c F7DA     		bge	.L122
 1923              	.LVL270:
 1924              	.L116:
 1925              	.LBE81:
 1926              	.LBB82:
 1927 010e 039B     		ldr	r3, [sp, #12]
 1928 0110 4C46     		mov	r4, r9
 1929              	.LVL271:
 1930              	.L115:
 1931              	.LBE82:
 354:..\..\..\liblc3\src/tns.c **** 
 1932              		.loc 1 354 0 is_stmt 1 discriminator 1
 1933 0112 049A     		ldr	r2, [sp, #16]
 1934 0114 9342     		cmp	r3, r2
 1935 0116 9DDB     		blt	.L123
 1936              	.LBE77:
 376:..\..\..\liblc3\src/tns.c ****     }
 377:..\..\..\liblc3\src/tns.c **** }
 1937              		.loc 1 377 0
 1938 0118 11B0     		add	sp, sp, #68
 1939              		@ sp needed
 1940              	.LVL272:
 1941 011a 3CBC     		pop	{r2, r3, r4, r5}
 1942 011c 9046     		mov	r8, r2
 1943 011e 9946     		mov	r9, r3
 1944 0120 A246     		mov	r10, r4
 1945 0122 AB46     		mov	fp, r5
 1946 0124 F0BD     		pop	{r4, r5, r6, r7, pc}
 1947              	.L127:
 1948 0126 C046     		.align	2
 1949              	.L126:
 1950 0128 00000000 		.word	lc3_ne_2m5
 1951              		.cfi_endproc
 1952              	.LFE28:
 1953              		.size	inverse_filtering, .-inverse_filtering
 1954              		.global	__aeabi_fcmple
 1955              		.section	.text.lc3_tns_analyze,"ax",%progbits
 1956              		.align	2
 1957              		.global	lc3_tns_analyze
 1958              		.code	16
 1959              		.thumb_func
 1960              		.type	lc3_tns_analyze, %function
 1961              	lc3_tns_analyze:
 1962              	.LFB29:
ARM GAS  C:\Users\rdn\AppData\Local\Temp\ccet7BYP.s 			page 44


 378:..\..\..\liblc3\src/tns.c **** 
 379:..\..\..\liblc3\src/tns.c **** 
 380:..\..\..\liblc3\src/tns.c **** /* ----------------------------------------------------------------------------
 381:..\..\..\liblc3\src/tns.c ****  *  Interface
 382:..\..\..\liblc3\src/tns.c ****  * -------------------------------------------------------------------------- */
 383:..\..\..\liblc3\src/tns.c **** 
 384:..\..\..\liblc3\src/tns.c **** /**
 385:..\..\..\liblc3\src/tns.c ****  * TNS analysis
 386:..\..\..\liblc3\src/tns.c ****  */
 387:..\..\..\liblc3\src/tns.c **** void lc3_tns_analyze(enum lc3_dt dt, enum lc3_bandwidth bw,
 388:..\..\..\liblc3\src/tns.c ****     bool nn_flag, int nbytes, struct lc3_tns_data *data, float *x)
 389:..\..\..\liblc3\src/tns.c **** {
 1963              		.loc 1 389 0
 1964              		.cfi_startproc
 1965              		@ args = 8, pretend = 0, frame = 160
 1966              		@ frame_needed = 0, uses_anonymous_args = 0
 1967              	.LVL273:
 1968 0000 F0B5     		push	{r4, r5, r6, r7, lr}
 1969              		.cfi_def_cfa_offset 20
 1970              		.cfi_offset 4, -20
 1971              		.cfi_offset 5, -16
 1972              		.cfi_offset 6, -12
 1973              		.cfi_offset 7, -8
 1974              		.cfi_offset 14, -4
 1975 0002 5746     		mov	r7, r10
 1976 0004 80B4     		push	{r7}
 1977              		.cfi_def_cfa_offset 24
 1978              		.cfi_offset 10, -24
 1979 0006 AAB0     		sub	sp, sp, #168
 1980              		.cfi_def_cfa_offset 192
 1981 0008 0400     		movs	r4, r0
 1982 000a 0D00     		movs	r5, r1
 1983 000c 0291     		str	r1, [sp, #8]
 1984 000e 9246     		mov	r10, r2
 1985 0010 309F     		ldr	r7, [sp, #192]
 390:..\..\..\liblc3\src/tns.c ****     /* Processing steps :
 391:..\..\..\liblc3\src/tns.c ****      * - Determine the LPC (Linear Predictive Coding) Coefficients
 392:..\..\..\liblc3\src/tns.c ****      * - Check is the filtering is disabled
 393:..\..\..\liblc3\src/tns.c ****      * - The coefficients are weighted on low bitrates and predicition gain
 394:..\..\..\liblc3\src/tns.c ****      * - Convert to reflection coefficients and quantize
 395:..\..\..\liblc3\src/tns.c ****      * - Finally filter the spectral coefficients */
 396:..\..\..\liblc3\src/tns.c **** 
 397:..\..\..\liblc3\src/tns.c ****     float pred_gain[2], a[2][9];
 398:..\..\..\liblc3\src/tns.c ****     float rc[2][8];
 399:..\..\..\liblc3\src/tns.c **** 
 400:..\..\..\liblc3\src/tns.c ****     data->lpc_weighting = resolve_lpc_weighting(dt, nbytes);
 1986              		.loc 1 400 0
 1987 0012 1900     		movs	r1, r3
 1988              	.LVL274:
 1989 0014 FFF7FEFF 		bl	resolve_lpc_weighting
 1990              	.LVL275:
 1991 0018 3871     		strb	r0, [r7, #4]
 401:..\..\..\liblc3\src/tns.c ****     data->nfilters = 1 + (dt >= LC3_DT_5M && bw >= LC3_BANDWIDTH_SWB);
 1992              		.loc 1 401 0
 1993 001a 002C     		cmp	r4, #0
 1994 001c 03D0     		beq	.L136
 1995              		.loc 1 401 0 is_stmt 0 discriminator 1
ARM GAS  C:\Users\rdn\AppData\Local\Temp\ccet7BYP.s 			page 45


 1996 001e 022D     		cmp	r5, #2
 1997 0020 03D8     		bhi	.L137
 1998              		.loc 1 401 0
 1999 0022 0023     		movs	r3, #0
 2000 0024 02E0     		b	.L129
 2001              	.L136:
 2002 0026 0023     		movs	r3, #0
 2003 0028 00E0     		b	.L129
 2004              	.L137:
 2005 002a 0123     		movs	r3, #1
 2006              	.L129:
 2007              		.loc 1 401 0 discriminator 6
 2008 002c 0133     		adds	r3, r3, #1
 2009 002e 3B60     		str	r3, [r7]
 402:..\..\..\liblc3\src/tns.c ****     int maxorder = dt <= LC3_DT_5M ? 4 : 8;
 2010              		.loc 1 402 0 is_stmt 1 discriminator 6
 2011 0030 012C     		cmp	r4, #1
 2012 0032 02D8     		bhi	.L138
 2013              		.loc 1 402 0 is_stmt 0
 2014 0034 0423     		movs	r3, #4
 2015 0036 0393     		str	r3, [sp, #12]
 2016 0038 01E0     		b	.L130
 2017              	.L138:
 2018 003a 0823     		movs	r3, #8
 2019 003c 0393     		str	r3, [sp, #12]
 2020              	.L130:
 2021              	.LVL276:
 403:..\..\..\liblc3\src/tns.c **** 
 404:..\..\..\liblc3\src/tns.c ****     compute_lpc_coeffs(dt, bw, maxorder, x, pred_gain, a);
 2022              		.loc 1 404 0 is_stmt 1 discriminator 4
 2023 003e 16AB     		add	r3, sp, #88
 2024 0040 0193     		str	r3, [sp, #4]
 2025 0042 28AB     		add	r3, sp, #160
 2026 0044 0093     		str	r3, [sp]
 2027 0046 319B     		ldr	r3, [sp, #196]
 2028 0048 039A     		ldr	r2, [sp, #12]
 2029 004a 0299     		ldr	r1, [sp, #8]
 2030 004c 2000     		movs	r0, r4
 2031 004e FFF7FEFF 		bl	compute_lpc_coeffs
 2032              	.LVL277:
 2033              	.LBB83:
 405:..\..\..\liblc3\src/tns.c **** 
 406:..\..\..\liblc3\src/tns.c ****     for (int f = 0; f < data->nfilters; f++) {
 2034              		.loc 1 406 0 discriminator 4
 2035 0052 0026     		movs	r6, #0
 2036 0054 45E0     		b	.L131
 2037              	.LVL278:
 2038              	.L135:
 407:..\..\..\liblc3\src/tns.c **** 
 408:..\..\..\liblc3\src/tns.c ****         data->rc_order[f] = 0;
 2039              		.loc 1 408 0
 2040 0056 B31C     		adds	r3, r6, #2
 2041 0058 9B00     		lsls	r3, r3, #2
 2042 005a 0022     		movs	r2, #0
 2043 005c DA51     		str	r2, [r3, r7]
 409:..\..\..\liblc3\src/tns.c ****         if (nn_flag || pred_gain[f] <= 1.5f)
 2044              		.loc 1 409 0
ARM GAS  C:\Users\rdn\AppData\Local\Temp\ccet7BYP.s 			page 46


 2045 005e 5346     		mov	r3, r10
 2046 0060 002B     		cmp	r3, #0
 2047 0062 3DD1     		bne	.L132
 2048              		.loc 1 409 0 is_stmt 0 discriminator 1
 2049 0064 B300     		lsls	r3, r6, #2
 2050 0066 28AA     		add	r2, sp, #160
 2051 0068 9D58     		ldr	r5, [r3, r2]
 2052 006a FF21     		movs	r1, #255
 2053 006c 8905     		lsls	r1, r1, #22
 2054 006e 281C     		adds	r0, r5, #0
 2055 0070 FFF7FEFF 		bl	__aeabi_fcmple
 2056              	.LVL279:
 2057 0074 0028     		cmp	r0, #0
 2058 0076 33D1     		bne	.L132
 410:..\..\..\liblc3\src/tns.c ****             continue;
 411:..\..\..\liblc3\src/tns.c **** 
 412:..\..\..\liblc3\src/tns.c ****         if (data->lpc_weighting && pred_gain[f] < 2.f)
 2059              		.loc 1 412 0 is_stmt 1
 2060 0078 3B79     		ldrb	r3, [r7, #4]
 2061 007a 002B     		cmp	r3, #0
 2062 007c 0FD0     		beq	.L133
 2063              		.loc 1 412 0 is_stmt 0 discriminator 1
 2064 007e 8021     		movs	r1, #128
 2065 0080 C905     		lsls	r1, r1, #23
 2066 0082 281C     		adds	r0, r5, #0
 2067 0084 FFF7FEFF 		bl	__aeabi_fcmplt
 2068              	.LVL280:
 2069 0088 0028     		cmp	r0, #0
 2070 008a 08D0     		beq	.L133
 413:..\..\..\liblc3\src/tns.c ****             lpc_weighting(pred_gain[f], a[f]);
 2071              		.loc 1 413 0 is_stmt 1
 2072 008c F300     		lsls	r3, r6, #3
 2073 008e 9B19     		adds	r3, r3, r6
 2074 0090 9900     		lsls	r1, r3, #2
 2075 0092 16AB     		add	r3, sp, #88
 2076 0094 9C46     		mov	ip, r3
 2077 0096 6144     		add	r1, r1, ip
 2078 0098 281C     		adds	r0, r5, #0
 2079 009a FFF7FEFF 		bl	lpc_weighting
 2080              	.LVL281:
 2081              	.L133:
 414:..\..\..\liblc3\src/tns.c **** 
 415:..\..\..\liblc3\src/tns.c ****         lpc_reflection(a[f], maxorder, rc[f]);
 2082              		.loc 1 415 0
 2083 009e F300     		lsls	r3, r6, #3
 2084 00a0 9B19     		adds	r3, r3, r6
 2085 00a2 9800     		lsls	r0, r3, #2
 2086 00a4 16AB     		add	r3, sp, #88
 2087 00a6 9C46     		mov	ip, r3
 2088 00a8 6044     		add	r0, r0, ip
 2089 00aa 7501     		lsls	r5, r6, #5
 2090 00ac 06AB     		add	r3, sp, #24
 2091 00ae 9C46     		mov	ip, r3
 2092 00b0 AC44     		add	ip, ip, r5
 2093 00b2 6346     		mov	r3, ip
 2094 00b4 0493     		str	r3, [sp, #16]
 2095 00b6 6246     		mov	r2, ip
ARM GAS  C:\Users\rdn\AppData\Local\Temp\ccet7BYP.s 			page 47


 2096 00b8 0399     		ldr	r1, [sp, #12]
 2097 00ba FFF7FEFF 		bl	lpc_reflection
 2098              	.LVL282:
 416:..\..\..\liblc3\src/tns.c **** 
 417:..\..\..\liblc3\src/tns.c ****         quantize_rc(rc[f], maxorder, &data->rc_order[f], data->rc[f]);
 2099              		.loc 1 417 0
 2100 00be 1035     		adds	r5, r5, #16
 2101 00c0 7A19     		adds	r2, r7, r5
 2102 00c2 1000     		movs	r0, r2
 2103 00c4 B31C     		adds	r3, r6, #2
 2104 00c6 9D00     		lsls	r5, r3, #2
 2105 00c8 7A19     		adds	r2, r7, r5
 2106 00ca 0590     		str	r0, [sp, #20]
 2107 00cc 0300     		movs	r3, r0
 2108 00ce 0399     		ldr	r1, [sp, #12]
 2109 00d0 0498     		ldr	r0, [sp, #16]
 2110 00d2 FFF7FEFF 		bl	quantize_rc
 2111              	.LVL283:
 418:..\..\..\liblc3\src/tns.c ****         unquantize_rc(data->rc[f], data->rc_order[f], rc[f]);
 2112              		.loc 1 418 0
 2113 00d6 E959     		ldr	r1, [r5, r7]
 2114 00d8 049A     		ldr	r2, [sp, #16]
 2115 00da 0598     		ldr	r0, [sp, #20]
 2116 00dc FFF7FEFF 		bl	unquantize_rc
 2117              	.LVL284:
 2118              	.L132:
 406:..\..\..\liblc3\src/tns.c **** 
 2119              		.loc 1 406 0 discriminator 2
 2120 00e0 0136     		adds	r6, r6, #1
 2121              	.LVL285:
 2122              	.L131:
 406:..\..\..\liblc3\src/tns.c **** 
 2123              		.loc 1 406 0 is_stmt 0 discriminator 1
 2124 00e2 3B68     		ldr	r3, [r7]
 2125 00e4 9E42     		cmp	r6, r3
 2126 00e6 B6DB     		blt	.L135
 2127              	.LBE83:
 419:..\..\..\liblc3\src/tns.c ****     }
 420:..\..\..\liblc3\src/tns.c **** 
 421:..\..\..\liblc3\src/tns.c ****     forward_filtering(dt, bw, data->rc_order, rc, x);
 2128              		.loc 1 421 0 is_stmt 1
 2129 00e8 3A00     		movs	r2, r7
 2130 00ea 0832     		adds	r2, r2, #8
 2131 00ec 319B     		ldr	r3, [sp, #196]
 2132 00ee 0093     		str	r3, [sp]
 2133 00f0 06AB     		add	r3, sp, #24
 2134 00f2 0299     		ldr	r1, [sp, #8]
 2135 00f4 2000     		movs	r0, r4
 2136 00f6 FFF7FEFF 		bl	forward_filtering
 2137              	.LVL286:
 422:..\..\..\liblc3\src/tns.c **** }
 2138              		.loc 1 422 0
 2139 00fa 2AB0     		add	sp, sp, #168
 2140              		@ sp needed
 2141              	.LVL287:
 2142 00fc 04BC     		pop	{r2}
 2143 00fe 9246     		mov	r10, r2
ARM GAS  C:\Users\rdn\AppData\Local\Temp\ccet7BYP.s 			page 48


 2144 0100 F0BD     		pop	{r4, r5, r6, r7, pc}
 2145              		.cfi_endproc
 2146              	.LFE29:
 2147              		.size	lc3_tns_analyze, .-lc3_tns_analyze
 2148 0102 C046     		.section	.text.lc3_tns_synthesize,"ax",%progbits
 2149              		.align	2
 2150              		.global	lc3_tns_synthesize
 2151              		.code	16
 2152              		.thumb_func
 2153              		.type	lc3_tns_synthesize, %function
 2154              	lc3_tns_synthesize:
 2155              	.LFB30:
 423:..\..\..\liblc3\src/tns.c **** 
 424:..\..\..\liblc3\src/tns.c **** /**
 425:..\..\..\liblc3\src/tns.c ****  * TNS synthesis
 426:..\..\..\liblc3\src/tns.c ****  */
 427:..\..\..\liblc3\src/tns.c **** void lc3_tns_synthesize(enum lc3_dt dt, enum lc3_bandwidth bw,
 428:..\..\..\liblc3\src/tns.c ****     const struct lc3_tns_data *data, float *x)
 429:..\..\..\liblc3\src/tns.c **** {
 2156              		.loc 1 429 0
 2157              		.cfi_startproc
 2158              		@ args = 0, pretend = 0, frame = 72
 2159              		@ frame_needed = 0, uses_anonymous_args = 0
 2160              	.LVL288:
 2161 0000 F0B5     		push	{r4, r5, r6, r7, lr}
 2162              		.cfi_def_cfa_offset 20
 2163              		.cfi_offset 4, -20
 2164              		.cfi_offset 5, -16
 2165              		.cfi_offset 6, -12
 2166              		.cfi_offset 7, -8
 2167              		.cfi_offset 14, -4
 2168 0002 95B0     		sub	sp, sp, #84
 2169              		.cfi_def_cfa_offset 104
 2170 0004 0390     		str	r0, [sp, #12]
 2171 0006 0F00     		movs	r7, r1
 2172 0008 1500     		movs	r5, r2
 2173 000a 1E00     		movs	r6, r3
 430:..\..\..\liblc3\src/tns.c ****     float rc[2][8] = { 0 };
 2174              		.loc 1 430 0
 2175 000c 4022     		movs	r2, #64
 2176              	.LVL289:
 2177 000e 0021     		movs	r1, #0
 2178              	.LVL290:
 2179 0010 04A8     		add	r0, sp, #16
 2180              	.LVL291:
 2181 0012 FFF7FEFF 		bl	memset
 2182              	.LVL292:
 2183              	.LBB84:
 431:..\..\..\liblc3\src/tns.c **** 
 432:..\..\..\liblc3\src/tns.c ****     for (int f = 0; f < data->nfilters; f++)
 2184              		.loc 1 432 0
 2185 0016 0024     		movs	r4, #0
 2186 0018 0EE0     		b	.L141
 2187              	.LVL293:
 2188              	.L143:
 433:..\..\..\liblc3\src/tns.c ****         if (data->rc_order[f])
 2189              		.loc 1 433 0
ARM GAS  C:\Users\rdn\AppData\Local\Temp\ccet7BYP.s 			page 49


 2190 001a A31C     		adds	r3, r4, #2
 2191 001c 9B00     		lsls	r3, r3, #2
 2192 001e 5959     		ldr	r1, [r3, r5]
 2193 0020 0029     		cmp	r1, #0
 2194 0022 08D0     		beq	.L142
 434:..\..\..\liblc3\src/tns.c ****             unquantize_rc(data->rc[f], data->rc_order[f], rc[f]);
 2195              		.loc 1 434 0
 2196 0024 6201     		lsls	r2, r4, #5
 2197 0026 1000     		movs	r0, r2
 2198 0028 1030     		adds	r0, r0, #16
 2199 002a 2818     		adds	r0, r5, r0
 2200 002c 04AB     		add	r3, sp, #16
 2201 002e 9C46     		mov	ip, r3
 2202 0030 6244     		add	r2, r2, ip
 2203 0032 FFF7FEFF 		bl	unquantize_rc
 2204              	.LVL294:
 2205              	.L142:
 432:..\..\..\liblc3\src/tns.c ****         if (data->rc_order[f])
 2206              		.loc 1 432 0 discriminator 2
 2207 0036 0134     		adds	r4, r4, #1
 2208              	.LVL295:
 2209              	.L141:
 432:..\..\..\liblc3\src/tns.c ****         if (data->rc_order[f])
 2210              		.loc 1 432 0 is_stmt 0 discriminator 1
 2211 0038 2B68     		ldr	r3, [r5]
 2212 003a 9C42     		cmp	r4, r3
 2213 003c EDDB     		blt	.L143
 2214              	.LBE84:
 435:..\..\..\liblc3\src/tns.c **** 
 436:..\..\..\liblc3\src/tns.c ****     inverse_filtering(dt, bw, data->rc_order, rc, x);
 2215              		.loc 1 436 0 is_stmt 1
 2216 003e 2A00     		movs	r2, r5
 2217 0040 0832     		adds	r2, r2, #8
 2218 0042 0096     		str	r6, [sp]
 2219 0044 04AB     		add	r3, sp, #16
 2220 0046 3900     		movs	r1, r7
 2221 0048 0398     		ldr	r0, [sp, #12]
 2222 004a FFF7FEFF 		bl	inverse_filtering
 2223              	.LVL296:
 437:..\..\..\liblc3\src/tns.c **** }
 2224              		.loc 1 437 0
 2225 004e 15B0     		add	sp, sp, #84
 2226              		@ sp needed
 2227              	.LVL297:
 2228              	.LVL298:
 2229              	.LVL299:
 2230 0050 F0BD     		pop	{r4, r5, r6, r7, pc}
 2231              		.cfi_endproc
 2232              	.LFE30:
 2233              		.size	lc3_tns_synthesize, .-lc3_tns_synthesize
 2234 0052 C046     		.section	.text.lc3_tns_get_nbits,"ax",%progbits
 2235              		.align	2
 2236              		.global	lc3_tns_get_nbits
 2237              		.code	16
 2238              		.thumb_func
 2239              		.type	lc3_tns_get_nbits, %function
 2240              	lc3_tns_get_nbits:
ARM GAS  C:\Users\rdn\AppData\Local\Temp\ccet7BYP.s 			page 50


 2241              	.LFB31:
 438:..\..\..\liblc3\src/tns.c **** 
 439:..\..\..\liblc3\src/tns.c **** /**
 440:..\..\..\liblc3\src/tns.c ****  * Bit consumption of bitstream data
 441:..\..\..\liblc3\src/tns.c ****  */
 442:..\..\..\liblc3\src/tns.c **** int lc3_tns_get_nbits(const struct lc3_tns_data *data)
 443:..\..\..\liblc3\src/tns.c **** {
 2242              		.loc 1 443 0
 2243              		.cfi_startproc
 2244              		@ args = 0, pretend = 0, frame = 0
 2245              		@ frame_needed = 0, uses_anonymous_args = 0
 2246              	.LVL300:
 2247 0000 F0B5     		push	{r4, r5, r6, r7, lr}
 2248              		.cfi_def_cfa_offset 20
 2249              		.cfi_offset 4, -20
 2250              		.cfi_offset 5, -16
 2251              		.cfi_offset 6, -12
 2252              		.cfi_offset 7, -8
 2253              		.cfi_offset 14, -4
 2254              	.LVL301:
 2255              	.LBB85:
 444:..\..\..\liblc3\src/tns.c ****     int nbits = 0;
 445:..\..\..\liblc3\src/tns.c **** 
 446:..\..\..\liblc3\src/tns.c ****     for (int f = 0; f < data->nfilters; f++) {
 2256              		.loc 1 446 0
 2257 0002 0025     		movs	r5, #0
 2258              	.LBE85:
 444:..\..\..\liblc3\src/tns.c ****     int nbits = 0;
 2259              		.loc 1 444 0
 2260 0004 0027     		movs	r7, #0
 2261              	.LBB88:
 2262              		.loc 1 446 0
 2263 0006 2AE0     		b	.L145
 2264              	.LVL302:
 2265              	.L149:
 2266              	.LBB86:
 447:..\..\..\liblc3\src/tns.c **** 
 448:..\..\..\liblc3\src/tns.c ****         int nbits_2048 = 2048;
 449:..\..\..\liblc3\src/tns.c ****         int rc_order = data->rc_order[f];
 2267              		.loc 1 449 0
 2268 0008 AB1C     		adds	r3, r5, #2
 2269 000a 9B00     		lsls	r3, r3, #2
 2270 000c 1E58     		ldr	r6, [r3, r0]
 2271              	.LVL303:
 450:..\..\..\liblc3\src/tns.c **** 
 451:..\..\..\liblc3\src/tns.c ****         nbits_2048 += rc_order > 0 ? lc3_tns_order_bits
 452:..\..\..\liblc3\src/tns.c ****             [data->lpc_weighting][rc_order-1] : 0;
 2272              		.loc 1 452 0
 2273 000e 002E     		cmp	r6, #0
 2274 0010 07DD     		ble	.L150
 2275              		.loc 1 452 0 is_stmt 0 discriminator 1
 2276 0012 0279     		ldrb	r2, [r0, #4]
 2277 0014 731E     		subs	r3, r6, #1
 2278 0016 D200     		lsls	r2, r2, #3
 2279 0018 D318     		adds	r3, r2, r3
 2280 001a 5B00     		lsls	r3, r3, #1
 2281 001c 124A     		ldr	r2, .L151
ARM GAS  C:\Users\rdn\AppData\Local\Temp\ccet7BYP.s 			page 51


 2282 001e 9C5A     		ldrh	r4, [r3, r2]
 2283 0020 00E0     		b	.L146
 2284              	.L150:
 2285              		.loc 1 452 0
 2286 0022 0024     		movs	r4, #0
 2287              	.L146:
 451:..\..\..\liblc3\src/tns.c ****             [data->lpc_weighting][rc_order-1] : 0;
 2288              		.loc 1 451 0 is_stmt 1
 2289 0024 8023     		movs	r3, #128
 2290 0026 1B01     		lsls	r3, r3, #4
 2291 0028 9C46     		mov	ip, r3
 2292 002a 6444     		add	r4, r4, ip
 2293              	.LVL304:
 2294              	.LBB87:
 453:..\..\..\liblc3\src/tns.c **** 
 454:..\..\..\liblc3\src/tns.c ****         for (int i = 0; i < rc_order; i++)
 2295              		.loc 1 454 0
 2296 002c 0021     		movs	r1, #0
 2297 002e 0EE0     		b	.L147
 2298              	.LVL305:
 2299              	.L148:
 455:..\..\..\liblc3\src/tns.c ****             nbits_2048 += lc3_tns_coeffs_bits[i][8 + data->rc[f][i]];
 2300              		.loc 1 455 0 discriminator 3
 2301 0030 EB00     		lsls	r3, r5, #3
 2302 0032 5B18     		adds	r3, r3, r1
 2303 0034 0433     		adds	r3, r3, #4
 2304 0036 9B00     		lsls	r3, r3, #2
 2305 0038 1B58     		ldr	r3, [r3, r0]
 2306 003a 0833     		adds	r3, r3, #8
 2307 003c 1A00     		movs	r2, r3
 2308 003e 0B01     		lsls	r3, r1, #4
 2309 0040 5B18     		adds	r3, r3, r1
 2310 0042 9B18     		adds	r3, r3, r2
 2311 0044 5B00     		lsls	r3, r3, #1
 2312 0046 094A     		ldr	r2, .L151+4
 2313 0048 9B5A     		ldrh	r3, [r3, r2]
 2314 004a E418     		adds	r4, r4, r3
 2315              	.LVL306:
 454:..\..\..\liblc3\src/tns.c ****             nbits_2048 += lc3_tns_coeffs_bits[i][8 + data->rc[f][i]];
 2316              		.loc 1 454 0 discriminator 3
 2317 004c 0131     		adds	r1, r1, #1
 2318              	.LVL307:
 2319              	.L147:
 454:..\..\..\liblc3\src/tns.c ****             nbits_2048 += lc3_tns_coeffs_bits[i][8 + data->rc[f][i]];
 2320              		.loc 1 454 0 is_stmt 0 discriminator 1
 2321 004e B142     		cmp	r1, r6
 2322 0050 EEDB     		blt	.L148
 2323              	.LBE87:
 456:..\..\..\liblc3\src/tns.c **** 
 457:..\..\..\liblc3\src/tns.c ****         nbits += (nbits_2048 + (1 << 11) - 1) >> 11;
 2324              		.loc 1 457 0 is_stmt 1 discriminator 2
 2325 0052 074B     		ldr	r3, .L151+8
 2326 0054 9C46     		mov	ip, r3
 2327 0056 6444     		add	r4, r4, ip
 2328              	.LVL308:
 2329 0058 E412     		asrs	r4, r4, #11
 2330              	.LVL309:
ARM GAS  C:\Users\rdn\AppData\Local\Temp\ccet7BYP.s 			page 52


 2331 005a 3F19     		adds	r7, r7, r4
 2332              	.LVL310:
 2333              	.LBE86:
 446:..\..\..\liblc3\src/tns.c **** 
 2334              		.loc 1 446 0 discriminator 2
 2335 005c 0135     		adds	r5, r5, #1
 2336              	.LVL311:
 2337              	.L145:
 446:..\..\..\liblc3\src/tns.c **** 
 2338              		.loc 1 446 0 is_stmt 0 discriminator 1
 2339 005e 0368     		ldr	r3, [r0]
 2340 0060 9D42     		cmp	r5, r3
 2341 0062 D1DB     		blt	.L149
 2342              	.LBE88:
 458:..\..\..\liblc3\src/tns.c ****     }
 459:..\..\..\liblc3\src/tns.c **** 
 460:..\..\..\liblc3\src/tns.c ****     return nbits;
 461:..\..\..\liblc3\src/tns.c **** }
 2343              		.loc 1 461 0 is_stmt 1
 2344 0064 3800     		movs	r0, r7
 2345              	.LVL312:
 2346              		@ sp needed
 2347              	.LVL313:
 2348              	.LVL314:
 2349 0066 F0BD     		pop	{r4, r5, r6, r7, pc}
 2350              	.L152:
 2351              		.align	2
 2352              	.L151:
 2353 0068 00000000 		.word	lc3_tns_order_bits
 2354 006c 00000000 		.word	lc3_tns_coeffs_bits
 2355 0070 FF070000 		.word	2047
 2356              		.cfi_endproc
 2357              	.LFE31:
 2358              		.size	lc3_tns_get_nbits, .-lc3_tns_get_nbits
 2359              		.section	.text.lc3_tns_put_data,"ax",%progbits
 2360              		.align	2
 2361              		.global	lc3_tns_put_data
 2362              		.code	16
 2363              		.thumb_func
 2364              		.type	lc3_tns_put_data, %function
 2365              	lc3_tns_put_data:
 2366              	.LFB32:
 462:..\..\..\liblc3\src/tns.c **** 
 463:..\..\..\liblc3\src/tns.c **** /**
 464:..\..\..\liblc3\src/tns.c ****  * Put bitstream data
 465:..\..\..\liblc3\src/tns.c ****  */
 466:..\..\..\liblc3\src/tns.c **** void lc3_tns_put_data(lc3_bits_t *bits, const struct lc3_tns_data *data)
 467:..\..\..\liblc3\src/tns.c **** {
 2367              		.loc 1 467 0
 2368              		.cfi_startproc
 2369              		@ args = 0, pretend = 0, frame = 0
 2370              		@ frame_needed = 0, uses_anonymous_args = 0
 2371              	.LVL315:
 2372 0000 F0B5     		push	{r4, r5, r6, r7, lr}
 2373              		.cfi_def_cfa_offset 20
 2374              		.cfi_offset 4, -20
 2375              		.cfi_offset 5, -16
ARM GAS  C:\Users\rdn\AppData\Local\Temp\ccet7BYP.s 			page 53


 2376              		.cfi_offset 6, -12
 2377              		.cfi_offset 7, -8
 2378              		.cfi_offset 14, -4
 2379 0002 4746     		mov	r7, r8
 2380 0004 80B4     		push	{r7}
 2381              		.cfi_def_cfa_offset 24
 2382              		.cfi_offset 8, -24
 2383 0006 0400     		movs	r4, r0
 2384 0008 8846     		mov	r8, r1
 2385              	.LVL316:
 2386              	.LBB98:
 468:..\..\..\liblc3\src/tns.c ****     for (int f = 0; f < data->nfilters; f++) {
 2387              		.loc 1 468 0
 2388 000a 0027     		movs	r7, #0
 2389 000c 66E0     		b	.L154
 2390              	.LVL317:
 2391              	.L161:
 2392              	.LBB99:
 469:..\..\..\liblc3\src/tns.c ****         int rc_order = data->rc_order[f];
 2393              		.loc 1 469 0
 2394 000e BB1C     		adds	r3, r7, #2
 2395 0010 9B00     		lsls	r3, r3, #2
 2396 0012 4246     		mov	r2, r8
 2397 0014 9E58     		ldr	r6, [r3, r2]
 2398              	.LVL318:
 470:..\..\..\liblc3\src/tns.c **** 
 471:..\..\..\liblc3\src/tns.c ****         lc3_put_bits(bits, rc_order > 0, 1);
 2399              		.loc 1 471 0
 2400 0016 F117     		asrs	r1, r6, #31
 2401 0018 891B     		subs	r1, r1, r6
 2402 001a C90F     		lsrs	r1, r1, #31
 2403              	.LVL319:
 2404              	.LBB100:
 2405              	.LBB101:
 2406              		.file 3 "..\\..\\..\\liblc3\\src\\bits.h"
   1:..\..\..\liblc3\src/bits.h **** /******************************************************************************
   2:..\..\..\liblc3\src/bits.h ****  *
   3:..\..\..\liblc3\src/bits.h ****  *  Copyright 2022 Google LLC
   4:..\..\..\liblc3\src/bits.h ****  *
   5:..\..\..\liblc3\src/bits.h ****  *  Licensed under the Apache License, Version 2.0 (the "License");
   6:..\..\..\liblc3\src/bits.h ****  *  you may not use this file except in compliance with the License.
   7:..\..\..\liblc3\src/bits.h ****  *  You may obtain a copy of the License at:
   8:..\..\..\liblc3\src/bits.h ****  *
   9:..\..\..\liblc3\src/bits.h ****  *  http://www.apache.org/licenses/LICENSE-2.0
  10:..\..\..\liblc3\src/bits.h ****  *
  11:..\..\..\liblc3\src/bits.h ****  *  Unless required by applicable law or agreed to in writing, software
  12:..\..\..\liblc3\src/bits.h ****  *  distributed under the License is distributed on an "AS IS" BASIS,
  13:..\..\..\liblc3\src/bits.h ****  *  WITHOUT WARRANTIES OR CONDITIONS OF ANY KIND, either express or implied.
  14:..\..\..\liblc3\src/bits.h ****  *  See the License for the specific language governing permissions and
  15:..\..\..\liblc3\src/bits.h ****  *  limitations under the License.
  16:..\..\..\liblc3\src/bits.h ****  *
  17:..\..\..\liblc3\src/bits.h ****  ******************************************************************************/
  18:..\..\..\liblc3\src/bits.h **** 
  19:..\..\..\liblc3\src/bits.h **** /**
  20:..\..\..\liblc3\src/bits.h ****  * The bitstream is written by the 2 ends of the buffer :
  21:..\..\..\liblc3\src/bits.h ****  *
  22:..\..\..\liblc3\src/bits.h ****  * - Arthmetic coder put bits while increasing memory addresses
ARM GAS  C:\Users\rdn\AppData\Local\Temp\ccet7BYP.s 			page 54


  23:..\..\..\liblc3\src/bits.h ****  *   in the buffer (forward)
  24:..\..\..\liblc3\src/bits.h ****  *
  25:..\..\..\liblc3\src/bits.h ****  * - Plain bits are puts starting the end of the buffer, with memeory
  26:..\..\..\liblc3\src/bits.h ****  *   addresses decreasing (backward)
  27:..\..\..\liblc3\src/bits.h ****  *
  28:..\..\..\liblc3\src/bits.h ****  *       .---------------------------------------------------.
  29:..\..\..\liblc3\src/bits.h ****  *       | > > > > > > > > > > :         : < < < < < < < < < |
  30:..\..\..\liblc3\src/bits.h ****  *       '---------------------------------------------------'
  31:..\..\..\liblc3\src/bits.h ****  *       |---------------------> - - - - - - - - - - - - - ->|
  32:..\..\..\liblc3\src/bits.h ****  *                              |< - - - <-------------------|
  33:..\..\..\liblc3\src/bits.h ****  *          Arithmetic coding                  Plain bits
  34:..\..\..\liblc3\src/bits.h ****  *          `lc3_put_symbol()`               `lc3_put_bits()`
  35:..\..\..\liblc3\src/bits.h ****  *
  36:..\..\..\liblc3\src/bits.h ****  * - The forward writing is protected against buffer overflow, it cannot
  37:..\..\..\liblc3\src/bits.h ****  *   write after the buffer, but can overwrite plain bits previously
  38:..\..\..\liblc3\src/bits.h ****  *   written in the buffer.
  39:..\..\..\liblc3\src/bits.h ****  *
  40:..\..\..\liblc3\src/bits.h ****  * - The backward writing is protected against overwrite of the arithmetic
  41:..\..\..\liblc3\src/bits.h ****  *   coder bitstream. In such way, the backward bitstream is always limited
  42:..\..\..\liblc3\src/bits.h ****  *   by the aritmetic coder bitstream, and can be overwritten by him.
  43:..\..\..\liblc3\src/bits.h ****  *
  44:..\..\..\liblc3\src/bits.h ****  *       .---------------------------------------------------.
  45:..\..\..\liblc3\src/bits.h ****  *       | > > > > > > > > > > :         : < < < < < < < < < |
  46:..\..\..\liblc3\src/bits.h ****  *       '---------------------------------------------------'
  47:..\..\..\liblc3\src/bits.h ****  *       |---------------------> - - - - - - - - - - - - - ->|
  48:..\..\..\liblc3\src/bits.h ****  *       |< - - - - - - - - - - -  - - - <-------------------|
  49:..\..\..\liblc3\src/bits.h ****  *          Arithmetic coding                  Plain bits
  50:..\..\..\liblc3\src/bits.h ****  *          `lc3_get_symbol()`               `lc3_get_bits()`
  51:..\..\..\liblc3\src/bits.h ****  *
  52:..\..\..\liblc3\src/bits.h ****  * - Reading is limited to read of the complementary end of the buffer.
  53:..\..\..\liblc3\src/bits.h ****  *
  54:..\..\..\liblc3\src/bits.h ****  * - The procedure `lc3_check_bits()` returns indication that read has been
  55:..\..\..\liblc3\src/bits.h ****  *   made crossing the other bit plane.
  56:..\..\..\liblc3\src/bits.h ****  *
  57:..\..\..\liblc3\src/bits.h ****  */
  58:..\..\..\liblc3\src/bits.h **** 
  59:..\..\..\liblc3\src/bits.h **** #ifndef __LC3_BITS_H
  60:..\..\..\liblc3\src/bits.h **** #define __LC3_BITS_H
  61:..\..\..\liblc3\src/bits.h **** 
  62:..\..\..\liblc3\src/bits.h **** #include "common.h"
  63:..\..\..\liblc3\src/bits.h **** 
  64:..\..\..\liblc3\src/bits.h **** 
  65:..\..\..\liblc3\src/bits.h **** /**
  66:..\..\..\liblc3\src/bits.h ****  * Bitstream mode
  67:..\..\..\liblc3\src/bits.h ****  */
  68:..\..\..\liblc3\src/bits.h **** 
  69:..\..\..\liblc3\src/bits.h **** enum lc3_bits_mode {
  70:..\..\..\liblc3\src/bits.h ****     LC3_BITS_MODE_READ,
  71:..\..\..\liblc3\src/bits.h ****     LC3_BITS_MODE_WRITE,
  72:..\..\..\liblc3\src/bits.h **** };
  73:..\..\..\liblc3\src/bits.h **** 
  74:..\..\..\liblc3\src/bits.h **** /**
  75:..\..\..\liblc3\src/bits.h ****  * Arithmetic coder symbol interval
  76:..\..\..\liblc3\src/bits.h ****  * The model split the interval in 17 symbols
  77:..\..\..\liblc3\src/bits.h ****  */
  78:..\..\..\liblc3\src/bits.h **** 
  79:..\..\..\liblc3\src/bits.h **** struct lc3_ac_symbol {
ARM GAS  C:\Users\rdn\AppData\Local\Temp\ccet7BYP.s 			page 55


  80:..\..\..\liblc3\src/bits.h ****     uint16_t low   : 16;
  81:..\..\..\liblc3\src/bits.h ****     uint16_t range : 16;
  82:..\..\..\liblc3\src/bits.h **** };
  83:..\..\..\liblc3\src/bits.h **** 
  84:..\..\..\liblc3\src/bits.h **** struct lc3_ac_model {
  85:..\..\..\liblc3\src/bits.h ****     struct lc3_ac_symbol s[17];
  86:..\..\..\liblc3\src/bits.h **** };
  87:..\..\..\liblc3\src/bits.h **** 
  88:..\..\..\liblc3\src/bits.h **** /**
  89:..\..\..\liblc3\src/bits.h ****  * Bitstream context
  90:..\..\..\liblc3\src/bits.h ****  */
  91:..\..\..\liblc3\src/bits.h **** 
  92:..\..\..\liblc3\src/bits.h **** #define LC3_ACCU_BITS (int)(8 * sizeof(unsigned))
  93:..\..\..\liblc3\src/bits.h **** 
  94:..\..\..\liblc3\src/bits.h **** struct lc3_bits_accu {
  95:..\..\..\liblc3\src/bits.h ****     unsigned v;
  96:..\..\..\liblc3\src/bits.h ****     int n, nover;
  97:..\..\..\liblc3\src/bits.h **** };
  98:..\..\..\liblc3\src/bits.h **** 
  99:..\..\..\liblc3\src/bits.h **** #define LC3_AC_BITS (int)(24)
 100:..\..\..\liblc3\src/bits.h **** 
 101:..\..\..\liblc3\src/bits.h **** struct lc3_bits_ac {
 102:..\..\..\liblc3\src/bits.h ****     unsigned low, range;
 103:..\..\..\liblc3\src/bits.h ****     int cache, carry, carry_count;
 104:..\..\..\liblc3\src/bits.h ****     bool error;
 105:..\..\..\liblc3\src/bits.h **** };
 106:..\..\..\liblc3\src/bits.h **** 
 107:..\..\..\liblc3\src/bits.h **** struct lc3_bits_buffer {
 108:..\..\..\liblc3\src/bits.h ****     const uint8_t *start, *end;
 109:..\..\..\liblc3\src/bits.h ****     uint8_t *p_fw, *p_bw;
 110:..\..\..\liblc3\src/bits.h **** };
 111:..\..\..\liblc3\src/bits.h **** 
 112:..\..\..\liblc3\src/bits.h **** typedef struct lc3_bits {
 113:..\..\..\liblc3\src/bits.h ****     enum lc3_bits_mode mode;
 114:..\..\..\liblc3\src/bits.h ****     struct lc3_bits_ac ac;
 115:..\..\..\liblc3\src/bits.h ****     struct lc3_bits_accu accu;
 116:..\..\..\liblc3\src/bits.h ****     struct lc3_bits_buffer buffer;
 117:..\..\..\liblc3\src/bits.h **** } lc3_bits_t;
 118:..\..\..\liblc3\src/bits.h **** 
 119:..\..\..\liblc3\src/bits.h **** 
 120:..\..\..\liblc3\src/bits.h **** /**
 121:..\..\..\liblc3\src/bits.h ****  * Setup bitstream reading/writing
 122:..\..\..\liblc3\src/bits.h ****  * bits            Bitstream context
 123:..\..\..\liblc3\src/bits.h ****  * mode            Either READ or WRITE mode
 124:..\..\..\liblc3\src/bits.h ****  * buffer, len     Output buffer and length (in bytes)
 125:..\..\..\liblc3\src/bits.h ****  */
 126:..\..\..\liblc3\src/bits.h **** void lc3_setup_bits(lc3_bits_t *bits,
 127:..\..\..\liblc3\src/bits.h ****     enum lc3_bits_mode mode, void *buffer, int len);
 128:..\..\..\liblc3\src/bits.h **** 
 129:..\..\..\liblc3\src/bits.h **** /**
 130:..\..\..\liblc3\src/bits.h ****  * Return number of bits left in the bitstream
 131:..\..\..\liblc3\src/bits.h ****  * bits            Bitstream context
 132:..\..\..\liblc3\src/bits.h ****  * return          Number of bits left
 133:..\..\..\liblc3\src/bits.h ****  */
 134:..\..\..\liblc3\src/bits.h **** int lc3_get_bits_left(const lc3_bits_t *bits);
 135:..\..\..\liblc3\src/bits.h **** 
 136:..\..\..\liblc3\src/bits.h **** /**
ARM GAS  C:\Users\rdn\AppData\Local\Temp\ccet7BYP.s 			page 56


 137:..\..\..\liblc3\src/bits.h ****  * Check if error occured on bitstream reading/writing
 138:..\..\..\liblc3\src/bits.h ****  * bits            Bitstream context
 139:..\..\..\liblc3\src/bits.h ****  * return          0: Ok  -1: Bitstream overflow or AC reading error
 140:..\..\..\liblc3\src/bits.h ****  */
 141:..\..\..\liblc3\src/bits.h **** int lc3_check_bits(const lc3_bits_t *bits);
 142:..\..\..\liblc3\src/bits.h **** 
 143:..\..\..\liblc3\src/bits.h **** /**
 144:..\..\..\liblc3\src/bits.h ****  * Put a bit
 145:..\..\..\liblc3\src/bits.h ****  * bits            Bitstream context
 146:..\..\..\liblc3\src/bits.h ****  * v               Bit value, 0 or 1
 147:..\..\..\liblc3\src/bits.h ****  */
 148:..\..\..\liblc3\src/bits.h **** static inline void lc3_put_bit(lc3_bits_t *bits, int v);
 149:..\..\..\liblc3\src/bits.h **** 
 150:..\..\..\liblc3\src/bits.h **** /**
 151:..\..\..\liblc3\src/bits.h ****  * Put from 1 to 32 bits
 152:..\..\..\liblc3\src/bits.h ****  * bits            Bitstream context
 153:..\..\..\liblc3\src/bits.h ****  * v, n            Value, in range 0 to 2^n - 1, and bits count (1 to 32)
 154:..\..\..\liblc3\src/bits.h ****  */
 155:..\..\..\liblc3\src/bits.h **** static inline void lc3_put_bits(lc3_bits_t *bits, unsigned v, int n);
 156:..\..\..\liblc3\src/bits.h **** 
 157:..\..\..\liblc3\src/bits.h **** /**
 158:..\..\..\liblc3\src/bits.h ****  * Put arithmetic coder symbol
 159:..\..\..\liblc3\src/bits.h ****  * bits            Bitstream context
 160:..\..\..\liblc3\src/bits.h ****  * model, s        Model distribution and symbol value
 161:..\..\..\liblc3\src/bits.h ****  */
 162:..\..\..\liblc3\src/bits.h **** static inline void lc3_put_symbol(lc3_bits_t *bits,
 163:..\..\..\liblc3\src/bits.h ****     const struct lc3_ac_model *model, unsigned s);
 164:..\..\..\liblc3\src/bits.h **** 
 165:..\..\..\liblc3\src/bits.h **** /**
 166:..\..\..\liblc3\src/bits.h ****  * Flush and terminate bitstream writing
 167:..\..\..\liblc3\src/bits.h ****  * bits            Bitstream context
 168:..\..\..\liblc3\src/bits.h ****  */
 169:..\..\..\liblc3\src/bits.h **** void lc3_flush_bits(lc3_bits_t *bits);
 170:..\..\..\liblc3\src/bits.h **** 
 171:..\..\..\liblc3\src/bits.h **** /**
 172:..\..\..\liblc3\src/bits.h ****  * Get a bit
 173:..\..\..\liblc3\src/bits.h ****  * bits            Bitstream context
 174:..\..\..\liblc3\src/bits.h ****  */
 175:..\..\..\liblc3\src/bits.h **** static inline int lc3_get_bit(lc3_bits_t *bits);
 176:..\..\..\liblc3\src/bits.h **** 
 177:..\..\..\liblc3\src/bits.h **** /**
 178:..\..\..\liblc3\src/bits.h ****  * Get from 1 to 32 bits
 179:..\..\..\liblc3\src/bits.h ****  * bits            Bitstream context
 180:..\..\..\liblc3\src/bits.h ****  * n               Number of bits to read (1 to 32)
 181:..\..\..\liblc3\src/bits.h ****  * return          The value read
 182:..\..\..\liblc3\src/bits.h ****  */
 183:..\..\..\liblc3\src/bits.h **** static inline unsigned lc3_get_bits(lc3_bits_t *bits,  int n);
 184:..\..\..\liblc3\src/bits.h **** 
 185:..\..\..\liblc3\src/bits.h **** /**
 186:..\..\..\liblc3\src/bits.h ****  * Get arithmetic coder symbol
 187:..\..\..\liblc3\src/bits.h ****  * bits            Bitstream context
 188:..\..\..\liblc3\src/bits.h ****  * model           Model distribution
 189:..\..\..\liblc3\src/bits.h ****  * return          The value read
 190:..\..\..\liblc3\src/bits.h ****  */
 191:..\..\..\liblc3\src/bits.h **** static inline unsigned lc3_get_symbol(lc3_bits_t *bits,
 192:..\..\..\liblc3\src/bits.h ****     const struct lc3_ac_model *model);
 193:..\..\..\liblc3\src/bits.h **** 
ARM GAS  C:\Users\rdn\AppData\Local\Temp\ccet7BYP.s 			page 57


 194:..\..\..\liblc3\src/bits.h **** 
 195:..\..\..\liblc3\src/bits.h **** 
 196:..\..\..\liblc3\src/bits.h **** /* ----------------------------------------------------------------------------
 197:..\..\..\liblc3\src/bits.h ****  *  Inline implementations
 198:..\..\..\liblc3\src/bits.h ****  * -------------------------------------------------------------------------- */
 199:..\..\..\liblc3\src/bits.h **** 
 200:..\..\..\liblc3\src/bits.h **** void lc3_put_bits_generic(lc3_bits_t *bits, unsigned v, int n);
 201:..\..\..\liblc3\src/bits.h **** unsigned lc3_get_bits_generic(struct lc3_bits *bits, int n);
 202:..\..\..\liblc3\src/bits.h **** 
 203:..\..\..\liblc3\src/bits.h **** void lc3_ac_read_renorm(lc3_bits_t *bits);
 204:..\..\..\liblc3\src/bits.h **** void lc3_ac_write_renorm(lc3_bits_t *bits);
 205:..\..\..\liblc3\src/bits.h **** 
 206:..\..\..\liblc3\src/bits.h **** 
 207:..\..\..\liblc3\src/bits.h **** /**
 208:..\..\..\liblc3\src/bits.h ****  * Put a bit
 209:..\..\..\liblc3\src/bits.h ****  */
 210:..\..\..\liblc3\src/bits.h **** LC3_HOT static inline void lc3_put_bit(lc3_bits_t *bits, int v)
 211:..\..\..\liblc3\src/bits.h **** {
 212:..\..\..\liblc3\src/bits.h ****     lc3_put_bits(bits, v, 1);
 213:..\..\..\liblc3\src/bits.h **** }
 214:..\..\..\liblc3\src/bits.h **** 
 215:..\..\..\liblc3\src/bits.h **** /**
 216:..\..\..\liblc3\src/bits.h ****  * Put from 1 to 32 bits
 217:..\..\..\liblc3\src/bits.h ****  */
 218:..\..\..\liblc3\src/bits.h **** LC3_HOT static inline void lc3_put_bits(
 219:..\..\..\liblc3\src/bits.h ****     struct lc3_bits *bits, unsigned v, int n)
 220:..\..\..\liblc3\src/bits.h **** {
 221:..\..\..\liblc3\src/bits.h ****     struct lc3_bits_accu *accu = &bits->accu;
 222:..\..\..\liblc3\src/bits.h **** 
 223:..\..\..\liblc3\src/bits.h ****     if (accu->n + n <= LC3_ACCU_BITS) {
 2407              		.loc 3 223 0
 2408 001c 226A     		ldr	r2, [r4, #32]
 2409 001e 531C     		adds	r3, r2, #1
 2410 0020 202B     		cmp	r3, #32
 2411 0022 05DC     		bgt	.L155
 224:..\..\..\liblc3\src/bits.h ****         accu->v |= v << accu->n;
 2412              		.loc 3 224 0
 2413 0024 9140     		lsls	r1, r1, r2
 2414              	.LVL320:
 2415 0026 E269     		ldr	r2, [r4, #28]
 2416 0028 1143     		orrs	r1, r2
 2417 002a E161     		str	r1, [r4, #28]
 225:..\..\..\liblc3\src/bits.h ****         accu->n += n;
 2418              		.loc 3 225 0
 2419 002c 2362     		str	r3, [r4, #32]
 2420 002e 03E0     		b	.L156
 2421              	.LVL321:
 2422              	.L155:
 226:..\..\..\liblc3\src/bits.h ****     } else {
 227:..\..\..\liblc3\src/bits.h ****         lc3_put_bits_generic(bits, v, n);
 2423              		.loc 3 227 0
 2424 0030 0122     		movs	r2, #1
 2425 0032 2000     		movs	r0, r4
 2426 0034 FFF7FEFF 		bl	lc3_put_bits_generic
 2427              	.LVL322:
 2428              	.L156:
 2429              	.LBE101:
ARM GAS  C:\Users\rdn\AppData\Local\Temp\ccet7BYP.s 			page 58


 2430              	.LBE100:
 472:..\..\..\liblc3\src/tns.c ****         if (rc_order <= 0)
 2431              		.loc 1 472 0
 2432 0038 002E     		cmp	r6, #0
 2433 003a 4EDD     		ble	.L157
 473:..\..\..\liblc3\src/tns.c ****             continue;
 474:..\..\..\liblc3\src/tns.c **** 
 475:..\..\..\liblc3\src/tns.c ****         lc3_put_symbol(bits,
 476:..\..\..\liblc3\src/tns.c ****             lc3_tns_order_models + data->lpc_weighting, rc_order-1);
 2434              		.loc 1 476 0
 2435 003c 4346     		mov	r3, r8
 2436 003e 1B79     		ldrb	r3, [r3, #4]
 2437 0040 1A01     		lsls	r2, r3, #4
 2438 0042 D318     		adds	r3, r2, r3
 2439 0044 9A00     		lsls	r2, r3, #2
 475:..\..\..\liblc3\src/tns.c ****             lc3_tns_order_models + data->lpc_weighting, rc_order-1);
 2440              		.loc 1 475 0
 2441 0046 294B     		ldr	r3, .L163
 2442 0048 D218     		adds	r2, r2, r3
 2443              		.loc 1 476 0
 2444 004a 731E     		subs	r3, r6, #1
 2445              	.LVL323:
 2446              	.LBB102:
 2447              	.LBB103:
 228:..\..\..\liblc3\src/bits.h ****     }
 229:..\..\..\liblc3\src/bits.h **** }
 230:..\..\..\liblc3\src/bits.h **** 
 231:..\..\..\liblc3\src/bits.h **** /**
 232:..\..\..\liblc3\src/bits.h ****  * Get a bit
 233:..\..\..\liblc3\src/bits.h ****  */
 234:..\..\..\liblc3\src/bits.h **** LC3_HOT static inline int lc3_get_bit(lc3_bits_t *bits)
 235:..\..\..\liblc3\src/bits.h **** {
 236:..\..\..\liblc3\src/bits.h ****     return lc3_get_bits(bits, 1);
 237:..\..\..\liblc3\src/bits.h **** }
 238:..\..\..\liblc3\src/bits.h **** 
 239:..\..\..\liblc3\src/bits.h **** /**
 240:..\..\..\liblc3\src/bits.h ****  * Get from 1 to 32 bits
 241:..\..\..\liblc3\src/bits.h ****  */
 242:..\..\..\liblc3\src/bits.h **** LC3_HOT static inline unsigned lc3_get_bits(struct lc3_bits *bits, int n)
 243:..\..\..\liblc3\src/bits.h **** {
 244:..\..\..\liblc3\src/bits.h ****     struct lc3_bits_accu *accu = &bits->accu;
 245:..\..\..\liblc3\src/bits.h **** 
 246:..\..\..\liblc3\src/bits.h ****     if (accu->n + n <= LC3_ACCU_BITS) {
 247:..\..\..\liblc3\src/bits.h ****         int v = (accu->v >> accu->n) & ((1u << n) - 1);
 248:..\..\..\liblc3\src/bits.h ****         return (accu->n += n), v;
 249:..\..\..\liblc3\src/bits.h ****     }
 250:..\..\..\liblc3\src/bits.h ****     else {
 251:..\..\..\liblc3\src/bits.h ****         return lc3_get_bits_generic(bits, n);
 252:..\..\..\liblc3\src/bits.h ****     }
 253:..\..\..\liblc3\src/bits.h **** }
 254:..\..\..\liblc3\src/bits.h **** 
 255:..\..\..\liblc3\src/bits.h **** /**
 256:..\..\..\liblc3\src/bits.h ****  * Put arithmetic coder symbol
 257:..\..\..\liblc3\src/bits.h ****  */
 258:..\..\..\liblc3\src/bits.h **** LC3_HOT static inline void lc3_put_symbol(
 259:..\..\..\liblc3\src/bits.h ****     struct lc3_bits *bits, const struct lc3_ac_model *model, unsigned s)
 260:..\..\..\liblc3\src/bits.h **** {
ARM GAS  C:\Users\rdn\AppData\Local\Temp\ccet7BYP.s 			page 59


 261:..\..\..\liblc3\src/bits.h ****     const struct lc3_ac_symbol *symbols = model->s;
 262:..\..\..\liblc3\src/bits.h ****     struct lc3_bits_ac *ac = &bits->ac;
 263:..\..\..\liblc3\src/bits.h ****     unsigned range = ac->range >> 10;
 2448              		.loc 3 263 0
 2449 004c A168     		ldr	r1, [r4, #8]
 2450 004e 890A     		lsrs	r1, r1, #10
 2451              	.LVL324:
 264:..\..\..\liblc3\src/bits.h **** 
 265:..\..\..\liblc3\src/bits.h ****     ac->low += range * symbols[s].low;
 2452              		.loc 3 265 0
 2453 0050 9B00     		lsls	r3, r3, #2
 2454 0052 D218     		adds	r2, r2, r3
 2455              	.LVL325:
 2456 0054 1388     		ldrh	r3, [r2]
 2457 0056 4B43     		muls	r3, r1
 2458 0058 6068     		ldr	r0, [r4, #4]
 2459 005a 8446     		mov	ip, r0
 2460 005c 6344     		add	r3, r3, ip
 2461 005e 6360     		str	r3, [r4, #4]
 2462              	.LVL326:
 266:..\..\..\liblc3\src/bits.h ****     ac->range = range * symbols[s].range;
 2463              		.loc 3 266 0
 2464 0060 5288     		ldrh	r2, [r2, #2]
 2465 0062 4A43     		muls	r2, r1
 2466 0064 A260     		str	r2, [r4, #8]
 267:..\..\..\liblc3\src/bits.h **** 
 268:..\..\..\liblc3\src/bits.h ****     ac->carry |= ac->low >> 24;
 2467              		.loc 3 268 0
 2468 0066 190E     		lsrs	r1, r3, #24
 2469              	.LVL327:
 2470 0068 2069     		ldr	r0, [r4, #16]
 2471 006a 0143     		orrs	r1, r0
 2472 006c 2161     		str	r1, [r4, #16]
 269:..\..\..\liblc3\src/bits.h ****     ac->low &= 0xffffff;
 2473              		.loc 3 269 0
 2474 006e 1B02     		lsls	r3, r3, #8
 2475 0070 1B0A     		lsrs	r3, r3, #8
 2476 0072 6360     		str	r3, [r4, #4]
 270:..\..\..\liblc3\src/bits.h **** 
 271:..\..\..\liblc3\src/bits.h ****     if (ac->range < 0x10000)
 2477              		.loc 3 271 0
 2478 0074 1E4B     		ldr	r3, .L163+4
 2479 0076 9A42     		cmp	r2, r3
 2480 0078 2CD8     		bhi	.L162
 272:..\..\..\liblc3\src/bits.h ****         lc3_ac_write_renorm(bits);
 2481              		.loc 3 272 0
 2482 007a 2000     		movs	r0, r4
 2483 007c FFF7FEFF 		bl	lc3_ac_write_renorm
 2484              	.LVL328:
 2485              	.LBE103:
 2486              	.LBE102:
 2487              	.LBB104:
 477:..\..\..\liblc3\src/tns.c **** 
 478:..\..\..\liblc3\src/tns.c ****         for (int i = 0; i < rc_order; i++)
 2488              		.loc 1 478 0
 2489 0080 0025     		movs	r5, #0
 2490 0082 28E0     		b	.L158
ARM GAS  C:\Users\rdn\AppData\Local\Temp\ccet7BYP.s 			page 60


 2491              	.LVL329:
 2492              	.L160:
 479:..\..\..\liblc3\src/tns.c ****             lc3_put_symbol(bits,
 480:..\..\..\liblc3\src/tns.c ****                 lc3_tns_coeffs_models + i, 8 + data->rc[f][i]);
 2493              		.loc 1 480 0 discriminator 3
 2494 0084 2B01     		lsls	r3, r5, #4
 2495 0086 5B19     		adds	r3, r3, r5
 2496 0088 9A00     		lsls	r2, r3, #2
 479:..\..\..\liblc3\src/tns.c ****             lc3_put_symbol(bits,
 2497              		.loc 1 479 0 discriminator 3
 2498 008a 1A4B     		ldr	r3, .L163+8
 2499 008c D218     		adds	r2, r2, r3
 2500              		.loc 1 480 0 discriminator 3
 2501 008e FB00     		lsls	r3, r7, #3
 2502 0090 5B19     		adds	r3, r3, r5
 2503 0092 0433     		adds	r3, r3, #4
 2504 0094 9B00     		lsls	r3, r3, #2
 2505 0096 4146     		mov	r1, r8
 2506 0098 5B58     		ldr	r3, [r3, r1]
 2507 009a 0833     		adds	r3, r3, #8
 2508              	.LVL330:
 2509              	.LBB105:
 2510              	.LBB106:
 263:..\..\..\liblc3\src/bits.h **** 
 2511              		.loc 3 263 0 discriminator 3
 2512 009c A168     		ldr	r1, [r4, #8]
 2513 009e 890A     		lsrs	r1, r1, #10
 2514              	.LVL331:
 265:..\..\..\liblc3\src/bits.h ****     ac->range = range * symbols[s].range;
 2515              		.loc 3 265 0 discriminator 3
 2516 00a0 9B00     		lsls	r3, r3, #2
 2517              	.LVL332:
 2518 00a2 D218     		adds	r2, r2, r3
 2519              	.LVL333:
 2520 00a4 1388     		ldrh	r3, [r2]
 2521 00a6 4B43     		muls	r3, r1
 2522 00a8 6068     		ldr	r0, [r4, #4]
 2523 00aa 8446     		mov	ip, r0
 2524 00ac 6344     		add	r3, r3, ip
 2525 00ae 6360     		str	r3, [r4, #4]
 2526              	.LVL334:
 266:..\..\..\liblc3\src/bits.h **** 
 2527              		.loc 3 266 0 discriminator 3
 2528 00b0 5288     		ldrh	r2, [r2, #2]
 2529 00b2 4A43     		muls	r2, r1
 2530 00b4 A260     		str	r2, [r4, #8]
 268:..\..\..\liblc3\src/bits.h ****     ac->low &= 0xffffff;
 2531              		.loc 3 268 0 discriminator 3
 2532 00b6 190E     		lsrs	r1, r3, #24
 2533              	.LVL335:
 2534 00b8 2069     		ldr	r0, [r4, #16]
 2535 00ba 0143     		orrs	r1, r0
 2536 00bc 2161     		str	r1, [r4, #16]
 269:..\..\..\liblc3\src/bits.h **** 
 2537              		.loc 3 269 0 discriminator 3
 2538 00be 1B02     		lsls	r3, r3, #8
 2539 00c0 1B0A     		lsrs	r3, r3, #8
ARM GAS  C:\Users\rdn\AppData\Local\Temp\ccet7BYP.s 			page 61


 2540 00c2 6360     		str	r3, [r4, #4]
 271:..\..\..\liblc3\src/bits.h ****         lc3_ac_write_renorm(bits);
 2541              		.loc 3 271 0 discriminator 3
 2542 00c4 0A4B     		ldr	r3, .L163+4
 2543 00c6 9A42     		cmp	r2, r3
 2544 00c8 02D8     		bhi	.L159
 2545              		.loc 3 272 0
 2546 00ca 2000     		movs	r0, r4
 2547 00cc FFF7FEFF 		bl	lc3_ac_write_renorm
 2548              	.LVL336:
 2549              	.L159:
 2550              	.LBE106:
 2551              	.LBE105:
 478:..\..\..\liblc3\src/tns.c ****             lc3_put_symbol(bits,
 2552              		.loc 1 478 0 discriminator 3
 2553 00d0 0135     		adds	r5, r5, #1
 2554              	.LVL337:
 2555 00d2 00E0     		b	.L158
 2556              	.LVL338:
 2557              	.L162:
 478:..\..\..\liblc3\src/tns.c ****             lc3_put_symbol(bits,
 2558              		.loc 1 478 0 is_stmt 0
 2559 00d4 0025     		movs	r5, #0
 2560              	.LVL339:
 2561              	.L158:
 478:..\..\..\liblc3\src/tns.c ****             lc3_put_symbol(bits,
 2562              		.loc 1 478 0 discriminator 1
 2563 00d6 B542     		cmp	r5, r6
 2564 00d8 D4DB     		blt	.L160
 2565              	.LVL340:
 2566              	.L157:
 2567              	.LBE104:
 2568              	.LBE99:
 468:..\..\..\liblc3\src/tns.c ****         int rc_order = data->rc_order[f];
 2569              		.loc 1 468 0 is_stmt 1 discriminator 2
 2570 00da 0137     		adds	r7, r7, #1
 2571              	.LVL341:
 2572              	.L154:
 468:..\..\..\liblc3\src/tns.c ****         int rc_order = data->rc_order[f];
 2573              		.loc 1 468 0 is_stmt 0 discriminator 1
 2574 00dc 4346     		mov	r3, r8
 2575 00de 1B68     		ldr	r3, [r3]
 2576 00e0 9F42     		cmp	r7, r3
 2577 00e2 94DB     		blt	.L161
 2578              	.LBE98:
 481:..\..\..\liblc3\src/tns.c ****     }
 482:..\..\..\liblc3\src/tns.c **** }
 2579              		.loc 1 482 0 is_stmt 1
 2580              		@ sp needed
 2581              	.LVL342:
 2582              	.LVL343:
 2583              	.LVL344:
 2584 00e4 04BC     		pop	{r2}
 2585 00e6 9046     		mov	r8, r2
 2586 00e8 F0BD     		pop	{r4, r5, r6, r7, pc}
 2587              	.L164:
 2588 00ea C046     		.align	2
ARM GAS  C:\Users\rdn\AppData\Local\Temp\ccet7BYP.s 			page 62


 2589              	.L163:
 2590 00ec 00000000 		.word	lc3_tns_order_models
 2591 00f0 FFFF0000 		.word	65535
 2592 00f4 00000000 		.word	lc3_tns_coeffs_models
 2593              		.cfi_endproc
 2594              	.LFE32:
 2595              		.size	lc3_tns_put_data, .-lc3_tns_put_data
 2596              		.section	.text.lc3_tns_get_data,"ax",%progbits
 2597              		.align	2
 2598              		.global	lc3_tns_get_data
 2599              		.code	16
 2600              		.thumb_func
 2601              		.type	lc3_tns_get_data, %function
 2602              	lc3_tns_get_data:
 2603              	.LFB33:
 483:..\..\..\liblc3\src/tns.c **** 
 484:..\..\..\liblc3\src/tns.c **** /**
 485:..\..\..\liblc3\src/tns.c ****  * Get bitstream data
 486:..\..\..\liblc3\src/tns.c ****  */
 487:..\..\..\liblc3\src/tns.c **** int lc3_tns_get_data(lc3_bits_t *bits,
 488:..\..\..\liblc3\src/tns.c ****     enum lc3_dt dt, enum lc3_bandwidth bw, int nbytes, lc3_tns_data_t *data)
 489:..\..\..\liblc3\src/tns.c **** {
 2604              		.loc 1 489 0
 2605              		.cfi_startproc
 2606              		@ args = 4, pretend = 0, frame = 0
 2607              		@ frame_needed = 0, uses_anonymous_args = 0
 2608              	.LVL345:
 2609 0000 F0B5     		push	{r4, r5, r6, r7, lr}
 2610              		.cfi_def_cfa_offset 20
 2611              		.cfi_offset 4, -20
 2612              		.cfi_offset 5, -16
 2613              		.cfi_offset 6, -12
 2614              		.cfi_offset 7, -8
 2615              		.cfi_offset 14, -4
 2616 0002 5746     		mov	r7, r10
 2617 0004 4E46     		mov	r6, r9
 2618 0006 4546     		mov	r5, r8
 2619 0008 E0B4     		push	{r5, r6, r7}
 2620              		.cfi_def_cfa_offset 32
 2621              		.cfi_offset 8, -32
 2622              		.cfi_offset 9, -28
 2623              		.cfi_offset 10, -24
 2624 000a 0400     		movs	r4, r0
 2625 000c 8846     		mov	r8, r1
 2626 000e 0899     		ldr	r1, [sp, #32]
 2627              	.LVL346:
 2628 0010 8A46     		mov	r10, r1
 490:..\..\..\liblc3\src/tns.c ****     data->nfilters = 1 + (dt >= LC3_DT_5M && bw >= LC3_BANDWIDTH_SWB);
 2629              		.loc 1 490 0
 2630 0012 4146     		mov	r1, r8
 2631 0014 0029     		cmp	r1, #0
 2632 0016 03D0     		beq	.L187
 2633              		.loc 1 490 0 is_stmt 0 discriminator 1
 2634 0018 022A     		cmp	r2, #2
 2635 001a 03D8     		bhi	.L188
 2636              		.loc 1 490 0
 2637 001c 0022     		movs	r2, #0
ARM GAS  C:\Users\rdn\AppData\Local\Temp\ccet7BYP.s 			page 63


 2638              	.LVL347:
 2639 001e 02E0     		b	.L166
 2640              	.LVL348:
 2641              	.L187:
 2642 0020 0022     		movs	r2, #0
 2643              	.LVL349:
 2644 0022 00E0     		b	.L166
 2645              	.LVL350:
 2646              	.L188:
 2647 0024 0122     		movs	r2, #1
 2648              	.LVL351:
 2649              	.L166:
 2650              		.loc 1 490 0 discriminator 6
 2651 0026 0132     		adds	r2, r2, #1
 2652 0028 5146     		mov	r1, r10
 2653 002a 0A60     		str	r2, [r1]
 491:..\..\..\liblc3\src/tns.c ****     data->lpc_weighting = resolve_lpc_weighting(dt, nbytes);
 2654              		.loc 1 491 0 is_stmt 1 discriminator 6
 2655 002c 1900     		movs	r1, r3
 2656 002e 4046     		mov	r0, r8
 2657              	.LVL352:
 2658 0030 FFF7FEFF 		bl	resolve_lpc_weighting
 2659              	.LVL353:
 2660 0034 5346     		mov	r3, r10
 2661 0036 1871     		strb	r0, [r3, #4]
 2662              	.LVL354:
 2663              	.LBB118:
 492:..\..\..\liblc3\src/tns.c **** 
 493:..\..\..\liblc3\src/tns.c ****     for (int f = 0; f < data->nfilters; f++) {
 2664              		.loc 1 493 0 discriminator 6
 2665 0038 0026     		movs	r6, #0
 2666 003a E2E0     		b	.L167
 2667              	.LVL355:
 2668              	.L186:
 2669              	.LBB119:
 2670              	.LBB120:
 2671              	.LBB121:
 2672              	.LBB122:
 246:..\..\..\liblc3\src/bits.h ****         int v = (accu->v >> accu->n) & ((1u << n) - 1);
 2673              		.loc 3 246 0
 2674 003c 236A     		ldr	r3, [r4, #32]
 2675 003e 5A1C     		adds	r2, r3, #1
 2676 0040 202A     		cmp	r2, #32
 2677 0042 05DC     		bgt	.L168
 2678              	.LBB123:
 247:..\..\..\liblc3\src/bits.h ****         return (accu->n += n), v;
 2679              		.loc 3 247 0
 2680 0044 E169     		ldr	r1, [r4, #28]
 2681 0046 D940     		lsrs	r1, r1, r3
 2682 0048 0120     		movs	r0, #1
 2683 004a 0840     		ands	r0, r1
 2684              	.LVL356:
 248:..\..\..\liblc3\src/bits.h ****     }
 2685              		.loc 3 248 0
 2686 004c 2262     		str	r2, [r4, #32]
 2687 004e 03E0     		b	.L169
 2688              	.LVL357:
ARM GAS  C:\Users\rdn\AppData\Local\Temp\ccet7BYP.s 			page 64


 2689              	.L168:
 2690              	.LBE123:
 251:..\..\..\liblc3\src/bits.h ****     }
 2691              		.loc 3 251 0
 2692 0050 0121     		movs	r1, #1
 2693 0052 2000     		movs	r0, r4
 2694 0054 FFF7FEFF 		bl	lc3_get_bits_generic
 2695              	.LVL358:
 2696              	.L169:
 2697              	.LBE122:
 2698              	.LBE121:
 2699              	.LBE120:
 2700              	.LBE119:
 494:..\..\..\liblc3\src/tns.c **** 
 495:..\..\..\liblc3\src/tns.c ****         data->rc_order[f] = lc3_get_bit(bits);
 2701              		.loc 1 495 0
 2702 0058 B31C     		adds	r3, r6, #2
 2703 005a 9B00     		lsls	r3, r3, #2
 2704 005c 5246     		mov	r2, r10
 2705 005e 9850     		str	r0, [r3, r2]
 496:..\..\..\liblc3\src/tns.c ****         if (!data->rc_order[f])
 2706              		.loc 1 496 0
 2707 0060 0028     		cmp	r0, #0
 2708 0062 00D1     		bne	.LCB3043
 2709 0064 CCE0     		b	.L170	@long jump
 2710              	.LCB3043:
 497:..\..\..\liblc3\src/tns.c ****             continue;
 498:..\..\..\liblc3\src/tns.c **** 
 499:..\..\..\liblc3\src/tns.c ****         data->rc_order[f] += lc3_get_symbol(bits,
 500:..\..\..\liblc3\src/tns.c ****             lc3_tns_order_models + data->lpc_weighting);
 2711              		.loc 1 500 0
 2712 0066 1379     		ldrb	r3, [r2, #4]
 2713 0068 1A01     		lsls	r2, r3, #4
 2714 006a D318     		adds	r3, r2, r3
 2715 006c 9A00     		lsls	r2, r3, #2
 499:..\..\..\liblc3\src/tns.c ****             lc3_tns_order_models + data->lpc_weighting);
 2716              		.loc 1 499 0
 2717 006e 6C4B     		ldr	r3, .L199
 2718 0070 D218     		adds	r2, r2, r3
 2719              	.LVL359:
 2720              	.LBB124:
 2721              	.LBB125:
 273:..\..\..\liblc3\src/bits.h **** }
 274:..\..\..\liblc3\src/bits.h **** 
 275:..\..\..\liblc3\src/bits.h **** /**
 276:..\..\..\liblc3\src/bits.h ****  * Get arithmetic coder symbol
 277:..\..\..\liblc3\src/bits.h ****  */
 278:..\..\..\liblc3\src/bits.h **** LC3_HOT static inline unsigned lc3_get_symbol(
 279:..\..\..\liblc3\src/bits.h ****     lc3_bits_t *bits, const struct lc3_ac_model *model)
 280:..\..\..\liblc3\src/bits.h **** {
 281:..\..\..\liblc3\src/bits.h ****     const struct lc3_ac_symbol *symbols = model->s;
 282:..\..\..\liblc3\src/bits.h ****     struct lc3_bits_ac *ac = &bits->ac;
 283:..\..\..\liblc3\src/bits.h **** 
 284:..\..\..\liblc3\src/bits.h ****     unsigned range = (ac->range >> 10) & 0xffff;
 2722              		.loc 3 284 0
 2723 0072 A368     		ldr	r3, [r4, #8]
 2724 0074 9B0A     		lsrs	r3, r3, #10
ARM GAS  C:\Users\rdn\AppData\Local\Temp\ccet7BYP.s 			page 65


 2725 0076 1B04     		lsls	r3, r3, #16
 2726 0078 1B0C     		lsrs	r3, r3, #16
 2727              	.LVL360:
 285:..\..\..\liblc3\src/bits.h **** 
 286:..\..\..\liblc3\src/bits.h ****     ac->error |= (ac->low >= (range << 10));
 2728              		.loc 3 286 0
 2729 007a 217E     		ldrb	r1, [r4, #24]
 2730 007c 9D02     		lsls	r5, r3, #10
 2731 007e 0020     		movs	r0, #0
 2732 0080 6768     		ldr	r7, [r4, #4]
 2733 0082 AF42     		cmp	r7, r5
 2734 0084 4041     		adcs	r0, r0, r0
 2735 0086 C0B2     		uxtb	r0, r0
 2736 0088 0143     		orrs	r1, r0
 2737 008a 2176     		strb	r1, [r4, #24]
 287:..\..\..\liblc3\src/bits.h ****     if (ac->error)
 2738              		.loc 3 287 0
 2739 008c 01D0     		beq	.L171
 288:..\..\..\liblc3\src/bits.h ****         ac->low = 0;
 2740              		.loc 3 288 0
 2741 008e 0021     		movs	r1, #0
 2742 0090 6160     		str	r1, [r4, #4]
 2743              	.L171:
 2744              	.LVL361:
 289:..\..\..\liblc3\src/bits.h **** 
 290:..\..\..\liblc3\src/bits.h ****     int s = 16;
 291:..\..\..\liblc3\src/bits.h **** 
 292:..\..\..\liblc3\src/bits.h ****     if (ac->low < range * symbols[s].low) {
 2745              		.loc 3 292 0
 2746 0092 6568     		ldr	r5, [r4, #4]
 2747 0094 1100     		movs	r1, r2
 2748 0096 4031     		adds	r1, r1, #64
 2749 0098 0988     		ldrh	r1, [r1]
 2750 009a 5943     		muls	r1, r3
 2751 009c 8D42     		cmp	r5, r1
 2752 009e 25D2     		bcs	.L189
 2753              	.LVL362:
 293:..\..\..\liblc3\src/bits.h ****         s >>= 1;
 294:..\..\..\liblc3\src/bits.h ****         s -= ac->low < range * symbols[s].low ? 4 : -4;
 2754              		.loc 3 294 0
 2755 00a0 118C     		ldrh	r1, [r2, #32]
 2756 00a2 5943     		muls	r1, r3
 2757 00a4 8D42     		cmp	r5, r1
 2758 00a6 01D2     		bcs	.L190
 2759 00a8 0420     		movs	r0, #4
 2760 00aa 01E0     		b	.L173
 2761              	.L190:
 2762 00ac 0420     		movs	r0, #4
 2763 00ae 4042     		rsbs	r0, r0, #0
 2764              	.L173:
 2765 00b0 0821     		movs	r1, #8
 2766 00b2 091A     		subs	r1, r1, r0
 2767              	.LVL363:
 295:..\..\..\liblc3\src/bits.h ****         s -= ac->low < range * symbols[s].low ? 2 : -2;
 2768              		.loc 3 295 0
 2769 00b4 8800     		lsls	r0, r1, #2
 2770 00b6 105A     		ldrh	r0, [r2, r0]
ARM GAS  C:\Users\rdn\AppData\Local\Temp\ccet7BYP.s 			page 66


 2771 00b8 5843     		muls	r0, r3
 2772 00ba 8542     		cmp	r5, r0
 2773 00bc 01D2     		bcs	.L191
 2774 00be 0220     		movs	r0, #2
 2775 00c0 01E0     		b	.L174
 2776              	.L191:
 2777 00c2 0220     		movs	r0, #2
 2778 00c4 4042     		rsbs	r0, r0, #0
 2779              	.L174:
 2780 00c6 091A     		subs	r1, r1, r0
 2781              	.LVL364:
 296:..\..\..\liblc3\src/bits.h ****         s -= ac->low < range * symbols[s].low ? 1 : -1;
 2782              		.loc 3 296 0
 2783 00c8 8800     		lsls	r0, r1, #2
 2784 00ca 105A     		ldrh	r0, [r2, r0]
 2785 00cc 5843     		muls	r0, r3
 2786 00ce 8542     		cmp	r5, r0
 2787 00d0 01D2     		bcs	.L192
 2788 00d2 0120     		movs	r0, #1
 2789 00d4 01E0     		b	.L175
 2790              	.L192:
 2791 00d6 0120     		movs	r0, #1
 2792 00d8 4042     		rsbs	r0, r0, #0
 2793              	.L175:
 2794 00da 081A     		subs	r0, r1, r0
 2795              	.LVL365:
 297:..\..\..\liblc3\src/bits.h ****         s -= ac->low < range * symbols[s].low;
 2796              		.loc 3 297 0
 2797 00dc 8100     		lsls	r1, r0, #2
 2798 00de 515A     		ldrh	r1, [r2, r1]
 2799 00e0 5943     		muls	r1, r3
 2800 00e2 8D42     		cmp	r5, r1
 2801 00e4 8941     		sbcs	r1, r1, r1
 2802 00e6 4942     		rsbs	r1, r1, #0
 2803 00e8 411A     		subs	r1, r0, r1
 2804              	.LVL366:
 2805 00ea 00E0     		b	.L172
 2806              	.LVL367:
 2807              	.L189:
 290:..\..\..\liblc3\src/bits.h **** 
 2808              		.loc 3 290 0
 2809 00ec 1021     		movs	r1, #16
 2810              	.LVL368:
 2811              	.L172:
 298:..\..\..\liblc3\src/bits.h ****     }
 299:..\..\..\liblc3\src/bits.h **** 
 300:..\..\..\liblc3\src/bits.h ****     ac->low -= range * symbols[s].low;
 2812              		.loc 3 300 0
 2813 00ee 8946     		mov	r9, r1
 2814 00f0 8900     		lsls	r1, r1, #2
 2815              	.LVL369:
 2816 00f2 5218     		adds	r2, r2, r1
 2817              	.LVL370:
 2818 00f4 1188     		ldrh	r1, [r2]
 2819 00f6 5943     		muls	r1, r3
 2820 00f8 691A     		subs	r1, r5, r1
 2821 00fa 6160     		str	r1, [r4, #4]
ARM GAS  C:\Users\rdn\AppData\Local\Temp\ccet7BYP.s 			page 67


 301:..\..\..\liblc3\src/bits.h ****     ac->range = range * symbols[s].range;
 2822              		.loc 3 301 0
 2823 00fc 5288     		ldrh	r2, [r2, #2]
 2824 00fe 5343     		muls	r3, r2
 2825              	.LVL371:
 2826 0100 A360     		str	r3, [r4, #8]
 2827              	.LVL372:
 302:..\..\..\liblc3\src/bits.h **** 
 303:..\..\..\liblc3\src/bits.h ****     if (ac->range < 0x10000)
 2828              		.loc 3 303 0
 2829 0102 484A     		ldr	r2, .L199+4
 2830 0104 9342     		cmp	r3, r2
 2831 0106 02D8     		bhi	.L176
 304:..\..\..\liblc3\src/bits.h ****         lc3_ac_read_renorm(bits);
 2832              		.loc 3 304 0
 2833 0108 2000     		movs	r0, r4
 2834 010a FFF7FEFF 		bl	lc3_ac_read_renorm
 2835              	.LVL373:
 2836              	.L176:
 2837              	.LBE125:
 2838              	.LBE124:
 499:..\..\..\liblc3\src/tns.c ****             lc3_tns_order_models + data->lpc_weighting);
 2839              		.loc 1 499 0
 2840 010e B31C     		adds	r3, r6, #2
 2841 0110 9B00     		lsls	r3, r3, #2
 2842 0112 5246     		mov	r2, r10
 2843 0114 9A58     		ldr	r2, [r3, r2]
 2844 0116 4A44     		add	r2, r2, r9
 2845 0118 1500     		movs	r5, r2
 2846 011a 5246     		mov	r2, r10
 2847 011c 9D50     		str	r5, [r3, r2]
 501:..\..\..\liblc3\src/tns.c ****         if (dt <= LC3_DT_5M && data->rc_order[f] > 4)
 2848              		.loc 1 501 0
 2849 011e 4346     		mov	r3, r8
 2850 0120 012B     		cmp	r3, #1
 2851 0122 66D8     		bhi	.L193
 2852              		.loc 1 501 0 is_stmt 0 discriminator 1
 2853 0124 042D     		cmp	r5, #4
 2854 0126 73DC     		bgt	.L194
 2855 0128 0025     		movs	r5, #0
 2856 012a 63E0     		b	.L177
 2857              	.LVL374:
 2858              	.L185:
 2859              	.LBB126:
 502:..\..\..\liblc3\src/tns.c ****             return -1;
 503:..\..\..\liblc3\src/tns.c **** 
 504:..\..\..\liblc3\src/tns.c ****         for (int i = 0; i < data->rc_order[f]; i++)
 505:..\..\..\liblc3\src/tns.c ****             data->rc[f][i] = (int)lc3_get_symbol(bits,
 506:..\..\..\liblc3\src/tns.c ****                 lc3_tns_coeffs_models + i) - 8;
 2860              		.loc 1 506 0 is_stmt 1 discriminator 3
 2861 012c 2B01     		lsls	r3, r5, #4
 2862 012e 5B19     		adds	r3, r3, r5
 2863 0130 9A00     		lsls	r2, r3, #2
 505:..\..\..\liblc3\src/tns.c ****                 lc3_tns_coeffs_models + i) - 8;
 2864              		.loc 1 505 0 discriminator 3
 2865 0132 3D48     		ldr	r0, .L199+8
 2866 0134 1018     		adds	r0, r2, r0
ARM GAS  C:\Users\rdn\AppData\Local\Temp\ccet7BYP.s 			page 68


 2867              	.LVL375:
 2868              	.LBB127:
 2869              	.LBB128:
 284:..\..\..\liblc3\src/bits.h **** 
 2870              		.loc 3 284 0 discriminator 3
 2871 0136 A368     		ldr	r3, [r4, #8]
 2872 0138 9B0A     		lsrs	r3, r3, #10
 2873 013a 1B04     		lsls	r3, r3, #16
 2874 013c 1B0C     		lsrs	r3, r3, #16
 2875              	.LVL376:
 286:..\..\..\liblc3\src/bits.h ****     if (ac->error)
 2876              		.loc 3 286 0 discriminator 3
 2877 013e 227E     		ldrb	r2, [r4, #24]
 2878 0140 9146     		mov	r9, r2
 2879 0142 9902     		lsls	r1, r3, #10
 2880 0144 8C46     		mov	ip, r1
 2881 0146 0021     		movs	r1, #0
 2882 0148 6268     		ldr	r2, [r4, #4]
 2883 014a 6746     		mov	r7, ip
 2884 014c BA42     		cmp	r2, r7
 2885 014e 4941     		adcs	r1, r1, r1
 2886 0150 C9B2     		uxtb	r1, r1
 2887 0152 4A46     		mov	r2, r9
 2888 0154 0A43     		orrs	r2, r1
 2889 0156 2276     		strb	r2, [r4, #24]
 287:..\..\..\liblc3\src/bits.h ****         ac->low = 0;
 2890              		.loc 3 287 0 discriminator 3
 2891 0158 01D0     		beq	.L179
 288:..\..\..\liblc3\src/bits.h **** 
 2892              		.loc 3 288 0
 2893 015a 0022     		movs	r2, #0
 2894 015c 6260     		str	r2, [r4, #4]
 2895              	.L179:
 2896              	.LVL377:
 292:..\..\..\liblc3\src/bits.h ****         s >>= 1;
 2897              		.loc 3 292 0
 2898 015e 6268     		ldr	r2, [r4, #4]
 2899 0160 9446     		mov	ip, r2
 2900 0162 0200     		movs	r2, r0
 2901 0164 4032     		adds	r2, r2, #64
 2902 0166 1288     		ldrh	r2, [r2]
 2903 0168 5A43     		muls	r2, r3
 2904 016a 9445     		cmp	ip, r2
 2905 016c 25D2     		bcs	.L195
 2906              	.LVL378:
 294:..\..\..\liblc3\src/bits.h ****         s -= ac->low < range * symbols[s].low ? 2 : -2;
 2907              		.loc 3 294 0
 2908 016e 028C     		ldrh	r2, [r0, #32]
 2909 0170 5A43     		muls	r2, r3
 2910 0172 9445     		cmp	ip, r2
 2911 0174 01D2     		bcs	.L196
 2912 0176 0421     		movs	r1, #4
 2913 0178 01E0     		b	.L181
 2914              	.L196:
 2915 017a 0421     		movs	r1, #4
 2916 017c 4942     		rsbs	r1, r1, #0
 2917              	.L181:
ARM GAS  C:\Users\rdn\AppData\Local\Temp\ccet7BYP.s 			page 69


 2918 017e 0822     		movs	r2, #8
 2919 0180 521A     		subs	r2, r2, r1
 2920              	.LVL379:
 295:..\..\..\liblc3\src/bits.h ****         s -= ac->low < range * symbols[s].low ? 1 : -1;
 2921              		.loc 3 295 0
 2922 0182 9100     		lsls	r1, r2, #2
 2923 0184 415A     		ldrh	r1, [r0, r1]
 2924 0186 5943     		muls	r1, r3
 2925 0188 8C45     		cmp	ip, r1
 2926 018a 01D2     		bcs	.L197
 2927 018c 0221     		movs	r1, #2
 2928 018e 01E0     		b	.L182
 2929              	.L197:
 2930 0190 0221     		movs	r1, #2
 2931 0192 4942     		rsbs	r1, r1, #0
 2932              	.L182:
 2933 0194 511A     		subs	r1, r2, r1
 2934              	.LVL380:
 296:..\..\..\liblc3\src/bits.h ****         s -= ac->low < range * symbols[s].low;
 2935              		.loc 3 296 0
 2936 0196 8A00     		lsls	r2, r1, #2
 2937 0198 825A     		ldrh	r2, [r0, r2]
 2938 019a 5A43     		muls	r2, r3
 2939 019c 9445     		cmp	ip, r2
 2940 019e 01D2     		bcs	.L198
 2941 01a0 0122     		movs	r2, #1
 2942 01a2 01E0     		b	.L183
 2943              	.L198:
 2944 01a4 0122     		movs	r2, #1
 2945 01a6 5242     		rsbs	r2, r2, #0
 2946              	.L183:
 2947 01a8 8A1A     		subs	r2, r1, r2
 2948              	.LVL381:
 297:..\..\..\liblc3\src/bits.h ****     }
 2949              		.loc 3 297 0
 2950 01aa 9100     		lsls	r1, r2, #2
 2951 01ac 415A     		ldrh	r1, [r0, r1]
 2952 01ae 5943     		muls	r1, r3
 2953 01b0 8C45     		cmp	ip, r1
 2954 01b2 8941     		sbcs	r1, r1, r1
 2955 01b4 4942     		rsbs	r1, r1, #0
 2956 01b6 511A     		subs	r1, r2, r1
 2957              	.LVL382:
 2958 01b8 00E0     		b	.L180
 2959              	.LVL383:
 2960              	.L195:
 290:..\..\..\liblc3\src/bits.h **** 
 2961              		.loc 3 290 0
 2962 01ba 1021     		movs	r1, #16
 2963              	.LVL384:
 2964              	.L180:
 300:..\..\..\liblc3\src/bits.h ****     ac->range = range * symbols[s].range;
 2965              		.loc 3 300 0
 2966 01bc 8946     		mov	r9, r1
 2967 01be 8A00     		lsls	r2, r1, #2
 2968 01c0 8218     		adds	r2, r0, r2
 2969 01c2 1188     		ldrh	r1, [r2]
ARM GAS  C:\Users\rdn\AppData\Local\Temp\ccet7BYP.s 			page 70


 2970              	.LVL385:
 2971 01c4 5943     		muls	r1, r3
 2972 01c6 6046     		mov	r0, ip
 2973              	.LVL386:
 2974 01c8 411A     		subs	r1, r0, r1
 2975 01ca 6160     		str	r1, [r4, #4]
 301:..\..\..\liblc3\src/bits.h **** 
 2976              		.loc 3 301 0
 2977 01cc 5288     		ldrh	r2, [r2, #2]
 2978 01ce 5343     		muls	r3, r2
 2979              	.LVL387:
 2980 01d0 A360     		str	r3, [r4, #8]
 2981              	.LVL388:
 303:..\..\..\liblc3\src/bits.h ****         lc3_ac_read_renorm(bits);
 2982              		.loc 3 303 0
 2983 01d2 144A     		ldr	r2, .L199+4
 2984 01d4 9342     		cmp	r3, r2
 2985 01d6 02D8     		bhi	.L184
 2986              		.loc 3 304 0
 2987 01d8 2000     		movs	r0, r4
 2988 01da FFF7FEFF 		bl	lc3_ac_read_renorm
 2989              	.LVL389:
 2990              	.L184:
 2991              	.LBE128:
 2992              	.LBE127:
 2993              		.loc 1 506 0
 2994 01de 4A46     		mov	r2, r9
 2995 01e0 083A     		subs	r2, r2, #8
 505:..\..\..\liblc3\src/tns.c ****                 lc3_tns_coeffs_models + i) - 8;
 2996              		.loc 1 505 0
 2997 01e2 F300     		lsls	r3, r6, #3
 2998 01e4 5B19     		adds	r3, r3, r5
 2999 01e6 0433     		adds	r3, r3, #4
 3000 01e8 9B00     		lsls	r3, r3, #2
 3001 01ea 5146     		mov	r1, r10
 3002 01ec 5A50     		str	r2, [r3, r1]
 504:..\..\..\liblc3\src/tns.c ****             data->rc[f][i] = (int)lc3_get_symbol(bits,
 3003              		.loc 1 504 0
 3004 01ee 0135     		adds	r5, r5, #1
 3005              	.LVL390:
 3006 01f0 00E0     		b	.L177
 3007              	.LVL391:
 3008              	.L193:
 3009              	.LBE126:
 3010 01f2 0025     		movs	r5, #0
 3011              	.LVL392:
 3012              	.L177:
 3013              	.LBB129:
 504:..\..\..\liblc3\src/tns.c ****             data->rc[f][i] = (int)lc3_get_symbol(bits,
 3014              		.loc 1 504 0 is_stmt 0 discriminator 1
 3015 01f4 B31C     		adds	r3, r6, #2
 3016 01f6 9B00     		lsls	r3, r3, #2
 3017 01f8 5246     		mov	r2, r10
 3018 01fa 9B58     		ldr	r3, [r3, r2]
 3019 01fc 9D42     		cmp	r5, r3
 3020 01fe 95DB     		blt	.L185
 3021              	.LVL393:
ARM GAS  C:\Users\rdn\AppData\Local\Temp\ccet7BYP.s 			page 71


 3022              	.L170:
 3023              	.LBE129:
 493:..\..\..\liblc3\src/tns.c **** 
 3024              		.loc 1 493 0 is_stmt 1 discriminator 2
 3025 0200 0136     		adds	r6, r6, #1
 3026              	.LVL394:
 3027              	.L167:
 493:..\..\..\liblc3\src/tns.c **** 
 3028              		.loc 1 493 0 is_stmt 0 discriminator 1
 3029 0202 5346     		mov	r3, r10
 3030 0204 1B68     		ldr	r3, [r3]
 3031 0206 9E42     		cmp	r6, r3
 3032 0208 00DA     		bge	.LCB3414
 3033 020a 17E7     		b	.L186	@long jump
 3034              	.LCB3414:
 3035              	.LBE118:
 507:..\..\..\liblc3\src/tns.c ****     }
 508:..\..\..\liblc3\src/tns.c **** 
 509:..\..\..\liblc3\src/tns.c ****     return 0;
 3036              		.loc 1 509 0 is_stmt 1
 3037 020c 0020     		movs	r0, #0
 3038              	.LBB130:
 3039 020e 01E0     		b	.L178
 3040              	.LVL395:
 3041              	.L194:
 502:..\..\..\liblc3\src/tns.c **** 
 3042              		.loc 1 502 0
 3043 0210 0120     		movs	r0, #1
 3044 0212 4042     		rsbs	r0, r0, #0
 3045              	.LVL396:
 3046              	.L178:
 3047              	.LBE130:
 510:..\..\..\liblc3\src/tns.c **** }
 3048              		.loc 1 510 0
 3049              		@ sp needed
 3050              	.LVL397:
 3051              	.LVL398:
 3052 0214 1CBC     		pop	{r2, r3, r4}
 3053 0216 9046     		mov	r8, r2
 3054 0218 9946     		mov	r9, r3
 3055 021a A246     		mov	r10, r4
 3056 021c F0BD     		pop	{r4, r5, r6, r7, pc}
 3057              	.L200:
 3058 021e C046     		.align	2
 3059              	.L199:
 3060 0220 00000000 		.word	lc3_tns_order_models
 3061 0224 FFFF0000 		.word	65535
 3062 0228 00000000 		.word	lc3_tns_coeffs_models
 3063              		.cfi_endproc
 3064              	.LFE33:
 3065              		.size	lc3_tns_get_data, .-lc3_tns_get_data
 3066              		.section	.rodata
 3067              		.align	2
 3068              		.set	.LANCHOR0,. + 0
 3069              		.set	.LANCHOR1,. + 128
 3070              		.set	.LANCHOR2,. + 256
 3071              		.set	.LANCHOR3,. + 384
ARM GAS  C:\Users\rdn\AppData\Local\Temp\ccet7BYP.s 			page 72


 3072              		.type	sub_2m5_nb.5541, %object
 3073              		.size	sub_2m5_nb.5541, 12
 3074              	sub_2m5_nb.5541:
 3075 0000 03000000 		.word	3
 3076 0004 0A000000 		.word	10
 3077 0008 14000000 		.word	20
 3078              		.type	sub_2m5_wb.5542, %object
 3079              		.size	sub_2m5_wb.5542, 12
 3080              	sub_2m5_wb.5542:
 3081 000c 03000000 		.word	3
 3082 0010 14000000 		.word	20
 3083 0014 28000000 		.word	40
 3084              		.type	sub_2m5_sswb.5543, %object
 3085              		.size	sub_2m5_sswb.5543, 12
 3086              	sub_2m5_sswb.5543:
 3087 0018 03000000 		.word	3
 3088 001c 1E000000 		.word	30
 3089 0020 3C000000 		.word	60
 3090              		.type	sub_2m5_swb.5544, %object
 3091              		.size	sub_2m5_swb.5544, 12
 3092              	sub_2m5_swb.5544:
 3093 0024 03000000 		.word	3
 3094 0028 28000000 		.word	40
 3095 002c 50000000 		.word	80
 3096              		.type	sub_2m5_fb.5545, %object
 3097              		.size	sub_2m5_fb.5545, 12
 3098              	sub_2m5_fb.5545:
 3099 0030 03000000 		.word	3
 3100 0034 33000000 		.word	51
 3101 0038 64000000 		.word	100
 3102              		.type	sub_5m_nb.5546, %object
 3103              		.size	sub_5m_nb.5546, 12
 3104              	sub_5m_nb.5546:
 3105 003c 06000000 		.word	6
 3106 0040 17000000 		.word	23
 3107 0044 28000000 		.word	40
 3108              		.type	sub_5m_wb.5547, %object
 3109              		.size	sub_5m_wb.5547, 12
 3110              	sub_5m_wb.5547:
 3111 0048 06000000 		.word	6
 3112 004c 2B000000 		.word	43
 3113 0050 50000000 		.word	80
 3114              		.type	sub_5m_sswb.5548, %object
 3115              		.size	sub_5m_sswb.5548, 12
 3116              	sub_5m_sswb.5548:
 3117 0054 06000000 		.word	6
 3118 0058 3F000000 		.word	63
 3119 005c 78000000 		.word	120
 3120              		.type	sub_5m_swb.5549, %object
 3121              		.size	sub_5m_swb.5549, 20
 3122              	sub_5m_swb.5549:
 3123 0060 06000000 		.word	6
 3124 0064 2B000000 		.word	43
 3125 0068 50000000 		.word	80
 3126 006c 78000000 		.word	120
 3127 0070 A0000000 		.word	160
 3128              		.type	sub_5m_fb.5550, %object
ARM GAS  C:\Users\rdn\AppData\Local\Temp\ccet7BYP.s 			page 73


 3129              		.size	sub_5m_fb.5550, 20
 3130              	sub_5m_fb.5550:
 3131 0074 06000000 		.word	6
 3132 0078 35000000 		.word	53
 3133 007c 64000000 		.word	100
 3134 0080 96000000 		.word	150
 3135 0084 C8000000 		.word	200
 3136              		.type	sub_7m5_nb.5551, %object
 3137              		.size	sub_7m5_nb.5551, 16
 3138              	sub_7m5_nb.5551:
 3139 0088 09000000 		.word	9
 3140 008c 1A000000 		.word	26
 3141 0090 2B000000 		.word	43
 3142 0094 3C000000 		.word	60
 3143              		.type	sub_7m5_wb.5552, %object
 3144              		.size	sub_7m5_wb.5552, 16
 3145              	sub_7m5_wb.5552:
 3146 0098 09000000 		.word	9
 3147 009c 2E000000 		.word	46
 3148 00a0 53000000 		.word	83
 3149 00a4 78000000 		.word	120
 3150              		.type	sub_7m5_sswb.5553, %object
 3151              		.size	sub_7m5_sswb.5553, 16
 3152              	sub_7m5_sswb.5553:
 3153 00a8 09000000 		.word	9
 3154 00ac 42000000 		.word	66
 3155 00b0 7B000000 		.word	123
 3156 00b4 B4000000 		.word	180
 3157              		.type	sub_7m5_swb.5554, %object
 3158              		.size	sub_7m5_swb.5554, 28
 3159              	sub_7m5_swb.5554:
 3160 00b8 09000000 		.word	9
 3161 00bc 2E000000 		.word	46
 3162 00c0 52000000 		.word	82
 3163 00c4 78000000 		.word	120
 3164 00c8 9F000000 		.word	159
 3165 00cc C8000000 		.word	200
 3166 00d0 F0000000 		.word	240
 3167              		.type	sub_7m5_fb.5555, %object
 3168              		.size	sub_7m5_fb.5555, 28
 3169              	sub_7m5_fb.5555:
 3170 00d4 09000000 		.word	9
 3171 00d8 38000000 		.word	56
 3172 00dc 67000000 		.word	103
 3173 00e0 96000000 		.word	150
 3174 00e4 C8000000 		.word	200
 3175 00e8 FA000000 		.word	250
 3176 00ec 2C010000 		.word	300
 3177              		.type	sub_10m_nb.5556, %object
 3178              		.size	sub_10m_nb.5556, 16
 3179              	sub_10m_nb.5556:
 3180 00f0 0C000000 		.word	12
 3181 00f4 22000000 		.word	34
 3182 00f8 39000000 		.word	57
 3183 00fc 50000000 		.word	80
 3184              		.type	sub_10m_wb.5557, %object
 3185              		.size	sub_10m_wb.5557, 16
ARM GAS  C:\Users\rdn\AppData\Local\Temp\ccet7BYP.s 			page 74


 3186              	sub_10m_wb.5557:
 3187 0100 0C000000 		.word	12
 3188 0104 3D000000 		.word	61
 3189 0108 6E000000 		.word	110
 3190 010c A0000000 		.word	160
 3191              		.type	sub_10m_sswb.5558, %object
 3192              		.size	sub_10m_sswb.5558, 16
 3193              	sub_10m_sswb.5558:
 3194 0110 0C000000 		.word	12
 3195 0114 58000000 		.word	88
 3196 0118 A4000000 		.word	164
 3197 011c F0000000 		.word	240
 3198              		.type	sub_10m_swb.5559, %object
 3199              		.size	sub_10m_swb.5559, 28
 3200              	sub_10m_swb.5559:
 3201 0120 0C000000 		.word	12
 3202 0124 3D000000 		.word	61
 3203 0128 6E000000 		.word	110
 3204 012c A0000000 		.word	160
 3205 0130 D5000000 		.word	213
 3206 0134 0A010000 		.word	266
 3207 0138 40010000 		.word	320
 3208              		.type	sub_10m_fb.5560, %object
 3209              		.size	sub_10m_fb.5560, 28
 3210              	sub_10m_fb.5560:
 3211 013c 0C000000 		.word	12
 3212 0140 4A000000 		.word	74
 3213 0144 89000000 		.word	137
 3214 0148 C8000000 		.word	200
 3215 014c 0A010000 		.word	266
 3216 0150 4D010000 		.word	333
 3217 0154 90010000 		.word	400
 3218              		.type	lag_window.5561, %object
 3219              		.size	lag_window.5561, 36
 3220              	lag_window.5561:
 3221 0158 0000803F 		.word	1065353216
 3222 015c C47E7F3F 		.word	1065320132
 3223 0160 96FC7D3F 		.word	1065221270
 3224 0164 047E7B3F 		.word	1065057796
 3225 0168 8A0A783F 		.word	1064831626
 3226 016c 6EAC733F 		.word	1064545390
 3227 0170 8E706E3F 		.word	1064202382
 3228 0174 1F66683F 		.word	1063806495
 3229 0178 659E613F 		.word	1063362149
 3230              		.type	q_thr.5660, %object
 3231              		.size	q_thr.5660, 32
 3232              	q_thr.5660:
 3233 017c 00F0BC3D 		.word	1035792384
 3234 0180 001C8C3E 		.word	1049369600
 3235 0184 0038E43E 		.word	1055143936
 3236 0188 00461A3F 		.word	1058686464
 3237 018c 00303D3F 		.word	1060974592
 3238 0190 00A8593F 		.word	1062840320
 3239 0194 00B66E3F 		.word	1064220160
 3240 0198 00A47B3F 		.word	1065067520
 3241              		.type	q_inv.5675, %object
 3242              		.size	q_inv.5675, 36
ARM GAS  C:\Users\rdn\AppData\Local\Temp\ccet7BYP.s 			page 75


 3243              	q_inv.5675:
 3244 019c 00000000 		.word	0
 3245 01a0 00283C3E 		.word	1044129792
 3246 01a4 00F4B83E 		.word	1052308480
 3247 01a8 00C4063F 		.word	1057408000
 3248 01ac 00782C3F 		.word	1059878912
 3249 01b0 004A4C3F 		.word	1061964288
 3250 01b4 002A653F 		.word	1063594496
 3251 01b8 003A763F 		.word	1064712704
 3252 01bc 00E87E3F 		.word	1065281536
 3253              		.text
 3254              	.Letext0:
 3255              		.file 4 "c:\\program files (x86)\\cypress\\psoc creator\\4.4\\psoc creator\\import\\gnu\\arm\\5.4.
 3256              		.file 5 "c:\\program files (x86)\\cypress\\psoc creator\\4.4\\psoc creator\\import\\gnu\\arm\\5.4.
 3257              		.file 6 ".\\liblc3\\include/lc3_private.h"
 3258              		.file 7 "..\\..\\..\\liblc3\\src\\common.h"
 3259              		.file 8 "..\\..\\..\\liblc3\\src\\tns.h"
 3260              		.section	.debug_info,"",%progbits
 3261              	.Ldebug_info0:
 3262 0000 61180000 		.4byte	0x1861
 3263 0004 0400     		.2byte	0x4
 3264 0006 00000000 		.4byte	.Ldebug_abbrev0
 3265 000a 04       		.byte	0x4
 3266 000b 01       		.uleb128 0x1
 3267 000c 9F010000 		.4byte	.LASF138
 3268 0010 0C       		.byte	0xc
 3269 0011 4C060000 		.4byte	.LASF139
 3270 0015 49030000 		.4byte	.LASF140
 3271 0019 C0000000 		.4byte	.Ldebug_ranges0+0xc0
 3272 001d 00000000 		.4byte	0
 3273 0021 00000000 		.4byte	.Ldebug_line0
 3274 0025 02       		.uleb128 0x2
 3275 0026 04       		.byte	0x4
 3276 0027 04       		.byte	0x4
 3277 0028 99010000 		.4byte	.LASF0
 3278 002c 02       		.uleb128 0x2
 3279 002d 01       		.byte	0x1
 3280 002e 06       		.byte	0x6
 3281 002f A2060000 		.4byte	.LASF1
 3282 0033 03       		.uleb128 0x3
 3283 0034 C0050000 		.4byte	.LASF4
 3284 0038 04       		.byte	0x4
 3285 0039 1D       		.byte	0x1d
 3286 003a 3E000000 		.4byte	0x3e
 3287 003e 02       		.uleb128 0x2
 3288 003f 01       		.byte	0x1
 3289 0040 08       		.byte	0x8
 3290 0041 34060000 		.4byte	.LASF2
 3291 0045 02       		.uleb128 0x2
 3292 0046 02       		.byte	0x2
 3293 0047 05       		.byte	0x5
 3294 0048 47050000 		.4byte	.LASF3
 3295 004c 03       		.uleb128 0x3
 3296 004d 5E020000 		.4byte	.LASF5
 3297 0051 04       		.byte	0x4
 3298 0052 2B       		.byte	0x2b
 3299 0053 57000000 		.4byte	0x57
ARM GAS  C:\Users\rdn\AppData\Local\Temp\ccet7BYP.s 			page 76


 3300 0057 02       		.uleb128 0x2
 3301 0058 02       		.byte	0x2
 3302 0059 07       		.byte	0x7
 3303 005a BD060000 		.4byte	.LASF6
 3304 005e 02       		.uleb128 0x2
 3305 005f 04       		.byte	0x4
 3306 0060 05       		.byte	0x5
 3307 0061 5C050000 		.4byte	.LASF7
 3308 0065 02       		.uleb128 0x2
 3309 0066 04       		.byte	0x4
 3310 0067 07       		.byte	0x7
 3311 0068 18060000 		.4byte	.LASF8
 3312 006c 02       		.uleb128 0x2
 3313 006d 08       		.byte	0x8
 3314 006e 05       		.byte	0x5
 3315 006f D5030000 		.4byte	.LASF9
 3316 0073 02       		.uleb128 0x2
 3317 0074 08       		.byte	0x8
 3318 0075 07       		.byte	0x7
 3319 0076 37020000 		.4byte	.LASF10
 3320 007a 04       		.uleb128 0x4
 3321 007b 04       		.byte	0x4
 3322 007c 05       		.byte	0x5
 3323 007d 696E7400 		.ascii	"int\000"
 3324 0081 02       		.uleb128 0x2
 3325 0082 04       		.byte	0x4
 3326 0083 07       		.byte	0x7
 3327 0084 96000000 		.4byte	.LASF11
 3328 0088 03       		.uleb128 0x3
 3329 0089 A3030000 		.4byte	.LASF12
 3330 008d 05       		.byte	0x5
 3331 008e 18       		.byte	0x18
 3332 008f 33000000 		.4byte	0x33
 3333 0093 03       		.uleb128 0x3
 3334 0094 07050000 		.4byte	.LASF13
 3335 0098 05       		.byte	0x5
 3336 0099 24       		.byte	0x24
 3337 009a 4C000000 		.4byte	0x4c
 3338 009e 05       		.uleb128 0x5
 3339 009f 13010000 		.4byte	.LASF19
 3340 00a3 01       		.byte	0x1
 3341 00a4 3E000000 		.4byte	0x3e
 3342 00a8 06       		.byte	0x6
 3343 00a9 3B       		.byte	0x3b
 3344 00aa CD000000 		.4byte	0xcd
 3345 00ae 06       		.uleb128 0x6
 3346 00af 51050000 		.4byte	.LASF14
 3347 00b3 00       		.byte	0
 3348 00b4 06       		.uleb128 0x6
 3349 00b5 79010000 		.4byte	.LASF15
 3350 00b9 01       		.byte	0x1
 3351 00ba 06       		.uleb128 0x6
 3352 00bb 26050000 		.4byte	.LASF16
 3353 00bf 02       		.byte	0x2
 3354 00c0 06       		.uleb128 0x6
 3355 00c1 0E030000 		.4byte	.LASF17
 3356 00c5 03       		.byte	0x3
ARM GAS  C:\Users\rdn\AppData\Local\Temp\ccet7BYP.s 			page 77


 3357 00c6 06       		.uleb128 0x6
 3358 00c7 80020000 		.4byte	.LASF18
 3359 00cb 04       		.byte	0x4
 3360 00cc 00       		.byte	0
 3361 00cd 05       		.uleb128 0x5
 3362 00ce 2A060000 		.4byte	.LASF20
 3363 00d2 01       		.byte	0x1
 3364 00d3 3E000000 		.4byte	0x3e
 3365 00d7 06       		.byte	0x6
 3366 00d8 49       		.byte	0x49
 3367 00d9 0E010000 		.4byte	0x10e
 3368 00dd 06       		.uleb128 0x6
 3369 00de 95060000 		.4byte	.LASF21
 3370 00e2 00       		.byte	0
 3371 00e3 06       		.uleb128 0x6
 3372 00e4 D0050000 		.4byte	.LASF22
 3373 00e8 01       		.byte	0x1
 3374 00e9 06       		.uleb128 0x6
 3375 00ea 16000000 		.4byte	.LASF23
 3376 00ee 02       		.byte	0x2
 3377 00ef 06       		.uleb128 0x6
 3378 00f0 72020000 		.4byte	.LASF24
 3379 00f4 03       		.byte	0x3
 3380 00f5 06       		.uleb128 0x6
 3381 00f6 A3000000 		.4byte	.LASF25
 3382 00fa 04       		.byte	0x4
 3383 00fb 06       		.uleb128 0x6
 3384 00fc 1A010000 		.4byte	.LASF26
 3385 0100 05       		.byte	0x5
 3386 0101 06       		.uleb128 0x6
 3387 0102 25070000 		.4byte	.LASF27
 3388 0106 06       		.byte	0x6
 3389 0107 06       		.uleb128 0x6
 3390 0108 10050000 		.4byte	.LASF28
 3391 010c 07       		.byte	0x7
 3392 010d 00       		.byte	0
 3393 010e 02       		.uleb128 0x2
 3394 010f 01       		.byte	0x1
 3395 0110 02       		.byte	0x2
 3396 0111 C0020000 		.4byte	.LASF29
 3397 0115 07       		.uleb128 0x7
 3398 0116 25000000 		.4byte	0x25
 3399 011a 25010000 		.4byte	0x125
 3400 011e 08       		.uleb128 0x8
 3401 011f 25010000 		.4byte	0x125
 3402 0123 01       		.byte	0x1
 3403 0124 00       		.byte	0
 3404 0125 02       		.uleb128 0x2
 3405 0126 04       		.byte	0x4
 3406 0127 07       		.byte	0x7
 3407 0128 08060000 		.4byte	.LASF30
 3408 012c 02       		.uleb128 0x2
 3409 012d 08       		.byte	0x8
 3410 012e 04       		.byte	0x4
 3411 012f FB040000 		.4byte	.LASF31
 3412 0133 02       		.uleb128 0x2
 3413 0134 01       		.byte	0x1
ARM GAS  C:\Users\rdn\AppData\Local\Temp\ccet7BYP.s 			page 78


 3414 0135 08       		.byte	0x8
 3415 0136 1E030000 		.4byte	.LASF32
 3416 013a 02       		.uleb128 0x2
 3417 013b 08       		.byte	0x8
 3418 013c 04       		.byte	0x4
 3419 013d 1E070000 		.4byte	.LASF33
 3420 0141 05       		.uleb128 0x5
 3421 0142 66060000 		.4byte	.LASF34
 3422 0146 01       		.byte	0x1
 3423 0147 3E000000 		.4byte	0x3e
 3424 014b 07       		.byte	0x7
 3425 014c 76       		.byte	0x76
 3426 014d 82010000 		.4byte	0x182
 3427 0151 06       		.uleb128 0x6
 3428 0152 87030000 		.4byte	.LASF35
 3429 0156 00       		.byte	0
 3430 0157 06       		.uleb128 0x6
 3431 0158 44000000 		.4byte	.LASF36
 3432 015c 01       		.byte	0x1
 3433 015d 06       		.uleb128 0x6
 3434 015e F5050000 		.4byte	.LASF37
 3435 0162 02       		.byte	0x2
 3436 0163 06       		.uleb128 0x6
 3437 0164 32040000 		.4byte	.LASF38
 3438 0168 03       		.byte	0x3
 3439 0169 06       		.uleb128 0x6
 3440 016a E1060000 		.4byte	.LASF39
 3441 016e 04       		.byte	0x4
 3442 016f 06       		.uleb128 0x6
 3443 0170 30000000 		.4byte	.LASF40
 3444 0174 05       		.byte	0x5
 3445 0175 06       		.uleb128 0x6
 3446 0176 C6040000 		.4byte	.LASF41
 3447 017a 06       		.byte	0x6
 3448 017b 06       		.uleb128 0x6
 3449 017c FD060000 		.4byte	.LASF42
 3450 0180 07       		.byte	0x7
 3451 0181 00       		.byte	0
 3452 0182 05       		.uleb128 0x5
 3453 0183 49010000 		.4byte	.LASF43
 3454 0187 01       		.byte	0x1
 3455 0188 3E000000 		.4byte	0x3e
 3456 018c 03       		.byte	0x3
 3457 018d 45       		.byte	0x45
 3458 018e 9F010000 		.4byte	0x19f
 3459 0192 06       		.uleb128 0x6
 3460 0193 82060000 		.4byte	.LASF44
 3461 0197 00       		.byte	0
 3462 0198 06       		.uleb128 0x6
 3463 0199 8D050000 		.4byte	.LASF45
 3464 019d 01       		.byte	0x1
 3465 019e 00       		.byte	0
 3466 019f 09       		.uleb128 0x9
 3467 01a0 F4030000 		.4byte	.LASF47
 3468 01a4 04       		.byte	0x4
 3469 01a5 03       		.byte	0x3
 3470 01a6 4F       		.byte	0x4f
ARM GAS  C:\Users\rdn\AppData\Local\Temp\ccet7BYP.s 			page 79


 3471 01a7 CA010000 		.4byte	0x1ca
 3472 01ab 0A       		.uleb128 0xa
 3473 01ac 6C6F7700 		.ascii	"low\000"
 3474 01b0 03       		.byte	0x3
 3475 01b1 50       		.byte	0x50
 3476 01b2 93000000 		.4byte	0x93
 3477 01b6 02       		.byte	0x2
 3478 01b7 10       		.byte	0x10
 3479 01b8 00       		.byte	0
 3480 01b9 00       		.byte	0
 3481 01ba 0B       		.uleb128 0xb
 3482 01bb 7F040000 		.4byte	.LASF46
 3483 01bf 03       		.byte	0x3
 3484 01c0 51       		.byte	0x51
 3485 01c1 93000000 		.4byte	0x93
 3486 01c5 02       		.byte	0x2
 3487 01c6 10       		.byte	0x10
 3488 01c7 00       		.byte	0
 3489 01c8 02       		.byte	0x2
 3490 01c9 00       		.byte	0
 3491 01ca 09       		.uleb128 0x9
 3492 01cb 6F050000 		.4byte	.LASF48
 3493 01cf 44       		.byte	0x44
 3494 01d0 03       		.byte	0x3
 3495 01d1 54       		.byte	0x54
 3496 01d2 E1010000 		.4byte	0x1e1
 3497 01d6 0C       		.uleb128 0xc
 3498 01d7 7300     		.ascii	"s\000"
 3499 01d9 03       		.byte	0x3
 3500 01da 55       		.byte	0x55
 3501 01db E1010000 		.4byte	0x1e1
 3502 01df 00       		.byte	0
 3503 01e0 00       		.byte	0
 3504 01e1 07       		.uleb128 0x7
 3505 01e2 9F010000 		.4byte	0x19f
 3506 01e6 F1010000 		.4byte	0x1f1
 3507 01ea 08       		.uleb128 0x8
 3508 01eb 25010000 		.4byte	0x125
 3509 01ef 10       		.byte	0x10
 3510 01f0 00       		.byte	0
 3511 01f1 09       		.uleb128 0x9
 3512 01f2 36030000 		.4byte	.LASF49
 3513 01f6 0C       		.byte	0xc
 3514 01f7 03       		.byte	0x3
 3515 01f8 5E       		.byte	0x5e
 3516 01f9 1E020000 		.4byte	0x21e
 3517 01fd 0C       		.uleb128 0xc
 3518 01fe 7600     		.ascii	"v\000"
 3519 0200 03       		.byte	0x3
 3520 0201 5F       		.byte	0x5f
 3521 0202 81000000 		.4byte	0x81
 3522 0206 00       		.byte	0
 3523 0207 0C       		.uleb128 0xc
 3524 0208 6E00     		.ascii	"n\000"
 3525 020a 03       		.byte	0x3
 3526 020b 60       		.byte	0x60
 3527 020c 7A000000 		.4byte	0x7a
ARM GAS  C:\Users\rdn\AppData\Local\Temp\ccet7BYP.s 			page 80


 3528 0210 04       		.byte	0x4
 3529 0211 0D       		.uleb128 0xd
 3530 0212 81030000 		.4byte	.LASF50
 3531 0216 03       		.byte	0x3
 3532 0217 60       		.byte	0x60
 3533 0218 7A000000 		.4byte	0x7a
 3534 021c 08       		.byte	0x8
 3535 021d 00       		.byte	0
 3536 021e 09       		.uleb128 0x9
 3537 021f 42070000 		.4byte	.LASF51
 3538 0223 18       		.byte	0x18
 3539 0224 03       		.byte	0x3
 3540 0225 65       		.byte	0x65
 3541 0226 73020000 		.4byte	0x273
 3542 022a 0C       		.uleb128 0xc
 3543 022b 6C6F7700 		.ascii	"low\000"
 3544 022f 03       		.byte	0x3
 3545 0230 66       		.byte	0x66
 3546 0231 81000000 		.4byte	0x81
 3547 0235 00       		.byte	0
 3548 0236 0D       		.uleb128 0xd
 3549 0237 7F040000 		.4byte	.LASF46
 3550 023b 03       		.byte	0x3
 3551 023c 66       		.byte	0x66
 3552 023d 81000000 		.4byte	0x81
 3553 0241 04       		.byte	0x4
 3554 0242 0D       		.uleb128 0xd
 3555 0243 DA040000 		.4byte	.LASF52
 3556 0247 03       		.byte	0x3
 3557 0248 67       		.byte	0x67
 3558 0249 7A000000 		.4byte	0x7a
 3559 024d 08       		.byte	0x8
 3560 024e 0D       		.uleb128 0xd
 3561 024f 31020000 		.4byte	.LASF53
 3562 0253 03       		.byte	0x3
 3563 0254 67       		.byte	0x67
 3564 0255 7A000000 		.4byte	0x7a
 3565 0259 0C       		.byte	0xc
 3566 025a 0D       		.uleb128 0xd
 3567 025b C7000000 		.4byte	.LASF54
 3568 025f 03       		.byte	0x3
 3569 0260 67       		.byte	0x67
 3570 0261 7A000000 		.4byte	0x7a
 3571 0265 10       		.byte	0x10
 3572 0266 0D       		.uleb128 0xd
 3573 0267 08010000 		.4byte	.LASF55
 3574 026b 03       		.byte	0x3
 3575 026c 68       		.byte	0x68
 3576 026d 0E010000 		.4byte	0x10e
 3577 0271 14       		.byte	0x14
 3578 0272 00       		.byte	0
 3579 0273 09       		.uleb128 0x9
 3580 0274 69000000 		.4byte	.LASF56
 3581 0278 10       		.byte	0x10
 3582 0279 03       		.byte	0x3
 3583 027a 6B       		.byte	0x6b
 3584 027b B0020000 		.4byte	0x2b0
ARM GAS  C:\Users\rdn\AppData\Local\Temp\ccet7BYP.s 			page 81


 3585 027f 0D       		.uleb128 0xd
 3586 0280 CA050000 		.4byte	.LASF57
 3587 0284 03       		.byte	0x3
 3588 0285 6C       		.byte	0x6c
 3589 0286 B0020000 		.4byte	0x2b0
 3590 028a 00       		.byte	0
 3591 028b 0C       		.uleb128 0xc
 3592 028c 656E6400 		.ascii	"end\000"
 3593 0290 03       		.byte	0x3
 3594 0291 6C       		.byte	0x6c
 3595 0292 B0020000 		.4byte	0x2b0
 3596 0296 04       		.byte	0x4
 3597 0297 0D       		.uleb128 0xd
 3598 0298 8E070000 		.4byte	.LASF58
 3599 029c 03       		.byte	0x3
 3600 029d 6D       		.byte	0x6d
 3601 029e BB020000 		.4byte	0x2bb
 3602 02a2 08       		.byte	0x8
 3603 02a3 0D       		.uleb128 0xd
 3604 02a4 C3030000 		.4byte	.LASF59
 3605 02a8 03       		.byte	0x3
 3606 02a9 6D       		.byte	0x6d
 3607 02aa BB020000 		.4byte	0x2bb
 3608 02ae 0C       		.byte	0xc
 3609 02af 00       		.byte	0
 3610 02b0 0E       		.uleb128 0xe
 3611 02b1 04       		.byte	0x4
 3612 02b2 B6020000 		.4byte	0x2b6
 3613 02b6 0F       		.uleb128 0xf
 3614 02b7 88000000 		.4byte	0x88
 3615 02bb 0E       		.uleb128 0xe
 3616 02bc 04       		.byte	0x4
 3617 02bd 88000000 		.4byte	0x88
 3618 02c1 09       		.uleb128 0x9
 3619 02c2 E0040000 		.4byte	.LASF60
 3620 02c6 38       		.byte	0x38
 3621 02c7 03       		.byte	0x3
 3622 02c8 70       		.byte	0x70
 3623 02c9 FD020000 		.4byte	0x2fd
 3624 02cd 0D       		.uleb128 0xd
 3625 02ce 0E010000 		.4byte	.LASF61
 3626 02d2 03       		.byte	0x3
 3627 02d3 71       		.byte	0x71
 3628 02d4 82010000 		.4byte	0x182
 3629 02d8 00       		.byte	0
 3630 02d9 0C       		.uleb128 0xc
 3631 02da 616300   		.ascii	"ac\000"
 3632 02dd 03       		.byte	0x3
 3633 02de 72       		.byte	0x72
 3634 02df 1E020000 		.4byte	0x21e
 3635 02e3 04       		.byte	0x4
 3636 02e4 0D       		.uleb128 0xd
 3637 02e5 19030000 		.4byte	.LASF62
 3638 02e9 03       		.byte	0x3
 3639 02ea 73       		.byte	0x73
 3640 02eb F1010000 		.4byte	0x1f1
 3641 02ef 1C       		.byte	0x1c
ARM GAS  C:\Users\rdn\AppData\Local\Temp\ccet7BYP.s 			page 82


 3642 02f0 0D       		.uleb128 0xd
 3643 02f1 79000000 		.4byte	.LASF63
 3644 02f5 03       		.byte	0x3
 3645 02f6 74       		.byte	0x74
 3646 02f7 73020000 		.4byte	0x273
 3647 02fb 28       		.byte	0x28
 3648 02fc 00       		.byte	0
 3649 02fd 03       		.uleb128 0x3
 3650 02fe DF020000 		.4byte	.LASF64
 3651 0302 03       		.byte	0x3
 3652 0303 75       		.byte	0x75
 3653 0304 C1020000 		.4byte	0x2c1
 3654 0308 09       		.uleb128 0x9
 3655 0309 6C010000 		.4byte	.LASF65
 3656 030d 50       		.byte	0x50
 3657 030e 08       		.byte	0x8
 3658 030f 1E       		.byte	0x1e
 3659 0310 44030000 		.4byte	0x344
 3660 0314 0D       		.uleb128 0xd
 3661 0315 DE050000 		.4byte	.LASF66
 3662 0319 08       		.byte	0x8
 3663 031a 1F       		.byte	0x1f
 3664 031b 7A000000 		.4byte	0x7a
 3665 031f 00       		.byte	0
 3666 0320 0D       		.uleb128 0xd
 3667 0321 E7050000 		.4byte	.LASF67
 3668 0325 08       		.byte	0x8
 3669 0326 20       		.byte	0x20
 3670 0327 0E010000 		.4byte	0x10e
 3671 032b 04       		.byte	0x4
 3672 032c 0D       		.uleb128 0xd
 3673 032d 60000000 		.4byte	.LASF68
 3674 0331 08       		.byte	0x8
 3675 0332 21       		.byte	0x21
 3676 0333 44030000 		.4byte	0x344
 3677 0337 08       		.byte	0x8
 3678 0338 0C       		.uleb128 0xc
 3679 0339 726300   		.ascii	"rc\000"
 3680 033c 08       		.byte	0x8
 3681 033d 22       		.byte	0x22
 3682 033e 54030000 		.4byte	0x354
 3683 0342 10       		.byte	0x10
 3684 0343 00       		.byte	0
 3685 0344 07       		.uleb128 0x7
 3686 0345 7A000000 		.4byte	0x7a
 3687 0349 54030000 		.4byte	0x354
 3688 034d 08       		.uleb128 0x8
 3689 034e 25010000 		.4byte	0x125
 3690 0352 01       		.byte	0x1
 3691 0353 00       		.byte	0
 3692 0354 07       		.uleb128 0x7
 3693 0355 7A000000 		.4byte	0x7a
 3694 0359 6A030000 		.4byte	0x36a
 3695 035d 08       		.uleb128 0x8
 3696 035e 25010000 		.4byte	0x125
 3697 0362 01       		.byte	0x1
 3698 0363 08       		.uleb128 0x8
ARM GAS  C:\Users\rdn\AppData\Local\Temp\ccet7BYP.s 			page 83


 3699 0364 25010000 		.4byte	0x125
 3700 0368 07       		.byte	0x7
 3701 0369 00       		.byte	0
 3702 036a 03       		.uleb128 0x3
 3703 036b EE000000 		.4byte	.LASF69
 3704 036f 08       		.byte	0x8
 3705 0370 23       		.byte	0x23
 3706 0371 08030000 		.4byte	0x308
 3707 0375 0E       		.uleb128 0xe
 3708 0376 04       		.byte	0x4
 3709 0377 7B030000 		.4byte	0x37b
 3710 037b 0F       		.uleb128 0xf
 3711 037c 25000000 		.4byte	0x25
 3712 0380 10       		.uleb128 0x10
 3713 0381 646F7400 		.ascii	"dot\000"
 3714 0385 01       		.byte	0x1
 3715 0386 2A       		.byte	0x2a
 3716 0387 25000000 		.4byte	0x25
 3717 038b 03       		.byte	0x3
 3718 038c B5030000 		.4byte	0x3b5
 3719 0390 11       		.uleb128 0x11
 3720 0391 6100     		.ascii	"a\000"
 3721 0393 01       		.byte	0x1
 3722 0394 2A       		.byte	0x2a
 3723 0395 75030000 		.4byte	0x375
 3724 0399 11       		.uleb128 0x11
 3725 039a 6200     		.ascii	"b\000"
 3726 039c 01       		.byte	0x1
 3727 039d 2A       		.byte	0x2a
 3728 039e 75030000 		.4byte	0x375
 3729 03a2 11       		.uleb128 0x11
 3730 03a3 6E00     		.ascii	"n\000"
 3731 03a5 01       		.byte	0x1
 3732 03a6 2A       		.byte	0x2a
 3733 03a7 7A000000 		.4byte	0x7a
 3734 03ab 12       		.uleb128 0x12
 3735 03ac 7600     		.ascii	"v\000"
 3736 03ae 01       		.byte	0x1
 3737 03af 2C       		.byte	0x2c
 3738 03b0 25000000 		.4byte	0x25
 3739 03b4 00       		.byte	0
 3740 03b5 13       		.uleb128 0x13
 3741 03b6 11060000 		.4byte	.LASF70
 3742 03ba 02       		.byte	0x2
 3743 03bb 32       		.byte	0x32
 3744 03bc 7A000000 		.4byte	0x7a
 3745 03c0 03       		.byte	0x3
 3746 03c1 DA030000 		.4byte	0x3da
 3747 03c5 11       		.uleb128 0x11
 3748 03c6 647400   		.ascii	"dt\000"
 3749 03c9 02       		.byte	0x2
 3750 03ca 32       		.byte	0x32
 3751 03cb 9E000000 		.4byte	0x9e
 3752 03cf 11       		.uleb128 0x11
 3753 03d0 737200   		.ascii	"sr\000"
 3754 03d3 02       		.byte	0x2
 3755 03d4 32       		.byte	0x32
ARM GAS  C:\Users\rdn\AppData\Local\Temp\ccet7BYP.s 			page 84


 3756 03d5 CD000000 		.4byte	0xcd
 3757 03d9 00       		.byte	0
 3758 03da 13       		.uleb128 0x13
 3759 03db E1000000 		.4byte	.LASF71
 3760 03df 03       		.byte	0x3
 3761 03e0 F2       		.byte	0xf2
 3762 03e1 81000000 		.4byte	0x81
 3763 03e5 03       		.byte	0x3
 3764 03e6 15040000 		.4byte	0x415
 3765 03ea 14       		.uleb128 0x14
 3766 03eb C8030000 		.4byte	.LASF72
 3767 03ef 03       		.byte	0x3
 3768 03f0 F2       		.byte	0xf2
 3769 03f1 15040000 		.4byte	0x415
 3770 03f5 11       		.uleb128 0x11
 3771 03f6 6E00     		.ascii	"n\000"
 3772 03f8 03       		.byte	0x3
 3773 03f9 F2       		.byte	0xf2
 3774 03fa 7A000000 		.4byte	0x7a
 3775 03fe 15       		.uleb128 0x15
 3776 03ff 19030000 		.4byte	.LASF62
 3777 0403 03       		.byte	0x3
 3778 0404 F4       		.byte	0xf4
 3779 0405 1B040000 		.4byte	0x41b
 3780 0409 16       		.uleb128 0x16
 3781 040a 12       		.uleb128 0x12
 3782 040b 7600     		.ascii	"v\000"
 3783 040d 03       		.byte	0x3
 3784 040e F7       		.byte	0xf7
 3785 040f 7A000000 		.4byte	0x7a
 3786 0413 00       		.byte	0
 3787 0414 00       		.byte	0
 3788 0415 0E       		.uleb128 0xe
 3789 0416 04       		.byte	0x4
 3790 0417 C1020000 		.4byte	0x2c1
 3791 041b 0E       		.uleb128 0xe
 3792 041c 04       		.byte	0x4
 3793 041d F1010000 		.4byte	0x1f1
 3794 0421 17       		.uleb128 0x17
 3795 0422 8B020000 		.4byte	.LASF117
 3796 0426 03       		.byte	0x3
 3797 0427 DA       		.byte	0xda
 3798 0428 03       		.byte	0x3
 3799 0429 56040000 		.4byte	0x456
 3800 042d 14       		.uleb128 0x14
 3801 042e C8030000 		.4byte	.LASF72
 3802 0432 03       		.byte	0x3
 3803 0433 DB       		.byte	0xdb
 3804 0434 15040000 		.4byte	0x415
 3805 0438 11       		.uleb128 0x11
 3806 0439 7600     		.ascii	"v\000"
 3807 043b 03       		.byte	0x3
 3808 043c DB       		.byte	0xdb
 3809 043d 81000000 		.4byte	0x81
 3810 0441 11       		.uleb128 0x11
 3811 0442 6E00     		.ascii	"n\000"
 3812 0444 03       		.byte	0x3
ARM GAS  C:\Users\rdn\AppData\Local\Temp\ccet7BYP.s 			page 85


 3813 0445 DB       		.byte	0xdb
 3814 0446 7A000000 		.4byte	0x7a
 3815 044a 15       		.uleb128 0x15
 3816 044b 19030000 		.4byte	.LASF62
 3817 044f 03       		.byte	0x3
 3818 0450 DD       		.byte	0xdd
 3819 0451 1B040000 		.4byte	0x41b
 3820 0455 00       		.byte	0
 3821 0456 18       		.uleb128 0x18
 3822 0457 83010000 		.4byte	.LASF141
 3823 045b 01       		.byte	0x1
 3824 045c 20       		.byte	0x20
 3825 045d 0E010000 		.4byte	0x10e
 3826 0461 00000000 		.4byte	.LFB20
 3827 0465 16000000 		.4byte	.LFE20-.LFB20
 3828 0469 01       		.uleb128 0x1
 3829 046a 9C       		.byte	0x9c
 3830 046b 8D040000 		.4byte	0x48d
 3831 046f 19       		.uleb128 0x19
 3832 0470 647400   		.ascii	"dt\000"
 3833 0473 01       		.byte	0x1
 3834 0474 20       		.byte	0x20
 3835 0475 9E000000 		.4byte	0x9e
 3836 0479 00000000 		.4byte	.LLST0
 3837 047d 1A       		.uleb128 0x1a
 3838 047e 56040000 		.4byte	.LASF73
 3839 0482 01       		.byte	0x1
 3840 0483 20       		.byte	0x20
 3841 0484 7A000000 		.4byte	0x7a
 3842 0488 21000000 		.4byte	.LLST1
 3843 048c 00       		.byte	0
 3844 048d 1B       		.uleb128 0x1b
 3845 048e CC020000 		.4byte	.LASF98
 3846 0492 01       		.byte	0x1
 3847 0493 3B       		.byte	0x3b
 3848 0494 00000000 		.4byte	.LFB22
 3849 0498 74040000 		.4byte	.LFE22-.LFB22
 3850 049c 01       		.uleb128 0x1
 3851 049d 9C       		.byte	0x9c
 3852 049e F6080000 		.4byte	0x8f6
 3853 04a2 19       		.uleb128 0x19
 3854 04a3 647400   		.ascii	"dt\000"
 3855 04a6 01       		.byte	0x1
 3856 04a7 3C       		.byte	0x3c
 3857 04a8 9E000000 		.4byte	0x9e
 3858 04ac 42000000 		.4byte	.LLST2
 3859 04b0 19       		.uleb128 0x19
 3860 04b1 627700   		.ascii	"bw\000"
 3861 04b4 01       		.byte	0x1
 3862 04b5 3C       		.byte	0x3c
 3863 04b6 41010000 		.4byte	0x141
 3864 04ba 63000000 		.4byte	.LLST3
 3865 04be 1A       		.uleb128 0x1a
 3866 04bf 69020000 		.4byte	.LASF74
 3867 04c3 01       		.byte	0x1
 3868 04c4 3C       		.byte	0x3c
 3869 04c5 7A000000 		.4byte	0x7a
ARM GAS  C:\Users\rdn\AppData\Local\Temp\ccet7BYP.s 			page 86


 3870 04c9 84000000 		.4byte	.LLST4
 3871 04cd 19       		.uleb128 0x19
 3872 04ce 7800     		.ascii	"x\000"
 3873 04d0 01       		.byte	0x1
 3874 04d1 3D       		.byte	0x3d
 3875 04d2 75030000 		.4byte	0x375
 3876 04d6 A4000000 		.4byte	.LLST5
 3877 04da 1C       		.uleb128 0x1c
 3878 04db AB030000 		.4byte	.LASF75
 3879 04df 01       		.byte	0x1
 3880 04e0 3D       		.byte	0x3d
 3881 04e1 F6080000 		.4byte	0x8f6
 3882 04e5 02       		.uleb128 0x2
 3883 04e6 91       		.byte	0x91
 3884 04e7 00       		.sleb128 0
 3885 04e8 1D       		.uleb128 0x1d
 3886 04e9 6100     		.ascii	"a\000"
 3887 04eb 01       		.byte	0x1
 3888 04ec 3D       		.byte	0x3d
 3889 04ed 0C090000 		.4byte	0x90c
 3890 04f1 02       		.uleb128 0x2
 3891 04f2 91       		.byte	0x91
 3892 04f3 04       		.sleb128 4
 3893 04f4 1E       		.uleb128 0x1e
 3894 04f5 98030000 		.4byte	.LASF76
 3895 04f9 01       		.byte	0x1
 3896 04fa 42       		.byte	0x42
 3897 04fb 27090000 		.4byte	0x927
 3898 04ff 05       		.uleb128 0x5
 3899 0500 03       		.byte	0x3
 3900 0501 00000000 		.4byte	sub_2m5_nb.5541
 3901 0505 1E       		.uleb128 0x1e
 3902 0506 55000000 		.4byte	.LASF77
 3903 050a 01       		.byte	0x1
 3904 050b 43       		.byte	0x43
 3905 050c 2C090000 		.4byte	0x92c
 3906 0510 05       		.uleb128 0x5
 3907 0511 03       		.byte	0x3
 3908 0512 0C000000 		.4byte	sub_2m5_wb.5542
 3909 0516 1E       		.uleb128 0x1e
 3910 0517 72040000 		.4byte	.LASF78
 3911 051b 01       		.byte	0x1
 3912 051c 44       		.byte	0x44
 3913 051d 31090000 		.4byte	0x931
 3914 0521 05       		.uleb128 0x5
 3915 0522 03       		.byte	0x3
 3916 0523 18000000 		.4byte	sub_2m5_sswb.5543
 3917 0527 1E       		.uleb128 0x1e
 3918 0528 24000000 		.4byte	.LASF79
 3919 052c 01       		.byte	0x1
 3920 052d 45       		.byte	0x45
 3921 052e 36090000 		.4byte	0x936
 3922 0532 05       		.uleb128 0x5
 3923 0533 03       		.byte	0x3
 3924 0534 24000000 		.4byte	sub_2m5_swb.5544
 3925 0538 1E       		.uleb128 0x1e
 3926 0539 F2060000 		.4byte	.LASF80
ARM GAS  C:\Users\rdn\AppData\Local\Temp\ccet7BYP.s 			page 87


 3927 053d 01       		.byte	0x1
 3928 053e 46       		.byte	0x46
 3929 053f 3B090000 		.4byte	0x93b
 3930 0543 05       		.uleb128 0x5
 3931 0544 03       		.byte	0x3
 3932 0545 30000000 		.4byte	sub_2m5_fb.5545
 3933 0549 1E       		.uleb128 0x1e
 3934 054a FE020000 		.4byte	.LASF81
 3935 054e 01       		.byte	0x1
 3936 054f 48       		.byte	0x48
 3937 0550 40090000 		.4byte	0x940
 3938 0554 05       		.uleb128 0x5
 3939 0555 03       		.byte	0x3
 3940 0556 3C000000 		.4byte	sub_5m_nb.5546
 3941 055a 1E       		.uleb128 0x1e
 3942 055b 65050000 		.4byte	.LASF82
 3943 055f 01       		.byte	0x1
 3944 0560 49       		.byte	0x49
 3945 0561 45090000 		.4byte	0x945
 3946 0565 05       		.uleb128 0x5
 3947 0566 03       		.byte	0x3
 3948 0567 48000000 		.4byte	sub_5m_wb.5547
 3949 056b 1E       		.uleb128 0x1e
 3950 056c 02040000 		.4byte	.LASF83
 3951 0570 01       		.byte	0x1
 3952 0571 4A       		.byte	0x4a
 3953 0572 4A090000 		.4byte	0x94a
 3954 0576 05       		.uleb128 0x5
 3955 0577 03       		.byte	0x3
 3956 0578 54000000 		.4byte	sub_5m_sswb.5548
 3957 057c 1E       		.uleb128 0x1e
 3958 057d 0B000000 		.4byte	.LASF84
 3959 0581 01       		.byte	0x1
 3960 0582 4B       		.byte	0x4b
 3961 0583 5F090000 		.4byte	0x95f
 3962 0587 05       		.uleb128 0x5
 3963 0588 03       		.byte	0x3
 3964 0589 60000000 		.4byte	sub_5m_swb.5549
 3965 058d 1E       		.uleb128 0x1e
 3966 058e BC040000 		.4byte	.LASF85
 3967 0592 01       		.byte	0x1
 3968 0593 4C       		.byte	0x4c
 3969 0594 64090000 		.4byte	0x964
 3970 0598 05       		.uleb128 0x5
 3971 0599 03       		.byte	0x3
 3972 059a 74000000 		.4byte	sub_5m_fb.5550
 3973 059e 1E       		.uleb128 0x1e
 3974 059f 44040000 		.4byte	.LASF86
 3975 05a3 01       		.byte	0x1
 3976 05a4 50       		.byte	0x50
 3977 05a5 79090000 		.4byte	0x979
 3978 05a9 05       		.uleb128 0x5
 3979 05aa 03       		.byte	0x3
 3980 05ab 88000000 		.4byte	sub_7m5_nb.5551
 3981 05af 1E       		.uleb128 0x1e
 3982 05b0 FD000000 		.4byte	.LASF87
 3983 05b4 01       		.byte	0x1
ARM GAS  C:\Users\rdn\AppData\Local\Temp\ccet7BYP.s 			page 88


 3984 05b5 51       		.byte	0x51
 3985 05b6 7E090000 		.4byte	0x97e
 3986 05ba 05       		.uleb128 0x5
 3987 05bb 03       		.byte	0x3
 3988 05bc 98000000 		.4byte	sub_7m5_wb.5552
 3989 05c0 1E       		.uleb128 0x1e
 3990 05c1 9E020000 		.4byte	.LASF88
 3991 05c5 01       		.byte	0x1
 3992 05c6 52       		.byte	0x52
 3993 05c7 83090000 		.4byte	0x983
 3994 05cb 05       		.uleb128 0x5
 3995 05cc 03       		.byte	0x3
 3996 05cd A8000000 		.4byte	sub_7m5_sswb.5553
 3997 05d1 1E       		.uleb128 0x1e
 3998 05d2 A1050000 		.4byte	.LASF89
 3999 05d6 01       		.byte	0x1
 4000 05d7 53       		.byte	0x53
 4001 05d8 98090000 		.4byte	0x998
 4002 05dc 05       		.uleb128 0x5
 4003 05dd 03       		.byte	0x3
 4004 05de B8000000 		.4byte	sub_7m5_swb.5554
 4005 05e2 1E       		.uleb128 0x1e
 4006 05e3 00000000 		.4byte	.LASF90
 4007 05e7 01       		.byte	0x1
 4008 05e8 54       		.byte	0x54
 4009 05e9 9D090000 		.4byte	0x99d
 4010 05ed 05       		.uleb128 0x5
 4011 05ee 03       		.byte	0x3
 4012 05ef D4000000 		.4byte	sub_7m5_fb.5555
 4013 05f3 1E       		.uleb128 0x1e
 4014 05f4 E3030000 		.4byte	.LASF91
 4015 05f8 01       		.byte	0x1
 4016 05f9 56       		.byte	0x56
 4017 05fa A2090000 		.4byte	0x9a2
 4018 05fe 05       		.uleb128 0x5
 4019 05ff 03       		.byte	0x3
 4020 0600 F0000000 		.4byte	sub_10m_nb.5556
 4021 0604 1E       		.uleb128 0x1e
 4022 0605 BC000000 		.4byte	.LASF92
 4023 0609 01       		.byte	0x1
 4024 060a 57       		.byte	0x57
 4025 060b A7090000 		.4byte	0x9a7
 4026 060f 05       		.uleb128 0x5
 4027 0610 03       		.byte	0x3
 4028 0611 00010000 		.4byte	sub_10m_wb.5557
 4029 0615 1E       		.uleb128 0x1e
 4030 0616 23030000 		.4byte	.LASF93
 4031 061a 01       		.byte	0x1
 4032 061b 58       		.byte	0x58
 4033 061c AC090000 		.4byte	0x9ac
 4034 0620 05       		.uleb128 0x5
 4035 0621 03       		.byte	0x3
 4036 0622 10010000 		.4byte	sub_10m_sswb.5558
 4037 0626 1E       		.uleb128 0x1e
 4038 0627 82070000 		.4byte	.LASF94
 4039 062b 01       		.byte	0x1
 4040 062c 59       		.byte	0x59
ARM GAS  C:\Users\rdn\AppData\Local\Temp\ccet7BYP.s 			page 89


 4041 062d B1090000 		.4byte	0x9b1
 4042 0631 05       		.uleb128 0x5
 4043 0632 03       		.byte	0x3
 4044 0633 20010000 		.4byte	sub_10m_swb.5559
 4045 0637 1E       		.uleb128 0x1e
 4046 0638 65070000 		.4byte	.LASF95
 4047 063c 01       		.byte	0x1
 4048 063d 5A       		.byte	0x5a
 4049 063e B6090000 		.4byte	0x9b6
 4050 0642 05       		.uleb128 0x5
 4051 0643 03       		.byte	0x3
 4052 0644 3C010000 		.4byte	sub_10m_fb.5560
 4053 0648 1E       		.uleb128 0x1e
 4054 0649 B1000000 		.4byte	.LASF96
 4055 064d 01       		.byte	0x1
 4056 064e 5C       		.byte	0x5c
 4057 064f CB090000 		.4byte	0x9cb
 4058 0653 05       		.uleb128 0x5
 4059 0654 03       		.byte	0x3
 4060 0655 58010000 		.4byte	lag_window.5561
 4061 0659 1F       		.uleb128 0x1f
 4062 065a 73756200 		.ascii	"sub\000"
 4063 065e 01       		.byte	0x1
 4064 065f 62       		.byte	0x62
 4065 0660 D0090000 		.4byte	0x9d0
 4066 0664 C4000000 		.4byte	.LLST6
 4067 0668 20       		.uleb128 0x20
 4068 0669 DE050000 		.4byte	.LASF66
 4069 066d 01       		.byte	0x1
 4070 066e 7C       		.byte	0x7c
 4071 066f 7A000000 		.4byte	0x7a
 4072 0673 5D010000 		.4byte	.LLST7
 4073 0677 1E       		.uleb128 0x1e
 4074 0678 D3000000 		.4byte	.LASF97
 4075 067c 01       		.byte	0x1
 4076 067d 7D       		.byte	0x7d
 4077 067e 7A000000 		.4byte	0x7a
 4078 0682 03       		.uleb128 0x3
 4079 0683 91       		.byte	0x91
 4080 0684 947D     		.sleb128 -364
 4081 0686 1F       		.uleb128 0x1f
 4082 0687 787300   		.ascii	"xs\000"
 4083 068a 01       		.byte	0x1
 4084 068b 7F       		.byte	0x7f
 4085 068c 75030000 		.4byte	0x375
 4086 0690 95010000 		.4byte	.LLST8
 4087 0694 1F       		.uleb128 0x1f
 4088 0695 786500   		.ascii	"xe\000"
 4089 0698 01       		.byte	0x1
 4090 0699 7F       		.byte	0x7f
 4091 069a 75030000 		.4byte	0x375
 4092 069e A8010000 		.4byte	.LLST9
 4093 06a2 21       		.uleb128 0x21
 4094 06a3 7200     		.ascii	"r\000"
 4095 06a5 01       		.byte	0x1
 4096 06a6 80       		.byte	0x80
 4097 06a7 D6090000 		.4byte	0x9d6
ARM GAS  C:\Users\rdn\AppData\Local\Temp\ccet7BYP.s 			page 90


 4098 06ab 03       		.uleb128 0x3
 4099 06ac 91       		.byte	0x91
 4100 06ad A07E     		.sleb128 -224
 4101 06af 22       		.uleb128 0x22
 4102 06b0 DC000000 		.4byte	.LBB40
 4103 06b4 E8010000 		.4byte	.LBE40-.LBB40
 4104 06b8 FD070000 		.4byte	0x7fd
 4105 06bc 1F       		.uleb128 0x1f
 4106 06bd 6600     		.ascii	"f\000"
 4107 06bf 01       		.byte	0x1
 4108 06c0 82       		.byte	0x82
 4109 06c1 7A000000 		.4byte	0x7a
 4110 06c5 DE010000 		.4byte	.LLST10
 4111 06c9 23       		.uleb128 0x23
 4112 06ca E6000000 		.4byte	.LBB41
 4113 06ce CA010000 		.4byte	.LBE41-.LBB41
 4114 06d2 21       		.uleb128 0x21
 4115 06d3 6300     		.ascii	"c\000"
 4116 06d5 01       		.byte	0x1
 4117 06d6 83       		.byte	0x83
 4118 06d7 EC090000 		.4byte	0x9ec
 4119 06db 03       		.uleb128 0x3
 4120 06dc 91       		.byte	0x91
 4121 06dd B47D     		.sleb128 -332
 4122 06df 22       		.uleb128 0x22
 4123 06e0 F0000000 		.4byte	.LBB42
 4124 06e4 80000000 		.4byte	.LBE42-.LBB42
 4125 06e8 4F070000 		.4byte	0x74f
 4126 06ec 1F       		.uleb128 0x1f
 4127 06ed 7300     		.ascii	"s\000"
 4128 06ef 01       		.byte	0x1
 4129 06f0 85       		.byte	0x85
 4130 06f1 7A000000 		.4byte	0x7a
 4131 06f5 0A020000 		.4byte	.LLST11
 4132 06f9 23       		.uleb128 0x23
 4133 06fa 08010000 		.4byte	.LBB43
 4134 06fe 58000000 		.4byte	.LBE43-.LBB43
 4135 0702 1F       		.uleb128 0x1f
 4136 0703 6B00     		.ascii	"k\000"
 4137 0705 01       		.byte	0x1
 4138 0706 88       		.byte	0x88
 4139 0707 7A000000 		.4byte	0x7a
 4140 070b 29020000 		.4byte	.LLST12
 4141 070f 24       		.uleb128 0x24
 4142 0710 80030000 		.4byte	0x380
 4143 0714 22010000 		.4byte	.LBB44
 4144 0718 26000000 		.4byte	.LBE44-.LBB44
 4145 071c 01       		.byte	0x1
 4146 071d 89       		.byte	0x89
 4147 071e 25       		.uleb128 0x25
 4148 071f A2030000 		.4byte	0x3a2
 4149 0723 48020000 		.4byte	.LLST13
 4150 0727 25       		.uleb128 0x25
 4151 0728 99030000 		.4byte	0x399
 4152 072c 7C020000 		.4byte	.LLST14
 4153 0730 25       		.uleb128 0x25
 4154 0731 90030000 		.4byte	0x390
ARM GAS  C:\Users\rdn\AppData\Local\Temp\ccet7BYP.s 			page 91


 4155 0735 A5020000 		.4byte	.LLST15
 4156 0739 23       		.uleb128 0x23
 4157 073a 22010000 		.4byte	.LBB45
 4158 073e 26000000 		.4byte	.LBE45-.LBB45
 4159 0742 26       		.uleb128 0x26
 4160 0743 AB030000 		.4byte	0x3ab
 4161 0747 D9020000 		.4byte	.LLST16
 4162 074b 00       		.byte	0
 4163 074c 00       		.byte	0
 4164 074d 00       		.byte	0
 4165 074e 00       		.byte	0
 4166 074f 22       		.uleb128 0x22
 4167 0750 8A010000 		.4byte	.LBB46
 4168 0754 7E000000 		.4byte	.LBE46-.LBB46
 4169 0758 90070000 		.4byte	0x790
 4170 075c 1F       		.uleb128 0x1f
 4171 075d 653000   		.ascii	"e0\000"
 4172 0760 01       		.byte	0x1
 4173 0761 8E       		.byte	0x8e
 4174 0762 25000000 		.4byte	0x25
 4175 0766 12030000 		.4byte	.LLST17
 4176 076a 1F       		.uleb128 0x1f
 4177 076b 653100   		.ascii	"e1\000"
 4178 076e 01       		.byte	0x1
 4179 076f 8E       		.byte	0x8e
 4180 0770 25000000 		.4byte	0x25
 4181 0774 25030000 		.4byte	.LLST18
 4182 0778 23       		.uleb128 0x23
 4183 0779 90010000 		.4byte	.LBB47
 4184 077d 78000000 		.4byte	.LBE47-.LBB47
 4185 0781 1F       		.uleb128 0x1f
 4186 0782 6B00     		.ascii	"k\000"
 4187 0784 01       		.byte	0x1
 4188 0785 8F       		.byte	0x8f
 4189 0786 7A000000 		.4byte	0x7a
 4190 078a 45030000 		.4byte	.LLST19
 4191 078e 00       		.byte	0
 4192 078f 00       		.byte	0
 4193 0790 22       		.uleb128 0x22
 4194 0791 08020000 		.4byte	.LBB48
 4195 0795 A8000000 		.4byte	.LBE48-.LBB48
 4196 0799 DF070000 		.4byte	0x7df
 4197 079d 1F       		.uleb128 0x1f
 4198 079e 653000   		.ascii	"e0\000"
 4199 07a1 01       		.byte	0x1
 4200 07a2 94       		.byte	0x94
 4201 07a3 25000000 		.4byte	0x25
 4202 07a7 64030000 		.4byte	.LLST20
 4203 07ab 1F       		.uleb128 0x1f
 4204 07ac 653100   		.ascii	"e1\000"
 4205 07af 01       		.byte	0x1
 4206 07b0 94       		.byte	0x94
 4207 07b1 25000000 		.4byte	0x25
 4208 07b5 77030000 		.4byte	.LLST21
 4209 07b9 1F       		.uleb128 0x1f
 4210 07ba 653200   		.ascii	"e2\000"
 4211 07bd 01       		.byte	0x1
ARM GAS  C:\Users\rdn\AppData\Local\Temp\ccet7BYP.s 			page 92


 4212 07be 94       		.byte	0x94
 4213 07bf 25000000 		.4byte	0x25
 4214 07c3 97030000 		.4byte	.LLST22
 4215 07c7 23       		.uleb128 0x23
 4216 07c8 12020000 		.4byte	.LBB49
 4217 07cc 9E000000 		.4byte	.LBE49-.LBB49
 4218 07d0 1F       		.uleb128 0x1f
 4219 07d1 6B00     		.ascii	"k\000"
 4220 07d3 01       		.byte	0x1
 4221 07d4 95       		.byte	0x95
 4222 07d5 7A000000 		.4byte	0x7a
 4223 07d9 B7030000 		.4byte	.LLST23
 4224 07dd 00       		.byte	0
 4225 07de 00       		.byte	0
 4226 07df 27       		.uleb128 0x27
 4227 07e0 F0000000 		.4byte	.LVL21
 4228 07e4 2F180000 		.4byte	0x182f
 4229 07e8 28       		.uleb128 0x28
 4230 07e9 01       		.uleb128 0x1
 4231 07ea 50       		.byte	0x50
 4232 07eb 03       		.uleb128 0x3
 4233 07ec 91       		.byte	0x91
 4234 07ed B47D     		.sleb128 -332
 4235 07ef 28       		.uleb128 0x28
 4236 07f0 01       		.uleb128 0x1
 4237 07f1 51       		.byte	0x51
 4238 07f2 01       		.uleb128 0x1
 4239 07f3 30       		.byte	0x30
 4240 07f4 28       		.uleb128 0x28
 4241 07f5 01       		.uleb128 0x1
 4242 07f6 52       		.byte	0x52
 4243 07f7 02       		.uleb128 0x2
 4244 07f8 08       		.byte	0x8
 4245 07f9 6C       		.byte	0x6c
 4246 07fa 00       		.byte	0
 4247 07fb 00       		.byte	0
 4248 07fc 00       		.byte	0
 4249 07fd 22       		.uleb128 0x22
 4250 07fe C4020000 		.4byte	.LBB50
 4251 0802 A2010000 		.4byte	.LBE50-.LBB50
 4252 0806 DA080000 		.4byte	0x8da
 4253 080a 1F       		.uleb128 0x1f
 4254 080b 6600     		.ascii	"f\000"
 4255 080d 01       		.byte	0x1
 4256 080e 9D       		.byte	0x9d
 4257 080f 7A000000 		.4byte	0x7a
 4258 0813 D6030000 		.4byte	.LLST24
 4259 0817 23       		.uleb128 0x23
 4260 0818 C4020000 		.4byte	.LBB51
 4261 081c 98010000 		.4byte	.LBE51-.LBB51
 4262 0820 1F       		.uleb128 0x1f
 4263 0821 613000   		.ascii	"a0\000"
 4264 0824 01       		.byte	0x1
 4265 0825 9E       		.byte	0x9e
 4266 0826 F6080000 		.4byte	0x8f6
 4267 082a 2B040000 		.4byte	.LLST25
 4268 082e 21       		.uleb128 0x21
ARM GAS  C:\Users\rdn\AppData\Local\Temp\ccet7BYP.s 			page 93


 4269 082f 613100   		.ascii	"a1\000"
 4270 0832 01       		.byte	0x1
 4271 0833 9E       		.byte	0x9e
 4272 0834 FC080000 		.4byte	0x8fc
 4273 0838 03       		.uleb128 0x3
 4274 0839 91       		.byte	0x91
 4275 083a B47D     		.sleb128 -332
 4276 083c 1F       		.uleb128 0x1f
 4277 083d 65727200 		.ascii	"err\000"
 4278 0841 01       		.byte	0x1
 4279 0842 9F       		.byte	0x9f
 4280 0843 25000000 		.4byte	0x25
 4281 0847 75040000 		.4byte	.LLST26
 4282 084b 1F       		.uleb128 0x1f
 4283 084c 726300   		.ascii	"rc\000"
 4284 084f 01       		.byte	0x1
 4285 0850 9F       		.byte	0x9f
 4286 0851 25000000 		.4byte	0x25
 4287 0855 C5040000 		.4byte	.LLST27
 4288 0859 23       		.uleb128 0x23
 4289 085a EA020000 		.4byte	.LBB52
 4290 085e 66010000 		.4byte	.LBE52-.LBB52
 4291 0862 1F       		.uleb128 0x1f
 4292 0863 6B00     		.ascii	"k\000"
 4293 0865 01       		.byte	0x1
 4294 0866 A4       		.byte	0xa4
 4295 0867 7A000000 		.4byte	0x7a
 4296 086b 45050000 		.4byte	.LLST28
 4297 086f 22       		.uleb128 0x22
 4298 0870 04030000 		.4byte	.LBB53
 4299 0874 32000000 		.4byte	.LBE53-.LBB53
 4300 0878 8A080000 		.4byte	0x88a
 4301 087c 1F       		.uleb128 0x1f
 4302 087d 6900     		.ascii	"i\000"
 4303 087f 01       		.byte	0x1
 4304 0880 A7       		.byte	0xa7
 4305 0881 7A000000 		.4byte	0x7a
 4306 0885 7A050000 		.4byte	.LLST29
 4307 0889 00       		.byte	0
 4308 088a 22       		.uleb128 0x22
 4309 088b 5C030000 		.4byte	.LBB54
 4310 088f 30000000 		.4byte	.LBE54-.LBB54
 4311 0893 A5080000 		.4byte	0x8a5
 4312 0897 1F       		.uleb128 0x1f
 4313 0898 6900     		.ascii	"i\000"
 4314 089a 01       		.byte	0x1
 4315 089b AD       		.byte	0xad
 4316 089c 7A000000 		.4byte	0x7a
 4317 08a0 99050000 		.4byte	.LLST30
 4318 08a4 00       		.byte	0
 4319 08a5 22       		.uleb128 0x22
 4320 08a6 AC030000 		.4byte	.LBB55
 4321 08aa 38000000 		.4byte	.LBE55-.LBB55
 4322 08ae C0080000 		.4byte	0x8c0
 4323 08b2 1F       		.uleb128 0x1f
 4324 08b3 6900     		.ascii	"i\000"
 4325 08b5 01       		.byte	0x1
ARM GAS  C:\Users\rdn\AppData\Local\Temp\ccet7BYP.s 			page 94


 4326 08b6 B2       		.byte	0xb2
 4327 08b7 7A000000 		.4byte	0x7a
 4328 08bb B8050000 		.4byte	.LLST31
 4329 08bf 00       		.byte	0
 4330 08c0 23       		.uleb128 0x23
 4331 08c1 0A040000 		.4byte	.LBB56
 4332 08c5 32000000 		.4byte	.LBE56-.LBB56
 4333 08c9 1F       		.uleb128 0x1f
 4334 08ca 6900     		.ascii	"i\000"
 4335 08cc 01       		.byte	0x1
 4336 08cd B8       		.byte	0xb8
 4337 08ce 7A000000 		.4byte	0x7a
 4338 08d2 D7050000 		.4byte	.LLST32
 4339 08d6 00       		.byte	0
 4340 08d7 00       		.byte	0
 4341 08d8 00       		.byte	0
 4342 08d9 00       		.byte	0
 4343 08da 27       		.uleb128 0x27
 4344 08db 22000000 		.4byte	.LVL7
 4345 08df 2F180000 		.4byte	0x182f
 4346 08e3 28       		.uleb128 0x28
 4347 08e4 01       		.uleb128 0x1
 4348 08e5 50       		.byte	0x50
 4349 08e6 02       		.uleb128 0x2
 4350 08e7 74       		.byte	0x74
 4351 08e8 00       		.sleb128 0
 4352 08e9 28       		.uleb128 0x28
 4353 08ea 01       		.uleb128 0x1
 4354 08eb 51       		.byte	0x51
 4355 08ec 01       		.uleb128 0x1
 4356 08ed 30       		.byte	0x30
 4357 08ee 28       		.uleb128 0x28
 4358 08ef 01       		.uleb128 0x1
 4359 08f0 52       		.byte	0x52
 4360 08f1 02       		.uleb128 0x2
 4361 08f2 08       		.byte	0x8
 4362 08f3 70       		.byte	0x70
 4363 08f4 00       		.byte	0
 4364 08f5 00       		.byte	0
 4365 08f6 0E       		.uleb128 0xe
 4366 08f7 04       		.byte	0x4
 4367 08f8 25000000 		.4byte	0x25
 4368 08fc 07       		.uleb128 0x7
 4369 08fd 25000000 		.4byte	0x25
 4370 0901 0C090000 		.4byte	0x90c
 4371 0905 08       		.uleb128 0x8
 4372 0906 25010000 		.4byte	0x125
 4373 090a 08       		.byte	0x8
 4374 090b 00       		.byte	0
 4375 090c 0E       		.uleb128 0xe
 4376 090d 04       		.byte	0x4
 4377 090e FC080000 		.4byte	0x8fc
 4378 0912 07       		.uleb128 0x7
 4379 0913 22090000 		.4byte	0x922
 4380 0917 22090000 		.4byte	0x922
 4381 091b 08       		.uleb128 0x8
 4382 091c 25010000 		.4byte	0x125
ARM GAS  C:\Users\rdn\AppData\Local\Temp\ccet7BYP.s 			page 95


 4383 0920 02       		.byte	0x2
 4384 0921 00       		.byte	0
 4385 0922 0F       		.uleb128 0xf
 4386 0923 7A000000 		.4byte	0x7a
 4387 0927 0F       		.uleb128 0xf
 4388 0928 12090000 		.4byte	0x912
 4389 092c 0F       		.uleb128 0xf
 4390 092d 12090000 		.4byte	0x912
 4391 0931 0F       		.uleb128 0xf
 4392 0932 12090000 		.4byte	0x912
 4393 0936 0F       		.uleb128 0xf
 4394 0937 12090000 		.4byte	0x912
 4395 093b 0F       		.uleb128 0xf
 4396 093c 12090000 		.4byte	0x912
 4397 0940 0F       		.uleb128 0xf
 4398 0941 12090000 		.4byte	0x912
 4399 0945 0F       		.uleb128 0xf
 4400 0946 12090000 		.4byte	0x912
 4401 094a 0F       		.uleb128 0xf
 4402 094b 12090000 		.4byte	0x912
 4403 094f 07       		.uleb128 0x7
 4404 0950 22090000 		.4byte	0x922
 4405 0954 5F090000 		.4byte	0x95f
 4406 0958 08       		.uleb128 0x8
 4407 0959 25010000 		.4byte	0x125
 4408 095d 04       		.byte	0x4
 4409 095e 00       		.byte	0
 4410 095f 0F       		.uleb128 0xf
 4411 0960 4F090000 		.4byte	0x94f
 4412 0964 0F       		.uleb128 0xf
 4413 0965 4F090000 		.4byte	0x94f
 4414 0969 07       		.uleb128 0x7
 4415 096a 22090000 		.4byte	0x922
 4416 096e 79090000 		.4byte	0x979
 4417 0972 08       		.uleb128 0x8
 4418 0973 25010000 		.4byte	0x125
 4419 0977 03       		.byte	0x3
 4420 0978 00       		.byte	0
 4421 0979 0F       		.uleb128 0xf
 4422 097a 69090000 		.4byte	0x969
 4423 097e 0F       		.uleb128 0xf
 4424 097f 69090000 		.4byte	0x969
 4425 0983 0F       		.uleb128 0xf
 4426 0984 69090000 		.4byte	0x969
 4427 0988 07       		.uleb128 0x7
 4428 0989 22090000 		.4byte	0x922
 4429 098d 98090000 		.4byte	0x998
 4430 0991 08       		.uleb128 0x8
 4431 0992 25010000 		.4byte	0x125
 4432 0996 06       		.byte	0x6
 4433 0997 00       		.byte	0
 4434 0998 0F       		.uleb128 0xf
 4435 0999 88090000 		.4byte	0x988
 4436 099d 0F       		.uleb128 0xf
 4437 099e 88090000 		.4byte	0x988
 4438 09a2 0F       		.uleb128 0xf
 4439 09a3 69090000 		.4byte	0x969
ARM GAS  C:\Users\rdn\AppData\Local\Temp\ccet7BYP.s 			page 96


 4440 09a7 0F       		.uleb128 0xf
 4441 09a8 69090000 		.4byte	0x969
 4442 09ac 0F       		.uleb128 0xf
 4443 09ad 69090000 		.4byte	0x969
 4444 09b1 0F       		.uleb128 0xf
 4445 09b2 88090000 		.4byte	0x988
 4446 09b6 0F       		.uleb128 0xf
 4447 09b7 88090000 		.4byte	0x988
 4448 09bb 07       		.uleb128 0x7
 4449 09bc 7B030000 		.4byte	0x37b
 4450 09c0 CB090000 		.4byte	0x9cb
 4451 09c4 08       		.uleb128 0x8
 4452 09c5 25010000 		.4byte	0x125
 4453 09c9 08       		.byte	0x8
 4454 09ca 00       		.byte	0
 4455 09cb 0F       		.uleb128 0xf
 4456 09cc BB090000 		.4byte	0x9bb
 4457 09d0 0E       		.uleb128 0xe
 4458 09d1 04       		.byte	0x4
 4459 09d2 22090000 		.4byte	0x922
 4460 09d6 07       		.uleb128 0x7
 4461 09d7 25000000 		.4byte	0x25
 4462 09db EC090000 		.4byte	0x9ec
 4463 09df 08       		.uleb128 0x8
 4464 09e0 25010000 		.4byte	0x125
 4465 09e4 01       		.byte	0x1
 4466 09e5 08       		.uleb128 0x8
 4467 09e6 25010000 		.4byte	0x125
 4468 09ea 08       		.byte	0x8
 4469 09eb 00       		.byte	0
 4470 09ec 07       		.uleb128 0x7
 4471 09ed 25000000 		.4byte	0x25
 4472 09f1 020A0000 		.4byte	0xa02
 4473 09f5 08       		.uleb128 0x8
 4474 09f6 25010000 		.4byte	0x125
 4475 09fa 08       		.byte	0x8
 4476 09fb 08       		.uleb128 0x8
 4477 09fc 25010000 		.4byte	0x125
 4478 0a00 02       		.byte	0x2
 4479 0a01 00       		.byte	0
 4480 0a02 1B       		.uleb128 0x1b
 4481 0a03 E7050000 		.4byte	.LASF67
 4482 0a07 01       		.byte	0x1
 4483 0a08 C5       		.byte	0xc5
 4484 0a09 00000000 		.4byte	.LFB23
 4485 0a0d 58000000 		.4byte	.LFE23-.LFB23
 4486 0a11 01       		.uleb128 0x1
 4487 0a12 9C       		.byte	0x9c
 4488 0a13 630A0000 		.4byte	0xa63
 4489 0a17 1A       		.uleb128 0x1a
 4490 0a18 57010000 		.4byte	.LASF99
 4491 0a1c 01       		.byte	0x1
 4492 0a1d C5       		.byte	0xc5
 4493 0a1e 25000000 		.4byte	0x25
 4494 0a22 F6050000 		.4byte	.LLST33
 4495 0a26 19       		.uleb128 0x19
 4496 0a27 6100     		.ascii	"a\000"
ARM GAS  C:\Users\rdn\AppData\Local\Temp\ccet7BYP.s 			page 97


 4497 0a29 01       		.byte	0x1
 4498 0a2a C5       		.byte	0xc5
 4499 0a2b F6080000 		.4byte	0x8f6
 4500 0a2f 24060000 		.4byte	.LLST34
 4501 0a33 20       		.uleb128 0x20
 4502 0a34 EE030000 		.4byte	.LASF100
 4503 0a38 01       		.byte	0x1
 4504 0a39 C7       		.byte	0xc7
 4505 0a3a 25000000 		.4byte	0x25
 4506 0a3e 50060000 		.4byte	.LLST35
 4507 0a42 1F       		.uleb128 0x1f
 4508 0a43 6700     		.ascii	"g\000"
 4509 0a45 01       		.byte	0x1
 4510 0a46 C8       		.byte	0xc8
 4511 0a47 25000000 		.4byte	0x25
 4512 0a4b 6F060000 		.4byte	.LLST36
 4513 0a4f 29       		.uleb128 0x29
 4514 0a50 00000000 		.4byte	.Ldebug_ranges0+0
 4515 0a54 1F       		.uleb128 0x1f
 4516 0a55 6900     		.ascii	"i\000"
 4517 0a57 01       		.byte	0x1
 4518 0a58 CA       		.byte	0xca
 4519 0a59 7A000000 		.4byte	0x7a
 4520 0a5d B3060000 		.4byte	.LLST37
 4521 0a61 00       		.byte	0
 4522 0a62 00       		.byte	0
 4523 0a63 1B       		.uleb128 0x1b
 4524 0a64 AE060000 		.4byte	.LASF101
 4525 0a68 01       		.byte	0x1
 4526 0a69 D3       		.byte	0xd3
 4527 0a6a 00000000 		.4byte	.LFB24
 4528 0a6e 04010000 		.4byte	.LFE24-.LFB24
 4529 0a72 01       		.uleb128 0x1
 4530 0a73 9C       		.byte	0x9c
 4531 0a74 1E0B0000 		.4byte	0xb1e
 4532 0a78 19       		.uleb128 0x19
 4533 0a79 6100     		.ascii	"a\000"
 4534 0a7b 01       		.byte	0x1
 4535 0a7c D4       		.byte	0xd4
 4536 0a7d 75030000 		.4byte	0x375
 4537 0a81 D2060000 		.4byte	.LLST38
 4538 0a85 1A       		.uleb128 0x1a
 4539 0a86 69020000 		.4byte	.LASF74
 4540 0a8a 01       		.byte	0x1
 4541 0a8b D4       		.byte	0xd4
 4542 0a8c 7A000000 		.4byte	0x7a
 4543 0a90 FE060000 		.4byte	.LLST39
 4544 0a94 19       		.uleb128 0x19
 4545 0a95 726300   		.ascii	"rc\000"
 4546 0a98 01       		.byte	0x1
 4547 0a99 D4       		.byte	0xd4
 4548 0a9a F6080000 		.4byte	0x8f6
 4549 0a9e 2A070000 		.4byte	.LLST40
 4550 0aa2 1F       		.uleb128 0x1f
 4551 0aa3 6500     		.ascii	"e\000"
 4552 0aa5 01       		.byte	0x1
 4553 0aa6 D6       		.byte	0xd6
ARM GAS  C:\Users\rdn\AppData\Local\Temp\ccet7BYP.s 			page 98


 4554 0aa7 25000000 		.4byte	0x25
 4555 0aab 53070000 		.4byte	.LLST41
 4556 0aaf 21       		.uleb128 0x21
 4557 0ab0 6200     		.ascii	"b\000"
 4558 0ab2 01       		.byte	0x1
 4559 0ab3 D6       		.byte	0xd6
 4560 0ab4 1E0B0000 		.4byte	0xb1e
 4561 0ab8 03       		.uleb128 0x3
 4562 0ab9 91       		.byte	0x91
 4563 0aba A07F     		.sleb128 -96
 4564 0abc 1F       		.uleb128 0x1f
 4565 0abd 623000   		.ascii	"b0\000"
 4566 0ac0 01       		.byte	0x1
 4567 0ac1 D6       		.byte	0xd6
 4568 0ac2 F6080000 		.4byte	0x8f6
 4569 0ac6 8B070000 		.4byte	.LLST42
 4570 0aca 1F       		.uleb128 0x1f
 4571 0acb 623100   		.ascii	"b1\000"
 4572 0ace 01       		.byte	0x1
 4573 0acf D6       		.byte	0xd6
 4574 0ad0 F6080000 		.4byte	0x8f6
 4575 0ad4 9E070000 		.4byte	.LLST43
 4576 0ad8 22       		.uleb128 0x22
 4577 0ad9 38000000 		.4byte	.LBB59
 4578 0add 3A000000 		.4byte	.LBE59-.LBB59
 4579 0ae1 F30A0000 		.4byte	0xaf3
 4580 0ae5 1F       		.uleb128 0x1f
 4581 0ae6 6900     		.ascii	"i\000"
 4582 0ae8 01       		.byte	0x1
 4583 0ae9 DC       		.byte	0xdc
 4584 0aea 7A000000 		.4byte	0x7a
 4585 0aee 04080000 		.4byte	.LLST44
 4586 0af2 00       		.byte	0
 4587 0af3 29       		.uleb128 0x29
 4588 0af4 18000000 		.4byte	.Ldebug_ranges0+0x18
 4589 0af8 1F       		.uleb128 0x1f
 4590 0af9 6B00     		.ascii	"k\000"
 4591 0afb 01       		.byte	0x1
 4592 0afc DF       		.byte	0xdf
 4593 0afd 7A000000 		.4byte	0x7a
 4594 0b01 46080000 		.4byte	.LLST45
 4595 0b05 23       		.uleb128 0x23
 4596 0b06 A8000000 		.4byte	.LBB61
 4597 0b0a 36000000 		.4byte	.LBE61-.LBB61
 4598 0b0e 1F       		.uleb128 0x1f
 4599 0b0f 6900     		.ascii	"i\000"
 4600 0b11 01       		.byte	0x1
 4601 0b12 E5       		.byte	0xe5
 4602 0b13 7A000000 		.4byte	0x7a
 4603 0b17 59080000 		.4byte	.LLST46
 4604 0b1b 00       		.byte	0
 4605 0b1c 00       		.byte	0
 4606 0b1d 00       		.byte	0
 4607 0b1e 07       		.uleb128 0x7
 4608 0b1f 25000000 		.4byte	0x25
 4609 0b23 340B0000 		.4byte	0xb34
 4610 0b27 08       		.uleb128 0x8
ARM GAS  C:\Users\rdn\AppData\Local\Temp\ccet7BYP.s 			page 99


 4611 0b28 25010000 		.4byte	0x125
 4612 0b2c 01       		.byte	0x1
 4613 0b2d 08       		.uleb128 0x8
 4614 0b2e 25010000 		.4byte	0x125
 4615 0b32 06       		.byte	0x6
 4616 0b33 00       		.byte	0
 4617 0b34 1B       		.uleb128 0x1b
 4618 0b35 36070000 		.4byte	.LASF102
 4619 0b39 01       		.byte	0x1
 4620 0b3a F2       		.byte	0xf2
 4621 0b3b 00000000 		.4byte	.LFB25
 4622 0b3f B4000000 		.4byte	.LFE25-.LFB25
 4623 0b43 01       		.uleb128 0x1
 4624 0b44 9C       		.byte	0x9c
 4625 0b45 DE0B0000 		.4byte	0xbde
 4626 0b49 19       		.uleb128 0x19
 4627 0b4a 726300   		.ascii	"rc\000"
 4628 0b4d 01       		.byte	0x1
 4629 0b4e F2       		.byte	0xf2
 4630 0b4f 75030000 		.4byte	0x375
 4631 0b53 78080000 		.4byte	.LLST47
 4632 0b57 1A       		.uleb128 0x1a
 4633 0b58 69020000 		.4byte	.LASF74
 4634 0b5c 01       		.byte	0x1
 4635 0b5d F2       		.byte	0xf2
 4636 0b5e 7A000000 		.4byte	0x7a
 4637 0b62 97080000 		.4byte	.LLST48
 4638 0b66 1A       		.uleb128 0x1a
 4639 0b67 30030000 		.4byte	.LASF103
 4640 0b6b 01       		.byte	0x1
 4641 0b6c F2       		.byte	0xf2
 4642 0b6d DE0B0000 		.4byte	0xbde
 4643 0b71 C2080000 		.4byte	.LLST49
 4644 0b75 1A       		.uleb128 0x1a
 4645 0b76 47060000 		.4byte	.LASF104
 4646 0b7a 01       		.byte	0x1
 4647 0b7b F2       		.byte	0xf2
 4648 0b7c DE0B0000 		.4byte	0xbde
 4649 0b80 EB080000 		.4byte	.LLST50
 4650 0b84 1E       		.uleb128 0x1e
 4651 0b85 98020000 		.4byte	.LASF105
 4652 0b89 01       		.byte	0x1
 4653 0b8a F7       		.byte	0xf7
 4654 0b8b F40B0000 		.4byte	0xbf4
 4655 0b8f 05       		.uleb128 0x5
 4656 0b90 03       		.byte	0x3
 4657 0b91 7C010000 		.4byte	q_thr.5660
 4658 0b95 23       		.uleb128 0x23
 4659 0b96 1A000000 		.4byte	.LBB63
 4660 0b9a 84000000 		.4byte	.LBE63-.LBB63
 4661 0b9e 1F       		.uleb128 0x1f
 4662 0b9f 6900     		.ascii	"i\000"
 4663 0ba1 01       		.byte	0x1
 4664 0ba2 FE       		.byte	0xfe
 4665 0ba3 7A000000 		.4byte	0x7a
 4666 0ba7 17090000 		.4byte	.LLST51
 4667 0bab 23       		.uleb128 0x23
ARM GAS  C:\Users\rdn\AppData\Local\Temp\ccet7BYP.s 			page 100


 4668 0bac 20000000 		.4byte	.LBB64
 4669 0bb0 72000000 		.4byte	.LBE64-.LBB64
 4670 0bb4 20       		.uleb128 0x20
 4671 0bb5 42060000 		.4byte	.LASF106
 4672 0bb9 01       		.byte	0x1
 4673 0bba FF       		.byte	0xff
 4674 0bbb 25000000 		.4byte	0x25
 4675 0bbf 36090000 		.4byte	.LLST52
 4676 0bc3 23       		.uleb128 0x23
 4677 0bc4 48000000 		.4byte	.LBB65
 4678 0bc8 22000000 		.4byte	.LBE65-.LBB65
 4679 0bcc 2A       		.uleb128 0x2a
 4680 0bcd 6A00     		.ascii	"j\000"
 4681 0bcf 01       		.byte	0x1
 4682 0bd0 0201     		.2byte	0x102
 4683 0bd2 7A000000 		.4byte	0x7a
 4684 0bd6 49090000 		.4byte	.LLST53
 4685 0bda 00       		.byte	0
 4686 0bdb 00       		.byte	0
 4687 0bdc 00       		.byte	0
 4688 0bdd 00       		.byte	0
 4689 0bde 0E       		.uleb128 0xe
 4690 0bdf 04       		.byte	0x4
 4691 0be0 7A000000 		.4byte	0x7a
 4692 0be4 07       		.uleb128 0x7
 4693 0be5 25000000 		.4byte	0x25
 4694 0be9 F40B0000 		.4byte	0xbf4
 4695 0bed 08       		.uleb128 0x8
 4696 0bee 25010000 		.4byte	0x125
 4697 0bf2 07       		.byte	0x7
 4698 0bf3 00       		.byte	0
 4699 0bf4 0F       		.uleb128 0xf
 4700 0bf5 E40B0000 		.4byte	0xbe4
 4701 0bf9 2B       		.uleb128 0x2b
 4702 0bfa 74060000 		.4byte	.LASF107
 4703 0bfe 01       		.byte	0x1
 4704 0bff 1001     		.2byte	0x110
 4705 0c01 00000000 		.4byte	.LFB26
 4706 0c05 34000000 		.4byte	.LFE26-.LFB26
 4707 0c09 01       		.uleb128 0x1
 4708 0c0a 9C       		.byte	0x9c
 4709 0c0b 730C0000 		.4byte	0xc73
 4710 0c0f 2C       		.uleb128 0x2c
 4711 0c10 47060000 		.4byte	.LASF104
 4712 0c14 01       		.byte	0x1
 4713 0c15 1001     		.2byte	0x110
 4714 0c17 D0090000 		.4byte	0x9d0
 4715 0c1b 01       		.uleb128 0x1
 4716 0c1c 50       		.byte	0x50
 4717 0c1d 2C       		.uleb128 0x2c
 4718 0c1e 30030000 		.4byte	.LASF103
 4719 0c22 01       		.byte	0x1
 4720 0c23 1001     		.2byte	0x110
 4721 0c25 7A000000 		.4byte	0x7a
 4722 0c29 01       		.uleb128 0x1
 4723 0c2a 51       		.byte	0x51
 4724 0c2b 2D       		.uleb128 0x2d
ARM GAS  C:\Users\rdn\AppData\Local\Temp\ccet7BYP.s 			page 101


 4725 0c2c 726300   		.ascii	"rc\000"
 4726 0c2f 01       		.byte	0x1
 4727 0c30 1001     		.2byte	0x110
 4728 0c32 F6080000 		.4byte	0x8f6
 4729 0c36 01       		.uleb128 0x1
 4730 0c37 52       		.byte	0x52
 4731 0c38 2E       		.uleb128 0x2e
 4732 0c39 C6020000 		.4byte	.LASF108
 4733 0c3d 01       		.byte	0x1
 4734 0c3e 1501     		.2byte	0x115
 4735 0c40 730C0000 		.4byte	0xc73
 4736 0c44 05       		.uleb128 0x5
 4737 0c45 03       		.byte	0x3
 4738 0c46 9C010000 		.4byte	q_inv.5675
 4739 0c4a 2A       		.uleb128 0x2a
 4740 0c4b 6900     		.ascii	"i\000"
 4741 0c4d 01       		.byte	0x1
 4742 0c4e 1A01     		.2byte	0x11a
 4743 0c50 7A000000 		.4byte	0x7a
 4744 0c54 68090000 		.4byte	.LLST54
 4745 0c58 23       		.uleb128 0x23
 4746 0c59 06000000 		.4byte	.LBB66
 4747 0c5d 22000000 		.4byte	.LBE66-.LBB66
 4748 0c61 2F       		.uleb128 0x2f
 4749 0c62 42060000 		.4byte	.LASF106
 4750 0c66 01       		.byte	0x1
 4751 0c67 1D01     		.2byte	0x11d
 4752 0c69 25000000 		.4byte	0x25
 4753 0c6d 87090000 		.4byte	.LLST55
 4754 0c71 00       		.byte	0
 4755 0c72 00       		.byte	0
 4756 0c73 0F       		.uleb128 0xf
 4757 0c74 FC080000 		.4byte	0x8fc
 4758 0c78 30       		.uleb128 0x30
 4759 0c79 1A040000 		.4byte	.LASF109
 4760 0c7d 01       		.byte	0x1
 4761 0c7e 2D01     		.2byte	0x12d
 4762 0c80 00000000 		.4byte	.LFB27
 4763 0c84 04010000 		.4byte	.LFE27-.LFB27
 4764 0c88 01       		.uleb128 0x1
 4765 0c89 9C       		.byte	0x9c
 4766 0c8a E20D0000 		.4byte	0xde2
 4767 0c8e 31       		.uleb128 0x31
 4768 0c8f 647400   		.ascii	"dt\000"
 4769 0c92 01       		.byte	0x1
 4770 0c93 2E01     		.2byte	0x12e
 4771 0c95 9E000000 		.4byte	0x9e
 4772 0c99 C9090000 		.4byte	.LLST56
 4773 0c9d 31       		.uleb128 0x31
 4774 0c9e 627700   		.ascii	"bw\000"
 4775 0ca1 01       		.byte	0x1
 4776 0ca2 2E01     		.2byte	0x12e
 4777 0ca4 41010000 		.4byte	0x141
 4778 0ca8 EA090000 		.4byte	.LLST57
 4779 0cac 32       		.uleb128 0x32
 4780 0cad 60000000 		.4byte	.LASF68
 4781 0cb1 01       		.byte	0x1
ARM GAS  C:\Users\rdn\AppData\Local\Temp\ccet7BYP.s 			page 102


 4782 0cb2 2F01     		.2byte	0x12f
 4783 0cb4 D0090000 		.4byte	0x9d0
 4784 0cb8 0B0A0000 		.4byte	.LLST58
 4785 0cbc 31       		.uleb128 0x31
 4786 0cbd 726300   		.ascii	"rc\000"
 4787 0cc0 01       		.byte	0x1
 4788 0cc1 2F01     		.2byte	0x12f
 4789 0cc3 E80D0000 		.4byte	0xde8
 4790 0cc7 5B0A0000 		.4byte	.LLST59
 4791 0ccb 2D       		.uleb128 0x2d
 4792 0ccc 7800     		.ascii	"x\000"
 4793 0cce 01       		.byte	0x1
 4794 0ccf 2F01     		.2byte	0x12f
 4795 0cd1 F6080000 		.4byte	0x8f6
 4796 0cd5 02       		.uleb128 0x2
 4797 0cd6 91       		.byte	0x91
 4798 0cd7 00       		.sleb128 0
 4799 0cd8 2F       		.uleb128 0x2f
 4800 0cd9 DE050000 		.4byte	.LASF66
 4801 0cdd 01       		.byte	0x1
 4802 0cde 3101     		.2byte	0x131
 4803 0ce0 7A000000 		.4byte	0x7a
 4804 0ce4 7B0A0000 		.4byte	.LLST60
 4805 0ce8 2A       		.uleb128 0x2a
 4806 0ce9 6E6600   		.ascii	"nf\000"
 4807 0cec 01       		.byte	0x1
 4808 0ced 3201     		.2byte	0x132
 4809 0cef 7A000000 		.4byte	0x7a
 4810 0cf3 9B0A0000 		.4byte	.LLST61
 4811 0cf7 2A       		.uleb128 0x2a
 4812 0cf8 693000   		.ascii	"i0\000"
 4813 0cfb 01       		.byte	0x1
 4814 0cfc 3401     		.2byte	0x134
 4815 0cfe 7A000000 		.4byte	0x7a
 4816 0d02 BB0A0000 		.4byte	.LLST62
 4817 0d06 2A       		.uleb128 0x2a
 4818 0d07 696500   		.ascii	"ie\000"
 4819 0d0a 01       		.byte	0x1
 4820 0d0b 3401     		.2byte	0x134
 4821 0d0d 7A000000 		.4byte	0x7a
 4822 0d11 CE0A0000 		.4byte	.LLST63
 4823 0d15 33       		.uleb128 0x33
 4824 0d16 7300     		.ascii	"s\000"
 4825 0d18 01       		.byte	0x1
 4826 0d19 3601     		.2byte	0x136
 4827 0d1b E40B0000 		.4byte	0xbe4
 4828 0d1f 03       		.uleb128 0x3
 4829 0d20 91       		.byte	0x91
 4830 0d21 B87F     		.sleb128 -72
 4831 0d23 34       		.uleb128 0x34
 4832 0d24 B5030000 		.4byte	0x3b5
 4833 0d28 32000000 		.4byte	.LBB67
 4834 0d2c 0A000000 		.4byte	.LBE67-.LBB67
 4835 0d30 01       		.byte	0x1
 4836 0d31 3201     		.2byte	0x132
 4837 0d33 4A0D0000 		.4byte	0xd4a
 4838 0d37 25       		.uleb128 0x25
ARM GAS  C:\Users\rdn\AppData\Local\Temp\ccet7BYP.s 			page 103


 4839 0d38 CF030000 		.4byte	0x3cf
 4840 0d3c 040B0000 		.4byte	.LLST64
 4841 0d40 25       		.uleb128 0x25
 4842 0d41 C5030000 		.4byte	0x3c5
 4843 0d45 170B0000 		.4byte	.LLST65
 4844 0d49 00       		.byte	0
 4845 0d4a 22       		.uleb128 0x22
 4846 0d4b 50000000 		.4byte	.LBB69
 4847 0d4f A0000000 		.4byte	.LBE69-.LBB69
 4848 0d53 C50D0000 		.4byte	0xdc5
 4849 0d57 2A       		.uleb128 0x2a
 4850 0d58 6600     		.ascii	"f\000"
 4851 0d5a 01       		.byte	0x1
 4852 0d5b 3801     		.2byte	0x138
 4853 0d5d 7A000000 		.4byte	0x7a
 4854 0d61 380B0000 		.4byte	.LLST66
 4855 0d65 23       		.uleb128 0x23
 4856 0d66 74000000 		.4byte	.LBB70
 4857 0d6a 76000000 		.4byte	.LBE70-.LBB70
 4858 0d6e 2A       		.uleb128 0x2a
 4859 0d6f 6900     		.ascii	"i\000"
 4860 0d71 01       		.byte	0x1
 4861 0d72 4001     		.2byte	0x140
 4862 0d74 7A000000 		.4byte	0x7a
 4863 0d78 6D0B0000 		.4byte	.LLST67
 4864 0d7c 29       		.uleb128 0x29
 4865 0d7d 30000000 		.4byte	.Ldebug_ranges0+0x30
 4866 0d81 2A       		.uleb128 0x2a
 4867 0d82 786900   		.ascii	"xi\000"
 4868 0d85 01       		.byte	0x1
 4869 0d86 4101     		.2byte	0x141
 4870 0d88 25000000 		.4byte	0x25
 4871 0d8c 960B0000 		.4byte	.LLST68
 4872 0d90 2A       		.uleb128 0x2a
 4873 0d91 733000   		.ascii	"s0\000"
 4874 0d94 01       		.byte	0x1
 4875 0d95 4201     		.2byte	0x142
 4876 0d97 25000000 		.4byte	0x25
 4877 0d9b CC0B0000 		.4byte	.LLST69
 4878 0d9f 2A       		.uleb128 0x2a
 4879 0da0 733100   		.ascii	"s1\000"
 4880 0da3 01       		.byte	0x1
 4881 0da4 4201     		.2byte	0x142
 4882 0da6 25000000 		.4byte	0x25
 4883 0daa DF0B0000 		.4byte	.LLST70
 4884 0dae 29       		.uleb128 0x29
 4885 0daf 48000000 		.4byte	.Ldebug_ranges0+0x48
 4886 0db3 2A       		.uleb128 0x2a
 4887 0db4 6B00     		.ascii	"k\000"
 4888 0db6 01       		.byte	0x1
 4889 0db7 4401     		.2byte	0x144
 4890 0db9 7A000000 		.4byte	0x7a
 4891 0dbd 230C0000 		.4byte	.LLST71
 4892 0dc1 00       		.byte	0
 4893 0dc2 00       		.byte	0
 4894 0dc3 00       		.byte	0
 4895 0dc4 00       		.byte	0
ARM GAS  C:\Users\rdn\AppData\Local\Temp\ccet7BYP.s 			page 104


 4896 0dc5 27       		.uleb128 0x27
 4897 0dc6 50000000 		.4byte	.LVL210
 4898 0dca 2F180000 		.4byte	0x182f
 4899 0dce 28       		.uleb128 0x28
 4900 0dcf 01       		.uleb128 0x1
 4901 0dd0 50       		.byte	0x50
 4902 0dd1 03       		.uleb128 0x3
 4903 0dd2 91       		.byte	0x91
 4904 0dd3 B87F     		.sleb128 -72
 4905 0dd5 28       		.uleb128 0x28
 4906 0dd6 01       		.uleb128 0x1
 4907 0dd7 51       		.byte	0x51
 4908 0dd8 01       		.uleb128 0x1
 4909 0dd9 30       		.byte	0x30
 4910 0dda 28       		.uleb128 0x28
 4911 0ddb 01       		.uleb128 0x1
 4912 0ddc 52       		.byte	0x52
 4913 0ddd 02       		.uleb128 0x2
 4914 0dde 08       		.byte	0x8
 4915 0ddf 20       		.byte	0x20
 4916 0de0 00       		.byte	0
 4917 0de1 00       		.byte	0
 4918 0de2 0E       		.uleb128 0xe
 4919 0de3 04       		.byte	0x4
 4920 0de4 E40B0000 		.4byte	0xbe4
 4921 0de8 0F       		.uleb128 0xf
 4922 0de9 E20D0000 		.4byte	0xde2
 4923 0ded 30       		.uleb128 0x30
 4924 0dee E9040000 		.4byte	.LASF110
 4925 0df2 01       		.byte	0x1
 4926 0df3 5701     		.2byte	0x157
 4927 0df5 00000000 		.4byte	.LFB28
 4928 0df9 2C010000 		.4byte	.LFE28-.LFB28
 4929 0dfd 01       		.uleb128 0x1
 4930 0dfe 9C       		.byte	0x9c
 4931 0dff 590F0000 		.4byte	0xf59
 4932 0e03 31       		.uleb128 0x31
 4933 0e04 647400   		.ascii	"dt\000"
 4934 0e07 01       		.byte	0x1
 4935 0e08 5801     		.2byte	0x158
 4936 0e0a 9E000000 		.4byte	0x9e
 4937 0e0e 420C0000 		.4byte	.LLST72
 4938 0e12 31       		.uleb128 0x31
 4939 0e13 627700   		.ascii	"bw\000"
 4940 0e16 01       		.byte	0x1
 4941 0e17 5801     		.2byte	0x158
 4942 0e19 41010000 		.4byte	0x141
 4943 0e1d 630C0000 		.4byte	.LLST73
 4944 0e21 32       		.uleb128 0x32
 4945 0e22 60000000 		.4byte	.LASF68
 4946 0e26 01       		.byte	0x1
 4947 0e27 5901     		.2byte	0x159
 4948 0e29 D0090000 		.4byte	0x9d0
 4949 0e2d 840C0000 		.4byte	.LLST74
 4950 0e31 31       		.uleb128 0x31
 4951 0e32 726300   		.ascii	"rc\000"
 4952 0e35 01       		.byte	0x1
ARM GAS  C:\Users\rdn\AppData\Local\Temp\ccet7BYP.s 			page 105


 4953 0e36 5901     		.2byte	0x159
 4954 0e38 E80D0000 		.4byte	0xde8
 4955 0e3c D40C0000 		.4byte	.LLST75
 4956 0e40 2D       		.uleb128 0x2d
 4957 0e41 7800     		.ascii	"x\000"
 4958 0e43 01       		.byte	0x1
 4959 0e44 5901     		.2byte	0x159
 4960 0e46 F6080000 		.4byte	0x8f6
 4961 0e4a 02       		.uleb128 0x2
 4962 0e4b 91       		.byte	0x91
 4963 0e4c 00       		.sleb128 0
 4964 0e4d 2F       		.uleb128 0x2f
 4965 0e4e DE050000 		.4byte	.LASF66
 4966 0e52 01       		.byte	0x1
 4967 0e53 5B01     		.2byte	0x15b
 4968 0e55 7A000000 		.4byte	0x7a
 4969 0e59 F40C0000 		.4byte	.LLST76
 4970 0e5d 2A       		.uleb128 0x2a
 4971 0e5e 6E6600   		.ascii	"nf\000"
 4972 0e61 01       		.byte	0x1
 4973 0e62 5C01     		.2byte	0x15c
 4974 0e64 7A000000 		.4byte	0x7a
 4975 0e68 140D0000 		.4byte	.LLST77
 4976 0e6c 2A       		.uleb128 0x2a
 4977 0e6d 693000   		.ascii	"i0\000"
 4978 0e70 01       		.byte	0x1
 4979 0e71 5E01     		.2byte	0x15e
 4980 0e73 7A000000 		.4byte	0x7a
 4981 0e77 340D0000 		.4byte	.LLST78
 4982 0e7b 2A       		.uleb128 0x2a
 4983 0e7c 696500   		.ascii	"ie\000"
 4984 0e7f 01       		.byte	0x1
 4985 0e80 5E01     		.2byte	0x15e
 4986 0e82 7A000000 		.4byte	0x7a
 4987 0e86 470D0000 		.4byte	.LLST79
 4988 0e8a 33       		.uleb128 0x33
 4989 0e8b 7300     		.ascii	"s\000"
 4990 0e8d 01       		.byte	0x1
 4991 0e8e 6001     		.2byte	0x160
 4992 0e90 E40B0000 		.4byte	0xbe4
 4993 0e94 03       		.uleb128 0x3
 4994 0e95 91       		.byte	0x91
 4995 0e96 B87F     		.sleb128 -72
 4996 0e98 34       		.uleb128 0x34
 4997 0e99 B5030000 		.4byte	0x3b5
 4998 0e9d 32000000 		.4byte	.LBB75
 4999 0ea1 0A000000 		.4byte	.LBE75-.LBB75
 5000 0ea5 01       		.byte	0x1
 5001 0ea6 5C01     		.2byte	0x15c
 5002 0ea8 BF0E0000 		.4byte	0xebf
 5003 0eac 25       		.uleb128 0x25
 5004 0ead CF030000 		.4byte	0x3cf
 5005 0eb1 860D0000 		.4byte	.LLST80
 5006 0eb5 25       		.uleb128 0x25
 5007 0eb6 C5030000 		.4byte	0x3c5
 5008 0eba 990D0000 		.4byte	.LLST81
 5009 0ebe 00       		.byte	0
ARM GAS  C:\Users\rdn\AppData\Local\Temp\ccet7BYP.s 			page 106


 5010 0ebf 22       		.uleb128 0x22
 5011 0ec0 50000000 		.4byte	.LBB77
 5012 0ec4 C8000000 		.4byte	.LBE77-.LBB77
 5013 0ec8 3C0F0000 		.4byte	0xf3c
 5014 0ecc 2A       		.uleb128 0x2a
 5015 0ecd 6600     		.ascii	"f\000"
 5016 0ecf 01       		.byte	0x1
 5017 0ed0 6201     		.2byte	0x162
 5018 0ed2 7A000000 		.4byte	0x7a
 5019 0ed6 BA0D0000 		.4byte	.LLST82
 5020 0eda 35       		.uleb128 0x35
 5021 0edb 60000000 		.4byte	.Ldebug_ranges0+0x60
 5022 0edf 230F0000 		.4byte	0xf23
 5023 0ee3 2A       		.uleb128 0x2a
 5024 0ee4 6900     		.ascii	"i\000"
 5025 0ee6 01       		.byte	0x1
 5026 0ee7 6A01     		.2byte	0x16a
 5027 0ee9 7A000000 		.4byte	0x7a
 5028 0eed F10D0000 		.4byte	.LLST83
 5029 0ef1 23       		.uleb128 0x23
 5030 0ef2 78000000 		.4byte	.LBB79
 5031 0ef6 72000000 		.4byte	.LBE79-.LBB79
 5032 0efa 2A       		.uleb128 0x2a
 5033 0efb 786900   		.ascii	"xi\000"
 5034 0efe 01       		.byte	0x1
 5035 0eff 6B01     		.2byte	0x16b
 5036 0f01 25000000 		.4byte	0x25
 5037 0f05 040E0000 		.4byte	.LLST84
 5038 0f09 23       		.uleb128 0x23
 5039 0f0a A0000000 		.4byte	.LBB80
 5040 0f0e 42000000 		.4byte	.LBE80-.LBB80
 5041 0f12 2A       		.uleb128 0x2a
 5042 0f13 6B00     		.ascii	"k\000"
 5043 0f15 01       		.byte	0x1
 5044 0f16 6E01     		.2byte	0x16e
 5045 0f18 7A000000 		.4byte	0x7a
 5046 0f1c 500E0000 		.4byte	.LLST85
 5047 0f20 00       		.byte	0
 5048 0f21 00       		.byte	0
 5049 0f22 00       		.byte	0
 5050 0f23 23       		.uleb128 0x23
 5051 0f24 FE000000 		.4byte	.LBB81
 5052 0f28 10000000 		.4byte	.LBE81-.LBB81
 5053 0f2c 2A       		.uleb128 0x2a
 5054 0f2d 6B00     		.ascii	"k\000"
 5055 0f2f 01       		.byte	0x1
 5056 0f30 7601     		.2byte	0x176
 5057 0f32 7A000000 		.4byte	0x7a
 5058 0f36 6F0E0000 		.4byte	.LLST86
 5059 0f3a 00       		.byte	0
 5060 0f3b 00       		.byte	0
 5061 0f3c 27       		.uleb128 0x27
 5062 0f3d 50000000 		.4byte	.LVL249
 5063 0f41 2F180000 		.4byte	0x182f
 5064 0f45 28       		.uleb128 0x28
 5065 0f46 01       		.uleb128 0x1
 5066 0f47 50       		.byte	0x50
ARM GAS  C:\Users\rdn\AppData\Local\Temp\ccet7BYP.s 			page 107


 5067 0f48 03       		.uleb128 0x3
 5068 0f49 91       		.byte	0x91
 5069 0f4a B87F     		.sleb128 -72
 5070 0f4c 28       		.uleb128 0x28
 5071 0f4d 01       		.uleb128 0x1
 5072 0f4e 51       		.byte	0x51
 5073 0f4f 01       		.uleb128 0x1
 5074 0f50 30       		.byte	0x30
 5075 0f51 28       		.uleb128 0x28
 5076 0f52 01       		.uleb128 0x1
 5077 0f53 52       		.byte	0x52
 5078 0f54 02       		.uleb128 0x2
 5079 0f55 08       		.byte	0x8
 5080 0f56 20       		.byte	0x20
 5081 0f57 00       		.byte	0
 5082 0f58 00       		.byte	0
 5083 0f59 36       		.uleb128 0x36
 5084 0f5a 4E020000 		.4byte	.LASF113
 5085 0f5e 01       		.byte	0x1
 5086 0f5f 8301     		.2byte	0x183
 5087 0f61 00000000 		.4byte	.LFB29
 5088 0f65 02010000 		.4byte	.LFE29-.LFB29
 5089 0f69 01       		.uleb128 0x1
 5090 0f6a 9C       		.byte	0x9c
 5091 0f6b 48110000 		.4byte	0x1148
 5092 0f6f 31       		.uleb128 0x31
 5093 0f70 647400   		.ascii	"dt\000"
 5094 0f73 01       		.byte	0x1
 5095 0f74 8301     		.2byte	0x183
 5096 0f76 9E000000 		.4byte	0x9e
 5097 0f7a 820E0000 		.4byte	.LLST87
 5098 0f7e 31       		.uleb128 0x31
 5099 0f7f 627700   		.ascii	"bw\000"
 5100 0f82 01       		.byte	0x1
 5101 0f83 8301     		.2byte	0x183
 5102 0f85 41010000 		.4byte	0x141
 5103 0f89 A30E0000 		.4byte	.LLST88
 5104 0f8d 32       		.uleb128 0x32
 5105 0f8e CD030000 		.4byte	.LASF111
 5106 0f92 01       		.byte	0x1
 5107 0f93 8401     		.2byte	0x184
 5108 0f95 0E010000 		.4byte	0x10e
 5109 0f99 C40E0000 		.4byte	.LLST89
 5110 0f9d 32       		.uleb128 0x32
 5111 0f9e 56040000 		.4byte	.LASF73
 5112 0fa2 01       		.byte	0x1
 5113 0fa3 8401     		.2byte	0x184
 5114 0fa5 7A000000 		.4byte	0x7a
 5115 0fa9 E50E0000 		.4byte	.LLST90
 5116 0fad 2C       		.uleb128 0x2c
 5117 0fae 44030000 		.4byte	.LASF112
 5118 0fb2 01       		.byte	0x1
 5119 0fb3 8401     		.2byte	0x184
 5120 0fb5 48110000 		.4byte	0x1148
 5121 0fb9 02       		.uleb128 0x2
 5122 0fba 91       		.byte	0x91
 5123 0fbb 00       		.sleb128 0
ARM GAS  C:\Users\rdn\AppData\Local\Temp\ccet7BYP.s 			page 108


 5124 0fbc 2D       		.uleb128 0x2d
 5125 0fbd 7800     		.ascii	"x\000"
 5126 0fbf 01       		.byte	0x1
 5127 0fc0 8401     		.2byte	0x184
 5128 0fc2 F6080000 		.4byte	0x8f6
 5129 0fc6 02       		.uleb128 0x2
 5130 0fc7 91       		.byte	0x91
 5131 0fc8 04       		.sleb128 4
 5132 0fc9 2E       		.uleb128 0x2e
 5133 0fca 57010000 		.4byte	.LASF99
 5134 0fce 01       		.byte	0x1
 5135 0fcf 8D01     		.2byte	0x18d
 5136 0fd1 15010000 		.4byte	0x115
 5137 0fd5 02       		.uleb128 0x2
 5138 0fd6 91       		.byte	0x91
 5139 0fd7 60       		.sleb128 -32
 5140 0fd8 33       		.uleb128 0x33
 5141 0fd9 6100     		.ascii	"a\000"
 5142 0fdb 01       		.byte	0x1
 5143 0fdc 8D01     		.2byte	0x18d
 5144 0fde D6090000 		.4byte	0x9d6
 5145 0fe2 03       		.uleb128 0x3
 5146 0fe3 91       		.byte	0x91
 5147 0fe4 987F     		.sleb128 -104
 5148 0fe6 33       		.uleb128 0x33
 5149 0fe7 726300   		.ascii	"rc\000"
 5150 0fea 01       		.byte	0x1
 5151 0feb 8E01     		.2byte	0x18e
 5152 0fed 4E110000 		.4byte	0x114e
 5153 0ff1 03       		.uleb128 0x3
 5154 0ff2 91       		.byte	0x91
 5155 0ff3 D87E     		.sleb128 -168
 5156 0ff5 2E       		.uleb128 0x2e
 5157 0ff6 69020000 		.4byte	.LASF74
 5158 0ffa 01       		.byte	0x1
 5159 0ffb 9201     		.2byte	0x192
 5160 0ffd 7A000000 		.4byte	0x7a
 5161 1001 03       		.uleb128 0x3
 5162 1002 91       		.byte	0x91
 5163 1003 CC7E     		.sleb128 -180
 5164 1005 22       		.uleb128 0x22
 5165 1006 52000000 		.4byte	.LBB83
 5166 100a 96000000 		.4byte	.LBE83-.LBB83
 5167 100e C3100000 		.4byte	0x10c3
 5168 1012 2A       		.uleb128 0x2a
 5169 1013 6600     		.ascii	"f\000"
 5170 1015 01       		.byte	0x1
 5171 1016 9601     		.2byte	0x196
 5172 1018 7A000000 		.4byte	0x7a
 5173 101c 060F0000 		.4byte	.LLST91
 5174 1020 37       		.uleb128 0x37
 5175 1021 9E000000 		.4byte	.LVL281
 5176 1025 020A0000 		.4byte	0xa02
 5177 1029 48100000 		.4byte	0x1048
 5178 102d 28       		.uleb128 0x28
 5179 102e 01       		.uleb128 0x1
 5180 102f 50       		.byte	0x50
ARM GAS  C:\Users\rdn\AppData\Local\Temp\ccet7BYP.s 			page 109


 5181 1030 03       		.uleb128 0x3
 5182 1031 F5       		.byte	0xf5
 5183 1032 05       		.uleb128 0x5
 5184 1033 25       		.uleb128 0x25
 5185 1034 28       		.uleb128 0x28
 5186 1035 01       		.uleb128 0x1
 5187 1036 51       		.byte	0x51
 5188 1037 0F       		.uleb128 0xf
 5189 1038 76       		.byte	0x76
 5190 1039 00       		.sleb128 0
 5191 103a 33       		.byte	0x33
 5192 103b 24       		.byte	0x24
 5193 103c 76       		.byte	0x76
 5194 103d 00       		.sleb128 0
 5195 103e 22       		.byte	0x22
 5196 103f 32       		.byte	0x32
 5197 1040 24       		.byte	0x24
 5198 1041 91       		.byte	0x91
 5199 1042 00       		.sleb128 0
 5200 1043 22       		.byte	0x22
 5201 1044 08       		.byte	0x8
 5202 1045 68       		.byte	0x68
 5203 1046 1C       		.byte	0x1c
 5204 1047 00       		.byte	0
 5205 1048 37       		.uleb128 0x37
 5206 1049 BE000000 		.4byte	.LVL282
 5207 104d 630A0000 		.4byte	0xa63
 5208 1051 79100000 		.4byte	0x1079
 5209 1055 28       		.uleb128 0x28
 5210 1056 01       		.uleb128 0x1
 5211 1057 50       		.byte	0x50
 5212 1058 0F       		.uleb128 0xf
 5213 1059 76       		.byte	0x76
 5214 105a 00       		.sleb128 0
 5215 105b 33       		.byte	0x33
 5216 105c 24       		.byte	0x24
 5217 105d 76       		.byte	0x76
 5218 105e 00       		.sleb128 0
 5219 105f 22       		.byte	0x22
 5220 1060 32       		.byte	0x32
 5221 1061 24       		.byte	0x24
 5222 1062 91       		.byte	0x91
 5223 1063 00       		.sleb128 0
 5224 1064 22       		.byte	0x22
 5225 1065 08       		.byte	0x8
 5226 1066 68       		.byte	0x68
 5227 1067 1C       		.byte	0x1c
 5228 1068 28       		.uleb128 0x28
 5229 1069 01       		.uleb128 0x1
 5230 106a 51       		.byte	0x51
 5231 106b 04       		.uleb128 0x4
 5232 106c 91       		.byte	0x91
 5233 106d CC7E     		.sleb128 -180
 5234 106f 06       		.byte	0x6
 5235 1070 28       		.uleb128 0x28
 5236 1071 01       		.uleb128 0x1
 5237 1072 52       		.byte	0x52
ARM GAS  C:\Users\rdn\AppData\Local\Temp\ccet7BYP.s 			page 110


 5238 1073 04       		.uleb128 0x4
 5239 1074 91       		.byte	0x91
 5240 1075 D07E     		.sleb128 -176
 5241 1077 06       		.byte	0x6
 5242 1078 00       		.byte	0
 5243 1079 37       		.uleb128 0x37
 5244 107a D6000000 		.4byte	.LVL283
 5245 107e 340B0000 		.4byte	0xb34
 5246 1082 A8100000 		.4byte	0x10a8
 5247 1086 28       		.uleb128 0x28
 5248 1087 01       		.uleb128 0x1
 5249 1088 50       		.byte	0x50
 5250 1089 04       		.uleb128 0x4
 5251 108a 91       		.byte	0x91
 5252 108b D07E     		.sleb128 -176
 5253 108d 06       		.byte	0x6
 5254 108e 28       		.uleb128 0x28
 5255 108f 01       		.uleb128 0x1
 5256 1090 51       		.byte	0x51
 5257 1091 04       		.uleb128 0x4
 5258 1092 91       		.byte	0x91
 5259 1093 CC7E     		.sleb128 -180
 5260 1095 06       		.byte	0x6
 5261 1096 28       		.uleb128 0x28
 5262 1097 01       		.uleb128 0x1
 5263 1098 52       		.byte	0x52
 5264 1099 05       		.uleb128 0x5
 5265 109a 77       		.byte	0x77
 5266 109b 00       		.sleb128 0
 5267 109c 75       		.byte	0x75
 5268 109d 00       		.sleb128 0
 5269 109e 22       		.byte	0x22
 5270 109f 28       		.uleb128 0x28
 5271 10a0 01       		.uleb128 0x1
 5272 10a1 53       		.byte	0x53
 5273 10a2 04       		.uleb128 0x4
 5274 10a3 91       		.byte	0x91
 5275 10a4 D47E     		.sleb128 -172
 5276 10a6 06       		.byte	0x6
 5277 10a7 00       		.byte	0
 5278 10a8 27       		.uleb128 0x27
 5279 10a9 E0000000 		.4byte	.LVL284
 5280 10ad F90B0000 		.4byte	0xbf9
 5281 10b1 28       		.uleb128 0x28
 5282 10b2 01       		.uleb128 0x1
 5283 10b3 50       		.byte	0x50
 5284 10b4 04       		.uleb128 0x4
 5285 10b5 91       		.byte	0x91
 5286 10b6 D47E     		.sleb128 -172
 5287 10b8 06       		.byte	0x6
 5288 10b9 28       		.uleb128 0x28
 5289 10ba 01       		.uleb128 0x1
 5290 10bb 52       		.byte	0x52
 5291 10bc 04       		.uleb128 0x4
 5292 10bd 91       		.byte	0x91
 5293 10be D07E     		.sleb128 -176
 5294 10c0 06       		.byte	0x6
ARM GAS  C:\Users\rdn\AppData\Local\Temp\ccet7BYP.s 			page 111


 5295 10c1 00       		.byte	0
 5296 10c2 00       		.byte	0
 5297 10c3 37       		.uleb128 0x37
 5298 10c4 18000000 		.4byte	.LVL275
 5299 10c8 56040000 		.4byte	0x456
 5300 10cc DE100000 		.4byte	0x10de
 5301 10d0 28       		.uleb128 0x28
 5302 10d1 01       		.uleb128 0x1
 5303 10d2 50       		.byte	0x50
 5304 10d3 02       		.uleb128 0x2
 5305 10d4 74       		.byte	0x74
 5306 10d5 00       		.sleb128 0
 5307 10d6 28       		.uleb128 0x28
 5308 10d7 01       		.uleb128 0x1
 5309 10d8 51       		.byte	0x51
 5310 10d9 03       		.uleb128 0x3
 5311 10da F3       		.byte	0xf3
 5312 10db 01       		.uleb128 0x1
 5313 10dc 53       		.byte	0x53
 5314 10dd 00       		.byte	0
 5315 10de 37       		.uleb128 0x37
 5316 10df 52000000 		.4byte	.LVL277
 5317 10e3 8D040000 		.4byte	0x48d
 5318 10e7 19110000 		.4byte	0x1119
 5319 10eb 28       		.uleb128 0x28
 5320 10ec 01       		.uleb128 0x1
 5321 10ed 50       		.byte	0x50
 5322 10ee 02       		.uleb128 0x2
 5323 10ef 74       		.byte	0x74
 5324 10f0 00       		.sleb128 0
 5325 10f1 28       		.uleb128 0x28
 5326 10f2 01       		.uleb128 0x1
 5327 10f3 51       		.byte	0x51
 5328 10f4 05       		.uleb128 0x5
 5329 10f5 91       		.byte	0x91
 5330 10f6 C87E     		.sleb128 -184
 5331 10f8 94       		.byte	0x94
 5332 10f9 01       		.byte	0x1
 5333 10fa 28       		.uleb128 0x28
 5334 10fb 01       		.uleb128 0x1
 5335 10fc 52       		.byte	0x52
 5336 10fd 04       		.uleb128 0x4
 5337 10fe 91       		.byte	0x91
 5338 10ff CC7E     		.sleb128 -180
 5339 1101 06       		.byte	0x6
 5340 1102 28       		.uleb128 0x28
 5341 1103 01       		.uleb128 0x1
 5342 1104 53       		.byte	0x53
 5343 1105 03       		.uleb128 0x3
 5344 1106 91       		.byte	0x91
 5345 1107 04       		.sleb128 4
 5346 1108 06       		.byte	0x6
 5347 1109 28       		.uleb128 0x28
 5348 110a 02       		.uleb128 0x2
 5349 110b 7D       		.byte	0x7d
 5350 110c 00       		.sleb128 0
 5351 110d 02       		.uleb128 0x2
ARM GAS  C:\Users\rdn\AppData\Local\Temp\ccet7BYP.s 			page 112


 5352 110e 91       		.byte	0x91
 5353 110f 60       		.sleb128 -32
 5354 1110 28       		.uleb128 0x28
 5355 1111 02       		.uleb128 0x2
 5356 1112 7D       		.byte	0x7d
 5357 1113 04       		.sleb128 4
 5358 1114 03       		.uleb128 0x3
 5359 1115 91       		.byte	0x91
 5360 1116 987F     		.sleb128 -104
 5361 1118 00       		.byte	0
 5362 1119 27       		.uleb128 0x27
 5363 111a FA000000 		.4byte	.LVL286
 5364 111e 780C0000 		.4byte	0xc78
 5365 1122 28       		.uleb128 0x28
 5366 1123 01       		.uleb128 0x1
 5367 1124 50       		.byte	0x50
 5368 1125 02       		.uleb128 0x2
 5369 1126 74       		.byte	0x74
 5370 1127 00       		.sleb128 0
 5371 1128 28       		.uleb128 0x28
 5372 1129 01       		.uleb128 0x1
 5373 112a 51       		.byte	0x51
 5374 112b 05       		.uleb128 0x5
 5375 112c 91       		.byte	0x91
 5376 112d C87E     		.sleb128 -184
 5377 112f 94       		.byte	0x94
 5378 1130 01       		.byte	0x1
 5379 1131 28       		.uleb128 0x28
 5380 1132 01       		.uleb128 0x1
 5381 1133 52       		.byte	0x52
 5382 1134 02       		.uleb128 0x2
 5383 1135 77       		.byte	0x77
 5384 1136 08       		.sleb128 8
 5385 1137 28       		.uleb128 0x28
 5386 1138 01       		.uleb128 0x1
 5387 1139 53       		.byte	0x53
 5388 113a 03       		.uleb128 0x3
 5389 113b 91       		.byte	0x91
 5390 113c D87E     		.sleb128 -168
 5391 113e 28       		.uleb128 0x28
 5392 113f 02       		.uleb128 0x2
 5393 1140 7D       		.byte	0x7d
 5394 1141 00       		.sleb128 0
 5395 1142 03       		.uleb128 0x3
 5396 1143 91       		.byte	0x91
 5397 1144 04       		.sleb128 4
 5398 1145 06       		.byte	0x6
 5399 1146 00       		.byte	0
 5400 1147 00       		.byte	0
 5401 1148 0E       		.uleb128 0xe
 5402 1149 04       		.byte	0x4
 5403 114a 08030000 		.4byte	0x308
 5404 114e 07       		.uleb128 0x7
 5405 114f 25000000 		.4byte	0x25
 5406 1153 64110000 		.4byte	0x1164
 5407 1157 08       		.uleb128 0x8
 5408 1158 25010000 		.4byte	0x125
ARM GAS  C:\Users\rdn\AppData\Local\Temp\ccet7BYP.s 			page 113


 5409 115c 01       		.byte	0x1
 5410 115d 08       		.uleb128 0x8
 5411 115e 25010000 		.4byte	0x125
 5412 1162 07       		.byte	0x7
 5413 1163 00       		.byte	0
 5414 1164 38       		.uleb128 0x38
 5415 1165 AD050000 		.4byte	.LASF114
 5416 1169 01       		.byte	0x1
 5417 116a AB01     		.2byte	0x1ab
 5418 116c 00000000 		.4byte	.LFB30
 5419 1170 52000000 		.4byte	.LFE30-.LFB30
 5420 1174 01       		.uleb128 0x1
 5421 1175 9C       		.byte	0x9c
 5422 1176 54120000 		.4byte	0x1254
 5423 117a 31       		.uleb128 0x31
 5424 117b 647400   		.ascii	"dt\000"
 5425 117e 01       		.byte	0x1
 5426 117f AB01     		.2byte	0x1ab
 5427 1181 9E000000 		.4byte	0x9e
 5428 1185 250F0000 		.4byte	.LLST92
 5429 1189 31       		.uleb128 0x31
 5430 118a 627700   		.ascii	"bw\000"
 5431 118d 01       		.byte	0x1
 5432 118e AB01     		.2byte	0x1ab
 5433 1190 41010000 		.4byte	0x141
 5434 1194 460F0000 		.4byte	.LLST93
 5435 1198 32       		.uleb128 0x32
 5436 1199 44030000 		.4byte	.LASF112
 5437 119d 01       		.byte	0x1
 5438 119e AC01     		.2byte	0x1ac
 5439 11a0 54120000 		.4byte	0x1254
 5440 11a4 670F0000 		.4byte	.LLST94
 5441 11a8 31       		.uleb128 0x31
 5442 11a9 7800     		.ascii	"x\000"
 5443 11ab 01       		.byte	0x1
 5444 11ac AC01     		.2byte	0x1ac
 5445 11ae F6080000 		.4byte	0x8f6
 5446 11b2 930F0000 		.4byte	.LLST95
 5447 11b6 33       		.uleb128 0x33
 5448 11b7 726300   		.ascii	"rc\000"
 5449 11ba 01       		.byte	0x1
 5450 11bb AE01     		.2byte	0x1ae
 5451 11bd 4E110000 		.4byte	0x114e
 5452 11c1 03       		.uleb128 0x3
 5453 11c2 91       		.byte	0x91
 5454 11c3 A87F     		.sleb128 -88
 5455 11c5 22       		.uleb128 0x22
 5456 11c6 16000000 		.4byte	.LBB84
 5457 11ca 28000000 		.4byte	.LBE84-.LBB84
 5458 11ce 06120000 		.4byte	0x1206
 5459 11d2 2A       		.uleb128 0x2a
 5460 11d3 6600     		.ascii	"f\000"
 5461 11d5 01       		.byte	0x1
 5462 11d6 B001     		.2byte	0x1b0
 5463 11d8 7A000000 		.4byte	0x7a
 5464 11dc BF0F0000 		.4byte	.LLST96
 5465 11e0 27       		.uleb128 0x27
ARM GAS  C:\Users\rdn\AppData\Local\Temp\ccet7BYP.s 			page 114


 5466 11e1 36000000 		.4byte	.LVL294
 5467 11e5 F90B0000 		.4byte	0xbf9
 5468 11e9 28       		.uleb128 0x28
 5469 11ea 01       		.uleb128 0x1
 5470 11eb 50       		.byte	0x50
 5471 11ec 09       		.uleb128 0x9
 5472 11ed 74       		.byte	0x74
 5473 11ee 00       		.sleb128 0
 5474 11ef 35       		.byte	0x35
 5475 11f0 24       		.byte	0x24
 5476 11f1 75       		.byte	0x75
 5477 11f2 00       		.sleb128 0
 5478 11f3 22       		.byte	0x22
 5479 11f4 23       		.byte	0x23
 5480 11f5 10       		.uleb128 0x10
 5481 11f6 28       		.uleb128 0x28
 5482 11f7 01       		.uleb128 0x1
 5483 11f8 52       		.byte	0x52
 5484 11f9 0A       		.uleb128 0xa
 5485 11fa 74       		.byte	0x74
 5486 11fb 00       		.sleb128 0
 5487 11fc 35       		.byte	0x35
 5488 11fd 24       		.byte	0x24
 5489 11fe 91       		.byte	0x91
 5490 11ff 00       		.sleb128 0
 5491 1200 22       		.byte	0x22
 5492 1201 08       		.byte	0x8
 5493 1202 58       		.byte	0x58
 5494 1203 1C       		.byte	0x1c
 5495 1204 00       		.byte	0
 5496 1205 00       		.byte	0
 5497 1206 37       		.uleb128 0x37
 5498 1207 16000000 		.4byte	.LVL292
 5499 120b 2F180000 		.4byte	0x182f
 5500 120f 26120000 		.4byte	0x1226
 5501 1213 28       		.uleb128 0x28
 5502 1214 01       		.uleb128 0x1
 5503 1215 50       		.byte	0x50
 5504 1216 03       		.uleb128 0x3
 5505 1217 91       		.byte	0x91
 5506 1218 A87F     		.sleb128 -88
 5507 121a 28       		.uleb128 0x28
 5508 121b 01       		.uleb128 0x1
 5509 121c 51       		.byte	0x51
 5510 121d 01       		.uleb128 0x1
 5511 121e 30       		.byte	0x30
 5512 121f 28       		.uleb128 0x28
 5513 1220 01       		.uleb128 0x1
 5514 1221 52       		.byte	0x52
 5515 1222 02       		.uleb128 0x2
 5516 1223 08       		.byte	0x8
 5517 1224 40       		.byte	0x40
 5518 1225 00       		.byte	0
 5519 1226 27       		.uleb128 0x27
 5520 1227 4E000000 		.4byte	.LVL296
 5521 122b ED0D0000 		.4byte	0xded
 5522 122f 28       		.uleb128 0x28
ARM GAS  C:\Users\rdn\AppData\Local\Temp\ccet7BYP.s 			page 115


 5523 1230 01       		.uleb128 0x1
 5524 1231 50       		.byte	0x50
 5525 1232 05       		.uleb128 0x5
 5526 1233 91       		.byte	0x91
 5527 1234 A47F     		.sleb128 -92
 5528 1236 94       		.byte	0x94
 5529 1237 01       		.byte	0x1
 5530 1238 28       		.uleb128 0x28
 5531 1239 01       		.uleb128 0x1
 5532 123a 51       		.byte	0x51
 5533 123b 02       		.uleb128 0x2
 5534 123c 77       		.byte	0x77
 5535 123d 00       		.sleb128 0
 5536 123e 28       		.uleb128 0x28
 5537 123f 01       		.uleb128 0x1
 5538 1240 52       		.byte	0x52
 5539 1241 02       		.uleb128 0x2
 5540 1242 75       		.byte	0x75
 5541 1243 08       		.sleb128 8
 5542 1244 28       		.uleb128 0x28
 5543 1245 01       		.uleb128 0x1
 5544 1246 53       		.byte	0x53
 5545 1247 03       		.uleb128 0x3
 5546 1248 91       		.byte	0x91
 5547 1249 A87F     		.sleb128 -88
 5548 124b 28       		.uleb128 0x28
 5549 124c 02       		.uleb128 0x2
 5550 124d 7D       		.byte	0x7d
 5551 124e 00       		.sleb128 0
 5552 124f 02       		.uleb128 0x2
 5553 1250 76       		.byte	0x76
 5554 1251 00       		.sleb128 0
 5555 1252 00       		.byte	0
 5556 1253 00       		.byte	0
 5557 1254 0E       		.uleb128 0xe
 5558 1255 04       		.byte	0x4
 5559 1256 5A120000 		.4byte	0x125a
 5560 125a 0F       		.uleb128 0xf
 5561 125b 08030000 		.4byte	0x308
 5562 125f 39       		.uleb128 0x39
 5563 1260 70070000 		.4byte	.LASF124
 5564 1264 01       		.byte	0x1
 5565 1265 BA01     		.2byte	0x1ba
 5566 1267 7A000000 		.4byte	0x7a
 5567 126b 00000000 		.4byte	.LFB31
 5568 126f 74000000 		.4byte	.LFE31-.LFB31
 5569 1273 01       		.uleb128 0x1
 5570 1274 9C       		.byte	0x9c
 5571 1275 F0120000 		.4byte	0x12f0
 5572 1279 32       		.uleb128 0x32
 5573 127a 44030000 		.4byte	.LASF112
 5574 127e 01       		.byte	0x1
 5575 127f BA01     		.2byte	0x1ba
 5576 1281 54120000 		.4byte	0x1254
 5577 1285 DE0F0000 		.4byte	.LLST97
 5578 1289 2F       		.uleb128 0x2f
 5579 128a 2C040000 		.4byte	.LASF115
ARM GAS  C:\Users\rdn\AppData\Local\Temp\ccet7BYP.s 			page 116


 5580 128e 01       		.byte	0x1
 5581 128f BC01     		.2byte	0x1bc
 5582 1291 7A000000 		.4byte	0x7a
 5583 1295 FF0F0000 		.4byte	.LLST98
 5584 1299 29       		.uleb128 0x29
 5585 129a 78000000 		.4byte	.Ldebug_ranges0+0x78
 5586 129e 2A       		.uleb128 0x2a
 5587 129f 6600     		.ascii	"f\000"
 5588 12a1 01       		.byte	0x1
 5589 12a2 BE01     		.2byte	0x1be
 5590 12a4 7A000000 		.4byte	0x7a
 5591 12a8 29100000 		.4byte	.LLST99
 5592 12ac 23       		.uleb128 0x23
 5593 12ad 08000000 		.4byte	.LBB86
 5594 12b1 54000000 		.4byte	.LBE86-.LBB86
 5595 12b5 2F       		.uleb128 0x2f
 5596 12b6 8B000000 		.4byte	.LASF116
 5597 12ba 01       		.byte	0x1
 5598 12bb C001     		.2byte	0x1c0
 5599 12bd 7A000000 		.4byte	0x7a
 5600 12c1 48100000 		.4byte	.LLST100
 5601 12c5 2F       		.uleb128 0x2f
 5602 12c6 60000000 		.4byte	.LASF68
 5603 12ca 01       		.byte	0x1
 5604 12cb C101     		.2byte	0x1c1
 5605 12cd 7A000000 		.4byte	0x7a
 5606 12d1 77100000 		.4byte	.LLST101
 5607 12d5 23       		.uleb128 0x23
 5608 12d6 2C000000 		.4byte	.LBB87
 5609 12da 26000000 		.4byte	.LBE87-.LBB87
 5610 12de 2A       		.uleb128 0x2a
 5611 12df 6900     		.ascii	"i\000"
 5612 12e1 01       		.byte	0x1
 5613 12e2 C601     		.2byte	0x1c6
 5614 12e4 7A000000 		.4byte	0x7a
 5615 12e8 8A100000 		.4byte	.LLST102
 5616 12ec 00       		.byte	0
 5617 12ed 00       		.byte	0
 5618 12ee 00       		.byte	0
 5619 12ef 00       		.byte	0
 5620 12f0 3A       		.uleb128 0x3a
 5621 12f1 98040000 		.4byte	.LASF118
 5622 12f5 03       		.byte	0x3
 5623 12f6 0201     		.2byte	0x102
 5624 12f8 03       		.byte	0x3
 5625 12f9 43130000 		.4byte	0x1343
 5626 12fd 3B       		.uleb128 0x3b
 5627 12fe C8030000 		.4byte	.LASF72
 5628 1302 03       		.byte	0x3
 5629 1303 0301     		.2byte	0x103
 5630 1305 15040000 		.4byte	0x415
 5631 1309 3B       		.uleb128 0x3b
 5632 130a 08030000 		.4byte	.LASF119
 5633 130e 03       		.byte	0x3
 5634 130f 0301     		.2byte	0x103
 5635 1311 43130000 		.4byte	0x1343
 5636 1315 3C       		.uleb128 0x3c
ARM GAS  C:\Users\rdn\AppData\Local\Temp\ccet7BYP.s 			page 117


 5637 1316 7300     		.ascii	"s\000"
 5638 1318 03       		.byte	0x3
 5639 1319 0301     		.2byte	0x103
 5640 131b 81000000 		.4byte	0x81
 5641 131f 3D       		.uleb128 0x3d
 5642 1320 1E050000 		.4byte	.LASF120
 5643 1324 03       		.byte	0x3
 5644 1325 0501     		.2byte	0x105
 5645 1327 4E130000 		.4byte	0x134e
 5646 132b 3E       		.uleb128 0x3e
 5647 132c 616300   		.ascii	"ac\000"
 5648 132f 03       		.byte	0x3
 5649 1330 0601     		.2byte	0x106
 5650 1332 59130000 		.4byte	0x1359
 5651 1336 3D       		.uleb128 0x3d
 5652 1337 7F040000 		.4byte	.LASF46
 5653 133b 03       		.byte	0x3
 5654 133c 0701     		.2byte	0x107
 5655 133e 81000000 		.4byte	0x81
 5656 1342 00       		.byte	0
 5657 1343 0E       		.uleb128 0xe
 5658 1344 04       		.byte	0x4
 5659 1345 49130000 		.4byte	0x1349
 5660 1349 0F       		.uleb128 0xf
 5661 134a CA010000 		.4byte	0x1ca
 5662 134e 0E       		.uleb128 0xe
 5663 134f 04       		.byte	0x4
 5664 1350 54130000 		.4byte	0x1354
 5665 1354 0F       		.uleb128 0xf
 5666 1355 9F010000 		.4byte	0x19f
 5667 1359 0E       		.uleb128 0xe
 5668 135a 04       		.byte	0x4
 5669 135b 1E020000 		.4byte	0x21e
 5670 135f 38       		.uleb128 0x38
 5671 1360 D0060000 		.4byte	.LASF121
 5672 1364 01       		.byte	0x1
 5673 1365 D201     		.2byte	0x1d2
 5674 1367 00000000 		.4byte	.LFB32
 5675 136b F8000000 		.4byte	.LFE32-.LFB32
 5676 136f 01       		.uleb128 0x1
 5677 1370 9C       		.byte	0x9c
 5678 1371 FA140000 		.4byte	0x14fa
 5679 1375 32       		.uleb128 0x32
 5680 1376 C8030000 		.4byte	.LASF72
 5681 137a 01       		.byte	0x1
 5682 137b D201     		.2byte	0x1d2
 5683 137d FA140000 		.4byte	0x14fa
 5684 1381 A9100000 		.4byte	.LLST103
 5685 1385 32       		.uleb128 0x32
 5686 1386 44030000 		.4byte	.LASF112
 5687 138a 01       		.byte	0x1
 5688 138b D201     		.2byte	0x1d2
 5689 138d 54120000 		.4byte	0x1254
 5690 1391 D5100000 		.4byte	.LLST104
 5691 1395 23       		.uleb128 0x23
 5692 1396 0A000000 		.4byte	.LBB98
 5693 139a DA000000 		.4byte	.LBE98-.LBB98
ARM GAS  C:\Users\rdn\AppData\Local\Temp\ccet7BYP.s 			page 118


 5694 139e 2A       		.uleb128 0x2a
 5695 139f 6600     		.ascii	"f\000"
 5696 13a1 01       		.byte	0x1
 5697 13a2 D401     		.2byte	0x1d4
 5698 13a4 7A000000 		.4byte	0x7a
 5699 13a8 01110000 		.4byte	.LLST105
 5700 13ac 23       		.uleb128 0x23
 5701 13ad 0E000000 		.4byte	.LBB99
 5702 13b1 CC000000 		.4byte	.LBE99-.LBB99
 5703 13b5 2F       		.uleb128 0x2f
 5704 13b6 60000000 		.4byte	.LASF68
 5705 13ba 01       		.byte	0x1
 5706 13bb D501     		.2byte	0x1d5
 5707 13bd 7A000000 		.4byte	0x7a
 5708 13c1 20110000 		.4byte	.LLST106
 5709 13c5 34       		.uleb128 0x34
 5710 13c6 21040000 		.4byte	0x421
 5711 13ca 1C000000 		.4byte	.LBB100
 5712 13ce 1C000000 		.4byte	.LBE100-.LBB100
 5713 13d2 01       		.byte	0x1
 5714 13d3 D701     		.2byte	0x1d7
 5715 13d5 1D140000 		.4byte	0x141d
 5716 13d9 25       		.uleb128 0x25
 5717 13da 41040000 		.4byte	0x441
 5718 13de 33110000 		.4byte	.LLST107
 5719 13e2 25       		.uleb128 0x25
 5720 13e3 38040000 		.4byte	0x438
 5721 13e7 47110000 		.4byte	.LLST108
 5722 13eb 25       		.uleb128 0x25
 5723 13ec 2D040000 		.4byte	0x42d
 5724 13f0 8D110000 		.4byte	.LLST109
 5725 13f4 23       		.uleb128 0x23
 5726 13f5 1C000000 		.4byte	.LBB101
 5727 13f9 1C000000 		.4byte	.LBE101-.LBB101
 5728 13fd 26       		.uleb128 0x26
 5729 13fe 4A040000 		.4byte	0x44a
 5730 1402 A0110000 		.4byte	.LLST110
 5731 1406 27       		.uleb128 0x27
 5732 1407 38000000 		.4byte	.LVL322
 5733 140b 38180000 		.4byte	0x1838
 5734 140f 28       		.uleb128 0x28
 5735 1410 01       		.uleb128 0x1
 5736 1411 50       		.byte	0x50
 5737 1412 02       		.uleb128 0x2
 5738 1413 74       		.byte	0x74
 5739 1414 00       		.sleb128 0
 5740 1415 28       		.uleb128 0x28
 5741 1416 01       		.uleb128 0x1
 5742 1417 52       		.byte	0x52
 5743 1418 01       		.uleb128 0x1
 5744 1419 31       		.byte	0x31
 5745 141a 00       		.byte	0
 5746 141b 00       		.byte	0
 5747 141c 00       		.byte	0
 5748 141d 34       		.uleb128 0x34
 5749 141e F0120000 		.4byte	0x12f0
 5750 1422 4C000000 		.4byte	.LBB102
ARM GAS  C:\Users\rdn\AppData\Local\Temp\ccet7BYP.s 			page 119


 5751 1426 34000000 		.4byte	.LBE102-.LBB102
 5752 142a 01       		.byte	0x1
 5753 142b DB01     		.2byte	0x1db
 5754 142d 7E140000 		.4byte	0x147e
 5755 1431 3F       		.uleb128 0x3f
 5756 1432 15130000 		.4byte	0x1315
 5757 1436 25       		.uleb128 0x25
 5758 1437 09130000 		.4byte	0x1309
 5759 143b B5110000 		.4byte	.LLST111
 5760 143f 25       		.uleb128 0x25
 5761 1440 FD120000 		.4byte	0x12fd
 5762 1444 C8110000 		.4byte	.LLST112
 5763 1448 23       		.uleb128 0x23
 5764 1449 4C000000 		.4byte	.LBB103
 5765 144d 34000000 		.4byte	.LBE103-.LBB103
 5766 1451 26       		.uleb128 0x26
 5767 1452 1F130000 		.4byte	0x131f
 5768 1456 B5110000 		.4byte	.LLST111
 5769 145a 26       		.uleb128 0x26
 5770 145b 2B130000 		.4byte	0x132b
 5771 145f DB110000 		.4byte	.LLST114
 5772 1463 26       		.uleb128 0x26
 5773 1464 36130000 		.4byte	0x1336
 5774 1468 FD110000 		.4byte	.LLST115
 5775 146c 27       		.uleb128 0x27
 5776 146d 80000000 		.4byte	.LVL328
 5777 1471 43180000 		.4byte	0x1843
 5778 1475 28       		.uleb128 0x28
 5779 1476 01       		.uleb128 0x1
 5780 1477 50       		.byte	0x50
 5781 1478 02       		.uleb128 0x2
 5782 1479 74       		.byte	0x74
 5783 147a 00       		.sleb128 0
 5784 147b 00       		.byte	0
 5785 147c 00       		.byte	0
 5786 147d 00       		.byte	0
 5787 147e 23       		.uleb128 0x23
 5788 147f 80000000 		.4byte	.LBB104
 5789 1483 5A000000 		.4byte	.LBE104-.LBB104
 5790 1487 2A       		.uleb128 0x2a
 5791 1488 6900     		.ascii	"i\000"
 5792 148a 01       		.byte	0x1
 5793 148b DE01     		.2byte	0x1de
 5794 148d 7A000000 		.4byte	0x7a
 5795 1491 10120000 		.4byte	.LLST116
 5796 1495 40       		.uleb128 0x40
 5797 1496 F0120000 		.4byte	0x12f0
 5798 149a 9C000000 		.4byte	.LBB105
 5799 149e 34000000 		.4byte	.LBE105-.LBB105
 5800 14a2 01       		.byte	0x1
 5801 14a3 DF01     		.2byte	0x1df
 5802 14a5 25       		.uleb128 0x25
 5803 14a6 15130000 		.4byte	0x1315
 5804 14aa 2E120000 		.4byte	.LLST117
 5805 14ae 25       		.uleb128 0x25
 5806 14af 09130000 		.4byte	0x1309
 5807 14b3 5D120000 		.4byte	.LLST118
ARM GAS  C:\Users\rdn\AppData\Local\Temp\ccet7BYP.s 			page 120


 5808 14b7 25       		.uleb128 0x25
 5809 14b8 FD120000 		.4byte	0x12fd
 5810 14bc 70120000 		.4byte	.LLST119
 5811 14c0 23       		.uleb128 0x23
 5812 14c1 9C000000 		.4byte	.LBB106
 5813 14c5 34000000 		.4byte	.LBE106-.LBB106
 5814 14c9 26       		.uleb128 0x26
 5815 14ca 1F130000 		.4byte	0x131f
 5816 14ce 5D120000 		.4byte	.LLST118
 5817 14d2 26       		.uleb128 0x26
 5818 14d3 2B130000 		.4byte	0x132b
 5819 14d7 83120000 		.4byte	.LLST121
 5820 14db 26       		.uleb128 0x26
 5821 14dc 36130000 		.4byte	0x1336
 5822 14e0 98120000 		.4byte	.LLST122
 5823 14e4 27       		.uleb128 0x27
 5824 14e5 D0000000 		.4byte	.LVL336
 5825 14e9 43180000 		.4byte	0x1843
 5826 14ed 28       		.uleb128 0x28
 5827 14ee 01       		.uleb128 0x1
 5828 14ef 50       		.byte	0x50
 5829 14f0 02       		.uleb128 0x2
 5830 14f1 74       		.byte	0x74
 5831 14f2 00       		.sleb128 0
 5832 14f3 00       		.byte	0
 5833 14f4 00       		.byte	0
 5834 14f5 00       		.byte	0
 5835 14f6 00       		.byte	0
 5836 14f7 00       		.byte	0
 5837 14f8 00       		.byte	0
 5838 14f9 00       		.byte	0
 5839 14fa 0E       		.uleb128 0xe
 5840 14fb 04       		.byte	0x4
 5841 14fc FD020000 		.4byte	0x2fd
 5842 1500 13       		.uleb128 0x13
 5843 1501 0E040000 		.4byte	.LASF122
 5844 1505 03       		.byte	0x3
 5845 1506 EA       		.byte	0xea
 5846 1507 7A000000 		.4byte	0x7a
 5847 150b 03       		.byte	0x3
 5848 150c 1C150000 		.4byte	0x151c
 5849 1510 14       		.uleb128 0x14
 5850 1511 C8030000 		.4byte	.LASF72
 5851 1515 03       		.byte	0x3
 5852 1516 EA       		.byte	0xea
 5853 1517 FA140000 		.4byte	0x14fa
 5854 151b 00       		.byte	0
 5855 151c 41       		.uleb128 0x41
 5856 151d 0F070000 		.4byte	.LASF123
 5857 1521 03       		.byte	0x3
 5858 1522 1601     		.2byte	0x116
 5859 1524 81000000 		.4byte	0x81
 5860 1528 03       		.byte	0x3
 5861 1529 73150000 		.4byte	0x1573
 5862 152d 3B       		.uleb128 0x3b
 5863 152e C8030000 		.4byte	.LASF72
 5864 1532 03       		.byte	0x3
ARM GAS  C:\Users\rdn\AppData\Local\Temp\ccet7BYP.s 			page 121


 5865 1533 1701     		.2byte	0x117
 5866 1535 FA140000 		.4byte	0x14fa
 5867 1539 3B       		.uleb128 0x3b
 5868 153a 08030000 		.4byte	.LASF119
 5869 153e 03       		.byte	0x3
 5870 153f 1701     		.2byte	0x117
 5871 1541 43130000 		.4byte	0x1343
 5872 1545 3D       		.uleb128 0x3d
 5873 1546 1E050000 		.4byte	.LASF120
 5874 154a 03       		.byte	0x3
 5875 154b 1901     		.2byte	0x119
 5876 154d 4E130000 		.4byte	0x134e
 5877 1551 3E       		.uleb128 0x3e
 5878 1552 616300   		.ascii	"ac\000"
 5879 1555 03       		.byte	0x3
 5880 1556 1A01     		.2byte	0x11a
 5881 1558 59130000 		.4byte	0x1359
 5882 155c 3D       		.uleb128 0x3d
 5883 155d 7F040000 		.4byte	.LASF46
 5884 1561 03       		.byte	0x3
 5885 1562 1C01     		.2byte	0x11c
 5886 1564 81000000 		.4byte	0x81
 5887 1568 3E       		.uleb128 0x3e
 5888 1569 7300     		.ascii	"s\000"
 5889 156b 03       		.byte	0x3
 5890 156c 2201     		.2byte	0x122
 5891 156e 7A000000 		.4byte	0x7a
 5892 1572 00       		.byte	0
 5893 1573 39       		.uleb128 0x39
 5894 1574 7C050000 		.4byte	.LASF125
 5895 1578 01       		.byte	0x1
 5896 1579 E701     		.2byte	0x1e7
 5897 157b 7A000000 		.4byte	0x7a
 5898 157f 00000000 		.4byte	.LFB33
 5899 1583 2C020000 		.4byte	.LFE33-.LFB33
 5900 1587 01       		.uleb128 0x1
 5901 1588 9C       		.byte	0x9c
 5902 1589 5B170000 		.4byte	0x175b
 5903 158d 32       		.uleb128 0x32
 5904 158e C8030000 		.4byte	.LASF72
 5905 1592 01       		.byte	0x1
 5906 1593 E701     		.2byte	0x1e7
 5907 1595 FA140000 		.4byte	0x14fa
 5908 1599 AB120000 		.4byte	.LLST123
 5909 159d 31       		.uleb128 0x31
 5910 159e 647400   		.ascii	"dt\000"
 5911 15a1 01       		.byte	0x1
 5912 15a2 E801     		.2byte	0x1e8
 5913 15a4 9E000000 		.4byte	0x9e
 5914 15a8 D7120000 		.4byte	.LLST124
 5915 15ac 31       		.uleb128 0x31
 5916 15ad 627700   		.ascii	"bw\000"
 5917 15b0 01       		.byte	0x1
 5918 15b1 E801     		.2byte	0x1e8
 5919 15b3 41010000 		.4byte	0x141
 5920 15b7 F8120000 		.4byte	.LLST125
 5921 15bb 32       		.uleb128 0x32
ARM GAS  C:\Users\rdn\AppData\Local\Temp\ccet7BYP.s 			page 122


 5922 15bc 56040000 		.4byte	.LASF73
 5923 15c0 01       		.byte	0x1
 5924 15c1 E801     		.2byte	0x1e8
 5925 15c3 7A000000 		.4byte	0x7a
 5926 15c7 4B130000 		.4byte	.LLST126
 5927 15cb 2C       		.uleb128 0x2c
 5928 15cc 44030000 		.4byte	.LASF112
 5929 15d0 01       		.byte	0x1
 5930 15d1 E801     		.2byte	0x1e8
 5931 15d3 5B170000 		.4byte	0x175b
 5932 15d7 02       		.uleb128 0x2
 5933 15d8 91       		.byte	0x91
 5934 15d9 00       		.sleb128 0
 5935 15da 35       		.uleb128 0x35
 5936 15db 90000000 		.4byte	.Ldebug_ranges0+0x90
 5937 15df 43170000 		.4byte	0x1743
 5938 15e3 2A       		.uleb128 0x2a
 5939 15e4 6600     		.ascii	"f\000"
 5940 15e6 01       		.byte	0x1
 5941 15e7 ED01     		.2byte	0x1ed
 5942 15e9 7A000000 		.4byte	0x7a
 5943 15ed 6C130000 		.4byte	.LLST127
 5944 15f1 34       		.uleb128 0x34
 5945 15f2 00150000 		.4byte	0x1500
 5946 15f6 3C000000 		.4byte	.LBB119
 5947 15fa 1C000000 		.4byte	.LBE119-.LBB119
 5948 15fe 01       		.byte	0x1
 5949 15ff EF01     		.2byte	0x1ef
 5950 1601 70160000 		.4byte	0x1670
 5951 1605 25       		.uleb128 0x25
 5952 1606 10150000 		.4byte	0x1510
 5953 160a 8B130000 		.4byte	.LLST128
 5954 160e 24       		.uleb128 0x24
 5955 160f DA030000 		.4byte	0x3da
 5956 1613 3C000000 		.4byte	.LBB121
 5957 1617 1C000000 		.4byte	.LBE121-.LBB121
 5958 161b 03       		.byte	0x3
 5959 161c EC       		.byte	0xec
 5960 161d 25       		.uleb128 0x25
 5961 161e F5030000 		.4byte	0x3f5
 5962 1622 9E130000 		.4byte	.LLST129
 5963 1626 25       		.uleb128 0x25
 5964 1627 EA030000 		.4byte	0x3ea
 5965 162b 8B130000 		.4byte	.LLST128
 5966 162f 23       		.uleb128 0x23
 5967 1630 3C000000 		.4byte	.LBB122
 5968 1634 1C000000 		.4byte	.LBE122-.LBB122
 5969 1638 26       		.uleb128 0x26
 5970 1639 FE030000 		.4byte	0x3fe
 5971 163d B2130000 		.4byte	.LLST131
 5972 1641 22       		.uleb128 0x22
 5973 1642 44000000 		.4byte	.LBB123
 5974 1646 0C000000 		.4byte	.LBE123-.LBB123
 5975 164a 58160000 		.4byte	0x1658
 5976 164e 26       		.uleb128 0x26
 5977 164f 0A040000 		.4byte	0x40a
 5978 1653 D4130000 		.4byte	.LLST132
ARM GAS  C:\Users\rdn\AppData\Local\Temp\ccet7BYP.s 			page 123


 5979 1657 00       		.byte	0
 5980 1658 27       		.uleb128 0x27
 5981 1659 58000000 		.4byte	.LVL358
 5982 165d 4E180000 		.4byte	0x184e
 5983 1661 28       		.uleb128 0x28
 5984 1662 01       		.uleb128 0x1
 5985 1663 50       		.byte	0x50
 5986 1664 02       		.uleb128 0x2
 5987 1665 74       		.byte	0x74
 5988 1666 00       		.sleb128 0
 5989 1667 28       		.uleb128 0x28
 5990 1668 01       		.uleb128 0x1
 5991 1669 51       		.byte	0x51
 5992 166a 01       		.uleb128 0x1
 5993 166b 31       		.byte	0x31
 5994 166c 00       		.byte	0
 5995 166d 00       		.byte	0
 5996 166e 00       		.byte	0
 5997 166f 00       		.byte	0
 5998 1670 34       		.uleb128 0x34
 5999 1671 1C150000 		.4byte	0x151c
 6000 1675 72000000 		.4byte	.LBB124
 6001 1679 9C000000 		.4byte	.LBE124-.LBB124
 6002 167d 01       		.byte	0x1
 6003 167e F301     		.2byte	0x1f3
 6004 1680 D1160000 		.4byte	0x16d1
 6005 1684 3F       		.uleb128 0x3f
 6006 1685 39150000 		.4byte	0x1539
 6007 1689 25       		.uleb128 0x25
 6008 168a 2D150000 		.4byte	0x152d
 6009 168e E7130000 		.4byte	.LLST133
 6010 1692 23       		.uleb128 0x23
 6011 1693 72000000 		.4byte	.LBB125
 6012 1697 9C000000 		.4byte	.LBE125-.LBB125
 6013 169b 26       		.uleb128 0x26
 6014 169c 45150000 		.4byte	0x1545
 6015 16a0 FA130000 		.4byte	.LLST134
 6016 16a4 26       		.uleb128 0x26
 6017 16a5 51150000 		.4byte	0x1551
 6018 16a9 0D140000 		.4byte	.LLST135
 6019 16ad 26       		.uleb128 0x26
 6020 16ae 5C150000 		.4byte	0x155c
 6021 16b2 3C140000 		.4byte	.LLST136
 6022 16b6 26       		.uleb128 0x26
 6023 16b7 68150000 		.4byte	0x1568
 6024 16bb 63140000 		.4byte	.LLST137
 6025 16bf 27       		.uleb128 0x27
 6026 16c0 0E010000 		.4byte	.LVL373
 6027 16c4 59180000 		.4byte	0x1859
 6028 16c8 28       		.uleb128 0x28
 6029 16c9 01       		.uleb128 0x1
 6030 16ca 50       		.byte	0x50
 6031 16cb 02       		.uleb128 0x2
 6032 16cc 74       		.byte	0x74
 6033 16cd 00       		.sleb128 0
 6034 16ce 00       		.byte	0
 6035 16cf 00       		.byte	0
ARM GAS  C:\Users\rdn\AppData\Local\Temp\ccet7BYP.s 			page 124


 6036 16d0 00       		.byte	0
 6037 16d1 29       		.uleb128 0x29
 6038 16d2 A8000000 		.4byte	.Ldebug_ranges0+0xa8
 6039 16d6 2A       		.uleb128 0x2a
 6040 16d7 6900     		.ascii	"i\000"
 6041 16d9 01       		.byte	0x1
 6042 16da F801     		.2byte	0x1f8
 6043 16dc 7A000000 		.4byte	0x7a
 6044 16e0 C6140000 		.4byte	.LLST138
 6045 16e4 40       		.uleb128 0x40
 6046 16e5 1C150000 		.4byte	0x151c
 6047 16e9 36010000 		.4byte	.LBB127
 6048 16ed A8000000 		.4byte	.LBE127-.LBB127
 6049 16f1 01       		.byte	0x1
 6050 16f2 F901     		.2byte	0x1f9
 6051 16f4 3F       		.uleb128 0x3f
 6052 16f5 39150000 		.4byte	0x1539
 6053 16f9 25       		.uleb128 0x25
 6054 16fa 2D150000 		.4byte	0x152d
 6055 16fe E4140000 		.4byte	.LLST139
 6056 1702 23       		.uleb128 0x23
 6057 1703 36010000 		.4byte	.LBB128
 6058 1707 A8000000 		.4byte	.LBE128-.LBB128
 6059 170b 26       		.uleb128 0x26
 6060 170c 45150000 		.4byte	0x1545
 6061 1710 F7140000 		.4byte	.LLST140
 6062 1714 26       		.uleb128 0x26
 6063 1715 51150000 		.4byte	0x1551
 6064 1719 0A150000 		.4byte	.LLST141
 6065 171d 26       		.uleb128 0x26
 6066 171e 5C150000 		.4byte	0x155c
 6067 1722 1F150000 		.4byte	.LLST142
 6068 1726 26       		.uleb128 0x26
 6069 1727 68150000 		.4byte	0x1568
 6070 172b 46150000 		.4byte	.LLST143
 6071 172f 27       		.uleb128 0x27
 6072 1730 DE010000 		.4byte	.LVL389
 6073 1734 59180000 		.4byte	0x1859
 6074 1738 28       		.uleb128 0x28
 6075 1739 01       		.uleb128 0x1
 6076 173a 50       		.byte	0x50
 6077 173b 02       		.uleb128 0x2
 6078 173c 74       		.byte	0x74
 6079 173d 00       		.sleb128 0
 6080 173e 00       		.byte	0
 6081 173f 00       		.byte	0
 6082 1740 00       		.byte	0
 6083 1741 00       		.byte	0
 6084 1742 00       		.byte	0
 6085 1743 27       		.uleb128 0x27
 6086 1744 34000000 		.4byte	.LVL353
 6087 1748 56040000 		.4byte	0x456
 6088 174c 28       		.uleb128 0x28
 6089 174d 01       		.uleb128 0x1
 6090 174e 50       		.byte	0x50
 6091 174f 02       		.uleb128 0x2
 6092 1750 78       		.byte	0x78
ARM GAS  C:\Users\rdn\AppData\Local\Temp\ccet7BYP.s 			page 125


 6093 1751 00       		.sleb128 0
 6094 1752 28       		.uleb128 0x28
 6095 1753 01       		.uleb128 0x1
 6096 1754 51       		.byte	0x51
 6097 1755 03       		.uleb128 0x3
 6098 1756 F3       		.byte	0xf3
 6099 1757 01       		.uleb128 0x1
 6100 1758 53       		.byte	0x53
 6101 1759 00       		.byte	0
 6102 175a 00       		.byte	0
 6103 175b 0E       		.uleb128 0xe
 6104 175c 04       		.byte	0x4
 6105 175d 6A030000 		.4byte	0x36a
 6106 1761 42       		.uleb128 0x42
 6107 1762 61010000 		.4byte	.LASF126
 6108 1766 02       		.byte	0x2
 6109 1767 2A       		.byte	0x2a
 6110 1768 6C170000 		.4byte	0x176c
 6111 176c 0F       		.uleb128 0xf
 6112 176d 88090000 		.4byte	0x988
 6113 1771 42       		.uleb128 0x42
 6114 1772 80000000 		.4byte	.LASF127
 6115 1776 02       		.byte	0x2
 6116 1777 2B       		.byte	0x2b
 6117 1778 7C170000 		.4byte	0x177c
 6118 177c 0F       		.uleb128 0xf
 6119 177d 88090000 		.4byte	0x988
 6120 1781 42       		.uleb128 0x42
 6121 1782 2B010000 		.4byte	.LASF128
 6122 1786 02       		.byte	0x2
 6123 1787 2C       		.byte	0x2c
 6124 1788 8C170000 		.4byte	0x178c
 6125 178c 0F       		.uleb128 0xf
 6126 178d 88090000 		.4byte	0x988
 6127 1791 07       		.uleb128 0x7
 6128 1792 22090000 		.4byte	0x922
 6129 1796 AD170000 		.4byte	0x17ad
 6130 179a 08       		.uleb128 0x8
 6131 179b 25010000 		.4byte	0x125
 6132 179f 03       		.byte	0x3
 6133 17a0 08       		.uleb128 0x8
 6134 17a1 25010000 		.4byte	0x125
 6135 17a5 01       		.byte	0x1
 6136 17a6 08       		.uleb128 0x8
 6137 17a7 25010000 		.4byte	0x125
 6138 17ab 01       		.byte	0x1
 6139 17ac 00       		.byte	0
 6140 17ad 42       		.uleb128 0x42
 6141 17ae 4E070000 		.4byte	.LASF129
 6142 17b2 02       		.byte	0x2
 6143 17b3 4E       		.byte	0x4e
 6144 17b4 B8170000 		.4byte	0x17b8
 6145 17b8 0F       		.uleb128 0xf
 6146 17b9 91170000 		.4byte	0x1791
 6147 17bd 07       		.uleb128 0x7
 6148 17be 49130000 		.4byte	0x1349
 6149 17c2 C8170000 		.4byte	0x17c8
ARM GAS  C:\Users\rdn\AppData\Local\Temp\ccet7BYP.s 			page 126


 6150 17c6 43       		.uleb128 0x43
 6151 17c7 00       		.byte	0
 6152 17c8 42       		.uleb128 0x42
 6153 17c9 5D040000 		.4byte	.LASF130
 6154 17cd 02       		.byte	0x2
 6155 17ce 89       		.byte	0x89
 6156 17cf D3170000 		.4byte	0x17d3
 6157 17d3 0F       		.uleb128 0xf
 6158 17d4 BD170000 		.4byte	0x17bd
 6159 17d8 07       		.uleb128 0x7
 6160 17d9 E9170000 		.4byte	0x17e9
 6161 17dd E9170000 		.4byte	0x17e9
 6162 17e1 43       		.uleb128 0x43
 6163 17e2 08       		.uleb128 0x8
 6164 17e3 25010000 		.4byte	0x125
 6165 17e7 07       		.byte	0x7
 6166 17e8 00       		.byte	0
 6167 17e9 0F       		.uleb128 0xf
 6168 17ea 93000000 		.4byte	0x93
 6169 17ee 42       		.uleb128 0x42
 6170 17ef B0030000 		.4byte	.LASF131
 6171 17f3 02       		.byte	0x2
 6172 17f4 8A       		.byte	0x8a
 6173 17f5 F9170000 		.4byte	0x17f9
 6174 17f9 0F       		.uleb128 0xf
 6175 17fa D8170000 		.4byte	0x17d8
 6176 17fe 42       		.uleb128 0x42
 6177 17ff 31050000 		.4byte	.LASF132
 6178 1803 02       		.byte	0x2
 6179 1804 8C       		.byte	0x8c
 6180 1805 09180000 		.4byte	0x1809
 6181 1809 0F       		.uleb128 0xf
 6182 180a BD170000 		.4byte	0x17bd
 6183 180e 07       		.uleb128 0x7
 6184 180f E9170000 		.4byte	0x17e9
 6185 1813 1F180000 		.4byte	0x181f
 6186 1817 43       		.uleb128 0x43
 6187 1818 08       		.uleb128 0x8
 6188 1819 25010000 		.4byte	0x125
 6189 181d 10       		.byte	0x10
 6190 181e 00       		.byte	0
 6191 181f 42       		.uleb128 0x42
 6192 1820 EA020000 		.4byte	.LASF133
 6193 1824 02       		.byte	0x2
 6194 1825 8D       		.byte	0x8d
 6195 1826 2A180000 		.4byte	0x182a
 6196 182a 0F       		.uleb128 0xf
 6197 182b 0E180000 		.4byte	0x180e
 6198 182f 44       		.uleb128 0x44
 6199 1830 4F040000 		.4byte	.LASF142
 6200 1834 4F040000 		.4byte	.LASF142
 6201 1838 45       		.uleb128 0x45
 6202 1839 A7040000 		.4byte	.LASF134
 6203 183d A7040000 		.4byte	.LASF134
 6204 1841 03       		.byte	0x3
 6205 1842 C8       		.byte	0xc8
 6206 1843 45       		.uleb128 0x45
ARM GAS  C:\Users\rdn\AppData\Local\Temp\ccet7BYP.s 			page 127


 6207 1844 35010000 		.4byte	.LASF135
 6208 1848 35010000 		.4byte	.LASF135
 6209 184c 03       		.byte	0x3
 6210 184d CC       		.byte	0xcc
 6211 184e 45       		.uleb128 0x45
 6212 184f AB020000 		.4byte	.LASF136
 6213 1853 AB020000 		.4byte	.LASF136
 6214 1857 03       		.byte	0x3
 6215 1858 C9       		.byte	0xc9
 6216 1859 45       		.uleb128 0x45
 6217 185a 85040000 		.4byte	.LASF137
 6218 185e 85040000 		.4byte	.LASF137
 6219 1862 03       		.byte	0x3
 6220 1863 CB       		.byte	0xcb
 6221 1864 00       		.byte	0
 6222              		.section	.debug_abbrev,"",%progbits
 6223              	.Ldebug_abbrev0:
 6224 0000 01       		.uleb128 0x1
 6225 0001 11       		.uleb128 0x11
 6226 0002 01       		.byte	0x1
 6227 0003 25       		.uleb128 0x25
 6228 0004 0E       		.uleb128 0xe
 6229 0005 13       		.uleb128 0x13
 6230 0006 0B       		.uleb128 0xb
 6231 0007 03       		.uleb128 0x3
 6232 0008 0E       		.uleb128 0xe
 6233 0009 1B       		.uleb128 0x1b
 6234 000a 0E       		.uleb128 0xe
 6235 000b 55       		.uleb128 0x55
 6236 000c 17       		.uleb128 0x17
 6237 000d 11       		.uleb128 0x11
 6238 000e 01       		.uleb128 0x1
 6239 000f 10       		.uleb128 0x10
 6240 0010 17       		.uleb128 0x17
 6241 0011 00       		.byte	0
 6242 0012 00       		.byte	0
 6243 0013 02       		.uleb128 0x2
 6244 0014 24       		.uleb128 0x24
 6245 0015 00       		.byte	0
 6246 0016 0B       		.uleb128 0xb
 6247 0017 0B       		.uleb128 0xb
 6248 0018 3E       		.uleb128 0x3e
 6249 0019 0B       		.uleb128 0xb
 6250 001a 03       		.uleb128 0x3
 6251 001b 0E       		.uleb128 0xe
 6252 001c 00       		.byte	0
 6253 001d 00       		.byte	0
 6254 001e 03       		.uleb128 0x3
 6255 001f 16       		.uleb128 0x16
 6256 0020 00       		.byte	0
 6257 0021 03       		.uleb128 0x3
 6258 0022 0E       		.uleb128 0xe
 6259 0023 3A       		.uleb128 0x3a
 6260 0024 0B       		.uleb128 0xb
 6261 0025 3B       		.uleb128 0x3b
 6262 0026 0B       		.uleb128 0xb
 6263 0027 49       		.uleb128 0x49
ARM GAS  C:\Users\rdn\AppData\Local\Temp\ccet7BYP.s 			page 128


 6264 0028 13       		.uleb128 0x13
 6265 0029 00       		.byte	0
 6266 002a 00       		.byte	0
 6267 002b 04       		.uleb128 0x4
 6268 002c 24       		.uleb128 0x24
 6269 002d 00       		.byte	0
 6270 002e 0B       		.uleb128 0xb
 6271 002f 0B       		.uleb128 0xb
 6272 0030 3E       		.uleb128 0x3e
 6273 0031 0B       		.uleb128 0xb
 6274 0032 03       		.uleb128 0x3
 6275 0033 08       		.uleb128 0x8
 6276 0034 00       		.byte	0
 6277 0035 00       		.byte	0
 6278 0036 05       		.uleb128 0x5
 6279 0037 04       		.uleb128 0x4
 6280 0038 01       		.byte	0x1
 6281 0039 03       		.uleb128 0x3
 6282 003a 0E       		.uleb128 0xe
 6283 003b 0B       		.uleb128 0xb
 6284 003c 0B       		.uleb128 0xb
 6285 003d 49       		.uleb128 0x49
 6286 003e 13       		.uleb128 0x13
 6287 003f 3A       		.uleb128 0x3a
 6288 0040 0B       		.uleb128 0xb
 6289 0041 3B       		.uleb128 0x3b
 6290 0042 0B       		.uleb128 0xb
 6291 0043 01       		.uleb128 0x1
 6292 0044 13       		.uleb128 0x13
 6293 0045 00       		.byte	0
 6294 0046 00       		.byte	0
 6295 0047 06       		.uleb128 0x6
 6296 0048 28       		.uleb128 0x28
 6297 0049 00       		.byte	0
 6298 004a 03       		.uleb128 0x3
 6299 004b 0E       		.uleb128 0xe
 6300 004c 1C       		.uleb128 0x1c
 6301 004d 0B       		.uleb128 0xb
 6302 004e 00       		.byte	0
 6303 004f 00       		.byte	0
 6304 0050 07       		.uleb128 0x7
 6305 0051 01       		.uleb128 0x1
 6306 0052 01       		.byte	0x1
 6307 0053 49       		.uleb128 0x49
 6308 0054 13       		.uleb128 0x13
 6309 0055 01       		.uleb128 0x1
 6310 0056 13       		.uleb128 0x13
 6311 0057 00       		.byte	0
 6312 0058 00       		.byte	0
 6313 0059 08       		.uleb128 0x8
 6314 005a 21       		.uleb128 0x21
 6315 005b 00       		.byte	0
 6316 005c 49       		.uleb128 0x49
 6317 005d 13       		.uleb128 0x13
 6318 005e 2F       		.uleb128 0x2f
 6319 005f 0B       		.uleb128 0xb
 6320 0060 00       		.byte	0
ARM GAS  C:\Users\rdn\AppData\Local\Temp\ccet7BYP.s 			page 129


 6321 0061 00       		.byte	0
 6322 0062 09       		.uleb128 0x9
 6323 0063 13       		.uleb128 0x13
 6324 0064 01       		.byte	0x1
 6325 0065 03       		.uleb128 0x3
 6326 0066 0E       		.uleb128 0xe
 6327 0067 0B       		.uleb128 0xb
 6328 0068 0B       		.uleb128 0xb
 6329 0069 3A       		.uleb128 0x3a
 6330 006a 0B       		.uleb128 0xb
 6331 006b 3B       		.uleb128 0x3b
 6332 006c 0B       		.uleb128 0xb
 6333 006d 01       		.uleb128 0x1
 6334 006e 13       		.uleb128 0x13
 6335 006f 00       		.byte	0
 6336 0070 00       		.byte	0
 6337 0071 0A       		.uleb128 0xa
 6338 0072 0D       		.uleb128 0xd
 6339 0073 00       		.byte	0
 6340 0074 03       		.uleb128 0x3
 6341 0075 08       		.uleb128 0x8
 6342 0076 3A       		.uleb128 0x3a
 6343 0077 0B       		.uleb128 0xb
 6344 0078 3B       		.uleb128 0x3b
 6345 0079 0B       		.uleb128 0xb
 6346 007a 49       		.uleb128 0x49
 6347 007b 13       		.uleb128 0x13
 6348 007c 0B       		.uleb128 0xb
 6349 007d 0B       		.uleb128 0xb
 6350 007e 0D       		.uleb128 0xd
 6351 007f 0B       		.uleb128 0xb
 6352 0080 0C       		.uleb128 0xc
 6353 0081 0B       		.uleb128 0xb
 6354 0082 38       		.uleb128 0x38
 6355 0083 0B       		.uleb128 0xb
 6356 0084 00       		.byte	0
 6357 0085 00       		.byte	0
 6358 0086 0B       		.uleb128 0xb
 6359 0087 0D       		.uleb128 0xd
 6360 0088 00       		.byte	0
 6361 0089 03       		.uleb128 0x3
 6362 008a 0E       		.uleb128 0xe
 6363 008b 3A       		.uleb128 0x3a
 6364 008c 0B       		.uleb128 0xb
 6365 008d 3B       		.uleb128 0x3b
 6366 008e 0B       		.uleb128 0xb
 6367 008f 49       		.uleb128 0x49
 6368 0090 13       		.uleb128 0x13
 6369 0091 0B       		.uleb128 0xb
 6370 0092 0B       		.uleb128 0xb
 6371 0093 0D       		.uleb128 0xd
 6372 0094 0B       		.uleb128 0xb
 6373 0095 0C       		.uleb128 0xc
 6374 0096 0B       		.uleb128 0xb
 6375 0097 38       		.uleb128 0x38
 6376 0098 0B       		.uleb128 0xb
 6377 0099 00       		.byte	0
ARM GAS  C:\Users\rdn\AppData\Local\Temp\ccet7BYP.s 			page 130


 6378 009a 00       		.byte	0
 6379 009b 0C       		.uleb128 0xc
 6380 009c 0D       		.uleb128 0xd
 6381 009d 00       		.byte	0
 6382 009e 03       		.uleb128 0x3
 6383 009f 08       		.uleb128 0x8
 6384 00a0 3A       		.uleb128 0x3a
 6385 00a1 0B       		.uleb128 0xb
 6386 00a2 3B       		.uleb128 0x3b
 6387 00a3 0B       		.uleb128 0xb
 6388 00a4 49       		.uleb128 0x49
 6389 00a5 13       		.uleb128 0x13
 6390 00a6 38       		.uleb128 0x38
 6391 00a7 0B       		.uleb128 0xb
 6392 00a8 00       		.byte	0
 6393 00a9 00       		.byte	0
 6394 00aa 0D       		.uleb128 0xd
 6395 00ab 0D       		.uleb128 0xd
 6396 00ac 00       		.byte	0
 6397 00ad 03       		.uleb128 0x3
 6398 00ae 0E       		.uleb128 0xe
 6399 00af 3A       		.uleb128 0x3a
 6400 00b0 0B       		.uleb128 0xb
 6401 00b1 3B       		.uleb128 0x3b
 6402 00b2 0B       		.uleb128 0xb
 6403 00b3 49       		.uleb128 0x49
 6404 00b4 13       		.uleb128 0x13
 6405 00b5 38       		.uleb128 0x38
 6406 00b6 0B       		.uleb128 0xb
 6407 00b7 00       		.byte	0
 6408 00b8 00       		.byte	0
 6409 00b9 0E       		.uleb128 0xe
 6410 00ba 0F       		.uleb128 0xf
 6411 00bb 00       		.byte	0
 6412 00bc 0B       		.uleb128 0xb
 6413 00bd 0B       		.uleb128 0xb
 6414 00be 49       		.uleb128 0x49
 6415 00bf 13       		.uleb128 0x13
 6416 00c0 00       		.byte	0
 6417 00c1 00       		.byte	0
 6418 00c2 0F       		.uleb128 0xf
 6419 00c3 26       		.uleb128 0x26
 6420 00c4 00       		.byte	0
 6421 00c5 49       		.uleb128 0x49
 6422 00c6 13       		.uleb128 0x13
 6423 00c7 00       		.byte	0
 6424 00c8 00       		.byte	0
 6425 00c9 10       		.uleb128 0x10
 6426 00ca 2E       		.uleb128 0x2e
 6427 00cb 01       		.byte	0x1
 6428 00cc 03       		.uleb128 0x3
 6429 00cd 08       		.uleb128 0x8
 6430 00ce 3A       		.uleb128 0x3a
 6431 00cf 0B       		.uleb128 0xb
 6432 00d0 3B       		.uleb128 0x3b
 6433 00d1 0B       		.uleb128 0xb
 6434 00d2 27       		.uleb128 0x27
ARM GAS  C:\Users\rdn\AppData\Local\Temp\ccet7BYP.s 			page 131


 6435 00d3 19       		.uleb128 0x19
 6436 00d4 49       		.uleb128 0x49
 6437 00d5 13       		.uleb128 0x13
 6438 00d6 20       		.uleb128 0x20
 6439 00d7 0B       		.uleb128 0xb
 6440 00d8 01       		.uleb128 0x1
 6441 00d9 13       		.uleb128 0x13
 6442 00da 00       		.byte	0
 6443 00db 00       		.byte	0
 6444 00dc 11       		.uleb128 0x11
 6445 00dd 05       		.uleb128 0x5
 6446 00de 00       		.byte	0
 6447 00df 03       		.uleb128 0x3
 6448 00e0 08       		.uleb128 0x8
 6449 00e1 3A       		.uleb128 0x3a
 6450 00e2 0B       		.uleb128 0xb
 6451 00e3 3B       		.uleb128 0x3b
 6452 00e4 0B       		.uleb128 0xb
 6453 00e5 49       		.uleb128 0x49
 6454 00e6 13       		.uleb128 0x13
 6455 00e7 00       		.byte	0
 6456 00e8 00       		.byte	0
 6457 00e9 12       		.uleb128 0x12
 6458 00ea 34       		.uleb128 0x34
 6459 00eb 00       		.byte	0
 6460 00ec 03       		.uleb128 0x3
 6461 00ed 08       		.uleb128 0x8
 6462 00ee 3A       		.uleb128 0x3a
 6463 00ef 0B       		.uleb128 0xb
 6464 00f0 3B       		.uleb128 0x3b
 6465 00f1 0B       		.uleb128 0xb
 6466 00f2 49       		.uleb128 0x49
 6467 00f3 13       		.uleb128 0x13
 6468 00f4 00       		.byte	0
 6469 00f5 00       		.byte	0
 6470 00f6 13       		.uleb128 0x13
 6471 00f7 2E       		.uleb128 0x2e
 6472 00f8 01       		.byte	0x1
 6473 00f9 03       		.uleb128 0x3
 6474 00fa 0E       		.uleb128 0xe
 6475 00fb 3A       		.uleb128 0x3a
 6476 00fc 0B       		.uleb128 0xb
 6477 00fd 3B       		.uleb128 0x3b
 6478 00fe 0B       		.uleb128 0xb
 6479 00ff 27       		.uleb128 0x27
 6480 0100 19       		.uleb128 0x19
 6481 0101 49       		.uleb128 0x49
 6482 0102 13       		.uleb128 0x13
 6483 0103 20       		.uleb128 0x20
 6484 0104 0B       		.uleb128 0xb
 6485 0105 01       		.uleb128 0x1
 6486 0106 13       		.uleb128 0x13
 6487 0107 00       		.byte	0
 6488 0108 00       		.byte	0
 6489 0109 14       		.uleb128 0x14
 6490 010a 05       		.uleb128 0x5
 6491 010b 00       		.byte	0
ARM GAS  C:\Users\rdn\AppData\Local\Temp\ccet7BYP.s 			page 132


 6492 010c 03       		.uleb128 0x3
 6493 010d 0E       		.uleb128 0xe
 6494 010e 3A       		.uleb128 0x3a
 6495 010f 0B       		.uleb128 0xb
 6496 0110 3B       		.uleb128 0x3b
 6497 0111 0B       		.uleb128 0xb
 6498 0112 49       		.uleb128 0x49
 6499 0113 13       		.uleb128 0x13
 6500 0114 00       		.byte	0
 6501 0115 00       		.byte	0
 6502 0116 15       		.uleb128 0x15
 6503 0117 34       		.uleb128 0x34
 6504 0118 00       		.byte	0
 6505 0119 03       		.uleb128 0x3
 6506 011a 0E       		.uleb128 0xe
 6507 011b 3A       		.uleb128 0x3a
 6508 011c 0B       		.uleb128 0xb
 6509 011d 3B       		.uleb128 0x3b
 6510 011e 0B       		.uleb128 0xb
 6511 011f 49       		.uleb128 0x49
 6512 0120 13       		.uleb128 0x13
 6513 0121 00       		.byte	0
 6514 0122 00       		.byte	0
 6515 0123 16       		.uleb128 0x16
 6516 0124 0B       		.uleb128 0xb
 6517 0125 01       		.byte	0x1
 6518 0126 00       		.byte	0
 6519 0127 00       		.byte	0
 6520 0128 17       		.uleb128 0x17
 6521 0129 2E       		.uleb128 0x2e
 6522 012a 01       		.byte	0x1
 6523 012b 03       		.uleb128 0x3
 6524 012c 0E       		.uleb128 0xe
 6525 012d 3A       		.uleb128 0x3a
 6526 012e 0B       		.uleb128 0xb
 6527 012f 3B       		.uleb128 0x3b
 6528 0130 0B       		.uleb128 0xb
 6529 0131 27       		.uleb128 0x27
 6530 0132 19       		.uleb128 0x19
 6531 0133 20       		.uleb128 0x20
 6532 0134 0B       		.uleb128 0xb
 6533 0135 01       		.uleb128 0x1
 6534 0136 13       		.uleb128 0x13
 6535 0137 00       		.byte	0
 6536 0138 00       		.byte	0
 6537 0139 18       		.uleb128 0x18
 6538 013a 2E       		.uleb128 0x2e
 6539 013b 01       		.byte	0x1
 6540 013c 03       		.uleb128 0x3
 6541 013d 0E       		.uleb128 0xe
 6542 013e 3A       		.uleb128 0x3a
 6543 013f 0B       		.uleb128 0xb
 6544 0140 3B       		.uleb128 0x3b
 6545 0141 0B       		.uleb128 0xb
 6546 0142 27       		.uleb128 0x27
 6547 0143 19       		.uleb128 0x19
 6548 0144 49       		.uleb128 0x49
ARM GAS  C:\Users\rdn\AppData\Local\Temp\ccet7BYP.s 			page 133


 6549 0145 13       		.uleb128 0x13
 6550 0146 11       		.uleb128 0x11
 6551 0147 01       		.uleb128 0x1
 6552 0148 12       		.uleb128 0x12
 6553 0149 06       		.uleb128 0x6
 6554 014a 40       		.uleb128 0x40
 6555 014b 18       		.uleb128 0x18
 6556 014c 9742     		.uleb128 0x2117
 6557 014e 19       		.uleb128 0x19
 6558 014f 01       		.uleb128 0x1
 6559 0150 13       		.uleb128 0x13
 6560 0151 00       		.byte	0
 6561 0152 00       		.byte	0
 6562 0153 19       		.uleb128 0x19
 6563 0154 05       		.uleb128 0x5
 6564 0155 00       		.byte	0
 6565 0156 03       		.uleb128 0x3
 6566 0157 08       		.uleb128 0x8
 6567 0158 3A       		.uleb128 0x3a
 6568 0159 0B       		.uleb128 0xb
 6569 015a 3B       		.uleb128 0x3b
 6570 015b 0B       		.uleb128 0xb
 6571 015c 49       		.uleb128 0x49
 6572 015d 13       		.uleb128 0x13
 6573 015e 02       		.uleb128 0x2
 6574 015f 17       		.uleb128 0x17
 6575 0160 00       		.byte	0
 6576 0161 00       		.byte	0
 6577 0162 1A       		.uleb128 0x1a
 6578 0163 05       		.uleb128 0x5
 6579 0164 00       		.byte	0
 6580 0165 03       		.uleb128 0x3
 6581 0166 0E       		.uleb128 0xe
 6582 0167 3A       		.uleb128 0x3a
 6583 0168 0B       		.uleb128 0xb
 6584 0169 3B       		.uleb128 0x3b
 6585 016a 0B       		.uleb128 0xb
 6586 016b 49       		.uleb128 0x49
 6587 016c 13       		.uleb128 0x13
 6588 016d 02       		.uleb128 0x2
 6589 016e 17       		.uleb128 0x17
 6590 016f 00       		.byte	0
 6591 0170 00       		.byte	0
 6592 0171 1B       		.uleb128 0x1b
 6593 0172 2E       		.uleb128 0x2e
 6594 0173 01       		.byte	0x1
 6595 0174 03       		.uleb128 0x3
 6596 0175 0E       		.uleb128 0xe
 6597 0176 3A       		.uleb128 0x3a
 6598 0177 0B       		.uleb128 0xb
 6599 0178 3B       		.uleb128 0x3b
 6600 0179 0B       		.uleb128 0xb
 6601 017a 27       		.uleb128 0x27
 6602 017b 19       		.uleb128 0x19
 6603 017c 11       		.uleb128 0x11
 6604 017d 01       		.uleb128 0x1
 6605 017e 12       		.uleb128 0x12
ARM GAS  C:\Users\rdn\AppData\Local\Temp\ccet7BYP.s 			page 134


 6606 017f 06       		.uleb128 0x6
 6607 0180 40       		.uleb128 0x40
 6608 0181 18       		.uleb128 0x18
 6609 0182 9642     		.uleb128 0x2116
 6610 0184 19       		.uleb128 0x19
 6611 0185 01       		.uleb128 0x1
 6612 0186 13       		.uleb128 0x13
 6613 0187 00       		.byte	0
 6614 0188 00       		.byte	0
 6615 0189 1C       		.uleb128 0x1c
 6616 018a 05       		.uleb128 0x5
 6617 018b 00       		.byte	0
 6618 018c 03       		.uleb128 0x3
 6619 018d 0E       		.uleb128 0xe
 6620 018e 3A       		.uleb128 0x3a
 6621 018f 0B       		.uleb128 0xb
 6622 0190 3B       		.uleb128 0x3b
 6623 0191 0B       		.uleb128 0xb
 6624 0192 49       		.uleb128 0x49
 6625 0193 13       		.uleb128 0x13
 6626 0194 02       		.uleb128 0x2
 6627 0195 18       		.uleb128 0x18
 6628 0196 00       		.byte	0
 6629 0197 00       		.byte	0
 6630 0198 1D       		.uleb128 0x1d
 6631 0199 05       		.uleb128 0x5
 6632 019a 00       		.byte	0
 6633 019b 03       		.uleb128 0x3
 6634 019c 08       		.uleb128 0x8
 6635 019d 3A       		.uleb128 0x3a
 6636 019e 0B       		.uleb128 0xb
 6637 019f 3B       		.uleb128 0x3b
 6638 01a0 0B       		.uleb128 0xb
 6639 01a1 49       		.uleb128 0x49
 6640 01a2 13       		.uleb128 0x13
 6641 01a3 02       		.uleb128 0x2
 6642 01a4 18       		.uleb128 0x18
 6643 01a5 00       		.byte	0
 6644 01a6 00       		.byte	0
 6645 01a7 1E       		.uleb128 0x1e
 6646 01a8 34       		.uleb128 0x34
 6647 01a9 00       		.byte	0
 6648 01aa 03       		.uleb128 0x3
 6649 01ab 0E       		.uleb128 0xe
 6650 01ac 3A       		.uleb128 0x3a
 6651 01ad 0B       		.uleb128 0xb
 6652 01ae 3B       		.uleb128 0x3b
 6653 01af 0B       		.uleb128 0xb
 6654 01b0 49       		.uleb128 0x49
 6655 01b1 13       		.uleb128 0x13
 6656 01b2 02       		.uleb128 0x2
 6657 01b3 18       		.uleb128 0x18
 6658 01b4 00       		.byte	0
 6659 01b5 00       		.byte	0
 6660 01b6 1F       		.uleb128 0x1f
 6661 01b7 34       		.uleb128 0x34
 6662 01b8 00       		.byte	0
ARM GAS  C:\Users\rdn\AppData\Local\Temp\ccet7BYP.s 			page 135


 6663 01b9 03       		.uleb128 0x3
 6664 01ba 08       		.uleb128 0x8
 6665 01bb 3A       		.uleb128 0x3a
 6666 01bc 0B       		.uleb128 0xb
 6667 01bd 3B       		.uleb128 0x3b
 6668 01be 0B       		.uleb128 0xb
 6669 01bf 49       		.uleb128 0x49
 6670 01c0 13       		.uleb128 0x13
 6671 01c1 02       		.uleb128 0x2
 6672 01c2 17       		.uleb128 0x17
 6673 01c3 00       		.byte	0
 6674 01c4 00       		.byte	0
 6675 01c5 20       		.uleb128 0x20
 6676 01c6 34       		.uleb128 0x34
 6677 01c7 00       		.byte	0
 6678 01c8 03       		.uleb128 0x3
 6679 01c9 0E       		.uleb128 0xe
 6680 01ca 3A       		.uleb128 0x3a
 6681 01cb 0B       		.uleb128 0xb
 6682 01cc 3B       		.uleb128 0x3b
 6683 01cd 0B       		.uleb128 0xb
 6684 01ce 49       		.uleb128 0x49
 6685 01cf 13       		.uleb128 0x13
 6686 01d0 02       		.uleb128 0x2
 6687 01d1 17       		.uleb128 0x17
 6688 01d2 00       		.byte	0
 6689 01d3 00       		.byte	0
 6690 01d4 21       		.uleb128 0x21
 6691 01d5 34       		.uleb128 0x34
 6692 01d6 00       		.byte	0
 6693 01d7 03       		.uleb128 0x3
 6694 01d8 08       		.uleb128 0x8
 6695 01d9 3A       		.uleb128 0x3a
 6696 01da 0B       		.uleb128 0xb
 6697 01db 3B       		.uleb128 0x3b
 6698 01dc 0B       		.uleb128 0xb
 6699 01dd 49       		.uleb128 0x49
 6700 01de 13       		.uleb128 0x13
 6701 01df 02       		.uleb128 0x2
 6702 01e0 18       		.uleb128 0x18
 6703 01e1 00       		.byte	0
 6704 01e2 00       		.byte	0
 6705 01e3 22       		.uleb128 0x22
 6706 01e4 0B       		.uleb128 0xb
 6707 01e5 01       		.byte	0x1
 6708 01e6 11       		.uleb128 0x11
 6709 01e7 01       		.uleb128 0x1
 6710 01e8 12       		.uleb128 0x12
 6711 01e9 06       		.uleb128 0x6
 6712 01ea 01       		.uleb128 0x1
 6713 01eb 13       		.uleb128 0x13
 6714 01ec 00       		.byte	0
 6715 01ed 00       		.byte	0
 6716 01ee 23       		.uleb128 0x23
 6717 01ef 0B       		.uleb128 0xb
 6718 01f0 01       		.byte	0x1
 6719 01f1 11       		.uleb128 0x11
ARM GAS  C:\Users\rdn\AppData\Local\Temp\ccet7BYP.s 			page 136


 6720 01f2 01       		.uleb128 0x1
 6721 01f3 12       		.uleb128 0x12
 6722 01f4 06       		.uleb128 0x6
 6723 01f5 00       		.byte	0
 6724 01f6 00       		.byte	0
 6725 01f7 24       		.uleb128 0x24
 6726 01f8 1D       		.uleb128 0x1d
 6727 01f9 01       		.byte	0x1
 6728 01fa 31       		.uleb128 0x31
 6729 01fb 13       		.uleb128 0x13
 6730 01fc 11       		.uleb128 0x11
 6731 01fd 01       		.uleb128 0x1
 6732 01fe 12       		.uleb128 0x12
 6733 01ff 06       		.uleb128 0x6
 6734 0200 58       		.uleb128 0x58
 6735 0201 0B       		.uleb128 0xb
 6736 0202 59       		.uleb128 0x59
 6737 0203 0B       		.uleb128 0xb
 6738 0204 00       		.byte	0
 6739 0205 00       		.byte	0
 6740 0206 25       		.uleb128 0x25
 6741 0207 05       		.uleb128 0x5
 6742 0208 00       		.byte	0
 6743 0209 31       		.uleb128 0x31
 6744 020a 13       		.uleb128 0x13
 6745 020b 02       		.uleb128 0x2
 6746 020c 17       		.uleb128 0x17
 6747 020d 00       		.byte	0
 6748 020e 00       		.byte	0
 6749 020f 26       		.uleb128 0x26
 6750 0210 34       		.uleb128 0x34
 6751 0211 00       		.byte	0
 6752 0212 31       		.uleb128 0x31
 6753 0213 13       		.uleb128 0x13
 6754 0214 02       		.uleb128 0x2
 6755 0215 17       		.uleb128 0x17
 6756 0216 00       		.byte	0
 6757 0217 00       		.byte	0
 6758 0218 27       		.uleb128 0x27
 6759 0219 898201   		.uleb128 0x4109
 6760 021c 01       		.byte	0x1
 6761 021d 11       		.uleb128 0x11
 6762 021e 01       		.uleb128 0x1
 6763 021f 31       		.uleb128 0x31
 6764 0220 13       		.uleb128 0x13
 6765 0221 00       		.byte	0
 6766 0222 00       		.byte	0
 6767 0223 28       		.uleb128 0x28
 6768 0224 8A8201   		.uleb128 0x410a
 6769 0227 00       		.byte	0
 6770 0228 02       		.uleb128 0x2
 6771 0229 18       		.uleb128 0x18
 6772 022a 9142     		.uleb128 0x2111
 6773 022c 18       		.uleb128 0x18
 6774 022d 00       		.byte	0
 6775 022e 00       		.byte	0
 6776 022f 29       		.uleb128 0x29
ARM GAS  C:\Users\rdn\AppData\Local\Temp\ccet7BYP.s 			page 137


 6777 0230 0B       		.uleb128 0xb
 6778 0231 01       		.byte	0x1
 6779 0232 55       		.uleb128 0x55
 6780 0233 17       		.uleb128 0x17
 6781 0234 00       		.byte	0
 6782 0235 00       		.byte	0
 6783 0236 2A       		.uleb128 0x2a
 6784 0237 34       		.uleb128 0x34
 6785 0238 00       		.byte	0
 6786 0239 03       		.uleb128 0x3
 6787 023a 08       		.uleb128 0x8
 6788 023b 3A       		.uleb128 0x3a
 6789 023c 0B       		.uleb128 0xb
 6790 023d 3B       		.uleb128 0x3b
 6791 023e 05       		.uleb128 0x5
 6792 023f 49       		.uleb128 0x49
 6793 0240 13       		.uleb128 0x13
 6794 0241 02       		.uleb128 0x2
 6795 0242 17       		.uleb128 0x17
 6796 0243 00       		.byte	0
 6797 0244 00       		.byte	0
 6798 0245 2B       		.uleb128 0x2b
 6799 0246 2E       		.uleb128 0x2e
 6800 0247 01       		.byte	0x1
 6801 0248 03       		.uleb128 0x3
 6802 0249 0E       		.uleb128 0xe
 6803 024a 3A       		.uleb128 0x3a
 6804 024b 0B       		.uleb128 0xb
 6805 024c 3B       		.uleb128 0x3b
 6806 024d 05       		.uleb128 0x5
 6807 024e 27       		.uleb128 0x27
 6808 024f 19       		.uleb128 0x19
 6809 0250 11       		.uleb128 0x11
 6810 0251 01       		.uleb128 0x1
 6811 0252 12       		.uleb128 0x12
 6812 0253 06       		.uleb128 0x6
 6813 0254 40       		.uleb128 0x40
 6814 0255 18       		.uleb128 0x18
 6815 0256 9742     		.uleb128 0x2117
 6816 0258 19       		.uleb128 0x19
 6817 0259 01       		.uleb128 0x1
 6818 025a 13       		.uleb128 0x13
 6819 025b 00       		.byte	0
 6820 025c 00       		.byte	0
 6821 025d 2C       		.uleb128 0x2c
 6822 025e 05       		.uleb128 0x5
 6823 025f 00       		.byte	0
 6824 0260 03       		.uleb128 0x3
 6825 0261 0E       		.uleb128 0xe
 6826 0262 3A       		.uleb128 0x3a
 6827 0263 0B       		.uleb128 0xb
 6828 0264 3B       		.uleb128 0x3b
 6829 0265 05       		.uleb128 0x5
 6830 0266 49       		.uleb128 0x49
 6831 0267 13       		.uleb128 0x13
 6832 0268 02       		.uleb128 0x2
 6833 0269 18       		.uleb128 0x18
ARM GAS  C:\Users\rdn\AppData\Local\Temp\ccet7BYP.s 			page 138


 6834 026a 00       		.byte	0
 6835 026b 00       		.byte	0
 6836 026c 2D       		.uleb128 0x2d
 6837 026d 05       		.uleb128 0x5
 6838 026e 00       		.byte	0
 6839 026f 03       		.uleb128 0x3
 6840 0270 08       		.uleb128 0x8
 6841 0271 3A       		.uleb128 0x3a
 6842 0272 0B       		.uleb128 0xb
 6843 0273 3B       		.uleb128 0x3b
 6844 0274 05       		.uleb128 0x5
 6845 0275 49       		.uleb128 0x49
 6846 0276 13       		.uleb128 0x13
 6847 0277 02       		.uleb128 0x2
 6848 0278 18       		.uleb128 0x18
 6849 0279 00       		.byte	0
 6850 027a 00       		.byte	0
 6851 027b 2E       		.uleb128 0x2e
 6852 027c 34       		.uleb128 0x34
 6853 027d 00       		.byte	0
 6854 027e 03       		.uleb128 0x3
 6855 027f 0E       		.uleb128 0xe
 6856 0280 3A       		.uleb128 0x3a
 6857 0281 0B       		.uleb128 0xb
 6858 0282 3B       		.uleb128 0x3b
 6859 0283 05       		.uleb128 0x5
 6860 0284 49       		.uleb128 0x49
 6861 0285 13       		.uleb128 0x13
 6862 0286 02       		.uleb128 0x2
 6863 0287 18       		.uleb128 0x18
 6864 0288 00       		.byte	0
 6865 0289 00       		.byte	0
 6866 028a 2F       		.uleb128 0x2f
 6867 028b 34       		.uleb128 0x34
 6868 028c 00       		.byte	0
 6869 028d 03       		.uleb128 0x3
 6870 028e 0E       		.uleb128 0xe
 6871 028f 3A       		.uleb128 0x3a
 6872 0290 0B       		.uleb128 0xb
 6873 0291 3B       		.uleb128 0x3b
 6874 0292 05       		.uleb128 0x5
 6875 0293 49       		.uleb128 0x49
 6876 0294 13       		.uleb128 0x13
 6877 0295 02       		.uleb128 0x2
 6878 0296 17       		.uleb128 0x17
 6879 0297 00       		.byte	0
 6880 0298 00       		.byte	0
 6881 0299 30       		.uleb128 0x30
 6882 029a 2E       		.uleb128 0x2e
 6883 029b 01       		.byte	0x1
 6884 029c 03       		.uleb128 0x3
 6885 029d 0E       		.uleb128 0xe
 6886 029e 3A       		.uleb128 0x3a
 6887 029f 0B       		.uleb128 0xb
 6888 02a0 3B       		.uleb128 0x3b
 6889 02a1 05       		.uleb128 0x5
 6890 02a2 27       		.uleb128 0x27
ARM GAS  C:\Users\rdn\AppData\Local\Temp\ccet7BYP.s 			page 139


 6891 02a3 19       		.uleb128 0x19
 6892 02a4 11       		.uleb128 0x11
 6893 02a5 01       		.uleb128 0x1
 6894 02a6 12       		.uleb128 0x12
 6895 02a7 06       		.uleb128 0x6
 6896 02a8 40       		.uleb128 0x40
 6897 02a9 18       		.uleb128 0x18
 6898 02aa 9642     		.uleb128 0x2116
 6899 02ac 19       		.uleb128 0x19
 6900 02ad 01       		.uleb128 0x1
 6901 02ae 13       		.uleb128 0x13
 6902 02af 00       		.byte	0
 6903 02b0 00       		.byte	0
 6904 02b1 31       		.uleb128 0x31
 6905 02b2 05       		.uleb128 0x5
 6906 02b3 00       		.byte	0
 6907 02b4 03       		.uleb128 0x3
 6908 02b5 08       		.uleb128 0x8
 6909 02b6 3A       		.uleb128 0x3a
 6910 02b7 0B       		.uleb128 0xb
 6911 02b8 3B       		.uleb128 0x3b
 6912 02b9 05       		.uleb128 0x5
 6913 02ba 49       		.uleb128 0x49
 6914 02bb 13       		.uleb128 0x13
 6915 02bc 02       		.uleb128 0x2
 6916 02bd 17       		.uleb128 0x17
 6917 02be 00       		.byte	0
 6918 02bf 00       		.byte	0
 6919 02c0 32       		.uleb128 0x32
 6920 02c1 05       		.uleb128 0x5
 6921 02c2 00       		.byte	0
 6922 02c3 03       		.uleb128 0x3
 6923 02c4 0E       		.uleb128 0xe
 6924 02c5 3A       		.uleb128 0x3a
 6925 02c6 0B       		.uleb128 0xb
 6926 02c7 3B       		.uleb128 0x3b
 6927 02c8 05       		.uleb128 0x5
 6928 02c9 49       		.uleb128 0x49
 6929 02ca 13       		.uleb128 0x13
 6930 02cb 02       		.uleb128 0x2
 6931 02cc 17       		.uleb128 0x17
 6932 02cd 00       		.byte	0
 6933 02ce 00       		.byte	0
 6934 02cf 33       		.uleb128 0x33
 6935 02d0 34       		.uleb128 0x34
 6936 02d1 00       		.byte	0
 6937 02d2 03       		.uleb128 0x3
 6938 02d3 08       		.uleb128 0x8
 6939 02d4 3A       		.uleb128 0x3a
 6940 02d5 0B       		.uleb128 0xb
 6941 02d6 3B       		.uleb128 0x3b
 6942 02d7 05       		.uleb128 0x5
 6943 02d8 49       		.uleb128 0x49
 6944 02d9 13       		.uleb128 0x13
 6945 02da 02       		.uleb128 0x2
 6946 02db 18       		.uleb128 0x18
 6947 02dc 00       		.byte	0
ARM GAS  C:\Users\rdn\AppData\Local\Temp\ccet7BYP.s 			page 140


 6948 02dd 00       		.byte	0
 6949 02de 34       		.uleb128 0x34
 6950 02df 1D       		.uleb128 0x1d
 6951 02e0 01       		.byte	0x1
 6952 02e1 31       		.uleb128 0x31
 6953 02e2 13       		.uleb128 0x13
 6954 02e3 11       		.uleb128 0x11
 6955 02e4 01       		.uleb128 0x1
 6956 02e5 12       		.uleb128 0x12
 6957 02e6 06       		.uleb128 0x6
 6958 02e7 58       		.uleb128 0x58
 6959 02e8 0B       		.uleb128 0xb
 6960 02e9 59       		.uleb128 0x59
 6961 02ea 05       		.uleb128 0x5
 6962 02eb 01       		.uleb128 0x1
 6963 02ec 13       		.uleb128 0x13
 6964 02ed 00       		.byte	0
 6965 02ee 00       		.byte	0
 6966 02ef 35       		.uleb128 0x35
 6967 02f0 0B       		.uleb128 0xb
 6968 02f1 01       		.byte	0x1
 6969 02f2 55       		.uleb128 0x55
 6970 02f3 17       		.uleb128 0x17
 6971 02f4 01       		.uleb128 0x1
 6972 02f5 13       		.uleb128 0x13
 6973 02f6 00       		.byte	0
 6974 02f7 00       		.byte	0
 6975 02f8 36       		.uleb128 0x36
 6976 02f9 2E       		.uleb128 0x2e
 6977 02fa 01       		.byte	0x1
 6978 02fb 3F       		.uleb128 0x3f
 6979 02fc 19       		.uleb128 0x19
 6980 02fd 03       		.uleb128 0x3
 6981 02fe 0E       		.uleb128 0xe
 6982 02ff 3A       		.uleb128 0x3a
 6983 0300 0B       		.uleb128 0xb
 6984 0301 3B       		.uleb128 0x3b
 6985 0302 05       		.uleb128 0x5
 6986 0303 27       		.uleb128 0x27
 6987 0304 19       		.uleb128 0x19
 6988 0305 11       		.uleb128 0x11
 6989 0306 01       		.uleb128 0x1
 6990 0307 12       		.uleb128 0x12
 6991 0308 06       		.uleb128 0x6
 6992 0309 40       		.uleb128 0x40
 6993 030a 18       		.uleb128 0x18
 6994 030b 9642     		.uleb128 0x2116
 6995 030d 19       		.uleb128 0x19
 6996 030e 01       		.uleb128 0x1
 6997 030f 13       		.uleb128 0x13
 6998 0310 00       		.byte	0
 6999 0311 00       		.byte	0
 7000 0312 37       		.uleb128 0x37
 7001 0313 898201   		.uleb128 0x4109
 7002 0316 01       		.byte	0x1
 7003 0317 11       		.uleb128 0x11
 7004 0318 01       		.uleb128 0x1
ARM GAS  C:\Users\rdn\AppData\Local\Temp\ccet7BYP.s 			page 141


 7005 0319 31       		.uleb128 0x31
 7006 031a 13       		.uleb128 0x13
 7007 031b 01       		.uleb128 0x1
 7008 031c 13       		.uleb128 0x13
 7009 031d 00       		.byte	0
 7010 031e 00       		.byte	0
 7011 031f 38       		.uleb128 0x38
 7012 0320 2E       		.uleb128 0x2e
 7013 0321 01       		.byte	0x1
 7014 0322 3F       		.uleb128 0x3f
 7015 0323 19       		.uleb128 0x19
 7016 0324 03       		.uleb128 0x3
 7017 0325 0E       		.uleb128 0xe
 7018 0326 3A       		.uleb128 0x3a
 7019 0327 0B       		.uleb128 0xb
 7020 0328 3B       		.uleb128 0x3b
 7021 0329 05       		.uleb128 0x5
 7022 032a 27       		.uleb128 0x27
 7023 032b 19       		.uleb128 0x19
 7024 032c 11       		.uleb128 0x11
 7025 032d 01       		.uleb128 0x1
 7026 032e 12       		.uleb128 0x12
 7027 032f 06       		.uleb128 0x6
 7028 0330 40       		.uleb128 0x40
 7029 0331 18       		.uleb128 0x18
 7030 0332 9742     		.uleb128 0x2117
 7031 0334 19       		.uleb128 0x19
 7032 0335 01       		.uleb128 0x1
 7033 0336 13       		.uleb128 0x13
 7034 0337 00       		.byte	0
 7035 0338 00       		.byte	0
 7036 0339 39       		.uleb128 0x39
 7037 033a 2E       		.uleb128 0x2e
 7038 033b 01       		.byte	0x1
 7039 033c 3F       		.uleb128 0x3f
 7040 033d 19       		.uleb128 0x19
 7041 033e 03       		.uleb128 0x3
 7042 033f 0E       		.uleb128 0xe
 7043 0340 3A       		.uleb128 0x3a
 7044 0341 0B       		.uleb128 0xb
 7045 0342 3B       		.uleb128 0x3b
 7046 0343 05       		.uleb128 0x5
 7047 0344 27       		.uleb128 0x27
 7048 0345 19       		.uleb128 0x19
 7049 0346 49       		.uleb128 0x49
 7050 0347 13       		.uleb128 0x13
 7051 0348 11       		.uleb128 0x11
 7052 0349 01       		.uleb128 0x1
 7053 034a 12       		.uleb128 0x12
 7054 034b 06       		.uleb128 0x6
 7055 034c 40       		.uleb128 0x40
 7056 034d 18       		.uleb128 0x18
 7057 034e 9742     		.uleb128 0x2117
 7058 0350 19       		.uleb128 0x19
 7059 0351 01       		.uleb128 0x1
 7060 0352 13       		.uleb128 0x13
 7061 0353 00       		.byte	0
ARM GAS  C:\Users\rdn\AppData\Local\Temp\ccet7BYP.s 			page 142


 7062 0354 00       		.byte	0
 7063 0355 3A       		.uleb128 0x3a
 7064 0356 2E       		.uleb128 0x2e
 7065 0357 01       		.byte	0x1
 7066 0358 03       		.uleb128 0x3
 7067 0359 0E       		.uleb128 0xe
 7068 035a 3A       		.uleb128 0x3a
 7069 035b 0B       		.uleb128 0xb
 7070 035c 3B       		.uleb128 0x3b
 7071 035d 05       		.uleb128 0x5
 7072 035e 27       		.uleb128 0x27
 7073 035f 19       		.uleb128 0x19
 7074 0360 20       		.uleb128 0x20
 7075 0361 0B       		.uleb128 0xb
 7076 0362 01       		.uleb128 0x1
 7077 0363 13       		.uleb128 0x13
 7078 0364 00       		.byte	0
 7079 0365 00       		.byte	0
 7080 0366 3B       		.uleb128 0x3b
 7081 0367 05       		.uleb128 0x5
 7082 0368 00       		.byte	0
 7083 0369 03       		.uleb128 0x3
 7084 036a 0E       		.uleb128 0xe
 7085 036b 3A       		.uleb128 0x3a
 7086 036c 0B       		.uleb128 0xb
 7087 036d 3B       		.uleb128 0x3b
 7088 036e 05       		.uleb128 0x5
 7089 036f 49       		.uleb128 0x49
 7090 0370 13       		.uleb128 0x13
 7091 0371 00       		.byte	0
 7092 0372 00       		.byte	0
 7093 0373 3C       		.uleb128 0x3c
 7094 0374 05       		.uleb128 0x5
 7095 0375 00       		.byte	0
 7096 0376 03       		.uleb128 0x3
 7097 0377 08       		.uleb128 0x8
 7098 0378 3A       		.uleb128 0x3a
 7099 0379 0B       		.uleb128 0xb
 7100 037a 3B       		.uleb128 0x3b
 7101 037b 05       		.uleb128 0x5
 7102 037c 49       		.uleb128 0x49
 7103 037d 13       		.uleb128 0x13
 7104 037e 00       		.byte	0
 7105 037f 00       		.byte	0
 7106 0380 3D       		.uleb128 0x3d
 7107 0381 34       		.uleb128 0x34
 7108 0382 00       		.byte	0
 7109 0383 03       		.uleb128 0x3
 7110 0384 0E       		.uleb128 0xe
 7111 0385 3A       		.uleb128 0x3a
 7112 0386 0B       		.uleb128 0xb
 7113 0387 3B       		.uleb128 0x3b
 7114 0388 05       		.uleb128 0x5
 7115 0389 49       		.uleb128 0x49
 7116 038a 13       		.uleb128 0x13
 7117 038b 00       		.byte	0
 7118 038c 00       		.byte	0
ARM GAS  C:\Users\rdn\AppData\Local\Temp\ccet7BYP.s 			page 143


 7119 038d 3E       		.uleb128 0x3e
 7120 038e 34       		.uleb128 0x34
 7121 038f 00       		.byte	0
 7122 0390 03       		.uleb128 0x3
 7123 0391 08       		.uleb128 0x8
 7124 0392 3A       		.uleb128 0x3a
 7125 0393 0B       		.uleb128 0xb
 7126 0394 3B       		.uleb128 0x3b
 7127 0395 05       		.uleb128 0x5
 7128 0396 49       		.uleb128 0x49
 7129 0397 13       		.uleb128 0x13
 7130 0398 00       		.byte	0
 7131 0399 00       		.byte	0
 7132 039a 3F       		.uleb128 0x3f
 7133 039b 05       		.uleb128 0x5
 7134 039c 00       		.byte	0
 7135 039d 31       		.uleb128 0x31
 7136 039e 13       		.uleb128 0x13
 7137 039f 00       		.byte	0
 7138 03a0 00       		.byte	0
 7139 03a1 40       		.uleb128 0x40
 7140 03a2 1D       		.uleb128 0x1d
 7141 03a3 01       		.byte	0x1
 7142 03a4 31       		.uleb128 0x31
 7143 03a5 13       		.uleb128 0x13
 7144 03a6 11       		.uleb128 0x11
 7145 03a7 01       		.uleb128 0x1
 7146 03a8 12       		.uleb128 0x12
 7147 03a9 06       		.uleb128 0x6
 7148 03aa 58       		.uleb128 0x58
 7149 03ab 0B       		.uleb128 0xb
 7150 03ac 59       		.uleb128 0x59
 7151 03ad 05       		.uleb128 0x5
 7152 03ae 00       		.byte	0
 7153 03af 00       		.byte	0
 7154 03b0 41       		.uleb128 0x41
 7155 03b1 2E       		.uleb128 0x2e
 7156 03b2 01       		.byte	0x1
 7157 03b3 03       		.uleb128 0x3
 7158 03b4 0E       		.uleb128 0xe
 7159 03b5 3A       		.uleb128 0x3a
 7160 03b6 0B       		.uleb128 0xb
 7161 03b7 3B       		.uleb128 0x3b
 7162 03b8 05       		.uleb128 0x5
 7163 03b9 27       		.uleb128 0x27
 7164 03ba 19       		.uleb128 0x19
 7165 03bb 49       		.uleb128 0x49
 7166 03bc 13       		.uleb128 0x13
 7167 03bd 20       		.uleb128 0x20
 7168 03be 0B       		.uleb128 0xb
 7169 03bf 01       		.uleb128 0x1
 7170 03c0 13       		.uleb128 0x13
 7171 03c1 00       		.byte	0
 7172 03c2 00       		.byte	0
 7173 03c3 42       		.uleb128 0x42
 7174 03c4 34       		.uleb128 0x34
 7175 03c5 00       		.byte	0
ARM GAS  C:\Users\rdn\AppData\Local\Temp\ccet7BYP.s 			page 144


 7176 03c6 03       		.uleb128 0x3
 7177 03c7 0E       		.uleb128 0xe
 7178 03c8 3A       		.uleb128 0x3a
 7179 03c9 0B       		.uleb128 0xb
 7180 03ca 3B       		.uleb128 0x3b
 7181 03cb 0B       		.uleb128 0xb
 7182 03cc 49       		.uleb128 0x49
 7183 03cd 13       		.uleb128 0x13
 7184 03ce 3F       		.uleb128 0x3f
 7185 03cf 19       		.uleb128 0x19
 7186 03d0 3C       		.uleb128 0x3c
 7187 03d1 19       		.uleb128 0x19
 7188 03d2 00       		.byte	0
 7189 03d3 00       		.byte	0
 7190 03d4 43       		.uleb128 0x43
 7191 03d5 21       		.uleb128 0x21
 7192 03d6 00       		.byte	0
 7193 03d7 00       		.byte	0
 7194 03d8 00       		.byte	0
 7195 03d9 44       		.uleb128 0x44
 7196 03da 2E       		.uleb128 0x2e
 7197 03db 00       		.byte	0
 7198 03dc 3F       		.uleb128 0x3f
 7199 03dd 19       		.uleb128 0x19
 7200 03de 3C       		.uleb128 0x3c
 7201 03df 19       		.uleb128 0x19
 7202 03e0 6E       		.uleb128 0x6e
 7203 03e1 0E       		.uleb128 0xe
 7204 03e2 03       		.uleb128 0x3
 7205 03e3 0E       		.uleb128 0xe
 7206 03e4 00       		.byte	0
 7207 03e5 00       		.byte	0
 7208 03e6 45       		.uleb128 0x45
 7209 03e7 2E       		.uleb128 0x2e
 7210 03e8 00       		.byte	0
 7211 03e9 3F       		.uleb128 0x3f
 7212 03ea 19       		.uleb128 0x19
 7213 03eb 3C       		.uleb128 0x3c
 7214 03ec 19       		.uleb128 0x19
 7215 03ed 6E       		.uleb128 0x6e
 7216 03ee 0E       		.uleb128 0xe
 7217 03ef 03       		.uleb128 0x3
 7218 03f0 0E       		.uleb128 0xe
 7219 03f1 3A       		.uleb128 0x3a
 7220 03f2 0B       		.uleb128 0xb
 7221 03f3 3B       		.uleb128 0x3b
 7222 03f4 0B       		.uleb128 0xb
 7223 03f5 00       		.byte	0
 7224 03f6 00       		.byte	0
 7225 03f7 00       		.byte	0
 7226              		.section	.debug_loc,"",%progbits
 7227              	.Ldebug_loc0:
 7228              	.LLST0:
 7229 0000 00000000 		.4byte	.LVL0
 7230 0004 04000000 		.4byte	.LVL2
 7231 0008 0100     		.2byte	0x1
 7232 000a 50       		.byte	0x50
ARM GAS  C:\Users\rdn\AppData\Local\Temp\ccet7BYP.s 			page 145


 7233 000b 04000000 		.4byte	.LVL2
 7234 000f 16000000 		.4byte	.LFE20
 7235 0013 0400     		.2byte	0x4
 7236 0015 F3       		.byte	0xf3
 7237 0016 01       		.uleb128 0x1
 7238 0017 50       		.byte	0x50
 7239 0018 9F       		.byte	0x9f
 7240 0019 00000000 		.4byte	0
 7241 001d 00000000 		.4byte	0
 7242              	.LLST1:
 7243 0021 00000000 		.4byte	.LVL0
 7244 0025 02000000 		.4byte	.LVL1
 7245 0029 0100     		.2byte	0x1
 7246 002b 51       		.byte	0x51
 7247 002c 02000000 		.4byte	.LVL1
 7248 0030 16000000 		.4byte	.LFE20
 7249 0034 0400     		.2byte	0x4
 7250 0036 F3       		.byte	0xf3
 7251 0037 01       		.uleb128 0x1
 7252 0038 51       		.byte	0x51
 7253 0039 9F       		.byte	0x9f
 7254 003a 00000000 		.4byte	0
 7255 003e 00000000 		.4byte	0
 7256              	.LLST2:
 7257 0042 00000000 		.4byte	.LVL3
 7258 0046 1E000000 		.4byte	.LVL6
 7259 004a 0100     		.2byte	0x1
 7260 004c 50       		.byte	0x50
 7261 004d 1E000000 		.4byte	.LVL6
 7262 0051 74040000 		.4byte	.LFE22
 7263 0055 0400     		.2byte	0x4
 7264 0057 F3       		.byte	0xf3
 7265 0058 01       		.uleb128 0x1
 7266 0059 50       		.byte	0x50
 7267 005a 9F       		.byte	0x9f
 7268 005b 00000000 		.4byte	0
 7269 005f 00000000 		.4byte	0
 7270              	.LLST3:
 7271 0063 00000000 		.4byte	.LVL3
 7272 0067 1C000000 		.4byte	.LVL5
 7273 006b 0100     		.2byte	0x1
 7274 006d 51       		.byte	0x51
 7275 006e 1C000000 		.4byte	.LVL5
 7276 0072 74040000 		.4byte	.LFE22
 7277 0076 0400     		.2byte	0x4
 7278 0078 F3       		.byte	0xf3
 7279 0079 01       		.uleb128 0x1
 7280 007a 51       		.byte	0x51
 7281 007b 9F       		.byte	0x9f
 7282 007c 00000000 		.4byte	0
 7283 0080 00000000 		.4byte	0
 7284              	.LLST4:
 7285 0084 00000000 		.4byte	.LVL3
 7286 0088 1A000000 		.4byte	.LVL4
 7287 008c 0100     		.2byte	0x1
 7288 008e 52       		.byte	0x52
 7289 008f 1A000000 		.4byte	.LVL4
ARM GAS  C:\Users\rdn\AppData\Local\Temp\ccet7BYP.s 			page 146


 7290 0093 74040000 		.4byte	.LFE22
 7291 0097 0300     		.2byte	0x3
 7292 0099 91       		.byte	0x91
 7293 009a A07D     		.sleb128 -352
 7294 009c 00000000 		.4byte	0
 7295 00a0 00000000 		.4byte	0
 7296              	.LLST5:
 7297 00a4 00000000 		.4byte	.LVL3
 7298 00a8 21000000 		.4byte	.LVL7-1
 7299 00ac 0100     		.2byte	0x1
 7300 00ae 53       		.byte	0x53
 7301 00af 21000000 		.4byte	.LVL7-1
 7302 00b3 74040000 		.4byte	.LFE22
 7303 00b7 0300     		.2byte	0x3
 7304 00b9 91       		.byte	0x91
 7305 00ba 987D     		.sleb128 -360
 7306 00bc 00000000 		.4byte	0
 7307 00c0 00000000 		.4byte	0
 7308              	.LLST6:
 7309 00c4 AA000000 		.4byte	.LVL8
 7310 00c8 B4000000 		.4byte	.LVL9
 7311 00cc 0100     		.2byte	0x1
 7312 00ce 53       		.byte	0x53
 7313 00cf B4000000 		.4byte	.LVL9
 7314 00d3 B6000000 		.4byte	.LVL10
 7315 00d7 0F00     		.2byte	0xf
 7316 00d9 75       		.byte	0x75
 7317 00da 00       		.sleb128 0
 7318 00db 33       		.byte	0x33
 7319 00dc 24       		.byte	0x24
 7320 00dd 75       		.byte	0x75
 7321 00de 00       		.sleb128 0
 7322 00df 1C       		.byte	0x1c
 7323 00e0 76       		.byte	0x76
 7324 00e1 00       		.sleb128 0
 7325 00e2 22       		.byte	0x22
 7326 00e3 32       		.byte	0x32
 7327 00e4 24       		.byte	0x24
 7328 00e5 74       		.byte	0x74
 7329 00e6 00       		.sleb128 0
 7330 00e7 22       		.byte	0x22
 7331 00e8 B6000000 		.4byte	.LVL10
 7332 00ec B8000000 		.4byte	.LVL11
 7333 00f0 0100     		.2byte	0x1
 7334 00f2 53       		.byte	0x53
 7335 00f3 B8000000 		.4byte	.LVL11
 7336 00f7 BA000000 		.4byte	.LVL12
 7337 00fb 0F00     		.2byte	0xf
 7338 00fd 75       		.byte	0x75
 7339 00fe 00       		.sleb128 0
 7340 00ff 33       		.byte	0x33
 7341 0100 24       		.byte	0x24
 7342 0101 75       		.byte	0x75
 7343 0102 00       		.sleb128 0
 7344 0103 1C       		.byte	0x1c
 7345 0104 76       		.byte	0x76
 7346 0105 00       		.sleb128 0
ARM GAS  C:\Users\rdn\AppData\Local\Temp\ccet7BYP.s 			page 147


 7347 0106 22       		.byte	0x22
 7348 0107 32       		.byte	0x32
 7349 0108 24       		.byte	0x24
 7350 0109 74       		.byte	0x74
 7351 010a 00       		.sleb128 0
 7352 010b 22       		.byte	0x22
 7353 010c BA000000 		.4byte	.LVL12
 7354 0110 BC000000 		.4byte	.LVL13
 7355 0114 0100     		.2byte	0x1
 7356 0116 53       		.byte	0x53
 7357 0117 BC000000 		.4byte	.LVL13
 7358 011b E6000000 		.4byte	.LVL20
 7359 011f 0F00     		.2byte	0xf
 7360 0121 75       		.byte	0x75
 7361 0122 00       		.sleb128 0
 7362 0123 33       		.byte	0x33
 7363 0124 24       		.byte	0x24
 7364 0125 75       		.byte	0x75
 7365 0126 00       		.sleb128 0
 7366 0127 1C       		.byte	0x1c
 7367 0128 76       		.byte	0x76
 7368 0129 00       		.sleb128 0
 7369 012a 22       		.byte	0x22
 7370 012b 32       		.byte	0x32
 7371 012c 24       		.byte	0x24
 7372 012d 74       		.byte	0x74
 7373 012e 00       		.sleb128 0
 7374 012f 22       		.byte	0x22
 7375 0130 E6000000 		.4byte	.LVL20
 7376 0134 FC000000 		.4byte	.LVL23
 7377 0138 0300     		.2byte	0x3
 7378 013a 91       		.byte	0x91
 7379 013b 907D     		.sleb128 -368
 7380 013d FC000000 		.4byte	.LVL23
 7381 0141 FE000000 		.4byte	.LVL24
 7382 0145 0100     		.2byte	0x1
 7383 0147 53       		.byte	0x53
 7384 0148 FE000000 		.4byte	.LVL24
 7385 014c C4020000 		.4byte	.LVL70
 7386 0150 0300     		.2byte	0x3
 7387 0152 91       		.byte	0x91
 7388 0153 907D     		.sleb128 -368
 7389 0155 00000000 		.4byte	0
 7390 0159 00000000 		.4byte	0
 7391              	.LLST7:
 7392 015d C0000000 		.4byte	.LVL14
 7393 0161 C6000000 		.4byte	.LVL15
 7394 0165 0100     		.2byte	0x1
 7395 0167 53       		.byte	0x53
 7396 0168 C6000000 		.4byte	.LVL15
 7397 016c CA000000 		.4byte	.LVL16
 7398 0170 0300     		.2byte	0x3
 7399 0172 91       		.byte	0x91
 7400 0173 A47D     		.sleb128 -348
 7401 0175 CA000000 		.4byte	.LVL16
 7402 0179 CC000000 		.4byte	.LVL17
 7403 017d 0100     		.2byte	0x1
ARM GAS  C:\Users\rdn\AppData\Local\Temp\ccet7BYP.s 			page 148


 7404 017f 53       		.byte	0x53
 7405 0180 CC000000 		.4byte	.LVL17
 7406 0184 74040000 		.4byte	.LFE22
 7407 0188 0300     		.2byte	0x3
 7408 018a 91       		.byte	0x91
 7409 018b A47D     		.sleb128 -348
 7410 018d 00000000 		.4byte	0
 7411 0191 00000000 		.4byte	0
 7412              	.LLST8:
 7413 0195 F6000000 		.4byte	.LVL22
 7414 0199 6A010000 		.4byte	.LVL40
 7415 019d 0100     		.2byte	0x1
 7416 019f 58       		.byte	0x58
 7417 01a0 00000000 		.4byte	0
 7418 01a4 00000000 		.4byte	0
 7419              	.LLST9:
 7420 01a8 DC000000 		.4byte	.LVL19
 7421 01ac 08010000 		.4byte	.LVL25
 7422 01b0 0100     		.2byte	0x1
 7423 01b2 58       		.byte	0x58
 7424 01b3 08010000 		.4byte	.LVL25
 7425 01b7 0A010000 		.4byte	.LVL26
 7426 01bb 0100     		.2byte	0x1
 7427 01bd 53       		.byte	0x53
 7428 01be 0A010000 		.4byte	.LVL26
 7429 01c2 6A010000 		.4byte	.LVL40
 7430 01c6 0300     		.2byte	0x3
 7431 01c8 91       		.byte	0x91
 7432 01c9 8C7D     		.sleb128 -372
 7433 01cb 6A010000 		.4byte	.LVL40
 7434 01cf C4020000 		.4byte	.LVL70
 7435 01d3 0100     		.2byte	0x1
 7436 01d5 58       		.byte	0x58
 7437 01d6 00000000 		.4byte	0
 7438 01da 00000000 		.4byte	0
 7439              	.LLST10:
 7440 01de DC000000 		.4byte	.LVL19
 7441 01e2 E6000000 		.4byte	.LVL20
 7442 01e6 0200     		.2byte	0x2
 7443 01e8 30       		.byte	0x30
 7444 01e9 9F       		.byte	0x9f
 7445 01ea E6000000 		.4byte	.LVL20
 7446 01ee EF000000 		.4byte	.LVL21-1
 7447 01f2 0100     		.2byte	0x1
 7448 01f4 53       		.byte	0x53
 7449 01f5 EF000000 		.4byte	.LVL21-1
 7450 01f9 74040000 		.4byte	.LFE22
 7451 01fd 0300     		.2byte	0x3
 7452 01ff 91       		.byte	0x91
 7453 0200 9C7D     		.sleb128 -356
 7454 0202 00000000 		.4byte	0
 7455 0206 00000000 		.4byte	0
 7456              	.LLST11:
 7457 020a F0000000 		.4byte	.LVL21
 7458 020e F6000000 		.4byte	.LVL22
 7459 0212 0200     		.2byte	0x2
 7460 0214 30       		.byte	0x30
ARM GAS  C:\Users\rdn\AppData\Local\Temp\ccet7BYP.s 			page 149


 7461 0215 9F       		.byte	0x9f
 7462 0216 F6000000 		.4byte	.LVL22
 7463 021a 1A020000 		.4byte	.LVL57
 7464 021e 0100     		.2byte	0x1
 7465 0220 5B       		.byte	0x5b
 7466 0221 00000000 		.4byte	0
 7467 0225 00000000 		.4byte	0
 7468              	.LLST12:
 7469 0229 08010000 		.4byte	.LVL25
 7470 022d 0E010000 		.4byte	.LVL27
 7471 0231 0200     		.2byte	0x2
 7472 0233 30       		.byte	0x30
 7473 0234 9F       		.byte	0x9f
 7474 0235 0E010000 		.4byte	.LVL27
 7475 0239 6A010000 		.4byte	.LVL40
 7476 023d 0100     		.2byte	0x1
 7477 023f 59       		.byte	0x59
 7478 0240 00000000 		.4byte	0
 7479 0244 00000000 		.4byte	0
 7480              	.LLST13:
 7481 0248 20010000 		.4byte	.LVL28
 7482 024c 26010000 		.4byte	.LVL29
 7483 0250 0100     		.2byte	0x1
 7484 0252 53       		.byte	0x53
 7485 0253 26010000 		.4byte	.LVL29
 7486 0257 42010000 		.4byte	.LVL35
 7487 025b 0100     		.2byte	0x1
 7488 025d 55       		.byte	0x55
 7489 025e 42010000 		.4byte	.LVL35
 7490 0262 44010000 		.4byte	.LVL36
 7491 0266 0100     		.2byte	0x1
 7492 0268 53       		.byte	0x53
 7493 0269 44010000 		.4byte	.LVL36
 7494 026d 48010000 		.4byte	.LVL37
 7495 0271 0100     		.2byte	0x1
 7496 0273 55       		.byte	0x55
 7497 0274 00000000 		.4byte	0
 7498 0278 00000000 		.4byte	0
 7499              	.LLST14:
 7500 027c 20010000 		.4byte	.LVL28
 7501 0280 2C010000 		.4byte	.LVL31
 7502 0284 0100     		.2byte	0x1
 7503 0286 52       		.byte	0x52
 7504 0287 2C010000 		.4byte	.LVL31
 7505 028b 42010000 		.4byte	.LVL35
 7506 028f 0100     		.2byte	0x1
 7507 0291 57       		.byte	0x57
 7508 0292 42010000 		.4byte	.LVL35
 7509 0296 48010000 		.4byte	.LVL37
 7510 029a 0100     		.2byte	0x1
 7511 029c 52       		.byte	0x52
 7512 029d 00000000 		.4byte	0
 7513 02a1 00000000 		.4byte	0
 7514              	.LLST15:
 7515 02a5 20010000 		.4byte	.LVL28
 7516 02a9 26010000 		.4byte	.LVL29
 7517 02ad 0100     		.2byte	0x1
ARM GAS  C:\Users\rdn\AppData\Local\Temp\ccet7BYP.s 			page 150


 7518 02af 58       		.byte	0x58
 7519 02b0 26010000 		.4byte	.LVL29
 7520 02b4 28010000 		.4byte	.LVL30
 7521 02b8 0100     		.2byte	0x1
 7522 02ba 51       		.byte	0x51
 7523 02bb 28010000 		.4byte	.LVL30
 7524 02bf 42010000 		.4byte	.LVL35
 7525 02c3 0100     		.2byte	0x1
 7526 02c5 56       		.byte	0x56
 7527 02c6 42010000 		.4byte	.LVL35
 7528 02ca 48010000 		.4byte	.LVL37
 7529 02ce 0100     		.2byte	0x1
 7530 02d0 51       		.byte	0x51
 7531 02d1 00000000 		.4byte	0
 7532 02d5 00000000 		.4byte	0
 7533              	.LLST16:
 7534 02d9 20010000 		.4byte	.LVL28
 7535 02dd 26010000 		.4byte	.LVL29
 7536 02e1 0600     		.2byte	0x6
 7537 02e3 9E       		.byte	0x9e
 7538 02e4 04       		.uleb128 0x4
 7539 02e5 00000000 		.4byte	0
 7540 02e9 26010000 		.4byte	.LVL29
 7541 02ed 3C010000 		.4byte	.LVL34
 7542 02f1 0100     		.2byte	0x1
 7543 02f3 54       		.byte	0x54
 7544 02f4 3C010000 		.4byte	.LVL34
 7545 02f8 42010000 		.4byte	.LVL35
 7546 02fc 0100     		.2byte	0x1
 7547 02fe 50       		.byte	0x50
 7548 02ff 42010000 		.4byte	.LVL35
 7549 0303 48010000 		.4byte	.LVL37
 7550 0307 0100     		.2byte	0x1
 7551 0309 54       		.byte	0x54
 7552 030a 00000000 		.4byte	0
 7553 030e 00000000 		.4byte	0
 7554              	.LLST17:
 7555 0312 8C010000 		.4byte	.LVL42
 7556 0316 08020000 		.4byte	.LVL52
 7557 031a 0100     		.2byte	0x1
 7558 031c 55       		.byte	0x55
 7559 031d 00000000 		.4byte	0
 7560 0321 00000000 		.4byte	0
 7561              	.LLST18:
 7562 0325 90010000 		.4byte	.LVL43
 7563 0329 96010000 		.4byte	.LVL44
 7564 032d 0100     		.2byte	0x1
 7565 032f 53       		.byte	0x53
 7566 0330 96010000 		.4byte	.LVL44
 7567 0334 08020000 		.4byte	.LVL52
 7568 0338 0300     		.2byte	0x3
 7569 033a 91       		.byte	0x91
 7570 033b 8C7D     		.sleb128 -372
 7571 033d 00000000 		.4byte	0
 7572 0341 00000000 		.4byte	0
 7573              	.LLST19:
 7574 0345 90010000 		.4byte	.LVL43
ARM GAS  C:\Users\rdn\AppData\Local\Temp\ccet7BYP.s 			page 151


 7575 0349 96010000 		.4byte	.LVL44
 7576 034d 0200     		.2byte	0x2
 7577 034f 31       		.byte	0x31
 7578 0350 9F       		.byte	0x9f
 7579 0351 96010000 		.4byte	.LVL44
 7580 0355 08020000 		.4byte	.LVL52
 7581 0359 0100     		.2byte	0x1
 7582 035b 56       		.byte	0x56
 7583 035c 00000000 		.4byte	0
 7584 0360 00000000 		.4byte	0
 7585              	.LLST20:
 7586 0364 0A020000 		.4byte	.LVL53
 7587 0368 B0020000 		.4byte	.LVL68
 7588 036c 0100     		.2byte	0x1
 7589 036e 54       		.byte	0x54
 7590 036f 00000000 		.4byte	0
 7591 0373 00000000 		.4byte	0
 7592              	.LLST21:
 7593 0377 0E020000 		.4byte	.LVL54
 7594 037b 10020000 		.4byte	.LVL55
 7595 037f 0100     		.2byte	0x1
 7596 0381 53       		.byte	0x53
 7597 0382 10020000 		.4byte	.LVL55
 7598 0386 B0020000 		.4byte	.LVL68
 7599 038a 0300     		.2byte	0x3
 7600 038c 91       		.byte	0x91
 7601 038d 8C7D     		.sleb128 -372
 7602 038f 00000000 		.4byte	0
 7603 0393 00000000 		.4byte	0
 7604              	.LLST22:
 7605 0397 12020000 		.4byte	.LVL56
 7606 039b 1A020000 		.4byte	.LVL57
 7607 039f 0100     		.2byte	0x1
 7608 03a1 53       		.byte	0x53
 7609 03a2 1A020000 		.4byte	.LVL57
 7610 03a6 B0020000 		.4byte	.LVL68
 7611 03aa 0300     		.2byte	0x3
 7612 03ac 91       		.byte	0x91
 7613 03ad A87D     		.sleb128 -344
 7614 03af 00000000 		.4byte	0
 7615 03b3 00000000 		.4byte	0
 7616              	.LLST23:
 7617 03b7 12020000 		.4byte	.LVL56
 7618 03bb 1A020000 		.4byte	.LVL57
 7619 03bf 0200     		.2byte	0x2
 7620 03c1 31       		.byte	0x31
 7621 03c2 9F       		.byte	0x9f
 7622 03c3 1A020000 		.4byte	.LVL57
 7623 03c7 B0020000 		.4byte	.LVL68
 7624 03cb 0100     		.2byte	0x1
 7625 03cd 55       		.byte	0x55
 7626 03ce 00000000 		.4byte	0
 7627 03d2 00000000 		.4byte	0
 7628              	.LLST24:
 7629 03d6 C4020000 		.4byte	.LVL70
 7630 03da F2020000 		.4byte	.LVL75
 7631 03de 0100     		.2byte	0x1
ARM GAS  C:\Users\rdn\AppData\Local\Temp\ccet7BYP.s 			page 152


 7632 03e0 56       		.byte	0x56
 7633 03e1 F2020000 		.4byte	.LVL75
 7634 03e5 62030000 		.4byte	.LVL91
 7635 03e9 0100     		.2byte	0x1
 7636 03eb 55       		.byte	0x55
 7637 03ec 62030000 		.4byte	.LVL91
 7638 03f0 BC030000 		.4byte	.LVL99
 7639 03f4 0100     		.2byte	0x1
 7640 03f6 58       		.byte	0x58
 7641 03f7 BC030000 		.4byte	.LVL99
 7642 03fb 12040000 		.4byte	.LVL111
 7643 03ff 0100     		.2byte	0x1
 7644 0401 55       		.byte	0x55
 7645 0402 12040000 		.4byte	.LVL111
 7646 0406 46040000 		.4byte	.LVL116
 7647 040a 0100     		.2byte	0x1
 7648 040c 58       		.byte	0x58
 7649 040d 46040000 		.4byte	.LVL116
 7650 0411 5E040000 		.4byte	.LVL119
 7651 0415 0100     		.2byte	0x1
 7652 0417 55       		.byte	0x55
 7653 0418 5E040000 		.4byte	.LVL119
 7654 041c 68040000 		.4byte	.LVL120
 7655 0420 0100     		.2byte	0x1
 7656 0422 56       		.byte	0x56
 7657 0423 00000000 		.4byte	0
 7658 0427 00000000 		.4byte	0
 7659              	.LLST25:
 7660 042b CE020000 		.4byte	.LVL71
 7661 042f F0020000 		.4byte	.LVL74
 7662 0433 0100     		.2byte	0x1
 7663 0435 55       		.byte	0x55
 7664 0436 F0020000 		.4byte	.LVL74
 7665 043a 0C030000 		.4byte	.LVL78
 7666 043e 0100     		.2byte	0x1
 7667 0440 59       		.byte	0x59
 7668 0441 0C030000 		.4byte	.LVL78
 7669 0445 36030000 		.4byte	.LVL83
 7670 0449 0100     		.2byte	0x1
 7671 044b 57       		.byte	0x57
 7672 044c 36030000 		.4byte	.LVL83
 7673 0450 64030000 		.4byte	.LVL92
 7674 0454 0100     		.2byte	0x1
 7675 0456 59       		.byte	0x59
 7676 0457 64030000 		.4byte	.LVL92
 7677 045b 8C030000 		.4byte	.LVL96
 7678 045f 0100     		.2byte	0x1
 7679 0461 55       		.byte	0x55
 7680 0462 8C030000 		.4byte	.LVL96
 7681 0466 5E040000 		.4byte	.LVL119
 7682 046a 0100     		.2byte	0x1
 7683 046c 59       		.byte	0x59
 7684 046d 00000000 		.4byte	0
 7685 0471 00000000 		.4byte	0
 7686              	.LLST26:
 7687 0475 D6020000 		.4byte	.LVL72
 7688 0479 F2020000 		.4byte	.LVL75
ARM GAS  C:\Users\rdn\AppData\Local\Temp\ccet7BYP.s 			page 153


 7689 047d 0100     		.2byte	0x1
 7690 047f 52       		.byte	0x52
 7691 0480 F2020000 		.4byte	.LVL75
 7692 0484 5C030000 		.4byte	.LVL90
 7693 0488 0300     		.2byte	0x3
 7694 048a 91       		.byte	0x91
 7695 048b 907D     		.sleb128 -368
 7696 048d 5C030000 		.4byte	.LVL90
 7697 0491 64030000 		.4byte	.LVL92
 7698 0495 0100     		.2byte	0x1
 7699 0497 50       		.byte	0x50
 7700 0498 64030000 		.4byte	.LVL92
 7701 049c 0A040000 		.4byte	.LVL110
 7702 04a0 0300     		.2byte	0x3
 7703 04a2 91       		.byte	0x91
 7704 04a3 907D     		.sleb128 -368
 7705 04a5 0A040000 		.4byte	.LVL110
 7706 04a9 12040000 		.4byte	.LVL111
 7707 04ad 0100     		.2byte	0x1
 7708 04af 50       		.byte	0x50
 7709 04b0 12040000 		.4byte	.LVL111
 7710 04b4 5E040000 		.4byte	.LVL119
 7711 04b8 0300     		.2byte	0x3
 7712 04ba 91       		.byte	0x91
 7713 04bb 907D     		.sleb128 -368
 7714 04bd 00000000 		.4byte	0
 7715 04c1 00000000 		.4byte	0
 7716              	.LLST27:
 7717 04c5 04030000 		.4byte	.LVL76
 7718 04c9 0A030000 		.4byte	.LVL77
 7719 04cd 0100     		.2byte	0x1
 7720 04cf 57       		.byte	0x57
 7721 04d0 0A030000 		.4byte	.LVL77
 7722 04d4 2C030000 		.4byte	.LVL81
 7723 04d8 0300     		.2byte	0x3
 7724 04da 91       		.byte	0x91
 7725 04db 8C7D     		.sleb128 -372
 7726 04dd 2C030000 		.4byte	.LVL81
 7727 04e1 2E030000 		.4byte	.LVL82
 7728 04e5 0100     		.2byte	0x1
 7729 04e7 50       		.byte	0x50
 7730 04e8 2E030000 		.4byte	.LVL82
 7731 04ec 42030000 		.4byte	.LVL86
 7732 04f0 0300     		.2byte	0x3
 7733 04f2 91       		.byte	0x91
 7734 04f3 8C7D     		.sleb128 -372
 7735 04f5 42030000 		.4byte	.LVL86
 7736 04f9 47030000 		.4byte	.LVL87-1
 7737 04fd 0100     		.2byte	0x1
 7738 04ff 50       		.byte	0x50
 7739 0500 47030000 		.4byte	.LVL87-1
 7740 0504 DE030000 		.4byte	.LVL102
 7741 0508 0300     		.2byte	0x3
 7742 050a 91       		.byte	0x91
 7743 050b 8C7D     		.sleb128 -372
 7744 050d DE030000 		.4byte	.LVL102
 7745 0511 E0030000 		.4byte	.LVL103
ARM GAS  C:\Users\rdn\AppData\Local\Temp\ccet7BYP.s 			page 154


 7746 0515 0100     		.2byte	0x1
 7747 0517 50       		.byte	0x50
 7748 0518 E0030000 		.4byte	.LVL103
 7749 051c F0030000 		.4byte	.LVL106
 7750 0520 0300     		.2byte	0x3
 7751 0522 91       		.byte	0x91
 7752 0523 8C7D     		.sleb128 -372
 7753 0525 F0030000 		.4byte	.LVL106
 7754 0529 F5030000 		.4byte	.LVL107-1
 7755 052d 0100     		.2byte	0x1
 7756 052f 50       		.byte	0x50
 7757 0530 F5030000 		.4byte	.LVL107-1
 7758 0534 46040000 		.4byte	.LVL116
 7759 0538 0300     		.2byte	0x3
 7760 053a 91       		.byte	0x91
 7761 053b 8C7D     		.sleb128 -372
 7762 053d 00000000 		.4byte	0
 7763 0541 00000000 		.4byte	0
 7764              	.LLST28:
 7765 0545 EA020000 		.4byte	.LVL73
 7766 0549 F2020000 		.4byte	.LVL75
 7767 054d 0200     		.2byte	0x2
 7768 054f 31       		.byte	0x31
 7769 0550 9F       		.byte	0x9f
 7770 0551 F2020000 		.4byte	.LVL75
 7771 0555 8E030000 		.4byte	.LVL97
 7772 0559 0100     		.2byte	0x1
 7773 055b 54       		.byte	0x54
 7774 055c 8E030000 		.4byte	.LVL97
 7775 0560 3E040000 		.4byte	.LVL115
 7776 0564 0100     		.2byte	0x1
 7777 0566 57       		.byte	0x57
 7778 0567 3E040000 		.4byte	.LVL115
 7779 056b 54040000 		.4byte	.LVL117
 7780 056f 0100     		.2byte	0x1
 7781 0571 54       		.byte	0x54
 7782 0572 00000000 		.4byte	0
 7783 0576 00000000 		.4byte	0
 7784              	.LLST29:
 7785 057a 04030000 		.4byte	.LVL76
 7786 057e 0C030000 		.4byte	.LVL78
 7787 0582 0200     		.2byte	0x2
 7788 0584 31       		.byte	0x31
 7789 0585 9F       		.byte	0x9f
 7790 0586 0C030000 		.4byte	.LVL78
 7791 058a 38030000 		.4byte	.LVL84
 7792 058e 0100     		.2byte	0x1
 7793 0590 56       		.byte	0x56
 7794 0591 00000000 		.4byte	0
 7795 0595 00000000 		.4byte	0
 7796              	.LLST30:
 7797 0599 5C030000 		.4byte	.LVL90
 7798 059d 64030000 		.4byte	.LVL92
 7799 05a1 0200     		.2byte	0x2
 7800 05a3 31       		.byte	0x31
 7801 05a4 9F       		.byte	0x9f
 7802 05a5 64030000 		.4byte	.LVL92
ARM GAS  C:\Users\rdn\AppData\Local\Temp\ccet7BYP.s 			page 155


 7803 05a9 8E030000 		.4byte	.LVL97
 7804 05ad 0100     		.2byte	0x1
 7805 05af 57       		.byte	0x57
 7806 05b0 00000000 		.4byte	0
 7807 05b4 00000000 		.4byte	0
 7808              	.LLST31:
 7809 05b8 AC030000 		.4byte	.LVL98
 7810 05bc BC030000 		.4byte	.LVL99
 7811 05c0 0200     		.2byte	0x2
 7812 05c2 31       		.byte	0x31
 7813 05c3 9F       		.byte	0x9f
 7814 05c4 BC030000 		.4byte	.LVL99
 7815 05c8 E6030000 		.4byte	.LVL104
 7816 05cc 0100     		.2byte	0x1
 7817 05ce 56       		.byte	0x56
 7818 05cf 00000000 		.4byte	0
 7819 05d3 00000000 		.4byte	0
 7820              	.LLST32:
 7821 05d7 0A040000 		.4byte	.LVL110
 7822 05db 12040000 		.4byte	.LVL111
 7823 05df 0200     		.2byte	0x2
 7824 05e1 31       		.byte	0x31
 7825 05e2 9F       		.byte	0x9f
 7826 05e3 12040000 		.4byte	.LVL111
 7827 05e7 46040000 		.4byte	.LVL116
 7828 05eb 0100     		.2byte	0x1
 7829 05ed 56       		.byte	0x56
 7830 05ee 00000000 		.4byte	0
 7831 05f2 00000000 		.4byte	0
 7832              	.LLST33:
 7833 05f6 00000000 		.4byte	.LVL121
 7834 05fa 0A000000 		.4byte	.LVL123
 7835 05fe 0100     		.2byte	0x1
 7836 0600 50       		.byte	0x50
 7837 0601 0A000000 		.4byte	.LVL123
 7838 0605 0F000000 		.4byte	.LVL124-1
 7839 0609 0100     		.2byte	0x1
 7840 060b 51       		.byte	0x51
 7841 060c 0F000000 		.4byte	.LVL124-1
 7842 0610 58000000 		.4byte	.LFE23
 7843 0614 0600     		.2byte	0x6
 7844 0616 F3       		.byte	0xf3
 7845 0617 03       		.uleb128 0x3
 7846 0618 F5       		.byte	0xf5
 7847 0619 00       		.uleb128 0
 7848 061a 25       		.uleb128 0x25
 7849 061b 9F       		.byte	0x9f
 7850 061c 00000000 		.4byte	0
 7851 0620 00000000 		.4byte	0
 7852              	.LLST34:
 7853 0624 00000000 		.4byte	.LVL121
 7854 0628 08000000 		.4byte	.LVL122
 7855 062c 0100     		.2byte	0x1
 7856 062e 51       		.byte	0x51
 7857 062f 08000000 		.4byte	.LVL122
 7858 0633 50000000 		.4byte	.LVL136
 7859 0637 0100     		.2byte	0x1
ARM GAS  C:\Users\rdn\AppData\Local\Temp\ccet7BYP.s 			page 156


 7860 0639 56       		.byte	0x56
 7861 063a 50000000 		.4byte	.LVL136
 7862 063e 58000000 		.4byte	.LFE23
 7863 0642 0400     		.2byte	0x4
 7864 0644 F3       		.byte	0xf3
 7865 0645 01       		.uleb128 0x1
 7866 0646 51       		.byte	0x51
 7867 0647 9F       		.byte	0x9f
 7868 0648 00000000 		.4byte	0
 7869 064c 00000000 		.4byte	0
 7870              	.LLST35:
 7871 0650 28000000 		.4byte	.LVL128
 7872 0654 30000000 		.4byte	.LVL129
 7873 0658 0100     		.2byte	0x1
 7874 065a 50       		.byte	0x50
 7875 065b 30000000 		.4byte	.LVL129
 7876 065f 58000000 		.4byte	.LFE23
 7877 0663 0200     		.2byte	0x2
 7878 0665 91       		.byte	0x91
 7879 0666 64       		.sleb128 -28
 7880 0667 00000000 		.4byte	0
 7881 066b 00000000 		.4byte	0
 7882              	.LLST36:
 7883 066f 28000000 		.4byte	.LVL128
 7884 0673 30000000 		.4byte	.LVL129
 7885 0677 0600     		.2byte	0x6
 7886 0679 9E       		.byte	0x9e
 7887 067a 04       		.uleb128 0x4
 7888 067b 0000803F 		.4byte	0x3f800000
 7889 067f 30000000 		.4byte	.LVL129
 7890 0683 3A000000 		.4byte	.LVL131
 7891 0687 0100     		.2byte	0x1
 7892 0689 55       		.byte	0x55
 7893 068a 3A000000 		.4byte	.LVL131
 7894 068e 42000000 		.4byte	.LVL132
 7895 0692 0100     		.2byte	0x1
 7896 0694 50       		.byte	0x50
 7897 0695 42000000 		.4byte	.LVL132
 7898 0699 45000000 		.4byte	.LVL133-1
 7899 069d 0100     		.2byte	0x1
 7900 069f 51       		.byte	0x51
 7901 06a0 45000000 		.4byte	.LVL133-1
 7902 06a4 50000000 		.4byte	.LVL135
 7903 06a8 0100     		.2byte	0x1
 7904 06aa 55       		.byte	0x55
 7905 06ab 00000000 		.4byte	0
 7906 06af 00000000 		.4byte	0
 7907              	.LLST37:
 7908 06b3 28000000 		.4byte	.LVL128
 7909 06b7 30000000 		.4byte	.LVL129
 7910 06bb 0200     		.2byte	0x2
 7911 06bd 31       		.byte	0x31
 7912 06be 9F       		.byte	0x9f
 7913 06bf 30000000 		.4byte	.LVL129
 7914 06c3 50000000 		.4byte	.LVL137
 7915 06c7 0100     		.2byte	0x1
 7916 06c9 57       		.byte	0x57
ARM GAS  C:\Users\rdn\AppData\Local\Temp\ccet7BYP.s 			page 157


 7917 06ca 00000000 		.4byte	0
 7918 06ce 00000000 		.4byte	0
 7919              	.LLST38:
 7920 06d2 00000000 		.4byte	.LVL138
 7921 06d6 22000000 		.4byte	.LVL139
 7922 06da 0100     		.2byte	0x1
 7923 06dc 50       		.byte	0x50
 7924 06dd 22000000 		.4byte	.LVL139
 7925 06e1 74000000 		.4byte	.LVL152
 7926 06e5 0100     		.2byte	0x1
 7927 06e7 55       		.byte	0x55
 7928 06e8 74000000 		.4byte	.LVL152
 7929 06ec 04010000 		.4byte	.LFE24
 7930 06f0 0400     		.2byte	0x4
 7931 06f2 F3       		.byte	0xf3
 7932 06f3 01       		.uleb128 0x1
 7933 06f4 50       		.byte	0x50
 7934 06f5 9F       		.byte	0x9f
 7935 06f6 00000000 		.4byte	0
 7936 06fa 00000000 		.4byte	0
 7937              	.LLST39:
 7938 06fe 00000000 		.4byte	.LVL138
 7939 0702 28000000 		.4byte	.LVL140
 7940 0706 0100     		.2byte	0x1
 7941 0708 51       		.byte	0x51
 7942 0709 28000000 		.4byte	.LVL140
 7943 070d 78000000 		.4byte	.LVL154
 7944 0711 0100     		.2byte	0x1
 7945 0713 57       		.byte	0x57
 7946 0714 78000000 		.4byte	.LVL154
 7947 0718 04010000 		.4byte	.LFE24
 7948 071c 0400     		.2byte	0x4
 7949 071e F3       		.byte	0xf3
 7950 071f 01       		.uleb128 0x1
 7951 0720 51       		.byte	0x51
 7952 0721 9F       		.byte	0x9f
 7953 0722 00000000 		.4byte	0
 7954 0726 00000000 		.4byte	0
 7955              	.LLST40:
 7956 072a 00000000 		.4byte	.LVL138
 7957 072e 2B000000 		.4byte	.LVL141-1
 7958 0732 0100     		.2byte	0x1
 7959 0734 52       		.byte	0x52
 7960 0735 2B000000 		.4byte	.LVL141-1
 7961 0739 F2000000 		.4byte	.LVL168
 7962 073d 0100     		.2byte	0x1
 7963 073f 5A       		.byte	0x5a
 7964 0740 F2000000 		.4byte	.LVL168
 7965 0744 04010000 		.4byte	.LFE24
 7966 0748 0100     		.2byte	0x1
 7967 074a 53       		.byte	0x53
 7968 074b 00000000 		.4byte	0
 7969 074f 00000000 		.4byte	0
 7970              	.LLST41:
 7971 0753 38000000 		.4byte	.LVL143
 7972 0757 3C000000 		.4byte	.LVL144
 7973 075b 0100     		.2byte	0x1
ARM GAS  C:\Users\rdn\AppData\Local\Temp\ccet7BYP.s 			page 158


 7974 075d 50       		.byte	0x50
 7975 075e 3C000000 		.4byte	.LVL144
 7976 0762 A8000000 		.4byte	.LVL158
 7977 0766 0300     		.2byte	0x3
 7978 0768 91       		.byte	0x91
 7979 0769 9C7F     		.sleb128 -100
 7980 076b A8000000 		.4byte	.LVL158
 7981 076f AC000000 		.4byte	.LVL159
 7982 0773 0100     		.2byte	0x1
 7983 0775 50       		.byte	0x50
 7984 0776 AC000000 		.4byte	.LVL159
 7985 077a 04010000 		.4byte	.LFE24
 7986 077e 0300     		.2byte	0x3
 7987 0780 91       		.byte	0x91
 7988 0781 9C7F     		.sleb128 -100
 7989 0783 00000000 		.4byte	0
 7990 0787 00000000 		.4byte	0
 7991              	.LLST42:
 7992 078b 78000000 		.4byte	.LVL154
 7993 078f E2000000 		.4byte	.LVL165
 7994 0793 0100     		.2byte	0x1
 7995 0795 56       		.byte	0x56
 7996 0796 00000000 		.4byte	0
 7997 079a 00000000 		.4byte	0
 7998              	.LLST43:
 7999 079e 38000000 		.4byte	.LVL143
 8000 07a2 40000000 		.4byte	.LVL145
 8001 07a6 0400     		.2byte	0x4
 8002 07a8 91       		.byte	0x91
 8003 07a9 BC7F     		.sleb128 -68
 8004 07ab 9F       		.byte	0x9f
 8005 07ac 40000000 		.4byte	.LVL145
 8006 07b0 48000000 		.4byte	.LVL146
 8007 07b4 0100     		.2byte	0x1
 8008 07b6 51       		.byte	0x51
 8009 07b7 48000000 		.4byte	.LVL146
 8010 07bb 59000000 		.4byte	.LVL147-1
 8011 07bf 0100     		.2byte	0x1
 8012 07c1 5C       		.byte	0x5c
 8013 07c2 59000000 		.4byte	.LVL147-1
 8014 07c6 76000000 		.4byte	.LVL153
 8015 07ca 0400     		.2byte	0x4
 8016 07cc 91       		.byte	0x91
 8017 07cd BC7F     		.sleb128 -68
 8018 07cf 9F       		.byte	0x9f
 8019 07d0 76000000 		.4byte	.LVL153
 8020 07d4 8A000000 		.4byte	.LVL155
 8021 07d8 0100     		.2byte	0x1
 8022 07da 56       		.byte	0x56
 8023 07db 8A000000 		.4byte	.LVL155
 8024 07df 9B000000 		.4byte	.LVL156-1
 8025 07e3 0100     		.2byte	0x1
 8026 07e5 52       		.byte	0x52
 8027 07e6 9B000000 		.4byte	.LVL156-1
 8028 07ea E2000000 		.4byte	.LVL165
 8029 07ee 0100     		.2byte	0x1
 8030 07f0 57       		.byte	0x57
ARM GAS  C:\Users\rdn\AppData\Local\Temp\ccet7BYP.s 			page 159


 8031 07f1 E2000000 		.4byte	.LVL165
 8032 07f5 F2000000 		.4byte	.LVL167
 8033 07f9 0100     		.2byte	0x1
 8034 07fb 56       		.byte	0x56
 8035 07fc 00000000 		.4byte	0
 8036 0800 00000000 		.4byte	0
 8037              	.LLST44:
 8038 0804 38000000 		.4byte	.LVL143
 8039 0808 3C000000 		.4byte	.LVL144
 8040 080c 0200     		.2byte	0x2
 8041 080e 30       		.byte	0x30
 8042 080f 9F       		.byte	0x9f
 8043 0810 3C000000 		.4byte	.LVL144
 8044 0814 59000000 		.4byte	.LVL147-1
 8045 0818 0100     		.2byte	0x1
 8046 081a 52       		.byte	0x52
 8047 081b 59000000 		.4byte	.LVL147-1
 8048 081f 6A000000 		.4byte	.LVL150
 8049 0823 0300     		.2byte	0x3
 8050 0825 76       		.byte	0x76
 8051 0826 7F       		.sleb128 -1
 8052 0827 9F       		.byte	0x9f
 8053 0828 6A000000 		.4byte	.LVL150
 8054 082c 6C000000 		.4byte	.LVL151
 8055 0830 0100     		.2byte	0x1
 8056 0832 56       		.byte	0x56
 8057 0833 6C000000 		.4byte	.LVL151
 8058 0837 78000000 		.4byte	.LVL154
 8059 083b 0100     		.2byte	0x1
 8060 083d 52       		.byte	0x52
 8061 083e 00000000 		.4byte	0
 8062 0842 00000000 		.4byte	0
 8063              	.LLST45:
 8064 0846 74000000 		.4byte	.LVL152
 8065 084a F2000000 		.4byte	.LVL166
 8066 084e 0100     		.2byte	0x1
 8067 0850 55       		.byte	0x55
 8068 0851 00000000 		.4byte	0
 8069 0855 00000000 		.4byte	0
 8070              	.LLST46:
 8071 0859 A8000000 		.4byte	.LVL158
 8072 085d AC000000 		.4byte	.LVL159
 8073 0861 0200     		.2byte	0x2
 8074 0863 30       		.byte	0x30
 8075 0864 9F       		.byte	0x9f
 8076 0865 AC000000 		.4byte	.LVL159
 8077 0869 E2000000 		.4byte	.LVL165
 8078 086d 0100     		.2byte	0x1
 8079 086f 54       		.byte	0x54
 8080 0870 00000000 		.4byte	0
 8081 0874 00000000 		.4byte	0
 8082              	.LLST47:
 8083 0878 00000000 		.4byte	.LVL169
 8084 087c 20000000 		.4byte	.LVL172
 8085 0880 0100     		.2byte	0x1
 8086 0882 50       		.byte	0x50
 8087 0883 20000000 		.4byte	.LVL172
ARM GAS  C:\Users\rdn\AppData\Local\Temp\ccet7BYP.s 			page 160


 8088 0887 B4000000 		.4byte	.LFE25
 8089 088b 0200     		.2byte	0x2
 8090 088d 91       		.byte	0x91
 8091 088e 54       		.sleb128 -44
 8092 088f 00000000 		.4byte	0
 8093 0893 00000000 		.4byte	0
 8094              	.LLST48:
 8095 0897 00000000 		.4byte	.LVL169
 8096 089b 20000000 		.4byte	.LVL172
 8097 089f 0100     		.2byte	0x1
 8098 08a1 51       		.byte	0x51
 8099 08a2 20000000 		.4byte	.LVL172
 8100 08a6 A0000000 		.4byte	.LVL182
 8101 08aa 0200     		.2byte	0x2
 8102 08ac 7D       		.byte	0x7d
 8103 08ad 00       		.sleb128 0
 8104 08ae A0000000 		.4byte	.LVL182
 8105 08b2 B4000000 		.4byte	.LFE25
 8106 08b6 0200     		.2byte	0x2
 8107 08b8 91       		.byte	0x91
 8108 08b9 50       		.sleb128 -48
 8109 08ba 00000000 		.4byte	0
 8110 08be 00000000 		.4byte	0
 8111              	.LLST49:
 8112 08c2 00000000 		.4byte	.LVL169
 8113 08c6 3B000000 		.4byte	.LVL174-1
 8114 08ca 0100     		.2byte	0x1
 8115 08cc 52       		.byte	0x52
 8116 08cd 3B000000 		.4byte	.LVL174-1
 8117 08d1 98000000 		.4byte	.LVL181
 8118 08d5 0100     		.2byte	0x1
 8119 08d7 5B       		.byte	0x5b
 8120 08d8 98000000 		.4byte	.LVL181
 8121 08dc B4000000 		.4byte	.LFE25
 8122 08e0 0100     		.2byte	0x1
 8123 08e2 52       		.byte	0x52
 8124 08e3 00000000 		.4byte	0
 8125 08e7 00000000 		.4byte	0
 8126              	.LLST50:
 8127 08eb 00000000 		.4byte	.LVL169
 8128 08ef 18000000 		.4byte	.LVL170
 8129 08f3 0100     		.2byte	0x1
 8130 08f5 53       		.byte	0x53
 8131 08f6 18000000 		.4byte	.LVL170
 8132 08fa A0000000 		.4byte	.LVL184
 8133 08fe 0100     		.2byte	0x1
 8134 0900 5A       		.byte	0x5a
 8135 0901 A0000000 		.4byte	.LVL184
 8136 0905 B4000000 		.4byte	.LFE25
 8137 0909 0400     		.2byte	0x4
 8138 090b F3       		.byte	0xf3
 8139 090c 01       		.uleb128 0x1
 8140 090d 53       		.byte	0x53
 8141 090e 9F       		.byte	0x9f
 8142 090f 00000000 		.4byte	0
 8143 0913 00000000 		.4byte	0
 8144              	.LLST51:
ARM GAS  C:\Users\rdn\AppData\Local\Temp\ccet7BYP.s 			page 161


 8145 0917 1A000000 		.4byte	.LVL171
 8146 091b 20000000 		.4byte	.LVL172
 8147 091f 0200     		.2byte	0x2
 8148 0921 30       		.byte	0x30
 8149 0922 9F       		.byte	0x9f
 8150 0923 20000000 		.4byte	.LVL172
 8151 0927 A0000000 		.4byte	.LVL183
 8152 092b 0100     		.2byte	0x1
 8153 092d 58       		.byte	0x58
 8154 092e 00000000 		.4byte	0
 8155 0932 00000000 		.4byte	0
 8156              	.LLST52:
 8157 0936 32000000 		.4byte	.LVL173
 8158 093a 98000000 		.4byte	.LVL181
 8159 093e 0100     		.2byte	0x1
 8160 0940 57       		.byte	0x57
 8161 0941 00000000 		.4byte	0
 8162 0945 00000000 		.4byte	0
 8163              	.LLST53:
 8164 0949 48000000 		.4byte	.LVL175
 8165 094d 4C000000 		.4byte	.LVL176
 8166 0951 0200     		.2byte	0x2
 8167 0953 30       		.byte	0x30
 8168 0954 9F       		.byte	0x9f
 8169 0955 4C000000 		.4byte	.LVL176
 8170 0959 98000000 		.4byte	.LVL181
 8171 095d 0100     		.2byte	0x1
 8172 095f 56       		.byte	0x56
 8173 0960 00000000 		.4byte	0
 8174 0964 00000000 		.4byte	0
 8175              	.LLST54:
 8176 0968 02000000 		.4byte	.LVL186
 8177 096c 06000000 		.4byte	.LVL187
 8178 0970 0200     		.2byte	0x2
 8179 0972 30       		.byte	0x30
 8180 0973 9F       		.byte	0x9f
 8181 0974 06000000 		.4byte	.LVL187
 8182 0978 2E000000 		.4byte	.LVL192
 8183 097c 0100     		.2byte	0x1
 8184 097e 55       		.byte	0x55
 8185 097f 00000000 		.4byte	0
 8186 0983 00000000 		.4byte	0
 8187              	.LLST55:
 8188 0987 18000000 		.4byte	.LVL188
 8189 098b 26000000 		.4byte	.LVL189
 8190 098f 0100     		.2byte	0x1
 8191 0991 53       		.byte	0x53
 8192 0992 26000000 		.4byte	.LVL189
 8193 0996 28000000 		.4byte	.LVL190
 8194 099a 2500     		.2byte	0x25
 8195 099c 75       		.byte	0x75
 8196 099d 00       		.sleb128 0
 8197 099e 32       		.byte	0x32
 8198 099f 24       		.byte	0x24
 8199 09a0 70       		.byte	0x70
 8200 09a1 00       		.sleb128 0
 8201 09a2 22       		.byte	0x22
ARM GAS  C:\Users\rdn\AppData\Local\Temp\ccet7BYP.s 			page 162


 8202 09a3 06       		.byte	0x6
 8203 09a4 4F       		.byte	0x4f
 8204 09a5 26       		.byte	0x26
 8205 09a6 75       		.byte	0x75
 8206 09a7 00       		.sleb128 0
 8207 09a8 32       		.byte	0x32
 8208 09a9 24       		.byte	0x24
 8209 09aa 70       		.byte	0x70
 8210 09ab 00       		.sleb128 0
 8211 09ac 22       		.byte	0x22
 8212 09ad 06       		.byte	0x6
 8213 09ae 22       		.byte	0x22
 8214 09af 75       		.byte	0x75
 8215 09b0 00       		.sleb128 0
 8216 09b1 32       		.byte	0x32
 8217 09b2 24       		.byte	0x24
 8218 09b3 70       		.byte	0x70
 8219 09b4 00       		.sleb128 0
 8220 09b5 22       		.byte	0x22
 8221 09b6 06       		.byte	0x6
 8222 09b7 4F       		.byte	0x4f
 8223 09b8 26       		.byte	0x26
 8224 09b9 27       		.byte	0x27
 8225 09ba 32       		.byte	0x32
 8226 09bb 24       		.byte	0x24
 8227 09bc 77       		.byte	0x77
 8228 09bd 00       		.sleb128 0
 8229 09be 22       		.byte	0x22
 8230 09bf 23       		.byte	0x23
 8231 09c0 1C       		.uleb128 0x1c
 8232 09c1 00000000 		.4byte	0
 8233 09c5 00000000 		.4byte	0
 8234              	.LLST56:
 8235 09c9 00000000 		.4byte	.LVL193
 8236 09cd 3A000000 		.4byte	.LVL205
 8237 09d1 0100     		.2byte	0x1
 8238 09d3 50       		.byte	0x50
 8239 09d4 3A000000 		.4byte	.LVL205
 8240 09d8 04010000 		.4byte	.LFE27
 8241 09dc 0400     		.2byte	0x4
 8242 09de F3       		.byte	0xf3
 8243 09df 01       		.uleb128 0x1
 8244 09e0 50       		.byte	0x50
 8245 09e1 9F       		.byte	0x9f
 8246 09e2 00000000 		.4byte	0
 8247 09e6 00000000 		.4byte	0
 8248              	.LLST57:
 8249 09ea 00000000 		.4byte	.LVL193
 8250 09ee 36000000 		.4byte	.LVL204
 8251 09f2 0100     		.2byte	0x1
 8252 09f4 51       		.byte	0x51
 8253 09f5 36000000 		.4byte	.LVL204
 8254 09f9 04010000 		.4byte	.LFE27
 8255 09fd 0400     		.2byte	0x4
 8256 09ff F3       		.byte	0xf3
 8257 0a00 01       		.uleb128 0x1
 8258 0a01 51       		.byte	0x51
ARM GAS  C:\Users\rdn\AppData\Local\Temp\ccet7BYP.s 			page 163


 8259 0a02 9F       		.byte	0x9f
 8260 0a03 00000000 		.4byte	0
 8261 0a07 00000000 		.4byte	0
 8262              	.LLST58:
 8263 0a0b 00000000 		.4byte	.LVL193
 8264 0a0f 1C000000 		.4byte	.LVL194
 8265 0a13 0100     		.2byte	0x1
 8266 0a15 52       		.byte	0x52
 8267 0a16 1C000000 		.4byte	.LVL194
 8268 0a1a 1E000000 		.4byte	.LVL195
 8269 0a1e 0300     		.2byte	0x3
 8270 0a20 91       		.byte	0x91
 8271 0a21 B07F     		.sleb128 -80
 8272 0a23 1E000000 		.4byte	.LVL195
 8273 0a27 20000000 		.4byte	.LVL196
 8274 0a2b 0100     		.2byte	0x1
 8275 0a2d 52       		.byte	0x52
 8276 0a2e 20000000 		.4byte	.LVL196
 8277 0a32 22000000 		.4byte	.LVL197
 8278 0a36 0300     		.2byte	0x3
 8279 0a38 91       		.byte	0x91
 8280 0a39 B07F     		.sleb128 -80
 8281 0a3b 22000000 		.4byte	.LVL197
 8282 0a3f 24000000 		.4byte	.LVL198
 8283 0a43 0100     		.2byte	0x1
 8284 0a45 52       		.byte	0x52
 8285 0a46 24000000 		.4byte	.LVL198
 8286 0a4a 04010000 		.4byte	.LFE27
 8287 0a4e 0300     		.2byte	0x3
 8288 0a50 91       		.byte	0x91
 8289 0a51 B07F     		.sleb128 -80
 8290 0a53 00000000 		.4byte	0
 8291 0a57 00000000 		.4byte	0
 8292              	.LLST59:
 8293 0a5b 00000000 		.4byte	.LVL193
 8294 0a5f 26000000 		.4byte	.LVL199
 8295 0a63 0100     		.2byte	0x1
 8296 0a65 53       		.byte	0x53
 8297 0a66 26000000 		.4byte	.LVL199
 8298 0a6a 04010000 		.4byte	.LFE27
 8299 0a6e 0300     		.2byte	0x3
 8300 0a70 91       		.byte	0x91
 8301 0a71 B47F     		.sleb128 -76
 8302 0a73 00000000 		.4byte	0
 8303 0a77 00000000 		.4byte	0
 8304              	.LLST60:
 8305 0a7b 28000000 		.4byte	.LVL200
 8306 0a7f 2A000000 		.4byte	.LVL201
 8307 0a83 0100     		.2byte	0x1
 8308 0a85 53       		.byte	0x53
 8309 0a86 2A000000 		.4byte	.LVL201
 8310 0a8a 04010000 		.4byte	.LFE27
 8311 0a8e 0300     		.2byte	0x3
 8312 0a90 91       		.byte	0x91
 8313 0a91 A87F     		.sleb128 -88
 8314 0a93 00000000 		.4byte	0
 8315 0a97 00000000 		.4byte	0
ARM GAS  C:\Users\rdn\AppData\Local\Temp\ccet7BYP.s 			page 164


 8316              	.LLST61:
 8317 0a9b 40000000 		.4byte	.LVL207
 8318 0a9f 42000000 		.4byte	.LVL208
 8319 0aa3 0100     		.2byte	0x1
 8320 0aa5 53       		.byte	0x53
 8321 0aa6 42000000 		.4byte	.LVL208
 8322 0aaa 04010000 		.4byte	.LFE27
 8323 0aae 0300     		.2byte	0x3
 8324 0ab0 91       		.byte	0x91
 8325 0ab1 AC7F     		.sleb128 -84
 8326 0ab3 00000000 		.4byte	0
 8327 0ab7 00000000 		.4byte	0
 8328              	.LLST62:
 8329 0abb 54000000 		.4byte	.LVL211
 8330 0abf 74000000 		.4byte	.LVL214
 8331 0ac3 0100     		.2byte	0x1
 8332 0ac5 58       		.byte	0x58
 8333 0ac6 00000000 		.4byte	0
 8334 0aca 00000000 		.4byte	0
 8335              	.LLST63:
 8336 0ace 46000000 		.4byte	.LVL209
 8337 0ad2 5E000000 		.4byte	.LVL212
 8338 0ad6 0100     		.2byte	0x1
 8339 0ad8 58       		.byte	0x58
 8340 0ad9 5E000000 		.4byte	.LVL212
 8341 0add 74000000 		.4byte	.LVL214
 8342 0ae1 0100     		.2byte	0x1
 8343 0ae3 51       		.byte	0x51
 8344 0ae4 74000000 		.4byte	.LVL214
 8345 0ae8 EA000000 		.4byte	.LVL230
 8346 0aec 0300     		.2byte	0x3
 8347 0aee 91       		.byte	0x91
 8348 0aef A07F     		.sleb128 -96
 8349 0af1 EA000000 		.4byte	.LVL230
 8350 0af5 F2000000 		.4byte	.LVL231
 8351 0af9 0100     		.2byte	0x1
 8352 0afb 58       		.byte	0x58
 8353 0afc 00000000 		.4byte	0
 8354 0b00 00000000 		.4byte	0
 8355              	.LLST64:
 8356 0b04 32000000 		.4byte	.LVL202
 8357 0b08 34000000 		.4byte	.LVL203
 8358 0b0c 0100     		.2byte	0x1
 8359 0b0e 53       		.byte	0x53
 8360 0b0f 00000000 		.4byte	0
 8361 0b13 00000000 		.4byte	0
 8362              	.LLST65:
 8363 0b17 32000000 		.4byte	.LVL202
 8364 0b1b 3A000000 		.4byte	.LVL205
 8365 0b1f 0100     		.2byte	0x1
 8366 0b21 50       		.byte	0x50
 8367 0b22 3A000000 		.4byte	.LVL205
 8368 0b26 3C000000 		.4byte	.LVL206
 8369 0b2a 0400     		.2byte	0x4
 8370 0b2c F3       		.byte	0xf3
 8371 0b2d 01       		.uleb128 0x1
 8372 0b2e 50       		.byte	0x50
ARM GAS  C:\Users\rdn\AppData\Local\Temp\ccet7BYP.s 			page 165


 8373 0b2f 9F       		.byte	0x9f
 8374 0b30 00000000 		.4byte	0
 8375 0b34 00000000 		.4byte	0
 8376              	.LLST66:
 8377 0b38 50000000 		.4byte	.LVL210
 8378 0b3c 54000000 		.4byte	.LVL211
 8379 0b40 0200     		.2byte	0x2
 8380 0b42 30       		.byte	0x30
 8381 0b43 9F       		.byte	0x9f
 8382 0b44 54000000 		.4byte	.LVL211
 8383 0b48 62000000 		.4byte	.LVL213
 8384 0b4c 0100     		.2byte	0x1
 8385 0b4e 53       		.byte	0x53
 8386 0b4f 62000000 		.4byte	.LVL213
 8387 0b53 EA000000 		.4byte	.LVL230
 8388 0b57 0100     		.2byte	0x1
 8389 0b59 5A       		.byte	0x5a
 8390 0b5a EA000000 		.4byte	.LVL230
 8391 0b5e 04010000 		.4byte	.LFE27
 8392 0b62 0100     		.2byte	0x1
 8393 0b64 53       		.byte	0x53
 8394 0b65 00000000 		.4byte	0
 8395 0b69 00000000 		.4byte	0
 8396              	.LLST67:
 8397 0b6d 74000000 		.4byte	.LVL214
 8398 0b71 90000000 		.4byte	.LVL217
 8399 0b75 0100     		.2byte	0x1
 8400 0b77 58       		.byte	0x58
 8401 0b78 90000000 		.4byte	.LVL217
 8402 0b7c DE000000 		.4byte	.LVL228
 8403 0b80 0100     		.2byte	0x1
 8404 0b82 59       		.byte	0x59
 8405 0b83 DE000000 		.4byte	.LVL228
 8406 0b87 E4000000 		.4byte	.LVL229
 8407 0b8b 0100     		.2byte	0x1
 8408 0b8d 58       		.byte	0x58
 8409 0b8e 00000000 		.4byte	0
 8410 0b92 00000000 		.4byte	0
 8411              	.LLST68:
 8412 0b96 84000000 		.4byte	.LVL215
 8413 0b9a 8C000000 		.4byte	.LVL216
 8414 0b9e 0100     		.2byte	0x1
 8415 0ba0 53       		.byte	0x53
 8416 0ba1 8C000000 		.4byte	.LVL216
 8417 0ba5 C8000000 		.4byte	.LVL226
 8418 0ba9 0200     		.2byte	0x2
 8419 0bab 7D       		.byte	0x7d
 8420 0bac 00       		.sleb128 0
 8421 0bad C8000000 		.4byte	.LVL226
 8422 0bb1 CA000000 		.4byte	.LVL227
 8423 0bb5 0100     		.2byte	0x1
 8424 0bb7 50       		.byte	0x50
 8425 0bb8 CA000000 		.4byte	.LVL227
 8426 0bbc DE000000 		.4byte	.LVL228
 8427 0bc0 0200     		.2byte	0x2
 8428 0bc2 7D       		.byte	0x7d
 8429 0bc3 00       		.sleb128 0
ARM GAS  C:\Users\rdn\AppData\Local\Temp\ccet7BYP.s 			page 166


 8430 0bc4 00000000 		.4byte	0
 8431 0bc8 00000000 		.4byte	0
 8432              	.LLST69:
 8433 0bcc 98000000 		.4byte	.LVL219
 8434 0bd0 CA000000 		.4byte	.LVL227
 8435 0bd4 0100     		.2byte	0x1
 8436 0bd6 57       		.byte	0x57
 8437 0bd7 00000000 		.4byte	0
 8438 0bdb 00000000 		.4byte	0
 8439              	.LLST70:
 8440 0bdf 84000000 		.4byte	.LVL215
 8441 0be3 8C000000 		.4byte	.LVL216
 8442 0be7 0100     		.2byte	0x1
 8443 0be9 53       		.byte	0x53
 8444 0bea 8C000000 		.4byte	.LVL216
 8445 0bee 92000000 		.4byte	.LVL218
 8446 0bf2 0200     		.2byte	0x2
 8447 0bf4 7D       		.byte	0x7d
 8448 0bf5 00       		.sleb128 0
 8449 0bf6 92000000 		.4byte	.LVL218
 8450 0bfa B6000000 		.4byte	.LVL222
 8451 0bfe 0300     		.2byte	0x3
 8452 0c00 91       		.byte	0x91
 8453 0c01 9C7F     		.sleb128 -100
 8454 0c03 B6000000 		.4byte	.LVL222
 8455 0c07 BA000000 		.4byte	.LVL223
 8456 0c0b 0100     		.2byte	0x1
 8457 0c0d 50       		.byte	0x50
 8458 0c0e BA000000 		.4byte	.LVL223
 8459 0c12 DE000000 		.4byte	.LVL228
 8460 0c16 0300     		.2byte	0x3
 8461 0c18 91       		.byte	0x91
 8462 0c19 9C7F     		.sleb128 -100
 8463 0c1b 00000000 		.4byte	0
 8464 0c1f 00000000 		.4byte	0
 8465              	.LLST71:
 8466 0c23 84000000 		.4byte	.LVL215
 8467 0c27 92000000 		.4byte	.LVL218
 8468 0c2b 0200     		.2byte	0x2
 8469 0c2d 30       		.byte	0x30
 8470 0c2e 9F       		.byte	0x9f
 8471 0c2f 92000000 		.4byte	.LVL218
 8472 0c33 DE000000 		.4byte	.LVL228
 8473 0c37 0100     		.2byte	0x1
 8474 0c39 55       		.byte	0x55
 8475 0c3a 00000000 		.4byte	0
 8476 0c3e 00000000 		.4byte	0
 8477              	.LLST72:
 8478 0c42 00000000 		.4byte	.LVL232
 8479 0c46 3A000000 		.4byte	.LVL244
 8480 0c4a 0100     		.2byte	0x1
 8481 0c4c 50       		.byte	0x50
 8482 0c4d 3A000000 		.4byte	.LVL244
 8483 0c51 2C010000 		.4byte	.LFE28
 8484 0c55 0400     		.2byte	0x4
 8485 0c57 F3       		.byte	0xf3
 8486 0c58 01       		.uleb128 0x1
ARM GAS  C:\Users\rdn\AppData\Local\Temp\ccet7BYP.s 			page 167


 8487 0c59 50       		.byte	0x50
 8488 0c5a 9F       		.byte	0x9f
 8489 0c5b 00000000 		.4byte	0
 8490 0c5f 00000000 		.4byte	0
 8491              	.LLST73:
 8492 0c63 00000000 		.4byte	.LVL232
 8493 0c67 36000000 		.4byte	.LVL243
 8494 0c6b 0100     		.2byte	0x1
 8495 0c6d 51       		.byte	0x51
 8496 0c6e 36000000 		.4byte	.LVL243
 8497 0c72 2C010000 		.4byte	.LFE28
 8498 0c76 0400     		.2byte	0x4
 8499 0c78 F3       		.byte	0xf3
 8500 0c79 01       		.uleb128 0x1
 8501 0c7a 51       		.byte	0x51
 8502 0c7b 9F       		.byte	0x9f
 8503 0c7c 00000000 		.4byte	0
 8504 0c80 00000000 		.4byte	0
 8505              	.LLST74:
 8506 0c84 00000000 		.4byte	.LVL232
 8507 0c88 1C000000 		.4byte	.LVL233
 8508 0c8c 0100     		.2byte	0x1
 8509 0c8e 52       		.byte	0x52
 8510 0c8f 1C000000 		.4byte	.LVL233
 8511 0c93 1E000000 		.4byte	.LVL234
 8512 0c97 0300     		.2byte	0x3
 8513 0c99 91       		.byte	0x91
 8514 0c9a B07F     		.sleb128 -80
 8515 0c9c 1E000000 		.4byte	.LVL234
 8516 0ca0 20000000 		.4byte	.LVL235
 8517 0ca4 0100     		.2byte	0x1
 8518 0ca6 52       		.byte	0x52
 8519 0ca7 20000000 		.4byte	.LVL235
 8520 0cab 22000000 		.4byte	.LVL236
 8521 0caf 0300     		.2byte	0x3
 8522 0cb1 91       		.byte	0x91
 8523 0cb2 B07F     		.sleb128 -80
 8524 0cb4 22000000 		.4byte	.LVL236
 8525 0cb8 24000000 		.4byte	.LVL237
 8526 0cbc 0100     		.2byte	0x1
 8527 0cbe 52       		.byte	0x52
 8528 0cbf 24000000 		.4byte	.LVL237
 8529 0cc3 2C010000 		.4byte	.LFE28
 8530 0cc7 0300     		.2byte	0x3
 8531 0cc9 91       		.byte	0x91
 8532 0cca B07F     		.sleb128 -80
 8533 0ccc 00000000 		.4byte	0
 8534 0cd0 00000000 		.4byte	0
 8535              	.LLST75:
 8536 0cd4 00000000 		.4byte	.LVL232
 8537 0cd8 26000000 		.4byte	.LVL238
 8538 0cdc 0100     		.2byte	0x1
 8539 0cde 53       		.byte	0x53
 8540 0cdf 26000000 		.4byte	.LVL238
 8541 0ce3 2C010000 		.4byte	.LFE28
 8542 0ce7 0300     		.2byte	0x3
 8543 0ce9 91       		.byte	0x91
ARM GAS  C:\Users\rdn\AppData\Local\Temp\ccet7BYP.s 			page 168


 8544 0cea A07F     		.sleb128 -96
 8545 0cec 00000000 		.4byte	0
 8546 0cf0 00000000 		.4byte	0
 8547              	.LLST76:
 8548 0cf4 28000000 		.4byte	.LVL239
 8549 0cf8 2A000000 		.4byte	.LVL240
 8550 0cfc 0100     		.2byte	0x1
 8551 0cfe 53       		.byte	0x53
 8552 0cff 2A000000 		.4byte	.LVL240
 8553 0d03 2C010000 		.4byte	.LFE28
 8554 0d07 0300     		.2byte	0x3
 8555 0d09 91       		.byte	0x91
 8556 0d0a A87F     		.sleb128 -88
 8557 0d0c 00000000 		.4byte	0
 8558 0d10 00000000 		.4byte	0
 8559              	.LLST77:
 8560 0d14 40000000 		.4byte	.LVL246
 8561 0d18 42000000 		.4byte	.LVL247
 8562 0d1c 0100     		.2byte	0x1
 8563 0d1e 53       		.byte	0x53
 8564 0d1f 42000000 		.4byte	.LVL247
 8565 0d23 2C010000 		.4byte	.LFE28
 8566 0d27 0300     		.2byte	0x3
 8567 0d29 91       		.byte	0x91
 8568 0d2a AC7F     		.sleb128 -84
 8569 0d2c 00000000 		.4byte	0
 8570 0d30 00000000 		.4byte	0
 8571              	.LLST78:
 8572 0d34 54000000 		.4byte	.LVL250
 8573 0d38 78000000 		.4byte	.LVL253
 8574 0d3c 0100     		.2byte	0x1
 8575 0d3e 54       		.byte	0x54
 8576 0d3f 00000000 		.4byte	0
 8577 0d43 00000000 		.4byte	0
 8578              	.LLST79:
 8579 0d47 46000000 		.4byte	.LVL248
 8580 0d4b 4F000000 		.4byte	.LVL249-1
 8581 0d4f 0100     		.2byte	0x1
 8582 0d51 53       		.byte	0x53
 8583 0d52 4F000000 		.4byte	.LVL249-1
 8584 0d56 5E000000 		.4byte	.LVL251
 8585 0d5a 0100     		.2byte	0x1
 8586 0d5c 54       		.byte	0x54
 8587 0d5d 5E000000 		.4byte	.LVL251
 8588 0d61 78000000 		.4byte	.LVL253
 8589 0d65 0100     		.2byte	0x1
 8590 0d67 51       		.byte	0x51
 8591 0d68 78000000 		.4byte	.LVL253
 8592 0d6c 12010000 		.4byte	.LVL271
 8593 0d70 0100     		.2byte	0x1
 8594 0d72 59       		.byte	0x59
 8595 0d73 12010000 		.4byte	.LVL271
 8596 0d77 1A010000 		.4byte	.LVL272
 8597 0d7b 0100     		.2byte	0x1
 8598 0d7d 54       		.byte	0x54
 8599 0d7e 00000000 		.4byte	0
 8600 0d82 00000000 		.4byte	0
ARM GAS  C:\Users\rdn\AppData\Local\Temp\ccet7BYP.s 			page 169


 8601              	.LLST80:
 8602 0d86 32000000 		.4byte	.LVL241
 8603 0d8a 34000000 		.4byte	.LVL242
 8604 0d8e 0100     		.2byte	0x1
 8605 0d90 53       		.byte	0x53
 8606 0d91 00000000 		.4byte	0
 8607 0d95 00000000 		.4byte	0
 8608              	.LLST81:
 8609 0d99 32000000 		.4byte	.LVL241
 8610 0d9d 3A000000 		.4byte	.LVL244
 8611 0da1 0100     		.2byte	0x1
 8612 0da3 50       		.byte	0x50
 8613 0da4 3A000000 		.4byte	.LVL244
 8614 0da8 3C000000 		.4byte	.LVL245
 8615 0dac 0400     		.2byte	0x4
 8616 0dae F3       		.byte	0xf3
 8617 0daf 01       		.uleb128 0x1
 8618 0db0 50       		.byte	0x50
 8619 0db1 9F       		.byte	0x9f
 8620 0db2 00000000 		.4byte	0
 8621 0db6 00000000 		.4byte	0
 8622              	.LLST82:
 8623 0dba 50000000 		.4byte	.LVL249
 8624 0dbe 54000000 		.4byte	.LVL250
 8625 0dc2 0200     		.2byte	0x2
 8626 0dc4 30       		.byte	0x30
 8627 0dc5 9F       		.byte	0x9f
 8628 0dc6 54000000 		.4byte	.LVL250
 8629 0dca 62000000 		.4byte	.LVL252
 8630 0dce 0100     		.2byte	0x1
 8631 0dd0 53       		.byte	0x53
 8632 0dd1 62000000 		.4byte	.LVL252
 8633 0dd5 12010000 		.4byte	.LVL271
 8634 0dd9 0300     		.2byte	0x3
 8635 0ddb 91       		.byte	0x91
 8636 0ddc 9C7F     		.sleb128 -100
 8637 0dde 12010000 		.4byte	.LVL271
 8638 0de2 2C010000 		.4byte	.LFE28
 8639 0de6 0100     		.2byte	0x1
 8640 0de8 53       		.byte	0x53
 8641 0de9 00000000 		.4byte	0
 8642 0ded 00000000 		.4byte	0
 8643              	.LLST83:
 8644 0df1 78000000 		.4byte	.LVL253
 8645 0df5 F8000000 		.4byte	.LVL267
 8646 0df9 0100     		.2byte	0x1
 8647 0dfb 5B       		.byte	0x5b
 8648 0dfc 00000000 		.4byte	0
 8649 0e00 00000000 		.4byte	0
 8650              	.LLST84:
 8651 0e04 86000000 		.4byte	.LVL254
 8652 0e08 A0000000 		.4byte	.LVL257
 8653 0e0c 0100     		.2byte	0x1
 8654 0e0e 54       		.byte	0x54
 8655 0e0f A0000000 		.4byte	.LVL257
 8656 0e13 A6000000 		.4byte	.LVL258
 8657 0e17 0100     		.2byte	0x1
ARM GAS  C:\Users\rdn\AppData\Local\Temp\ccet7BYP.s 			page 170


 8658 0e19 50       		.byte	0x50
 8659 0e1a A6000000 		.4byte	.LVL258
 8660 0e1e C2000000 		.4byte	.LVL261
 8661 0e22 0200     		.2byte	0x2
 8662 0e24 7D       		.byte	0x7d
 8663 0e25 00       		.sleb128 0
 8664 0e26 C2000000 		.4byte	.LVL261
 8665 0e2a C8000000 		.4byte	.LVL262
 8666 0e2e 0100     		.2byte	0x1
 8667 0e30 50       		.byte	0x50
 8668 0e31 C8000000 		.4byte	.LVL262
 8669 0e35 CB000000 		.4byte	.LVL263-1
 8670 0e39 0100     		.2byte	0x1
 8671 0e3b 51       		.byte	0x51
 8672 0e3c CB000000 		.4byte	.LVL263-1
 8673 0e40 F0000000 		.4byte	.LVL266
 8674 0e44 0200     		.2byte	0x2
 8675 0e46 7D       		.byte	0x7d
 8676 0e47 00       		.sleb128 0
 8677 0e48 00000000 		.4byte	0
 8678 0e4c 00000000 		.4byte	0
 8679              	.LLST85:
 8680 0e50 A0000000 		.4byte	.LVL257
 8681 0e54 A6000000 		.4byte	.LVL258
 8682 0e58 0200     		.2byte	0x2
 8683 0e5a 36       		.byte	0x36
 8684 0e5b 9F       		.byte	0x9f
 8685 0e5c A6000000 		.4byte	.LVL258
 8686 0e60 F0000000 		.4byte	.LVL266
 8687 0e64 0100     		.2byte	0x1
 8688 0e66 54       		.byte	0x54
 8689 0e67 00000000 		.4byte	0
 8690 0e6b 00000000 		.4byte	0
 8691              	.LLST86:
 8692 0e6f FE000000 		.4byte	.LVL268
 8693 0e73 0E010000 		.4byte	.LVL270
 8694 0e77 0100     		.2byte	0x1
 8695 0e79 53       		.byte	0x53
 8696 0e7a 00000000 		.4byte	0
 8697 0e7e 00000000 		.4byte	0
 8698              	.LLST87:
 8699 0e82 00000000 		.4byte	.LVL273
 8700 0e86 17000000 		.4byte	.LVL275-1
 8701 0e8a 0100     		.2byte	0x1
 8702 0e8c 50       		.byte	0x50
 8703 0e8d 17000000 		.4byte	.LVL275-1
 8704 0e91 02010000 		.4byte	.LFE29
 8705 0e95 0400     		.2byte	0x4
 8706 0e97 F3       		.byte	0xf3
 8707 0e98 01       		.uleb128 0x1
 8708 0e99 50       		.byte	0x50
 8709 0e9a 9F       		.byte	0x9f
 8710 0e9b 00000000 		.4byte	0
 8711 0e9f 00000000 		.4byte	0
 8712              	.LLST88:
 8713 0ea3 00000000 		.4byte	.LVL273
 8714 0ea7 14000000 		.4byte	.LVL274
ARM GAS  C:\Users\rdn\AppData\Local\Temp\ccet7BYP.s 			page 171


 8715 0eab 0100     		.2byte	0x1
 8716 0ead 51       		.byte	0x51
 8717 0eae 14000000 		.4byte	.LVL274
 8718 0eb2 02010000 		.4byte	.LFE29
 8719 0eb6 0400     		.2byte	0x4
 8720 0eb8 F3       		.byte	0xf3
 8721 0eb9 01       		.uleb128 0x1
 8722 0eba 51       		.byte	0x51
 8723 0ebb 9F       		.byte	0x9f
 8724 0ebc 00000000 		.4byte	0
 8725 0ec0 00000000 		.4byte	0
 8726              	.LLST89:
 8727 0ec4 00000000 		.4byte	.LVL273
 8728 0ec8 17000000 		.4byte	.LVL275-1
 8729 0ecc 0100     		.2byte	0x1
 8730 0ece 52       		.byte	0x52
 8731 0ecf 17000000 		.4byte	.LVL275-1
 8732 0ed3 02010000 		.4byte	.LFE29
 8733 0ed7 0400     		.2byte	0x4
 8734 0ed9 F3       		.byte	0xf3
 8735 0eda 01       		.uleb128 0x1
 8736 0edb 52       		.byte	0x52
 8737 0edc 9F       		.byte	0x9f
 8738 0edd 00000000 		.4byte	0
 8739 0ee1 00000000 		.4byte	0
 8740              	.LLST90:
 8741 0ee5 00000000 		.4byte	.LVL273
 8742 0ee9 17000000 		.4byte	.LVL275-1
 8743 0eed 0100     		.2byte	0x1
 8744 0eef 53       		.byte	0x53
 8745 0ef0 17000000 		.4byte	.LVL275-1
 8746 0ef4 02010000 		.4byte	.LFE29
 8747 0ef8 0400     		.2byte	0x4
 8748 0efa F3       		.byte	0xf3
 8749 0efb 01       		.uleb128 0x1
 8750 0efc 53       		.byte	0x53
 8751 0efd 9F       		.byte	0x9f
 8752 0efe 00000000 		.4byte	0
 8753 0f02 00000000 		.4byte	0
 8754              	.LLST91:
 8755 0f06 52000000 		.4byte	.LVL277
 8756 0f0a 56000000 		.4byte	.LVL278
 8757 0f0e 0200     		.2byte	0x2
 8758 0f10 30       		.byte	0x30
 8759 0f11 9F       		.byte	0x9f
 8760 0f12 56000000 		.4byte	.LVL278
 8761 0f16 FC000000 		.4byte	.LVL287
 8762 0f1a 0100     		.2byte	0x1
 8763 0f1c 56       		.byte	0x56
 8764 0f1d 00000000 		.4byte	0
 8765 0f21 00000000 		.4byte	0
 8766              	.LLST92:
 8767 0f25 00000000 		.4byte	.LVL288
 8768 0f29 12000000 		.4byte	.LVL291
 8769 0f2d 0100     		.2byte	0x1
 8770 0f2f 50       		.byte	0x50
 8771 0f30 12000000 		.4byte	.LVL291
ARM GAS  C:\Users\rdn\AppData\Local\Temp\ccet7BYP.s 			page 172


 8772 0f34 52000000 		.4byte	.LFE30
 8773 0f38 0400     		.2byte	0x4
 8774 0f3a F3       		.byte	0xf3
 8775 0f3b 01       		.uleb128 0x1
 8776 0f3c 50       		.byte	0x50
 8777 0f3d 9F       		.byte	0x9f
 8778 0f3e 00000000 		.4byte	0
 8779 0f42 00000000 		.4byte	0
 8780              	.LLST93:
 8781 0f46 00000000 		.4byte	.LVL288
 8782 0f4a 10000000 		.4byte	.LVL290
 8783 0f4e 0100     		.2byte	0x1
 8784 0f50 51       		.byte	0x51
 8785 0f51 10000000 		.4byte	.LVL290
 8786 0f55 52000000 		.4byte	.LFE30
 8787 0f59 0400     		.2byte	0x4
 8788 0f5b F3       		.byte	0xf3
 8789 0f5c 01       		.uleb128 0x1
 8790 0f5d 51       		.byte	0x51
 8791 0f5e 9F       		.byte	0x9f
 8792 0f5f 00000000 		.4byte	0
 8793 0f63 00000000 		.4byte	0
 8794              	.LLST94:
 8795 0f67 00000000 		.4byte	.LVL288
 8796 0f6b 0E000000 		.4byte	.LVL289
 8797 0f6f 0100     		.2byte	0x1
 8798 0f71 52       		.byte	0x52
 8799 0f72 0E000000 		.4byte	.LVL289
 8800 0f76 50000000 		.4byte	.LVL298
 8801 0f7a 0100     		.2byte	0x1
 8802 0f7c 55       		.byte	0x55
 8803 0f7d 50000000 		.4byte	.LVL298
 8804 0f81 52000000 		.4byte	.LFE30
 8805 0f85 0400     		.2byte	0x4
 8806 0f87 F3       		.byte	0xf3
 8807 0f88 01       		.uleb128 0x1
 8808 0f89 52       		.byte	0x52
 8809 0f8a 9F       		.byte	0x9f
 8810 0f8b 00000000 		.4byte	0
 8811 0f8f 00000000 		.4byte	0
 8812              	.LLST95:
 8813 0f93 00000000 		.4byte	.LVL288
 8814 0f97 15000000 		.4byte	.LVL292-1
 8815 0f9b 0100     		.2byte	0x1
 8816 0f9d 53       		.byte	0x53
 8817 0f9e 15000000 		.4byte	.LVL292-1
 8818 0fa2 50000000 		.4byte	.LVL299
 8819 0fa6 0100     		.2byte	0x1
 8820 0fa8 56       		.byte	0x56
 8821 0fa9 50000000 		.4byte	.LVL299
 8822 0fad 52000000 		.4byte	.LFE30
 8823 0fb1 0400     		.2byte	0x4
 8824 0fb3 F3       		.byte	0xf3
 8825 0fb4 01       		.uleb128 0x1
 8826 0fb5 53       		.byte	0x53
 8827 0fb6 9F       		.byte	0x9f
 8828 0fb7 00000000 		.4byte	0
ARM GAS  C:\Users\rdn\AppData\Local\Temp\ccet7BYP.s 			page 173


 8829 0fbb 00000000 		.4byte	0
 8830              	.LLST96:
 8831 0fbf 16000000 		.4byte	.LVL292
 8832 0fc3 1A000000 		.4byte	.LVL293
 8833 0fc7 0200     		.2byte	0x2
 8834 0fc9 30       		.byte	0x30
 8835 0fca 9F       		.byte	0x9f
 8836 0fcb 1A000000 		.4byte	.LVL293
 8837 0fcf 50000000 		.4byte	.LVL297
 8838 0fd3 0100     		.2byte	0x1
 8839 0fd5 54       		.byte	0x54
 8840 0fd6 00000000 		.4byte	0
 8841 0fda 00000000 		.4byte	0
 8842              	.LLST97:
 8843 0fde 00000000 		.4byte	.LVL300
 8844 0fe2 66000000 		.4byte	.LVL312
 8845 0fe6 0100     		.2byte	0x1
 8846 0fe8 50       		.byte	0x50
 8847 0fe9 66000000 		.4byte	.LVL312
 8848 0fed 74000000 		.4byte	.LFE31
 8849 0ff1 0400     		.2byte	0x4
 8850 0ff3 F3       		.byte	0xf3
 8851 0ff4 01       		.uleb128 0x1
 8852 0ff5 50       		.byte	0x50
 8853 0ff6 9F       		.byte	0x9f
 8854 0ff7 00000000 		.4byte	0
 8855 0ffb 00000000 		.4byte	0
 8856              	.LLST98:
 8857 0fff 02000000 		.4byte	.LVL301
 8858 1003 08000000 		.4byte	.LVL302
 8859 1007 0200     		.2byte	0x2
 8860 1009 30       		.byte	0x30
 8861 100a 9F       		.byte	0x9f
 8862 100b 08000000 		.4byte	.LVL302
 8863 100f 66000000 		.4byte	.LVL314
 8864 1013 0100     		.2byte	0x1
 8865 1015 57       		.byte	0x57
 8866 1016 66000000 		.4byte	.LVL314
 8867 101a 74000000 		.4byte	.LFE31
 8868 101e 0100     		.2byte	0x1
 8869 1020 50       		.byte	0x50
 8870 1021 00000000 		.4byte	0
 8871 1025 00000000 		.4byte	0
 8872              	.LLST99:
 8873 1029 02000000 		.4byte	.LVL301
 8874 102d 08000000 		.4byte	.LVL302
 8875 1031 0200     		.2byte	0x2
 8876 1033 30       		.byte	0x30
 8877 1034 9F       		.byte	0x9f
 8878 1035 08000000 		.4byte	.LVL302
 8879 1039 66000000 		.4byte	.LVL313
 8880 103d 0100     		.2byte	0x1
 8881 103f 55       		.byte	0x55
 8882 1040 00000000 		.4byte	0
 8883 1044 00000000 		.4byte	0
 8884              	.LLST100:
 8885 1048 08000000 		.4byte	.LVL302
ARM GAS  C:\Users\rdn\AppData\Local\Temp\ccet7BYP.s 			page 174


 8886 104c 2C000000 		.4byte	.LVL304
 8887 1050 0400     		.2byte	0x4
 8888 1052 0A       		.byte	0xa
 8889 1053 0008     		.2byte	0x800
 8890 1055 9F       		.byte	0x9f
 8891 1056 2C000000 		.4byte	.LVL304
 8892 105a 58000000 		.4byte	.LVL308
 8893 105e 0100     		.2byte	0x1
 8894 1060 54       		.byte	0x54
 8895 1061 58000000 		.4byte	.LVL308
 8896 1065 5A000000 		.4byte	.LVL309
 8897 1069 0400     		.2byte	0x4
 8898 106b 74       		.byte	0x74
 8899 106c 8170     		.sleb128 -2047
 8900 106e 9F       		.byte	0x9f
 8901 106f 00000000 		.4byte	0
 8902 1073 00000000 		.4byte	0
 8903              	.LLST101:
 8904 1077 0E000000 		.4byte	.LVL303
 8905 107b 5E000000 		.4byte	.LVL311
 8906 107f 0100     		.2byte	0x1
 8907 1081 56       		.byte	0x56
 8908 1082 00000000 		.4byte	0
 8909 1086 00000000 		.4byte	0
 8910              	.LLST102:
 8911 108a 2C000000 		.4byte	.LVL304
 8912 108e 30000000 		.4byte	.LVL305
 8913 1092 0200     		.2byte	0x2
 8914 1094 30       		.byte	0x30
 8915 1095 9F       		.byte	0x9f
 8916 1096 30000000 		.4byte	.LVL305
 8917 109a 5E000000 		.4byte	.LVL311
 8918 109e 0100     		.2byte	0x1
 8919 10a0 51       		.byte	0x51
 8920 10a1 00000000 		.4byte	0
 8921 10a5 00000000 		.4byte	0
 8922              	.LLST103:
 8923 10a9 00000000 		.4byte	.LVL315
 8924 10ad 0E000000 		.4byte	.LVL317
 8925 10b1 0100     		.2byte	0x1
 8926 10b3 50       		.byte	0x50
 8927 10b4 0E000000 		.4byte	.LVL317
 8928 10b8 E4000000 		.4byte	.LVL342
 8929 10bc 0100     		.2byte	0x1
 8930 10be 54       		.byte	0x54
 8931 10bf E4000000 		.4byte	.LVL342
 8932 10c3 F8000000 		.4byte	.LFE32
 8933 10c7 0400     		.2byte	0x4
 8934 10c9 F3       		.byte	0xf3
 8935 10ca 01       		.uleb128 0x1
 8936 10cb 50       		.byte	0x50
 8937 10cc 9F       		.byte	0x9f
 8938 10cd 00000000 		.4byte	0
 8939 10d1 00000000 		.4byte	0
 8940              	.LLST104:
 8941 10d5 00000000 		.4byte	.LVL315
 8942 10d9 0E000000 		.4byte	.LVL317
ARM GAS  C:\Users\rdn\AppData\Local\Temp\ccet7BYP.s 			page 175


 8943 10dd 0100     		.2byte	0x1
 8944 10df 51       		.byte	0x51
 8945 10e0 0E000000 		.4byte	.LVL317
 8946 10e4 E4000000 		.4byte	.LVL344
 8947 10e8 0100     		.2byte	0x1
 8948 10ea 58       		.byte	0x58
 8949 10eb E4000000 		.4byte	.LVL344
 8950 10ef F8000000 		.4byte	.LFE32
 8951 10f3 0400     		.2byte	0x4
 8952 10f5 F3       		.byte	0xf3
 8953 10f6 01       		.uleb128 0x1
 8954 10f7 51       		.byte	0x51
 8955 10f8 9F       		.byte	0x9f
 8956 10f9 00000000 		.4byte	0
 8957 10fd 00000000 		.4byte	0
 8958              	.LLST105:
 8959 1101 0A000000 		.4byte	.LVL316
 8960 1105 0E000000 		.4byte	.LVL317
 8961 1109 0200     		.2byte	0x2
 8962 110b 30       		.byte	0x30
 8963 110c 9F       		.byte	0x9f
 8964 110d 0E000000 		.4byte	.LVL317
 8965 1111 E4000000 		.4byte	.LVL343
 8966 1115 0100     		.2byte	0x1
 8967 1117 57       		.byte	0x57
 8968 1118 00000000 		.4byte	0
 8969 111c 00000000 		.4byte	0
 8970              	.LLST106:
 8971 1120 16000000 		.4byte	.LVL318
 8972 1124 DC000000 		.4byte	.LVL341
 8973 1128 0100     		.2byte	0x1
 8974 112a 56       		.byte	0x56
 8975 112b 00000000 		.4byte	0
 8976 112f 00000000 		.4byte	0
 8977              	.LLST107:
 8978 1133 1C000000 		.4byte	.LVL319
 8979 1137 38000000 		.4byte	.LVL322
 8980 113b 0200     		.2byte	0x2
 8981 113d 31       		.byte	0x31
 8982 113e 9F       		.byte	0x9f
 8983 113f 00000000 		.4byte	0
 8984 1143 00000000 		.4byte	0
 8985              	.LLST108:
 8986 1147 1C000000 		.4byte	.LVL319
 8987 114b 26000000 		.4byte	.LVL320
 8988 114f 0100     		.2byte	0x1
 8989 1151 51       		.byte	0x51
 8990 1152 26000000 		.4byte	.LVL320
 8991 1156 30000000 		.4byte	.LVL321
 8992 115a 0A00     		.2byte	0xa
 8993 115c 76       		.byte	0x76
 8994 115d 00       		.sleb128 0
 8995 115e 4F       		.byte	0x4f
 8996 115f 26       		.byte	0x26
 8997 1160 76       		.byte	0x76
 8998 1161 00       		.sleb128 0
 8999 1162 1C       		.byte	0x1c
ARM GAS  C:\Users\rdn\AppData\Local\Temp\ccet7BYP.s 			page 176


 9000 1163 4F       		.byte	0x4f
 9001 1164 25       		.byte	0x25
 9002 1165 9F       		.byte	0x9f
 9003 1166 30000000 		.4byte	.LVL321
 9004 116a 37000000 		.4byte	.LVL322-1
 9005 116e 0100     		.2byte	0x1
 9006 1170 51       		.byte	0x51
 9007 1171 37000000 		.4byte	.LVL322-1
 9008 1175 38000000 		.4byte	.LVL322
 9009 1179 0A00     		.2byte	0xa
 9010 117b 76       		.byte	0x76
 9011 117c 00       		.sleb128 0
 9012 117d 4F       		.byte	0x4f
 9013 117e 26       		.byte	0x26
 9014 117f 76       		.byte	0x76
 9015 1180 00       		.sleb128 0
 9016 1181 1C       		.byte	0x1c
 9017 1182 4F       		.byte	0x4f
 9018 1183 25       		.byte	0x25
 9019 1184 9F       		.byte	0x9f
 9020 1185 00000000 		.4byte	0
 9021 1189 00000000 		.4byte	0
 9022              	.LLST109:
 9023 118d 1C000000 		.4byte	.LVL319
 9024 1191 38000000 		.4byte	.LVL322
 9025 1195 0100     		.2byte	0x1
 9026 1197 54       		.byte	0x54
 9027 1198 00000000 		.4byte	0
 9028 119c 00000000 		.4byte	0
 9029              	.LLST110:
 9030 11a0 1C000000 		.4byte	.LVL319
 9031 11a4 DC000000 		.4byte	.LVL341
 9032 11a8 0300     		.2byte	0x3
 9033 11aa 74       		.byte	0x74
 9034 11ab 1C       		.sleb128 28
 9035 11ac 9F       		.byte	0x9f
 9036 11ad 00000000 		.4byte	0
 9037 11b1 00000000 		.4byte	0
 9038              	.LLST111:
 9039 11b5 4C000000 		.4byte	.LVL323
 9040 11b9 54000000 		.4byte	.LVL325
 9041 11bd 0100     		.2byte	0x1
 9042 11bf 52       		.byte	0x52
 9043 11c0 00000000 		.4byte	0
 9044 11c4 00000000 		.4byte	0
 9045              	.LLST112:
 9046 11c8 4C000000 		.4byte	.LVL323
 9047 11cc DA000000 		.4byte	.LVL340
 9048 11d0 0100     		.2byte	0x1
 9049 11d2 54       		.byte	0x54
 9050 11d3 00000000 		.4byte	0
 9051 11d7 00000000 		.4byte	0
 9052              	.LLST114:
 9053 11db 4C000000 		.4byte	.LVL323
 9054 11df 84000000 		.4byte	.LVL329
 9055 11e3 0300     		.2byte	0x3
 9056 11e5 74       		.byte	0x74
ARM GAS  C:\Users\rdn\AppData\Local\Temp\ccet7BYP.s 			page 177


 9057 11e6 04       		.sleb128 4
 9058 11e7 9F       		.byte	0x9f
 9059 11e8 9C000000 		.4byte	.LVL330
 9060 11ec D6000000 		.4byte	.LVL339
 9061 11f0 0300     		.2byte	0x3
 9062 11f2 74       		.byte	0x74
 9063 11f3 04       		.sleb128 4
 9064 11f4 9F       		.byte	0x9f
 9065 11f5 00000000 		.4byte	0
 9066 11f9 00000000 		.4byte	0
 9067              	.LLST115:
 9068 11fd 50000000 		.4byte	.LVL324
 9069 1201 68000000 		.4byte	.LVL327
 9070 1205 0100     		.2byte	0x1
 9071 1207 51       		.byte	0x51
 9072 1208 00000000 		.4byte	0
 9073 120c 00000000 		.4byte	0
 9074              	.LLST116:
 9075 1210 84000000 		.4byte	.LVL329
 9076 1214 D4000000 		.4byte	.LVL338
 9077 1218 0100     		.2byte	0x1
 9078 121a 55       		.byte	0x55
 9079 121b D6000000 		.4byte	.LVL339
 9080 121f DA000000 		.4byte	.LVL340
 9081 1223 0100     		.2byte	0x1
 9082 1225 55       		.byte	0x55
 9083 1226 00000000 		.4byte	0
 9084 122a 00000000 		.4byte	0
 9085              	.LLST117:
 9086 122e 9C000000 		.4byte	.LVL330
 9087 1232 A2000000 		.4byte	.LVL332
 9088 1236 0100     		.2byte	0x1
 9089 1238 53       		.byte	0x53
 9090 1239 A2000000 		.4byte	.LVL332
 9091 123d B0000000 		.4byte	.LVL334
 9092 1241 1200     		.2byte	0x12
 9093 1243 77       		.byte	0x77
 9094 1244 00       		.sleb128 0
 9095 1245 33       		.byte	0x33
 9096 1246 24       		.byte	0x24
 9097 1247 75       		.byte	0x75
 9098 1248 00       		.sleb128 0
 9099 1249 22       		.byte	0x22
 9100 124a 23       		.byte	0x23
 9101 124b 04       		.uleb128 0x4
 9102 124c 32       		.byte	0x32
 9103 124d 24       		.byte	0x24
 9104 124e 78       		.byte	0x78
 9105 124f 00       		.sleb128 0
 9106 1250 22       		.byte	0x22
 9107 1251 06       		.byte	0x6
 9108 1252 23       		.byte	0x23
 9109 1253 08       		.uleb128 0x8
 9110 1254 9F       		.byte	0x9f
 9111 1255 00000000 		.4byte	0
 9112 1259 00000000 		.4byte	0
 9113              	.LLST118:
ARM GAS  C:\Users\rdn\AppData\Local\Temp\ccet7BYP.s 			page 178


 9114 125d 9C000000 		.4byte	.LVL330
 9115 1261 A4000000 		.4byte	.LVL333
 9116 1265 0100     		.2byte	0x1
 9117 1267 52       		.byte	0x52
 9118 1268 00000000 		.4byte	0
 9119 126c 00000000 		.4byte	0
 9120              	.LLST119:
 9121 1270 9C000000 		.4byte	.LVL330
 9122 1274 D0000000 		.4byte	.LVL336
 9123 1278 0100     		.2byte	0x1
 9124 127a 54       		.byte	0x54
 9125 127b 00000000 		.4byte	0
 9126 127f 00000000 		.4byte	0
 9127              	.LLST121:
 9128 1283 9C000000 		.4byte	.LVL330
 9129 1287 D4000000 		.4byte	.LVL338
 9130 128b 0300     		.2byte	0x3
 9131 128d 74       		.byte	0x74
 9132 128e 04       		.sleb128 4
 9133 128f 9F       		.byte	0x9f
 9134 1290 00000000 		.4byte	0
 9135 1294 00000000 		.4byte	0
 9136              	.LLST122:
 9137 1298 A0000000 		.4byte	.LVL331
 9138 129c B8000000 		.4byte	.LVL335
 9139 12a0 0100     		.2byte	0x1
 9140 12a2 51       		.byte	0x51
 9141 12a3 00000000 		.4byte	0
 9142 12a7 00000000 		.4byte	0
 9143              	.LLST123:
 9144 12ab 00000000 		.4byte	.LVL345
 9145 12af 30000000 		.4byte	.LVL352
 9146 12b3 0100     		.2byte	0x1
 9147 12b5 50       		.byte	0x50
 9148 12b6 30000000 		.4byte	.LVL352
 9149 12ba 14020000 		.4byte	.LVL397
 9150 12be 0100     		.2byte	0x1
 9151 12c0 54       		.byte	0x54
 9152 12c1 14020000 		.4byte	.LVL397
 9153 12c5 2C020000 		.4byte	.LFE33
 9154 12c9 0400     		.2byte	0x4
 9155 12cb F3       		.byte	0xf3
 9156 12cc 01       		.uleb128 0x1
 9157 12cd 50       		.byte	0x50
 9158 12ce 9F       		.byte	0x9f
 9159 12cf 00000000 		.4byte	0
 9160 12d3 00000000 		.4byte	0
 9161              	.LLST124:
 9162 12d7 00000000 		.4byte	.LVL345
 9163 12db 10000000 		.4byte	.LVL346
 9164 12df 0100     		.2byte	0x1
 9165 12e1 51       		.byte	0x51
 9166 12e2 10000000 		.4byte	.LVL346
 9167 12e6 2C020000 		.4byte	.LFE33
 9168 12ea 0400     		.2byte	0x4
 9169 12ec F3       		.byte	0xf3
 9170 12ed 01       		.uleb128 0x1
ARM GAS  C:\Users\rdn\AppData\Local\Temp\ccet7BYP.s 			page 179


 9171 12ee 51       		.byte	0x51
 9172 12ef 9F       		.byte	0x9f
 9173 12f0 00000000 		.4byte	0
 9174 12f4 00000000 		.4byte	0
 9175              	.LLST125:
 9176 12f8 00000000 		.4byte	.LVL345
 9177 12fc 1E000000 		.4byte	.LVL347
 9178 1300 0100     		.2byte	0x1
 9179 1302 52       		.byte	0x52
 9180 1303 1E000000 		.4byte	.LVL347
 9181 1307 20000000 		.4byte	.LVL348
 9182 130b 0400     		.2byte	0x4
 9183 130d F3       		.byte	0xf3
 9184 130e 01       		.uleb128 0x1
 9185 130f 52       		.byte	0x52
 9186 1310 9F       		.byte	0x9f
 9187 1311 20000000 		.4byte	.LVL348
 9188 1315 22000000 		.4byte	.LVL349
 9189 1319 0100     		.2byte	0x1
 9190 131b 52       		.byte	0x52
 9191 131c 22000000 		.4byte	.LVL349
 9192 1320 24000000 		.4byte	.LVL350
 9193 1324 0400     		.2byte	0x4
 9194 1326 F3       		.byte	0xf3
 9195 1327 01       		.uleb128 0x1
 9196 1328 52       		.byte	0x52
 9197 1329 9F       		.byte	0x9f
 9198 132a 24000000 		.4byte	.LVL350
 9199 132e 26000000 		.4byte	.LVL351
 9200 1332 0100     		.2byte	0x1
 9201 1334 52       		.byte	0x52
 9202 1335 26000000 		.4byte	.LVL351
 9203 1339 2C020000 		.4byte	.LFE33
 9204 133d 0400     		.2byte	0x4
 9205 133f F3       		.byte	0xf3
 9206 1340 01       		.uleb128 0x1
 9207 1341 52       		.byte	0x52
 9208 1342 9F       		.byte	0x9f
 9209 1343 00000000 		.4byte	0
 9210 1347 00000000 		.4byte	0
 9211              	.LLST126:
 9212 134b 00000000 		.4byte	.LVL345
 9213 134f 33000000 		.4byte	.LVL353-1
 9214 1353 0100     		.2byte	0x1
 9215 1355 53       		.byte	0x53
 9216 1356 33000000 		.4byte	.LVL353-1
 9217 135a 2C020000 		.4byte	.LFE33
 9218 135e 0400     		.2byte	0x4
 9219 1360 F3       		.byte	0xf3
 9220 1361 01       		.uleb128 0x1
 9221 1362 53       		.byte	0x53
 9222 1363 9F       		.byte	0x9f
 9223 1364 00000000 		.4byte	0
 9224 1368 00000000 		.4byte	0
 9225              	.LLST127:
 9226 136c 38000000 		.4byte	.LVL354
 9227 1370 3C000000 		.4byte	.LVL355
ARM GAS  C:\Users\rdn\AppData\Local\Temp\ccet7BYP.s 			page 180


 9228 1374 0200     		.2byte	0x2
 9229 1376 30       		.byte	0x30
 9230 1377 9F       		.byte	0x9f
 9231 1378 3C000000 		.4byte	.LVL355
 9232 137c 14020000 		.4byte	.LVL398
 9233 1380 0100     		.2byte	0x1
 9234 1382 56       		.byte	0x56
 9235 1383 00000000 		.4byte	0
 9236 1387 00000000 		.4byte	0
 9237              	.LLST128:
 9238 138b 3C000000 		.4byte	.LVL355
 9239 138f 58000000 		.4byte	.LVL358
 9240 1393 0100     		.2byte	0x1
 9241 1395 54       		.byte	0x54
 9242 1396 00000000 		.4byte	0
 9243 139a 00000000 		.4byte	0
 9244              	.LLST129:
 9245 139e 3C000000 		.4byte	.LVL355
 9246 13a2 58000000 		.4byte	.LVL358
 9247 13a6 0200     		.2byte	0x2
 9248 13a8 31       		.byte	0x31
 9249 13a9 9F       		.byte	0x9f
 9250 13aa 00000000 		.4byte	0
 9251 13ae 00000000 		.4byte	0
 9252              	.LLST131:
 9253 13b2 3C000000 		.4byte	.LVL355
 9254 13b6 02020000 		.4byte	.LVL394
 9255 13ba 0300     		.2byte	0x3
 9256 13bc 74       		.byte	0x74
 9257 13bd 1C       		.sleb128 28
 9258 13be 9F       		.byte	0x9f
 9259 13bf 10020000 		.4byte	.LVL395
 9260 13c3 14020000 		.4byte	.LVL396
 9261 13c7 0300     		.2byte	0x3
 9262 13c9 74       		.byte	0x74
 9263 13ca 1C       		.sleb128 28
 9264 13cb 9F       		.byte	0x9f
 9265 13cc 00000000 		.4byte	0
 9266 13d0 00000000 		.4byte	0
 9267              	.LLST132:
 9268 13d4 4C000000 		.4byte	.LVL356
 9269 13d8 50000000 		.4byte	.LVL357
 9270 13dc 0100     		.2byte	0x1
 9271 13de 50       		.byte	0x50
 9272 13df 00000000 		.4byte	0
 9273 13e3 00000000 		.4byte	0
 9274              	.LLST133:
 9275 13e7 72000000 		.4byte	.LVL359
 9276 13eb 0E010000 		.4byte	.LVL373
 9277 13ef 0100     		.2byte	0x1
 9278 13f1 54       		.byte	0x54
 9279 13f2 00000000 		.4byte	0
 9280 13f6 00000000 		.4byte	0
 9281              	.LLST134:
 9282 13fa 72000000 		.4byte	.LVL359
 9283 13fe F4000000 		.4byte	.LVL370
 9284 1402 0100     		.2byte	0x1
ARM GAS  C:\Users\rdn\AppData\Local\Temp\ccet7BYP.s 			page 181


 9285 1404 52       		.byte	0x52
 9286 1405 00000000 		.4byte	0
 9287 1409 00000000 		.4byte	0
 9288              	.LLST135:
 9289 140d 72000000 		.4byte	.LVL359
 9290 1411 2C010000 		.4byte	.LVL374
 9291 1415 0300     		.2byte	0x3
 9292 1417 74       		.byte	0x74
 9293 1418 04       		.sleb128 4
 9294 1419 9F       		.byte	0x9f
 9295 141a 36010000 		.4byte	.LVL375
 9296 141e F4010000 		.4byte	.LVL392
 9297 1422 0300     		.2byte	0x3
 9298 1424 74       		.byte	0x74
 9299 1425 04       		.sleb128 4
 9300 1426 9F       		.byte	0x9f
 9301 1427 10020000 		.4byte	.LVL395
 9302 142b 14020000 		.4byte	.LVL396
 9303 142f 0300     		.2byte	0x3
 9304 1431 74       		.byte	0x74
 9305 1432 04       		.sleb128 4
 9306 1433 9F       		.byte	0x9f
 9307 1434 00000000 		.4byte	0
 9308 1438 00000000 		.4byte	0
 9309              	.LLST136:
 9310 143c 7A000000 		.4byte	.LVL360
 9311 1440 00010000 		.4byte	.LVL371
 9312 1444 0100     		.2byte	0x1
 9313 1446 53       		.byte	0x53
 9314 1447 00010000 		.4byte	.LVL371
 9315 144b 02010000 		.4byte	.LVL372
 9316 144f 0A00     		.2byte	0xa
 9317 1451 74       		.byte	0x74
 9318 1452 08       		.sleb128 8
 9319 1453 06       		.byte	0x6
 9320 1454 3A       		.byte	0x3a
 9321 1455 25       		.byte	0x25
 9322 1456 40       		.byte	0x40
 9323 1457 24       		.byte	0x24
 9324 1458 40       		.byte	0x40
 9325 1459 25       		.byte	0x25
 9326 145a 9F       		.byte	0x9f
 9327 145b 00000000 		.4byte	0
 9328 145f 00000000 		.4byte	0
 9329              	.LLST137:
 9330 1463 92000000 		.4byte	.LVL361
 9331 1467 A0000000 		.4byte	.LVL362
 9332 146b 0200     		.2byte	0x2
 9333 146d 40       		.byte	0x40
 9334 146e 9F       		.byte	0x9f
 9335 146f A0000000 		.4byte	.LVL362
 9336 1473 B4000000 		.4byte	.LVL363
 9337 1477 0200     		.2byte	0x2
 9338 1479 38       		.byte	0x38
 9339 147a 9F       		.byte	0x9f
 9340 147b B4000000 		.4byte	.LVL363
 9341 147f DC000000 		.4byte	.LVL365
ARM GAS  C:\Users\rdn\AppData\Local\Temp\ccet7BYP.s 			page 182


 9342 1483 0100     		.2byte	0x1
 9343 1485 51       		.byte	0x51
 9344 1486 DC000000 		.4byte	.LVL365
 9345 148a EA000000 		.4byte	.LVL366
 9346 148e 0100     		.2byte	0x1
 9347 1490 50       		.byte	0x50
 9348 1491 EA000000 		.4byte	.LVL366
 9349 1495 EC000000 		.4byte	.LVL367
 9350 1499 0100     		.2byte	0x1
 9351 149b 51       		.byte	0x51
 9352 149c EC000000 		.4byte	.LVL367
 9353 14a0 EE000000 		.4byte	.LVL368
 9354 14a4 0200     		.2byte	0x2
 9355 14a6 40       		.byte	0x40
 9356 14a7 9F       		.byte	0x9f
 9357 14a8 EE000000 		.4byte	.LVL368
 9358 14ac F2000000 		.4byte	.LVL369
 9359 14b0 0100     		.2byte	0x1
 9360 14b2 51       		.byte	0x51
 9361 14b3 F2000000 		.4byte	.LVL369
 9362 14b7 0E010000 		.4byte	.LVL373
 9363 14bb 0100     		.2byte	0x1
 9364 14bd 59       		.byte	0x59
 9365 14be 00000000 		.4byte	0
 9366 14c2 00000000 		.4byte	0
 9367              	.LLST138:
 9368 14c6 2C010000 		.4byte	.LVL374
 9369 14ca F2010000 		.4byte	.LVL391
 9370 14ce 0100     		.2byte	0x1
 9371 14d0 55       		.byte	0x55
 9372 14d1 F4010000 		.4byte	.LVL392
 9373 14d5 00020000 		.4byte	.LVL393
 9374 14d9 0100     		.2byte	0x1
 9375 14db 55       		.byte	0x55
 9376 14dc 00000000 		.4byte	0
 9377 14e0 00000000 		.4byte	0
 9378              	.LLST139:
 9379 14e4 36010000 		.4byte	.LVL375
 9380 14e8 DE010000 		.4byte	.LVL389
 9381 14ec 0100     		.2byte	0x1
 9382 14ee 54       		.byte	0x54
 9383 14ef 00000000 		.4byte	0
 9384 14f3 00000000 		.4byte	0
 9385              	.LLST140:
 9386 14f7 36010000 		.4byte	.LVL375
 9387 14fb C8010000 		.4byte	.LVL386
 9388 14ff 0100     		.2byte	0x1
 9389 1501 50       		.byte	0x50
 9390 1502 00000000 		.4byte	0
 9391 1506 00000000 		.4byte	0
 9392              	.LLST141:
 9393 150a 36010000 		.4byte	.LVL375
 9394 150e F2010000 		.4byte	.LVL391
 9395 1512 0300     		.2byte	0x3
 9396 1514 74       		.byte	0x74
 9397 1515 04       		.sleb128 4
 9398 1516 9F       		.byte	0x9f
ARM GAS  C:\Users\rdn\AppData\Local\Temp\ccet7BYP.s 			page 183


 9399 1517 00000000 		.4byte	0
 9400 151b 00000000 		.4byte	0
 9401              	.LLST142:
 9402 151f 3E010000 		.4byte	.LVL376
 9403 1523 D0010000 		.4byte	.LVL387
 9404 1527 0100     		.2byte	0x1
 9405 1529 53       		.byte	0x53
 9406 152a D0010000 		.4byte	.LVL387
 9407 152e D2010000 		.4byte	.LVL388
 9408 1532 0A00     		.2byte	0xa
 9409 1534 74       		.byte	0x74
 9410 1535 08       		.sleb128 8
 9411 1536 06       		.byte	0x6
 9412 1537 3A       		.byte	0x3a
 9413 1538 25       		.byte	0x25
 9414 1539 40       		.byte	0x40
 9415 153a 24       		.byte	0x24
 9416 153b 40       		.byte	0x40
 9417 153c 25       		.byte	0x25
 9418 153d 9F       		.byte	0x9f
 9419 153e 00000000 		.4byte	0
 9420 1542 00000000 		.4byte	0
 9421              	.LLST143:
 9422 1546 5E010000 		.4byte	.LVL377
 9423 154a 6E010000 		.4byte	.LVL378
 9424 154e 0200     		.2byte	0x2
 9425 1550 40       		.byte	0x40
 9426 1551 9F       		.byte	0x9f
 9427 1552 6E010000 		.4byte	.LVL378
 9428 1556 82010000 		.4byte	.LVL379
 9429 155a 0200     		.2byte	0x2
 9430 155c 38       		.byte	0x38
 9431 155d 9F       		.byte	0x9f
 9432 155e 82010000 		.4byte	.LVL379
 9433 1562 96010000 		.4byte	.LVL380
 9434 1566 0100     		.2byte	0x1
 9435 1568 52       		.byte	0x52
 9436 1569 96010000 		.4byte	.LVL380
 9437 156d AA010000 		.4byte	.LVL381
 9438 1571 0100     		.2byte	0x1
 9439 1573 51       		.byte	0x51
 9440 1574 AA010000 		.4byte	.LVL381
 9441 1578 B8010000 		.4byte	.LVL382
 9442 157c 0100     		.2byte	0x1
 9443 157e 52       		.byte	0x52
 9444 157f B8010000 		.4byte	.LVL382
 9445 1583 BA010000 		.4byte	.LVL383
 9446 1587 0100     		.2byte	0x1
 9447 1589 51       		.byte	0x51
 9448 158a BA010000 		.4byte	.LVL383
 9449 158e BC010000 		.4byte	.LVL384
 9450 1592 0200     		.2byte	0x2
 9451 1594 40       		.byte	0x40
 9452 1595 9F       		.byte	0x9f
 9453 1596 BC010000 		.4byte	.LVL384
 9454 159a C4010000 		.4byte	.LVL385
 9455 159e 0100     		.2byte	0x1
ARM GAS  C:\Users\rdn\AppData\Local\Temp\ccet7BYP.s 			page 184


 9456 15a0 51       		.byte	0x51
 9457 15a1 C4010000 		.4byte	.LVL385
 9458 15a5 DE010000 		.4byte	.LVL389
 9459 15a9 0100     		.2byte	0x1
 9460 15ab 59       		.byte	0x59
 9461 15ac 00000000 		.4byte	0
 9462 15b0 00000000 		.4byte	0
 9463              		.section	.debug_aranges,"",%progbits
 9464 0000 7C000000 		.4byte	0x7c
 9465 0004 0200     		.2byte	0x2
 9466 0006 00000000 		.4byte	.Ldebug_info0
 9467 000a 04       		.byte	0x4
 9468 000b 00       		.byte	0
 9469 000c 0000     		.2byte	0
 9470 000e 0000     		.2byte	0
 9471 0010 00000000 		.4byte	.LFB20
 9472 0014 16000000 		.4byte	.LFE20-.LFB20
 9473 0018 00000000 		.4byte	.LFB22
 9474 001c 74040000 		.4byte	.LFE22-.LFB22
 9475 0020 00000000 		.4byte	.LFB23
 9476 0024 58000000 		.4byte	.LFE23-.LFB23
 9477 0028 00000000 		.4byte	.LFB24
 9478 002c 04010000 		.4byte	.LFE24-.LFB24
 9479 0030 00000000 		.4byte	.LFB25
 9480 0034 B4000000 		.4byte	.LFE25-.LFB25
 9481 0038 00000000 		.4byte	.LFB26
 9482 003c 34000000 		.4byte	.LFE26-.LFB26
 9483 0040 00000000 		.4byte	.LFB27
 9484 0044 04010000 		.4byte	.LFE27-.LFB27
 9485 0048 00000000 		.4byte	.LFB28
 9486 004c 2C010000 		.4byte	.LFE28-.LFB28
 9487 0050 00000000 		.4byte	.LFB29
 9488 0054 02010000 		.4byte	.LFE29-.LFB29
 9489 0058 00000000 		.4byte	.LFB30
 9490 005c 52000000 		.4byte	.LFE30-.LFB30
 9491 0060 00000000 		.4byte	.LFB31
 9492 0064 74000000 		.4byte	.LFE31-.LFB31
 9493 0068 00000000 		.4byte	.LFB32
 9494 006c F8000000 		.4byte	.LFE32-.LFB32
 9495 0070 00000000 		.4byte	.LFB33
 9496 0074 2C020000 		.4byte	.LFE33-.LFB33
 9497 0078 00000000 		.4byte	0
 9498 007c 00000000 		.4byte	0
 9499              		.section	.debug_ranges,"",%progbits
 9500              	.Ldebug_ranges0:
 9501 0000 28000000 		.4byte	.LBB57
 9502 0004 2A000000 		.4byte	.LBE57
 9503 0008 2E000000 		.4byte	.LBB58
 9504 000c 4E000000 		.4byte	.LBE58
 9505 0010 00000000 		.4byte	0
 9506 0014 00000000 		.4byte	0
 9507 0018 72000000 		.4byte	.LBB60
 9508 001c 74000000 		.4byte	.LBE60
 9509 0020 76000000 		.4byte	.LBB62
 9510 0024 E6000000 		.4byte	.LBE62
 9511 0028 00000000 		.4byte	0
 9512 002c 00000000 		.4byte	0
ARM GAS  C:\Users\rdn\AppData\Local\Temp\ccet7BYP.s 			page 185


 9513 0030 74000000 		.4byte	.LBB71
 9514 0034 D8000000 		.4byte	.LBE71
 9515 0038 E4000000 		.4byte	.LBB74
 9516 003c EA000000 		.4byte	.LBE74
 9517 0040 00000000 		.4byte	0
 9518 0044 00000000 		.4byte	0
 9519 0048 86000000 		.4byte	.LBB72
 9520 004c D4000000 		.4byte	.LBE72
 9521 0050 E4000000 		.4byte	.LBB73
 9522 0054 EA000000 		.4byte	.LBE73
 9523 0058 00000000 		.4byte	0
 9524 005c 00000000 		.4byte	0
 9525 0060 78000000 		.4byte	.LBB78
 9526 0064 FE000000 		.4byte	.LBE78
 9527 0068 0E010000 		.4byte	.LBB82
 9528 006c 12010000 		.4byte	.LBE82
 9529 0070 00000000 		.4byte	0
 9530 0074 00000000 		.4byte	0
 9531 0078 02000000 		.4byte	.LBB85
 9532 007c 04000000 		.4byte	.LBE85
 9533 0080 06000000 		.4byte	.LBB88
 9534 0084 64000000 		.4byte	.LBE88
 9535 0088 00000000 		.4byte	0
 9536 008c 00000000 		.4byte	0
 9537 0090 38000000 		.4byte	.LBB118
 9538 0094 0C020000 		.4byte	.LBE118
 9539 0098 0E020000 		.4byte	.LBB130
 9540 009c 14020000 		.4byte	.LBE130
 9541 00a0 00000000 		.4byte	0
 9542 00a4 00000000 		.4byte	0
 9543 00a8 2C010000 		.4byte	.LBB126
 9544 00ac F2010000 		.4byte	.LBE126
 9545 00b0 F4010000 		.4byte	.LBB129
 9546 00b4 00020000 		.4byte	.LBE129
 9547 00b8 00000000 		.4byte	0
 9548 00bc 00000000 		.4byte	0
 9549 00c0 00000000 		.4byte	.LFB20
 9550 00c4 16000000 		.4byte	.LFE20
 9551 00c8 00000000 		.4byte	.LFB22
 9552 00cc 74040000 		.4byte	.LFE22
 9553 00d0 00000000 		.4byte	.LFB23
 9554 00d4 58000000 		.4byte	.LFE23
 9555 00d8 00000000 		.4byte	.LFB24
 9556 00dc 04010000 		.4byte	.LFE24
 9557 00e0 00000000 		.4byte	.LFB25
 9558 00e4 B4000000 		.4byte	.LFE25
 9559 00e8 00000000 		.4byte	.LFB26
 9560 00ec 34000000 		.4byte	.LFE26
 9561 00f0 00000000 		.4byte	.LFB27
 9562 00f4 04010000 		.4byte	.LFE27
 9563 00f8 00000000 		.4byte	.LFB28
 9564 00fc 2C010000 		.4byte	.LFE28
 9565 0100 00000000 		.4byte	.LFB29
 9566 0104 02010000 		.4byte	.LFE29
 9567 0108 00000000 		.4byte	.LFB30
 9568 010c 52000000 		.4byte	.LFE30
 9569 0110 00000000 		.4byte	.LFB31
ARM GAS  C:\Users\rdn\AppData\Local\Temp\ccet7BYP.s 			page 186


 9570 0114 74000000 		.4byte	.LFE31
 9571 0118 00000000 		.4byte	.LFB32
 9572 011c F8000000 		.4byte	.LFE32
 9573 0120 00000000 		.4byte	.LFB33
 9574 0124 2C020000 		.4byte	.LFE33
 9575 0128 00000000 		.4byte	0
 9576 012c 00000000 		.4byte	0
 9577              		.section	.debug_line,"",%progbits
 9578              	.Ldebug_line0:
 9579 0000 EE060000 		.section	.debug_str,"MS",%progbits,1
 9579      02007A01 
 9579      00000201 
 9579      FB0E0D00 
 9579      01010101 
 9580              	.LASF90:
 9581 0000 7375625F 		.ascii	"sub_7m5_fb\000"
 9581      376D355F 
 9581      666200
 9582              	.LASF84:
 9583 000b 7375625F 		.ascii	"sub_5m_swb\000"
 9583      356D5F73 
 9583      776200
 9584              	.LASF23:
 9585 0016 4C43335F 		.ascii	"LC3_SRATE_24K\000"
 9585      53524154 
 9585      455F3234 
 9585      4B00
 9586              	.LASF79:
 9587 0024 7375625F 		.ascii	"sub_2m5_swb\000"
 9587      326D355F 
 9587      73776200 
 9588              	.LASF40:
 9589 0030 4C43335F 		.ascii	"LC3_BANDWIDTH_FB_HR\000"
 9589      42414E44 
 9589      57494454 
 9589      485F4642 
 9589      5F485200 
 9590              	.LASF36:
 9591 0044 4C43335F 		.ascii	"LC3_BANDWIDTH_WB\000"
 9591      42414E44 
 9591      57494454 
 9591      485F5742 
 9591      00
 9592              	.LASF77:
 9593 0055 7375625F 		.ascii	"sub_2m5_wb\000"
 9593      326D355F 
 9593      776200
 9594              	.LASF68:
 9595 0060 72635F6F 		.ascii	"rc_order\000"
 9595      72646572 
 9595      00
 9596              	.LASF56:
 9597 0069 6C63335F 		.ascii	"lc3_bits_buffer\000"
 9597      62697473 
 9597      5F627566 
 9597      66657200 
 9598              	.LASF63:
ARM GAS  C:\Users\rdn\AppData\Local\Temp\ccet7BYP.s 			page 187


 9599 0079 62756666 		.ascii	"buffer\000"
 9599      657200
 9600              	.LASF127:
 9601 0080 6C63335F 		.ascii	"lc3_ne_2m5\000"
 9601      6E655F32 
 9601      6D3500
 9602              	.LASF116:
 9603 008b 6E626974 		.ascii	"nbits_2048\000"
 9603      735F3230 
 9603      343800
 9604              	.LASF11:
 9605 0096 756E7369 		.ascii	"unsigned int\000"
 9605      676E6564 
 9605      20696E74 
 9605      00
 9606              	.LASF25:
 9607 00a3 4C43335F 		.ascii	"LC3_SRATE_48K\000"
 9607      53524154 
 9607      455F3438 
 9607      4B00
 9608              	.LASF96:
 9609 00b1 6C61675F 		.ascii	"lag_window\000"
 9609      77696E64 
 9609      6F7700
 9610              	.LASF92:
 9611 00bc 7375625F 		.ascii	"sub_10m_wb\000"
 9611      31306D5F 
 9611      776200
 9612              	.LASF54:
 9613 00c7 63617272 		.ascii	"carry_count\000"
 9613      795F636F 
 9613      756E7400 
 9614              	.LASF97:
 9615 00d3 6E737562 		.ascii	"nsubdivisions\000"
 9615      64697669 
 9615      73696F6E 
 9615      7300
 9616              	.LASF71:
 9617 00e1 6C63335F 		.ascii	"lc3_get_bits\000"
 9617      6765745F 
 9617      62697473 
 9617      00
 9618              	.LASF69:
 9619 00ee 6C63335F 		.ascii	"lc3_tns_data_t\000"
 9619      746E735F 
 9619      64617461 
 9619      5F7400
 9620              	.LASF87:
 9621 00fd 7375625F 		.ascii	"sub_7m5_wb\000"
 9621      376D355F 
 9621      776200
 9622              	.LASF55:
 9623 0108 6572726F 		.ascii	"error\000"
 9623      7200
 9624              	.LASF61:
 9625 010e 6D6F6465 		.ascii	"mode\000"
 9625      00
ARM GAS  C:\Users\rdn\AppData\Local\Temp\ccet7BYP.s 			page 188


 9626              	.LASF19:
 9627 0113 6C63335F 		.ascii	"lc3_dt\000"
 9627      647400
 9628              	.LASF26:
 9629 011a 4C43335F 		.ascii	"LC3_SRATE_48K_HR\000"
 9629      53524154 
 9629      455F3438 
 9629      4B5F4852 
 9629      00
 9630              	.LASF128:
 9631 012b 6C63335F 		.ascii	"lc3_ns_4m\000"
 9631      6E735F34 
 9631      6D00
 9632              	.LASF135:
 9633 0135 6C63335F 		.ascii	"lc3_ac_write_renorm\000"
 9633      61635F77 
 9633      72697465 
 9633      5F72656E 
 9633      6F726D00 
 9634              	.LASF43:
 9635 0149 6C63335F 		.ascii	"lc3_bits_mode\000"
 9635      62697473 
 9635      5F6D6F64 
 9635      6500
 9636              	.LASF99:
 9637 0157 70726564 		.ascii	"pred_gain\000"
 9637      5F676169 
 9637      6E00
 9638              	.LASF126:
 9639 0161 6C63335F 		.ascii	"lc3_ns_2m5\000"
 9639      6E735F32 
 9639      6D3500
 9640              	.LASF65:
 9641 016c 6C63335F 		.ascii	"lc3_tns_data\000"
 9641      746E735F 
 9641      64617461 
 9641      00
 9642              	.LASF15:
 9643 0179 4C43335F 		.ascii	"LC3_DT_5M\000"
 9643      44545F35 
 9643      4D00
 9644              	.LASF141:
 9645 0183 7265736F 		.ascii	"resolve_lpc_weighting\000"
 9645      6C76655F 
 9645      6C70635F 
 9645      77656967 
 9645      6874696E 
 9646              	.LASF0:
 9647 0199 666C6F61 		.ascii	"float\000"
 9647      7400
 9648              	.LASF138:
 9649 019f 474E5520 		.ascii	"GNU C11 5.4.1 20160609 (release) [ARM/embedded-5-br"
 9649      43313120 
 9649      352E342E 
 9649      31203230 
 9649      31363036 
 9650 01d2 616E6368 		.ascii	"anch revision 237715] -mcpu=cortex-m0plus -mthumb -"
ARM GAS  C:\Users\rdn\AppData\Local\Temp\ccet7BYP.s 			page 189


 9650      20726576 
 9650      6973696F 
 9650      6E203233 
 9650      37373135 
 9651 0205 67202D4F 		.ascii	"g -Og -ffunction-sections -ffat-lto-objects\000"
 9651      67202D66 
 9651      66756E63 
 9651      74696F6E 
 9651      2D736563 
 9652              	.LASF53:
 9653 0231 63617272 		.ascii	"carry\000"
 9653      7900
 9654              	.LASF10:
 9655 0237 6C6F6E67 		.ascii	"long long unsigned int\000"
 9655      206C6F6E 
 9655      6720756E 
 9655      7369676E 
 9655      65642069 
 9656              	.LASF113:
 9657 024e 6C63335F 		.ascii	"lc3_tns_analyze\000"
 9657      746E735F 
 9657      616E616C 
 9657      797A6500 
 9658              	.LASF5:
 9659 025e 5F5F7569 		.ascii	"__uint16_t\000"
 9659      6E743136 
 9659      5F7400
 9660              	.LASF74:
 9661 0269 6D61786F 		.ascii	"maxorder\000"
 9661      72646572 
 9661      00
 9662              	.LASF24:
 9663 0272 4C43335F 		.ascii	"LC3_SRATE_32K\000"
 9663      53524154 
 9663      455F3332 
 9663      4B00
 9664              	.LASF18:
 9665 0280 4C43335F 		.ascii	"LC3_NUM_DT\000"
 9665      4E554D5F 
 9665      445400
 9666              	.LASF117:
 9667 028b 6C63335F 		.ascii	"lc3_put_bits\000"
 9667      7075745F 
 9667      62697473 
 9667      00
 9668              	.LASF105:
 9669 0298 715F7468 		.ascii	"q_thr\000"
 9669      7200
 9670              	.LASF88:
 9671 029e 7375625F 		.ascii	"sub_7m5_sswb\000"
 9671      376D355F 
 9671      73737762 
 9671      00
 9672              	.LASF136:
 9673 02ab 6C63335F 		.ascii	"lc3_get_bits_generic\000"
 9673      6765745F 
 9673      62697473 
ARM GAS  C:\Users\rdn\AppData\Local\Temp\ccet7BYP.s 			page 190


 9673      5F67656E 
 9673      65726963 
 9674              	.LASF29:
 9675 02c0 5F426F6F 		.ascii	"_Bool\000"
 9675      6C00
 9676              	.LASF108:
 9677 02c6 715F696E 		.ascii	"q_inv\000"
 9677      7600
 9678              	.LASF98:
 9679 02cc 636F6D70 		.ascii	"compute_lpc_coeffs\000"
 9679      7574655F 
 9679      6C70635F 
 9679      636F6566 
 9679      667300
 9680              	.LASF64:
 9681 02df 6C63335F 		.ascii	"lc3_bits_t\000"
 9681      62697473 
 9681      5F7400
 9682              	.LASF133:
 9683 02ea 6C63335F 		.ascii	"lc3_tns_coeffs_bits\000"
 9683      746E735F 
 9683      636F6566 
 9683      66735F62 
 9683      69747300 
 9684              	.LASF81:
 9685 02fe 7375625F 		.ascii	"sub_5m_nb\000"
 9685      356D5F6E 
 9685      6200
 9686              	.LASF119:
 9687 0308 6D6F6465 		.ascii	"model\000"
 9687      6C00
 9688              	.LASF17:
 9689 030e 4C43335F 		.ascii	"LC3_DT_10M\000"
 9689      44545F31 
 9689      304D00
 9690              	.LASF62:
 9691 0319 61636375 		.ascii	"accu\000"
 9691      00
 9692              	.LASF32:
 9693 031e 63686172 		.ascii	"char\000"
 9693      00
 9694              	.LASF93:
 9695 0323 7375625F 		.ascii	"sub_10m_sswb\000"
 9695      31306D5F 
 9695      73737762 
 9695      00
 9696              	.LASF103:
 9697 0330 6F726465 		.ascii	"order\000"
 9697      7200
 9698              	.LASF49:
 9699 0336 6C63335F 		.ascii	"lc3_bits_accu\000"
 9699      62697473 
 9699      5F616363 
 9699      7500
 9700              	.LASF112:
 9701 0344 64617461 		.ascii	"data\000"
 9701      00
ARM GAS  C:\Users\rdn\AppData\Local\Temp\ccet7BYP.s 			page 191


 9702              	.LASF140:
 9703 0349 433A5C55 		.ascii	"C:\\Users\\rdn\\Documents\\PSoC Creator\\SEES\\ble_"
 9703      73657273 
 9703      5C72646E 
 9703      5C446F63 
 9703      756D656E 
 9704 0376 74657374 		.ascii	"test.cydsn\000"
 9704      2E637964 
 9704      736E00
 9705              	.LASF50:
 9706 0381 6E6F7665 		.ascii	"nover\000"
 9706      7200
 9707              	.LASF35:
 9708 0387 4C43335F 		.ascii	"LC3_BANDWIDTH_NB\000"
 9708      42414E44 
 9708      57494454 
 9708      485F4E42 
 9708      00
 9709              	.LASF76:
 9710 0398 7375625F 		.ascii	"sub_2m5_nb\000"
 9710      326D355F 
 9710      6E6200
 9711              	.LASF12:
 9712 03a3 75696E74 		.ascii	"uint8_t\000"
 9712      385F7400 
 9713              	.LASF75:
 9714 03ab 6761696E 		.ascii	"gain\000"
 9714      00
 9715              	.LASF131:
 9716 03b0 6C63335F 		.ascii	"lc3_tns_order_bits\000"
 9716      746E735F 
 9716      6F726465 
 9716      725F6269 
 9716      747300
 9717              	.LASF59:
 9718 03c3 705F6277 		.ascii	"p_bw\000"
 9718      00
 9719              	.LASF72:
 9720 03c8 62697473 		.ascii	"bits\000"
 9720      00
 9721              	.LASF111:
 9722 03cd 6E6E5F66 		.ascii	"nn_flag\000"
 9722      6C616700 
 9723              	.LASF9:
 9724 03d5 6C6F6E67 		.ascii	"long long int\000"
 9724      206C6F6E 
 9724      6720696E 
 9724      7400
 9725              	.LASF91:
 9726 03e3 7375625F 		.ascii	"sub_10m_nb\000"
 9726      31306D5F 
 9726      6E6200
 9727              	.LASF100:
 9728 03ee 67616D6D 		.ascii	"gamma\000"
 9728      6100
 9729              	.LASF47:
 9730 03f4 6C63335F 		.ascii	"lc3_ac_symbol\000"
ARM GAS  C:\Users\rdn\AppData\Local\Temp\ccet7BYP.s 			page 192


 9730      61635F73 
 9730      796D626F 
 9730      6C00
 9731              	.LASF83:
 9732 0402 7375625F 		.ascii	"sub_5m_sswb\000"
 9732      356D5F73 
 9732      73776200 
 9733              	.LASF122:
 9734 040e 6C63335F 		.ascii	"lc3_get_bit\000"
 9734      6765745F 
 9734      62697400 
 9735              	.LASF109:
 9736 041a 666F7277 		.ascii	"forward_filtering\000"
 9736      6172645F 
 9736      66696C74 
 9736      6572696E 
 9736      6700
 9737              	.LASF115:
 9738 042c 6E626974 		.ascii	"nbits\000"
 9738      7300
 9739              	.LASF38:
 9740 0432 4C43335F 		.ascii	"LC3_BANDWIDTH_SWB\000"
 9740      42414E44 
 9740      57494454 
 9740      485F5357 
 9740      4200
 9741              	.LASF86:
 9742 0444 7375625F 		.ascii	"sub_7m5_nb\000"
 9742      376D355F 
 9742      6E6200
 9743              	.LASF142:
 9744 044f 6D656D73 		.ascii	"memset\000"
 9744      657400
 9745              	.LASF73:
 9746 0456 6E627974 		.ascii	"nbytes\000"
 9746      657300
 9747              	.LASF130:
 9748 045d 6C63335F 		.ascii	"lc3_tns_order_models\000"
 9748      746E735F 
 9748      6F726465 
 9748      725F6D6F 
 9748      64656C73 
 9749              	.LASF78:
 9750 0472 7375625F 		.ascii	"sub_2m5_sswb\000"
 9750      326D355F 
 9750      73737762 
 9750      00
 9751              	.LASF46:
 9752 047f 72616E67 		.ascii	"range\000"
 9752      6500
 9753              	.LASF137:
 9754 0485 6C63335F 		.ascii	"lc3_ac_read_renorm\000"
 9754      61635F72 
 9754      6561645F 
 9754      72656E6F 
 9754      726D00
 9755              	.LASF118:
ARM GAS  C:\Users\rdn\AppData\Local\Temp\ccet7BYP.s 			page 193


 9756 0498 6C63335F 		.ascii	"lc3_put_symbol\000"
 9756      7075745F 
 9756      73796D62 
 9756      6F6C00
 9757              	.LASF134:
 9758 04a7 6C63335F 		.ascii	"lc3_put_bits_generic\000"
 9758      7075745F 
 9758      62697473 
 9758      5F67656E 
 9758      65726963 
 9759              	.LASF85:
 9760 04bc 7375625F 		.ascii	"sub_5m_fb\000"
 9760      356D5F66 
 9760      6200
 9761              	.LASF41:
 9762 04c6 4C43335F 		.ascii	"LC3_BANDWIDTH_UB_HR\000"
 9762      42414E44 
 9762      57494454 
 9762      485F5542 
 9762      5F485200 
 9763              	.LASF52:
 9764 04da 63616368 		.ascii	"cache\000"
 9764      6500
 9765              	.LASF60:
 9766 04e0 6C63335F 		.ascii	"lc3_bits\000"
 9766      62697473 
 9766      00
 9767              	.LASF110:
 9768 04e9 696E7665 		.ascii	"inverse_filtering\000"
 9768      7273655F 
 9768      66696C74 
 9768      6572696E 
 9768      6700
 9769              	.LASF31:
 9770 04fb 6C6F6E67 		.ascii	"long double\000"
 9770      20646F75 
 9770      626C6500 
 9771              	.LASF13:
 9772 0507 75696E74 		.ascii	"uint16_t\000"
 9772      31365F74 
 9772      00
 9773              	.LASF28:
 9774 0510 4C43335F 		.ascii	"LC3_NUM_SRATE\000"
 9774      4E554D5F 
 9774      53524154 
 9774      4500
 9775              	.LASF120:
 9776 051e 73796D62 		.ascii	"symbols\000"
 9776      6F6C7300 
 9777              	.LASF16:
 9778 0526 4C43335F 		.ascii	"LC3_DT_7M5\000"
 9778      44545F37 
 9778      4D3500
 9779              	.LASF132:
 9780 0531 6C63335F 		.ascii	"lc3_tns_coeffs_models\000"
 9780      746E735F 
 9780      636F6566 
ARM GAS  C:\Users\rdn\AppData\Local\Temp\ccet7BYP.s 			page 194


 9780      66735F6D 
 9780      6F64656C 
 9781              	.LASF3:
 9782 0547 73686F72 		.ascii	"short int\000"
 9782      7420696E 
 9782      7400
 9783              	.LASF14:
 9784 0551 4C43335F 		.ascii	"LC3_DT_2M5\000"
 9784      44545F32 
 9784      4D3500
 9785              	.LASF7:
 9786 055c 6C6F6E67 		.ascii	"long int\000"
 9786      20696E74 
 9786      00
 9787              	.LASF82:
 9788 0565 7375625F 		.ascii	"sub_5m_wb\000"
 9788      356D5F77 
 9788      6200
 9789              	.LASF48:
 9790 056f 6C63335F 		.ascii	"lc3_ac_model\000"
 9790      61635F6D 
 9790      6F64656C 
 9790      00
 9791              	.LASF125:
 9792 057c 6C63335F 		.ascii	"lc3_tns_get_data\000"
 9792      746E735F 
 9792      6765745F 
 9792      64617461 
 9792      00
 9793              	.LASF45:
 9794 058d 4C43335F 		.ascii	"LC3_BITS_MODE_WRITE\000"
 9794      42495453 
 9794      5F4D4F44 
 9794      455F5752 
 9794      49544500 
 9795              	.LASF89:
 9796 05a1 7375625F 		.ascii	"sub_7m5_swb\000"
 9796      376D355F 
 9796      73776200 
 9797              	.LASF114:
 9798 05ad 6C63335F 		.ascii	"lc3_tns_synthesize\000"
 9798      746E735F 
 9798      73796E74 
 9798      68657369 
 9798      7A6500
 9799              	.LASF4:
 9800 05c0 5F5F7569 		.ascii	"__uint8_t\000"
 9800      6E74385F 
 9800      7400
 9801              	.LASF57:
 9802 05ca 73746172 		.ascii	"start\000"
 9802      7400
 9803              	.LASF22:
 9804 05d0 4C43335F 		.ascii	"LC3_SRATE_16K\000"
 9804      53524154 
 9804      455F3136 
 9804      4B00
ARM GAS  C:\Users\rdn\AppData\Local\Temp\ccet7BYP.s 			page 195


 9805              	.LASF66:
 9806 05de 6E66696C 		.ascii	"nfilters\000"
 9806      74657273 
 9806      00
 9807              	.LASF67:
 9808 05e7 6C70635F 		.ascii	"lpc_weighting\000"
 9808      77656967 
 9808      6874696E 
 9808      6700
 9809              	.LASF37:
 9810 05f5 4C43335F 		.ascii	"LC3_BANDWIDTH_SSWB\000"
 9810      42414E44 
 9810      57494454 
 9810      485F5353 
 9810      574200
 9811              	.LASF30:
 9812 0608 73697A65 		.ascii	"sizetype\000"
 9812      74797065 
 9812      00
 9813              	.LASF70:
 9814 0611 6C63335F 		.ascii	"lc3_ne\000"
 9814      6E6500
 9815              	.LASF8:
 9816 0618 6C6F6E67 		.ascii	"long unsigned int\000"
 9816      20756E73 
 9816      69676E65 
 9816      6420696E 
 9816      7400
 9817              	.LASF20:
 9818 062a 6C63335F 		.ascii	"lc3_srate\000"
 9818      73726174 
 9818      6500
 9819              	.LASF2:
 9820 0634 756E7369 		.ascii	"unsigned char\000"
 9820      676E6564 
 9820      20636861 
 9820      7200
 9821              	.LASF106:
 9822 0642 72635F6D 		.ascii	"rc_m\000"
 9822      00
 9823              	.LASF104:
 9824 0647 72635F71 		.ascii	"rc_q\000"
 9824      00
 9825              	.LASF139:
 9826 064c 2E2E5C2E 		.ascii	"..\\..\\..\\liblc3\\src\\tns.c\000"
 9826      2E5C2E2E 
 9826      5C6C6962 
 9826      6C63335C 
 9826      7372635C 
 9827              	.LASF34:
 9828 0666 6C63335F 		.ascii	"lc3_bandwidth\000"
 9828      62616E64 
 9828      77696474 
 9828      6800
 9829              	.LASF107:
 9830 0674 756E7175 		.ascii	"unquantize_rc\000"
 9830      616E7469 
ARM GAS  C:\Users\rdn\AppData\Local\Temp\ccet7BYP.s 			page 196


 9830      7A655F72 
 9830      6300
 9831              	.LASF44:
 9832 0682 4C43335F 		.ascii	"LC3_BITS_MODE_READ\000"
 9832      42495453 
 9832      5F4D4F44 
 9832      455F5245 
 9832      414400
 9833              	.LASF21:
 9834 0695 4C43335F 		.ascii	"LC3_SRATE_8K\000"
 9834      53524154 
 9834      455F384B 
 9834      00
 9835              	.LASF1:
 9836 06a2 7369676E 		.ascii	"signed char\000"
 9836      65642063 
 9836      68617200 
 9837              	.LASF101:
 9838 06ae 6C70635F 		.ascii	"lpc_reflection\000"
 9838      7265666C 
 9838      65637469 
 9838      6F6E00
 9839              	.LASF6:
 9840 06bd 73686F72 		.ascii	"short unsigned int\000"
 9840      7420756E 
 9840      7369676E 
 9840      65642069 
 9840      6E7400
 9841              	.LASF121:
 9842 06d0 6C63335F 		.ascii	"lc3_tns_put_data\000"
 9842      746E735F 
 9842      7075745F 
 9842      64617461 
 9842      00
 9843              	.LASF39:
 9844 06e1 4C43335F 		.ascii	"LC3_BANDWIDTH_FB\000"
 9844      42414E44 
 9844      57494454 
 9844      485F4642 
 9844      00
 9845              	.LASF80:
 9846 06f2 7375625F 		.ascii	"sub_2m5_fb\000"
 9846      326D355F 
 9846      666200
 9847              	.LASF42:
 9848 06fd 4C43335F 		.ascii	"LC3_NUM_BANDWIDTH\000"
 9848      4E554D5F 
 9848      42414E44 
 9848      57494454 
 9848      4800
 9849              	.LASF123:
 9850 070f 6C63335F 		.ascii	"lc3_get_symbol\000"
 9850      6765745F 
 9850      73796D62 
 9850      6F6C00
 9851              	.LASF33:
 9852 071e 646F7562 		.ascii	"double\000"
ARM GAS  C:\Users\rdn\AppData\Local\Temp\ccet7BYP.s 			page 197


 9852      6C6500
 9853              	.LASF27:
 9854 0725 4C43335F 		.ascii	"LC3_SRATE_96K_HR\000"
 9854      53524154 
 9854      455F3936 
 9854      4B5F4852 
 9854      00
 9855              	.LASF102:
 9856 0736 7175616E 		.ascii	"quantize_rc\000"
 9856      74697A65 
 9856      5F726300 
 9857              	.LASF51:
 9858 0742 6C63335F 		.ascii	"lc3_bits_ac\000"
 9858      62697473 
 9858      5F616300 
 9859              	.LASF129:
 9860 074e 6C63335F 		.ascii	"lc3_frame_bytes_hr_lim\000"
 9860      6672616D 
 9860      655F6279 
 9860      7465735F 
 9860      68725F6C 
 9861              	.LASF95:
 9862 0765 7375625F 		.ascii	"sub_10m_fb\000"
 9862      31306D5F 
 9862      666200
 9863              	.LASF124:
 9864 0770 6C63335F 		.ascii	"lc3_tns_get_nbits\000"
 9864      746E735F 
 9864      6765745F 
 9864      6E626974 
 9864      7300
 9865              	.LASF94:
 9866 0782 7375625F 		.ascii	"sub_10m_swb\000"
 9866      31306D5F 
 9866      73776200 
 9867              	.LASF58:
 9868 078e 705F6677 		.ascii	"p_fw\000"
 9868      00
 9869              		.ident	"GCC: (GNU Tools for ARM Embedded Processors) 5.4.1 20160609 (release) [ARM/embedded-5-bran
