ARM GAS  C:\Users\rdn\AppData\Local\Temp\ccet7BYP.s 			page 1


   1              		.syntax unified
   2              		.cpu cortex-m0plus
   3              		.fpu softvfp
   4              		.eabi_attribute 20, 1
   5              		.eabi_attribute 21, 1
   6              		.eabi_attribute 23, 3
   7              		.eabi_attribute 24, 1
   8              		.eabi_attribute 25, 1
   9              		.eabi_attribute 26, 1
  10              		.eabi_attribute 30, 1
  11              		.eabi_attribute 34, 0
  12              		.eabi_attribute 18, 4
  13              		.thumb
  14              		.syntax unified
  15              		.file	"tns.c"
  16              		.text
  17              	.Ltext0:
  18              		.cfi_sections	.debug_frame
  19              		.section	.text.resolve_lpc_weighting,"ax",%progbits
  20              		.align	2
  21              		.code	16
  22              		.thumb_func
  23              		.type	resolve_lpc_weighting, %function
  24              	resolve_lpc_weighting:
  25              	.LFB20:
  26              		.file 1 "..\\..\\..\\liblc3\\src\\tns.c"
   1:..\..\..\liblc3\src/tns.c **** /******************************************************************************
   2:..\..\..\liblc3\src/tns.c ****  *
   3:..\..\..\liblc3\src/tns.c ****  *  Copyright 2022 Google LLC
   4:..\..\..\liblc3\src/tns.c ****  *
   5:..\..\..\liblc3\src/tns.c ****  *  Licensed under the Apache License, Version 2.0 (the "License");
   6:..\..\..\liblc3\src/tns.c ****  *  you may not use this file except in compliance with the License.
   7:..\..\..\liblc3\src/tns.c ****  *  You may obtain a copy of the License at:
   8:..\..\..\liblc3\src/tns.c ****  *
   9:..\..\..\liblc3\src/tns.c ****  *  http://www.apache.org/licenses/LICENSE-2.0
  10:..\..\..\liblc3\src/tns.c ****  *
  11:..\..\..\liblc3\src/tns.c ****  *  Unless required by applicable law or agreed to in writing, software
  12:..\..\..\liblc3\src/tns.c ****  *  distributed under the License is distributed on an "AS IS" BASIS,
  13:..\..\..\liblc3\src/tns.c ****  *  WITHOUT WARRANTIES OR CONDITIONS OF ANY KIND, either express or implied.
  14:..\..\..\liblc3\src/tns.c ****  *  See the License for the specific language governing permissions and
  15:..\..\..\liblc3\src/tns.c ****  *  limitations under the License.
  16:..\..\..\liblc3\src/tns.c ****  *
  17:..\..\..\liblc3\src/tns.c ****  ******************************************************************************/
  18:..\..\..\liblc3\src/tns.c **** 
  19:..\..\..\liblc3\src/tns.c **** #include "tns.h"
  20:..\..\..\liblc3\src/tns.c **** #include "tables.h"
  21:..\..\..\liblc3\src/tns.c **** 
  22:..\..\..\liblc3\src/tns.c **** 
  23:..\..\..\liblc3\src/tns.c **** /* ----------------------------------------------------------------------------
  24:..\..\..\liblc3\src/tns.c ****  *  Filter Coefficients
  25:..\..\..\liblc3\src/tns.c ****  * -------------------------------------------------------------------------- */
  26:..\..\..\liblc3\src/tns.c **** 
  27:..\..\..\liblc3\src/tns.c **** /**
  28:..\..\..\liblc3\src/tns.c ****  * Resolve LPC Weighting indication according bitrate
  29:..\..\..\liblc3\src/tns.c ****  * dt, nbytes      Duration and size of the frame
  30:..\..\..\liblc3\src/tns.c ****  * return          True when LPC Weighting enabled
  31:..\..\..\liblc3\src/tns.c ****  */
ARM GAS  C:\Users\rdn\AppData\Local\Temp\ccet7BYP.s 			page 2


  32:..\..\..\liblc3\src/tns.c **** static bool resolve_lpc_weighting(enum lc3_dt dt, int nbytes)
  33:..\..\..\liblc3\src/tns.c **** {
  27              		.loc 1 33 0
  28              		.cfi_startproc
  29              		@ args = 0, pretend = 0, frame = 0
  30              		@ frame_needed = 0, uses_anonymous_args = 0
  31              		@ link register save eliminated.
  32              	.LVL0:
  34:..\..\..\liblc3\src/tns.c ****     return nbytes * 8 < 120 * (int)(1 + dt);
  33              		.loc 1 34 0
  34 0000 C900     		lsls	r1, r1, #3
  35              	.LVL1:
  36 0002 0130     		adds	r0, r0, #1
  37              	.LVL2:
  38 0004 0301     		lsls	r3, r0, #4
  39 0006 181A     		subs	r0, r3, r0
  40 0008 C300     		lsls	r3, r0, #3
  41 000a 0120     		movs	r0, #1
  42 000c 9942     		cmp	r1, r3
  43 000e 00DB     		blt	.L2
  44 0010 0020     		movs	r0, #0
  45              	.L2:
  46 0012 C0B2     		uxtb	r0, r0
  35:..\..\..\liblc3\src/tns.c **** }
  47              		.loc 1 35 0
  48              		@ sp needed
  49 0014 7047     		bx	lr
  50              		.cfi_endproc
  51              	.LFE20:
  52              		.size	resolve_lpc_weighting, .-resolve_lpc_weighting
  53              		.global	__aeabi_fmul
  54              		.global	__aeabi_fadd
  55              		.global	__aeabi_i2f
  56              		.global	__aeabi_fcmpeq
  57              		.global	__aeabi_fdiv
  58              		.global	__aeabi_fsub
  59 0016 C046     		.section	.text.compute_lpc_coeffs,"ax",%progbits
  60              		.align	2
  61              		.code	16
  62              		.thumb_func
  63              		.type	compute_lpc_coeffs, %function
  64              	compute_lpc_coeffs:
  65              	.LFB22:
  36:..\..\..\liblc3\src/tns.c **** 
  37:..\..\..\liblc3\src/tns.c **** /**
  38:..\..\..\liblc3\src/tns.c ****  * Return dot product of 2 vectors
  39:..\..\..\liblc3\src/tns.c ****  * a, b, n         The 2 vectors of size `n`
  40:..\..\..\liblc3\src/tns.c ****  * return          sum( a[i] * b[i] ), i = [0..n-1]
  41:..\..\..\liblc3\src/tns.c ****  */
  42:..\..\..\liblc3\src/tns.c **** LC3_HOT static inline float dot(const float *a, const float *b, int n)
  43:..\..\..\liblc3\src/tns.c **** {
  44:..\..\..\liblc3\src/tns.c ****     float v = 0;
  45:..\..\..\liblc3\src/tns.c **** 
  46:..\..\..\liblc3\src/tns.c ****     while (n--)
  47:..\..\..\liblc3\src/tns.c ****         v += *(a++) * *(b++);
  48:..\..\..\liblc3\src/tns.c **** 
  49:..\..\..\liblc3\src/tns.c ****     return v;
ARM GAS  C:\Users\rdn\AppData\Local\Temp\ccet7BYP.s 			page 3


  50:..\..\..\liblc3\src/tns.c **** }
  51:..\..\..\liblc3\src/tns.c **** 
  52:..\..\..\liblc3\src/tns.c **** /**
  53:..\..\..\liblc3\src/tns.c ****  * LPC Coefficients
  54:..\..\..\liblc3\src/tns.c ****  * dt, bw          Duration and bandwidth of the frame
  55:..\..\..\liblc3\src/tns.c ****  * maxorder        Maximum order of filter
  56:..\..\..\liblc3\src/tns.c ****  * x               Spectral coefficients
  57:..\..\..\liblc3\src/tns.c ****  * gain, a         Output the prediction gains and LPC coefficients
  58:..\..\..\liblc3\src/tns.c ****  */
  59:..\..\..\liblc3\src/tns.c **** LC3_HOT static void compute_lpc_coeffs(
  60:..\..\..\liblc3\src/tns.c ****     enum lc3_dt dt, enum lc3_bandwidth bw, int maxorder,
  61:..\..\..\liblc3\src/tns.c ****     const float *x, float *gain, float (*a)[9])
  62:..\..\..\liblc3\src/tns.c **** {
  66              		.loc 1 62 0
  67              		.cfi_startproc
  68              		@ args = 8, pretend = 0, frame = 336
  69              		@ frame_needed = 0, uses_anonymous_args = 0
  70              	.LVL3:
  71 0000 F0B5     		push	{r4, r5, r6, r7, lr}
  72              		.cfi_def_cfa_offset 20
  73              		.cfi_offset 4, -20
  74              		.cfi_offset 5, -16
  75              		.cfi_offset 6, -12
  76              		.cfi_offset 7, -8
  77              		.cfi_offset 14, -4
  78 0002 5F46     		mov	r7, fp
  79 0004 5646     		mov	r6, r10
  80 0006 4D46     		mov	r5, r9
  81 0008 4446     		mov	r4, r8
  82 000a F0B4     		push	{r4, r5, r6, r7}
  83              		.cfi_def_cfa_offset 36
  84              		.cfi_offset 8, -36
  85              		.cfi_offset 9, -32
  86              		.cfi_offset 10, -28
  87              		.cfi_offset 11, -24
  88 000c D5B0     		sub	sp, sp, #340
  89              		.cfi_def_cfa_offset 376
  90 000e 0500     		movs	r5, r0
  91 0010 0E00     		movs	r6, r1
  92 0012 0692     		str	r2, [sp, #24]
  93 0014 0493     		str	r3, [sp, #16]
  63:..\..\..\liblc3\src/tns.c **** 
  64:..\..\..\liblc3\src/tns.c **** #if LC3_PLUS
  65:..\..\..\liblc3\src/tns.c **** 
  66:..\..\..\liblc3\src/tns.c ****     static const int sub_2m5_nb[]   = {  3,  10,  20 };
  67:..\..\..\liblc3\src/tns.c ****     static const int sub_2m5_wb[]   = {  3,  20,  40 };
  68:..\..\..\liblc3\src/tns.c ****     static const int sub_2m5_sswb[] = {  3,  30,  60 };
  69:..\..\..\liblc3\src/tns.c ****     static const int sub_2m5_swb[]  = {  3,  40,  80 };
  70:..\..\..\liblc3\src/tns.c ****     static const int sub_2m5_fb[]   = {  3,  51, 100 };
  71:..\..\..\liblc3\src/tns.c **** 
  72:..\..\..\liblc3\src/tns.c ****     static const int sub_5m_nb[]    = {  6,  23,  40 };
  73:..\..\..\liblc3\src/tns.c ****     static const int sub_5m_wb[]    = {  6,  43,  80 };
  74:..\..\..\liblc3\src/tns.c ****     static const int sub_5m_sswb[]  = {  6,  63, 120 };
  75:..\..\..\liblc3\src/tns.c ****     static const int sub_5m_swb[]   = {  6,  43,  80, 120, 160 };
  76:..\..\..\liblc3\src/tns.c ****     static const int sub_5m_fb[]    = {  6,  53, 100, 150, 200 };
  77:..\..\..\liblc3\src/tns.c **** 
  78:..\..\..\liblc3\src/tns.c **** #endif /* LC3_PLUS */
ARM GAS  C:\Users\rdn\AppData\Local\Temp\ccet7BYP.s 			page 4


  79:..\..\..\liblc3\src/tns.c **** 
  80:..\..\..\liblc3\src/tns.c ****     static const int sub_7m5_nb[]   = {  9,  26,  43,  60 };
  81:..\..\..\liblc3\src/tns.c ****     static const int sub_7m5_wb[]   = {  9,  46,  83, 120 };
  82:..\..\..\liblc3\src/tns.c ****     static const int sub_7m5_sswb[] = {  9,  66, 123, 180 };
  83:..\..\..\liblc3\src/tns.c ****     static const int sub_7m5_swb[]  = {  9,  46,  82, 120, 159, 200, 240 };
  84:..\..\..\liblc3\src/tns.c ****     static const int sub_7m5_fb[]   = {  9,  56, 103, 150, 200, 250, 300 };
  85:..\..\..\liblc3\src/tns.c **** 
  86:..\..\..\liblc3\src/tns.c ****     static const int sub_10m_nb[]   = { 12,  34,  57,  80 };
  87:..\..\..\liblc3\src/tns.c ****     static const int sub_10m_wb[]   = { 12,  61, 110, 160 };
  88:..\..\..\liblc3\src/tns.c ****     static const int sub_10m_sswb[] = { 12,  88, 164, 240 };
  89:..\..\..\liblc3\src/tns.c ****     static const int sub_10m_swb[]  = { 12,  61, 110, 160, 213, 266, 320 };
  90:..\..\..\liblc3\src/tns.c ****     static const int sub_10m_fb[]   = { 12,  74, 137, 200, 266, 333, 400 };
  91:..\..\..\liblc3\src/tns.c **** 
  92:..\..\..\liblc3\src/tns.c ****     static const float lag_window[] = {
  93:..\..\..\liblc3\src/tns.c ****         1.00000000e+00, 9.98028026e-01, 9.92135406e-01, 9.82391584e-01,
  94:..\..\..\liblc3\src/tns.c ****         9.68910791e-01, 9.51849807e-01, 9.31404933e-01, 9.07808230e-01,
  95:..\..\..\liblc3\src/tns.c ****         8.81323137e-01
  96:..\..\..\liblc3\src/tns.c ****     };
  97:..\..\..\liblc3\src/tns.c **** 
  98:..\..\..\liblc3\src/tns.c ****     const int *sub = (const int * const [LC3_NUM_DT][LC3_NUM_BANDWIDTH]){
  94              		.loc 1 98 0
  95 0016 38AC     		add	r4, sp, #224
  96 0018 7022     		movs	r2, #112
  97              	.LVL4:
  98 001a 0021     		movs	r1, #0
  99              	.LVL5:
 100 001c 2000     		movs	r0, r4
 101              	.LVL6:
 102 001e FFF7FEFF 		bl	memset
 103              	.LVL7:
 104 0022 E34B     		ldr	r3, .L57
 105 0024 3893     		str	r3, [sp, #224]
 106 0026 1A00     		movs	r2, r3
 107 0028 0C32     		adds	r2, r2, #12
 108 002a 6260     		str	r2, [r4, #4]
 109 002c 1A00     		movs	r2, r3
 110 002e 1832     		adds	r2, r2, #24
 111 0030 A260     		str	r2, [r4, #8]
 112 0032 1A00     		movs	r2, r3
 113 0034 2432     		adds	r2, r2, #36
 114 0036 E260     		str	r2, [r4, #12]
 115 0038 1A00     		movs	r2, r3
 116 003a 3032     		adds	r2, r2, #48
 117 003c 2261     		str	r2, [r4, #16]
 118 003e 6261     		str	r2, [r4, #20]
 119 0040 A261     		str	r2, [r4, #24]
 120 0042 1A00     		movs	r2, r3
 121 0044 3C32     		adds	r2, r2, #60
 122 0046 E261     		str	r2, [r4, #28]
 123 0048 1A00     		movs	r2, r3
 124 004a 4832     		adds	r2, r2, #72
 125 004c 2262     		str	r2, [r4, #32]
 126 004e 1A00     		movs	r2, r3
 127 0050 5432     		adds	r2, r2, #84
 128 0052 6262     		str	r2, [r4, #36]
 129 0054 1A00     		movs	r2, r3
 130 0056 6032     		adds	r2, r2, #96
ARM GAS  C:\Users\rdn\AppData\Local\Temp\ccet7BYP.s 			page 5


 131 0058 A262     		str	r2, [r4, #40]
 132 005a 7433     		adds	r3, r3, #116
 133 005c E362     		str	r3, [r4, #44]
 134 005e 2363     		str	r3, [r4, #48]
 135 0060 6363     		str	r3, [r4, #52]
 136 0062 D44B     		ldr	r3, .L57+4
 137 0064 1A00     		movs	r2, r3
 138 0066 0832     		adds	r2, r2, #8
 139 0068 A263     		str	r2, [r4, #56]
 140 006a 1A00     		movs	r2, r3
 141 006c 1832     		adds	r2, r2, #24
 142 006e E263     		str	r2, [r4, #60]
 143 0070 1A00     		movs	r2, r3
 144 0072 2832     		adds	r2, r2, #40
 145 0074 2264     		str	r2, [r4, #64]
 146 0076 1A00     		movs	r2, r3
 147 0078 3832     		adds	r2, r2, #56
 148 007a 6264     		str	r2, [r4, #68]
 149 007c 1A00     		movs	r2, r3
 150 007e 5432     		adds	r2, r2, #84
 151 0080 A264     		str	r2, [r4, #72]
 152 0082 7033     		adds	r3, r3, #112
 153 0084 6365     		str	r3, [r4, #84]
 154 0086 CC4B     		ldr	r3, .L57+8
 155 0088 A365     		str	r3, [r4, #88]
 156 008a 1A00     		movs	r2, r3
 157 008c 1032     		adds	r2, r2, #16
 158 008e E265     		str	r2, [r4, #92]
 159 0090 1A00     		movs	r2, r3
 160 0092 2032     		adds	r2, r2, #32
 161 0094 2266     		str	r2, [r4, #96]
 162 0096 3C33     		adds	r3, r3, #60
 163 0098 6366     		str	r3, [r4, #100]
 164 009a A366     		str	r3, [r4, #104]
 165 009c E366     		str	r3, [r4, #108]
 166 009e EB00     		lsls	r3, r5, #3
 167 00a0 5B1B     		subs	r3, r3, r5
 168 00a2 9B19     		adds	r3, r3, r6
 169 00a4 9B00     		lsls	r3, r3, #2
 170 00a6 1B59     		ldr	r3, [r3, r4]
 171 00a8 0293     		str	r3, [sp, #8]
 172              	.LVL8:
  99:..\..\..\liblc3\src/tns.c **** 
 100:..\..\..\liblc3\src/tns.c **** #if LC3_PLUS
 101:..\..\..\liblc3\src/tns.c **** 
 102:..\..\..\liblc3\src/tns.c ****         [LC3_DT_2M5] = {
 103:..\..\..\liblc3\src/tns.c ****           sub_2m5_nb, sub_2m5_wb, sub_2m5_sswb, sub_2m5_swb,
 104:..\..\..\liblc3\src/tns.c ****           sub_2m5_fb, sub_2m5_fb, sub_2m5_fb                },
 105:..\..\..\liblc3\src/tns.c **** 
 106:..\..\..\liblc3\src/tns.c ****         [LC3_DT_5M] = {
 107:..\..\..\liblc3\src/tns.c ****             sub_5m_nb , sub_5m_wb , sub_5m_sswb , sub_5m_swb ,
 108:..\..\..\liblc3\src/tns.c ****             sub_5m_fb , sub_5m_fb , sub_5m_fb                 },
 109:..\..\..\liblc3\src/tns.c **** 
 110:..\..\..\liblc3\src/tns.c **** #endif /* LC3_PLUS */
 111:..\..\..\liblc3\src/tns.c **** 
 112:..\..\..\liblc3\src/tns.c ****         [LC3_DT_7M5] = {
 113:..\..\..\liblc3\src/tns.c ****             sub_7m5_nb, sub_7m5_wb, sub_7m5_sswb, sub_7m5_swb,
ARM GAS  C:\Users\rdn\AppData\Local\Temp\ccet7BYP.s 			page 6


 114:..\..\..\liblc3\src/tns.c ****             sub_7m5_fb                                        },
 115:..\..\..\liblc3\src/tns.c **** 
 116:..\..\..\liblc3\src/tns.c ****         [LC3_DT_10M] = {
 117:..\..\..\liblc3\src/tns.c ****             sub_10m_nb, sub_10m_wb, sub_10m_sswb, sub_10m_swb,
 118:..\..\..\liblc3\src/tns.c ****             sub_10m_fb, sub_10m_fb, sub_10m_fb                },
 119:..\..\..\liblc3\src/tns.c **** 
 120:..\..\..\liblc3\src/tns.c ****     }[dt][bw];
 121:..\..\..\liblc3\src/tns.c **** 
 122:..\..\..\liblc3\src/tns.c ****     /* --- Normalized autocorrelation --- */
 123:..\..\..\liblc3\src/tns.c **** 
 124:..\..\..\liblc3\src/tns.c ****     int nfilters = 1 + (dt >= LC3_DT_5M && bw >= LC3_BANDWIDTH_SWB);
 173              		.loc 1 124 0
 174 00aa 002D     		cmp	r5, #0
 175 00ac 03D0     		beq	.L39
 176              		.loc 1 124 0 is_stmt 0 discriminator 1
 177 00ae 022E     		cmp	r6, #2
 178 00b0 03D8     		bhi	.L40
 179              		.loc 1 124 0
 180 00b2 0023     		movs	r3, #0
 181              	.LVL9:
 182 00b4 02E0     		b	.L4
 183              	.LVL10:
 184              	.L39:
 185 00b6 0023     		movs	r3, #0
 186              	.LVL11:
 187 00b8 00E0     		b	.L4
 188              	.LVL12:
 189              	.L40:
 190 00ba 0123     		movs	r3, #1
 191              	.LVL13:
 192              	.L4:
 193              		.loc 1 124 0 discriminator 6
 194 00bc 0133     		adds	r3, r3, #1
 195 00be 0793     		str	r3, [sp, #28]
 196              	.LVL14:
 125:..\..\..\liblc3\src/tns.c ****     int nsubdivisions = 2 + (dt >= LC3_DT_7M5);
 197              		.loc 1 125 0 is_stmt 1 discriminator 6
 198 00c0 012D     		cmp	r5, #1
 199 00c2 02D9     		bls	.L41
 200              		.loc 1 125 0 is_stmt 0
 201 00c4 0323     		movs	r3, #3
 202              	.LVL15:
 203 00c6 0393     		str	r3, [sp, #12]
 204 00c8 01E0     		b	.L5
 205              	.LVL16:
 206              	.L41:
 207 00ca 0223     		movs	r3, #2
 208              	.LVL17:
 209 00cc 0393     		str	r3, [sp, #12]
 210              	.L5:
 211              	.LVL18:
 126:..\..\..\liblc3\src/tns.c **** 
 127:..\..\..\liblc3\src/tns.c ****     const float *xs, *xe = x + *sub;
 212              		.loc 1 127 0 is_stmt 1 discriminator 4
 213 00ce 029B     		ldr	r3, [sp, #8]
 214 00d0 1B68     		ldr	r3, [r3]
 215 00d2 0193     		str	r3, [sp, #4]
ARM GAS  C:\Users\rdn\AppData\Local\Temp\ccet7BYP.s 			page 7


 216 00d4 9B00     		lsls	r3, r3, #2
 217 00d6 049A     		ldr	r2, [sp, #16]
 218 00d8 9046     		mov	r8, r2
 219 00da 9844     		add	r8, r8, r3
 220              	.LVL19:
 221              	.LBB40:
 128:..\..\..\liblc3\src/tns.c ****     float r[2][9];
 129:..\..\..\liblc3\src/tns.c **** 
 130:..\..\..\liblc3\src/tns.c ****     for (int f = 0; f < nfilters; f++) {
 222              		.loc 1 130 0 discriminator 4
 223 00dc 0023     		movs	r3, #0
 224 00de 0593     		str	r3, [sp, #20]
 225 00e0 069B     		ldr	r3, [sp, #24]
 226 00e2 9A46     		mov	r10, r3
 227 00e4 E7E0     		b	.L6
 228              	.LVL20:
 229              	.L26:
 230              	.LBB41:
 131:..\..\..\liblc3\src/tns.c ****         float c[9][3] = { 0 };
 231              		.loc 1 131 0
 232 00e6 6C22     		movs	r2, #108
 233 00e8 0021     		movs	r1, #0
 234 00ea 0BA8     		add	r0, sp, #44
 235 00ec FFF7FEFF 		bl	memset
 236              	.LVL21:
 237              	.LBB42:
 132:..\..\..\liblc3\src/tns.c **** 
 133:..\..\..\liblc3\src/tns.c ****         for (int s = 0; s < nsubdivisions; s++) {
 238              		.loc 1 133 0
 239 00f0 0023     		movs	r3, #0
 240 00f2 9B46     		mov	fp, r3
 241 00f4 39E0     		b	.L7
 242              	.LVL22:
 243              	.L12:
 134:..\..\..\liblc3\src/tns.c ****             xs = xe, xe = x + *(++sub);
 244              		.loc 1 134 0
 245 00f6 029B     		ldr	r3, [sp, #8]
 246 00f8 0433     		adds	r3, r3, #4
 247 00fa 0293     		str	r3, [sp, #8]
 248              	.LVL23:
 249 00fc 1B68     		ldr	r3, [r3]
 250              	.LVL24:
 251 00fe 9B00     		lsls	r3, r3, #2
 252 0100 049A     		ldr	r2, [sp, #16]
 253 0102 9446     		mov	ip, r2
 254 0104 6344     		add	r3, r3, ip
 255 0106 0193     		str	r3, [sp, #4]
 256              	.LVL25:
 257              	.LBB43:
 135:..\..\..\liblc3\src/tns.c **** 
 136:..\..\..\liblc3\src/tns.c ****             for (int k = 0; k <= maxorder; k++)
 258              		.loc 1 136 0
 259 0108 0023     		movs	r3, #0
 260              	.LVL26:
 261 010a 9946     		mov	r9, r3
 262 010c 26E0     		b	.L8
 263              	.LVL27:
ARM GAS  C:\Users\rdn\AppData\Local\Temp\ccet7BYP.s 			page 8


 264              	.L11:
 137:..\..\..\liblc3\src/tns.c ****                 c[k][s] = dot(xs, xs + k, (xe - xs) - k);
 265              		.loc 1 137 0 discriminator 3
 266 010e 4B46     		mov	r3, r9
 267 0110 9A00     		lsls	r2, r3, #2
 268 0112 4244     		add	r2, r2, r8
 269 0114 019B     		ldr	r3, [sp, #4]
 270 0116 4146     		mov	r1, r8
 271 0118 5B1A     		subs	r3, r3, r1
 272 011a 9B10     		asrs	r3, r3, #2
 273 011c 4946     		mov	r1, r9
 274 011e 5B1A     		subs	r3, r3, r1
 275              	.LVL28:
 276 0120 4146     		mov	r1, r8
 277              	.LBB44:
 278              	.LBB45:
  44:..\..\..\liblc3\src/tns.c **** 
 279              		.loc 1 44 0 discriminator 3
 280 0122 0024     		movs	r4, #0
 281 0124 0DE0     		b	.L9
 282              	.LVL29:
 283              	.L10:
  47:..\..\..\liblc3\src/tns.c **** 
 284              		.loc 1 47 0
 285 0126 0E1D     		adds	r6, r1, #4
 286              	.LVL30:
 287 0128 0868     		ldr	r0, [r1]
 288 012a 171D     		adds	r7, r2, #4
 289              	.LVL31:
 290 012c 1168     		ldr	r1, [r2]
 291 012e FFF7FEFF 		bl	__aeabi_fmul
 292              	.LVL32:
 293 0132 011C     		adds	r1, r0, #0
 294 0134 201C     		adds	r0, r4, #0
 295 0136 FFF7FEFF 		bl	__aeabi_fadd
 296              	.LVL33:
 297 013a 041C     		adds	r4, r0, #0
 298              	.LVL34:
  46:..\..\..\liblc3\src/tns.c ****         v += *(a++) * *(b++);
 299              		.loc 1 46 0
 300 013c 2B00     		movs	r3, r5
  47:..\..\..\liblc3\src/tns.c **** 
 301              		.loc 1 47 0
 302 013e 3A00     		movs	r2, r7
 303 0140 3100     		movs	r1, r6
 304              	.LVL35:
 305              	.L9:
  46:..\..\..\liblc3\src/tns.c ****         v += *(a++) * *(b++);
 306              		.loc 1 46 0
 307 0142 5D1E     		subs	r5, r3, #1
 308              	.LVL36:
 309 0144 002B     		cmp	r3, #0
 310 0146 EED1     		bne	.L10
 311              	.LVL37:
 312              	.LBE45:
 313              	.LBE44:
 314              		.loc 1 137 0
ARM GAS  C:\Users\rdn\AppData\Local\Temp\ccet7BYP.s 			page 9


 315 0148 4B46     		mov	r3, r9
 316 014a 5B00     		lsls	r3, r3, #1
 317 014c 4B44     		add	r3, r3, r9
 318 014e 5B44     		add	r3, r3, fp
 319 0150 9B00     		lsls	r3, r3, #2
 320 0152 0BAA     		add	r2, sp, #44
 321 0154 9C50     		str	r4, [r3, r2]
 136:..\..\..\liblc3\src/tns.c ****                 c[k][s] = dot(xs, xs + k, (xe - xs) - k);
 322              		.loc 1 136 0
 323 0156 0123     		movs	r3, #1
 324 0158 9C46     		mov	ip, r3
 325 015a E144     		add	r9, r9, ip
 326              	.LVL38:
 327              	.L8:
 136:..\..\..\liblc3\src/tns.c ****                 c[k][s] = dot(xs, xs + k, (xe - xs) - k);
 328              		.loc 1 136 0 is_stmt 0 discriminator 1
 329 015c D145     		cmp	r9, r10
 330 015e D6DD     		ble	.L11
 331              	.LBE43:
 133:..\..\..\liblc3\src/tns.c ****             xs = xe, xe = x + *(++sub);
 332              		.loc 1 133 0 is_stmt 1 discriminator 2
 333 0160 0123     		movs	r3, #1
 334 0162 9C46     		mov	ip, r3
 335 0164 E344     		add	fp, fp, ip
 336              	.LVL39:
 134:..\..\..\liblc3\src/tns.c **** 
 337              		.loc 1 134 0 discriminator 2
 338 0166 019B     		ldr	r3, [sp, #4]
 339 0168 9846     		mov	r8, r3
 340              	.LVL40:
 341              	.L7:
 133:..\..\..\liblc3\src/tns.c ****             xs = xe, xe = x + *(++sub);
 342              		.loc 1 133 0 discriminator 1
 343 016a 039B     		ldr	r3, [sp, #12]
 344 016c 9B45     		cmp	fp, r3
 345 016e C2DB     		blt	.L12
 346              	.LBE42:
 138:..\..\..\liblc3\src/tns.c ****         }
 139:..\..\..\liblc3\src/tns.c **** 
 140:..\..\..\liblc3\src/tns.c ****         r[f][0] = nsubdivisions;
 347              		.loc 1 140 0
 348 0170 059A     		ldr	r2, [sp, #20]
 349 0172 D300     		lsls	r3, r2, #3
 350 0174 9446     		mov	ip, r2
 351 0176 6344     		add	r3, r3, ip
 352 0178 9C00     		lsls	r4, r3, #2
 353 017a 039D     		ldr	r5, [sp, #12]
 354 017c 2800     		movs	r0, r5
 355 017e FFF7FEFF 		bl	__aeabi_i2f
 356              	.LVL41:
 357 0182 26AB     		add	r3, sp, #152
 358 0184 E050     		str	r0, [r4, r3]
 141:..\..\..\liblc3\src/tns.c ****         if (nsubdivisions == 2) {
 359              		.loc 1 141 0
 360 0186 022D     		cmp	r5, #2
 361 0188 3ED1     		bne	.L13
 362              	.LBB46:
ARM GAS  C:\Users\rdn\AppData\Local\Temp\ccet7BYP.s 			page 10


 142:..\..\..\liblc3\src/tns.c ****             float e0 = c[0][0], e1 = c[0][1];
 363              		.loc 1 142 0
 364 018a 0B9D     		ldr	r5, [sp, #44]
 365              	.LVL42:
 366 018c 0C9B     		ldr	r3, [sp, #48]
 367 018e 0193     		str	r3, [sp, #4]
 368              	.LVL43:
 369              	.LBB47:
 143:..\..\..\liblc3\src/tns.c ****             for (int k = 1; k <= maxorder; k++)
 370              		.loc 1 143 0
 371 0190 0126     		movs	r6, #1
 372 0192 5446     		mov	r4, r10
 373 0194 34E0     		b	.L14
 374              	.LVL44:
 375              	.L18:
 144:..\..\..\liblc3\src/tns.c ****                 r[f][k] = e0 == 0 || e1 == 0 ? 0 :
 376              		.loc 1 144 0
 377 0196 0021     		movs	r1, #0
 378 0198 281C     		adds	r0, r5, #0
 379 019a FFF7FEFF 		bl	__aeabi_fcmpeq
 380              	.LVL45:
 381 019e 0028     		cmp	r0, #0
 382 01a0 22D1     		bne	.L52
 383              		.loc 1 144 0 is_stmt 0 discriminator 1
 384 01a2 0021     		movs	r1, #0
 385 01a4 0198     		ldr	r0, [sp, #4]
 386 01a6 FFF7FEFF 		bl	__aeabi_fcmpeq
 387              	.LVL46:
 388 01aa 0028     		cmp	r0, #0
 389 01ac 1ED1     		bne	.L53
 145:..\..\..\liblc3\src/tns.c ****                   (c[k][0]/e0 + c[k][1]/e1) * lag_window[k];
 390              		.loc 1 145 0 is_stmt 1 discriminator 3
 391 01ae 0BAF     		add	r7, sp, #44
 392 01b0 7300     		lsls	r3, r6, #1
 393 01b2 9946     		mov	r9, r3
 394 01b4 9A19     		adds	r2, r3, r6
 395 01b6 9300     		lsls	r3, r2, #2
 396 01b8 D859     		ldr	r0, [r3, r7]
 397 01ba 291C     		adds	r1, r5, #0
 398 01bc FFF7FEFF 		bl	__aeabi_fdiv
 399              	.LVL47:
 400 01c0 0890     		str	r0, [sp, #32]
 401 01c2 4B46     		mov	r3, r9
 402 01c4 9B19     		adds	r3, r3, r6
 403 01c6 9A00     		lsls	r2, r3, #2
 404 01c8 BA18     		adds	r2, r7, r2
 405 01ca 5068     		ldr	r0, [r2, #4]
 406 01cc 0199     		ldr	r1, [sp, #4]
 407 01ce FFF7FEFF 		bl	__aeabi_fdiv
 408              	.LVL48:
 409 01d2 011C     		adds	r1, r0, #0
 410 01d4 0898     		ldr	r0, [sp, #32]
 411 01d6 FFF7FEFF 		bl	__aeabi_fadd
 412              	.LVL49:
 413 01da B300     		lsls	r3, r6, #2
 414 01dc 764A     		ldr	r2, .L57+8
 415 01de D318     		adds	r3, r2, r3
ARM GAS  C:\Users\rdn\AppData\Local\Temp\ccet7BYP.s 			page 11


 416 01e0 996D     		ldr	r1, [r3, #88]
 144:..\..\..\liblc3\src/tns.c ****                 r[f][k] = e0 == 0 || e1 == 0 ? 0 :
 417              		.loc 1 144 0 discriminator 3
 418 01e2 FFF7FEFF 		bl	__aeabi_fmul
 419              	.LVL50:
 420 01e6 02E0     		b	.L15
 421              	.L52:
 144:..\..\..\liblc3\src/tns.c ****                 r[f][k] = e0 == 0 || e1 == 0 ? 0 :
 422              		.loc 1 144 0 is_stmt 0
 423 01e8 0020     		movs	r0, #0
 424 01ea 00E0     		b	.L15
 425              	.L53:
 426 01ec 0020     		movs	r0, #0
 427              	.L15:
 144:..\..\..\liblc3\src/tns.c ****                 r[f][k] = e0 == 0 || e1 == 0 ? 0 :
 428              		.loc 1 144 0 discriminator 6
 429 01ee 059A     		ldr	r2, [sp, #20]
 430 01f0 D300     		lsls	r3, r2, #3
 431 01f2 9446     		mov	ip, r2
 432 01f4 6344     		add	r3, r3, ip
 433 01f6 9B19     		adds	r3, r3, r6
 434 01f8 9B00     		lsls	r3, r3, #2
 435 01fa 26AA     		add	r2, sp, #152
 436 01fc 9850     		str	r0, [r3, r2]
 143:..\..\..\liblc3\src/tns.c ****             for (int k = 1; k <= maxorder; k++)
 437              		.loc 1 143 0 is_stmt 1 discriminator 6
 438 01fe 0136     		adds	r6, r6, #1
 439              	.LVL51:
 440              	.L14:
 143:..\..\..\liblc3\src/tns.c ****             for (int k = 1; k <= maxorder; k++)
 441              		.loc 1 143 0 is_stmt 0 discriminator 2
 442 0200 A642     		cmp	r6, r4
 443 0202 C8DD     		ble	.L18
 444 0204 A246     		mov	r10, r4
 445 0206 53E0     		b	.L19
 446              	.LVL52:
 447              	.L13:
 448              	.LBE47:
 449              	.LBE46:
 450              	.LBB48:
 146:..\..\..\liblc3\src/tns.c **** 
 147:..\..\..\liblc3\src/tns.c ****         } else {
 148:..\..\..\liblc3\src/tns.c ****             float e0 = c[0][0], e1 = c[0][1], e2 = c[0][2];
 451              		.loc 1 148 0 is_stmt 1
 452 0208 0B9C     		ldr	r4, [sp, #44]
 453              	.LVL53:
 454 020a 0C9B     		ldr	r3, [sp, #48]
 455 020c 0193     		str	r3, [sp, #4]
 456              	.LVL54:
 457 020e 0D9B     		ldr	r3, [sp, #52]
 458              	.LVL55:
 459 0210 0893     		str	r3, [sp, #32]
 460              	.LVL56:
 461              	.LBB49:
 149:..\..\..\liblc3\src/tns.c ****             for (int k = 1; k <= maxorder; k++)
 462              		.loc 1 149 0
 463 0212 0125     		movs	r5, #1
ARM GAS  C:\Users\rdn\AppData\Local\Temp\ccet7BYP.s 			page 12


 464 0214 059E     		ldr	r6, [sp, #20]
 465 0216 5746     		mov	r7, r10
 466 0218 47E0     		b	.L20
 467              	.LVL57:
 468              	.L25:
 150:..\..\..\liblc3\src/tns.c ****                 r[f][k] = e0 == 0 || e1 == 0 || e2 == 0 ? 0 :
 469              		.loc 1 150 0
 470 021a 0021     		movs	r1, #0
 471 021c 201C     		adds	r0, r4, #0
 472 021e FFF7FEFF 		bl	__aeabi_fcmpeq
 473              	.LVL58:
 474 0222 0028     		cmp	r0, #0
 475 0224 35D1     		bne	.L54
 476              		.loc 1 150 0 is_stmt 0 discriminator 1
 477 0226 0021     		movs	r1, #0
 478 0228 0198     		ldr	r0, [sp, #4]
 479 022a FFF7FEFF 		bl	__aeabi_fcmpeq
 480              	.LVL59:
 481 022e 0028     		cmp	r0, #0
 482 0230 31D1     		bne	.L55
 483              		.loc 1 150 0 discriminator 3
 484 0232 0021     		movs	r1, #0
 485 0234 0898     		ldr	r0, [sp, #32]
 486 0236 FFF7FEFF 		bl	__aeabi_fcmpeq
 487              	.LVL60:
 488 023a 0028     		cmp	r0, #0
 489 023c 2DD1     		bne	.L56
 151:..\..\..\liblc3\src/tns.c ****                   (c[k][0]/e0 + c[k][1]/e1 + c[k][2]/e2) * lag_window[k];
 490              		.loc 1 151 0 is_stmt 1 discriminator 5
 491 023e 0BAB     		add	r3, sp, #44
 492 0240 9946     		mov	r9, r3
 493 0242 6B00     		lsls	r3, r5, #1
 494 0244 9B46     		mov	fp, r3
 495 0246 5A19     		adds	r2, r3, r5
 496 0248 9300     		lsls	r3, r2, #2
 497 024a 4A46     		mov	r2, r9
 498 024c 9858     		ldr	r0, [r3, r2]
 499 024e 211C     		adds	r1, r4, #0
 500 0250 FFF7FEFF 		bl	__aeabi_fdiv
 501              	.LVL61:
 502 0254 0990     		str	r0, [sp, #36]
 503 0256 5B46     		mov	r3, fp
 504 0258 5B19     		adds	r3, r3, r5
 505 025a 9A00     		lsls	r2, r3, #2
 506 025c 9144     		add	r9, r9, r2
 507 025e 0199     		ldr	r1, [sp, #4]
 508 0260 4B46     		mov	r3, r9
 509 0262 5868     		ldr	r0, [r3, #4]
 510 0264 FFF7FEFF 		bl	__aeabi_fdiv
 511              	.LVL62:
 512 0268 011C     		adds	r1, r0, #0
 513 026a 0998     		ldr	r0, [sp, #36]
 514 026c FFF7FEFF 		bl	__aeabi_fadd
 515              	.LVL63:
 516 0270 0990     		str	r0, [sp, #36]
 517 0272 4B46     		mov	r3, r9
 518 0274 9868     		ldr	r0, [r3, #8]
ARM GAS  C:\Users\rdn\AppData\Local\Temp\ccet7BYP.s 			page 13


 519 0276 0899     		ldr	r1, [sp, #32]
 520 0278 FFF7FEFF 		bl	__aeabi_fdiv
 521              	.LVL64:
 522 027c 011C     		adds	r1, r0, #0
 523 027e 0998     		ldr	r0, [sp, #36]
 524 0280 FFF7FEFF 		bl	__aeabi_fadd
 525              	.LVL65:
 526 0284 AB00     		lsls	r3, r5, #2
 527 0286 4C4A     		ldr	r2, .L57+8
 528 0288 D318     		adds	r3, r2, r3
 529 028a 996D     		ldr	r1, [r3, #88]
 150:..\..\..\liblc3\src/tns.c ****                 r[f][k] = e0 == 0 || e1 == 0 || e2 == 0 ? 0 :
 530              		.loc 1 150 0 discriminator 5
 531 028c FFF7FEFF 		bl	__aeabi_fmul
 532              	.LVL66:
 533 0290 04E0     		b	.L21
 534              	.L54:
 150:..\..\..\liblc3\src/tns.c ****                 r[f][k] = e0 == 0 || e1 == 0 || e2 == 0 ? 0 :
 535              		.loc 1 150 0 is_stmt 0
 536 0292 0020     		movs	r0, #0
 537 0294 02E0     		b	.L21
 538              	.L55:
 539 0296 0020     		movs	r0, #0
 540 0298 00E0     		b	.L21
 541              	.L56:
 542 029a 0020     		movs	r0, #0
 543              	.L21:
 150:..\..\..\liblc3\src/tns.c ****                 r[f][k] = e0 == 0 || e1 == 0 || e2 == 0 ? 0 :
 544              		.loc 1 150 0 discriminator 8
 545 029c F300     		lsls	r3, r6, #3
 546 029e 9B19     		adds	r3, r3, r6
 547 02a0 5B19     		adds	r3, r3, r5
 548 02a2 9B00     		lsls	r3, r3, #2
 549 02a4 26AA     		add	r2, sp, #152
 550 02a6 9850     		str	r0, [r3, r2]
 149:..\..\..\liblc3\src/tns.c ****             for (int k = 1; k <= maxorder; k++)
 551              		.loc 1 149 0 is_stmt 1 discriminator 8
 552 02a8 0135     		adds	r5, r5, #1
 553              	.LVL67:
 554              	.L20:
 149:..\..\..\liblc3\src/tns.c ****             for (int k = 1; k <= maxorder; k++)
 555              		.loc 1 149 0 is_stmt 0 discriminator 2
 556 02aa BD42     		cmp	r5, r7
 557 02ac B5DD     		ble	.L25
 558 02ae BA46     		mov	r10, r7
 559              	.LVL68:
 560              	.L19:
 561              	.LBE49:
 562              	.LBE48:
 563              	.LBE41:
 130:..\..\..\liblc3\src/tns.c ****         float c[9][3] = { 0 };
 564              		.loc 1 130 0 is_stmt 1 discriminator 1
 565 02b0 059B     		ldr	r3, [sp, #20]
 566 02b2 0133     		adds	r3, r3, #1
 567 02b4 0593     		str	r3, [sp, #20]
 568              	.LVL69:
 569              	.L6:
ARM GAS  C:\Users\rdn\AppData\Local\Temp\ccet7BYP.s 			page 14


 130:..\..\..\liblc3\src/tns.c ****         float c[9][3] = { 0 };
 570              		.loc 1 130 0 is_stmt 0 discriminator 2
 571 02b6 059B     		ldr	r3, [sp, #20]
 572 02b8 079A     		ldr	r2, [sp, #28]
 573 02ba 9342     		cmp	r3, r2
 574 02bc 00DA     		bge	.LCB623
 575 02be 12E7     		b	.L26	@long jump
 576              	.LCB623:
 577 02c0 0026     		movs	r6, #0
 578 02c2 CCE0     		b	.L27
 579              	.LVL70:
 580              	.L38:
 581              	.LBE40:
 582              	.LBB50:
 583              	.LBB51:
 152:..\..\..\liblc3\src/tns.c ****         }
 153:..\..\..\liblc3\src/tns.c ****     }
 154:..\..\..\liblc3\src/tns.c **** 
 155:..\..\..\liblc3\src/tns.c ****     /* --- Levinson-Durbin recursion --- */
 156:..\..\..\liblc3\src/tns.c **** 
 157:..\..\..\liblc3\src/tns.c ****     for (int f = 0; f < nfilters; f++) {
 158:..\..\..\liblc3\src/tns.c ****         float *a0 = a[f], a1[9];
 584              		.loc 1 158 0 is_stmt 1
 585 02c4 F300     		lsls	r3, r6, #3
 586 02c6 9919     		adds	r1, r3, r6
 587 02c8 8A00     		lsls	r2, r1, #2
 588 02ca 5F99     		ldr	r1, [sp, #380]
 589 02cc 8D18     		adds	r5, r1, r2
 590              	.LVL71:
 159:..\..\..\liblc3\src/tns.c ****         float err = r[f][0], rc;
 591              		.loc 1 159 0
 592 02ce 26AB     		add	r3, sp, #152
 593 02d0 D358     		ldr	r3, [r2, r3]
 594 02d2 1A1C     		adds	r2, r3, #0
 595 02d4 0293     		str	r3, [sp, #8]
 596              	.LVL72:
 160:..\..\..\liblc3\src/tns.c **** 
 161:..\..\..\liblc3\src/tns.c ****         gain[f] = err;
 597              		.loc 1 161 0
 598 02d6 B300     		lsls	r3, r6, #2
 599 02d8 5E99     		ldr	r1, [sp, #376]
 600 02da 8C46     		mov	ip, r1
 601 02dc 6344     		add	r3, r3, ip
 602 02de 9B46     		mov	fp, r3
 603 02e0 1900     		movs	r1, r3
 604 02e2 0A60     		str	r2, [r1]
 162:..\..\..\liblc3\src/tns.c **** 
 163:..\..\..\liblc3\src/tns.c ****         a0[0] = 1;
 605              		.loc 1 163 0
 606 02e4 FE23     		movs	r3, #254
 607 02e6 9B05     		lsls	r3, r3, #22
 608 02e8 2B60     		str	r3, [r5]
 609              	.LVL73:
 610              	.LBB52:
 164:..\..\..\liblc3\src/tns.c ****         for (int k = 1; k <= maxorder; ) {
 611              		.loc 1 164 0
 612 02ea 0124     		movs	r4, #1
ARM GAS  C:\Users\rdn\AppData\Local\Temp\ccet7BYP.s 			page 15


 613 02ec A946     		mov	r9, r5
 614 02ee 3500     		movs	r5, r6
 615              	.LVL74:
 616 02f0 A9E0     		b	.L28
 617              	.LVL75:
 618              	.L37:
 165:..\..\..\liblc3\src/tns.c **** 
 166:..\..\..\liblc3\src/tns.c ****             rc = -r[f][k];
 619              		.loc 1 166 0
 620 02f2 EB00     		lsls	r3, r5, #3
 621 02f4 5B19     		adds	r3, r3, r5
 622 02f6 1B19     		adds	r3, r3, r4
 623 02f8 9B00     		lsls	r3, r3, #2
 624 02fa 26AA     		add	r2, sp, #152
 625 02fc 9B58     		ldr	r3, [r3, r2]
 626 02fe 8022     		movs	r2, #128
 627 0300 1206     		lsls	r2, r2, #24
 628 0302 9F18     		adds	r7, r3, r2
 629              	.LVL76:
 630              	.LBB53:
 167:..\..\..\liblc3\src/tns.c ****             for (int i = 1; i < k; i++)
 631              		.loc 1 167 0
 632 0304 0126     		movs	r6, #1
 633 0306 0197     		str	r7, [sp, #4]
 634 0308 4F46     		mov	r7, r9
 635              	.LVL77:
 636 030a 10E0     		b	.L29
 637              	.LVL78:
 638              	.L30:
 168:..\..\..\liblc3\src/tns.c ****                 rc -= a0[i] * r[f][k-i];
 639              		.loc 1 168 0 discriminator 3
 640 030c B300     		lsls	r3, r6, #2
 641 030e D859     		ldr	r0, [r3, r7]
 642 0310 A21B     		subs	r2, r4, r6
 643 0312 EB00     		lsls	r3, r5, #3
 644 0314 5B19     		adds	r3, r3, r5
 645 0316 9B18     		adds	r3, r3, r2
 646 0318 9B00     		lsls	r3, r3, #2
 647 031a 26AA     		add	r2, sp, #152
 648 031c 9958     		ldr	r1, [r3, r2]
 649 031e FFF7FEFF 		bl	__aeabi_fmul
 650              	.LVL79:
 651 0322 011C     		adds	r1, r0, #0
 652 0324 0198     		ldr	r0, [sp, #4]
 653 0326 FFF7FEFF 		bl	__aeabi_fsub
 654              	.LVL80:
 655 032a 0190     		str	r0, [sp, #4]
 656              	.LVL81:
 167:..\..\..\liblc3\src/tns.c ****             for (int i = 1; i < k; i++)
 657              		.loc 1 167 0 discriminator 3
 658 032c 0136     		adds	r6, r6, #1
 659              	.LVL82:
 660              	.L29:
 167:..\..\..\liblc3\src/tns.c ****             for (int i = 1; i < k; i++)
 661              		.loc 1 167 0 is_stmt 0 discriminator 1
 662 032e B442     		cmp	r4, r6
 663 0330 ECDC     		bgt	.L30
ARM GAS  C:\Users\rdn\AppData\Local\Temp\ccet7BYP.s 			page 16


 664 0332 B946     		mov	r9, r7
 665 0334 019F     		ldr	r7, [sp, #4]
 666              	.LVL83:
 667              	.LBE53:
 169:..\..\..\liblc3\src/tns.c **** 
 170:..\..\..\liblc3\src/tns.c ****             rc /= err;
 668              		.loc 1 170 0 is_stmt 1
 669 0336 029E     		ldr	r6, [sp, #8]
 670              	.LVL84:
 671 0338 311C     		adds	r1, r6, #0
 672 033a 381C     		adds	r0, r7, #0
 673 033c FFF7FEFF 		bl	__aeabi_fdiv
 674              	.LVL85:
 675 0340 0190     		str	r0, [sp, #4]
 676              	.LVL86:
 171:..\..\..\liblc3\src/tns.c ****             err *= 1 - rc * rc;
 677              		.loc 1 171 0
 678 0342 011C     		adds	r1, r0, #0
 679 0344 FFF7FEFF 		bl	__aeabi_fmul
 680              	.LVL87:
 681 0348 011C     		adds	r1, r0, #0
 682 034a FE20     		movs	r0, #254
 683 034c 8005     		lsls	r0, r0, #22
 684 034e FFF7FEFF 		bl	__aeabi_fsub
 685              	.LVL88:
 686 0352 011C     		adds	r1, r0, #0
 687 0354 301C     		adds	r0, r6, #0
 688 0356 FFF7FEFF 		bl	__aeabi_fmul
 689              	.LVL89:
 690 035a 0290     		str	r0, [sp, #8]
 691              	.LVL90:
 692              	.LBB54:
 172:..\..\..\liblc3\src/tns.c **** 
 173:..\..\..\liblc3\src/tns.c ****             for (int i = 1; i < k; i++)
 693              		.loc 1 173 0
 694 035c 0127     		movs	r7, #1
 695 035e A846     		mov	r8, r5
 696 0360 4D46     		mov	r5, r9
 697              	.LVL91:
 698 0362 0FE0     		b	.L31
 699              	.LVL92:
 700              	.L32:
 174:..\..\..\liblc3\src/tns.c ****                 a1[i] = a0[i] + rc * a0[k-i];
 701              		.loc 1 174 0 discriminator 3
 702 0364 BE00     		lsls	r6, r7, #2
 703 0366 7359     		ldr	r3, [r6, r5]
 704 0368 9946     		mov	r9, r3
 705 036a E31B     		subs	r3, r4, r7
 706 036c 9B00     		lsls	r3, r3, #2
 707 036e 5959     		ldr	r1, [r3, r5]
 708 0370 0198     		ldr	r0, [sp, #4]
 709 0372 FFF7FEFF 		bl	__aeabi_fmul
 710              	.LVL93:
 711 0376 011C     		adds	r1, r0, #0
 712 0378 4846     		mov	r0, r9
 713 037a FFF7FEFF 		bl	__aeabi_fadd
 714              	.LVL94:
ARM GAS  C:\Users\rdn\AppData\Local\Temp\ccet7BYP.s 			page 17


 715 037e 0BAB     		add	r3, sp, #44
 716 0380 F050     		str	r0, [r6, r3]
 173:..\..\..\liblc3\src/tns.c ****                 a1[i] = a0[i] + rc * a0[k-i];
 717              		.loc 1 173 0 discriminator 3
 718 0382 0137     		adds	r7, r7, #1
 719              	.LVL95:
 720              	.L31:
 173:..\..\..\liblc3\src/tns.c ****                 a1[i] = a0[i] + rc * a0[k-i];
 721              		.loc 1 173 0 is_stmt 0 discriminator 1
 722 0384 BC42     		cmp	r4, r7
 723 0386 EDDC     		bgt	.L32
 724 0388 A946     		mov	r9, r5
 725 038a 4546     		mov	r5, r8
 726              	.LVL96:
 727              	.LBE54:
 175:..\..\..\liblc3\src/tns.c ****             a1[k++] = rc;
 728              		.loc 1 175 0 is_stmt 1
 729 038c 671C     		adds	r7, r4, #1
 730              	.LVL97:
 731 038e A300     		lsls	r3, r4, #2
 732 0390 0BAA     		add	r2, sp, #44
 733 0392 0199     		ldr	r1, [sp, #4]
 734 0394 9950     		str	r1, [r3, r2]
 176:..\..\..\liblc3\src/tns.c **** 
 177:..\..\..\liblc3\src/tns.c ****             rc = -r[f][k];
 735              		.loc 1 177 0
 736 0396 EB00     		lsls	r3, r5, #3
 737 0398 5B19     		adds	r3, r3, r5
 738 039a DB19     		adds	r3, r3, r7
 739 039c 9B00     		lsls	r3, r3, #2
 740 039e 26AA     		add	r2, sp, #152
 741 03a0 9B58     		ldr	r3, [r3, r2]
 742 03a2 8022     		movs	r2, #128
 743 03a4 1206     		lsls	r2, r2, #24
 744 03a6 9446     		mov	ip, r2
 745 03a8 6344     		add	r3, r3, ip
 746 03aa 0193     		str	r3, [sp, #4]
 747              	.LVL98:
 748              	.LBB55:
 178:..\..\..\liblc3\src/tns.c ****             for (int i = 1; i < k; i++)
 749              		.loc 1 178 0
 750 03ac 0126     		movs	r6, #1
 751 03ae 17E0     		b	.L33
 752              	.L58:
 753              		.align	2
 754              	.L57:
 755 03b0 00000000 		.word	.LANCHOR0
 756 03b4 80000000 		.word	.LANCHOR1
 757 03b8 00010000 		.word	.LANCHOR2
 758              	.LVL99:
 759              	.L34:
 179:..\..\..\liblc3\src/tns.c ****                 rc -= a1[i] * r[f][k-i];
 760              		.loc 1 179 0 discriminator 3
 761 03bc B200     		lsls	r2, r6, #2
 762 03be 0BAB     		add	r3, sp, #44
 763 03c0 D058     		ldr	r0, [r2, r3]
 764 03c2 BA1B     		subs	r2, r7, r6
ARM GAS  C:\Users\rdn\AppData\Local\Temp\ccet7BYP.s 			page 18


 765 03c4 EB00     		lsls	r3, r5, #3
 766 03c6 5B19     		adds	r3, r3, r5
 767 03c8 9B18     		adds	r3, r3, r2
 768 03ca 9B00     		lsls	r3, r3, #2
 769 03cc 26AA     		add	r2, sp, #152
 770 03ce 9958     		ldr	r1, [r3, r2]
 771 03d0 FFF7FEFF 		bl	__aeabi_fmul
 772              	.LVL100:
 773 03d4 011C     		adds	r1, r0, #0
 774 03d6 0198     		ldr	r0, [sp, #4]
 775 03d8 FFF7FEFF 		bl	__aeabi_fsub
 776              	.LVL101:
 777 03dc 0190     		str	r0, [sp, #4]
 778              	.LVL102:
 178:..\..\..\liblc3\src/tns.c ****             for (int i = 1; i < k; i++)
 779              		.loc 1 178 0 discriminator 3
 780 03de 0136     		adds	r6, r6, #1
 781              	.LVL103:
 782              	.L33:
 178:..\..\..\liblc3\src/tns.c ****             for (int i = 1; i < k; i++)
 783              		.loc 1 178 0 is_stmt 0 discriminator 1
 784 03e0 BE42     		cmp	r6, r7
 785 03e2 EBDB     		blt	.L34
 786              	.LBE55:
 180:..\..\..\liblc3\src/tns.c **** 
 181:..\..\..\liblc3\src/tns.c ****             rc /= err;
 787              		.loc 1 181 0 is_stmt 1
 788 03e4 029E     		ldr	r6, [sp, #8]
 789              	.LVL104:
 790 03e6 311C     		adds	r1, r6, #0
 791 03e8 0198     		ldr	r0, [sp, #4]
 792 03ea FFF7FEFF 		bl	__aeabi_fdiv
 793              	.LVL105:
 794 03ee 0190     		str	r0, [sp, #4]
 795              	.LVL106:
 182:..\..\..\liblc3\src/tns.c ****             err *= 1 - rc * rc;
 796              		.loc 1 182 0
 797 03f0 011C     		adds	r1, r0, #0
 798 03f2 FFF7FEFF 		bl	__aeabi_fmul
 799              	.LVL107:
 800 03f6 011C     		adds	r1, r0, #0
 801 03f8 FE20     		movs	r0, #254
 802 03fa 8005     		lsls	r0, r0, #22
 803 03fc FFF7FEFF 		bl	__aeabi_fsub
 804              	.LVL108:
 805 0400 011C     		adds	r1, r0, #0
 806 0402 301C     		adds	r0, r6, #0
 807 0404 FFF7FEFF 		bl	__aeabi_fmul
 808              	.LVL109:
 809 0408 0290     		str	r0, [sp, #8]
 810              	.LVL110:
 811              	.LBB56:
 183:..\..\..\liblc3\src/tns.c **** 
 184:..\..\..\liblc3\src/tns.c ****             for (int i = 1; i < k; i++)
 812              		.loc 1 184 0
 813 040a 0126     		movs	r6, #1
 814 040c A846     		mov	r8, r5
ARM GAS  C:\Users\rdn\AppData\Local\Temp\ccet7BYP.s 			page 19


 815 040e A246     		mov	r10, r4
 816 0410 10E0     		b	.L35
 817              	.LVL111:
 818              	.L36:
 185:..\..\..\liblc3\src/tns.c ****                 a0[i] = a1[i] + rc * a1[k-i];
 819              		.loc 1 185 0 discriminator 3
 820 0412 B300     		lsls	r3, r6, #2
 821 0414 4A46     		mov	r2, r9
 822 0416 D418     		adds	r4, r2, r3
 823 0418 0BAA     		add	r2, sp, #44
 824 041a 9D58     		ldr	r5, [r3, r2]
 825 041c BB1B     		subs	r3, r7, r6
 826 041e 9B00     		lsls	r3, r3, #2
 827 0420 9958     		ldr	r1, [r3, r2]
 828 0422 0198     		ldr	r0, [sp, #4]
 829 0424 FFF7FEFF 		bl	__aeabi_fmul
 830              	.LVL112:
 831 0428 011C     		adds	r1, r0, #0
 832 042a 281C     		adds	r0, r5, #0
 833 042c FFF7FEFF 		bl	__aeabi_fadd
 834              	.LVL113:
 835 0430 2060     		str	r0, [r4]
 184:..\..\..\liblc3\src/tns.c ****                 a0[i] = a1[i] + rc * a1[k-i];
 836              		.loc 1 184 0 discriminator 3
 837 0432 0136     		adds	r6, r6, #1
 838              	.LVL114:
 839              	.L35:
 184:..\..\..\liblc3\src/tns.c ****                 a0[i] = a1[i] + rc * a1[k-i];
 840              		.loc 1 184 0 is_stmt 0 discriminator 1
 841 0434 BE42     		cmp	r6, r7
 842 0436 ECDB     		blt	.L36
 843 0438 4546     		mov	r5, r8
 844 043a 5446     		mov	r4, r10
 845              	.LBE56:
 186:..\..\..\liblc3\src/tns.c ****             a0[k++] = rc;
 846              		.loc 1 186 0 is_stmt 1
 847 043c 0234     		adds	r4, r4, #2
 848              	.LVL115:
 849 043e BF00     		lsls	r7, r7, #2
 850 0440 4B46     		mov	r3, r9
 851 0442 019A     		ldr	r2, [sp, #4]
 852 0444 DA51     		str	r2, [r3, r7]
 853              	.LVL116:
 854              	.L28:
 164:..\..\..\liblc3\src/tns.c **** 
 855              		.loc 1 164 0 discriminator 1
 856 0446 069B     		ldr	r3, [sp, #24]
 857 0448 9C42     		cmp	r4, r3
 858 044a 00DC     		bgt	.LCB963
 859 044c 51E7     		b	.L37	@long jump
 860              	.LCB963:
 861 044e 2E00     		movs	r6, r5
 862              	.LBE52:
 187:..\..\..\liblc3\src/tns.c ****         }
 188:..\..\..\liblc3\src/tns.c **** 
 189:..\..\..\liblc3\src/tns.c ****         gain[f] /= err;
 863              		.loc 1 189 0 discriminator 2
ARM GAS  C:\Users\rdn\AppData\Local\Temp\ccet7BYP.s 			page 20


 864 0450 0299     		ldr	r1, [sp, #8]
 865 0452 5C46     		mov	r4, fp
 866              	.LVL117:
 867 0454 2068     		ldr	r0, [r4]
 868 0456 FFF7FEFF 		bl	__aeabi_fdiv
 869              	.LVL118:
 870 045a 2060     		str	r0, [r4]
 871              	.LBE51:
 157:..\..\..\liblc3\src/tns.c ****         float *a0 = a[f], a1[9];
 872              		.loc 1 157 0 discriminator 2
 873 045c 0136     		adds	r6, r6, #1
 874              	.LVL119:
 875              	.L27:
 157:..\..\..\liblc3\src/tns.c ****         float *a0 = a[f], a1[9];
 876              		.loc 1 157 0 is_stmt 0 discriminator 1
 877 045e 079B     		ldr	r3, [sp, #28]
 878 0460 9E42     		cmp	r6, r3
 879 0462 00DA     		bge	.LCB985
 880 0464 2EE7     		b	.L38	@long jump
 881              	.LCB985:
 882              	.LBE50:
 190:..\..\..\liblc3\src/tns.c ****     }
 191:..\..\..\liblc3\src/tns.c **** }
 883              		.loc 1 191 0 is_stmt 1
 884 0466 55B0     		add	sp, sp, #340
 885              		@ sp needed
 886              	.LVL120:
 887 0468 3CBC     		pop	{r2, r3, r4, r5}
 888 046a 9046     		mov	r8, r2
 889 046c 9946     		mov	r9, r3
 890 046e A246     		mov	r10, r4
 891 0470 AB46     		mov	fp, r5
 892 0472 F0BD     		pop	{r4, r5, r6, r7, pc}
 893              		.cfi_endproc
 894              	.LFE22:
 895              		.size	compute_lpc_coeffs, .-compute_lpc_coeffs
 896              		.section	.text.lpc_weighting,"ax",%progbits
 897              		.align	2
 898              		.code	16
 899              		.thumb_func
 900              		.type	lpc_weighting, %function
 901              	lpc_weighting:
 902              	.LFB23:
 192:..\..\..\liblc3\src/tns.c **** 
 193:..\..\..\liblc3\src/tns.c **** /**
 194:..\..\..\liblc3\src/tns.c ****  * LPC Weighting
 195:..\..\..\liblc3\src/tns.c ****  * gain, a         Prediction gain and LPC coefficients, weighted as output
 196:..\..\..\liblc3\src/tns.c ****  */
 197:..\..\..\liblc3\src/tns.c **** LC3_HOT static void lpc_weighting(float pred_gain, float *a)
 198:..\..\..\liblc3\src/tns.c **** {
 903              		.loc 1 198 0
 904              		.cfi_startproc
 905              		@ args = 0, pretend = 0, frame = 8
 906              		@ frame_needed = 0, uses_anonymous_args = 0
 907              	.LVL121:
 908 0000 F0B5     		push	{r4, r5, r6, r7, lr}
 909              		.cfi_def_cfa_offset 20
ARM GAS  C:\Users\rdn\AppData\Local\Temp\ccet7BYP.s 			page 21


 910              		.cfi_offset 4, -20
 911              		.cfi_offset 5, -16
 912              		.cfi_offset 6, -12
 913              		.cfi_offset 7, -8
 914              		.cfi_offset 14, -4
 915 0002 83B0     		sub	sp, sp, #12
 916              		.cfi_def_cfa_offset 32
 917 0004 0E00     		movs	r6, r1
 199:..\..\..\liblc3\src/tns.c ****     float gamma = 1.f - (1.f - 0.85f) * (2.f - pred_gain) / (2.f - 1.5f);
 918              		.loc 1 199 0
 919 0006 011C     		adds	r1, r0, #0
 920              	.LVL122:
 921 0008 8020     		movs	r0, #128
 922              	.LVL123:
 923 000a C005     		lsls	r0, r0, #23
 924 000c FFF7FEFF 		bl	__aeabi_fsub
 925              	.LVL124:
 926 0010 1049     		ldr	r1, .L62
 927 0012 FFF7FEFF 		bl	__aeabi_fmul
 928              	.LVL125:
 929 0016 011C     		adds	r1, r0, #0
 930 0018 FFF7FEFF 		bl	__aeabi_fadd
 931              	.LVL126:
 932 001c 011C     		adds	r1, r0, #0
 933 001e FE20     		movs	r0, #254
 934 0020 8005     		lsls	r0, r0, #22
 935 0022 FFF7FEFF 		bl	__aeabi_fsub
 936              	.LVL127:
 937 0026 0190     		str	r0, [sp, #4]
 938              	.LVL128:
 939              	.LBB57:
 200:..\..\..\liblc3\src/tns.c ****     float g = 1.f;
 201:..\..\..\liblc3\src/tns.c **** 
 202:..\..\..\liblc3\src/tns.c ****     for (int i = 1; i < 9; i++)
 940              		.loc 1 202 0
 941 0028 0127     		movs	r7, #1
 942              	.LBE57:
 200:..\..\..\liblc3\src/tns.c ****     float g = 1.f;
 943              		.loc 1 200 0
 944 002a FE25     		movs	r5, #254
 945 002c AD05     		lsls	r5, r5, #22
 946              	.LBB58:
 947              		.loc 1 202 0
 948 002e 0CE0     		b	.L60
 949              	.LVL129:
 950              	.L61:
 203:..\..\..\liblc3\src/tns.c ****         a[i] *= (g *= gamma);
 951              		.loc 1 203 0 discriminator 3
 952 0030 0199     		ldr	r1, [sp, #4]
 953 0032 281C     		adds	r0, r5, #0
 954 0034 FFF7FEFF 		bl	__aeabi_fmul
 955              	.LVL130:
 956 0038 051C     		adds	r5, r0, #0
 957              	.LVL131:
 958 003a BC00     		lsls	r4, r7, #2
 959 003c 3419     		adds	r4, r6, r4
 960 003e 011C     		adds	r1, r0, #0
ARM GAS  C:\Users\rdn\AppData\Local\Temp\ccet7BYP.s 			page 22


 961 0040 2068     		ldr	r0, [r4]
 962              	.LVL132:
 963 0042 FFF7FEFF 		bl	__aeabi_fmul
 964              	.LVL133:
 965 0046 2060     		str	r0, [r4]
 202:..\..\..\liblc3\src/tns.c ****         a[i] *= (g *= gamma);
 966              		.loc 1 202 0 discriminator 3
 967 0048 0137     		adds	r7, r7, #1
 968              	.LVL134:
 969              	.L60:
 202:..\..\..\liblc3\src/tns.c ****         a[i] *= (g *= gamma);
 970              		.loc 1 202 0 is_stmt 0 discriminator 1
 971 004a 082F     		cmp	r7, #8
 972 004c F0DD     		ble	.L61
 973              	.LBE58:
 204:..\..\..\liblc3\src/tns.c **** }
 974              		.loc 1 204 0 is_stmt 1
 975 004e 03B0     		add	sp, sp, #12
 976              		@ sp needed
 977              	.LVL135:
 978              	.LVL136:
 979              	.LVL137:
 980 0050 F0BD     		pop	{r4, r5, r6, r7, pc}
 981              	.L63:
 982 0052 C046     		.align	2
 983              	.L62:
 984 0054 9899193E 		.word	1041865112
 985              		.cfi_endproc
 986              	.LFE23:
 987              		.size	lpc_weighting, .-lpc_weighting
 988              		.section	.text.lpc_reflection,"ax",%progbits
 989              		.align	2
 990              		.code	16
 991              		.thumb_func
 992              		.type	lpc_reflection, %function
 993              	lpc_reflection:
 994              	.LFB24:
 205:..\..\..\liblc3\src/tns.c **** 
 206:..\..\..\liblc3\src/tns.c **** /**
 207:..\..\..\liblc3\src/tns.c ****  * LPC reflection
 208:..\..\..\liblc3\src/tns.c ****  * a, maxorder     LPC coefficients, and maximum order (4 or 8)
 209:..\..\..\liblc3\src/tns.c ****  * rc              Output refelection coefficients
 210:..\..\..\liblc3\src/tns.c ****  */
 211:..\..\..\liblc3\src/tns.c **** LC3_HOT static void lpc_reflection(
 212:..\..\..\liblc3\src/tns.c ****     const float *a, int maxorder, float *rc)
 213:..\..\..\liblc3\src/tns.c **** {
 995              		.loc 1 213 0
 996              		.cfi_startproc
 997              		@ args = 0, pretend = 0, frame = 64
 998              		@ frame_needed = 0, uses_anonymous_args = 0
 999              	.LVL138:
 1000 0000 F0B5     		push	{r4, r5, r6, r7, lr}
 1001              		.cfi_def_cfa_offset 20
 1002              		.cfi_offset 4, -20
 1003              		.cfi_offset 5, -16
 1004              		.cfi_offset 6, -12
 1005              		.cfi_offset 7, -8
ARM GAS  C:\Users\rdn\AppData\Local\Temp\ccet7BYP.s 			page 23


 1006              		.cfi_offset 14, -4
 1007 0002 5F46     		mov	r7, fp
 1008 0004 5646     		mov	r6, r10
 1009 0006 4D46     		mov	r5, r9
 1010 0008 4446     		mov	r4, r8
 1011 000a F0B4     		push	{r4, r5, r6, r7}
 1012              		.cfi_def_cfa_offset 36
 1013              		.cfi_offset 8, -36
 1014              		.cfi_offset 9, -32
 1015              		.cfi_offset 10, -28
 1016              		.cfi_offset 11, -24
 1017 000c 91B0     		sub	sp, sp, #68
 1018              		.cfi_def_cfa_offset 104
 1019 000e 0500     		movs	r5, r0
 1020 0010 0F00     		movs	r7, r1
 1021 0012 9246     		mov	r10, r2
 214:..\..\..\liblc3\src/tns.c ****     float e, b[2][7], *b0, *b1;
 215:..\..\..\liblc3\src/tns.c **** 
 216:..\..\..\liblc3\src/tns.c ****     rc[maxorder-1] = a[maxorder];
 1022              		.loc 1 216 0
 1023 0014 3A4B     		ldr	r3, .L71
 1024 0016 CB18     		adds	r3, r1, r3
 1025 0018 9B00     		lsls	r3, r3, #2
 1026 001a 9146     		mov	r9, r2
 1027 001c 9944     		add	r9, r9, r3
 1028 001e 8B00     		lsls	r3, r1, #2
 1029 0020 1858     		ldr	r0, [r3, r0]
 1030              	.LVL139:
 1031 0022 4B46     		mov	r3, r9
 1032 0024 1860     		str	r0, [r3]
 217:..\..\..\liblc3\src/tns.c ****     e = 1 - rc[maxorder-1] * rc[maxorder-1];
 1033              		.loc 1 217 0
 1034 0026 011C     		adds	r1, r0, #0
 1035              	.LVL140:
 1036 0028 FFF7FEFF 		bl	__aeabi_fmul
 1037              	.LVL141:
 1038 002c 011C     		adds	r1, r0, #0
 1039 002e FE20     		movs	r0, #254
 1040 0030 8005     		lsls	r0, r0, #22
 1041 0032 FFF7FEFF 		bl	__aeabi_fsub
 1042              	.LVL142:
 1043 0036 0190     		str	r0, [sp, #4]
 1044              	.LVL143:
 1045              	.LBB59:
 218:..\..\..\liblc3\src/tns.c **** 
 219:..\..\..\liblc3\src/tns.c ****     b1 = b[1];
 220:..\..\..\liblc3\src/tns.c ****     for (int i = 0; i < maxorder-1; i++)
 1046              		.loc 1 220 0
 1047 0038 0022     		movs	r2, #0
 1048 003a 17E0     		b	.L65
 1049              	.LVL144:
 1050              	.L66:
 221:..\..\..\liblc3\src/tns.c ****         b1[i] = (a[1+i] - rc[maxorder-1] * a[(maxorder-1)-i]) / e;
 1051              		.loc 1 221 0 discriminator 3
 1052 003c 9400     		lsls	r4, r2, #2
 1053 003e 09A9     		add	r1, sp, #36
 1054              	.LVL145:
ARM GAS  C:\Users\rdn\AppData\Local\Temp\ccet7BYP.s 			page 24


 1055 0040 8C46     		mov	ip, r1
 1056 0042 6444     		add	r4, r4, ip
 1057 0044 561C     		adds	r6, r2, #1
 1058 0046 B100     		lsls	r1, r6, #2
 1059              	.LVL146:
 1060 0048 4959     		ldr	r1, [r1, r5]
 1061 004a 8846     		mov	r8, r1
 1062 004c 9B1A     		subs	r3, r3, r2
 1063 004e 9B00     		lsls	r3, r3, #2
 1064 0050 5959     		ldr	r1, [r3, r5]
 1065 0052 4B46     		mov	r3, r9
 1066 0054 1868     		ldr	r0, [r3]
 1067 0056 FFF7FEFF 		bl	__aeabi_fmul
 1068              	.LVL147:
 1069 005a 011C     		adds	r1, r0, #0
 1070 005c 4046     		mov	r0, r8
 1071 005e FFF7FEFF 		bl	__aeabi_fsub
 1072              	.LVL148:
 1073 0062 0199     		ldr	r1, [sp, #4]
 1074 0064 FFF7FEFF 		bl	__aeabi_fdiv
 1075              	.LVL149:
 1076 0068 2060     		str	r0, [r4]
 1077              	.LVL150:
 220:..\..\..\liblc3\src/tns.c ****         b1[i] = (a[1+i] - rc[maxorder-1] * a[(maxorder-1)-i]) / e;
 1078              		.loc 1 220 0 discriminator 3
 1079 006a 3200     		movs	r2, r6
 1080              	.LVL151:
 1081              	.L65:
 220:..\..\..\liblc3\src/tns.c ****         b1[i] = (a[1+i] - rc[maxorder-1] * a[(maxorder-1)-i]) / e;
 1082              		.loc 1 220 0 is_stmt 0 discriminator 1
 1083 006c 7B1E     		subs	r3, r7, #1
 1084 006e 9A42     		cmp	r2, r3
 1085 0070 E4DB     		blt	.L66
 1086              	.LBE59:
 1087              	.LBB60:
 222:..\..\..\liblc3\src/tns.c **** 
 223:..\..\..\liblc3\src/tns.c ****     for (int k = maxorder-2; k > 0; k--) {
 1088              		.loc 1 223 0 is_stmt 1
 1089 0072 BD1E     		subs	r5, r7, #2
 1090              	.LVL152:
 1091              	.LBE60:
 219:..\..\..\liblc3\src/tns.c ****     for (int i = 0; i < maxorder-1; i++)
 1092              		.loc 1 219 0
 1093 0074 09AE     		add	r6, sp, #36
 1094              	.LVL153:
 1095              	.LBB62:
 1096              		.loc 1 223 0
 1097 0076 34E0     		b	.L67
 1098              	.LVL154:
 1099              	.L70:
 224:..\..\..\liblc3\src/tns.c ****         b0 = b1, b1 = b[k & 1];
 1100              		.loc 1 224 0
 1101 0078 0123     		movs	r3, #1
 1102 007a 2B40     		ands	r3, r5
 1103 007c DA00     		lsls	r2, r3, #3
 1104 007e D31A     		subs	r3, r2, r3
 1105 0080 9A00     		lsls	r2, r3, #2
ARM GAS  C:\Users\rdn\AppData\Local\Temp\ccet7BYP.s 			page 25


 1106 0082 02AB     		add	r3, sp, #8
 1107 0084 9C46     		mov	ip, r3
 1108 0086 6244     		add	r2, r2, ip
 1109 0088 1700     		movs	r7, r2
 1110              	.LVL155:
 225:..\..\..\liblc3\src/tns.c **** 
 226:..\..\..\liblc3\src/tns.c ****         rc[k] = b0[k];
 1111              		.loc 1 226 0
 1112 008a AB00     		lsls	r3, r5, #2
 1113 008c D346     		mov	fp, r10
 1114 008e 9B44     		add	fp, fp, r3
 1115 0090 F058     		ldr	r0, [r6, r3]
 1116 0092 5B46     		mov	r3, fp
 1117 0094 1860     		str	r0, [r3]
 227:..\..\..\liblc3\src/tns.c ****         e = 1 - rc[k] * rc[k];
 1118              		.loc 1 227 0
 1119 0096 011C     		adds	r1, r0, #0
 1120 0098 FFF7FEFF 		bl	__aeabi_fmul
 1121              	.LVL156:
 1122 009c 011C     		adds	r1, r0, #0
 1123 009e FE20     		movs	r0, #254
 1124 00a0 8005     		lsls	r0, r0, #22
 1125 00a2 FFF7FEFF 		bl	__aeabi_fsub
 1126              	.LVL157:
 1127 00a6 0190     		str	r0, [sp, #4]
 1128              	.LVL158:
 1129              	.LBB61:
 228:..\..\..\liblc3\src/tns.c **** 
 229:..\..\..\liblc3\src/tns.c ****         for (int i = 0; i < k; i++)
 1130              		.loc 1 229 0
 1131 00a8 0024     		movs	r4, #0
 1132 00aa 16E0     		b	.L68
 1133              	.LVL159:
 1134              	.L69:
 230:..\..\..\liblc3\src/tns.c ****             b1[i] = (b0[i] - rc[k] * b0[k-1-i]) / e;
 1135              		.loc 1 230 0 discriminator 3
 1136 00ac A300     		lsls	r3, r4, #2
 1137 00ae FA18     		adds	r2, r7, r3
 1138 00b0 9046     		mov	r8, r2
 1139 00b2 F358     		ldr	r3, [r6, r3]
 1140 00b4 9946     		mov	r9, r3
 1141 00b6 6B1E     		subs	r3, r5, #1
 1142 00b8 1B1B     		subs	r3, r3, r4
 1143 00ba 9B00     		lsls	r3, r3, #2
 1144 00bc 9959     		ldr	r1, [r3, r6]
 1145 00be 5B46     		mov	r3, fp
 1146 00c0 1868     		ldr	r0, [r3]
 1147 00c2 FFF7FEFF 		bl	__aeabi_fmul
 1148              	.LVL160:
 1149 00c6 011C     		adds	r1, r0, #0
 1150 00c8 4846     		mov	r0, r9
 1151 00ca FFF7FEFF 		bl	__aeabi_fsub
 1152              	.LVL161:
 1153 00ce 0199     		ldr	r1, [sp, #4]
 1154 00d0 FFF7FEFF 		bl	__aeabi_fdiv
 1155              	.LVL162:
 1156 00d4 4346     		mov	r3, r8
ARM GAS  C:\Users\rdn\AppData\Local\Temp\ccet7BYP.s 			page 26


 1157 00d6 1860     		str	r0, [r3]
 229:..\..\..\liblc3\src/tns.c ****             b1[i] = (b0[i] - rc[k] * b0[k-1-i]) / e;
 1158              		.loc 1 229 0 discriminator 3
 1159 00d8 0134     		adds	r4, r4, #1
 1160              	.LVL163:
 1161              	.L68:
 229:..\..\..\liblc3\src/tns.c ****             b1[i] = (b0[i] - rc[k] * b0[k-1-i]) / e;
 1162              		.loc 1 229 0 is_stmt 0 discriminator 1
 1163 00da A542     		cmp	r5, r4
 1164 00dc E6DC     		bgt	.L69
 1165              	.LBE61:
 223:..\..\..\liblc3\src/tns.c ****         b0 = b1, b1 = b[k & 1];
 1166              		.loc 1 223 0 is_stmt 1 discriminator 2
 1167 00de 013D     		subs	r5, r5, #1
 1168              	.LVL164:
 224:..\..\..\liblc3\src/tns.c **** 
 1169              		.loc 1 224 0 discriminator 2
 1170 00e0 3E00     		movs	r6, r7
 1171              	.LVL165:
 1172              	.L67:
 223:..\..\..\liblc3\src/tns.c ****         b0 = b1, b1 = b[k & 1];
 1173              		.loc 1 223 0 discriminator 1
 1174 00e2 002D     		cmp	r5, #0
 1175 00e4 C8DC     		bgt	.L70
 1176              	.LBE62:
 231:..\..\..\liblc3\src/tns.c ****     }
 232:..\..\..\liblc3\src/tns.c **** 
 233:..\..\..\liblc3\src/tns.c ****     rc[0] = b1[0];
 1177              		.loc 1 233 0
 1178 00e6 3368     		ldr	r3, [r6]
 1179 00e8 0193     		str	r3, [sp, #4]
 1180 00ea 5346     		mov	r3, r10
 1181 00ec 019A     		ldr	r2, [sp, #4]
 1182 00ee 1A60     		str	r2, [r3]
 234:..\..\..\liblc3\src/tns.c **** }
 1183              		.loc 1 234 0
 1184 00f0 11B0     		add	sp, sp, #68
 1185              		@ sp needed
 1186              	.LVL166:
 1187              	.LVL167:
 1188              	.LVL168:
 1189 00f2 3CBC     		pop	{r2, r3, r4, r5}
 1190 00f4 9046     		mov	r8, r2
 1191 00f6 9946     		mov	r9, r3
 1192 00f8 A246     		mov	r10, r4
 1193 00fa AB46     		mov	fp, r5
 1194 00fc F0BD     		pop	{r4, r5, r6, r7, pc}
 1195              	.L72:
 1196 00fe C046     		.align	2
 1197              	.L71:
 1198 0100 FFFFFF3F 		.word	1073741823
 1199              		.cfi_endproc
 1200              	.LFE24:
 1201              		.size	lpc_reflection, .-lpc_reflection
 1202              		.global	__aeabi_fcmpge
 1203              		.global	__aeabi_fcmplt
 1204              		.section	.text.quantize_rc,"ax",%progbits
ARM GAS  C:\Users\rdn\AppData\Local\Temp\ccet7BYP.s 			page 27


 1205              		.align	2
 1206              		.code	16
 1207              		.thumb_func
 1208              		.type	quantize_rc, %function
 1209              	quantize_rc:
 1210              	.LFB25:
 235:..\..\..\liblc3\src/tns.c **** 
 236:..\..\..\liblc3\src/tns.c **** /**
 237:..\..\..\liblc3\src/tns.c ****  * Quantization of RC coefficients
 238:..\..\..\liblc3\src/tns.c ****  * rc, maxorder    Refelection coefficients, and maximum order (4 or 8)
 239:..\..\..\liblc3\src/tns.c ****  * order           Return order of coefficients
 240:..\..\..\liblc3\src/tns.c ****  * rc_i            Return quantized coefficients
 241:..\..\..\liblc3\src/tns.c ****  */
 242:..\..\..\liblc3\src/tns.c **** static void quantize_rc(const float *rc, int maxorder, int *order, int *rc_q)
 243:..\..\..\liblc3\src/tns.c **** {
 1211              		.loc 1 243 0
 1212              		.cfi_startproc
 1213              		@ args = 0, pretend = 0, frame = 8
 1214              		@ frame_needed = 0, uses_anonymous_args = 0
 1215              	.LVL169:
 1216 0000 F0B5     		push	{r4, r5, r6, r7, lr}
 1217              		.cfi_def_cfa_offset 20
 1218              		.cfi_offset 4, -20
 1219              		.cfi_offset 5, -16
 1220              		.cfi_offset 6, -12
 1221              		.cfi_offset 7, -8
 1222              		.cfi_offset 14, -4
 1223 0002 5F46     		mov	r7, fp
 1224 0004 5646     		mov	r6, r10
 1225 0006 4D46     		mov	r5, r9
 1226 0008 4446     		mov	r4, r8
 1227 000a F0B4     		push	{r4, r5, r6, r7}
 1228              		.cfi_def_cfa_offset 36
 1229              		.cfi_offset 8, -36
 1230              		.cfi_offset 9, -32
 1231              		.cfi_offset 10, -28
 1232              		.cfi_offset 11, -24
 1233 000c 83B0     		sub	sp, sp, #12
 1234              		.cfi_def_cfa_offset 48
 1235 000e 0190     		str	r0, [sp, #4]
 1236 0010 0091     		str	r1, [sp]
 1237 0012 9346     		mov	fp, r2
 1238 0014 9A46     		mov	r10, r3
 244:..\..\..\liblc3\src/tns.c ****     /* Quantization table, sin(delta * (i + 0.5)), delta = Pi / 17,
 245:..\..\..\liblc3\src/tns.c ****      * rounded to fixed point Q15 value (LC3-Plus HR requirements). */
 246:..\..\..\liblc3\src/tns.c **** 
 247:..\..\..\liblc3\src/tns.c ****     static float q_thr[] = {
 248:..\..\..\liblc3\src/tns.c ****         0x0bcfp-15, 0x2307p-15, 0x390ep-15, 0x4d23p-15,
 249:..\..\..\liblc3\src/tns.c ****         0x5e98p-15, 0x6cd4p-15, 0x775bp-15, 0x7dd2p-15,
 250:..\..\..\liblc3\src/tns.c ****     };
 251:..\..\..\liblc3\src/tns.c **** 
 252:..\..\..\liblc3\src/tns.c ****     *order = maxorder;
 1239              		.loc 1 252 0
 1240 0016 1300     		movs	r3, r2
 1241              	.LVL170:
 1242 0018 1960     		str	r1, [r3]
 1243              	.LVL171:
ARM GAS  C:\Users\rdn\AppData\Local\Temp\ccet7BYP.s 			page 28


 1244              	.LBB63:
 253:..\..\..\liblc3\src/tns.c **** 
 254:..\..\..\liblc3\src/tns.c ****     for (int i = 0; i < maxorder; i++) {
 1245              		.loc 1 254 0
 1246 001a 0023     		movs	r3, #0
 1247 001c 9846     		mov	r8, r3
 1248 001e 3BE0     		b	.L74
 1249              	.LVL172:
 1250              	.L83:
 1251              	.LBB64:
 255:..\..\..\liblc3\src/tns.c ****         float rc_m = fabsf(rc[i]);
 1252              		.loc 1 255 0
 1253 0020 4346     		mov	r3, r8
 1254 0022 9D00     		lsls	r5, r3, #2
 1255 0024 019B     		ldr	r3, [sp, #4]
 1256 0026 9946     		mov	r9, r3
 1257 0028 A944     		add	r9, r9, r5
 1258 002a 4B46     		mov	r3, r9
 1259 002c 1B68     		ldr	r3, [r3]
 1260 002e 5F00     		lsls	r7, r3, #1
 1261 0030 7F08     		lsrs	r7, r7, #1
 1262              	.LVL173:
 256:..\..\..\liblc3\src/tns.c **** 
 257:..\..\..\liblc3\src/tns.c ****         rc_q[i] = 4 * (rc_m >= q_thr[4]);
 1263              		.loc 1 257 0
 1264 0032 5544     		add	r5, r5, r10
 1265 0034 1D49     		ldr	r1, .L89
 1266 0036 381C     		adds	r0, r7, #0
 1267 0038 FFF7FEFF 		bl	__aeabi_fcmpge
 1268              	.LVL174:
 1269 003c 0028     		cmp	r0, #0
 1270 003e 01D0     		beq	.L88
 1271 0040 0423     		movs	r3, #4
 1272 0042 00E0     		b	.L75
 1273              	.L88:
 1274 0044 0023     		movs	r3, #0
 1275              	.L75:
 1276              		.loc 1 257 0 is_stmt 0 discriminator 4
 1277 0046 2B60     		str	r3, [r5]
 1278              	.LVL175:
 1279              	.LBB65:
 258:..\..\..\liblc3\src/tns.c ****         for (int j = 0; j < 4 && rc_m >= q_thr[rc_q[i]]; j++, rc_q[i]++);
 1280              		.loc 1 258 0 is_stmt 1 discriminator 4
 1281 0048 0026     		movs	r6, #0
 1282 004a 02E0     		b	.L77
 1283              	.LVL176:
 1284              	.L79:
 1285 004c 0136     		adds	r6, r6, #1
 1286              	.LVL177:
 1287 004e 0134     		adds	r4, r4, #1
 1288 0050 2C60     		str	r4, [r5]
 1289              	.LVL178:
 1290              	.L77:
 1291              		.loc 1 258 0 is_stmt 0 discriminator 1
 1292 0052 032E     		cmp	r6, #3
 1293 0054 09DC     		bgt	.L78
 1294              		.loc 1 258 0 discriminator 3
ARM GAS  C:\Users\rdn\AppData\Local\Temp\ccet7BYP.s 			page 29


 1295 0056 2C68     		ldr	r4, [r5]
 1296 0058 A300     		lsls	r3, r4, #2
 1297 005a 154A     		ldr	r2, .L89+4
 1298 005c D318     		adds	r3, r2, r3
 1299 005e D96F     		ldr	r1, [r3, #124]
 1300 0060 381C     		adds	r0, r7, #0
 1301 0062 FFF7FEFF 		bl	__aeabi_fcmpge
 1302              	.LVL179:
 1303 0066 0028     		cmp	r0, #0
 1304 0068 F0D1     		bne	.L79
 1305              	.L78:
 1306              	.LBE65:
 259:..\..\..\liblc3\src/tns.c **** 
 260:..\..\..\liblc3\src/tns.c ****         if (rc[i] < 0)
 1307              		.loc 1 260 0 is_stmt 1
 1308 006a 4B46     		mov	r3, r9
 1309 006c 1868     		ldr	r0, [r3]
 1310 006e 0021     		movs	r1, #0
 1311 0070 FFF7FEFF 		bl	__aeabi_fcmplt
 1312              	.LVL180:
 1313 0074 0028     		cmp	r0, #0
 1314 0076 02D0     		beq	.L80
 261:..\..\..\liblc3\src/tns.c ****             rc_q[i] = -rc_q[i];
 1315              		.loc 1 261 0
 1316 0078 2B68     		ldr	r3, [r5]
 1317 007a 5B42     		rsbs	r3, r3, #0
 1318 007c 2B60     		str	r3, [r5]
 1319              	.L80:
 262:..\..\..\liblc3\src/tns.c **** 
 263:..\..\..\liblc3\src/tns.c ****         *order = rc_q[i] != 0 ? maxorder : *order - 1;
 1320              		.loc 1 263 0
 1321 007e 2B68     		ldr	r3, [r5]
 1322 0080 002B     		cmp	r3, #0
 1323 0082 03D1     		bne	.L85
 1324              		.loc 1 263 0 is_stmt 0 discriminator 1
 1325 0084 5B46     		mov	r3, fp
 1326 0086 1B68     		ldr	r3, [r3]
 1327 0088 013B     		subs	r3, r3, #1
 1328 008a 00E0     		b	.L82
 1329              	.L85:
 1330              		.loc 1 263 0
 1331 008c 009B     		ldr	r3, [sp]
 1332              	.L82:
 1333              		.loc 1 263 0 discriminator 4
 1334 008e 5A46     		mov	r2, fp
 1335 0090 1360     		str	r3, [r2]
 1336              	.LBE64:
 254:..\..\..\liblc3\src/tns.c ****         float rc_m = fabsf(rc[i]);
 1337              		.loc 1 254 0 is_stmt 1 discriminator 4
 1338 0092 0123     		movs	r3, #1
 1339 0094 9C46     		mov	ip, r3
 1340 0096 E044     		add	r8, r8, ip
 1341              	.LVL181:
 1342              	.L74:
 254:..\..\..\liblc3\src/tns.c ****         float rc_m = fabsf(rc[i]);
 1343              		.loc 1 254 0 is_stmt 0 discriminator 2
 1344 0098 009B     		ldr	r3, [sp]
ARM GAS  C:\Users\rdn\AppData\Local\Temp\ccet7BYP.s 			page 30


 1345 009a 9845     		cmp	r8, r3
 1346 009c C0DB     		blt	.L83
 1347              	.LBE63:
 264:..\..\..\liblc3\src/tns.c ****     }
 265:..\..\..\liblc3\src/tns.c **** }
 1348              		.loc 1 265 0 is_stmt 1
 1349 009e 03B0     		add	sp, sp, #12
 1350              	.LVL182:
 1351              		@ sp needed
 1352              	.LVL183:
 1353              	.LVL184:
 1354 00a0 3CBC     		pop	{r2, r3, r4, r5}
 1355 00a2 9046     		mov	r8, r2
 1356 00a4 9946     		mov	r9, r3
 1357 00a6 A246     		mov	r10, r4
 1358 00a8 AB46     		mov	fp, r5
 1359 00aa F0BD     		pop	{r4, r5, r6, r7, pc}
 1360              	.L90:
 1361              		.align	2
 1362              	.L89:
 1363 00ac 00303D3F 		.word	1060974592
 1364 00b0 00010000 		.word	.LANCHOR2
 1365              		.cfi_endproc
 1366              	.LFE25:
 1367              		.size	quantize_rc, .-quantize_rc
 1368              		.section	.text.unquantize_rc,"ax",%progbits
 1369              		.align	2
 1370              		.code	16
 1371              		.thumb_func
 1372              		.type	unquantize_rc, %function
 1373              	unquantize_rc:
 1374              	.LFB26:
 266:..\..\..\liblc3\src/tns.c **** 
 267:..\..\..\liblc3\src/tns.c **** /**
 268:..\..\..\liblc3\src/tns.c ****  * Unquantization of RC coefficients
 269:..\..\..\liblc3\src/tns.c ****  * rc_q, order     Quantized coefficients, and order
 270:..\..\..\liblc3\src/tns.c ****  * rc              Return refelection coefficients
 271:..\..\..\liblc3\src/tns.c ****  */
 272:..\..\..\liblc3\src/tns.c **** static void unquantize_rc(const int *rc_q, int order, float rc[8])
 273:..\..\..\liblc3\src/tns.c **** {
 1375              		.loc 1 273 0
 1376              		.cfi_startproc
 1377              		@ args = 0, pretend = 0, frame = 0
 1378              		@ frame_needed = 0, uses_anonymous_args = 0
 1379              	.LVL185:
 1380 0000 F0B5     		push	{r4, r5, r6, r7, lr}
 1381              		.cfi_def_cfa_offset 20
 1382              		.cfi_offset 4, -20
 1383              		.cfi_offset 5, -16
 1384              		.cfi_offset 6, -12
 1385              		.cfi_offset 7, -8
 1386              		.cfi_offset 14, -4
 1387              	.LVL186:
 274:..\..\..\liblc3\src/tns.c ****     /* Quantization table, sin(delta * i), delta = Pi / 17,
 275:..\..\..\liblc3\src/tns.c ****      * rounded to fixed point Q15 value (LC3-Plus HR requirements). */
 276:..\..\..\liblc3\src/tns.c **** 
 277:..\..\..\liblc3\src/tns.c ****     static float q_inv[] = {
ARM GAS  C:\Users\rdn\AppData\Local\Temp\ccet7BYP.s 			page 31


 278:..\..\..\liblc3\src/tns.c ****         0x0000p-15, 0x1785p-15, 0x2e3dp-15, 0x4362p-15,
 279:..\..\..\liblc3\src/tns.c ****         0x563cp-15, 0x6625p-15, 0x7295p-15, 0x7b1dp-15, 0x7f74p-15,
 280:..\..\..\liblc3\src/tns.c ****     };
 281:..\..\..\liblc3\src/tns.c **** 
 282:..\..\..\liblc3\src/tns.c ****     int i;
 283:..\..\..\liblc3\src/tns.c **** 
 284:..\..\..\liblc3\src/tns.c ****     for (i = 0; i < order; i++) {
 1388              		.loc 1 284 0
 1389 0002 0025     		movs	r5, #0
 1390 0004 11E0     		b	.L92
 1391              	.LVL187:
 1392              	.L94:
 1393              	.LBB66:
 285:..\..\..\liblc3\src/tns.c ****         float rc_m = q_inv[LC3_ABS(rc_q[i])];
 1394              		.loc 1 285 0
 1395 0006 AC00     		lsls	r4, r5, #2
 1396 0008 0659     		ldr	r6, [r0, r4]
 1397 000a F717     		asrs	r7, r6, #31
 1398 000c F319     		adds	r3, r6, r7
 1399 000e 7B40     		eors	r3, r7
 1400 0010 9B00     		lsls	r3, r3, #2
 1401 0012 074F     		ldr	r7, .L96
 1402 0014 FB18     		adds	r3, r7, r3
 1403 0016 DB69     		ldr	r3, [r3, #28]
 1404              	.LVL188:
 286:..\..\..\liblc3\src/tns.c ****         rc[i] = rc_q[i] < 0 ? -rc_m : rc_m;
 1405              		.loc 1 286 0
 1406 0018 1419     		adds	r4, r2, r4
 1407 001a 002E     		cmp	r6, #0
 1408 001c 03DA     		bge	.L93
 1409              		.loc 1 286 0 is_stmt 0 discriminator 1
 1410 001e 8026     		movs	r6, #128
 1411 0020 3606     		lsls	r6, r6, #24
 1412 0022 B446     		mov	ip, r6
 1413 0024 6344     		add	r3, r3, ip
 1414              	.LVL189:
 1415              	.L93:
 1416              		.loc 1 286 0 discriminator 4
 1417 0026 2360     		str	r3, [r4]
 1418              	.LVL190:
 1419              	.LBE66:
 284:..\..\..\liblc3\src/tns.c ****         float rc_m = q_inv[LC3_ABS(rc_q[i])];
 1420              		.loc 1 284 0 is_stmt 1 discriminator 4
 1421 0028 0135     		adds	r5, r5, #1
 1422              	.LVL191:
 1423              	.L92:
 284:..\..\..\liblc3\src/tns.c ****         float rc_m = q_inv[LC3_ABS(rc_q[i])];
 1424              		.loc 1 284 0 is_stmt 0 discriminator 2
 1425 002a 8D42     		cmp	r5, r1
 1426 002c EBDB     		blt	.L94
 287:..\..\..\liblc3\src/tns.c ****     }
 288:..\..\..\liblc3\src/tns.c **** }
 1427              		.loc 1 288 0 is_stmt 1
 1428              		@ sp needed
 1429              	.LVL192:
 1430 002e F0BD     		pop	{r4, r5, r6, r7, pc}
 1431              	.L97:
ARM GAS  C:\Users\rdn\AppData\Local\Temp\ccet7BYP.s 			page 32


 1432              		.align	2
 1433              	.L96:
 1434 0030 80010000 		.word	.LANCHOR3
 1435              		.cfi_endproc
 1436              	.LFE26:
 1437              		.size	unquantize_rc, .-unquantize_rc
 1438              		.section	.text.forward_filtering,"ax",%progbits
 1439              		.align	2
 1440              		.code	16
 1441              		.thumb_func
 1442              		.type	forward_filtering, %function
 1443              	forward_filtering:
 1444              	.LFB27:
 289:..\..\..\liblc3\src/tns.c **** 
 290:..\..\..\liblc3\src/tns.c **** 
 291:..\..\..\liblc3\src/tns.c **** /* ----------------------------------------------------------------------------
 292:..\..\..\liblc3\src/tns.c ****  *  Filtering
 293:..\..\..\liblc3\src/tns.c ****  * -------------------------------------------------------------------------- */
 294:..\..\..\liblc3\src/tns.c **** 
 295:..\..\..\liblc3\src/tns.c **** /**
 296:..\..\..\liblc3\src/tns.c ****  * Forward filtering
 297:..\..\..\liblc3\src/tns.c ****  * dt, bw          Duration and bandwidth of the frame
 298:..\..\..\liblc3\src/tns.c ****  * rc_order, rc    Order of coefficients, and coefficients
 299:..\..\..\liblc3\src/tns.c ****  * x               Spectral coefficients, filtered as output
 300:..\..\..\liblc3\src/tns.c ****  */
 301:..\..\..\liblc3\src/tns.c **** LC3_HOT static void forward_filtering(
 302:..\..\..\liblc3\src/tns.c ****     enum lc3_dt dt, enum lc3_bandwidth bw,
 303:..\..\..\liblc3\src/tns.c ****     const int rc_order[2], float (* const rc)[8], float *x)
 304:..\..\..\liblc3\src/tns.c **** {
 1445              		.loc 1 304 0
 1446              		.cfi_startproc
 1447              		@ args = 4, pretend = 0, frame = 64
 1448              		@ frame_needed = 0, uses_anonymous_args = 0
 1449              	.LVL193:
 1450 0000 F0B5     		push	{r4, r5, r6, r7, lr}
 1451              		.cfi_def_cfa_offset 20
 1452              		.cfi_offset 4, -20
 1453              		.cfi_offset 5, -16
 1454              		.cfi_offset 6, -12
 1455              		.cfi_offset 7, -8
 1456              		.cfi_offset 14, -4
 1457 0002 5F46     		mov	r7, fp
 1458 0004 5646     		mov	r6, r10
 1459 0006 4D46     		mov	r5, r9
 1460 0008 4446     		mov	r4, r8
 1461 000a F0B4     		push	{r4, r5, r6, r7}
 1462              		.cfi_def_cfa_offset 36
 1463              		.cfi_offset 8, -36
 1464              		.cfi_offset 9, -32
 1465              		.cfi_offset 10, -28
 1466              		.cfi_offset 11, -24
 1467 000c 91B0     		sub	sp, sp, #68
 1468              		.cfi_def_cfa_offset 104
 1469 000e 0692     		str	r2, [sp, #24]
 1470 0010 0793     		str	r3, [sp, #28]
 305:..\..\..\liblc3\src/tns.c ****     int nfilters = 1 + (dt >= LC3_DT_5M && bw >= LC3_BANDWIDTH_SWB);
 1471              		.loc 1 305 0
ARM GAS  C:\Users\rdn\AppData\Local\Temp\ccet7BYP.s 			page 33


 1472 0012 0028     		cmp	r0, #0
 1473 0014 03D0     		beq	.L108
 1474              		.loc 1 305 0 is_stmt 0 discriminator 1
 1475 0016 0229     		cmp	r1, #2
 1476 0018 03D8     		bhi	.L109
 1477              		.loc 1 305 0
 1478 001a 0022     		movs	r2, #0
 1479              	.LVL194:
 1480 001c 02E0     		b	.L99
 1481              	.LVL195:
 1482              	.L108:
 1483 001e 0022     		movs	r2, #0
 1484              	.LVL196:
 1485 0020 00E0     		b	.L99
 1486              	.LVL197:
 1487              	.L109:
 1488 0022 0122     		movs	r2, #1
 1489              	.LVL198:
 1490              	.L99:
 1491              		.loc 1 305 0 discriminator 6
 1492 0024 531C     		adds	r3, r2, #1
 1493              	.LVL199:
 1494 0026 0493     		str	r3, [sp, #16]
 1495              	.LVL200:
 306:..\..\..\liblc3\src/tns.c ****     int nf = lc3_ne(dt, (enum lc3_srate)LC3_MIN(bw, LC3_BANDWIDTH_FB))
 1496              		.loc 1 306 0 is_stmt 1 discriminator 6
 1497 0028 0B1C     		adds	r3, r1, #0
 1498              	.LVL201:
 1499 002a 0429     		cmp	r1, #4
 1500 002c 00D9     		bls	.L100
 1501 002e 0423     		movs	r3, #4
 1502              	.L100:
 1503 0030 DBB2     		uxtb	r3, r3
 1504              	.LVL202:
 1505              	.LBB67:
 1506              	.LBB68:
 1507              		.file 2 "..\\..\\..\\liblc3\\src\\tables.h"
   1:..\..\..\liblc3\src/tables.h **** /******************************************************************************
   2:..\..\..\liblc3\src/tables.h ****  *
   3:..\..\..\liblc3\src/tables.h ****  *  Copyright 2022 Google LLC
   4:..\..\..\liblc3\src/tables.h ****  *
   5:..\..\..\liblc3\src/tables.h ****  *  Licensed under the Apache License, Version 2.0 (the "License");
   6:..\..\..\liblc3\src/tables.h ****  *  you may not use this file except in compliance with the License.
   7:..\..\..\liblc3\src/tables.h ****  *  You may obtain a copy of the License at:
   8:..\..\..\liblc3\src/tables.h ****  *
   9:..\..\..\liblc3\src/tables.h ****  *  http://www.apache.org/licenses/LICENSE-2.0
  10:..\..\..\liblc3\src/tables.h ****  *
  11:..\..\..\liblc3\src/tables.h ****  *  Unless required by applicable law or agreed to in writing, software
  12:..\..\..\liblc3\src/tables.h ****  *  distributed under the License is distributed on an "AS IS" BASIS,
  13:..\..\..\liblc3\src/tables.h ****  *  WITHOUT WARRANTIES OR CONDITIONS OF ANY KIND, either express or implied.
  14:..\..\..\liblc3\src/tables.h ****  *  See the License for the specific language governing permissions and
  15:..\..\..\liblc3\src/tables.h ****  *  limitations under the License.
  16:..\..\..\liblc3\src/tables.h ****  *
  17:..\..\..\liblc3\src/tables.h ****  ******************************************************************************/
  18:..\..\..\liblc3\src/tables.h **** 
  19:..\..\..\liblc3\src/tables.h **** #ifndef __LC3_TABLES_H
  20:..\..\..\liblc3\src/tables.h **** #define __LC3_TABLES_H
ARM GAS  C:\Users\rdn\AppData\Local\Temp\ccet7BYP.s 			page 34


  21:..\..\..\liblc3\src/tables.h **** 
  22:..\..\..\liblc3\src/tables.h **** #include "common.h"
  23:..\..\..\liblc3\src/tables.h **** #include "bits.h"
  24:..\..\..\liblc3\src/tables.h **** 
  25:..\..\..\liblc3\src/tables.h **** 
  26:..\..\..\liblc3\src/tables.h **** /**
  27:..\..\..\liblc3\src/tables.h ****  * Characteristics
  28:..\..\..\liblc3\src/tables.h ****  *
  29:..\..\..\liblc3\src/tables.h ****  *   ns   Number of temporal samples / frequency coefficients within a frame
  30:..\..\..\liblc3\src/tables.h ****  *
  31:..\..\..\liblc3\src/tables.h ****  *   ne   Number of encoded frequency coefficients
  32:..\..\..\liblc3\src/tables.h ****  *
  33:..\..\..\liblc3\src/tables.h ****  *   nd   Number of MDCT delayed samples, sum of half a frame and an ovelap
  34:..\..\..\liblc3\src/tables.h ****  *        of future by 1.25 ms (2.5ms, 5ms and 10ms frame durations),
  35:..\..\..\liblc3\src/tables.h ****  *        or 2 ms (7.5ms frame duration).
  36:..\..\..\liblc3\src/tables.h ****  *
  37:..\..\..\liblc3\src/tables.h ****  *   nh   Number of 18 ms samples of the history buffer, aligned on a frame
  38:..\..\..\liblc3\src/tables.h ****  *
  39:..\..\..\liblc3\src/tables.h ****  *   nt   Number of 1.25 ms previous samples
  40:..\..\..\liblc3\src/tables.h ****  */
  41:..\..\..\liblc3\src/tables.h **** 
  42:..\..\..\liblc3\src/tables.h **** extern const int lc3_ns_2m5[LC3_NUM_SRATE];
  43:..\..\..\liblc3\src/tables.h **** extern const int lc3_ne_2m5[LC3_NUM_SRATE];
  44:..\..\..\liblc3\src/tables.h **** extern const int lc3_ns_4m [LC3_NUM_SRATE];
  45:..\..\..\liblc3\src/tables.h **** 
  46:..\..\..\liblc3\src/tables.h **** static inline int lc3_ns(enum lc3_dt dt, enum lc3_srate sr) {
  47:..\..\..\liblc3\src/tables.h ****     return lc3_ns_2m5[sr] * (1 + dt);
  48:..\..\..\liblc3\src/tables.h **** }
  49:..\..\..\liblc3\src/tables.h **** 
  50:..\..\..\liblc3\src/tables.h **** static inline int lc3_ne(enum lc3_dt dt, enum lc3_srate sr) {
  51:..\..\..\liblc3\src/tables.h ****     return lc3_ne_2m5[sr] * (1 + dt);
 1508              		.loc 2 51 0 discriminator 6
 1509 0032 9B00     		lsls	r3, r3, #2
 1510              	.LVL203:
 1511 0034 3249     		ldr	r1, .L110
 1512              	.LVL204:
 1513 0036 5B58     		ldr	r3, [r3, r1]
 1514 0038 0130     		adds	r0, r0, #1
 1515              	.LVL205:
 1516 003a 4343     		muls	r3, r0
 1517              	.LVL206:
 1518              	.LBE68:
 1519              	.LBE67:
 1520              		.loc 1 306 0 discriminator 6
 1521 003c 1341     		asrs	r3, r3, r2
 1522 003e 0593     		str	r3, [sp, #20]
 1523              	.LVL207:
 307:..\..\..\liblc3\src/tns.c ****                 >> (nfilters - 1);
 308:..\..\..\liblc3\src/tns.c ****     int i0, ie = 3*(1 + dt);
 1524              		.loc 1 308 0 discriminator 6
 1525 0040 4300     		lsls	r3, r0, #1
 1526              	.LVL208:
 1527 0042 9846     		mov	r8, r3
 1528 0044 8044     		add	r8, r8, r0
 1529              	.LVL209:
 309:..\..\..\liblc3\src/tns.c **** 
 310:..\..\..\liblc3\src/tns.c ****     float s[8] = { 0 };
ARM GAS  C:\Users\rdn\AppData\Local\Temp\ccet7BYP.s 			page 35


 1530              		.loc 1 310 0 discriminator 6
 1531 0046 2022     		movs	r2, #32
 1532 0048 0021     		movs	r1, #0
 1533 004a 08A8     		add	r0, sp, #32
 1534 004c FFF7FEFF 		bl	memset
 1535              	.LVL210:
 1536              	.LBB69:
 311:..\..\..\liblc3\src/tns.c **** 
 312:..\..\..\liblc3\src/tns.c ****     for (int f = 0; f < nfilters; f++) {
 1537              		.loc 1 312 0 discriminator 6
 1538 0050 0023     		movs	r3, #0
 1539 0052 4AE0     		b	.L101
 1540              	.LVL211:
 1541              	.L107:
 313:..\..\..\liblc3\src/tns.c **** 
 314:..\..\..\liblc3\src/tns.c ****         i0 = ie;
 315:..\..\..\liblc3\src/tns.c ****         ie = nf * (1 + f);
 1542              		.loc 1 315 0
 1543 0054 5A1C     		adds	r2, r3, #1
 1544 0056 0392     		str	r2, [sp, #12]
 1545 0058 0599     		ldr	r1, [sp, #20]
 1546 005a 5143     		muls	r1, r2
 1547 005c 0291     		str	r1, [sp, #8]
 1548              	.LVL212:
 316:..\..\..\liblc3\src/tns.c **** 
 317:..\..\..\liblc3\src/tns.c ****         if (!rc_order[f])
 1549              		.loc 1 317 0
 1550 005e 9A46     		mov	r10, r3
 1551 0060 9B00     		lsls	r3, r3, #2
 1552              	.LVL213:
 1553 0062 069A     		ldr	r2, [sp, #24]
 1554 0064 D518     		adds	r5, r2, r3
 1555 0066 2B68     		ldr	r3, [r5]
 1556 0068 002B     		cmp	r3, #0
 1557 006a 3BD0     		beq	.L102
 1558 006c 2E00     		movs	r6, r5
 1559 006e 079B     		ldr	r3, [sp, #28]
 1560 0070 9B46     		mov	fp, r3
 1561 0072 34E0     		b	.L103
 1562              	.LVL214:
 1563              	.L106:
 1564              	.LBB70:
 1565              	.LBB71:
 318:..\..\..\liblc3\src/tns.c ****             continue;
 319:..\..\..\liblc3\src/tns.c **** 
 320:..\..\..\liblc3\src/tns.c ****         for (int i = i0; i < ie; i++) {
 321:..\..\..\liblc3\src/tns.c ****             float xi = x[i];
 1566              		.loc 1 321 0
 1567 0074 4346     		mov	r3, r8
 1568 0076 9B00     		lsls	r3, r3, #2
 1569 0078 1A9A     		ldr	r2, [sp, #104]
 1570 007a 9146     		mov	r9, r2
 1571 007c 9944     		add	r9, r9, r3
 1572 007e 4B46     		mov	r3, r9
 1573 0080 1B68     		ldr	r3, [r3]
 1574 0082 0093     		str	r3, [sp]
 1575              	.LVL215:
ARM GAS  C:\Users\rdn\AppData\Local\Temp\ccet7BYP.s 			page 36


 322:..\..\..\liblc3\src/tns.c ****             float s0, s1 = xi;
 1576              		.loc 1 322 0
 1577 0084 0193     		str	r3, [sp, #4]
 1578              	.LBB72:
 323:..\..\..\liblc3\src/tns.c **** 
 324:..\..\..\liblc3\src/tns.c ****             for (int k = 0; k < rc_order[f]; k++) {
 1579              		.loc 1 324 0
 1580 0086 0024     		movs	r4, #0
 1581 0088 2500     		movs	r5, r4
 1582 008a 4B46     		mov	r3, r9
 1583              	.LVL216:
 1584 008c C146     		mov	r9, r8
 1585 008e 9846     		mov	r8, r3
 1586              	.LVL217:
 1587 0090 1BE0     		b	.L104
 1588              	.LVL218:
 1589              	.L105:
 325:..\..\..\liblc3\src/tns.c ****                 s0 = s[k];
 1590              		.loc 1 325 0 discriminator 3
 1591 0092 AA00     		lsls	r2, r5, #2
 1592 0094 08AB     		add	r3, sp, #32
 1593 0096 D758     		ldr	r7, [r2, r3]
 1594              	.LVL219:
 326:..\..\..\liblc3\src/tns.c ****                 s[k] = s1;
 1595              		.loc 1 326 0 discriminator 3
 1596 0098 0199     		ldr	r1, [sp, #4]
 1597 009a D150     		str	r1, [r2, r3]
 327:..\..\..\liblc3\src/tns.c **** 
 328:..\..\..\liblc3\src/tns.c ****                 s1  = rc[f][k] * xi + s0;
 1598              		.loc 1 328 0 discriminator 3
 1599 009c 5346     		mov	r3, r10
 1600 009e 5B01     		lsls	r3, r3, #5
 1601 00a0 5B44     		add	r3, r3, fp
 1602 00a2 D458     		ldr	r4, [r2, r3]
 1603 00a4 211C     		adds	r1, r4, #0
 1604 00a6 0098     		ldr	r0, [sp]
 1605 00a8 FFF7FEFF 		bl	__aeabi_fmul
 1606              	.LVL220:
 1607 00ac 011C     		adds	r1, r0, #0
 1608 00ae 381C     		adds	r0, r7, #0
 1609 00b0 FFF7FEFF 		bl	__aeabi_fadd
 1610              	.LVL221:
 1611 00b4 0190     		str	r0, [sp, #4]
 1612              	.LVL222:
 329:..\..\..\liblc3\src/tns.c ****                 xi += rc[f][k] * s0;
 1613              		.loc 1 329 0 discriminator 3
 1614 00b6 211C     		adds	r1, r4, #0
 1615 00b8 381C     		adds	r0, r7, #0
 1616              	.LVL223:
 1617 00ba FFF7FEFF 		bl	__aeabi_fmul
 1618              	.LVL224:
 1619 00be 011C     		adds	r1, r0, #0
 1620 00c0 0098     		ldr	r0, [sp]
 1621 00c2 FFF7FEFF 		bl	__aeabi_fadd
 1622              	.LVL225:
 1623 00c6 0090     		str	r0, [sp]
 1624              	.LVL226:
ARM GAS  C:\Users\rdn\AppData\Local\Temp\ccet7BYP.s 			page 37


 324:..\..\..\liblc3\src/tns.c ****                 s0 = s[k];
 1625              		.loc 1 324 0 discriminator 3
 1626 00c8 0135     		adds	r5, r5, #1
 1627              	.LVL227:
 1628              	.L104:
 324:..\..\..\liblc3\src/tns.c ****                 s0 = s[k];
 1629              		.loc 1 324 0 is_stmt 0 discriminator 1
 1630 00ca 3368     		ldr	r3, [r6]
 1631 00cc 9D42     		cmp	r5, r3
 1632 00ce E0DB     		blt	.L105
 1633 00d0 4346     		mov	r3, r8
 1634 00d2 C846     		mov	r8, r9
 1635              	.LBE72:
 330:..\..\..\liblc3\src/tns.c ****             }
 331:..\..\..\liblc3\src/tns.c **** 
 332:..\..\..\liblc3\src/tns.c ****             x[i] = xi;
 1636              		.loc 1 332 0 is_stmt 1 discriminator 2
 1637 00d4 009A     		ldr	r2, [sp]
 1638 00d6 1A60     		str	r2, [r3]
 1639              	.LBE71:
 320:..\..\..\liblc3\src/tns.c ****             float xi = x[i];
 1640              		.loc 1 320 0 discriminator 2
 1641 00d8 0123     		movs	r3, #1
 1642 00da 9C46     		mov	ip, r3
 1643 00dc E044     		add	r8, r8, ip
 1644              	.LVL228:
 1645              	.L103:
 320:..\..\..\liblc3\src/tns.c ****             float xi = x[i];
 1646              		.loc 1 320 0 is_stmt 0 discriminator 1
 1647 00de 029B     		ldr	r3, [sp, #8]
 1648 00e0 9845     		cmp	r8, r3
 1649 00e2 C7DB     		blt	.L106
 1650              	.LVL229:
 1651              	.L102:
 1652              	.LBB74:
 1653              	.LBB73:
 324:..\..\..\liblc3\src/tns.c ****                 s0 = s[k];
 1654              		.loc 1 324 0 is_stmt 1 discriminator 1
 1655 00e4 039B     		ldr	r3, [sp, #12]
 1656 00e6 029A     		ldr	r2, [sp, #8]
 1657 00e8 9046     		mov	r8, r2
 1658              	.LVL230:
 1659              	.L101:
 1660              	.LBE73:
 1661              	.LBE74:
 1662              	.LBE70:
 312:..\..\..\liblc3\src/tns.c **** 
 1663              		.loc 1 312 0 discriminator 1
 1664 00ea 049A     		ldr	r2, [sp, #16]
 1665 00ec 9342     		cmp	r3, r2
 1666 00ee B1DB     		blt	.L107
 1667              	.LBE69:
 333:..\..\..\liblc3\src/tns.c ****         }
 334:..\..\..\liblc3\src/tns.c ****     }
 335:..\..\..\liblc3\src/tns.c **** }
 1668              		.loc 1 335 0
 1669 00f0 11B0     		add	sp, sp, #68
ARM GAS  C:\Users\rdn\AppData\Local\Temp\ccet7BYP.s 			page 38


 1670              		@ sp needed
 1671              	.LVL231:
 1672 00f2 3CBC     		pop	{r2, r3, r4, r5}
 1673 00f4 9046     		mov	r8, r2
 1674 00f6 9946     		mov	r9, r3
 1675 00f8 A246     		mov	r10, r4
 1676 00fa AB46     		mov	fp, r5
 1677 00fc F0BD     		pop	{r4, r5, r6, r7, pc}
 1678              	.L111:
 1679 00fe C046     		.align	2
 1680              	.L110:
 1681 0100 00000000 		.word	lc3_ne_2m5
 1682              		.cfi_endproc
 1683              	.LFE27:
 1684              		.size	forward_filtering, .-forward_filtering
 1685              		.section	.text.inverse_filtering,"ax",%progbits
 1686              		.align	2
 1687              		.code	16
 1688              		.thumb_func
 1689              		.type	inverse_filtering, %function
 1690              	inverse_filtering:
 1691              	.LFB28:
 336:..\..\..\liblc3\src/tns.c **** 
 337:..\..\..\liblc3\src/tns.c **** /**
 338:..\..\..\liblc3\src/tns.c ****  * Inverse filtering
 339:..\..\..\liblc3\src/tns.c ****  * dt, bw          Duration and bandwidth of the frame
 340:..\..\..\liblc3\src/tns.c ****  * rc_order, rc    Order of coefficients, and unquantized coefficients
 341:..\..\..\liblc3\src/tns.c ****  * x               Spectral coefficients, filtered as output
 342:..\..\..\liblc3\src/tns.c ****  */
 343:..\..\..\liblc3\src/tns.c **** LC3_HOT static void inverse_filtering(
 344:..\..\..\liblc3\src/tns.c ****     enum lc3_dt dt, enum lc3_bandwidth bw,
 345:..\..\..\liblc3\src/tns.c ****     const int rc_order[2], float (* const rc)[8], float *x)
 346:..\..\..\liblc3\src/tns.c **** {
 1692              		.loc 1 346 0
 1693              		.cfi_startproc
 1694              		@ args = 4, pretend = 0, frame = 64
 1695              		@ frame_needed = 0, uses_anonymous_args = 0
 1696              	.LVL232:
 1697 0000 F0B5     		push	{r4, r5, r6, r7, lr}
 1698              		.cfi_def_cfa_offset 20
 1699              		.cfi_offset 4, -20
 1700              		.cfi_offset 5, -16
 1701              		.cfi_offset 6, -12
 1702              		.cfi_offset 7, -8
 1703              		.cfi_offset 14, -4
 1704 0002 5F46     		mov	r7, fp
 1705 0004 5646     		mov	r6, r10
 1706 0006 4D46     		mov	r5, r9
 1707 0008 4446     		mov	r4, r8
 1708 000a F0B4     		push	{r4, r5, r6, r7}
 1709              		.cfi_def_cfa_offset 36
 1710              		.cfi_offset 8, -36
 1711              		.cfi_offset 9, -32
 1712              		.cfi_offset 10, -28
 1713              		.cfi_offset 11, -24
 1714 000c 91B0     		sub	sp, sp, #68
 1715              		.cfi_def_cfa_offset 104
ARM GAS  C:\Users\rdn\AppData\Local\Temp\ccet7BYP.s 			page 39


 1716 000e 0692     		str	r2, [sp, #24]
 1717 0010 0293     		str	r3, [sp, #8]
 347:..\..\..\liblc3\src/tns.c ****     int nfilters = 1 + (dt >= LC3_DT_5M && bw >= LC3_BANDWIDTH_SWB);
 1718              		.loc 1 347 0
 1719 0012 0028     		cmp	r0, #0
 1720 0014 03D0     		beq	.L124
 1721              		.loc 1 347 0 is_stmt 0 discriminator 1
 1722 0016 0229     		cmp	r1, #2
 1723 0018 03D8     		bhi	.L125
 1724              		.loc 1 347 0
 1725 001a 0022     		movs	r2, #0
 1726              	.LVL233:
 1727 001c 02E0     		b	.L113
 1728              	.LVL234:
 1729              	.L124:
 1730 001e 0022     		movs	r2, #0
 1731              	.LVL235:
 1732 0020 00E0     		b	.L113
 1733              	.LVL236:
 1734              	.L125:
 1735 0022 0122     		movs	r2, #1
 1736              	.LVL237:
 1737              	.L113:
 1738              		.loc 1 347 0 discriminator 6
 1739 0024 531C     		adds	r3, r2, #1
 1740              	.LVL238:
 1741 0026 0493     		str	r3, [sp, #16]
 1742              	.LVL239:
 348:..\..\..\liblc3\src/tns.c ****     int nf = lc3_ne(dt, (enum lc3_srate)LC3_MIN(bw, LC3_BANDWIDTH_FB))
 1743              		.loc 1 348 0 is_stmt 1 discriminator 6
 1744 0028 0B1C     		adds	r3, r1, #0
 1745              	.LVL240:
 1746 002a 0429     		cmp	r1, #4
 1747 002c 00D9     		bls	.L114
 1748 002e 0423     		movs	r3, #4
 1749              	.L114:
 1750 0030 DBB2     		uxtb	r3, r3
 1751              	.LVL241:
 1752              	.LBB75:
 1753              	.LBB76:
 1754              		.loc 2 51 0 discriminator 6
 1755 0032 9B00     		lsls	r3, r3, #2
 1756              	.LVL242:
 1757 0034 3C49     		ldr	r1, .L126
 1758              	.LVL243:
 1759 0036 5B58     		ldr	r3, [r3, r1]
 1760 0038 0130     		adds	r0, r0, #1
 1761              	.LVL244:
 1762 003a 4343     		muls	r3, r0
 1763              	.LVL245:
 1764              	.LBE76:
 1765              	.LBE75:
 1766              		.loc 1 348 0 discriminator 6
 1767 003c 1341     		asrs	r3, r3, r2
 1768 003e 0593     		str	r3, [sp, #20]
 1769              	.LVL246:
 349:..\..\..\liblc3\src/tns.c ****                 >> (nfilters - 1);
ARM GAS  C:\Users\rdn\AppData\Local\Temp\ccet7BYP.s 			page 40


 350:..\..\..\liblc3\src/tns.c ****     int i0, ie = 3*(1 + dt);
 1770              		.loc 1 350 0 discriminator 6
 1771 0040 4300     		lsls	r3, r0, #1
 1772              	.LVL247:
 1773 0042 1B18     		adds	r3, r3, r0
 1774 0044 1C00     		movs	r4, r3
 1775              	.LVL248:
 351:..\..\..\liblc3\src/tns.c **** 
 352:..\..\..\liblc3\src/tns.c ****     float s[8] = { 0 };
 1776              		.loc 1 352 0 discriminator 6
 1777 0046 2022     		movs	r2, #32
 1778 0048 0021     		movs	r1, #0
 1779 004a 08A8     		add	r0, sp, #32
 1780 004c FFF7FEFF 		bl	memset
 1781              	.LVL249:
 1782              	.LBB77:
 353:..\..\..\liblc3\src/tns.c **** 
 354:..\..\..\liblc3\src/tns.c ****     for (int f = 0; f < nfilters; f++) {
 1783              		.loc 1 354 0 discriminator 6
 1784 0050 0023     		movs	r3, #0
 1785 0052 5EE0     		b	.L115
 1786              	.LVL250:
 1787              	.L123:
 355:..\..\..\liblc3\src/tns.c **** 
 356:..\..\..\liblc3\src/tns.c ****         i0 = ie;
 357:..\..\..\liblc3\src/tns.c ****         ie = nf * (1 + f);
 1788              		.loc 1 357 0
 1789 0054 5A1C     		adds	r2, r3, #1
 1790 0056 0392     		str	r2, [sp, #12]
 1791 0058 0599     		ldr	r1, [sp, #20]
 1792 005a 5143     		muls	r1, r2
 1793 005c 8946     		mov	r9, r1
 1794              	.LVL251:
 358:..\..\..\liblc3\src/tns.c **** 
 359:..\..\..\liblc3\src/tns.c ****         if (!rc_order[f])
 1795              		.loc 1 359 0
 1796 005e 0193     		str	r3, [sp, #4]
 1797 0060 9B00     		lsls	r3, r3, #2
 1798              	.LVL252:
 1799 0062 069A     		ldr	r2, [sp, #24]
 1800 0064 9346     		mov	fp, r2
 1801 0066 9B44     		add	fp, fp, r3
 1802 0068 5B46     		mov	r3, fp
 1803 006a 1B68     		ldr	r3, [r3]
 1804 006c 002B     		cmp	r3, #0
 1805 006e 4ED0     		beq	.L116
 1806 0070 5B46     		mov	r3, fp
 1807 0072 0793     		str	r3, [sp, #28]
 1808 0074 A346     		mov	fp, r4
 1809 0076 3BE0     		b	.L117
 1810              	.LVL253:
 1811              	.L120:
 1812              	.LBB78:
 1813              	.LBB79:
 360:..\..\..\liblc3\src/tns.c ****             continue;
 361:..\..\..\liblc3\src/tns.c **** 
 362:..\..\..\liblc3\src/tns.c ****         for (int i = i0; i < ie; i++) {
ARM GAS  C:\Users\rdn\AppData\Local\Temp\ccet7BYP.s 			page 41


 363:..\..\..\liblc3\src/tns.c ****             float xi = x[i];
 1814              		.loc 1 363 0
 1815 0078 5B46     		mov	r3, fp
 1816 007a 9B00     		lsls	r3, r3, #2
 1817 007c 1A9A     		ldr	r2, [sp, #104]
 1818 007e 9246     		mov	r10, r2
 1819 0080 9A44     		add	r10, r10, r3
 1820 0082 5346     		mov	r3, r10
 1821 0084 1C68     		ldr	r4, [r3]
 1822              	.LVL254:
 364:..\..\..\liblc3\src/tns.c **** 
 365:..\..\..\liblc3\src/tns.c ****             xi -= s[7] * rc[f][7];
 1823              		.loc 1 365 0
 1824 0086 019B     		ldr	r3, [sp, #4]
 1825 0088 5B01     		lsls	r3, r3, #5
 1826 008a 029A     		ldr	r2, [sp, #8]
 1827 008c D518     		adds	r5, r2, r3
 1828 008e E969     		ldr	r1, [r5, #28]
 1829 0090 0F98     		ldr	r0, [sp, #60]
 1830 0092 FFF7FEFF 		bl	__aeabi_fmul
 1831              	.LVL255:
 1832 0096 011C     		adds	r1, r0, #0
 1833 0098 201C     		adds	r0, r4, #0
 1834 009a FFF7FEFF 		bl	__aeabi_fsub
 1835              	.LVL256:
 1836 009e 0090     		str	r0, [sp]
 1837              	.LVL257:
 1838              	.LBB80:
 366:..\..\..\liblc3\src/tns.c ****             for (int k = 6; k >= 0; k--) {
 1839              		.loc 1 366 0
 1840 00a0 0624     		movs	r4, #6
 1841 00a2 2E00     		movs	r6, r5
 1842 00a4 1BE0     		b	.L118
 1843              	.LVL258:
 1844              	.L119:
 367:..\..\..\liblc3\src/tns.c ****                 xi -= s[k] * rc[f][k];
 1845              		.loc 1 367 0 discriminator 3
 1846 00a6 A300     		lsls	r3, r4, #2
 1847 00a8 08AA     		add	r2, sp, #32
 1848 00aa 9F58     		ldr	r7, [r3, r2]
 1849 00ac 9D59     		ldr	r5, [r3, r6]
 1850 00ae 291C     		adds	r1, r5, #0
 1851 00b0 381C     		adds	r0, r7, #0
 1852 00b2 FFF7FEFF 		bl	__aeabi_fmul
 1853              	.LVL259:
 1854 00b6 011C     		adds	r1, r0, #0
 1855 00b8 0098     		ldr	r0, [sp]
 1856 00ba FFF7FEFF 		bl	__aeabi_fsub
 1857              	.LVL260:
 1858 00be 011C     		adds	r1, r0, #0
 1859 00c0 0090     		str	r0, [sp]
 1860              	.LVL261:
 368:..\..\..\liblc3\src/tns.c ****                 s[k+1] = s[k] + rc[f][k] * xi;
 1861              		.loc 1 368 0 discriminator 3
 1862 00c2 631C     		adds	r3, r4, #1
 1863 00c4 9846     		mov	r8, r3
 1864 00c6 281C     		adds	r0, r5, #0
ARM GAS  C:\Users\rdn\AppData\Local\Temp\ccet7BYP.s 			page 42


 1865              	.LVL262:
 1866 00c8 FFF7FEFF 		bl	__aeabi_fmul
 1867              	.LVL263:
 1868 00cc 011C     		adds	r1, r0, #0
 1869 00ce 381C     		adds	r0, r7, #0
 1870 00d0 FFF7FEFF 		bl	__aeabi_fadd
 1871              	.LVL264:
 1872 00d4 4346     		mov	r3, r8
 1873 00d6 9B00     		lsls	r3, r3, #2
 1874 00d8 08AA     		add	r2, sp, #32
 1875 00da 9850     		str	r0, [r3, r2]
 366:..\..\..\liblc3\src/tns.c ****             for (int k = 6; k >= 0; k--) {
 1876              		.loc 1 366 0 discriminator 3
 1877 00dc 013C     		subs	r4, r4, #1
 1878              	.LVL265:
 1879              	.L118:
 366:..\..\..\liblc3\src/tns.c ****             for (int k = 6; k >= 0; k--) {
 1880              		.loc 1 366 0 is_stmt 0 discriminator 1
 1881 00de 002C     		cmp	r4, #0
 1882 00e0 E1DA     		bge	.L119
 1883              	.LBE80:
 369:..\..\..\liblc3\src/tns.c ****             }
 370:..\..\..\liblc3\src/tns.c ****             s[0] = xi;
 1884              		.loc 1 370 0 is_stmt 1 discriminator 2
 1885 00e2 009B     		ldr	r3, [sp]
 1886 00e4 0893     		str	r3, [sp, #32]
 371:..\..\..\liblc3\src/tns.c ****             x[i] = xi;
 1887              		.loc 1 371 0 discriminator 2
 1888 00e6 5246     		mov	r2, r10
 1889 00e8 1360     		str	r3, [r2]
 1890              	.LBE79:
 362:..\..\..\liblc3\src/tns.c ****             float xi = x[i];
 1891              		.loc 1 362 0 discriminator 2
 1892 00ea 0123     		movs	r3, #1
 1893 00ec 9C46     		mov	ip, r3
 1894 00ee E344     		add	fp, fp, ip
 1895              	.LVL266:
 1896              	.L117:
 362:..\..\..\liblc3\src/tns.c ****             float xi = x[i];
 1897              		.loc 1 362 0 is_stmt 0 discriminator 1
 1898 00f0 CB45     		cmp	fp, r9
 1899 00f2 C1DB     		blt	.L120
 1900 00f4 079B     		ldr	r3, [sp, #28]
 1901 00f6 9B46     		mov	fp, r3
 1902              	.LVL267:
 1903 00f8 0723     		movs	r3, #7
 1904 00fa 5846     		mov	r0, fp
 1905 00fc 04E0     		b	.L121
 1906              	.LVL268:
 1907              	.L122:
 1908              	.LBE78:
 1909              	.LBB81:
 372:..\..\..\liblc3\src/tns.c ****         }
 373:..\..\..\liblc3\src/tns.c **** 
 374:..\..\..\liblc3\src/tns.c ****         for (int k = 7; k >= rc_order[f]; k--)
 375:..\..\..\liblc3\src/tns.c ****             s[k] = 0;
 1910              		.loc 1 375 0 is_stmt 1 discriminator 3
ARM GAS  C:\Users\rdn\AppData\Local\Temp\ccet7BYP.s 			page 43


 1911 00fe 9A00     		lsls	r2, r3, #2
 1912 0100 0021     		movs	r1, #0
 1913 0102 08AC     		add	r4, sp, #32
 1914 0104 1151     		str	r1, [r2, r4]
 374:..\..\..\liblc3\src/tns.c ****             s[k] = 0;
 1915              		.loc 1 374 0 discriminator 3
 1916 0106 013B     		subs	r3, r3, #1
 1917              	.LVL269:
 1918              	.L121:
 374:..\..\..\liblc3\src/tns.c ****             s[k] = 0;
 1919              		.loc 1 374 0 is_stmt 0 discriminator 1
 1920 0108 0268     		ldr	r2, [r0]
 1921 010a 9342     		cmp	r3, r2
 1922 010c F7DA     		bge	.L122
 1923              	.LVL270:
 1924              	.L116:
 1925              	.LBE81:
 1926              	.LBB82:
 1927 010e 039B     		ldr	r3, [sp, #12]
 1928 0110 4C46     		mov	r4, r9
 1929              	.LVL271:
 1930              	.L115:
 1931              	.LBE82:
 354:..\..\..\liblc3\src/tns.c **** 
 1932              		.loc 1 354 0 is_stmt 1 discriminator 1
 1933 0112 049A     		ldr	r2, [sp, #16]
 1934 0114 9342     		cmp	r3, r2
 1935 0116 9DDB     		blt	.L123
 1936              	.LBE77:
 376:..\..\..\liblc3\src/tns.c ****     }
 377:..\..\..\liblc3\src/tns.c **** }
 1937              		.loc 1 377 0
 1938 0118 11B0     		add	sp, sp, #68
 1939              		@ sp needed
 1940              	.LVL272:
 1941 011a 3CBC     		pop	{r2, r3, r4, r5}
 1942 011c 9046     		mov	r8, r2
 1943 011e 9946     		mov	r9, r3
 1944 0120 A246     		mov	r10, r4
 1945 0122 AB46     		mov	fp, r5
 1946 0124 F0BD     		pop	{r4, r5, r6, r7, pc}
 1947              	.L127:
 1948 0126 C046     		.align	2
 1949              	.L126:
 1950 0128 00000000 		.word	lc3_ne_2m5
 1951              		.cfi_endproc
 1952              	.LFE28:
 1953              		.size	inverse_filtering, .-inverse_filtering
 1954              		.global	__aeabi_fcmple
 1955              		.section	.text.lc3_tns_analyze,"ax",%progbits
 1956              		.align	2
 1957              		.global	lc3_tns_analyze
 1958              		.code	16
 1959              		.thumb_func
 1960              		.type	lc3_tns_analyze, %function
 1961              	lc3_tns_analyze:
 1962              	.LFB29:
ARM GAS  C:\Users\rdn\AppData\Local\Temp\ccet7BYP.s 			page 44


 378:..\..\..\liblc3\src/tns.c **** 
 379:..\..\..\liblc3\src/tns.c **** 
 380:..\..\..\liblc3\src/tns.c **** /* ----------------------------------------------------------------------------
 381:..\..\..\liblc3\src/tns.c ****  *  Interface
 382:..\..\..\liblc3\src/tns.c ****  * -------------------------------------------------------------------------- */
 383:..\..\..\liblc3\src/tns.c **** 
 384:..\..\..\liblc3\src/tns.c **** /**
 385:..\..\..\liblc3\src/tns.c ****  * TNS analysis
 386:..\..\..\liblc3\src/tns.c ****  */
 387:..\..\..\liblc3\src/tns.c **** void lc3_tns_analyze(enum lc3_dt dt, enum lc3_bandwidth bw,
 388:..\..\..\liblc3\src/tns.c ****     bool nn_flag, int nbytes, struct lc3_tns_data *data, float *x)
 389:..\..\..\liblc3\src/tns.c **** {
 1963              		.loc 1 389 0
 1964              		.cfi_startproc
 1965              		@ args = 8, pretend = 0, frame = 160
 1966              		@ frame_needed = 0, uses_anonymous_args = 0
 1967              	.LVL273:
 1968 0000 F0B5     		push	{r4, r5, r6, r7, lr}
 1969              		.cfi_def_cfa_offset 20
 1970              		.cfi_offset 4, -20
 1971              		.cfi_offset 5, -16
 1972              		.cfi_offset 6, -12
 1973              		.cfi_offset 7, -8
 1974              		.cfi_offset 14, -4
 1975 0002 5746     		mov	r7, r10
 1976 0004 80B4     		push	{r7}
 1977              		.cfi_def_cfa_offset 24
 1978              		.cfi_offset 10, -24
 1979 0006 AAB0     		sub	sp, sp, #168
 1980              		.cfi_def_cfa_offset 192
 1981 0008 0400     		movs	r4, r0
 1982 000a 0D00     		movs	r5, r1
 1983 000c 0291     		str	r1, [sp, #8]
 1984 000e 9246     		mov	r10, r2
 1985 0010 309F     		ldr	r7, [sp, #192]
 390:..\..\..\liblc3\src/tns.c ****     /* Processing steps :
 391:..\..\..\liblc3\src/tns.c ****      * - Determine the LPC (Linear Predictive Coding) Coefficients
 392:..\..\..\liblc3\src/tns.c ****      * - Check is the filtering is disabled
 393:..\..\..\liblc3\src/tns.c ****      * - The coefficients are weighted on low bitrates and predicition gain
 394:..\..\..\liblc3\src/tns.c ****      * - Convert to reflection coefficients and quantize
 395:..\..\..\liblc3\src/tns.c ****      * - Finally filter the spectral coefficients */
 396:..\..\..\liblc3\src/tns.c **** 
 397:..\..\..\liblc3\src/tns.c ****     float pred_gain[2], a[2][9];
 398:..\..\..\liblc3\src/tns.c ****     float rc[2][8];
 399:..\..\..\liblc3\src/tns.c **** 
 400:..\..\..\liblc3\src/tns.c ****     data->lpc_weighting = resolve_lpc_weighting(dt, nbytes);
 1986              		.loc 1 400 0
 1987 0012 1900     		movs	r1, r3
 1988              	.LVL274:
 1989 0014 FFF7FEFF 		bl	resolve_lpc_weighting
 1990              	.LVL275:
 1991 0018 3871     		strb	r0, [r7, #4]
 401:..\..\..\liblc3\src/tns.c ****     data->nfilters = 1 + (dt >= LC3_DT_5M && bw >= LC3_BANDWIDTH_SWB);
 1992              		.loc 1 401 0
 1993 001a 002C     		cmp	r4, #0
 1994 001c 03D0     		beq	.L136
 1995              		.loc 1 401 0 is_stmt 0 discriminator 1
ARM GAS  C:\Users\rdn\AppData\Local\Temp\ccet7BYP.s 			page 45


 1996 001e 022D     		cmp	r5, #2
 1997 0020 03D8     		bhi	.L137
 1998              		.loc 1 401 0
 1999 0022 0023     		movs	r3, #0
 2000 0024 02E0     		b	.L129
 2001              	.L136:
 2002 0026 0023     		movs	r3, #0
 2003 0028 00E0     		b	.L129
 2004              	.L137:
 2005 002a 0123     		movs	r3, #1
 2006              	.L129:
 2007              		.loc 1 401 0 discriminator 6
 2008 002c 0133     		adds	r3, r3, #1
 2009 002e 3B60     		str	r3, [r7]
 402:..\..\..\liblc3\src/tns.c ****     int maxorder = dt <= LC3_DT_5M ? 4 : 8;
 2010              		.loc 1 402 0 is_stmt 1 discriminator 6
 2011 0030 012C     		cmp	r4, #1
 2012 0032 02D8     		bhi	.L138
 2013              		.loc 1 402 0 is_stmt 0
 2014 0034 0423     		movs	r3, #4
 2015 0036 0393     		str	r3, [sp, #12]
 2016 0038 01E0     		b	.L130
 2017              	.L138:
 2018 003a 0823     		movs	r3, #8
 2019 003c 0393     		str	r3, [sp, #12]
 2020              	.L130:
 2021              	.LVL276:
 403:..\..\..\liblc3\src/tns.c **** 
 404:..\..\..\liblc3\src/tns.c ****     compute_lpc_coeffs(dt, bw, maxorder, x, pred_gain, a);
 2022              		.loc 1 404 0 is_stmt 1 discriminator 4
 2023 003e 16AB     		add	r3, sp, #88
 2024 0040 0193     		str	r3, [sp, #4]
 2025 0042 28AB     		add	r3, sp, #160
 2026 0044 0093     		str	r3, [sp]
 2027 0046 319B     		ldr	r3, [sp, #196]
 2028 0048 039A     		ldr	r2, [sp, #12]
 2029 004a 0299     		ldr	r1, [sp, #8]
 2030 004c 2000     		movs	r0, r4
 2031 004e FFF7FEFF 		bl	compute_lpc_coeffs
 2032              	.LVL277:
 2033              	.LBB83:
 405:..\..\..\liblc3\src/tns.c **** 
 406:..\..\..\liblc3\src/tns.c ****     for (int f = 0; f < data->nfilters; f++) {
 2034              		.loc 1 406 0 discriminator 4
 2035 0052 0026     		movs	r6, #0
 2036 0054 45E0     		b	.L131
 2037              	.LVL278:
 2038              	.L135:
 407:..\..\..\liblc3\src/tns.c **** 
 408:..\..\..\liblc3\src/tns.c ****         data->rc_order[f] = 0;
 2039              		.loc 1 408 0
 2040 0056 B31C     		adds	r3, r6, #2
 2041 0058 9B00     		lsls	r3, r3, #2
 2042 005a 0022     		movs	r2, #0
 2043 005c DA51     		str	r2, [r3, r7]
 409:..\..\..\liblc3\src/tns.c ****         if (nn_flag || pred_gain[f] <= 1.5f)
 2044              		.loc 1 409 0
ARM GAS  C:\Users\rdn\AppData\Local\Temp\ccet7BYP.s 			page 46


 2045 005e 5346     		mov	r3, r10
 2046 0060 002B     		cmp	r3, #0
 2047 0062 3DD1     		bne	.L132
 2048              		.loc 1 409 0 is_stmt 0 discriminator 1
 2049 0064 B300     		lsls	r3, r6, #2
 2050 0066 28AA     		add	r2, sp, #160
 2051 0068 9D58     		ldr	r5, [r3, r2]
 2052 006a FF21     		movs	r1, #255
 2053 006c 8905     		lsls	r1, r1, #22
 2054 006e 281C     		adds	r0, r5, #0
 2055 0070 FFF7FEFF 		bl	__aeabi_fcmple
 2056              	.LVL279:
 2057 0074 0028     		cmp	r0, #0
 2058 0076 33D1     		bne	.L132
 410:..\..\..\liblc3\src/tns.c ****             continue;
 411:..\..\..\liblc3\src/tns.c **** 
 412:..\..\..\liblc3\src/tns.c ****         if (data->lpc_weighting && pred_gain[f] < 2.f)
 2059              		.loc 1 412 0 is_stmt 1
 2060 0078 3B79     		ldrb	r3, [r7, #4]
 2061 007a 002B     		cmp	r3, #0
 2062 007c 0FD0     		beq	.L133
 2063              		.loc 1 412 0 is_stmt 0 discriminator 1
 2064 007e 8021     		movs	r1, #128
 2065 0080 C905     		lsls	r1, r1, #23
 2066 0082 281C     		adds	r0, r5, #0
 2067 0084 FFF7FEFF 		bl	__aeabi_fcmplt
 2068              	.LVL280:
 2069 0088 0028     		cmp	r0, #0
 2070 008a 08D0     		beq	.L133
 413:..\..\..\liblc3\src/tns.c ****             lpc_weighting(pred_gain[f], a[f]);
 2071              		.loc 1 413 0 is_stmt 1
 2072 008c F300     		lsls	r3, r6, #3
 2073 008e 9B19     		adds	r3, r3, r6
 2074 0090 9900     		lsls	r1, r3, #2
 2075 0092 16AB     		add	r3, sp, #88
 2076 0094 9C46     		mov	ip, r3
 2077 0096 6144     		add	r1, r1, ip
 2078 0098 281C     		adds	r0, r5, #0
 2079 009a FFF7FEFF 		bl	lpc_weighting
 2080              	.LVL281:
 2081              	.L133:
 414:..\..\..\liblc3\src/tns.c **** 
 415:..\..\..\liblc3\src/tns.c ****         lpc_reflection(a[f], maxorder, rc[f]);
 2082              		.loc 1 415 0
 2083 009e F300     		lsls	r3, r6, #3
 2084 00a0 9B19     		adds	r3, r3, r6
 2085 00a2 9800     		lsls	r0, r3, #2
 2086 00a4 16AB     		add	r3, sp, #88
 2087 00a6 9C46     		mov	ip, r3
 2088 00a8 6044     		add	r0, r0, ip
 2089 00aa 7501     		lsls	r5, r6, #5
 2090 00ac 06AB     		add	r3, sp, #24
 2091 00ae 9C46     		mov	ip, r3
 2092 00b0 AC44     		add	ip, ip, r5
 2093 00b2 6346     		mov	r3, ip
 2094 00b4 0493     		str	r3, [sp, #16]
 2095 00b6 6246     		mov	r2, ip
ARM GAS  C:\Users\rdn\AppData\Local\Temp\ccet7BYP.s 			page 47


 2096 00b8 0399     		ldr	r1, [sp, #12]
 2097 00ba FFF7FEFF 		bl	lpc_reflection
 2098              	.LVL282:
 416:..\..\..\liblc3\src/tns.c **** 
 417:..\..\..\liblc3\src/tns.c ****         quantize_rc(rc[f], maxorder, &data->rc_order[f], data->rc[f]);
 2099              		.loc 1 417 0
 2100 00be 1035     		adds	r5, r5, #16
 2101 00c0 7A19     		adds	r2, r7, r5
 2102 00c2 1000     		movs	r0, r2
 2103 00c4 B31C     		adds	r3, r6, #2
 2104 00c6 9D00     		lsls	r5, r3, #2
 2105 00c8 7A19     		adds	r2, r7, r5
 2106 00ca 0590     		str	r0, [sp, #20]
 2107 00cc 0300     		movs	r3, r0
 2108 00ce 0399     		ldr	r1, [sp, #12]
 2109 00d0 0498     		ldr	r0, [sp, #16]
 2110 00d2 FFF7FEFF 		bl	quantize_rc
 2111              	.LVL283:
 418:..\..\..\liblc3\src/tns.c ****         unquantize_rc(data->rc[f], data->rc_order[f], rc[f]);
 2112              		.loc 1 418 0
 2113 00d6 E959     		ldr	r1, [r5, r7]
 2114 00d8 049A     		ldr	r2, [sp, #16]
 2115 00da 0598     		ldr	r0, [sp, #20]
 2116 00dc FFF7FEFF 		bl	unquantize_rc
 2117              	.LVL284:
 2118              	.L132:
 406:..\..\..\liblc3\src/tns.c **** 
 2119              		.loc 1 406 0 discriminator 2
 2120 00e0 0136     		adds	r6, r6, #1
 2121              	.LVL285:
 2122              	.L131:
 406:..\..\..\liblc3\src/tns.c **** 
 2123              		.loc 1 406 0 is_stmt 0 discriminator 1
 2124 00e2 3B68     		ldr	r3, [r7]
 2125 00e4 9E42     		cmp	r6, r3
 2126 00e6 B6DB     		blt	.L135
 2127              	.LBE83:
 419:..\..\..\liblc3\src/tns.c ****     }
 420:..\..\..\liblc3\src/tns.c **** 
 421:..\..\..\liblc3\src/tns.c ****     forward_filtering(dt, bw, data->rc_order, rc, x);
 2128              		.loc 1 421 0 is_stmt 1
 2129 00e8 3A00     		movs	r2, r7
 2130 00ea 0832     		adds	r2, r2, #8
 2131 00ec 319B     		ldr	r3, [sp, #196]
 2132 00ee 0093     		str	r3, [sp]
 2133 00f0 06AB     		add	r3, sp, #24
 2134 00f2 0299     		ldr	r1, [sp, #8]
 2135 00f4 2000     		movs	r0, r4
 2136 00f6 FFF7FEFF 		bl	forward_filtering
 2137              	.LVL286:
 422:..\..\..\liblc3\src/tns.c **** }
 2138              		.loc 1 422 0
 2139 00fa 2AB0     		add	sp, sp, #168
 2140              		@ sp needed
 2141              	.LVL287:
 2142 00fc 04BC     		pop	{r2}
 2143 00fe 9246     		mov	r10, r2
ARM GAS  C:\Users\rdn\AppData\Local\Temp\ccet7BYP.s 			page 48


 2144 0100 F0BD     		pop	{r4, r5, r6, r7, pc}
 2145              		.cfi_endproc
 2146              	.LFE29:
 2147              		.size	lc3_tns_analyze, .-lc3_tns_analyze
 2148 0102 C046     		.section	.text.lc3_tns_synthesize,"ax",%progbits
 2149              		.align	2
 2150              		.global	lc3_tns_synthesize
 2151              		.code	16
 2152              		.thumb_func
 2153              		.type	lc3_tns_synthesize, %function
 2154              	lc3_tns_synthesize:
 2155              	.LFB30:
 423:..\..\..\liblc3\src/tns.c **** 
 424:..\..\..\liblc3\src/tns.c **** /**
 425:..\..\..\liblc3\src/tns.c ****  * TNS synthesis
 426:..\..\..\liblc3\src/tns.c ****  */
 427:..\..\..\liblc3\src/tns.c **** void lc3_tns_synthesize(enum lc3_dt dt, enum lc3_bandwidth bw,
 428:..\..\..\liblc3\src/tns.c ****     const struct lc3_tns_data *data, float *x)
 429:..\..\..\liblc3\src/tns.c **** {
 2156              		.loc 1 429 0
 2157              		.cfi_startproc
 2158              		@ args = 0, pretend = 0, frame = 72
 2159              		@ frame_needed = 0, uses_anonymous_args = 0
 2160              	.LVL288:
 2161 0000 F0B5     		push	{r4, r5, r6, r7, lr}
 2162              		.cfi_def_cfa_offset 20
 2163              		.cfi_offset 4, -20
 2164              		.cfi_offset 5, -16
 2165              		.cfi_offset 6, -12
 2166              		.cfi_offset 7, -8
 2167              		.cfi_offset 14, -4
 2168 0002 95B0     		sub	sp, sp, #84
 2169              		.cfi_def_cfa_offset 104
 2170 0004 0390     		str	r0, [sp, #12]
 2171 0006 0F00     		movs	r7, r1
 2172 0008 1500     		movs	r5, r2
 2173 000a 1E00     		movs	r6, r3
 430:..\..\..\liblc3\src/tns.c ****     float rc[2][8] = { 0 };
 2174              		.loc 1 430 0
 2175 000c 4022     		movs	r2, #64
 2176              	.LVL289:
 2177 000e 0021     		movs	r1, #0
 2178              	.LVL290:
 2179 0010 04A8     		add	r0, sp, #16
 2180              	.LVL291:
 2181 0012 FFF7FEFF 		bl	memset
 2182              	.LVL292:
 2183              	.LBB84:
 431:..\..\..\liblc3\src/tns.c **** 
 432:..\..\..\liblc3\src/tns.c ****     for (int f = 0; f < data->nfilters; f++)
 2184              		.loc 1 432 0
 2185 0016 0024     		movs	r4, #0
 2186 0018 0EE0     		b	.L141
 2187              	.LVL293:
 2188              	.L143:
 433:..\..\..\liblc3\src/tns.c ****         if (data->rc_order[f])
 2189              		.loc 1 433 0
ARM GAS  C:\Users\rdn\AppData\Local\Temp\ccet7BYP.s 			page 49


 2190 001a A31C     		adds	r3, r4, #2
 2191 001c 9B00     		lsls	r3, r3, #2
 2192 001e 5959     		ldr	r1, [r3, r5]
 2193 0020 0029     		cmp	r1, #0
 2194 0022 08D0     		beq	.L142
 434:..\..\..\liblc3\src/tns.c ****             unquantize_rc(data->rc[f], data->rc_order[f], rc[f]);
 2195              		.loc 1 434 0
 2196 0024 6201     		lsls	r2, r4, #5
 2197 0026 1000     		movs	r0, r2
 2198 0028 1030     		adds	r0, r0, #16
 2199 002a 2818     		adds	r0, r5, r0
 2200 002c 04AB     		add	r3, sp, #16
 2201 002e 9C46     		mov	ip, r3
 2202 0030 6244     		add	r2, r2, ip
 2203 0032 FFF7FEFF 		bl	unquantize_rc
 2204              	.LVL294:
 2205              	.L142:
 432:..\..\..\liblc3\src/tns.c ****         if (data->rc_order[f])
 2206              		.loc 1 432 0 discriminator 2
 2207 0036 0134     		adds	r4, r4, #1
 2208              	.LVL295:
 2209              	.L141:
 432:..\..\..\liblc3\src/tns.c ****         if (data->rc_order[f])
 2210              		.loc 1 432 0 is_stmt 0 discriminator 1
 2211 0038 2B68     		ldr	r3, [r5]
 2212 003a 9C42     		cmp	r4, r3
 2213 003c EDDB     		blt	.L143
 2214              	.LBE84:
 435:..\..\..\liblc3\src/tns.c **** 
 436:..\..\..\liblc3\src/tns.c ****     inverse_filtering(dt, bw, data->rc_order, rc, x);
 2215              		.loc 1 436 0 is_stmt 1
 2216 003e 2A00     		movs	r2, r5
 2217 0040 0832     		adds	r2, r2, #8
 2218 0042 0096     		str	r6, [sp]
 2219 0044 04AB     		add	r3, sp, #16
 2220 0046 3900     		movs	r1, r7
 2221 0048 0398     		ldr	r0, [sp, #12]
 2222 004a FFF7FEFF 		bl	inverse_filtering
 2223              	.LVL296:
 437:..\..\..\liblc3\src/tns.c **** }
 2224              		.loc 1 437 0
 2225 004e 15B0     		add	sp, sp, #84
 2226              		@ sp needed
 2227              	.LVL297:
 2228              	.LVL298:
 2229              	.LVL299:
 2230 0050 F0BD     		pop	{r4, r5, r6, r7, pc}
 2231              		.cfi_endproc
 2232              	.LFE30:
 2233              		.size	lc3_tns_synthesize, .-lc3_tns_synthesize
 2234 0052 C046     		.section	.text.lc3_tns_get_nbits,"ax",%progbits
 2235              		.align	2
 2236              		.global	lc3_tns_get_nbits
 2237              		.code	16
 2238              		.thumb_func
 2239              		.type	lc3_tns_get_nbits, %function
 2240              	lc3_tns_get_nbits:
ARM GAS  C:\Users\rdn\AppData\Local\Temp\ccet7BYP.s 			page 50


 2241              	.LFB31:
 438:..\..\..\liblc3\src/tns.c **** 
 439:..\..\..\liblc3\src/tns.c **** /**
 440:..\..\..\liblc3\src/tns.c ****  * Bit consumption of bitstream data
 441:..\..\..\liblc3\src/tns.c ****  */
 442:..\..\..\liblc3\src/tns.c **** int lc3_tns_get_nbits(const struct lc3_tns_data *data)
 443:..\..\..\liblc3\src/tns.c **** {
 2242              		.loc 1 443 0
 2243              		.cfi_startproc
 2244              		@ args = 0, pretend = 0, frame = 0
 2245              		@ frame_needed = 0, uses_anonymous_args = 0
 2246              	.LVL300:
 2247 0000 F0B5     		push	{r4, r5, r6, r7, lr}
 2248              		.cfi_def_cfa_offset 20
 2249              		.cfi_offset 4, -20
 2250              		.cfi_offset 5, -16
 2251              		.cfi_offset 6, -12
 2252              		.cfi_offset 7, -8
 2253              		.cfi_offset 14, -4
 2254              	.LVL301:
 2255              	.LBB85:
 444:..\..\..\liblc3\src/tns.c ****     int nbits = 0;
 445:..\..\..\liblc3\src/tns.c **** 
 446:..\..\..\liblc3\src/tns.c ****     for (int f = 0; f < data->nfilters; f++) {
 2256              		.loc 1 446 0
 2257 0002 0025     		movs	r5, #0
 2258              	.LBE85:
 444:..\..\..\liblc3\src/tns.c ****     int nbits = 0;
 2259              		.loc 1 444 0
 2260 0004 0027     		movs	r7, #0
 2261              	.LBB88:
 2262              		.loc 1 446 0
 2263 0006 2AE0     		b	.L145
 2264              	.LVL302:
 2265              	.L149:
 2266              	.LBB86:
 447:..\..\..\liblc3\src/tns.c **** 
 448:..\..\..\liblc3\src/tns.c ****         int nbits_2048 = 2048;
 449:..\..\..\liblc3\src/tns.c ****         int rc_order = data->rc_order[f];
 2267              		.loc 1 449 0
 2268 0008 AB1C     		adds	r3, r5, #2
 2269 000a 9B00     		lsls	r3, r3, #2
 2270 000c 1E58     		ldr	r6, [r3, r0]
 2271              	.LVL303:
 450:..\..\..\liblc3\src/tns.c **** 
 451:..\..\..\liblc3\src/tns.c ****         nbits_2048 += rc_order > 0 ? lc3_tns_order_bits
 452:..\..\..\liblc3\src/tns.c ****             [data->lpc_weighting][rc_order-1] : 0;
 2272              		.loc 1 452 0
 2273 000e 002E     		cmp	r6, #0
 2274 0010 07DD     		ble	.L150
 2275              		.loc 1 452 0 is_stmt 0 discriminator 1
 2276 0012 0279     		ldrb	r2, [r0, #4]
 2277 0014 731E     		subs	r3, r6, #1
 2278 0016 D200     		lsls	r2, r2, #3
 2279 0018 D318     		adds	r3, r2, r3
 2280 001a 5B00     		lsls	r3, r3, #1
 2281 001c 124A     		ldr	r2, .L151
ARM GAS  C:\Users\rdn\AppData\Local\Temp\ccet7BYP.s 			page 51


 2282 001e 9C5A     		ldrh	r4, [r3, r2]
 2283 0020 00E0     		b	.L146
 2284              	.L150:
 2285              		.loc 1 452 0
 2286 0022 0024     		movs	r4, #0
 2287              	.L146:
 451:..\..\..\liblc3\src/tns.c ****             [data->lpc_weighting][rc_order-1] : 0;
 2288              		.loc 1 451 0 is_stmt 1
 2289 0024 8023     		movs	r3, #128
 2290 0026 1B01     		lsls	r3, r3, #4
 2291 0028 9C46     		mov	ip, r3
 2292 002a 6444     		add	r4, r4, ip
 2293              	.LVL304:
 2294              	.LBB87:
 453:..\..\..\liblc3\src/tns.c **** 
 454:..\..\..\liblc3\src/tns.c ****         for (int i = 0; i < rc_order; i++)
 2295              		.loc 1 454 0
 2296 002c 0021     		movs	r1, #0
 2297 002e 0EE0     		b	.L147
 2298              	.LVL305:
 2299              	.L148:
 455:..\..\..\liblc3\src/tns.c ****             nbits_2048 += lc3_tns_coeffs_bits[i][8 + data->rc[f][i]];
 2300              		.loc 1 455 0 discriminator 3
 2301 0030 EB00     		lsls	r3, r5, #3
 2302 0032 5B18     		adds	r3, r3, r1
 2303 0034 0433     		adds	r3, r3, #4
 2304 0036 9B00     		lsls	r3, r3, #2
 2305 0038 1B58     		ldr	r3, [r3, r0]
 2306 003a 0833     		adds	r3, r3, #8
 2307 003c 1A00     		movs	r2, r3
 2308 003e 0B01     		lsls	r3, r1, #4
 2309 0040 5B18     		adds	r3, r3, r1
 2310 0042 9B18     		adds	r3, r3, r2
 2311 0044 5B00     		lsls	r3, r3, #1
 2312 0046 094A     		ldr	r2, .L151+4
 2313 0048 9B5A     		ldrh	r3, [r3, r2]
 2314 004a E418     		adds	r4, r4, r3
 2315              	.LVL306:
 454:..\..\..\liblc3\src/tns.c ****             nbits_2048 += lc3_tns_coeffs_bits[i][8 + data->rc[f][i]];
 2316              		.loc 1 454 0 discriminator 3
 2317 004c 0131     		adds	r1, r1, #1
 2318              	.LVL307:
 2319              	.L147:
 454:..\..\..\liblc3\src/tns.c ****             nbits_2048 += lc3_tns_coeffs_bits[i][8 + data->rc[f][i]];
 2320              		.loc 1 454 0 is_stmt 0 discriminator 1
 2321 004e B142     		cmp	r1, r6
 2322 0050 EEDB     		blt	.L148
 2323              	.LBE87:
 456:..\..\..\liblc3\src/tns.c **** 
 457:..\..\..\liblc3\src/tns.c ****         nbits += (nbits_2048 + (1 << 11) - 1) >> 11;
 2324              		.loc 1 457 0 is_stmt 1 discriminator 2
 2325 0052 074B     		ldr	r3, .L151+8
 2326 0054 9C46     		mov	ip, r3
 2327 0056 6444     		add	r4, r4, ip
 2328              	.LVL308:
 2329 0058 E412     		asrs	r4, r4, #11
 2330              	.LVL309:
ARM GAS  C:\Users\rdn\AppData\Local\Temp\ccet7BYP.s 			page 52


 2331 005a 3F19     		adds	r7, r7, r4
 2332              	.LVL310:
 2333              	.LBE86:
 446:..\..\..\liblc3\src/tns.c **** 
 2334              		.loc 1 446 0 discriminator 2
 2335 005c 0135     		adds	r5, r5, #1
 2336              	.LVL311:
 2337              	.L145:
 446:..\..\..\liblc3\src/tns.c **** 
 2338              		.loc 1 446 0 is_stmt 0 discriminator 1
 2339 005e 0368     		ldr	r3, [r0]
 2340 0060 9D42     		cmp	r5, r3
 2341 0062 D1DB     		blt	.L149
 2342              	.LBE88:
 458:..\..\..\liblc3\src/tns.c ****     }
 459:..\..\..\liblc3\src/tns.c **** 
 460:..\..\..\liblc3\src/tns.c ****     return nbits;
 461:..\..\..\liblc3\src/tns.c **** }
 2343              		.loc 1 461 0 is_stmt 1
 2344 0064 3800     		movs	r0, r7
 2345              	.LVL312:
 2346              		@ sp needed
 2347              	.LVL313:
 2348              	.LVL314:
 2349 0066 F0BD     		pop	{r4, r5, r6, r7, pc}
 2350              	.L152:
 2351              		.align	2
 2352              	.L151:
 2353 0068 00000000 		.word	lc3_tns_order_bits
 2354 006c 00000000 		.word	lc3_tns_coeffs_bits
 2355 0070 FF070000 		.word	2047
 2356              		.cfi_endproc
 2357              	.LFE31:
 2358              		.size	lc3_tns_get_nbits, .-lc3_tns_get_nbits
 2359              		.section	.text.lc3_tns_put_data,"ax",%progbits
 2360              		.align	2
 2361              		.global	lc3_tns_put_data
 2362              		.code	16
 2363              		.thumb_func
 2364              		.type	lc3_tns_put_data, %function
 2365              	lc3_tns_put_data:
 2366              	.LFB32:
 462:..\..\..\liblc3\src/tns.c **** 
 463:..\..\..\liblc3\src/tns.c **** /**
 464:..\..\..\liblc3\src/tns.c ****  * Put bitstream data
 465:..\..\..\liblc3\src/tns.c ****  */
 466:..\..\..\liblc3\src/tns.c **** void lc3_tns_put_data(lc3_bits_t *bits, const struct lc3_tns_data *data)
 467:..\..\..\liblc3\src/tns.c **** {
 2367              		.loc 1 467 0
 2368              		.cfi_startproc
 2369              		@ args = 0, pretend = 0, frame = 0
 2370              		@ frame_needed = 0, uses_anonymous_args = 0
 2371              	.LVL315:
 2372 0000 F0B5     		push	{r4, r5, r6, r7, lr}
 2373              		.cfi_def_cfa_offset 20
 2374              		.cfi_offset 4, -20
 2375              		.cfi_offset 5, -16
ARM GAS  C:\Users\rdn\AppData\Local\Temp\ccet7BYP.s 			page 53


 2376              		.cfi_offset 6, -12
 2377              		.cfi_offset 7, -8
 2378              		.cfi_offset 14, -4
 2379 0002 4746     		mov	r7, r8
 2380 0004 80B4     		push	{r7}
 2381              		.cfi_def_cfa_offset 24
 2382              		.cfi_offset 8, -24
 2383 0006 0400     		movs	r4, r0
 2384 0008 8846     		mov	r8, r1
 2385              	.LVL316:
 2386              	.LBB98:
 468:..\..\..\liblc3\src/tns.c ****     for (int f = 0; f < data->nfilters; f++) {
 2387              		.loc 1 468 0
 2388 000a 0027     		movs	r7, #0
 2389 000c 66E0     		b	.L154
 2390              	.LVL317:
 2391              	.L161:
 2392              	.LBB99:
 469:..\..\..\liblc3\src/tns.c ****         int rc_order = data->rc_order[f];
 2393              		.loc 1 469 0
 2394 000e BB1C     		adds	r3, r7, #2
 2395 0010 9B00     		lsls	r3, r3, #2
 2396 0012 4246     		mov	r2, r8
 2397 0014 9E58     		ldr	r6, [r3, r2]
 2398              	.LVL318:
 470:..\..\..\liblc3\src/tns.c **** 
 471:..\..\..\liblc3\src/tns.c ****         lc3_put_bits(bits, rc_order > 0, 1);
 2399              		.loc 1 471 0
 2400 0016 F117     		asrs	r1, r6, #31
 2401 0018 891B     		subs	r1, r1, r6
 2402 001a C90F     		lsrs	r1, r1, #31
 2403              	.LVL319:
 2404              	.LBB100:
 2405              	.LBB101:
 2406              		.file 3 "..\\..\\..\\liblc3\\src\\bits.h"
   1:..\..\..\liblc3\src/bits.h **** /******************************************************************************
   2:..\..\..\liblc3\src/bits.h ****  *
   3:..\..\..\liblc3\src/bits.h ****  *  Copyright 2022 Google LLC
   4:..\..\..\liblc3\src/bits.h ****  *
   5:..\..\..\liblc3\src/bits.h ****  *  Licensed under the Apache License, Version 2.0 (the "License");
   6:..\..\..\liblc3\src/bits.h ****  *  you may not use this file except in compliance with the License.
   7:..\..\..\liblc3\src/bits.h ****  *  You may obtain a copy of the License at:
   8:..\..\..\liblc3\src/bits.h ****  *
   9:..\..\..\liblc3\src/bits.h ****  *  http://www.apache.org/licenses/LICENSE-2.0
  10:..\..\..\liblc3\src/bits.h ****  *
  11:..\..\..\liblc3\src/bits.h ****  *  Unless required by applicable law or agreed to in writing, software
  12:..\..\..\liblc3\src/bits.h ****  *  distributed under the License is distributed on an "AS IS" BASIS,
  13:..\..\..\liblc3\src/bits.h ****  *  WITHOUT WARRANTIES OR CONDITIONS OF ANY KIND, either express or implied.
  14:..\..\..\liblc3\src/bits.h ****  *  See the License for the specific language governing permissions and
  15:..\..\..\liblc3\src/bits.h ****  *  limitations under the License.
  16:..\..\..\liblc3\src/bits.h ****  *
  17:..\..\..\liblc3\src/bits.h ****  ******************************************************************************/
  18:..\..\..\liblc3\src/bits.h **** 
  19:..\..\..\liblc3\src/bits.h **** /**
  20:..\..\..\liblc3\src/bits.h ****  * The bitstream is written by the 2 ends of the buffer :
  21:..\..\..\liblc3\src/bits.h ****  *
  22:..\..\..\liblc3\src/bits.h ****  * - Arthmetic coder put bits while increasing memory addresses
ARM GAS  C:\Users\rdn\AppData\Local\Temp\ccet7BYP.s 			page 54


  23:..\..\..\liblc3\src/bits.h ****  *   in the buffer (forward)
  24:..\..\..\liblc3\src/bits.h ****  *
  25:..\..\..\liblc3\src/bits.h ****  * - Plain bits are puts starting the end of the buffer, with memeory
  26:..\..\..\liblc3\src/bits.h ****  *   addresses decreasing (backward)
  27:..\..\..\liblc3\src/bits.h ****  *
  28:..\..\..\liblc3\src/bits.h ****  *       .---------------------------------------------------.
  29:..\..\..\liblc3\src/bits.h ****  *       | > > > > > > > > > > :         : < < < < < < < < < |
  30:..\..\..\liblc3\src/bits.h ****  *       '---------------------------------------------------'
  31:..\..\..\liblc3\src/bits.h ****  *       |---------------------> - - - - - - - - - - - - - ->|
  32:..\..\..\liblc3\src/bits.h ****  *                              |< - - - <-------------------|
  33:..\..\..\liblc3\src/bits.h ****  *          Arithmetic coding                  Plain bits
  34:..\..\..\liblc3\src/bits.h ****  *          `lc3_put_symbol()`               `lc3_put_bits()`
  35:..\..\..\liblc3\src/bits.h ****  *
  36:..\..\..\liblc3\src/bits.h ****  * - The forward writing is protected against buffer overflow, it cannot
  37:..\..\..\liblc3\src/bits.h ****  *   write after the buffer, but can overwrite plain bits previously
  38:..\..\..\liblc3\src/bits.h ****  *   written in the buffer.
  39:..\..\..\liblc3\src/bits.h ****  *
  40:..\..\..\liblc3\src/bits.h ****  * - The backward writing is protected against overwrite of the arithmetic
  41:..\..\..\liblc3\src/bits.h ****  *   coder bitstream. In such way, the backward bitstream is always limited
  42:..\..\..\liblc3\src/bits.h ****  *   by the aritmetic coder bitstream, and can be overwritten by him.
  43:..\..\..\liblc3\src/bits.h ****  *
  44:..\..\..\liblc3\src/bits.h ****  *       .---------------------------------------------------.
  45:..\..\..\liblc3\src/bits.h ****  *       | > > > > > > > > > > :         : < < < < < < < < < |
  46:..\..\..\liblc3\src/bits.h ****  *       '---------------------------------------------------'
  47:..\..\..\liblc3\src/bits.h ****  *       |---------------------> - - - - - - - - - - - - - ->|
  48:..\..\..\liblc3\src/bits.h ****  *       |< - - - - - - - - - - -  - - - <-------------------|
  49:..\..\..\liblc3\src/bits.h ****  *          Arithmetic coding                  Plain bits
  50:..\..\..\liblc3\src/bits.h ****  *          `lc3_get_symbol()`               `lc3_get_bits()`
  51:..\..\..\liblc3\src/bits.h ****  *
  52:..\..\..\liblc3\src/bits.h ****  * - Reading is limited to read of the complementary end of the buffer.
  53:..\..\..\liblc3\src/bits.h ****  *
  54:..\..\..\liblc3\src/bits.h ****  * - The procedure `lc3_check_bits()` returns indication that read has been
  55:..\..\..\liblc3\src/bits.h ****  *   made crossing the other bit plane.
  56:..\..\..\liblc3\src/bits.h ****  *
  57:..\..\..\liblc3\src/bits.h ****  */
  58:..\..\..\liblc3\src/bits.h **** 
  59:..\..\..\liblc3\src/bits.h **** #ifndef __LC3_BITS_H
  60:..\..\..\liblc3\src/bits.h **** #define __LC3_BITS_H
  61:..\..\..\liblc3\src/bits.h **** 
  62:..\..\..\liblc3\src/bits.h **** #include "common.h"
  63:..\..\..\liblc3\src/bits.h **** 
  64:..\..\..\liblc3\src/bits.h **** 
  65:..\..\..\liblc3\src/bits.h **** /**
  66:..\..\..\liblc3\src/bits.h ****  * Bitstream mode
  67:..\..\..\liblc3\src/bits.h ****  */
  68:..\..\..\liblc3\src/bits.h **** 
  69:..\..\..\liblc3\src/bits.h **** enum lc3_bits_mode {
  70:..\..\..\liblc3\src/bits.h ****     LC3_BITS_MODE_READ,
  71:..\..\..\liblc3\src/bits.h ****     LC3_BITS_MODE_WRITE,
  72:..\..\..\liblc3\src/bits.h **** };
  73:..\..\..\liblc3\src/bits.h **** 
  74:..\..\..\liblc3\src/bits.h **** /**
  75:..\..\..\liblc3\src/bits.h ****  * Arithmetic coder symbol interval
  76:..\..\..\liblc3\src/bits.h ****  * The model split the interval in 17 symbols
  77:..\..\..\liblc3\src/bits.h ****  */
  78:..\..\..\liblc3\src/bits.h **** 
  79:..\..\..\liblc3\src/bits.h **** struct lc3_ac_symbol {
ARM GAS  C:\Users\rdn\AppData\Local\Temp\ccet7BYP.s 			page 55


  80:..\..\..\liblc3\src/bits.h ****     uint16_t low   : 16;
  81:..\..\..\liblc3\src/bits.h ****     uint16_t range : 16;
  82:..\..\..\liblc3\src/bits.h **** };
  83:..\..\..\liblc3\src/bits.h **** 
  84:..\..\..\liblc3\src/bits.h **** struct lc3_ac_model {
  85:..\..\..\liblc3\src/bits.h ****     struct lc3_ac_symbol s[17];
  86:..\..\..\liblc3\src/bits.h **** };
  87:..\..\..\liblc3\src/bits.h **** 
  88:..\..\..\liblc3\src/bits.h **** /**
  89:..\..\..\liblc3\src/bits.h ****  * Bitstream context
  90:..\..\..\liblc3\src/bits.h ****  */
  91:..\..\..\liblc3\src/bits.h **** 
  92:..\..\..\liblc3\src/bits.h **** #define LC3_ACCU_BITS (int)(8 * sizeof(unsigned))
  93:..\..\..\liblc3\src/bits.h **** 
  94:..\..\..\liblc3\src/bits.h **** struct lc3_bits_accu {
  95:..\..\..\liblc3\src/bits.h ****     unsigned v;
  96:..\..\..\liblc3\src/bits.h ****     int n, nover;
  97:..\..\..\liblc3\src/bits.h **** };
  98:..\..\..\liblc3\src/bits.h **** 
  99:..\..\..\liblc3\src/bits.h **** #define LC3_AC_BITS (int)(24)
 100:..\..\..\liblc3\src/bits.h **** 
 101:..\..\..\liblc3\src/bits.h **** struct lc3_bits_ac {
 102:..\..\..\liblc3\src/bits.h ****     unsigned low, range;
 103:..\..\..\liblc3\src/bits.h ****     int cache, carry, carry_count;
 104:..\..\..\liblc3\src/bits.h ****     bool error;
 105:..\..\..\liblc3\src/bits.h **** };
 106:..\..\..\liblc3\src/bits.h **** 
 107:..\..\..\liblc3\src/bits.h **** struct lc3_bits_buffer {
 108:..\..\..\liblc3\src/bits.h ****     const uint8_t *start, *end;
 109:..\..\..\liblc3\src/bits.h ****     uint8_t *p_fw, *p_bw;
 110:..\..\..\liblc3\src/bits.h **** };
 111:..\..\..\liblc3\src/bits.h **** 
 112:..\..\..\liblc3\src/bits.h **** typedef struct lc3_bits {
 113:..\..\..\liblc3\src/bits.h ****     enum lc3_bits_mode mode;
 114:..\..\..\liblc3\src/bits.h ****     struct lc3_bits_ac ac;
 115:..\..\..\liblc3\src/bits.h ****     struct lc3_bits_accu accu;
 116:..\..\..\liblc3\src/bits.h ****     struct lc3_bits_buffer buffer;
 117:..\..\..\liblc3\src/bits.h **** } lc3_bits_t;
 118:..\..\..\liblc3\src/bits.h **** 
 119:..\..\..\liblc3\src/bits.h **** 
 120:..\..\..\liblc3\src/bits.h **** /**
 121:..\..\..\liblc3\src/bits.h ****  * Setup bitstream reading/writing
 122:..\..\..\liblc3\src/bits.h ****  * bits            Bitstream context
 123:..\..\..\liblc3\src/bits.h ****  * mode            Either READ or WRITE mode
 124:..\..\..\liblc3\src/bits.h ****  * buffer, len     Output buffer and length (in bytes)
 125:..\..\..\liblc3\src/bits.h ****  */
 126:..\..\..\liblc3\src/bits.h **** void lc3_setup_bits(lc3_bits_t *bits,
 127:..\..\..\liblc3\src/bits.h ****     enum lc3_bits_mode mode, void *buffer, int len);
 128:..\..\..\liblc3\src/bits.h **** 
 129:..\..\..\liblc3\src/bits.h **** /**
 130:..\..\..\liblc3\src/bits.h ****  * Return number of bits left in the bitstream
 131:..\..\..\liblc3\src/bits.h ****  * bits            Bitstream context
 132:..\..\..\liblc3\src/bits.h ****  * return          Number of bits left
 133:..\..\..\liblc3\src/bits.h ****  */
 134:..\..\..\liblc3\src/bits.h **** int lc3_get_bits_left(const lc3_bits_t *bits);
 135:..\..\..\liblc3\src/bits.h **** 
 136:..\..\..\liblc3\src/bits.h **** /**
ARM GAS  C:\Users\rdn\AppData\Local\Temp\ccet7BYP.s 			page 56


 137:..\..\..\liblc3\src/bits.h ****  * Check if error occured on bitstream reading/writing
 138:..\..\..\liblc3\src/bits.h ****  * bits            Bitstream context
 139:..\..\..\liblc3\src/bits.h ****  * return          0: Ok  -1: Bitstream overflow or AC reading error
 140:..\..\..\liblc3\src/bits.h ****  */
 141:..\..\..\liblc3\src/bits.h **** int lc3_check_bits(const lc3_bits_t *bits);
 142:..\..\..\liblc3\src/bits.h **** 
 143:..\..\..\liblc3\src/bits.h **** /**
 144:..\..\..\liblc3\src/bits.h ****  * Put a bit
 145:..\..\..\liblc3\src/bits.h ****  * bits            Bitstream context
 146:..\..\..\liblc3\src/bits.h ****  * v               Bit value, 0 or 1
 147:..\..\..\liblc3\src/bits.h ****  */
 148:..\..\..\liblc3\src/bits.h **** static inline void lc3_put_bit(lc3_bits_t *bits, int v);
 149:..\..\..\liblc3\src/bits.h **** 
 150:..\..\..\liblc3\src/bits.h **** /**
 151:..\..\..\liblc3\src/bits.h ****  * Put from 1 to 32 bits
 152:..\..\..\liblc3\src/bits.h ****  * bits            Bitstream context
 153:..\..\..\liblc3\src/bits.h ****  * v, n            Value, in range 0 to 2^n - 1, and bits count (1 to 32)
 154:..\..\..\liblc3\src/bits.h ****  */
 155:..\..\..\liblc3\src/bits.h **** static inline void lc3_put_bits(lc3_bits_t *bits, unsigned v, int n);
 156:..\..\..\liblc3\src/bits.h **** 
 157:..\..\..\liblc3\src/bits.h **** /**
 158:..\..\..\liblc3\src/bits.h ****  * Put arithmetic coder symbol
 159:..\..\..\liblc3\src/bits.h ****  * bits            Bitstream context
 160:..\..\..\liblc3\src/bits.h ****  * model, s        Model distribution and symbol value
 161:..\..\..\liblc3\src/bits.h ****  */
 162:..\..\..\liblc3\src/bits.h **** static inline void lc3_put_symbol(lc3_bits_t *bits,
 163:..\..\..\liblc3\src/bits.h ****     const struct lc3_ac_model *model, unsigned s);
 164:..\..\..\liblc3\src/bits.h **** 
 165:..\..\..\liblc3\src/bits.h **** /**
 166:..\..\..\liblc3\src/bits.h ****  * Flush and terminate bitstream writing
 167:..\..\..\liblc3\src/bits.h ****  * bits            Bitstream context
 168:..\..\..\liblc3\src/bits.h ****  */
 169:..\..\..\liblc3\src/bits.h **** void lc3_flush_bits(lc3_bits_t *bits);
 170:..\..\..\liblc3\src/bits.h **** 
 171:..\..\..\liblc3\src/bits.h **** /**
 172:..\..\..\liblc3\src/bits.h ****  * Get a bit
 173:..\..\..\liblc3\src/bits.h ****  * bits            Bitstream context
 174:..\..\..\liblc3\src/bits.h ****  */
 175:..\..\..\liblc3\src/bits.h **** static inline int lc3_get_bit(lc3_bits_t *bits);
 176:..\..\..\liblc3\src/bits.h **** 
 177:..\..\..\liblc3\src/bits.h **** /**
 178:..\..\..\liblc3\src/bits.h ****  * Get from 1 to 32 bits
 179:..\..\..\liblc3\src/bits.h ****  * bits            Bitstream context
 180:..\..\..\liblc3\src/bits.h ****  * n               Number of bits to read (1 to 32)
 181:..\..\..\liblc3\src/bits.h ****  * return          The value read
 182:..\..\..\liblc3\src/bits.h ****  */
 183:..\..\..\liblc3\src/bits.h **** static inline unsigned lc3_get_bits(lc3_bits_t *bits,  int n);
 184:..\..\..\liblc3\src/bits.h **** 
 185:..\..\..\liblc3\src/bits.h **** /**
 186:..\..\..\liblc3\src/bits.h ****  * Get arithmetic coder symbol
 187:..\..\..\liblc3\src/bits.h ****  * bits            Bitstream context
 188:..\..\..\liblc3\src/bits.h ****  * model           Model distribution
 189:..\..\..\liblc3\src/bits.h ****  * return          The value read
 190:..\..\..\liblc3\src/bits.h ****  */
 191:..\..\..\liblc3\src/bits.h **** static inline unsigned lc3_get_symbol(lc3_bits_t *bits,
 192:..\..\..\liblc3\src/bits.h ****     const struct lc3_ac_model *model);
 193:..\..\..\liblc3\src/bits.h **** 
ARM GAS  C:\Users\rdn\AppData\Local\Temp\ccet7BYP.s 			page 57


 194:..\..\..\liblc3\src/bits.h **** 
 195:..\..\..\liblc3\src/bits.h **** 
 196:..\..\..\liblc3\src/bits.h **** /* ----------------------------------------------------------------------------
 197:..\..\..\liblc3\src/bits.h ****  *  Inline implementations
 198:..\..\..\liblc3\src/bits.h ****  * -------------------------------------------------------------------------- */
 199:..\..\..\liblc3\src/bits.h **** 
 200:..\..\..\liblc3\src/bits.h **** void lc3_put_bits_generic(lc3_bits_t *bits, unsigned v, int n);
 201:..\..\..\liblc3\src/bits.h **** unsigned lc3_get_bits_generic(struct lc3_bits *bits, int n);
 202:..\..\..\liblc3\src/bits.h **** 
 203:..\..\..\liblc3\src/bits.h **** void lc3_ac_read_renorm(lc3_bits_t *bits);
 204:..\..\..\liblc3\src/bits.h **** void lc3_ac_write_renorm(lc3_bits_t *bits);
 205:..\..\..\liblc3\src/bits.h **** 
 206:..\..\..\liblc3\src/bits.h **** 
 207:..\..\..\liblc3\src/bits.h **** /**
 208:..\..\..\liblc3\src/bits.h ****  * Put a bit
 209:..\..\..\liblc3\src/bits.h ****  */
 210:..\..\..\liblc3\src/bits.h **** LC3_HOT static inline void lc3_put_bit(lc3_bits_t *bits, int v)
 211:..\..\..\liblc3\src/bits.h **** {
 212:..\..\..\liblc3\src/bits.h ****     lc3_put_bits(bits, v, 1);
 213:..\..\..\liblc3\src/bits.h **** }
 214:..\..\..\liblc3\src/bits.h **** 
 215:..\..\..\liblc3\src/bits.h **** /**
 216:..\..\..\liblc3\src/bits.h ****  * Put from 1 to 32 bits
 217:..\..\..\liblc3\src/bits.h ****  */
 218:..\..\..\liblc3\src/bits.h **** LC3_HOT static inline void lc3_put_bits(
 219:..\..\..\liblc3\src/bits.h ****     struct lc3_bits *bits, unsigned v, int n)
 220:..\..\..\liblc3\src/bits.h **** {
 221:..\..\..\liblc3\src/bits.h ****     struct lc3_bits_accu *accu = &bits->accu;
 222:..\..\..\liblc3\src/bits.h **** 
 223:..\..\..\liblc3\src/bits.h ****     if (accu->n + n <= LC3_ACCU_BITS) {
 2407              		.loc 3 223 0
 2408 001c 226A     		ldr	r2, [r4, #32]
 2409 001e 531C     		adds	r3, r2, #1
 2410 0020 202B     		cmp	r3, #32
 2411 0022 05DC     		bgt	.L155
 224:..\..\..\liblc3\src/bits.h ****         accu->v |= v << accu->n;
 2412              		.loc 3 224 0
 2413 0024 9140     		lsls	r1, r1, r2
 2414              	.LVL320:
 2415 0026 E269     		ldr	r2, [r4, #28]
 2416 0028 1143     		orrs	r1, r2
 2417 002a E161     		str	r1, [r4, #28]
 225:..\..\..\liblc3\src/bits.h ****         accu->n += n;
 2418              		.loc 3 225 0
 2419 002c 2362     		str	r3, [r4, #32]
 2420 002e 03E0     		b	.L156
 2421              	.LVL321:
 2422              	.L155:
 226:..\..\..\liblc3\src/bits.h ****     } else {
 227:..\..\..\liblc3\src/bits.h ****         lc3_put_bits_generic(bits, v, n);
 2423              		.loc 3 227 0
 2424 0030 0122     		movs	r2, #1
 2425 0032 2000     		movs	r0, r4
 2426 0034 FFF7FEFF 		bl	lc3_put_bits_generic
 2427              	.LVL322:
 2428              	.L156:
 2429              	.LBE101:
ARM GAS  C:\Users\rdn\AppData\Local\Temp\ccet7BYP.s 			page 58


 2430              	.LBE100:
 472:..\..\..\liblc3\src/tns.c ****         if (rc_order <= 0)
 2431              		.loc 1 472 0
 2432 0038 002E     		cmp	r6, #0
 2433 003a 4EDD     		ble	.L157
 473:..\..\..\liblc3\src/tns.c ****             continue;
 474:..\..\..\liblc3\src/tns.c **** 
 475:..\..\..\liblc3\src/tns.c ****         lc3_put_symbol(bits,
 476:..\..\..\liblc3\src/tns.c ****             lc3_tns_order_models + data->lpc_weighting, rc_order-1);
 2434              		.loc 1 476 0
 2435 003c 4346     		mov	r3, r8
 2436 003e 1B79     		ldrb	r3, [r3, #4]
 2437 0040 1A01     		lsls	r2, r3, #4
 2438 0042 D318     		adds	r3, r2, r3
 2439 0044 9A00     		lsls	r2, r3, #2
 475:..\..\..\liblc3\src/tns.c ****             lc3_tns_order_models + data->lpc_weighting, rc_order-1);
 2440              		.loc 1 475 0
 2441 0046 294B     		ldr	r3, .L163
 2442 0048 D218     		adds	r2, r2, r3
 2443              		.loc 1 476 0
 2444 004a 731E     		subs	r3, r6, #1
 2445              	.LVL323:
 2446              	.LBB102:
 2447              	.LBB103:
 228:..\..\..\liblc3\src/bits.h ****     }
 229:..\..\..\liblc3\src/bits.h **** }
 230:..\..\..\liblc3\src/bits.h **** 
 231:..\..\..\liblc3\src/bits.h **** /**
 232:..\..\..\liblc3\src/bits.h ****  * Get a bit
 233:..\..\..\liblc3\src/bits.h ****  */
 234:..\..\..\liblc3\src/bits.h **** LC3_HOT static inline int lc3_get_bit(lc3_bits_t *bits)
 235:..\..\..\liblc3\src/bits.h **** {
 236:..\..\..\liblc3\src/bits.h ****     return lc3_get_bits(bits, 1);
 237:..\..\..\liblc3\src/bits.h **** }
 238:..\..\..\liblc3\src/bits.h **** 
 239:..\..\..\liblc3\src/bits.h **** /**
 240:..\..\..\liblc3\src/bits.h ****  * Get from 1 to 32 bits
 241:..\..\..\liblc3\src/bits.h ****  */
 242:..\..\..\liblc3\src/bits.h **** LC3_HOT static inline unsigned lc3_get_bits(struct lc3_bits *bits, int n)
 243:..\..\..\liblc3\src/bits.h **** {
 244:..\..\..\liblc3\src/bits.h ****     struct lc3_bits_accu *accu = &bits->accu;
 245:..\..\..\liblc3\src/bits.h **** 
 246:..\..\..\liblc3\src/bits.h ****     if (accu->n + n <= LC3_ACCU_BITS) {
 247:..\..\..\liblc3\src/bits.h ****         int v = (accu->v >> accu->n) & ((1u << n) - 1);
 248:..\..\..\liblc3\src/bits.h ****         return (accu->n += n), v;
 249:..\..\..\liblc3\src/bits.h ****     }
 250:..\..\..\liblc3\src/bits.h ****     else {
 251:..\..\..\liblc3\src/bits.h ****         return lc3_get_bits_generic(bits, n);
 252:..\..\..\liblc3\src/bits.h ****     }
 253:..\..\..\liblc3\src/bits.h **** }
 254:..\..\..\liblc3\src/bits.h **** 
 255:..\..\..\liblc3\src/bits.h **** /**
 256:..\..\..\liblc3\src/bits.h ****  * Put arithmetic coder symbol
 257:..\..\..\liblc3\src/bits.h ****  */
 258:..\..\..\liblc3\src/bits.h **** LC3_HOT static inline void lc3_put_symbol(
 259:..\..\..\liblc3\src/bits.h ****     struct lc3_bits *bits, const struct lc3_ac_model *model, unsigned s)
 260:..\..\..\liblc3\src/bits.h **** {
ARM GAS  C:\Users\rdn\AppData\Local\Temp\ccet7BYP.s 			page 59


 261:..\..\..\liblc3\src/bits.h ****     const struct lc3_ac_symbol *symbols = model->s;
 262:..\..\..\liblc3\src/bits.h ****     struct lc3_bits_ac *ac = &bits->ac;
 263:..\..\..\liblc3\src/bits.h ****     unsigned range = ac->range >> 10;
 2448              		.loc 3 263 0
 2449 004c A168     		ldr	r1, [r4, #8]
 2450 004e 890A     		lsrs	r1, r1, #10
 2451              	.LVL324:
 264:..\..\..\liblc3\src/bits.h **** 
 265:..\..\..\liblc3\src/bits.h ****     ac->low += range * symbols[s].low;
 2452              		.loc 3 265 0
 2453 0050 9B00     		lsls	r3, r3, #2
 2454 0052 D218     		adds	r2, r2, r3
 2455              	.LVL325:
 2456 0054 1388     		ldrh	r3, [r2]
 2457 0056 4B43     		muls	r3, r1
 2458 0058 6068     		ldr	r0, [r4, #4]
 2459 005a 8446     		mov	ip, r0
 2460 005c 6344     		add	r3, r3, ip
 2461 005e 6360     		str	r3, [r4, #4]
 2462              	.LVL326:
 266:..\..\..\liblc3\src/bits.h ****     ac->range = range * symbols[s].range;
 2463              		.loc 3 266 0
 2464 0060 5288     		ldrh	r2, [r2, #2]
 2465 0062 4A43     		muls	r2, r1
 2466 0064 A260     		str	r2, [r4, #8]
 267:..\..\..\liblc3\src/bits.h **** 
 268:..\..\..\liblc3\src/bits.h ****     ac->carry |= ac->low >> 24;
 2467              		.loc 3 268 0
 2468 0066 190E     		lsrs	r1, r3, #24
 2469              	.LVL327:
 2470 0068 2069     		ldr	r0, [r4, #16]
 2471 006a 0143     		orrs	r1, r0
 2472 006c 2161     		str	r1, [r4, #16]
 269:..\..\..\liblc3\src/bits.h ****     ac->low &= 0xffffff;
 2473              		.loc 3 269 0
 2474 006e 1B02     		lsls	r3, r3, #8
 2475 0070 1B0A     		lsrs	r3, r3, #8
 2476 0072 6360     		str	r3, [r4, #4]
 270:..\..\..\liblc3\src/bits.h **** 
 271:..\..\..\liblc3\src/bits.h ****     if (ac->range < 0x10000)
 2477              		.loc 3 271 0
 2478 0074 1E4B     		ldr	r3, .L163+4
 2479 0076 9A42     		cmp	r2, r3
 2480 0078 2CD8     		bhi	.L162
 272:..\..\..\liblc3\src/bits.h ****         lc3_ac_write_renorm(bits);
 2481              		.loc 3 272 0
 2482 007a 2000     		movs	r0, r4
 2483 007c FFF7FEFF 		bl	lc3_ac_write_renorm
 2484              	.LVL328:
 2485              	.LBE103:
 2486              	.LBE102:
 2487              	.LBB104:
 477:..\..\..\liblc3\src/tns.c **** 
 478:..\..\..\liblc3\src/tns.c ****         for (int i = 0; i < rc_order; i++)
 2488              		.loc 1 478 0
 2489 0080 0025     		movs	r5, #0
 2490 0082 28E0     		b	.L158
ARM GAS  C:\Users\rdn\AppData\Local\Temp\ccet7BYP.s 			page 60


 2491              	.LVL329:
 2492              	.L160:
 479:..\..\..\liblc3\src/tns.c ****             lc3_put_symbol(bits,
 480:..\..\..\liblc3\src/tns.c ****                 lc3_tns_coeffs_models + i, 8 + data->rc[f][i]);
 2493              		.loc 1 480 0 discriminator 3
 2494 0084 2B01     		lsls	r3, r5, #4
 2495 0086 5B19     		adds	r3, r3, r5
 2496 0088 9A00     		lsls	r2, r3, #2
 479:..\..\..\liblc3\src/tns.c ****             lc3_put_symbol(bits,
 2497              		.loc 1 479 0 discriminator 3
 2498 008a 1A4B     		ldr	r3, .L163+8
 2499 008c D218     		adds	r2, r2, r3
 2500              		.loc 1 480 0 discriminator 3
 2501 008e FB00     		lsls	r3, r7, #3
 2502 0090 5B19     		adds	r3, r3, r5
 2503 0092 0433     		adds	r3, r3, #4
 2504 0094 9B00     		lsls	r3, r3, #2
 2505 0096 4146     		mov	r1, r8
 2506 0098 5B58     		ldr	r3, [r3, r1]
 2507 009a 0833     		adds	r3, r3, #8
 2508              	.LVL330:
 2509              	.LBB105:
 2510              	.LBB106:
 263:..\..\..\liblc3\src/bits.h **** 
 2511              		.loc 3 263 0 discriminator 3
 2512 009c A168     		ldr	r1, [r4, #8]
 2513 009e 890A     		lsrs	r1, r1, #10
 2514              	.LVL331:
 265:..\..\..\liblc3\src/bits.h ****     ac->range = range * symbols[s].range;
 2515              		.loc 3 265 0 discriminator 3
 2516 00a0 9B00     		lsls	r3, r3, #2
 2517              	.LVL332:
 2518 00a2 D218     		adds	r2, r2, r3
 2519              	.LVL333:
 2520 00a4 1388     		ldrh	r3, [r2]
 2521 00a6 4B43     		muls	r3, r1
 2522 00a8 6068     		ldr	r0, [r4, #4]
 2523 00aa 8446     		mov	ip, r0
 2524 00ac 6344     		add	r3, r3, ip
 2525 00ae 6360     		str	r3, [r4, #4]
 2526              	.LVL334:
 266:..\..\..\liblc3\src/bits.h **** 
 2527              		.loc 3 266 0 discriminator 3
 2528 00b0 5288     		ldrh	r2, [r2, #2]
 2529 00b2 4A43     		muls	r2, r1
 2530 00b4 A260     		str	r2, [r4, #8]
 268:..\..\..\liblc3\src/bits.h ****     ac->low &= 0xffffff;
 2531              		.loc 3 268 0 discriminator 3
 2532 00b6 190E     		lsrs	r1, r3, #24
 2533              	.LVL335:
 2534 00b8 2069     		ldr	r0, [r4, #16]
 2535 00ba 0143     		orrs	r1, r0
 2536 00bc 2161     		str	r1, [r4, #16]
 269:..\..\..\liblc3\src/bits.h **** 
 2537              		.loc 3 269 0 discriminator 3
 2538 00be 1B02     		lsls	r3, r3, #8
 2539 00c0 1B0A     		lsrs	r3, r3, #8
ARM GAS  C:\Users\rdn\AppData\Local\Temp\ccet7BYP.s 			page 61


 2540 00c2 6360     		str	r3, [r4, #4]
 271:..\..\..\liblc3\src/bits.h ****         lc3_ac_write_renorm(bits);
 2541              		.loc 3 271 0 discriminator 3
 2542 00c4 0A4B     		ldr	r3, .L163+4
 2543 00c6 9A42     		cmp	r2, r3
 2544 00c8 02D8     		bhi	.L159
 2545              		.loc 3 272 0
 2546 00ca 2000     		movs	r0, r4
 2547 00cc FFF7FEFF 		bl	lc3_ac_write_renorm
 2548              	.LVL336:
 2549              	.L159:
 2550              	.LBE106:
 2551              	.LBE105:
 478:..\..\..\liblc3\src/tns.c ****             lc3_put_symbol(bits,
 2552              		.loc 1 478 0 discriminator 3
 2553 00d0 0135     		adds	r5, r5, #1
 2554              	.LVL337:
 2555 00d2 00E0     		b	.L158
 2556              	.LVL338:
 2557              	.L162:
 478:..\..\..\liblc3\src/tns.c ****             lc3_put_symbol(bits,
 2558              		.loc 1 478 0 is_stmt 0
 2559 00d4 0025     		movs	r5, #0
 2560              	.LVL339:
 2561              	.L158:
 478:..\..\..\liblc3\src/tns.c ****             lc3_put_symbol(bits,
 2562              		.loc 1 478 0 discriminator 1
 2563 00d6 B542     		cmp	r5, r6
 2564 00d8 D4DB     		blt	.L160
 2565              	.LVL340:
 2566              	.L157:
 2567              	.LBE104:
 2568              	.LBE99:
 468:..\..\..\liblc3\src/tns.c ****         int rc_order = data->rc_order[f];
 2569              		.loc 1 468 0 is_stmt 1 discriminator 2
 2570 00da 0137     		adds	r7, r7, #1
 2571              	.LVL341:
 2572              	.L154:
 468:..\..\..\liblc3\src/tns.c ****         int rc_order = data->rc_order[f];
 2573              		.loc 1 468 0 is_stmt 0 discriminator 1
 2574 00dc 4346     		mov	r3, r8
 2575 00de 1B68     		ldr	r3, [r3]
 2576 00e0 9F42     		cmp	r7, r3
 2577 00e2 94DB     		blt	.L161
 2578              	.LBE98:
 481:..\..\..\liblc3\src/tns.c ****     }
 482:..\..\..\liblc3\src/tns.c **** }
 2579              		.loc 1 482 0 is_stmt 1
 2580              		@ sp needed
 2581              	.LVL342:
 2582              	.LVL343:
 2583              	.LVL344:
 2584 00e4 04BC     		pop	{r2}
 2585 00e6 9046     		mov	r8, r2
 2586 00e8 F0BD     		pop	{r4, r5, r6, r7, pc}
 2587              	.L164:
 2588 00ea C046     		.align	2
ARM GAS  C:\Users\rdn\AppData\Local\Temp\ccet7BYP.s 			page 62


 2589              	.L163:
 2590 00ec 00000000 		.word	lc3_tns_order_models
 2591 00f0 FFFF0000 		.word	65535
 2592 00f4 00000000 		.word	lc3_tns_coeffs_models
 2593              		.cfi_endproc
 2594              	.LFE32:
 2595              		.size	lc3_tns_put_data, .-lc3_tns_put_data
 2596              		.section	.text.lc3_tns_get_data,"ax",%progbits
 2597              		.align	2
 2598              		.global	lc3_tns_get_data
 2599              		.code	16
 2600              		.thumb_func
 2601              		.type	lc3_tns_get_data, %function
 2602              	lc3_tns_get_data:
 2603              	.LFB33:
 483:..\..\..\liblc3\src/tns.c **** 
 484:..\..\..\liblc3\src/tns.c **** /**
 485:..\..\..\liblc3\src/tns.c ****  * Get bitstream data
 486:..\..\..\liblc3\src/tns.c ****  */
 487:..\..\..\liblc3\src/tns.c **** int lc3_tns_get_data(lc3_bits_t *bits,
 488:..\..\..\liblc3\src/tns.c ****     enum lc3_dt dt, enum lc3_bandwidth bw, int nbytes, lc3_tns_data_t *data)
 489:..\..\..\liblc3\src/tns.c **** {
 2604              		.loc 1 489 0
 2605              		.cfi_startproc
 2606              		@ args = 4, pretend = 0, frame = 0
 2607              		@ frame_needed = 0, uses_anonymous_args = 0
 2608              	.LVL345:
 2609 0000 F0B5     		push	{r4, r5, r6, r7, lr}
 2610              		.cfi_def_cfa_offset 20
 2611              		.cfi_offset 4, -20
 2612              		.cfi_offset 5, -16
 2613              		.cfi_offset 6, -12
 2614              		.cfi_offset 7, -8
 2615              		.cfi_offset 14, -4
 2616 0002 5746     		mov	r7, r10
 2617 0004 4E46     		mov	r6, r9
 2618 0006 4546     		mov	r5, r8
 2619 0008 E0B4     		push	{r5, r6, r7}
 2620              		.cfi_def_cfa_offset 32
 2621              		.cfi_offset 8, -32
 2622              		.cfi_offset 9, -28
 2623              		.cfi_offset 10, -24
 2624 000a 0400     		movs	r4, r0
 2625 000c 8846     		mov	r8, r1
 2626 000e 0899     		ldr	r1, [sp, #32]
 2627              	.LVL346:
 2628 0010 8A46     		mov	r10, r1
 490:..\..\..\liblc3\src/tns.c ****     data->nfilters = 1 + (dt >= LC3_DT_5M && bw >= LC3_BANDWIDTH_SWB);
 2629              		.loc 1 490 0
 2630 0012 4146     		mov	r1, r8
 2631 0014 0029     		cmp	r1, #0
 2632 0016 03D0     		beq	.L187
 2633              		.loc 1 490 0 is_stmt 0 discriminator 1
 2634 0018 022A     		cmp	r2, #2
 2635 001a 03D8     		bhi	.L188
 2636              		.loc 1 490 0
 2637 001c 0022     		movs	r2, #0
ARM GAS  C:\Users\rdn\AppData\Local\Temp\ccet7BYP.s 			page 63


 2638              	.LVL347:
 2639 001e 02E0     		b	.L166
 2640              	.LVL348:
 2641              	.L187:
 2642 0020 0022     		movs	r2, #0
 2643              	.LVL349:
 2644 0022 00E0     		b	.L166
 2645              	.LVL350:
 2646              	.L188:
 2647 0024 0122     		movs	r2, #1
 2648              	.LVL351:
 2649              	.L166:
 2650              		.loc 1 490 0 discriminator 6
 2651 0026 0132     		adds	r2, r2, #1
 2652 0028 5146     		mov	r1, r10
 2653 002a 0A60     		str	r2, [r1]
 491:..\..\..\liblc3\src/tns.c ****     data->lpc_weighting = resolve_lpc_weighting(dt, nbytes);
 2654              		.loc 1 491 0 is_stmt 1 discriminator 6
 2655 002c 1900     		movs	r1, r3
 2656 002e 4046     		mov	r0, r8
 2657              	.LVL352:
 2658 0030 FFF7FEFF 		bl	resolve_lpc_weighting
 2659              	.LVL353:
 2660 0034 5346     		mov	r3, r10
 2661 0036 1871     		strb	r0, [r3, #4]
 2662              	.LVL354:
 2663              	.LBB118:
 492:..\..\..\liblc3\src/tns.c **** 
 493:..\..\..\liblc3\src/tns.c ****     for (int f = 0; f < data->nfilters; f++) {
 2664              		.loc 1 493 0 discriminator 6
 2665 0038 0026     		movs	r6, #0
 2666 003a E2E0     		b	.L167
 2667              	.LVL355:
 2668              	.L186:
 2669              	.LBB119:
 2670              	.LBB120:
 2671              	.LBB121:
 2672              	.LBB122:
 246:..\..\..\liblc3\src/bits.h ****         int v = (accu->v >> accu->n) & ((1u << n) - 1);
 2673              		.loc 3 246 0
 2674 003c 236A     		ldr	r3, [r4, #32]
 2675 003e 5A1C     		adds	r2, r3, #1
 2676 0040 202A     		cmp	r2, #32
 2677 0042 05DC     		bgt	.L168
 2678              	.LBB123:
 247:..\..\..\liblc3\src/bits.h ****         return (accu->n += n), v;
 2679              		.loc 3 247 0
 2680 0044 E169     		ldr	r1, [r4, #28]
 2681 0046 D940     		lsrs	r1, r1, r3
 2682 0048 0120     		movs	r0, #1
 2683 004a 0840     		ands	r0, r1
 2684              	.LVL356:
 248:..\..\..\liblc3\src/bits.h ****     }
 2685              		.loc 3 248 0
 2686 004c 2262     		str	r2, [r4, #32]
 2687 004e 03E0     		b	.L169
 2688              	.LVL357:
ARM GAS  C:\Users\rdn\AppData\Local\Temp\ccet7BYP.s 			page 64


 2689              	.L168:
 2690              	.LBE123:
 251:..\..\..\liblc3\src/bits.h ****     }
 2691              		.loc 3 251 0
 2692 0050 0121     		movs	r1, #1
 2693 0052 2000     		movs	r0, r4
 2694 0054 FFF7FEFF 		bl	lc3_get_bits_generic
 2695              	.LVL358:
 2696              	.L169:
 2697              	.LBE122:
 2698              	.LBE121:
 2699              	.LBE120:
 2700              	.LBE119:
 494:..\..\..\liblc3\src/tns.c **** 
 495:..\..\..\liblc3\src/tns.c ****         data->rc_order[f] = lc3_get_bit(bits);
 2701              		.loc 1 495 0
 2702 0058 B31C     		adds	r3, r6, #2
 2703 005a 9B00     		lsls	r3, r3, #2
 2704 005c 5246     		mov	r2, r10
 2705 005e 9850     		str	r0, [r3, r2]
 496:..\..\..\liblc3\src/tns.c ****         if (!data->rc_order[f])
 2706              		.loc 1 496 0
 2707 0060 0028     		cmp	r0, #0
 2708 0062 00D1     		bne	.LCB3043
 2709 0064 CCE0     		b	.L170	@long jump
 2710              	.LCB3043:
 497:..\..\..\liblc3\src/tns.c ****             continue;
 498:..\..\..\liblc3\src/tns.c **** 
 499:..\..\..\liblc3\src/tns.c ****         data->rc_order[f] += lc3_get_symbol(bits,
 500:..\..\..\liblc3\src/tns.c ****             lc3_tns_order_models + data->lpc_weighting);
 2711              		.loc 1 500 0
 2712 0066 1379     		ldrb	r3, [r2, #4]
 2713 0068 1A01     		lsls	r2, r3, #4
 2714 006a D318     		adds	r3, r2, r3
 2715 006c 9A00     		lsls	r2, r3, #2
 499:..\..\..\liblc3\src/tns.c ****             lc3_tns_order_models + data->lpc_weighting);
 2716              		.loc 1 499 0
 2717 006e 6C4B     		ldr	r3, .L199
 2718 0070 D218     		adds	r2, r2, r3
 2719              	.LVL359:
 2720              	.LBB124:
 2721              	.LBB125:
 273:..\..\..\liblc3\src/bits.h **** }
 274:..\..\..\liblc3\src/bits.h **** 
 275:..\..\..\liblc3\src/bits.h **** /**
 276:..\..\..\liblc3\src/bits.h ****  * Get arithmetic coder symbol
 277:..\..\..\liblc3\src/bits.h ****  */
 278:..\..\..\liblc3\src/bits.h **** LC3_HOT static inline unsigned lc3_get_symbol(
 279:..\..\..\liblc3\src/bits.h ****     lc3_bits_t *bits, const struct lc3_ac_model *model)
 280:..\..\..\liblc3\src/bits.h **** {
 281:..\..\..\liblc3\src/bits.h ****     const struct lc3_ac_symbol *symbols = model->s;
 282:..\..\..\liblc3\src/bits.h ****     struct lc3_bits_ac *ac = &bits->ac;
 283:..\..\..\liblc3\src/bits.h **** 
 284:..\..\..\liblc3\src/bits.h ****     unsigned range = (ac->range >> 10) & 0xffff;
 2722              		.loc 3 284 0
 2723 0072 A368     		ldr	r3, [r4, #8]
 2724 0074 9B0A     		lsrs	r3, r3, #10
ARM GAS  C:\Users\rdn\AppData\Local\Temp\ccet7BYP.s 			page 65


 2725 0076 1B04     		lsls	r3, r3, #16
 2726 0078 1B0C     		lsrs	r3, r3, #16
 2727              	.LVL360:
 285:..\..\..\liblc3\src/bits.h **** 
 286:..\..\..\liblc3\src/bits.h ****     ac->error |= (ac->low >= (range << 10));
 2728              		.loc 3 286 0
 2729 007a 217E     		ldrb	r1, [r4, #24]
 2730 007c 9D02     		lsls	r5, r3, #10
 2731 007e 0020     		movs	r0, #0
 2732 0080 6768     		ldr	r7, [r4, #4]
 2733 0082 AF42     		cmp	r7, r5
 2734 0084 4041     		adcs	r0, r0, r0
 2735 0086 C0B2     		uxtb	r0, r0
 2736 0088 0143     		orrs	r1, r0
 2737 008a 2176     		strb	r1, [r4, #24]
 287:..\..\..\liblc3\src/bits.h ****     if (ac->error)
 2738              		.loc 3 287 0
 2739 008c 01D0     		beq	.L171
 288:..\..\..\liblc3\src/bits.h ****         ac->low = 0;
 2740              		.loc 3 288 0
 2741 008e 0021     		movs	r1, #0
 2742 0090 6160     		str	r1, [r4, #4]
 2743              	.L171:
 2744              	.LVL361:
 289:..\..\..\liblc3\src/bits.h **** 
 290:..\..\..\liblc3\src/bits.h ****     int s = 16;
 291:..\..\..\liblc3\src/bits.h **** 
 292:..\..\..\liblc3\src/bits.h ****     if (ac->low < range * symbols[s].low) {
 2745              		.loc 3 292 0
 2746 0092 6568     		ldr	r5, [r4, #4]
 2747 0094 1100     		movs	r1, r2
 2748 0096 4031     		adds	r1, r1, #64
 2749 0098 0988     		ldrh	r1, [r1]
 2750 009a 5943     		muls	r1, r3
 2751 009c 8D42     		cmp	r5, r1
 2752 009e 25D2     		bcs	.L189
 2753              	.LVL362:
 293:..\..\..\liblc3\src/bits.h ****         s >>= 1;
 294:..\..\..\liblc3\src/bits.h ****         s -= ac->low < range * symbols[s].low ? 4 : -4;
 2754              		.loc 3 294 0
 2755 00a0 118C     		ldrh	r1, [r2, #32]
 2756 00a2 5943     		muls	r1, r3
 2757 00a4 8D42     		cmp	r5, r1
 2758 00a6 01D2     		bcs	.L190
 2759 00a8 0420     		movs	r0, #4
 2760 00aa 01E0     		b	.L173
 2761              	.L190:
 2762 00ac 0420     		movs	r0, #4
 2763 00ae 4042     		rsbs	r0, r0, #0
 2764              	.L173:
 2765 00b0 0821     		movs	r1, #8
 2766 00b2 091A     		subs	r1, r1, r0
 2767              	.LVL363:
 295:..\..\..\liblc3\src/bits.h ****         s -= ac->low < range * symbols[s].low ? 2 : -2;
 2768              		.loc 3 295 0
 2769 00b4 8800     		lsls	r0, r1, #2
 2770 00b6 105A     		ldrh	r0, [r2, r0]
ARM GAS  C:\Users\rdn\AppData\Local\Temp\ccet7BYP.s 			page 66


 2771 00b8 5843     		muls	r0, r3
 2772 00ba 8542     		cmp	r5, r0
 2773 00bc 01D2     		bcs	.L191
 2774 00be 0220     		movs	r0, #2
 2775 00c0 01E0     		b	.L174
 2776              	.L191:
 2777 00c2 0220     		movs	r0, #2
 2778 00c4 4042     		rsbs	r0, r0, #0
 2779              	.L174:
 2780 00c6 091A     		subs	r1, r1, r0
 2781              	.LVL364:
 296:..\..\..\liblc3\src/bits.h ****         s -= ac->low < range * symbols[s].low ? 1 : -1;
 2782              		.loc 3 296 0
 2783 00c8 8800     		lsls	r0, r1, #2
 2784 00ca 105A     		ldrh	r0, [r2, r0]
 2785 00cc 5843     		muls	r0, r3
 2786 00ce 8542     		cmp	r5, r0
 2787 00d0 01D2     		bcs	.L192
 2788 00d2 0120     		movs	r0, #1
 2789 00d4 01E0     		b	.L175
 2790              	.L192:
 2791 00d6 0120     		movs	r0, #1
 2792 00d8 4042     		rsbs	r0, r0, #0
 2793              	.L175:
 2794 00da 081A     		subs	r0, r1, r0
 2795              	.LVL365:
 297:..\..\..\liblc3\src/bits.h ****         s -= ac->low < range * symbols[s].low;
 2796              		.loc 3 297 0
 2797 00dc 8100     		lsls	r1, r0, #2
 2798 00de 515A     		ldrh	r1, [r2, r1]
 2799 00e0 5943     		muls	r1, r3
 2800 00e2 8D42     		cmp	r5, r1
 2801 00e4 8941     		sbcs	r1, r1, r1
 2802 00e6 4942     		rsbs	r1, r1, #0
 2803 00e8 411A     		subs	r1, r0, r1
 2804              	.LVL366:
 2805 00ea 00E0     		b	.L172
 2806              	.LVL367:
 2807              	.L189:
 290:..\..\..\liblc3\src/bits.h **** 
 2808              		.loc 3 290 0
 2809 00ec 1021     		movs	r1, #16
 2810              	.LVL368:
 2811              	.L172:
 298:..\..\..\liblc3\src/bits.h ****     }
 299:..\..\..\liblc3\src/bits.h **** 
 300:..\..\..\liblc3\src/bits.h ****     ac->low -= range * symbols[s].low;
 2812              		.loc 3 300 0
 2813 00ee 8946     		mov	r9, r1
 2814 00f0 8900     		lsls	r1, r1, #2
 2815              	.LVL369:
 2816 00f2 5218     		adds	r2, r2, r1
 2817              	.LVL370:
 2818 00f4 1188     		ldrh	r1, [r2]
 2819 00f6 5943     		muls	r1, r3
 2820 00f8 691A     		subs	r1, r5, r1
 2821 00fa 6160     		str	r1, [r4, #4]
ARM GAS  C:\Users\rdn\AppData\Local\Temp\ccet7BYP.s 			page 67


 301:..\..\..\liblc3\src/bits.h ****     ac->range = range * symbols[s].range;
 2822              		.loc 3 301 0
 2823 00fc 5288     		ldrh	r2, [r2, #2]
 2824 00fe 5343     		muls	r3, r2
 2825              	.LVL371:
 2826 0100 A360     		str	r3, [r4, #8]
 2827              	.LVL372:
 302:..\..\..\liblc3\src/bits.h **** 
 303:..\..\..\liblc3\src/bits.h ****     if (ac->range < 0x10000)
 2828              		.loc 3 303 0
 2829 0102 484A     		ldr	r2, .L199+4
 2830 0104 9342     		cmp	r3, r2
 2831 0106 02D8     		bhi	.L176
 304:..\..\..\liblc3\src/bits.h ****         lc3_ac_read_renorm(bits);
 2832              		.loc 3 304 0
 2833 0108 2000     		movs	r0, r4
 2834 010a FFF7FEFF 		bl	lc3_ac_read_renorm
 2835              	.LVL373:
 2836              	.L176:
 2837              	.LBE125:
 2838              	.LBE124:
 499:..\..\..\liblc3\src/tns.c ****             lc3_tns_order_models + data->lpc_weighting);
 2839              		.loc 1 499 0
 2840 010e B31C     		adds	r3, r6, #2
 2841 0110 9B00     		lsls	r3, r3, #2
 2842 0112 5246     		mov	r2, r10
 2843 0114 9A58     		ldr	r2, [r3, r2]
 2844 0116 4A44     		add	r2, r2, r9
 2845 0118 1500     		movs	r5, r2
 2846 011a 5246     		mov	r2, r10
 2847 011c 9D50     		str	r5, [r3, r2]
 501:..\..\..\liblc3\src/tns.c ****         if (dt <= LC3_DT_5M && data->rc_order[f] > 4)
 2848              		.loc 1 501 0
 2849 011e 4346     		mov	r3, r8
 2850 0120 012B     		cmp	r3, #1
 2851 0122 66D8     		bhi	.L193
 2852              		.loc 1 501 0 is_stmt 0 discriminator 1
 2853 0124 042D     		cmp	r5, #4
 2854 0126 73DC     		bgt	.L194
 2855 0128 0025     		movs	r5, #0
 2856 012a 63E0     		b	.L177
 2857              	.LVL374:
 2858              	.L185:
 2859              	.LBB126:
 502:..\..\..\liblc3\src/tns.c ****             return -1;
 503:..\..\..\liblc3\src/tns.c **** 
 504:..\..\..\liblc3\src/tns.c ****         for (int i = 0; i < data->rc_order[f]; i++)
 505:..\..\..\liblc3\src/tns.c ****             data->rc[f][i] = (int)lc3_get_symbol(bits,
 506:..\..\..\liblc3\src/tns.c ****                 lc3_tns_coeffs_models + i) - 8;
 2860              		.loc 1 506 0 is_stmt 1 discriminator 3
 2861 012c 2B01     		lsls	r3, r5, #4
 2862 012e 5B19     		adds	r3, r3, r5
 2863 0130 9A00     		lsls	r2, r3, #2
 505:..\..\..\liblc3\src/tns.c ****                 lc3_tns_coeffs_models + i) - 8;
 2864              		.loc 1 505 0 discriminator 3
 2865 0132 3D48     		ldr	r0, .L199+8
 2866 0134 1018     		adds	r0, r2, r0
ARM GAS  C:\Users\rdn\AppData\Local\Temp\ccet7BYP.s 			page 68


 2867              	.LVL375:
 2868              	.LBB127:
 2869              	.LBB128:
 284:..\..\..\liblc3\src/bits.h **** 
 2870              		.loc 3 284 0 discriminator 3
 2871 0136 A368     		ldr	r3, [r4, #8]
 2872 0138 9B0A     		lsrs	r3, r3, #10
 2873 013a 1B04     		lsls	r3, r3, #16
 2874 013c 1B0C     		lsrs	r3, r3, #16
 2875              	.LVL376:
 286:..\..\..\liblc3\src/bits.h ****     if (ac->error)
 2876              		.loc 3 286 0 discriminator 3
 2877 013e 227E     		ldrb	r2, [r4, #24]
 2878 0140 9146     		mov	r9, r2
 2879 0142 9902     		lsls	r1, r3, #10
 2880 0144 8C46     		mov	ip, r1
 2881 0146 0021     		movs	r1, #0
 2882 0148 6268     		ldr	r2, [r4, #4]
 2883 014a 6746     		mov	r7, ip
 2884 014c BA42     		cmp	r2, r7
 2885 014e 4941     		adcs	r1, r1, r1
 2886 0150 C9B2     		uxtb	r1, r1
 2887 0152 4A46     		mov	r2, r9
 2888 0154 0A43     		orrs	r2, r1
 2889 0156 2276     		strb	r2, [r4, #24]
 287:..\..\..\liblc3\src/bits.h ****         ac->low = 0;
 2890              		.loc 3 287 0 discriminator 3
 2891 0158 01D0     		beq	.L179
 288:..\..\..\liblc3\src/bits.h **** 
 2892              		.loc 3 288 0
 2893 015a 0022     		movs	r2, #0
 2894 015c 6260     		str	r2, [r4, #4]
 2895              	.L179:
 2896              	.LVL377:
 292:..\..\..\liblc3\src/bits.h ****         s >>= 1;
 2897              		.loc 3 292 0
 2898 015e 6268     		ldr	r2, [r4, #4]
 2899 0160 9446     		mov	ip, r2
 2900 0162 0200     		movs	r2, r0
 2901 0164 4032     		adds	r2, r2, #64
 2902 0166 1288     		ldrh	r2, [r2]
 2903 0168 5A43     		muls	r2, r3
 2904 016a 9445     		cmp	ip, r2
 2905 016c 25D2     		bcs	.L195
 2906              	.LVL378:
 294:..\..\..\liblc3\src/bits.h ****         s -= ac->low < range * symbols[s].low ? 2 : -2;
 2907              		.loc 3 294 0
 2908 016e 028C     		ldrh	r2, [r0, #32]
 2909 0170 5A43     		muls	r2, r3
 2910 0172 9445     		cmp	ip, r2
 2911 0174 01D2     		bcs	.L196
 2912 0176 0421     		movs	r1, #4
 2913 0178 01E0     		b	.L181
 2914              	.L196:
 2915 017a 0421     		movs	r1, #4
 2916 017c 4942     		rsbs	r1, r1, #0
 2917              	.L181:
ARM GAS  C:\Users\rdn\AppData\Local\Temp\ccet7BYP.s 			page 69


 2918 017e 0822     		movs	r2, #8
 2919 0180 521A     		subs	r2, r2, r1
 2920              	.LVL379:
 295:..\..\..\liblc3\src/bits.h ****         s -= ac->low < range * symbols[s].low ? 1 : -1;
 2921              		.loc 3 295 0
 2922 0182 9100     		lsls	r1, r2, #2
 2923 0184 415A     		ldrh	r1, [r0, r1]
 2924 0186 5943     		muls	r1, r3
 2925 0188 8C45     		cmp	ip, r1
 2926 018a 01D2     		bcs	.L197
 2927 018c 0221     		movs	r1, #2
 2928 018e 01E0     		b	.L182
 2929              	.L197:
 2930 0190 0221     		movs	r1, #2
 2931 0192 4942     		rsbs	r1, r1, #0
 2932              	.L182:
 2933 0194 511A     		subs	r1, r2, r1
 2934              	.LVL380:
 296:..\..\..\liblc3\src/bits.h ****         s -= ac->low < range * symbols[s].low;
 2935              		.loc 3 296 0
 2936 0196 8A00     		lsls	r2, r1, #2
 2937 0198 825A     		ldrh	r2, [r0, r2]
 2938 019a 5A43     		muls	r2, r3
 2939 019c 9445     		cmp	ip, r2
 2940 019e 01D2     		bcs	.L198
 2941 01a0 0122     		movs	r2, #1
 2942 01a2 01E0     		b	.L183
 2943              	.L198:
 2944 01a4 0122     		movs	r2, #1
 2945 01a6 5242     		rsbs	r2, r2, #0
 2946              	.L183:
 2947 01a8 8A1A     		subs	r2, r1, r2
 2948              	.LVL381:
 297:..\..\..\liblc3\src/bits.h ****     }
 2949              		.loc 3 297 0
 2950 01aa 9100     		lsls	r1, r2, #2
 2951 01ac 415A     		ldrh	r1, [r0, r1]
 2952 01ae 5943     		muls	r1, r3
 2953 01b0 8C45     		cmp	ip, r1
 2954 01b2 8941     		sbcs	r1, r1, r1
 2955 01b4 4942     		rsbs	r1, r1, #0
 2956 01b6 511A     		subs	r1, r2, r1
 2957              	.LVL382:
 2958 01b8 00E0     		b	.L180
 2959              	.LVL383:
 2960              	.L195:
 290:..\..\..\liblc3\src/bits.h **** 
 2961              		.loc 3 290 0
 2962 01ba 1021     		movs	r1, #16
 2963              	.LVL384:
 2964              	.L180:
 300:..\..\..\liblc3\src/bits.h ****     ac->range = range * symbols[s].range;
 2965              		.loc 3 300 0
 2966 01bc 8946     		mov	r9, r1
 2967 01be 8A00     		lsls	r2, r1, #2
 2968 01c0 8218     		adds	r2, r0, r2
 2969 01c2 1188     		ldrh	r1, [r2]
ARM GAS  C:\Users\rdn\AppData\Local\Temp\ccet7BYP.s 			page 70


 2970              	.LVL385:
 2971 01c4 5943     		muls	r1, r3
 2972 01c6 6046     		mov	r0, ip
 2973              	.LVL386:
 2974 01c8 411A     		subs	r1, r0, r1
 2975 01ca 6160     		str	r1, [r4, #4]
 301:..\..\..\liblc3\src/bits.h **** 
 2976              		.loc 3 301 0
 2977 01cc 5288     		ldrh	r2, [r2, #2]
 2978 01ce 5343     		muls	r3, r2
 2979              	.LVL387:
 2980 01d0 A360     		str	r3, [r4, #8]
 2981              	.LVL388:
 303:..\..\..\liblc3\src/bits.h ****         lc3_ac_read_renorm(bits);
 2982              		.loc 3 303 0
 2983 01d2 144A     		ldr	r2, .L199+4
 2984 01d4 9342     		cmp	r3, r2
 2985 01d6 02D8     		bhi	.L184
 2986              		.loc 3 304 0
 2987 01d8 2000     		movs	r0, r4
 2988 01da FFF7FEFF 		bl	lc3_ac_read_renorm
 2989              	.LVL389:
 2990              	.L184:
 2991              	.LBE128:
 2992              	.LBE127:
 2993              		.loc 1 506 0
 2994 01de 4A46     		mov	r2, r9
 2995 01e0 083A     		subs	r2, r2, #8
 505:..\..\..\liblc3\src/tns.c ****                 lc3_tns_coeffs_models + i) - 8;
 2996              		.loc 1 505 0
 2997 01e2 F300     		lsls	r3, r6, #3
 2998 01e4 5B19     		adds	r3, r3, r5
 2999 01e6 0433     		adds	r3, r3, #4
 3000 01e8 9B00     		lsls	r3, r3, #2
 3001 01ea 5146     		mov	r1, r10
 3002 01ec 5A50     		str	r2, [r3, r1]
 504:..\..\..\liblc3\src/tns.c ****             data->rc[f][i] = (int)lc3_get_symbol(bits,
 3003              		.loc 1 504 0
 3004 01ee 0135     		adds	r5, r5, #1
 3005              	.LVL390:
 3006 01f0 00E0     		b	.L177
 3007              	.LVL391:
 3008              	.L193:
 3009              	.LBE126:
 3010 01f2 0025     		movs	r5, #0
 3011              	.LVL392:
 3012              	.L177:
 3013              	.LBB129:
 504:..\..\..\liblc3\src/tns.c ****             data->rc[f][i] = (int)lc3_get_symbol(bits,
 3014              		.loc 1 504 0 is_stmt 0 discriminator 1
 3015 01f4 B31C     		adds	r3, r6, #2
 3016 01f6 9B00     		lsls	r3, r3, #2
 3017 01f8 5246     		mov	r2, r10
 3018 01fa 9B58     		ldr	r3, [r3, r2]
 3019 01fc 9D42     		cmp	r5, r3
 3020 01fe 95DB     		blt	.L185
 3021              	.LVL393:
ARM GAS  C:\Users\rdn\AppData\Local\Temp\ccet7BYP.s 			page 71


 3022              	.L170:
 3023              	.LBE129:
 493:..\..\..\liblc3\src/tns.c **** 
 3024              		.loc 1 493 0 is_stmt 1 discriminator 2
 3025 0200 0136     		adds	r6, r6, #1
 3026              	.LVL394:
 3027              	.L167:
 493:..\..\..\liblc3\src/tns.c **** 
 3028              		.loc 1 493 0 is_stmt 0 discriminator 1
 3029 0202 5346     		mov	r3, r10
 3030 0204 1B68     		ldr	r3, [r3]
 3031 0206 9E42     		cmp	r6, r3
 3032 0208 00DA     		bge	.LCB3414
 3033 020a 17E7     		b	.L186	@long jump
 3034              	.LCB3414:
 3035              	.LBE118:
 507:..\..\..\liblc3\src/tns.c ****     }
 508:..\..\..\liblc3\src/tns.c **** 
 509:..\..\..\liblc3\src/tns.c ****     return 0;
 3036              		.loc 1 509 0 is_stmt 1
 3037 020c 0020     		movs	r0, #0
 3038              	.LBB130:
 3039 020e 01E0     		b	.L178
 3040              	.LVL395:
 3041              	.L194:
 502:..\..\..\liblc3\src/tns.c **** 
 3042              		.loc 1 502 0
 3043 0210 0120     		movs	r0, #1
 3044 0212 4042     		rsbs	r0, r0, #0
 3045              	.LVL396:
 3046              	.L178:
 3047              	.LBE130:
 510:..\..\..\liblc3\src/tns.c **** }
 3048              		.loc 1 510 0
 3049              		@ sp needed
 3050              	.LVL397:
 3051              	.LVL398:
 3052 0214 1CBC     		pop	{r2, r3, r4}
 3053 0216 9046     		mov	r8, r2
 3054 0218 9946     		mov	r9, r3
 3055 021a A246     		mov	r10, r4
 3056 021c F0BD     		pop	{r4, r5, r6, r7, pc}
 3057              	.L200:
 3058 021e C046     		.align	2
 3059              	.L199:
 3060 0220 00000000 		.word	lc3_tns_order_models
 3061 0224 FFFF0000 		.word	65535
 3062 0228 00000000 		.word	lc3_tns_coeffs_models
 3063              		.cfi_endproc
 3064              	.LFE33:
 3065              		.size	lc3_tns_get_data, .-lc3_tns_get_data
 3066              		.section	.rodata
 3067              		.align	2
 3068              		.set	.LANCHOR0,. + 0
 3069              		.set	.LANCHOR1,. + 128
 3070              		.set	.LANCHOR2,. + 256
 3071              		.set	.LANCHOR3,. + 384
ARM GAS  C:\Users\rdn\AppData\Local\Temp\ccet7BYP.s 			page 72


 3072              		.type	sub_2m5_nb.5541, %object
 3073              		.size	sub_2m5_nb.5541, 12
 3074              	sub_2m5_nb.5541:
 3075 0000 03000000 		.word	3
 3076 0004 0A000000 		.word	10
 3077 0008 14000000 		.word	20
 3078              		.type	sub_2m5_wb.5542, %object
 3079              		.size	sub_2m5_wb.5542, 12
 3080              	sub_2m5_wb.5542:
 3081 000c 03000000 		.word	3
 3082 0010 14000000 		.word	20
 3083 0014 28000000 		.word	40
 3084              		.type	sub_2m5_sswb.5543, %object
 3085              		.size	sub_2m5_sswb.5543, 12
 3086              	sub_2m5_sswb.5543:
 3087 0018 03000000 		.word	3
 3088 001c 1E000000 		.word	30
 3089 0020 3C000000 		.word	60
 3090              		.type	sub_2m5_swb.5544, %object
 3091              		.size	sub_2m5_swb.5544, 12
 3092              	sub_2m5_swb.5544:
 3093 0024 03000000 		.word	3
 3094 0028 28000000 		.word	40
 3095 002c 50000000 		.word	80
 3096              		.type	sub_2m5_fb.5545, %object
 3097              		.size	sub_2m5_fb.5545, 12
 3098              	sub_2m5_fb.5545:
 3099 0030 03000000 		.word	3
 3100 0034 33000000 		.word	51
 3101 0038 64000000 		.word	100
 3102              		.type	sub_5m_nb.5546, %object
 3103              		.size	sub_5m_nb.5546, 12
 3104              	sub_5m_nb.5546:
 3105 003c 06000000 		.word	6
 3106 0040 17000000 		.word	23
 3107 0044 28000000 		.word	40
 3108              		.type	sub_5m_wb.5547, %object
 3109              		.size	sub_5m_wb.5547, 12
 3110              	sub_5m_wb.5547:
 3111 0048 06000000 		.word	6
 3112 004c 2B000000 		.word	43
 3113 0050 50000000 		.word	80
 3114              		.type	sub_5m_sswb.5548, %object
 3115              		.size	sub_5m_sswb.5548, 12
 3116              	sub_5m_sswb.5548:
 3117 0054 06000000 		.word	6
 3118 0058 3F000000 		.word	63
 3119 005c 78000000 		.word	120
 3120              		.type	sub_5m_swb.5549, %object
 3121              		.size	sub_5m_swb.5549, 20
 3122              	sub_5m_swb.5549:
 3123 0060 06000000 		.word	6
 3124 0064 2B000000 		.word	43
 3125 0068 50000000 		.word	80
 3126 006c 78000000 		.word	120
 3127 0070 A0000000 		.word	160
 3128              		.type	sub_5m_fb.5550, %object
ARM GAS  C:\Users\rdn\AppData\Local\Temp\ccet7BYP.s 			page 73


 3129              		.size	sub_5m_fb.5550, 20
 3130              	sub_5m_fb.5550:
 3131 0074 06000000 		.word	6
 3132 0078 35000000 		.word	53
 3133 007c 64000000 		.word	100
 3134 0080 96000000 		.word	150
 3135 0084 C8000000 		.word	200
 3136              		.type	sub_7m5_nb.5551, %object
 3137              		.size	sub_7m5_nb.5551, 16
 3138              	sub_7m5_nb.5551:
 3139 0088 09000000 		.word	9
 3140 008c 1A000000 		.word	26
 3141 0090 2B000000 		.word	43
 3142 0094 3C000000 		.word	60
 3143              		.type	sub_7m5_wb.5552, %object
 3144              		.size	sub_7m5_wb.5552, 16
 3145              	sub_7m5_wb.5552:
 3146 0098 09000000 		.word	9
 3147 009c 2E000000 		.word	46
 3148 00a0 53000000 		.word	83
 3149 00a4 78000000 		.word	120
 3150              		.type	sub_7m5_sswb.5553, %object
 3151              		.size	sub_7m5_sswb.5553, 16
 3152              	sub_7m5_sswb.5553:
 3153 00a8 09000000 		.word	9
 3154 00ac 42000000 		.word	66
 3155 00b0 7B000000 		.word	123
 3156 00b4 B4000000 		.word	180
 3157              		.type	sub_7m5_swb.5554, %object
 3158              		.size	sub_7m5_swb.5554, 28
 3159              	sub_7m5_swb.5554:
 3160 00b8 09000000 		.word	9
 3161 00bc 2E000000 		.word	46
 3162 00c0 52000000 		.word	82
 3163 00c4 78000000 		.word	120
 3164 00c8 9F000000 		.word	159
 3165 00cc C8000000 		.word	200
 3166 00d0 F0000000 		.word	240
 3167              		.type	sub_7m5_fb.5555, %object
 3168              		.size	sub_7m5_fb.5555, 28
 3169              	sub_7m5_fb.5555:
 3170 00d4 09000000 		.word	9
 3171 00d8 38000000 		.word	56
 3172 00dc 67000000 		.word	103
 3173 00e0 96000000 		.word	150
 3174 00e4 C8000000 		.word	200
 3175 00e8 FA000000 		.word	250
 3176 00ec 2C010000 		.word	300
 3177              		.type	sub_10m_nb.5556, %object
 3178              		.size	sub_10m_nb.5556, 16
 3179              	sub_10m_nb.5556:
 3180 00f0 0C000000 		.word	12
 3181 00f4 22000000 		.word	34
 3182 00f8 39000000 		.word	57
 3183 00fc 50000000 		.word	80
 3184              		.type	sub_10m_wb.5557, %object
 3185              		.size	sub_10m_wb.5557, 16
ARM GAS  C:\Users\rdn\AppData\Local\Temp\ccet7BYP.s 			page 74


 3186              	sub_10m_wb.5557:
 3187 0100 0C000000 		.word	12
 3188 0104 3D000000 		.word	61
 3189 0108 6E000000 		.word	110
 3190 010c A0000000 		.word	160
 3191              		.type	sub_10m_sswb.5558, %object
 3192              		.size	sub_10m_sswb.5558, 16
 3193              	sub_10m_sswb.5558:
 3194 0110 0C000000 		.word	12
 3195 0114 58000000 		.word	88
 3196 0118 A4000000 		.word	164
 3197 011c F0000000 		.word	240
 3198              		.type	sub_10m_swb.5559, %object
 3199              		.size	sub_10m_swb.5559, 28
 3200              	sub_10m_swb.5559:
 3201 0120 0C000000 		.word	12
 3202 0124 3D000000 		.word	61
 3203 0128 6E000000 		.word	110
 3204 012c A0000000 		.word	160
 3205 0130 D5000000 		.word	213
 3206 0134 0A010000 		.word	266
 3207 0138 40010000 		.word	320
 3208              		.type	sub_10m_fb.5560, %object
 3209              		.size	sub_10m_fb.5560, 28
 3210              	sub_10m_fb.5560:
 3211 013c 0C000000 		.word	12
 3212 0140 4A000000 		.word	74
 3213 0144 89000000 		.word	137
 3214 0148 C8000000 		.word	200
 3215 014c 0A010000 		.word	266
 3216 0150 4D010000 		.word	333
 3217 0154 90010000 		.word	400
 3218              		.type	lag_window.5561, %object
 3219              		.size	lag_window.5561, 36
 3220              	lag_window.5561:
 3221 0158 0000803F 		.word	1065353216
 3222 015c C47E7F3F 		.word	1065320132
 3223 0160 96FC7D3F 		.word	1065221270
 3224 0164 047E7B3F 		.word	1065057796
 3225 0168 8A0A783F 		.word	1064831626
 3226 016c 6EAC733F 		.word	1064545390
 3227 0170 8E706E3F 		.word	1064202382
 3228 0174 1F66683F 		.word	1063806495
 3229 0178 659E613F 		.word	1063362149
 3230              		.type	q_thr.5660, %object
 3231              		.size	q_thr.5660, 32
 3232              	q_thr.5660:
 3233 017c 00F0BC3D 		.word	1035792384
 3234 0180 001C8C3E 		.word	1049369600
 3235 0184 0038E43E 		.word	1055143936
 3236 0188 00461A3F 		.word	1058686464
 3237 018c 00303D3F 		.word	1060974592
 3238 0190 00A8593F 		.word	1062840320
 3239 0194 00B66E3F 		.word	1064220160
 3240 0198 00A47B3F 		.word	1065067520
 3241              		.type	q_inv.5675, %object
 3242              		.size	q_inv.5675, 36
ARM GAS  C:\Users\rdn\AppData\Local\Temp\ccet7BYP.s 			page 75


 3243              	q_inv.5675:
 3244 019c 00000000 		.word	0
 3245 01a0 00283C3E 		.word	1044129792
 3246 01a4 00F4B83E 		.word	1052308480
 3247 01a8 00C4063F 		.word	1057408000
 3248 01ac 00782C3F 		.word	1059878912
 3249 01b0 004A4C3F 		.word	1061964288
 3250 01b4 002A653F 		.word	1063594496
 3251 01b8 003A763F 		.word	1064712704
 3252 01bc 00E87E3F 		.word	1065281536
 3253              		.text
 3254              	.Letext0:
 3255              		.file 4 "c:\\program files (x86)\\cypress\\psoc creator\\4.4\\psoc creator\\import\\gnu\\arm\\5.4.
 3256              		.file 5 "c:\\program files (x86)\\cypress\\psoc creator\\4.4\\psoc creator\\import\\gnu\\arm\\5.4.
 3257              		.file 6 ".\\liblc3\\include/lc3_private.h"
 3258              		.file 7 "..\\..\\..\\liblc3\\src\\common.h"
 3259              		.file 8 "..\\..\\..\\liblc3\\src\\tns.h"