ARM GAS  C:\Users\rdn\AppData\Local\Temp\ccG9Tpsn.s 			page 1


   1              		.syntax unified
   2              		.cpu cortex-m4
   3              		.eabi_attribute 27, 1
   4              		.fpu fpv4-sp-d16
   5              		.eabi_attribute 20, 1
   6              		.eabi_attribute 21, 1
   7              		.eabi_attribute 23, 3
   8              		.eabi_attribute 24, 1
   9              		.eabi_attribute 25, 1
  10              		.eabi_attribute 26, 1
  11              		.eabi_attribute 30, 2
  12              		.eabi_attribute 34, 1
  13              		.eabi_attribute 18, 4
  14              		.thumb
  15              		.syntax unified
  16              		.file	"apply_global_gain_fx.c"
  17              		.text
  18              	.Ltext0:
  19              		.section	.gnu.lto_.profile.d6191545,"",%progbits
  20 0000 789C6361 		.ascii	"x\234ca`d`e`\000\222\307\030\003\000\003\"\001#"
  20      60646065 
  20      600092C7 
  20      18030003 
  20      220123
  21              		.text
  22              		.section	.gnu.lto_.icf.d6191545,"",%progbits
  23 0000 789C6361 		.ascii	"x\234ca`d\000\001\016\006\004`dx|\362\376!&\006\000"
  23      60640001 
  23      0E060460 
  23      64787CF2 
  23      FE212606 
  24 0015 1053035E 		.ascii	"\020S\003^"
  25              		.text
  26              		.section	.gnu.lto_.jmpfuncs.d6191545,"",%progbits
  27 0000 789C6361 		.ascii	"x\234ca`d\000\001A %\315\000\001\214\014\254\214  _"
  27      60640001 
  27      412025CD 
  27      00018C0C 
  27      AC8C2020 
  28 0015 5F5FCFC8 		.ascii	"__\317\310\310\300\002\021E\242\030\37721nm?\263\221"
  28      C8C00211 
  28      45A218FF 
  28      32316E6D 
  28      3FB391
  29 0028 EB0B532B 		.ascii	"\353\013S+3\003P\345rF\031\006\006&$\331\277\353\346"
  29      330350E5 
  29      72461906 
  29      062624D9 
  29      BFEBE6
  30 003b 5DE287C8 		.ascii	"]\342\207\310J2\256\200\311\"\2538yj\372\012\036\210"
  30      4A32AE80 
  30      C922AB38 
  30      796AFA0A 
  30      1E88
  31 004d 0A76C695 		.ascii	"\012v\306\225 \0250\231ig'\356b\203\310p2\256\002\311"
  31      20153099 
  31      696727EE 
ARM GAS  C:\Users\rdn\AppData\Local\Temp\ccG9Tpsn.s 			page 2


  31      6283C870 
  31      32AE02C9 
  32 0061 70808477 		.ascii	"p\200\204wO\2744\223\033$\314\310\370p\353\276\237\014"
  32      4FBC3493 
  32      1B24CCC8 
  32      F870EBBE 
  32      9F0C
  33 0073 8CAB4152 		.ascii	"\214\253AR\020\007\203\26521\2600U2\203\254\251\004"
  33      100783B5 
  33      3231B030 
  33      553283AC 
  33      A904
  34 0085 F159409A 		.ascii	"\361Y@\232^\037=\273\225I\221q~\303\014\205Vf&\006\240"
  34      5E1F3DBB 
  34      95499171 
  34      7EC30C85 
  34      56662606 
  35 009a C89783CB 		.ascii	"\310\227\203\313Np\326\377m\230\321\320 \320\312\314"
  35      4E70D6FF 
  35      6D98D1D0 
  35      20D0CACC 
  36 00aa CCB88651 		.ascii	"\314\270\206Q\021\250w-c=\310\024\220\226\337/\246\334"
  36      11A8772D 
  36      633DC814 
  36      9096DF2F 
  36      A6DC
  37 00bc 6404D9C3 		.ascii	"d\004\331\303\302\310\303\270\016l\207TAQ~rjq\261cA"
  37      C2C8C3B8 
  37      0E6C8754 
  37      41517E72 
  37      6A71B163 
  38 00d1 414EA57B 		.ascii	"AN\245{N~Rb\216{bf^|Z\005\003\000\253oG\031"
  38      4E7E5262 
  38      8E7B6266 
  38      5E7C5A05 
  38      0300AB6F 
  39              		.text
  40              		.section	.gnu.lto_.inline.d6191545,"",%progbits
  41 0000 789C6361 		.ascii	"x\234ca`d\000\201\026\006\004`d`\273\304\260\230\231"
  41      60640081 
  41      16060460 
  41      6460BBC4 
  41      B09899
  42 0013 91914900 		.ascii	"\221\221I\000(\311\3440k\243\000\003\307\007=&\006\026"
  42      28C9E430 
  42      6BA30003 
  42      C7073D26 
  42      0616
  43 0025 90241790 		.ascii	"\220$\027\220`\341\005\212O\360\233\340\307\302\313"
  43      60E1058A 
  43      4FF09BE0 
  43      C7C2CB
  44 0034 0862DC65 		.ascii	"\010b\334e\207\21200\363\000\225\200\304Q\270h\2420"
  44      878A3030 
  44      F3009580 
  44      C451B868 
  44      A230
ARM GAS  C:\Users\rdn\AppData\Local\Temp\ccG9Tpsn.s 			page 3


  45 0046 9A950F68 		.ascii	"\232\225\017h\024\003\220\2010\020\244\222\011h\003"
  45      14039081 
  45      3010A492 
  45      096803
  46 0055 0016E511 		.ascii	"\000\026\345\021\372"
  46      FA
  47              		.text
  48              		.section	.gnu.lto_.pureconst.d6191545,"",%progbits
  49 0000 789C6361 		.ascii	"x\234ca`d`f`\000\222R\000\000r\000$"
  49      60646066 
  49      60009252 
  49      00007200 
  49      24
  50              		.text
  51              		.section	.gnu.lto_processApplyGlobalGain_fx.d6191545,"",%progbits
  52 0000 789C9558 		.ascii	"x\234\225XkPTG\026\356\323=\017\030\206\001Wp\325E\005"
  52      6B505447 
  52      16EED33D 
  52      0F188601 
  52      5770D545 
  53 0015 1525A052 		.ascii	"\025%\240R\232\362\225\304\230Tmm~lj\0237\251\312\237"
  53      9AF295C4 
  53      98546D6D 
  53      7E6C6A13 
  53      37A9CA9F 
  54 0029 6CB14631 		.ascii	"l\261F1RQ\240\324dImmqe\270 \352\032|\004E1\370\210"
  54      5251A0D4 
  54      64496D6D 
  54      7165B820 
  54      EA1A7C04 
  55 0041 4A627C07 		.ascii	"Jb|\007\\t\305\001AT\300DM@\203\253\250\321\2401\256"
  55      5C74C501 
  55      4154C044 
  55      4D4083AB 
  55      A8D1A031 
  56 0056 A8597CCF 		.ascii	"\250Y|\317\236\323}\301\2133`\315\255\242\347\336\356"
  56      9ED37DC1 
  56      8B3360CD 
  56      ADA2E7DE 
  56      EE
  57 0067 F39DF3F5 		.ascii	"\363\235\363\365\351\257\317\355\213\205\001\243k]o"
  57      E9AFCFED 
  57      8B8501A3 
  57      6B5D6F
  58 0076 C65C78FB 		.ascii	"\306\\x\373\006\336\203\215\001\317?\316\330\374 \016"
  58      06DE838D 
  58      01CF3FCE 
  58      D8FC200E 
  59 0086 167523D4 		.ascii	"\026u#\324Me\220\205\213\305\265\214i\016k\266\235i"
  59      4D659085 
  59      8BC5B58C 
  59      690E6BB6 
  59      9D69
  60 0098 4E2B00F5 		.ascii	"N+\000\365kA\3002\271\260X!\223[\030x,\340\305KH\327"
  60      6B41C032 
  60      B9B05821 
  60      935B1878 
ARM GAS  C:\Users\rdn\AppData\Local\Temp\ccG9Tpsn.s 			page 4


  60      2CE0C54B 
  61 00ae BFF2471C 		.ascii	"\277\362G\034\252r\257\224\363\347\266hx\265\\\316\025"
  61      AA72AF94 
  61      F3E7B668 
  61      78B55CCE 
  61      15
  62 00bf 5A890774 		.ascii	"Z\211\007t\034\366ri\302`\013<\207V'\262w\026\211;\\"
  62      1CF67269 
  62      C2600B3C 
  62      875627B2 
  62      7716893B 
  63 00d4 1700167C 		.ascii	"\027\000\026|lkX}\311E\217\034\242\361q\365\276\334"
  63      6C6B587D 
  63      C9458F1C 
  63      A2F171F5 
  63      BEDC
  64 00e6 2C871806 		.ascii	",\207\030\006\014\3577\034\3656\272\206o\322\264,M+"
  64      0CEF371C 
  64      F536BA86 
  64      6FD2B42C 
  64      4D2B
  65 00f8 4ED68275 		.ascii	"N\326\202u!\340K\020\350\017\276\200((\201(\206]\014"
  65      21E04B10 
  65      E80FBE80 
  65      28288128 
  65      865D0C
  66 010b B6C270B4 		.ascii	"\266\302p\264~tz\361\227N\021'\221\033\227\037Y.\014"
  66      7E747AF1 
  66      974E1127 
  66      911B971F 
  66      592E0C
  67 011e E41989B4 		.ascii	"\344\031\211\264\300WO#q\016\333$\262\306\333\356\011"
  67      C0574F23 
  67      710EDB24 
  67      B2C6DBEE 
  67      09
  68 012f 538C681A 		.ascii	"S\214h\032'o\326\257\015Q\214\302\361q\367\306\317\363"
  68      276FD6AF 
  68      0D518CC2 
  68      F171F7C6 
  68      CFF3
  69 0141 AD6284F4 		.ascii	"\255b\204\364\373Cc\326\037\311-^Ks\234\332\233\272"
  69      FB4363D6 
  69      1FC92D5E 
  69      4B739CDA 
  69      9BBA
  70 0153 B0C24EE5 		.ascii	"\260\302N\345w\007\372\335.\375Z\031\354\222~O\256?"
  70      7707FADD 
  70      2EFD5A19 
  70      EC927E4F 
  70      AE3F
  71 0165 55172C46 		.ascii	"U\027,FKdK\366\226\3156\003\272\277\003\272\333\017"
  71      4B644BF6 
  71      96CD3603 
  71      BABF03BA 
  71      DB0F
  72 0177 748F842E 		.ascii	"t\217\204.l\177\224\347\022\257Jh\363\202\273\333\303"
ARM GAS  C:\Users\rdn\AppData\Local\Temp\ccG9Tpsn.s 			page 5


  72      6C7F94E7 
  72      12AF4A68 
  72      F382BBDB 
  72      C3
  73 0188 0CE89A5C 		.ascii	"\014\350\232\\\003\372\265\037h)\014'\373\335\225m6"
  73      03FAB51F 
  73      68290C27 
  73      FBDD956D 
  73      36
  74 0199 3145428F 		.ascii	"1EB\2177,\373 v\243\346\311\322<\305\037\256\302\337"
  74      372CFB20 
  74      76A3E6C9 
  74      D23CC51F 
  74      AEC2DF
  75 01ac 685DD8A0 		.ascii	"h]\330\240\254+\226.\264m_\262\267\011\304\333\022w"
  75      AC2B962E 
  75      B46D5FB2 
  75      B709C4DB 
  75      1277
  76 01be E676F94D 		.ascii	"\346v\371M\027\0015\315S\224\254\345\275\242\013;\374"
  76      170135CD 
  76      5394ACE5 
  76      BDA20B3B 
  76      FC
  77 01cf AB6B020D 		.ascii	"\253k\002\015X\363\271\265\213C\3436\0239O\373N\241"
  77      58F3B9B5 
  77      8B43E336 
  77      13394FFB 
  77      4EA1
  78 01e1 6941BA08 		.ascii	"iA\272\010\352\\sir\346@\335\303`\361\216\364\274\356"
  78      EA5C7369 
  78      72E640DD 
  78      C360F18E 
  78      F4BCEE
  79 01f4 FA86AFEC 		.ascii	"\372\206\257\354\350\231\314\333\322\0135Ov4\371\336"
  79      E899CCDB 
  79      D20B354F 
  79      7634F9DE 
  80 0204 EFD7F7B7 		.ascii	"\357\327\367\267\271\2378\305_$\256b\3679\267\305\300"
  80      B99F38C5 
  80      5F24AE62 
  80      F739B7C5 
  80      C0
  81 0215 9DFBABA6 		.ascii	"\235\373\253\246\277BI8\340w\"'ZW\334\262\211\017$L"
  81      BF424938 
  81      E0772227 
  81      5A57DCB2 
  81      890F244C 
  82 0229 BB7AA2D0 		.ascii	"\273z\242\320f\300\032\247\033\0239\3507\330\246\272"
  82      66C01AA7 
  82      1B1339E8 
  82      37D8A6BA 
  83 0239 43152EF1 		.ascii	"C\025.\3617\011\333q}\177[\007\354\324<\203e0T\372\005"
  83      3709DB71 
  83      7D7F5B07 
  83      ECD43C83 
  83      653054FA 
ARM GAS  C:\Users\rdn\AppData\Local\Temp\ccG9Tpsn.s 			page 6


  84 024e 5EDCF5F8 		.ascii	"^\334\365\370\323P[6\031GC\025\304\202\007\377*\360"
  84      D3505B36 
  84      19474315 
  84      C48207FF 
  84      2AF0
  85 0260 EFDFF8B7 		.ascii	"\357\337\370\267\017\342\240\034\177\367B\254J\012\034"
  85      0FE2A01C 
  85      7FF742AC 
  85      4A0A1C
  86 026f 021BEE41 		.ascii	"\002\033\356A\273\217\245a\205\016\353o,~[|,\211\034"
  86      BB8FA561 
  86      850EEB6F 
  86      2C7E5B7C 
  86      2C891C
  87 0282 29FBBA32 		.ascii	")\373\2722L\021iY\2710\251lc\216\226??\210&Q\355\313"
  87      4C116959 
  87      B930A96C 
  87      638E963F 
  87      3F882651 
  88 0298 056A2076 		.ascii	"\005j v\307\237=\232\327\353\326ZtG\345*\333\357\201"
  88      C79F3D9A 
  88      D7EBD65A 
  88      7447E52A 
  88      DBEF81
  89 02ab 511CDCC0 		.ascii	"Q\034\334\300(+\033\220B\202P+\016\0076!NjB\261q\272"
  89      282B1B90 
  89      4282502B 
  89      0E073621 
  89      4E6A42B1 
  90 02c1 A82F9C9A 		.ascii	"\250/\234\232^\324\364\246\201\010F\254\"\351\266\017"
  90      5ED4F4A6 
  90      810846AC 
  90      22E9B60F 
  91 02d1 357D19B1 		.ascii	"5}\031\261\355O\267$7\307@F\314\007\311\240\321@\212"
  91      ED4FB724 
  91      37C74046 
  91      CC07C9A0 
  91      D1408A
  92 02e4 8FA1B1C1 		.ascii	"\217\241\261\301\330\204\016\241f(\320\306\214\245-"
  92      D8840EA1 
  92      6628D0C6 
  92      8CA52D
  93 02f3 3A8C46E2 		.ascii	":\214F\342\250\211\247&A\222\032\001\264\375F\222\257"
  93      A889A726 
  93      41921A01 
  93      B4FD4692 
  93      AF
  94 0304 446AC6D2 		.ascii	"Dj\306\322\3208B\216\247f\0025\023\251y\201\232\027"
  94      D038428E 
  94      A7660235 
  94      13A97981 
  94      9A17
  95 0316 A979899A 		.ascii	"\251y\211\232I\324\274L\315dj\030\273\211i\305:\325"
  95      49D4BC4C 
  95      CD646A18 
  95      BB8969C5 
  95      3AD5
ARM GAS  C:\Users\rdn\AppData\Local\Temp\ccG9Tpsn.s 			page 7


  96 0328 C639FE88 		.ascii	"\3069\376\210V\320=\355\021\224e\312_y\371\365f{\346"
  96      56D03DED 
  96      119465CA 
  96      5F79F9F5 
  96      667BE6
  97 033b 236D81A6 		.ascii	"#m\201\246\205\353\302\345\345\230z8\014\2314\366sM"
  97      85EBC2E5 
  97      E5987A38 
  97      0C9934F6 
  97      734D
  98 034d 43298FD9 		.ascii	"C)\217\331\004\305\332*\\\3350\352\272S\271\371H0\232"
  98      04C5DA2A 
  98      5CDD30EA 
  98      BA53B9F9 
  98      48309A
  99 0360 AFC27C4F 		.ascii	"\257\302|O\321E8\324B\214t\005G \023\307\037\264\256"
  99      D14538D4 
  99      428C7405 
  99      472013C7 
  99      1FB4AE
 100 0373 3803541A 		.ascii	"8\003T\032z\201\023\216B\224.~\303(\340\236H\262r\213"
 100      7A81138E 
 100      42942E7E 
 100      C328E09E 
 100      48B2728B 
 101 0387 209F90BD 		.ascii	" \237\220\275\275H\213\3011\014\351\026V\267\260\351"
 101      BD488BC1 
 101      310CE916 
 101      56B7B0E9 
 102 0397 22022176 		.ascii	"\"\002!v\377\004#\275\034\013&\324)\202\373\227\236"
 102      FF0423BD 
 102      1C0B26D4 
 102      2982FB97 
 102      9E
 103 03a8 2C948528 		.ascii	",\224\205(\004.\224V\334cP\017Q*F~\331\325#\366\314"
 103      042E9456 
 103      DC63500F 
 103      512A467E 
 103      D9D523F6 
 104 03bd 7F504124 		.ascii	"\177PA$\331H\206\015\212\341\206\265%r\244\017\211I"
 104      D948860D 
 104      8AE186B5 
 104      2572A40F 
 104      8949
 105 03cf 8D1C874C 		.ascii	"\215\034\207L]\374\226]\201\254\202]\333\006(\246\016"
 105      5DFC965D 
 105      81AC825D 
 105      DB0628A6 
 105      0E
 106 03e0 022211AB 		.ascii	"\002\"\021\253zt\372P\351\353\305\"\317\340\033I\334"
 106      7A74FA50 
 106      E9EBC522 
 106      CFE01B49 
 106      DC
 107 03f1 81C3050D 		.ascii	"\201\303\005\015K\367\331\210\215\025\202\341[\232{"
 107      4BF7D988 
 107      8D1582E1 
ARM GAS  C:\Users\rdn\AppData\Local\Temp\ccG9Tpsn.s 			page 8


 107      5B9A7B
 108 0400 3FE9F2C2 		.ascii	"?\351\362\302(\345\"Tj\034{n\331U\207\013\373\236D\010"
 108      28E52254 
 108      6A1C7B6E 
 108      D955870B 
 108      FB9E4408 
 109 0414 F7971A2B 		.ascii	"\367\227\032+F8!#\270p\370\350\261\225%N\025\301\016"
 109      46382123 
 109      B870F8E8 
 109      B195254E 
 109      15C10E
 110 0427 27294204 		.ascii	"')B\004\372s?\314\251\266(\037\275\224\233\203\215\017"
 110      FA733FCC 
 110      A9B6281F 
 110      BD949B83 
 110      8D0F
 111 0439 9B84B2F3 		.ascii	"\233\204\262\363\0128\205\352o\005\303\242\267O\224"
 111      0A3885EA 
 111      6F05C3A2 
 111      B74F94
 112 0448 FE5E6EC3 		.ascii	"\376^n\303(\337\311(\275t\361;ry7\347,(@\004\316\035"
 112      28DFC928 
 112      BD74F13B 
 112      727937E7 
 112      2C284004 
 113 045e 61EC2270 		.ascii	"a\354\"p\2713Q\363n\0316\253\240\274\372\320\321\260"
 113      B93351F3 
 113      6E1936AB 
 113      A0BCFAD0 
 113      D1B0
 114 0470 AEFBDB53 		.ascii	"\256\373\333S\267\315*w\260\227\333\237\336\372\014"
 114      B7CD2A77 
 114      B097DB9F 
 114      DEFA0C
 115 047f BE078AD4 		.ascii	"\276\007\212\324Hn\373\310\"R~/\224hF\311\255\374\340"
 115      486EFBC8 
 115      22527E2F 
 115      946846C9 
 115      ADFCE0
 116 0492 70D192B0 		.ascii	"p\321\222\260NZQyBU\217\352\332\033E\316bX;_\223\375"
 116      4E5A5179 
 116      42558FEA 
 116      DA1B45CE 
 116      62583B5F 
 117 04a8 21701A32 		.ascii	"!p\0322\241\211v4\234\201b &\373$\023\345\370\005Z\011"
 117      A1897634 
 117      9C816220 
 117      26FB2413 
 117      E5F8055A 
 118 04bd BDEA1B3B 		.ascii	"\275\352\033;9\036\000\276\022\032\220'@:\276V\377}"
 118      391E00BE 
 118      121A9027 
 118      403ABE56 
 118      FF7D
 119 04cf B5E389E3 		.ascii	"\265\343\211\343\201\320\214\216\177 \3074x\340\300"
 119      81D08C8E 
 119      7F20C734 
ARM GAS  C:\Users\rdn\AppData\Local\Temp\ccG9Tpsn.s 			page 9


 119      78E0C0
 120 04de 05317A87 		.ascii	"\0051z\207|\247\274\245\213Ap\026c!m\246f\201\026w\213"
 120      7CA7BCA5 
 120      8B417016 
 120      63216DA6 
 120      66811677 
 121 04f3 EEDD1789 		.ascii	"\356\335\027\211\333\244\005\312)\032\376\003\243\037"
 121      DBA405CA 
 121      291AFE03 
 121      A31F
 122 0501 73631CCE 		.ascii	"sc\034\316A\"\345\261 \347\272E\361zQQ+\315\255\337"
 122      4122E5B1 
 122      20E7BA45 
 122      F17A5151 
 122      2BCDADDF 
 123 0515 E5206A58 		.ascii	"\345 jX\022\340<\006\243D\002\231\004@\264\245'\242"
 123      12E03C06 
 123      A3440299 
 123      0440B4A5 
 123      27A2
 124 0527 179E49F4 		.ascii	"\027\236I\364\242\231\350%HDr\270\274Y-\227\033\345"
 124      A299E825 
 124      484472B8 
 124      BC592D97 
 124      1BE5
 125 0539 1223E452 		.ascii	"\022#\344RU\336e\2478\0172}\015\353\3577q\243\326\037"
 125      55DE65A7 
 125      380F327D 
 125      0DEBEF37 
 125      71A3D61F 
 126 054d 3CEDECA8 		.ascii	"<\355\354\250\257?\372\251\257\227\2258\320\231go\244"
 126      AF3FFAA9 
 126      AF979538 
 126      D099676F 
 126      A4
 127 055e E1EBEADE 		.ascii	"\341\353\352\336\346$qE\271\272\261\265\365@\210\257"
 127      E6247145 
 127      B9BAB1B5 
 127      F54088AF 
 128 056e AB2B7E5C 		.ascii	"\253+~\\\375$+\375\326E\307j\034j\207#&\035Ze\306P\236"
 128      FD242BFD 
 128      D645C76A 
 128      1C6A8723 
 128      261D5A65 
 129 0585 E74BF2D7 		.ascii	"\347K\362\327\370ho{\002\301\210\205\241\301 \237\327"
 129      F8686F7B 
 129      02C18885 
 129      A1C1209F 
 129      D7
 130 0596 4F0D8D5D 		.ascii	"O\015\215]\225:\274F\3132\010\371J\257\224\200\225\013"
 130      953ABC46 
 130      CB3208F9 
 130      4AAF9480 
 130      950B
 131 05a8 7FBC22A8 		.ascii	"\177\274\"\250\237\314pLj\253\355r\243]\331N\010`\211"
 131      9FCC704C 
 131      6AABED72 
ARM GAS  C:\Users\rdn\AppData\Local\Temp\ccG9Tpsn.s 			page 10


 131      A35DD94E 
 131      086089
 132 05bb 7EEE6689 		.ascii	"~\356f\211\246\320\022]\357\\\242\253\276K\364wZ\242"
 132      A6D0125D 
 132      EF5CA2AB 
 132      BE4BF477 
 132      5AA2
 133 05cd 5F688940 		.ascii	"_h\211@\215\303\215\016-}gQD&\"\027\223x\256\005$\236"
 133      8DC38D0E 
 133      2D7D6751 
 133      44262217 
 133      9378AE05 
 134 05e3 FFF6C4EC 		.ascii	"\377\366\304\354\3463\231\265\231\231\335\"\361L\224"
 134      E63399B5 
 134      9999DD22 
 134      F14C94
 135 05f2 B9DBD424 		.ascii	"\271\333\324$\027\\&\277\263X\374d~\240\324c!\312\326"
 135      175C26BF 
 135      B358FC64 
 135      7EA0D463 
 135      21CAD6
 136 0605 DE5295A5 		.ascii	"\336R\225\245\257\017\351\030/\017\306\320\267e)\032"
 136      AF0FE918 
 136      2F0FC6D0 
 136      B765291A 
 137 0615 A48BC19D 		.ascii	"\244\213\301\235X\017\255G_\371*i*5*S\177\177%\331\201"
 137      580FAD47 
 137      5FF92A69 
 137      2A352A53 
 137      7F7F25D9 
 138 062a F83B121F 		.ascii	"\370;\022\037AG\336\355\237\235\014S\205\260\037\374"
 138      4147DEED 
 138      9F9D0C53 
 138      85B01FFC 
 139 063a AA4A7267 		.ascii	"\252Jrg)\214\362\301\017\361\362\020\304\377O\342\373"
 139      298CF2C1 
 139      0FF1F210 
 139      C4FF4FE2 
 139      FB
 140 064b EB622805 		.ascii	"\353b(\005\324\336Q\346\003\273{u\265K\363(\363\346"
 140      D4DE51E6 
 140      03BB7B75 
 140      B54BF328 
 140      F3E6
 141 065d C6F304DC 		.ascii	"\306\363\004\334U\365\271c\006\0254\203\201r\305\356"
 141      55F5B963 
 141      06153483 
 141      8172C5EE 
 142 066d DDD8537A 		.ascii	"\335\330Sz\007\236\026oYG\341t\372\026\316{R\260\367"
 142      079E166F 
 142      5947E174 
 142      FA16CE7B 
 142      52B0F7
 143 0680 89C6D800 		.ascii	"\211\306\330\000*\345\203\316J\371\260\243R\252\330"
 143      2AE583CE 
 143      4AF9B0A3 
 143      52AAD8
ARM GAS  C:\Users\rdn\AppData\Local\Temp\ccG9Tpsn.s 			page 11


 144 068f CAD5B800 		.ascii	"\312\325\270\000T\363\250'\325<\226\252\031\313\024"
 144      54F3A827 
 144      D53C96AA 
 144      19CB14
 145 069e 517FAAF1 		.ascii	"Q\177\252\361\222j\270\032\007\215\033z\256\267(\"\343"
 145      926AB81A 
 145      078D1B7A 
 145      AEB72822 
 145      E3
 146 06af 918B49CF 		.ascii	"\221\213I\317\367\003\322\363|\336\003\263,\376,fnn"
 146      F703D2F3 
 146      7CDE03B3 
 146      2CFE2C66 
 146      6E6E
 147 06c1 6296CD51 		.ascii	"b\226\315Q\317\343\225\236\233\325\272\321)4\236jR\033"
 147      CFE3959E 
 147      9BD5BAD1 
 147      29349E6A 
 147      521B
 148 06d3 9E3CF0A3 		.ascii	"\236<\360\243O\320\013<\367\360\026\241T1\330-(\261"
 148      4FD00B3C 
 148      F7F016A1 
 148      5431D82D 
 148      28B1
 149 06e5 EED536F5 		.ascii	"\356\3256\365<\004\273\314\337p\241\2506\235\313\242"
 149      3C04BBCC 
 149      DF70A1A8 
 149      369DCBA2 
 150 06f5 559473D6 		.ascii	"U\224s\326\000\241\022\206\242)M\367\376\302j\256:\207"
 150      00A11286 
 150      A2294DF7 
 150      FEC26AAE 
 150      3A87
 151 0707 995F5C42 		.ascii	"\231_\\B\226\313\366\332c\013hA\361+\321\216(\310\341"
 151      96CBF6DA 
 151      630B6841 
 151      F12BD18E 
 151      28C8E1
 152 071a B496B938 		.ascii	"\264\226\2718\247'\307\2068\237T\305z9\036\372`\001"
 152      A727C786 
 152      389F54C5 
 152      7A391EFA 
 152      6001
 153 072c 27590EC3 		.ascii	"'Y\016\303m\243\343\371\2222\273>\314(\311\035~)\207"
 153      6DA3E3F9 
 153      9232BB3E 
 153      CC28C91D 
 153      7E2987
 154 073f 1A1D2B4D 		.ascii	"\032\035+M\336\363d\306\342\214\027\374\355\272\247"
 154      DEF364C6 
 154      E28C17FC 
 154      EDBAA7
 155 074e 8BECA28A 		.ascii	"\213\354\242\212~\206N]\276:](\217\022\2138\362\212"
 155      7E864E5D 
 155      BE3A5D28 
 155      8F128B38 
 155      F28A
ARM GAS  C:\Users\rdn\AppData\Local\Temp\ccG9Tpsn.s 			page 12


 156 0760 0C40A78B 		.ascii	"\014@\247\213y\207N\377\311;\337\350\030Zyz)\0001,\351"
 156      79874EFF 
 156      C93BDFE8 
 156      185A797A 
 156      2900312C 
 157 0775 460CF2CD 		.ascii	"F\014\362\315\370\211\234Z$S<\375\275\031\363I\014B"
 157      F8899C5A 
 157      24533CFD 
 157      BD19F349 
 157      0C42
 158 0787 8DC352FE 		.ascii	"\215\303R\376\344\025.\211LB.&\231b_\000\314\226\365"
 158      E4152E89 
 158      4C422E26 
 158      99625F00 
 158      CC96F5
 159 079a C46CF933 		.ascii	"\304l\3713\231\25503\373\224d:I\221[\371\213C\011!\001"
 159      99AD3033 
 159      FB94643A 
 159      49915BF9 
 159      8B430921 
 160 07af 9568AE41 		.ascii	"\225h\256A\301X\203\012xTg\001\252\242\002\224 \205"
 160      C158830A 
 160      78546701 
 160      AAA20294 
 160      2085
 161 07c1 6C61F9C7 		.ascii	"la\371\307\231@\225\2073\325\015\346ci\214"
 161      99409587 
 161      33D50DE6 
 161      63698C
 162 07d0 5B44B30B 		.ascii	"[D\263\013\220}\334P+2\213\241W\362-t\030\037\305QT"
 162      907DDC50 
 162      2B328BA1 
 162      57F22D74 
 162      181FC551 
 163 07e5 0982BC58 		.ascii	"\011\202\274X\351kBJ\370q\255a:\322\254a\313\323\032"
 163      E96B424A 
 163      F871AD61 
 163      3AD2AC61 
 163      CBD31A
 164 07f8 C6D3FD08 		.ascii	"\306\323\375\010X)U\266\252\213\206\023\273+\255\205"
 164      582955B6 
 164      AA8B8613 
 164      BB2BAD85 
 165 0808 52C323B1 		.ascii	"R\303#\261p\352\306\231s}\250?\015\207tq\276Zf3\261"
 165      70EAC699 
 165      737DA83F 
 165      0D877471 
 165      BE5A6633 
 166 081d FB33EAC1 		.ascii	"\3733\352\301?u\177F]#%\\D\353\035\037\200\204\327v"
 166      3F757F46 
 166      5D23255C 
 166      44EB1D1F 
 166      8084D776 
 167 0831 4AF833DE 		.ascii	"J\3703\336\345P*=\275\034\200P\212{\022\312:9\265x\246"
 167      E5502A3D 
 167      BD1C8050 
 167      8A7B12CA 
ARM GAS  C:\Users\rdn\AppData\Local\Temp\ccG9Tpsn.s 			page 13


 167      3A39B578 
 168 0846 78FA13CA 		.ascii	"x\372\023\312z\256\016w4\016\033L\022\226D&#\027\223"
 168      7AAE0E77 
 168      340E1B4C 
 168      12964426 
 168      231793
 169 0859 848B0292 		.ascii	"\204\213\002\222\360\306\236\230}\376Lf\233\314\314"
 169      F0C69E98 
 169      7DFE4C66 
 169      9BCCCC
 170 0868 36938427 		.ascii	"6\223\204'\243\004\334-5\027\343\374\177\354\015\367"
 170      A304DC2D 
 170      3517E3FC 
 170      7FEC0DF7 
 171 0878 F230FAAF 		.ascii	"\3620\372\257\030\212@\227\025\251\352\254\024\014}"
 171      188A4097 
 171      15A9EAAC 
 171      140C7D
 172 0887 99A17161 		.ascii	"\231\241qa\213g\231uB\231\266\200\312#\203\022>\301"
 172      8B679975 
 172      4299B680 
 172      CA238312 
 172      3EC1
 173 0899 64B2D7C7 		.ascii	"d\262\327\307\004\203~\201&\327\360lZ\370\007\031\220"
 173      04837E81 
 173      26D7F06C 
 173      5AF80719 
 173      90
 174 08aa AE9B7896 		.ascii	"\256\233x\226\311\266#\255!3R2\222\247'\245\247\245"
 174      C9B623AD 
 174      21335232 
 174      92A727A5 
 174      A7A5
 175 08bc A4CE7B77 		.ascii	"\244\316{wjz\372\254\217\223\336\237\225\366\336\324"
 175      6A7AFAAC 
 175      8F93DE9F 
 175      95F6DED4 
 176 08cc 5949EF4F 		.ascii	"YI\357OMIM\232\2211j\032\203\014\221\221\224l\311x="
 176      4D494D9A 
 176      91316A1A 
 176      830C9191 
 176      946CC978 
 177 08e1 3935CC3C 		.ascii	"95\314<\2302=\243\313s\332\214\031|\366,>{\246u\336"
 177      98323DA3 
 177      CB73DA8C 
 177      197CF62C 
 177      3E7BA675 
 178 08f6 ECF4E7C7 		.ascii	"\354\364\347\307\204\232\307\222CLO\220\022\374z\322"
 178      849AC792 
 178      434C4F90 
 178      12FC7AD2 
 179 0906 4753E724 		.ascii	"GS\347$\245}8/f\324\273f\012\357M\235\2332-)-=19u\346"
 179      A57D382F 
 179      66D4BB66 
 179      0AEF4D9D 
 179      9B322D29 
 180 0920 E871CF8F 		.ascii	"\350q\317\217\0315\223\365O\237\2236-y\356\334W\211"
ARM GAS  C:\Users\rdn\AppData\Local\Temp\ccG9Tpsn.s 			page 14


 180      193593F5 
 180      4F9F9336 
 180      2D79EEDC 
 180      5789
 181 0932 DD6BD2CB 		.ascii	"\335k\322\313k\212\033\033\330\015xv\332G\311\210\264"
 181      6B8A1B1B 
 181      D80D7876 
 181      DA47C988 
 181      B4
 182 0943 C928A3D5 		.ascii	"\311(\243\325\317\230\356\"MKK\2357'm\026\332\377\037"
 182      CF98EE22 
 182      4D4B4B9D 
 182      37276D16 
 182      DAFF1F
 183 0956 374DEA05 		.ascii	"7M\352\005"
 184              		.text
 185              		.section	.gnu.lto_.symbol_nodes.d6191545,"",%progbits
 186 0000 789C55C9 		.ascii	"x\234U\3119\016\3020\024\204\341qlg\205\023\260$a?\003"
 186      390EC230 
 186      1484E171 
 186      6C678513 
 186      B024613F 
 187 0015 977B2922 		.ascii	"\227{)\"J\240\247\240\361)\220\350\\SR\203\2242g\000"
 187      4AA0A7A0 
 187      F12990E8 
 187      5C535283 
 187      94326700 
 188 0029 E257F1AA 		.ascii	"\342W\361\252O\377\214\201\302^\001\210&\004\234\037"
 188      4FFF8C81 
 188      C25E0188 
 188      26049C1F 
 189 0039 C0C0ADA9 		.ascii	"\300\300\255\251\001\273E5\354v\247\002jC\212o\240i"
 189      01BB4535 
 189      EC76A702 
 189      6A438A6F 
 189      A069
 190 004b 8641CD28 		.ascii	"\206A\315(\022\275&-zEF\364\222\254\350\005\305\242"
 190      12BD262D 
 190      7A4546F4 
 190      92ACE805 
 190      C5A2
 191 005d 6B4A4457 		.ascii	"kJDW\224\212.)\023=\247\\\364\224\212\377\326\030\303"
 191      948A2E29 
 191      133DA75C 
 191      F4948AFF 
 191      D618C3
 192 0070 BD3E4AC3 		.ascii	"\275>J\303\300\263#tl\001\367\016\346h\017}\251\221"
 192      C0B32374 
 192      6C01F70E 
 192      E6680F7D 
 192      A991
 193 0082 C1B329BA 		.ascii	"\301\263)\272c0\201;\005cx\326\240c-\374\363{\267<\\"
 193      6330813B 
 193      056378D6 
 193      A0632DFC 
 193      F37BB73C 
 194 0097 C2A0E1AE 		.ascii	"\302\240\341\256}\211\037\270\255Hn"
ARM GAS  C:\Users\rdn\AppData\Local\Temp\ccG9Tpsn.s 			page 15


 194      7D891FB8 
 194      AD486E
 195              		.text
 196              		.section	.gnu.lto_.refs.d6191545,"",%progbits
 197 0000 789C05C1 		.ascii	"x\234\005\3011\016\200 \000\004\301\275\215-\304\206"
 197      310E8020 
 197      0004C1BD 
 197      8D2DC486 
 198 0010 504B2C25 		.ascii	"PK,%\324\032\376\377.g\016\302\004*\244`\215'\266\330"
 198      D41AFEFF 
 198      2E670EC2 
 198      042AA460 
 198      8D27B6D8 
 199 0024 C98523DE 		.ascii	"\311\205#\336\344\301\031\027y\361\213\233\037.e\002"
 199      E4C11917 
 199      79F18B9B 
 199      1F2E6502 
 200 0034 53       		.ascii	"S"
 201              		.text
 202              		.section	.gnu.lto_.decls.d6191545,"",%progbits
 203 0000 789CED5A 		.ascii	"x\234\355ZkP\224W\232\356\323\247\273\201\246\201\224"
 203      6B509457 
 203      9AEED3A7 
 203      BB81A681 
 203      94
 204 0011 49ED9A5D 		.ascii	"I\355\232]7\311dL\226\251\335J\274$\251\255\375\265"
 204      37C9644C 
 204      96A9DD4A 
 204      BC24A9AD 
 204      FDB5
 205 0023 33999924 		.ascii	"3\231\231$UNtjr\251\255\232\255^\004\022\331E\260\000"
 205      554E746A 
 205      72A9AD9A 
 205      AD5E0412 
 205      D945B000 
 206 0037 33C99F9D 		.ascii	"3\311\237\235\026\220\213\2404\250\010\310\375\" \210"
 206      16908BA0 
 206      34A808C8 
 206      FD222088 
 207 0047 DC44452E 		.ascii	"\334DE.\255\010\202\\\345~\027\024\021\020\021\005\344"
 207      AD08825C 
 207      E57E1714 
 207      11101105 
 207      E4
 208 0058 26B0EFB9 		.ascii	"&\260\357\271t\237\356\257\273\253\362w\253\266\213"
 208      749FEEAF 
 208      BBABF277 
 208      ABB68B
 209 0067 87F3BDE7 		.ascii	"\207\363\275\347<\347=\317y\317\345;_\367\247\220!\031"
 209      3CE73DCF 
 209      79CFE53B 
 209      5FF7A790 
 209      2119
 210 0079 F9E05D32 		.ascii	"\371\340]2\331WJ\231,\032\314-\370\310!\357\033\000"
 210      D9574A99 
 210      2C1ACC2D 
 210      F8C821EF 
ARM GAS  C:\Users\rdn\AppData\Local\Temp\ccG9Tpsn.s 			page 16


 210      1B00
 211 008b 64C98A00 		.ascii	"d\311\212\000\007\000\225\200\033\000\225\214}4\200"
 211      07009580 
 211      1B00958C 
 211      7D3480
 212 009a 66401BA0 		.ascii	"f@\033\240\013\320\017\030\006\214\003\036\001\246\001"
 212      0BD00F18 
 212      068C031E 
 212      01A601
 213 00a9 4F004F01 		.ascii	"O\000O\001k\000\004\276\211_\014\251\213\\f\361!~~\305"
 213      6B0004BE 
 213      895F0CA9 
 213      8B5C66F1 
 213      217E7EC5 
 214 00bd DBDC0678 		.ascii	"\333\334\006x\003\320\010\270\311\333\177\001h\000\374"
 214      03D008B8 
 214      C9DB7F01 
 214      6800FC
 215 00cc 3DD47B03 		.ascii	"=\324{\003\260\235kz\037\260\037\360\226\\\242\017\332"
 215      B09D6B7A 
 215      1FB01FF0 
 215      965CA20F 
 215      DA
 216 00dd 781BF23A 		.ascii	"x\033\362:\341\362\035H\027!]\005\374\002\256\307 }"
 216      E1F21D48 
 216      17215D05 
 216      FC02AEC7 
 216      207D
 217 00ef 17D22948 		.ascii	"\027\322)H?\007\374\022\2565\0005\300\025\352\355\204"
 217      3F07FC12 
 217      AE350035 
 217      C015EAED 
 217      84
 218 0100 7402F2DF 		.ascii	"t\002\362\337\203t\210\264\001i\037\244\377\010i+\244"
 218      837488B4 
 218      01691FA4 
 218      FF08692B 
 218      A4
 219 0111 0AD247E0 		.ascii	"\012\322G\340]\007<\000\\\002\274\306\373@\372\330\305"
 219      5D073C00 
 219      5C02BCC6 
 219      FB40FAD8 
 219      C5
 220 0122 FBFB94F7 		.ascii	"\373\373\224\367\237\304\301\035\352\376J\316\3422\316"
 220      9FC4C11D 
 220      EAFE4ACE 
 220      E232CE
 221 0131 E3F44F72 		.ascii	"\343\364Or\026\263\177\226\263\030\332\213\315\206\034"
 221      16B37F96 
 221      B318DA8B 
 221      CD861C
 222 0140 3DCC6CCB 		.ascii	"=\314l\313\222/\312\321v5\332\332B\220\221d\350\370"
 222      922FCAD1 
 222      7635DADA 
 222      42909164 
 222      E8F8
 223 0152 0F66EB74 		.ascii	"\017f\353t\377\003\366\375\325\274\337\177P\250\203"
ARM GAS  C:\Users\rdn\AppData\Local\Temp\ccG9Tpsn.s 			page 17


 223      FF03F6FD 
 223      D5BCDF7F 
 223      50A883
 224 0161 8F5EA793 		.ascii	"\217^\247\223\313E\315\356\214\314\313\256\330\031\221"
 224      CB45CDEE 
 224      8CCCCBAE 
 224      D81991
 225 0170 EBFAAD65 		.ascii	"\353\372\255e\203\033\324\332\246Fr0;\347[R\234\301"
 225      831BD4DA 
 225      A6467230 
 225      3BE75B52 
 225      9CC1
 226 0182 7C438D5E 		.ascii	"|C\215^\333\220\313\303\307\257V+\220\273\372\002\361"
 226      DB90CBC3 
 226      C7AF562B 
 226      90BBFA02 
 226      F1
 227 0193 32D653E8 		.ascii	"2\326S\350\226\246\323\275\206\212\220\032]D\030\345"
 227      96A6D3BD 
 227      868A901A 
 227      5D4418E5 
 228 01a3 A30F48F7 		.ascii	"\243\017H\367\266\253\341\177\004a\350Bt\352<W\031*"
 228      B6ABE17F 
 228      0461E842 
 228      74EA3C57 
 228      192A
 229 01b5 443B5001 		.ascii	"D;P\001\332!C\227\220;\321C\210(\0172sI&T\207\226\026"
 229      DA214397 
 229      903BD143 
 229      88280F32 
 229      73492654 
 230 01cc CFB50CF0 		.ascii	"\317\265\014\360\206\337\004\363^hq2f\246\002\314\347"
 230      86DF04F3 
 230      5E687132 
 230      66A602CC 
 230      E7
 231 01dd AD490F5D 		.ascii	"\255I\017]\231\216w\300<\037|'R\255\246m\350Ct\333\032"
 231      998E77C0 
 231      3C1F7C27 
 231      52ADA66D 
 231      E84374DB 
 232 01f2 5D09AF04 		.ascii	"]\011\257\004\034\026\203C\031*E \001}\270\003]\006"
 232      1C168343 
 232      192A4520 
 232      017DB803 
 232      5D06
 233 0204 13E88F1F 		.ascii	"\023\350\217\037g\234\3210g\177\007\346\310\351\233"
 233      679CD130 
 233      677F07E6 
 233      C8E99B
 234 0213 292AE6AC 		.ascii	")*\346\254\203\004\252g\245zM\203?&\375W\224\005\337"
 234      8304AA67 
 234      A57A4D83 
 234      3F26FD57 
 234      9405DF
 235 0226 CF7045EE 		.ascii	"\317pE\356;\0208C\254\237$Z2t\035:y\005ac\300\223t\320"
 235      3B103843 
ARM GAS  C:\Users\rdn\AppData\Local\Temp\ccG9Tpsn.s 			page 18


 235      AC9F245A 
 235      32741D3A 
 235      79056163 
 236 023e FAFC5F49 		.ascii	"\372\374_I6\\;\322\024r\202u\363\231:\325v\031\332\273"
 236      365C3BD2 
 236      14728275 
 236      F3993AD5 
 236      7619DABB 
 237 0252 03ED82BE 		.ascii	"\003\355\202\276U@\207IM\332\343k\340\363*S4c([u\334"
 237      55408749 
 237      4DDAE36B 
 237      E0F32A53 
 237      3463285B 
 238 0268 A6E7EEFF 		.ascii	"\246\347\356\377\015QR9\224\227\321\016T\242m\306nP"
 238      0D515239 
 238      9497D10E 
 238      54A26DC6 
 238      6E50
 239 027a 036AC4BE 		.ascii	"\003j\304\276X}\250\320\234 M\360.C\276Y\237o \015\235"
 239      587DA8D0 
 239      9C204DF0 
 239      2E43BE59 
 239      9F6F200D 
 240 028f D390027B 		.ascii	"\323\220\002{+\255<\306q\010\015\020\301l\365\322iG"
 240      2BAD3CC6 
 240      71080D10 
 240      C16CF5D2 
 240      6947
 241 02a1 FE230A19 		.ascii	"\376#\012\031\0035\341B.c\027\306,\323G\306)r\343\245"
 241      0335E142 
 241      2E6317C6 
 241      2CD347C6 
 241      2972E3A5 
 242 02b5 7046FF78 		.ascii	"pF\377x}\264e\374P'\302;\342\225\230\315+\313x%$\027"
 242      7DB465FC 
 242      5027C23B 
 242      E29598CD 
 242      2BCB7825 
 243 02cb 0D20661A 		.ascii	"\015 f\032k\230\371\223(2j66#\223\033\347\361\205\362"
 243      6B98F993 
 243      28326A36 
 243      3623931B 
 243      E7F185F2 
 244 02df B54E39FE 		.ascii	"\265N9\376W:\217\333\206\023\2724\012(\242\263\363\240"
 244      573A8FDB 
 244      8613BA34 
 244      0A28A2B3 
 244      F3A0
 245 02f1 82E4BD6A 		.ascii	"\202\344\275j\035\352\225\233\362j\020\315\354{\266"
 245      1DEA959B 
 245      F26A10CD 
 245      EC7BB6
 246 0300 79119932 		.ascii	"y\021\2312kYf\313\371W\267,\203M\012E\260o\262`\003"
 246      6B5966CB 
 246      F957B72C 
 246      834D0A45 
 246      B06FB260 
ARM GAS  C:\Users\rdn\AppData\Local\Temp\ccG9Tpsn.s 			page 19


 247 0315 73FCC5E0 		.ascii	"s\374\305\340\005GZ\035\362\220\201U?~\362\32295L\260"
 247      05475A1D 
 247      F2908155 
 247      3F7EF2D2 
 247      39354CB0 
 248 0329 036A1A17 		.ascii	"\003j\032\027\007\310\232\230_\253P\260,2\350?\222\031"
 248      07C89A98 
 248      5FAB50B0 
 248      2C32E83F 
 248      9219
 249 033b 7FA767D9 		.ascii	"\177\247g\331\001\177E\344\312\257\017\205\345\251\220"
 249      017F45E4 
 249      CAAF0F85 
 249      E5A990
 250 034a DADD6C4A 		.ascii	"\332\335lJ\313L\355\241;0\213\016\360It\0332\353 \223"
 250      CB4CEDA1 
 250      3B308B0E 
 250      F049741B 
 250      32EB2093 
 251 035e 4E4D43E2 		.ascii	"NMC\342]W\035\314\276\006PW/V\340\0015\023\027\332>"
 251      5D571DCC 
 251      BE065057 
 251      2F56E001 
 251      351317DA 
 252 0373 58892CBA 		.ascii	"X\211,\272\321`\321\215FS7Bjc\023\025\264\033\220\207"
 252      D160D18D 
 252      46533742 
 252      6A631315 
 252      B41B9087 
 253 0387 6EB16E3C 		.ascii	"n\261n<\272s\374\234\303\366x.\351\035\005\372\346o"
 253      BA73FC9C 
 253      C3F6782E 
 253      E91D05FA 
 253      E66F
 254 0399 CC2ADF45 		.ascii	"\314*\337E\260\301\242&\244`\036\252\372B.\270\274\233"
 254      B0C1A226 
 254      A4601EAA 
 254      FA422EB8 
 254      BC9B
 255 03ab AE4B2FD6 		.ascii	"\256K/\326\215-7\270\305\207\350\032\241\336;\204\206"
 255      8D2D37B8 
 255      C587E81A 
 255      A1DE3B84 
 255      86
 256 03bc AA85B46A 		.ascii	"\252\205\264j\272\204P\025\032\202\321kF\357B\315\256"
 256      BA845015 
 256      1A82D16B 
 256      46EF42CD 
 256      AE
 257 03cd AAF53135 		.ascii	"\252\36515\376+\035\266\215\246\363Ir\273M\266\322&"
 257      FE2B1DB6 
 257      8DA6F349 
 257      72BB4DB6 
 257      D226
 258 03df 0FF216B3 		.ascii	"\017\362\026\263\323n\257\"hq\014\266\242\312\023o%"
 258      D36EAF22 
 258      68710CB6 
ARM GAS  C:\Users\rdn\AppData\Local\Temp\ccG9Tpsn.s 			page 20


 258      A2CA136F 
 258      25
 259 03f0 EA6E2908 		.ascii	"\352n)\010\003\265\210\326Z\370\202Em\254\2453\351i"
 259      03B588D6 
 259      5AF88245 
 259      6DACA533 
 259      E969
 260 0402 6A5C847E 		.ascii	"j\\\204~\346\014\351\340a\230\216Yp4\327d9\027:\251"
 260      E60CE9E0 
 260      61988E59 
 260      7034D764 
 260      39173AA9 
 261 0416 A87BC638 		.ascii	"\250{\3068<\237\256\357r\345\252z\232\277\015\316\012"
 261      3C9FAEEF 
 261      72E5AA7A 
 261      9ABF0DCE 
 261      0A
 262 0427 33E81165 		.ascii	"3\350\021e\241v!\254\335(\254\213\012\033\311\275\327"
 262      A17621AC 
 262      DD28AC8B 
 262      0A1BC9BD 
 262      D7
 263 0438 EE88BB99 		.ascii	"\356\210\273\231\260\250\336;\241\316TD\203I\330\345"
 263      B0A8DE3B 
 263      A1CE5444 
 263      8349D8E5 
 264 0448 A2D44847 		.ascii	"\242\324HGS^\017\023\366d\266\260\311\315\\\230\345"
 264      535E0F13 
 264      F664B6B0 
 264      C9CD5C98 
 264      E5
 265 0459 E8F65161 		.ascii	"\350\366Qa\275Fa[\206\202+r.\354U\333\3074\\@A\335B"
 265      BD46615B 
 265      86822B72 
 265      2EEC55DB 
 265      C7345C40 
 266 0470 55B75155 		.ascii	"U\267QU?U5\034S\236\340\212\227\355\253jH\\\211S\333"
 266      3F55351C 
 266      539EE08A 
 266      97EDAB6A 
 266      485C8953 
 267 0485 8FCC1015 		.ascii	"\217\314\020\0250h\0240\274x\"\325\211\013\350\216\362"
 267      30681430 
 267      BC7822D5 
 267      890BE88E 
 267      F2
 268 0496 8A0B49FF 		.ascii	"\212\013I\377\234P\310&e\0240`\0240L\0054\227-W\250"
 268      9C50C826 
 268      65143060 
 268      14304C05 
 268      34972D57 
 269 04ab F031B9DD 		.ascii	"\3601\271\335\361\352(\330z\342j\0225\312\302\262\332"
 269      F1EA28D8 
 269      7AE26A12 
 269      35CAC2B2 
 269      DA
 270 04bc B8D9AAB1 		.ascii	"\270\331\252\261\037\2261\252\352\276Q\325\351\374\205"
ARM GAS  C:\Users\rdn\AppData\Local\Temp\ccG9Tpsn.s 			page 21


 270      1F9631AA 
 270      EABE51D5 
 270      E9FC85
 271 04cb 39155365 		.ascii	"9\025Se\250i\326\300`\021\006\032\021\242F\214\242\306"
 271      A869D6C0 
 271      6011061A 
 271      11A2468C 
 271      A2C6
 272 04dd A9A8F486 		.ascii	"\251\250\364\206\301\010\027\034.\267\033\225\245\374"
 272      C108171C 
 272      2EB71B95 
 272      A5FC
 273 04eb C50407FB 		.ascii	"\305\004\007\373\355O\320\366\037\032\333\257\211\012"
 273      ED4FD0F6 
 273      1F1ADBAF 
 273      890A
 274 04f9 9E54F0A8 		.ascii	"\236T\360\250,\306\371\235&Q\001\012z \004<0\012xD\005"
 274      2CC6F99D 
 274      2651010A 
 274      7A20043C 
 274      300A7844 
 275 050e E4AEC55F 		.ascii	"\344\256\305_s\304\345\366\243\2223\320\267\356j_\300"
 275      73C4E5F6 
 275      A39233D0 
 275      B7EE6A5F 
 275      C0
 276 051f 1415F0D8 		.ascii	"\024\025\360\330(\240\177\363\332K\007\343\2604\377"
 276      28A07FF3 
 276      DA4B07E3 
 276      B034FF
 277 052e 850E0B50 		.ascii	"\205\016\013P\320\244\0200i\0240M\005\244<\276_\250"
 277      D0A41030 
 277      6914304D 
 277      05A43CBE 
 277      5FA8
 278 0540 C40626E0 		.ascii	"\304\006&\340j\366D\266\033\217\337\313\2734~d\256\317"
 278      6AF644B6 
 278      1B8FDFCB 
 278      BB347E64 
 278      AECF
 279 0552 88DA33C6 		.ascii	"\210\3323\306\332Oh\355\246\244\354$'|\233\325\316\312"
 279      DA4F68ED 
 279      A6A4EC24 
 279      277C9BD5 
 279      CECA
 280 0564 196F52F2 		.ascii	"\031oR\362\332U\"\372\263\242\366\254\261\366S\026\375"
 280      DA5522FA 
 280      B3A2F6AC 
 280      B1F65316 
 280      FD
 281 0575 88E6671A 		.ascii	"\210\346g\032|\227\325\316Y[\237'\207\204\367\311>\213"
 281      7C97D5CE 
 281      595B9F27 
 281      8784F7C9 
 281      3E8B
 282 0587 C93299BD 		.ascii	"\3112\231\275\276\352\3022\350Z\254\276_\357\210\373"
 282      BEEAC232 
ARM GAS  C:\Users\rdn\AppData\Local\Temp\ccG9Tpsn.s 			page 22


 282      E85AACBE 
 282      5FEF88FB 
 283 0597 28599E7A 		.ascii	"(Y\236z\276d\024\263-6\330\372d\262\000[\354\373|\213"
 283      BE6414B3 
 283      2D36D8FA 
 283      64B2005B 
 283      ECFB7C8B 
 284 05ab 9D87CC67 		.ascii	"\235\207\314g\306-v\254\347\232\3335r\312y\001A|.t\275"
 284      C62D76AC 
 284      E79ADB35 
 284      72CA7901 
 284      417C2E74 
 285 05c0 CFF7D857 		.ascii	"\317\367\330Wqi\231\216\026{\354\013\213h/\232\366\330"
 285      7169998E 
 285      167BEC0B 
 285      8B682F9A 
 285      F6D8
 286 05d2 9E918B21 		.ascii	"\236\221\213!.t\250 \217\017\325\306\205\332WN\246}"
 286      2E74A820 
 286      8F0FD5C6 
 286      85DA574E 
 286      A67D
 287 05e4 77894DE0 		.ascii	"w\211M\340\272\214\222:\265iL_\262\314{aQ\365.\246\231"
 287      BA8C923A 
 287      B5694C5F 
 287      B2CC7B61 
 287      51F52EA6 
 288 05f9 B6CC9905 		.ascii	"\266\314\231\005\335M\216v\267\313U:\320+\306\201n\354"
 288      DD4D8E76 
 288      B7CB553A 
 288      D02BC681 
 288      6EEC
 289 060b 8D49D6F0 		.ascii	"\215I\326\360\201\336\212\177?\236\0144P\320\234\350"
 289      81DE8A7F 
 289      3F9E0C34 
 289      50D09CE8 
 290 061b D49C31D8 		.ascii	"\324\2341\330k4\330\213W\252.9\340-\026\354\242\302"
 290      6B34D88B 
 290      57AA2E39 
 290      E02D16EC 
 290      A2C2
 291 062d F562A64A 		.ascii	"\365b\246Je\234h\203wZBUj~\354\321\377\214c\317\223"
 291      659C6883 
 291      775A4255 
 291      6A7EECD1 
 291      FF8C63CF 
 292 0642 82C95E57 		.ascii	"\202\311^W\213`mX\004k\323\024\254\345\231c[\254\273"
 292      8B606D58 
 292      046BD314 
 292      ACE59963 
 292      5BACBB
 293 0655 90875EB1 		.ascii	"\220\207^\261\356\266_\177\330\243\266\333]\235\234"
 293      EEB65F7F 
 293      D8A3B6DB 
 293      5D9D9C
 294 0664 7477CBD8 		.ascii	"tw\313\330\335\332\244K\373\214w\207\273;\350v\007\014"
 294      DDDAA44B 
ARM GAS  C:\Users\rdn\AppData\Local\Temp\ccG9Tpsn.s 			page 23


 294      FB8C7787 
 294      BB3BE876 
 294      070C
 295 0676 B42E7ABB 		.ascii	"\264.z\273n\354\35519\351m\336p_\235\022Gc\332\333\350"
 295      6EECED31 
 295      39E96DDE 
 295      705F9D12 
 295      4763DADB 
 296 068b D5D125CD 		.ascii	"\325\321%\315{Y\272t\250\276\024\367\273\2639\260\215"
 296      7B59BA74 
 296      A8BE14F7 
 296      BBB339B0 
 296      8D
 297 069c 1F43E42E 		.ascii	"\037C\344.\034,\247\016\314\032\206\034\370\037\"\177"
 297      1C2CA70E 
 297      CC1A861C 
 297      F81F227F 
 298 06ac 0FEA6DCE 		.ascii	"\017\352m\316\344\226\250q\002s2\234\230s\236\237i\015"
 298      E496A871 
 298      0273329C 
 298      98739E9F 
 298      690D
 299 06be B797C879 		.ascii	"\267\227\310yz\354\376p\222\013;z\352\262\013\377\026"
 299      7AECFE70 
 299      920B3B7A 
 299      EAB20BFF 
 299      16
 300 06cf 729E8E3D 		.ascii	"r\236\216=\210P3\316\271%Rim\246>\322\311\376\3316B"
 300      885033CE 
 300      B9255269 
 300      6DA63ED2 
 300      C9FED936 
 301 06e4 CECFB6E1 		.ascii	"\316\317\266\341r\032\322\252\222\360R~\266\325\223"
 301      721AD2AA 
 301      92F0527E 
 301      B6D593
 302 06f3 2510155B 		.ascii	"%\020\025[\020\356\212s\230\200\221\306\374\002\262"
 302      10EE8A73 
 302      988091C6 
 302      FC02B2
 303 0702 40F6B383 		.ascii	"@\366\263\203\210\233\331\022\331\317\226\310\326\302"
 303      889BD912 
 303      D9CF96C8 
 303      D6C2
 304 0710 F945352E 		.ascii	"\371E5.\240t\371\302`\376\254\203q\211X\235Bb\344\356"
 304      A074F9C2 
 304      60FEAC83 
 304      7189589D 
 304      4262E4EE 
 305 0724 A4161DD3 		.ascii	"\244\026\035\323h\371\016\024%7-\221\2527\212\310\022"
 305      68F90E14 
 305      25372D91 
 305      AA378AC8 
 305      12
 306 0735 392557A3 		.ascii	"9%W\243\223rS|\367\363%\022v!\272\223K\214 \022\373"
 306      9372537C 
 306      F7F32512 
ARM GAS  C:\Users\rdn\AppData\Local\Temp\ccG9Tpsn.s 			page 24


 306      7621BA93 
 306      4B8C2012 
 307 074a 93478755 		.ascii	"\223G\207U\270\214I|\030=\025\213\360uf\224W?\317qb"
 307      B88C497C 
 307      183D158B 
 307      F0756694 
 307      573FCF71 
 308 075f 4C1D61E6 		.ascii	"L\035a\346&F7\250\360-V8\225V7\252\302\215\314X\210"
 308      264637A8 
 308      F02D5638 
 308      955637AA 
 308      C28DCC58 
 309 0774 CBD97460 		.ascii	"\313\331t`\314\025\022\330\326\360\344\030\025na\205"
 309      CC1512D8 
 309      D6F0E418 
 309      156E6185 
 310 0784 65ADB763 		.ascii	"e\255\267c1\356b\306\271\226\342{\374Ib\2360\373\227"
 310      31EE62C6 
 310      B996E27B 
 310      FC49629E 
 310      30FB97
 311 0797 A79E29F0 		.ascii	"\247\236)\360\000+\\>Q}N\215G\231q*\356E\275\2021\247"
 311      002B5C3E 
 311      517D4E8D 
 311      4799712A 
 311      EE45BD82 
 312 07ad 08733539 		.ascii	"\010s59\366\276\006\217\263BC\202\376\205\022O3#>2y"
 312      F6BE068F 
 312      B3424382 
 312      FE85124F 
 312      33233E32 
 313 07c2 8C33C708 		.ascii	"\2143\307\010\363re\370EG\374\222\025\256"
 313      F37265F8 
 313      4547FC92 
 313      15AE
 314 07d0 C4857439 		.ascii	"\304\205t9c\235\202\032\265q\361\365|x\373\011\263\243"
 314      639D821A 
 314      B571F1F5 
 314      7C78FB09 
 314      B3A3
 315 07e2 A5ADCD09 		.ascii	"\245\255\315\011G\263\302\230\223E`$0\243\346\314\345"
 315      47B3C298 
 315      93456024 
 315      30A3E6CC 
 315      E5
 316 07f3 0417C6EC 		.ascii	"\004\027\306\354 \314\256\350\346*\204\263Ya\\o\376"
 316      20CCAEE8 
 316      E62A84B3 
 316      59615C6F 
 316      FE
 317 0804 7FE15276 		.ascii	"\177\341Rv\235\246\257\014\345\304FB,\251\270[\253\300"
 317      9DA6AF0C 
 317      E5C44642 
 317      2CA9B85B 
 317      ABC0
 318 0816 0656D896 		.ascii	"\006V\330\226v\245\007\3416\356\277#m\310\221\317?\302"
 318      76A507E1 
ARM GAS  C:\Users\rdn\AppData\Local\Temp\ccG9Tpsn.s 			page 25


 318      36EEBF23 
 318      6DC891CF 
 318      3FC2
 319 0828 9C6F4D3C 		.ascii	"\234oM<\246\300\275\254\260'\367e\223\033\036a\306\315"
 319      A6C0BDAC 
 319      B027F765 
 319      931B1E61 
 319      C6CD
 320 083a AEE94839 		.ascii	"\256\351H9c^\243\341L\237\275\344\214'X\341\303+\311"
 320      635EA3E1 
 320      4C9FBDE4 
 320      8C2758E1 
 320      C32BC9
 321 084d 391A3CCD 		.ascii	"9\032<\315e6\037\017\347>\213\011\263}\246>B\215\347"
 321      65361F0F 
 321      E73E8B09 
 321      B37DA63E 
 321      428DE7
 322 0860 58E1B1F9 		.ascii	"X\341\261\371\353mJ\274\310\214\252\220\336F%c\346\021"
 322      EB6D4ABC 
 322      C88CAA90 
 322      DE462563 
 322      E611
 323 0872 A66EBD3C 		.ascii	"\246n\275<\332\001\257\262\302\346\316\305S\032\274"
 323      DA01AFB2 
 323      C2E6CEC5 
 323      531ABC
 324 0881 C58C8B86 		.ascii	"\305\214\213\206\250F>D\351\204\231\027|\253\037\341"
 324      A8463E44 
 324      E9849917 
 324      7CAB1FE1 
 325 0891 E34A5A98 		.ascii	"\343JZ\230\335\3760O\215O0\343d\376\346\333\214\230"
 325      DDFE304F 
 325      8D4F30E3 
 325      64FEE6DB 
 325      8C98
 326 08a3 4088F7AF 		.ascii	"@\210\367\257\014\335Rc=+\353\016-\316r\306\211\314"
 326      0CDD5263 
 326      3D2BEB0E 
 326      2DCE72C6 
 326      89CC
 327 08b5 B891515A 		.ascii	"\270\221QZ\304\203\244'\314\342\324\352\0369\316\344"
 327      C483A427 
 327      CCE2D4EA 
 327      1E39CEE4 
 328 08c5 5E2E05C3 		.ascii	"^.\005\303\032\311gF\335\344\312\023\336\241\010\302"
 328      1AC96746 
 328      DDE4CA13 
 328      DEA108C2 
 329 08d5 6CC8AAAB 		.ascii	"l\310\252\253v\300\305\2540)\265\3726\306W\230Q4U\233"
 329      76C0C5AC 
 329      3029B5FA 
 329      36C65798 
 329      5134559B 
 330 08e9 CCC75247 		.ascii	"\314\307RG\230\343\321\213\353.\270\222\025\246\204"
 330      98E3D18B 
 330      EB2EB892 
ARM GAS  C:\Users\rdn\AppData\Local\Temp\ccG9Tpsn.s 			page 26


 330      15A684
 331 08f8 86EEC737 		.ascii	"\206\356\3077\331\365s\335\311p>\341W\310\003\346\263"
 331      D9F573DD 
 331      C9703EE1 
 331      57C803E6 
 331      B3
 332 0909 CDC7514E 		.ascii	"\315\307QN\270\221\025\346D\334\213U\342\016f\204\305"
 332      B89115E6 
 332      44DC8B55 
 332      E20E6684 
 332      C5
 333 091a 3EC872E5 		.ascii	">\310r\345\223\2230\343\023\322\012\325x\204\025\366"
 333      939330E3 
 333      13D20AD5 
 333      788415F6 
 334 092a 9C9E3D85 		.ascii	"\234\236=\205\370|$\205\353\375\275\335\032\374\210"
 334      F87C2485 
 334      EBFDBDDD 
 334      1AFC88
 335 0939 154EE9AF 		.ascii	"\025N\351\257\215;\340\247\314\250\034ynp\346\363\221"
 335      8D3BE0A7 
 335      CCA81C79 
 335      6E70E6F3 
 335      91
 336 094a 30138323 		.ascii	"0\023\203#\3135x\211\025\226\345\266\351\324x\203\031"
 336      CB357889 
 336      1596E5B6 
 336      E9D47883 
 336      19
 337 095b E56169AD 		.ascii	"\345ai\255\234\331O\230\017\273\373\256b\034\246\242"
 337      9CD94F98 
 337      0FBBFBAE 
 337      621CA6A2 
 338 096b 85255127 		.ascii	"\205%Q'\273\225\370\0243\214O\311\333\370SrYI\202N\211"
 338      BB95F814 
 338      338C4FC9 
 338      DBF85372 
 338      5949824E 
 339 0980 E359614B 		.ascii	"\343YaKJ\302\012\306\251\314H\010\355\234\344\223\247"
 339      4AC20AC6 
 339      A9CC4808 
 339      ED9CE493 
 339      A7
 340 0991 11D13DB0 		.ascii	"\021\321=\260\364c\234\317\312\272\036\264%\312q\011"
 340      F4639CCF 
 340      CABA1EB4 
 340      25CA7109 
 341 09a1 338AAB42 		.ascii	"3\212\253B\237\362\336\032\010q\266\357q\275\013\276"
 341      9FF2DE1A 
 341      0871B6EF 
 341      71BD0BBE 
 342 09b1 CE0A2F46 		.ascii	"\316\012/Ft\215;\341[\314H\214\214\344\353\353\032!"
 342      748D3BE1 
 342      5BCC488C 
 342      8CE4EBEB 
 342      1A21
 343 09c3 162C4714 		.ascii	"\026,G\024b\334\302\312t\255\345z\214{\231\321\235q"
ARM GAS  C:\Users\rdn\AppData\Local\Temp\ccG9Tpsn.s 			page 27


 343      62DCC2CA 
 343      74ADE57A 
 343      8C7B99D1 
 343      9D71
 344 09d5 6E8CF7A7 		.ascii	"n\214\367\247\2300\217e\\\272\243\304\243\254p\256i"
 344      98308F65 
 344      5CBAA3C4 
 344      A3AC70AE 
 344      69
 345 09e6 69CD094F 		.ascii	"i\315\011O0c!\2574\225\217s\036a\246\245U/9\342YV\030"
 345      306321AF 
 345      34958F73 
 345      1E61A6A5 
 345      552F39E2 
 346 09fd 5E521EE3 		.ascii	"^R\036\343\206\027\231\261q_\257\347{K:a.?\217jv\302"
 346      861799B1 
 346      715FAFE7 
 346      7B4B3A61 
 346      2E3F8F6A 
 347 0a13 6BACB0B3 		.ascii	"k\254\260\263\274\241\016V\267\0035\232\202O\346\362"
 347      BCA10E56 
 347      B703359A 
 347      824FE6F2 
 348 0a23 814E20CC 		.ascii	"\201N \314\220\224Ax\224\011c\205S\317\212\012a\251"
 348      90944178 
 348      94096385 
 348      53CF8A0A 
 348      61A9
 349 0a35 3363E176 		.ascii	"3c\341v\336\002\277\025\350\011s>4,_\215cYaLMo\243\006"
 349      DE02BF15 
 349      E809733E 
 349      342C5F8D 
 349      6359614C 
 350 0a4d 2732A3B0 		.ascii	"'2\243\260\365\3160_\014\021\204\031\266\262\274\341"
 350      F5CE305F 
 350      0C118419 
 350      B6B2BCE1 
 351 0a5d 86335861 		.ascii	"\2063XaYz\312\250\006\3471\243b\262\251\3018\037\011"
 351      597ACAA8 
 351      06E731A3 
 351      62B2A9C1 
 351      381F09
 352 0a70 B37620D6 		.ascii	"\263v \326\240\302\227Yae\302\374\214\003\256`F\304"
 352      A0C29759 
 352      6165C2FC 
 352      8C03AE60 
 352      46C4
 353 0a82 78781767 		.ascii	"xx\027g\256\320\360\266\247D\273\340*VX\362\3402\234"
 353      AED0F0B6 
 353      A744BBE0 
 353      2A5658F2 
 353      E0329C
 354 0a95 6BEA98B1 		.ascii	"k\352\230\2615=\220\305w\340yb\257we\266\272\340&Vx"
 354      353D90C5 
 354      77E07962 
 354      AF7765B6 
 354      BAE02656 
ARM GAS  C:\Users\rdn\AppData\Local\Temp\ccG9Tpsn.s 			page 28


 355 0aaa 495F53E4 		.ascii	"I_S\344\204\333\2311\234y&\307\270[\022\373\312\306"
 355      84DB9931 
 355      9C7926C7 
 355      B85B12FB 
 355      CAC6
 356 0abc 831E15EE 		.ascii	"\203\036\025\356c\205\3017\006byw\307h\315\320\206\007"
 356      6385C137 
 356      06627977 
 356      C768CDD0 
 356      8607
 357 0ace CEF8212B 		.ascii	"\316\370!+l\214\231\217w\300\323\314\270:~\266\2267"
 357      6C8C998F 
 357      77C0D3CC 
 357      B83A7EB6 
 357      9637
 358 0ae0 D84FECD4 		.ascii	"\330O\354\324\232\310\015%~\306\012W_\014\216\250\361"
 358      9AC80D25 
 358      7EC60A57 
 358      5F0C8EA8 
 358      F1
 359 0af1 1233BA26 		.ascii	"\0223\272&3By\260;\350\331\273\376J\003\017T#\261\253"
 359      334279B0 
 359      3BE8D9BB 
 359      FE4A030F 
 359      5423B1AB 
 360 0b05 9FA59F76 		.ascii	"\237\245\237v\305\257\030\371qc\204;>\356\310\232\230"
 360      C5AF18F9 
 360      7163843B 
 360      3EEEC89A 
 360      98
 361 0b16 2BB8CAF7 		.ascii	"+\270\312\367\002\003\261_\026fx\341\223\254l\356\346"
 361      0203B15F 
 361      166678E1 
 361      93AC6CEE 
 361      E6
 362 0b27 A312377C 		.ascii	"\243\0227|\226\031y\223\311\247x\013\377\002\346\332"
 362      96197993 
 362      C9A7780B 
 362      FF02E6DA 
 363 0b37 5943AB2B 		.ascii	"YC\253+>\317\312\252\302.U\252p\0063n\\\255j\340[\333"
 363      3ECFCAAA 
 363      C22E55AA 
 363      7006336E 
 363      5CAD6AE0 
 364 0b4d 2E12C1D0 		.ascii	".\022\301\320{g`?ae+\013\343\267]p\0113\316/\214L\363"
 364      7B67603F 
 364      61652B0B 
 364      E3B75D70 
 364      0933CE2F 
 365 0b64 DEB99330 		.ascii	"\336\271\2230\244\226\024\251\360UV\326\023\334u\334"
 365      A49614A9 
 365      F05556D6 
 365      13DC75DC 
 366 0b74 155733C3 		.ascii	"\025W3\303\370\005\3276\366\005\327\211\321\2108g\\"
 366      F805D736 
 366      F605D789 
 366      D1883867 
ARM GAS  C:\Users\rdn\AppData\Local\Temp\ccG9Tpsn.s 			page 29


 366      5C
 367 0b85 C7CA3A6B 		.ascii	"\307\312:k\3327\235\360].8\364\221q\302o'\353\271\270"
 367      DA379DF0 
 367      5D2E38F4 
 367      9171C26F 
 367      27EBB9B8 
 368 0b99 634189EF 		.ascii	"cA\211\357q\"\377\266n\033\375\266\016\315\034\313\235"
 368      7122FFB6 
 368      6E1BFDB6 
 368      0ECD1CCB 
 368      9D
 369 0baa 73C1BDAC 		.ascii	"s\301\275\254,\351\306\342].\331\021\314\247\213\303"
 369      2CE9C6E2 
 369      5D2ED911 
 369      CCA78BC3 
 370 0bba 3D6E788C 		.ascii	"=nx\214\253\314\253x\242\306\023\314\2703t<S\201g\230"
 370      ABCCAB78 
 370      A2C613CC 
 370      B833743C 
 370      53816798 
 371 0bce F1202BB9 		.ascii	"\361 +\271\205\217c\002\271!\037_\\\233S\260\363\213"
 371      858F6302 
 371      B9211F5F 
 371      5C9B53B0 
 371      F38B
 372 0be0 817C4D37 		.ascii	"\201|M7\3231\003\363q\216\222\017\255\033\346\262\335"
 372      D33103F3 
 372      718E920F 
 372      AD1BE6B2 
 372      DD
 373 0bf1 D04E7B9F 		.ascii	"\320N{\237\327\355\226\374\214\217\273UN&9\244\214\015"
 373      D7ED96FC 
 373      8C8FBB55 
 373      4E2639A4 
 373      8C0D
 374 0c03 E57A3456 		.ascii	"\345z4VN\350tq\032z\372\230\202\323G%~]\034Z&\345\344"
 374      4EE87471 
 374      1A7AFA98 
 374      82D34725 
 374      7E5D1C5A 
 375 0c1a D0B41BFE 		.ascii	"\320\264\033\376\311h\005Ci\273F\247\367\240\3440,!"
 375      C9680543 
 375      69BB46A7 
 375      F7A0E430 
 375      2C21
 376 0c2c 876209B9 		.ascii	"\207b\011\271\243\313D.\225z.\241\236K\220`W\011\366"
 376      A3CB442E 
 376      957A2EA1 
 376      9E4B9060 
 376      5709F6
 377 0c3f 1529BBDC 		.ascii	"\025)\273\334\212\375\262\315\304&O\300\026\354x\251"
 377      8AFDB2CD 
 377      C4264FC0 
 377      16EC78A9 
 378 0c4f 9052E1FA 		.ascii	"\220R\341\372\206\324u\245\225\3535\301\316\220\262"
 378      86D475A5 
 378      95EB35C1 
ARM GAS  C:\Users\rdn\AppData\Local\Temp\ccG9Tpsn.s 			page 30


 378      CE90B2
 379 0c5e D3A401E9 		.ascii	"\323\244\001\351\3554\221{\244\344n+\327\035\202= e"
 379      ED34917B 
 379      A4E46E2B 
 379      D71D823D 
 379      2065
 380 0c70 F7495DEB 		.ascii	"\367I]\353\005\371\251\224<k\345\272[\214\314\246\224"
 380      05F9A994 
 380      3C6BE5BA 
 380      5B8CCCA6 
 380      94
 381 0c81 BD61C52E 		.ascii	"\275a\305.\027}\274.e_\225\012y%\\\317K\311\317\254"
 381      177DBC2E 
 381      655F950A 
 381      79255CCF 
 381      4BC9CFAC 
 382 0c95 5C2F8A91 		.ascii	"\\/\212\221I\224N\221\004,e\027\013\337\021Rv\270\025"
 382      49944E91 
 382      042C6517 
 382      0BDF1152 
 382      76B815
 383 0ca8 5B2FD871 		.ascii	"[/\330qR\266^:\352\225\"~\303R\331\203\322>\256\010"
 383      52B65E3A 
 383      EA95227E 
 383      C352D983 
 383      D23EAE08 
 384 0cbc D5E7A49E 		.ascii	"\325\347\244\236\343\255tl\012\327w\244\256\033\254"
 384      E3AD746C 
 384      0AD777A4 
 384      AE1BAC
 385 0ccb 22922482 		.ascii	"\"\222$\202]+eWK\205T\011\327C\266U\233\273\256\024"
 385      5D2B6557 
 385      4B855409 
 385      D743B655 
 385      9BBBAE14 
 386 0cdf 0119912E 		.ascii	"\001\031\221.\203\020+\331\327\204\357Q\251\357\021"
 386      83102BD9 
 386      D784EF51 
 386      A9EF11
 387 0cee 2BDF2B82 		.ascii	"+\337+\202}W\312n\222\312\256\021},\263\275\326)9\226"
 387      7D57CA6E 
 387      92CAAE11 
 387      7D2CB3BD 
 387      D6293996 
 388 0d02 7F67AF43 		.ascii	"\177g\257CA\260\230\360\016\224JE\022:y*\\\306\356\350"
 388      41B098F0 
 388      0E944A45 
 388      123A792A 
 388      5CC6EEE8 
 389 0d16 15DE89B6 		.ascii	"\025\336\211\266\000O\0013\200%@\021 \007P\012h\006"
 389      004F0133 
 389      80254011 
 389      2007500A 
 389      6806
 390 0d28 4C018A01 		.ascii	"L\001\212\001\367\001\223\200Z@\003`\001\020\256\330"
 390      F7019380 
 390      5A400360 
ARM GAS  C:\Users\rdn\AppData\Local\Temp\ccG9Tpsn.s 			page 31


 390      0110AED8 
 391 0d38 892E439A 		.ascii	"\211.C\232\011h\005\254\003*\000\375\200\015\300\004"
 391      096805AC 
 391      032A00FD 
 391      800DC004 
 392 0d48 A000B00A 		.ascii	"\240\000\260\012\030\006\254\000\236\000B\240\336]H"
 392      1806AC00 
 392      9E0042A0 
 392      DE5D48
 393 0d57 AB018380 		.ascii	"\253\001\203\200q\300%@=\340\"`\016\260\006\310\000"
 393      71C02540 
 393      3DE02260 
 393      0EB006C8 
 393      00
 394 0d68 8401F725 		.ascii	"\204\001\367%\244w\000\355\2006\300C\300U@\011\340\012"
 394      A47700ED 
 394      8036C043 
 394      C0554009 
 394      E00A
 395 0d7a 201FB008 		.ascii	" \037\260\010\030\005\344\001\356\001n\002\036\001n"
 395      1805E401 
 395      EE016E02 
 395      1E016E
 396 0d89 009A0011 		.ascii	"\000\232\000\021\340\347\032\244\003\200Y@\031\240\005"
 396      E0E71AA4 
 396      03805940 
 396      19A005
 397 0d98 D0097801 		.ascii	"\320\011x\001x\014(\007\034\003^0\340\002\\\027\002"
 397      780C2807 
 397      1C035E30 
 397      E0025C17 
 397      02
 398 0da9 74705D07 		.ascii	"tp]\007i6\340: \013\320\001\270\015h\004\364\001\346"
 398      6936E03A 
 398      200BD001 
 398      B80D6804 
 398      F401E6
 399 0dbc 01CF01CF 		.ascii	"\001\317\001\317\000\267\000\006@(\324\313\205\264\033"
 399      00B70006 
 399      4028D4CB 
 399      85B41B
 400 0dcb D00B380E 		.ascii	"\320\0138\016v\025\244C\2001\300\010\340\001`\023P\003"
 400      7615A443 
 400      8031C008 
 400      E0016013 
 400      5003
 401 0ddd E8024C03 		.ascii	"\350\002L\003z\360N\372\254\317\306z^L\214v\351X\267"
 401      7AF04EFA 
 401      ACCFC67A 
 401      5E4C8C76 
 401      E958B7
 402 0df0 594DA333 		.ascii	"YM\2433\275&\366y);Q:\215\026\305|^\224\222_X\335\214"
 402      BD26F679 
 402      293B513A 
 402      8D16C57C 
 402      5E94925F 
 403 0e07 84E73829 		.ascii	"\204\3478)Y/%\307\013\317\247\244\013\374\244\325Jy"
ARM GAS  C:\Users\rdn\AppData\Local\Temp\ccG9Tpsn.s 			page 32


 403      592F25C7 
 403      0BCFA7A4 
 403      0BFCA4D5 
 403      4A79
 404 0e19 29A673B6 		.ascii	")\246s\266\324u\246\324\365\260\210G\247\224|\317z\177"
 404      D475A6D4 
 404      F5B08847 
 404      A7947CCF 
 404      7A7F
 405 0e2b 14AE2F48 		.ascii	"\024\256/H\3319\326\013\\\260+l\337\025\315oF\202|Y"
 405      D939D60B 
 405      5CB02B6C 
 405      DF15CD6F 
 405      46827C59 
 406 0e3f 4A2EB272 		.ascii	"J.\262r\275)\"2g\373\376b\346:A\220\243\245\341;!\335"
 406      BD292232 
 406      67FBFE62 
 406      E63A4190 
 406      A3A5E13B 
 407 0e55 79534540 		.ascii	"ySE@&\244\236\037Z\351\350\027\252/I\331\005R\035/\204"
 407      26A49E1F 
 407      5AE9E817 
 407      AA2F49D9 
 407      05521D2F 
 408 0e6a EB5629B9 		.ascii	"\353V)\271\331\212,D\277\224\222\227\254\357\373\342"
 408      D98A2C44 
 408      BF949297 
 408      ACEFFBE2 
 409 0e7a 167056DA 		.ascii	"\026pV\332\305\323\322.\306\011\321\365R\327uR\035\345"
 409      C5D3D22E 
 409      C609D1F5 
 409      52D77552 
 409      1DE5
 410 0e8c 42C771DB 		.ascii	"B\307q\333\247&\213{\263\350\342\270\324\365\230\225"
 410      A7268B7B 
 410      B3E8E2B8 
 410      D4F59895 
 411 0e9c EA62C17E 		.ascii	"\352b\301~`\233m&\244S\250.\266=A\314\310\375\302s\227"
 411      609B6D26 
 411      A453A82E 
 411      B63D41CC 
 411      C8FDC273 
 412 0eb1 ED696D46 		.ascii	"\355imF>#<\337\266\035\017s\321\025b\345\306\332^\271"
 412      3E233CDF 
 412      B61D0F73 
 412      D11562E5 
 412      C6DA5EB9 
 413 0ec5 161355F8 		.ascii	"\026\023U\370N\267} \263X1\302w\2724\330\221Vl\275`"
 413      4EB77D20 
 413      B35831C2 
 413      77BA34D8 
 413      91566CBD 
 414 0eda A74A7D27 		.ascii	"\247J}'K;9(\204\024\332\236\251\026\007Z1\352\301R!"
 414      4B3B3928 
 414      8414DA9E 
 414      A916075A 
 414      31EAC152 
ARM GAS  C:\Users\rdn\AppData\Local\Temp\ccG9Tpsn.s 			page 33


 415 0eef 3AE97C5A 		.ascii	":\351|Z\023\301\236\223\336\310\233\254O\277\302\365"
 415      13C19E93 
 415      DEC89BAC 
 415      4FBFC2F5 
 416 0eff 82ED6DD2 		.ascii	"\202\355m\322\234\035/\372\230d{\007\266X\216\302\367"
 416      9C1D2FFA 
 416      98647B07 
 416      B6588EC2 
 416      F7
 417 0f10 A454C9BA 		.ascii	"\244T\311\272\025;Y\370>'\365\035o}H\025\275\354\265"
 417      153B59F8 
 417      3E27F51D 
 417      6F7D4815 
 417      BDECB5
 418 0f23 7D5A365F 		.ascii	"}Z6_bBH\254\355\303\236\305!K\010I\260-\304\374\264"
 418      624248AC 
 418      EDC39EC5 
 418      214B0849 
 418      B02DC4FC 
 419 0f38 275C3FB7 		.ascii	"'\\?\267}\2425\337\315\204\347\263R\362i)\271B\364\360"
 419      7DA235DF 
 419      CD84E7B3 
 419      52F26929 
 419      B942F4F0 
 420 0f4c BEED2396 		.ascii	"\276\355#\226\371\003\222\220\261e\373\314nF\036\025"
 420      F9039290 
 420      B165FBCC 
 420      6E461E15 
 421 0f5c 9E3B6CDF 		.ascii	"\236;l\337u\315\227\243\360\034c\373ng\276\267\213i"
 421      75CD97A3 
 421      F01C63FB 
 421      6E67BEB7 
 421      8B69
 422 0f6e 7D53EAD9 		.ascii	"}S\352\331`5\206\257\3046y\306\3666iq\344\024\301;!"
 422      603586AF 
 422      C43679C6 
 422      F6366971 
 422      E414C13B 
 423 0f83 F51D69D5 		.ascii	"\365\035i\325E\341\372\274\324u\222\225\353a\321\307"
 423      45E1FABC 
 423      D4759295 
 423      EB61D1C7 
 424 0f93 55A9EB15 		.ascii	"U\251\353\025k\331\"|\215\266\217\354\346"
 424      6BD9227C 
 424      8DB68FEC 
 424      E6
 425 0fa0 77742124 		.ascii	"wt!$\331\266\020\363y*<?\221z\236\266\272%\211X\347"
 425      D9B610F3 
 425      792A3C3F 
 425      917A9EB6 
 425      BA258958 
 426 0fb5 DABEFB9B 		.ascii	"\332\276\373\233\313\020\344\213Rr\236U\360\0049\337"
 426      CB10E48B 
 426      52729E55 
 426      F00439DF 
 427 0fc5 36D9624F 		.ascii	"6\331bO\020\354[\266\307\334\314u\262\210t\224\355\233"
 427      10EC5BB6 
ARM GAS  C:\Users\rdn\AppData\Local\Temp\ccG9Tpsn.s 			page 34


 427      C7DCCC75 
 427      B2887494 
 427      ED9B
 428 0fd7 BFB9EB4E 		.ascii	"\277\271\353N\021\217~\333\017\271\346\354y\021\352"
 428      118F7EDB 
 428      0FB9E6EC 
 428      7911EA
 429 0fe6 19E97693 		.ascii	"\031\351v\223 \015u\262p\375\310\366\301\202\222\331"
 429      200D75B2 
 429      70FDC8F6 
 429      C18292D9 
 430 0ff6 DB1D3DE0 		.ascii	"\333\035=\340Y\347HH2\376"
 430      59E74848 
 430      32FE
 431 1000 9B8A38C2 		.ascii	"\233\2128\302\016\265\273&\352\014\241\230\272Z\263"
 431      0EB5BB26 
 431      EA0CA198 
 431      BA5AB3
 432 100f 3D7BCC0F 		.ascii	"={\314\017V\"\000\257\244\344u\253\265'D\316\330\236"
 432      562200AF 
 432      A4E475AB 
 432      B52744CE 
 432      D89E
 433 1021 0F160B44 		.ascii	"\017\026\013D\270\236\265\375\004g~K\026\301j\227\222"
 433      B89EB5FD 
 433      04677E4B 
 433      16C16A97 
 433      92
 434 1032 3F94706B 		.ascii	"?\224pk\204\343c\266o?\026\307\010\261N\317\330\336"
 434      84E363B6 
 434      6F3F16C7 
 434      08B14ECF 
 434      D8DE
 435 1044 E4CCD983 		.ascii	"\344\314\331\203BG\212\324\367\207V7{1\325\256\331\376"
 435      42478AD4 
 435      F7875637 
 435      7B31D5AE 
 435      D9FE
 436 1056 AEC19C9D 		.ascii	"\256\301\234\235*\3305\266\037\226-d\013v\225\355ov"
 436      2AD835B6 
 436      1F962D64 
 436      0B7695ED 
 436      6F76
 437 1068 CC22322F 		.ascii	"\314\"2/\"\262l\3738h~\213\020\236\263l?\001\230\353"
 437      22B26CFB 
 437      38687E8B 
 437      109EB36C 
 437      3F0198EB 
 438 107c 8813E14B 		.ascii	"\210\023\341K\261}\214\260\270W\211\031\362\330\366"
 438      B17D8CB0 
 438      B8578919 
 438      F2D8F6
 439 108b 576E1611 		.ascii	"Wn\026\021\021\262#m\177Eb&\373\245p\335b\373|\314\\"
 439      11B2236D 
 439      7F456226 
 439      FBA570DD 
 439      62FB7CCC 
ARM GAS  C:\Users\rdn\AppData\Local\Temp\ccG9Tpsn.s 			page 35


 440 10a0 932F7623 		.ascii	"\223/v#n\306\252\360Y'\372\343e\370\370\335\233N\350"
 440      6EC6AAF0 
 440      5927FAE3 
 440      65F8F8DD 
 440      9B4EE8
 441 10b3 75779B0F 		.ascii	"uw\233\017\350(J\341\376\377\317\350\377G\236\321\331"
 441      E8284AE1 
 441      FEFFCFE8 
 441      FF479ED1 
 441      D9
 442 10c4 E657FB0D 		.ascii	"\346W\373\015\331\373N(^G\221\012\323O\312d+\244C?_"
 442      D9FB4E28 
 442      5E47910A 
 442      D34FCA64 
 442      2BA4433F 
 443 10d9 75E3995A 		.ascii	"u\343\231Z\274@\031D\211a\362\035\3508\235\"\321\212"
 443      BC401944 
 443      8961F21D 
 443      E8389D22 
 443      D18A
 444 10eb 6DC6DFCA 		.ascii	"m\306\337\312\011\273?\274\364\002~/\213\276\014\260"
 444      09BB3FBC 
 444      F4027E2F 
 444      8BBE0CB0 
 445 10fb D4F9DBB3 		.ascii	"\324\371\333\2639:\372k>\260P(\3779_\324\015\245?\347"
 445      393AFA6B 
 445      3EB05028 
 445      FF395FD4 
 445      0DA53FE7 
 446 110f 9F54909F 		.ascii	"\237T\220\237\363\007\252\233_9\341T'\213o\375\337`"
 446      F307AA9B 
 446      5F39E154 
 446      278B6FFD 
 446      DF60
 447 1121 DFFA7784 		.ascii	"\337\372w\204\307hp6+\2727u\346\205\012\2272#\247\271"
 447      C7687036 
 447      2BBA3775 
 447      E6850A97 
 447      3223A7B9 
 448 1135 AEC615D7 		.ascii	"\256\306\025\3270\243\273\244\277T\216\015l\216v\214"
 448      30A3BBA4 
 448      BF548E0D 
 448      6C8E768C 
 449 1145 476521BB 		.ascii	"Ge!\273\257\371\235U\330y\315o\254\244\350\337\223+"
 449      AFF99D55 
 449      D879CD6F 
 449      ACA4E8DF 
 449      932B
 450 1157 C9DB7467 		.ascii	"\311\333tg\024jtZa\365\242\337\372\324\231\001\376K"
 450      146A745A 
 450      61F5A2DF 
 450      FAD49901 
 450      FE4B
 451 1169 A1C6ECD7 		.ascii	"\241\306\354\327\2277\330\257/\252\265\351\251\353\316"
 451      9737D8AF 
 451      2FAAB5E9 
 451      A9EBCE
ARM GAS  C:\Users\rdn\AppData\Local\Temp\ccG9Tpsn.s 			page 36


 452 1178 C89D7E05 		.ascii	"\310\235~\005\317\034.7\374\303,\371\305\376\274\342"
 452      CF1C2E37 
 452      FCC32CF9 
 452      C5FEBCE2 
 453 1188 75FA1A9E 		.ascii	"u\372\032\236\270\265@\3447\346\021\273\265\2207MNA"
 453      B8B540E4 
 453      37E611BB 
 453      B590374D 
 453      4E41
 454 119a 6BC0B277 		.ascii	"k\300\262wz\000\372\372\204<Ag\010\306\364m\025=\247"
 454      7A00FAFA 
 454      843C4167 
 454      08C6F46D 
 454      153DA7
 455 11ad 9B5EACA1 		.ascii	"\233^\254\241\233i\214b\207\364\253\263s\212\035(\236"
 455      9B698C62 
 455      87F4ABB3 
 455      738A1D28 
 455      9E
 456 11be 64533A48 		.ascii	"dS:H@\011\320\375d\230*)\200$@\242b\247\231\250U\243"
 456      4009D0FD 
 456      64982A29 
 456      802440A2 
 456      62A799A8 
 457 11d4 28128238 		.ascii	"(\022\2028\251\250\017%\232\326\376Sw\\E\005\305\332"
 457      A9A80F25 
 457      9AD6FE53 
 457      775C4505 
 457      C5DA
 458 11e6 14C4B610 		.ascii	"\024\304\266\020R@\206(o\256\326\331\342\255\024\362"
 458      52408628 
 458      6FAED6D9 
 458      E2AD14F2 
 459 11f6 A288D1B7 		.ascii	"\242\210\321\267\014\245*\330\253\265\220\002\273wt"
 459      0CA52AD8 
 459      ABB59002 
 459      BB7774
 460 1205 364D6DC1 		.ascii	"6Mm\301&\357;\011v\032g\247Q\366\246!\271\302\322\367"
 460      26EF3B09 
 460      761A67A7 
 460      51F6A621 
 460      B9C2D2F7 
 461 1219 AA053B9D 		.ascii	"\252\005;\235\263\323)\333\320\267\226b\3712\321\230"
 461      B3D329DB 
 461      D0B79662 
 461      F932D198 
 462 1229 053B83B3 		.ascii	"\005;\203\2633(\373btc\210\334\202=e\301\316\344\354"
 462      3328FB62 
 462      746388DC 
 462      823D65C1 
 462      CEE4EC
 463 123c 4CCA9E8D 		.ascii	"L\312\236\215N\012\261\324M\246\277`gqv\026e'\016WL"
 463      4E0AB1D4 
 463      4DA6BF60 
 463      67717616 
 463      65270E57 
 464 1251 BB59B027 		.ascii	"\273Y\260',|gsv6e\307O]\235\261\324=d\301\316\341\354"
ARM GAS  C:\Users\rdn\AppData\Local\Temp\ccG9Tpsn.s 			page 37


 464      2C7C6773 
 464      763665C7 
 464      4F5D9DB1 
 464      D43D64C1 
 465 1268 1CCAD68F 		.ascii	"\034\312\326\217\306\237\303\026\354>\013\366\005\316"
 465      C69FC316 
 465      EC3E0BF6 
 465      05CE
 466 1276 BE40D9EB 		.ascii	"\276@\331\353\217.?\326X\260[-\330\271\234\235K\331"
 466      8F2E3FD6 
 466      58B05B2D 
 466      D8B99C9D 
 466      4BD9
 467 1288 27DBAA0B 		.ascii	"'\333\252\013\311KN\206b\335\330\225\313\177\234\310"
 467      C94B4E86 
 467      62DDD895 
 467      CB7F9CC8 
 468 1298 09D3E98F 		.ascii	"\011\323\351\217\351\322?\247/\217\322G%\276t\236\313"
 468      E9D23FA7 
 468      2F8FD247 
 468      25BE749E 
 468      CB
 469 12a9 CD5E44CD 		.ascii	"\315^D\315S\220\027\200\226R\006\242\345\274nY\251\307"
 469      53901780 
 469      965206A2 
 469      E5BC6E59 
 469      A9C7
 470 12bb 9379F2BB 		.ascii	"\223y\362\273\222N\027\212\330\213\222e\242r\231y\345"
 470      924E178A 
 470      D88B9265 
 470      A2729979 
 470      E5
 471 12cc 7C5AF964 		.ascii	"|Z\371dff\201\002\027\260\267j&o.\257\033U\364\225\375"
 471      66668102 
 471      17B0B76A 
 471      266F2EAF 
 471      1B55F495 
 472 12e1 31695878 		.ascii	"1iXx\"2.\212\025\014\227\302S\001\3654X\036\323\255"
 472      22322E8A 
 472      150C97C2 
 472      5301F534 
 472      581ED3AD 
 473 12f5 E695CB2F 		.ascii	"\346\225\313/\373\234\245o\322\352w\322\232\363B\303"
 473      FB9CA56F 
 473      D2EA77D2 
 473      9AF342C3 
 474 1305 BCB98642 		.ascii	"\274\271\206B\305\2732\307\317\276\374\372\235Ow\357"
 474      C5BB32C7 
 474      CFBEFCFA 
 474      9D4F77EF 
 475 1315 96A9BEF5 		.ascii	"\226\251\276\365\017\360\332\375\311\273\037\374\371"
 475      0FF0DAFD 
 475      C9BB1FFC 
 475      F9
 476 1322 3B9F1FBD 		.ascii	";\237\037\275\275\264G\374}\374\202\376|\320#\320\307"
 476      BDB447FC 
 476      7DFC82FE 
ARM GAS  C:\Users\rdn\AppData\Local\Temp\ccG9Tpsn.s 			page 38


 476      7CD023D0 
 476      C7
 477 1333 53EB7FE4 		.ascii	"S\353\177\344\303\240\237\216x{y\177\027\370\301!\231"
 477      C3A09F8E 
 477      787B797F 
 477      17F8C121 
 477      99
 478 1344 C2F39047 		.ascii	"\302\363\220G\300\233G\002\374=\275\003\003\177}\344"
 478      C09B4702 
 478      FC3DBD03 
 478      037F7DE4 
 479 1354 88EF4F9F 		.ascii	"\210\357O\237\371\372\037\364\360\375\314\303\307O\373"
 479      F9FA1FF4 
 479      F0FDCCC3 
 479      C74FFB
 480 1363 DD8FD4D1 		.ascii	"\335\217\324\321\336=\2774w\343AX\332\357)M\373=\343"
 480      DE3DBF34 
 480      77E34158 
 480      DAEF294D 
 480      FB3DE3
 481 1376 7DE02973 		.ascii	"}\340)s9\240\375\355O~\332?x\037\326\356?\032\364\216"
 481      39A0FDED 
 481      4F7EDA3F 
 481      781FD6EE 
 481      3F1AF48E 
 482 138a 9DA6BD7E 		.ascii	"\235\246\275~\362;\354}\030\032\306\036^^\277\260C\202"
 482      F23BEC7D 
 482      181AC61E 
 482      5E5EBFB0 
 482      4382
 483 139c 0BFF237B 		.ascii	"\013\377#{\367\000\313\351\017G~\322\356\335\003\177"
 483      F700CBE9 
 483      0F477ED2 
 483      EEDD037F 
 484 13ac DB254CFF 		.ascii	"\333%L\377#\332\303G~\"\024\357\037\203\002<<\203\264"
 484      23DAC347 
 484      7E2214EF 
 484      1F83023C 
 484      3C83B4
 485 13bf BECA7DDA 		.ascii	"\276\312}\332\300C\001\333~\363\353?\355?\240\375:\310"
 485      C04301DB 
 485      7EF3EB3F 
 485      ED3FA0FD 
 485      3AC8
 486 13d1 C757FB85 		.ascii	"\307W\373\205\337\017\373\374\277\337\363\246u\335\243"
 486      DF0FFBFC 
 486      BFDFF3A6 
 486      75DDA3
 487 13e0 500C959D 		.ascii	"P\014\225\235\367i\275\274\217\370\007\372@u\014\225"
 487      F769BDBC 
 487      8FF807FA 
 487      40750C95 
 488 13f0 A90B5F0D 		.ascii	"\251\013_\015ou\367'\332\300@\207\257Y0\337\266#\326"
 488      6F75F727 
 488      DAC04087 
 488      AF5930DF 
 488      B623D6
ARM GAS  C:\Users\rdn\AppData\Local\Temp\ccG9Tpsn.s 			page 39


 489 1403 DBEFD047 		.ascii	"\333\357\320G\273\300\225F\364\377\013?g\317\243\001"
 489      BBC09546 
 489      F4FF0B3F 
 489      67CFA301 
 490 1413 019FFA1F 		.ascii	"\001\237\372\037\365\013\362\016\320\034>\352\033\344"
 490      F50BF20E 
 490      D01C3EEA 
 490      1BE4
 491 1421 C30DA597 		.ascii	"\303\015\245\227\317\017Z_\346s\357\036h\356\260o\240"
 491      CF0F5A5F 
 491      E673EF1E 
 491      68EEB06F 
 491      A0
 492 1432 E3A7FE7E 		.ascii	"\343\247\376~A>~G\275\225\337\036\362\361\365\306\277"
 492      413E7E47 
 492      BD95DF1E 
 492      F2F1F5C6 
 492      BF
 493 1443 F70F50FD 		.ascii	"\367\017P\375\351/>A\236\207\224\277\011\360\366\370"
 493      E92F3E41 
 493      9E8794BF 
 493      09F0F6F8 
 494 1453 6FC567FE 		.ascii	"o\305g\376A\376\362/\276s\010\000\037^\037\355\322\200"
 494      41FEF22F 
 494      BE730800 
 494      1F5E1FED 
 494      D280
 495 1465 488FA0A3 		.ascii	"H\217\240\243\001\036A\336\037\355r\332\367\321.--\200"
 495      011E41DE 
 495      1FED72DA 
 495      F7D12E2D 
 495      2D80
 496 1477 BEFC8E85 		.ascii	"\276\374\216\205\342\243]\316\246+\355>\263\353\317"
 496      E2A35DCE 
 496      A62BED3E 
 496      B3EBCF
 497 1486 5D089BF7 		.ascii	"]\010\233\367x\357\036sK\353ka\035r V\240w\220j\037"
 497      78EF1E73 
 497      4BEB6B61 
 497      1D722056 
 497      A077906A 
 498 149b 780F0A60 		.ascii	"x\017\012`\211\257\202\\\223\177$\330?\372\007(\366"
 498      89AF825C 
 498      937F24D8 
 498      3FFA0728 
 498      F6
 499 14ac 69FD49D0 		.ascii	"i\375I\320<\374\274\224\2014#\220d\004\222\014G\342"
 499      3CFCBC94 
 499      81342390 
 499      6404920C 
 499      47E2
 500 14be C117826A 		.ascii	"\301\027\202j\274\360\005'\304f\211\257\202\\+x\376"
 500      BCF00527 
 500      C46689AF 
 500      825C2B78 
 500      FE
 501 14cf E1C0A3BB 		.ascii	"\341\300\243\273H\342\341\271\313\001\022\210\330.\215"
ARM GAS  C:\Users\rdn\AppData\Local\Temp\ccG9Tpsn.s 			page 40


 501      48E2E1B9 
 501      CB011288 
 501      D82E8D
 502 14de 69ECC928 		.ascii	"i\354\311(\000A\033\360\321.*\013\256\035\200)l\017"
 502      00411BF0 
 502      D12E2A0B 
 502      AE1D8029 
 502      6C0F
 503 14f0 4FDA06A9 		.ascii	"O\332\006\251F3<\016\0062\375G\0172\333\313KMR?\357"
 503      46333C0E 
 503      0632FD47 
 503      0F32DBCB 
 503      4B4D523F 
 504 1505 EF2168AC 		.ascii	"\357!h\254\350P\000O}\035\375\374\003\016k\367\361X"
 504      E850004F 
 504      7D1DFDFC 
 504      030E6BF7 
 504      F158
 505 1517 42863680 		.ascii	"B\2066\200_\005h\201\304r\224\364?k\316\307\2177\373"
 505      5F056881 
 505      C47294F4 
 505      3F6BCEC7 
 505      8F37FB
 506 152a 2319401F 		.ascii	"#\031@\037?\362\037\256\003\351u \271V|\345\035\010"
 506      3FF21FAE 
 506      03E97520 
 506      B9567CE5 
 506      1D08
 507 153c 52FCBFF7 		.ascii	"R\374\277\367\361\334\273\207\245\273?Q\035\366\377"
 507      F1DCBB87 
 507      A5BB3F51 
 507      1DF6FF
 508 154b C17BEF1E 		.ascii	"\301{\357\036\232\200E[\365\245\023\"\220\031\201J:"
 508      9A80455B 
 508      F5A51322 
 508      9019814A 
 508      3A
 509 155c B2249EA4 		.ascii	"\262$\236\244\003L\200\331\024=\244\244QP\322\276+i"
 509      034C80D9 
 509      143DA4A4 
 509      5150D2BE 
 509      2B69
 510 156e A98AF459 		.ascii	"\251\212\364Y\013!6\365\215tZ\353\011)tZ\353\251\244"
 510      0B2136F5 
 510      8D745AEB 
 510      0929745A 
 510      EBA9A4
 511 1581 B6925A0E 		.ascii	"\266\222Z\0164\314_\022\317\340\341K\322\032\330T\274"
 511      34CC5F12 
 511      CFE0E14B 
 511      D21AD854 
 511      BC
 512 1592 A7924E21 		.ascii	"\247\222N!\025s\242b#\240 \377L\313\353\020\254\017"
 512      1573A262 
 512      23A020FF 
 512      4CCBEB10 
 512      AC0F
ARM GAS  C:\Users\rdn\AppData\Local\Temp\ccG9Tpsn.s 			page 41


 513 15a4 5F2508D3 		.ascii	"_%\010\323\006bp\251\362\241\034{\253\302\223LwX\025"
 513      066270A9 
 513      F2A11C7B 
 513      ABC2934C 
 513      775815
 514 15b7 8EB01ABF 		.ascii	"\216\260\032\277\370T\273\377\2002\3500,i\027\363m\303"
 514      F854BBFF 
 514      8032E830 
 514      2C6917F3 
 514      6DC3
 515 15c9 DBD9CC42 		.ascii	"\333\331\314B>\016|\211\330\333\025\370\256\005N\337"
 515      3E0E7C89 
 515      D8DB15F8 
 515      AE054EDF 
 516 15d9 B2C32081 		.ascii	"\262\303 \201\205b{\016`\245\356\376\204n+\016>~\236"
 516      85627B0E 
 516      60A5EEFE 
 516      846E2B0E 
 516      3E7E9E
 517 15ec 01B0CCEC 		.ascii	"\001\260\314\3541=aA\006\370\223\015\342\177\001\360"
 517      313D6141 
 517      06F8930D 
 517      E27F01F0 
 518 15fc C3B97A   		.ascii	"\303\271z"
 519              		.text
 520              		.section	.gnu.lto_.symtab.d6191545,"",%progbits
 521 0000 70726F63 		.ascii	"processApplyGlobalGain_fx\000"
 521      65737341 
 521      70706C79 
 521      476C6F62 
 521      616C4761 
 522 001a 00       		.ascii	"\000"
 523 001b 00       		.ascii	"\000"
 524 001c 00       		.ascii	"\000"
 525 001d 00000000 		.ascii	"\000\000\000\000\000\000\000\000"
 525      00000000 
 526 0025 CB000000 		.ascii	"\313\000\000\000"
 527 0029 63757272 		.ascii	"currCounter\000"
 527      436F756E 
 527      74657200 
 528 0035 00       		.ascii	"\000"
 529 0036 02       		.ascii	"\002"
 530 0037 00       		.ascii	"\000"
 531 0038 00000000 		.ascii	"\000\000\000\000\000\000\000\000"
 531      00000000 
 532 0040 03010000 		.ascii	"\003\001\000\000"
 533 0044 6D756C74 		.ascii	"multiCounter\000"
 533      69436F75 
 533      6E746572 
 533      00
 534 0051 00       		.ascii	"\000"
 535 0052 02       		.ascii	"\002"
 536 0053 00       		.ascii	"\000"
 537 0054 00000000 		.ascii	"\000\000\000\000\000\000\000\000"
 537      00000000 
 538 005c 0D020000 		.ascii	"\015\002\000\000"
 539 0060 505F4479 		.ascii	"P_Dyn_Mem_Out\000"
ARM GAS  C:\Users\rdn\AppData\Local\Temp\ccG9Tpsn.s 			page 42


 539      6E5F4D65 
 539      6D5F4F75 
 539      7400
 540 006e 00       		.ascii	"\000"
 541 006f 02       		.ascii	"\002"
 542 0070 00       		.ascii	"\000"
 543 0071 00000000 		.ascii	"\000\000\000\000\000\000\000\000"
 543      00000000 
 544 0079 CE000000 		.ascii	"\316\000\000\000"
 545 007d 61646400 		.ascii	"add\000"
 546 0081 00       		.ascii	"\000"
 547 0082 02       		.ascii	"\002"
 548 0083 00       		.ascii	"\000"
 549 0084 00000000 		.ascii	"\000\000\000\000\000\000\000\000"
 549      00000000 
 550 008c D3000000 		.ascii	"\323\000\000\000"
 551 0090 4D70795F 		.ascii	"Mpy_32_32\000"
 551      33325F33 
 551      3200
 552 009a 00       		.ascii	"\000"
 553 009b 02       		.ascii	"\002"
 554 009c 00       		.ascii	"\000"
 555 009d 00000000 		.ascii	"\000\000\000\000\000\000\000\000"
 555      00000000 
 556 00a5 D8000000 		.ascii	"\330\000\000\000"
 557 00a9 65787472 		.ascii	"extract_l\000"
 557      6163745F 
 557      6C00
 558 00b3 00       		.ascii	"\000"
 559 00b4 02       		.ascii	"\002"
 560 00b5 00       		.ascii	"\000"
 561 00b6 00000000 		.ascii	"\000\000\000\000\000\000\000\000"
 561      00000000 
 562 00be DC000000 		.ascii	"\334\000\000\000"
 563 00c2 4C5F7368 		.ascii	"L_shr\000"
 563      7200
 564 00c8 00       		.ascii	"\000"
 565 00c9 02       		.ascii	"\002"
 566 00ca 00       		.ascii	"\000"
 567 00cb 00000000 		.ascii	"\000\000\000\000\000\000\000\000"
 567      00000000 
 568 00d3 E1000000 		.ascii	"\341\000\000\000"
 569 00d7 4241534F 		.ascii	"BASOP_Util_InvLog2\000"
 569      505F5574 
 569      696C5F49 
 569      6E764C6F 
 569      673200
 570 00ea 00       		.ascii	"\000"
 571 00eb 02       		.ascii	"\002"
 572 00ec 00       		.ascii	"\000"
 573 00ed 00000000 		.ascii	"\000\000\000\000\000\000\000\000"
 573      00000000 
 574 00f5 E5000000 		.ascii	"\345\000\000\000"
 575 00f9 4C5F6465 		.ascii	"L_deposit_l\000"
 575      706F7369 
 575      745F6C00 
 576 0105 00       		.ascii	"\000"
ARM GAS  C:\Users\rdn\AppData\Local\Temp\ccG9Tpsn.s 			page 43


 577 0106 02       		.ascii	"\002"
 578 0107 00       		.ascii	"\000"
 579 0108 00000000 		.ascii	"\000\000\000\000\000\000\000\000"
 579      00000000 
 580 0110 E9000000 		.ascii	"\351\000\000\000"
 581 0114 73687200 		.ascii	"shr\000"
 582 0118 00       		.ascii	"\000"
 583 0119 02       		.ascii	"\002"
 584 011a 00       		.ascii	"\000"
 585 011b 00000000 		.ascii	"\000\000\000\000\000\000\000\000"
 585      00000000 
 586 0123 EB000000 		.ascii	"\353\000\000\000"
 587 0127 4C5F7368 		.ascii	"L_shl\000"
 587      6C00
 588 012d 00       		.ascii	"\000"
 589 012e 02       		.ascii	"\002"
 590 012f 00       		.ascii	"\000"
 591 0130 00000000 		.ascii	"\000\000\000\000\000\000\000\000"
 591      00000000 
 592 0138 ED000000 		.ascii	"\355\000\000\000"
 593 013c 4D70795F 		.ascii	"Mpy_32_16_ss\000"
 593      33325F31 
 593      365F7373 
 593      00
 594 0149 00       		.ascii	"\000"
 595 014a 02       		.ascii	"\002"
 596 014b 00       		.ascii	"\000"
 597 014c 00000000 		.ascii	"\000\000\000\000\000\000\000\000"
 597      00000000 
 598 0154 FA000000 		.ascii	"\372\000\000\000"
 599 0158 505F4479 		.ascii	"P_Dyn_Mem_In\000"
 599      6E5F4D65 
 599      6D5F496E 
 599      00
 600 0165 00       		.ascii	"\000"
 601 0166 02       		.ascii	"\002"
 602 0167 00       		.ascii	"\000"
 603 0168 00000000 		.ascii	"\000\000\000\000\000\000\000\000"
 603      00000000 
 604 0170 01010000 		.ascii	"\001\001\000\000"
 605              		.text
 606              		.section	.gnu.lto_.opts,"",%progbits
 607 0000 272D666D 		.ascii	"'-fmath-errno' '-fsigned-zeros' '-ftrapping-math' '"
 607      6174682D 
 607      6572726E 
 607      6F272027 
 607      2D667369 
 608 0033 2D666E6F 		.ascii	"-fno-trapv' '-fno-openmp' '-fno-openacc' '-mcpu=cor"
 608      2D747261 
 608      70762720 
 608      272D666E 
 608      6F2D6F70 
 609 0066 7465782D 		.ascii	"tex-m4' '-mfloat-abi=softfp' '-mfpu=fpv4-sp-d16' '-"
 609      6D342720 
 609      272D6D66 
 609      6C6F6174 
 609      2D616269 
ARM GAS  C:\Users\rdn\AppData\Local\Temp\ccG9Tpsn.s 			page 44


 610 0099 6D746875 		.ascii	"mthumb' '-g' '-O3' '-ffunction-sections' '-ffat-lto"
 610      6D622720 
 610      272D6727 
 610      20272D4F 
 610      33272027 
 611 00cc 2D6F626A 		.ascii	"-objects' '-finline-functions' '-flto'\000"
 611      65637473 
 611      2720272D 
 611      66696E6C 
 611      696E652D 
 612              		.text
 613              		.cfi_sections	.debug_frame
 614              		.section	.text.processApplyGlobalGain_fx,"ax",%progbits
 615              		.align	2
 616              		.global	processApplyGlobalGain_fx
 617              		.thumb
 618              		.thumb_func
 619              		.type	processApplyGlobalGain_fx, %function
 620              	processApplyGlobalGain_fx:
 621              	.LFB27:
 622              		.file 1 "fixed_point\\apply_global_gain_fx.c"
   1:fixed_point/apply_global_gain_fx.c **** /******************************************************************************
   2:fixed_point/apply_global_gain_fx.c **** *                        ETSI TS 103 634 V1.3.1                               *
   3:fixed_point/apply_global_gain_fx.c **** *              Low Complexity Communication Codec Plus (LC3plus)              *
   4:fixed_point/apply_global_gain_fx.c **** *                                                                             *
   5:fixed_point/apply_global_gain_fx.c **** * Copyright licence is solely granted through ETSI Intellectual Property      *
   6:fixed_point/apply_global_gain_fx.c **** * Rights Policy, 3rd April 2019. No patent licence is granted by implication, *
   7:fixed_point/apply_global_gain_fx.c **** * estoppel or otherwise.                                                      *
   8:fixed_point/apply_global_gain_fx.c **** ******************************************************************************/
   9:fixed_point/apply_global_gain_fx.c ****                                                                                
  10:fixed_point/apply_global_gain_fx.c **** 
  11:fixed_point/apply_global_gain_fx.c **** #include "functions.h"
  12:fixed_point/apply_global_gain_fx.c **** 
  13:fixed_point/apply_global_gain_fx.c **** 
  14:fixed_point/apply_global_gain_fx.c **** 
  15:fixed_point/apply_global_gain_fx.c **** void processApplyGlobalGain_fx(Word32 x[], Word16 *x_e, Word16 xLen, Word16 global_gain_idx, Word16
  16:fixed_point/apply_global_gain_fx.c **** {
 623              		.loc 1 16 0
 624              		.cfi_startproc
 625              		@ args = 4, pretend = 0, frame = 16
 626              		@ frame_needed = 0, uses_anonymous_args = 0
 627              	.LVL0:
 628 0000 2DE9F04F 		push	{r4, r5, r6, r7, r8, r9, r10, fp, lr}
 629              		.cfi_def_cfa_offset 36
 630              		.cfi_offset 4, -36
 631              		.cfi_offset 5, -32
 632              		.cfi_offset 6, -28
 633              		.cfi_offset 7, -24
 634              		.cfi_offset 8, -20
 635              		.cfi_offset 9, -16
 636              		.cfi_offset 10, -12
 637              		.cfi_offset 11, -8
 638              		.cfi_offset 14, -4
 639 0004 85B0     		sub	sp, sp, #20
 640              		.cfi_def_cfa_offset 56
 641              		.loc 1 16 0
 642 0006 1C46     		mov	r4, r3
ARM GAS  C:\Users\rdn\AppData\Local\Temp\ccG9Tpsn.s 			page 45


 643 0008 BDF93880 		ldrsh	r8, [sp, #56]
 644              	.LBB12:
 645              	.LBB13:
 646              		.file 2 ".\\fixed_point\\basic_op/move.h"
   1:.\fixed_point\basic_op/move.h **** /*
   2:.\fixed_point\basic_op/move.h ****   ===========================================================================
   3:.\fixed_point\basic_op/move.h ****    File: MOVE.H                                          v.2.3 - 30.Nov.2009
   4:.\fixed_point\basic_op/move.h ****   ===========================================================================
   5:.\fixed_point\basic_op/move.h **** 
   6:.\fixed_point\basic_op/move.h ****             ITU-T  STL  BASIC  OPERATORS
   7:.\fixed_point\basic_op/move.h **** 
   8:.\fixed_point\basic_op/move.h ****             MOVE & MISC LEGACY OPERATORS
   9:.\fixed_point\basic_op/move.h **** 
  10:.\fixed_point\basic_op/move.h ****    History:
  11:.\fixed_point\basic_op/move.h ****    07 Nov 04   v2.0     Incorporation of new 32-bit / 40-bit / control
  12:.\fixed_point\basic_op/move.h ****                         operators for the ITU-T Standard Tool Library as 
  13:.\fixed_point\basic_op/move.h ****                         described in Geneva, 20-30 January 2004 WP 3/16 Q10/16
  14:.\fixed_point\basic_op/move.h ****                         TD 11 document and subsequent discussions on the
  15:.\fixed_point\basic_op/move.h ****                         wp3audio@yahoogroups.com email reflector.
  16:.\fixed_point\basic_op/move.h ****    March 06   v2.1      Changed to improve portability.                        
  17:.\fixed_point\basic_op/move.h **** 
  18:.\fixed_point\basic_op/move.h ****   ============================================================================
  19:.\fixed_point\basic_op/move.h **** */
  20:.\fixed_point\basic_op/move.h **** 
  21:.\fixed_point\basic_op/move.h **** 
  22:.\fixed_point\basic_op/move.h **** #ifndef _MOVE_H
  23:.\fixed_point\basic_op/move.h **** #define _MOVE_H
  24:.\fixed_point\basic_op/move.h **** 
  25:.\fixed_point\basic_op/move.h **** 
  26:.\fixed_point\basic_op/move.h **** #include "stl.h"
  27:.\fixed_point\basic_op/move.h **** 
  28:.\fixed_point\basic_op/move.h **** #if (WMOPS)
  29:.\fixed_point\basic_op/move.h **** extern BASIC_OP multiCounter[MAXCOUNTERS];
  30:.\fixed_point\basic_op/move.h **** extern int currCounter;
  31:.\fixed_point\basic_op/move.h **** #endif /* if WMOPS */
  32:.\fixed_point\basic_op/move.h **** 
  33:.\fixed_point\basic_op/move.h **** 
  34:.\fixed_point\basic_op/move.h **** static __inline void move16( void) {
  35:.\fixed_point\basic_op/move.h **** #if WMOPS
  36:.\fixed_point\basic_op/move.h ****     multiCounter[currCounter].move16++;
 647              		.loc 2 36 0
 648 000c 3D4D     		ldr	r5, .L9
 649 000e 3E4E     		ldr	r6, .L9+4
 650              	.LBE13:
 651              	.LBE12:
 652              		.loc 1 16 0
 653 0010 8346     		mov	fp, r0
 654 0012 8946     		mov	r9, r1
  17:fixed_point/apply_global_gain_fx.c ****     Counter i;
  18:fixed_point/apply_global_gain_fx.c **** #ifdef ENABLE_HR_MODE
  19:fixed_point/apply_global_gain_fx.c ****     Word32 global_gain;
  20:fixed_point/apply_global_gain_fx.c **** #else
  21:fixed_point/apply_global_gain_fx.c ****     Word16 global_gain;
  22:fixed_point/apply_global_gain_fx.c **** #endif
  23:fixed_point/apply_global_gain_fx.c ****     Word16 global_gain_e;
  24:fixed_point/apply_global_gain_fx.c ****     Word32 tmp32;
  25:fixed_point/apply_global_gain_fx.c **** 
ARM GAS  C:\Users\rdn\AppData\Local\Temp\ccG9Tpsn.s 			page 46


  26:fixed_point/apply_global_gain_fx.c **** #ifdef DYNMEM_COUNT
  27:fixed_point/apply_global_gain_fx.c ****     Dyn_Mem_In("processApplyGlobalGain_fx", sizeof(struct {
 655              		.loc 1 27 0
 656 0014 3D48     		ldr	r0, .L9+8
 657              	.LVL1:
 658 0016 0C21     		movs	r1, #12
 659              	.LVL2:
  16:fixed_point/apply_global_gain_fx.c ****     Counter i;
 660              		.loc 1 16 0
 661 0018 1746     		mov	r7, r2
 662              		.loc 1 27 0
 663 001a FFF7FEFF 		bl	P_Dyn_Mem_In
 664              	.LVL3:
  28:fixed_point/apply_global_gain_fx.c ****                    Counter i;
  29:fixed_point/apply_global_gain_fx.c ****                    Word16  global_gain, global_gain_e;
  30:fixed_point/apply_global_gain_fx.c ****                    Word32  tmp32;
  31:fixed_point/apply_global_gain_fx.c ****                }));
  32:fixed_point/apply_global_gain_fx.c **** #endif
  33:fixed_point/apply_global_gain_fx.c **** 
  34:fixed_point/apply_global_gain_fx.c **** #ifdef ENABLE_HR_MODE
  35:fixed_point/apply_global_gain_fx.c ****     /* 1 / (28 * log 2) is 0x797D in Q18, L_shl_pos by 7 results in Q25 tmp32 */
  36:fixed_point/apply_global_gain_fx.c ****     /* round(2^31 / (28 * log10(2))) = 254778081 */
  37:fixed_point/apply_global_gain_fx.c ****     //tmp32 = L_shl_pos(Mpy_32_16(254778081, add(global_gain_idx, global_gain_off)), 9);
  38:fixed_point/apply_global_gain_fx.c ****     Word32  mh;
  39:fixed_point/apply_global_gain_fx.c ****     UWord16 ml;
  40:fixed_point/apply_global_gain_fx.c **** 
  41:fixed_point/apply_global_gain_fx.c ****     Mpy_32_16_ss(254778081, add(global_gain_idx, global_gain_off), &mh, &ml);
 665              		.loc 1 41 0
 666 001e 4146     		mov	r1, r8
 667 0020 2046     		mov	r0, r4
 668 0022 FFF7FEFF 		bl	add
 669              	.LVL4:
 670 0026 0DF10A03 		add	r3, sp, #10
 671 002a 03AA     		add	r2, sp, #12
 672 002c 0146     		mov	r1, r0
 673 002e 3848     		ldr	r0, .L9+12
 674 0030 FFF7FEFF 		bl	Mpy_32_16_ss
 675              	.LVL5:
  42:fixed_point/apply_global_gain_fx.c ****     tmp32 = L_shl_pos(mh, 9) | L_deposit_l((shr((Word16)ml, 7)) & 0x1ff);
 676              		.loc 1 42 0
 677 0034 0921     		movs	r1, #9
 678 0036 0398     		ldr	r0, [sp, #12]
 679 0038 FFF7FEFF 		bl	L_shl
 680              	.LVL6:
 681 003c 0721     		movs	r1, #7
 682 003e 8246     		mov	r10, r0
 683 0040 BDF90A00 		ldrsh	r0, [sp, #10]
 684 0044 FFF7FEFF 		bl	shr
 685              	.LVL7:
 686 0048 C0F30800 		ubfx	r0, r0, #0, #9
 687 004c FFF7FEFF 		bl	L_deposit_l
 688              	.LVL8:
 689              	.LBB18:
 690              	.LBB14:
 691              		.loc 2 36 0
 692 0050 2968     		ldr	r1, [r5]
 693 0052 4FF4CC74 		mov	r4, #408
ARM GAS  C:\Users\rdn\AppData\Local\Temp\ccG9Tpsn.s 			page 47


 694 0056 04FB0161 		mla	r1, r4, r1, r6
 695              	.LBE14:
 696              	.LBE18:
 697              		.loc 1 42 0
 698 005a 4AEA000A 		orr	r10, r10, r0
 699              	.LVL9:
 700              	.LBB19:
 701              	.LBB15:
 702              		.loc 2 36 0
 703 005e D1F88820 		ldr	r2, [r1, #136]
 704              	.LBE15:
 705              	.LBE19:
 706              	.LBB20:
 707              	.LBB21:
 708              		.file 3 ".\\fixed_point\\basic_op/enh1632.h"
   1:.\fixed_point\basic_op/enh1632.h **** /*
   2:.\fixed_point\basic_op/enh1632.h ****   ===========================================================================
   3:.\fixed_point\basic_op/enh1632.h ****    File: ENH1632.H                                       v.2.3 - 30.Nov.2009
   4:.\fixed_point\basic_op/enh1632.h ****   ===========================================================================
   5:.\fixed_point\basic_op/enh1632.h **** 
   6:.\fixed_point\basic_op/enh1632.h ****             ITU-T        STL        BASIC       OPERATORS
   7:.\fixed_point\basic_op/enh1632.h **** 
   8:.\fixed_point\basic_op/enh1632.h ****             ENHANCED 16-BIT & 32-BIT ARITHMETIC OPERATORS
   9:.\fixed_point\basic_op/enh1632.h **** 
  10:.\fixed_point\basic_op/enh1632.h ****    History:
  11:.\fixed_point\basic_op/enh1632.h ****    07 Nov 04   v2.0     Incorporation of new 32-bit / 40-bit / control
  12:.\fixed_point\basic_op/enh1632.h ****                         operators for the ITU-T Standard Tool Library as 
  13:.\fixed_point\basic_op/enh1632.h ****                         described in Geneva, 20-30 January 2004 WP 3/16 Q10/16
  14:.\fixed_point\basic_op/enh1632.h ****                         TD 11 document and subsequent discussions on the
  15:.\fixed_point\basic_op/enh1632.h ****                         wp3audio@yahoogroups.com email reflector.
  16:.\fixed_point\basic_op/enh1632.h ****    March 06   v2.1      Changed to improve portability.
  17:.\fixed_point\basic_op/enh1632.h ****                         Some counters incrementations were missing (s_and, 
  18:.\fixed_point\basic_op/enh1632.h ****                         s_or, s_xor).                        
  19:.\fixed_point\basic_op/enh1632.h ****    30 Nov 09   v2.3     saturate() removed
  20:.\fixed_point\basic_op/enh1632.h **** 
  21:.\fixed_point\basic_op/enh1632.h ****   ============================================================================
  22:.\fixed_point\basic_op/enh1632.h **** */
  23:.\fixed_point\basic_op/enh1632.h **** 
  24:.\fixed_point\basic_op/enh1632.h **** 
  25:.\fixed_point\basic_op/enh1632.h **** #ifndef _ENH1632_H
  26:.\fixed_point\basic_op/enh1632.h **** #define _ENH1632_H
  27:.\fixed_point\basic_op/enh1632.h **** 
  28:.\fixed_point\basic_op/enh1632.h **** 
  29:.\fixed_point\basic_op/enh1632.h **** /*****************************************************************************
  30:.\fixed_point\basic_op/enh1632.h ****  *
  31:.\fixed_point\basic_op/enh1632.h ****  *  Constants and Globals
  32:.\fixed_point\basic_op/enh1632.h ****  *
  33:.\fixed_point\basic_op/enh1632.h ****  *****************************************************************************/
  34:.\fixed_point\basic_op/enh1632.h **** 
  35:.\fixed_point\basic_op/enh1632.h **** 
  36:.\fixed_point\basic_op/enh1632.h **** #include "stl.h"
  37:.\fixed_point\basic_op/enh1632.h **** 
  38:.\fixed_point\basic_op/enh1632.h **** 
  39:.\fixed_point\basic_op/enh1632.h **** #if (WMOPS)
  40:.\fixed_point\basic_op/enh1632.h **** #include "count.h"
  41:.\fixed_point\basic_op/enh1632.h **** extern BASIC_OP multiCounter[MAXCOUNTERS];
  42:.\fixed_point\basic_op/enh1632.h **** extern int currCounter;
ARM GAS  C:\Users\rdn\AppData\Local\Temp\ccG9Tpsn.s 			page 48


  43:.\fixed_point\basic_op/enh1632.h **** #endif /* if WMOPS */
  44:.\fixed_point\basic_op/enh1632.h **** 
  45:.\fixed_point\basic_op/enh1632.h **** 
  46:.\fixed_point\basic_op/enh1632.h **** /*****************************************************************************
  47:.\fixed_point\basic_op/enh1632.h ****  *
  48:.\fixed_point\basic_op/enh1632.h ****  *  Prototypes for enhanced 16/32 bit arithmetic operators
  49:.\fixed_point\basic_op/enh1632.h ****  *
  50:.\fixed_point\basic_op/enh1632.h ****  *****************************************************************************/
  51:.\fixed_point\basic_op/enh1632.h **** Word16 shl_r(   Word16 var1,   Word16 var2);
  52:.\fixed_point\basic_op/enh1632.h **** Word32 L_shl_r( Word32 L_var1, Word16 var2);
  53:.\fixed_point\basic_op/enh1632.h **** 
  54:.\fixed_point\basic_op/enh1632.h **** 
  55:.\fixed_point\basic_op/enh1632.h **** Word16 lshl(    Word16 var1,   Word16 var2);
  56:.\fixed_point\basic_op/enh1632.h **** Word16 lshr(    Word16 var1,   Word16 var2);
  57:.\fixed_point\basic_op/enh1632.h **** Word32 L_lshl(  Word32 L_var1, Word16 var2);
  58:.\fixed_point\basic_op/enh1632.h **** Word32 L_lshr(  Word32 L_var1, Word16 var2);
  59:.\fixed_point\basic_op/enh1632.h **** 
  60:.\fixed_point\basic_op/enh1632.h **** Word16 rotr(    Word16 var1,   Word16 var2, Word16 *var3);
  61:.\fixed_point\basic_op/enh1632.h **** Word16 rotl(    Word16 var1,   Word16 var2, Word16 *var3);
  62:.\fixed_point\basic_op/enh1632.h **** Word32 L_rotr(  Word32 var1,   Word16 var2, Word16 *var3);
  63:.\fixed_point\basic_op/enh1632.h **** Word32 L_rotl(  Word32 var1,   Word16 var2, Word16 *var3);
  64:.\fixed_point\basic_op/enh1632.h **** 
  65:.\fixed_point\basic_op/enh1632.h **** 
  66:.\fixed_point\basic_op/enh1632.h **** 
  67:.\fixed_point\basic_op/enh1632.h **** /*****************************************************************************
  68:.\fixed_point\basic_op/enh1632.h ****  *
  69:.\fixed_point\basic_op/enh1632.h ****  *  Functions
  70:.\fixed_point\basic_op/enh1632.h ****  *
  71:.\fixed_point\basic_op/enh1632.h ****  *****************************************************************************/
  72:.\fixed_point\basic_op/enh1632.h **** 
  73:.\fixed_point\basic_op/enh1632.h **** /*****************************************************************************
  74:.\fixed_point\basic_op/enh1632.h ****  *
  75:.\fixed_point\basic_op/enh1632.h ****  *  Function Name : s_max
  76:.\fixed_point\basic_op/enh1632.h ****  *
  77:.\fixed_point\basic_op/enh1632.h ****  *  Purpose :
  78:.\fixed_point\basic_op/enh1632.h ****  *
  79:.\fixed_point\basic_op/enh1632.h ****  *    Compares var1 and var2 and returns the maximum value.
  80:.\fixed_point\basic_op/enh1632.h ****  *
  81:.\fixed_point\basic_op/enh1632.h ****  *  Complexity weight : 1
  82:.\fixed_point\basic_op/enh1632.h ****  *
  83:.\fixed_point\basic_op/enh1632.h ****  *  Inputs :
  84:.\fixed_point\basic_op/enh1632.h ****  *
  85:.\fixed_point\basic_op/enh1632.h ****  *    var1        16 bit short signed integer (Word16) whose value falls in 
  86:.\fixed_point\basic_op/enh1632.h ****  *                the range : 0x8000 <= var1 <= 0x7fff.
  87:.\fixed_point\basic_op/enh1632.h ****  *
  88:.\fixed_point\basic_op/enh1632.h ****  *    var2        16 bit short signed integer (Word16) whose value falls in
  89:.\fixed_point\basic_op/enh1632.h ****  *                the range : 0x8000 <= var2 <= 0x7fff.
  90:.\fixed_point\basic_op/enh1632.h ****  *
  91:.\fixed_point\basic_op/enh1632.h ****  *  Outputs :
  92:.\fixed_point\basic_op/enh1632.h ****  *
  93:.\fixed_point\basic_op/enh1632.h ****  *    none
  94:.\fixed_point\basic_op/enh1632.h ****  *
  95:.\fixed_point\basic_op/enh1632.h ****  *  Return Value :
  96:.\fixed_point\basic_op/enh1632.h ****  *
  97:.\fixed_point\basic_op/enh1632.h ****  *    var_out     16 bit short signed integer (Word16) whose value falls in
  98:.\fixed_point\basic_op/enh1632.h ****  *                the range : 0x8000 <= L_var_out <= 0x7fff.
  99:.\fixed_point\basic_op/enh1632.h ****  *
ARM GAS  C:\Users\rdn\AppData\Local\Temp\ccG9Tpsn.s 			page 49


 100:.\fixed_point\basic_op/enh1632.h ****  *****************************************************************************/
 101:.\fixed_point\basic_op/enh1632.h **** static __inline Word16 s_max( Word16 var1, Word16 var2) {
 102:.\fixed_point\basic_op/enh1632.h ****    Word16 var_out;
 103:.\fixed_point\basic_op/enh1632.h **** 
 104:.\fixed_point\basic_op/enh1632.h ****    if( var1 >= var2)
 105:.\fixed_point\basic_op/enh1632.h ****       var_out = var1;
 106:.\fixed_point\basic_op/enh1632.h ****    else
 107:.\fixed_point\basic_op/enh1632.h ****       var_out = var2;
 108:.\fixed_point\basic_op/enh1632.h **** 
 109:.\fixed_point\basic_op/enh1632.h ****    #if (WMOPS)
 110:.\fixed_point\basic_op/enh1632.h ****    multiCounter[currCounter].s_max++;
 111:.\fixed_point\basic_op/enh1632.h ****    #endif /* if WMOPS */
 112:.\fixed_point\basic_op/enh1632.h **** 
 113:.\fixed_point\basic_op/enh1632.h ****    return( var_out);
 114:.\fixed_point\basic_op/enh1632.h **** }
 115:.\fixed_point\basic_op/enh1632.h **** 
 116:.\fixed_point\basic_op/enh1632.h **** 
 117:.\fixed_point\basic_op/enh1632.h **** /*****************************************************************************
 118:.\fixed_point\basic_op/enh1632.h ****  *
 119:.\fixed_point\basic_op/enh1632.h ****  *  Function Name : s_min
 120:.\fixed_point\basic_op/enh1632.h ****  *
 121:.\fixed_point\basic_op/enh1632.h ****  *  Purpose :
 122:.\fixed_point\basic_op/enh1632.h ****  *
 123:.\fixed_point\basic_op/enh1632.h ****  *    Compares var1 and var2 and returns the minimum value.
 124:.\fixed_point\basic_op/enh1632.h ****  *
 125:.\fixed_point\basic_op/enh1632.h ****  *  Complexity weight : 1
 126:.\fixed_point\basic_op/enh1632.h ****  *
 127:.\fixed_point\basic_op/enh1632.h ****  *  Inputs :
 128:.\fixed_point\basic_op/enh1632.h ****  *
 129:.\fixed_point\basic_op/enh1632.h ****  *    var1        16 bit short signed integer (Word16) whose value falls in 
 130:.\fixed_point\basic_op/enh1632.h ****  *                the range : 0x8000  <= var1 <= 0x7fff.
 131:.\fixed_point\basic_op/enh1632.h ****  *
 132:.\fixed_point\basic_op/enh1632.h ****  *    var2        16 bit short signed integer (Word16) whose value falls in 
 133:.\fixed_point\basic_op/enh1632.h ****  *                the range : 0x8000  <= var2 <= 0x7fff.
 134:.\fixed_point\basic_op/enh1632.h ****  *
 135:.\fixed_point\basic_op/enh1632.h ****  *  Outputs :
 136:.\fixed_point\basic_op/enh1632.h ****  *
 137:.\fixed_point\basic_op/enh1632.h ****  *    none
 138:.\fixed_point\basic_op/enh1632.h ****  *
 139:.\fixed_point\basic_op/enh1632.h ****  *  Return Value :
 140:.\fixed_point\basic_op/enh1632.h ****  *
 141:.\fixed_point\basic_op/enh1632.h ****  *    var_out     16 bit short signed integer (Word16) whose value falls in 
 142:.\fixed_point\basic_op/enh1632.h ****  *                the range : 0x8000 <= var_out <= 0x7fff.
 143:.\fixed_point\basic_op/enh1632.h ****  *
 144:.\fixed_point\basic_op/enh1632.h ****  *****************************************************************************/
 145:.\fixed_point\basic_op/enh1632.h **** static __inline Word16 s_min( Word16 var1, Word16 var2) {
 146:.\fixed_point\basic_op/enh1632.h ****    Word16 var_out;
 147:.\fixed_point\basic_op/enh1632.h **** 
 148:.\fixed_point\basic_op/enh1632.h ****    if( var1 <= var2)
 149:.\fixed_point\basic_op/enh1632.h ****       var_out = var1;
 150:.\fixed_point\basic_op/enh1632.h ****    else
 151:.\fixed_point\basic_op/enh1632.h ****       var_out = var2;
 152:.\fixed_point\basic_op/enh1632.h **** 
 153:.\fixed_point\basic_op/enh1632.h ****    #if (WMOPS)
 154:.\fixed_point\basic_op/enh1632.h ****    multiCounter[currCounter].s_min++;
 155:.\fixed_point\basic_op/enh1632.h ****    #endif /* if WMOPS */
 156:.\fixed_point\basic_op/enh1632.h **** 
ARM GAS  C:\Users\rdn\AppData\Local\Temp\ccG9Tpsn.s 			page 50


 157:.\fixed_point\basic_op/enh1632.h ****    return( var_out);
 158:.\fixed_point\basic_op/enh1632.h **** }
 159:.\fixed_point\basic_op/enh1632.h **** 
 160:.\fixed_point\basic_op/enh1632.h **** 
 161:.\fixed_point\basic_op/enh1632.h **** /*****************************************************************************
 162:.\fixed_point\basic_op/enh1632.h ****  *
 163:.\fixed_point\basic_op/enh1632.h ****  *  Function Name : L_max
 164:.\fixed_point\basic_op/enh1632.h ****  *
 165:.\fixed_point\basic_op/enh1632.h ****  *  Purpose :
 166:.\fixed_point\basic_op/enh1632.h ****  *
 167:.\fixed_point\basic_op/enh1632.h ****  *    Compares L_var1 and L_var2 and returns the maximum value.
 168:.\fixed_point\basic_op/enh1632.h ****  *
 169:.\fixed_point\basic_op/enh1632.h ****  *  Complexity weight : 1
 170:.\fixed_point\basic_op/enh1632.h ****  *
 171:.\fixed_point\basic_op/enh1632.h ****  *  Inputs :
 172:.\fixed_point\basic_op/enh1632.h ****  *
 173:.\fixed_point\basic_op/enh1632.h ****  *    L_var1      32 bit long signed integer (Word32) whose value falls in the
 174:.\fixed_point\basic_op/enh1632.h ****  *                range : 0x8000 0000  <= L_var1 <= 0x7fff ffff.
 175:.\fixed_point\basic_op/enh1632.h ****  *
 176:.\fixed_point\basic_op/enh1632.h ****  *    L_var2      32 bit long signed integer (Word32) whose value falls in the
 177:.\fixed_point\basic_op/enh1632.h ****  *                range : 0x8000 0000  <= L_var2 <= 0x7fff ffff.
 178:.\fixed_point\basic_op/enh1632.h ****  *
 179:.\fixed_point\basic_op/enh1632.h ****  *  Outputs :
 180:.\fixed_point\basic_op/enh1632.h ****  *
 181:.\fixed_point\basic_op/enh1632.h ****  *    none
 182:.\fixed_point\basic_op/enh1632.h ****  *
 183:.\fixed_point\basic_op/enh1632.h ****  *  Return Value :
 184:.\fixed_point\basic_op/enh1632.h ****  *
 185:.\fixed_point\basic_op/enh1632.h ****  *    L_var_out   32 bit long signed integer (Word32) whose value falls in the
 186:.\fixed_point\basic_op/enh1632.h ****  *                range : 0x8000 0000 <= L_var_out <= 0x7fff ffff.
 187:.\fixed_point\basic_op/enh1632.h ****  *
 188:.\fixed_point\basic_op/enh1632.h ****  *****************************************************************************/
 189:.\fixed_point\basic_op/enh1632.h **** static __inline Word32 L_max( Word32 L_var1, Word32 L_var2) {
 190:.\fixed_point\basic_op/enh1632.h ****    Word32 L_var_out;
 191:.\fixed_point\basic_op/enh1632.h **** 
 192:.\fixed_point\basic_op/enh1632.h ****    if( L_var1 >= L_var2)
 193:.\fixed_point\basic_op/enh1632.h ****       L_var_out = L_var1;
 194:.\fixed_point\basic_op/enh1632.h ****    else
 195:.\fixed_point\basic_op/enh1632.h ****       L_var_out = L_var2;
 196:.\fixed_point\basic_op/enh1632.h **** 
 197:.\fixed_point\basic_op/enh1632.h ****    #if (WMOPS)
 198:.\fixed_point\basic_op/enh1632.h ****    multiCounter[currCounter].L_max++;
 199:.\fixed_point\basic_op/enh1632.h ****    #endif /* if WMOPS */
 200:.\fixed_point\basic_op/enh1632.h **** 
 201:.\fixed_point\basic_op/enh1632.h ****    return( L_var_out);
 202:.\fixed_point\basic_op/enh1632.h **** }
 203:.\fixed_point\basic_op/enh1632.h **** 
 204:.\fixed_point\basic_op/enh1632.h **** 
 205:.\fixed_point\basic_op/enh1632.h **** /*****************************************************************************
 206:.\fixed_point\basic_op/enh1632.h ****  *
 207:.\fixed_point\basic_op/enh1632.h ****  *  Function Name : L_min
 208:.\fixed_point\basic_op/enh1632.h ****  *
 209:.\fixed_point\basic_op/enh1632.h ****  *  Purpose :
 210:.\fixed_point\basic_op/enh1632.h ****  *
 211:.\fixed_point\basic_op/enh1632.h ****  *    Compares L_var1 and L_var2 and returns the minimum value.
 212:.\fixed_point\basic_op/enh1632.h ****  *
 213:.\fixed_point\basic_op/enh1632.h ****  *  Complexity weight : 1
ARM GAS  C:\Users\rdn\AppData\Local\Temp\ccG9Tpsn.s 			page 51


 214:.\fixed_point\basic_op/enh1632.h ****  *
 215:.\fixed_point\basic_op/enh1632.h ****  *  Inputs :
 216:.\fixed_point\basic_op/enh1632.h ****  *
 217:.\fixed_point\basic_op/enh1632.h ****  *    L_var1      32 bit long signed integer (Word32) whose value falls in the
 218:.\fixed_point\basic_op/enh1632.h ****  *                range : 0x8000 0000  <= L_var1 <= 0x7fff ffff.
 219:.\fixed_point\basic_op/enh1632.h ****  *
 220:.\fixed_point\basic_op/enh1632.h ****  *    L_var2      32 bit long signed integer (Word32) whose value falls in the
 221:.\fixed_point\basic_op/enh1632.h ****  *                range : 0x8000 0000  <= L_var2 <= 0x7fff ffff.
 222:.\fixed_point\basic_op/enh1632.h ****  *
 223:.\fixed_point\basic_op/enh1632.h ****  *  Outputs :
 224:.\fixed_point\basic_op/enh1632.h ****  *
 225:.\fixed_point\basic_op/enh1632.h ****  *    none
 226:.\fixed_point\basic_op/enh1632.h ****  *
 227:.\fixed_point\basic_op/enh1632.h ****  *  Return Value :
 228:.\fixed_point\basic_op/enh1632.h ****  *
 229:.\fixed_point\basic_op/enh1632.h ****  *    L_var_out   32 bit long signed integer (Word32) whose value falls in the
 230:.\fixed_point\basic_op/enh1632.h ****  *                range : 0x8000 0000 <= L_var_out <= 0x7fff ffff.
 231:.\fixed_point\basic_op/enh1632.h ****  *
 232:.\fixed_point\basic_op/enh1632.h ****  *****************************************************************************/
 233:.\fixed_point\basic_op/enh1632.h **** static __inline Word32 L_min( Word32 L_var1, Word32 L_var2) {
 234:.\fixed_point\basic_op/enh1632.h ****    Word32 L_var_out;
 235:.\fixed_point\basic_op/enh1632.h **** 
 236:.\fixed_point\basic_op/enh1632.h ****    if( L_var1 <= L_var2)
 237:.\fixed_point\basic_op/enh1632.h ****       L_var_out = L_var1;
 238:.\fixed_point\basic_op/enh1632.h ****    else
 239:.\fixed_point\basic_op/enh1632.h ****       L_var_out = L_var2;
 240:.\fixed_point\basic_op/enh1632.h **** 
 241:.\fixed_point\basic_op/enh1632.h ****    #if (WMOPS)
 242:.\fixed_point\basic_op/enh1632.h ****    multiCounter[currCounter].L_min++;
 243:.\fixed_point\basic_op/enh1632.h ****    #endif /* if WMOPS */
 244:.\fixed_point\basic_op/enh1632.h **** 
 245:.\fixed_point\basic_op/enh1632.h ****    return( L_var_out);
 246:.\fixed_point\basic_op/enh1632.h **** }
 247:.\fixed_point\basic_op/enh1632.h **** 
 248:.\fixed_point\basic_op/enh1632.h **** 
 249:.\fixed_point\basic_op/enh1632.h **** 
 250:.\fixed_point\basic_op/enh1632.h **** 
 251:.\fixed_point\basic_op/enh1632.h **** 
 252:.\fixed_point\basic_op/enh1632.h **** 
 253:.\fixed_point\basic_op/enh1632.h **** 
 254:.\fixed_point\basic_op/enh1632.h **** 
 255:.\fixed_point\basic_op/enh1632.h **** 
 256:.\fixed_point\basic_op/enh1632.h **** 
 257:.\fixed_point\basic_op/enh1632.h **** /*****************************************************************************
 258:.\fixed_point\basic_op/enh1632.h ****  *
 259:.\fixed_point\basic_op/enh1632.h ****  *  Function Name : s_and
 260:.\fixed_point\basic_op/enh1632.h ****  *
 261:.\fixed_point\basic_op/enh1632.h ****  *  Purpose :
 262:.\fixed_point\basic_op/enh1632.h ****  *
 263:.\fixed_point\basic_op/enh1632.h ****  *    Performs logical AND of the two 16 bit input variables.
 264:.\fixed_point\basic_op/enh1632.h ****  *    var_out = var1 & var2
 265:.\fixed_point\basic_op/enh1632.h ****  *
 266:.\fixed_point\basic_op/enh1632.h ****  *  Complexity weight : 1
 267:.\fixed_point\basic_op/enh1632.h ****  *
 268:.\fixed_point\basic_op/enh1632.h ****  *  Inputs :
 269:.\fixed_point\basic_op/enh1632.h ****  *
 270:.\fixed_point\basic_op/enh1632.h ****  *    var1        16 bit short signed integer (Word16) whose value
ARM GAS  C:\Users\rdn\AppData\Local\Temp\ccG9Tpsn.s 			page 52


 271:.\fixed_point\basic_op/enh1632.h ****  *                falls in the range 0xffff 8000 <= var1 <= 0x0000 7fff.
 272:.\fixed_point\basic_op/enh1632.h ****  *
 273:.\fixed_point\basic_op/enh1632.h ****  *    var2        16 bit short signed integer (Word16) whose value
 274:.\fixed_point\basic_op/enh1632.h ****  *                falls in the range 0xffff 8000 <= var2 <= 0x0000 7fff.
 275:.\fixed_point\basic_op/enh1632.h ****  *
 276:.\fixed_point\basic_op/enh1632.h ****  *  Outputs :
 277:.\fixed_point\basic_op/enh1632.h ****  *
 278:.\fixed_point\basic_op/enh1632.h ****  *    none
 279:.\fixed_point\basic_op/enh1632.h ****  *
 280:.\fixed_point\basic_op/enh1632.h ****  *  Return Value :
 281:.\fixed_point\basic_op/enh1632.h ****  *
 282:.\fixed_point\basic_op/enh1632.h ****  *    var_out     16 bit short signed integer (Word16) whose value
 283:.\fixed_point\basic_op/enh1632.h ****  *                falls in the range 0xffff 8000 <= var_out <= 0x0000 7fff.
 284:.\fixed_point\basic_op/enh1632.h ****  *
 285:.\fixed_point\basic_op/enh1632.h ****  *****************************************************************************/
 286:.\fixed_point\basic_op/enh1632.h **** static __inline Word16 s_and( Word16 var1, Word16 var2) {
 287:.\fixed_point\basic_op/enh1632.h ****    Word16 var_out;
 288:.\fixed_point\basic_op/enh1632.h **** 
 289:.\fixed_point\basic_op/enh1632.h ****    var_out = var1 & var2;
 290:.\fixed_point\basic_op/enh1632.h **** 
 291:.\fixed_point\basic_op/enh1632.h ****    #if (WMOPS)
 292:.\fixed_point\basic_op/enh1632.h ****    multiCounter[currCounter].s_and++;
 293:.\fixed_point\basic_op/enh1632.h ****    #endif /* if WMOPS */
 294:.\fixed_point\basic_op/enh1632.h **** 
 295:.\fixed_point\basic_op/enh1632.h ****    return( var_out);
 296:.\fixed_point\basic_op/enh1632.h **** }
 297:.\fixed_point\basic_op/enh1632.h **** 
 298:.\fixed_point\basic_op/enh1632.h **** 
 299:.\fixed_point\basic_op/enh1632.h **** /*****************************************************************************
 300:.\fixed_point\basic_op/enh1632.h ****  *
 301:.\fixed_point\basic_op/enh1632.h ****  *  Function Name : L_and
 302:.\fixed_point\basic_op/enh1632.h ****  *
 303:.\fixed_point\basic_op/enh1632.h ****  *  Purpose :
 304:.\fixed_point\basic_op/enh1632.h ****  *
 305:.\fixed_point\basic_op/enh1632.h ****  *    Performs logical AND of the two 32 bit input variables.
 306:.\fixed_point\basic_op/enh1632.h ****  *    L_var_out = L_var1 & L_var2
 307:.\fixed_point\basic_op/enh1632.h ****  *
 308:.\fixed_point\basic_op/enh1632.h ****  *  Complexity weight : 1
 309:.\fixed_point\basic_op/enh1632.h ****  *
 310:.\fixed_point\basic_op/enh1632.h ****  *  Inputs :
 311:.\fixed_point\basic_op/enh1632.h ****  *
 312:.\fixed_point\basic_op/enh1632.h ****  *    L_var1      32 bit long signed integer (Word32) whose value
 313:.\fixed_point\basic_op/enh1632.h ****  *                falls in the range 0x8000 0000 <= L_var1 <= 0x7fff ffff.
 314:.\fixed_point\basic_op/enh1632.h ****  *
 315:.\fixed_point\basic_op/enh1632.h ****  *    L_var2      32 bit long signed integer (Word32) whose value
 316:.\fixed_point\basic_op/enh1632.h ****  *                falls in the range 0x8000 0000 <= L_var2 <= 0x7fff ffff.
 317:.\fixed_point\basic_op/enh1632.h ****  *
 318:.\fixed_point\basic_op/enh1632.h ****  *  Outputs :
 319:.\fixed_point\basic_op/enh1632.h ****  *
 320:.\fixed_point\basic_op/enh1632.h ****  *    none
 321:.\fixed_point\basic_op/enh1632.h ****  *
 322:.\fixed_point\basic_op/enh1632.h ****  *  Return Value :
 323:.\fixed_point\basic_op/enh1632.h ****  *
 324:.\fixed_point\basic_op/enh1632.h ****  *    L_var_out   32 bit long signed integer (Word32) whose value
 325:.\fixed_point\basic_op/enh1632.h ****  *                falls in the range 0x8000 0000 <= L_var_out <= 0x7fff ffff.
 326:.\fixed_point\basic_op/enh1632.h ****  *
 327:.\fixed_point\basic_op/enh1632.h ****  *****************************************************************************/
ARM GAS  C:\Users\rdn\AppData\Local\Temp\ccG9Tpsn.s 			page 53


 328:.\fixed_point\basic_op/enh1632.h **** static __inline Word32 L_and( Word32 L_var1, Word32 L_var2) {
 329:.\fixed_point\basic_op/enh1632.h ****    Word32 L_var_out;
 330:.\fixed_point\basic_op/enh1632.h **** 
 331:.\fixed_point\basic_op/enh1632.h ****    L_var_out = L_var1 & L_var2;
 332:.\fixed_point\basic_op/enh1632.h **** 
 333:.\fixed_point\basic_op/enh1632.h ****    #if (WMOPS)
 334:.\fixed_point\basic_op/enh1632.h ****    multiCounter[currCounter].L_and++;
 335:.\fixed_point\basic_op/enh1632.h ****    #endif /* if WMOPS */
 336:.\fixed_point\basic_op/enh1632.h **** 
 337:.\fixed_point\basic_op/enh1632.h ****    return( L_var_out);
 338:.\fixed_point\basic_op/enh1632.h **** }
 339:.\fixed_point\basic_op/enh1632.h **** 
 340:.\fixed_point\basic_op/enh1632.h **** 
 341:.\fixed_point\basic_op/enh1632.h **** /*****************************************************************************
 342:.\fixed_point\basic_op/enh1632.h ****  *
 343:.\fixed_point\basic_op/enh1632.h ****  *  Function Name : s_or
 344:.\fixed_point\basic_op/enh1632.h ****  *
 345:.\fixed_point\basic_op/enh1632.h ****  *  Purpose :
 346:.\fixed_point\basic_op/enh1632.h ****  *
 347:.\fixed_point\basic_op/enh1632.h ****  *    Performs logical OR of the two 16 bit input variables.
 348:.\fixed_point\basic_op/enh1632.h ****  *    var_out = var1 | var2
 349:.\fixed_point\basic_op/enh1632.h ****  *
 350:.\fixed_point\basic_op/enh1632.h ****  *  Complexity weight : 1
 351:.\fixed_point\basic_op/enh1632.h ****  *
 352:.\fixed_point\basic_op/enh1632.h ****  *  Inputs :
 353:.\fixed_point\basic_op/enh1632.h ****  *
 354:.\fixed_point\basic_op/enh1632.h ****  *    var1        16 bit short signed integer (Word16) whose value
 355:.\fixed_point\basic_op/enh1632.h ****  *                falls in the range 0xffff 8000 <= var1 <= 0x0000 7fff.
 356:.\fixed_point\basic_op/enh1632.h ****  *
 357:.\fixed_point\basic_op/enh1632.h ****  *    var2        16 bit short signed integer (Word16) whose value
 358:.\fixed_point\basic_op/enh1632.h ****  *                falls in the range 0xffff 8000 <= var2 <= 0x0000 7fff.
 359:.\fixed_point\basic_op/enh1632.h ****  *
 360:.\fixed_point\basic_op/enh1632.h ****  *  Outputs :
 361:.\fixed_point\basic_op/enh1632.h ****  *
 362:.\fixed_point\basic_op/enh1632.h ****  *    none
 363:.\fixed_point\basic_op/enh1632.h ****  *
 364:.\fixed_point\basic_op/enh1632.h ****  *  Return Value :
 365:.\fixed_point\basic_op/enh1632.h ****  *
 366:.\fixed_point\basic_op/enh1632.h ****  *    var_out     16 bit short signed integer (Word16) whose value
 367:.\fixed_point\basic_op/enh1632.h ****  *                falls in the range 0xffff 8000 <= var_out <= 0x0000 7fff.
 368:.\fixed_point\basic_op/enh1632.h ****  *
 369:.\fixed_point\basic_op/enh1632.h ****  *****************************************************************************/
 370:.\fixed_point\basic_op/enh1632.h **** static __inline Word16 s_or( Word16 var1, Word16 var2) {
 371:.\fixed_point\basic_op/enh1632.h ****    Word16 var_out;
 372:.\fixed_point\basic_op/enh1632.h **** 
 373:.\fixed_point\basic_op/enh1632.h ****    var_out = var1 | var2;
 374:.\fixed_point\basic_op/enh1632.h **** 
 375:.\fixed_point\basic_op/enh1632.h ****    #if (WMOPS)
 376:.\fixed_point\basic_op/enh1632.h ****    multiCounter[currCounter].s_or++;
 377:.\fixed_point\basic_op/enh1632.h ****    #endif /* if WMOPS */
 378:.\fixed_point\basic_op/enh1632.h **** 
 379:.\fixed_point\basic_op/enh1632.h ****    return( var_out);
 380:.\fixed_point\basic_op/enh1632.h **** }
 381:.\fixed_point\basic_op/enh1632.h **** 
 382:.\fixed_point\basic_op/enh1632.h **** 
 383:.\fixed_point\basic_op/enh1632.h **** /*****************************************************************************
 384:.\fixed_point\basic_op/enh1632.h ****  *
ARM GAS  C:\Users\rdn\AppData\Local\Temp\ccG9Tpsn.s 			page 54


 385:.\fixed_point\basic_op/enh1632.h ****  *  Function Name : L_or
 386:.\fixed_point\basic_op/enh1632.h ****  *
 387:.\fixed_point\basic_op/enh1632.h ****  *  Purpose :
 388:.\fixed_point\basic_op/enh1632.h ****  *
 389:.\fixed_point\basic_op/enh1632.h ****  *    Performs logical OR of the two 32 bit input variables.
 390:.\fixed_point\basic_op/enh1632.h ****  *    L_var_out = L_var1 | L_var2
 391:.\fixed_point\basic_op/enh1632.h ****  *
 392:.\fixed_point\basic_op/enh1632.h ****  *  Complexity weight : 1
 393:.\fixed_point\basic_op/enh1632.h ****  *
 394:.\fixed_point\basic_op/enh1632.h ****  *  Inputs :
 395:.\fixed_point\basic_op/enh1632.h ****  *
 396:.\fixed_point\basic_op/enh1632.h ****  *    L_var1      32 bit long signed integer (Word32) whose value
 397:.\fixed_point\basic_op/enh1632.h ****  *                falls in the range 0x8000 0000 <= L_var1 <= 0x7fff ffff.
 398:.\fixed_point\basic_op/enh1632.h ****  *
 399:.\fixed_point\basic_op/enh1632.h ****  *    L_var2      32 bit long signed integer (Word32) whose value
 400:.\fixed_point\basic_op/enh1632.h ****  *                falls in the range 0x8000 0000 <= L_var2 <= 0x7fff ffff.
 401:.\fixed_point\basic_op/enh1632.h ****  *
 402:.\fixed_point\basic_op/enh1632.h ****  *  Outputs :
 403:.\fixed_point\basic_op/enh1632.h ****  *
 404:.\fixed_point\basic_op/enh1632.h ****  *    none
 405:.\fixed_point\basic_op/enh1632.h ****  *
 406:.\fixed_point\basic_op/enh1632.h ****  *  Return Value :
 407:.\fixed_point\basic_op/enh1632.h ****  *
 408:.\fixed_point\basic_op/enh1632.h ****  *    L_var_out   32 bit long signed integer (Word32) whose value
 409:.\fixed_point\basic_op/enh1632.h ****  *                falls in the range 0x8000 0000 <= L_var_out <= 0x7fff ffff.
 410:.\fixed_point\basic_op/enh1632.h ****  *
 411:.\fixed_point\basic_op/enh1632.h ****  *****************************************************************************/
 412:.\fixed_point\basic_op/enh1632.h **** static __inline Word32 L_or( Word32 L_var1, Word32 L_var2) {
 413:.\fixed_point\basic_op/enh1632.h **** 
 414:.\fixed_point\basic_op/enh1632.h ****    Word32 L_var_out;
 415:.\fixed_point\basic_op/enh1632.h **** 
 416:.\fixed_point\basic_op/enh1632.h ****    L_var_out = L_var1 | L_var2;
 417:.\fixed_point\basic_op/enh1632.h **** 
 418:.\fixed_point\basic_op/enh1632.h ****    #if (WMOPS)
 419:.\fixed_point\basic_op/enh1632.h ****    multiCounter[currCounter].L_or++;
 709              		.loc 3 419 0
 710 0062 D1F83031 		ldr	r3, [r1, #304]
 711              	.LBE21:
 712              	.LBE20:
 713              	.LBB24:
 714              	.LBB16:
 715              		.loc 2 36 0
 716 0066 0132     		adds	r2, r2, #1
 717              	.LBE16:
 718              	.LBE24:
 719              	.LBB25:
 720              	.LBB22:
 721              		.loc 3 419 0
 722 0068 0133     		adds	r3, r3, #1
 723              	.LBE22:
 724              	.LBE25:
 725              	.LBB26:
 726              	.LBB17:
 727              		.loc 2 36 0
 728 006a C1F88820 		str	r2, [r1, #136]
 729              	.LVL10:
 730              	.LBE17:
ARM GAS  C:\Users\rdn\AppData\Local\Temp\ccG9Tpsn.s 			page 55


 731              	.LBE26:
 732              	.LBB27:
 733              	.LBB23:
 734              		.loc 3 419 0
 735 006e C1F83031 		str	r3, [r1, #304]
 736              	.LVL11:
 737              	.LBE23:
 738              	.LBE27:
  43:fixed_point/apply_global_gain_fx.c ****     move16();
  44:fixed_point/apply_global_gain_fx.c ****     /* Uses an argument in Q25 */
  45:fixed_point/apply_global_gain_fx.c ****     global_gain = BASOP_Util_InvLog2(L_or(tmp32, (Word32)0xFE000000));
 739              		.loc 1 45 0
 740 0072 4AF07E40 		orr	r0, r10, #-33554432
 741 0076 FFF7FEFF 		bl	BASOP_Util_InvLog2
 742              	.LVL12:
  46:fixed_point/apply_global_gain_fx.c **** #else
  47:fixed_point/apply_global_gain_fx.c ****     tmp32         = L_shl_pos(L_mult0(add(global_gain_idx, global_gain_off), 0x797D), 7);
  48:fixed_point/apply_global_gain_fx.c ****     /* Uses an argument in Q25 */
  49:fixed_point/apply_global_gain_fx.c ****     global_gain = round_fx(BASOP_Util_InvLog2(L_or(tmp32, (Word32)0xFE000000)));
  50:fixed_point/apply_global_gain_fx.c **** #endif
  51:fixed_point/apply_global_gain_fx.c ****     global_gain_e = add(extract_l(L_shr_pos(tmp32, 25)), 1);
 743              		.loc 1 51 0
 744 007a 1921     		movs	r1, #25
  45:fixed_point/apply_global_gain_fx.c **** #else
 745              		.loc 1 45 0
 746 007c 8046     		mov	r8, r0
 747              	.LVL13:
 748              		.loc 1 51 0
 749 007e 5046     		mov	r0, r10
 750              	.LVL14:
 751 0080 FFF7FEFF 		bl	L_shr
 752              	.LVL15:
 753 0084 FFF7FEFF 		bl	extract_l
 754              	.LVL16:
 755 0088 0121     		movs	r1, #1
 756 008a FFF7FEFF 		bl	add
 757              	.LVL17:
 758              	.LBB28:
 759              	.LBB29:
 760              		.file 4 ".\\fixed_point\\basic_op/control.h"
   1:.\fixed_point\basic_op/control.h **** /*
   2:.\fixed_point\basic_op/control.h ****   ===========================================================================
   3:.\fixed_point\basic_op/control.h ****    File: CONTROL.H                                       v.2.3 - 30.Nov.2009
   4:.\fixed_point\basic_op/control.h ****   ===========================================================================
   5:.\fixed_point\basic_op/control.h **** 
   6:.\fixed_point\basic_op/control.h ****             ITU-T STL BASIC OPERATORS
   7:.\fixed_point\basic_op/control.h **** 
   8:.\fixed_point\basic_op/control.h ****             CONTROL   FLOW  OPERATORS
   9:.\fixed_point\basic_op/control.h **** 
  10:.\fixed_point\basic_op/control.h ****    History:
  11:.\fixed_point\basic_op/control.h ****    07 Nov 04   v2.0     Incorporation of new 32-bit / 40-bit / control
  12:.\fixed_point\basic_op/control.h ****                         operators for the ITU-T Standard Tool Library as
  13:.\fixed_point\basic_op/control.h ****                         described in Geneva, 20-30 January 2004 WP 3/16 Q10/16
  14:.\fixed_point\basic_op/control.h ****                         TD 11 document and subsequent discussions on the
  15:.\fixed_point\basic_op/control.h ****                         wp3audio@yahoogroups.com email reflector.
  16:.\fixed_point\basic_op/control.h ****    March 06   v2.1      Changed to improve portability.
  17:.\fixed_point\basic_op/control.h **** 
ARM GAS  C:\Users\rdn\AppData\Local\Temp\ccG9Tpsn.s 			page 56


  18:.\fixed_point\basic_op/control.h ****   ============================================================================
  19:.\fixed_point\basic_op/control.h **** */
  20:.\fixed_point\basic_op/control.h **** 
  21:.\fixed_point\basic_op/control.h **** 
  22:.\fixed_point\basic_op/control.h **** #ifndef _CONTROL_H
  23:.\fixed_point\basic_op/control.h **** #define _CONTROL_H
  24:.\fixed_point\basic_op/control.h **** 
  25:.\fixed_point\basic_op/control.h **** #include "stl.h"
  26:.\fixed_point\basic_op/control.h **** 
  27:.\fixed_point\basic_op/control.h **** /*****************************************************************************
  28:.\fixed_point\basic_op/control.h ****  *
  29:.\fixed_point\basic_op/control.h ****  *  Constants and Globals
  30:.\fixed_point\basic_op/control.h ****  *
  31:.\fixed_point\basic_op/control.h ****  *****************************************************************************/
  32:.\fixed_point\basic_op/control.h **** #if (WMOPS)
  33:.\fixed_point\basic_op/control.h **** extern BASIC_OP multiCounter[MAXCOUNTERS];
  34:.\fixed_point\basic_op/control.h **** extern int currCounter;
  35:.\fixed_point\basic_op/control.h **** 
  36:.\fixed_point\basic_op/control.h ****   /* Technical note :
  37:.\fixed_point\basic_op/control.h ****    * The following 3 variables are only used for correct complexity
  38:.\fixed_point\basic_op/control.h ****    * evaluation of the following structure :
  39:.\fixed_point\basic_op/control.h ****    *   IF{
  40:.\fixed_point\basic_op/control.h ****    *     ...
  41:.\fixed_point\basic_op/control.h ****    *   } ELSE IF {
  42:.\fixed_point\basic_op/control.h ****    *     ...
  43:.\fixed_point\basic_op/control.h ****    *   } ELSE IF {
  44:.\fixed_point\basic_op/control.h ****    *     ...
  45:.\fixed_point\basic_op/control.h ****    *   }
  46:.\fixed_point\basic_op/control.h ****    *   ...
  47:.\fixed_point\basic_op/control.h ****    *   } ELSE {
  48:.\fixed_point\basic_op/control.h ****    *     ...
  49:.\fixed_point\basic_op/control.h ****    *   }
  50:.\fixed_point\basic_op/control.h ****    */
  51:.\fixed_point\basic_op/control.h **** extern int  funcId_where_last_call_to_else_occurred;
  52:.\fixed_point\basic_op/control.h **** extern long funcid_total_wmops_at_last_call_to_else;
  53:.\fixed_point\basic_op/control.h **** extern int  call_occurred;
  54:.\fixed_point\basic_op/control.h **** #endif /* if WMOPS */
  55:.\fixed_point\basic_op/control.h **** 
  56:.\fixed_point\basic_op/control.h **** 
  57:.\fixed_point\basic_op/control.h **** /*****************************************************************************
  58:.\fixed_point\basic_op/control.h ****  *
  59:.\fixed_point\basic_op/control.h ****  *  Function Macros
  60:.\fixed_point\basic_op/control.h ****  *
  61:.\fixed_point\basic_op/control.h ****  *****************************************************************************/
  62:.\fixed_point\basic_op/control.h **** 
  63:.\fixed_point\basic_op/control.h **** /*****************************************************************************
  64:.\fixed_point\basic_op/control.h ****  *
  65:.\fixed_point\basic_op/control.h ****  *  Function Name : FOR
  66:.\fixed_point\basic_op/control.h ****  *
  67:.\fixed_point\basic_op/control.h ****  *  Purpose :
  68:.\fixed_point\basic_op/control.h ****  *
  69:.\fixed_point\basic_op/control.h ****  *    The macro FOR should be used instead of the 'for' C statement.
  70:.\fixed_point\basic_op/control.h ****  *    The complexity is independent of the number of loop iterations that are
  71:.\fixed_point\basic_op/control.h ****  *    performed.
  72:.\fixed_point\basic_op/control.h ****  *
  73:.\fixed_point\basic_op/control.h ****  *  Complexity weight : 3 (regardless of number of iterations).
  74:.\fixed_point\basic_op/control.h ****  *
ARM GAS  C:\Users\rdn\AppData\Local\Temp\ccG9Tpsn.s 			page 57


  75:.\fixed_point\basic_op/control.h ****  *****************************************************************************/
  76:.\fixed_point\basic_op/control.h **** #if !(WMOPS)
  77:.\fixed_point\basic_op/control.h **** #define FOR( a) for( a)
  78:.\fixed_point\basic_op/control.h **** 
  79:.\fixed_point\basic_op/control.h **** #else /* if !(WMOPS) */
  80:.\fixed_point\basic_op/control.h **** #define FOR( a) if( incrFor(), 0); else for( a)
  81:.\fixed_point\basic_op/control.h **** 
  82:.\fixed_point\basic_op/control.h **** static __inline void incrFor( void) {
  83:.\fixed_point\basic_op/control.h ****    multiCounter[currCounter].For++;
 761              		.loc 4 83 0
 762 008e 2B68     		ldr	r3, [r5]
 763              	.LBE29:
 764              	.LBE28:
 765              		.loc 1 51 0
 766 0090 0190     		str	r0, [sp, #4]
 767              	.LVL18:
 768              	.LBB32:
 769              	.LBB30:
 770              		.loc 4 83 0
 771 0092 04FB0363 		mla	r3, r4, r3, r6
 772              	.LBE30:
 773              	.LBE32:
  52:fixed_point/apply_global_gain_fx.c **** 
  53:fixed_point/apply_global_gain_fx.c ****     FOR (i = 0; i < xLen; i++)
 774              		.loc 1 53 0
 775 0096 002F     		cmp	r7, #0
 776              	.LBB33:
 777              	.LBB31:
 778              		.loc 4 83 0
 779 0098 D3F88021 		ldr	r2, [r3, #384]
 780 009c 02F10102 		add	r2, r2, #1
 781 00a0 C3F88021 		str	r2, [r3, #384]
 782              	.LVL19:
 783              	.LBE31:
 784              	.LBE33:
 785              		.loc 1 53 0
 786 00a4 17DD     		ble	.L4
 787 00a6 ABF1040B 		sub	fp, fp, #4
 788              	.LVL20:
 789 00aa 4FF0000A 		mov	r10, #0
 790              	.LVL21:
 791              	.L3:
  54:fixed_point/apply_global_gain_fx.c ****     {
  55:fixed_point/apply_global_gain_fx.c **** #ifdef ENABLE_HR_MODE
  56:fixed_point/apply_global_gain_fx.c ****         x[i] = Mpy_32_32(x[i], global_gain);
 792              		.loc 1 56 0 discriminator 4
 793 00ae 4146     		mov	r1, r8
 794 00b0 5BF8040F 		ldr	r0, [fp, #4]!
 795 00b4 FFF7FEFF 		bl	Mpy_32_32
 796              	.LVL22:
 797 00b8 CBF80000 		str	r0, [fp]
 798              	.LBB34:
 799              	.LBB35:
  37:.\fixed_point\basic_op/move.h **** #endif /* if WMOPS */
  38:.\fixed_point\basic_op/move.h **** }
  39:.\fixed_point\basic_op/move.h **** 
  40:.\fixed_point\basic_op/move.h **** 
ARM GAS  C:\Users\rdn\AppData\Local\Temp\ccG9Tpsn.s 			page 58


  41:.\fixed_point\basic_op/move.h **** 
  42:.\fixed_point\basic_op/move.h **** 
  43:.\fixed_point\basic_op/move.h **** 
  44:.\fixed_point\basic_op/move.h **** 
  45:.\fixed_point\basic_op/move.h **** static __inline void move32( void) {
  46:.\fixed_point\basic_op/move.h **** #if WMOPS
  47:.\fixed_point\basic_op/move.h ****     multiCounter[currCounter].move32++;
 800              		.loc 2 47 0 discriminator 4
 801 00bc 2B68     		ldr	r3, [r5]
 802 00be 04FB0363 		mla	r3, r4, r3, r6
 803              	.LBE35:
 804              	.LBE34:
  53:fixed_point/apply_global_gain_fx.c ****     {
 805              		.loc 1 53 0 discriminator 4
 806 00c2 0AF1010A 		add	r10, r10, #1
 807              	.LVL23:
 808              	.LBB38:
 809              	.LBB36:
 810              		.loc 2 47 0 discriminator 4
 811 00c6 D3F88C10 		ldr	r1, [r3, #140]
 812              	.LBE36:
 813              	.LBE38:
  53:fixed_point/apply_global_gain_fx.c ****     {
 814              		.loc 1 53 0 discriminator 4
 815 00ca BA45     		cmp	r10, r7
 816              	.LBB39:
 817              	.LBB37:
 818              		.loc 2 47 0 discriminator 4
 819 00cc 01F10101 		add	r1, r1, #1
 820 00d0 C3F88C10 		str	r1, [r3, #140]
 821              	.LBE37:
 822              	.LBE39:
  53:fixed_point/apply_global_gain_fx.c ****     {
 823              		.loc 1 53 0 discriminator 4
 824 00d4 EBD1     		bne	.L3
 825              	.LVL24:
 826              	.L4:
  57:fixed_point/apply_global_gain_fx.c **** #else
  58:fixed_point/apply_global_gain_fx.c ****         x[i] = Mpy_32_16(x[i], global_gain);
  59:fixed_point/apply_global_gain_fx.c **** #endif
  60:fixed_point/apply_global_gain_fx.c ****         move32();
  61:fixed_point/apply_global_gain_fx.c ****     }
  62:fixed_point/apply_global_gain_fx.c **** 
  63:fixed_point/apply_global_gain_fx.c ****     *x_e = add(*x_e, global_gain_e); move16();
 827              		.loc 1 63 0
 828 00d6 0199     		ldr	r1, [sp, #4]
 829 00d8 B9F90000 		ldrsh	r0, [r9]
 830 00dc FFF7FEFF 		bl	add
 831              	.LVL25:
 832              	.LBB40:
 833              	.LBB41:
  36:.\fixed_point\basic_op/move.h **** #endif /* if WMOPS */
 834              		.loc 2 36 0
 835 00e0 2B68     		ldr	r3, [r5]
 836              	.LBE41:
 837              	.LBE40:
 838              		.loc 1 63 0
ARM GAS  C:\Users\rdn\AppData\Local\Temp\ccG9Tpsn.s 			page 59


 839 00e2 A9F80000 		strh	r0, [r9]	@ movhi
 840              	.LBB43:
 841              	.LBB42:
  36:.\fixed_point\basic_op/move.h **** #endif /* if WMOPS */
 842              		.loc 2 36 0
 843 00e6 4FF4CC72 		mov	r2, #408
 844 00ea 02FB0366 		mla	r6, r2, r3, r6
 845 00ee D6F88830 		ldr	r3, [r6, #136]
 846 00f2 0133     		adds	r3, r3, #1
 847 00f4 C6F88830 		str	r3, [r6, #136]
 848              	.LBE42:
 849              	.LBE43:
  64:fixed_point/apply_global_gain_fx.c **** 
  65:fixed_point/apply_global_gain_fx.c **** #ifdef DYNMEM_COUNT
  66:fixed_point/apply_global_gain_fx.c ****     Dyn_Mem_Out();
 850              		.loc 1 66 0
 851 00f8 FFF7FEFF 		bl	P_Dyn_Mem_Out
 852              	.LVL26:
  67:fixed_point/apply_global_gain_fx.c **** #endif
  68:fixed_point/apply_global_gain_fx.c **** }
 853              		.loc 1 68 0
 854 00fc 05B0     		add	sp, sp, #20
 855              		.cfi_def_cfa_offset 36
 856              		@ sp needed
 857 00fe BDE8F08F 		pop	{r4, r5, r6, r7, r8, r9, r10, fp, pc}
 858              	.LVL27:
 859              	.L10:
 860 0102 00BF     		.align	2
 861              	.L9:
 862 0104 00000000 		.word	currCounter
 863 0108 00000000 		.word	multiCounter
 864 010c 00000000 		.word	.LC0
 865 0110 E19A2F0F 		.word	254778081
 866              		.cfi_endproc
 867              	.LFE27:
 868              		.size	processApplyGlobalGain_fx, .-processApplyGlobalGain_fx
 869              		.section	.rodata.str1.4,"aMS",%progbits,1
 870              		.align	2
 871              	.LC0:
 872 0000 70726F63 		.ascii	"processApplyGlobalGain_fx\000"
 872      65737341 
 872      70706C79 
 872      476C6F62 
 872      616C4761 
 873              		.text
 874              	.Letext0:
 875              		.file 5 ".\\fixed_point\\basic_op/typedefs.h"
 876              		.file 6 ".\\fixed_point\\basic_op/typedef.h"
 877              		.file 7 ".\\fixed_point\\basic_op/count.h"
 878              		.file 8 "fixed_point\\basop_util.h"
 879              		.file 9 ".\\fixed_point\\basic_op/dynmem.h"
 880              		.file 10 ".\\fixed_point\\basic_op/enh40.h"
 881              		.file 11 ".\\fixed_point\\basic_op/basop32.h"
 882              		.file 12 "fixed_point\\basop_mpy.h"