ARM GAS  C:\Users\rdn\AppData\Local\Temp\ccMeiDZL.s 			page 1


   1              		.syntax unified
   2              		.cpu cortex-m4
   3              		.eabi_attribute 27, 1
   4              		.fpu fpv4-sp-d16
   5              		.eabi_attribute 20, 1
   6              		.eabi_attribute 21, 1
   7              		.eabi_attribute 23, 3
   8              		.eabi_attribute 24, 1
   9              		.eabi_attribute 25, 1
  10              		.eabi_attribute 26, 1
  11              		.eabi_attribute 30, 2
  12              		.eabi_attribute 34, 1
  13              		.eabi_attribute 18, 4
  14              		.thumb
  15              		.syntax unified
  16              		.file	"arm_correlate_fast_opt_q15.c"
  17              		.text
  18              	.Ltext0:
  19              		.section	.gnu.lto_.profile.d618f282,"",%progbits
  20 0000 789C6361 		.ascii	"x\234ca`d`a`\000\222\261\216\000\001e\000\251"
  20      60646061 
  20      600092B1 
  20      8E000165 
  20      00A9
  21              		.text
  22              		.section	.gnu.lto_.icf.d618f282,"",%progbits
  23 0000 789C6361 		.ascii	"x\234ca`d\000\001\016\006\004`dXp\345\376cV\006\000"
  23      60640001 
  23      0E060460 
  23      645870E5 
  23      FE635606 
  24 0015 0F61034A 		.ascii	"\017a\003J"
  25              		.text
  26              		.section	.gnu.lto_.jmpfuncs.d618f282,"",%progbits
  27 0000 789C6361 		.ascii	"x\234ca`d\000\001O\006\004`d`c\004\003\373z0`c\374\313"
  27      60640001 
  27      4F060460 
  27      64606304 
  27      03FB7A30 
  28 0018 C438ADF5 		.ascii	"\3048\255\365\320y\366/L\255\314@i\306\345\21420\305"
  28      D079F62F 
  28      4CADCC40 
  28      69C6E58C 
  28      3230C5
  29 002b 6C706D40 		.ascii	"lpm@M`q\246JV\210\231\014\000\0266\012\346"
  29      4D6071A6 
  29      4A568899 
  29      0C001636 
  29      0AE6
  30              		.text
  31              		.section	.gnu.lto_.inline.d618f282,"",%progbits
  32 0000 789C6361 		.ascii	"x\234ca`d\000\2010\006\004\000\212\034f\370%\300\310"
  32      60640081 
  32      30060400 
  32      8A1C66F8 
  32      25C0C8
  33 0013 CCA80064 		.ascii	"\314\250\000d2\203\010\026\020\301\352\267\340G\023"
ARM GAS  C:\Users\rdn\AppData\Local\Temp\ccMeiDZL.s 			page 2


  33      32830816 
  33      10C1EAB7 
  33      E04713
  34 0022 1303DB02 		.ascii	"\023\003\333\002y&\006\241}a<\014,O\370e@\004\013H\027"
  34      792606A1 
  34      7D613C0C 
  34      2C4FF865 
  34      40040B48 
  35 0037 0B2F502D 		.ascii	"\013/P-\303\004\277\011~`\026\210\001e\202\005\031\000"
  35      C304BF09 
  35      7E601688 
  35      01658205 
  35      1900
  36 0049 7B9A0F5D 		.ascii	"{\232\017]"
  37              		.text
  38              		.section	.gnu.lto_.pureconst.d618f282,"",%progbits
  39 0000 789C6361 		.ascii	"x\234ca`d`f`\000\222R\000\000r\000$"
  39      60646066 
  39      60009252 
  39      00007200 
  39      24
  40              		.text
  41              		.section	.gnu.lto_arm_correlate_fast_opt_q15.d618f282,"",%progbits
  42 0000 789C7557 		.ascii	"x\234uW{T\225U\026\377\366w\276\373\340>qB\264\354\201"
  42      7B549555 
  42      16FFF677 
  42      BEFBE03E 
  42      7142B4EC 
  43 0015 954B5D59 		.ascii	"\225K]Y\211\231\225i>#1]&\2545\263\326,g\261\030b&J"
  43      89999569 
  43      3E23315D 
  43      26AC35B3 
  43      D62C67B1 
  44 002d 9100FFA8 		.ascii	"\221\000\377\250?\306\253\227\207\226\226\215\206I\""
  44      3FC6AB97 
  44      8796968D 
  44      864922
  45 003c AB725253 		.ascii	"\253rRSK\004\345!*\230\201!a>R\020\263D\"3b\364\206"
  45      4B04E521 
  45      2A988121 
  45      613E5210 
  45      B3442233 
  46 0053 5A89327B 		.ascii	"Z\2112{\357s\200\357\302\035\326\372\016\337\331w\377"
  46      EF7380EF 
  46      C21DD6FA 
  46      0EDFD977 
  46      FF
  47 0064 F6EBFCCE 		.ascii	"\366\353\374\316>\34734\320\350\357Z\204\2465\342\377"
  47      3EE73334 
  47      D0E8EF5A 
  47      84A635E2 
  47      FF
  48 0075 B3F88057 		.ascii	"\263\370\200W\003}M\203\246-\263\353\272X1R\3639\014"
  48      037D4D83 
  48      A62DB3EB 
  48      BA583152 
  48      F3390C
ARM GAS  C:\Users\rdn\AppData\Local\Temp\ccMeiDZL.s 			page 3


  49 0088 1A5D022C 		.ascii	"\032]\002,Rl\364\274X\300-_\254`\227/6\371Rm\267\353"
  49      526CF4BC 
  49      58C02D5F 
  49      AC60972F 
  49      36F9526D 
  50 009e B655B51A 		.ascii	"\266U\265\032b\303\262l\210\015\003\247Tp\310\227j\273"
  50      62C3B26C 
  50      880D03A7 
  50      5470C897 
  50      6ABB
  51 00b0 53774805 		.ascii	"SwH\005\027+\270\244\251j\273[\267J\271\207\345\036"
  51      172BB8A4 
  51      A96ABB5B 
  51      B74AB987 
  51      E51E
  52 00c2 0092FBEC 		.ascii	"\000\222\373\354\240-\325\205a\261\332\354a\016\247"
  52      A02DD585 
  52      61B1DAEC 
  52      610EA7
  53 00d1 CBED81A5 		.ascii	"\313\355\201\245\206[\203*\003\272\361\317\313Y\330"
  53      865B832A 
  53      03BAF1CF 
  53      CB59D8
  54 00e0 FBCD9DFD 		.ascii	"\373\315\235\375\346\327\364[:\034\312m+\327Go\361\341"
  54      E6D7F45B 
  54      3A1CCA6D 
  54      2BD7476F 
  54      F1E1
  55 00f2 DFF73F14 		.ascii	"\337\367?\024\012\337\326*\310\026\232\326\255\263\212"
  55      0ADFD62A 
  55      C8169AD6 
  55      ADB38A
  56 0101 065B6034 		.ascii	"\006[`4j\035\317\332\265Qt\352\331\002\300\300\351\325"
  56      6A1DCFDA 
  56      B55174EA 
  56      D902C0C0 
  56      E9D5
  57 0113 AFF22F7A 		.ascii	"\257\362/zh\252C\024N\233:\327\2248E,h\370~x\355\205"
  57      68AA4314 
  57      4E9B3AD7 
  57      9438452C 
  57      68F87E78 
  58 0129 3618F91F 		.ascii	"6\030\371\037\237o\271\257\352\235\232\210\015\276*"
  58      9F6FB9AF 
  58      EA9D9A88 
  58      0DBE2A
  59 0138 235B08F8 		.ascii	"#[\010\370\004\004\232\204mp7l\205\2735\024i\260\035"
  59      04049A84 
  59      6D70376C 
  59      85BB3514 
  59      69B01D
  60 014b 462260F5 		.ascii	"F\"`\365\346\222\035\272\230\307\340\017\266\255\333"
  60      E6921DBA 
  60      98C7E00F 
  60      B6ADDB
  61 015a 6F51E0B5 		.ascii	"oQ\340\2659\203%\330\200\035\375\301\206\006;\031\\"
  61      398325D8 
ARM GAS  C:\Users\rdn\AppData\Local\Temp\ccMeiDZL.s 			page 4


  61      801DFDC1 
  61      86063B19 
  61      5C
  62 016b B572CD76 		.ascii	"\265r\315v\247\370\013\203\267\325\\\375\311\245\300"
  62      A7F80B83 
  62      B7D55CFD 
  62      C9A5C0
  63 017a EFF679FE 		.ascii	"\357\366y\3764\204\347\317\030\374\366\321\326]^\361"
  63      3484E7CF 
  63      18FCF6D1 
  63      D65D5EF1 
  64 018a 3706AF5A 		.ascii	"7\006\257Z\336\275\323\241\300\353\373<\357\012\341"
  64      DEBDD3A1 
  64      C0EBFB3C 
  64      EF0AE1
  65 0199 B988C179 		.ascii	"\271\210\301y\331\315\345\016\221\314\340\262\346-+"
  65      D9CDE50E 
  65      91CCE0B2 
  65      E62D2B
  66 01a8 3D0ABCA1 		.ascii	"=\012\274\241\307\263\005v\367\007[4(fpm\305\327\327"
  66      C7B30576 
  66      F7075B34 
  66      2866706D 
  66      C5D7D7
  67 01bb ECE26506 		.ascii	"\354\342e\006w\035\274\262\301\246\300\3715.\337\032"
  67      771DBCB2 
  67      C1A6C0F9 
  67      352EDF1A 
  68 01cb 206C4908 		.ascii	" lI\010\354\036\030\311E\372\2506Fd0\2660\333_j\033"
  68      EC1E18C9 
  68      45FAA836 
  68      466430B6 
  68      30DB5F6A 
  69 01e0 F111630F 		.ascii	"\361\021c\017r\324YQ\024\366\336`4\375\241v\356\315"
  69      72D45951 
  69      14F6DE60 
  69      34FDA176 
  69      EECD
  70 01f2 3FEADCE2 		.ascii	"?\352\334\342uF\256-\312o\327\011\351\363U\355\347\220"
  70      7546AE2D 
  70      CA6FD709 
  70      E9F355ED 
  70      E790
  71 0204 096985B2 		.ascii	"\011i\205\262\220\310\332\332/n:\305\277\030\371yu\331"
  71      90C8DADA 
  71      2F6E3AC5 
  71      BF18F979 
  71      75D9
  72 0216 41AFF2B9 		.ascii	"A\257\362\271\257\346\336^\237\025!\221\325\005\315"
  72      AFE6DE5E 
  72      9F152191 
  72      D505CD
  73 0225 7BBDE24D 		.ascii	"{\275\342M`\350\366C\273\2578$\324\327\374\242o\345"
  73      60E8F643 
  73      BBAF3824 
  73      D4D7FCA2 
  73      6FE5
ARM GAS  C:\Users\rdn\AppData\Local\Temp\ccMeiDZL.s 			page 5


  74 0237 54C25586 		.ascii	"T\302U\206\304\225\235\270\266\337-\376-q\207\3527N"
  74      C4959DB8 
  74      B6DF2DFE 
  74      2D7187EA 
  74      374E
  75 0249 57B06F7A 		.ascii	"W\260oz`\007B\302\272;\2726\330\304:\011[\261\272\362"
  75      600742C2 
  75      BA3BBA36 
  75      D8C43A09 
  75      5BB1BAF2 
  76 025d 9255455A 		.ascii	"\222UEZ\236\323\223\243\200\252\220\320\302\2523H\225"
  76      9ED393A3 
  76      80AA90D0 
  76      C2AA3348 
  76      95
  77 026e F5127AEB 		.ascii	"\365\022z\353\273@%(\350^Z\224evZ\225C!\221\337\267"
  77      BB402528 
  77      E85E5A94 
  77      65765A95 
  77      432191DF 
  78 0283 1E0FE8A2 		.ascii	"\036\017\350\242@\"\273\262\336\352\354Y\222\222>\344"
  78      4022BBB2 
  78      DEEAEC59 
  78      92923EE4 
  79 0293 E190C8CE 		.ascii	"\341\220\310\316u\027*\274\342C\211,-\357\370\300\241"
  79      75172ABC 
  79      E243892C 
  79      2DEFF8C0 
  79      A1
  80 02a4 96A4B8C6 		.ascii	"\226\244\270\306\253\302\265AMHh\325\033\227Ox\304\026"
  80      ABC2B541 
  80      4D4868D5 
  80      1B974F78 
  80      C416
  81 02b6 093D5076 		.ascii	"\011=Pv\324\242|\026\231\022=\022\022y\345\227\367~"
  81      D4A27C16 
  81      99123D12 
  81      1279E597 
  81      F77E
  82 02c8 F38A1D12 		.ascii	"\363\212\035\022y{\345O\035a\012\272\251'\\\001u!\221"
  82      797BE54F 
  82      1D610ABA 
  82      A9275C01 
  82      752191
  83 02db 2D45B7DF 		.ascii	"-E\267\337u[\263(\302(8\012#\340K|j\361\371\002\237"
  83      755BB328 
  83      C228380A 
  83      23E04B7C 
  83      6AF1F902 
  84 02f0 CFF1A9C6 		.ascii	"\317\361\251\306\347 >\373\361\331\207O9>\2450Bv\023"
  84      E7203EFB 
  84      F1D9874F 
  84      393EA530 
  84      427613
  85 0303 A8072BB6 		.ascii	"\250\007+\266WG\020\"\2046:\272Y\273i\267W\024\311\020"
  85      57471022 
  85      84363ABA 
ARM GAS  C:\Users\rdn\AppData\Local\Temp\ccMeiDZL.s 			page 6


  85      59BB69B7 
  85      5714C910 
  86 0317 3F3E72FD 		.ascii	"?>r\375\264]\325\2454oH/U\277\032\030#40<\273\342\370"
  86      B45DD5A5 
  86      346F482F 
  86      55BF1A18 
  86      2334303C 
  87 032e 56214A25 		.ascii	"V!J%|S\376\316\227$\332\267\333\347\003\211=\026\002"
  87      7C53FECE 
  87      9724DAB7 
  87      DBE70389 
  87      3D1602
  88 0341 FB358CF8 		.ascii	"\3735\214\370,\256\312\327\335\355\367U\025X\253\033"
  88      2CAECAD7 
  88      DDEDF755 
  88      1558AB1B 
  89 0351 23E381DB 		.ascii	"#\343\201\333\214\316[^\360\3763\270kY\270\203Xy\264"
  89      8CCE5B5E 
  89      F0FE33B8 
  89      6B59B883 
  89      5879B4
  90 0364 F188AD16 		.ascii	"\361\210\255\026\263\012\343\321\241QvN\036]\214r\363"
  90      B30AE3D1 
  90      A151764E 
  90      1E5D8C72 
  90      F3
  91 0375 E8D12853 		.ascii	"\350\321(S<M0\317p\2152\035\304\343\035@]!\002Hg0\220"
  91      3C4D30CF 
  91      708D321D 
  91      C4E31D40 
  91      5D210248 
  92 038c C748208F 		.ascii	"\307H \217C\200|\015\005\262\177'v\000\373]\032\225"
  92      43807C0D 
  92      05B27F27 
  92      7600FB5D 
  92      1A95
  93 039e 6918BD52 		.ascii	"i\030\275RG\260\337\243Q\371\356\245\327\373\330[\024"
  93      47B0DFA3 
  93      51F9EEA5 
  93      D7FBD85B 
  93      14
  94 03af BD0EC701 		.ascii	"\275\016\307\001\356\247\341\001\026>H\302\2214\037"
  94      EEA7E101 
  94      163E48C2 
  94      91341F
  95 03be 45C3688D 		.ascii	"E\303h\215\352\376\020\011\307\360\353#\364\372(\307"
  95      EAFE1009 
  95      C7F0EB23 
  95      F4FA28C7 
  96 03ce 3696E389 		.ascii	"6\226\343\211FA\3308\034\034\217\321\333xz{\234\206"
  96      4641D838 
  96      1C1C8FD1 
  96      DB787A7B 
  96      9C86
  97 03e0 099CDE13 		.ascii	"\011\234\336\023\234\314\223\364\323S$\235\310\005x"
  97      9CCC93F4 
  97      D353249D 
ARM GAS  C:\Users\rdn\AppData\Local\Temp\ccMeiDZL.s 			page 7


  97      C80578
  98 03ef 9AE69368 		.ascii	"\232\346\223h>\231\206gXu\012\333\233\312\3434\206M"
  98      3E998667 
  98      58750ADB 
  98      9BCAE334 
  98      864D
  99 0401 27B519A4 		.ascii	"'\265\031\2441\223a\317\322<\206\346\317\3210\213a\261"
  99      319361CF 
  99      D23C86E6 
  99      CFD1308B 
  99      61B1
 100 0413 0C98CD21 		.ascii	"\014\230\315!=\317\3532\207Wv.)\317\303\301\371\002"
 100      3DCFEB32 
 100      8757762E 
 100      29CFC3C1 
 100      F902
 101 0425 0DF339BD 		.ascii	"\015\3639\2758\331\027\265+H\261&M\273\252\353\370O"
 101      38D917B5 
 101      2B48B126 
 101      4DBBAAEB 
 101      F84F
 102 0437 B4C0F2AA 		.ascii	"\264\300\362\252=9\021L9T\362\213;4\022\355\265\262"
 102      3D39114C 
 102      3954F28B 
 102      3B3412ED 
 102      B5B2
 103 0449 E4739244 		.ascii	"\344s\222D\260\004{\037\213\312\2318{r\353\213\034t"
 103      B0047B1F 
 103      8BCA9938 
 103      7B72EB8B 
 103      1C74
 104 045b AE5901E0 		.ascii	"\256Y\001\3408\022\343\002d5\371\213\337b\230_\014\366"
 104      3812E302 
 104      6435F98B 
 104      DF62985F 
 104      0CF6
 105 046d 8B48E6CA 		.ascii	"\213H\346\312U]h\017\263\223\302\\7\343\217\222\311"
 105      555D680F 
 105      B393C25C 
 105      37E38F92 
 105      C9
 106 047e 216CB2C4 		.ascii	"!l\262\304\306\222/I2Tk\003\177~NGA\232\264p'\032A?"
 106      C6922F49 
 106      32546B03 
 106      7F7E4E47 
 106      419AB470 
 107 0496 5F74DFA8 		.ascii	"_t\337\250\362\222\037;\350p\002\375\240V^\316)]*\335"
 107      F2921F3B 
 107      E87002FD 
 107      A0565ECE 
 107      295D2ADD 
 108 04aa 857AA8F4 		.ascii	"\205z\250\364\355\221m\333\205T\3423\033N\242b\013\260"
 108      ED916DDB 
 108      8554E233 
 108      1B4EA262 
 108      0BB0
 109 04bc 12110115 		.ascii	"\022\021\001\025%\356\374&\354\223\214\034\246bD\361"
ARM GAS  C:\Users\rdn\AppData\Local\Temp\ccMeiDZL.s 			page 8


 109      25EEFC26 
 109      EC938C1C 
 109      A66244F1 
 110 04cc 7B399DCA 		.ascii	"{9\235\312\334\335lq\230\324\235$e\367\240\030]\224"
 110      DCDD6C71 
 110      98D49D24 
 110      65F7A018 
 110      5D94
 111 04de 1CAECDB1 		.ascii	"\034\256\315\261K\027\000\247L\346\017\222\371{d\360"
 111      4B1700A7 
 111      4CE60F92 
 111      F97B64F0 
 112 04ee D7378D97 		.ascii	"\3277\215\227\240{Q\204\240\312\302U\333\270H\006*\177"
 112      A07B5184 
 112      A0CAC255 
 112      DBB84806 
 112      2A7F
 113 0500 2383DFA8 		.ascii	"#\203\337\250*t\037V\032\025{\355p\355\357\343\212\031"
 113      2A741F56 
 113      1A157BED 
 113      70EDEFE3 
 113      8A19
 114 0512 AA62D76D 		.ascii	"\252b\327m}\005\033\312\005\3532\025L\226pm\235\350"
 114      7D051BCA 
 114      05EB3215 
 114      4C96706D 
 114      9DE8
 115 0524 0B239245 		.ascii	"\013#\222E\357\326yX\204\033\003\223dQ\236\203%;I\022"
 115      EFD67958 
 115      841B0393 
 115      64519E83 
 115      253B4912 
 116 0538 29D3BBBD 		.ascii	")\323\273\275\365u\031HT_%\362r\352U%\206\243\034\023"
 116      F5751948 
 116      545F25F2 
 116      72EA5525 
 116      86A31C13 
 117 054c 58F3D1F2 		.ascii	"X\363\321\362j\247\274\314\334\306\302\332\340\264L"
 117      6AA7BCCC 
 117      DCC6C2DA 
 117      E0B44C
 118 055b 225F2571 		.ascii	"\"_%q?j\232\027\0110\2313*\317\234S\252\324\017p\246"
 118      3F6A9A17 
 118      09309933 
 118      2ACF9C53 
 118      AAD40F70 
 119 0570 F70767FA 		.ascii	"\367\007g\372\000\307\265\247\316e\342T\367\266\216"
 119      00C7B5A7 
 119      CE65E254 
 119      F7B68E
 120 057f 0AABE4D4 		.ascii	"\012\253\344\324Rh\344fsU\267(\222\206s7\360\013\257"
 120      5268E466 
 120      7355B728 
 120      92867337 
 120      F00BAF
 121 0592 26276CC5 		.ascii	"&'l\305\241&\\\020\213\232p\275\0145\341\"\350j\302"
 121      A1265C10 
ARM GAS  C:\Users\rdn\AppData\Local\Temp\ccMeiDZL.s 			page 9


 121      8B9A70BD 
 121      0C35E122 
 121      E86AC2
 122 05a5 F9037BAE 		.ascii	"\371\003{\256p\230\371\315\271\327|\242\262z\020\021"
 122      7098F9CD 
 122      B9D77CA2 
 122      B27A1011 
 123 05b5 4CA14BC0 		.ascii	"L\241K\300\022\352\215\345\345\355\315\266\245\267|"
 123      12EA8DE5 
 123      E5EDCDB6 
 123      A5B77C
 124 05c4 2B7CBEF0 		.ascii	"+|\276\360l\341\352\326\261?C\023,\325\370\202s\350"
 124      6CE1EAD6 
 124      B13F4313 
 124      2CD5F882 
 124      73E8
 125 05d6 988DE276 		.ascii	"\230\215\342vc\033<\013\310\242\0104\222-<\212t\237"
 125      631B3C0B 
 125      C8A20834 
 125      922D3C8A 
 125      749F
 126 05e8 8C937629 		.ascii	"\214\223v)\022\352\271\253w\256w\310jusQ\233\203\213"
 126      12EAB9AB 
 126      77AE77C8 
 126      6A757351 
 126      9B838B
 127 05fb 3A0A357B 		.ascii	":\0125{\253\250d\243\331\346\250\336\032r\334\2431\300"
 127      ABA864A3 
 127      D9E6A8DE 
 127      1A72DCA3 
 127      31C0
 128 060d 9CAAEFEA 		.ascii	"\234\252\357\352 t\220\336n\334\341\032\234\303 \261"
 128      207490DE 
 128      6EDCE11A 
 128      9CC320B1 
 129 061d 1E6C032F 		.ascii	"\036l\003/L\341\222\252\247\267\253\240\036Bi\177n\216"
 129      4CE192AA 
 129      A7B7ABA0 
 129      1E42697F 
 129      6E8E
 130 062f 61E58782 		.ascii	"a\345\207\202\275\215ao\267\376\2377U\222o\321\233\254"
 130      BD8D616F 
 130      B7FE9F37 
 130      55926FD1 
 130      9BAC
 131 0641 C1185503 		.ascii	"\301\030U\003f\351QW\217!\004\326\224\235?\0216+\006"
 131      66E95157 
 131      8F2104D6 
 131      949D3F11 
 131      362B06
 132 0654 0F7BD61A 		.ascii	"\017{\326\032\305\006\341<\314b\335\015oJFW\3135\225"
 132      C506E13C 
 132      CC62DD0D 
 132      6F4A4657 
 132      CB3595
 133 0667 4B53FF57 		.ascii	"KS\377W\031\331#\030-\255\247\354\002\212`\217\242<"
 133      19D92318 
ARM GAS  C:\Users\rdn\AppData\Local\Temp\ccMeiDZL.s 			page 10


 133      2DADA7EC 
 133      028A608F 
 133      A23C
 134 0679 68CBEF27 		.ascii	"h\313\357'\350\243\232\026\000T\036L\210H\243\362xf"
 134      E8A39A16 
 134      00541E4C 
 134      8848A3F2 
 134      7866
 135 068b 00747CA3 		.ascii	"\000t|\243\351`c\363\374\000`M\206\210\256\362\227p"
 135      E96063F3 
 135      FC00604D 
 135      8688AEF2 
 135      9770
 136 069d 77192553 		.ascii	"w\031%S\002\200\341\014\025\233\237F\251\321\212S\007"
 136      0280E10C 
 136      159B9F46 
 136      A9D18A53 
 136      07
 137 06ae EE47D13A 		.ascii	"\356G\321:\031\271jt\242\266\227\332\234h/\336\014\304"
 137      19B96A74 
 137      A2B697DA 
 137      9C682FDE 
 137      0CC4
 138 06c0 4D63C7C9 		.ascii	"Mc\307\311\027\221\235V-\313\306{\265\350\244\273\257"
 138      17919D56 
 138      2DCBC67B 
 138      B5E8A4BB 
 138      AF
 139 06d1 54821329 		.ascii	"T\202\023)]+E\265\234t/IlH\222\357d\275\0039\035_=)"
 139      5D2B45B5 
 139      9C742F49 
 139      6C4892EF 
 139      64BD0339 
 140 06e9 73182BB9 		.ascii	"s\030+\271\321\333f\234\330f\2767\245TJv\307\362\216"
 140      D1DB669C 
 140      D866BE37 
 140      A5544A76 
 140      C7F28E
 141 06fc B069F899 		.ascii	"\260i\370\231\303N\317\254\035b*k\240\265\242\314\253"
 141      C34ECFAC 
 141      1D622A6B 
 141      A0B5A2CC 
 141      AB
 142 070d CAEA2202 		.ascii	"\312\352\"\002\311\272^\300\272\266\301\362?\3368\254"
 142      C9BA5EC0 
 142      BAB6C1F2 
 142      3FDE38AC 
 143 071d F676B439 		.ascii	"\366v\2649\032\013\237\3747j\353V\270\012\241\000\371"
 143      1A0B9FFC 
 143      376AEB56 
 143      B80AA100 
 143      F9
 144 072e E126700B 		.ascii	"\341&p\013m>\270\010\205@\320@n\275\220\320q\210\246"
 144      6D3EB808 
 144      8540D040 
 144      6EBD90D0 
 144      7188A6
ARM GAS  C:\Users\rdn\AppData\Local\Temp\ccMeiDZL.s 			page 11


 145 0741 DC7CEF40 		.ascii	"\334|\357@O#2;\026~\334\272\275\216[{\034\237S\350\307"
 145      4F23323B 
 145      167EDCBA 
 145      BD8E5B7B 
 145      1C9F53E8 
 146 0756 CC8E457F 		.ascii	"\314\216E\177\307\203\010\374\003;n\033\340x<\242\315"
 146      C78308FC 
 146      033B6E1B 
 146      E0783CA2 
 146      CD
 147 0767 7BE4718E 		.ascii	"{\344q\216e\274\344A\253\342\301\004\277\260\343O\275"
 147      65BCE441 
 147      ABE2C104 
 147      BFB0E34F 
 147      BD
 148 0778 35ABA59A 		.ascii	"5\253\245\232M\340\030r\333\032\026H\245'\314\337h\177"
 148      4DE01872 
 148      DB1A1648 
 148      A527CCDF 
 148      687F
 149 078a E26FB4DC 		.ascii	"\342o\264\334\256}?\013\014b\231\217\231\314\025\370"
 149      AE7D3F0B 
 149      0C62998F 
 149      99CC15F8 
 150 079a 9102C1DF 		.ascii	"\221\002\301\337~->{\331\205$\227?Y\340\022\205\246"
 150      7E2D3E7B 
 150      D9852497 
 150      3F59E012 
 150      85A6
 151 07ac C14F48F3 		.ascii	"\301OH\363\240\335\361Dp\215\2374w\177\013\320\322\266"
 151      A0DDF144 
 151      708D9F34 
 151      777F0BD0 
 151      D2B6
 152 07be 5CBB7DD8 		.ascii	"\\\273}\330m\252\361eN\365\347\001\251>\205h\031\363"
 152      6DAAF165 
 152      4EF5E701 
 152      A93E8568 
 152      19F3
 153 07d0 61434A26 		.ascii	"aCJ&\016\214\221\213\025:F\001\3552\306_L1r\203\234"
 153      0E8C918B 
 153      153A4601 
 153      ED32C65F 
 153      4C317283 
 154 07e5 18BC1C4F 		.ascii	"\030\274\034O\233c\024\375cd\017\035\034\343\177\007"
 154      9B6314FD 
 154      63640F1D 
 154      1CE37F07 
 155 07f5 C43809D1 		.ascii	"\3048\011\321\346\345\230\314aO\012^\216gxE&\007/\307"
 155      E6E598CC 
 155      614F0A5E 
 155      8E677845 
 155      26072FC7 
 156 0809 33EAF469 		.ascii	"3\352\364i\230(\225\246\370E8:\376\271rW\243E\236\224"
 156      982895A6 
 156      F845383A 
 156      FEB97257 
ARM GAS  C:\Users\rdn\AppData\Local\Temp\ccMeiDZL.s 			page 12


 156      A3459E94 
 157 081d F204BFD2 		.ascii	"\362\004\277\322\237\373S\230\373v\015\277\351\325q"
 157      9FFB5398 
 157      FB760DBF 
 157      E9D571
 158 082c C0E270D5 		.ascii	"\300\342p\325\332y\021\\j\302\236\354\346\263\301J\367"
 158      DA79115C 
 158      6AC29EEC 
 158      E6B3C14A 
 158      F7
 159 083d 93667FF7 		.ascii	"\223f\177\367\307\303\244[\362\371Y{\371\357ny\244k"
 159      C7C3A45B 
 159      F2F9597B 
 159      F9EF6E79 
 159      A46B
 160 084f 7055DE6D 		.ascii	"pU\336m\003\364\243\305\212-b\242\255\276\340\003=\000"
 160      03F4A3C5 
 160      8A2D62A2 
 160      ADBEE003 
 160      3D00
 161 0861 76DAACD6 		.ascii	"v\332\254\326\312\367S0v\024\275\032\000\027np\353\252"
 161      CAF75330 
 161      7614BD1A 
 161      00176E70 
 161      EBAA
 162 0873 F717E1A2 		.ascii	"\367\027\341\242\243\240\034\002\020\216[\323z\356\375"
 162      A3A01C02 
 162      108E5BD3 
 162      7AEEFD
 163 0882 57314A5B 		.ascii	"W1J[W\301\022\2143\214\372\002f\332\225s\372\230\332"
 163      57C1128C 
 163      338CFA02 
 163      66DA9573 
 163      FA98DA
 164 0895 E153E954 		.ascii	"\341S\351T9\325?\255\251\234\226\203\2674\237\232\015"
 164      39D53FAD 
 164      A99C9683 
 164      B7349F9A 
 164      0D
 165 08a6 8D8AA8D3 		.ascii	"\215\212\250\323\374x\236\2341\351s\212\323\202y6}\300"
 165      FC789E9C 
 165      31E9738A 
 165      D3827936 
 165      7DC0
 166 08b8 E675ABCD 		.ascii	"\346u\253\315\033\030\260h3P]\236\314=\304\232\351\307"
 166      1B18B068 
 166      33505D9E 
 166      CC3DC49A 
 166      E9C7
 167 08ca 6E6476C1 		.ascii	"ndv\301\265\232\031L\223g\007lS\233\332\246\277\016"
 167      B59A194C 
 167      9367076C 
 167      539BDAA6 
 167      BF0E
 168 08dc 701183EA 		.ascii	"p\021\203\352f^<\307^c\202y1\313/\302\360\247`^\314"
 168      665E3CC7 
 168      5E638279 
ARM GAS  C:\Users\rdn\AppData\Local\Temp\ccMeiDZL.s 			page 13


 168      31CB2FC2 
 168      F0A7605E 
 169 08f1 923A6D8D 		.ascii	"\222:m\215\212\027\261~1h \011b\271Z\316\376$\030d&"
 169      8A17B17E 
 169      31682009 
 169      62B95ACE 
 169      FE241864 
 170 0906 81DB4C82 		.ascii	"\201\333L\20203\011l\222\0047\266(\022\014\352[u\033"
 170      3033096C 
 170      920437B6 
 170      28120CEA 
 170      5B751B
 171 0919 52240C57 		.ascii	"R$\014W}\246cc\021\255:\006h\247\371,\307\021\021\000"
 171      7DA66363 
 171      11AD3A06 
 171      68A7F92C 
 171      C7111100 
 172 092d DAAF349B 		.ascii	"\332\2574\233\346\270d\011\000V`j\330\216B\\\355XG}"
 172      E6B86409 
 172      0056606A 
 172      D88E425C 
 172      ED58477D 
 173 0941 11ADB64B 		.ascii	"\021\255\266K\2556\362\272q\202\264=\333/<A\361\363"
 173      AD36F2BA 
 173      7182B43D 
 173      DB2F3C41 
 173      F1F3
 174 0953 99345B76 		.ascii	"\2314[v\375\363M\013\372\177#\342\245\235\256\357\374"
 174      FDF34D0B 
 174      FA7F23E2 
 174      A59DAEEF 
 174      FC
 175 0964 E987A5ED 		.ascii	"\351\207\245\355$\033\317c\374\250\367i\240\363S\276"
 175      241BCF63 
 175      FCA8F769 
 175      A0F353BE 
 176 0974 1639F00C 		.ascii	"\0269\360\014\272\246L\242\002\351\243\222\366#\010"
 176      BAA64CA2 
 176      02E9A392 
 176      F62308
 177 0983 9AD2F17B 		.ascii	"\232\322\361{\000\250\305\276\225Wh\014?\006\205\276"
 177      00A8C5BE 
 177      9557680C 
 177      3F0685BE 
 178 0993 F7F00BEE 		.ascii	"\367\360\013\356\016\376Ho\311\276\030f\320m\340:\014"
 178      0EFE486F 
 178      C9BE1866 
 178      D06DE03A 
 178      0C
 179 09a4 E79E51D3 		.ascii	"\347\236Q\323R\\aE\011\334\240cp\016\376\362\033\367"
 179      525C6145 
 179      09DCA063 
 179      700EFEF2 
 179      1BF7
 180 09b6 C21357EA 		.ascii	"\302\023W\352\013\234\322\031\355\221\033\253O\341\025"
 180      0B9CD219 
 180      ED911BAB 
ARM GAS  C:\Users\rdn\AppData\Local\Temp\ccMeiDZL.s 			page 14


 180      4FE115
 181 09c5 EFA4B215 		.ascii	"\357\244\262\025A\310\326\365\265-:\333\372C\331Z\263"
 181      41C8D6F5 
 181      B52D3ADB 
 181      FA43D95A 
 181      B3
 182 09d6 BDFD470B 		.ascii	"\275\375G\013\331\272\011\006\374\316\324\350bc\037"
 182      D9BA0906 
 182      FCCED4E8 
 182      62631F
 183 09e5 16EEFECD 		.ascii	"\026\356\376\3151\374\264\031\275\363\342>\237\235\321"
 183      31FCB419 
 183      BDF3E23E 
 183      9F9DD1
 184 09f4 B714FA5C 		.ascii	"\267\024\372\\~\305:\007\241oS$\317\343/\335`\364\346"
 184      7EC53A07 
 184      A16F5324 
 184      CFE32FDD 
 184      60F4E6
 185 0a07 D84039CE 		.ascii	"\330@9\316\221,kW\004\232\253$y\027\370\2005\361\223"
 185      912C6B57 
 185      049AAB24 
 185      7917F880 
 185      35F193
 186 0a1a BAA3CFC9 		.ascii	"\272\243\317\311\373\300\251\366\201O/\304\225\233+"
 186      FBC0A9F6 
 186      814F2FC4 
 186      959B2B
 187 0a29 2DB435A9 		.ascii	"-\2645\251\013\372<\272H\232\210\372\002\212\314\027"
 187      0BFA3CBA 
 187      489A88FA 
 187      028ACC17 
 188 0a39 5927BA5F 		.ascii	"Y'\272_\246\007]\212\346\243MT\014\276\306\316\347\223"
 188      A6075D8A 
 188      E6A34D54 
 188      0CBEC6CE 
 188      E793
 189 0a4b FE4064DF 		.ascii	"\376@d\337\356\261\310-\326pV}?\304a\267\010\332c{\350"
 189      EEB1C82D 
 189      D670567D 
 189      3FC461B7 
 189      08DA637B 
 190 0a60 121AC744 		.ascii	"\022\032\307Dvk\337\332\024\217\231\036\036\363\335"
 190      766BDFDA 
 190      148F991E 
 190      1EF3DD
 191 0a6f D619EA6E 		.ascii	"\326\031\352n\313`!y\\\372\361\235\322\205\247\217\307"
 191      CB602179 
 191      5CFAF19D 
 191      D285A78F 
 191      C7
 192 0a80 78024758 		.ascii	"x\002GX0\3378\327\306=\257\005\000\003v\320t\276\253"
 192      30DF38D7 
 192      C63DAF05 
 192      000376D0 
 192      74BEAB
 193 0a93 BE382500 		.ascii	"\2768%\000\036\274\025Y\2626\240`\266\253\253h\021F"
ARM GAS  C:\Users\rdn\AppData\Local\Temp\ccMeiDZL.s 			page 15


 193      1EBC1559 
 193      B236A060 
 193      B6ABAB68 
 193      1146
 194 0aa5 E0A1DBF5 		.ascii	"\340\241\333\365eL\241\351\317\222y\032}\037\002Jq\211"
 194      654CA1E9 
 194      CF92791A 
 194      7D1F024A 
 194      7189
 195 0ab7 6266CC8D 		.ascii	"bf\314\215\217\215\177xf\374\013\017/JLI]\020\277xI"
 195      8F8D7F78 
 195      66FC0B0F 
 195      2F4A4C49 
 195      5D10BF78 
 196 0acc 7A52F282 		.ascii	"zR\362\202\230\224\205\231\311\351)\251\377\214Y\222"
 196      98948599 
 196      C9E929A9 
 196      FF8C5992 
 197 0adc 9A9499B2 		.ascii	"\232\224\231\26285cAb\372\242\204\244\305\351\351\311"
 197      38356341 
 197      62FAA284 
 197      A4C5E9E9 
 197      C9
 198 0aed 0B133393 		.ascii	"\013\0233\223\023\376\221\230\221\231\2608-3\341\325"
 198      13FE9198 
 198      9199B038 
 198      2D33E1D5 
 199 0afd E8C71F49 		.ascii	"\350\307\037I\322,i\361\351I\323l\0318\314IN\345\331"
 199      D22C69F1 
 199      E949D36C 
 199      1938CC49 
 199      4EE5D9
 200 0b10 749A4DC7 		.ascii	"t\232M\307\231\22163#\323\236\026\237\224\236\230\231"
 200      99913633 
 200      23D39E16 
 200      9F949E98 
 200      99
 201 0b21 F4923533 		.ascii	"\364\222531mFj\246HIMr-^\2229}\341\342\244W\342S^O\266"
 201      316D466A 
 201      A648494D 
 201      722D5E92 
 201      397DE1E2 
 202 0b3c FE7DE12B 		.ascii	"\376}\341+(\207\227\365\264\327,\244\034m\244\315[\222"
 202      288797F5 
 202      B4D72CA4 
 202      1C6DA4CD 
 202      5B92
 203 0b4e 69242625 		.ascii	"i$&%\2155\322bS\307\321\020mIH\210{6\336\232\2200-\356"
 203      8D35D262 
 203      53C7D110 
 203      6D494888 
 203      7B36DE9A 
 204 0b66 B9E8F08C 		.ascii	"\271\350\360\214\214\304\314\250\021c\307D\215\210\306"
 204      8CC4CCA8 
 204      1163C744 
 204      8D88C6
 205 0b75 679C2626 		.ascii	"g\234&&\247kz\254\246\247k\377\003\306R\300\336"
ARM GAS  C:\Users\rdn\AppData\Local\Temp\ccMeiDZL.s 			page 16


 205      A76B7AAC 
 205      A6A76BFF 
 205      03C652C0 
 205      DE
 206              		.text
 207              		.section	.gnu.lto_.symbol_nodes.d618f282,"",%progbits
 208 0000 789C6361 		.ascii	"x\234ca`d\360c\000\002\246\337\014\365\014\014\023\316"
 208      6064F063 
 208      0002A6DF 
 208      0CF50C0C 
 208      13CE
 209 0012 3180A85D 		.ascii	"1\200\250]\015\212\014\014\214\177\030\352\031\301\""
 209      0D8A0C0C 
 209      8C7F18EA 
 209      19C122
 210 0021 0C0C0D0D 		.ascii	"\014\014\015\015\012@\201\277\014\365L\310\002\314@"
 210      0A4081BF 
 210      0CF54CC8 
 210      02CC40
 211 0030 CD47A6BD 		.ascii	"\315G\246\275\221gf`bx2\035D32<\231\365F\236\001\000"
 211      91676660 
 211      6278321D 
 211      4433323C 
 211      99F5469E 
 212 0046 19891481 		.ascii	"\031\211\024\201"
 213              		.text
 214              		.section	.gnu.lto_.refs.d618f282,"",%progbits
 215 0000 789C6361 		.ascii	"x\234ca`\004B \000\000\0009\000\007"
 215      60044220 
 215      00000039 
 215      0007
 216              		.text
 217              		.section	.gnu.lto_.decls.d618f282,"",%progbits
 218 0000 789CBD56 		.ascii	"x\234\275V]L\024W\024\2363\263\362\263\254\213!\266"
 218      5D4C1457 
 218      149E33B3 
 218      F2B3AC8B 
 218      21B6
 219 0012 210D0FC4 		.ascii	"!\015\017\3044\2056a\225\212\246\351K\233\332\320\370"
 219      34853661 
 219      958AA6E9 
 219      4B9BDAD0 
 219      F8
 220 0023 D0D684E8 		.ascii	"\320\326\204\350C\263\315d]\026\331\004v\327\335\241"
 220      43B3CD64 
 220      5D16D904 
 220      76D7DDA1 
 221 0033 9197760A 		.ascii	"\221\227v\012\324\037*\025\321\372\203h-\022\005E~\334"
 221      D41F2A15 
 221      D1FA8368 
 221      2D120545 
 221      7EDC
 222 0045 154A2B4A 		.ascii	"\025J+JU(*X\300\012\352jA@\254\202H\251\011BDz\356\275"
 222      55282A58 
 222      C00AEA6A 
 222      4140AC82 
 222      48A90942 
ARM GAS  C:\Users\rdn\AppData\Local\Temp\ccMeiDZL.s 			page 17


 223 005d 333BA060 		.ascii	"3;\240`}\352\015\207\271\367\3149\347\373\3569\347\336"
 223      7DEA0D87 
 223      B9F7CC39 
 223      E7FBEE39 
 223      E7DE
 224 006f 591D071C 		.ascii	"Y\035\007\034\031\237\205r\334\033<\307\371p>\205\003"
 224      199F8572 
 224      DC1B3CC7 
 224      F9703E85 
 224      03
 225 0080 A7DC1A14 		.ascii	"\247\334\032\024\362\326\307\261!\240\\BiG\351\342\236"
 225      F2D6C7B1 
 225      21A05C42 
 225      6947E9E2 
 225      9E
 226 0091 1FE4DD2B 		.ascii	"\037\344\335+\212_\004\312B\224&\224s(u(\335(\275(1"
 226      8A5F04CA 
 226      42942694 
 226      73287528 
 226      DD28BD28 
 227 00a6 289128AB 		.ascii	"(\221(\253P>E\351S0\332P\372Q:Q\032QV\243<@y\370\222"
 227      503E45E9 
 227      5330DA50 
 227      FA513A51 
 227      1A5156A3 
 228 00bf F8933CF4 		.ascii	"\370\223<\364\025_>\304?\342!R\017SS\200\212\302\206"
 228      155F3EC4 
 228      3FE22152 
 228      0F535380 
 228      8AC286
 229 00d2 B6CFD95A 		.ascii	"\266\317\331Z\226\277\304u\367xi\242\251\\\306\221/"
 229      96BFC475 
 229      F77869A2 
 229      A95CC691 
 229      2F
 230 00e3 CB3CAF79 		.ascii	"\313<\257yz\375\217\312x!\014\310\274qj\254!\034\275"
 230      7AFD8FCA 
 230      78210CC8 
 230      BC716AAC 
 230      211CBD
 231 00f6 22F4C0E3 		.ascii	"\"\364\300\343\262c\244e\177\030.\027\352a\301$\317"
 231      B263A465 
 231      7F182E17 
 231      EA61C124 
 231      CF
 232 0107 3FACDEB6 		.ascii	"?\254\336\266+\034\364\261\233I\0249[\326\227\0329("
 232      2B1CF4B1 
 232      9B491439 
 232      5BD6971A 
 232      3928
 233 0119 87283806 		.ascii	"\207(8\006Q\034T@,A+\003\023\007\245\250<\202\312\303"
 233      511C5440 
 233      2C412B03 
 233      1307A5A8 
 233      3C82CAC3 
 234 012d C4B0C7DF 		.ascii	"\304\260\307\337\377A\266,\003\034\007=\034\005\201"
 234      FF41B62C 
ARM GAS  C:\Users\rdn\AppData\Local\Temp\ccMeiDZL.s 			page 18


 234      031C073D 
 234      1C0581
 235 013c 9A608223 		.ascii	"\232`\202#\365\214\300\311=\255;\214\302\036 \014\370"
 235      F58CC0C9 
 235      3DAD3B8C 
 235      C21E200C 
 235      F8
 236 014d 8A81A92B 		.ascii	"\212\201\251+\241\020\253g\236\333\277}\375\230,/\200"
 236      A110AB67 
 236      9EDBBF7D 
 236      FD982C2F 
 236      80
 237 015e 6AF4ACD4 		.ascii	"j\364\254\324<1\020>f\247Q5\013\015\004\351)>Qk\020"
 237      3C31103E 
 237      66A75135 
 237      0B0D04E9 
 237      293E516B 
 238 0173 76F31464 		.ascii	"v\363\024d\360V\351\000\037\000\231(H\317!\364|\010"
 238      F056E900 
 238      1F009928 
 238      48CF21F4 
 238      7C08
 239 0185 724203A9 		.ascii	"rB\003\251~\001\210w\026\020\342\217@S?\370\266\205"
 239      7E018877 
 239      1610E28F 
 239      40533FF8 
 239      B685
 240 0197 F8E13A08 		.ascii	"\370\341:\010\234\322a\034\000\373\017T8&t\211\023\236"
 240      9CD2611C 
 240      00FB0F54 
 240      38267489 
 240      139E
 241 01a9 63135515 		.ascii	"c\023U\025\030\234b\302\253S-\030\375S\374aJ\0354\210"
 241      189C62C2 
 241      AB532D18 
 241      FD53FC61 
 241      4A1D3488 
 242 01bd 161D1427 		.ascii	"\026\035\024'\266V\2349\305\011x\015\000\330R\365\230"
 242      B6569C39 
 242      C509780D 
 242      00D852F5 
 242      98
 243 01ce 16EF1946 		.ascii	"\026\357\031F*g\025\206\343\325\036\252()\364\362B3"
 243      2A671586 
 243      E3D51EAA 
 243      2829F4F2 
 243      4233
 244 01e0 CD2EB4E7 		.ascii	"\315.\264\347T\025\011\254\211t\270\374\273\265\260"
 244      541509AC 
 244      8974B8FC 
 244      BBB5B0
 245 01ef CFC89A28 		.ascii	"\317\310\232(\032\227\217\036\370\262\202\015\271\262"
 245      1A978F1E 
 245      F8B2820D 
 245      B9B2
 246 01fd 9C25E767 		.ascii	"\234%\347g\313\021\315F\232\367\2370\211\265\230D\016"
 246      CB11CD46 
ARM GAS  C:\Users\rdn\AppData\Local\Temp\ccMeiDZL.s 			page 19


 246      9AF79F30 
 246      89B59844 
 246      0E
 247 020e EAC0A004 		.ascii	"\352\300\240\004\035\250o\277'\350x\246\203\265:\242"
 247      1DA86FBF 
 247      27E878A6 
 247      83B53AA2 
 248 021e DB7FB9A8 		.ascii	"\333\177\271\2508,\240\373\031\250\362Vs\3311\002\030"
 248      382CA0FB 
 248      19A8F256 
 248      73D93102 
 248      18
 249 022f A3A7C908 		.ascii	"\243\247\311\010GU\345P\335\370|\246\"\026\035\333F"
 249      4755E550 
 249      DDF87CA6 
 249      22161DDB 
 249      46
 250 0240 4B82853E 		.ascii	"K\202\205>V\375\246<\357\211\260@\365\375%\206:\322"
 250      56FDA63C 
 250      EF89B040 
 250      F5FD2586 
 250      3AD2
 251 0252 620DC8E2 		.ascii	"b\015\310\342\264V\375\030\245\370*K.@\021\316`\361"
 251      B456FD18 
 251      A5F82A4B 
 251      2E4011CE 
 251      60F1
 252 0264 6394E2D7 		.ascii	"c\224\342\327\243\362\024\353\260\262\222\355\305A\302"
 252      A3F214EB 
 252      B0B292ED 
 252      C541C2
 253 0273 30C3D8EB 		.ascii	"0\303\330\353;:\246\237\326\306\011\345\004\343\034"
 253      3B3AA69F 
 253      D6C609E5 
 253      04E31C
 254 0282 62FCAA61 		.ascii	"b\374\252a4\300\334 gg\007)\330Q4b\240\373'\261~a\373"
 254      34C0DC20 
 254      67670729 
 254      D8513462 
 254      A0FB27B1 
 255 0299 9FD87C69 		.ascii	"\237\330|i4T\257tj\376\177w*\272l\335s\377i\370\214"
 255      3454AF74 
 255      6AFE7F77 
 255      2ABA6CDD 
 255      73FF69F8 
 256 02ae 2A34CEA8 		.ascii	"*4\316\250BS\240\012O.l\352\002\212\210:8\317\020'{"
 256      4253A00A 
 256      4F2E6CEA 
 256      028A883A 
 256      38CF1027 
 257 02c3 F3560758 		.ascii	"\363V\007X\374\306t7\356\335}j\014\03063e\336\241}\025"
 257      FCC67437 
 257      EEDD7D6A 
 257      0C183633 
 257      65DEA17D 
 258 02d8 10B98B5E 		.ascii	"\020\271\213^;\331r\264\016\326\274:\015\345\"\340m"
 258      3BD972B4 
ARM GAS  C:\Users\rdn\AppData\Local\Temp\ccMeiDZL.s 			page 20


 258      0ED6BC3A 
 258      0DE522E0 
 258      6D
 259 02e9 0817D094 		.ascii	"\010\027\320\224Be\025\374\263Q\267\350\240|\260J\356"
 259      426515FC 
 259      B351B7E8 
 259      A07CB04A 
 259      EE
 260 02fa E9EE7A6F 		.ascii	"\351\356zoW\266\334\214~\321\304\014j\264\264\325\220"
 260      57B6DC8C 
 260      7ED1C40C 
 260      6AB4B4D5 
 260      90
 261 030b A3C5C149 		.ascii	"\243\305\301I\360c\033^\202E\3509<X\032)\234\026h\255"
 261      F0631B5E 
 261      8245E839 
 261      3C581A29 
 261      9C1668AD 
 262 031f 370D9574 		.ascii	"7\015\225t\362\001r\254m\362\266\234<\025\032h\233V"
 262      F20172AC 
 262      6DF2B69C 
 262      3C151A68 
 262      9B56
 263 0331 C6EDC99D 		.ascii	"\306\355\311\235\274\357\030a\322\201\227\2312'w\253"
 263      BCEF1861 
 263      D2819799 
 263      322777AB 
 264 0341 3427DF36 		.ascii	"4'\3376\312\367w\225o\337\341\212A@\276=X\342\332\003"
 264      CAF77795 
 264      6FDFE18A 
 264      4140BE3D 
 264      58E2DA03 
 265 0355 E2A6431B 		.ascii	"\342\246C\033\033\362\201ZA\213F\267\205\322\305I;\245"
 265      1BF2815A 
 265      418B46B7 
 265      85D2C549 
 265      3BA5
 266 0367 9A3BD182 		.ascii	"\232;\321\202\232\311\227\345z\205\321\252\224\267\224"
 266      9AC997E5 
 266      7A85D1AA 
 266      94B794
 267 0376 6855F883 		.ascii	"hU\370\203)K\033'\306\215s\222\355\244d\257\252d\367"
 267      294B1B27 
 267      C68D7392 
 267      EDA464AF 
 267      AA64F7
 268 0389 D5F8CBC2 		.ascii	"\325\370\313\302\030\331\206\235~\0032%\026\320\241"
 268      18D9869D 
 268      7E033225 
 268      16D0A1
 269 0398 11ED5089 		.ascii	"\021\355P\211vQ\242\337\344\035\337\255\307#\024\304"
 269      7651A2DF 
 269      E41DDFAD 
 269      C72314C4 
 270 03a8 4E5530AA 		.ascii	"NU0\252\372G&jtLE@7\220\003\271\367f\265Q\310\325\321"
 270      FA47266A 
 270      744C4540 
ARM GAS  C:\Users\rdn\AppData\Local\Temp\ccMeiDZL.s 			page 21


 270      379003B9 
 270      F766B551 
 271 03bf AE3F3356 		.ascii	"\256?3V\331\024\242\235\254'+\350\265\177\023\267vC"
 271      D914A29D 
 271      AC272BE8 
 271      B57F13B7 
 271      7643
 272 03d1 83090A5C 		.ascii	"\203\011\012\\\253\3175\275\037\2335Hi\326\353\250\274"
 272      ABCF35BD 
 272      1F9B3548 
 272      69D6EBA8 
 272      BC
 273 03e2 C69A7574 		.ascii	"\306\232ut|\304\247\023v2\214\372\334\241\372\351\037"
 273      7CC4A713 
 273      76328CFA 
 273      DCA1FAE9 
 273      1F
 274 03f3 0813FD40 		.ascii	"\010\023\375@t#\306-\015\343&\314\015\362\347, \304"
 274      7423C62D 
 274      0DE326CC 
 274      0DF2E72C 
 274      20C4
 275 0405 1F816AEB 		.ascii	"\037\201j\353|\345\241B\021\003\362f_l5h\037\211\016"
 275      7CE5A142 
 275      1103F266 
 275      5F6C3568 
 275      1F890E
 276 0418 27FD48F4 		.ascii	"'\375H\364\"P\217\006\324\375\002\240\333\263\001\365"
 276      22508F06 
 276      D4FD02A0 
 276      DBB301F5 
 277 0428 52A096F3 		.ascii	"R\240\226\363\336\311\320\031\307\2174\215V\273>v\374"
 277      DEC9D019 
 277      C78F348D 
 277      56BB3E76 
 277      FC
 278 0439 C813AD6F 		.ascii	"\310\023\255o\037/\310\323\315\260\356\234a\335\257"
 278      1F2FC8D3 
 278      CDB0EE9C 
 278      61DDAF
 279 0448 58F753EB 		.ascii	"X\367S\353\335#m\035z\3754J\344\"\326\214\357\020\306"
 279      DD236D1D 
 279      7AFD344A 
 279      E422D68C 
 279      EF10C6
 280 045b B0985D0F 		.ascii	"\260\230]\017h~v\264\352\210\201\335\326\0029I9wz\224"
 280      687E76B4 
 280      EA8881DD 
 280      D6023949 
 280      39777A94 
 281 046f 4F7E242E 		.ascii	"O~$.\257>\256\2370\010\3054#:oV\367\217F\210\215\002"
 281      AF3EAE9F 
 281      3008C534 
 281      233A6F56 
 281      F78F4688 
 282 0485 0C062C2F 		.ascii	"\014\006,/\344\267\004\007C\230\224\277\224\356\301"
 282      E4B70407 
ARM GAS  C:\Users\rdn\AppData\Local\Temp\ccMeiDZL.s 			page 22


 282      439894BF 
 282      94EEC1
 283 0494 512823FA 		.ascii	"Q(#\372\310WD\215\363\020\372\244\267\334H\261\034\024"
 283      C857448D 
 283      F310FAA4 
 283      B7DC48B1 
 283      1C14
 284 04a6 C9C1D228 		.ascii	"\311\301\322(X\202\251\270\207\371\031\242l\0061\340"
 284      5882A9B8 
 284      87F919A2 
 284      6C0631E0 
 285 04b6 7D46A7F8 		.ascii	"}F\247\370\373\307\267!\"_\211\375>\320\330w\361\375"
 285      FBC7B721 
 285      225F89FD 
 285      3ED0D877 
 285      F1FD
 286 04c8 0065FF00 		.ascii	"\000e\377\000\"\324=\320\005\371\371\260\277\363@\330"
 286      22D43DD0 
 286      05F9F9B0 
 286      BFF340D8 
 287 04d8 DCFB1D56 		.ascii	"\334\373\035V\367\273\204\306\2776\326=6_\211\337\240"
 287      F7BB84C6 
 287      BF36D63D 
 287      365F89DF 
 287      A0
 288 04e9 C6576F4B 		.ascii	"\306WoK\016\036\322\370\303,>Y\204|\364\311\352\350"
 288      0E1ED2F8 
 288      C32C3E59 
 288      847CF4C9 
 288      EAE8
 289 04fb 15F1F15C 		.ascii	"\025\361\361\\\250(\332\035R\374rQ\372\032\254\357\232"
 289      A828DA1D 
 289      52FC7251 
 289      FA1AACEF 
 289      9A
 290 050c 5D6EE73A 		.ascii	"]n\347:\267%=:\305\236f\363D\307nxg\371\233fk\246\313"
 290      B7253D3A 
 290      C59E66F3 
 290      44C76E78 
 290      67F99B66 
 291 0523 6DF378CC 		.ascii	"m\363x\314.\217\323\032mu\333,\222\323mN0%\314T\330"
 291      2E8FD31A 
 291      6D75DB2C 
 291      92D36D4E 
 291      3025CC54 
 292 0538 D35D4EB7 		.ascii	"\323]N\267d^\347\3100[\334\351\346e\246\004S<\231\305"
 292      645EE7C8 
 292      305BDCE9 
 292      E665A604 
 292      533C99C5 
 293 054c 399C0E5B 		.ascii	"9\234\016[\234\315\262\326n\266;\254i\031\3116s\272"
 293      9CCDB2D6 
 293      6EB63BAC 
 293      6919C936 
 293      73BA
 294 055e C59A6A77 		.ascii	"\305\232jw\330\314b\262-\305\222\221&\211R\246\313\346"
 294      D8CC62B2 
ARM GAS  C:\Users\rdn\AppData\Local\Temp\ccMeiDZL.s 			page 23


 294      2DC59291 
 294      268952A6 
 294      CBE6
 295 0570 31A572C1 		.ascii	"1\245r\301\012\225/\376/&\236L\217Y\364H\311\210\213"
 295      0A952FFE 
 295      2F269E4C 
 295      8F59F448 
 295      C9888B
 296 0583 F0F3D6C7 		.ascii	"\360\363\326\307/\023\245\267L\346\025\037'\255L\212"
 296      2F13A5B7 
 296      4CE6151F 
 296      27AD4C8A 
 297 0593 FB306955 		.ascii	"\3730iU\\\272\305\3560\257d\326\2131\206\230n\221R\003"
 297      5CBAC5EE 
 297      30AF64D6 
 297      8B318698 
 297      6E915203 
 298 05a7 7C5F231A 		.ascii	"|_#\032\253\323\355\266\245Y$\233\230b\361H\242\323"
 298      ABD3EDB6 
 298      A559249B 
 298      9862F148 
 298      A2D3
 299 05b9 25891847 		.ascii	"%\211\030G/\212\031\030u\351\333\242\024\242N\022\237"
 299      2F8A1918 
 299      75E9DBA2 
 299      14A24E12 
 299      9F
 300 05ca 899BE4CC 		.ascii	"\211\233\344\314p[m\346D{\232ds\333\035\353\0223\034"
 300      705B6DE6 
 300      447B9A64 
 300      73DB1DEB 
 300      12331C
 301 05dd 56C9EE74 		.ascii	"V\311\356tx\314s\3075Y9\003y\213iI#\353\3709\331&{\\"
 301      78CC73C7 
 301      35593903 
 301      798B6949 
 301      23EBF839 
 302 05f5 8B3D192E 		.ascii	"\213=\031.\222\0131E\215\214\244\015,\270+\223\270\263"
 302      920B3145 
 302      8D8CA40D 
 302      2CB82B93 
 302      B8B3
 303 0607 F21372C1 		.ascii	"\362\023r\301\312s\336\372\245\361\242\244\263\246Z"
 303      CA73DEFA 
 303      A5F1A2A4 
 303      B3A65A
 304 0616 DCFF022B 		.ascii	"\334\377\002+\261r\237"
 304      B1729F
 305              		.text
 306              		.section	.gnu.lto_.symtab.d618f282,"",%progbits
 307 0000 61726D5F 		.ascii	"arm_correlate_fast_opt_q15\000"
 307      636F7272 
 307      656C6174 
 307      655F6661 
 307      73745F6F 
 308 001b 00       		.ascii	"\000"
 309 001c 00       		.ascii	"\000"
ARM GAS  C:\Users\rdn\AppData\Local\Temp\ccMeiDZL.s 			page 24


 310 001d 00       		.ascii	"\000"
 311 001e 00000000 		.ascii	"\000\000\000\000\000\000\000\000"
 311      00000000 
 312 0026 CB000000 		.ascii	"\313\000\000\000"
 313 002a 61726D5F 		.ascii	"arm_fill_q15\000"
 313      66696C6C 
 313      5F713135 
 313      00
 314 0037 00       		.ascii	"\000"
 315 0038 02       		.ascii	"\002"
 316 0039 00       		.ascii	"\000"
 317 003a 00000000 		.ascii	"\000\000\000\000\000\000\000\000"
 317      00000000 
 318 0042 D1000000 		.ascii	"\321\000\000\000"
 319 0046 61726D5F 		.ascii	"arm_copy_q15\000"
 319      636F7079 
 319      5F713135 
 319      00
 320 0053 00       		.ascii	"\000"
 321 0054 02       		.ascii	"\002"
 322 0055 00       		.ascii	"\000"
 323 0056 00000000 		.ascii	"\000\000\000\000\000\000\000\000"
 323      00000000 
 324 005e D7000000 		.ascii	"\327\000\000\000"
 325              		.text
 326              		.section	.gnu.lto_.opts,"",%progbits
 327 0000 272D666D 		.ascii	"'-fmath-errno' '-fsigned-zeros' '-ftrapping-math' '"
 327      6174682D 
 327      6572726E 
 327      6F272027 
 327      2D667369 
 328 0033 2D666E6F 		.ascii	"-fno-trapv' '-fno-openmp' '-fno-openacc' '-mcpu=cor"
 328      2D747261 
 328      70762720 
 328      272D666E 
 328      6F2D6F70 
 329 0066 7465782D 		.ascii	"tex-m4' '-mfloat-abi=softfp' '-mfpu=fpv4-sp-d16' '-"
 329      6D342720 
 329      272D6D66 
 329      6C6F6174 
 329      2D616269 
 330 0099 6D746875 		.ascii	"mthumb' '-g' '-O3' '-ffunction-sections' '-ffat-lto"
 330      6D622720 
 330      272D6727 
 330      20272D4F 
 330      33272027 
 331 00cc 2D6F626A 		.ascii	"-objects' '-finline-functions' '-flto'\000"
 331      65637473 
 331      2720272D 
 331      66696E6C 
 331      696E652D 
 332              		.text
 333              		.cfi_sections	.debug_frame
 334              		.section	.text.arm_correlate_fast_opt_q15,"ax",%progbits
 335              		.align	2
 336              		.global	arm_correlate_fast_opt_q15
 337              		.thumb
ARM GAS  C:\Users\rdn\AppData\Local\Temp\ccMeiDZL.s 			page 25


 338              		.thumb_func
 339              		.type	arm_correlate_fast_opt_q15, %function
 340              	arm_correlate_fast_opt_q15:
 341              	.LFB123:
 342              		.file 1 "CMSIS-DSP-main\\Source\\FilteringFunctions\\arm_correlate_fast_opt_q15.c"
   1:CMSIS-DSP-main\Source\FilteringFunctions/arm_correlate_fast_opt_q15.c **** /* ----------------------------------------------------------------------
   2:CMSIS-DSP-main\Source\FilteringFunctions/arm_correlate_fast_opt_q15.c ****  * Project:      CMSIS DSP Library
   3:CMSIS-DSP-main\Source\FilteringFunctions/arm_correlate_fast_opt_q15.c ****  * Title:        arm_correlate_fast_opt_q15.c
   4:CMSIS-DSP-main\Source\FilteringFunctions/arm_correlate_fast_opt_q15.c ****  * Description:  Fast Q15 Correlation
   5:CMSIS-DSP-main\Source\FilteringFunctions/arm_correlate_fast_opt_q15.c ****  *
   6:CMSIS-DSP-main\Source\FilteringFunctions/arm_correlate_fast_opt_q15.c ****  * $Date:        23 April 2021
   7:CMSIS-DSP-main\Source\FilteringFunctions/arm_correlate_fast_opt_q15.c ****  * $Revision:    V1.9.0
   8:CMSIS-DSP-main\Source\FilteringFunctions/arm_correlate_fast_opt_q15.c ****  *
   9:CMSIS-DSP-main\Source\FilteringFunctions/arm_correlate_fast_opt_q15.c ****  * Target Processor: Cortex-M and Cortex-A cores
  10:CMSIS-DSP-main\Source\FilteringFunctions/arm_correlate_fast_opt_q15.c ****  * -------------------------------------------------------------------- */
  11:CMSIS-DSP-main\Source\FilteringFunctions/arm_correlate_fast_opt_q15.c **** /*
  12:CMSIS-DSP-main\Source\FilteringFunctions/arm_correlate_fast_opt_q15.c ****  * Copyright (C) 2010-2021 ARM Limited or its affiliates. All rights reserved.
  13:CMSIS-DSP-main\Source\FilteringFunctions/arm_correlate_fast_opt_q15.c ****  *
  14:CMSIS-DSP-main\Source\FilteringFunctions/arm_correlate_fast_opt_q15.c ****  * SPDX-License-Identifier: Apache-2.0
  15:CMSIS-DSP-main\Source\FilteringFunctions/arm_correlate_fast_opt_q15.c ****  *
  16:CMSIS-DSP-main\Source\FilteringFunctions/arm_correlate_fast_opt_q15.c ****  * Licensed under the Apache License, Version 2.0 (the License); you may
  17:CMSIS-DSP-main\Source\FilteringFunctions/arm_correlate_fast_opt_q15.c ****  * not use this file except in compliance with the License.
  18:CMSIS-DSP-main\Source\FilteringFunctions/arm_correlate_fast_opt_q15.c ****  * You may obtain a copy of the License at
  19:CMSIS-DSP-main\Source\FilteringFunctions/arm_correlate_fast_opt_q15.c ****  *
  20:CMSIS-DSP-main\Source\FilteringFunctions/arm_correlate_fast_opt_q15.c ****  * www.apache.org/licenses/LICENSE-2.0
  21:CMSIS-DSP-main\Source\FilteringFunctions/arm_correlate_fast_opt_q15.c ****  *
  22:CMSIS-DSP-main\Source\FilteringFunctions/arm_correlate_fast_opt_q15.c ****  * Unless required by applicable law or agreed to in writing, software
  23:CMSIS-DSP-main\Source\FilteringFunctions/arm_correlate_fast_opt_q15.c ****  * distributed under the License is distributed on an AS IS BASIS, WITHOUT
  24:CMSIS-DSP-main\Source\FilteringFunctions/arm_correlate_fast_opt_q15.c ****  * WARRANTIES OR CONDITIONS OF ANY KIND, either express or implied.
  25:CMSIS-DSP-main\Source\FilteringFunctions/arm_correlate_fast_opt_q15.c ****  * See the License for the specific language governing permissions and
  26:CMSIS-DSP-main\Source\FilteringFunctions/arm_correlate_fast_opt_q15.c ****  * limitations under the License.
  27:CMSIS-DSP-main\Source\FilteringFunctions/arm_correlate_fast_opt_q15.c ****  */
  28:CMSIS-DSP-main\Source\FilteringFunctions/arm_correlate_fast_opt_q15.c **** 
  29:CMSIS-DSP-main\Source\FilteringFunctions/arm_correlate_fast_opt_q15.c **** #include "dsp/filtering_functions.h"
  30:CMSIS-DSP-main\Source\FilteringFunctions/arm_correlate_fast_opt_q15.c **** 
  31:CMSIS-DSP-main\Source\FilteringFunctions/arm_correlate_fast_opt_q15.c **** /**
  32:CMSIS-DSP-main\Source\FilteringFunctions/arm_correlate_fast_opt_q15.c ****   @ingroup groupFilters
  33:CMSIS-DSP-main\Source\FilteringFunctions/arm_correlate_fast_opt_q15.c ****  */
  34:CMSIS-DSP-main\Source\FilteringFunctions/arm_correlate_fast_opt_q15.c **** 
  35:CMSIS-DSP-main\Source\FilteringFunctions/arm_correlate_fast_opt_q15.c **** /**
  36:CMSIS-DSP-main\Source\FilteringFunctions/arm_correlate_fast_opt_q15.c ****   @addtogroup Corr
  37:CMSIS-DSP-main\Source\FilteringFunctions/arm_correlate_fast_opt_q15.c ****   @{
  38:CMSIS-DSP-main\Source\FilteringFunctions/arm_correlate_fast_opt_q15.c ****  */
  39:CMSIS-DSP-main\Source\FilteringFunctions/arm_correlate_fast_opt_q15.c **** 
  40:CMSIS-DSP-main\Source\FilteringFunctions/arm_correlate_fast_opt_q15.c **** /**
  41:CMSIS-DSP-main\Source\FilteringFunctions/arm_correlate_fast_opt_q15.c ****   @brief         Correlation of Q15 sequences (fast version).
  42:CMSIS-DSP-main\Source\FilteringFunctions/arm_correlate_fast_opt_q15.c ****   @param[in]     pSrcA      points to the first input sequence
  43:CMSIS-DSP-main\Source\FilteringFunctions/arm_correlate_fast_opt_q15.c ****   @param[in]     srcALen    length of the first input sequence
  44:CMSIS-DSP-main\Source\FilteringFunctions/arm_correlate_fast_opt_q15.c ****   @param[in]     pSrcB      points to the second input sequence
  45:CMSIS-DSP-main\Source\FilteringFunctions/arm_correlate_fast_opt_q15.c ****   @param[in]     srcBLen    length of the second input sequence.
  46:CMSIS-DSP-main\Source\FilteringFunctions/arm_correlate_fast_opt_q15.c ****   @param[out]    pDst       points to the location where the output result is written.  Length 2 * 
  47:CMSIS-DSP-main\Source\FilteringFunctions/arm_correlate_fast_opt_q15.c ****   @param[in]     pScratch   points to scratch buffer of size max(srcALen, srcBLen) + 2*min(srcALen,
  48:CMSIS-DSP-main\Source\FilteringFunctions/arm_correlate_fast_opt_q15.c **** 
  49:CMSIS-DSP-main\Source\FilteringFunctions/arm_correlate_fast_opt_q15.c ****   @par           Scaling and Overflow Behavior
  50:CMSIS-DSP-main\Source\FilteringFunctions/arm_correlate_fast_opt_q15.c ****                    This fast version uses a 32-bit accumulator with 2.30 format.
  51:CMSIS-DSP-main\Source\FilteringFunctions/arm_correlate_fast_opt_q15.c ****                    The accumulator maintains full precision of the intermediate multiplication resu
  52:CMSIS-DSP-main\Source\FilteringFunctions/arm_correlate_fast_opt_q15.c ****                    There is no saturation on intermediate additions.
ARM GAS  C:\Users\rdn\AppData\Local\Temp\ccMeiDZL.s 			page 26


  53:CMSIS-DSP-main\Source\FilteringFunctions/arm_correlate_fast_opt_q15.c ****                    Thus, if the accumulator overflows it wraps around and distorts the result.
  54:CMSIS-DSP-main\Source\FilteringFunctions/arm_correlate_fast_opt_q15.c ****                    The input signals should be scaled down to avoid intermediate overflows.
  55:CMSIS-DSP-main\Source\FilteringFunctions/arm_correlate_fast_opt_q15.c ****                    Scale down one of the inputs by 1/min(srcALen, srcBLen) to avoid overflow since 
  56:CMSIS-DSP-main\Source\FilteringFunctions/arm_correlate_fast_opt_q15.c ****                    maximum of min(srcALen, srcBLen) number of additions is carried internally.
  57:CMSIS-DSP-main\Source\FilteringFunctions/arm_correlate_fast_opt_q15.c ****                    The 2.30 accumulator is right shifted by 15 bits and then saturated to 1.15 form
  58:CMSIS-DSP-main\Source\FilteringFunctions/arm_correlate_fast_opt_q15.c **** 
  59:CMSIS-DSP-main\Source\FilteringFunctions/arm_correlate_fast_opt_q15.c ****   @remark
  60:CMSIS-DSP-main\Source\FilteringFunctions/arm_correlate_fast_opt_q15.c ****                    Refer to \ref arm_correlate_q15() for a slower implementation of this function w
  61:CMSIS-DSP-main\Source\FilteringFunctions/arm_correlate_fast_opt_q15.c ****  */
  62:CMSIS-DSP-main\Source\FilteringFunctions/arm_correlate_fast_opt_q15.c **** 
  63:CMSIS-DSP-main\Source\FilteringFunctions/arm_correlate_fast_opt_q15.c **** void arm_correlate_fast_opt_q15(
  64:CMSIS-DSP-main\Source\FilteringFunctions/arm_correlate_fast_opt_q15.c ****   const q15_t * pSrcA,
  65:CMSIS-DSP-main\Source\FilteringFunctions/arm_correlate_fast_opt_q15.c ****         uint32_t srcALen,
  66:CMSIS-DSP-main\Source\FilteringFunctions/arm_correlate_fast_opt_q15.c ****   const q15_t * pSrcB,
  67:CMSIS-DSP-main\Source\FilteringFunctions/arm_correlate_fast_opt_q15.c ****         uint32_t srcBLen,
  68:CMSIS-DSP-main\Source\FilteringFunctions/arm_correlate_fast_opt_q15.c ****         q15_t * pDst,
  69:CMSIS-DSP-main\Source\FilteringFunctions/arm_correlate_fast_opt_q15.c ****         q15_t * pScratch)
  70:CMSIS-DSP-main\Source\FilteringFunctions/arm_correlate_fast_opt_q15.c **** {
 343              		.loc 1 70 0
 344              		.cfi_startproc
 345              		@ args = 8, pretend = 0, frame = 16
 346              		@ frame_needed = 0, uses_anonymous_args = 0
 347              	.LVL0:
 348 0000 2DE9F04F 		push	{r4, r5, r6, r7, r8, r9, r10, fp, lr}
 349              		.cfi_def_cfa_offset 36
 350              		.cfi_offset 4, -36
 351              		.cfi_offset 5, -32
 352              		.cfi_offset 6, -28
 353              		.cfi_offset 7, -24
 354              		.cfi_offset 8, -20
 355              		.cfi_offset 9, -16
 356              		.cfi_offset 10, -12
 357              		.cfi_offset 11, -8
 358              		.cfi_offset 14, -4
 359 0004 85B0     		sub	sp, sp, #20
 360              		.cfi_def_cfa_offset 56
  71:CMSIS-DSP-main\Source\FilteringFunctions/arm_correlate_fast_opt_q15.c ****   const q15_t *pIn1;                                   /* InputA pointer */
  72:CMSIS-DSP-main\Source\FilteringFunctions/arm_correlate_fast_opt_q15.c ****   const q15_t *pIn2;                                   /* InputB pointer */
  73:CMSIS-DSP-main\Source\FilteringFunctions/arm_correlate_fast_opt_q15.c ****         q31_t acc0;                                    /* Accumulators */
  74:CMSIS-DSP-main\Source\FilteringFunctions/arm_correlate_fast_opt_q15.c ****         q15_t *pOut = pDst;                            /* Output pointer */
  75:CMSIS-DSP-main\Source\FilteringFunctions/arm_correlate_fast_opt_q15.c ****         q15_t *pScr1 = pScratch;                       /* Temporary pointer for scratch */
  76:CMSIS-DSP-main\Source\FilteringFunctions/arm_correlate_fast_opt_q15.c ****   const q15_t *py;                                     /* Intermediate inputB pointer */
  77:CMSIS-DSP-main\Source\FilteringFunctions/arm_correlate_fast_opt_q15.c ****         uint32_t j, blkCnt, outBlockSize;              /* Loop counter */
  78:CMSIS-DSP-main\Source\FilteringFunctions/arm_correlate_fast_opt_q15.c ****         int32_t inc = 1;                               /* Destination address modifier */
  79:CMSIS-DSP-main\Source\FilteringFunctions/arm_correlate_fast_opt_q15.c ****         uint32_t tapCnt;                               /* Loop count */
  80:CMSIS-DSP-main\Source\FilteringFunctions/arm_correlate_fast_opt_q15.c **** 
  81:CMSIS-DSP-main\Source\FilteringFunctions/arm_correlate_fast_opt_q15.c **** #if defined (ARM_MATH_LOOPUNROLL)
  82:CMSIS-DSP-main\Source\FilteringFunctions/arm_correlate_fast_opt_q15.c ****         q31_t acc1, acc2, acc3;                        /* Accumulators */
  83:CMSIS-DSP-main\Source\FilteringFunctions/arm_correlate_fast_opt_q15.c ****         q31_t x1, x2, x3;                              /* Temporary variables for holding input and
  84:CMSIS-DSP-main\Source\FilteringFunctions/arm_correlate_fast_opt_q15.c ****         q31_t y1, y2;                                  /* State variables */
  85:CMSIS-DSP-main\Source\FilteringFunctions/arm_correlate_fast_opt_q15.c **** #endif
  86:CMSIS-DSP-main\Source\FilteringFunctions/arm_correlate_fast_opt_q15.c **** 
  87:CMSIS-DSP-main\Source\FilteringFunctions/arm_correlate_fast_opt_q15.c ****   /* The algorithm implementation is based on the lengths of the inputs. */
  88:CMSIS-DSP-main\Source\FilteringFunctions/arm_correlate_fast_opt_q15.c ****   /* srcB is always made to slide across srcA. */
  89:CMSIS-DSP-main\Source\FilteringFunctions/arm_correlate_fast_opt_q15.c ****   /* So srcBLen is always considered as shorter or equal to srcALen */
  90:CMSIS-DSP-main\Source\FilteringFunctions/arm_correlate_fast_opt_q15.c ****   /* But CORR(x, y) is reverse of CORR(y, x) */
  91:CMSIS-DSP-main\Source\FilteringFunctions/arm_correlate_fast_opt_q15.c ****   /* So, when srcBLen > srcALen, output pointer is made to point to the end of the output buffer */
ARM GAS  C:\Users\rdn\AppData\Local\Temp\ccMeiDZL.s 			page 27


  92:CMSIS-DSP-main\Source\FilteringFunctions/arm_correlate_fast_opt_q15.c ****   /* and the destination pointer modifier, inc is set to -1 */
  93:CMSIS-DSP-main\Source\FilteringFunctions/arm_correlate_fast_opt_q15.c ****   /* If srcALen > srcBLen, zero pad has to be done to srcB to make the two inputs of same length */
  94:CMSIS-DSP-main\Source\FilteringFunctions/arm_correlate_fast_opt_q15.c ****   /* But to improve the performance,
  95:CMSIS-DSP-main\Source\FilteringFunctions/arm_correlate_fast_opt_q15.c ****    * we include zeroes in the output instead of zero padding either of the the inputs*/
  96:CMSIS-DSP-main\Source\FilteringFunctions/arm_correlate_fast_opt_q15.c ****   /* If srcALen > srcBLen,
  97:CMSIS-DSP-main\Source\FilteringFunctions/arm_correlate_fast_opt_q15.c ****    * (srcALen - srcBLen) zeroes has to included in the starting of the output buffer */
  98:CMSIS-DSP-main\Source\FilteringFunctions/arm_correlate_fast_opt_q15.c ****   /* If srcALen < srcBLen,
  99:CMSIS-DSP-main\Source\FilteringFunctions/arm_correlate_fast_opt_q15.c ****    * (srcALen - srcBLen) zeroes has to included in the ending of the output buffer */
 100:CMSIS-DSP-main\Source\FilteringFunctions/arm_correlate_fast_opt_q15.c ****   if (srcALen >= srcBLen)
 361              		.loc 1 100 0
 362 0006 9942     		cmp	r1, r3
  70:CMSIS-DSP-main\Source\FilteringFunctions/arm_correlate_fast_opt_q15.c ****   const q15_t *pIn1;                                   /* InputA pointer */
 363              		.loc 1 70 0
 364 0008 0D46     		mov	r5, r1
 365 000a 9846     		mov	r8, r3
 366 000c 8346     		mov	fp, r0
 367 000e 1746     		mov	r7, r2
 368 0010 0E9E     		ldr	r6, [sp, #56]
 369              	.LVL1:
 370 0012 0F9C     		ldr	r4, [sp, #60]
 371              	.LVL2:
 372              		.loc 1 100 0
 373 0014 66D3     		bcc	.L2
 374              	.LVL3:
 101:CMSIS-DSP-main\Source\FilteringFunctions/arm_correlate_fast_opt_q15.c ****   {
 102:CMSIS-DSP-main\Source\FilteringFunctions/arm_correlate_fast_opt_q15.c ****     /* Initialization of inputA pointer */
 103:CMSIS-DSP-main\Source\FilteringFunctions/arm_correlate_fast_opt_q15.c ****     pIn1 = pSrcA;
 104:CMSIS-DSP-main\Source\FilteringFunctions/arm_correlate_fast_opt_q15.c **** 
 105:CMSIS-DSP-main\Source\FilteringFunctions/arm_correlate_fast_opt_q15.c ****     /* Initialization of inputB pointer */
 106:CMSIS-DSP-main\Source\FilteringFunctions/arm_correlate_fast_opt_q15.c ****     pIn2 = pSrcB;
 107:CMSIS-DSP-main\Source\FilteringFunctions/arm_correlate_fast_opt_q15.c **** 
 108:CMSIS-DSP-main\Source\FilteringFunctions/arm_correlate_fast_opt_q15.c ****     /* Number of output samples is calculated */
 109:CMSIS-DSP-main\Source\FilteringFunctions/arm_correlate_fast_opt_q15.c ****     outBlockSize = (2U * srcALen) - 1U;
 110:CMSIS-DSP-main\Source\FilteringFunctions/arm_correlate_fast_opt_q15.c **** 
 111:CMSIS-DSP-main\Source\FilteringFunctions/arm_correlate_fast_opt_q15.c ****     /* When srcALen > srcBLen, zero padding is done to srcB
 112:CMSIS-DSP-main\Source\FilteringFunctions/arm_correlate_fast_opt_q15.c ****      * to make their lengths equal.
 113:CMSIS-DSP-main\Source\FilteringFunctions/arm_correlate_fast_opt_q15.c ****      * Instead, (outBlockSize - (srcALen + srcBLen - 1))
 114:CMSIS-DSP-main\Source\FilteringFunctions/arm_correlate_fast_opt_q15.c ****      * number of output samples are made zero */
 115:CMSIS-DSP-main\Source\FilteringFunctions/arm_correlate_fast_opt_q15.c ****     j = outBlockSize - (srcALen + (srcBLen - 1U));
 116:CMSIS-DSP-main\Source\FilteringFunctions/arm_correlate_fast_opt_q15.c **** 
 117:CMSIS-DSP-main\Source\FilteringFunctions/arm_correlate_fast_opt_q15.c ****     /* Updating the pointer position to non zero value */
 118:CMSIS-DSP-main\Source\FilteringFunctions/arm_correlate_fast_opt_q15.c ****     pOut += j;
 375              		.loc 1 118 0
 376 0016 CB1A     		subs	r3, r1, r3
 377              	.LVL4:
 378 0018 0222     		movs	r2, #2
 379              	.LVL5:
 380 001a 06EB4306 		add	r6, r6, r3, lsl #1
 381              	.LVL6:
 382 001e 0192     		str	r2, [sp, #4]
 109:CMSIS-DSP-main\Source\FilteringFunctions/arm_correlate_fast_opt_q15.c **** 
 383              		.loc 1 109 0
 384 0020 4B00     		lsls	r3, r1, #1
 385              	.LVL7:
 386              	.L3:
 119:CMSIS-DSP-main\Source\FilteringFunctions/arm_correlate_fast_opt_q15.c ****   }
 120:CMSIS-DSP-main\Source\FilteringFunctions/arm_correlate_fast_opt_q15.c ****   else
ARM GAS  C:\Users\rdn\AppData\Local\Temp\ccMeiDZL.s 			page 28


 121:CMSIS-DSP-main\Source\FilteringFunctions/arm_correlate_fast_opt_q15.c ****   {
 122:CMSIS-DSP-main\Source\FilteringFunctions/arm_correlate_fast_opt_q15.c ****     /* Initialization of inputA pointer */
 123:CMSIS-DSP-main\Source\FilteringFunctions/arm_correlate_fast_opt_q15.c ****     pIn1 = pSrcB;
 124:CMSIS-DSP-main\Source\FilteringFunctions/arm_correlate_fast_opt_q15.c **** 
 125:CMSIS-DSP-main\Source\FilteringFunctions/arm_correlate_fast_opt_q15.c ****     /* Initialization of inputB pointer */
 126:CMSIS-DSP-main\Source\FilteringFunctions/arm_correlate_fast_opt_q15.c ****     pIn2 = pSrcA;
 127:CMSIS-DSP-main\Source\FilteringFunctions/arm_correlate_fast_opt_q15.c **** 
 128:CMSIS-DSP-main\Source\FilteringFunctions/arm_correlate_fast_opt_q15.c ****     /* srcBLen is always considered as shorter or equal to srcALen */
 129:CMSIS-DSP-main\Source\FilteringFunctions/arm_correlate_fast_opt_q15.c ****     j = srcBLen;
 130:CMSIS-DSP-main\Source\FilteringFunctions/arm_correlate_fast_opt_q15.c ****     srcBLen = srcALen;
 131:CMSIS-DSP-main\Source\FilteringFunctions/arm_correlate_fast_opt_q15.c ****     srcALen = j;
 132:CMSIS-DSP-main\Source\FilteringFunctions/arm_correlate_fast_opt_q15.c **** 
 133:CMSIS-DSP-main\Source\FilteringFunctions/arm_correlate_fast_opt_q15.c ****     /* CORR(x, y) = Reverse order(CORR(y, x)) */
 134:CMSIS-DSP-main\Source\FilteringFunctions/arm_correlate_fast_opt_q15.c ****     /* Hence set the destination pointer to point to the last output sample */
 135:CMSIS-DSP-main\Source\FilteringFunctions/arm_correlate_fast_opt_q15.c ****     pOut = pDst + ((srcALen + srcBLen) - 2U);
 136:CMSIS-DSP-main\Source\FilteringFunctions/arm_correlate_fast_opt_q15.c **** 
 137:CMSIS-DSP-main\Source\FilteringFunctions/arm_correlate_fast_opt_q15.c ****     /* Destination address modifier is set to -1 */
 138:CMSIS-DSP-main\Source\FilteringFunctions/arm_correlate_fast_opt_q15.c ****     inc = -1;
 139:CMSIS-DSP-main\Source\FilteringFunctions/arm_correlate_fast_opt_q15.c ****   }
 140:CMSIS-DSP-main\Source\FilteringFunctions/arm_correlate_fast_opt_q15.c **** 
 141:CMSIS-DSP-main\Source\FilteringFunctions/arm_correlate_fast_opt_q15.c ****   pScr1 = pScratch;
 142:CMSIS-DSP-main\Source\FilteringFunctions/arm_correlate_fast_opt_q15.c **** 
 143:CMSIS-DSP-main\Source\FilteringFunctions/arm_correlate_fast_opt_q15.c ****   /* Fill (srcBLen - 1U) zeros in scratch buffer */
 144:CMSIS-DSP-main\Source\FilteringFunctions/arm_correlate_fast_opt_q15.c ****   arm_fill_q15(0, pScr1, (srcBLen - 1U));
 145:CMSIS-DSP-main\Source\FilteringFunctions/arm_correlate_fast_opt_q15.c **** 
 146:CMSIS-DSP-main\Source\FilteringFunctions/arm_correlate_fast_opt_q15.c ****   /* Update temporary scratch pointer */
 147:CMSIS-DSP-main\Source\FilteringFunctions/arm_correlate_fast_opt_q15.c ****   pScr1 += (srcBLen - 1U);
 387              		.loc 1 147 0
 388 0022 08F10049 		add	r9, r8, #-2147483648
 144:CMSIS-DSP-main\Source\FilteringFunctions/arm_correlate_fast_opt_q15.c **** 
 389              		.loc 1 144 0
 390 0026 08F1FF3A 		add	r10, r8, #-1
 391              		.loc 1 147 0
 392 002a 09F1FF39 		add	r9, r9, #-1
 393 002e 04EB4909 		add	r9, r4, r9, lsl #1
 144:CMSIS-DSP-main\Source\FilteringFunctions/arm_correlate_fast_opt_q15.c **** 
 394              		.loc 1 144 0
 395 0032 5246     		mov	r2, r10
 396 0034 2146     		mov	r1, r4
 397 0036 0020     		movs	r0, #0
 398              	.LVL8:
 399 0038 0293     		str	r3, [sp, #8]
 400 003a FFF7FEFF 		bl	arm_fill_q15
 401              	.LVL9:
 148:CMSIS-DSP-main\Source\FilteringFunctions/arm_correlate_fast_opt_q15.c **** 
 149:CMSIS-DSP-main\Source\FilteringFunctions/arm_correlate_fast_opt_q15.c **** 
 150:CMSIS-DSP-main\Source\FilteringFunctions/arm_correlate_fast_opt_q15.c ****   /* Copy (srcALen) samples in scratch buffer */
 151:CMSIS-DSP-main\Source\FilteringFunctions/arm_correlate_fast_opt_q15.c ****   arm_copy_q15(pIn1, pScr1, srcALen);
 402              		.loc 1 151 0
 403 003e 4946     		mov	r1, r9
 404 0040 2A46     		mov	r2, r5
 405 0042 5846     		mov	r0, fp
 406 0044 FFF7FEFF 		bl	arm_copy_q15
 407              	.LVL10:
 152:CMSIS-DSP-main\Source\FilteringFunctions/arm_correlate_fast_opt_q15.c **** 
 153:CMSIS-DSP-main\Source\FilteringFunctions/arm_correlate_fast_opt_q15.c ****   /* Update pointers */
 154:CMSIS-DSP-main\Source\FilteringFunctions/arm_correlate_fast_opt_q15.c ****   pScr1 += srcALen;
ARM GAS  C:\Users\rdn\AppData\Local\Temp\ccMeiDZL.s 			page 29


 155:CMSIS-DSP-main\Source\FilteringFunctions/arm_correlate_fast_opt_q15.c **** 
 156:CMSIS-DSP-main\Source\FilteringFunctions/arm_correlate_fast_opt_q15.c **** 
 157:CMSIS-DSP-main\Source\FilteringFunctions/arm_correlate_fast_opt_q15.c ****   /* Fill (srcBLen - 1U) zeros at end of scratch buffer */
 158:CMSIS-DSP-main\Source\FilteringFunctions/arm_correlate_fast_opt_q15.c ****   arm_fill_q15(0, pScr1, (srcBLen - 1U));
 408              		.loc 1 158 0
 409 0048 029B     		ldr	r3, [sp, #8]
 410 004a 5246     		mov	r2, r10
 411 004c 09EB0301 		add	r1, r9, r3
 412              	.LVL11:
 413 0050 0020     		movs	r0, #0
 159:CMSIS-DSP-main\Source\FilteringFunctions/arm_correlate_fast_opt_q15.c **** 
 160:CMSIS-DSP-main\Source\FilteringFunctions/arm_correlate_fast_opt_q15.c ****   /* Update pointer */
 161:CMSIS-DSP-main\Source\FilteringFunctions/arm_correlate_fast_opt_q15.c ****   pScr1 += (srcBLen - 1U);
 162:CMSIS-DSP-main\Source\FilteringFunctions/arm_correlate_fast_opt_q15.c **** 
 163:CMSIS-DSP-main\Source\FilteringFunctions/arm_correlate_fast_opt_q15.c ****   /* Temporary pointer for scratch2 */
 164:CMSIS-DSP-main\Source\FilteringFunctions/arm_correlate_fast_opt_q15.c ****   py = pIn2;
 165:CMSIS-DSP-main\Source\FilteringFunctions/arm_correlate_fast_opt_q15.c **** 
 166:CMSIS-DSP-main\Source\FilteringFunctions/arm_correlate_fast_opt_q15.c **** 
 167:CMSIS-DSP-main\Source\FilteringFunctions/arm_correlate_fast_opt_q15.c ****   /* Actual correlation process starts here */
 168:CMSIS-DSP-main\Source\FilteringFunctions/arm_correlate_fast_opt_q15.c **** 
 169:CMSIS-DSP-main\Source\FilteringFunctions/arm_correlate_fast_opt_q15.c **** #if defined (ARM_MATH_LOOPUNROLL)
 170:CMSIS-DSP-main\Source\FilteringFunctions/arm_correlate_fast_opt_q15.c **** 
 171:CMSIS-DSP-main\Source\FilteringFunctions/arm_correlate_fast_opt_q15.c ****   /* Loop unrolling: Compute 4 outputs at a time */
 172:CMSIS-DSP-main\Source\FilteringFunctions/arm_correlate_fast_opt_q15.c ****   blkCnt = (srcALen + srcBLen - 1U) >> 2;
 173:CMSIS-DSP-main\Source\FilteringFunctions/arm_correlate_fast_opt_q15.c **** 
 174:CMSIS-DSP-main\Source\FilteringFunctions/arm_correlate_fast_opt_q15.c ****   while (blkCnt > 0)
 175:CMSIS-DSP-main\Source\FilteringFunctions/arm_correlate_fast_opt_q15.c ****   {
 176:CMSIS-DSP-main\Source\FilteringFunctions/arm_correlate_fast_opt_q15.c ****     /* Initialze temporary scratch pointer as scratch1 */
 177:CMSIS-DSP-main\Source\FilteringFunctions/arm_correlate_fast_opt_q15.c ****     pScr1 = pScratch;
 178:CMSIS-DSP-main\Source\FilteringFunctions/arm_correlate_fast_opt_q15.c **** 
 179:CMSIS-DSP-main\Source\FilteringFunctions/arm_correlate_fast_opt_q15.c ****     /* Clear Accumlators */
 180:CMSIS-DSP-main\Source\FilteringFunctions/arm_correlate_fast_opt_q15.c ****     acc0 = 0;
 181:CMSIS-DSP-main\Source\FilteringFunctions/arm_correlate_fast_opt_q15.c ****     acc1 = 0;
 182:CMSIS-DSP-main\Source\FilteringFunctions/arm_correlate_fast_opt_q15.c ****     acc2 = 0;
 183:CMSIS-DSP-main\Source\FilteringFunctions/arm_correlate_fast_opt_q15.c ****     acc3 = 0;
 184:CMSIS-DSP-main\Source\FilteringFunctions/arm_correlate_fast_opt_q15.c **** 
 185:CMSIS-DSP-main\Source\FilteringFunctions/arm_correlate_fast_opt_q15.c ****     /* Read two samples from scratch buffer */
 186:CMSIS-DSP-main\Source\FilteringFunctions/arm_correlate_fast_opt_q15.c ****     x1 = read_q15x2_ia (&pScr1);
 187:CMSIS-DSP-main\Source\FilteringFunctions/arm_correlate_fast_opt_q15.c **** 
 188:CMSIS-DSP-main\Source\FilteringFunctions/arm_correlate_fast_opt_q15.c ****     /* Read next two samples from scratch buffer */
 189:CMSIS-DSP-main\Source\FilteringFunctions/arm_correlate_fast_opt_q15.c ****     x2 = read_q15x2_ia (&pScr1);
 190:CMSIS-DSP-main\Source\FilteringFunctions/arm_correlate_fast_opt_q15.c **** 
 191:CMSIS-DSP-main\Source\FilteringFunctions/arm_correlate_fast_opt_q15.c ****     tapCnt = (srcBLen) >> 2U;
 192:CMSIS-DSP-main\Source\FilteringFunctions/arm_correlate_fast_opt_q15.c **** 
 193:CMSIS-DSP-main\Source\FilteringFunctions/arm_correlate_fast_opt_q15.c ****     while (tapCnt > 0U)
 194:CMSIS-DSP-main\Source\FilteringFunctions/arm_correlate_fast_opt_q15.c ****     {
 195:CMSIS-DSP-main\Source\FilteringFunctions/arm_correlate_fast_opt_q15.c ****       /* Read four samples from smaller buffer */
 196:CMSIS-DSP-main\Source\FilteringFunctions/arm_correlate_fast_opt_q15.c ****       y1 = read_q15x2_ia ((q15_t **) &pIn2);
 197:CMSIS-DSP-main\Source\FilteringFunctions/arm_correlate_fast_opt_q15.c ****       y2 = read_q15x2_ia ((q15_t **) &pIn2);
 198:CMSIS-DSP-main\Source\FilteringFunctions/arm_correlate_fast_opt_q15.c **** 
 199:CMSIS-DSP-main\Source\FilteringFunctions/arm_correlate_fast_opt_q15.c ****       /* multiply and accumulate */
 200:CMSIS-DSP-main\Source\FilteringFunctions/arm_correlate_fast_opt_q15.c ****       acc0 = __SMLAD(x1, y1, acc0);
 201:CMSIS-DSP-main\Source\FilteringFunctions/arm_correlate_fast_opt_q15.c ****       acc2 = __SMLAD(x2, y1, acc2);
 202:CMSIS-DSP-main\Source\FilteringFunctions/arm_correlate_fast_opt_q15.c **** 
 203:CMSIS-DSP-main\Source\FilteringFunctions/arm_correlate_fast_opt_q15.c ****       /* pack input data */
 204:CMSIS-DSP-main\Source\FilteringFunctions/arm_correlate_fast_opt_q15.c **** #ifndef ARM_MATH_BIG_ENDIAN
 205:CMSIS-DSP-main\Source\FilteringFunctions/arm_correlate_fast_opt_q15.c ****       x3 = __PKHBT(x2, x1, 0);
ARM GAS  C:\Users\rdn\AppData\Local\Temp\ccMeiDZL.s 			page 30


 206:CMSIS-DSP-main\Source\FilteringFunctions/arm_correlate_fast_opt_q15.c **** #else
 207:CMSIS-DSP-main\Source\FilteringFunctions/arm_correlate_fast_opt_q15.c ****       x3 = __PKHBT(x1, x2, 0);
 208:CMSIS-DSP-main\Source\FilteringFunctions/arm_correlate_fast_opt_q15.c **** #endif
 209:CMSIS-DSP-main\Source\FilteringFunctions/arm_correlate_fast_opt_q15.c **** 
 210:CMSIS-DSP-main\Source\FilteringFunctions/arm_correlate_fast_opt_q15.c ****       /* multiply and accumulate */
 211:CMSIS-DSP-main\Source\FilteringFunctions/arm_correlate_fast_opt_q15.c ****       acc1 = __SMLADX(x3, y1, acc1);
 212:CMSIS-DSP-main\Source\FilteringFunctions/arm_correlate_fast_opt_q15.c **** 
 213:CMSIS-DSP-main\Source\FilteringFunctions/arm_correlate_fast_opt_q15.c ****       /* Read next two samples from scratch buffer */
 214:CMSIS-DSP-main\Source\FilteringFunctions/arm_correlate_fast_opt_q15.c ****       x1 = read_q15x2_ia (&pScr1);
 215:CMSIS-DSP-main\Source\FilteringFunctions/arm_correlate_fast_opt_q15.c **** 
 216:CMSIS-DSP-main\Source\FilteringFunctions/arm_correlate_fast_opt_q15.c ****       /* multiply and accumulate */
 217:CMSIS-DSP-main\Source\FilteringFunctions/arm_correlate_fast_opt_q15.c ****       acc0 = __SMLAD(x2, y2, acc0);
 218:CMSIS-DSP-main\Source\FilteringFunctions/arm_correlate_fast_opt_q15.c ****       acc2 = __SMLAD(x1, y2, acc2);
 219:CMSIS-DSP-main\Source\FilteringFunctions/arm_correlate_fast_opt_q15.c **** 
 220:CMSIS-DSP-main\Source\FilteringFunctions/arm_correlate_fast_opt_q15.c ****       /* pack input data */
 221:CMSIS-DSP-main\Source\FilteringFunctions/arm_correlate_fast_opt_q15.c **** #ifndef ARM_MATH_BIG_ENDIAN
 222:CMSIS-DSP-main\Source\FilteringFunctions/arm_correlate_fast_opt_q15.c ****       x3 = __PKHBT(x1, x2, 0);
 223:CMSIS-DSP-main\Source\FilteringFunctions/arm_correlate_fast_opt_q15.c **** #else
 224:CMSIS-DSP-main\Source\FilteringFunctions/arm_correlate_fast_opt_q15.c ****       x3 = __PKHBT(x2, x1, 0);
 225:CMSIS-DSP-main\Source\FilteringFunctions/arm_correlate_fast_opt_q15.c **** #endif
 226:CMSIS-DSP-main\Source\FilteringFunctions/arm_correlate_fast_opt_q15.c **** 
 227:CMSIS-DSP-main\Source\FilteringFunctions/arm_correlate_fast_opt_q15.c ****       acc3 = __SMLADX(x3, y1, acc3);
 228:CMSIS-DSP-main\Source\FilteringFunctions/arm_correlate_fast_opt_q15.c ****       acc1 = __SMLADX(x3, y2, acc1);
 229:CMSIS-DSP-main\Source\FilteringFunctions/arm_correlate_fast_opt_q15.c **** 
 230:CMSIS-DSP-main\Source\FilteringFunctions/arm_correlate_fast_opt_q15.c ****       x2 = read_q15x2_ia (&pScr1);
 231:CMSIS-DSP-main\Source\FilteringFunctions/arm_correlate_fast_opt_q15.c **** 
 232:CMSIS-DSP-main\Source\FilteringFunctions/arm_correlate_fast_opt_q15.c **** #ifndef ARM_MATH_BIG_ENDIAN
 233:CMSIS-DSP-main\Source\FilteringFunctions/arm_correlate_fast_opt_q15.c ****       x3 = __PKHBT(x2, x1, 0);
 234:CMSIS-DSP-main\Source\FilteringFunctions/arm_correlate_fast_opt_q15.c **** #else
 235:CMSIS-DSP-main\Source\FilteringFunctions/arm_correlate_fast_opt_q15.c ****       x3 = __PKHBT(x1, x2, 0);
 236:CMSIS-DSP-main\Source\FilteringFunctions/arm_correlate_fast_opt_q15.c **** #endif
 237:CMSIS-DSP-main\Source\FilteringFunctions/arm_correlate_fast_opt_q15.c **** 
 238:CMSIS-DSP-main\Source\FilteringFunctions/arm_correlate_fast_opt_q15.c ****       acc3 = __SMLADX(x3, y2, acc3);
 239:CMSIS-DSP-main\Source\FilteringFunctions/arm_correlate_fast_opt_q15.c **** 
 240:CMSIS-DSP-main\Source\FilteringFunctions/arm_correlate_fast_opt_q15.c ****       /* Decrement loop counter */
 241:CMSIS-DSP-main\Source\FilteringFunctions/arm_correlate_fast_opt_q15.c ****       tapCnt--;
 242:CMSIS-DSP-main\Source\FilteringFunctions/arm_correlate_fast_opt_q15.c ****     }
 243:CMSIS-DSP-main\Source\FilteringFunctions/arm_correlate_fast_opt_q15.c **** 
 244:CMSIS-DSP-main\Source\FilteringFunctions/arm_correlate_fast_opt_q15.c ****     /* Update scratch pointer for remaining samples of smaller length sequence */
 245:CMSIS-DSP-main\Source\FilteringFunctions/arm_correlate_fast_opt_q15.c ****     pScr1 -= 4U;
 246:CMSIS-DSP-main\Source\FilteringFunctions/arm_correlate_fast_opt_q15.c **** 
 247:CMSIS-DSP-main\Source\FilteringFunctions/arm_correlate_fast_opt_q15.c ****     /* apply same above for remaining samples of smaller length sequence */
 248:CMSIS-DSP-main\Source\FilteringFunctions/arm_correlate_fast_opt_q15.c ****     tapCnt = (srcBLen) & 3U;
 249:CMSIS-DSP-main\Source\FilteringFunctions/arm_correlate_fast_opt_q15.c **** 
 250:CMSIS-DSP-main\Source\FilteringFunctions/arm_correlate_fast_opt_q15.c ****     while (tapCnt > 0U)
 251:CMSIS-DSP-main\Source\FilteringFunctions/arm_correlate_fast_opt_q15.c ****     {
 252:CMSIS-DSP-main\Source\FilteringFunctions/arm_correlate_fast_opt_q15.c ****       /* accumulate the results */
 253:CMSIS-DSP-main\Source\FilteringFunctions/arm_correlate_fast_opt_q15.c ****       acc0 += (*pScr1++ * *pIn2);
 254:CMSIS-DSP-main\Source\FilteringFunctions/arm_correlate_fast_opt_q15.c ****       acc1 += (*pScr1++ * *pIn2);
 255:CMSIS-DSP-main\Source\FilteringFunctions/arm_correlate_fast_opt_q15.c ****       acc2 += (*pScr1++ * *pIn2);
 256:CMSIS-DSP-main\Source\FilteringFunctions/arm_correlate_fast_opt_q15.c ****       acc3 += (*pScr1++ * *pIn2++);
 257:CMSIS-DSP-main\Source\FilteringFunctions/arm_correlate_fast_opt_q15.c **** 
 258:CMSIS-DSP-main\Source\FilteringFunctions/arm_correlate_fast_opt_q15.c ****       pScr1 -= 3U;
 259:CMSIS-DSP-main\Source\FilteringFunctions/arm_correlate_fast_opt_q15.c **** 
 260:CMSIS-DSP-main\Source\FilteringFunctions/arm_correlate_fast_opt_q15.c ****       /* Decrement loop counter */
 261:CMSIS-DSP-main\Source\FilteringFunctions/arm_correlate_fast_opt_q15.c ****       tapCnt--;
 262:CMSIS-DSP-main\Source\FilteringFunctions/arm_correlate_fast_opt_q15.c ****     }
ARM GAS  C:\Users\rdn\AppData\Local\Temp\ccMeiDZL.s 			page 31


 263:CMSIS-DSP-main\Source\FilteringFunctions/arm_correlate_fast_opt_q15.c **** 
 264:CMSIS-DSP-main\Source\FilteringFunctions/arm_correlate_fast_opt_q15.c ****     blkCnt--;
 265:CMSIS-DSP-main\Source\FilteringFunctions/arm_correlate_fast_opt_q15.c **** 
 266:CMSIS-DSP-main\Source\FilteringFunctions/arm_correlate_fast_opt_q15.c ****     /* Store the results in the accumulators in the destination buffer. */
 267:CMSIS-DSP-main\Source\FilteringFunctions/arm_correlate_fast_opt_q15.c ****     *pOut = (__SSAT(acc0 >> 15U, 16));
 268:CMSIS-DSP-main\Source\FilteringFunctions/arm_correlate_fast_opt_q15.c ****     pOut += inc;
 269:CMSIS-DSP-main\Source\FilteringFunctions/arm_correlate_fast_opt_q15.c ****     *pOut = (__SSAT(acc1 >> 15U, 16));
 270:CMSIS-DSP-main\Source\FilteringFunctions/arm_correlate_fast_opt_q15.c ****     pOut += inc;
 271:CMSIS-DSP-main\Source\FilteringFunctions/arm_correlate_fast_opt_q15.c ****     *pOut = (__SSAT(acc2 >> 15U, 16));
 272:CMSIS-DSP-main\Source\FilteringFunctions/arm_correlate_fast_opt_q15.c ****     pOut += inc;
 273:CMSIS-DSP-main\Source\FilteringFunctions/arm_correlate_fast_opt_q15.c ****     *pOut = (__SSAT(acc3 >> 15U, 16));
 274:CMSIS-DSP-main\Source\FilteringFunctions/arm_correlate_fast_opt_q15.c ****     pOut += inc;
 275:CMSIS-DSP-main\Source\FilteringFunctions/arm_correlate_fast_opt_q15.c **** 
 276:CMSIS-DSP-main\Source\FilteringFunctions/arm_correlate_fast_opt_q15.c ****     /* Initialization of inputB pointer */
 277:CMSIS-DSP-main\Source\FilteringFunctions/arm_correlate_fast_opt_q15.c ****     pIn2 = py;
 278:CMSIS-DSP-main\Source\FilteringFunctions/arm_correlate_fast_opt_q15.c **** 
 279:CMSIS-DSP-main\Source\FilteringFunctions/arm_correlate_fast_opt_q15.c ****     pScratch += 4U;
 280:CMSIS-DSP-main\Source\FilteringFunctions/arm_correlate_fast_opt_q15.c ****   }
 281:CMSIS-DSP-main\Source\FilteringFunctions/arm_correlate_fast_opt_q15.c **** 
 282:CMSIS-DSP-main\Source\FilteringFunctions/arm_correlate_fast_opt_q15.c ****   /* Loop unrolling: Compute remaining outputs */
 283:CMSIS-DSP-main\Source\FilteringFunctions/arm_correlate_fast_opt_q15.c ****   blkCnt = (srcALen + srcBLen - 1U) & 0x3;
 284:CMSIS-DSP-main\Source\FilteringFunctions/arm_correlate_fast_opt_q15.c **** 
 285:CMSIS-DSP-main\Source\FilteringFunctions/arm_correlate_fast_opt_q15.c **** #else
 286:CMSIS-DSP-main\Source\FilteringFunctions/arm_correlate_fast_opt_q15.c **** 
 287:CMSIS-DSP-main\Source\FilteringFunctions/arm_correlate_fast_opt_q15.c ****   /* Initialize blkCnt with number of samples */
 288:CMSIS-DSP-main\Source\FilteringFunctions/arm_correlate_fast_opt_q15.c ****   blkCnt = (srcALen + srcBLen - 1U);
 414              		.loc 1 288 0
 415 0052 4544     		add	r5, r5, r8
 416              	.LVL12:
 158:CMSIS-DSP-main\Source\FilteringFunctions/arm_correlate_fast_opt_q15.c **** 
 417              		.loc 1 158 0
 418 0054 FFF7FEFF 		bl	arm_fill_q15
 419              	.LVL13:
 289:CMSIS-DSP-main\Source\FilteringFunctions/arm_correlate_fast_opt_q15.c **** 
 290:CMSIS-DSP-main\Source\FilteringFunctions/arm_correlate_fast_opt_q15.c **** #endif /* #if defined (ARM_MATH_LOOPUNROLL) */
 291:CMSIS-DSP-main\Source\FilteringFunctions/arm_correlate_fast_opt_q15.c **** 
 292:CMSIS-DSP-main\Source\FilteringFunctions/arm_correlate_fast_opt_q15.c ****   /* Calculate correlation for remaining samples of Bigger length sequence */
 293:CMSIS-DSP-main\Source\FilteringFunctions/arm_correlate_fast_opt_q15.c ****   while (blkCnt > 0)
 420              		.loc 1 293 0
 421 0058 B5F10109 		subs	r9, r5, #1
 422              	.LVL14:
 423 005c 3BD0     		beq	.L1
 424 005e 4FEA580A 		lsr	r10, r8, #1
 425 0062 4FEA8A0B 		lsl	fp, r10, #2
 426              	.LVL15:
 427 0066 08F00103 		and	r3, r8, #1
 428 006a 0293     		str	r3, [sp, #8]
 429 006c 07EB0B03 		add	r3, r7, fp
 430 0070 0393     		str	r3, [sp, #12]
 431 0072 3B46     		mov	r3, r7
 432 0074 5746     		mov	r7, r10
 433              	.LVL16:
 434 0076 9A46     		mov	r10, r3
 435              	.LVL17:
 436              	.L8:
 294:CMSIS-DSP-main\Source\FilteringFunctions/arm_correlate_fast_opt_q15.c ****   {
 295:CMSIS-DSP-main\Source\FilteringFunctions/arm_correlate_fast_opt_q15.c ****     /* Initialze temporary scratch pointer as scratch1 */
ARM GAS  C:\Users\rdn\AppData\Local\Temp\ccMeiDZL.s 			page 32


 296:CMSIS-DSP-main\Source\FilteringFunctions/arm_correlate_fast_opt_q15.c ****     pScr1 = pScratch;
 297:CMSIS-DSP-main\Source\FilteringFunctions/arm_correlate_fast_opt_q15.c **** 
 298:CMSIS-DSP-main\Source\FilteringFunctions/arm_correlate_fast_opt_q15.c ****     /* Clear Accumlators */
 299:CMSIS-DSP-main\Source\FilteringFunctions/arm_correlate_fast_opt_q15.c ****     acc0 = 0;
 300:CMSIS-DSP-main\Source\FilteringFunctions/arm_correlate_fast_opt_q15.c **** 
 301:CMSIS-DSP-main\Source\FilteringFunctions/arm_correlate_fast_opt_q15.c ****     tapCnt = (srcBLen) >> 1U;
 302:CMSIS-DSP-main\Source\FilteringFunctions/arm_correlate_fast_opt_q15.c **** 
 303:CMSIS-DSP-main\Source\FilteringFunctions/arm_correlate_fast_opt_q15.c ****     while (tapCnt > 0U)
 437              		.loc 1 303 0
 438 0078 87B3     		cbz	r7, .L10
 439 007a 251D     		adds	r5, r4, #4
 440 007c 0AF10400 		add	r0, r10, #4
 441 0080 BE46     		mov	lr, r7
 442 0082 0023     		movs	r3, #0
 443              	.LVL18:
 444              	.L6:
 304:CMSIS-DSP-main\Source\FilteringFunctions/arm_correlate_fast_opt_q15.c ****     {
 305:CMSIS-DSP-main\Source\FilteringFunctions/arm_correlate_fast_opt_q15.c **** 
 306:CMSIS-DSP-main\Source\FilteringFunctions/arm_correlate_fast_opt_q15.c ****       /* Read next two samples from scratch buffer */
 307:CMSIS-DSP-main\Source\FilteringFunctions/arm_correlate_fast_opt_q15.c ****       acc0 += (*pScr1++ * *pIn2++);
 445              		.loc 1 307 0
 446 0084 35F9048C 		ldrsh	r8, [r5, #-4]
 447 0088 30F904CC 		ldrsh	ip, [r0, #-4]
 308:CMSIS-DSP-main\Source\FilteringFunctions/arm_correlate_fast_opt_q15.c ****       acc0 += (*pScr1++ * *pIn2++);
 448              		.loc 1 308 0
 449 008c 35F9021C 		ldrsh	r1, [r5, #-2]
 450 0090 30F9022C 		ldrsh	r2, [r0, #-2]
 307:CMSIS-DSP-main\Source\FilteringFunctions/arm_correlate_fast_opt_q15.c ****       acc0 += (*pScr1++ * *pIn2++);
 451              		.loc 1 307 0
 452 0094 08FB0C33 		mla	r3, r8, ip, r3
 453              	.LVL19:
 303:CMSIS-DSP-main\Source\FilteringFunctions/arm_correlate_fast_opt_q15.c ****     {
 454              		.loc 1 303 0
 455 0098 BEF1010E 		subs	lr, lr, #1
 456              	.LVL20:
 457 009c 05F10405 		add	r5, r5, #4
 458              	.LVL21:
 459              		.loc 1 308 0
 460 00a0 01FB0233 		mla	r3, r1, r2, r3
 461              	.LVL22:
 462 00a4 00F10400 		add	r0, r0, #4
 303:CMSIS-DSP-main\Source\FilteringFunctions/arm_correlate_fast_opt_q15.c ****     {
 463              		.loc 1 303 0
 464 00a8 ECD1     		bne	.L6
 465              		.loc 1 308 0
 466 00aa 039A     		ldr	r2, [sp, #12]
 467 00ac 04EB0B01 		add	r1, r4, fp
 468              	.LVL23:
 469              	.L5:
 309:CMSIS-DSP-main\Source\FilteringFunctions/arm_correlate_fast_opt_q15.c **** 
 310:CMSIS-DSP-main\Source\FilteringFunctions/arm_correlate_fast_opt_q15.c ****       /* Decrement loop counter */
 311:CMSIS-DSP-main\Source\FilteringFunctions/arm_correlate_fast_opt_q15.c ****       tapCnt--;
 312:CMSIS-DSP-main\Source\FilteringFunctions/arm_correlate_fast_opt_q15.c ****     }
 313:CMSIS-DSP-main\Source\FilteringFunctions/arm_correlate_fast_opt_q15.c **** 
 314:CMSIS-DSP-main\Source\FilteringFunctions/arm_correlate_fast_opt_q15.c ****     tapCnt = (srcBLen) & 1U;
 315:CMSIS-DSP-main\Source\FilteringFunctions/arm_correlate_fast_opt_q15.c **** 
 316:CMSIS-DSP-main\Source\FilteringFunctions/arm_correlate_fast_opt_q15.c ****     /* apply same above for remaining samples of smaller length sequence */
ARM GAS  C:\Users\rdn\AppData\Local\Temp\ccMeiDZL.s 			page 33


 317:CMSIS-DSP-main\Source\FilteringFunctions/arm_correlate_fast_opt_q15.c ****     while (tapCnt > 0U)
 470              		.loc 1 317 0
 471 00b0 0298     		ldr	r0, [sp, #8]
 472 00b2 28B1     		cbz	r0, .L7
 473              	.LVL24:
 318:CMSIS-DSP-main\Source\FilteringFunctions/arm_correlate_fast_opt_q15.c ****     {
 319:CMSIS-DSP-main\Source\FilteringFunctions/arm_correlate_fast_opt_q15.c **** 
 320:CMSIS-DSP-main\Source\FilteringFunctions/arm_correlate_fast_opt_q15.c ****       /* accumulate the results */
 321:CMSIS-DSP-main\Source\FilteringFunctions/arm_correlate_fast_opt_q15.c ****       acc0 += (*pScr1++ * *pIn2++);
 474              		.loc 1 321 0
 475 00b4 B1F90010 		ldrsh	r1, [r1]
 476              	.LVL25:
 477 00b8 B2F90020 		ldrsh	r2, [r2]
 478              	.LVL26:
 479 00bc 01FB0233 		mla	r3, r1, r2, r3
 480              	.LVL27:
 481              	.L7:
 482              	.LBB2:
 322:CMSIS-DSP-main\Source\FilteringFunctions/arm_correlate_fast_opt_q15.c **** 
 323:CMSIS-DSP-main\Source\FilteringFunctions/arm_correlate_fast_opt_q15.c ****       /* Decrement loop counter */
 324:CMSIS-DSP-main\Source\FilteringFunctions/arm_correlate_fast_opt_q15.c ****       tapCnt--;
 325:CMSIS-DSP-main\Source\FilteringFunctions/arm_correlate_fast_opt_q15.c ****     }
 326:CMSIS-DSP-main\Source\FilteringFunctions/arm_correlate_fast_opt_q15.c **** 
 327:CMSIS-DSP-main\Source\FilteringFunctions/arm_correlate_fast_opt_q15.c ****     blkCnt--;
 328:CMSIS-DSP-main\Source\FilteringFunctions/arm_correlate_fast_opt_q15.c **** 
 329:CMSIS-DSP-main\Source\FilteringFunctions/arm_correlate_fast_opt_q15.c ****     /* The result is in 2.30 format.  Convert to 1.15 with saturation.
 330:CMSIS-DSP-main\Source\FilteringFunctions/arm_correlate_fast_opt_q15.c ****      ** Then store the output in the destination buffer. */
 331:CMSIS-DSP-main\Source\FilteringFunctions/arm_correlate_fast_opt_q15.c ****     *pOut = (q15_t) (__SSAT((acc0 >> 15), 16));
 483              		.loc 1 331 0
 484 00c0 DB13     		asrs	r3, r3, #15
 485              	.LVL28:
 486              		.syntax unified
 487              	@ 331 "CMSIS-DSP-main\Source\FilteringFunctions\arm_correlate_fast_opt_q15.c" 1
 488 00c2 03F30F03 		ssat r3, #16, r3
 489              	@ 0 "" 2
 490              	.LVL29:
 491              		.thumb
 492              		.syntax unified
 493              	.LBE2:
 494 00c6 3380     		strh	r3, [r6]	@ movhi
 332:CMSIS-DSP-main\Source\FilteringFunctions/arm_correlate_fast_opt_q15.c ****     pOut += inc;
 495              		.loc 1 332 0
 496 00c8 019B     		ldr	r3, [sp, #4]
 497              	.LVL30:
 293:CMSIS-DSP-main\Source\FilteringFunctions/arm_correlate_fast_opt_q15.c ****   {
 498              		.loc 1 293 0
 499 00ca B9F10109 		subs	r9, r9, #1
 500              	.LVL31:
 333:CMSIS-DSP-main\Source\FilteringFunctions/arm_correlate_fast_opt_q15.c **** 
 334:CMSIS-DSP-main\Source\FilteringFunctions/arm_correlate_fast_opt_q15.c ****     /* Initialization of inputB pointer */
 335:CMSIS-DSP-main\Source\FilteringFunctions/arm_correlate_fast_opt_q15.c ****     pIn2 = py;
 336:CMSIS-DSP-main\Source\FilteringFunctions/arm_correlate_fast_opt_q15.c **** 
 337:CMSIS-DSP-main\Source\FilteringFunctions/arm_correlate_fast_opt_q15.c ****     pScratch += 1U;
 501              		.loc 1 337 0
 502 00ce 04F10204 		add	r4, r4, #2
 503              	.LVL32:
 332:CMSIS-DSP-main\Source\FilteringFunctions/arm_correlate_fast_opt_q15.c **** 
ARM GAS  C:\Users\rdn\AppData\Local\Temp\ccMeiDZL.s 			page 34


 504              		.loc 1 332 0
 505 00d2 1E44     		add	r6, r6, r3
 506              	.LVL33:
 293:CMSIS-DSP-main\Source\FilteringFunctions/arm_correlate_fast_opt_q15.c ****   {
 507              		.loc 1 293 0
 508 00d4 D0D1     		bne	.L8
 509              	.LVL34:
 510              	.L1:
 338:CMSIS-DSP-main\Source\FilteringFunctions/arm_correlate_fast_opt_q15.c ****   }
 339:CMSIS-DSP-main\Source\FilteringFunctions/arm_correlate_fast_opt_q15.c **** 
 340:CMSIS-DSP-main\Source\FilteringFunctions/arm_correlate_fast_opt_q15.c **** }
 511              		.loc 1 340 0
 512 00d6 05B0     		add	sp, sp, #20
 513              		.cfi_remember_state
 514              		.cfi_def_cfa_offset 36
 515              		@ sp needed
 516 00d8 BDE8F08F 		pop	{r4, r5, r6, r7, r8, r9, r10, fp, pc}
 517              	.LVL35:
 518              	.L10:
 519              		.cfi_restore_state
 303:CMSIS-DSP-main\Source\FilteringFunctions/arm_correlate_fast_opt_q15.c ****     {
 520              		.loc 1 303 0
 521 00dc 2146     		mov	r1, r4
 522 00de 5246     		mov	r2, r10
 299:CMSIS-DSP-main\Source\FilteringFunctions/arm_correlate_fast_opt_q15.c **** 
 523              		.loc 1 299 0
 524 00e0 3B46     		mov	r3, r7
 525 00e2 E5E7     		b	.L5
 526              	.LVL36:
 527              	.L2:
 135:CMSIS-DSP-main\Source\FilteringFunctions/arm_correlate_fast_opt_q15.c **** 
 528              		.loc 1 135 0
 529 00e4 03F10043 		add	r3, r3, #-2147483648
 530              	.LVL37:
 531 00e8 023B     		subs	r3, r3, #2
 532 00ea 2B44     		add	r3, r3, r5
 533 00ec 2A46     		mov	r2, r5
 534              	.LVL38:
 535 00ee 6FF00101 		mvn	r1, #1
 536              	.LVL39:
 123:CMSIS-DSP-main\Source\FilteringFunctions/arm_correlate_fast_opt_q15.c **** 
 537              		.loc 1 123 0
 538 00f2 BB46     		mov	fp, r7
 135:CMSIS-DSP-main\Source\FilteringFunctions/arm_correlate_fast_opt_q15.c **** 
 539              		.loc 1 135 0
 540 00f4 06EB4306 		add	r6, r6, r3, lsl #1
 541              	.LVL40:
 542 00f8 4546     		mov	r5, r8
 543              	.LVL41:
 544 00fa 4FEA4803 		lsl	r3, r8, #1
 126:CMSIS-DSP-main\Source\FilteringFunctions/arm_correlate_fast_opt_q15.c **** 
 545              		.loc 1 126 0
 546 00fe 0746     		mov	r7, r0
 547              	.LVL42:
 135:CMSIS-DSP-main\Source\FilteringFunctions/arm_correlate_fast_opt_q15.c **** 
 548              		.loc 1 135 0
 549 0100 0191     		str	r1, [sp, #4]
ARM GAS  C:\Users\rdn\AppData\Local\Temp\ccMeiDZL.s 			page 35


 550 0102 9046     		mov	r8, r2
 551 0104 8DE7     		b	.L3
 552              		.cfi_endproc
 553              	.LFE123:
 554              		.size	arm_correlate_fast_opt_q15, .-arm_correlate_fast_opt_q15
 555 0106 00BF     		.text
 556              	.Letext0:
 557              		.file 2 "c:\\program files (x86)\\cypress\\psoc creator\\4.4\\psoc creator\\import\\gnu\\arm\\5.4.
 558              		.file 3 "c:\\program files (x86)\\cypress\\psoc creator\\4.4\\psoc creator\\import\\gnu\\arm\\5.4.
 559              		.file 4 ".\\CMSIS-DSP-main\\Include/arm_math_types.h"
 560              		.file 5 ".\\CMSIS-DSP-main\\Include/dsp/support_functions.h"