ARM GAS  C:\Users\rdn\AppData\Local\Temp\cc2yEK8X.s 			page 1


   1              		.syntax unified
   2              		.cpu cortex-m4
   3              		.eabi_attribute 27, 1
   4              		.fpu fpv4-sp-d16
   5              		.eabi_attribute 20, 1
   6              		.eabi_attribute 21, 1
   7              		.eabi_attribute 23, 3
   8              		.eabi_attribute 24, 1
   9              		.eabi_attribute 25, 1
  10              		.eabi_attribute 26, 1
  11              		.eabi_attribute 30, 4
  12              		.eabi_attribute 34, 1
  13              		.eabi_attribute 18, 4
  14              		.thumb
  15              		.syntax unified
  16              		.file	"attdet.c"
  17              		.text
  18              	.Ltext0:
  19              		.cfi_sections	.debug_frame
  20              		.section	.text.lc3_attdet_run,"ax",%progbits
  21              		.align	1
  22              		.global	lc3_attdet_run
  23              		.thumb
  24              		.thumb_func
  25              		.type	lc3_attdet_run, %function
  26              	lc3_attdet_run:
  27              	.LFB7:
  28              		.file 1 "..\\..\\..\\liblc3\\src\\attdet.c"
   1:..\..\..\liblc3\src/attdet.c **** /******************************************************************************
   2:..\..\..\liblc3\src/attdet.c ****  *
   3:..\..\..\liblc3\src/attdet.c ****  *  Copyright 2022 Google LLC
   4:..\..\..\liblc3\src/attdet.c ****  *
   5:..\..\..\liblc3\src/attdet.c ****  *  Licensed under the Apache License, Version 2.0 (the "License");
   6:..\..\..\liblc3\src/attdet.c ****  *  you may not use this file except in compliance with the License.
   7:..\..\..\liblc3\src/attdet.c ****  *  You may obtain a copy of the License at:
   8:..\..\..\liblc3\src/attdet.c ****  *
   9:..\..\..\liblc3\src/attdet.c ****  *  http://www.apache.org/licenses/LICENSE-2.0
  10:..\..\..\liblc3\src/attdet.c ****  *
  11:..\..\..\liblc3\src/attdet.c ****  *  Unless required by applicable law or agreed to in writing, software
  12:..\..\..\liblc3\src/attdet.c ****  *  distributed under the License is distributed on an "AS IS" BASIS,
  13:..\..\..\liblc3\src/attdet.c ****  *  WITHOUT WARRANTIES OR CONDITIONS OF ANY KIND, either express or implied.
  14:..\..\..\liblc3\src/attdet.c ****  *  See the License for the specific language governing permissions and
  15:..\..\..\liblc3\src/attdet.c ****  *  limitations under the License.
  16:..\..\..\liblc3\src/attdet.c ****  *
  17:..\..\..\liblc3\src/attdet.c ****  ******************************************************************************/
  18:..\..\..\liblc3\src/attdet.c **** 
  19:..\..\..\liblc3\src/attdet.c **** #include "attdet.h"
  20:..\..\..\liblc3\src/attdet.c **** 
  21:..\..\..\liblc3\src/attdet.c **** 
  22:..\..\..\liblc3\src/attdet.c **** /**
  23:..\..\..\liblc3\src/attdet.c ****  * Time domain attack detector
  24:..\..\..\liblc3\src/attdet.c ****  */
  25:..\..\..\liblc3\src/attdet.c **** bool lc3_attdet_run(enum lc3_dt dt, enum lc3_srate sr,
  26:..\..\..\liblc3\src/attdet.c ****     int nbytes, struct lc3_attdet_analysis *attdet, const int16_t *x)
  27:..\..\..\liblc3\src/attdet.c **** {
  29              		.loc 1 27 0
  30              		.cfi_startproc
ARM GAS  C:\Users\rdn\AppData\Local\Temp\cc2yEK8X.s 			page 2


  31              		@ args = 4, pretend = 0, frame = 80
  32              		@ frame_needed = 0, uses_anonymous_args = 0
  33              	.LVL0:
  34 0000 2DE9F04F 		push	{r4, r5, r6, r7, r8, r9, r10, fp, lr}
  35              		.cfi_def_cfa_offset 36
  36              		.cfi_offset 4, -36
  37              		.cfi_offset 5, -32
  38              		.cfi_offset 6, -28
  39              		.cfi_offset 7, -24
  40              		.cfi_offset 8, -20
  41              		.cfi_offset 9, -16
  42              		.cfi_offset 10, -12
  43              		.cfi_offset 11, -8
  44              		.cfi_offset 14, -4
  45 0004 95B0     		sub	sp, sp, #84
  46              		.cfi_def_cfa_offset 120
  47              		.loc 1 27 0
  48 0006 0746     		mov	r7, r0
  49 0008 0E46     		mov	r6, r1
  50 000a 9046     		mov	r8, r2
  28:..\..\..\liblc3\src/attdet.c ****     /* --- Check enabling --- */
  29:..\..\..\liblc3\src/attdet.c **** 
  30:..\..\..\liblc3\src/attdet.c ****     const int nbytes_ranges[][LC3_NUM_SRATE - LC3_SRATE_32K][2] = {
  51              		.loc 1 30 0
  52 000c 0021     		movs	r1, #0
  53              	.LVL1:
  54 000e 4022     		movs	r2, #64
  55              	.LVL2:
  56 0010 04A8     		add	r0, sp, #16
  57              	.LVL3:
  27:..\..\..\liblc3\src/attdet.c ****     /* --- Check enabling --- */
  58              		.loc 1 27 0
  59 0012 1D46     		mov	r5, r3
  60 0014 1E9C     		ldr	r4, [sp, #120]
  61              		.loc 1 30 0
  62 0016 FFF7FEFF 		bl	memset
  63              	.LVL4:
  64 001a 3D23     		movs	r3, #61
  65 001c 0493     		str	r3, [sp, #16]
  66 001e 9523     		movs	r3, #149
  67 0020 4B22     		movs	r2, #75
  68 0022 0593     		str	r3, [sp, #20]
  69 0024 0793     		str	r3, [sp, #28]
  70 0026 5123     		movs	r3, #81
  71 0028 0692     		str	r2, [sp, #24]
  72 002a 0C93     		str	r3, [sp, #48]
  73 002c 6422     		movs	r2, #100
  74 002e 6FF00043 		mvn	r3, #-2147483648
  31:..\..\..\liblc3\src/attdet.c ****         [LC3_DT_7M5 - LC3_DT_7M5] = { { 61,     149 }, {  75,     149 } },
  32:..\..\..\liblc3\src/attdet.c ****         [LC3_DT_10M - LC3_DT_7M5] = { { 81, INT_MAX }, { 100, INT_MAX } },
  33:..\..\..\liblc3\src/attdet.c ****     };
  34:..\..\..\liblc3\src/attdet.c **** 
  35:..\..\..\liblc3\src/attdet.c ****     if (dt < LC3_DT_7M5 || sr < LC3_SRATE_32K || lc3_hr(sr) ||
  75              		.loc 1 35 0
  76 0032 012F     		cmp	r7, #1
  30:..\..\..\liblc3\src/attdet.c ****         [LC3_DT_7M5 - LC3_DT_7M5] = { { 61,     149 }, {  75,     149 } },
  77              		.loc 1 30 0
ARM GAS  C:\Users\rdn\AppData\Local\Temp\cc2yEK8X.s 			page 3


  78 0034 0D93     		str	r3, [sp, #52]
  79 0036 0E92     		str	r2, [sp, #56]
  80 0038 0F93     		str	r3, [sp, #60]
  81              		.loc 1 35 0
  82 003a 40F29E80 		bls	.L15
  83              		.loc 1 35 0 is_stmt 0 discriminator 1
  84 003e F31E     		subs	r3, r6, #3
  85 0040 DAB2     		uxtb	r2, r3
  86 0042 012A     		cmp	r2, #1
  87 0044 00F29980 		bhi	.L15
  36:..\..\..\liblc3\src/attdet.c ****             nbytes < nbytes_ranges[dt - LC3_DT_7M5][sr - LC3_SRATE_32K][0] ||
  88              		.loc 1 36 0 is_stmt 1 discriminator 3
  89 0048 BA1E     		subs	r2, r7, #2
  90 004a 03EB8203 		add	r3, r3, r2, lsl #2
  91 004e 14AA     		add	r2, sp, #80
  92 0050 02EBC303 		add	r3, r2, r3, lsl #3
  35:..\..\..\liblc3\src/attdet.c ****             nbytes < nbytes_ranges[dt - LC3_DT_7M5][sr - LC3_SRATE_32K][0] ||
  93              		.loc 1 35 0 discriminator 3
  94 0054 53F8402C 		ldr	r2, [r3, #-64]
  95 0058 4245     		cmp	r2, r8
  96 005a 00F38E80 		bgt	.L15
  97              		.loc 1 36 0
  98 005e 53F83C3C 		ldr	r3, [r3, #-60]
  99 0062 9845     		cmp	r8, r3
 100 0064 00F38980 		bgt	.L15
  37:..\..\..\liblc3\src/attdet.c ****             nbytes > nbytes_ranges[dt - LC3_DT_7M5][sr - LC3_SRATE_32K][1]   )
  38:..\..\..\liblc3\src/attdet.c ****         return 0;
  39:..\..\..\liblc3\src/attdet.c **** 
  40:..\..\..\liblc3\src/attdet.c ****     /* --- Filtering & Energy calculation --- */
  41:..\..\..\liblc3\src/attdet.c **** 
  42:..\..\..\liblc3\src/attdet.c ****     int nblk = 4 - (dt == LC3_DT_7M5);
 101              		.loc 1 42 0
 102 0068 022F     		cmp	r7, #2
 103              	.LBB10:
  43:..\..\..\liblc3\src/attdet.c ****     int32_t e[4];
  44:..\..\..\liblc3\src/attdet.c **** 
  45:..\..\..\liblc3\src/attdet.c ****     for (int i = 0; i < nblk; i++) {
 104              		.loc 1 45 0
 105 006a 4FF00007 		mov	r7, #0
 106              	.LBE10:
  42:..\..\..\liblc3\src/attdet.c ****     int32_t e[4];
 107              		.loc 1 42 0
 108 006e 0CBF     		ite	eq
 109 0070 4FF0030C 		moveq	ip, #3
 110 0074 4FF0040C 		movne	ip, #4
 111              	.LVL5:
 112 0078 ADF1040E 		sub	lr, sp, #4
 113              	.LBB15:
  46:..\..\..\liblc3\src/attdet.c ****         e[i] = 0;
 114              		.loc 1 46 0
 115 007c B946     		mov	r9, r7
 116              	.LVL6:
 117              	.L8:
  47:..\..\..\liblc3\src/attdet.c **** 
  48:..\..\..\liblc3\src/attdet.c ****         if (sr == LC3_SRATE_32K) {
 118              		.loc 1 48 0
 119 007e 032E     		cmp	r6, #3
ARM GAS  C:\Users\rdn\AppData\Local\Temp\cc2yEK8X.s 			page 4


  46:..\..\..\liblc3\src/attdet.c ****         e[i] = 0;
 120              		.loc 1 46 0
 121 0080 4EF8049F 		str	r9, [lr, #4]!
 122 0084 34F9080C 		ldrsh	r0, [r4, #-8]
 123 0088 34F9063C 		ldrsh	r3, [r4, #-6]
 124 008c 34F9048C 		ldrsh	r8, [r4, #-4]
 125              		.loc 1 48 0
 126 0090 24D1     		bne	.L4
 127              	.LBB11:
  49:..\..\..\liblc3\src/attdet.c ****             int16_t xn2 = (x[-4] + x[-3]) >> 1;
  50:..\..\..\liblc3\src/attdet.c ****             int16_t xn1 = (x[-2] + x[-1]) >> 1;
 128              		.loc 1 50 0
 129 0092 34F9021C 		ldrsh	r1, [r4, #-2]
  49:..\..\..\liblc3\src/attdet.c ****             int16_t xn2 = (x[-4] + x[-3]) >> 1;
 130              		.loc 1 49 0
 131 0096 0344     		add	r3, r3, r0
 132              		.loc 1 50 0
 133 0098 4144     		add	r1, r1, r8
  49:..\..\..\liblc3\src/attdet.c ****             int16_t xn2 = (x[-4] + x[-3]) >> 1;
 134              		.loc 1 49 0
 135 009a 4FEA630B 		asr	fp, r3, #1
 136              	.LVL7:
 137              		.loc 1 50 0
 138 009e 4910     		asrs	r1, r1, #1
 139              	.LVL8:
 140 00a0 04F10408 		add	r8, r4, #4
 141 00a4 04F1A40A 		add	r10, r4, #164
 142 00a8 0022     		movs	r2, #0
 143              	.LVL9:
 144              	.L5:
 145              	.LBB12:
  51:..\..\..\liblc3\src/attdet.c ****             int16_t xn, xf;
  52:..\..\..\liblc3\src/attdet.c **** 
  53:..\..\..\liblc3\src/attdet.c ****             for (int j = 0; j < 40; j++, x += 2, xn2 = xn1, xn1 = xn) {
  54:..\..\..\liblc3\src/attdet.c ****                 xn = (x[0] + x[1]) >> 1;
 146              		.loc 1 54 0 discriminator 3
 147 00aa 38F9023C 		ldrsh	r3, [r8, #-2]
 148 00ae 38F9040C 		ldrsh	r0, [r8, #-4]
 149 00b2 1844     		add	r0, r0, r3
 150 00b4 4010     		asrs	r0, r0, #1
 151              	.LVL10:
  55:..\..\..\liblc3\src/attdet.c ****                 xf = (3 * xn - 4 * xn1 + 1 * xn2) >> 3;
 152              		.loc 1 55 0 discriminator 3
 153 00b6 00EB4003 		add	r3, r0, r0, lsl #1
 154 00ba A3EB8103 		sub	r3, r3, r1, lsl #2
 155 00be 5B44     		add	r3, r3, fp
 156 00c0 DB10     		asrs	r3, r3, #3
 157              	.LVL11:
 158 00c2 08F10408 		add	r8, r8, #4
 159              	.LVL12:
  56:..\..\..\liblc3\src/attdet.c ****                 e[i] += (xf * xf) >> 5;
 160              		.loc 1 56 0 discriminator 3
 161 00c6 5B43     		muls	r3, r3, r3
 162              	.LVL13:
  53:..\..\..\liblc3\src/attdet.c ****                 xn = (x[0] + x[1]) >> 1;
 163              		.loc 1 53 0 discriminator 3
 164 00c8 C245     		cmp	r10, r8
ARM GAS  C:\Users\rdn\AppData\Local\Temp\cc2yEK8X.s 			page 5


 165 00ca 8B46     		mov	fp, r1
 166              	.LVL14:
 167              		.loc 1 56 0 discriminator 3
 168 00cc 02EB6312 		add	r2, r2, r3, asr #5
 169              	.LVL15:
  53:..\..\..\liblc3\src/attdet.c ****                 xn = (x[0] + x[1]) >> 1;
 170              		.loc 1 53 0 discriminator 3
 171 00d0 0146     		mov	r1, r0
 172              	.LVL16:
 173 00d2 EAD1     		bne	.L5
 174 00d4 A034     		adds	r4, r4, #160
 175 00d6 CEF80020 		str	r2, [lr]
 176 00da 2BE0     		b	.L6
 177              	.LVL17:
 178              	.L4:
 179              	.LBE12:
 180              	.LBE11:
 181              	.LBB13:
  57:..\..\..\liblc3\src/attdet.c ****             }
  58:..\..\..\liblc3\src/attdet.c ****         }
  59:..\..\..\liblc3\src/attdet.c **** 
  60:..\..\..\liblc3\src/attdet.c ****         else {
  61:..\..\..\liblc3\src/attdet.c ****             int16_t xn2 = (x[-6] + x[-5] + x[-4]) >> 2;
 182              		.loc 1 61 0
 183 00dc 34F90AAC 		ldrsh	r10, [r4, #-10]
 184 00e0 34F90C2C 		ldrsh	r2, [r4, #-12]
  62:..\..\..\liblc3\src/attdet.c ****             int16_t xn1 = (x[-3] + x[-2] + x[-1]) >> 2;
 185              		.loc 1 62 0
 186 00e4 34F9021C 		ldrsh	r1, [r4, #-2]
  61:..\..\..\liblc3\src/attdet.c ****             int16_t xn1 = (x[-3] + x[-2] + x[-1]) >> 2;
 187              		.loc 1 61 0
 188 00e8 5244     		add	r2, r2, r10
 189              		.loc 1 62 0
 190 00ea 9844     		add	r8, r8, r3
 191 00ec 8844     		add	r8, r8, r1
  61:..\..\..\liblc3\src/attdet.c ****             int16_t xn1 = (x[-3] + x[-2] + x[-1]) >> 2;
 192              		.loc 1 61 0
 193 00ee 0244     		add	r2, r2, r0
 194              		.loc 1 62 0
 195 00f0 4FEAA801 		asr	r1, r8, #2
  61:..\..\..\liblc3\src/attdet.c ****             int16_t xn1 = (x[-3] + x[-2] + x[-1]) >> 2;
 196              		.loc 1 61 0
 197 00f4 9210     		asrs	r2, r2, #2
 198              	.LVL18:
 199 00f6 A31D     		adds	r3, r4, #6
 200 00f8 04F1F60A 		add	r10, r4, #246
 201              		.loc 1 62 0
 202 00fc 4FF00008 		mov	r8, #0
 203              	.LVL19:
 204              	.L7:
 205              	.LBB14:
  63:..\..\..\liblc3\src/attdet.c ****             int16_t xn, xf;
  64:..\..\..\liblc3\src/attdet.c **** 
  65:..\..\..\liblc3\src/attdet.c ****             for (int j = 0; j < 40; j++, x += 3, xn2 = xn1, xn1 = xn) {
  66:..\..\..\liblc3\src/attdet.c ****                 xn = (x[0] + x[1] + x[2]) >> 2;
 206              		.loc 1 66 0 discriminator 3
 207 0100 33F906BC 		ldrsh	fp, [r3, #-6]
ARM GAS  C:\Users\rdn\AppData\Local\Temp\cc2yEK8X.s 			page 6


 208 0104 33F9040C 		ldrsh	r0, [r3, #-4]
 209 0108 5844     		add	r0, r0, fp
 210 010a 33F902BC 		ldrsh	fp, [r3, #-2]
 211 010e 5844     		add	r0, r0, fp
 212 0110 8010     		asrs	r0, r0, #2
 213              	.LVL20:
  67:..\..\..\liblc3\src/attdet.c ****                 xf = (3 * xn - 4 * xn1 + 1 * xn2) >> 3;
 214              		.loc 1 67 0 discriminator 3
 215 0112 00EB400B 		add	fp, r0, r0, lsl #1
 216 0116 ABEB810B 		sub	fp, fp, r1, lsl #2
 217 011a 5A44     		add	r2, r2, fp
 218              	.LVL21:
 219 011c D210     		asrs	r2, r2, #3
 220              	.LVL22:
 221 011e 0633     		adds	r3, r3, #6
 222              	.LVL23:
  68:..\..\..\liblc3\src/attdet.c ****                 e[i] += (xf * xf) >> 5;
 223              		.loc 1 68 0 discriminator 3
 224 0120 5243     		muls	r2, r2, r2
 225              	.LVL24:
  65:..\..\..\liblc3\src/attdet.c ****                 xn = (x[0] + x[1] + x[2]) >> 2;
 226              		.loc 1 65 0 discriminator 3
 227 0122 5345     		cmp	r3, r10
 228              		.loc 1 68 0 discriminator 3
 229 0124 08EB6218 		add	r8, r8, r2, asr #5
 230              	.LVL25:
 231 0128 0A46     		mov	r2, r1
  65:..\..\..\liblc3\src/attdet.c ****                 xn = (x[0] + x[1] + x[2]) >> 2;
 232              		.loc 1 65 0 discriminator 3
 233 012a 0146     		mov	r1, r0
 234              	.LVL26:
 235 012c E8D1     		bne	.L7
 236 012e F034     		adds	r4, r4, #240
 237 0130 CEF80080 		str	r8, [lr]
 238              	.LVL27:
 239              	.L6:
 240              	.LBE14:
 241              	.LBE13:
  45:..\..\..\liblc3\src/attdet.c ****         e[i] = 0;
 242              		.loc 1 45 0 discriminator 2
 243 0134 0137     		adds	r7, r7, #1
 244              	.LVL28:
 245 0136 BC45     		cmp	ip, r7
 246 0138 A1D1     		bne	.L8
 247 013a 95E80500 		ldmia	r5, {r0, r2}
  45:..\..\..\liblc3\src/attdet.c ****         e[i] = 0;
 248              		.loc 1 45 0 is_stmt 0
 249 013e 0023     		movs	r3, #0
 250 0140 1946     		mov	r1, r3
 251              	.LVL29:
 252              	.L10:
 253              	.LBE15:
 254              	.LBB16:
  69:..\..\..\liblc3\src/attdet.c ****             }
  70:..\..\..\liblc3\src/attdet.c ****         }
  71:..\..\..\liblc3\src/attdet.c ****     }
  72:..\..\..\liblc3\src/attdet.c **** 
ARM GAS  C:\Users\rdn\AppData\Local\Temp\cc2yEK8X.s 			page 7


  73:..\..\..\liblc3\src/attdet.c ****     /* --- Attack detection ---
  74:..\..\..\liblc3\src/attdet.c ****      * The attack block `p_att` is defined as the normative value + 1,
  75:..\..\..\liblc3\src/attdet.c ****      * in such way, it will be initialized to 0 */
  76:..\..\..\liblc3\src/attdet.c **** 
  77:..\..\..\liblc3\src/attdet.c ****     int p_att = 0;
  78:..\..\..\liblc3\src/attdet.c ****     int32_t a[4];
  79:..\..\..\liblc3\src/attdet.c **** 
  80:..\..\..\liblc3\src/attdet.c ****     for (int i = 0; i < nblk; i++) {
  81:..\..\..\liblc3\src/attdet.c ****         a[i] = LC3_MAX(attdet->an1 >> 2, attdet->en1);
 255              		.loc 1 81 0 is_stmt 1
 256 0142 9210     		asrs	r2, r2, #2
 257 0144 8242     		cmp	r2, r0
 258 0146 B8BF     		it	lt
 259 0148 0246     		movlt	r2, r0
  82:..\..\..\liblc3\src/attdet.c ****         attdet->en1 = e[i], attdet->an1 = a[i];
 260              		.loc 1 82 0
 261 014a 5DF82300 		ldr	r0, [sp, r3, lsl #2]
  83:..\..\..\liblc3\src/attdet.c **** 
  84:..\..\..\liblc3\src/attdet.c ****         if ((e[i] >> 3) > a[i] + (a[i] >> 4))
 262              		.loc 1 84 0
 263 014e 02EB2214 		add	r4, r2, r2, asr #4
 264 0152 0133     		adds	r3, r3, #1
 265              	.LVL30:
 266 0154 B4EBE00F 		cmp	r4, r0, asr #3
 267 0158 B8BF     		it	lt
 268 015a 1946     		movlt	r1, r3
 269              	.LVL31:
  80:..\..\..\liblc3\src/attdet.c ****         a[i] = LC3_MAX(attdet->an1 >> 2, attdet->en1);
 270              		.loc 1 80 0
 271 015c 9C45     		cmp	ip, r3
 272 015e F0D1     		bne	.L10
 273              	.LBE16:
  85:..\..\..\liblc3\src/attdet.c ****             p_att = i + 1;
  86:..\..\..\liblc3\src/attdet.c ****     }
  87:..\..\..\liblc3\src/attdet.c **** 
  88:..\..\..\liblc3\src/attdet.c ****     int att = attdet->p_att >= 1 + (nblk >> 1) || p_att > 0;
 274              		.loc 1 88 0
 275 0160 AB68     		ldr	r3, [r5, #8]
 276              	.LVL32:
 277 0162 B3EB5C0F 		cmp	r3, ip, lsr #1
 278 0166 85E80500 		stmia	r5, {r0, r2}
 279 016a 03DC     		bgt	.L17
 280              		.loc 1 88 0 is_stmt 0 discriminator 2
 281 016c 081C     		adds	r0, r1, #0
 282 016e 18BF     		it	ne
 283 0170 0120     		movne	r0, #1
 284 0172 00E0     		b	.L11
 285              	.L17:
 286              		.loc 1 88 0
 287 0174 0120     		movs	r0, #1
 288              	.L11:
 289              	.LVL33:
  89:..\..\..\liblc3\src/attdet.c ****     attdet->p_att = p_att;
 290              		.loc 1 89 0 is_stmt 1 discriminator 6
 291 0176 A960     		str	r1, [r5, #8]
  90:..\..\..\liblc3\src/attdet.c **** 
  91:..\..\..\liblc3\src/attdet.c ****     return att;
ARM GAS  C:\Users\rdn\AppData\Local\Temp\cc2yEK8X.s 			page 8


 292              		.loc 1 91 0 discriminator 6
 293 0178 00E0     		b	.L2
 294              	.LVL34:
 295              	.L15:
  38:..\..\..\liblc3\src/attdet.c **** 
 296              		.loc 1 38 0
 297 017a 0020     		movs	r0, #0
 298              	.LVL35:
 299              	.L2:
  92:..\..\..\liblc3\src/attdet.c **** }
 300              		.loc 1 92 0
 301 017c 15B0     		add	sp, sp, #84
 302              		.cfi_def_cfa_offset 36
 303              		@ sp needed
 304 017e BDE8F08F 		pop	{r4, r5, r6, r7, r8, r9, r10, fp, pc}
 305              		.cfi_endproc
 306              	.LFE7:
 307              		.size	lc3_attdet_run, .-lc3_attdet_run
 308              		.text
 309              	.Letext0:
 310              		.file 2 "c:\\program files (x86)\\cypress\\psoc creator\\4.4\\psoc creator\\import\\gnu\\arm\\5.4.
 311              		.file 3 "c:\\program files (x86)\\cypress\\psoc creator\\4.4\\psoc creator\\import\\gnu\\arm\\5.4.
 312              		.file 4 "./liblc3/include/lc3_private.h"
 313              		.file 5 "..\\..\\..\\liblc3\\src\\common.h"