ARM GAS  C:\Users\rdn\AppData\Local\Temp\cc9mY3xa.s 			page 1


   1              		.syntax unified
   2              		.cpu cortex-m4
   3              		.eabi_attribute 27, 1
   4              		.fpu fpv4-sp-d16
   5              		.eabi_attribute 20, 1
   6              		.eabi_attribute 21, 1
   7              		.eabi_attribute 23, 3
   8              		.eabi_attribute 24, 1
   9              		.eabi_attribute 25, 1
  10              		.eabi_attribute 26, 1
  11              		.eabi_attribute 30, 2
  12              		.eabi_attribute 34, 1
  13              		.eabi_attribute 18, 4
  14              		.thumb
  15              		.syntax unified
  16              		.file	"bwdet.c"
  17              		.text
  18              	.Ltext0:
  19              		.section	.gnu.lto_.profile.d618b52e,"",%progbits
  20 0000 789C6361 		.ascii	"x\234ca`d`c`\000\222\227\030{\030\001\004\370\001m"
  20      60646063 
  20      60009297 
  20      187B1801 
  20      04F8016D 
  21              		.text
  22              		.section	.gnu.lto_.icf.d618b52e,"",%progbits
  23 0000 789C6361 		.ascii	"x\234ca`d\000\2010\006\004\340c8\261o\337\007^\306\213"
  23      60640081 
  23      300604E0 
  23      6338B16F 
  23      DF075EC6 
  24 0015 9BD76DE3 		.ascii	"\233\327m\343c:\373l\317%^\346\265\257\177~\344d9\264"
  24      633AFB6C 
  24      CF255EE6 
  24      B5AF7F7E 
  24      E46439B4 
  25 0029 6ADE464E 		.ascii	"j\336FN\326\225\263\266l\344ck\332:\343\037\023{\367"
  25      D695B3B6 
  25      6CE4636B 
  25      DA3AE31F 
  25      137BF7
  26 003c 95956B18 		.ascii	"\225\225k\0309V\314=\264\211\205s\335\374\355\2638\271"
  26      3956CC3D 
  26      B4898573 
  26      DDFCEDB3 
  26      38B9
  27 004e 8EEC39FD 		.ascii	"\216\3549\375\205\221{\367\374\213{\270x\026\035\377"
  27      85917BF7 
  27      FC8B7BB8 
  27      78161DFF 
  28 005e 3F898D77 		.ascii	"?\211\215w\337\267{\207\371\030\000_\371*\313"
  28      DFB77B87 
  28      F918005F 
  28      F92ACB
  29              		.text
  30              		.section	.gnu.lto_.jmpfuncs.d618b52e,"",%progbits
  31 0000 789C458D 		.ascii	"x\234E\215A\022\3000\010\002\205\244\246}\262'\016\375"
ARM GAS  C:\Users\rdn\AppData\Local\Temp\cc9mY3xa.s 			page 2


  31      4112C030 
  31      080285A4 
  31      A67DB227 
  31      0EFD
  32 0012 78636C26 		.ascii	"xcl&\\\030e\305n\260\324kG\303\0104\25132e$\202\006"
  32      5C1865C5 
  32      6EB0D46B 
  32      47C30834 
  32      A9333265 
  33 0029 6048BAA6 		.ascii	"`H\272\246\313\327\004\301'c\233ap\332H\200\265\277"
  33      CBD704C1 
  33      27639B61 
  33      70DA4880 
  33      B5BF
  34 003b F7955757 		.ascii	"\367\225WW\211\205?\177\311~t\022\373\000\223\271\014"
  34      89853F7F 
  34      C97E7412 
  34      FB0093B9 
  34      0C
  35 004c 5D       		.ascii	"]"
  36              		.text
  37              		.section	.gnu.lto_.inline.d618b52e,"",%progbits
  38 0000 789C6D50 		.ascii	"x\234mP\275JC1\024\376\276$\367&\275\375\361\252P\027"
  38      BD4A4331 
  38      14FEBE24 
  38      F726BDFD 
  38      F1AA5017 
  39 0014 A1DDBAEA 		.ascii	"\241\335\272\352\013H7\267,>\204\245}\001'q)8i@p\356"
  39      0B4837B7 
  39      2C3E84A5 
  39      7D012771 
  39      29386940 
  40 002a 20E8587C 		.ascii	" \350X|\002\025G\301]\027_Ap-\230\023S\361\202\031r"
  40      021547C1 
  40      5D175F41 
  40      702D9813 
  40      53F18219 
  41 003f E07CBF1C 		.ascii	"\340|\277\034\003B\336\305\317H\317\002\233\033$\207"
  41      0342DEC5 
  41      CF48CF02 
  41      9B1B2487 
  42 004f 71A7BB37 		.ascii	"q\247\2737Gh\275\354)\230\363m#\250\351\002*\370\340"
  42      4768BDEC 
  42      2998F36D 
  42      23A8E902 
  42      2AF8E0
  43 0062 593FE3DD 		.ascii	"Y?\343\335R\301E\036\345\323\247og'(\027\203\310^\014"
  43      52C1451E 
  43      E5D3A76F 
  43      67272817 
  43      83C85E0C 
  44 0076 9C9051C0 		.ascii	"\234\220Q\300Y2qt\\$\260\012>Y\225\350T,\350\246+\305"
  44      59327174 
  44      5C24B00A 
  44      3E5995E8 
  44      542CE8A6 
  45 008c EBF9D3AB 		.ascii	"\353\371\323\253\375Rs\035\013\361\226\273\321q\226"
ARM GAS  C:\Users\rdn\AppData\Local\Temp\cc9mY3xa.s 			page 3


  45      FD52731D 
  45      0BF196BB 
  45      D17196
  46 009b E724C28F 		.ascii	"\347$\302\217\037\367\237m\201I\303\273\264>\316\223"
  46      1FF79F6D 
  46      8149C3BB 
  46      B43ECE93 
  47 00ab 1283DFD8 		.ascii	"\022\203\337\330\2614\035K8\212\036\206\016Z\312\006"
  47      B1341D4B 
  47      388A1E86 
  47      0E5ACA06 
  48 00bb 6FE1DAD4 		.ascii	"o\341\332\324p\223$C\2267\213Ey-B\335\201\003\203w\330"
  48      70932443 
  48      96378B45 
  48      792D42DD 
  48      81038377 
  49 00d0 E9C7BCAC 		.ascii	"\351\307\274\254iD\252$\354]\035\242\272\334\2177x8"
  49      6944AA24 
  49      EC5D1DA2 
  49      BADC8F37 
  49      7838
  50 00e2 A8D7D7C9 		.ascii	"\250\327\327\311\201k\223\026\266\372\324\377\232\350"
  50      816B9316 
  50      B6FAD4FF 
  50      9AE8
  51 00f0 7239825B 		.ascii	"r9\202[\216\232z\365W\215o\300;9!"
  51      8E9A7AF5 
  51      578D6FC0 
  51      3B3921
  52              		.text
  53              		.section	.gnu.lto_.pureconst.d618b52e,"",%progbits
  54 0000 789C6361 		.ascii	"x\234ca`d\340g```g\220b4ee`\023ag\340\220\342\224\002"
  54      6064E067 
  54      60606067 
  54      90623465 
  54      65601361 
  55 001a 00076500 		.ascii	"\000\007e\000\327"
  55      D7
  56              		.text
  57              		.section	.gnu.lto_lc3_get_bits.d618b52e,"",%progbits
  58 0000 789C8553 		.ascii	"x\234\205SMHTQ\024\276\337\275\357\315\2173:.j\325$"
  58      4D485451 
  58      14BEDFBD 
  58      EFCD8F33 
  58      3A2E6AD5 
  59 0015 428824E4 		.ascii	"B\210$\344,Z\006Q\253Z\267\266E\216BB\264\350\027q1"
  59      2C5A0651 
  59      AB5AB7B6 
  59      458E4242 
  59      B4E81771 
  60 002a CF997983 		.ascii	"\317\231y\203\255R,\243H\214J\324JkJ3\247\2771-K,\221"
  60      AD522CA3 
  60      488C4AD4 
  60      4A6B4A33 
  60      A7BF312D 
  61 0041 C2880A4A 		.ascii	"\302\210\012J\373\025\027Z\206e\351t\316}F\026\205\227"
  61      FB15175A 
ARM GAS  C:\Users\rdn\AppData\Local\Temp\cc9mY3xa.s 			page 4


  61      8665E974 
  61      CE7D4616 
  61      8597
  62 0053 F7EEBBEF 		.ascii	"\367\356\273\357\334\363\235\363}\347\334k\010\010\036"
  62      DCF39DF3 
  62      7DE7DC6B 
  62      08081E
  63 0062 A70C21B6 		.ascii	"\247\014!\266\322w#\275p\011\310\332GBT{\244T\243!a"
  63      D27723BD 
  63      7009C8DA 
  63      4742547B 
  63      A454A321 
  64 0077 6519A93C 		.ascii	"e\031\251<a\371\025L\307l\374Z\230\000/,\017DD*\303"
  64      61F9154C 
  64      C76CFC5A 
  64      98002F2C 
  64      0F44442A 
  65 008c 44045FE4 		.ascii	"D\004_\344\274\304H\374\322I5#m%`\320\357\364\303\023"
  65      BCC448FC 
  65      D2493523 
  65      6D2560D0 
  65      EFF4C313 
  66 00a0 E339FC0B 		.ascii	"\3439\374\013\344\363\356\304\373\270om\213eE\255Ww"
  66      E4F3EEC4 
  66      FBB86F6D 
  66      8B6545AD 
  66      5777
  67 00b2 E7361F89 		.ascii	"\3476\037\211\331[m%EF\012\264\"\210\026\004\231E\033"
  67      D95B6D25 
  67      45460AB4 
  67      22881604 
  67      99451B
  68 00c5 D6926FE3 		.ascii	"\326\222o\343\302\351\001\237\312\203\240uO\323\311"
  68      C2E9019F 
  68      CA83A075 
  68      4FD3C9
  69 00d4 36576133 		.ascii	"6Wa3\343\254\371r\313k+\205sPKqd\0228\217B\362\236\267"
  69      E3ACF972 
  69      CB6B2B85 
  69      73504B71 
  69      6412388F 
  70 00ec 8E34E4A8 		.ascii	"\2164\344\2505\032y\256odH1\222F\362\236\337\252\205"
  70      351A79AE 
  70      6F644831 
  70      9246F29E 
  70      DFAA85
  71 00ff AD0C5CF8 		.ascii	"\255\014\\\370\033k\010\264\243P\003\354\321(T\201\006"
  71      1B6B08B4 
  71      A35003EC 
  71      D1285481 
  71      06
  72 0110 771EB333 		.ascii	"w\036\2633\252\340\014\247M?\033^}\334J\307\363me\242"
  72      AAE00CA7 
  72      4D3F1B5E 
  72      7DDC4AC7 
  72      F36D65A2 
  73 0124 E34F380F 		.ascii	"\343O8\017\362\036K.\034\315v\3059S>.\242\200e\221\232"
ARM GAS  C:\Users\rdn\AppData\Local\Temp\cc9mY3xa.s 			page 5


  73      F21E4B2E 
  73      1CCD76C5 
  73      39533E2E 
  73      A2806591 
  74 0139 4B7071A5 		.ascii	"Kpq\245/nK[\231L\314J?\015\364\316\005rAI%U\205\030"
  74      2F6E4B5B 
  74      994CCC4A 
  74      3F0DF4CE 
  74      05724149 
  75 0151 9B9CDF05 		.ascii	"\233\234\337\005&\340\346\245\207\267\274<e\361\344"
  75      26E0E6A5 
  75      87B7BC3C 
  75      65F1E4
  76 0160 E3C9CF53 		.ascii	"\343\311\317S\200'!\246\350\345\332OK\311_5\206(\263"
  76      802721A6 
  76      E8E5DA4F 
  76      4BC95F35 
  76      8628B3
  77 0173 E344C4E2 		.ascii	"\343D\304\342\351\351[\3659E\255\314\342U\327\307\225"
  77      E9E95BF5 
  77      3945ADCC 
  77      E255D7C7 
  77      95
  78 0184 75B13829 		.ascii	"u\2618)6\2053\220D\021\3714\330w\206\335\334\025\245"
  78      36853390 
  78      4411F934 
  78      D87786DD 
  78      DC15A5
  79 0197 65CE0E0C 		.ascii	"e\316\016\014\326\370\233\320X\315\030\373{\245a+W\214"
  79      D6F89BD0 
  79      58CD18FB 
  79      7BA5612B 
  79      578C
  80 01a9 F62EB336 		.ascii	"\366.\2636\332o~\023\355p\207\326\331\312\215+h\302"
  80      DA6F7E13 
  80      ED7087D6 
  80      D9CA8D2B 
  80      68C2
  81 01bb 825C14FC 		.ascii	"\202\\\024\374\374l\357Y_d^\327\366 \327\245\023!f!"
  81      FC6CEF59 
  81      5F645ED7 
  81      F620D7A5 
  81      13216621 
  82 01cf D0858818 		.ascii	"\320\205\210\030\203\324\332\251\022\234V\274C4\225"
  82      83D4DAA9 
  82      129C56BC 
  82      433495
  83 01de 9C7DACD8 		.ascii	"\234}\254\330\030S&\341\337>\250O\370\231\206\211 \375"
  83      185326E1 
  83      DF3EA84F 
  83      F8998689 
  83      20FD
  84 01f0 4ED5F57E 		.ascii	"N\325\365~\246\360\215\304\327\315\351\257.\246?4\230"
  84      A6F08DC4 
  84      D7CDE9AF 
  84      2EA63F34 
  84      98
ARM GAS  C:\Users\rdn\AppData\Local\Temp\cc9mY3xa.s 			page 6


  85 0201 3AEAE5F4 		.ascii	":\352\345\364\006\272uz.'\256!D!c\015\211!\351D$\214"
  85      06BA757A 
  85      2E27AE21 
  85      4421630D 
  85      8921E944 
  86 0217 19532EF1 		.ascii	"\031S.\361\032\361\341X\351\242m\351\0214\220\217\236"
  86      1AF1E158 
  86      E9A26DE9 
  86      1134908F 
  86      9E
  87 0228 C5764D4B 		.ascii	"\305vMK%FC\2129M\317\2163\231\304\231\276o\331j\213"
  87      2546438A 
  87      394DCF8E 
  87      3399C499 
  87      BE6FD96A 
  88 023d 2EC8C2E7 		.ascii	".\310\302\347fp\333i\\/\263\016mblj\371\236_\247\236"
  88      6670DB69 
  88      5C2FB30E 
  88      6D626C6A 
  88      F99E5FA7 
  89 0252 6BFD0237 		.ascii	"k\375\00278\273g\211(\256\255\265]\374O\232\304M-M\237"
  89      38BB6789 
  89      28AEADB5 
  89      5DFC4F9A 
  89      C44D2D4D 
  90 0267 985B8EB4 		.ascii	"\230[\216\264O\211'\312\011\344\245X\244\216\215S\211"
  90      4F8927CA 
  90      09E4A558 
  90      A48E8D53 
  90      89
  91 0278 49D33166 		.ascii	"I\3231f\361\001\355\037HxX\233\004p\033A\326\257\213"
  91      F101ED1F 
  91      4878589B 
  91      04701B41 
  91      D6AF8B
  92 028b F2C2E538 		.ascii	"\362\302\3458\371\034\277\227\367\333\316+\307/C#\200"
  92      F91CBF97 
  92      F7DBCE2B 
  92      C72F4323 
  92      80
  93 029c 341120C7 		.ascii	"4\021 \307\037\211\031\303q\364\353,>\352Z\324\332\300"
  93      1F8919C3 
  93      71F4EB2C 
  93      3EEA5AD4 
  93      DAC0
  94 02ae 265643C8 		.ascii	"&VC\310\361\326\356\257YU\225T\001\362a\273@/\252\270"
  94      F1D6EEAF 
  94      59559554 
  94      01F261BB 
  94      402FAAB8 
  95 02c2 990DC91F 		.ascii	"\231\015\311\037\365n\266,\333\272v\326\236\313E\274"
  95      F56EB62C 
  95      DBBA76D6 
  95      9ECB45BC 
  96 02d2 F3BB7F7D 		.ascii	"\363\273\177}\010Q\177t+\014\221\312S\037`\247g\017"
  96      08517F74 
  96      2B0C91CA 
ARM GAS  C:\Users\rdn\AppData\Local\Temp\cc9mY3xa.s 			page 7


  96      531F60A7 
  96      670F
  97 02e4 AF70FA16 		.ascii	"\257p\372\026\340;\3373\371\334M\247\253Fc=\031\206"
  97      E03BDF33 
  97      F9DC4DA7 
  97      AB46633D 
  97      1986
  98 02f6 A19F0E16 		.ascii	"\241\237\016\026% \235\266\362j\260\251\357\300\004"
  98      25209DB6 
  98      F26AB0A9 
  98      EFC004
  99 0305 A2B9B4C1 		.ascii	"\242\271\264\301\221?\001DU\305#\024\306\350\214\320"
  99      913F0144 
  99      55C52314 
  99      C6E88CD0 
 100 0315 7501BB50 		.ascii	"u\001\273PeW\025\027\2278\317\256\212\322]\341\365%"
 100      65571517 
 100      9738CFAE 
 100      8AD25DE1 
 100      F525
 101 0327 7BF7844B 		.ascii	"{\367\204KJ+\366\355-\336)\014\376b\267\261#\034\336"
 101      4A2BF6ED 
 101      2DDE290C 
 101      FE62B7B1 
 101      231CDE
 102 033a 1FFCA7DF 		.ascii	"\037\374\247\337\301\262\362}\305a\201\003?\001\275"
 102      C1B2F27D 
 102      C5618103 
 102      3F01BD
 103 0349 1C9697   		.ascii	"\034\226\227"
 104              		.text
 105              		.section	.gnu.lto_lc3_bwdet_run.part.0.d618b52e,"",%progbits
 106 0000 789C9557 		.ascii	"x\234\225WiPU\311\025\276\347\366\333w6E}\202\033\342"
 106      695055C9 
 106      15BEE7F6 
 106      DB773645 
 106      7D821BE2 
 107 0014 CAE2362E 		.ascii	"\312\3426.\243\342\222J*\225_\363\313\2322\371\3412"
 107      A3E2924A 
 107      2A955FF3 
 107      CB9A32F9 
 107      E132
 108 0026 152BD664 		.ascii	"\025+\326dJ\2552?R\345\325\313j9j\222\211\243 :f48\216"
 108      4AAD323F 
 108      52E5D5CB 
 108      6A396A92 
 108      89A3203A 
 109 003e 46501115 		.ascii	"FP\021\025\301\2072\340\202\350\2700:\340\202\013\223"
 109      C18732E0 
 109      82E8B830 
 109      3AE0820B 
 109      93
 110 004f A8710435 		.ascii	"\250q\0045N\031\320\234s\272y<\360\375\311-^\337\356"
 110      4E19D09C 
 110      73BA793C 
 110      F0FDC92D 
 110      5EDFEE
ARM GAS  C:\Users\rdn\AppData\Local\Temp\cc9mY3xa.s 			page 8


 111 0062 D3E73BE7 		.ascii	"\323\347;\347\353\323\247O_,\032h\364l\216\321\264_"
 111      EBD3A74F 
 111      5F2C1A68 
 111      F46C8ED1 
 111      B45F
 112 0074 E17B280E 		.ascii	"\341{(\016!A\203\370\315\215\330\211\007\235\337:\270"
 112      214183F8 
 112      CD8DD889 
 112      079DDF3A 
 112      B8
 113 0085 E9BDD621 		.ascii	"\351\275\326!\300*;\026\331\251qXu\313\206zM3\\\266"
 113      C02A3B16 
 113      D9A97158 
 113      75CB867A 
 113      4D335CB6 
 114 0099 6CBB6678 		.ascii	"l\273fxl\272\303\202\003\373\006\2344<vpHu\207\356\314"
 114      6CBAC382 
 114      03FB069C 
 114      343C7670 
 114      487587EE 
 115 00ae 4F45B98B 		.ascii	"OE\271\213Z\217\023\\R\354\222vk\034n]H+\036\266\342"
 115      5A8F135C 
 115      52EC9276 
 115      6B1C6E5D 
 115      482B1EB6 
 116 00c3 D1BDAC1E 		.ascii	"\321\275\254\036\303\352^\360Ku\237\354\3248\374z\240"
 116      C3EA5EF0 
 116      4B759FEC 
 116      D438FC7A 
 116      A0
 117 00d4 F13CA9C7 		.ascii	"\361<\251\307\234\026\250\020\320}\221\303\030=\356"
 117      9C16A810 
 117      D07D91C3 
 117      183DEE
 118 00e3 64128E62 		.ascii	"d\022\216b\257\245\343(\026\342$:\016\200:\206\003\264"
 118      AFA5E328 
 118      16E2243A 
 118      0E803A86 
 118      03B4
 119 00f5 35F1BAB0 		.ascii	"5\361\272\260Xmv\207\323\345\366x}\376@Ll\034\254\261"
 119      586D7687 
 119      D3E5F678 
 119      7DFE404C 
 119      6C1CACB1 
 120 0109 F8350859 		.ascii	"\3705\010Y\340->\202\203\342\326\344c\355#\177\251w"
 120      E02D3E82 
 120      83E2D6E4 
 120      63ED237F 
 120      A977
 121 011b E970E1D5 		.ascii	"\351p\341\325\331\015\256\321%\206\261\316\270\273g"
 121      D90DAED1 
 121      2586B1CE 
 121      B8BB67
 122 012a 63BFCFF7 		.ascii	"c\277\317\367\206 \007\247\337\352\032L\014BF\020\365"
 122      862007A7 
 122      DFEA1A4C 
 122      0C424610 
ARM GAS  C:\Users\rdn\AppData\Local\Temp\cc9mY3xa.s 			page 9


 122      F5
 123 013b A00446A3 		.ascii	"\240\004F\243\346\332\3347y \222A\303\376\341\202m_"
 123      E6DADC37 
 123      79209241 
 123      C3FEE182 
 123      6D5F
 124 014d 5A53F710 		.ascii	"ZS\367\020*\364r7|n\020\012`/\210\036 \0124\370\012"
 124      2AF47237 
 124      7C6E100A 
 124      602F881E 
 124      200A34F8 
 125 0162 5251FD98 		.ascii	"RQ\375\230\021\272g\021\303\030Z\335\222\323\344\226"
 125      11BA6711 
 125      C3185ADD 
 125      92D3E496 
 126 0172 5063DBAF 		.ascii	"Pc\333\257\015\221#t\330\327\033\207\335\257\031\367"
 126      0D912374 
 126      D8D71B87 
 126      DDAF19F7 
 127 0182 6D76E976 		.ascii	"mv\351v\361B\317\021\002,8l\277Xx\337GC\013\014\301"
 127      F142CF11 
 127      022C386C 
 127      BF5878DF 
 127      47430B0C 
 128 0197 E1A72FF6 		.ascii	"\341\247/\366\236\265\213\024\266\272\311x],\224\325"
 128      9EB58B14 
 128      B6BAC978 
 128      5D2C94D5 
 129 01a7 E6A58633 		.ascii	"\346\245\2063GX\341\037\322\352\001\010\302~ \273\030"
 129      4758E11F 
 129      D2EA0108 
 129      C27E20BB 
 129      18
 130 01b8 808390CA 		.ascii	"\200\203\220\312\352\355\307O\010\221\312\320+\241\312"
 130      EAEDC74F 
 130      0891CAD0 
 130      2BA1CA
 131 01c7 6FFC295F 		.ascii	"o\374)_\032\370\204\312\353=\333\214P\366\220\034a\203"
 131      1AF884CA 
 131      EB3DDB8C 
 131      50F6901C 
 131      6183
 132 01d9 D2DE707A 		.ascii	"\322\336pzP\373dAe\276K\214cd\323\337\316Tx\011\211"
 132      50FB6441 
 132      65BE4B8C 
 132      6364D3DF 
 132      CE547809 
 133 01ee 51B8933B 		.ascii	"Q\270\223;X!\355p(*\262\310l\335\344\025\031\214\374"
 133      5821ED70 
 133      282AB2C8 
 133      6CDDE415 
 133      198CFC
 134 0201 EA4ADB51 		.ascii	"\352J\333Q\233B^\317\015b\374\326\"R\203#\221\201P\270"
 134      9B425ECF 
 134      0D62FCD6 
 134      22528323 
 134      918150B8 
ARM GAS  C:\Users\rdn\AppData\Local\Temp\cc9mY3xa.s 			page 10


 135 0215 D2137935 		.ascii	"\322\023y5\0161\211q\373j\2174t{\274R\3476J\015\007"
 135      0E318971 
 135      FB6A8F34 
 135      747BBC52 
 135      E7364A0D 
 136 022a C18E4681 		.ascii	"\301\216F\2015\337.\336\340\035\365w^V\327'\006):h["
 136      35DF2EDE 
 136      E01DF577 
 136      5E56D727 
 136      06293A68 
 137 023f D5831AF7 		.ascii	"\325\203\032\367\312\336\374\325k\313&\215!p\014FA\005"
 137      CADEFCD5 
 137      6BCB268D 
 137      21700C46 
 137      4105
 138 0251 A44039FE 		.ascii	"\244@9\376\016\343\257\014R\2446\034\007\033\236\246"
 138      0EE3AF0C 
 138      52A4361C 
 138      071B9EA6 
 139 0261 8402A115 		.ascii	"\204\002\241\025\010(\020z\201\020\005\302R \254h\342"
 139      0828107A 
 139      811005C2 
 139      5220AC68 
 139      E2
 140 0272 61CE7787 		.ascii	"a\316w\207\035\304g\275\021z^\012\230=\264\016\247\326"
 140      1DC467BD 
 140      117A5E0A 
 140      983DB40E 
 140      A7D6
 141 0284 9B0D9C80 		.ascii	"\233\015\234\200\024T\336s\341L\265OL\345\205<j,kv\250"
 141      1454DE73 
 141      E14CB54F 
 141      4CE5853C 
 141      6A2C6B76 
 142 0299 A05FCD4B 		.ascii	"\240_\315K\010\007\275\362\335\320\301IF?n:\374g]Lg"
 142      0807BDF2 
 142      DDD0C149 
 142      463F6E3A 
 142      FC675D4C 
 143 02ae 74F9FAFC 		.ascii	"t\371\372\374<\267BW\325\373\017K\264\013\252\242\240"
 143      3CB74257 
 143      D5FB0F4B 
 143      B40BAAA2 
 143      A0
 144 02bf AB197DB0 		.ascii	"\253\031}\260\341z\211_\314d\364\255\375\333.\201BW"
 144      E17A895F 
 144      CC64F4AD 
 144      FDDB2E81 
 144      4257
 145 02d1 D627877D 		.ascii	"\326'\207}\237\212\202\0161\372vE]\251O\314f\364\201"
 145      9F8A820E 
 145      31FA7645 
 145      5DA94FCC 
 145      66F481
 146 02e4 BCCB7F72 		.ascii	"\274\313\177rJ\264Q\271\304(\310\"hM\024\350i\206\356"
 146      4AB451B9 
 146      C428C822 
ARM GAS  C:\Users\rdn\AppData\Local\Temp\cc9mY3xa.s 			page 11


 146      684D14E8 
 146      6986EE
 147 02f7 3A99635A 		.ascii	":\231cZ\305\\yj\266\267\355\322\225\343\377\326\365"
 147      C55C796A 
 147      B6B7EDD2 
 147      95E3FFD6 
 147      F5
 148 0308 D03E1305 		.ascii	"\320>\023\005]\313\350.\343\263->\3613F\227\030\017"
 148      5DCBE82E 
 148      E3B32D3E 
 148      F1334697 
 148      180F
 149 031a AF76E7E9 		.ascii	"\257v\347\351\253:_\230\3667Q\320u\214\316~|+I\374\234"
 149      AB3A5F98 
 149      F63751D0 
 149      758CCE7E 
 149      7C2B49FC 
 150 032f C1EB9B5F 		.ascii	"\301\353\233_\375E\261\016\275\254K\012\203\353\243"
 150      FD45B10E 
 150      BDAC4B0A 
 150      83EBA3
 151 033e 80CF3238 		.ascii	"\200\31728b\207z\326\031m{\316\261z\303\316\013\317"
 151      62877AD6 
 151      196D7BCE 
 151      B17AC3CE 
 151      0BCF
 152 0350 BCE297EC 		.ascii	"\274\342\227\354\354\310\235\3279\240\262\364y]R8\273"
 152      ECC89DD7 
 152      39A0B2F4 
 152      795D5238 
 152      BB
 153 0361 CFF74D53 		.ascii	"\317\367MS\270 3\2153\2162\257\202m]y\326P\354\226\307"
 153      B820338D 
 153      338E32AF 
 153      826D5D79 
 153      D650EC96 
 154 0376 3E80C3A3 		.ascii	">\200\303\243m\347\352\\\362\330\033\200\343\212\003"
 154      6DE7EA5C 
 154      F2D81B80 
 154      E38A03
 155 0385 5FE493F9 		.ascii	"_\344\223\371\315\264\373y#\327\312\265\2709\351.\""
 155      CDB4FB79 
 155      23D7CAB5 
 155      B839E92E 
 155      22
 156 0396 B3866E66 		.ascii	"\263\206nf\215\220r\360\003\303x\373\32646\337\367\303"
 156      8D9072F0 
 156      03C378FB 
 156      D63436DF 
 156      F7C3
 157 03a8 2F00A81E 		.ascii	"/\000\250\036\351X\011l\002\033\217\005\250\316X\261"
 157      E958096C 
 157      021B8F05 
 157      A8CE58B1 
 158 03b8 2B6CD4D8 		.ascii	"+l\324\330\251qh\304\306\311\334\\(\360\272\251\361"
 158      A97168C4 
 158      C6C9DC5C 
ARM GAS  C:\Users\rdn\AppData\Local\Temp\cc9mY3xa.s 			page 12


 158      28F0BAA9 
 158      F1
 159 03c9 6063F762 		.ascii	"`c\367b\343\363\361\212\375\324\015p\254b8\334\261\244"
 159      E3F3F18A 
 159      FDD40D70 
 159      AC6238DC 
 159      B1A4
 160 03db 15474D3C 		.ascii	"\025GM<P\225I\240z\323\217\367\261?#\022\271\035@\032"
 160      509549A0 
 160      7AD38FF7 
 160      B13F2312 
 160      B91D401A 
 161 03ef 03A91944 		.ascii	"\003\251\031D\012T\225\\\203Y+\211\333d\326\032B\024"
 161      0A54955C 
 161      83592B89 
 161      DB64D61A 
 161      4214
 162 0401 8752338C 		.ascii	"\207R3\214\024\2063\231\021\334\246p;\022\305\316T\215"
 162      14863399 
 162      11DCA670 
 162      3B12C5CE 
 162      548D
 163 0413 62378A8C 		.ascii	"b7\212\214\215\246f\014q\034K\304\306q\366\215'\003"
 163      8DA6660C 
 163      711C4BC4 
 163      C671F68D 
 163      2703
 164 0425 699CC3E9 		.ascii	"i\234\303\351|\0162H\220\311\007j\002\267\023I0\211"
 164      7C0E3248 
 164      90C9076A 
 164      02B71349 
 164      3089
 165 0437 B093A999 		.ascii	"\260\223\251\231B\224\336#\217Si8\215\232\351$\233A"
 165      4294DE23 
 165      8F536938 
 165      8D9AE924 
 165      9B41
 166 0449 B2F7A999 		.ascii	"\262\367\251\231I\216g\261\343\331l\"\213\373s\310\320"
 166      498E67B1 
 166      E3D96C22 
 166      8BFB73C8 
 166      D0
 167 045a 5CEECEC3 		.ascii	"\\\356\316\303\2566\237Yj\3323\254 7\351\025\217/\321"
 167      AE369F59 
 167      6ADA33AC 
 167      2037E915 
 167      8F2FD1
 168 046d AEEBF46A 		.ascii	"\256\353\364j\203u\035yo\012\017\001\225\026S\350&^"
 168      83751D79 
 168      6F0A0F01 
 168      951653E8 
 168      265E
 169 047f 1428AB56 		.ascii	"\024(\253Vc\201[\274%\347\364%;m\271\237\023\352\370"
 169      63815BBC 
 169      25E7F425 
 169      3B6DB99F 
 169      13EAF8
ARM GAS  C:\Users\rdn\AppData\Local\Temp\cc9mY3xa.s 			page 13


 170 0492 F127CDF6 		.ascii	"\361'\315\3665]F\276a\004P\206\345\207\013\330\243\206"
 170      355D46BE 
 170      61045086 
 170      E5870BD8 
 170      A386
 171 04a4 EBB5AE9D 		.ascii	"\353\265\256\235P\274\326`y\000.\303\032\270D\273O\223"
 171      50BCD660 
 171      79002EC3 
 171      1AB844BB 
 171      4F93
 172 04b6 5555AD22 		.ascii	"UU\255\"3\035\267\031\276\205\235\200~8'\256@\246\306"
 172      331DB719 
 172      BE859D80 
 172      7E3827AE 
 172      40A6C6
 173 04c9 049E58A5 		.ascii	"\004\236X\245;\253\211\326\332\300\334b\223c\022!\334"
 173      3BAB89D6 
 173      DAC0DC62 
 173      93631221 
 173      DC
 174 04da 3C74E8A6 		.ascii	"<t\350\246E\346 \335\230\032\\E\273\250V\250\324\354"
 174      45E620DD 
 174      981A5C45 
 174      BBA856A8 
 174      D4EC
 175 04ec A8C99986 		.ascii	"\250\311\231\206\262\355\271\327\204\224:\220>\316i"
 175      B2EDB9D7 
 175      84943A90 
 175      3ECE69
 176 04fb F7F05B83 		.ascii	"\367\360[\203\352&f\022\012q\270\216\016B\337\232K!"
 176      EA266612 
 176      0A71B88E 
 176      0E42DF9A 
 176      4B21
 177 050d 2235A475 		.ascii	"\"5\244u\015\225/p\362\207\227\216\2374p\235S\271]\027"
 177      0D952F70 
 177      F287978E 
 177      9F34709D 
 177      53B95D17 
 178 0521 5AB65DC6 		.ascii	"Z\266]\306\255\251hA_3\2300\224\207\224\205\224Bl\014"
 178      ADA96841 
 178      5F339830 
 178      94879485 
 178      94426C0C 
 179 0535 4D361121 		.ascii	"M6\021!\227\211\325X\322\346\261\033E\221\027\253\027"
 179      9789D558 
 179      D2E6B11B 
 179      459117AB 
 179      17
 180 0546 2CF09D5A 		.ascii	",\360\235Z\205R\361\3602\334\024\245\023\273\202R\346"
 180      8552F1F0 
 180      32DC14A5 
 180      13BB8252 
 180      E6
 181 0557 8D2466E7 		.ascii	"\215$f\347=yU\177>\337\323\023\374\030\004\302\015\025"
 181      3D79557F 
 181      3EDFD313 
ARM GAS  C:\Users\rdn\AppData\Local\Temp\cc9mY3xa.s 			page 14


 181      FC1804C2 
 181      0D15
 182 0569 FB1D5B8F 		.ascii	"\373\035[\217=\367\245\037 y,\334\304\350\277\221\301"
 182      3DF7A51F 
 182      20792CDC 
 182      C4E8BF91 
 182      C1
 183 057a FF1ED255 		.ascii	"\377\036\322U\360A\332\365\241i\016\026\216h\035(a\277"
 183      F041DAF5 
 183      A1690E16 
 183      8E681D28 
 183      61BF
 184 058c ADE3E4BC 		.ascii	"\255\343\344\274\377\377q\324\314\216\350C\020Z\302"
 184      FFFF71D4 
 184      CC8EE843 
 184      105AC2
 185 059b 8E843414 		.ascii	"\216\2044\024@[aGg\311Q\200\326\2745\367v\321t\251\021"
 185      405B6147 
 185      67C95180 
 185      D6BC35F7 
 185      76D174A9 
 186 05b0 C34ABEB0 		.ascii	"\303J\276\260R\035)\305H+O\213>\224J\261\3047\"\234"
 186      521D29C5 
 186      482B4F8B 
 186      3E944AB1 
 186      C437229C 
 187 05c4 7128EA1B 		.ascii	"q(\352\033\277\004S\304\343\014!_\257\357T\013\355\027"
 187      BF0453C4 
 187      E30C215F 
 187      AFEF540B 
 187      ED17
 188 05d6 19406BB4 		.ascii	"\031@k\264\000\242\251\004\270E\353\202\333\270\220"
 188      00A2A904 
 188      B845EB82 
 188      DBB890
 189 05e5 308F5AE2 		.ascii	"0\217Z\342\321\21734\267c\220\264\326\037\211\302\330"
 189      D18F3334 
 189      B76390B4 
 189      D61F89C2 
 189      D8
 190 05f6 60EFC8F5 		.ascii	"`\357\310\365\347L\261h\370\005\252\216X\321\002\251"
 190      E74CB168 
 190      F805AA8E 
 190      58D102A9 
 191 0606 3EC01489 		.ascii	">\300\024\211\221\254\007\242\250/\353A\314z \263vI"
 191      91AC07A2 
 191      A82FEB41 
 191      CC7A20B3 
 191      7649
 192 0618 51302AC9 		.ascii	"Q0*\311A\212\344\035\"\311\254ju\251\237\204\020S\014"
 192      418AE41D 
 192      22C9AC6A 
 192      75A99F84 
 192      10530C
 193 062b EECD3C49 		.ascii	"\356\315<I\352\374\247\350\017R)\031\271\274C=\231\251"
 193      EAFCA7E8 
 193      0F522919 
ARM GAS  C:\Users\rdn\AppData\Local\Temp\cc9mY3xa.s 			page 15


 193      B9BC433D 
 193      99A9
 194 063d 5B35FCB0 		.ascii	"[5\374\260\025xV\002\232\304\222)\032\260N\242\326\012"
 194      15785602 
 194      9AC49229 
 194      1AB04EA2 
 194      D60A
 195 064f D937CC8F 		.ascii	"\3317\314\217\302\373\231H)\325\001\211\270r\361\023"
 195      C2FB9948 
 195      29D50189 
 195      B872F113 
 196 065f 9EBA64CB 		.ascii	"\236\272d\313Y{\007\014\306`\211\226\212?\242gKg\305"
 196      597B070C 
 196      C6608996 
 196      8A3FA267 
 196      4B67C5
 197 0672 1780766D 		.ascii	"\027\200vmtx\020\374\275Y\2621]\302\235\352dQi\262\323"
 197      747810FC 
 197      BD59B231 
 197      5DC29DEA 
 197      645169B2 
 198 0687 74BBEE90 		.ascii	"t\273\356\220G\314,\314}\240B2\224\223b\010\205\244"
 198      47CC2CCC 
 198      7DA04232 
 198      94936208 
 198      85A4
 199 0699 29BCC861 		.ascii	")\274\310a('&7\315\025R\200\016\207I&\364M\332\336Y"
 199      28272637 
 199      CD155280 
 199      0E874926 
 199      F44DDADE 
 200 06ae 5CE1A43D 		.ascii	"\\\341\244=\266\341\177\035w!h\373\211\212I\327\263"
 200      B6E17F1D 
 200      772168FB 
 200      898A49D7 
 200      B3
 201 06bf CB5D1E29 		.ascii	"\313]\036)uA+\004\355\264\\\247vZ\010\016N\323\366\017"
 201      75412B04 
 201      EDB45CA7 
 201      765A080E 
 201      4ED3F60F 
 202 06d3 A4ADE1C8 		.ascii	"\244\255\341\310\214\356\317\332\372\\\007\251\343U"
 202      8CEECFDA 
 202      FA5C07A9 
 202      E355
 203 06e1 02F7A027 		.ascii	"\002\367\240'X\025\024\210\341\034,\027\321\225\341"
 203      58151488 
 203      E11C2C17 
 203      D195E1
 204 06f0 61E97C19 		.ascii	"a\351|\031\347\306\242&\240\363o\212\021\322Vy^C\231"
 204      E7C6A226 
 204      A0F36F8A 
 204      11D25679 
 204      5E4399
 205 0703 4B961380 		.ascii	"K\226\023\200\373\312\226\2526\250D\274\347\233\"\305"
 205      FBCA96AA 
 205      36A844BC 
ARM GAS  C:\Users\rdn\AppData\Local\Temp\cc9mY3xa.s 			page 16


 205      E79B22C5 
 206 0713 810572B8 		.ascii	"\201\005r\270s\377\361\335\0240\267v\253\3336k9\265"
 206      73FFF1DD 
 206      1430B776 
 206      ABDB366B 
 206      39B5
 207 0725 08472972 		.ascii	"\010G)r\037~\370\324*\375Xh\236\327\237BA\325\267\227"
 207      1F7EF8D4 
 207      2AFD5868 
 207      9ED79F42 
 207      41D5B797 
 208 0739 DF455BF3 		.ascii	"\337E[\363]\320\001N)\250x\201\202\021\256c^4\355\221"
 208      5DD0014E 
 208      29A87881 
 208      8211AE63 
 208      5E34ED91 
 209 074d 1780B923 		.ascii	"\027\200\271#\257\251x\201\254\231#\331F\212<i\015\352"
 209      AFA97881 
 209      AC9923D9 
 209      468A3C69 
 209      0DEA
 210 075f 12484579 		.ascii	"\022HEy\270\212\226\221\337T\351\367\371\306D\251\301"
 210      B88A9691 
 210      DF54E9F7 
 210      F9C644A9 
 210      C1
 211 0770 188D63E1 		.ascii	"\030\215c\341\325\306\313\214\177Z\374a\337\342\210"
 211      D5C6CB8C 
 211      7F5AFC61 
 211      DFE288
 212 077f F7205D80 		.ascii	"\367 ]\200t\375u\327\332\007\004\037%]\322\231\340\361"
 212      74FD75D7 
 212      DA07041F 
 212      255DD299 
 212      E0F1
 213 0791 6814459C 		.ascii	"h\024E\234\011\226\215\341J8ZV\302\301R66jE\032\023"
 213      09968DE1 
 213      4A385A56 
 213      C2C15236 
 213      366A451A 
 214 07a6 BD223DEC 		.ascii	"\275\"=\354)}m\021\245\217\015\215C[\274B\034\021K\224"
 214      297D6D11 
 214      A58F0D8D 
 214      435BBC42 
 214      1C114B94 
 215 07ba 48851756 		.ascii	"H\205\027V\2510^\005\245\2725Y\012\322\"kH\002\327\020"
 215      A9305E05 
 215      A5BA3559 
 215      0AD2226B 
 215      4802D710 
 216 07ce F3F5     		.ascii	"\363\365"
 217 07d0 A9E73EBC 		.ascii	"\251\347>\274\030\2672\021\374F\2672\211s\205_\377\216"
 217      18B73211 
 217      FC46B732 
 217      8973855F 
 217      FF8E
 218 07e2 F86D6671 		.ascii	"\370mfq?\370'\336\213?(\202\255\2355\325\216\314\203"
ARM GAS  C:\Users\rdn\AppData\Local\Temp\cc9mY3xa.s 			page 17


 218      3FF827DE 
 218      8B3F2882 
 218      AD9D35D5 
 218      8ECC83
 219 07f5 F4F56494 		.ascii	"\364\365d\224\343\177m\375\341_=\327#\316wv\264\337"
 219      E37F6DFD 
 219      E15F3DD7 
 219      23CE7776 
 219      B4DF
 220 0807 70A9F92A 		.ascii	"p\251\371*\234O\204G\220\211lx\025\217\361\366\304\\"
 220      9C4F8447 
 220      90896C78 
 220      158FF1F6 
 220      C45C
 221 0819 30D630EB 		.ascii	"0\3260\353\020\261N#\216[\312~\254q\262\254\261\367"
 221      10B14E23 
 221      8E5BCA7E 
 221      AC71B2AC 
 221      B1F7
 222 082b 2536200A 		.ascii	"%6 \012\315\001\005\370\271\365.M7\374\033i>\341\342"
 222      CD0105F8 
 222      B9F52E4D 
 222      37FC1B69 
 222      3EE1E2
 223 083e F2541617 		.ascii	"\362T\026\027\\\273_\256=\035\325\367^\336W\"$\263\320"
 223      5CBB5FAE 
 223      3D1DD5F7 
 223      5EDE5722 
 223      24B3D0
 224 0851 A9FAC958 		.ascii	"\251\372\311X\215\310[7\265\037%5\372\177\200\211T\323"
 224      8DC85B37 
 224      B51F2535 
 224      FA7F8089 
 224      54D3
 225 0863 54BA2CF2 		.ascii	"T\272,\362\215;V\364\315\213\223\224\017\0178\037\236"
 225      8D3B56F4 
 225      CD8B9394 
 225      0F0F381F 
 225      9E
 226 0874 91830CDE 		.ascii	"\221\203\014\336\2214y\212\256\351R\210\353\316\350"
 226      9134798A 
 226      AEE95288 
 226      EBCEE8
 227 0883 2E562820 		.ascii	".V( \020\0129\347|\332E>\275[s\233v\374FjO4\305\004"
 227      100A39E7 
 227      7CDA453E 
 227      BD5B739B 
 227      76FC466A 
 228 089b 150FDC66 		.ascii	"\025\017\334feb\022\312U\236\361x2\212\"\362\214eS\270"
 228      656212CA 
 228      559EF178 
 228      328A22F2 
 228      8C6553B8 
 229 08af F64E56B5 		.ascii	"\366NV\265\227E\357E\255\275ST\355mW\341\351\310k\261"
 229      9745EF45 
 229      ADBD5354 
 229      ED6D57E1 
ARM GAS  C:\Users\rdn\AppData\Local\Temp\cc9mY3xa.s 			page 18


 229      E9C86BB1 
 230 08c3 48FDA9E8 		.ascii	"H\375\251\350;\322\3154\024\365u3\235\335L\213t3#\252"
 230      3BD2CD34 
 230      14F57533 
 230      9DDD4C8B 
 230      743323AA 
 231 08d7 9BE9CA4D 		.ascii	"\233\351\312M\207*\361\205\271\265\312\315\373\030R"
 231      872AF185 
 231      B9B5CACD 
 231      FB1852
 232 08e6 4491B034 		.ascii	"D\221\2604\257EH\341L\244\213S\222Pw\350f\241<\0347"
 232      AF4548E1 
 232      4CA48B53 
 232      925077E8 
 232      66A13C1C 
 233 08fb 3EC0B354 		.ascii	">\300\263T\205\332\321\001Re6r~'\272\2639\272~\355\265"
 233      85DAD101 
 233      52653672 
 233      7E27BAB3 
 233      39BA7EED 
 234 0910 501588A5 		.ascii	"P\025\210\245\023T\005bCY\032\027\363\217\244\225,\030"
 234      13540562 
 234      43591A17 
 234      F38FA495 
 234      2C18
 235 0922 1394F527 		.ascii	"\023\224\365'\013\213\204w\367\014\364\344\333_\265"
 235      0B8B8477 
 235      F70CF4E4 
 235      DB5FB5
 236 0931 17D9E36E 		.ascii	"\027\331\343ndz?Cz\263}[\375h5\240\335W\025\267E\205"
 236      647A3F43 
 236      7AB37D5B 
 236      FD6835A0 
 236      DD5715B7 
 237 0947 640EEE3A 		.ascii	"d\016\356:Q@\203\227\314{\212:\302\346\250\312\022C"
 237      51408397 
 237      CC7B8A3A 
 237      C2E6A8CA 
 237      1243
 238 0959 E52AC2F5 		.ascii	"\345*\302\365\\\322l6Om\012\312\"47\354|.:\367\354\257"
 238      5CD26C36 
 238      4F6D0ACA 
 238      223437EC 
 238      7C2E3AF7 
 239 096f 5C8284FC 		.ascii	"\\\202\204\374x\232\262\002\200WK\2546\005o\22682\362"
 239      789AB202 
 239      80574BAC 
 239      36056F96 
 239      3832F2
 240 0982 888C9862 		.ascii	"\210\214\230b\036+\317\303\243\035\323Y\365\011V\261"
 240      1E2BCFC3 
 240      A31DD359 
 240      F50956B1 
 241 0992 58BA8200 		.ascii	"X\272\202\0005\360\374\005\323\322\026\312\277\345\313"
 241      35F0FC05 
 241      D3D216CA 
 241      BFE5CB
ARM GAS  C:\Users\rdn\AppData\Local\Temp\cc9mY3xa.s 			page 19


 242 09a1 162D5F3C 		.ascii	"\026-_<q\341\312\025\213\027.Z\275d\351\252\264\305"
 242      71E1CA15 
 242      8B172E5A 
 242      BD64E9AA 
 242      B4C5
 243 09b3 9ABE6495 		.ascii	"\232\276d\225\276r\005,\265\374\366\367\313\227\210"
 243      BE72052C 
 243      B5FCF6F7 
 243      CB9788
 244 09c2 45AB57E0 		.ascii	"E\253W\340\357c\374e\3002}\325bX\256/\313\320W.\205"
 244      EF63FC65 
 244      C0327DD5 
 244      6258AE2F 
 244      CBD0572E 
 245 09d7 8FF5654B 		.ascii	"\217\365eK\365E\253\377\007\330\014\207_"
 245      F545ABFF 
 245      07D80C87 
 245      5F
 246              		.text
 247              		.section	.gnu.lto_bws_table.5458.d618b52e,"",%progbits
 248 0000 789C6361 		.ascii	"x\234ca`d\000\201\235@,\307\000\001\177\231\030\233"
 248      60640081 
 248      9D402CC7 
 248      00017F99 
 248      189B
 249 0012 7FEDFFCC 		.ascii	"\177\355\377\314W\377\267aFC\303\203\326\307\016\314"
 249      57FFB761 
 249      4643C383 
 249      D6C70ECC 
 250 0022 ADCC0C9D 		.ascii	"\255\314\014\235\314\020\251C\2376,\347\371\302\324"
 250      CC10A943 
 250      9F362CE7 
 250      F9C2D4
 251 0031 CACCC8C8 		.ascii	"\312\314\310\310\214\252\362\30046\260:F\260\272\243"
 251      8CAAF2C0 
 251      3436B03A 
 251      46B0BAA3 
 252 0041 FFBF1FE0 		.ascii	"\377\277\037\340\207\250cBS7\005\242\216\011\335\252"
 252      87A86342 
 252      533705A2 
 252      8E09DDAA 
 253 0051 03932012 		.ascii	"\003\223 \022\314`\211M\033\273\377qZlk\350X\320\340"
 253      CC60894D 
 253      1BBBFF71 
 253      5A6C6BE8 
 253      58D0E0
 254 0064 D0CACCC4 		.ascii	"\320\312\314\304h(\303\270\206\261\236\321H\206q5\220"
 254      6828C3B8 
 254      86B19ED1 
 254      48867135 
 254      90
 255 0075 5AC528C3 		.ascii	"Z\305(\303\270\022H\257\000\322\313\031\353\031\030"
 255      B81248AF 
 255      00D2CB19 
 255      EB1918
 256 0084 D7325A30 		.ascii	"\3272Z0\310\350\351\305@PNfRN\262qLqQrLRyJj\211^2\003"
 256      C8E8E9C5 
ARM GAS  C:\Users\rdn\AppData\Local\Temp\cc9mY3xa.s 			page 20


 256      40504E66 
 256      524EB271 
 256      4C715172 
 257 00a1 00125D4F 		.ascii	"\000\022]Ol"
 257      6C
 258              		.text
 259              		.section	.gnu.lto_l_table.5459.d618b52e,"",%progbits
 260 0000 789C6361 		.ascii	"x\234ca`d\000\001m \005a10\374eb<\364i\303r\236/L\255"
 260      60640001 
 260      6D200561 
 260      3130FC65 
 260      623CF469 
 261 001a CC0C8CCC 		.ascii	"\314\014\214\314@\356\321\377\337\017\360C\270L@\356"
 261      40EED1FF 
 261      DF0FF043 
 261      B84C40EE 
 262 002a C5960D73 		.ascii	"\305\226\015s\230A\\FF\026 wQ\323<E\213m\015\035\013"
 262      98415C46 
 262      46162077 
 262      51D33C45 
 262      8B6D0D1D 
 263 003f 1A1C5A99 		.ascii	"\032\034Z\231\231\030\015e\030W2\3120\032A\250\025@"
 263      99180D65 
 263      185732CA 
 263      301A41A8 
 263      1540
 264 0051 AC23C3B8 		.ascii	"\254#\303\270\034Hi\3130 \233\305\0106\353\317\356\273"
 264      1C4869CB 
 264      30209BC5 
 264      0836EBCF 
 264      EEBB
 265 0063 9B3989D1 		.ascii	"\2339\211\321\275\232\021\254\2354\313HS\335\375\374"
 265      BD9A11AC 
 265      9D34CB48 
 265      53DDFDFC 
 266 0073 E0630EB8 		.ascii	"\340c\016\270rf\220\362u\214\026 \345k\201\024H\371"
 266      726690F2 
 266      758C1620 
 266      E56B8114 
 266      48F9
 267 0085 1A200D52 		.ascii	"\032 \015R\277\212\321\202\201q=\220\000\000\352sS\312"
 267      BF8AD182 
 267      81713D90 
 267      0000EA73 
 267      53CA
 268              		.text
 269              		.section	.gnu.lto_lc3_bwdet_get_nbits.part.1.d618b52e,"",%progbits
 270 0000 789C5550 		.ascii	"x\234UP\277OTA\020\336of\337\275\307\003\255,_\000\013"
 270      BF4F5441 
 270      10DE6F66 
 270      DFBDC703 
 270      AD2C5F00 
 271 0015 82145C4C 		.ascii	"\202\024\\L\250\3747\254\317\206\323\202\204\012H,\031"
 271      A8FC37AC 
 271      CF86D382 
 271      840A482C 
 271      19
ARM GAS  C:\Users\rdn\AppData\Local\Temp\cc9mY3xa.s 			page 21


 272 0026 EFF1BC68 		.ascii	"\357\361\274hE\214\0221$\024\204\360\343\024\356b$T"
 272      458C1231 
 272      241484F0 
 272      E314EE62 
 272      2454
 273 0038 8658A3C6 		.ascii	"\206X\243\306Bm(\014*\2056\034\201N8gnM\014\223\335"
 273      426D280C 
 273      2A85361C 
 273      814E3867 
 273      6E4D0C93 
 274 004d F9B5DF7C 		.ascii	"\371\265\337|3;\336\301\231\364\223s\327\325\216\352"
 274      333BDEC1 
 274      99F49373 
 274      D7D58EEA 
 275 005d 45E4E0E7 		.ascii	"E\344\340\347?\250\343A]K`\263\017\022\006\314\221\004"
 275      3FA8E341 
 275      5D4B60B3 
 275      0F1206CC 
 275      9104
 276 006f 6ED61363 		.ascii	"n\326\023c\026gtN\3704\327\\\342S*XK4l\277\177\361\375"
 276      1667744E 
 276      F834D75C 
 276      E2532A58 
 276      4B346CBF 
 277 0086 AA85C0A0 		.ascii	"\252\205\300\240\206\237\237n5\372F\326D\345\333j\347"
 277      869F9F6E 
 277      35FA46D6 
 277      44E5DB6A 
 277      E7
 278 0097 C6E2FA9E 		.ascii	"\306\342\372\236/\230\\\207\034\326\221a\015\2315\335"
 278      2F985C87 
 278      1CD69161 
 278      0D9935DD 
 279 00a7 C0886277 		.ascii	"\300\210bwe\357\320\363\000\234\372o\017\212/\275\303"
 279      65EFD0F3 
 279      009CFA6F 
 279      0F8A2FBD 
 279      C3
 280 00b8 AB223591 		.ascii	"\253\"5\221\326\035\341\202\031\233`\253\033\313p3s"
 280      D61DE182 
 280      199B60AB 
 280      1BCB7033 
 280      73
 281 00c9 9A706860 		.ascii	"\232ph`\330\300\207\255\213gWJs\326d\320\250\225\361"
 281      D8C087AD 
 281      8B67574A 
 281      73D664D0 
 281      A895F1
 282 00dc 254AFA39 		.ascii	"%J\3729\350\343\317\342\353\353dhE\344\261\310\357\""
 282      E8E3CFE2 
 282      EBEB6468 
 282      45E4B1C8 
 282      EF22
 283 00ee 7D2E3A80 		.ascii	"}.:\200w\377\211L\360\012C\333\267E:\235\\\346W\256"
 283      77FF894C 
 283      F00A43DB 
 283      B7453A9D 
ARM GAS  C:\Users\rdn\AppData\Local\Temp\cc9mY3xa.s 			page 22


 283      5CE657AE 
 284 0102 A10F306E 		.ascii	"\241\0170n\322.\236U\2217/2\257d*\26601\257\307Tj\312"
 284      D22E9E55 
 284      91372F32 
 284      AF642AB6 
 284      3031AFC7 
 285 0119 B963BDB6 		.ascii	"\271c\275\266\241c\205\253\3456Q\327\036!\337\251_,"
 285      A16385AB 
 285      E53651D7 
 285      1E21DFA9 
 285      5F2C
 286 012b 3F814D95 		.ascii	"?\201M\2253\345ls-\024\357>\306\266(\206\303\226\356"
 286      33E56C73 
 286      2D14EF3E 
 286      C6B62886 
 286      C396EE
 287 013e E108B593 		.ascii	"\341\010\265\2238@XQ\032\347\315\372\217(d|(zS\337o"
 287      38405851 
 287      1AE7CDFA 
 287      8F28647C 
 287      287A53DF 
 288 0153 A5A108D8 		.ascii	"\245\241\010\330\276\\\024)\312\212\026\036\236\372"
 288      BE5C1429 
 288      CA8A161E 
 288      9EFA
 289 0161 90094C51 		.ascii	"\220\011LQ`\372S\012\31180=ZZl\374k\317h^fJ\024\025"
 289      60FA530A 
 289      C938303D 
 289      5A5A6CFC 
 289      6BCF685E 
 290 0179 980E3864 		.ascii	"\230\0168dz\272d\211\256\252M\334\375\324/\324\344V"
 290      7ABA6489 
 290      AEAA4DDC 
 290      FDD42FD4 
 290      E456
 291 018b 784C357D 		.ascii	"xL5}\202TQ\264\033\353\357a\000\335EV.W\302\231\234"
 291      825451B4 
 291      1BEBEF61 
 291      00DD4556 
 291      2E57C299 
 292 01a0 189FAC8E 		.ascii	"\030\237\254\216U\246\247\252\225\361\373w\357\315\224"
 292      55A6A7AA 
 292      95F1FB77 
 292      EFCD94
 293 01af AB8EA6A7 		.ascii	"\253\216\246\247\376\002\246L\254\340"
 293      FE02A64C 
 293      ACE0
 294              		.text
 295              		.section	.gnu.lto_lc3_bwdet_run.d618b52e,"",%progbits
 296 0000 789C6D93 		.ascii	"x\234m\223mK\024Q\024\307\357\271gfv]\335\364U\365b"
 296      6D4B1451 
 296      14C7EFB9 
 296      6766765D 
 296      DDF455F5 
 297 0015 2B099655 		.ascii	"+\011\226U\010\023\014\372\004}\201^\333\033\037\240"
 297      08130CFA 
 297      047D815E 
ARM GAS  C:\Users\rdn\AppData\Local\Temp\cc9mY3xa.s 			page 23


 297      DB1B1FA0 
 298 0025 402A54F0 		.ascii	"@*T\360\345^\235\235\325\001\315\010J\254\204\310\314"
 298      E55E9D9D 
 298      D501CD08 
 298      4AAC84C8 
 298      CC
 299 0036 552BD767 		.ascii	"U+\327gW-\306\036L\350\211L%SJ\215\"\"\250-E\010t;\367"
 299      572DC61E 
 299      4CE8894C 
 299      25534A8D 
 299      2222A82D 
 300 004f EEF46078 		.ascii	"\356\364`x\330\273w\316\345\377;\347\316\377\336\321"
 300      D8BB77CE 
 300      E5FF3BE7 
 300      CEFFDED1 
 301 005f 1830193D 		.ascii	"\0300\031=\310\330Q\232\217\321\000\203\001?\377\234"
 301      C8D8519A 
 301      8FD10083 
 301      013FFF9C 
 302 006f B15A2FE7 		.ascii	"\261Z/\347\372\304~&|8{\230\211,t3Me\032\350R\004:\200"
 302      FAC47E26 
 302      7C387B98 
 302      892C7433 
 302      4D651AE8 
 303 0087 9C851758 		.ascii	"\234\205\027X\230\243\246CX\013\207\303\353|\223\303"
 303      98A3A643 
 303      580B87C3 
 303      EB7C93C3 
 304 0097 938DE946 		.ascii	"\223\215\351F_~\247\020ub\271\343\334\356\226\230\003"
 304      5F7EA710 
 304      7562B9E3 
 304      DCEE9698 
 304      03
 305 00a8 16354A71 		.ascii	"\0265Jq\006E\001(\014\310f\235\220O\312\332\350V=\340"
 305      06450128 
 305      0CC8669D 
 305      904FCADA 
 305      E8563DE0 
 306 00bc 0160F43C 		.ascii	"\001`\364<`\267\266\353\241\016I9\3537\240EH\012 \006"
 306      60B7B6EB 
 306      A10E4939 
 306      EB37A045 
 306      480A2006 
 307 00d0 F817A405 		.ascii	"\370\027\244\005\006]\020\"\371\250pV5<\250\320{K\326"
 307      065D1022 
 307      F9A87056 
 307      353CA8D0 
 307      7B4BD6
 308 00e3 7C661A15 		.ascii	"|f\032\025\255'\004Z\310\241{;G\217=\212{\031\211_\305"
 308      AD27045A 
 308      C8A17B3B 
 308      478F3D8A 
 308      7B19895F 
 309 00f8 356E2182 		.ascii	"5n!\202Fi\362\331\345\367\273d\252A.\245Mk\261i\017"
 309      4669F2D9 
 309      E5F7BB64 
 309      AA412EA5 
ARM GAS  C:\Users\rdn\AppData\Local\Temp\cc9mY3xa.s 			page 24


 309      4D6BB169 
 310 010d 0655D566 		.ascii	"\006U\325f\361\263\015\335\252\213\345\"\303B\035\356"
 310      F1B30DDD 
 310      AA8BE522 
 310      C3421DEE 
 311 011d A4ABDE86 		.ascii	"\244\253\336\206\000\334\002YWg\320\013!%O&\306\020"
 311      00DC0259 
 311      5767D00B 
 311      21254F26 
 311      C610
 312 012f 430A9D71 		.ascii	"C\012\235q\306\037e\007\333\005\2053\3648\253U8\221"
 312      C61F6507 
 312      DB058533 
 312      F438AB55 
 312      3891
 313 0141 5C0B0D88 		.ascii	"\\\013\015\210o\307e\220z\302\036o\360\341!E\316_\177"
 313      6FC76590 
 313      7AC21E6F 
 313      F0E12145 
 313      CE5F7F
 314 0154 30E29724 		.ascii	"0\342\227$\271\360.\272\317%=\320\277#y\305\\i\366c"
 314      B9F02EBA 
 314      CF253DD0 
 314      BF2379C5 
 314      5C69F663 
 315 0168 A122BB66 		.ascii	"\241\"\273f>\016\033.9\027\015\220\177\265D2\030\374"
 315      3E0E1B2E 
 315      39170D90 
 315      7FB54432 
 315      18FC
 316 017a D708978B 		.ascii	"\327\010\227\213\217\325Oz\361\210\342\272\037\016>"
 316      8FD54F7A 
 316      F188E2BA 
 316      1F0E3E
 317 0189 FDDD7166 		.ascii	"\375\335qf*S\304\205Wb\303;`\213o\333\032\375y7\325"
 317      2A53C485 
 317      5762C33B 
 317      608B6FDB 
 317      1AFD7937 
 318 019e 6B6D9E15 		.ascii	"km\236\025R\350\225\307\352\006)V\373\266.\372\215\210"
 318      52E895C7 
 318      EA062956 
 318      FBB62EFA 
 318      8D88
 319 01b0 54E4C228 		.ascii	"T\344\302(\344\331\310l\004\033\271\215h\243f\223\205"
 319      E4D9C86C 
 319      041BB98D 
 319      68A36693 
 319      85
 320 01c1 23108421 		.ascii	"#\020\204!\032\0034\372 \230\346!\001\206\274\222\275"
 320      1A0334FA 
 320      2098E621 
 320      0186BC92 
 320      BD
 321 01d2 C71D914A 		.ascii	"\307\035\221J\231\302\331\320V\262=@\0063.\377\350\""
 321      99C2D9D0 
 321      56B23D40 
ARM GAS  C:\Users\rdn\AppData\Local\Temp\cc9mY3xa.s 			page 25


 321      06332EFF 
 321      E822
 322 01e4 D0F1D19D 		.ascii	"\320\361\321\235\243\3037@Y\316\276\021\370\025X\222"
 322      A3C33740 
 322      59CEBE11 
 322      F8155892 
 323 01f4 739A7015 		.ascii	"s\232p\025\352\234W\321\200*D-h/\227\254\373/<\362h"
 323      EA9C57D1 
 323      802A442D 
 323      682F97AC 
 323      FB2F3CF2 
 324 0209 E9B2C318 		.ascii	"\351\262\303\030\231&%\263\206R\320\006LD\266\002\221"
 324      992625B3 
 324      8652D006 
 324      4C44B602 
 324      91
 325 021a 37E640D3 		.ascii	"7\346@\323^\271F\271R\311Hrd\027T\315\034\371V\037\232"
 325      5EB946B9 
 325      52C94872 
 325      641754CD 
 325      1CF9561F 
 326 022f 62A319AE 		.ascii	"b\243\031\256E?\342\340Z\373\337\035\223\001\343\351"
 326      453FE2E0 
 326      5AFBDF1D 
 326      9301E3E9 
 327 023f BAB2D3C2 		.ascii	"\272\262\323\302\324\036\325\212\226\230l\364\332\354"
 327      D41ED58A 
 327      96986CF4 
 327      DAEC
 328 024d 07B70F95 		.ascii	"\007\267\017\225\234\\\356Of\312\315q\320`\342O[\215"
 328      9C5CEE4F 
 328      66CACD71 
 328      D060E24F 
 328      5B8D
 329 025f 2D30FC04 		.ascii	"-0\374\004\321\234\264R~M\211\304\227EOxS4\010\221c"
 329      D19CB452 
 329      7E4D89C4 
 329      97454F78 
 329      53340891 
 330 0274 61468A93 		.ascii	"aF\212\223Op\027\302\314D\235j\231hX\350S\260.}\370"
 330      4F7017C2 
 330      CC449D6A 
 330      996858E8 
 330      53B02E7D 
 331 0289 2CF76CA2 		.ascii	",\367l\2424\363;\000\011pi\350\032\315\\\223\011\227"
 331      34F33B00 
 331      097069E8 
 331      1ACD5C93 
 331      0997
 332 029b B601E9E8 		.ascii	"\266\001\351\350!PPP\234\376U\234*\251(-*\256\252,-"
 332      21505050 
 332      9CFE559C 
 332      2AA9282D 
 332      2AAEAA2C 
 333 02b0 2EA9292B 		.ascii	".\251)+\257.(e\274\254\232WUB\271v\362LE\031\226\324"
 333      AF2E2865 
 333      BCAC9A57 
ARM GAS  C:\Users\rdn\AppData\Local\Temp\cc9mY3xa.s 			page 26


 333      5542B976 
 333      F24C4519 
 334 02c6 54D2384D 		.ascii	"T\3228M\243\360\027e\342;\227"
 334      A3F01765 
 334      E23B97
 335              		.text
 336              		.section	.gnu.lto_lc3_bwdet_get_nbits.d618b52e,"",%progbits
 337 0000 789C6550 		.ascii	"x\234eP;O[Q\014\366\347s\002\224\320(?\340\012\322\001"
 337      3B4F5B51 
 337      0CF6E773 
 337      0294D028 
 337      3FE00AD2 
 338 0015 413A844A 		.ascii	"A:\204J\231\3727\230\303B`@b\002\244\2161I\256\230*"
 338      99FA3798 
 338      C3426040 
 338      6202A48E 
 338      3149AE98 
 339 002a 31B4EA43 		.ascii	"1\264\352C\335*Dx?\246\014\010.\023\023HH\200\030:@"
 339      DD2A4478 
 339      3FA60C08 
 339      2E131348 
 339      4880183A 
 340 003f 50A5AA43 		.ascii	"P\245\252CEx,\240\364\326N\306Z\347\310\307>\376>\373"
 340      45782CA0 
 340      F4D64EC6 
 340      5AE7C8C7 
 340      3EFE3EFB 
 341 0053 B32790D9 		.ascii	"\263'\220\331\212\272W\352\363z\221 \360\342\011\321"
 341      8ABA57EA 
 341      F37A9120 
 341      F0E209D1 
 342 0063 7C0FB3DF 		.ascii	"|\017\263\337\353'\351ug#$}\016\336\322\360\200y\351"
 342      EB27E975 
 342      6723247D 
 342      0EDED2F0 
 342      8079E9
 343 0076 0195D879 		.ascii	"\001\225\330y\224\360\310-\306iu\373\233{\340\320i\205"
 343      94F0C82D 
 343      C66975FB 
 343      9B7BE0D0 
 343      6985
 344 0088 86CDE3AF 		.ascii	"\206\315\343\2577)\013\201\214\206\347\0376\327\372"
 344      37290B81 
 344      8C86E71F 
 344      36D7FA
 345 0097 B2CBA276 		.ascii	"\262\313\242v\265\024\017\177\251E>tL1\023j\010\260"
 345      B5140F7F 
 345      A9453E74 
 345      4C31136A 
 345      08B0
 346 00a9 8CC05AAF 		.ascii	"\214\300Z\257 \253\265u\211\032\336\015\200\364\275"
 346      20ABB575 
 346      891ADE0D 
 346      80F4BD
 347 00b8 FF23BC48 		.ascii	"\377#\274H\016-\211\224Ev\306\304\205\316a\025\316p"
 347      0E2D8994 
 347      4576C6C4 
ARM GAS  C:\Users\rdn\AppData\Local\Temp\cc9mY3xa.s 			page 27


 347      85CE6115 
 347      CE70
 348 00ca F9006F02 		.ascii	"\371\000o\002\322\004a\015CV\334\330\371\373\361eW\325"
 348      D204610D 
 348      4356DCD8 
 348      F9FBF165 
 348      57D5
 349 00dc 9A648C5A 		.ascii	"\232d\214Z\031\327\321e\022\267F#\211\343\212D\255\356"
 349      19D7D165 
 349      12B74623 
 349      89E38A44 
 349      ADEE
 350 00ee C3C5DE04 		.ascii	"\303\305\336\004\024\306:\231\342\274=\211n\365\232"
 350      14C63A99 
 350      E2BC3D89 
 350      6EF59A
 351 00fd AA26B379 		.ascii	"\252&\263y\327@9m\224?\337\327\352/\006\277[\377\350"
 351      D740396D 
 351      943FDFD7 
 351      EA2F06BF 
 351      5BFFE8
 352 0110 F9883F49 		.ascii	"\371\210?I4\237\371o\0063l`\260\242\263(0\212\027R\355"
 352      349FF96F 
 352      06336C60 
 352      B0A2B328 
 352      308A1752 
 353 0125 C69A22BA 		.ascii	"\306\232\"\272F\365\262\362\007\226\320\177\245<\274"
 353      46F5B2F2 
 353      0796D07F 
 353      A53CBC
 354 0134 DA6D266D 		.ascii	"\332m&m3\272Pl\242\003o\262\243\263\021\367\013\325"
 354      33BA506C 
 354      A2036FB2 
 354      A3B311F7 
 354      0BD5
 355 0146 74A7D276 		.ascii	"t\247\322vXy:\270O\225Z\362Y$\035:\037\263J\301\026"
 355      58793AB8 
 355      4F955AF2 
 355      59241D3A 
 355      1FB34AC1 
 356 015b 4AA444A1 		.ascii	"J\244D\241K\264a\276=\356o\224\345m\007hr\357\000\274"
 356      4BB461BE 
 356      3DEE6F94 
 356      E56D0768 
 356      72EF00BC 
 357 016f 0EB8DEAD 		.ascii	"\016\270\336\255<\232\270U\240V\251\304 \227+t\316\364"
 357      3C9AB855 
 357      A056A9C4 
 357      20972B74 
 357      CEF4
 358 0181 D4F87431 		.ascii	"\324\370t1_\230\235)\026\306\337ML\316\345\212\304\263"
 358      5F989D29 
 358      16C6DF4D 
 358      4CCEE58A 
 358      C4B3
 359 0193 33FF005A 		.ascii	"3\377\000ZH\225]"
 359      48955D
ARM GAS  C:\Users\rdn\AppData\Local\Temp\cc9mY3xa.s 			page 28


 360              		.text
 361              		.section	.gnu.lto_lc3_bwdet_put_bw.d618b52e,"",%progbits
 362 0000 789C9555 		.ascii	"x\234\225U\335OTG\024\2373s\367\336\273\237\342Kc[\332"
 362      DD4F5447 
 362      149F3373 
 362      F7DEBB9F 
 362      E24B635B 
 363 0015 EE43E946 		.ascii	"\356C\351F\222\262mI\237|\320\377\240I\373\320\027L"
 363      92B26D49 
 363      9F7CD0FF 
 363      A049FBD0 
 363      174C
 364 0027 D3DDDAD4 		.ascii	"\323\335\332\324\304\370 Z\036\031v\367.hc\277@\300"
 364      C4F8205A 
 364      1E1976F7 
 364      2E6863BF 
 364      40C0
 365 0039 56420352 		.ascii	"VB\003R\300V\024\352\007`\205\013V\266\"\210\304\004"
 365      C05614EA 
 365      0760850B 
 365      56B62288 
 365      C404
 366 004b DBA09122 		.ascii	"\333\240\221\"hc|\000?R\373\001\333s\346^\300E\222\326"
 366      68637C00 
 366      3F52FB01 
 366      DB73E65E 
 366      C04592D6 
 367 005f 9BDDD999 		.ascii	"\233\335\331\231s\317\371\235\337\374\316\231Y\215\001"
 367      73CFF99D 
 367      DFFCCE99 
 367      598D01
 368 006e A3678BC1 		.ascii	"\243g\213\301\330\273\370\373!~\301\313\200\177~\211"
 368      D8BBF8FB 
 368      217EC1CB 
 368      807F7E89 
 369 007e B10A9373 		.ascii	"\261\012\223s\255*\302\244O\320\030\020\2409f\215{\352"
 369      AD2AC2A4 
 369      4FD01810 
 369      A039668D 
 369      7BEA
 370 0090 37A3D97C 		.ascii	"7\243\331|\024B\263\207\353\023Q\\\031\275/\342J\007"
 370      1442B387 
 370      EB13515C 
 370      19BD2FE2 
 370      4A07
 371 00a2 D3713296 		.ascii	"\323q2\226&&\000M\244\011\254\234\013\315\243\033&\224"
 371      2626004D 
 371      A409AC9C 
 371      0BCDA31B 
 371      2694
 372 00b4 C343BEC0 		.ascii	"\303C\276\300a\260\362V\017\337\330*\361\231ji~]\266"
 372      61B0F256 
 372      0FDFD82A 
 372      F1996A69 
 372      7E5DB6
 373 00c7 D96009C6 		.ascii	"\331`\011\306\262\\\221b\320\012\033\321k<u\374\220"
 373      B25C9162 
ARM GAS  C:\Users\rdn\AppData\Local\Temp\cc9mY3xa.s 			page 29


 373      D00A1BD1 
 373      6B3C75FC 
 373      90
 374 00d8 78C02D01 		.ascii	"x\300-\001\240\341r~\364\253\233!Zr\010\343\262a\261"
 374      A0E1727E 
 374      F4AB9B21 
 374      5A7208E3 
 374      B261B1
 375 00eb 29E3172F 		.ascii	")\343\027/\001\303yO\343\241v=\322\"eB\312\272m\322"
 375      01C3794F 
 375      E3A1763D 
 375      D2226542 
 375      CABA6DD2 
 376 00ff 6B090147 		.ascii	"k\011\001G@ \036\264C>\264A>C\023\203\357 \202\336\335"
 376      40201EB4 
 376      433EB441 
 376      3E431383 
 376      EF2082DE 
 377 0114 D29ED6C4 		.ascii	"\322\236\326\304\313*\262\357\2325\341w\"\355\206}\317"
 377      CB2AB2EF 
 377      9A35E177 
 377      22ED867D 
 377      CF
 378 0125 D44962A2 		.ascii	"\324Ib\242\301\367Npq>\274F\241\032\203\243*t\244\361"
 378      C1F74E70 
 378      713EBC46 
 378      A11A83A3 
 378      2A74A4F1 
 379 0139 E25C5044 		.ascii	"\342\\PDT\350\257\327\207\342n\316\323[\245\260\204"
 379      54E8AFD7 
 379      87E26ECE 
 379      D35BA5B0 
 379      84
 380 014a 073A72C3 		.ascii	"\007:r\303<\014\216A\204|\317\356o\332*\012U\330\235"
 380      3C0C8E41 
 380      847CCFEE 
 380      6FDA2A0A 
 380      55D89D
 381 015d F16B3DC1 		.ascii	"\361k=\301\202f\332\273\3359\0348(\355T\330\022:\034"
 381      8266DABB 
 381      DD391C38 
 381      28ED54D8 
 381      123A1C
 382 0170 CFE54B0F 		.ascii	"\317\345K\017zOw.\036\010\352)\362\016C'\0248\032A\027"
 382      7A4F772E 
 382      1E08EA29 
 382      F20E4327 
 382      14381A41 
 383 0185 E854C063 		.ascii	"\350T\300co\3332\233MJ\273\3217p\312\267\036\205B\232"
 383      6FDB329B 
 383      4D4ABBD1 
 383      3770CAB7 
 383      1E85429A 
 384 0199 1A66D63D 		.ascii	"\032f\326=@\251u\234\032\006\320\276M\262zi\360\321"
 384      40A9759C 
 384      1A06D0BE 
 384      4DB27A69 
ARM GAS  C:\Users\rdn\AppData\Local\Temp\cc9mY3xa.s 			page 30


 384      F0D1
 385 01ab E0A73701 		.ascii	"\340\2477\001\032\202406\207\270T\256y\316\351WLC\""
 385      1A823430 
 385      3687B854 
 385      AE79CEE9 
 385      574C4322 
 386 01bf 8F08CCEE 		.ascii	"\217\010\314\356o\353\366\022]\024\350\353}\002\005"
 386      6FEBF612 
 386      5D14E8EB 
 386      7D0205
 387 01ce AA083FA1 		.ascii	"\252\010?\241\220*\332\017P\220D\221\327\012\374;\303"
 387      902ADA0F 
 387      50904491 
 387      D70AFC3B 
 387      C3
 388 01df 7303E1F1 		.ascii	"s\003\341\361\300\023\313\201v\2662\224\273iy\263\346"
 388      C013CB81 
 388      76B63294 
 388      BB6979B3 
 388      E6
 389 01f0 5942565B 		.ascii	"YBV[\306\270\325\23208\011:b\234BA\020\207\261\337 "
 389      C6B8D59A 
 389      3038093A 
 389      629C4241 
 389      1087B1DF 
 390 0205 F54B32FB 		.ascii	"\365K2\373\331&\262 *\272\017Lu\315\373\251o4\320\340"
 390      D926B220 
 390      2ABA0F4C 
 390      75CDFBA9 
 390      6F34D0E0 
 391 0219 B42BED3C 		.ascii	"\264+\355<\027\254*\"~\207T\236\343I\035\226\374\253"
 391      17AC2A22 
 391      7E87549E 
 391      E3491D96 
 391      FCAB
 392 022b FF7EA87C 		.ascii	"\377~\250|A\326K\231g\0113\313\271B\207n(g\210e\011"
 392      41D64B99 
 392      670933CB 
 392      B942876E 
 392      28678865 
 393 0240 AF8AD496 		.ascii	"\257\212\324\226\004\242\372\251R\020A\344\317\325\242"
 393      04A2FAA9 
 393      521041E4 
 393      CFD5A2
 394 024f 7399C6ED 		.ascii	"s\231\306\355\232\015dI\012\023\012U\332{@3\376O\377"
 394      9A0D6449 
 394      0A130A55 
 394      DA7B4033 
 394      FE4FFF
 395 0262 5DC08C02 		.ascii	"]\300\214\002\020\314\303\3527\213[\220\270W9\321\376"
 395      10CCC3EA 
 395      378B5B90 
 395      B85739D1 
 395      FE
 396 0273 86E38D1F 		.ascii	"\206\343\215\037\317\022\032\262\272>4\371\334J\001"
 396      CF121AB2 
 396      BA3E34F9 
ARM GAS  C:\Users\rdn\AppData\Local\Temp\cc9mY3xa.s 			page 31


 396      DC4A01
 397 0282 DC7EF1AD 		.ascii	"\334~\361\255\356o\245d\017)i(%O:\3240>\335|\356\317"
 397      EE6FA564 
 397      0F296928 
 397      254F3AD4 
 397      303EDD7C 
 398 0298 A02856D2 		.ascii	"\240(V\322\315^\376\364v\340\0110\003z\327\000;C`\372"
 398      CD5EFEF4 
 398      76E00930 
 398      037AD700 
 398      3B4360FA 
 399 02ac 2AB00559 		.ascii	"*\260\005YS\033\022o*\260V9{e\235\333\311+`:\374\270"
 399      531B126F 
 399      2AB05639 
 399      7B659DDB 
 399      C92B603A 
 400 02c2 06D85902 		.ascii	"\006\330Y\0023\011l\352\306\303\206M\271U\264?\031\375"
 400      33096CEA 
 400      C6C3864D 
 400      B955B43F 
 400      19FD
 401 02d4 12807C28 		.ascii	"\022\200|()\355\302-\267\2404G\254\211\004\210wT\312"
 401      29EDC22D 
 401      B7A03447 
 401      AC890488 
 401      7754CA
 402 02e7 13755656 		.ascii	"\023uVV8\374\021\347\2053]R\356\335b\011?\364\377\367"
 402      38FC11E7 
 402      85335D52 
 402      EEDD6209 
 402      3FF4FFF7 
 403 02fb E9B109B6 		.ascii	"\351\261\011\266Ou\313\200\332\313\325\246\276\352P"
 403      4F75CB80 
 403      DACBD5A6 
 403      BEEA50
 404 030a 619BBA85 		.ascii	"a\233\272\205\316wx\017~c\"\022s\257\240A(D\227Zkp\314"
 404      CE77780F 
 404      7E632212 
 404      73AFA041 
 404      2844975A 
 405 0321 A0DEF1A9 		.ascii	"\240\336\361\251\364\177d\206\253\002\215\320P!U\207"
 405      F47F6486 
 405      AB028DD0 
 405      50215587 
 406 0331 04506C38 		.ascii	"\004Pl8G\351\360]\313L\242\303\210\036UhH\355-K\004"
 406      47E9F05D 
 406      CB4CA2C3 
 406      881E5568 
 406      48ED2D4B 
 407 0346 E1276884 		.ascii	"\341'h\204E<X*-\372L\036\0368\354\307\006\243\247\214"
 407      453C582A 
 407      2DFA4C1E 
 407      1E38ECC7 
 407      06A3A78C 
 408 035a 689F8728 		.ascii	"h\237\207(\221a0\204-F%\307\005\021\245\364\014\273"
 408      91613084 
 408      2D4625C7 
ARM GAS  C:\Users\rdn\AppData\Local\Temp\cc9mY3xa.s 			page 32


 408      0511A5F4 
 408      0CBB
 409 036c A277FEC6 		.ascii	"\242w\376\306\025A\306\244\360R\371.T\247\003D\307\017"
 409      1541C6A4 
 409      F052F92E 
 409      54A70344 
 409      C70F
 410 037e F9B89CFB 		.ascii	"\371\270\234\373b\340>\254\320\011\022\235\214Kg\357"
 410      62E03EAC 
 410      D009129D 
 410      8C4B67EF 
 411 038e 70EF016F 		.ascii	"p\357\001o\364U\252\307\317\212\0058,\340\002D\0219"
 411      F455AAC7 
 411      CF8A0538 
 411      2CE00244 
 411      1139
 412 03a0 599B1EE1 		.ascii	"Y\233\036\341\016\260\017\013\203\360\324\262c\311\230"
 412      0EB00F0B 
 412      83F0D4B2 
 412      63C998
 413 03af 6B7BFCBE 		.ascii	"k{\374\276\325!\014\303\313\347Fg\231W\250a{;g\252="
 413      D5210CC3 
 413      CBE74667 
 413      9957A861 
 413      7B3B67AA 
 414 03c4 8EB7FF7F 		.ascii	"\216\267\377\177qQ\322\344Q\267]T\204\270Kh\304!4\227"
 414      7151D2E4 
 414      51B75D54 
 414      84B84B68 
 414      C4213497 
 415 03d8 7EE0120A 		.ascii	"~\340\022\012\250#\340%\343\243e\226\010\350\307W$J"
 415      A823E025 
 415      E3A36596 
 415      08E8C757 
 415      244A
 416 03ea 2DB8057C 		.ascii	"-\270\005|\232\234\24399/A\024!\025\330\370\214xj8\035"
 416      9A9CA339 
 416      392F4114 
 416      2115D8F8 
 416      8C786A38 
 417 03ff C67234BD 		.ascii	"\306r4\275Lp>%\217\301\3067\340\265\222\266\353\306"
 417      4C703E25 
 417      8FC1C637 
 417      E0B592B6 
 417      EBC6
 418 0411 02AAB4F4 		.ascii	"\002\252\264\364\367\324sw\322\300\262W\251\340P\226"
 418      F7D47377 
 418      D2C0B257 
 418      A9E05096 
 419 0421 6B4ED8B8 		.ascii	"kN\330\270\272W\014\265]\354\275u\012\300T\267\313\035"
 419      BA570CB5 
 419      5DECBD75 
 419      0AC054B7 
 419      CB1D
 420 0433 3C28B3DF 		.ascii	"<(\263\337z\351\030(\335\3470\027\332\261\227\362\213"
 420      7AE91828 
 420      DDE73017 
ARM GAS  C:\Users\rdn\AppData\Local\Temp\cc9mY3xa.s 			page 33


 420      DAB197F2 
 420      8B
 421 0444 8A4A9CCF 		.ascii	"\212J\234\317\216\355\261\035\361\342\222\322]\361\222"
 421      8EEDB11D 
 421      F1E292D2 
 421      5DF192
 422 0453 58D907DB 		.ascii	"X\331\007\333v\027\305\231\026\333\276\273\224\227\356"
 422      7617C599 
 422      16DBBEBB 
 422      9497EE
 423 0462 E2B13273 		.ascii	"\342\2612s'\315\337\213\225\301\307\260\363\3715\203"
 423      27CDDF8B 
 423      95C1C7B0 
 423      F3F93583 
 424 0472 F07DD147 		.ascii	"\360}\321GL{?\036\337\363/{\210w\255"
 424      4C7B3F1E 
 424      DFF32F7B 
 424      8877AD
 425              		.text
 426              		.section	.gnu.lto_lc3_bwdet_get_bw.d618b52e,"",%progbits
 427 0000 789C5D53 		.ascii	"x\234]S[KTQ\024\336\337\336\347\346\234\321|)\010\206"
 427      5B4B5451 
 427      14DEDFDE 
 427      E7E69CD1 
 427      7C290886 
 428 0014 F2211946 		.ascii	"\362!\031FH\"\237\242\177\321[`Ec\021A\365\220\201\365"
 428      48229FA2 
 428      7FD15B60 
 428      45631141 
 428      F59081F5 
 429 0028 E476664E 		.ascii	"\344vfN\211\020\015\224\225Q\010]\310\264\213\335\235"
 429      89100D94 
 429      9551085D 
 429      C8B48BDD 
 429      9D
 430 0039 AEA75E14 		.ascii	"\256\247^\024\355fa\027\012*\243\013!\224]!\312i\255"
 430      ED666117 
 430      0A2AA30B 
 430      21945D21 
 430      CA69AD
 431 004c 7D465137 		.ascii	"}FQ7s\316Y{\355\365\255\357[k\355\261\004\004\257\254"
 431      73CE597B 
 431      EDF5ADEF 
 431      5B6BEDB1 
 431      0404AFAC 
 432 0060 25C432FA 		.ascii	"%\3042\372n\240\007e\0022\377@\210\026OJ\2535)tL\361"
 432      6EA00765 
 432      0232FF40 
 432      88164F4A 
 432      AB352974 
 433 0076 3BAE6045 		.ascii	";\256`EnK\332:En'_Mn\033N\344v\244\233W\344\366\364"
 433      6E4BDA3A 
 433      456E275F 
 433      4D6E1B4E 
 433      E476A49B 
 434 008e 9020BF0B 		.ascii	"\220 \277\013/\362{\000\033\332\203h\226\312\262\035"
 434      2FF27B00 
ARM GAS  C:\Users\rdn\AppData\Local\Temp\cc9mY3xa.s 			page 34


 434      1BDA8368 
 434      96CAB21D 
 435 009e D743337E 		.ascii	"\327C3~\312\177\022\303\271\336\303\352\207\014\224"
 435      CA7F12C3 
 435      B9DEC3EA 
 435      870C94
 436 00ad 8045DBF1 		.ascii	"\200E\333\361\373\207\336U\360\026\250\242\355\310\276"
 436      FB87DE55 
 436      F016A8A2 
 436      EDC8BE
 437 00bc B33DF1D4 		.ascii	"\263=\361\324IM\353M\320\235\352\350\012\255@IQ\224"
 437      494DEB4D 
 437      D09DEAE8 
 437      0AAD4049 
 437      5194
 438 00ce 025D48E0 		.ascii	"\002]H\340$\022,\367\024R\024{d\342h\277\257\026B\220"
 438      24122CF7 
 438      1452147B 
 438      64E268BF 
 438      AF164290 
 439 00e2 5DE83C7C 		.ascii	"]\350<|\312I\236\320:\243u\373z]\026(\205n\250\3518"
 439      CA499ED0 
 439      3AA375FB 
 439      7A5D1628 
 439      856EA8E9 
 440 00f7 7209F420 		.ascii	"r\011\364 I\321}:\034\265\324\"\203\274\365*x\352G\310"
 440      49D17D3A 
 440      1CB5D422 
 440      83BCF52A 
 440      78EA47C8 
 441 010b F049DBBC 		.ascii	"\360I\333\274\003:D\240,\234\216\300u\011,a\250%p\306"
 441      033A44A0 
 441      2C9C8EC0 
 441      75092C61 
 441      A82570C6 
 442 011f 40EF750E 		.ascii	"@\357u\016}-WI\003\035x4\260\262\304Y0\2346\316\316"
 442      7D2D5749 
 442      031D7834 
 442      B0B2C459 
 442      309C36CE 
 443 0134 E6B405CE 		.ascii	"\346\264\005\316!\311\3217w\037]\245j\014\360\363\360"
 443      21C9D137 
 443      771F5DA5 
 443      6A0CF0F3 
 443      F0
 444 0145 AB4279F5 		.ascii	"\253By\3651\2562|1\030\357\320a\256\212\312D\357L4/"
 444      31AE327C 
 444      3118EFD0 
 444      61AE8ACA 
 444      44EF4C34 
 445 015a 569B3BDE 		.ascii	"V\233;\336\023Su\006\271s\357\300\227\012F\222\332g"
 445      13537506 
 445      B973EFC0 
 445      970A4692 
 445      DA67
 446 016c 6D0952DB 		.ascii	"m\011R\333BH\007\027\246\313-\341F\317O\264\227;9f\251"
 446      42480717 
ARM GAS  C:\Users\rdn\AppData\Local\Temp\cc9mY3xa.s 			page 35


 446      A6CB2DE1 
 446      46CF4FB4 
 446      973B3966 
 447 0181 C24554E3 		.ascii	"\302ET\343<\252\271\223\324\300Kp\370\026\234[\021\352"
 447      3CAAB993 
 447      D4C04B70 
 447      F8169C5B 
 447      11EA
 448 0193 6231ABC3 		.ascii	"b1\253\303\221\330\235\037\261J\220^G\322K\332\340r"
 448      91D89D1F 
 448      B14A905E 
 448      47D24BDA 
 448      E072
 449 01a5 5D366994 		.ascii	"]6i\224\324\264\030\231\256\317\347qpAs\370H\210\257"
 449      D4B41899 
 449      AECFE771 
 449      704173F8 
 449      4888AF
 450 01b8 F4F0A0C7 		.ascii	"\364\360\240\307\245\344\257\032E\206e\231\374\304\230"
 450      A5E4AF1A 
 450      45866599 
 450      FCC498
 451 01c7 A5F24721 		.ascii	"\245\362G!yKz\336\357\356\352++i\037\036\224%\355\263"
 451      794B7ADE 
 451      EFEEEA2B 
 451      2B691F1E 
 451      9425EDB3 
 452 01db 5ACD0B97 		.ascii	"Z\315\013\227'\241\231J1\013\370\247\337\327\275\332"
 452      27A1994A 
 452      310BF8A7 
 452      DFD7BDDA 
 453 01eb 9BC2613A 		.ascii	"\233\302a:\356\312\024.,\356\252\230\331\002}\261}>"
 453      EECA142E 
 453      2CEEAA98 
 453      D9027DB1 
 453      7D3E
 454 01fd 2736C513 		.ascii	"'6\305\023nv\207\004\256\302\241\034}$\235\362\010\361"
 454      6E768704 
 454      AEC2A11C 
 454      7D249DF2 
 454      08F1
 455 020f 16B9E7D9 		.ascii	"\026\271\347\331\342\236\345\354\241\254\024~\347\315"
 455      E29EE5EC 
 455      A1AC147E 
 455      E7CD
 456 021d 85719FEF 		.ascii	"\205q\237\357\252\005\013\205\322\200\306\245\022\255"
 456      AA050B85 
 456      D280C6A5 
 456      12AD
 457 022b 49F509B9 		.ascii	"I\365\011\271\312(\322\245\310\354\237\333\337+\232"
 457      CA28D2A5 
 457      C8EC9FDB 
 457      DF2B9A
 458 023a FFE9835A 		.ascii	"\377\351\203ZW\006\312+Ji\262\343\032\232\005\345\012"
 458      5706CA2B 
 458      4A69B2E3 
 458      1A9A05E5 
ARM GAS  C:\Users\rdn\AppData\Local\Temp\cc9mY3xa.s 			page 36


 458      0A
 459 024b 5499415A 		.ascii	"T\231AZSM\243[`\232\306\002'[f\346\025\311(\314eGV\315"
 459      534DA35B 
 459      609AC602 
 459      275B66E6 
 459      15C928CC 
 460 0263 418D61FD 		.ascii	"A\215a\375\006\266\344\337\333c B\005\312e\013\235\""
 460      06B6E4DF 
 460      DB632042 
 460      05CA650B 
 460      9D22
 461 0275 1541F87A 		.ascii	"\025A\370zpA\024\034\343\377Ea\354\245KBZ\215\220X\221"
 461      7041141C 
 461      E3FF4561 
 461      ECA54B42 
 461      5A8D9058 
 462 028a C40A5C37 		.ascii	"\304\012\\7*<J\027(_|@\346\333\256_\335K#\220O8\243"
 462      2A3C4A17 
 462      285F7C40 
 462      E6DBAE5F 
 462      DD4B2390 
 463 02a1 CD31DAE8 		.ascii	"\3151\332\350p?J\363\333\037\334}\350r\371\266i\336"
 463      703F4AF3 
 463      DB1FDC7D 
 463      E872F9B6 
 463      69DE
 464 02b3 EFFEC1D6 		.ascii	"\357\376\301\326x'\216\264p\373|\272\031Y\025\307\015"
 464      78278EB4 
 464      70FB7CBA 
 464      195915C7 
 464      0D
 465 02c4 EE0A6EA2 		.ascii	"\356\012n\242\223t!\322\376\261}u\224\032<\033#\236"
 465      937421D2 
 465      FEB17D75 
 465      941A3C1B 
 465      239E
 466 02d6 2CDF1E1B 		.ascii	",\337\036\033YG\016\213\271\\\221WL\365\270\355AO~\222"
 466      59470E8B 
 466      B95C9157 
 466      4CF5B8ED 
 466      414F7E92 
 467 02ea 6E46FE1D 		.ascii	"nF\376\035b\006\301-C`\033\241\236\021\372\031\031\275"
 467      6206C12D 
 467      43601BA1 
 467      9E11FA19 
 467      19BD
 468 02fc 2CE29186 		.ascii	",\342\221\206Cbq\302\375\344S\233\034\276\247\340(:"
 468      436271C2 
 468      FDE4539B 
 468      1CBEA7E0 
 468      283A
 469 030e 49D4D6D6 		.ascii	"I\324\326\326G\277M\033\323\233\032\352\352\033\267"
 469      47BF4D1B 
 469      D39B1AEA 
 469      EA1BB7
 470 031d 36D4A79B 		.ascii	"6\324\247\233\326\255\337V\333 \254\364\306m\215\262"
 470      D6ADDF56 
ARM GAS  C:\Users\rdn\AppData\Local\Temp\cc9mY3xa.s 			page 37


 470      DB20ACF4 
 470      C66D8DB2 
 471 032d 71AB4C37 		.ascii	"q\253L7y[\330^\223nr6\257\335N\237\377\014\315\205\202"
 471      795BD85E 
 471      936E7236 
 471      AFDD4E9F 
 471      FF0CCD85 
 472              		.text
 473              		.section	.gnu.lto_bws_table_2m5.5454.d618b52e,"",%progbits
 474 0000 789C6D92 		.ascii	"x\234m\222\315O\023Q\024\305\347\276W\211\204jY\031"
 474      CD4F1351 
 474      14C5E7BE 
 474      5789846A 
 474      5919
 475 0012 17138A51 		.ascii	"\027\023\212Q\243\004\026\302\252K\267\376WMl\223j\272"
 475      A30416C2 
 475      AA4BB7FE 
 475      574D6C93 
 475      6ABA
 476 0024 20313181 		.ascii	" 11\201J$\265\246\305~P?\350\227\205\026h\003\013\265"
 476      4A24B5A6 
 476      C57E503F 
 476      E8978516 
 476      68030BB5 
 477 0038 1A635AA3 		.ascii	"\032cZ\243\325\212\230\320\264\251\005\212\005\023\012"
 477      D58A98D0 
 477      B4A9058A 
 477      05130A
 478 0047 773C2F98 		.ascii	"w</\230I:\213y\357\227w\316=\367\316\033\213F\232\361"
 478      493A8B79 
 478      EF9777CE 
 478      3DF7CE1B 
 478      8B469AF1 
 479 005b 08A9A99D 		.ascii	"\010\251\251\235\246\035\013r\315M\227DG\270\245F\023"
 479      A61D0B72 
 479      CD4D9744 
 479      47B8A546 
 479      13
 480 006c 8C7FD355 		.ascii	"\214\177\323U\277\0058\306\230\235\331\366\236w$\234"
 480      BF0538C6 
 480      989DD9F6 
 480      9E77249C 
 481 007c 9E79E7A8 		.ascii	"\236y\347\250[ROh\024\"\275'\210\202\244\033\366\265"
 481      5B524F68 
 481      1422BD27 
 481      8882A41B 
 481      F6B5
 482 008e BD78D06A 		.ascii	"\275x\320j\350\005I\306o\371w\225\001\330\2573\376."
 482      E80549C6 
 482      6FF97795 
 482      01D8AF33 
 482      FE2E
 483 00a0 3F6C58CC 		.ascii	"?lX\314\3660\354!\330\213'\335\274\015v\301x\230\375"
 483      F630EC21 
 483      D88B27DD 
 483      BC0D76C1 
 483      7898FD
ARM GAS  C:\Users\rdn\AppData\Local\Temp\cc9mY3xa.s 			page 38


 484 00b3 E057CD5C 		.ascii	"\340W\315\\c|\020\210\245/\000\355\214\335\356\275&"
 484      637C1088 
 484      A52F00ED 
 484      8CDDEEBD 
 484      26
 485 00c4 99AB2DA2 		.ascii	"\231\253-\242Z\014\3252w\303q\245\037a<8\272\337\032"
 485      5A0CD532 
 485      77C371A5 
 485      1F613C38 
 485      BADF1A
 486 00d7 045E627C 		.ascii	"\004^b|\032\014\3748g\266\277\200\3759\354[\245\357"
 486      1A0CFC38 
 486      67B6BF80 
 486      FD39EC5B 
 486      A5EF
 487 00e9 1109C16D 		.ascii	"\021\011\301m\267\2244\251\323Kr\320\224Nq^\242\244"
 487      B79434A9 
 487      D34B72D0 
 487      944E715E 
 487      A2A4
 488 00fb 5384D767 		.ascii	"S\204\327g\274.\220\3030l\354\357|T\001\343F@\362\363"
 488      BC2E90C3 
 488      306CECEF 
 488      7C5401E3 
 488      4640F2F3 
 489 010f 1DD00DA6 		.ascii	"\035\320\015\246'\321\304\254\315\034\227@\334\022\342"
 489      27D1C4AC 
 489      CD1C9740 
 489      DC12E2
 490 011e 3C5F9A1D 		.ascii	"<_\232\035+\364W\030\037U>%\255f}\012\372\004\364\273"
 490      2BF45718 
 490      1F553E25 
 490      AD667D0A 
 490      FA04F4BB 
 491 0132 6F677F5E 		.ascii	"og\177^\204~\224\261\345\372U\033\002^f||\270[\025f"
 491      847E94B1 
 491      E5FA551B 
 491      025E667C 
 491      7CB85B15 
 492 0147 FB6BD833 		.ascii	"\373k\3303\260\227;Ksj\374[j\272,\246K\253\351\222\230"
 492      B0973B4B 
 492      736AFC5B 
 492      6ABA2CA6 
 492      4BABE992 
 493 015c CAB75FAD 		.ascii	"\312\267_\255\253\251n\032_%\376\347\253\004^e|\223"
 493      ABA96E1A 
 493      5F25FEE7 
 493      AB045E65 
 493      7C93
 494 016e F7F8A439 		.ascii	"\367\370\2449'\207\234\025\344\324\274\356M\352\333"
 494      27879C15 
 494      E4D4BCEE 
 494      4DEADB
 495 017d 480A82DC 		.ascii	"H\012\202\334L\301~v\376\257\217U\364\221G\376\372J"
 495      4CC17E76 
 495      FEAF8F55 
 495      F49147FE 
ARM GAS  C:\Users\rdn\AppData\Local\Temp\cc9mY3xa.s 			page 39


 495      FA4A
 496 018f C365ED5B 		.ascii	"\303e\355[ \207\002\255@;\244~\312aUa\035\326P\273\376"
 496      208702AD 
 496      403BA47E 
 496      CA615561 
 496      1DD650BB 
 497 01a4 FEFF0D5A 		.ascii	"\376\377\015Z\214\223\002j\257\251\031\227\325\015\276"
 497      8C93026A 
 497      AFA91997 
 497      D50DBE
 498 01b3 620315F9 		.ascii	"b\003\025\371u\012\025\371\012\023"
 498      750A15F9 
 498      0A13
 499              		.text
 500              		.section	.gnu.lto_bws_table_5m.5455.d618b52e,"",%progbits
 501 0000 789C5D92 		.ascii	"x\234]\222\313K\002Q\024\207\347\314L\321\333\026-g"
 501      CB4B0251 
 501      1487E7CC 
 501      4CD1DB16 
 501      2D67
 502 0012 11B5885E 		.ascii	"\021\265\210^d\021\345\262e\375W\"IF\024!\031%\004\225"
 502      6411E5B2 
 502      65FD5722 
 502      49461421 
 502      19250495 
 503 0026 A4F6B687 		.ascii	"\244\366\266\207N\232\232=\314\012\242\027QQ\026hd\021"
 503      4E9A9A3D 
 503      CC0AA217 
 503      51511668 
 503      6411
 504 0038 12652545 		.ascii	"\022e%EYg:\227`\234\205\327\217\371}\347\334s\357\210"
 504      59673A97 
 504      609C85D7 
 504      8FF97DE7 
 504      DC73EF88 
 505 004c 1C70CA53 		.ascii	"\034p\312S*p\354\037\307}\363\260q\0310\345\274\362"
 505      2A70EC1F 
 505      C77DF3B0 
 505      711930E5 
 505      BCF2
 506 005e 46818356 		.ascii	"F\201\203V\304\263\303X;Q3\322\313\323G,W\347\321\233"
 506      C4B3C358 
 506      3B5133D2 
 506      CBD3472C 
 506      57E7D19B 
 507 0072 46F5E546 		.ascii	"F\365\345F\0012<\007N\2202<\200\003\244?\373\305\345"
 507      01323C07 
 507      4E90323C 
 507      8003A43F 
 507      FBC5E5
 508 0085 2852F23C 		.ascii	"(R\362<\010\210\253\262\177\233\025\323\"\356\204\327"
 508      0888ABB2 
 508      7F9B15D3 
 508      22EE84D7 
 509 0095 4F79B53E 		.ascii	"Oy\265>M\272\223\364\360O:\244!\235W\362\227\275\301"
 509      4DBA93F4 
 509      F04F3AA4 
ARM GAS  C:\Users\rdn\AppData\Local\Temp\cc9mY3xa.s 			page 40


 509      219D57F2 
 509      97BDC1
 510 00a8 5CD21B10 		.ascii	"\\\322\033\020\035G\003=\032\302\032\304\370\355cO\241"
 510      1D47033D 
 510      1AC21AC4 
 510      F8ED634F 
 510      A1
 511 00b9 BADA3C55 		.ascii	"\272\332<U\233\243j\237\336\350\270H\371j\304\347}k"
 511      9BA36A9F 
 511      DEE8B848 
 511      F96AC4E7 
 511      7D6B
 512 00cb BC84B01C 		.ascii	"\274\204\260\034q\"\222\310d\315\262H\372\002\351\226"
 512      712292C8 
 512      64CDB248 
 512      FA02E996 
 513 00db 619B8105 		.ascii	"a\233\201\005\332\214\202\000\215\022,\201\016\232$"
 513      DA8C8200 
 513      8D122C81 
 513      0E9A24
 514 00ea 70E1320B 		.ascii	"p\3412\013\022\314\340:\205\353$\350\024\341\332\362"
 514      12CCE03A 
 514      85EB24E8 
 514      14E1DAF2 
 515 00fa 79CCA66D 		.ascii	"y\314\246mAt\337u\353\213\011\233\020\037vo\"y\352~"
 515      4174DF75 
 515      EB8B099B 
 515      101F766F 
 515      2279EA7E 
 516 010e 1EEAE7A6 		.ascii	"\036\352\347\246~\235#\375\007<\345\353\020c\275\351"
 516      7E9D23FD 
 516      073CE5EB 
 516      1063BDE9 
 517 011e C1ACFDAD 		.ascii	"\301\254\375\255P\336C\371H\352\376$\237\362\265\210"
 517      50DE43F9 
 517      48EAFE24 
 517      9FF2B588 
 518 012e E63ED9CC 		.ascii	"\346>\331\314\364\012\304\356\224\323Z\240\326WI\367"
 518      F40AC4EE 
 518      94D35AA0 
 518      D65749F7 
 519 013e B1ABB2F8 		.ascii	"\261\253\262\370\277\362)\240e\343\371i</\033O\246\261"
 519      BFF229A0 
 519      65E3F969 
 519      3C2F1B4F 
 519      A6B1
 520 0150 E26F5DBE 		.ascii	"\342o]\276\254s\236S\335Z*!'\005\352\\\257l\334\365"
 520      AC739E53 
 520      DD5A2A21 
 520      2705EA5C 
 520      AF6CDCF5 
 521 0164 7EC5B012 		.ascii	"~\305\260\022\321\343\260\217i\324z\210\3645\322\243"
 521      D1E3B08F 
 521      69D47A88 
 521      F435D2A3 
 522 0174 F6B1B2FF 		.ascii	"\366\261\262\377\367\177\373X\247}\004\251\377\204|"
 522      F77FFB58 
ARM GAS  C:\Users\rdn\AppData\Local\Temp\cc9mY3xa.s 			page 41


 522      A77D04A9 
 522      FF847C
 523 0183 D141E5AA 		.ascii	"\321A\345\252\220\014\273\366\316\254c\334T\035\313"
 523      900CBBF6 
 523      CEAC63DC 
 523      541DCB
 524 0192 90ED3CC9 		.ascii	"\220\355<\311>\262RVo\213\012\015\3727\367\304\377\013"
 524      3EB25256 
 524      6F8B0A0D 
 524      FA37F7C4 
 524      FF0B
 525 01a4 15953761 		.ascii	"\025\2257a\352\264\301&\016\260\013]F\001\266\361\347"
 525      EAB4C126 
 525      0EB00B5D 
 525      4601B6F1 
 525      E7
 526 01b5 17C2EF0D 		.ascii	"\027\302\357\015\323"
 526      D3
 527              		.text
 528              		.section	.gnu.lto_bws_table_7m5.5456.d618b52e,"",%progbits
 529 0000 789C6D92 		.ascii	"x\234m\222YK\002Q\024\307\347\334\021\242\322\354\003"
 529      594B0251 
 529      14C7E7DC 
 529      11A2D2EC 
 529      03
 530 0011 CC438F11 		.ascii	"\314C\217\021\004\2550m\320c\237\252\202\320\202\"\241"
 530      04AD306D 
 530      D0639FAA 
 530      82D08222 
 530      A1
 531 0022 055A0CA2 		.ascii	"\005Z\014\242M\315\026\313ll\325,c(h\241\310\202J\350"
 531      4DCD16CB 
 531      6C6CD52C 
 531      632868A1 
 531      C8824AE8 
 532 0036 2113B3C5 		.ascii	"!\023\263\305\202\352!\353L\347\022\334\310\207\271"
 532      82EA21EB 
 532      4CE712DC 
 532      C887B9
 533 0045 F363FEBF 		.ascii	"\363c\376\2773\347\314\321$\201d\374\230,\361;I\372"
 533      33E7CCD1 
 533      248164FC 
 533      982CF13B 
 533      49FA
 534 0057 64A03D78 		.ascii	"d\240=x5\313+\263\311\022\204\015\266{.\365\034\342"
 534      35CB2BB3 
 534      C912840D 
 534      B67B2EF5 
 534      1CE2
 535 0069 064447E6 		.ascii	"\006DG\346l\000\324\345\326\216\321\326\"\233\014Y&"
 535      6C00D4E5 
 535      D68ED1D6 
 535      229B0C59 
 535      26
 536 007a 811B942C 		.ascii	"\201\033\224,\003p\201b\344#\031\237\313l\344\031\310"
 536      03708162 
 536      E423199F 
ARM GAS  C:\Users\rdn\AppData\Local\Temp\cc9mY3xa.s 			page 42


 536      CB6CE419 
 536      C8
 537 008b 88E7D1BB 		.ascii	"\210\347\321\273qFz\015\342\243>\3470\213\272\227t7"
 537      71467A0D 
 537      E2A33EE7 
 537      308BBA97 
 537      7437
 538 009d E9D1AFB7 		.ascii	"\351\321\257\267\260\225t\206\350\276uv\233IW\021{R"
 538      B0957486 
 538      E8BE7576 
 538      9B495711 
 538      7B52
 539 00af 8F87BC99 		.ascii	"\217\207\274\231J\304\314\244}$_\2546O\325\346\250\332"
 539      4AC4CCA4 
 539      7D245FAC 
 539      364FD5E6 
 539      A8DA
 540 00c1 58E8A085 		.ascii	"X\350\240\205\342\345H\303/W\311\\\302bD\237\336\027"
 540      E2E548C3 
 540      2F57C95C 
 540      C262449F 
 540      DE17
 541 00d3 CC13ED45 		.ascii	"\314\023\355E\262\027\310\276|\332\214Y(\320h\223e("
 541      B217C8BE 
 541      7CDA8C59 
 541      28D06893 
 541      6528
 542 00e5 57C00F2A 		.ascii	"W\300\017*T(\340\303c\026\024\230\301s\032O\017\250"
 542      5428E0C3 
 542      63161498 
 542      C1731A4F 
 542      0FA8
 543 00f7 86E068BB 		.ascii	"\206\340h\273n\246\372\365H\336\347\247\335\034\261"
 543      6EA6FAF5 
 543      48DEE7A7 
 543      DD1CB1
 544 0106 7E40F854 		.ascii	"~@\370T\366\303\376d\001\345\353\020\343\247\011\247"
 544      F6C3FE64 
 544      01E5EB10 
 544      E3A709A7 
 545 0116 4C588DB8 		.ascii	"LX\215\2707\241\235\374\321\203\244k\244\307\216n\232"
 545      37A19DFC 
 545      D183A46B 
 545      A4C78E6E 
 545      9A
 546 0127 285E85E4 		.ascii	"(^\205\344:\356\353\264\022\226 \266\237;BL\264\327"
 546      3AEEEBB4 
 546      129620B6 
 546      9F3B424C 
 546      B4D7
 547 0139 C85E253B 		.ascii	"\310^%;\325\3731 S\240\214\017\267N\303\255\360\341"
 547      D5FB3120 
 547      53A08C0F 
 547      B74EC3AD 
 547      F0E1
 548 014b 966928FF 		.ascii	"\226i(\377\305{\314D\205k\021\017\356\365\256?\177\200"
 548      C57BCC44 
ARM GAS  C:\Users\rdn\AppData\Local\Temp\cc9mY3xa.s 			page 43


 548      856B110F 
 548      EEF5AE3F 
 548      7F80
 549 015d 4D61AA97 		.ascii	"Ma\252\227\204\226\346c\224\"\352\303\203#V1\037\026"
 549      8496E663 
 549      9422EAC3 
 549      83235631 
 549      1F16
 550 016f 76B43FF4 		.ascii	"v\264?\364pf\371\015\3744\262E\215\204\250\201\233\270"
 550      7066F90D 
 550      FC34B245 
 550      8D84A881 
 550      9BB8
 551 0181 2760FD77 		.ascii	"'`\375w\313\374\215\301\310\224\233\007\012y\205mR\257"
 551      CBFC8DC1 
 551      C8949B07 
 551      0A79856D 
 551      52AF
 552 0193 13C769D3 		.ascii	"\023\307i\323\357\006M\306\223\035\252\035\341Cn\360"
 552      EF064DC6 
 552      931DAA1D 
 552      E1436EF0 
 553 01a3 0D2EA100 		.ascii	"\015.\241\000Q\274|\003\223F\012O"
 553      51BC7C03 
 553      93460A4F 
 554              		.text
 555              		.section	.gnu.lto_bws_table_10m.5457.d618b52e,"",%progbits
 556 0000 789C5D91 		.ascii	"x\234]\221\355/Ba\030\306\317}N\312K\312\037p>\370j"
 556      ED2F4261 
 556      18C6CF7D 
 556      4ECA4BCA 
 556      1F703EF8 
 557 0015 B3216319 		.ascii	"\263!c\0316\177\231\205jhD[\326\007L\314\224\274\223"
 557      367F9985 
 557      6A68445B 
 557      D6074CCC 
 557      94BC93
 558 0028 2492BCAC 		.ascii	"$\222\274\254\371\322\2065[^\306\207hL\011\223\346\355"
 558      F9D28635 
 558      5B5EC687 
 558      684C0993 
 558      E6ED
 559 003a 3EEE67EC 		.ascii	">\356g\354\351|8\317\363\333\271\256\353\334\327\363"
 559      E97C38CF 
 559      F3DBB9AE 
 559      EBDCD7F3 
 560 004a A8041094 		.ascii	"\250\004\020\224\347U\024\330N\020>E\010<\372\002\225"
 560      E75514D8 
 560      4E103E45 
 560      083CFA02 
 560      95
 561 005b 2FA24512 		.ascii	"/\242E\022 \242\260\325{\036\323\020\267#\332s\011\027"
 561      20A2B0D5 
 561      7B1ED310 
 561      B723DA73 
 561      0917
 562 006d 18D74DBD 		.ascii	"\030\327M\275\023\246j\213\004_\242\000\036\220\277"
ARM GAS  C:\Users\rdn\AppData\Local\Temp\cc9mY3xa.s 			page 44


 562      13A66A8B 
 562      045FA200 
 562      1E90BF
 563 007c 44801990 		.ascii	"D\200\031\220\025}4\2674\243U\364\"H\210g\007wS\"\331"
 563      157D34B7 
 563      34A355F4 
 563      22488867 
 563      07775322 
 564 0091 5B1033B1 		.ascii	"[\0203\261\005\273\226\267\373\310\356!\373\301\367"
 564      05BB96B7 
 564      FBC8EE21 
 564      FBC1F7
 565 00a0 5B444F76 		.ascii	"[DOv\021\321\223\032\035\324\222\335\210\350\270\317"
 565      11D1931A 
 565      1DD492DD 
 565      88E8B8CF 
 566 00b0 C4D9308D 		.ascii	"\304\3310\215\210\271i\353X\005\237\266Hi\013\224\346"
 566      88B969EB 
 566      58059FB6 
 566      48690B94 
 566      E6
 567 00c1 4FF59958 		.ascii	"O\365\231X\031\003b!x1\251\"\254A\314\367w]\027\015"
 567      19036221 
 567      7831A922 
 567      AC41CCF7 
 567      775D170D 
 568 00d5 B342F665 		.ascii	"\263B\366e\262\337\273\276\223j\022tX$\011\032dX\005"
 568      B2DFBBBE 
 568      936A1274 
 568      5824091A 
 568      645805
 569 00e8 23186458 		.ascii	"#\030dX\302e\036d\230\303u\026W/\030\025\203\275\347"
 569      C2651E64 
 569      98C37516 
 569      572F1815 
 569      83BDE7
 570 00fb B293F2DB 		.ascii	"\262\223\362\333\220|O\331C\015\237\357\347\316\352"
 570      907C4FD9 
 570      430D9FEF 
 570      E7CEEA
 571 010a D259382E 		.ascii	"\322Y8.!}3\342\360\263\333\255\343\365\001\322\373I"
 571      217D33E2 
 571      F0B3DBAD 
 571      E3F501D2 
 571      FB49
 572 011c 7F757A3B 		.ascii	"\177uz;*\221\276\011\321<6\024gg[\253\324\351\016\333"
 572      2A91BE09 
 572      D13C3614 
 572      67675BAB 
 572      D4E90EDB 
 573 0130 4A79FB26 		.ascii	"Jy\373&\331\203dO\270\216\336JHP\317\352\204\250\316"
 573      D983644F 
 573      B88EDE4A 
 573      4850CFEA 
 573      84A8CE
 574 0143 06ABB34E 		.ascii	"\006\253\263N5\254qgZG\301\255\210\307\331\033OQ\360"
 574      35AC7167 
ARM GAS  C:\Users\rdn\AppData\Local\Temp\cc9mY3xa.s 			page 45


 574      5A47C1AD 
 574      88C7D91B 
 574      4F51F0
 575 0156 36D72396 		.ascii	"6\327#\226\034\010\253I_\207\230~w\254\225\361\372\035"
 575      1C08AB49 
 575      5F87987E 
 575      77AC95F1 
 575      FA1D
 576 0168 D2FB48FF 		.ascii	"\322\373H\377aK\315\377\013~\007\211\320 a\032`$4\236"
 576      614BCDFF 
 576      0B7E0789 
 576      D020611A 
 576      6024349E 
 577 017c 2FE71382 		.ascii	"/\347\023\202\334\037\037\314#\266J\022T\261\204(Y\207"
 577      DC1F1FCC 
 577      23B64A12 
 577      54B18428 
 577      5987
 578 018e 4F8327FA 		.ascii	"O\203'\372\277;S)_\366({\227\225\334bw\266\206\006\330"
 578      BF3B5329 
 578      5FF6287B 
 578      9795DC62 
 578      77B68606 
 579 01a3 C7D70FC4 		.ascii	"\307\327\017\304\020\004\256"
 579      1004AE
 580              		.text
 581              		.section	.gnu.lto_.symbol_nodes.d618b52e,"",%progbits
 582 0000 789C5D8D 		.ascii	"x\234]\215=\016\202@\020\205\337\354\354.`\024\024\377"
 582      3D0E8240 
 582      1085DFEC 
 582      EC2E6014 
 582      14FF
 583 0012 305AE809 		.ascii	"0Z\350\011<\202G\233\215!\326^\001ccI\211\245\205v\034"
 583      3C82479B 
 583      8D21D65E 
 583      01636349 
 583      89A58576 
 584 0027 827B9888 		.ascii	"\202{\230\210\240\211X}y_\336\314\323 \364\011\200\352"
 584      A089587D 
 584      795FDECC 
 584      D320F409 
 584      80EA
 585 0039 09702C81 		.ascii	"\011p,\201\032\205\313\034\327j)\364QT\244\231[\003"
 585      1A85CB1C 
 585      D76A29F4 
 585      5154A499 
 585      5B03
 586 004b 26868B01 		.ascii	"&\206\213\0016cj9R\015\325J\324_U\015\204\277\017\257"
 586      36636A39 
 586      520DD54A 
 586      D45F550D 
 586      84BF0FAF 
 587 005f 6E538B50 		.ascii	"nS\213PtWDb\272b(\266#\314\234\333\231\231n95-'\266"
 587      74574462 
 587      BA6228B6 
 587      23CC9CDB 
 587      99996E39 
ARM GAS  C:\Users\rdn\AppData\Local\Temp\cc9mY3xa.s 			page 46


 588 0077 212DC46B 		.ascii	"!-\304k\016\000\367\336\244D\374\337\314\010q~\334-"
 588      0E00F7DE 
 588      A444FCDF 
 588      CC08717E 
 588      DC2D
 589 0089 5B42956F 		.ascii	"[B\225o\3313\330_Jb\337\340\224\357\330\217\220\226"
 589      D933D85F 
 589      4A62DFE0 
 589      94EFD88F 
 589      9096
 590 009b 4FCD81C1 		.ascii	"O\315\201\301\255\216\001P\035\312\004/k\3267X"
 590      AD8E0150 
 590      1DCA042F 
 590      6BD63758 
 591              		.text
 592              		.section	.gnu.lto_.refs.d618b52e,"",%progbits
 593 0000 789C05C1 		.ascii	"x\234\005\301\311\021\000 \014\3040\307\331\027\307"
 593      C9110020 
 593      0CC430C7 
 593      D917C7
 594 000f 9FFE5B61 		.ascii	"\237\376[a\350\013)\024\007\350B\351\013yD\207\323\345"
 594      E80B2914 
 594      07E842E9 
 594      0B794487 
 594      D3E5
 595 0021 E6031CBD 		.ascii	"\346\003\034\275\001\361"
 595      01F1
 596              		.text
 597              		.section	.gnu.lto_.decls.d618b52e,"",%progbits
 598 0000 789CBD59 		.ascii	"x\234\275Y\011PT\327\232\356sOw\003M7\030t\222T\206"
 598      095054D7 
 598      9AEE734F 
 598      77034D37 
 598      18749254 
 599 0015 E43929F3 		.ascii	"\3449)\363\206\227\231\220h4\361MM\252Lb\336$\225\030"
 599      86979990 
 599      6834F14D 
 599      4DAA4C62 
 599      DE249518 
 600 0029 ADC42435 		.ascii	"\255\304$55LuXZ\245J\301i &\363^\325\\Y\272\001\243"
 600      354C7558 
 600      5AA54AC1 
 600      692026F3 
 600      5ED55C59 
 601 0040 821BC8BE 		.ascii	"\202\033\310\276\250\200\200\254b\000\227\016\250\200"
 601      A88080AC 
 601      6200970E 
 601      A880
 602 004e 2B044101 		.ascii	"+\004A\001\015\250\240 \242\340\022d\237\377,\335}o"
 602      0DA8A020 
 602      A2E01264 
 602      9FFF2CDD 
 602      7D6F
 603 0060 032635A9 		.ascii	"\003&5\251\232[\234\276\367?\367\373\227\363o\367\334"
 603      9A5B9CBE 
 603      F73FF7FB 
 603      97F36FF7 
ARM GAS  C:\Users\rdn\AppData\Local\Temp\cc9mY3xa.s 			page 47


 603      DC
 604 0071 8B528114 		.ascii	"\213R\201\024\344h\370\203B\261B\245P$*\025\212)8\334"
 604      E468F883 
 604      42B142A5 
 604      50242A15 
 604      8A2938DC 
 605 0085 60EE4B18 		.ascii	"`\356K\030\002\014\013\214f\005;\\`\274\012,\357\302"
 605      020C0B8C 
 605      66053B5C 
 605      60BC0A2C 
 605      EFC2
 606 0097 F800C6C7 		.ascii	"\370\000\306\3070V\302\370w\030_\303\360\203\261\016"
 606      3056C2F8 
 606      77185FC3 
 606      F083B10E 
 607 00a7 8613E0FE 		.ascii	"\206\023\340\376\006\347X\030{`$\303H\203\221\011c\037"
 607      06E75818 
 607      7B6024C3 
 607      48839109 
 607      631F
 608 00b9 52C80E22 		.ascii	"R\310\016\"O\003g\017\030\363`\254\204\361\2170\267"
 608      4F03670F 
 608      18F360AC 
 608      84F18F30 
 608      B7
 609 00ca 0ACEFBE1 		.ascii	"\012\316\373\341\374\0170\306\340\372\000\234\377\004"
 609      FC0F30C6 
 609      E0FA009C 
 609      FF04
 610 00d8 03C3F502 		.ascii	"\003\303\365\0028\217\303y\202\333\370*\327\355x\020"
 610      388FC379 
 610      82DBF82A 
 610      D7ED7810 
 611 00e8 3B5FE06B 		.ascii	";_\340kx\007\261uX\365\274\316u\344\300\331\010C\011"
 611      7807B175 
 611      58F5BCCE 
 611      75E4C0D9 
 611      084309
 612 00fb E37DA077 		.ascii	"\343}\240w\300\371\277\021\263\3439\030\271p\375W\030"
 612      C0F9BF11 
 612      B3E33918 
 612      B970FD57 
 612      18
 613 010c DFC22884 		.ascii	"\337\302(\204\341\015\303\023\346\017\3019\006F4\014"
 613      E10DC313 
 613      E60FC139 
 613      0646340C 
 614 011c 338C22C4 		.ascii	"3\214\"\304l\371\006\316a0\020\327O|\341\270~\251o\244"
 614      6CF906CE 
 614      613010D7 
 614      4F7CE1B8 
 614      7EA96FA4 
 615 0130 C7DFF8FA 		.ascii	"\307\337\370\372\212\021\263\361\257\222\373\020\032"
 615      8A11B3F1 
 615      AF92FB10 
 615      1A
 616 013d CA9BC965 		.ascii	"\312\233\311e%;\360\022yJ\2766\262\256hn\337l\007\211"
ARM GAS  C:\Users\rdn\AppData\Local\Temp\cc9mY3xa.s 			page 48


 616      253BF012 
 616      794ABE36 
 616      B2AE686E 
 616      DF6C0789 
 617 0151 9F4AE28F 		.ascii	"\237J\342\217U<\316J\316\2038\306\361 1w\375\215>-\201"
 617      553CCE4A 
 617      CE8338C6 
 617      F1203177 
 617      FD8D3E2D 
 618 0166 B18CCB10 		.ascii	"\261\214\313\0208/\361\211\372)>\221\036+9\326\321\306"
 618      382FF189 
 618      FA293E91 
 618      1E2B39D6 
 618      D1C6
 619 0178 52985F2E 		.ascii	"R\230_.\221\273\022\315l+\311\3139\012\226\313V\031"
 619      91BB12CD 
 619      6C2BC9CB 
 619      390A96CB 
 619      5619
 620 018a 5F729B2D 		.ascii	"_r\233-\\\336J\211<\222w\322\234+\203\363\332\031rN"
 620      5CDE4A89 
 620      3C9277D2 
 620      9C2B83F3 
 620      DA19724E 
 621 019e C5655BF5 		.ascii	"\305e[\365V\362\274w<HMh\035\354\267\352\377\017\304"
 621      56F2BC77 
 621      3C484D68 
 621      1DECB7EA 
 621      FF0FC4
 622 01b1 6C90EAB7 		.ascii	"l\220\352\267\34689\224\234\337\252\343\325\031\344"
 622      E6383994 
 622      9CDFAAE3 
 622      D519E4
 623 01c0 27F31892 		.ascii	"'\363\030\222<\375\226\347\314wpNr\310\305\231\216\264"
 623      3CFD96E7 
 623      CC77704E 
 623      72C8C599 
 623      8EB4
 624 01d2 DFC19BF9 		.ascii	"\337\301\233\371;x\367\375\016\336\011\001\025Eu\347"
 624      3B78F7FD 
 624      0EDE0901 
 624      154575E7 
 625 01e2 393F1290 		.ascii	"9?\022\220\247\006M!B\337\255\034\3211\232\334~\024"
 625      A7064D21 
 625      42DFAD1C 
 625      D1319ADC 
 625      7E14
 626 01f4 1B358C81 		.ascii	"\0335\214\201\\\245AN@n?\3329\251\305\002\275\225\023"
 626      5CA5414E 
 626      406E3FDA 
 626      39A9C502 
 626      BD9513
 627 0207 33222805 		.ascii	"3\"(\005\005:\2100\312C\236TZ\367Xa\225\033\203\253"
 627      053A8830 
 627      CA439E54 
 627      5AF75861 
 627      951B83AB 
ARM GAS  C:\Users\rdn\AppData\Local\Temp\cc9mY3xa.s 			page 49


 628 021b 81CCAF4C 		.ascii	"\201\314\257L:-\340y\024^\321\222U\341N\360\205\200"
 628      3A2DE079 
 628      145ED192 
 628      55E14EF0 
 628      8580
 629 022d 2F409E28 		.ascii	"/@\236(\037)\311|\303\276\252q-cQ\001\331[ut\247\012"
 629      1F29C97C 
 629      C3BEAA71 
 629      2D635101 
 629      D95B7574 
 630 0243 7B51969E 		.ascii	"{Q\226\236\023\267\213T\204\245\030X\212\200\345\020"
 630      13B78B54 
 630      84A51858 
 630      8A80E510 
 631 0253 63698A2C 		.ascii	"ci\212,N\341F)\2014\235\177\320\241\304\377JY\356\337"
 631      4EE14629 
 631      81349D7F 
 631      D0A1C4FF 
 631      4A59EEDF 
 632 0267 AE8EA12C 		.ascii	"\256\216\241,e\300R\012,%\214%\367l\247\331\015\257"
 632      65C0520A 
 632      2C258C25 
 632      F76CA7D9 
 632      0DAF
 633 0279 A098A6FB 		.ascii	"\240\230\246\373\331\267\251\345\207\001\363\317\236"
 633      D9B7A9E5 
 633      8701F3CF 
 633      9E
 634 0286 A89C414E 		.ascii	"\250\234ANM\015[\334\231T\001\310\307\346+\367]\261"
 634      4D0D5BDC 
 634      995401C8 
 634      C7E62BF7 
 634      5DB1
 635 0298 9E720C3D 		.ascii	"\236r\014=\272^\245%\034?\000\307\021\220Z\301XNG&\347"
 635      BA5EA525 
 635      1C3F00C7 
 635      11905AC1 
 635      584E4726 
 636 02ad BB6123C5 		.ascii	"\273a#\305lM\311\253w#\230*\300\374\223'\252d\220\201"
 636      6C4DC9AB 
 636      7723982A 
 636      C0FC9327 
 636      AA649081 
 637 02c1 FD89A31A 		.ascii	"\375\211\243\032\034\201(\246ot{\255\216`\216\002\346"
 637      1C8128A6 
 637      6F747BAD 
 637      8E608E02 
 637      E6
 638 02d2 554F54CD 		.ascii	"UOT\3150\235#\271\177\361.\020\341\210\023E\241@e\217"
 638      309D23B9 
 638      7FF12E10 
 638      E1881345 
 638      A140658F 
 639 02e6 4EC723D3 		.ascii	"N\307#\323>-N\245\334BzZo\257\0229{\231D1\\\034\014"
 639      3E2D4EA5 
 639      DC427A5A 
 639      6FAF1239 
ARM GAS  C:\Users\rdn\AppData\Local\Temp\cc9mY3xa.s 			page 50


 639      7B994431 
 640 02fd 0F5727BA 		.ascii	"\017W'\272)\320\233\236\350\015O\005:\001\002-\310\031"
 640      29D09B9E 
 640      E80D4F05 
 640      3A01022D 
 640      C819
 641 030f 1D47DEE8 		.ascii	"\035G\336\350G\344\205\216!%\312\005Cs 0\007\210\344"
 641      47E4858E 
 641      2125CA05 
 641      43732030 
 641      0788E4
 642 0322 AE235B36 		.ascii	"\256#[6]\027\3059\004\245 0\256\204\320\240h\370\212"
 642      5D17C539 
 642      04A52030 
 642      AE84D0A0 
 642      68F88A
 643 0335 A94E8D1B 		.ascii	"\251N\215\033\230\231\017\206j\374\210\2255\222\310"
 643      98990F86 
 643      6AFC8895 
 643      3592C8
 644 0344 161CCF9F 		.ascii	"\026\034\317\237p\303\227\031\240j\260a\322\225 N\362"
 644      70C39719 
 644      A06AB061 
 644      D295204E 
 644      F2
 645 0355 58D6B285 		.ascii	"X\326\262\205\334L\357\274\256\303\275\014\264;>\252"
 645      DC4CEFBC 
 645      AEC3BD0C 
 645      B43B3EAA 
 646 0365 D785804E 		.ascii	"\327\205\200N\363\350\235b\240\252\363\245#J<\302@?"
 646      F3E89D62 
 646      A0AAF3A5 
 646      234A3CC2 
 646      403F
 647 0377 9D88C8A0 		.ascii	"\235\210\310\240\236\255\347\361\252c\240\204\336\213"
 647      9EADE7F1 
 647      AA63A084 
 647      DE8B
 648 0385 592ED8CC 		.ascii	"Y.\330\3142-\261,\252\001\021\320\031\026\260\006\206"
 648      322DB12C 
 648      AA0111D0 
 648      1916B006 
 648      86
 649 0396 6909BF96 		.ascii	"i\011\277\226\355\214w3L[Ls\255\232`\316\361\020\235"
 649      ED8C7733 
 649      4C5B4C73 
 649      AD9A60CE 
 649      F1109D
 650 03a9 65A06D79 		.ascii	"e\240mym\007u8\233\201\372\252\036Wk\010\350\002\213"
 650      6D077538 
 650      9B81FAAA 
 650      1E576B08 
 650      E8028B
 651 03bc D1798629 		.ascii	"\321y\206)\352\273\272\034\2270\310\330@\3041\032\242"
 651      EABBBA1C 
 651      9730C8D8 
 651      40C4311A 
ARM GAS  C:\Users\rdn\AppData\Local\Temp\cc9mY3xa.s 			page 51


 651      A2
 652 03cd 4616A28B 		.ascii	"F\026\242\213\0142ye<\321\015\037\247\030\341\322\375"
 652      0C327965 
 652      3CD10D1F 
 652      A718E1D2 
 652      FD
 653 03de E661DD2C 		.ascii	"\346a\335,\201\370\011\330\232y .A \232\246\005\242"
 653      81F809D8 
 653      9A79202E 
 653      41209AA6 
 653      05A2
 654 03f0 B8F593CD 		.ascii	"\270\365\223\315\242\210\010J\026\210f\032\210\251\364"
 654      A288084A 
 654      1688661A 
 654      88A9F4
 655 03ff F2EDCE1D 		.ascii	"\362\355\316\035\250\015a\205\302\372\344@\354\027\321"
 655      A80D6185 
 655      C2FAE440 
 655      EC17D1
 656 040e A1608392 		.ascii	"\241`\203\222p!(\330\205u\312v(8D\260^\332\205\321?"
 656      702128D8 
 656      8575CA76 
 656      283844B0 
 656      5EDA85D1 
 657 0423 CE8FA6AC 		.ascii	"\316\217\246\254\007\025b\227\2168\023\2439\263\202"
 657      07156297 
 657      8E3813A3 
 657      39B382
 658 0432 3321C1AE 		.ascii	"3!\301\256\0001\322\312!\221\347`\221\325f\253\032\332"
 658      0031D2CA 
 658      2191E760 
 658      91D566AB 
 658      1ADA
 659 0444 9E68726D 		.ascii	"\236hrm\3357~^\203{Y\004\016\025\214\025\223 )H%\372"
 659      DD377E5E 
 659      837B5904 
 659      0E158C15 
 659      93202948 
 660 045a C90ADE83 		.ascii	"\311\012\336\203\025\374\320\371\244\233\244\313\314"
 660      15FCD0F9 
 660      A49BA4CB 
 660      CC
 661 0467 D3A0F940 		.ascii	"\323\240\371@&?\274\326\347\302\356z\221\224\032<\227"
 661      263FBCD6 
 661      E7C2EE7A 
 661      91941A3C 
 661      97
 662 0478 EACAC839 		.ascii	"\352\312\3109\244\357\334j8\255a`\2214\270\234\310\352"
 662      A4EFDC6A 
 662      38AD6160 
 662      9134B89C 
 662      C8EA
 663 048a 3617FC98 		.ascii	"6\027\374\230\351J\252~tF\305\260\304\371WjR\367\252"
 663      E94AAA7E 
 663      7446C5B0 
 663      C4F9576A 
 663      52F7AA
ARM GAS  C:\Users\rdn\AppData\Local\Temp\cc9mY3xa.s 			page 52


 664 049d F138BB57 		.ascii	"\3618\273WnyX\250\304\2331\015ySY\333)\027\344\245\341"
 664      6E7958A8 
 664      C49B310D 
 664      795359DB 
 664      2917E4A5 
 665 04b2 B5D4FED2 		.ascii	"\265\324\376\322\017\244\226n \015\352\202\200\263("
 665      0FA4966E 
 665      200DEA82 
 665      80B328
 666 04c1 42CF84DF 		.ascii	"B\317\204\337h\232\024Y\242\372y[N\\\207<\200~JP\266"
 666      689A1459 
 666      A2FA795B 
 666      4E5C873C 
 666      807E4A50 
 667 04d6 5C000579 		.ascii	"\\\000\005y\351\271'ux\233\222*\030\330\325\037\215"
 667      E9B92775 
 667      789B922A 
 667      18D8D51F 
 667      8D
 668 04e7 6D0AAEDD 		.ascii	"m\012\256\335XV\026\005\275\000\365\200\206\233v\015"
 668      58561605 
 668      BD00F580 
 668      869B760D 
 669 04f7 A0706615 		.ascii	"\240pf\025\3353\253\330\325[\347\242\215%\360\270\010"
 669      DD33ABD8 
 669      D55BE7A2 
 669      8D25F0B8 
 669      08
 670 0508 D1A3DE8D 		.ascii	"\321\243\336\215\312k\203\373WHY\243[H\313#0*\216Tk"
 670      CA6B83FB 
 670      574859A3 
 670      5B48CB23 
 670      302A8E54 
 671 051d F156155D 		.ascii	"\361V\025]\371@\334\366Z\027\274\203\021\251-7\342\\"
 671      F940DCF6 
 671      5A17BC83 
 671      11A92D37 
 671      E25C
 672 052f 345C65DC 		.ascii	"4\\e\334\257\253\354\273zd\\+\323\331'\323y\307\246"
 672      AFABECBB 
 672      7A645C2B 
 672      D3D927D3 
 672      79C7A6
 673 0542 B336BC70 		.ascii	"\2636\274p\213\033\336\303\324\\\254\330\331\251\303"
 673      8B1BDEC3 
 673      D45CACD8 
 673      D9A9C3
 674 0551 29945027 		.ascii	")\224P'E\\\216\321\240\005s\027,\360Z\220E$uU\366\177"
 674      455C8ED1 
 674      A0057317 
 674      2CF05A90 
 674      45247555 
 675 0567 9DFAA45B 		.ascii	"\235\372\244[\024wh\211\000\324\013.\271\207\346\332"
 675      14776889 
 675      00D40B2E 
 675      B987E6DA 
 676 0577 C4A2D789 		.ascii	"\304\242\327\211\3506\242@\021\317\033\251\210B\025"
ARM GAS  C:\Users\rdn\AppData\Local\Temp\cc9mY3xa.s 			page 53


 676      E836A240 
 676      11CF1BA9 
 676      884215
 677 0586 E82A003A 		.ascii	"\350*\000:\010\340.\347 u9\004\226?@\013\320\000\214"
 677      08E02EE7 
 677      20753904 
 677      963F400B 
 677      D0008C
 678 0599 4118F7D1 		.ascii	"A\030\367\321\002\232\211T\225\245\272\356\331\275\242"
 678      029A8954 
 678      95A5BAEE 
 678      D9BDA2
 679 05a8 251213EF 		.ascii	"%\022\023\357\240NGE?#\273&\212\027\217\005\2101j\012"
 679      A04E4745 
 679      3F23BB26 
 679      8A178F05 
 679      88316A0A 
 680 05bc BE3D3378 		.ascii	"\276=3x!\301\322\270Z\216\230\265\242\350L@\322\322"
 680      21C1D2B8 
 680      5A8E98B5 
 680      A2E84C40 
 680      D2D2
 681 05ce 677A2BCD 		.ascii	"gz+\315\\/Y`\377\214\013\244\222\300Y\367\"{\272x\212"
 681      5C2F5960 
 681      FF8C0BA4 
 681      92C059F7 
 681      227BBA78 
 682 05e3 3F4F7A56 		.ascii	"?OzV\357\2566\304H-\220\341\325m\361\356,\343\273\010"
 682      EFAE36C4 
 682      482D90E1 
 682      D56DF1EE 
 682      2CE3BB08 
 683 05f7 FA60546B 		.ascii	"\372`Tk8\302\365\314\317\0172G\207\\\361yFL\210\273"
 683      38C2F5CC 
 683      CF0F3247 
 683      875CF179 
 683      464C88BB 
 684 060b F6B8E166 		.ascii	"\366\270\341fF\230\262kGt\270\205\021\365\311m\231\002"
 684      4698B26B 
 684      4774B885 
 684      11F5C96D 
 684      9902
 685 061d BE4C09D5 		.ascii	"\276L\011\325/;\012\017*\021\215\206\314\271\217\301"
 685      2F3B0A0F 
 685      2A118D86 
 685      CCB98FC1 
 686 062d B847C4B8 		.ascii	"\270G\304\270Q\260v\214;w\022\234;\001N\035\2071ew,"
 686      51B0768C 
 686      3B77129C 
 686      3B014E1D 
 686      87316577 
 687 0642 2C3EBE4E 		.ascii	",>\276N\313\026\010u\375\204s\314\024@\346\216)\223"
 687      CB160875 
 687      FD8473CC 
 687      1440E68E 
 687      2993
 688 0654 3B43AFD4 		.ascii	";C\257\324\240\221\031\321\022\277N\230\250_\307\246"
ARM GAS  C:\Users\rdn\AppData\Local\Temp\cc9mY3xa.s 			page 54


 688      A09119D1 
 688      12BF4E98 
 688      A85FC7A6 
 689 0664 F995A835 		.ascii	"\371\225\2505\273\331\324\016;\012\222D\010V]|4r\200"
 689      BBD9D40E 
 689      3B0A9244 
 689      08565D7C 
 689      347280
 690 0677 37160BE9 		.ascii	"7\026\013\351\025G\023n\354\304\270\207\271\344\360"
 690      1547136E 
 690      ECC4B887 
 690      B9E4F0
 691 0686 D09E5435 		.ascii	"\320\236T5\356e\304\371S\315\211N\370\036%\224\335\207"
 691      EE65C4F9 
 691      53CD894E 
 691      F81E2594 
 691      DD87
 692 0698 CA5B3172 		.ascii	"\312[1r\361D \025y\231\331S!c\376\177\331J\305,x\241"
 692      F1442015 
 692      7999D953 
 692      2163FE7F 
 692      D94AC52C 
 693 06ae 4801DEF6 		.ascii	"H\001\336\366P\224\340\211L\202\247\"\011\254%3Ib4i"
 693      5094E089 
 693      4C82A722 
 693      09AC2533 
 693      49623469 
 694 06c2 24E4F280 		.ascii	"$\344\362\200u\003\240 $\212\020\260d\233\366\343\225"
 694      7503A020 
 694      248A10B0 
 694      649BF6E3 
 694      95
 695 06d3 F646013F 		.ascii	"\366F\001?b\312O\224\325v\272aQM\211\230\346\353\027"
 695      62CA4F94 
 695      D576BA61 
 695      514D8998 
 695      E6EB17
 696 06e6 75D8C488 		.ascii	"u\330\304\210\3355\347\322\324\370{N\024W\337U\342\035"
 696      DD35E7D2 
 696      D4F87B4E 
 696      1457DF55 
 696      E21D
 697 06f8 8C682FE9 		.ascii	"\214h/\351\031r\307{(\341\234\322\320sXG\353\013B\312"
 697      1972C77B 
 697      28E19CD2 
 697      D0735847 
 697      EB0B42CA 
 698 070c 2ACC925A 		.ascii	"*\314\222Z\367w6\177o\0210\332.\374\206\362\022a9\017"
 698      F777367F 
 698      6F1130DA 
 698      2EFC86F2 
 698      1261390F 
 699 0720 09602BE7 		.ascii	"\011`+\347 \031\260\023V\273[X\200\266\301\210\207\261"
 699      2019B013 
 699      56BB5B58 
 699      80B6C188 
 699      87B1
ARM GAS  C:\Users\rdn\AppData\Local\Temp\cc9mY3xa.s 			page 55


 700 0732 0BC60E18 		.ascii	"\013\306\016\030q\202\264\314J\314\272\004\321\002\355"
 700      7182B4CC 
 700      4ACCBA04 
 700      D102ED
 701 0741 952C369C 		.ascii	"\225,6\234\263s\177u\310\213\014\202\230.\311\235XG"
 701      B3737F75 
 701      C88B0C82 
 701      982EC99D 
 701      5847
 702 0753 EB2441A4 		.ascii	"\353$A\244h\261\223\226$@\243\035\241\035\216\025\231"
 702      68B19396 
 702      2440A31D 
 702      A11D8E15 
 702      99
 703 0764 CC2A1240 		.ascii	"\314*\022@\3233'\335<\317\2464ff\245\322\214M5\3333"
 703      D33327DD 
 703      3CCFA634 
 703      6666A5D2 
 703      8C4D35DB 
 704 0779 F6FB193D 		.ascii	"\366\373\031=h\315\263\207e\373w\272\342,\026\231\276"
 704      68CDB387 
 704      65FB77BA 
 704      E22C1699 
 704      BE
 705 078a 9FBB8E39 		.ascii	"\237\273\2169\341\034F\214\024\225N\322\275i\202@v("
 705      E11C468C 
 705      14954ED2 
 705      BD698240 
 705      7628
 706 079c 149D583A 		.ascii	"\024\235X:5\352\212\253\031\340\204%\266\325\211\000"
 706      35EA8AAB 
 706      19E08425 
 706      B6D58900 
 707 07ac F60A747F 		.ascii	"\366\012t\177\222(\320'\344\376\313\031\2275\370\002"
 707      9228D027 
 707      E4FECB19 
 707      9735F802 
 708 07bc C50867C6 		.ascii	"\305\010g\306\237t:\315\262?I\006\266\024\201\355OR"
 708      9F743ACD 
 708      B23F4906 
 708      B61481ED 
 708      4F52
 709 07ce 2150     		.ascii	"!P"
 710 07d0 4982C3FE 		.ascii	"I\202\303\376\304\222l\302\304#\000\222z\204\344\223"
 710      C4926CC2 
 710      C4230092 
 710      7A84E493 
 711 07e0 65CB4501 		.ascii	"e\313E\001_ev\344\336J\331\246e=g)i+\331E\351\210W\016"
 711      5F6576E4 
 711      DE4AD9A6 
 711      653D6729 
 711      692BD945 
 712 07f8 860E7EE7 		.ascii	"\206\016~\347ZW\203\012\261\004\223eL\006dL:\024\000"
 712      5A57830A 
 712      B1049365 
 712      4C06644C 
 712      3A1400
ARM GAS  C:\Users\rdn\AppData\Local\Temp\cc9mY3xa.s 			page 56


 713 080b 4A034332 		.ascii	"J\003C2y\306\354\007C\262!C\016\300\330\007#K\220\366"
 713      79C6EC07 
 713      43B22143 
 713      0EC0D807 
 713      234B90F6 
 714 081f 8D36F34B 		.ascii	"\2156\363K\233\251_IC\274\206\030\233\255\261\267\313"
 714      9BA95F49 
 714      43BC8618 
 714      9BADB1B7 
 714      CB
 715 0830 820F6168 		.ascii	"\202\017ah6{\262\304\"\313\334\303\265\360\325\277."
 715      367BB2C4 
 715      22CBDCC3 
 715      B5F0D5BF 
 715      2E
 716 0841 4F14CB65 		.ascii	"O\024\313e\363\213L4i\012\277p\321\266\266\366P\022"
 716      F38B4C34 
 716      690ABF70 
 716      D1B6B6F6 
 716      5012
 717 0853 62E69B26 		.ascii	"b\346\233&\363<\342\233\314\231\262\245\305\354\311"
 717      F33CE29B 
 717      CC99B2A5 
 717      C5ECC9
 718 0862 6491B86F 		.ascii	"d\221\270o\346zm\005\"\251 pW\351\305\344\273N\262\207"
 718      E67A6D05 
 718      22A92070 
 718      57E9C5E4 
 718      BB4EB287 
 719 0876 64A62459 		.ascii	"d\246$Y\024(G\260>$\257\335o\216\323\321\335\020\314"
 719      142847B0 
 719      3E24AFDD 
 719      6F8ED3D1 
 719      DD10CC
 720 0889 A1CB6C37 		.ascii	"\241\313l7:~\363\222\313\363{\250[#\304\371J\222pv\336"
 720      3A7EF392 
 720      CBF37BA8 
 720      5B23C4F9 
 720      4A927076 
 721 089e 3CE179F8 		.ascii	"<\341y\370\315\025\224L\300\324\235\201(\374r\206h)"
 721      CD15944C 
 721      C0D49D81 
 721      28FC7286 
 721      6829
 722 08b0 0613B72F 		.ascii	"\006\023\267/ \031*\212\031\002\201\241V\373\316\242"
 722      20192A8A 
 722      190281A1 
 722      56FBCEA2 
 723 08c0 956C3815 		.ascii	"\225l8\025\250\005\234\012\257t\302\313\344\355-?\276"
 723      A8059C0A 
 723      AF74C2CB 
 723      E4ED2D3F 
 723      BE
 724 08d1 C21DF7B0 		.ascii	"\302\035\367\260x'\264wF\270\342QFt\367\247o\021\274"
 724      7827B477 
 724      46B8E251 
 724      4674F7A7 
ARM GAS  C:\Users\rdn\AppData\Local\Temp\cc9mY3xa.s 			page 57


 724      6F11BC
 725 08e4 240DEB7D 		.ascii	"$\015\353}WT \353W9]\331\335\3305\206 \212Mq\260@\205"
 725      575420EB 
 725      57395DD9 
 725      DDD83586 
 725      208A4D71 
 726 08fb BD140A21 		.ascii	"\275\024\012!\332\300\300\375G\226\323\2307\252\226"
 726      DAC0C0FD 
 726      4796D398 
 726      37AA96
 727 090a 79E390E0 		.ascii	"y\343\220\340*YQ\221\315\033\341\203\247\263\265\324"
 727      2A595191 
 727      CD1BE183 
 727      A7B3B5D4 
 728 091a 1B30C737 		.ascii	"\0330\3077\207\273\273v3\007\221mw1+\207\303\025\271"
 728      87BBBB76 
 728      3307916D 
 728      77312B87 
 728      C315B9
 729 092d DD4A2C3A 		.ascii	"\335J,:Qk\357\244\245\244\320\027\221R\201\276cPI\221"
 729      516BEFA4 
 729      A5A4D017 
 729      915281BE 
 729      63504991 
 730 0941 9367C0E2 		.ascii	"\223g\300\342-\014Q\031q\265\203\2765\226\013\364\005"
 730      2D0C5119 
 730      71B583BE 
 730      35960BF4 
 730      05
 731 0952 A38C4989 		.ascii	"\243\214I\211\034l\231\322\342=\014\263w8\306D_B*\004"
 731      1C6C99D2 
 731      E23D0CB3 
 731      7738C644 
 731      5F422A04 
 732 0966 F6827198 		.ascii	"\366\202q\230\201~\031{<\351\2063\031h\362|M\001}1\372"
 732      817E197B 
 732      3CE98633 
 732      1968F27C 
 732      4D017D31 
 733 097b 81962F3A 		.ascii	"\201\226/:\3020\023'\353#\335p>\303\034k,\240\326T\261"
 733      C2301327 
 733      EB23DD70 
 733      3EC31C6B 
 733      2CA0D654 
 734 0990 02AE6490 		.ascii	"\002\256d\220\254\035\207\314Z\\A!BR\252y\277\313,\005"
 734      AC1D87CC 
 734      5A5C4121 
 734      4252AA79 
 734      BFCB2C05 
 735 09a4 7C14D88E 		.ascii	"|\024\330\216\361\002>\016\236\254v,\340\256\222\326"
 735      F1023E0E 
 735      9EAC762C 
 735      E0AE92D6 
 736 09b4 774CE405 		.ascii	"wL\344\005\343\330\264\012\216(N\217w\246\276\"\022"
 736      E3D8B40A 
 736      8E284E8F 
 736      77A6BE22 
ARM GAS  C:\Users\rdn\AppData\Local\Temp\cc9mY3xa.s 			page 58


 736      12
 737 09c5 4A98E613 		.ascii	"J\230\346\023]\225\007\334\245\331D\336#\355\316\267"
 737      5D9507DC 
 737      A5D944DE 
 737      23EDCEB7 
 738 09d5 D0743A61 		.ascii	"\320t:aM\247K\315g\252u,\235\272\306\306>\254\335o\212"
 738      4DA74BCD 
 738      67AA752C 
 738      9DBAC6C6 
 738      3EACDD6F 
 739 09ea 8E83D799 		.ascii	"\216\203\327\231\257\325\004\210\362\005[B\345\013\222"
 739      AFD50488 
 739      F2055B42 
 739      E50B92
 740 09f9 84FA9126 		.ascii	"\204\372\221&\324P\373q\213\012\26737XN\266\034q\267"
 740      D450FB71 
 740      8B0AB733 
 740      37584EB6 
 740      1C71B7
 741 0a0c C58D85F2 		.ascii	"\305\215\205\362\207\235G\357\313\022{\2254\261ORKj"
 741      879D47EF 
 741      CB127B95 
 741      34B14F52 
 741      4B6A
 742 0a1e AD96943D 		.ascii	"\255\226\224=H\277\241\006K\032!\261\307\352\204\275"
 742      48BFA106 
 742      4B1A21B1 
 742      C7EA84BD 
 743 0a2e 1924B145 		.ascii	"\031$\261EL`\250\306nG\215\324\216S\324\216\210\013"
 743      4C60A8C6 
 743      6E478DD4 
 743      8E53D48E 
 743      880B
 744 0a40 C51667FC 		.ascii	"\305\026g\374\230\331\361\253)U\307\334$\367]\375o\362"
 744      98D9F1AB 
 744      2955C7DC 
 744      24F75DFD 
 744      6FF2
 745 0a52 DD196A71 		.ascii	"\335\031jq\203\325\342S?\016\027\021\2133\300\342\207"
 745      83D5E253 
 745      3F0E1711 
 745      8B33C0E2 
 745      87
 746 0a63 C58895E2 		.ascii	"\305\210\225\342\346E\004\206N\333->-\265\370,\265\370"
 746      E6450486 
 746      4EDB2D3E 
 746      2DB5F82C 
 746      B5F8
 747 0a75 7873D519 		.ascii	"xs\325\031\035\216p\376?z\356\002\265\343\274\325\216"
 747      1D8E70FE 
 747      3F7AEE02 
 747      B5E3BCD5 
 747      8E
 748 0a86 842783ED 		.ascii	"\204'\203\355N`\307 \367\034\263C 0t\316n\3079\251\035"
 748      4E60C720 
 748      F71CB343 
 748      203074CE 
ARM GAS  C:\Users\rdn\AppData\Local\Temp\cc9mY3xa.s 			page 59


 748      6EC739A9 
 749 0a9b 17A91D0F 		.ascii	"\027\251\035\017\316\377\\\357\212\023\230\035\271\247"
 749      CEFF5CEF 
 749      8A13981D 
 749      B9A7
 750 0aa9 0B9295D4 		.ascii	"\013\222\225\324\016\213\315\216\372\374\226\223Z\233"
 750      0E8BCD8E 
 750      FAFC9693 
 750      5A9B
 751 0ab7 6D4DCC4B 		.ascii	"mM\314K\245Uf\027\234K\231\204\352\212\275\341\356\310"
 751      A5556617 
 751      9C4B9984 
 751      EA8ABDE1 
 751      EEC8
 752 0ac9 6B2E4BD5 		.ascii	"k.K\325\312\376ui&\362\236\323\002\355\257\331\256\232"
 752      CAFE7569 
 752      26F29ED3 
 752      02EDAFD9 
 752      AE9A
 753 0adb 345887AD 		.ascii	"4X\207\255\206\355\301q\011\222\376\327\036\034d\303"
 753      86EDC171 
 753      0992FED7 
 753      1E1C64C3 
 754 0aeb 33D25F87 		.ascii	"3\322_\207eM\245E\326b[mMe\252n_#\2426\303\034\372\211"
 754      654DA545 
 754      D6625B6D 
 754      4D65AA6E 
 754      5F23A236 
 755 0b03 D97C6A24 		.ascii	"\331|j$\257Q'u\350\227\317J\230\257P\207^\266:\264y"
 755      AF512775 
 755      E897CF4A 
 755      98AF5087 
 755      5EB63AB4 
 756 0b18 F251B4C0 		.ascii	"\362Q\264\300\002\013E\261.\267\300$\222\242XF\201\250"
 756      020B45B1 
 756      2EB7C024 
 756      92A25846 
 756      81A8
 757 0b2a D1BEAE46 		.ascii	"\321\276\256F\251K\333\250K\233c.\034B\270\214\271\264"
 757      A94BDBA8 
 757      4B9B632E 
 757      1C42B88C 
 757      B9B4
 758 0b3c 33B3BD49 		.ascii	"3\263\275In\264<\241:lF\367\024]\315eFw\330\322\366"
 758      6EB43CA1 
 758      3A6C46F7 
 758      145DCD65 
 758      4677D8D2 
 759 0b51 614AE213 		.ascii	"aJ\342\023\273\363\257\262\205\214_\177\334.\330Vw\215"
 759      BBF3AFB2 
 759      858C5F7F 
 759      DC2ED856 
 759      778D
 760 0b63 4D96F725 		.ascii	"M\226\367%U\314\236.\235tu?[Ww\343bM\013\346i\333t\206"
 760      55CC9E2E 
 760      9D74753F 
 760      5B5777E3 
ARM GAS  C:\Users\rdn\AppData\Local\Temp\cc9mY3xa.s 			page 60


 760      624D0BE6 
 761 0b7b A70BC40C 		.ascii	"\247\013\304\014`\250\335\276\266v\351\332\272\350\332"
 761      60A8DDBE 
 761      B676E9DA 
 761      BAE8DA
 762 0b8a 529FD49B 		.ascii	"R\237\324\2334\370$[\333T\357\226Kn \246\213\306\375"
 762      34F8245B 
 762      DB54EF96 
 762      4B6E20A6 
 762      8BC6FD
 763 0b9d C3CAF26E 		.ascii	"\303\312\362n1\332\203>\256\320u\273\224\353\3741\202"
 763      31DA833E 
 763      AED075BB 
 763      94EBFC31 
 763      82
 764 0bae 6E5009AD 		.ascii	"nP\011\255\371Y\035\256\270\315y\266/\003\327sz\302"
 764      F9591DAE 
 764      B8CD79B6 
 764      2F03D773 
 764      7AC2
 765 0bc0 E80C3C02 		.ascii	"\350\014<\002\273\331\332,\315\343Y*\333\202{\330\344"
 765      BBD9DA2C 
 765      CDE3592A 
 765      DB827BD8 
 765      E4
 766 0bd1 EEB4AC31 		.ascii	"\356\264\2541a\326p\336\246\013\276e]pS\343p\221;\263"
 766      61D670DE 
 766      A60BBE65 
 766      5D7053E3 
 766      70913BB3 
 767 0be5 D452B20D 		.ascii	"\324R\262\015\357\025k\224\004\202n\332\315\274i5\263"
 767      EF156B94 
 767      04826EDA 
 767      CDBC6935 
 767      B3
 768 0bf6 979A997E 		.ascii	"\227\232\231~\346\236\305\015\337cf\026\224[b5x\202"
 768      E69EC50D 
 768      DF636616 
 768      945B6235 
 768      7882
 769 0c08 11350F8A 		.ascii	"\0215\017\212s\370>\011\366E\350\376pV\2143y\233\026"
 769      73F83E09 
 769      F645E8FE 
 769      70568C33 
 769      799B16
 770 0c1b AD01F690 		.ascii	"\255\001\366\220z\376\256\000\357\367\260W@\375\002"
 770      7AFEAE00 
 770      EFF7B057 
 770      40FD02
 771 0c2a 7D99B67E 		.ascii	"}\231\266~\223\364`\337$\255\2376\346\261O\033\221\375"
 771      93F460DF 
 771      24AD9F36 
 771      E6B14F1B 
 771      91FD
 772 0c3c D75EC266 		.ascii	"\327^\302f\027\252\347Hi\371Yg\034\313\210\003\027F"
 772      17AAE748 
 772      69F95967 
ARM GAS  C:\Users\rdn\AppData\Local\Temp\cc9mY3xa.s 			page 61


 772      1CCB8803 
 772      1746
 773 0c4e 5FC35BE9 		.ascii	"_\303[\351\265\312ra[\263\016vb\260\321\217\347ji=\331"
 773      B5CA7261 
 773      5BB30E76 
 773      62B0D18F 
 773      E76A693D 
 774 0c63 1EC743B0 		.ascii	"\036\307C\260\252\007P\032\320i`\007\347\205~\201:z"
 774      AA07501A 
 774      D0696007 
 774      E7857E81 
 774      3A7A
 775 0c75 2CDD8041 		.ascii	",\335\200AJo\254\2150\211\341j\364G\215\202b\357A1\016"
 775      4A6FAC8D 
 775      3089E16A 
 775      F4478D82 
 775      62EF4131 
 776 0c8a 08D35FC4 		.ascii	"\010\323_\304\340\230C\021\264qI\267Gb\362\177\212\265"
 776      E0984311 
 776      B47149B7 
 776      4762F27F 
 776      8AB5
 777 0c9c 6AF49C06 		.ascii	"j\364\234\006\335\347\372l[2\022\315\207\240\364M\373"
 777      DDE7FA6C 
 777      5B3212CD 
 777      87A0F44D 
 777      FB
 778 0cad 06FEA10F 		.ascii	"\006\376\241\017\007\017\316\006\266n\245\333\006\277"
 778      070FCE06 
 778      B66EA5DB 
 778      06BF
 779 0cbb EF75F688 		.ascii	"\357u\366\210\343\235bY(E[7\207\0124,xX\335J\243q\262"
 779      E39D6259 
 779      28455B37 
 779      870A342C 
 779      7858DD4A 
 780 0cd2 3E4F3D97 		.ascii	">O=\227\373\3012\253\037\0242'\000_\177\323\211\223"
 780      FBC132AB 
 780      1F143227 
 780      005F7FD3 
 780      8993
 781 0ce4 1AA99627 		.ascii	"\032\251\226'O\323r9o\240\321]V\305#\202\207$\312\243"
 781      4FD37239 
 781      6FA0D15D 
 781      56C52382 
 781      8724CAA3 
 782 0cf8 B62A4E8F 		.ascii	"\266*N\217O*\027\244r\341\226D\356\230\\nf\337\301\011"
 782      4F2A17A4 
 782      72E19644 
 782      EE985C6E 
 782      66DFC109 
 783 0d0c FC4AB668 		.ascii	"\374J\266h\201\307o\274\351\025\262\333\234O0\350\016"
 783      81C76FBC 
 783      E915B2DB 
 783      9C4F30E8 
 783      0E
 784 0d1d 984EC267 		.ascii	"\230N\302g\347\354\203\231\325\260\311\030\027^!\015"
ARM GAS  C:\Users\rdn\AppData\Local\Temp\cc9mY3xa.s 			page 62


 784      E7EC8399 
 784      D5B0C918 
 784      175E210D 
 785 0d2d 7F4B3B34 		.ascii	"\177K;4\363]<S\356\345\037\321\261\234\262\320\247\301"
 785      F35D3C53 
 785      EEE51FD1 
 785      B19CB2D0 
 785      A7C1
 786 0d3f C0C80BFC 		.ascii	"\300\310\013\374\373\030\371\270\226\021\333\325\210"
 786      FB18F9B8 
 786      9611DBD5 
 786      88
 787 0d4c 7026C30E 		.ascii	"p&\303\016\377t9Y\346]\360\276]\311f,3ogC\342\015w)"
 787      FF743959 
 787      E65DF0BE 
 787      5DC9662C 
 787      336F6743 
 788 0d64 18EEA329 		.ascii	"\030\356\243)\310\224I\201\240\303\345\350\250\255\205"
 788      C8944981 
 788      A0C3E5E8 
 788      A8AD85
 789 0d73 091AF6B9 		.ascii	"\011\032\366\271\235|-$\377]\350\036\034\255P\262)\""
 789      9D7C2D24 
 789      FF5DE81E 
 789      1CAD50B2 
 789      2922
 790 0d85 E45BD210 		.ascii	"\344[\322\020\023j,\002\316c\326T\344\246\365!\351\266"
 790      136A2C02 
 790      CE63D654 
 790      E4A6F521 
 790      E9B6
 791 0d97 13805158 		.ascii	"\023\200QX\272\355\234\352Hju\261\226\227\303\266\323"
 791      BAED9CEA 
 791      486A75B1 
 791      9697C3B6 
 791      D3
 792 0da8 84BD0803 		.ascii	"\204\275\010\003\375^\025\211=Q\004f%\226\032Q\241\224"
 792      FD5E1589 
 792      3D510466 
 792      25961A51 
 792      A194
 793 0dba 5A6DC64F 		.ascii	"Zm\306OYc\332\223'&\231C\242\237\266\306\216\246\315"
 793      5963DA93 
 793      27269943 
 793      A29FB6C6 
 793      8EA6CD
 794 0dcd 7748C01A 		.ascii	"wH\300\032!`\351\246\347X\300b\200C\304,`v\316\011\036"
 794      2160E9A6 
 794      E758C062 
 794      8043C42C 
 794      6076CE09 
 795 0de2 B0584C02 		.ascii	"\260XL\00264\330\347\376b2\3756\340\244\340\205%\326"
 795      3634D8E7 
 795      FE6232FD 
 795      36E0A4E0 
 795      8525D6
 796 0df5 23D8364B 		.ascii	"#\3306K{\312<\326S\236\016\266\266\220y\254\205\\9u"
ARM GAS  C:\Users\rdn\AppData\Local\Temp\cc9mY3xa.s 			page 63


 796      7BCA3CD6 
 796      539E0EB6 
 796      B69079AC 
 796      855C3975 
 797 0e09 68AB8AA3 		.ascii	"h\253\212\243\235\031\272\253\260\266\316\212\256m\037"
 797      9D19BAAB 
 797      B0B6CE8A 
 797      AE6D1F
 798 0e18 1EB20A53 		.ascii	"\036\262\012S\261\333\226\253\023\343\326\333\323\362"
 798      B1DB96AB 
 798      13E3D6DB 
 798      D3F2
 799 0e26 01F6F176 		.ascii	"\001\366\361v_\305\313W_.\026]WK\301dW?+\2724\371\361"
 799      5FC5CB57 
 799      5F2E165D 
 799      574BC164 
 799      573F2BBA 
 800 0e3d 76616985 		.ascii	"vai\205\030\235!.C;\300G\013=Q\034~\021-\362D\333\341"
 800      189D212E 
 800      433BC047 
 800      0B3D511C 
 800      7E112DF2 
 801 0e54 B40D22B6 		.ascii	"\264\015\"\266\025\316\337\303y\013~\221pl\275\225\320"
 801      15CEDFC3 
 801      790B7E91 
 801      706CBD95 
 801      D0
 802 0e65 E28E0B59 		.ascii	"\342\216\013Yn\224\335\357\351\322\202\253A\223\345"
 802      6E94DDEF 
 802      E9D282AB 
 802      4193E5
 803 0e74 98F98FCC 		.ascii	"\230\371\217\314\325 F!/\014\246\353f\177\341Ng\026"
 803      D5204621 
 803      2F0CA6EB 
 803      667FE14E 
 803      6716
 804 0e86 97623176 		.ascii	"\227b1v\316.q\016\325\270\013r\311\376b\271\033\277"
 804      CE2E710E 
 804      D5B80B72 
 804      C9FE62B9 
 804      1BBF
 805 0e98 4266D04E 		.ascii	"Bf\320N\274T\201\366\320\260$\364G\337\325\3412\246"
 805      BC5481F6 
 805      D0B024F4 
 805      47DFD5E1 
 805      32A6
 806 0eaa B1AD3FB3 		.ascii	"\261\255?\263J\203O3\242\340\301\325[n\322\265BK\220"
 806      4A834F33 
 806      A2E0C1D5 
 806      5B6ED2B5 
 806      424B90
 807 0ebd 4477AF43 		.ascii	"Dw\257C^\354(\316\225\241G\236\206\256\037\032\311u"
 807      5EEC28CE 
 807      95A1479E 
 807      86AE1F1A 
 807      C975
 808 0ecf E259B43B 		.ascii	"\342Y\264;S`KK\002{\023\247eQ\002fY\224L\315\235\252"
ARM GAS  C:\Users\rdn\AppData\Local\Temp\cc9mY3xa.s 			page 64


 808      53604B4B 
 808      027B13A7 
 808      65510266 
 808      59944CCD 
 809 0ee5 993C2BE0 		.ascii	"\231<+\340K\314\302\201+\355\273U\370\026#\352\256\306"
 809      4BCCC281 
 809      2BEDBB55 
 809      F81623EA 
 809      AEC6
 810 0ef7 9D12B8C8 		.ascii	"\235\022\270\310R\225\030\263\214\312K\235&/\205\313"
 810      529518B3 
 810      8CCA4B9D 
 810      262F85CB 
 811 0f07 4BA3F2CC 		.ascii	"K\243\362\314C\3415N\370!\177\306\344N$j\261\211\375"
 811      43E1354E 
 811      F8217FC6 
 811      E44E246A 
 811      B189FD
 812 0f1a 9BD07CBC 		.ascii	"\233\320|\274\347\035.\356\222M\\\3064q\351\\\\&\025"
 812      E71D2EEE 
 812      924D5CC6 
 812      3471E95C 
 812      5C2615
 813 0f2d 7720A1F6 		.ascii	"w \241\366\260\006\357b\022jz\372\363\335q\016#\012"
 813      B006EF62 
 813      126A7AFA 
 813      F3DD710E 
 813      230A
 814 0f3f A36FA758 		.ascii	"\243o\247X\353\346\201M^\3664yY\\\336>*/\272d\360g\371"
 814      EBE6814D 
 814      5EF63479 
 814      595CDE3E 
 814      2A2FBA64 
 815 0f56 6BA4F453 		.ascii	"k\244\364S\237\002\355\307\264\355\2223\331L\304\237"
 815      9F02EDC7 
 815      B4ED9233 
 815      D94CC49F 
 816 0f66 2B7293A1 		.ascii	"+r\223\241\311N\304\216>\300\321\007(\372\361\331=q"
 816      C94EC48E 
 816      3EC0D107 
 816      28FAF1D9 
 816      3D71
 817 0f78 4A19FA89 		.ascii	"J\031\372\211\374\205\235\243s(\372fkV\264Jn\211\354"
 817      FC859DA3 
 817      7328FA66 
 817      6B56B44A 
 817      6E89EC
 818 0f8b 0190CBD1 		.ascii	"\001\220\313\321\271\024}0\273+\215\374\377\002\036"
 818      B9147D30 
 818      BB2B8DFC 
 818      FF021E
 819 0f9a 7753F4A5 		.ascii	"wS\364\245\242\271"
 819      A2B9
 820 0fa0 2B45C368 		.ascii	"+E\303h\361\177H\035\335\313y\026\037f\236)\310\372"
 820      F17F481D 
 820      DDCB7916 
 820      1F669E29 
ARM GAS  C:\Users\rdn\AppData\Local\Temp\cc9mY3xa.s 			page 65


 820      C8FA
 821 0fb2 69C845DA 		.ascii	"i\310E\332\002\001\224/k\201\247\266X\032\334X\013\224"
 821      0201942F 
 821      6B81A7B6 
 821      581ADC58 
 821      0B94
 822 0fc4 7FAF2F80 		.ascii	"\177\257/\200\376\367\034\357\177\007\241\212\3620y"
 822      FEF71CEF 
 822      7F07A18A 
 822      F23079
 823 0fd3 17C71AE0 		.ascii	"\027\307\032\340\271\267-n\273\374\233=iRv{\017q{\017"
 823      B9B72D6E 
 823      BBFC9B3D 
 823      6952767B 
 823      0F717B0F 
 824 0fe7 517B23FB 		.ascii	"Q{#\373\353v\312\375\274C\206.\342\350\"\346\271\334"
 824      EB76CAFD 
 824      BC43862E 
 824      E2E822E6 
 824      B9DC
 825 0ff9 6BCDF22D 		.ascii	"k\315\362-m\222\014"
 825      6D920C
 826 1000 5DCCD1C5 		.ascii	"]\314\321\305\024\035;\031}I\356g\213,*%\034]B\321\233"
 826      141D3B19 
 826      7D49EE67 
 826      8B2C2A25 
 826      1C5D42D1 
 827 1015 4FA47AC8 		.ascii	"O\244z\310\300'e\340R\016.\245\340[q\311Q\362\247\362"
 827      C02765E0 
 827      520E2EA5 
 827      E05B71C9 
 827      51F2A7F2 
 828 1029 6D19BA8C 		.ascii	"m\031\272\214\243\313(\372JCt\274\022\377\250\371-\033"
 828      A3CB28FA 
 828      4A4374BC 
 828      12FFA8F9 
 828      2D1B
 829 103b CFC3984E 		.ascii	"\317\303\230Ne\337.\370\334\366\245\246\202\315\035"
 829      65DF2EF8 
 829      DCF6A5A6 
 829      82CD1D
 830 104a 3B78A6DD 		.ascii	";x\246\335u\326}\347\017\230\354;\217`\276\357,\256"
 830      75D67DE7 
 830      0F98EC3B 
 830      8F60BEEF 
 830      2CAE
 831 105c C9AF75E1 		.ascii	"\311\257u\341\357\326\225\375\253\252\351?<D1\022)\011"
 831      EFD695FD 
 831      ABAAE93F 
 831      3C443112 
 831      2909
 832 106e 129563DB 		.ascii	"\022\225c\333\366\263\034K\366\332\225\370e\3053\237"
 832      F6B31C4B 
 832      F6DA95F8 
 832      65C5339F 
 833 107e BCFFA6FE 		.ascii	"\274\377\246\376\323/V\350\337{\367\323\345_}\264|\365"
 833      D32F56E8 
ARM GAS  C:\Users\rdn\AppData\Local\Temp\cc9mY3xa.s 			page 66


 833      DF7BF7D3 
 833      E55F7DB4 
 833      7CF5
 834 1090 8773C98C 		.ascii	"\207s\311\214\215\322\177\361\236\376\303\317\034\346"
 834      8DD27FF1 
 834      9EFEC3CF 
 834      1CE6
 835 109e FE42E6E6 		.ascii	"\376B\346\3468\316=#\237\370\374\253\367<\034f`\312"
 835      38CE3D23 
 835      9FF8FCAB 
 835      F73C1C66 
 835      60CA
 836 10b0 816BDAC4 		.ascii	"\201k\332\304\247\3579\377\333\247_\314\177\177\341"
 836      A7EF39FF 
 836      DBA75FCC 
 836      7F7FE1
 837 10bf 42856EBD 		.ascii	"B\205n\275\377\233z?\337\240\200M\201\001\241\353^\364"
 837      FF9B7A3F 
 837      DFA0804D 
 837      8101A1EB 
 837      5EF4
 838 10d1 F6F6617F 		.ascii	"\366\366a\177\353\003\375\340\216O\210\321\337\307?"
 838      EB03FDE0 
 838      8E4F88D1 
 838      DFC73F
 839 10e0 78C386E0 		.ascii	"x\303\206\340 \357u\012\235u\031\237\177\366\356\352"
 839      20EF750A 
 839      9D75199F 
 839      7FF6EEEA 
 840 10f0 0FA84C7A 		.ascii	"\017\250Lz\245\377\363[\037[me\023\213\227\222\011\235"
 840      A5FFF35B 
 840      1F5B6D65 
 840      138B9792 
 840      099D
 841 1102 6C4242BD 		.ascii	"lBB\275\271HJ-Z,\245\026\276\365\261\326N-\375\330\205"
 841      B9484A2D 
 841      5A2CA516 
 841      BEF5B1D6 
 841      4E2DFDD8 
 842 1117 181862F4 		.ascii	"\030\030b\364\0155\374\301fU`\220\377\372\260\000\303"
 842      0D35FCC1 
 842      66556090 
 842      FFFAB000 
 842      C3
 843 1128 EBE4D646 		.ascii	"\353\344\326Fc\3407p\023\314\323\022r\255!T\357\027"
 843      63E03770 
 843      13CCD312 
 843      72AD2154 
 843      EF17
 844 113a 181AA2F6 		.ascii	"\030\032\242\366\013[\263\306`Tn\324\373mr\321\353\303"
 844      0B5BB3C6 
 844      60546ED4 
 844      FB6D72D1 
 844      EBC3
 845 114c 02834297 		.ascii	"\002\203B\227\352C7#\377\177\361\331h\014^k\364\335"
 845      EA433723 
 845      FF7FF1D9 
ARM GAS  C:\Users\rdn\AppData\Local\Temp\cc9mY3xa.s 			page 67


 845      680C5E6B 
 845      F4DD
 846 115e 307F4DE0 		.ascii	"0\177M\340zC\310|\257o\227\276\365'\037\377\3576\032"
 846      7A43C87C 
 846      AF6F97BE 
 846      F5271FFF 
 846      EF361A
 847 1171 0D21213E 		.ascii	"\015!!>\033C\202\375\347\373\033\015\276\241\301F\237"
 847      1B4382FD 
 847      E7FB1B0D 
 847      BEA1C146 
 847      9F
 848 1182 C5DE8BE5 		.ascii	"\305\336\213\345\023\201\0336\006\033C}\326\006\205"
 848      13811B36 
 848      061B437D 
 848      D60685
 849 1191 F9F81A37 		.ascii	"\371\370\0327\370,\361^\354\275\220\\\275\026\024\034"
 849      F82CF15E 
 849      ECBD905C 
 849      BD16141C 
 850 11a1 6478CDE0 		.ascii	"dx\315\340\353\027h5\315g\203\257\377\272\300 \203\217"
 850      EB176835 
 850      CD6783AF 
 850      FFBAC020 
 850      838F
 851 11b3 3EC0B0C6 		.ascii	">\300\260\3067l}\250>\364\273\215\206\020\260\322\211"
 851      376C7DA8 
 851      3EF4BB8D 
 851      8610B0D2 
 851      89
 852 11c4 9BF2CDFF 		.ascii	"\233\362\315\377\227%!\337\205\370\350CB\003@-\250\007"
 852      972521DF 
 852      85F8E843 
 852      4203402D 
 852      A807
 853 11d6 87ACD984 		.ascii	"\207\254\331\204\015A\001\252\220P_c\250;\015?\370K"
 853      0D4101AA 
 853      90505F63 
 853      A83B0D3F 
 853      F84B
 854 11e8 CFFCF5F7 		.ascii	"\317\374\365\3673%\000\271OX}\375\375\303TA\301\337"
 854      332500B9 
 854      4F587DFD 
 854      FDC35441 
 854      C1DF
 855 11fa 188C2808 		.ascii	"\030\214(\010}\243\263\261\222y\301\327_e0\032\203\215"
 855      7DA3B3B1 
 855      9279C1D7 
 855      5F65301A 
 855      838D
 856 120c 2AFD7BC1 		.ascii	"*\375{\301\301\353]\375}\215\306\357\364\376\301aA\241"
 856      C1EB5DFD 
 856      7D8DC6EF 
 856      F4FEC161 
 856      41A1
 857 121e 2A7A0DBF 		.ascii	"*z\015\277\376\353\014*\243o\320Z\003^\037\274\311U"
 857      FEEB0C2A 
ARM GAS  C:\Users\rdn\AppData\Local\Temp\cc9mY3xa.s 			page 68


 857      A36FD05A 
 857      035E1FBC 
 857      C955
 858 1230 C2AEDC10 		.ascii	"\302\256\334\020\034``\351\377\321\352\317\365+V.\377"
 858      1C6060E9 
 858      FFD1EACF 
 858      F52B562E 
 858      FF
 859 1241 40FFD567 		.ascii	"@\377\325g\037\255\376\300C>\367\331\007\357.\267\253"
 859      1FADFEC0 
 859      433EF7D9 
 859      07EF2EB7 
 859      AB
 860 1252 254CCE56 		.ascii	"%L\316Vj\036\275\330\024\000\3417\206\005yo\204\265"
 860      6A1EBDD8 
 860      1400E137 
 860      8605796F 
 860      84B5
 861 1264 79BFA15A 		.ascii	"y\277\241Z\263>\3307TcM\333\345\253\351\345\362\325"
 861      B33ED837 
 861      54634DDB 
 861      E5ABE9E5 
 861      F2D5
 862 1276 FA856FAC 		.ascii	"\372\205o\254\260^\276\275b\211\013\277\\b\233\\\264"
 862      B05EBEBD 
 862      62890BBF 
 862      5C629B5C 
 862      B4
 863 1287 62899A08 		.ascii	"b\211\232\010\014\010\365\234\321!D\217\267\277\342"
 863      0C08F59C 
 863      D121448F 
 863      B7BFE2
 864 1296 05BB5292 		.ascii	"\005\273R\222wA\324QT\365B\235\314\236\2713\000\347"
 864      7741D451 
 864      54F5429D 
 864      CC9EB933 
 864      00E7
 865 12a8 D8E73686 		.ascii	"\330\3476\206A\322n\322\330V\026:G\216\367\3334O\232"
 865      41D26ED2 
 865      D856163A 
 865      478EF7DB 
 865      344F9A
 866 12bb DB701164 		.ascii	"\333p\021d0\006\372\323I\312+\231t\363\333\004\002|"
 866      3006FAD3 
 866      49CA2B99 
 866      74F3DB04 
 866      027C
 867 12cd FDD61BBC 		.ascii	"\375\326\033\274\227,^\262\324\305F\012\201\360\027"
 867      972C5EB2 
 867      D4C5460A 
 867      81F017
 868 12dc A2361AD6 		.ascii	"\2426\032\326\006\006\007i\327\3331\177v\342\004\206"
 868      06060769 
 868      D7DB317F 
 868      76E20486 
 869 12ec 1451BDEA 		.ascii	"\024Q\275\352\375\311\373ox\330\270\364\2136,!\240\305"
 869      FDC9FB6F 
ARM GAS  C:\Users\rdn\AppData\Local\Temp\cc9mY3xa.s 			page 69


 869      78D8B8F4 
 869      8B362C21 
 869      A0C5
 870 12fe 3AD9D433 		.ascii	":\331\3243vj\311\006r\177\211V:#\341\177\233\361\277"
 870      766AC906 
 870      727F8956 
 870      3A23E17F 
 870      9BF1BF
 871 1311 A5934D49 		.ascii	"\245\223MI\000\013\337\240\002\336\326\311\246\\C\002"
 871      000BDFA0 
 871      02DED6C9 
 871      A65C4302 
 872 1321 D7061902 		.ascii	"\327\006\031\002\346\373\257\3635j\245\353\374_J\343"
 872      E6FBAFF3 
 872      356AA5EB 
 872      FC5F4AE3 
 873 1331 7A54     		.ascii	"zT"
 874              		.text
 875              		.section	.gnu.lto_.symtab.d618b52e,"",%progbits
 876 0000 6C63335F 		.ascii	"lc3_bwdet_run\000"
 876      62776465 
 876      745F7275 
 876      6E00
 877 000e 00       		.ascii	"\000"
 878 000f 00       		.ascii	"\000"
 879 0010 00       		.ascii	"\000"
 880 0011 00000000 		.ascii	"\000\000\000\000\000\000\000\000"
 880      00000000 
 881 0019 4B010000 		.ascii	"K\001\000\000"
 882 001d 6C63335F 		.ascii	"lc3_bwdet_get_nbits\000"
 882      62776465 
 882      745F6765 
 882      745F6E62 
 882      69747300 
 883 0031 00       		.ascii	"\000"
 884 0032 00       		.ascii	"\000"
 885 0033 00       		.ascii	"\000"
 886 0034 00000000 		.ascii	"\000\000\000\000\000\000\000\000"
 886      00000000 
 887 003c 4F010000 		.ascii	"O\001\000\000"
 888 0040 6C63335F 		.ascii	"lc3_bwdet_put_bw\000"
 888      62776465 
 888      745F7075 
 888      745F6277 
 888      00
 889 0051 00       		.ascii	"\000"
 890 0052 00       		.ascii	"\000"
 891 0053 00       		.ascii	"\000"
 892 0054 00000000 		.ascii	"\000\000\000\000\000\000\000\000"
 892      00000000 
 893 005c 59010000 		.ascii	"Y\001\000\000"
 894 0060 6C63335F 		.ascii	"lc3_bwdet_get_bw\000"
 894      62776465 
 894      745F6765 
 894      745F6277 
 894      00
 895 0071 00       		.ascii	"\000"
ARM GAS  C:\Users\rdn\AppData\Local\Temp\cc9mY3xa.s 			page 70


 896 0072 00       		.ascii	"\000"
 897 0073 00       		.ascii	"\000"
 898 0074 00000000 		.ascii	"\000\000\000\000\000\000\000\000"
 898      00000000 
 899 007c 60010000 		.ascii	"`\001\000\000"
 900 0080 6C63335F 		.ascii	"lc3_get_bits_generic\000"
 900      6765745F 
 900      62697473 
 900      5F67656E 
 900      65726963 
 901 0095 00       		.ascii	"\000"
 902 0096 02       		.ascii	"\002"
 903 0097 00       		.ascii	"\000"
 904 0098 00000000 		.ascii	"\000\000\000\000\000\000\000\000"
 904      00000000 
 905 00a0 62010000 		.ascii	"b\001\000\000"
 906 00a4 6C63335F 		.ascii	"lc3_put_bits_generic\000"
 906      7075745F 
 906      62697473 
 906      5F67656E 
 906      65726963 
 907 00b9 00       		.ascii	"\000"
 908 00ba 02       		.ascii	"\002"
 909 00bb 00       		.ascii	"\000"
 910 00bc 00000000 		.ascii	"\000\000\000\000\000\000\000\000"
 910      00000000 
 911 00c4 68010000 		.ascii	"h\001\000\000"
 912              		.text
 913              		.section	.gnu.lto_.opts,"",%progbits
 914 0000 272D666D 		.ascii	"'-fmath-errno' '-fsigned-zeros' '-ftrapping-math' '"
 914      6174682D 
 914      6572726E 
 914      6F272027 
 914      2D667369 
 915 0033 2D666E6F 		.ascii	"-fno-trapv' '-fno-openmp' '-fno-openacc' '-mcpu=cor"
 915      2D747261 
 915      70762720 
 915      272D666E 
 915      6F2D6F70 
 916 0066 7465782D 		.ascii	"tex-m4' '-mfloat-abi=softfp' '-mfpu=fpv4-sp-d16' '-"
 916      6D342720 
 916      272D6D66 
 916      6C6F6174 
 916      2D616269 
 917 0099 6D746875 		.ascii	"mthumb' '-g' '-O3' '-ffunction-sections' '-ffat-lto"
 917      6D622720 
 917      272D6727 
 917      20272D4F 
 917      33272027 
 918 00cc 2D6F626A 		.ascii	"-objects' '-finline-functions' '-flto'\000"
 918      65637473 
 918      2720272D 
 918      66696E6C 
 918      696E652D 
 919              		.text
 920              		.cfi_sections	.debug_frame
 921              		.section	.text.lc3_bwdet_run,"ax",%progbits
ARM GAS  C:\Users\rdn\AppData\Local\Temp\cc9mY3xa.s 			page 71


 922              		.align	2
 923              		.global	lc3_bwdet_run
 924              		.thumb
 925              		.thumb_func
 926              		.type	lc3_bwdet_run, %function
 927              	lc3_bwdet_run:
 928              	.LFB13:
 929              		.file 1 "..\\..\\..\\liblc3\\src\\bwdet.c"
   1:..\..\..\liblc3\src/bwdet.c **** /******************************************************************************
   2:..\..\..\liblc3\src/bwdet.c ****  *
   3:..\..\..\liblc3\src/bwdet.c ****  *  Copyright 2022 Google LLC
   4:..\..\..\liblc3\src/bwdet.c ****  *
   5:..\..\..\liblc3\src/bwdet.c ****  *  Licensed under the Apache License, Version 2.0 (the "License");
   6:..\..\..\liblc3\src/bwdet.c ****  *  you may not use this file except in compliance with the License.
   7:..\..\..\liblc3\src/bwdet.c ****  *  You may obtain a copy of the License at:
   8:..\..\..\liblc3\src/bwdet.c ****  *
   9:..\..\..\liblc3\src/bwdet.c ****  *  http://www.apache.org/licenses/LICENSE-2.0
  10:..\..\..\liblc3\src/bwdet.c ****  *
  11:..\..\..\liblc3\src/bwdet.c ****  *  Unless required by applicable law or agreed to in writing, software
  12:..\..\..\liblc3\src/bwdet.c ****  *  distributed under the License is distributed on an "AS IS" BASIS,
  13:..\..\..\liblc3\src/bwdet.c ****  *  WITHOUT WARRANTIES OR CONDITIONS OF ANY KIND, either express or implied.
  14:..\..\..\liblc3\src/bwdet.c ****  *  See the License for the specific language governing permissions and
  15:..\..\..\liblc3\src/bwdet.c ****  *  limitations under the License.
  16:..\..\..\liblc3\src/bwdet.c ****  *
  17:..\..\..\liblc3\src/bwdet.c ****  ******************************************************************************/
  18:..\..\..\liblc3\src/bwdet.c **** 
  19:..\..\..\liblc3\src/bwdet.c **** #include "bwdet.h"
  20:..\..\..\liblc3\src/bwdet.c **** 
  21:..\..\..\liblc3\src/bwdet.c **** 
  22:..\..\..\liblc3\src/bwdet.c **** /**
  23:..\..\..\liblc3\src/bwdet.c ****  * Bandwidth detector
  24:..\..\..\liblc3\src/bwdet.c ****  */
  25:..\..\..\liblc3\src/bwdet.c **** enum lc3_bandwidth lc3_bwdet_run(
  26:..\..\..\liblc3\src/bwdet.c ****     enum lc3_dt dt, enum lc3_srate sr, const float *e)
  27:..\..\..\liblc3\src/bwdet.c **** {
 930              		.loc 1 27 0
 931              		.cfi_startproc
 932              		@ args = 0, pretend = 0, frame = 16
 933              		@ frame_needed = 0, uses_anonymous_args = 0
 934              	.LVL0:
 935 0000 2DE9F04F 		push	{r4, r5, r6, r7, r8, r9, r10, fp, lr}
 936              		.cfi_def_cfa_offset 36
 937              		.cfi_offset 4, -36
 938              		.cfi_offset 5, -32
 939              		.cfi_offset 6, -28
 940              		.cfi_offset 7, -24
 941              		.cfi_offset 8, -20
 942              		.cfi_offset 9, -16
 943              		.cfi_offset 10, -12
 944              		.cfi_offset 11, -8
 945              		.cfi_offset 14, -4
  28:..\..\..\liblc3\src/bwdet.c ****     /* Bandwidth regions */
  29:..\..\..\liblc3\src/bwdet.c **** 
  30:..\..\..\liblc3\src/bwdet.c ****     struct region { int is : 8; int ie : 8; };
  31:..\..\..\liblc3\src/bwdet.c **** 
  32:..\..\..\liblc3\src/bwdet.c **** #if LC3_PLUS
  33:..\..\..\liblc3\src/bwdet.c **** 
ARM GAS  C:\Users\rdn\AppData\Local\Temp\cc9mY3xa.s 			page 72


  34:..\..\..\liblc3\src/bwdet.c ****     static const struct region bws_table_2m5[][LC3_BANDWIDTH_SWB+1] = {
  35:..\..\..\liblc3\src/bwdet.c ****         { { 24, 34+1 } },
  36:..\..\..\liblc3\src/bwdet.c ****         { { 24, 32+1 }, { 35, 39+1 } },
  37:..\..\..\liblc3\src/bwdet.c ****         { { 24, 31+1 }, { 33, 38+1 }, { 39, 42+1 } },
  38:..\..\..\liblc3\src/bwdet.c ****         { { 22, 29+1 }, { 31, 35+1 }, { 37, 40+1 }, { 41, 43+1 } },
  39:..\..\..\liblc3\src/bwdet.c ****     };
  40:..\..\..\liblc3\src/bwdet.c **** 
  41:..\..\..\liblc3\src/bwdet.c ****     static const struct region bws_table_5m[][LC3_BANDWIDTH_SWB+1] = {
  42:..\..\..\liblc3\src/bwdet.c ****         { { 39, 49+1 } },
  43:..\..\..\liblc3\src/bwdet.c ****         { { 35, 44+1 }, { 47, 51+1 } },
  44:..\..\..\liblc3\src/bwdet.c ****         { { 34, 42+1 }, { 44, 49+1 }, { 50, 53+1 } },
  45:..\..\..\liblc3\src/bwdet.c ****         { { 32, 40+1 }, { 42, 46+1 }, { 48, 51+1 }, { 52, 54+1 } },
  46:..\..\..\liblc3\src/bwdet.c ****     };
  47:..\..\..\liblc3\src/bwdet.c **** 
  48:..\..\..\liblc3\src/bwdet.c **** #endif /* LC3_PLUS */
  49:..\..\..\liblc3\src/bwdet.c **** 
  50:..\..\..\liblc3\src/bwdet.c ****     static const struct region bws_table_7m5[][LC3_BANDWIDTH_SWB+1] = {
  51:..\..\..\liblc3\src/bwdet.c ****         { { 51, 63+1 } },
  52:..\..\..\liblc3\src/bwdet.c ****         { { 45, 55+1 }, { 58, 63+1 } },
  53:..\..\..\liblc3\src/bwdet.c ****         { { 42, 51+1 }, { 53, 58+1 }, { 60, 63+1 } },
  54:..\..\..\liblc3\src/bwdet.c ****         { { 40, 48+1 }, { 51, 55+1 }, { 57, 60+1 }, { 61, 63+1 } },
  55:..\..\..\liblc3\src/bwdet.c ****     };
  56:..\..\..\liblc3\src/bwdet.c **** 
  57:..\..\..\liblc3\src/bwdet.c ****     static const struct region bws_table_10m[][LC3_BANDWIDTH_SWB+1] = {
  58:..\..\..\liblc3\src/bwdet.c ****         { { 53, 63+1 } },
  59:..\..\..\liblc3\src/bwdet.c ****         { { 47, 56+1 }, { 59, 63+1 } },
  60:..\..\..\liblc3\src/bwdet.c ****         { { 44, 52+1 }, { 54, 59+1 }, { 60, 63+1 } },
  61:..\..\..\liblc3\src/bwdet.c ****         { { 41, 49+1 }, { 51, 55+1 }, { 57, 60+1 }, { 61, 63+1 } },
  62:..\..\..\liblc3\src/bwdet.c ****     };
  63:..\..\..\liblc3\src/bwdet.c **** 
  64:..\..\..\liblc3\src/bwdet.c ****     static const struct region (*bws_table[])[LC3_BANDWIDTH_SWB+1] = {
  65:..\..\..\liblc3\src/bwdet.c ****         [LC3_DT_2M5] = LC3_IF_PLUS(bws_table_2m5,  NULL),
  66:..\..\..\liblc3\src/bwdet.c ****         [LC3_DT_5M ] = LC3_IF_PLUS(bws_table_5m ,  NULL),
  67:..\..\..\liblc3\src/bwdet.c ****         [LC3_DT_7M5] = bws_table_7m5,
  68:..\..\..\liblc3\src/bwdet.c ****         [LC3_DT_10M] = bws_table_10m,
  69:..\..\..\liblc3\src/bwdet.c ****     };
  70:..\..\..\liblc3\src/bwdet.c **** 
  71:..\..\..\liblc3\src/bwdet.c ****     static const int l_table[LC3_NUM_DT][LC3_BANDWIDTH_SWB+1] = {
  72:..\..\..\liblc3\src/bwdet.c ****         [LC3_DT_2M5] = { 4, 4, 3, 1 },
  73:..\..\..\liblc3\src/bwdet.c ****         [LC3_DT_5M ] = { 4, 4, 3, 1 },
  74:..\..\..\liblc3\src/bwdet.c ****         [LC3_DT_7M5] = { 4, 4, 3, 2 },
  75:..\..\..\liblc3\src/bwdet.c ****         [LC3_DT_10M] = { 4, 4, 3, 1 },
  76:..\..\..\liblc3\src/bwdet.c ****     };
  77:..\..\..\liblc3\src/bwdet.c **** 
  78:..\..\..\liblc3\src/bwdet.c ****     /* --- Stage 1 ---
  79:..\..\..\liblc3\src/bwdet.c ****      * Determine bw0 candidate */
  80:..\..\..\liblc3\src/bwdet.c **** 
  81:..\..\..\liblc3\src/bwdet.c ****     enum lc3_bandwidth bw0 = LC3_BANDWIDTH_NB;
  82:..\..\..\liblc3\src/bwdet.c ****     enum lc3_bandwidth bwn = (enum lc3_bandwidth)sr;
  83:..\..\..\liblc3\src/bwdet.c **** 
  84:..\..\..\liblc3\src/bwdet.c ****     if (bwn <= bw0 || lc3_hr(sr))
 946              		.loc 1 84 0
 947 0004 0D46     		mov	r5, r1
  27:..\..\..\liblc3\src/bwdet.c ****     /* Bandwidth regions */
 948              		.loc 1 27 0
 949 0006 85B0     		sub	sp, sp, #20
 950              		.cfi_def_cfa_offset 56
ARM GAS  C:\Users\rdn\AppData\Local\Temp\cc9mY3xa.s 			page 73


 951              		.loc 1 84 0
 952 0008 0029     		cmp	r1, #0
 953 000a 79D0     		beq	.L12
 954 000c 0429     		cmp	r1, #4
 955 000e 77D8     		bhi	.L12
 956              	.LVL1:
 957              	.LBB32:
 958              	.LBB33:
  85:..\..\..\liblc3\src/bwdet.c ****         return bwn;
  86:..\..\..\liblc3\src/bwdet.c **** 
  87:..\..\..\liblc3\src/bwdet.c ****     const struct region *bwr = bws_table[dt][bwn-1];
 959              		.loc 1 87 0
 960 0010 DFF808E1 		ldr	lr, .L22+4
 961 0014 01F18059 		add	r9, r1, #268435456
 962 0018 5EF82030 		ldr	r3, [lr, r0, lsl #2]
 963 001c 09F1FF39 		add	r9, r9, #-1
 964 0020 4FF0000C 		mov	ip, #0
 965 0024 0746     		mov	r7, r0
 966 0026 1446     		mov	r4, r2
 967              	.LVL2:
 968 0028 03EB0919 		add	r9, r3, r9, lsl #4
 969              	.LVL3:
  81:..\..\..\liblc3\src/bwdet.c ****     enum lc3_bandwidth bwn = (enum lc3_bandwidth)sr;
 970              		.loc 1 81 0
 971 002c 6646     		mov	r6, ip
 972              		.loc 1 87 0
 973 002e 4FF00108 		mov	r8, #1
 974              	.LVL4:
 975              	.L8:
 976 0032 5FFA8CF0 		uxtb	r0, ip
 977              	.LVL5:
 978              	.LBB34:
 979              	.LBB35:
  88:..\..\..\liblc3\src/bwdet.c **** 
  89:..\..\..\liblc3\src/bwdet.c ****     for (enum lc3_bandwidth bw = bw0; bw < bwn; bw++) {
  90:..\..\..\liblc3\src/bwdet.c ****         int i = bwr[bw].is, ie = bwr[bw].ie;
 980              		.loc 1 90 0
 981 0036 09EB8003 		add	r3, r9, r0, lsl #2
 982 003a 19F92010 		ldrsb	r1, [r9, r0, lsl #2]
 983              	.LVL6:
 984 003e 93F90120 		ldrsb	r2, [r3, #1]
 985              	.LVL7:
  91:..\..\..\liblc3\src/bwdet.c ****         int n = ie - i;
  92:..\..\..\liblc3\src/bwdet.c **** 
  93:..\..\..\liblc3\src/bwdet.c ****         float se = e[i];
  94:..\..\..\liblc3\src/bwdet.c ****         for (i++; i < ie; i++)
 986              		.loc 1 94 0
 987 0042 01F1010A 		add	r10, r1, #1
  93:..\..\..\liblc3\src/bwdet.c ****         for (i++; i < ie; i++)
 988              		.loc 1 93 0
 989 0046 8B00     		lsls	r3, r1, #2
 990 0048 04EB030B 		add	fp, r4, r3
 991              		.loc 1 94 0
 992 004c 5245     		cmp	r2, r10
  93:..\..\..\liblc3\src/bwdet.c ****         for (i++; i < ie; i++)
 993              		.loc 1 93 0
 994 004e DBED007A 		vldr.32	s15, [fp]
ARM GAS  C:\Users\rdn\AppData\Local\Temp\cc9mY3xa.s 			page 74


  91:..\..\..\liblc3\src/bwdet.c ****         int n = ie - i;
 995              		.loc 1 91 0
 996 0052 A2EB0101 		sub	r1, r2, r1
 997              	.LVL8:
 998              		.loc 1 94 0
 999 0056 09DD     		ble	.L4
 1000 0058 0433     		adds	r3, r3, #4
 1001 005a 2344     		add	r3, r3, r4
 1002 005c 04EB8202 		add	r2, r4, r2, lsl #2
 1003              	.LVL9:
 1004              	.L5:
  95:..\..\..\liblc3\src/bwdet.c ****             se += e[i];
 1005              		.loc 1 95 0
 1006 0060 B3EC017A 		vldmia.32	r3!, {s14}
  94:..\..\..\liblc3\src/bwdet.c ****             se += e[i];
 1007              		.loc 1 94 0
 1008 0064 9342     		cmp	r3, r2
 1009              		.loc 1 95 0
 1010 0066 77EE877A 		vadd.f32	s15, s15, s14
 1011              	.LVL10:
  94:..\..\..\liblc3\src/bwdet.c ****             se += e[i];
 1012              		.loc 1 94 0
 1013 006a F9D1     		bne	.L5
 1014              	.L4:
  96:..\..\..\liblc3\src/bwdet.c **** 
  97:..\..\..\liblc3\src/bwdet.c ****         if (se >= (10 << (bw == LC3_BANDWIDTH_NB)) * n)
 1015              		.loc 1 97 0
 1016 006c 0028     		cmp	r0, #0
 1017 006e 0CBF     		ite	eq
 1018 0070 1423     		moveq	r3, #20
 1019 0072 0A23     		movne	r3, #10
 1020 0074 03FB01F1 		mul	r1, r3, r1
 1021              	.LVL11:
 1022 0078 07EE101A 		vmov	s14, r1	@ int
 1023 007c B8EEC77A 		vcvt.f32.s32	s14, s14
 1024 0080 4346     		mov	r3, r8
 1025 0082 B4EEE77A 		vcmpe.f32	s14, s15
 1026 0086 F1EE10FA 		vmrs	APSR_nzcv, FPSCR
 1027 008a 98BF     		it	ls
 1028 008c 4646     		movls	r6, r8
 1029              	.LVL12:
 1030 008e 5A1C     		adds	r2, r3, #1
 1031              	.LBE35:
  89:..\..\..\liblc3\src/bwdet.c ****         int i = bwr[bw].is, ie = bwr[bw].ie;
 1032              		.loc 1 89 0
 1033 0090 9D42     		cmp	r5, r3
 1034 0092 0CF1010C 		add	ip, ip, #1
 1035 0096 5FFA82F8 		uxtb	r8, r2
 1036 009a CAD8     		bhi	.L8
 1037              	.LVL13:
 1038              	.LBE34:
  98:..\..\..\liblc3\src/bwdet.c ****             bw0 = bw + 1;
  99:..\..\..\liblc3\src/bwdet.c ****     }
 100:..\..\..\liblc3\src/bwdet.c **** 
 101:..\..\..\liblc3\src/bwdet.c ****     /* --- Stage 2 ---
 102:..\..\..\liblc3\src/bwdet.c ****      * Detect drop above cut-off frequency.
 103:..\..\..\liblc3\src/bwdet.c ****      * The Tc condition (13) is precalculated, as
ARM GAS  C:\Users\rdn\AppData\Local\Temp\cc9mY3xa.s 			page 75


 104:..\..\..\liblc3\src/bwdet.c ****      * Tc[] = 10 ^ (n / 10) , n = { 15, 23, 20, 20 } */
 105:..\..\..\liblc3\src/bwdet.c **** 
 106:..\..\..\liblc3\src/bwdet.c ****     int hold = bw0 >= bwn;
 107:..\..\..\liblc3\src/bwdet.c **** 
 108:..\..\..\liblc3\src/bwdet.c ****     if (!hold) {
 1039              		.loc 1 108 0
 1040 009c B542     		cmp	r5, r6
 1041 009e 33D9     		bls	.L9
 1042              	.LBB36:
 109:..\..\..\liblc3\src/bwdet.c ****         int i0 = bwr[bw0].is, l = l_table[dt][bw0];
 110:..\..\..\liblc3\src/bwdet.c ****         float tc = (const float []){
 1043              		.loc 1 110 0
 1044 00a0 1D4B     		ldr	r3, .L22
 109:..\..\..\liblc3\src/bwdet.c ****         int i0 = bwr[bw0].is, l = l_table[dt][bw0];
 1045              		.loc 1 109 0
 1046 00a2 19F926C0 		ldrsb	ip, [r9, r6, lsl #2]
 1047              	.LVL14:
 1048              		.loc 1 110 0
 1049 00a6 0FCB     		ldmia	r3, {r0, r1, r2, r3}
 1050              	.LVL15:
 109:..\..\..\liblc3\src/bwdet.c ****         int i0 = bwr[bw0].is, l = l_table[dt][bw0];
 1051              		.loc 1 109 0
 1052 00a8 06EB8707 		add	r7, r6, r7, lsl #2
 1053 00ac 0EEB8707 		add	r7, lr, r7, lsl #2
 1054              		.loc 1 110 0
 1055 00b0 0DF1100E 		add	lr, sp, #16
 1056 00b4 0EE90F00 		stmdb	lr, {r0, r1, r2, r3}
 109:..\..\..\liblc3\src/bwdet.c ****         int i0 = bwr[bw0].is, l = l_table[dt][bw0];
 1057              		.loc 1 109 0
 1058 00b8 3A69     		ldr	r2, [r7, #16]
 1059              	.LVL16:
 1060              	.LBB37:
 111:..\..\..\liblc3\src/bwdet.c ****              31.62277660, 199.52623150, 100, 100 }[bw0];
 112:..\..\..\liblc3\src/bwdet.c **** 
 113:..\..\..\liblc3\src/bwdet.c ****         for (int i = i0 - l + 1; !hold && i <= i0 + 1; i++) {
 1061              		.loc 1 113 0
 1062 00ba C2EB0C00 		rsb	r0, r2, ip
 1063 00be 0CF10101 		add	r1, ip, #1
 1064 00c2 431C     		adds	r3, r0, #1
 1065              	.LBE37:
 110:..\..\..\liblc3\src/bwdet.c ****              31.62277660, 199.52623150, 100, 100 }[bw0];
 1066              		.loc 1 110 0
 1067 00c4 0EEB8607 		add	r7, lr, r6, lsl #2
 1068              	.LBB38:
 1069              		.loc 1 113 0
 1070 00c8 8B42     		cmp	r3, r1
 1071              	.LBE38:
 110:..\..\..\liblc3\src/bwdet.c ****              31.62277660, 199.52623150, 100, 100 }[bw0];
 1072              		.loc 1 110 0
 1073 00ca 57ED046A 		vldr.32	s13, [r7, #-16]
 1074              	.LVL17:
 1075              	.LBB39:
 1076              		.loc 1 113 0
 1077 00ce 17DC     		bgt	.L12
 1078 00d0 821A     		subs	r2, r0, r2
 1079              	.LVL18:
 1080 00d2 04EB8202 		add	r2, r4, r2, lsl #2
ARM GAS  C:\Users\rdn\AppData\Local\Temp\cc9mY3xa.s 			page 76


 1081 00d6 04EB8004 		add	r4, r4, r0, lsl #2
 1082              	.LVL19:
 1083 00da 01E0     		b	.L11
 1084              	.LVL20:
 1085              	.L21:
 1086 00dc 8B42     		cmp	r3, r1
 1087 00de 0FDC     		bgt	.L12
 1088              	.LVL21:
 1089              	.L11:
 114:..\..\..\liblc3\src/bwdet.c ****             hold = e[i-l] > tc * e[i];
 1090              		.loc 1 114 0
 1091 00e0 0434     		adds	r4, r4, #4
 1092 00e2 D4ED007A 		vldr.32	s15, [r4]
 1093 00e6 92ED017A 		vldr.32	s14, [r2, #4]
 1094              	.LVL22:
 1095 00ea 0432     		adds	r2, r2, #4
 113:..\..\..\liblc3\src/bwdet.c ****             hold = e[i-l] > tc * e[i];
 1096              		.loc 1 113 0
 1097 00ec 66EEA77A 		vmul.f32	s15, s13, s15
 1098              	.LVL23:
 1099 00f0 0133     		adds	r3, r3, #1
 1100              	.LVL24:
 1101 00f2 B4EEE77A 		vcmpe.f32	s14, s15
 1102 00f6 F1EE10FA 		vmrs	APSR_nzcv, FPSCR
 1103 00fa EFDD     		ble	.L21
 1104 00fc 3046     		mov	r0, r6
 1105 00fe 00E0     		b	.L2
 1106              	.LVL25:
 1107              	.L12:
 1108              	.LBE39:
 1109              	.LBE36:
 1110              	.LBE33:
 1111              	.LBE32:
 1112 0100 2846     		mov	r0, r5
 1113              	.L2:
 115:..\..\..\liblc3\src/bwdet.c ****         }
 116:..\..\..\liblc3\src/bwdet.c **** 
 117:..\..\..\liblc3\src/bwdet.c ****     }
 118:..\..\..\liblc3\src/bwdet.c **** 
 119:..\..\..\liblc3\src/bwdet.c ****     return hold ? bw0 : bwn;
 120:..\..\..\liblc3\src/bwdet.c **** }
 1114              		.loc 1 120 0
 1115 0102 05B0     		add	sp, sp, #20
 1116              		.cfi_remember_state
 1117              		.cfi_def_cfa_offset 36
 1118              		@ sp needed
 1119 0104 BDE8F08F 		pop	{r4, r5, r6, r7, r8, r9, r10, fp, pc}
 1120              	.LVL26:
 1121              	.L9:
 1122              		.cfi_restore_state
 1123 0108 B542     		cmp	r5, r6
 1124 010a 38BF     		it	cc
 1125 010c 3546     		movcc	r5, r6
 1126              	.LVL27:
 1127 010e E8B2     		uxtb	r0, r5
 1128              	.LVL28:
 1129 0110 05B0     		add	sp, sp, #20
ARM GAS  C:\Users\rdn\AppData\Local\Temp\cc9mY3xa.s 			page 77


 1130              		.cfi_def_cfa_offset 36
 1131              		@ sp needed
 1132 0112 BDE8F08F 		pop	{r4, r5, r6, r7, r8, r9, r10, fp, pc}
 1133              	.LVL29:
 1134              	.L23:
 1135 0116 00BF     		.align	2
 1136              	.L22:
 1137 0118 50000000 		.word	.LANCHOR0+80
 1138 011c 00000000 		.word	.LANCHOR0
 1139              		.cfi_endproc
 1140              	.LFE13:
 1141              		.size	lc3_bwdet_run, .-lc3_bwdet_run
 1142              		.section	.text.lc3_bwdet_get_nbits,"ax",%progbits
 1143              		.align	2
 1144              		.global	lc3_bwdet_get_nbits
 1145              		.thumb
 1146              		.thumb_func
 1147              		.type	lc3_bwdet_get_nbits, %function
 1148              	lc3_bwdet_get_nbits:
 1149              	.LFB14:
 121:..\..\..\liblc3\src/bwdet.c **** 
 122:..\..\..\liblc3\src/bwdet.c **** /**
 123:..\..\..\liblc3\src/bwdet.c ****  * Return number of bits coding the bandwidth value
 124:..\..\..\liblc3\src/bwdet.c ****  */
 125:..\..\..\liblc3\src/bwdet.c **** int lc3_bwdet_get_nbits(enum lc3_srate sr)
 126:..\..\..\liblc3\src/bwdet.c **** {
 1150              		.loc 1 126 0
 1151              		.cfi_startproc
 1152              		@ args = 0, pretend = 0, frame = 0
 1153              		@ frame_needed = 0, uses_anonymous_args = 0
 1154              		@ link register save eliminated.
 1155              	.LVL30:
 127:..\..\..\liblc3\src/bwdet.c ****     return lc3_hr(sr) ? 0 : (sr > 0) + (sr > 1) + (sr > 3);
 1156              		.loc 1 127 0
 1157 0000 0428     		cmp	r0, #4
 1158 0002 0BD8     		bhi	.L26
 1159              	.LVL31:
 1160              	.LBB44:
 1161              	.LBB45:
 1162 0004 0128     		cmp	r0, #1
 1163 0006 94BF     		ite	ls
 1164 0008 0023     		movls	r3, #0
 1165 000a 0123     		movhi	r3, #1
 1166 000c 0028     		cmp	r0, #0
 1167 000e 18BF     		it	ne
 1168 0010 0133     		addne	r3, r3, #1
 1169 0012 0328     		cmp	r0, #3
 1170 0014 94BF     		ite	ls
 1171 0016 1846     		movls	r0, r3
 1172 0018 581C     		addhi	r0, r3, #1
 1173              	.LVL32:
 1174 001a 7047     		bx	lr
 1175              	.LVL33:
 1176              	.L26:
 1177              	.LBE45:
 1178              	.LBE44:
 1179 001c 0020     		movs	r0, #0
ARM GAS  C:\Users\rdn\AppData\Local\Temp\cc9mY3xa.s 			page 78


 1180              	.LVL34:
 128:..\..\..\liblc3\src/bwdet.c **** }
 1181              		.loc 1 128 0
 1182 001e 7047     		bx	lr
 1183              		.cfi_endproc
 1184              	.LFE14:
 1185              		.size	lc3_bwdet_get_nbits, .-lc3_bwdet_get_nbits
 1186              		.section	.text.lc3_bwdet_put_bw,"ax",%progbits
 1187              		.align	2
 1188              		.global	lc3_bwdet_put_bw
 1189              		.thumb
 1190              		.thumb_func
 1191              		.type	lc3_bwdet_put_bw, %function
 1192              	lc3_bwdet_put_bw:
 1193              	.LFB15:
 129:..\..\..\liblc3\src/bwdet.c **** 
 130:..\..\..\liblc3\src/bwdet.c **** /**
 131:..\..\..\liblc3\src/bwdet.c ****  * Put bandwidth indication
 132:..\..\..\liblc3\src/bwdet.c ****  */
 133:..\..\..\liblc3\src/bwdet.c **** void lc3_bwdet_put_bw(lc3_bits_t *bits,
 134:..\..\..\liblc3\src/bwdet.c ****     enum lc3_srate sr, enum lc3_bandwidth bw)
 135:..\..\..\liblc3\src/bwdet.c **** {
 1194              		.loc 1 135 0
 1195              		.cfi_startproc
 1196              		@ args = 0, pretend = 0, frame = 0
 1197              		@ frame_needed = 0, uses_anonymous_args = 0
 1198              		@ link register save eliminated.
 1199              	.LVL35:
 1200              	.LBB54:
 1201              	.LBB55:
 127:..\..\..\liblc3\src/bwdet.c **** }
 1202              		.loc 1 127 0
 1203 0000 0429     		cmp	r1, #4
 1204 0002 00D9     		bls	.L36
 1205              	.LVL36:
 1206              	.L35:
 1207              	.LBE55:
 1208              	.LBE54:
 136:..\..\..\liblc3\src/bwdet.c ****     int nbits_bw = lc3_bwdet_get_nbits(sr);
 137:..\..\..\liblc3\src/bwdet.c ****     if (nbits_bw > 0)
 138:..\..\..\liblc3\src/bwdet.c ****         lc3_put_bits(bits, bw, nbits_bw);
 139:..\..\..\liblc3\src/bwdet.c **** }
 1209              		.loc 1 139 0
 1210 0004 7047     		bx	lr
 1211              	.LVL37:
 1212              	.L36:
 1213              	.LBB59:
 1214              	.LBB58:
 1215              	.LBB56:
 1216              	.LBB57:
 127:..\..\..\liblc3\src/bwdet.c **** }
 1217              		.loc 1 127 0
 1218 0006 0129     		cmp	r1, #1
 1219 0008 1346     		mov	r3, r2
 1220 000a 94BF     		ite	ls
 1221 000c 0022     		movls	r2, #0
 1222              	.LVL38:
ARM GAS  C:\Users\rdn\AppData\Local\Temp\cc9mY3xa.s 			page 79


 1223 000e 0122     		movhi	r2, #1
 1224 0010 0029     		cmp	r1, #0
 1225 0012 18BF     		it	ne
 1226 0014 0132     		addne	r2, r2, #1
 1227 0016 0329     		cmp	r1, #3
 1228 0018 88BF     		it	hi
 1229 001a 0132     		addhi	r2, r2, #1
 1230              	.LVL39:
 1231              	.LBE57:
 1232              	.LBE56:
 1233              	.LBE58:
 1234              	.LBE59:
 137:..\..\..\liblc3\src/bwdet.c ****         lc3_put_bits(bits, bw, nbits_bw);
 1235              		.loc 1 137 0
 1236 001c 002A     		cmp	r2, #0
 1237 001e F1D0     		beq	.L35
 1238              	.LVL40:
 1239              	.LBB60:
 1240              	.LBB61:
 1241              		.file 2 "..\\..\\..\\liblc3\\src\\bits.h"
   1:..\..\..\liblc3\src/bits.h **** /******************************************************************************
   2:..\..\..\liblc3\src/bits.h ****  *
   3:..\..\..\liblc3\src/bits.h ****  *  Copyright 2022 Google LLC
   4:..\..\..\liblc3\src/bits.h ****  *
   5:..\..\..\liblc3\src/bits.h ****  *  Licensed under the Apache License, Version 2.0 (the "License");
   6:..\..\..\liblc3\src/bits.h ****  *  you may not use this file except in compliance with the License.
   7:..\..\..\liblc3\src/bits.h ****  *  You may obtain a copy of the License at:
   8:..\..\..\liblc3\src/bits.h ****  *
   9:..\..\..\liblc3\src/bits.h ****  *  http://www.apache.org/licenses/LICENSE-2.0
  10:..\..\..\liblc3\src/bits.h ****  *
  11:..\..\..\liblc3\src/bits.h ****  *  Unless required by applicable law or agreed to in writing, software
  12:..\..\..\liblc3\src/bits.h ****  *  distributed under the License is distributed on an "AS IS" BASIS,
  13:..\..\..\liblc3\src/bits.h ****  *  WITHOUT WARRANTIES OR CONDITIONS OF ANY KIND, either express or implied.
  14:..\..\..\liblc3\src/bits.h ****  *  See the License for the specific language governing permissions and
  15:..\..\..\liblc3\src/bits.h ****  *  limitations under the License.
  16:..\..\..\liblc3\src/bits.h ****  *
  17:..\..\..\liblc3\src/bits.h ****  ******************************************************************************/
  18:..\..\..\liblc3\src/bits.h **** 
  19:..\..\..\liblc3\src/bits.h **** /**
  20:..\..\..\liblc3\src/bits.h ****  * The bitstream is written by the 2 ends of the buffer :
  21:..\..\..\liblc3\src/bits.h ****  *
  22:..\..\..\liblc3\src/bits.h ****  * - Arthmetic coder put bits while increasing memory addresses
  23:..\..\..\liblc3\src/bits.h ****  *   in the buffer (forward)
  24:..\..\..\liblc3\src/bits.h ****  *
  25:..\..\..\liblc3\src/bits.h ****  * - Plain bits are puts starting the end of the buffer, with memeory
  26:..\..\..\liblc3\src/bits.h ****  *   addresses decreasing (backward)
  27:..\..\..\liblc3\src/bits.h ****  *
  28:..\..\..\liblc3\src/bits.h ****  *       .---------------------------------------------------.
  29:..\..\..\liblc3\src/bits.h ****  *       | > > > > > > > > > > :         : < < < < < < < < < |
  30:..\..\..\liblc3\src/bits.h ****  *       '---------------------------------------------------'
  31:..\..\..\liblc3\src/bits.h ****  *       |---------------------> - - - - - - - - - - - - - ->|
  32:..\..\..\liblc3\src/bits.h ****  *                              |< - - - <-------------------|
  33:..\..\..\liblc3\src/bits.h ****  *          Arithmetic coding                  Plain bits
  34:..\..\..\liblc3\src/bits.h ****  *          `lc3_put_symbol()`               `lc3_put_bits()`
  35:..\..\..\liblc3\src/bits.h ****  *
  36:..\..\..\liblc3\src/bits.h ****  * - The forward writing is protected against buffer overflow, it cannot
  37:..\..\..\liblc3\src/bits.h ****  *   write after the buffer, but can overwrite plain bits previously
ARM GAS  C:\Users\rdn\AppData\Local\Temp\cc9mY3xa.s 			page 80


  38:..\..\..\liblc3\src/bits.h ****  *   written in the buffer.
  39:..\..\..\liblc3\src/bits.h ****  *
  40:..\..\..\liblc3\src/bits.h ****  * - The backward writing is protected against overwrite of the arithmetic
  41:..\..\..\liblc3\src/bits.h ****  *   coder bitstream. In such way, the backward bitstream is always limited
  42:..\..\..\liblc3\src/bits.h ****  *   by the aritmetic coder bitstream, and can be overwritten by him.
  43:..\..\..\liblc3\src/bits.h ****  *
  44:..\..\..\liblc3\src/bits.h ****  *       .---------------------------------------------------.
  45:..\..\..\liblc3\src/bits.h ****  *       | > > > > > > > > > > :         : < < < < < < < < < |
  46:..\..\..\liblc3\src/bits.h ****  *       '---------------------------------------------------'
  47:..\..\..\liblc3\src/bits.h ****  *       |---------------------> - - - - - - - - - - - - - ->|
  48:..\..\..\liblc3\src/bits.h ****  *       |< - - - - - - - - - - -  - - - <-------------------|
  49:..\..\..\liblc3\src/bits.h ****  *          Arithmetic coding                  Plain bits
  50:..\..\..\liblc3\src/bits.h ****  *          `lc3_get_symbol()`               `lc3_get_bits()`
  51:..\..\..\liblc3\src/bits.h ****  *
  52:..\..\..\liblc3\src/bits.h ****  * - Reading is limited to read of the complementary end of the buffer.
  53:..\..\..\liblc3\src/bits.h ****  *
  54:..\..\..\liblc3\src/bits.h ****  * - The procedure `lc3_check_bits()` returns indication that read has been
  55:..\..\..\liblc3\src/bits.h ****  *   made crossing the other bit plane.
  56:..\..\..\liblc3\src/bits.h ****  *
  57:..\..\..\liblc3\src/bits.h ****  */
  58:..\..\..\liblc3\src/bits.h **** 
  59:..\..\..\liblc3\src/bits.h **** #ifndef __LC3_BITS_H
  60:..\..\..\liblc3\src/bits.h **** #define __LC3_BITS_H
  61:..\..\..\liblc3\src/bits.h **** 
  62:..\..\..\liblc3\src/bits.h **** #include "common.h"
  63:..\..\..\liblc3\src/bits.h **** 
  64:..\..\..\liblc3\src/bits.h **** 
  65:..\..\..\liblc3\src/bits.h **** /**
  66:..\..\..\liblc3\src/bits.h ****  * Bitstream mode
  67:..\..\..\liblc3\src/bits.h ****  */
  68:..\..\..\liblc3\src/bits.h **** 
  69:..\..\..\liblc3\src/bits.h **** enum lc3_bits_mode {
  70:..\..\..\liblc3\src/bits.h ****     LC3_BITS_MODE_READ,
  71:..\..\..\liblc3\src/bits.h ****     LC3_BITS_MODE_WRITE,
  72:..\..\..\liblc3\src/bits.h **** };
  73:..\..\..\liblc3\src/bits.h **** 
  74:..\..\..\liblc3\src/bits.h **** /**
  75:..\..\..\liblc3\src/bits.h ****  * Arithmetic coder symbol interval
  76:..\..\..\liblc3\src/bits.h ****  * The model split the interval in 17 symbols
  77:..\..\..\liblc3\src/bits.h ****  */
  78:..\..\..\liblc3\src/bits.h **** 
  79:..\..\..\liblc3\src/bits.h **** struct lc3_ac_symbol {
  80:..\..\..\liblc3\src/bits.h ****     uint16_t low   : 16;
  81:..\..\..\liblc3\src/bits.h ****     uint16_t range : 16;
  82:..\..\..\liblc3\src/bits.h **** };
  83:..\..\..\liblc3\src/bits.h **** 
  84:..\..\..\liblc3\src/bits.h **** struct lc3_ac_model {
  85:..\..\..\liblc3\src/bits.h ****     struct lc3_ac_symbol s[17];
  86:..\..\..\liblc3\src/bits.h **** };
  87:..\..\..\liblc3\src/bits.h **** 
  88:..\..\..\liblc3\src/bits.h **** /**
  89:..\..\..\liblc3\src/bits.h ****  * Bitstream context
  90:..\..\..\liblc3\src/bits.h ****  */
  91:..\..\..\liblc3\src/bits.h **** 
  92:..\..\..\liblc3\src/bits.h **** #define LC3_ACCU_BITS (int)(8 * sizeof(unsigned))
  93:..\..\..\liblc3\src/bits.h **** 
  94:..\..\..\liblc3\src/bits.h **** struct lc3_bits_accu {
ARM GAS  C:\Users\rdn\AppData\Local\Temp\cc9mY3xa.s 			page 81


  95:..\..\..\liblc3\src/bits.h ****     unsigned v;
  96:..\..\..\liblc3\src/bits.h ****     int n, nover;
  97:..\..\..\liblc3\src/bits.h **** };
  98:..\..\..\liblc3\src/bits.h **** 
  99:..\..\..\liblc3\src/bits.h **** #define LC3_AC_BITS (int)(24)
 100:..\..\..\liblc3\src/bits.h **** 
 101:..\..\..\liblc3\src/bits.h **** struct lc3_bits_ac {
 102:..\..\..\liblc3\src/bits.h ****     unsigned low, range;
 103:..\..\..\liblc3\src/bits.h ****     int cache, carry, carry_count;
 104:..\..\..\liblc3\src/bits.h ****     bool error;
 105:..\..\..\liblc3\src/bits.h **** };
 106:..\..\..\liblc3\src/bits.h **** 
 107:..\..\..\liblc3\src/bits.h **** struct lc3_bits_buffer {
 108:..\..\..\liblc3\src/bits.h ****     const uint8_t *start, *end;
 109:..\..\..\liblc3\src/bits.h ****     uint8_t *p_fw, *p_bw;
 110:..\..\..\liblc3\src/bits.h **** };
 111:..\..\..\liblc3\src/bits.h **** 
 112:..\..\..\liblc3\src/bits.h **** typedef struct lc3_bits {
 113:..\..\..\liblc3\src/bits.h ****     enum lc3_bits_mode mode;
 114:..\..\..\liblc3\src/bits.h ****     struct lc3_bits_ac ac;
 115:..\..\..\liblc3\src/bits.h ****     struct lc3_bits_accu accu;
 116:..\..\..\liblc3\src/bits.h ****     struct lc3_bits_buffer buffer;
 117:..\..\..\liblc3\src/bits.h **** } lc3_bits_t;
 118:..\..\..\liblc3\src/bits.h **** 
 119:..\..\..\liblc3\src/bits.h **** 
 120:..\..\..\liblc3\src/bits.h **** /**
 121:..\..\..\liblc3\src/bits.h ****  * Setup bitstream reading/writing
 122:..\..\..\liblc3\src/bits.h ****  * bits            Bitstream context
 123:..\..\..\liblc3\src/bits.h ****  * mode            Either READ or WRITE mode
 124:..\..\..\liblc3\src/bits.h ****  * buffer, len     Output buffer and length (in bytes)
 125:..\..\..\liblc3\src/bits.h ****  */
 126:..\..\..\liblc3\src/bits.h **** void lc3_setup_bits(lc3_bits_t *bits,
 127:..\..\..\liblc3\src/bits.h ****     enum lc3_bits_mode mode, void *buffer, int len);
 128:..\..\..\liblc3\src/bits.h **** 
 129:..\..\..\liblc3\src/bits.h **** /**
 130:..\..\..\liblc3\src/bits.h ****  * Return number of bits left in the bitstream
 131:..\..\..\liblc3\src/bits.h ****  * bits            Bitstream context
 132:..\..\..\liblc3\src/bits.h ****  * return          Number of bits left
 133:..\..\..\liblc3\src/bits.h ****  */
 134:..\..\..\liblc3\src/bits.h **** int lc3_get_bits_left(const lc3_bits_t *bits);
 135:..\..\..\liblc3\src/bits.h **** 
 136:..\..\..\liblc3\src/bits.h **** /**
 137:..\..\..\liblc3\src/bits.h ****  * Check if error occured on bitstream reading/writing
 138:..\..\..\liblc3\src/bits.h ****  * bits            Bitstream context
 139:..\..\..\liblc3\src/bits.h ****  * return          0: Ok  -1: Bitstream overflow or AC reading error
 140:..\..\..\liblc3\src/bits.h ****  */
 141:..\..\..\liblc3\src/bits.h **** int lc3_check_bits(const lc3_bits_t *bits);
 142:..\..\..\liblc3\src/bits.h **** 
 143:..\..\..\liblc3\src/bits.h **** /**
 144:..\..\..\liblc3\src/bits.h ****  * Put a bit
 145:..\..\..\liblc3\src/bits.h ****  * bits            Bitstream context
 146:..\..\..\liblc3\src/bits.h ****  * v               Bit value, 0 or 1
 147:..\..\..\liblc3\src/bits.h ****  */
 148:..\..\..\liblc3\src/bits.h **** static inline void lc3_put_bit(lc3_bits_t *bits, int v);
 149:..\..\..\liblc3\src/bits.h **** 
 150:..\..\..\liblc3\src/bits.h **** /**
 151:..\..\..\liblc3\src/bits.h ****  * Put from 1 to 32 bits
ARM GAS  C:\Users\rdn\AppData\Local\Temp\cc9mY3xa.s 			page 82


 152:..\..\..\liblc3\src/bits.h ****  * bits            Bitstream context
 153:..\..\..\liblc3\src/bits.h ****  * v, n            Value, in range 0 to 2^n - 1, and bits count (1 to 32)
 154:..\..\..\liblc3\src/bits.h ****  */
 155:..\..\..\liblc3\src/bits.h **** static inline void lc3_put_bits(lc3_bits_t *bits, unsigned v, int n);
 156:..\..\..\liblc3\src/bits.h **** 
 157:..\..\..\liblc3\src/bits.h **** /**
 158:..\..\..\liblc3\src/bits.h ****  * Put arithmetic coder symbol
 159:..\..\..\liblc3\src/bits.h ****  * bits            Bitstream context
 160:..\..\..\liblc3\src/bits.h ****  * model, s        Model distribution and symbol value
 161:..\..\..\liblc3\src/bits.h ****  */
 162:..\..\..\liblc3\src/bits.h **** static inline void lc3_put_symbol(lc3_bits_t *bits,
 163:..\..\..\liblc3\src/bits.h ****     const struct lc3_ac_model *model, unsigned s);
 164:..\..\..\liblc3\src/bits.h **** 
 165:..\..\..\liblc3\src/bits.h **** /**
 166:..\..\..\liblc3\src/bits.h ****  * Flush and terminate bitstream writing
 167:..\..\..\liblc3\src/bits.h ****  * bits            Bitstream context
 168:..\..\..\liblc3\src/bits.h ****  */
 169:..\..\..\liblc3\src/bits.h **** void lc3_flush_bits(lc3_bits_t *bits);
 170:..\..\..\liblc3\src/bits.h **** 
 171:..\..\..\liblc3\src/bits.h **** /**
 172:..\..\..\liblc3\src/bits.h ****  * Get a bit
 173:..\..\..\liblc3\src/bits.h ****  * bits            Bitstream context
 174:..\..\..\liblc3\src/bits.h ****  */
 175:..\..\..\liblc3\src/bits.h **** static inline int lc3_get_bit(lc3_bits_t *bits);
 176:..\..\..\liblc3\src/bits.h **** 
 177:..\..\..\liblc3\src/bits.h **** /**
 178:..\..\..\liblc3\src/bits.h ****  * Get from 1 to 32 bits
 179:..\..\..\liblc3\src/bits.h ****  * bits            Bitstream context
 180:..\..\..\liblc3\src/bits.h ****  * n               Number of bits to read (1 to 32)
 181:..\..\..\liblc3\src/bits.h ****  * return          The value read
 182:..\..\..\liblc3\src/bits.h ****  */
 183:..\..\..\liblc3\src/bits.h **** static inline unsigned lc3_get_bits(lc3_bits_t *bits,  int n);
 184:..\..\..\liblc3\src/bits.h **** 
 185:..\..\..\liblc3\src/bits.h **** /**
 186:..\..\..\liblc3\src/bits.h ****  * Get arithmetic coder symbol
 187:..\..\..\liblc3\src/bits.h ****  * bits            Bitstream context
 188:..\..\..\liblc3\src/bits.h ****  * model           Model distribution
 189:..\..\..\liblc3\src/bits.h ****  * return          The value read
 190:..\..\..\liblc3\src/bits.h ****  */
 191:..\..\..\liblc3\src/bits.h **** static inline unsigned lc3_get_symbol(lc3_bits_t *bits,
 192:..\..\..\liblc3\src/bits.h ****     const struct lc3_ac_model *model);
 193:..\..\..\liblc3\src/bits.h **** 
 194:..\..\..\liblc3\src/bits.h **** 
 195:..\..\..\liblc3\src/bits.h **** 
 196:..\..\..\liblc3\src/bits.h **** /* ----------------------------------------------------------------------------
 197:..\..\..\liblc3\src/bits.h ****  *  Inline implementations
 198:..\..\..\liblc3\src/bits.h ****  * -------------------------------------------------------------------------- */
 199:..\..\..\liblc3\src/bits.h **** 
 200:..\..\..\liblc3\src/bits.h **** void lc3_put_bits_generic(lc3_bits_t *bits, unsigned v, int n);
 201:..\..\..\liblc3\src/bits.h **** unsigned lc3_get_bits_generic(struct lc3_bits *bits, int n);
 202:..\..\..\liblc3\src/bits.h **** 
 203:..\..\..\liblc3\src/bits.h **** void lc3_ac_read_renorm(lc3_bits_t *bits);
 204:..\..\..\liblc3\src/bits.h **** void lc3_ac_write_renorm(lc3_bits_t *bits);
 205:..\..\..\liblc3\src/bits.h **** 
 206:..\..\..\liblc3\src/bits.h **** 
 207:..\..\..\liblc3\src/bits.h **** /**
 208:..\..\..\liblc3\src/bits.h ****  * Put a bit
ARM GAS  C:\Users\rdn\AppData\Local\Temp\cc9mY3xa.s 			page 83


 209:..\..\..\liblc3\src/bits.h ****  */
 210:..\..\..\liblc3\src/bits.h **** LC3_HOT static inline void lc3_put_bit(lc3_bits_t *bits, int v)
 211:..\..\..\liblc3\src/bits.h **** {
 212:..\..\..\liblc3\src/bits.h ****     lc3_put_bits(bits, v, 1);
 213:..\..\..\liblc3\src/bits.h **** }
 214:..\..\..\liblc3\src/bits.h **** 
 215:..\..\..\liblc3\src/bits.h **** /**
 216:..\..\..\liblc3\src/bits.h ****  * Put from 1 to 32 bits
 217:..\..\..\liblc3\src/bits.h ****  */
 218:..\..\..\liblc3\src/bits.h **** LC3_HOT static inline void lc3_put_bits(
 219:..\..\..\liblc3\src/bits.h ****     struct lc3_bits *bits, unsigned v, int n)
 220:..\..\..\liblc3\src/bits.h **** {
 221:..\..\..\liblc3\src/bits.h ****     struct lc3_bits_accu *accu = &bits->accu;
 222:..\..\..\liblc3\src/bits.h **** 
 223:..\..\..\liblc3\src/bits.h ****     if (accu->n + n <= LC3_ACCU_BITS) {
 1242              		.loc 2 223 0
 1243 0020 016A     		ldr	r1, [r0, #32]
 1244              	.LVL41:
 1245              	.LBE61:
 1246              	.LBE60:
 135:..\..\..\liblc3\src/bwdet.c ****     int nbits_bw = lc3_bwdet_get_nbits(sr);
 1247              		.loc 1 135 0
 1248 0022 30B4     		push	{r4, r5}
 1249              		.cfi_def_cfa_offset 8
 1250              		.cfi_offset 4, -8
 1251              		.cfi_offset 5, -4
 1252              	.LBB65:
 1253              	.LBB62:
 1254              		.loc 2 223 0
 1255 0024 8D18     		adds	r5, r1, r2
 1256 0026 202D     		cmp	r5, #32
 1257 0028 06DC     		bgt	.L29
 224:..\..\..\liblc3\src/bits.h ****         accu->v |= v << accu->n;
 1258              		.loc 2 224 0
 1259 002a C269     		ldr	r2, [r0, #28]
 1260              	.LVL42:
 225:..\..\..\liblc3\src/bits.h ****         accu->n += n;
 1261              		.loc 2 225 0
 1262 002c 0562     		str	r5, [r0, #32]
 224:..\..\..\liblc3\src/bits.h ****         accu->v |= v << accu->n;
 1263              		.loc 2 224 0
 1264 002e 8B40     		lsls	r3, r3, r1
 1265              	.LVL43:
 1266 0030 1343     		orrs	r3, r3, r2
 1267 0032 C361     		str	r3, [r0, #28]
 1268              	.LBE62:
 1269              	.LBE65:
 1270              		.loc 1 139 0
 1271 0034 30BC     		pop	{r4, r5}
 1272              		.cfi_remember_state
 1273              		.cfi_restore 5
 1274              		.cfi_restore 4
 1275              		.cfi_def_cfa_offset 0
 1276 0036 7047     		bx	lr
 1277              	.LVL44:
 1278              	.L29:
 1279              		.cfi_restore_state
ARM GAS  C:\Users\rdn\AppData\Local\Temp\cc9mY3xa.s 			page 84


 1280              	.LBB66:
 1281              	.LBB63:
 226:..\..\..\liblc3\src/bits.h ****     } else {
 227:..\..\..\liblc3\src/bits.h ****         lc3_put_bits_generic(bits, v, n);
 1282              		.loc 2 227 0
 1283 0038 1946     		mov	r1, r3
 1284              	.LBE63:
 1285              	.LBE66:
 1286              		.loc 1 139 0
 1287 003a 30BC     		pop	{r4, r5}
 1288              		.cfi_restore 5
 1289              		.cfi_restore 4
 1290              		.cfi_def_cfa_offset 0
 1291              	.LBB67:
 1292              	.LBB64:
 1293              		.loc 2 227 0
 1294 003c FFF7FEBF 		b	lc3_put_bits_generic
 1295              	.LVL45:
 1296              	.LBE64:
 1297              	.LBE67:
 1298              		.cfi_endproc
 1299              	.LFE15:
 1300              		.size	lc3_bwdet_put_bw, .-lc3_bwdet_put_bw
 1301              		.section	.text.lc3_bwdet_get_bw,"ax",%progbits
 1302              		.align	2
 1303              		.global	lc3_bwdet_get_bw
 1304              		.thumb
 1305              		.thumb_func
 1306              		.type	lc3_bwdet_get_bw, %function
 1307              	lc3_bwdet_get_bw:
 1308              	.LFB16:
 140:..\..\..\liblc3\src/bwdet.c **** 
 141:..\..\..\liblc3\src/bwdet.c **** /**
 142:..\..\..\liblc3\src/bwdet.c ****  * Get bandwidth indication
 143:..\..\..\liblc3\src/bwdet.c ****  */
 144:..\..\..\liblc3\src/bwdet.c **** int lc3_bwdet_get_bw(lc3_bits_t *bits,
 145:..\..\..\liblc3\src/bwdet.c ****     enum lc3_srate sr, enum lc3_bandwidth *bw)
 146:..\..\..\liblc3\src/bwdet.c **** {
 1309              		.loc 1 146 0
 1310              		.cfi_startproc
 1311              		@ args = 0, pretend = 0, frame = 0
 1312              		@ frame_needed = 0, uses_anonymous_args = 0
 1313              	.LVL46:
 1314              	.LBB77:
 1315              	.LBB78:
 127:..\..\..\liblc3\src/bwdet.c **** }
 1316              		.loc 1 127 0
 1317 0000 0429     		cmp	r1, #4
 1318 0002 20D8     		bhi	.L48
 1319              	.LVL47:
 1320              	.LBB79:
 1321              	.LBB80:
 1322 0004 0129     		cmp	r1, #1
 1323              	.LBE80:
 1324              	.LBE79:
 1325              	.LBE78:
 1326              	.LBE77:
ARM GAS  C:\Users\rdn\AppData\Local\Temp\cc9mY3xa.s 			page 85


 1327              		.loc 1 146 0
 1328 0006 F8B5     		push	{r3, r4, r5, r6, r7, lr}
 1329              		.cfi_def_cfa_offset 24
 1330              		.cfi_offset 3, -24
 1331              		.cfi_offset 4, -20
 1332              		.cfi_offset 5, -16
 1333              		.cfi_offset 6, -12
 1334              		.cfi_offset 7, -8
 1335              		.cfi_offset 14, -4
 1336              	.LBB84:
 1337              	.LBB83:
 1338              	.LBB82:
 1339              	.LBB81:
 127:..\..\..\liblc3\src/bwdet.c **** }
 1340              		.loc 1 127 0
 1341 0008 94BF     		ite	ls
 1342 000a 0023     		movls	r3, #0
 1343 000c 0123     		movhi	r3, #1
 1344 000e 0029     		cmp	r1, #0
 1345 0010 18BF     		it	ne
 1346 0012 0133     		addne	r3, r3, #1
 1347 0014 0329     		cmp	r1, #3
 1348 0016 88BF     		it	hi
 1349 0018 0133     		addhi	r3, r3, #1
 1350              	.LVL48:
 1351              	.LBE81:
 1352              	.LBE82:
 1353              	.LBE83:
 1354              	.LBE84:
 147:..\..\..\liblc3\src/bwdet.c ****     enum lc3_bandwidth max_bw = (enum lc3_bandwidth)sr;
 148:..\..\..\liblc3\src/bwdet.c ****     int nbits_bw = lc3_bwdet_get_nbits(sr);
 149:..\..\..\liblc3\src/bwdet.c **** 
 150:..\..\..\liblc3\src/bwdet.c ****     *bw = nbits_bw <= 0 ? max_bw :
 1355              		.loc 1 150 0
 1356 001a FBB1     		cbz	r3, .L38
 1357 001c 1646     		mov	r6, r2
 1358              	.LBB85:
 1359              	.LBB86:
 228:..\..\..\liblc3\src/bits.h ****     }
 229:..\..\..\liblc3\src/bits.h **** }
 230:..\..\..\liblc3\src/bits.h **** 
 231:..\..\..\liblc3\src/bits.h **** /**
 232:..\..\..\liblc3\src/bits.h ****  * Get a bit
 233:..\..\..\liblc3\src/bits.h ****  */
 234:..\..\..\liblc3\src/bits.h **** LC3_HOT static inline int lc3_get_bit(lc3_bits_t *bits)
 235:..\..\..\liblc3\src/bits.h **** {
 236:..\..\..\liblc3\src/bits.h ****     return lc3_get_bits(bits, 1);
 237:..\..\..\liblc3\src/bits.h **** }
 238:..\..\..\liblc3\src/bits.h **** 
 239:..\..\..\liblc3\src/bits.h **** /**
 240:..\..\..\liblc3\src/bits.h ****  * Get from 1 to 32 bits
 241:..\..\..\liblc3\src/bits.h ****  */
 242:..\..\..\liblc3\src/bits.h **** LC3_HOT static inline unsigned lc3_get_bits(struct lc3_bits *bits, int n)
 243:..\..\..\liblc3\src/bits.h **** {
 244:..\..\..\liblc3\src/bits.h ****     struct lc3_bits_accu *accu = &bits->accu;
 245:..\..\..\liblc3\src/bits.h **** 
 246:..\..\..\liblc3\src/bits.h ****     if (accu->n + n <= LC3_ACCU_BITS) {
ARM GAS  C:\Users\rdn\AppData\Local\Temp\cc9mY3xa.s 			page 86


 1360              		.loc 2 246 0
 1361 001e 026A     		ldr	r2, [r0, #32]
 1362              	.LVL49:
 1363 0020 0C46     		mov	r4, r1
 1364              	.LVL50:
 1365 0022 9918     		adds	r1, r3, r2
 1366              	.LVL51:
 1367 0024 2029     		cmp	r1, #32
 1368 0026 11DC     		bgt	.L39
 1369              	.LBB87:
 247:..\..\..\liblc3\src/bits.h ****         int v = (accu->v >> accu->n) & ((1u << n) - 1);
 1370              		.loc 2 247 0
 1371 0028 C769     		ldr	r7, [r0, #28]
 248:..\..\..\liblc3\src/bits.h ****         return (accu->n += n), v;
 1372              		.loc 2 248 0
 1373 002a 0162     		str	r1, [r0, #32]
 247:..\..\..\liblc3\src/bits.h ****         int v = (accu->v >> accu->n) & ((1u << n) - 1);
 1374              		.loc 2 247 0
 1375 002c 0120     		movs	r0, #1
 1376              	.LVL52:
 1377 002e 00FA03F1 		lsl	r1, r0, r3
 1378 0032 0139     		subs	r1, r1, #1
 1379 0034 27FA02F0 		lsr	r0, r7, r2
 1380 0038 0840     		ands	r0, r0, r1
 1381              	.LVL53:
 1382              	.L40:
 1383              	.LBE87:
 1384              	.LBE86:
 1385              	.LBE85:
 1386              		.loc 1 150 0
 1387 003a C0B2     		uxtb	r0, r0
 151:..\..\..\liblc3\src/bwdet.c ****         (enum lc3_bandwidth)lc3_get_bits(bits, nbits_bw);
 152:..\..\..\liblc3\src/bwdet.c **** 
 153:..\..\..\liblc3\src/bwdet.c ****     return *bw > max_bw ? (*bw = max_bw), -1 : 0;
 1388              		.loc 1 153 0
 1389 003c 8442     		cmp	r4, r0
 150:..\..\..\liblc3\src/bwdet.c ****         (enum lc3_bandwidth)lc3_get_bits(bits, nbits_bw);
 1390              		.loc 1 150 0
 1391 003e 3070     		strb	r0, [r6]
 1392              		.loc 1 153 0
 1393 0040 08D3     		bcc	.L50
 1394              	.LVL54:
 1395              	.L49:
 1396 0042 0020     		movs	r0, #0
 154:..\..\..\liblc3\src/bwdet.c **** }
 1397              		.loc 1 154 0
 1398 0044 F8BD     		pop	{r3, r4, r5, r6, r7, pc}
 1399              	.LVL55:
 1400              	.L48:
 1401              		.cfi_def_cfa_offset 0
 1402              		.cfi_restore 3
 1403              		.cfi_restore 4
 1404              		.cfi_restore 5
 1405              		.cfi_restore 6
 1406              		.cfi_restore 7
 1407              		.cfi_restore 14
 150:..\..\..\liblc3\src/bwdet.c ****         (enum lc3_bandwidth)lc3_get_bits(bits, nbits_bw);
ARM GAS  C:\Users\rdn\AppData\Local\Temp\cc9mY3xa.s 			page 87


 1408              		.loc 1 150 0
 1409 0046 1170     		strb	r1, [r2]
 153:..\..\..\liblc3\src/bwdet.c **** }
 1410              		.loc 1 153 0
 1411 0048 0020     		movs	r0, #0
 1412              	.LVL56:
 1413              		.loc 1 154 0
 1414 004a 7047     		bx	lr
 1415              	.LVL57:
 1416              	.L39:
 1417              		.cfi_def_cfa_offset 24
 1418              		.cfi_offset 3, -24
 1419              		.cfi_offset 4, -20
 1420              		.cfi_offset 5, -16
 1421              		.cfi_offset 6, -12
 1422              		.cfi_offset 7, -8
 1423              		.cfi_offset 14, -4
 1424              	.LBB89:
 1425              	.LBB88:
 249:..\..\..\liblc3\src/bits.h ****     }
 250:..\..\..\liblc3\src/bits.h ****     else {
 251:..\..\..\liblc3\src/bits.h ****         return lc3_get_bits_generic(bits, n);
 1426              		.loc 2 251 0
 1427 004c 1946     		mov	r1, r3
 1428 004e FFF7FEFF 		bl	lc3_get_bits_generic
 1429              	.LVL58:
 1430 0052 F2E7     		b	.L40
 1431              	.LVL59:
 1432              	.L50:
 1433              	.LBE88:
 1434              	.LBE89:
 153:..\..\..\liblc3\src/bwdet.c **** }
 1435              		.loc 1 153 0 discriminator 1
 1436 0054 3470     		strb	r4, [r6]
 1437 0056 4FF0FF30 		mov	r0, #-1
 1438 005a F8BD     		pop	{r3, r4, r5, r6, r7, pc}
 1439              	.LVL60:
 1440              	.L38:
 150:..\..\..\liblc3\src/bwdet.c ****         (enum lc3_bandwidth)lc3_get_bits(bits, nbits_bw);
 1441              		.loc 1 150 0
 1442 005c 1170     		strb	r1, [r2]
 1443 005e F0E7     		b	.L49
 1444              		.cfi_endproc
 1445              	.LFE16:
 1446              		.size	lc3_bwdet_get_bw, .-lc3_bwdet_get_bw
 1447              		.section	.rodata
 1448              		.align	2
 1449              		.set	.LANCHOR0,. + 0
 1450              		.type	bws_table.5458, %object
 1451              		.size	bws_table.5458, 16
 1452              	bws_table.5458:
 1453 0000 60000000 		.word	bws_table_2m5.5454
 1454 0004 A0000000 		.word	bws_table_5m.5455
 1455 0008 E0000000 		.word	bws_table_7m5.5456
 1456 000c 20010000 		.word	bws_table_10m.5457
 1457              		.type	l_table.5459, %object
 1458              		.size	l_table.5459, 64
ARM GAS  C:\Users\rdn\AppData\Local\Temp\cc9mY3xa.s 			page 88


 1459              	l_table.5459:
 1460 0010 04000000 		.word	4
 1461 0014 04000000 		.word	4
 1462 0018 03000000 		.word	3
 1463 001c 01000000 		.word	1
 1464 0020 04000000 		.word	4
 1465 0024 04000000 		.word	4
 1466 0028 03000000 		.word	3
 1467 002c 01000000 		.word	1
 1468 0030 04000000 		.word	4
 1469 0034 04000000 		.word	4
 1470 0038 03000000 		.word	3
 1471 003c 02000000 		.word	2
 1472 0040 04000000 		.word	4
 1473 0044 04000000 		.word	4
 1474 0048 03000000 		.word	3
 1475 004c 01000000 		.word	1
 1476              	.LC0:
 1477 0050 72FBFC41 		.word	1107098482
 1478 0054 B7864743 		.word	1128761015
 1479 0058 0000C842 		.word	1120403456
 1480 005c 0000C842 		.word	1120403456
 1481              		.type	bws_table_2m5.5454, %object
 1482              		.size	bws_table_2m5.5454, 64
 1483              	bws_table_2m5.5454:
 1484 0060 18       		.byte	24
 1485 0061 23       		.byte	35
 1486 0062 0000     		.space	2
 1487 0064 00000000 		.space	12
 1487      00000000 
 1487      00000000 
 1488 0070 18       		.byte	24
 1489 0071 21       		.byte	33
 1490 0072 0000     		.space	2
 1491 0074 23       		.byte	35
 1492 0075 28       		.byte	40
 1493 0076 0000     		.space	2
 1494 0078 00000000 		.space	8
 1494      00000000 
 1495 0080 18       		.byte	24
 1496 0081 20       		.byte	32
 1497 0082 0000     		.space	2
 1498 0084 21       		.byte	33
 1499 0085 27       		.byte	39
 1500 0086 0000     		.space	2
 1501 0088 27       		.byte	39
 1502 0089 2B       		.byte	43
 1503 008a 0000     		.space	2
 1504 008c 00000000 		.space	4
 1505 0090 16       		.byte	22
 1506 0091 1E       		.byte	30
 1507 0092 0000     		.space	2
 1508 0094 1F       		.byte	31
 1509 0095 24       		.byte	36
 1510 0096 0000     		.space	2
 1511 0098 25       		.byte	37
 1512 0099 29       		.byte	41
ARM GAS  C:\Users\rdn\AppData\Local\Temp\cc9mY3xa.s 			page 89


 1513 009a 0000     		.space	2
 1514 009c 29       		.byte	41
 1515 009d 2C       		.byte	44
 1516 009e 0000     		.space	2
 1517              		.type	bws_table_5m.5455, %object
 1518              		.size	bws_table_5m.5455, 64
 1519              	bws_table_5m.5455:
 1520 00a0 27       		.byte	39
 1521 00a1 32       		.byte	50
 1522 00a2 0000     		.space	2
 1523 00a4 00000000 		.space	12
 1523      00000000 
 1523      00000000 
 1524 00b0 23       		.byte	35
 1525 00b1 2D       		.byte	45
 1526 00b2 0000     		.space	2
 1527 00b4 2F       		.byte	47
 1528 00b5 34       		.byte	52
 1529 00b6 0000     		.space	2
 1530 00b8 00000000 		.space	8
 1530      00000000 
 1531 00c0 22       		.byte	34
 1532 00c1 2B       		.byte	43
 1533 00c2 0000     		.space	2
 1534 00c4 2C       		.byte	44
 1535 00c5 32       		.byte	50
 1536 00c6 0000     		.space	2
 1537 00c8 32       		.byte	50
 1538 00c9 36       		.byte	54
 1539 00ca 0000     		.space	2
 1540 00cc 00000000 		.space	4
 1541 00d0 20       		.byte	32
 1542 00d1 29       		.byte	41
 1543 00d2 0000     		.space	2
 1544 00d4 2A       		.byte	42
 1545 00d5 2F       		.byte	47
 1546 00d6 0000     		.space	2
 1547 00d8 30       		.byte	48
 1548 00d9 34       		.byte	52
 1549 00da 0000     		.space	2
 1550 00dc 34       		.byte	52
 1551 00dd 37       		.byte	55
 1552 00de 0000     		.space	2
 1553              		.type	bws_table_7m5.5456, %object
 1554              		.size	bws_table_7m5.5456, 64
 1555              	bws_table_7m5.5456:
 1556 00e0 33       		.byte	51
 1557 00e1 40       		.byte	64
 1558 00e2 0000     		.space	2
 1559 00e4 00000000 		.space	12
 1559      00000000 
 1559      00000000 
 1560 00f0 2D       		.byte	45
 1561 00f1 38       		.byte	56
 1562 00f2 0000     		.space	2
 1563 00f4 3A       		.byte	58
 1564 00f5 40       		.byte	64
ARM GAS  C:\Users\rdn\AppData\Local\Temp\cc9mY3xa.s 			page 90


 1565 00f6 0000     		.space	2
 1566 00f8 00000000 		.space	8
 1566      00000000 
 1567 0100 2A       		.byte	42
 1568 0101 34       		.byte	52
 1569 0102 0000     		.space	2
 1570 0104 35       		.byte	53
 1571 0105 3B       		.byte	59
 1572 0106 0000     		.space	2
 1573 0108 3C       		.byte	60
 1574 0109 40       		.byte	64
 1575 010a 0000     		.space	2
 1576 010c 00000000 		.space	4
 1577 0110 28       		.byte	40
 1578 0111 31       		.byte	49
 1579 0112 0000     		.space	2
 1580 0114 33       		.byte	51
 1581 0115 38       		.byte	56
 1582 0116 0000     		.space	2
 1583 0118 39       		.byte	57
 1584 0119 3D       		.byte	61
 1585 011a 0000     		.space	2
 1586 011c 3D       		.byte	61
 1587 011d 40       		.byte	64
 1588 011e 0000     		.space	2
 1589              		.type	bws_table_10m.5457, %object
 1590              		.size	bws_table_10m.5457, 64
 1591              	bws_table_10m.5457:
 1592 0120 35       		.byte	53
 1593 0121 40       		.byte	64
 1594 0122 0000     		.space	2
 1595 0124 00000000 		.space	12
 1595      00000000 
 1595      00000000 
 1596 0130 2F       		.byte	47
 1597 0131 39       		.byte	57
 1598 0132 0000     		.space	2
 1599 0134 3B       		.byte	59
 1600 0135 40       		.byte	64
 1601 0136 0000     		.space	2
 1602 0138 00000000 		.space	8
 1602      00000000 
 1603 0140 2C       		.byte	44
 1604 0141 35       		.byte	53
 1605 0142 0000     		.space	2
 1606 0144 36       		.byte	54
 1607 0145 3C       		.byte	60
 1608 0146 0000     		.space	2
 1609 0148 3C       		.byte	60
 1610 0149 40       		.byte	64
 1611 014a 0000     		.space	2
 1612 014c 00000000 		.space	4
 1613 0150 29       		.byte	41
 1614 0151 32       		.byte	50
 1615 0152 0000     		.space	2
 1616 0154 33       		.byte	51
 1617 0155 38       		.byte	56
ARM GAS  C:\Users\rdn\AppData\Local\Temp\cc9mY3xa.s 			page 91


 1618 0156 0000     		.space	2
 1619 0158 39       		.byte	57
 1620 0159 3D       		.byte	61
 1621 015a 0000     		.space	2
 1622 015c 3D       		.byte	61
 1623 015d 40       		.byte	64
 1624 015e 0000     		.space	2
 1625              		.text
 1626              	.Letext0:
 1627              		.file 3 "c:\\program files (x86)\\cypress\\psoc creator\\4.4\\psoc creator\\import\\gnu\\arm\\5.4.
 1628              		.file 4 "c:\\program files (x86)\\cypress\\psoc creator\\4.4\\psoc creator\\import\\gnu\\arm\\5.4.
 1629              		.file 5 ".\\liblc3\\include/lc3_private.h"
 1630              		.file 6 "..\\..\\..\\liblc3\\src\\common.h"
 1631              		.section	.debug_info,"",%progbits
 1632              	.Ldebug_info0:
 1633 0000 9A090000 		.4byte	0x99a
 1634 0004 0400     		.2byte	0x4
 1635 0006 00000000 		.4byte	.Ldebug_abbrev0
 1636 000a 04       		.byte	0x4
 1637 000b 01       		.uleb128 0x1
 1638 000c 00020000 		.4byte	.LASF78
 1639 0010 0C       		.byte	0xc
 1640 0011 DF030000 		.4byte	.LASF79
 1641 0015 6B040000 		.4byte	.LASF80
 1642 0019 A8000000 		.4byte	.Ldebug_ranges0+0xa8
 1643 001d 00000000 		.4byte	0
 1644 0021 00000000 		.4byte	.Ldebug_line0
 1645 0025 02       		.uleb128 0x2
 1646 0026 04       		.byte	0x4
 1647 0027 04       		.byte	0x4
 1648 0028 59010000 		.4byte	.LASF0
 1649 002c 02       		.uleb128 0x2
 1650 002d 01       		.byte	0x1
 1651 002e 06       		.byte	0x6
 1652 002f F1020000 		.4byte	.LASF1
 1653 0033 03       		.uleb128 0x3
 1654 0034 A7010000 		.4byte	.LASF10
 1655 0038 03       		.byte	0x3
 1656 0039 1D       		.byte	0x1d
 1657 003a 3E000000 		.4byte	0x3e
 1658 003e 02       		.uleb128 0x2
 1659 003f 01       		.byte	0x1
 1660 0040 08       		.byte	0x8
 1661 0041 D9010000 		.4byte	.LASF2
 1662 0045 02       		.uleb128 0x2
 1663 0046 02       		.byte	0x2
 1664 0047 05       		.byte	0x5
 1665 0048 3D010000 		.4byte	.LASF3
 1666 004c 02       		.uleb128 0x2
 1667 004d 02       		.byte	0x2
 1668 004e 07       		.byte	0x7
 1669 004f CC030000 		.4byte	.LASF4
 1670 0053 02       		.uleb128 0x2
 1671 0054 04       		.byte	0x4
 1672 0055 05       		.byte	0x5
 1673 0056 5E030000 		.4byte	.LASF5
 1674 005a 02       		.uleb128 0x2
ARM GAS  C:\Users\rdn\AppData\Local\Temp\cc9mY3xa.s 			page 92


 1675 005b 04       		.byte	0x4
 1676 005c 07       		.byte	0x7
 1677 005d FB030000 		.4byte	.LASF6
 1678 0061 02       		.uleb128 0x2
 1679 0062 08       		.byte	0x8
 1680 0063 05       		.byte	0x5
 1681 0064 8E000000 		.4byte	.LASF7
 1682 0068 02       		.uleb128 0x2
 1683 0069 08       		.byte	0x8
 1684 006a 07       		.byte	0x7
 1685 006b FD020000 		.4byte	.LASF8
 1686 006f 04       		.uleb128 0x4
 1687 0070 04       		.byte	0x4
 1688 0071 05       		.byte	0x5
 1689 0072 696E7400 		.ascii	"int\000"
 1690 0076 02       		.uleb128 0x2
 1691 0077 04       		.byte	0x4
 1692 0078 07       		.byte	0x7
 1693 0079 14030000 		.4byte	.LASF9
 1694 007d 03       		.uleb128 0x3
 1695 007e E2000000 		.4byte	.LASF11
 1696 0082 04       		.byte	0x4
 1697 0083 18       		.byte	0x18
 1698 0084 33000000 		.4byte	0x33
 1699 0088 05       		.uleb128 0x5
 1700 0089 AD000000 		.4byte	.LASF17
 1701 008d 01       		.byte	0x1
 1702 008e 3E000000 		.4byte	0x3e
 1703 0092 05       		.byte	0x5
 1704 0093 3B       		.byte	0x3b
 1705 0094 B7000000 		.4byte	0xb7
 1706 0098 06       		.uleb128 0x6
 1707 0099 3C040000 		.4byte	.LASF12
 1708 009d 00       		.byte	0
 1709 009e 06       		.uleb128 0x6
 1710 009f F7040000 		.4byte	.LASF13
 1711 00a3 01       		.byte	0x1
 1712 00a4 06       		.uleb128 0x6
 1713 00a5 EA000000 		.4byte	.LASF14
 1714 00a9 02       		.byte	0x2
 1715 00aa 06       		.uleb128 0x6
 1716 00ab 32010000 		.4byte	.LASF15
 1717 00af 03       		.byte	0x3
 1718 00b0 06       		.uleb128 0x6
 1719 00b1 B1040000 		.4byte	.LASF16
 1720 00b5 04       		.byte	0x4
 1721 00b6 00       		.byte	0
 1722 00b7 05       		.uleb128 0x5
 1723 00b8 2D000000 		.4byte	.LASF18
 1724 00bc 01       		.byte	0x1
 1725 00bd 3E000000 		.4byte	0x3e
 1726 00c1 05       		.byte	0x5
 1727 00c2 49       		.byte	0x49
 1728 00c3 F8000000 		.4byte	0xf8
 1729 00c7 06       		.uleb128 0x6
 1730 00c8 01010000 		.4byte	.LASF19
 1731 00cc 00       		.byte	0
ARM GAS  C:\Users\rdn\AppData\Local\Temp\cc9mY3xa.s 			page 93


 1732 00cd 06       		.uleb128 0x6
 1733 00ce 7B030000 		.4byte	.LASF20
 1734 00d2 01       		.byte	0x1
 1735 00d3 06       		.uleb128 0x6
 1736 00d4 1A000000 		.4byte	.LASF21
 1737 00d8 02       		.byte	0x2
 1738 00d9 06       		.uleb128 0x6
 1739 00da 87010000 		.4byte	.LASF22
 1740 00de 03       		.byte	0x3
 1741 00df 06       		.uleb128 0x6
 1742 00e0 A3040000 		.4byte	.LASF23
 1743 00e4 04       		.byte	0x4
 1744 00e5 06       		.uleb128 0x6
 1745 00e6 B4000000 		.4byte	.LASF24
 1746 00ea 05       		.byte	0x5
 1747 00eb 06       		.uleb128 0x6
 1748 00ec 21010000 		.4byte	.LASF25
 1749 00f0 06       		.byte	0x6
 1750 00f1 06       		.uleb128 0x6
 1751 00f2 4B030000 		.4byte	.LASF26
 1752 00f6 07       		.byte	0x7
 1753 00f7 00       		.byte	0
 1754 00f8 02       		.uleb128 0x2
 1755 00f9 01       		.byte	0x1
 1756 00fa 02       		.byte	0x2
 1757 00fb 97030000 		.4byte	.LASF27
 1758 00ff 02       		.uleb128 0x2
 1759 0100 04       		.byte	0x4
 1760 0101 07       		.byte	0x7
 1761 0102 61000000 		.4byte	.LASF28
 1762 0106 02       		.uleb128 0x2
 1763 0107 08       		.byte	0x8
 1764 0108 04       		.byte	0x4
 1765 0109 E7010000 		.4byte	.LASF29
 1766 010d 02       		.uleb128 0x2
 1767 010e 01       		.byte	0x1
 1768 010f 08       		.byte	0x8
 1769 0110 59030000 		.4byte	.LASF30
 1770 0114 02       		.uleb128 0x2
 1771 0115 08       		.byte	0x8
 1772 0116 04       		.byte	0x4
 1773 0117 0D040000 		.4byte	.LASF31
 1774 011b 05       		.uleb128 0x5
 1775 011c 89030000 		.4byte	.LASF32
 1776 0120 01       		.byte	0x1
 1777 0121 3E000000 		.4byte	0x3e
 1778 0125 06       		.byte	0x6
 1779 0126 76       		.byte	0x76
 1780 0127 5C010000 		.4byte	0x15c
 1781 012b 06       		.uleb128 0x6
 1782 012c D5040000 		.4byte	.LASF33
 1783 0130 00       		.byte	0
 1784 0131 06       		.uleb128 0x6
 1785 0132 76010000 		.4byte	.LASF34
 1786 0136 01       		.byte	0x1
 1787 0137 06       		.uleb128 0x6
 1788 0138 58040000 		.4byte	.LASF35
ARM GAS  C:\Users\rdn\AppData\Local\Temp\cc9mY3xa.s 			page 94


 1789 013c 02       		.byte	0x2
 1790 013d 06       		.uleb128 0x6
 1791 013e 4F000000 		.4byte	.LASF36
 1792 0142 03       		.byte	0x3
 1793 0143 06       		.uleb128 0x6
 1794 0144 47040000 		.4byte	.LASF37
 1795 0148 04       		.byte	0x4
 1796 0149 06       		.uleb128 0x6
 1797 014a DD020000 		.4byte	.LASF38
 1798 014e 05       		.byte	0x5
 1799 014f 06       		.uleb128 0x6
 1800 0150 28040000 		.4byte	.LASF39
 1801 0154 06       		.byte	0x6
 1802 0155 06       		.uleb128 0x6
 1803 0156 47010000 		.4byte	.LASF40
 1804 015a 07       		.byte	0x7
 1805 015b 00       		.byte	0
 1806 015c 05       		.uleb128 0x5
 1807 015d 7A000000 		.4byte	.LASF41
 1808 0161 01       		.byte	0x1
 1809 0162 3E000000 		.4byte	0x3e
 1810 0166 02       		.byte	0x2
 1811 0167 45       		.byte	0x45
 1812 0168 79010000 		.4byte	0x179
 1813 016c 06       		.uleb128 0x6
 1814 016d C6010000 		.4byte	.LASF42
 1815 0171 00       		.byte	0
 1816 0172 06       		.uleb128 0x6
 1817 0173 67030000 		.4byte	.LASF43
 1818 0177 01       		.byte	0x1
 1819 0178 00       		.byte	0
 1820 0179 07       		.uleb128 0x7
 1821 017a D4000000 		.4byte	.LASF45
 1822 017e 0C       		.byte	0xc
 1823 017f 02       		.byte	0x2
 1824 0180 5E       		.byte	0x5e
 1825 0181 A6010000 		.4byte	0x1a6
 1826 0185 08       		.uleb128 0x8
 1827 0186 7600     		.ascii	"v\000"
 1828 0188 02       		.byte	0x2
 1829 0189 5F       		.byte	0x5f
 1830 018a 76000000 		.4byte	0x76
 1831 018e 00       		.byte	0
 1832 018f 08       		.uleb128 0x8
 1833 0190 6E00     		.ascii	"n\000"
 1834 0192 02       		.byte	0x2
 1835 0193 60       		.byte	0x60
 1836 0194 6F000000 		.4byte	0x6f
 1837 0198 04       		.byte	0x4
 1838 0199 09       		.uleb128 0x9
 1839 019a 88000000 		.4byte	.LASF44
 1840 019e 02       		.byte	0x2
 1841 019f 60       		.byte	0x60
 1842 01a0 6F000000 		.4byte	0x6f
 1843 01a4 08       		.byte	0x8
 1844 01a5 00       		.byte	0
 1845 01a6 07       		.uleb128 0x7
ARM GAS  C:\Users\rdn\AppData\Local\Temp\cc9mY3xa.s 			page 95


 1846 01a7 A1000000 		.4byte	.LASF46
 1847 01ab 18       		.byte	0x18
 1848 01ac 02       		.byte	0x2
 1849 01ad 65       		.byte	0x65
 1850 01ae FB010000 		.4byte	0x1fb
 1851 01b2 08       		.uleb128 0x8
 1852 01b3 6C6F7700 		.ascii	"low\000"
 1853 01b7 02       		.byte	0x2
 1854 01b8 66       		.byte	0x66
 1855 01b9 76000000 		.4byte	0x76
 1856 01bd 00       		.byte	0
 1857 01be 09       		.uleb128 0x9
 1858 01bf 49000000 		.4byte	.LASF47
 1859 01c3 02       		.byte	0x2
 1860 01c4 66       		.byte	0x66
 1861 01c5 76000000 		.4byte	0x76
 1862 01c9 04       		.byte	0x4
 1863 01ca 09       		.uleb128 0x9
 1864 01cb 36030000 		.4byte	.LASF48
 1865 01cf 02       		.byte	0x2
 1866 01d0 67       		.byte	0x67
 1867 01d1 6F000000 		.4byte	0x6f
 1868 01d5 08       		.byte	0x8
 1869 01d6 09       		.uleb128 0x9
 1870 01d7 45030000 		.4byte	.LASF49
 1871 01db 02       		.byte	0x2
 1872 01dc 67       		.byte	0x67
 1873 01dd 6F000000 		.4byte	0x6f
 1874 01e1 0C       		.byte	0xc
 1875 01e2 09       		.uleb128 0x9
 1876 01e3 2A030000 		.4byte	.LASF50
 1877 01e7 02       		.byte	0x2
 1878 01e8 67       		.byte	0x67
 1879 01e9 6F000000 		.4byte	0x6f
 1880 01ed 10       		.byte	0x10
 1881 01ee 09       		.uleb128 0x9
 1882 01ef BC040000 		.4byte	.LASF51
 1883 01f3 02       		.byte	0x2
 1884 01f4 68       		.byte	0x68
 1885 01f5 F8000000 		.4byte	0xf8
 1886 01f9 14       		.byte	0x14
 1887 01fa 00       		.byte	0
 1888 01fb 07       		.uleb128 0x7
 1889 01fc 6A000000 		.4byte	.LASF52
 1890 0200 10       		.byte	0x10
 1891 0201 02       		.byte	0x2
 1892 0202 6B       		.byte	0x6b
 1893 0203 38020000 		.4byte	0x238
 1894 0207 09       		.uleb128 0x9
 1895 0208 70010000 		.4byte	.LASF53
 1896 020c 02       		.byte	0x2
 1897 020d 6C       		.byte	0x6c
 1898 020e 38020000 		.4byte	0x238
 1899 0212 00       		.byte	0
 1900 0213 08       		.uleb128 0x8
 1901 0214 656E6400 		.ascii	"end\000"
 1902 0218 02       		.byte	0x2
ARM GAS  C:\Users\rdn\AppData\Local\Temp\cc9mY3xa.s 			page 96


 1903 0219 6C       		.byte	0x6c
 1904 021a 38020000 		.4byte	0x238
 1905 021e 04       		.byte	0x4
 1906 021f 09       		.uleb128 0x9
 1907 0220 28000000 		.4byte	.LASF54
 1908 0224 02       		.byte	0x2
 1909 0225 6D       		.byte	0x6d
 1910 0226 43020000 		.4byte	0x243
 1911 022a 08       		.byte	0x8
 1912 022b 09       		.uleb128 0x9
 1913 022c 66010000 		.4byte	.LASF55
 1914 0230 02       		.byte	0x2
 1915 0231 6D       		.byte	0x6d
 1916 0232 43020000 		.4byte	0x243
 1917 0236 0C       		.byte	0xc
 1918 0237 00       		.byte	0
 1919 0238 0A       		.uleb128 0xa
 1920 0239 04       		.byte	0x4
 1921 023a 3E020000 		.4byte	0x23e
 1922 023e 0B       		.uleb128 0xb
 1923 023f 7D000000 		.4byte	0x7d
 1924 0243 0A       		.uleb128 0xa
 1925 0244 04       		.byte	0x4
 1926 0245 7D000000 		.4byte	0x7d
 1927 0249 07       		.uleb128 0x7
 1928 024a 3C030000 		.4byte	.LASF56
 1929 024e 38       		.byte	0x38
 1930 024f 02       		.byte	0x2
 1931 0250 70       		.byte	0x70
 1932 0251 85020000 		.4byte	0x285
 1933 0255 09       		.uleb128 0x9
 1934 0256 9C000000 		.4byte	.LASF57
 1935 025a 02       		.byte	0x2
 1936 025b 71       		.byte	0x71
 1937 025c 5C010000 		.4byte	0x15c
 1938 0260 00       		.byte	0
 1939 0261 08       		.uleb128 0x8
 1940 0262 616300   		.ascii	"ac\000"
 1941 0265 02       		.byte	0x2
 1942 0266 72       		.byte	0x72
 1943 0267 A6010000 		.4byte	0x1a6
 1944 026b 04       		.byte	0x4
 1945 026c 09       		.uleb128 0x9
 1946 026d F5000000 		.4byte	.LASF58
 1947 0271 02       		.byte	0x2
 1948 0272 73       		.byte	0x73
 1949 0273 79010000 		.4byte	0x179
 1950 0277 1C       		.byte	0x1c
 1951 0278 09       		.uleb128 0x9
 1952 0279 C5030000 		.4byte	.LASF59
 1953 027d 02       		.byte	0x2
 1954 027e 74       		.byte	0x74
 1955 027f FB010000 		.4byte	0x1fb
 1956 0283 28       		.byte	0x28
 1957 0284 00       		.byte	0
 1958 0285 03       		.uleb128 0x3
 1959 0286 37000000 		.4byte	.LASF60
ARM GAS  C:\Users\rdn\AppData\Local\Temp\cc9mY3xa.s 			page 97


 1960 028a 02       		.byte	0x2
 1961 028b 75       		.byte	0x75
 1962 028c 49020000 		.4byte	0x249
 1963 0290 0C       		.uleb128 0xc
 1964 0291 FA000000 		.4byte	.LASF73
 1965 0295 06       		.byte	0x6
 1966 0296 6D       		.byte	0x6d
 1967 0297 F8000000 		.4byte	0xf8
 1968 029b 03       		.byte	0x3
 1969 029c AB020000 		.4byte	0x2ab
 1970 02a0 0D       		.uleb128 0xd
 1971 02a1 737200   		.ascii	"sr\000"
 1972 02a4 06       		.byte	0x6
 1973 02a5 6D       		.byte	0x6d
 1974 02a6 B7000000 		.4byte	0xb7
 1975 02aa 00       		.byte	0
 1976 02ab 0E       		.uleb128 0xe
 1977 02ac B7030000 		.4byte	.LASF69
 1978 02b0 01       		.byte	0x1
 1979 02b1 19       		.byte	0x19
 1980 02b2 1B010000 		.4byte	0x11b
 1981 02b6 01       		.byte	0x1
 1982 02b7 1C050000 		.4byte	0x51c
 1983 02bb 0D       		.uleb128 0xd
 1984 02bc 647400   		.ascii	"dt\000"
 1985 02bf 01       		.byte	0x1
 1986 02c0 1A       		.byte	0x1a
 1987 02c1 88000000 		.4byte	0x88
 1988 02c5 0D       		.uleb128 0xd
 1989 02c6 737200   		.ascii	"sr\000"
 1990 02c9 01       		.byte	0x1
 1991 02ca 1A       		.byte	0x1a
 1992 02cb B7000000 		.4byte	0xb7
 1993 02cf 0D       		.uleb128 0xd
 1994 02d0 6500     		.ascii	"e\000"
 1995 02d2 01       		.byte	0x1
 1996 02d3 1A       		.byte	0x1a
 1997 02d4 1C050000 		.4byte	0x51c
 1998 02d8 07       		.uleb128 0x7
 1999 02d9 42000000 		.4byte	.LASF61
 2000 02dd 04       		.byte	0x4
 2001 02de 01       		.byte	0x1
 2002 02df 1E       		.byte	0x1e
 2003 02e0 01030000 		.4byte	0x301
 2004 02e4 0F       		.uleb128 0xf
 2005 02e5 697300   		.ascii	"is\000"
 2006 02e8 01       		.byte	0x1
 2007 02e9 1E       		.byte	0x1e
 2008 02ea 6F000000 		.4byte	0x6f
 2009 02ee 04       		.byte	0x4
 2010 02ef 08       		.byte	0x8
 2011 02f0 18       		.byte	0x18
 2012 02f1 00       		.byte	0
 2013 02f2 0F       		.uleb128 0xf
 2014 02f3 696500   		.ascii	"ie\000"
 2015 02f6 01       		.byte	0x1
 2016 02f7 1E       		.byte	0x1e
ARM GAS  C:\Users\rdn\AppData\Local\Temp\cc9mY3xa.s 			page 98


 2017 02f8 6F000000 		.4byte	0x6f
 2018 02fc 04       		.byte	0x4
 2019 02fd 08       		.byte	0x8
 2020 02fe 10       		.byte	0x10
 2021 02ff 00       		.byte	0
 2022 0300 00       		.byte	0
 2023 0301 0B       		.uleb128 0xb
 2024 0302 D8020000 		.4byte	0x2d8
 2025 0306 10       		.uleb128 0x10
 2026 0307 0E010000 		.4byte	.LASF62
 2027 030b 01       		.byte	0x1
 2028 030c 22       		.byte	0x22
 2029 030d 3D050000 		.4byte	0x53d
 2030 0311 40       		.byte	0x40
 2031 0312 18       		.byte	0x18
 2032 0313 23       		.byte	0x23
 2033 0314 00       		.byte	0
 2034 0315 00       		.byte	0
 2035 0316 00       		.byte	0
 2036 0317 00       		.byte	0
 2037 0318 00       		.byte	0
 2038 0319 00       		.byte	0
 2039 031a 00       		.byte	0
 2040 031b 00       		.byte	0
 2041 031c 00       		.byte	0
 2042 031d 00       		.byte	0
 2043 031e 00       		.byte	0
 2044 031f 00       		.byte	0
 2045 0320 00       		.byte	0
 2046 0321 00       		.byte	0
 2047 0322 18       		.byte	0x18
 2048 0323 21       		.byte	0x21
 2049 0324 00       		.byte	0
 2050 0325 00       		.byte	0
 2051 0326 23       		.byte	0x23
 2052 0327 28       		.byte	0x28
 2053 0328 00       		.byte	0
 2054 0329 00       		.byte	0
 2055 032a 00       		.byte	0
 2056 032b 00       		.byte	0
 2057 032c 00       		.byte	0
 2058 032d 00       		.byte	0
 2059 032e 00       		.byte	0
 2060 032f 00       		.byte	0
 2061 0330 00       		.byte	0
 2062 0331 00       		.byte	0
 2063 0332 18       		.byte	0x18
 2064 0333 20       		.byte	0x20
 2065 0334 00       		.byte	0
 2066 0335 00       		.byte	0
 2067 0336 21       		.byte	0x21
 2068 0337 27       		.byte	0x27
 2069 0338 00       		.byte	0
 2070 0339 00       		.byte	0
 2071 033a 27       		.byte	0x27
 2072 033b 2B       		.byte	0x2b
 2073 033c 00       		.byte	0
ARM GAS  C:\Users\rdn\AppData\Local\Temp\cc9mY3xa.s 			page 99


 2074 033d 00       		.byte	0
 2075 033e 00       		.byte	0
 2076 033f 00       		.byte	0
 2077 0340 00       		.byte	0
 2078 0341 00       		.byte	0
 2079 0342 16       		.byte	0x16
 2080 0343 1E       		.byte	0x1e
 2081 0344 00       		.byte	0
 2082 0345 00       		.byte	0
 2083 0346 1F       		.byte	0x1f
 2084 0347 24       		.byte	0x24
 2085 0348 00       		.byte	0
 2086 0349 00       		.byte	0
 2087 034a 25       		.byte	0x25
 2088 034b 29       		.byte	0x29
 2089 034c 00       		.byte	0
 2090 034d 00       		.byte	0
 2091 034e 29       		.byte	0x29
 2092 034f 2C       		.byte	0x2c
 2093 0350 00       		.byte	0
 2094 0351 00       		.byte	0
 2095 0352 10       		.uleb128 0x10
 2096 0353 95010000 		.4byte	.LASF63
 2097 0357 01       		.byte	0x1
 2098 0358 29       		.byte	0x29
 2099 0359 42050000 		.4byte	0x542
 2100 035d 40       		.byte	0x40
 2101 035e 27       		.byte	0x27
 2102 035f 32       		.byte	0x32
 2103 0360 00       		.byte	0
 2104 0361 00       		.byte	0
 2105 0362 00       		.byte	0
 2106 0363 00       		.byte	0
 2107 0364 00       		.byte	0
 2108 0365 00       		.byte	0
 2109 0366 00       		.byte	0
 2110 0367 00       		.byte	0
 2111 0368 00       		.byte	0
 2112 0369 00       		.byte	0
 2113 036a 00       		.byte	0
 2114 036b 00       		.byte	0
 2115 036c 00       		.byte	0
 2116 036d 00       		.byte	0
 2117 036e 23       		.byte	0x23
 2118 036f 2D       		.byte	0x2d
 2119 0370 00       		.byte	0
 2120 0371 00       		.byte	0
 2121 0372 2F       		.byte	0x2f
 2122 0373 34       		.byte	0x34
 2123 0374 00       		.byte	0
 2124 0375 00       		.byte	0
 2125 0376 00       		.byte	0
 2126 0377 00       		.byte	0
 2127 0378 00       		.byte	0
 2128 0379 00       		.byte	0
 2129 037a 00       		.byte	0
 2130 037b 00       		.byte	0
ARM GAS  C:\Users\rdn\AppData\Local\Temp\cc9mY3xa.s 			page 100


 2131 037c 00       		.byte	0
 2132 037d 00       		.byte	0
 2133 037e 22       		.byte	0x22
 2134 037f 2B       		.byte	0x2b
 2135 0380 00       		.byte	0
 2136 0381 00       		.byte	0
 2137 0382 2C       		.byte	0x2c
 2138 0383 32       		.byte	0x32
 2139 0384 00       		.byte	0
 2140 0385 00       		.byte	0
 2141 0386 32       		.byte	0x32
 2142 0387 36       		.byte	0x36
 2143 0388 00       		.byte	0
 2144 0389 00       		.byte	0
 2145 038a 00       		.byte	0
 2146 038b 00       		.byte	0
 2147 038c 00       		.byte	0
 2148 038d 00       		.byte	0
 2149 038e 20       		.byte	0x20
 2150 038f 29       		.byte	0x29
 2151 0390 00       		.byte	0
 2152 0391 00       		.byte	0
 2153 0392 2A       		.byte	0x2a
 2154 0393 2F       		.byte	0x2f
 2155 0394 00       		.byte	0
 2156 0395 00       		.byte	0
 2157 0396 30       		.byte	0x30
 2158 0397 34       		.byte	0x34
 2159 0398 00       		.byte	0
 2160 0399 00       		.byte	0
 2161 039a 34       		.byte	0x34
 2162 039b 37       		.byte	0x37
 2163 039c 00       		.byte	0
 2164 039d 00       		.byte	0
 2165 039e 10       		.uleb128 0x10
 2166 039f 01050000 		.4byte	.LASF64
 2167 03a3 01       		.byte	0x1
 2168 03a4 32       		.byte	0x32
 2169 03a5 47050000 		.4byte	0x547
 2170 03a9 40       		.byte	0x40
 2171 03aa 33       		.byte	0x33
 2172 03ab 40       		.byte	0x40
 2173 03ac 00       		.byte	0
 2174 03ad 00       		.byte	0
 2175 03ae 00       		.byte	0
 2176 03af 00       		.byte	0
 2177 03b0 00       		.byte	0
 2178 03b1 00       		.byte	0
 2179 03b2 00       		.byte	0
 2180 03b3 00       		.byte	0
 2181 03b4 00       		.byte	0
 2182 03b5 00       		.byte	0
 2183 03b6 00       		.byte	0
 2184 03b7 00       		.byte	0
 2185 03b8 00       		.byte	0
 2186 03b9 00       		.byte	0
 2187 03ba 2D       		.byte	0x2d
ARM GAS  C:\Users\rdn\AppData\Local\Temp\cc9mY3xa.s 			page 101


 2188 03bb 38       		.byte	0x38
 2189 03bc 00       		.byte	0
 2190 03bd 00       		.byte	0
 2191 03be 3A       		.byte	0x3a
 2192 03bf 40       		.byte	0x40
 2193 03c0 00       		.byte	0
 2194 03c1 00       		.byte	0
 2195 03c2 00       		.byte	0
 2196 03c3 00       		.byte	0
 2197 03c4 00       		.byte	0
 2198 03c5 00       		.byte	0
 2199 03c6 00       		.byte	0
 2200 03c7 00       		.byte	0
 2201 03c8 00       		.byte	0
 2202 03c9 00       		.byte	0
 2203 03ca 2A       		.byte	0x2a
 2204 03cb 34       		.byte	0x34
 2205 03cc 00       		.byte	0
 2206 03cd 00       		.byte	0
 2207 03ce 35       		.byte	0x35
 2208 03cf 3B       		.byte	0x3b
 2209 03d0 00       		.byte	0
 2210 03d1 00       		.byte	0
 2211 03d2 3C       		.byte	0x3c
 2212 03d3 40       		.byte	0x40
 2213 03d4 00       		.byte	0
 2214 03d5 00       		.byte	0
 2215 03d6 00       		.byte	0
 2216 03d7 00       		.byte	0
 2217 03d8 00       		.byte	0
 2218 03d9 00       		.byte	0
 2219 03da 28       		.byte	0x28
 2220 03db 31       		.byte	0x31
 2221 03dc 00       		.byte	0
 2222 03dd 00       		.byte	0
 2223 03de 33       		.byte	0x33
 2224 03df 38       		.byte	0x38
 2225 03e0 00       		.byte	0
 2226 03e1 00       		.byte	0
 2227 03e2 39       		.byte	0x39
 2228 03e3 3D       		.byte	0x3d
 2229 03e4 00       		.byte	0
 2230 03e5 00       		.byte	0
 2231 03e6 3D       		.byte	0x3d
 2232 03e7 40       		.byte	0x40
 2233 03e8 00       		.byte	0
 2234 03e9 00       		.byte	0
 2235 03ea 10       		.uleb128 0x10
 2236 03eb C2040000 		.4byte	.LASF65
 2237 03ef 01       		.byte	0x1
 2238 03f0 39       		.byte	0x39
 2239 03f1 4C050000 		.4byte	0x54c
 2240 03f5 40       		.byte	0x40
 2241 03f6 35       		.byte	0x35
 2242 03f7 40       		.byte	0x40
 2243 03f8 00       		.byte	0
 2244 03f9 00       		.byte	0
ARM GAS  C:\Users\rdn\AppData\Local\Temp\cc9mY3xa.s 			page 102


 2245 03fa 00       		.byte	0
 2246 03fb 00       		.byte	0
 2247 03fc 00       		.byte	0
 2248 03fd 00       		.byte	0
 2249 03fe 00       		.byte	0
 2250 03ff 00       		.byte	0
 2251 0400 00       		.byte	0
 2252 0401 00       		.byte	0
 2253 0402 00       		.byte	0
 2254 0403 00       		.byte	0
 2255 0404 00       		.byte	0
 2256 0405 00       		.byte	0
 2257 0406 2F       		.byte	0x2f
 2258 0407 39       		.byte	0x39
 2259 0408 00       		.byte	0
 2260 0409 00       		.byte	0
 2261 040a 3B       		.byte	0x3b
 2262 040b 40       		.byte	0x40
 2263 040c 00       		.byte	0
 2264 040d 00       		.byte	0
 2265 040e 00       		.byte	0
 2266 040f 00       		.byte	0
 2267 0410 00       		.byte	0
 2268 0411 00       		.byte	0
 2269 0412 00       		.byte	0
 2270 0413 00       		.byte	0
 2271 0414 00       		.byte	0
 2272 0415 00       		.byte	0
 2273 0416 2C       		.byte	0x2c
 2274 0417 35       		.byte	0x35
 2275 0418 00       		.byte	0
 2276 0419 00       		.byte	0
 2277 041a 36       		.byte	0x36
 2278 041b 3C       		.byte	0x3c
 2279 041c 00       		.byte	0
 2280 041d 00       		.byte	0
 2281 041e 3C       		.byte	0x3c
 2282 041f 40       		.byte	0x40
 2283 0420 00       		.byte	0
 2284 0421 00       		.byte	0
 2285 0422 00       		.byte	0
 2286 0423 00       		.byte	0
 2287 0424 00       		.byte	0
 2288 0425 00       		.byte	0
 2289 0426 29       		.byte	0x29
 2290 0427 32       		.byte	0x32
 2291 0428 00       		.byte	0
 2292 0429 00       		.byte	0
 2293 042a 33       		.byte	0x33
 2294 042b 38       		.byte	0x38
 2295 042c 00       		.byte	0
 2296 042d 00       		.byte	0
 2297 042e 39       		.byte	0x39
 2298 042f 3D       		.byte	0x3d
 2299 0430 00       		.byte	0
 2300 0431 00       		.byte	0
 2301 0432 3D       		.byte	0x3d
ARM GAS  C:\Users\rdn\AppData\Local\Temp\cc9mY3xa.s 			page 103


 2302 0433 40       		.byte	0x40
 2303 0434 00       		.byte	0
 2304 0435 00       		.byte	0
 2305 0436 11       		.uleb128 0x11
 2306 0437 C5000000 		.4byte	.LASF67
 2307 043b 01       		.byte	0x1
 2308 043c 40       		.byte	0x40
 2309 043d 51050000 		.4byte	0x551
 2310 0441 10       		.uleb128 0x10
 2311 0442 9D030000 		.4byte	.LASF66
 2312 0446 01       		.byte	0x1
 2313 0447 47       		.byte	0x47
 2314 0448 7E050000 		.4byte	0x57e
 2315 044c 40       		.byte	0x40
 2316 044d 04       		.byte	0x4
 2317 044e 00       		.byte	0
 2318 044f 00       		.byte	0
 2319 0450 00       		.byte	0
 2320 0451 04       		.byte	0x4
 2321 0452 00       		.byte	0
 2322 0453 00       		.byte	0
 2323 0454 00       		.byte	0
 2324 0455 03       		.byte	0x3
 2325 0456 00       		.byte	0
 2326 0457 00       		.byte	0
 2327 0458 00       		.byte	0
 2328 0459 01       		.byte	0x1
 2329 045a 00       		.byte	0
 2330 045b 00       		.byte	0
 2331 045c 00       		.byte	0
 2332 045d 04       		.byte	0x4
 2333 045e 00       		.byte	0
 2334 045f 00       		.byte	0
 2335 0460 00       		.byte	0
 2336 0461 04       		.byte	0x4
 2337 0462 00       		.byte	0
 2338 0463 00       		.byte	0
 2339 0464 00       		.byte	0
 2340 0465 03       		.byte	0x3
 2341 0466 00       		.byte	0
 2342 0467 00       		.byte	0
 2343 0468 00       		.byte	0
 2344 0469 01       		.byte	0x1
 2345 046a 00       		.byte	0
 2346 046b 00       		.byte	0
 2347 046c 00       		.byte	0
 2348 046d 04       		.byte	0x4
 2349 046e 00       		.byte	0
 2350 046f 00       		.byte	0
 2351 0470 00       		.byte	0
 2352 0471 04       		.byte	0x4
 2353 0472 00       		.byte	0
 2354 0473 00       		.byte	0
 2355 0474 00       		.byte	0
 2356 0475 03       		.byte	0x3
 2357 0476 00       		.byte	0
 2358 0477 00       		.byte	0
ARM GAS  C:\Users\rdn\AppData\Local\Temp\cc9mY3xa.s 			page 104


 2359 0478 00       		.byte	0
 2360 0479 02       		.byte	0x2
 2361 047a 00       		.byte	0
 2362 047b 00       		.byte	0
 2363 047c 00       		.byte	0
 2364 047d 04       		.byte	0x4
 2365 047e 00       		.byte	0
 2366 047f 00       		.byte	0
 2367 0480 00       		.byte	0
 2368 0481 04       		.byte	0x4
 2369 0482 00       		.byte	0
 2370 0483 00       		.byte	0
 2371 0484 00       		.byte	0
 2372 0485 03       		.byte	0x3
 2373 0486 00       		.byte	0
 2374 0487 00       		.byte	0
 2375 0488 00       		.byte	0
 2376 0489 01       		.byte	0x1
 2377 048a 00       		.byte	0
 2378 048b 00       		.byte	0
 2379 048c 00       		.byte	0
 2380 048d 12       		.uleb128 0x12
 2381 048e 62773000 		.ascii	"bw0\000"
 2382 0492 01       		.byte	0x1
 2383 0493 51       		.byte	0x51
 2384 0494 1B010000 		.4byte	0x11b
 2385 0498 12       		.uleb128 0x12
 2386 0499 62776E00 		.ascii	"bwn\000"
 2387 049d 01       		.byte	0x1
 2388 049e 52       		.byte	0x52
 2389 049f 1B010000 		.4byte	0x11b
 2390 04a3 12       		.uleb128 0x12
 2391 04a4 62777200 		.ascii	"bwr\000"
 2392 04a8 01       		.byte	0x1
 2393 04a9 57       		.byte	0x57
 2394 04aa 83050000 		.4byte	0x583
 2395 04ae 11       		.uleb128 0x11
 2396 04af 00000000 		.4byte	.LASF68
 2397 04b3 01       		.byte	0x1
 2398 04b4 6A       		.byte	0x6a
 2399 04b5 6F000000 		.4byte	0x6f
 2400 04b9 13       		.uleb128 0x13
 2401 04ba F1040000 		.4byte	0x4f1
 2402 04be 12       		.uleb128 0x12
 2403 04bf 627700   		.ascii	"bw\000"
 2404 04c2 01       		.byte	0x1
 2405 04c3 59       		.byte	0x59
 2406 04c4 1B010000 		.4byte	0x11b
 2407 04c8 14       		.uleb128 0x14
 2408 04c9 12       		.uleb128 0x12
 2409 04ca 6900     		.ascii	"i\000"
 2410 04cc 01       		.byte	0x1
 2411 04cd 5A       		.byte	0x5a
 2412 04ce 6F000000 		.4byte	0x6f
 2413 04d2 12       		.uleb128 0x12
 2414 04d3 696500   		.ascii	"ie\000"
 2415 04d6 01       		.byte	0x1
ARM GAS  C:\Users\rdn\AppData\Local\Temp\cc9mY3xa.s 			page 105


 2416 04d7 5A       		.byte	0x5a
 2417 04d8 6F000000 		.4byte	0x6f
 2418 04dc 12       		.uleb128 0x12
 2419 04dd 6E00     		.ascii	"n\000"
 2420 04df 01       		.byte	0x1
 2421 04e0 5B       		.byte	0x5b
 2422 04e1 6F000000 		.4byte	0x6f
 2423 04e5 12       		.uleb128 0x12
 2424 04e6 736500   		.ascii	"se\000"
 2425 04e9 01       		.byte	0x1
 2426 04ea 5D       		.byte	0x5d
 2427 04eb 25000000 		.4byte	0x25
 2428 04ef 00       		.byte	0
 2429 04f0 00       		.byte	0
 2430 04f1 14       		.uleb128 0x14
 2431 04f2 12       		.uleb128 0x12
 2432 04f3 693000   		.ascii	"i0\000"
 2433 04f6 01       		.byte	0x1
 2434 04f7 6D       		.byte	0x6d
 2435 04f8 6F000000 		.4byte	0x6f
 2436 04fc 12       		.uleb128 0x12
 2437 04fd 6C00     		.ascii	"l\000"
 2438 04ff 01       		.byte	0x1
 2439 0500 6D       		.byte	0x6d
 2440 0501 6F000000 		.4byte	0x6f
 2441 0505 12       		.uleb128 0x12
 2442 0506 746300   		.ascii	"tc\000"
 2443 0509 01       		.byte	0x1
 2444 050a 6E       		.byte	0x6e
 2445 050b 25000000 		.4byte	0x25
 2446 050f 14       		.uleb128 0x14
 2447 0510 12       		.uleb128 0x12
 2448 0511 6900     		.ascii	"i\000"
 2449 0513 01       		.byte	0x1
 2450 0514 71       		.byte	0x71
 2451 0515 6F000000 		.4byte	0x6f
 2452 0519 00       		.byte	0
 2453 051a 00       		.byte	0
 2454 051b 00       		.byte	0
 2455 051c 0A       		.uleb128 0xa
 2456 051d 04       		.byte	0x4
 2457 051e 22050000 		.4byte	0x522
 2458 0522 0B       		.uleb128 0xb
 2459 0523 25000000 		.4byte	0x25
 2460 0527 15       		.uleb128 0x15
 2461 0528 01030000 		.4byte	0x301
 2462 052c 3D050000 		.4byte	0x53d
 2463 0530 16       		.uleb128 0x16
 2464 0531 FF000000 		.4byte	0xff
 2465 0535 03       		.byte	0x3
 2466 0536 16       		.uleb128 0x16
 2467 0537 FF000000 		.4byte	0xff
 2468 053b 03       		.byte	0x3
 2469 053c 00       		.byte	0
 2470 053d 0B       		.uleb128 0xb
 2471 053e 27050000 		.4byte	0x527
 2472 0542 0B       		.uleb128 0xb
ARM GAS  C:\Users\rdn\AppData\Local\Temp\cc9mY3xa.s 			page 106


 2473 0543 27050000 		.4byte	0x527
 2474 0547 0B       		.uleb128 0xb
 2475 0548 27050000 		.4byte	0x527
 2476 054c 0B       		.uleb128 0xb
 2477 054d 27050000 		.4byte	0x527
 2478 0551 15       		.uleb128 0x15
 2479 0552 61050000 		.4byte	0x561
 2480 0556 61050000 		.4byte	0x561
 2481 055a 16       		.uleb128 0x16
 2482 055b FF000000 		.4byte	0xff
 2483 055f 03       		.byte	0x3
 2484 0560 00       		.byte	0
 2485 0561 17       		.uleb128 0x17
 2486 0562 04       		.byte	0x4
 2487 0563 15       		.uleb128 0x15
 2488 0564 79050000 		.4byte	0x579
 2489 0568 79050000 		.4byte	0x579
 2490 056c 16       		.uleb128 0x16
 2491 056d FF000000 		.4byte	0xff
 2492 0571 03       		.byte	0x3
 2493 0572 16       		.uleb128 0x16
 2494 0573 FF000000 		.4byte	0xff
 2495 0577 03       		.byte	0x3
 2496 0578 00       		.byte	0
 2497 0579 0B       		.uleb128 0xb
 2498 057a 6F000000 		.4byte	0x6f
 2499 057e 0B       		.uleb128 0xb
 2500 057f 63050000 		.4byte	0x563
 2501 0583 0A       		.uleb128 0xa
 2502 0584 04       		.byte	0x4
 2503 0585 01030000 		.4byte	0x301
 2504 0589 0E       		.uleb128 0xe
 2505 058a 14040000 		.4byte	.LASF70
 2506 058e 01       		.byte	0x1
 2507 058f 7D       		.byte	0x7d
 2508 0590 6F000000 		.4byte	0x6f
 2509 0594 01       		.byte	0x1
 2510 0595 A4050000 		.4byte	0x5a4
 2511 0599 0D       		.uleb128 0xd
 2512 059a 737200   		.ascii	"sr\000"
 2513 059d 01       		.byte	0x1
 2514 059e 7D       		.byte	0x7d
 2515 059f B7000000 		.4byte	0xb7
 2516 05a3 00       		.byte	0
 2517 05a4 18       		.uleb128 0x18
 2518 05a5 F3010000 		.4byte	.LASF81
 2519 05a9 02       		.byte	0x2
 2520 05aa DA       		.byte	0xda
 2521 05ab 03       		.byte	0x3
 2522 05ac D9050000 		.4byte	0x5d9
 2523 05b0 19       		.uleb128 0x19
 2524 05b1 6B010000 		.4byte	.LASF71
 2525 05b5 02       		.byte	0x2
 2526 05b6 DB       		.byte	0xdb
 2527 05b7 D9050000 		.4byte	0x5d9
 2528 05bb 0D       		.uleb128 0xd
 2529 05bc 7600     		.ascii	"v\000"
ARM GAS  C:\Users\rdn\AppData\Local\Temp\cc9mY3xa.s 			page 107


 2530 05be 02       		.byte	0x2
 2531 05bf DB       		.byte	0xdb
 2532 05c0 76000000 		.4byte	0x76
 2533 05c4 0D       		.uleb128 0xd
 2534 05c5 6E00     		.ascii	"n\000"
 2535 05c7 02       		.byte	0x2
 2536 05c8 DB       		.byte	0xdb
 2537 05c9 6F000000 		.4byte	0x6f
 2538 05cd 11       		.uleb128 0x11
 2539 05ce F5000000 		.4byte	.LASF58
 2540 05d2 02       		.byte	0x2
 2541 05d3 DD       		.byte	0xdd
 2542 05d4 DF050000 		.4byte	0x5df
 2543 05d8 00       		.byte	0
 2544 05d9 0A       		.uleb128 0xa
 2545 05da 04       		.byte	0x4
 2546 05db 49020000 		.4byte	0x249
 2547 05df 0A       		.uleb128 0xa
 2548 05e0 04       		.byte	0x4
 2549 05e1 79010000 		.4byte	0x179
 2550 05e5 1A       		.uleb128 0x1a
 2551 05e6 AB020000 		.4byte	0x2ab
 2552 05ea 00000000 		.4byte	.LFB13
 2553 05ee 20010000 		.4byte	.LFE13-.LFB13
 2554 05f2 01       		.uleb128 0x1
 2555 05f3 9C       		.byte	0x9c
 2556 05f4 79070000 		.4byte	0x779
 2557 05f8 1B       		.uleb128 0x1b
 2558 05f9 BB020000 		.4byte	0x2bb
 2559 05fd 00000000 		.4byte	.LLST0
 2560 0601 1B       		.uleb128 0x1b
 2561 0602 C5020000 		.4byte	0x2c5
 2562 0606 21000000 		.4byte	.LLST1
 2563 060a 1B       		.uleb128 0x1b
 2564 060b CF020000 		.4byte	0x2cf
 2565 060f 42000000 		.4byte	.LLST2
 2566 0613 1C       		.uleb128 0x1c
 2567 0614 06030000 		.4byte	0x306
 2568 0618 05       		.uleb128 0x5
 2569 0619 03       		.byte	0x3
 2570 061a 60000000 		.4byte	bws_table_2m5.5454
 2571 061e 1C       		.uleb128 0x1c
 2572 061f 52030000 		.4byte	0x352
 2573 0623 05       		.uleb128 0x5
 2574 0624 03       		.byte	0x3
 2575 0625 A0000000 		.4byte	bws_table_5m.5455
 2576 0629 1C       		.uleb128 0x1c
 2577 062a 9E030000 		.4byte	0x39e
 2578 062e 05       		.uleb128 0x5
 2579 062f 03       		.byte	0x3
 2580 0630 E0000000 		.4byte	bws_table_7m5.5456
 2581 0634 1C       		.uleb128 0x1c
 2582 0635 EA030000 		.4byte	0x3ea
 2583 0639 05       		.uleb128 0x5
 2584 063a 03       		.byte	0x3
 2585 063b 20010000 		.4byte	bws_table_10m.5457
 2586 063f 1C       		.uleb128 0x1c
ARM GAS  C:\Users\rdn\AppData\Local\Temp\cc9mY3xa.s 			page 108


 2587 0640 36040000 		.4byte	0x436
 2588 0644 05       		.uleb128 0x5
 2589 0645 03       		.byte	0x3
 2590 0646 00000000 		.4byte	bws_table.5458
 2591 064a 1C       		.uleb128 0x1c
 2592 064b 41040000 		.4byte	0x441
 2593 064f 05       		.uleb128 0x5
 2594 0650 03       		.byte	0x3
 2595 0651 10000000 		.4byte	l_table.5459
 2596 0655 1D       		.uleb128 0x1d
 2597 0656 8D040000 		.4byte	0x48d
 2598 065a 00       		.byte	0
 2599 065b 1E       		.uleb128 0x1e
 2600 065c 98040000 		.4byte	0x498
 2601 0660 87000000 		.4byte	.LLST3
 2602 0664 1F       		.uleb128 0x1f
 2603 0665 A3040000 		.4byte	0x4a3
 2604 0669 1F       		.uleb128 0x1f
 2605 066a AE040000 		.4byte	0x4ae
 2606 066e 20       		.uleb128 0x20
 2607 066f 10000000 		.4byte	.LBB32
 2608 0673 F0000000 		.4byte	.LBE32-.LBB32
 2609 0677 1B       		.uleb128 0x1b
 2610 0678 CF020000 		.4byte	0x2cf
 2611 067c A8000000 		.4byte	.LLST4
 2612 0680 1B       		.uleb128 0x1b
 2613 0681 C5020000 		.4byte	0x2c5
 2614 0685 ED000000 		.4byte	.LLST5
 2615 0689 1B       		.uleb128 0x1b
 2616 068a BB020000 		.4byte	0x2bb
 2617 068e 1C010000 		.4byte	.LLST6
 2618 0692 20       		.uleb128 0x20
 2619 0693 10000000 		.4byte	.LBB33
 2620 0697 F0000000 		.4byte	.LBE33-.LBB33
 2621 069b 1E       		.uleb128 0x1e
 2622 069c 8D040000 		.4byte	0x48d
 2623 06a0 4B010000 		.4byte	.LLST7
 2624 06a4 1F       		.uleb128 0x1f
 2625 06a5 98040000 		.4byte	0x498
 2626 06a9 1E       		.uleb128 0x1e
 2627 06aa A3040000 		.4byte	0x4a3
 2628 06ae 75010000 		.4byte	.LLST8
 2629 06b2 1E       		.uleb128 0x1e
 2630 06b3 AE040000 		.4byte	0x4ae
 2631 06b7 93010000 		.4byte	.LLST9
 2632 06bb 1C       		.uleb128 0x1c
 2633 06bc 06030000 		.4byte	0x306
 2634 06c0 05       		.uleb128 0x5
 2635 06c1 03       		.byte	0x3
 2636 06c2 60000000 		.4byte	bws_table_2m5.5454
 2637 06c6 1C       		.uleb128 0x1c
 2638 06c7 52030000 		.4byte	0x352
 2639 06cb 05       		.uleb128 0x5
 2640 06cc 03       		.byte	0x3
 2641 06cd A0000000 		.4byte	bws_table_5m.5455
 2642 06d1 1C       		.uleb128 0x1c
 2643 06d2 9E030000 		.4byte	0x39e
ARM GAS  C:\Users\rdn\AppData\Local\Temp\cc9mY3xa.s 			page 109


 2644 06d6 05       		.uleb128 0x5
 2645 06d7 03       		.byte	0x3
 2646 06d8 E0000000 		.4byte	bws_table_7m5.5456
 2647 06dc 1C       		.uleb128 0x1c
 2648 06dd EA030000 		.4byte	0x3ea
 2649 06e1 05       		.uleb128 0x5
 2650 06e2 03       		.byte	0x3
 2651 06e3 20010000 		.4byte	bws_table_10m.5457
 2652 06e7 1C       		.uleb128 0x1c
 2653 06e8 36040000 		.4byte	0x436
 2654 06ec 05       		.uleb128 0x5
 2655 06ed 03       		.byte	0x3
 2656 06ee 00000000 		.4byte	bws_table.5458
 2657 06f2 1C       		.uleb128 0x1c
 2658 06f3 41040000 		.4byte	0x441
 2659 06f7 05       		.uleb128 0x5
 2660 06f8 03       		.byte	0x3
 2661 06f9 10000000 		.4byte	l_table.5459
 2662 06fd 21       		.uleb128 0x21
 2663 06fe 36000000 		.4byte	.LBB34
 2664 0702 66000000 		.4byte	.LBE34-.LBB34
 2665 0706 42070000 		.4byte	0x742
 2666 070a 1E       		.uleb128 0x1e
 2667 070b BE040000 		.4byte	0x4be
 2668 070f 28020000 		.4byte	.LLST10
 2669 0713 20       		.uleb128 0x20
 2670 0714 36000000 		.4byte	.LBB35
 2671 0718 5A000000 		.4byte	.LBE35-.LBB35
 2672 071c 1E       		.uleb128 0x1e
 2673 071d C9040000 		.4byte	0x4c9
 2674 0721 61020000 		.4byte	.LLST11
 2675 0725 1E       		.uleb128 0x1e
 2676 0726 D2040000 		.4byte	0x4d2
 2677 072a 7F020000 		.4byte	.LLST12
 2678 072e 1E       		.uleb128 0x1e
 2679 072f DC040000 		.4byte	0x4dc
 2680 0733 C6020000 		.4byte	.LLST13
 2681 0737 1E       		.uleb128 0x1e
 2682 0738 E5040000 		.4byte	0x4e5
 2683 073c 17030000 		.4byte	.LLST14
 2684 0740 00       		.byte	0
 2685 0741 00       		.byte	0
 2686 0742 20       		.uleb128 0x20
 2687 0743 A0000000 		.4byte	.LBB36
 2688 0747 60000000 		.4byte	.LBE36-.LBB36
 2689 074b 1E       		.uleb128 0x1e
 2690 074c F2040000 		.4byte	0x4f2
 2691 0750 37030000 		.4byte	.LLST15
 2692 0754 1E       		.uleb128 0x1e
 2693 0755 FC040000 		.4byte	0x4fc
 2694 0759 4A030000 		.4byte	.LLST16
 2695 075d 1E       		.uleb128 0x1e
 2696 075e 05050000 		.4byte	0x505
 2697 0762 5D030000 		.4byte	.LLST17
 2698 0766 22       		.uleb128 0x22
 2699 0767 00000000 		.4byte	.Ldebug_ranges0+0
 2700 076b 1E       		.uleb128 0x1e
ARM GAS  C:\Users\rdn\AppData\Local\Temp\cc9mY3xa.s 			page 110


 2701 076c 10050000 		.4byte	0x510
 2702 0770 71030000 		.4byte	.LLST18
 2703 0774 00       		.byte	0
 2704 0775 00       		.byte	0
 2705 0776 00       		.byte	0
 2706 0777 00       		.byte	0
 2707 0778 00       		.byte	0
 2708 0779 1A       		.uleb128 0x1a
 2709 077a 89050000 		.4byte	0x589
 2710 077e 00000000 		.4byte	.LFB14
 2711 0782 20000000 		.4byte	.LFE14-.LFB14
 2712 0786 01       		.uleb128 0x1
 2713 0787 9C       		.byte	0x9c
 2714 0788 A9070000 		.4byte	0x7a9
 2715 078c 1B       		.uleb128 0x1b
 2716 078d 99050000 		.4byte	0x599
 2717 0791 84030000 		.4byte	.LLST19
 2718 0795 20       		.uleb128 0x20
 2719 0796 04000000 		.4byte	.LBB44
 2720 079a 18000000 		.4byte	.LBE44-.LBB44
 2721 079e 1B       		.uleb128 0x1b
 2722 079f 99050000 		.4byte	0x599
 2723 07a3 BE030000 		.4byte	.LLST20
 2724 07a7 00       		.byte	0
 2725 07a8 00       		.byte	0
 2726 07a9 23       		.uleb128 0x23
 2727 07aa CC020000 		.4byte	.LASF82
 2728 07ae 01       		.byte	0x1
 2729 07af 85       		.byte	0x85
 2730 07b0 00000000 		.4byte	.LFB15
 2731 07b4 40000000 		.4byte	.LFE15-.LFB15
 2732 07b8 01       		.uleb128 0x1
 2733 07b9 9C       		.byte	0x9c
 2734 07ba 68080000 		.4byte	0x868
 2735 07be 24       		.uleb128 0x24
 2736 07bf 6B010000 		.4byte	.LASF71
 2737 07c3 01       		.byte	0x1
 2738 07c4 85       		.byte	0x85
 2739 07c5 68080000 		.4byte	0x868
 2740 07c9 D1030000 		.4byte	.LLST21
 2741 07cd 25       		.uleb128 0x25
 2742 07ce 737200   		.ascii	"sr\000"
 2743 07d1 01       		.byte	0x1
 2744 07d2 86       		.byte	0x86
 2745 07d3 B7000000 		.4byte	0xb7
 2746 07d7 F2030000 		.4byte	.LLST22
 2747 07db 25       		.uleb128 0x25
 2748 07dc 627700   		.ascii	"bw\000"
 2749 07df 01       		.byte	0x1
 2750 07e0 86       		.byte	0x86
 2751 07e1 1B010000 		.4byte	0x11b
 2752 07e5 13040000 		.4byte	.LLST23
 2753 07e9 11       		.uleb128 0x11
 2754 07ea 21030000 		.4byte	.LASF72
 2755 07ee 01       		.byte	0x1
 2756 07ef 88       		.byte	0x88
 2757 07f0 6F000000 		.4byte	0x6f
ARM GAS  C:\Users\rdn\AppData\Local\Temp\cc9mY3xa.s 			page 111


 2758 07f4 26       		.uleb128 0x26
 2759 07f5 89050000 		.4byte	0x589
 2760 07f9 00000000 		.4byte	.LBB54
 2761 07fd 20000000 		.4byte	.Ldebug_ranges0+0x20
 2762 0801 01       		.byte	0x1
 2763 0802 88       		.byte	0x88
 2764 0803 24080000 		.4byte	0x824
 2765 0807 1B       		.uleb128 0x1b
 2766 0808 99050000 		.4byte	0x599
 2767 080c 4D040000 		.4byte	.LLST24
 2768 0810 20       		.uleb128 0x20
 2769 0811 06000000 		.4byte	.LBB56
 2770 0815 16000000 		.4byte	.LBE56-.LBB56
 2771 0819 1B       		.uleb128 0x1b
 2772 081a 99050000 		.4byte	0x599
 2773 081e 6B040000 		.4byte	.LLST25
 2774 0822 00       		.byte	0
 2775 0823 00       		.byte	0
 2776 0824 27       		.uleb128 0x27
 2777 0825 A4050000 		.4byte	0x5a4
 2778 0829 20000000 		.4byte	.LBB60
 2779 082d 38000000 		.4byte	.Ldebug_ranges0+0x38
 2780 0831 01       		.byte	0x1
 2781 0832 8A       		.byte	0x8a
 2782 0833 1B       		.uleb128 0x1b
 2783 0834 C4050000 		.4byte	0x5c4
 2784 0838 7E040000 		.4byte	.LLST26
 2785 083c 1B       		.uleb128 0x1b
 2786 083d BB050000 		.4byte	0x5bb
 2787 0841 9C040000 		.4byte	.LLST27
 2788 0845 1B       		.uleb128 0x1b
 2789 0846 B0050000 		.4byte	0x5b0
 2790 084a BA040000 		.4byte	.LLST28
 2791 084e 22       		.uleb128 0x22
 2792 084f 38000000 		.4byte	.Ldebug_ranges0+0x38
 2793 0853 1E       		.uleb128 0x1e
 2794 0854 CD050000 		.4byte	0x5cd
 2795 0858 DB040000 		.4byte	.LLST29
 2796 085c 28       		.uleb128 0x28
 2797 085d 40000000 		.4byte	.LVL45
 2798 0861 87090000 		.4byte	0x987
 2799 0865 00       		.byte	0
 2800 0866 00       		.byte	0
 2801 0867 00       		.byte	0
 2802 0868 0A       		.uleb128 0xa
 2803 0869 04       		.byte	0x4
 2804 086a 85020000 		.4byte	0x285
 2805 086e 0C       		.uleb128 0xc
 2806 086f AA030000 		.4byte	.LASF74
 2807 0873 02       		.byte	0x2
 2808 0874 F2       		.byte	0xf2
 2809 0875 76000000 		.4byte	0x76
 2810 0879 03       		.byte	0x3
 2811 087a A9080000 		.4byte	0x8a9
 2812 087e 19       		.uleb128 0x19
 2813 087f 6B010000 		.4byte	.LASF71
 2814 0883 02       		.byte	0x2
ARM GAS  C:\Users\rdn\AppData\Local\Temp\cc9mY3xa.s 			page 112


 2815 0884 F2       		.byte	0xf2
 2816 0885 D9050000 		.4byte	0x5d9
 2817 0889 0D       		.uleb128 0xd
 2818 088a 6E00     		.ascii	"n\000"
 2819 088c 02       		.byte	0x2
 2820 088d F2       		.byte	0xf2
 2821 088e 6F000000 		.4byte	0x6f
 2822 0892 11       		.uleb128 0x11
 2823 0893 F5000000 		.4byte	.LASF58
 2824 0897 02       		.byte	0x2
 2825 0898 F4       		.byte	0xf4
 2826 0899 DF050000 		.4byte	0x5df
 2827 089d 14       		.uleb128 0x14
 2828 089e 12       		.uleb128 0x12
 2829 089f 7600     		.ascii	"v\000"
 2830 08a1 02       		.byte	0x2
 2831 08a2 F7       		.byte	0xf7
 2832 08a3 6F000000 		.4byte	0x6f
 2833 08a7 00       		.byte	0
 2834 08a8 00       		.byte	0
 2835 08a9 29       		.uleb128 0x29
 2836 08aa E6040000 		.4byte	.LASF83
 2837 08ae 01       		.byte	0x1
 2838 08af 90       		.byte	0x90
 2839 08b0 6F000000 		.4byte	0x6f
 2840 08b4 00000000 		.4byte	.LFB16
 2841 08b8 60000000 		.4byte	.LFE16-.LFB16
 2842 08bc 01       		.uleb128 0x1
 2843 08bd 9C       		.byte	0x9c
 2844 08be 81090000 		.4byte	0x981
 2845 08c2 24       		.uleb128 0x24
 2846 08c3 6B010000 		.4byte	.LASF71
 2847 08c7 01       		.byte	0x1
 2848 08c8 90       		.byte	0x90
 2849 08c9 68080000 		.4byte	0x868
 2850 08cd 00050000 		.4byte	.LLST30
 2851 08d1 25       		.uleb128 0x25
 2852 08d2 737200   		.ascii	"sr\000"
 2853 08d5 01       		.byte	0x1
 2854 08d6 91       		.byte	0x91
 2855 08d7 B7000000 		.4byte	0xb7
 2856 08db 5E050000 		.4byte	.LLST31
 2857 08df 25       		.uleb128 0x25
 2858 08e0 627700   		.ascii	"bw\000"
 2859 08e3 01       		.byte	0x1
 2860 08e4 91       		.byte	0x91
 2861 08e5 81090000 		.4byte	0x981
 2862 08e9 A3050000 		.4byte	.LLST32
 2863 08ed 2A       		.uleb128 0x2a
 2864 08ee 5F010000 		.4byte	.LASF75
 2865 08f2 01       		.byte	0x1
 2866 08f3 93       		.byte	0x93
 2867 08f4 1B010000 		.4byte	0x11b
 2868 08f8 F0050000 		.4byte	.LLST33
 2869 08fc 11       		.uleb128 0x11
 2870 08fd 21030000 		.4byte	.LASF72
 2871 0901 01       		.byte	0x1
ARM GAS  C:\Users\rdn\AppData\Local\Temp\cc9mY3xa.s 			page 113


 2872 0902 94       		.byte	0x94
 2873 0903 6F000000 		.4byte	0x6f
 2874 0907 26       		.uleb128 0x26
 2875 0908 89050000 		.4byte	0x589
 2876 090c 00000000 		.4byte	.LBB77
 2877 0910 60000000 		.4byte	.Ldebug_ranges0+0x60
 2878 0914 01       		.byte	0x1
 2879 0915 94       		.byte	0x94
 2880 0916 33090000 		.4byte	0x933
 2881 091a 1B       		.uleb128 0x1b
 2882 091b 99050000 		.4byte	0x599
 2883 091f 35060000 		.4byte	.LLST34
 2884 0923 22       		.uleb128 0x22
 2885 0924 78000000 		.4byte	.Ldebug_ranges0+0x78
 2886 0928 1B       		.uleb128 0x1b
 2887 0929 99050000 		.4byte	0x599
 2888 092d 53060000 		.4byte	.LLST35
 2889 0931 00       		.byte	0
 2890 0932 00       		.byte	0
 2891 0933 27       		.uleb128 0x27
 2892 0934 6E080000 		.4byte	0x86e
 2893 0938 1E000000 		.4byte	.LBB85
 2894 093c 90000000 		.4byte	.Ldebug_ranges0+0x90
 2895 0940 01       		.byte	0x1
 2896 0941 97       		.byte	0x97
 2897 0942 1B       		.uleb128 0x1b
 2898 0943 89080000 		.4byte	0x889
 2899 0947 66060000 		.4byte	.LLST36
 2900 094b 1B       		.uleb128 0x1b
 2901 094c 7E080000 		.4byte	0x87e
 2902 0950 84060000 		.4byte	.LLST37
 2903 0954 22       		.uleb128 0x22
 2904 0955 90000000 		.4byte	.Ldebug_ranges0+0x90
 2905 0959 1E       		.uleb128 0x1e
 2906 095a 92080000 		.4byte	0x892
 2907 095e BE060000 		.4byte	.LLST38
 2908 0962 21       		.uleb128 0x21
 2909 0963 28000000 		.4byte	.LBB87
 2910 0967 12000000 		.4byte	.LBE87-.LBB87
 2911 096b 75090000 		.4byte	0x975
 2912 096f 1F       		.uleb128 0x1f
 2913 0970 9E080000 		.4byte	0x89e
 2914 0974 00       		.byte	0
 2915 0975 2B       		.uleb128 0x2b
 2916 0976 52000000 		.4byte	.LVL58
 2917 097a 92090000 		.4byte	0x992
 2918 097e 00       		.byte	0
 2919 097f 00       		.byte	0
 2920 0980 00       		.byte	0
 2921 0981 0A       		.uleb128 0xa
 2922 0982 04       		.byte	0x4
 2923 0983 1B010000 		.4byte	0x11b
 2924 0987 2C       		.uleb128 0x2c
 2925 0988 B1010000 		.4byte	.LASF76
 2926 098c B1010000 		.4byte	.LASF76
 2927 0990 02       		.byte	0x2
 2928 0991 C8       		.byte	0xc8
ARM GAS  C:\Users\rdn\AppData\Local\Temp\cc9mY3xa.s 			page 114


 2929 0992 2C       		.uleb128 0x2c
 2930 0993 05000000 		.4byte	.LASF77
 2931 0997 05000000 		.4byte	.LASF77
 2932 099b 02       		.byte	0x2
 2933 099c C9       		.byte	0xc9
 2934 099d 00       		.byte	0
 2935              		.section	.debug_abbrev,"",%progbits
 2936              	.Ldebug_abbrev0:
 2937 0000 01       		.uleb128 0x1
 2938 0001 11       		.uleb128 0x11
 2939 0002 01       		.byte	0x1
 2940 0003 25       		.uleb128 0x25
 2941 0004 0E       		.uleb128 0xe
 2942 0005 13       		.uleb128 0x13
 2943 0006 0B       		.uleb128 0xb
 2944 0007 03       		.uleb128 0x3
 2945 0008 0E       		.uleb128 0xe
 2946 0009 1B       		.uleb128 0x1b
 2947 000a 0E       		.uleb128 0xe
 2948 000b 55       		.uleb128 0x55
 2949 000c 17       		.uleb128 0x17
 2950 000d 11       		.uleb128 0x11
 2951 000e 01       		.uleb128 0x1
 2952 000f 10       		.uleb128 0x10
 2953 0010 17       		.uleb128 0x17
 2954 0011 00       		.byte	0
 2955 0012 00       		.byte	0
 2956 0013 02       		.uleb128 0x2
 2957 0014 24       		.uleb128 0x24
 2958 0015 00       		.byte	0
 2959 0016 0B       		.uleb128 0xb
 2960 0017 0B       		.uleb128 0xb
 2961 0018 3E       		.uleb128 0x3e
 2962 0019 0B       		.uleb128 0xb
 2963 001a 03       		.uleb128 0x3
 2964 001b 0E       		.uleb128 0xe
 2965 001c 00       		.byte	0
 2966 001d 00       		.byte	0
 2967 001e 03       		.uleb128 0x3
 2968 001f 16       		.uleb128 0x16
 2969 0020 00       		.byte	0
 2970 0021 03       		.uleb128 0x3
 2971 0022 0E       		.uleb128 0xe
 2972 0023 3A       		.uleb128 0x3a
 2973 0024 0B       		.uleb128 0xb
 2974 0025 3B       		.uleb128 0x3b
 2975 0026 0B       		.uleb128 0xb
 2976 0027 49       		.uleb128 0x49
 2977 0028 13       		.uleb128 0x13
 2978 0029 00       		.byte	0
 2979 002a 00       		.byte	0
 2980 002b 04       		.uleb128 0x4
 2981 002c 24       		.uleb128 0x24
 2982 002d 00       		.byte	0
 2983 002e 0B       		.uleb128 0xb
 2984 002f 0B       		.uleb128 0xb
 2985 0030 3E       		.uleb128 0x3e
ARM GAS  C:\Users\rdn\AppData\Local\Temp\cc9mY3xa.s 			page 115


 2986 0031 0B       		.uleb128 0xb
 2987 0032 03       		.uleb128 0x3
 2988 0033 08       		.uleb128 0x8
 2989 0034 00       		.byte	0
 2990 0035 00       		.byte	0
 2991 0036 05       		.uleb128 0x5
 2992 0037 04       		.uleb128 0x4
 2993 0038 01       		.byte	0x1
 2994 0039 03       		.uleb128 0x3
 2995 003a 0E       		.uleb128 0xe
 2996 003b 0B       		.uleb128 0xb
 2997 003c 0B       		.uleb128 0xb
 2998 003d 49       		.uleb128 0x49
 2999 003e 13       		.uleb128 0x13
 3000 003f 3A       		.uleb128 0x3a
 3001 0040 0B       		.uleb128 0xb
 3002 0041 3B       		.uleb128 0x3b
 3003 0042 0B       		.uleb128 0xb
 3004 0043 01       		.uleb128 0x1
 3005 0044 13       		.uleb128 0x13
 3006 0045 00       		.byte	0
 3007 0046 00       		.byte	0
 3008 0047 06       		.uleb128 0x6
 3009 0048 28       		.uleb128 0x28
 3010 0049 00       		.byte	0
 3011 004a 03       		.uleb128 0x3
 3012 004b 0E       		.uleb128 0xe
 3013 004c 1C       		.uleb128 0x1c
 3014 004d 0B       		.uleb128 0xb
 3015 004e 00       		.byte	0
 3016 004f 00       		.byte	0
 3017 0050 07       		.uleb128 0x7
 3018 0051 13       		.uleb128 0x13
 3019 0052 01       		.byte	0x1
 3020 0053 03       		.uleb128 0x3
 3021 0054 0E       		.uleb128 0xe
 3022 0055 0B       		.uleb128 0xb
 3023 0056 0B       		.uleb128 0xb
 3024 0057 3A       		.uleb128 0x3a
 3025 0058 0B       		.uleb128 0xb
 3026 0059 3B       		.uleb128 0x3b
 3027 005a 0B       		.uleb128 0xb
 3028 005b 01       		.uleb128 0x1
 3029 005c 13       		.uleb128 0x13
 3030 005d 00       		.byte	0
 3031 005e 00       		.byte	0
 3032 005f 08       		.uleb128 0x8
 3033 0060 0D       		.uleb128 0xd
 3034 0061 00       		.byte	0
 3035 0062 03       		.uleb128 0x3
 3036 0063 08       		.uleb128 0x8
 3037 0064 3A       		.uleb128 0x3a
 3038 0065 0B       		.uleb128 0xb
 3039 0066 3B       		.uleb128 0x3b
 3040 0067 0B       		.uleb128 0xb
 3041 0068 49       		.uleb128 0x49
 3042 0069 13       		.uleb128 0x13
ARM GAS  C:\Users\rdn\AppData\Local\Temp\cc9mY3xa.s 			page 116


 3043 006a 38       		.uleb128 0x38
 3044 006b 0B       		.uleb128 0xb
 3045 006c 00       		.byte	0
 3046 006d 00       		.byte	0
 3047 006e 09       		.uleb128 0x9
 3048 006f 0D       		.uleb128 0xd
 3049 0070 00       		.byte	0
 3050 0071 03       		.uleb128 0x3
 3051 0072 0E       		.uleb128 0xe
 3052 0073 3A       		.uleb128 0x3a
 3053 0074 0B       		.uleb128 0xb
 3054 0075 3B       		.uleb128 0x3b
 3055 0076 0B       		.uleb128 0xb
 3056 0077 49       		.uleb128 0x49
 3057 0078 13       		.uleb128 0x13
 3058 0079 38       		.uleb128 0x38
 3059 007a 0B       		.uleb128 0xb
 3060 007b 00       		.byte	0
 3061 007c 00       		.byte	0
 3062 007d 0A       		.uleb128 0xa
 3063 007e 0F       		.uleb128 0xf
 3064 007f 00       		.byte	0
 3065 0080 0B       		.uleb128 0xb
 3066 0081 0B       		.uleb128 0xb
 3067 0082 49       		.uleb128 0x49
 3068 0083 13       		.uleb128 0x13
 3069 0084 00       		.byte	0
 3070 0085 00       		.byte	0
 3071 0086 0B       		.uleb128 0xb
 3072 0087 26       		.uleb128 0x26
 3073 0088 00       		.byte	0
 3074 0089 49       		.uleb128 0x49
 3075 008a 13       		.uleb128 0x13
 3076 008b 00       		.byte	0
 3077 008c 00       		.byte	0
 3078 008d 0C       		.uleb128 0xc
 3079 008e 2E       		.uleb128 0x2e
 3080 008f 01       		.byte	0x1
 3081 0090 03       		.uleb128 0x3
 3082 0091 0E       		.uleb128 0xe
 3083 0092 3A       		.uleb128 0x3a
 3084 0093 0B       		.uleb128 0xb
 3085 0094 3B       		.uleb128 0x3b
 3086 0095 0B       		.uleb128 0xb
 3087 0096 27       		.uleb128 0x27
 3088 0097 19       		.uleb128 0x19
 3089 0098 49       		.uleb128 0x49
 3090 0099 13       		.uleb128 0x13
 3091 009a 20       		.uleb128 0x20
 3092 009b 0B       		.uleb128 0xb
 3093 009c 01       		.uleb128 0x1
 3094 009d 13       		.uleb128 0x13
 3095 009e 00       		.byte	0
 3096 009f 00       		.byte	0
 3097 00a0 0D       		.uleb128 0xd
 3098 00a1 05       		.uleb128 0x5
 3099 00a2 00       		.byte	0
ARM GAS  C:\Users\rdn\AppData\Local\Temp\cc9mY3xa.s 			page 117


 3100 00a3 03       		.uleb128 0x3
 3101 00a4 08       		.uleb128 0x8
 3102 00a5 3A       		.uleb128 0x3a
 3103 00a6 0B       		.uleb128 0xb
 3104 00a7 3B       		.uleb128 0x3b
 3105 00a8 0B       		.uleb128 0xb
 3106 00a9 49       		.uleb128 0x49
 3107 00aa 13       		.uleb128 0x13
 3108 00ab 00       		.byte	0
 3109 00ac 00       		.byte	0
 3110 00ad 0E       		.uleb128 0xe
 3111 00ae 2E       		.uleb128 0x2e
 3112 00af 01       		.byte	0x1
 3113 00b0 3F       		.uleb128 0x3f
 3114 00b1 19       		.uleb128 0x19
 3115 00b2 03       		.uleb128 0x3
 3116 00b3 0E       		.uleb128 0xe
 3117 00b4 3A       		.uleb128 0x3a
 3118 00b5 0B       		.uleb128 0xb
 3119 00b6 3B       		.uleb128 0x3b
 3120 00b7 0B       		.uleb128 0xb
 3121 00b8 27       		.uleb128 0x27
 3122 00b9 19       		.uleb128 0x19
 3123 00ba 49       		.uleb128 0x49
 3124 00bb 13       		.uleb128 0x13
 3125 00bc 20       		.uleb128 0x20
 3126 00bd 0B       		.uleb128 0xb
 3127 00be 01       		.uleb128 0x1
 3128 00bf 13       		.uleb128 0x13
 3129 00c0 00       		.byte	0
 3130 00c1 00       		.byte	0
 3131 00c2 0F       		.uleb128 0xf
 3132 00c3 0D       		.uleb128 0xd
 3133 00c4 00       		.byte	0
 3134 00c5 03       		.uleb128 0x3
 3135 00c6 08       		.uleb128 0x8
 3136 00c7 3A       		.uleb128 0x3a
 3137 00c8 0B       		.uleb128 0xb
 3138 00c9 3B       		.uleb128 0x3b
 3139 00ca 0B       		.uleb128 0xb
 3140 00cb 49       		.uleb128 0x49
 3141 00cc 13       		.uleb128 0x13
 3142 00cd 0B       		.uleb128 0xb
 3143 00ce 0B       		.uleb128 0xb
 3144 00cf 0D       		.uleb128 0xd
 3145 00d0 0B       		.uleb128 0xb
 3146 00d1 0C       		.uleb128 0xc
 3147 00d2 0B       		.uleb128 0xb
 3148 00d3 38       		.uleb128 0x38
 3149 00d4 0B       		.uleb128 0xb
 3150 00d5 00       		.byte	0
 3151 00d6 00       		.byte	0
 3152 00d7 10       		.uleb128 0x10
 3153 00d8 34       		.uleb128 0x34
 3154 00d9 00       		.byte	0
 3155 00da 03       		.uleb128 0x3
 3156 00db 0E       		.uleb128 0xe
ARM GAS  C:\Users\rdn\AppData\Local\Temp\cc9mY3xa.s 			page 118


 3157 00dc 3A       		.uleb128 0x3a
 3158 00dd 0B       		.uleb128 0xb
 3159 00de 3B       		.uleb128 0x3b
 3160 00df 0B       		.uleb128 0xb
 3161 00e0 49       		.uleb128 0x49
 3162 00e1 13       		.uleb128 0x13
 3163 00e2 1C       		.uleb128 0x1c
 3164 00e3 0A       		.uleb128 0xa
 3165 00e4 00       		.byte	0
 3166 00e5 00       		.byte	0
 3167 00e6 11       		.uleb128 0x11
 3168 00e7 34       		.uleb128 0x34
 3169 00e8 00       		.byte	0
 3170 00e9 03       		.uleb128 0x3
 3171 00ea 0E       		.uleb128 0xe
 3172 00eb 3A       		.uleb128 0x3a
 3173 00ec 0B       		.uleb128 0xb
 3174 00ed 3B       		.uleb128 0x3b
 3175 00ee 0B       		.uleb128 0xb
 3176 00ef 49       		.uleb128 0x49
 3177 00f0 13       		.uleb128 0x13
 3178 00f1 00       		.byte	0
 3179 00f2 00       		.byte	0
 3180 00f3 12       		.uleb128 0x12
 3181 00f4 34       		.uleb128 0x34
 3182 00f5 00       		.byte	0
 3183 00f6 03       		.uleb128 0x3
 3184 00f7 08       		.uleb128 0x8
 3185 00f8 3A       		.uleb128 0x3a
 3186 00f9 0B       		.uleb128 0xb
 3187 00fa 3B       		.uleb128 0x3b
 3188 00fb 0B       		.uleb128 0xb
 3189 00fc 49       		.uleb128 0x49
 3190 00fd 13       		.uleb128 0x13
 3191 00fe 00       		.byte	0
 3192 00ff 00       		.byte	0
 3193 0100 13       		.uleb128 0x13
 3194 0101 0B       		.uleb128 0xb
 3195 0102 01       		.byte	0x1
 3196 0103 01       		.uleb128 0x1
 3197 0104 13       		.uleb128 0x13
 3198 0105 00       		.byte	0
 3199 0106 00       		.byte	0
 3200 0107 14       		.uleb128 0x14
 3201 0108 0B       		.uleb128 0xb
 3202 0109 01       		.byte	0x1
 3203 010a 00       		.byte	0
 3204 010b 00       		.byte	0
 3205 010c 15       		.uleb128 0x15
 3206 010d 01       		.uleb128 0x1
 3207 010e 01       		.byte	0x1
 3208 010f 49       		.uleb128 0x49
 3209 0110 13       		.uleb128 0x13
 3210 0111 01       		.uleb128 0x1
 3211 0112 13       		.uleb128 0x13
 3212 0113 00       		.byte	0
 3213 0114 00       		.byte	0
ARM GAS  C:\Users\rdn\AppData\Local\Temp\cc9mY3xa.s 			page 119


 3214 0115 16       		.uleb128 0x16
 3215 0116 21       		.uleb128 0x21
 3216 0117 00       		.byte	0
 3217 0118 49       		.uleb128 0x49
 3218 0119 13       		.uleb128 0x13
 3219 011a 2F       		.uleb128 0x2f
 3220 011b 0B       		.uleb128 0xb
 3221 011c 00       		.byte	0
 3222 011d 00       		.byte	0
 3223 011e 17       		.uleb128 0x17
 3224 011f 0F       		.uleb128 0xf
 3225 0120 00       		.byte	0
 3226 0121 0B       		.uleb128 0xb
 3227 0122 0B       		.uleb128 0xb
 3228 0123 00       		.byte	0
 3229 0124 00       		.byte	0
 3230 0125 18       		.uleb128 0x18
 3231 0126 2E       		.uleb128 0x2e
 3232 0127 01       		.byte	0x1
 3233 0128 03       		.uleb128 0x3
 3234 0129 0E       		.uleb128 0xe
 3235 012a 3A       		.uleb128 0x3a
 3236 012b 0B       		.uleb128 0xb
 3237 012c 3B       		.uleb128 0x3b
 3238 012d 0B       		.uleb128 0xb
 3239 012e 27       		.uleb128 0x27
 3240 012f 19       		.uleb128 0x19
 3241 0130 20       		.uleb128 0x20
 3242 0131 0B       		.uleb128 0xb
 3243 0132 01       		.uleb128 0x1
 3244 0133 13       		.uleb128 0x13
 3245 0134 00       		.byte	0
 3246 0135 00       		.byte	0
 3247 0136 19       		.uleb128 0x19
 3248 0137 05       		.uleb128 0x5
 3249 0138 00       		.byte	0
 3250 0139 03       		.uleb128 0x3
 3251 013a 0E       		.uleb128 0xe
 3252 013b 3A       		.uleb128 0x3a
 3253 013c 0B       		.uleb128 0xb
 3254 013d 3B       		.uleb128 0x3b
 3255 013e 0B       		.uleb128 0xb
 3256 013f 49       		.uleb128 0x49
 3257 0140 13       		.uleb128 0x13
 3258 0141 00       		.byte	0
 3259 0142 00       		.byte	0
 3260 0143 1A       		.uleb128 0x1a
 3261 0144 2E       		.uleb128 0x2e
 3262 0145 01       		.byte	0x1
 3263 0146 31       		.uleb128 0x31
 3264 0147 13       		.uleb128 0x13
 3265 0148 11       		.uleb128 0x11
 3266 0149 01       		.uleb128 0x1
 3267 014a 12       		.uleb128 0x12
 3268 014b 06       		.uleb128 0x6
 3269 014c 40       		.uleb128 0x40
 3270 014d 18       		.uleb128 0x18
ARM GAS  C:\Users\rdn\AppData\Local\Temp\cc9mY3xa.s 			page 120


 3271 014e 9742     		.uleb128 0x2117
 3272 0150 19       		.uleb128 0x19
 3273 0151 01       		.uleb128 0x1
 3274 0152 13       		.uleb128 0x13
 3275 0153 00       		.byte	0
 3276 0154 00       		.byte	0
 3277 0155 1B       		.uleb128 0x1b
 3278 0156 05       		.uleb128 0x5
 3279 0157 00       		.byte	0
 3280 0158 31       		.uleb128 0x31
 3281 0159 13       		.uleb128 0x13
 3282 015a 02       		.uleb128 0x2
 3283 015b 17       		.uleb128 0x17
 3284 015c 00       		.byte	0
 3285 015d 00       		.byte	0
 3286 015e 1C       		.uleb128 0x1c
 3287 015f 34       		.uleb128 0x34
 3288 0160 00       		.byte	0
 3289 0161 31       		.uleb128 0x31
 3290 0162 13       		.uleb128 0x13
 3291 0163 02       		.uleb128 0x2
 3292 0164 18       		.uleb128 0x18
 3293 0165 00       		.byte	0
 3294 0166 00       		.byte	0
 3295 0167 1D       		.uleb128 0x1d
 3296 0168 34       		.uleb128 0x34
 3297 0169 00       		.byte	0
 3298 016a 31       		.uleb128 0x31
 3299 016b 13       		.uleb128 0x13
 3300 016c 1C       		.uleb128 0x1c
 3301 016d 0B       		.uleb128 0xb
 3302 016e 00       		.byte	0
 3303 016f 00       		.byte	0
 3304 0170 1E       		.uleb128 0x1e
 3305 0171 34       		.uleb128 0x34
 3306 0172 00       		.byte	0
 3307 0173 31       		.uleb128 0x31
 3308 0174 13       		.uleb128 0x13
 3309 0175 02       		.uleb128 0x2
 3310 0176 17       		.uleb128 0x17
 3311 0177 00       		.byte	0
 3312 0178 00       		.byte	0
 3313 0179 1F       		.uleb128 0x1f
 3314 017a 34       		.uleb128 0x34
 3315 017b 00       		.byte	0
 3316 017c 31       		.uleb128 0x31
 3317 017d 13       		.uleb128 0x13
 3318 017e 00       		.byte	0
 3319 017f 00       		.byte	0
 3320 0180 20       		.uleb128 0x20
 3321 0181 0B       		.uleb128 0xb
 3322 0182 01       		.byte	0x1
 3323 0183 11       		.uleb128 0x11
 3324 0184 01       		.uleb128 0x1
 3325 0185 12       		.uleb128 0x12
 3326 0186 06       		.uleb128 0x6
 3327 0187 00       		.byte	0
ARM GAS  C:\Users\rdn\AppData\Local\Temp\cc9mY3xa.s 			page 121


 3328 0188 00       		.byte	0
 3329 0189 21       		.uleb128 0x21
 3330 018a 0B       		.uleb128 0xb
 3331 018b 01       		.byte	0x1
 3332 018c 11       		.uleb128 0x11
 3333 018d 01       		.uleb128 0x1
 3334 018e 12       		.uleb128 0x12
 3335 018f 06       		.uleb128 0x6
 3336 0190 01       		.uleb128 0x1
 3337 0191 13       		.uleb128 0x13
 3338 0192 00       		.byte	0
 3339 0193 00       		.byte	0
 3340 0194 22       		.uleb128 0x22
 3341 0195 0B       		.uleb128 0xb
 3342 0196 01       		.byte	0x1
 3343 0197 55       		.uleb128 0x55
 3344 0198 17       		.uleb128 0x17
 3345 0199 00       		.byte	0
 3346 019a 00       		.byte	0
 3347 019b 23       		.uleb128 0x23
 3348 019c 2E       		.uleb128 0x2e
 3349 019d 01       		.byte	0x1
 3350 019e 3F       		.uleb128 0x3f
 3351 019f 19       		.uleb128 0x19
 3352 01a0 03       		.uleb128 0x3
 3353 01a1 0E       		.uleb128 0xe
 3354 01a2 3A       		.uleb128 0x3a
 3355 01a3 0B       		.uleb128 0xb
 3356 01a4 3B       		.uleb128 0x3b
 3357 01a5 0B       		.uleb128 0xb
 3358 01a6 27       		.uleb128 0x27
 3359 01a7 19       		.uleb128 0x19
 3360 01a8 11       		.uleb128 0x11
 3361 01a9 01       		.uleb128 0x1
 3362 01aa 12       		.uleb128 0x12
 3363 01ab 06       		.uleb128 0x6
 3364 01ac 40       		.uleb128 0x40
 3365 01ad 18       		.uleb128 0x18
 3366 01ae 9742     		.uleb128 0x2117
 3367 01b0 19       		.uleb128 0x19
 3368 01b1 01       		.uleb128 0x1
 3369 01b2 13       		.uleb128 0x13
 3370 01b3 00       		.byte	0
 3371 01b4 00       		.byte	0
 3372 01b5 24       		.uleb128 0x24
 3373 01b6 05       		.uleb128 0x5
 3374 01b7 00       		.byte	0
 3375 01b8 03       		.uleb128 0x3
 3376 01b9 0E       		.uleb128 0xe
 3377 01ba 3A       		.uleb128 0x3a
 3378 01bb 0B       		.uleb128 0xb
 3379 01bc 3B       		.uleb128 0x3b
 3380 01bd 0B       		.uleb128 0xb
 3381 01be 49       		.uleb128 0x49
 3382 01bf 13       		.uleb128 0x13
 3383 01c0 02       		.uleb128 0x2
 3384 01c1 17       		.uleb128 0x17
ARM GAS  C:\Users\rdn\AppData\Local\Temp\cc9mY3xa.s 			page 122


 3385 01c2 00       		.byte	0
 3386 01c3 00       		.byte	0
 3387 01c4 25       		.uleb128 0x25
 3388 01c5 05       		.uleb128 0x5
 3389 01c6 00       		.byte	0
 3390 01c7 03       		.uleb128 0x3
 3391 01c8 08       		.uleb128 0x8
 3392 01c9 3A       		.uleb128 0x3a
 3393 01ca 0B       		.uleb128 0xb
 3394 01cb 3B       		.uleb128 0x3b
 3395 01cc 0B       		.uleb128 0xb
 3396 01cd 49       		.uleb128 0x49
 3397 01ce 13       		.uleb128 0x13
 3398 01cf 02       		.uleb128 0x2
 3399 01d0 17       		.uleb128 0x17
 3400 01d1 00       		.byte	0
 3401 01d2 00       		.byte	0
 3402 01d3 26       		.uleb128 0x26
 3403 01d4 1D       		.uleb128 0x1d
 3404 01d5 01       		.byte	0x1
 3405 01d6 31       		.uleb128 0x31
 3406 01d7 13       		.uleb128 0x13
 3407 01d8 52       		.uleb128 0x52
 3408 01d9 01       		.uleb128 0x1
 3409 01da 55       		.uleb128 0x55
 3410 01db 17       		.uleb128 0x17
 3411 01dc 58       		.uleb128 0x58
 3412 01dd 0B       		.uleb128 0xb
 3413 01de 59       		.uleb128 0x59
 3414 01df 0B       		.uleb128 0xb
 3415 01e0 01       		.uleb128 0x1
 3416 01e1 13       		.uleb128 0x13
 3417 01e2 00       		.byte	0
 3418 01e3 00       		.byte	0
 3419 01e4 27       		.uleb128 0x27
 3420 01e5 1D       		.uleb128 0x1d
 3421 01e6 01       		.byte	0x1
 3422 01e7 31       		.uleb128 0x31
 3423 01e8 13       		.uleb128 0x13
 3424 01e9 52       		.uleb128 0x52
 3425 01ea 01       		.uleb128 0x1
 3426 01eb 55       		.uleb128 0x55
 3427 01ec 17       		.uleb128 0x17
 3428 01ed 58       		.uleb128 0x58
 3429 01ee 0B       		.uleb128 0xb
 3430 01ef 59       		.uleb128 0x59
 3431 01f0 0B       		.uleb128 0xb
 3432 01f1 00       		.byte	0
 3433 01f2 00       		.byte	0
 3434 01f3 28       		.uleb128 0x28
 3435 01f4 898201   		.uleb128 0x4109
 3436 01f7 00       		.byte	0
 3437 01f8 11       		.uleb128 0x11
 3438 01f9 01       		.uleb128 0x1
 3439 01fa 9542     		.uleb128 0x2115
 3440 01fc 19       		.uleb128 0x19
 3441 01fd 31       		.uleb128 0x31
ARM GAS  C:\Users\rdn\AppData\Local\Temp\cc9mY3xa.s 			page 123


 3442 01fe 13       		.uleb128 0x13
 3443 01ff 00       		.byte	0
 3444 0200 00       		.byte	0
 3445 0201 29       		.uleb128 0x29
 3446 0202 2E       		.uleb128 0x2e
 3447 0203 01       		.byte	0x1
 3448 0204 3F       		.uleb128 0x3f
 3449 0205 19       		.uleb128 0x19
 3450 0206 03       		.uleb128 0x3
 3451 0207 0E       		.uleb128 0xe
 3452 0208 3A       		.uleb128 0x3a
 3453 0209 0B       		.uleb128 0xb
 3454 020a 3B       		.uleb128 0x3b
 3455 020b 0B       		.uleb128 0xb
 3456 020c 27       		.uleb128 0x27
 3457 020d 19       		.uleb128 0x19
 3458 020e 49       		.uleb128 0x49
 3459 020f 13       		.uleb128 0x13
 3460 0210 11       		.uleb128 0x11
 3461 0211 01       		.uleb128 0x1
 3462 0212 12       		.uleb128 0x12
 3463 0213 06       		.uleb128 0x6
 3464 0214 40       		.uleb128 0x40
 3465 0215 18       		.uleb128 0x18
 3466 0216 9742     		.uleb128 0x2117
 3467 0218 19       		.uleb128 0x19
 3468 0219 01       		.uleb128 0x1
 3469 021a 13       		.uleb128 0x13
 3470 021b 00       		.byte	0
 3471 021c 00       		.byte	0
 3472 021d 2A       		.uleb128 0x2a
 3473 021e 34       		.uleb128 0x34
 3474 021f 00       		.byte	0
 3475 0220 03       		.uleb128 0x3
 3476 0221 0E       		.uleb128 0xe
 3477 0222 3A       		.uleb128 0x3a
 3478 0223 0B       		.uleb128 0xb
 3479 0224 3B       		.uleb128 0x3b
 3480 0225 0B       		.uleb128 0xb
 3481 0226 49       		.uleb128 0x49
 3482 0227 13       		.uleb128 0x13
 3483 0228 02       		.uleb128 0x2
 3484 0229 17       		.uleb128 0x17
 3485 022a 00       		.byte	0
 3486 022b 00       		.byte	0
 3487 022c 2B       		.uleb128 0x2b
 3488 022d 898201   		.uleb128 0x4109
 3489 0230 00       		.byte	0
 3490 0231 11       		.uleb128 0x11
 3491 0232 01       		.uleb128 0x1
 3492 0233 31       		.uleb128 0x31
 3493 0234 13       		.uleb128 0x13
 3494 0235 00       		.byte	0
 3495 0236 00       		.byte	0
 3496 0237 2C       		.uleb128 0x2c
 3497 0238 2E       		.uleb128 0x2e
 3498 0239 00       		.byte	0
ARM GAS  C:\Users\rdn\AppData\Local\Temp\cc9mY3xa.s 			page 124


 3499 023a 3F       		.uleb128 0x3f
 3500 023b 19       		.uleb128 0x19
 3501 023c 3C       		.uleb128 0x3c
 3502 023d 19       		.uleb128 0x19
 3503 023e 6E       		.uleb128 0x6e
 3504 023f 0E       		.uleb128 0xe
 3505 0240 03       		.uleb128 0x3
 3506 0241 0E       		.uleb128 0xe
 3507 0242 3A       		.uleb128 0x3a
 3508 0243 0B       		.uleb128 0xb
 3509 0244 3B       		.uleb128 0x3b
 3510 0245 0B       		.uleb128 0xb
 3511 0246 00       		.byte	0
 3512 0247 00       		.byte	0
 3513 0248 00       		.byte	0
 3514              		.section	.debug_loc,"",%progbits
 3515              	.Ldebug_loc0:
 3516              	.LLST0:
 3517 0000 00000000 		.4byte	.LVL0
 3518 0004 32000000 		.4byte	.LVL4
 3519 0008 0100     		.2byte	0x1
 3520 000a 50       		.byte	0x50
 3521 000b 32000000 		.4byte	.LVL4
 3522 000f 20010000 		.4byte	.LFE13
 3523 0013 0400     		.2byte	0x4
 3524 0015 F3       		.byte	0xf3
 3525 0016 01       		.uleb128 0x1
 3526 0017 50       		.byte	0x50
 3527 0018 9F       		.byte	0x9f
 3528 0019 00000000 		.4byte	0
 3529 001d 00000000 		.4byte	0
 3530              	.LLST1:
 3531 0021 00000000 		.4byte	.LVL0
 3532 0025 32000000 		.4byte	.LVL4
 3533 0029 0100     		.2byte	0x1
 3534 002b 51       		.byte	0x51
 3535 002c 32000000 		.4byte	.LVL4
 3536 0030 20010000 		.4byte	.LFE13
 3537 0034 0400     		.2byte	0x4
 3538 0036 F3       		.byte	0xf3
 3539 0037 01       		.uleb128 0x1
 3540 0038 51       		.byte	0x51
 3541 0039 9F       		.byte	0x9f
 3542 003a 00000000 		.4byte	0
 3543 003e 00000000 		.4byte	0
 3544              	.LLST2:
 3545 0042 00000000 		.4byte	.LVL0
 3546 0046 32000000 		.4byte	.LVL4
 3547 004a 0100     		.2byte	0x1
 3548 004c 52       		.byte	0x52
 3549 004d 32000000 		.4byte	.LVL4
 3550 0051 DA000000 		.4byte	.LVL19
 3551 0055 0100     		.2byte	0x1
 3552 0057 54       		.byte	0x54
 3553 0058 DA000000 		.4byte	.LVL19
 3554 005c 08010000 		.4byte	.LVL26
 3555 0060 0400     		.2byte	0x4
ARM GAS  C:\Users\rdn\AppData\Local\Temp\cc9mY3xa.s 			page 125


 3556 0062 F3       		.byte	0xf3
 3557 0063 01       		.uleb128 0x1
 3558 0064 52       		.byte	0x52
 3559 0065 9F       		.byte	0x9f
 3560 0066 08010000 		.4byte	.LVL26
 3561 006a 16010000 		.4byte	.LVL29
 3562 006e 0100     		.2byte	0x1
 3563 0070 54       		.byte	0x54
 3564 0071 16010000 		.4byte	.LVL29
 3565 0075 20010000 		.4byte	.LFE13
 3566 0079 0400     		.2byte	0x4
 3567 007b F3       		.byte	0xf3
 3568 007c 01       		.uleb128 0x1
 3569 007d 52       		.byte	0x52
 3570 007e 9F       		.byte	0x9f
 3571 007f 00000000 		.4byte	0
 3572 0083 00000000 		.4byte	0
 3573              	.LLST3:
 3574 0087 00000000 		.4byte	.LVL0
 3575 008b 32000000 		.4byte	.LVL4
 3576 008f 0100     		.2byte	0x1
 3577 0091 51       		.byte	0x51
 3578 0092 32000000 		.4byte	.LVL4
 3579 0096 20010000 		.4byte	.LFE13
 3580 009a 0400     		.2byte	0x4
 3581 009c F3       		.byte	0xf3
 3582 009d 01       		.uleb128 0x1
 3583 009e 51       		.byte	0x51
 3584 009f 9F       		.byte	0x9f
 3585 00a0 00000000 		.4byte	0
 3586 00a4 00000000 		.4byte	0
 3587              	.LLST4:
 3588 00a8 28000000 		.4byte	.LVL2
 3589 00ac 32000000 		.4byte	.LVL4
 3590 00b0 0100     		.2byte	0x1
 3591 00b2 52       		.byte	0x52
 3592 00b3 32000000 		.4byte	.LVL4
 3593 00b7 DA000000 		.4byte	.LVL19
 3594 00bb 0100     		.2byte	0x1
 3595 00bd 54       		.byte	0x54
 3596 00be DA000000 		.4byte	.LVL19
 3597 00c2 00010000 		.4byte	.LVL25
 3598 00c6 0400     		.2byte	0x4
 3599 00c8 F3       		.byte	0xf3
 3600 00c9 01       		.uleb128 0x1
 3601 00ca 52       		.byte	0x52
 3602 00cb 9F       		.byte	0x9f
 3603 00cc 08010000 		.4byte	.LVL26
 3604 00d0 16010000 		.4byte	.LVL29
 3605 00d4 0100     		.2byte	0x1
 3606 00d6 54       		.byte	0x54
 3607 00d7 16010000 		.4byte	.LVL29
 3608 00db 20010000 		.4byte	.LFE13
 3609 00df 0400     		.2byte	0x4
 3610 00e1 F3       		.byte	0xf3
 3611 00e2 01       		.uleb128 0x1
 3612 00e3 52       		.byte	0x52
ARM GAS  C:\Users\rdn\AppData\Local\Temp\cc9mY3xa.s 			page 126


 3613 00e4 9F       		.byte	0x9f
 3614 00e5 00000000 		.4byte	0
 3615 00e9 00000000 		.4byte	0
 3616              	.LLST5:
 3617 00ed 10000000 		.4byte	.LVL1
 3618 00f1 32000000 		.4byte	.LVL4
 3619 00f5 0100     		.2byte	0x1
 3620 00f7 51       		.byte	0x51
 3621 00f8 32000000 		.4byte	.LVL4
 3622 00fc 00010000 		.4byte	.LVL25
 3623 0100 0400     		.2byte	0x4
 3624 0102 F3       		.byte	0xf3
 3625 0103 01       		.uleb128 0x1
 3626 0104 51       		.byte	0x51
 3627 0105 9F       		.byte	0x9f
 3628 0106 08010000 		.4byte	.LVL26
 3629 010a 20010000 		.4byte	.LFE13
 3630 010e 0400     		.2byte	0x4
 3631 0110 F3       		.byte	0xf3
 3632 0111 01       		.uleb128 0x1
 3633 0112 51       		.byte	0x51
 3634 0113 9F       		.byte	0x9f
 3635 0114 00000000 		.4byte	0
 3636 0118 00000000 		.4byte	0
 3637              	.LLST6:
 3638 011c 10000000 		.4byte	.LVL1
 3639 0120 32000000 		.4byte	.LVL4
 3640 0124 0100     		.2byte	0x1
 3641 0126 50       		.byte	0x50
 3642 0127 32000000 		.4byte	.LVL4
 3643 012b 00010000 		.4byte	.LVL25
 3644 012f 0400     		.2byte	0x4
 3645 0131 F3       		.byte	0xf3
 3646 0132 01       		.uleb128 0x1
 3647 0133 50       		.byte	0x50
 3648 0134 9F       		.byte	0x9f
 3649 0135 08010000 		.4byte	.LVL26
 3650 0139 20010000 		.4byte	.LFE13
 3651 013d 0400     		.2byte	0x4
 3652 013f F3       		.byte	0xf3
 3653 0140 01       		.uleb128 0x1
 3654 0141 50       		.byte	0x50
 3655 0142 9F       		.byte	0x9f
 3656 0143 00000000 		.4byte	0
 3657 0147 00000000 		.4byte	0
 3658              	.LLST7:
 3659 014b 2C000000 		.4byte	.LVL3
 3660 014f 32000000 		.4byte	.LVL4
 3661 0153 0200     		.2byte	0x2
 3662 0155 30       		.byte	0x30
 3663 0156 9F       		.byte	0x9f
 3664 0157 36000000 		.4byte	.LVL5
 3665 015b 00010000 		.4byte	.LVL25
 3666 015f 0100     		.2byte	0x1
 3667 0161 56       		.byte	0x56
 3668 0162 08010000 		.4byte	.LVL26
 3669 0166 16010000 		.4byte	.LVL29
ARM GAS  C:\Users\rdn\AppData\Local\Temp\cc9mY3xa.s 			page 127


 3670 016a 0100     		.2byte	0x1
 3671 016c 56       		.byte	0x56
 3672 016d 00000000 		.4byte	0
 3673 0171 00000000 		.4byte	0
 3674              	.LLST8:
 3675 0175 2C000000 		.4byte	.LVL3
 3676 0179 00010000 		.4byte	.LVL25
 3677 017d 0100     		.2byte	0x1
 3678 017f 59       		.byte	0x59
 3679 0180 08010000 		.4byte	.LVL26
 3680 0184 16010000 		.4byte	.LVL29
 3681 0188 0100     		.2byte	0x1
 3682 018a 59       		.byte	0x59
 3683 018b 00000000 		.4byte	0
 3684 018f 00000000 		.4byte	0
 3685              	.LLST9:
 3686 0193 9C000000 		.4byte	.LVL13
 3687 0197 DC000000 		.4byte	.LVL20
 3688 019b 0F00     		.2byte	0xf
 3689 019d 75       		.byte	0x75
 3690 019e 00       		.sleb128 0
 3691 019f 08       		.byte	0x8
 3692 01a0 FF       		.byte	0xff
 3693 01a1 1A       		.byte	0x1a
 3694 01a2 76       		.byte	0x76
 3695 01a3 00       		.sleb128 0
 3696 01a4 08       		.byte	0x8
 3697 01a5 FF       		.byte	0xff
 3698 01a6 1A       		.byte	0x1a
 3699 01a7 2C       		.byte	0x2c
 3700 01a8 08       		.byte	0x8
 3701 01a9 FF       		.byte	0xff
 3702 01aa 1A       		.byte	0x1a
 3703 01ab 9F       		.byte	0x9f
 3704 01ac DC000000 		.4byte	.LVL20
 3705 01b0 E0000000 		.4byte	.LVL21
 3706 01b4 1100     		.2byte	0x11
 3707 01b6 F5       		.byte	0xf5
 3708 01b7 4E       		.uleb128 0x4e
 3709 01b8 25       		.uleb128 0x25
 3710 01b9 F5       		.byte	0xf5
 3711 01ba 4D       		.uleb128 0x4d
 3712 01bb 25       		.uleb128 0x25
 3713 01bc 74       		.byte	0x74
 3714 01bd 00       		.sleb128 0
 3715 01be F6       		.byte	0xf6
 3716 01bf 04       		.byte	0x4
 3717 01c0 25       		.uleb128 0x25
 3718 01c1 1E       		.byte	0x1e
 3719 01c2 2B       		.byte	0x2b
 3720 01c3 08       		.byte	0x8
 3721 01c4 FF       		.byte	0xff
 3722 01c5 1A       		.byte	0x1a
 3723 01c6 9F       		.byte	0x9f
 3724 01c7 E0000000 		.4byte	.LVL21
 3725 01cb EA000000 		.4byte	.LVL22
 3726 01cf 0200     		.2byte	0x2
ARM GAS  C:\Users\rdn\AppData\Local\Temp\cc9mY3xa.s 			page 128


 3727 01d1 30       		.byte	0x30
 3728 01d2 9F       		.byte	0x9f
 3729 01d3 EA000000 		.4byte	.LVL22
 3730 01d7 F0000000 		.4byte	.LVL23
 3731 01db 0F00     		.2byte	0xf
 3732 01dd F5       		.byte	0xf5
 3733 01de 4E       		.uleb128 0x4e
 3734 01df 25       		.uleb128 0x25
 3735 01e0 F5       		.byte	0xf5
 3736 01e1 4D       		.uleb128 0x4d
 3737 01e2 25       		.uleb128 0x25
 3738 01e3 F5       		.byte	0xf5
 3739 01e4 4F       		.uleb128 0x4f
 3740 01e5 25       		.uleb128 0x25
 3741 01e6 1E       		.byte	0x1e
 3742 01e7 2B       		.byte	0x2b
 3743 01e8 08       		.byte	0x8
 3744 01e9 FF       		.byte	0xff
 3745 01ea 1A       		.byte	0x1a
 3746 01eb 9F       		.byte	0x9f
 3747 01ec F0000000 		.4byte	.LVL23
 3748 01f0 00010000 		.4byte	.LVL25
 3749 01f4 1100     		.2byte	0x11
 3750 01f6 F5       		.byte	0xf5
 3751 01f7 4E       		.uleb128 0x4e
 3752 01f8 25       		.uleb128 0x25
 3753 01f9 F5       		.byte	0xf5
 3754 01fa 4D       		.uleb128 0x4d
 3755 01fb 25       		.uleb128 0x25
 3756 01fc 74       		.byte	0x74
 3757 01fd 00       		.sleb128 0
 3758 01fe F6       		.byte	0xf6
 3759 01ff 04       		.byte	0x4
 3760 0200 25       		.uleb128 0x25
 3761 0201 1E       		.byte	0x1e
 3762 0202 2B       		.byte	0x2b
 3763 0203 08       		.byte	0x8
 3764 0204 FF       		.byte	0xff
 3765 0205 1A       		.byte	0x1a
 3766 0206 9F       		.byte	0x9f
 3767 0207 08010000 		.4byte	.LVL26
 3768 020b 0E010000 		.4byte	.LVL27
 3769 020f 0F00     		.2byte	0xf
 3770 0211 75       		.byte	0x75
 3771 0212 00       		.sleb128 0
 3772 0213 08       		.byte	0x8
 3773 0214 FF       		.byte	0xff
 3774 0215 1A       		.byte	0x1a
 3775 0216 76       		.byte	0x76
 3776 0217 00       		.sleb128 0
 3777 0218 08       		.byte	0x8
 3778 0219 FF       		.byte	0xff
 3779 021a 1A       		.byte	0x1a
 3780 021b 2C       		.byte	0x2c
 3781 021c 08       		.byte	0x8
 3782 021d FF       		.byte	0xff
 3783 021e 1A       		.byte	0x1a
ARM GAS  C:\Users\rdn\AppData\Local\Temp\cc9mY3xa.s 			page 129


 3784 021f 9F       		.byte	0x9f
 3785 0220 00000000 		.4byte	0
 3786 0224 00000000 		.4byte	0
 3787              	.LLST10:
 3788 0228 2C000000 		.4byte	.LVL3
 3789 022c 32000000 		.4byte	.LVL4
 3790 0230 0200     		.2byte	0x2
 3791 0232 30       		.byte	0x30
 3792 0233 9F       		.byte	0x9f
 3793 0234 36000000 		.4byte	.LVL5
 3794 0238 8E000000 		.4byte	.LVL12
 3795 023c 0100     		.2byte	0x1
 3796 023e 50       		.byte	0x50
 3797 023f 8E000000 		.4byte	.LVL12
 3798 0243 A8000000 		.4byte	.LVL15
 3799 0247 0300     		.2byte	0x3
 3800 0249 70       		.byte	0x70
 3801 024a 01       		.sleb128 1
 3802 024b 9F       		.byte	0x9f
 3803 024c 08010000 		.4byte	.LVL26
 3804 0250 10010000 		.4byte	.LVL28
 3805 0254 0300     		.2byte	0x3
 3806 0256 70       		.byte	0x70
 3807 0257 01       		.sleb128 1
 3808 0258 9F       		.byte	0x9f
 3809 0259 00000000 		.4byte	0
 3810 025d 00000000 		.4byte	0
 3811              	.LLST11:
 3812 0261 3E000000 		.4byte	.LVL6
 3813 0265 56000000 		.4byte	.LVL8
 3814 0269 0100     		.2byte	0x1
 3815 026b 51       		.byte	0x51
 3816 026c 56000000 		.4byte	.LVL8
 3817 0270 60000000 		.4byte	.LVL9
 3818 0274 0100     		.2byte	0x1
 3819 0276 5A       		.byte	0x5a
 3820 0277 00000000 		.4byte	0
 3821 027b 00000000 		.4byte	0
 3822              	.LLST12:
 3823 027f 42000000 		.4byte	.LVL7
 3824 0283 60000000 		.4byte	.LVL9
 3825 0287 0100     		.2byte	0x1
 3826 0289 52       		.byte	0x52
 3827 028a 60000000 		.4byte	.LVL9
 3828 028e A8000000 		.4byte	.LVL15
 3829 0292 1000     		.2byte	0x10
 3830 0294 70       		.byte	0x70
 3831 0295 00       		.sleb128 0
 3832 0296 32       		.byte	0x32
 3833 0297 24       		.byte	0x24
 3834 0298 79       		.byte	0x79
 3835 0299 00       		.sleb128 0
 3836 029a 22       		.byte	0x22
 3837 029b 23       		.byte	0x23
 3838 029c 01       		.uleb128 0x1
 3839 029d 94       		.byte	0x94
 3840 029e 01       		.byte	0x1
ARM GAS  C:\Users\rdn\AppData\Local\Temp\cc9mY3xa.s 			page 130


 3841 029f 48       		.byte	0x48
 3842 02a0 24       		.byte	0x24
 3843 02a1 48       		.byte	0x48
 3844 02a2 26       		.byte	0x26
 3845 02a3 9F       		.byte	0x9f
 3846 02a4 08010000 		.4byte	.LVL26
 3847 02a8 10010000 		.4byte	.LVL28
 3848 02ac 1000     		.2byte	0x10
 3849 02ae 70       		.byte	0x70
 3850 02af 00       		.sleb128 0
 3851 02b0 32       		.byte	0x32
 3852 02b1 24       		.byte	0x24
 3853 02b2 79       		.byte	0x79
 3854 02b3 00       		.sleb128 0
 3855 02b4 22       		.byte	0x22
 3856 02b5 23       		.byte	0x23
 3857 02b6 01       		.uleb128 0x1
 3858 02b7 94       		.byte	0x94
 3859 02b8 01       		.byte	0x1
 3860 02b9 48       		.byte	0x48
 3861 02ba 24       		.byte	0x24
 3862 02bb 48       		.byte	0x48
 3863 02bc 26       		.byte	0x26
 3864 02bd 9F       		.byte	0x9f
 3865 02be 00000000 		.4byte	0
 3866 02c2 00000000 		.4byte	0
 3867              	.LLST13:
 3868 02c6 56000000 		.4byte	.LVL8
 3869 02ca 78000000 		.4byte	.LVL11
 3870 02ce 0100     		.2byte	0x1
 3871 02d0 51       		.byte	0x51
 3872 02d1 78000000 		.4byte	.LVL11
 3873 02d5 A8000000 		.4byte	.LVL15
 3874 02d9 1500     		.2byte	0x15
 3875 02db 70       		.byte	0x70
 3876 02dc 00       		.sleb128 0
 3877 02dd 32       		.byte	0x32
 3878 02de 24       		.byte	0x24
 3879 02df 79       		.byte	0x79
 3880 02e0 00       		.sleb128 0
 3881 02e1 22       		.byte	0x22
 3882 02e2 23       		.byte	0x23
 3883 02e3 01       		.uleb128 0x1
 3884 02e4 94       		.byte	0x94
 3885 02e5 01       		.byte	0x1
 3886 02e6 48       		.byte	0x48
 3887 02e7 24       		.byte	0x24
 3888 02e8 48       		.byte	0x48
 3889 02e9 26       		.byte	0x26
 3890 02ea 7A       		.byte	0x7a
 3891 02eb 00       		.sleb128 0
 3892 02ec 1C       		.byte	0x1c
 3893 02ed 23       		.byte	0x23
 3894 02ee 01       		.uleb128 0x1
 3895 02ef 9F       		.byte	0x9f
 3896 02f0 08010000 		.4byte	.LVL26
 3897 02f4 10010000 		.4byte	.LVL28
ARM GAS  C:\Users\rdn\AppData\Local\Temp\cc9mY3xa.s 			page 131


 3898 02f8 1500     		.2byte	0x15
 3899 02fa 70       		.byte	0x70
 3900 02fb 00       		.sleb128 0
 3901 02fc 32       		.byte	0x32
 3902 02fd 24       		.byte	0x24
 3903 02fe 79       		.byte	0x79
 3904 02ff 00       		.sleb128 0
 3905 0300 22       		.byte	0x22
 3906 0301 23       		.byte	0x23
 3907 0302 01       		.uleb128 0x1
 3908 0303 94       		.byte	0x94
 3909 0304 01       		.byte	0x1
 3910 0305 48       		.byte	0x48
 3911 0306 24       		.byte	0x24
 3912 0307 48       		.byte	0x48
 3913 0308 26       		.byte	0x26
 3914 0309 7A       		.byte	0x7a
 3915 030a 00       		.sleb128 0
 3916 030b 1C       		.byte	0x1c
 3917 030c 23       		.byte	0x23
 3918 030d 01       		.uleb128 0x1
 3919 030e 9F       		.byte	0x9f
 3920 030f 00000000 		.4byte	0
 3921 0313 00000000 		.4byte	0
 3922              	.LLST14:
 3923 0317 56000000 		.4byte	.LVL8
 3924 031b DC000000 		.4byte	.LVL20
 3925 031f 0200     		.2byte	0x2
 3926 0321 90       		.byte	0x90
 3927 0322 4F       		.uleb128 0x4f
 3928 0323 08010000 		.4byte	.LVL26
 3929 0327 20010000 		.4byte	.LFE13
 3930 032b 0200     		.2byte	0x2
 3931 032d 90       		.byte	0x90
 3932 032e 4F       		.uleb128 0x4f
 3933 032f 00000000 		.4byte	0
 3934 0333 00000000 		.4byte	0
 3935              	.LLST15:
 3936 0337 A6000000 		.4byte	.LVL14
 3937 033b 00010000 		.4byte	.LVL25
 3938 033f 0100     		.2byte	0x1
 3939 0341 5C       		.byte	0x5c
 3940 0342 00000000 		.4byte	0
 3941 0346 00000000 		.4byte	0
 3942              	.LLST16:
 3943 034a BA000000 		.4byte	.LVL16
 3944 034e D2000000 		.4byte	.LVL18
 3945 0352 0100     		.2byte	0x1
 3946 0354 52       		.byte	0x52
 3947 0355 00000000 		.4byte	0
 3948 0359 00000000 		.4byte	0
 3949              	.LLST17:
 3950 035d CE000000 		.4byte	.LVL17
 3951 0361 00010000 		.4byte	.LVL25
 3952 0365 0200     		.2byte	0x2
 3953 0367 90       		.byte	0x90
 3954 0368 4D       		.uleb128 0x4d
ARM GAS  C:\Users\rdn\AppData\Local\Temp\cc9mY3xa.s 			page 132


 3955 0369 00000000 		.4byte	0
 3956 036d 00000000 		.4byte	0
 3957              	.LLST18:
 3958 0371 CE000000 		.4byte	.LVL17
 3959 0375 00010000 		.4byte	.LVL25
 3960 0379 0100     		.2byte	0x1
 3961 037b 53       		.byte	0x53
 3962 037c 00000000 		.4byte	0
 3963 0380 00000000 		.4byte	0
 3964              	.LLST19:
 3965 0384 00000000 		.4byte	.LVL30
 3966 0388 1A000000 		.4byte	.LVL32
 3967 038c 0100     		.2byte	0x1
 3968 038e 50       		.byte	0x50
 3969 038f 1A000000 		.4byte	.LVL32
 3970 0393 1C000000 		.4byte	.LVL33
 3971 0397 0400     		.2byte	0x4
 3972 0399 F3       		.byte	0xf3
 3973 039a 01       		.uleb128 0x1
 3974 039b 50       		.byte	0x50
 3975 039c 9F       		.byte	0x9f
 3976 039d 1C000000 		.4byte	.LVL33
 3977 03a1 1E000000 		.4byte	.LVL34
 3978 03a5 0100     		.2byte	0x1
 3979 03a7 50       		.byte	0x50
 3980 03a8 1E000000 		.4byte	.LVL34
 3981 03ac 20000000 		.4byte	.LFE14
 3982 03b0 0400     		.2byte	0x4
 3983 03b2 F3       		.byte	0xf3
 3984 03b3 01       		.uleb128 0x1
 3985 03b4 50       		.byte	0x50
 3986 03b5 9F       		.byte	0x9f
 3987 03b6 00000000 		.4byte	0
 3988 03ba 00000000 		.4byte	0
 3989              	.LLST20:
 3990 03be 04000000 		.4byte	.LVL31
 3991 03c2 1A000000 		.4byte	.LVL32
 3992 03c6 0100     		.2byte	0x1
 3993 03c8 50       		.byte	0x50
 3994 03c9 00000000 		.4byte	0
 3995 03cd 00000000 		.4byte	0
 3996              	.LLST21:
 3997 03d1 00000000 		.4byte	.LVL35
 3998 03d5 3F000000 		.4byte	.LVL45-1
 3999 03d9 0100     		.2byte	0x1
 4000 03db 50       		.byte	0x50
 4001 03dc 3F000000 		.4byte	.LVL45-1
 4002 03e0 40000000 		.4byte	.LFE15
 4003 03e4 0400     		.2byte	0x4
 4004 03e6 F3       		.byte	0xf3
 4005 03e7 01       		.uleb128 0x1
 4006 03e8 50       		.byte	0x50
 4007 03e9 9F       		.byte	0x9f
 4008 03ea 00000000 		.4byte	0
 4009 03ee 00000000 		.4byte	0
 4010              	.LLST22:
 4011 03f2 00000000 		.4byte	.LVL35
ARM GAS  C:\Users\rdn\AppData\Local\Temp\cc9mY3xa.s 			page 133


 4012 03f6 22000000 		.4byte	.LVL41
 4013 03fa 0100     		.2byte	0x1
 4014 03fc 51       		.byte	0x51
 4015 03fd 22000000 		.4byte	.LVL41
 4016 0401 40000000 		.4byte	.LFE15
 4017 0405 0400     		.2byte	0x4
 4018 0407 F3       		.byte	0xf3
 4019 0408 01       		.uleb128 0x1
 4020 0409 51       		.byte	0x51
 4021 040a 9F       		.byte	0x9f
 4022 040b 00000000 		.4byte	0
 4023 040f 00000000 		.4byte	0
 4024              	.LLST23:
 4025 0413 00000000 		.4byte	.LVL35
 4026 0417 04000000 		.4byte	.LVL36
 4027 041b 0100     		.2byte	0x1
 4028 041d 52       		.byte	0x52
 4029 041e 04000000 		.4byte	.LVL36
 4030 0422 06000000 		.4byte	.LVL37
 4031 0426 0400     		.2byte	0x4
 4032 0428 F3       		.byte	0xf3
 4033 0429 01       		.uleb128 0x1
 4034 042a 52       		.byte	0x52
 4035 042b 9F       		.byte	0x9f
 4036 042c 06000000 		.4byte	.LVL37
 4037 0430 0E000000 		.4byte	.LVL38
 4038 0434 0100     		.2byte	0x1
 4039 0436 52       		.byte	0x52
 4040 0437 0E000000 		.4byte	.LVL38
 4041 043b 40000000 		.4byte	.LFE15
 4042 043f 0400     		.2byte	0x4
 4043 0441 F3       		.byte	0xf3
 4044 0442 01       		.uleb128 0x1
 4045 0443 52       		.byte	0x52
 4046 0444 9F       		.byte	0x9f
 4047 0445 00000000 		.4byte	0
 4048 0449 00000000 		.4byte	0
 4049              	.LLST24:
 4050 044d 00000000 		.4byte	.LVL35
 4051 0451 04000000 		.4byte	.LVL36
 4052 0455 0100     		.2byte	0x1
 4053 0457 51       		.byte	0x51
 4054 0458 06000000 		.4byte	.LVL37
 4055 045c 1C000000 		.4byte	.LVL39
 4056 0460 0100     		.2byte	0x1
 4057 0462 51       		.byte	0x51
 4058 0463 00000000 		.4byte	0
 4059 0467 00000000 		.4byte	0
 4060              	.LLST25:
 4061 046b 06000000 		.4byte	.LVL37
 4062 046f 1C000000 		.4byte	.LVL39
 4063 0473 0100     		.2byte	0x1
 4064 0475 51       		.byte	0x51
 4065 0476 00000000 		.4byte	0
 4066 047a 00000000 		.4byte	0
 4067              	.LLST26:
 4068 047e 20000000 		.4byte	.LVL40
ARM GAS  C:\Users\rdn\AppData\Local\Temp\cc9mY3xa.s 			page 134


 4069 0482 2C000000 		.4byte	.LVL42
 4070 0486 0100     		.2byte	0x1
 4071 0488 52       		.byte	0x52
 4072 0489 38000000 		.4byte	.LVL44
 4073 048d 3F000000 		.4byte	.LVL45-1
 4074 0491 0100     		.2byte	0x1
 4075 0493 52       		.byte	0x52
 4076 0494 00000000 		.4byte	0
 4077 0498 00000000 		.4byte	0
 4078              	.LLST27:
 4079 049c 20000000 		.4byte	.LVL40
 4080 04a0 30000000 		.4byte	.LVL43
 4081 04a4 0100     		.2byte	0x1
 4082 04a6 53       		.byte	0x53
 4083 04a7 38000000 		.4byte	.LVL44
 4084 04ab 3F000000 		.4byte	.LVL45-1
 4085 04af 0100     		.2byte	0x1
 4086 04b1 53       		.byte	0x53
 4087 04b2 00000000 		.4byte	0
 4088 04b6 00000000 		.4byte	0
 4089              	.LLST28:
 4090 04ba 20000000 		.4byte	.LVL40
 4091 04be 3F000000 		.4byte	.LVL45-1
 4092 04c2 0100     		.2byte	0x1
 4093 04c4 50       		.byte	0x50
 4094 04c5 3F000000 		.4byte	.LVL45-1
 4095 04c9 40000000 		.4byte	.LFE15
 4096 04cd 0400     		.2byte	0x4
 4097 04cf F3       		.byte	0xf3
 4098 04d0 01       		.uleb128 0x1
 4099 04d1 50       		.byte	0x50
 4100 04d2 9F       		.byte	0x9f
 4101 04d3 00000000 		.4byte	0
 4102 04d7 00000000 		.4byte	0
 4103              	.LLST29:
 4104 04db 20000000 		.4byte	.LVL40
 4105 04df 3F000000 		.4byte	.LVL45-1
 4106 04e3 0300     		.2byte	0x3
 4107 04e5 70       		.byte	0x70
 4108 04e6 1C       		.sleb128 28
 4109 04e7 9F       		.byte	0x9f
 4110 04e8 3F000000 		.4byte	.LVL45-1
 4111 04ec 40000000 		.4byte	.LFE15
 4112 04f0 0600     		.2byte	0x6
 4113 04f2 F3       		.byte	0xf3
 4114 04f3 01       		.uleb128 0x1
 4115 04f4 50       		.byte	0x50
 4116 04f5 23       		.byte	0x23
 4117 04f6 1C       		.uleb128 0x1c
 4118 04f7 9F       		.byte	0x9f
 4119 04f8 00000000 		.4byte	0
 4120 04fc 00000000 		.4byte	0
 4121              	.LLST30:
 4122 0500 00000000 		.4byte	.LVL46
 4123 0504 2E000000 		.4byte	.LVL52
 4124 0508 0100     		.2byte	0x1
 4125 050a 50       		.byte	0x50
ARM GAS  C:\Users\rdn\AppData\Local\Temp\cc9mY3xa.s 			page 135


 4126 050b 2E000000 		.4byte	.LVL52
 4127 050f 46000000 		.4byte	.LVL55
 4128 0513 0400     		.2byte	0x4
 4129 0515 F3       		.byte	0xf3
 4130 0516 01       		.uleb128 0x1
 4131 0517 50       		.byte	0x50
 4132 0518 9F       		.byte	0x9f
 4133 0519 46000000 		.4byte	.LVL55
 4134 051d 4A000000 		.4byte	.LVL56
 4135 0521 0100     		.2byte	0x1
 4136 0523 50       		.byte	0x50
 4137 0524 4A000000 		.4byte	.LVL56
 4138 0528 4C000000 		.4byte	.LVL57
 4139 052c 0400     		.2byte	0x4
 4140 052e F3       		.byte	0xf3
 4141 052f 01       		.uleb128 0x1
 4142 0530 50       		.byte	0x50
 4143 0531 9F       		.byte	0x9f
 4144 0532 4C000000 		.4byte	.LVL57
 4145 0536 51000000 		.4byte	.LVL58-1
 4146 053a 0100     		.2byte	0x1
 4147 053c 50       		.byte	0x50
 4148 053d 51000000 		.4byte	.LVL58-1
 4149 0541 5C000000 		.4byte	.LVL60
 4150 0545 0400     		.2byte	0x4
 4151 0547 F3       		.byte	0xf3
 4152 0548 01       		.uleb128 0x1
 4153 0549 50       		.byte	0x50
 4154 054a 9F       		.byte	0x9f
 4155 054b 5C000000 		.4byte	.LVL60
 4156 054f 60000000 		.4byte	.LFE16
 4157 0553 0100     		.2byte	0x1
 4158 0555 50       		.byte	0x50
 4159 0556 00000000 		.4byte	0
 4160 055a 00000000 		.4byte	0
 4161              	.LLST31:
 4162 055e 00000000 		.4byte	.LVL46
 4163 0562 24000000 		.4byte	.LVL51
 4164 0566 0100     		.2byte	0x1
 4165 0568 51       		.byte	0x51
 4166 0569 24000000 		.4byte	.LVL51
 4167 056d 46000000 		.4byte	.LVL55
 4168 0571 0400     		.2byte	0x4
 4169 0573 F3       		.byte	0xf3
 4170 0574 01       		.uleb128 0x1
 4171 0575 51       		.byte	0x51
 4172 0576 9F       		.byte	0x9f
 4173 0577 46000000 		.4byte	.LVL55
 4174 057b 4C000000 		.4byte	.LVL57
 4175 057f 0100     		.2byte	0x1
 4176 0581 51       		.byte	0x51
 4177 0582 4C000000 		.4byte	.LVL57
 4178 0586 5C000000 		.4byte	.LVL60
 4179 058a 0400     		.2byte	0x4
 4180 058c F3       		.byte	0xf3
 4181 058d 01       		.uleb128 0x1
 4182 058e 51       		.byte	0x51
ARM GAS  C:\Users\rdn\AppData\Local\Temp\cc9mY3xa.s 			page 136


 4183 058f 9F       		.byte	0x9f
 4184 0590 5C000000 		.4byte	.LVL60
 4185 0594 60000000 		.4byte	.LFE16
 4186 0598 0100     		.2byte	0x1
 4187 059a 51       		.byte	0x51
 4188 059b 00000000 		.4byte	0
 4189 059f 00000000 		.4byte	0
 4190              	.LLST32:
 4191 05a3 00000000 		.4byte	.LVL46
 4192 05a7 20000000 		.4byte	.LVL49
 4193 05ab 0100     		.2byte	0x1
 4194 05ad 52       		.byte	0x52
 4195 05ae 20000000 		.4byte	.LVL49
 4196 05b2 42000000 		.4byte	.LVL54
 4197 05b6 0100     		.2byte	0x1
 4198 05b8 56       		.byte	0x56
 4199 05b9 42000000 		.4byte	.LVL54
 4200 05bd 46000000 		.4byte	.LVL55
 4201 05c1 0400     		.2byte	0x4
 4202 05c3 F3       		.byte	0xf3
 4203 05c4 01       		.uleb128 0x1
 4204 05c5 52       		.byte	0x52
 4205 05c6 9F       		.byte	0x9f
 4206 05c7 46000000 		.4byte	.LVL55
 4207 05cb 4C000000 		.4byte	.LVL57
 4208 05cf 0100     		.2byte	0x1
 4209 05d1 52       		.byte	0x52
 4210 05d2 4C000000 		.4byte	.LVL57
 4211 05d6 5C000000 		.4byte	.LVL60
 4212 05da 0100     		.2byte	0x1
 4213 05dc 56       		.byte	0x56
 4214 05dd 5C000000 		.4byte	.LVL60
 4215 05e1 60000000 		.4byte	.LFE16
 4216 05e5 0100     		.2byte	0x1
 4217 05e7 52       		.byte	0x52
 4218 05e8 00000000 		.4byte	0
 4219 05ec 00000000 		.4byte	0
 4220              	.LLST33:
 4221 05f0 00000000 		.4byte	.LVL46
 4222 05f4 24000000 		.4byte	.LVL51
 4223 05f8 0100     		.2byte	0x1
 4224 05fa 51       		.byte	0x51
 4225 05fb 24000000 		.4byte	.LVL51
 4226 05ff 46000000 		.4byte	.LVL55
 4227 0603 0400     		.2byte	0x4
 4228 0605 F3       		.byte	0xf3
 4229 0606 01       		.uleb128 0x1
 4230 0607 51       		.byte	0x51
 4231 0608 9F       		.byte	0x9f
 4232 0609 46000000 		.4byte	.LVL55
 4233 060d 4C000000 		.4byte	.LVL57
 4234 0611 0100     		.2byte	0x1
 4235 0613 51       		.byte	0x51
 4236 0614 4C000000 		.4byte	.LVL57
 4237 0618 5C000000 		.4byte	.LVL60
 4238 061c 0400     		.2byte	0x4
 4239 061e F3       		.byte	0xf3
ARM GAS  C:\Users\rdn\AppData\Local\Temp\cc9mY3xa.s 			page 137


 4240 061f 01       		.uleb128 0x1
 4241 0620 51       		.byte	0x51
 4242 0621 9F       		.byte	0x9f
 4243 0622 5C000000 		.4byte	.LVL60
 4244 0626 60000000 		.4byte	.LFE16
 4245 062a 0100     		.2byte	0x1
 4246 062c 51       		.byte	0x51
 4247 062d 00000000 		.4byte	0
 4248 0631 00000000 		.4byte	0
 4249              	.LLST34:
 4250 0635 00000000 		.4byte	.LVL46
 4251 0639 1A000000 		.4byte	.LVL48
 4252 063d 0100     		.2byte	0x1
 4253 063f 51       		.byte	0x51
 4254 0640 46000000 		.4byte	.LVL55
 4255 0644 4C000000 		.4byte	.LVL57
 4256 0648 0100     		.2byte	0x1
 4257 064a 51       		.byte	0x51
 4258 064b 00000000 		.4byte	0
 4259 064f 00000000 		.4byte	0
 4260              	.LLST35:
 4261 0653 04000000 		.4byte	.LVL47
 4262 0657 1A000000 		.4byte	.LVL48
 4263 065b 0100     		.2byte	0x1
 4264 065d 51       		.byte	0x51
 4265 065e 00000000 		.4byte	0
 4266 0662 00000000 		.4byte	0
 4267              	.LLST36:
 4268 0666 22000000 		.4byte	.LVL50
 4269 066a 3A000000 		.4byte	.LVL53
 4270 066e 0100     		.2byte	0x1
 4271 0670 53       		.byte	0x53
 4272 0671 4C000000 		.4byte	.LVL57
 4273 0675 51000000 		.4byte	.LVL58-1
 4274 0679 0100     		.2byte	0x1
 4275 067b 53       		.byte	0x53
 4276 067c 00000000 		.4byte	0
 4277 0680 00000000 		.4byte	0
 4278              	.LLST37:
 4279 0684 22000000 		.4byte	.LVL50
 4280 0688 2E000000 		.4byte	.LVL52
 4281 068c 0100     		.2byte	0x1
 4282 068e 50       		.byte	0x50
 4283 068f 2E000000 		.4byte	.LVL52
 4284 0693 3A000000 		.4byte	.LVL53
 4285 0697 0400     		.2byte	0x4
 4286 0699 F3       		.byte	0xf3
 4287 069a 01       		.uleb128 0x1
 4288 069b 50       		.byte	0x50
 4289 069c 9F       		.byte	0x9f
 4290 069d 4C000000 		.4byte	.LVL57
 4291 06a1 51000000 		.4byte	.LVL58-1
 4292 06a5 0100     		.2byte	0x1
 4293 06a7 50       		.byte	0x50
 4294 06a8 51000000 		.4byte	.LVL58-1
 4295 06ac 54000000 		.4byte	.LVL59
 4296 06b0 0400     		.2byte	0x4
ARM GAS  C:\Users\rdn\AppData\Local\Temp\cc9mY3xa.s 			page 138


 4297 06b2 F3       		.byte	0xf3
 4298 06b3 01       		.uleb128 0x1
 4299 06b4 50       		.byte	0x50
 4300 06b5 9F       		.byte	0x9f
 4301 06b6 00000000 		.4byte	0
 4302 06ba 00000000 		.4byte	0
 4303              	.LLST38:
 4304 06be 22000000 		.4byte	.LVL50
 4305 06c2 2E000000 		.4byte	.LVL52
 4306 06c6 0300     		.2byte	0x3
 4307 06c8 70       		.byte	0x70
 4308 06c9 1C       		.sleb128 28
 4309 06ca 9F       		.byte	0x9f
 4310 06cb 2E000000 		.4byte	.LVL52
 4311 06cf 42000000 		.4byte	.LVL54
 4312 06d3 0600     		.2byte	0x6
 4313 06d5 F3       		.byte	0xf3
 4314 06d6 01       		.uleb128 0x1
 4315 06d7 50       		.byte	0x50
 4316 06d8 23       		.byte	0x23
 4317 06d9 1C       		.uleb128 0x1c
 4318 06da 9F       		.byte	0x9f
 4319 06db 4C000000 		.4byte	.LVL57
 4320 06df 51000000 		.4byte	.LVL58-1
 4321 06e3 0300     		.2byte	0x3
 4322 06e5 70       		.byte	0x70
 4323 06e6 1C       		.sleb128 28
 4324 06e7 9F       		.byte	0x9f
 4325 06e8 51000000 		.4byte	.LVL58-1
 4326 06ec 5C000000 		.4byte	.LVL60
 4327 06f0 0600     		.2byte	0x6
 4328 06f2 F3       		.byte	0xf3
 4329 06f3 01       		.uleb128 0x1
 4330 06f4 50       		.byte	0x50
 4331 06f5 23       		.byte	0x23
 4332 06f6 1C       		.uleb128 0x1c
 4333 06f7 9F       		.byte	0x9f
 4334 06f8 00000000 		.4byte	0
 4335 06fc 00000000 		.4byte	0
 4336              		.section	.debug_aranges,"",%progbits
 4337 0000 34000000 		.4byte	0x34
 4338 0004 0200     		.2byte	0x2
 4339 0006 00000000 		.4byte	.Ldebug_info0
 4340 000a 04       		.byte	0x4
 4341 000b 00       		.byte	0
 4342 000c 0000     		.2byte	0
 4343 000e 0000     		.2byte	0
 4344 0010 00000000 		.4byte	.LFB13
 4345 0014 20010000 		.4byte	.LFE13-.LFB13
 4346 0018 00000000 		.4byte	.LFB14
 4347 001c 20000000 		.4byte	.LFE14-.LFB14
 4348 0020 00000000 		.4byte	.LFB15
 4349 0024 40000000 		.4byte	.LFE15-.LFB15
 4350 0028 00000000 		.4byte	.LFB16
 4351 002c 60000000 		.4byte	.LFE16-.LFB16
 4352 0030 00000000 		.4byte	0
 4353 0034 00000000 		.4byte	0
ARM GAS  C:\Users\rdn\AppData\Local\Temp\cc9mY3xa.s 			page 139


 4354              		.section	.debug_ranges,"",%progbits
 4355              	.Ldebug_ranges0:
 4356 0000 BA000000 		.4byte	.LBB37
 4357 0004 C4000000 		.4byte	.LBE37
 4358 0008 C8000000 		.4byte	.LBB38
 4359 000c CA000000 		.4byte	.LBE38
 4360 0010 CE000000 		.4byte	.LBB39
 4361 0014 00010000 		.4byte	.LBE39
 4362 0018 00000000 		.4byte	0
 4363 001c 00000000 		.4byte	0
 4364 0020 00000000 		.4byte	.LBB54
 4365 0024 04000000 		.4byte	.LBE54
 4366 0028 06000000 		.4byte	.LBB59
 4367 002c 1C000000 		.4byte	.LBE59
 4368 0030 00000000 		.4byte	0
 4369 0034 00000000 		.4byte	0
 4370 0038 20000000 		.4byte	.LBB60
 4371 003c 22000000 		.4byte	.LBE60
 4372 0040 24000000 		.4byte	.LBB65
 4373 0044 34000000 		.4byte	.LBE65
 4374 0048 38000000 		.4byte	.LBB66
 4375 004c 3A000000 		.4byte	.LBE66
 4376 0050 3C000000 		.4byte	.LBB67
 4377 0054 40000000 		.4byte	.LBE67
 4378 0058 00000000 		.4byte	0
 4379 005c 00000000 		.4byte	0
 4380 0060 00000000 		.4byte	.LBB77
 4381 0064 06000000 		.4byte	.LBE77
 4382 0068 08000000 		.4byte	.LBB84
 4383 006c 1A000000 		.4byte	.LBE84
 4384 0070 00000000 		.4byte	0
 4385 0074 00000000 		.4byte	0
 4386 0078 04000000 		.4byte	.LBB79
 4387 007c 06000000 		.4byte	.LBE79
 4388 0080 08000000 		.4byte	.LBB82
 4389 0084 1A000000 		.4byte	.LBE82
 4390 0088 00000000 		.4byte	0
 4391 008c 00000000 		.4byte	0
 4392 0090 1E000000 		.4byte	.LBB85
 4393 0094 3A000000 		.4byte	.LBE85
 4394 0098 4C000000 		.4byte	.LBB89
 4395 009c 54000000 		.4byte	.LBE89
 4396 00a0 00000000 		.4byte	0
 4397 00a4 00000000 		.4byte	0
 4398 00a8 00000000 		.4byte	.LFB13
 4399 00ac 20010000 		.4byte	.LFE13
 4400 00b0 00000000 		.4byte	.LFB14
 4401 00b4 20000000 		.4byte	.LFE14
 4402 00b8 00000000 		.4byte	.LFB15
 4403 00bc 40000000 		.4byte	.LFE15
 4404 00c0 00000000 		.4byte	.LFB16
 4405 00c4 60000000 		.4byte	.LFE16
 4406 00c8 00000000 		.4byte	0
 4407 00cc 00000000 		.4byte	0
 4408              		.section	.debug_line,"",%progbits
 4409              	.Ldebug_line0:
 4410 0000 49020000 		.section	.debug_str,"MS",%progbits,1
ARM GAS  C:\Users\rdn\AppData\Local\Temp\cc9mY3xa.s 			page 140


 4410      02006701 
 4410      00000201 
 4410      FB0E0D00 
 4410      01010101 
 4411              	.LASF68:
 4412 0000 686F6C64 		.ascii	"hold\000"
 4412      00
 4413              	.LASF77:
 4414 0005 6C63335F 		.ascii	"lc3_get_bits_generic\000"
 4414      6765745F 
 4414      62697473 
 4414      5F67656E 
 4414      65726963 
 4415              	.LASF21:
 4416 001a 4C43335F 		.ascii	"LC3_SRATE_24K\000"
 4416      53524154 
 4416      455F3234 
 4416      4B00
 4417              	.LASF54:
 4418 0028 705F6677 		.ascii	"p_fw\000"
 4418      00
 4419              	.LASF18:
 4420 002d 6C63335F 		.ascii	"lc3_srate\000"
 4420      73726174 
 4420      6500
 4421              	.LASF60:
 4422 0037 6C63335F 		.ascii	"lc3_bits_t\000"
 4422      62697473 
 4422      5F7400
 4423              	.LASF61:
 4424 0042 72656769 		.ascii	"region\000"
 4424      6F6E00
 4425              	.LASF47:
 4426 0049 72616E67 		.ascii	"range\000"
 4426      6500
 4427              	.LASF36:
 4428 004f 4C43335F 		.ascii	"LC3_BANDWIDTH_SWB\000"
 4428      42414E44 
 4428      57494454 
 4428      485F5357 
 4428      4200
 4429              	.LASF28:
 4430 0061 73697A65 		.ascii	"sizetype\000"
 4430      74797065 
 4430      00
 4431              	.LASF52:
 4432 006a 6C63335F 		.ascii	"lc3_bits_buffer\000"
 4432      62697473 
 4432      5F627566 
 4432      66657200 
 4433              	.LASF41:
 4434 007a 6C63335F 		.ascii	"lc3_bits_mode\000"
 4434      62697473 
 4434      5F6D6F64 
 4434      6500
 4435              	.LASF44:
 4436 0088 6E6F7665 		.ascii	"nover\000"
ARM GAS  C:\Users\rdn\AppData\Local\Temp\cc9mY3xa.s 			page 141


 4436      7200
 4437              	.LASF7:
 4438 008e 6C6F6E67 		.ascii	"long long int\000"
 4438      206C6F6E 
 4438      6720696E 
 4438      7400
 4439              	.LASF57:
 4440 009c 6D6F6465 		.ascii	"mode\000"
 4440      00
 4441              	.LASF46:
 4442 00a1 6C63335F 		.ascii	"lc3_bits_ac\000"
 4442      62697473 
 4442      5F616300 
 4443              	.LASF17:
 4444 00ad 6C63335F 		.ascii	"lc3_dt\000"
 4444      647400
 4445              	.LASF24:
 4446 00b4 4C43335F 		.ascii	"LC3_SRATE_48K_HR\000"
 4446      53524154 
 4446      455F3438 
 4446      4B5F4852 
 4446      00
 4447              	.LASF67:
 4448 00c5 6277735F 		.ascii	"bws_table.5458\000"
 4448      7461626C 
 4448      652E3534 
 4448      353800
 4449              	.LASF45:
 4450 00d4 6C63335F 		.ascii	"lc3_bits_accu\000"
 4450      62697473 
 4450      5F616363 
 4450      7500
 4451              	.LASF11:
 4452 00e2 75696E74 		.ascii	"uint8_t\000"
 4452      385F7400 
 4453              	.LASF14:
 4454 00ea 4C43335F 		.ascii	"LC3_DT_7M5\000"
 4454      44545F37 
 4454      4D3500
 4455              	.LASF58:
 4456 00f5 61636375 		.ascii	"accu\000"
 4456      00
 4457              	.LASF73:
 4458 00fa 6C63335F 		.ascii	"lc3_hr\000"
 4458      687200
 4459              	.LASF19:
 4460 0101 4C43335F 		.ascii	"LC3_SRATE_8K\000"
 4460      53524154 
 4460      455F384B 
 4460      00
 4461              	.LASF62:
 4462 010e 6277735F 		.ascii	"bws_table_2m5.5454\000"
 4462      7461626C 
 4462      655F326D 
 4462      352E3534 
 4462      353400
 4463              	.LASF25:
ARM GAS  C:\Users\rdn\AppData\Local\Temp\cc9mY3xa.s 			page 142


 4464 0121 4C43335F 		.ascii	"LC3_SRATE_96K_HR\000"
 4464      53524154 
 4464      455F3936 
 4464      4B5F4852 
 4464      00
 4465              	.LASF15:
 4466 0132 4C43335F 		.ascii	"LC3_DT_10M\000"
 4466      44545F31 
 4466      304D00
 4467              	.LASF3:
 4468 013d 73686F72 		.ascii	"short int\000"
 4468      7420696E 
 4468      7400
 4469              	.LASF40:
 4470 0147 4C43335F 		.ascii	"LC3_NUM_BANDWIDTH\000"
 4470      4E554D5F 
 4470      42414E44 
 4470      57494454 
 4470      4800
 4471              	.LASF0:
 4472 0159 666C6F61 		.ascii	"float\000"
 4472      7400
 4473              	.LASF75:
 4474 015f 6D61785F 		.ascii	"max_bw\000"
 4474      627700
 4475              	.LASF55:
 4476 0166 705F6277 		.ascii	"p_bw\000"
 4476      00
 4477              	.LASF71:
 4478 016b 62697473 		.ascii	"bits\000"
 4478      00
 4479              	.LASF53:
 4480 0170 73746172 		.ascii	"start\000"
 4480      7400
 4481              	.LASF34:
 4482 0176 4C43335F 		.ascii	"LC3_BANDWIDTH_WB\000"
 4482      42414E44 
 4482      57494454 
 4482      485F5742 
 4482      00
 4483              	.LASF22:
 4484 0187 4C43335F 		.ascii	"LC3_SRATE_32K\000"
 4484      53524154 
 4484      455F3332 
 4484      4B00
 4485              	.LASF63:
 4486 0195 6277735F 		.ascii	"bws_table_5m.5455\000"
 4486      7461626C 
 4486      655F356D 
 4486      2E353435 
 4486      3500
 4487              	.LASF10:
 4488 01a7 5F5F7569 		.ascii	"__uint8_t\000"
 4488      6E74385F 
 4488      7400
 4489              	.LASF76:
 4490 01b1 6C63335F 		.ascii	"lc3_put_bits_generic\000"
ARM GAS  C:\Users\rdn\AppData\Local\Temp\cc9mY3xa.s 			page 143


 4490      7075745F 
 4490      62697473 
 4490      5F67656E 
 4490      65726963 
 4491              	.LASF42:
 4492 01c6 4C43335F 		.ascii	"LC3_BITS_MODE_READ\000"
 4492      42495453 
 4492      5F4D4F44 
 4492      455F5245 
 4492      414400
 4493              	.LASF2:
 4494 01d9 756E7369 		.ascii	"unsigned char\000"
 4494      676E6564 
 4494      20636861 
 4494      7200
 4495              	.LASF29:
 4496 01e7 6C6F6E67 		.ascii	"long double\000"
 4496      20646F75 
 4496      626C6500 
 4497              	.LASF81:
 4498 01f3 6C63335F 		.ascii	"lc3_put_bits\000"
 4498      7075745F 
 4498      62697473 
 4498      00
 4499              	.LASF78:
 4500 0200 474E5520 		.ascii	"GNU C11 5.4.1 20160609 (release) [ARM/embedded-5-br"
 4500      43313120 
 4500      352E342E 
 4500      31203230 
 4500      31363036 
 4501 0233 616E6368 		.ascii	"anch revision 237715] -mcpu=cortex-m4 -mfloat-abi=s"
 4501      20726576 
 4501      6973696F 
 4501      6E203233 
 4501      37373135 
 4502 0266 6F667466 		.ascii	"oftfp -mfpu=fpv4-sp-d16 -mthumb -g -O3 -ffunction-s"
 4502      70202D6D 
 4502      6670753D 
 4502      66707634 
 4502      2D73702D 
 4503 0299 65637469 		.ascii	"ections -ffat-lto-objects -finline-functions -flto\000"
 4503      6F6E7320 
 4503      2D666661 
 4503      742D6C74 
 4503      6F2D6F62 
 4504              	.LASF82:
 4505 02cc 6C63335F 		.ascii	"lc3_bwdet_put_bw\000"
 4505      62776465 
 4505      745F7075 
 4505      745F6277 
 4505      00
 4506              	.LASF38:
 4507 02dd 4C43335F 		.ascii	"LC3_BANDWIDTH_FB_HR\000"
 4507      42414E44 
 4507      57494454 
 4507      485F4642 
 4507      5F485200 
ARM GAS  C:\Users\rdn\AppData\Local\Temp\cc9mY3xa.s 			page 144


 4508              	.LASF1:
 4509 02f1 7369676E 		.ascii	"signed char\000"
 4509      65642063 
 4509      68617200 
 4510              	.LASF8:
 4511 02fd 6C6F6E67 		.ascii	"long long unsigned int\000"
 4511      206C6F6E 
 4511      6720756E 
 4511      7369676E 
 4511      65642069 
 4512              	.LASF9:
 4513 0314 756E7369 		.ascii	"unsigned int\000"
 4513      676E6564 
 4513      20696E74 
 4513      00
 4514              	.LASF72:
 4515 0321 6E626974 		.ascii	"nbits_bw\000"
 4515      735F6277 
 4515      00
 4516              	.LASF50:
 4517 032a 63617272 		.ascii	"carry_count\000"
 4517      795F636F 
 4517      756E7400 
 4518              	.LASF48:
 4519 0336 63616368 		.ascii	"cache\000"
 4519      6500
 4520              	.LASF56:
 4521 033c 6C63335F 		.ascii	"lc3_bits\000"
 4521      62697473 
 4521      00
 4522              	.LASF49:
 4523 0345 63617272 		.ascii	"carry\000"
 4523      7900
 4524              	.LASF26:
 4525 034b 4C43335F 		.ascii	"LC3_NUM_SRATE\000"
 4525      4E554D5F 
 4525      53524154 
 4525      4500
 4526              	.LASF30:
 4527 0359 63686172 		.ascii	"char\000"
 4527      00
 4528              	.LASF5:
 4529 035e 6C6F6E67 		.ascii	"long int\000"
 4529      20696E74 
 4529      00
 4530              	.LASF43:
 4531 0367 4C43335F 		.ascii	"LC3_BITS_MODE_WRITE\000"
 4531      42495453 
 4531      5F4D4F44 
 4531      455F5752 
 4531      49544500 
 4532              	.LASF20:
 4533 037b 4C43335F 		.ascii	"LC3_SRATE_16K\000"
 4533      53524154 
 4533      455F3136 
 4533      4B00
 4534              	.LASF32:
ARM GAS  C:\Users\rdn\AppData\Local\Temp\cc9mY3xa.s 			page 145


 4535 0389 6C63335F 		.ascii	"lc3_bandwidth\000"
 4535      62616E64 
 4535      77696474 
 4535      6800
 4536              	.LASF27:
 4537 0397 5F426F6F 		.ascii	"_Bool\000"
 4537      6C00
 4538              	.LASF66:
 4539 039d 6C5F7461 		.ascii	"l_table.5459\000"
 4539      626C652E 
 4539      35343539 
 4539      00
 4540              	.LASF74:
 4541 03aa 6C63335F 		.ascii	"lc3_get_bits\000"
 4541      6765745F 
 4541      62697473 
 4541      00
 4542              	.LASF69:
 4543 03b7 6C63335F 		.ascii	"lc3_bwdet_run\000"
 4543      62776465 
 4543      745F7275 
 4543      6E00
 4544              	.LASF59:
 4545 03c5 62756666 		.ascii	"buffer\000"
 4545      657200
 4546              	.LASF4:
 4547 03cc 73686F72 		.ascii	"short unsigned int\000"
 4547      7420756E 
 4547      7369676E 
 4547      65642069 
 4547      6E7400
 4548              	.LASF79:
 4549 03df 2E2E5C2E 		.ascii	"..\\..\\..\\liblc3\\src\\bwdet.c\000"
 4549      2E5C2E2E 
 4549      5C6C6962 
 4549      6C63335C 
 4549      7372635C 
 4550              	.LASF6:
 4551 03fb 6C6F6E67 		.ascii	"long unsigned int\000"
 4551      20756E73 
 4551      69676E65 
 4551      6420696E 
 4551      7400
 4552              	.LASF31:
 4553 040d 646F7562 		.ascii	"double\000"
 4553      6C6500
 4554              	.LASF70:
 4555 0414 6C63335F 		.ascii	"lc3_bwdet_get_nbits\000"
 4555      62776465 
 4555      745F6765 
 4555      745F6E62 
 4555      69747300 
 4556              	.LASF39:
 4557 0428 4C43335F 		.ascii	"LC3_BANDWIDTH_UB_HR\000"
 4557      42414E44 
 4557      57494454 
 4557      485F5542 
ARM GAS  C:\Users\rdn\AppData\Local\Temp\cc9mY3xa.s 			page 146


 4557      5F485200 
 4558              	.LASF12:
 4559 043c 4C43335F 		.ascii	"LC3_DT_2M5\000"
 4559      44545F32 
 4559      4D3500
 4560              	.LASF37:
 4561 0447 4C43335F 		.ascii	"LC3_BANDWIDTH_FB\000"
 4561      42414E44 
 4561      57494454 
 4561      485F4642 
 4561      00
 4562              	.LASF35:
 4563 0458 4C43335F 		.ascii	"LC3_BANDWIDTH_SSWB\000"
 4563      42414E44 
 4563      57494454 
 4563      485F5353 
 4563      574200
 4564              	.LASF80:
 4565 046b 433A5C55 		.ascii	"C:\\Users\\rdn\\Documents\\PSoC Creator\\SEES\\ble_"
 4565      73657273 
 4565      5C72646E 
 4565      5C446F63 
 4565      756D656E 
 4566 0498 74657374 		.ascii	"test.cydsn\000"
 4566      2E637964 
 4566      736E00
 4567              	.LASF23:
 4568 04a3 4C43335F 		.ascii	"LC3_SRATE_48K\000"
 4568      53524154 
 4568      455F3438 
 4568      4B00
 4569              	.LASF16:
 4570 04b1 4C43335F 		.ascii	"LC3_NUM_DT\000"
 4570      4E554D5F 
 4570      445400
 4571              	.LASF51:
 4572 04bc 6572726F 		.ascii	"error\000"
 4572      7200
 4573              	.LASF65:
 4574 04c2 6277735F 		.ascii	"bws_table_10m.5457\000"
 4574      7461626C 
 4574      655F3130 
 4574      6D2E3534 
 4574      353700
 4575              	.LASF33:
 4576 04d5 4C43335F 		.ascii	"LC3_BANDWIDTH_NB\000"
 4576      42414E44 
 4576      57494454 
 4576      485F4E42 
 4576      00
 4577              	.LASF83:
 4578 04e6 6C63335F 		.ascii	"lc3_bwdet_get_bw\000"
 4578      62776465 
 4578      745F6765 
 4578      745F6277 
 4578      00
 4579              	.LASF13:
ARM GAS  C:\Users\rdn\AppData\Local\Temp\cc9mY3xa.s 			page 147


 4580 04f7 4C43335F 		.ascii	"LC3_DT_5M\000"
 4580      44545F35 
 4580      4D00
 4581              	.LASF64:
 4582 0501 6277735F 		.ascii	"bws_table_7m5.5456\000"
 4582      7461626C 
 4582      655F376D 
 4582      352E3534 
 4582      353600
 4583              		.comm	__gnu_lto_v1,1,1
 4584              		.ident	"GCC: (GNU Tools for ARM Embedded Processors) 5.4.1 20160609 (release) [ARM/embedded-5-bran
