ARM GAS  C:\Users\rdn\AppData\Local\Temp\ccE7gSzh.s 			page 1


   1              		.syntax unified
   2              		.cpu cortex-m4
   3              		.eabi_attribute 27, 1
   4              		.fpu fpv4-sp-d16
   5              		.eabi_attribute 20, 1
   6              		.eabi_attribute 21, 1
   7              		.eabi_attribute 23, 3
   8              		.eabi_attribute 24, 1
   9              		.eabi_attribute 25, 1
  10              		.eabi_attribute 26, 1
  11              		.eabi_attribute 30, 2
  12              		.eabi_attribute 34, 1
  13              		.eabi_attribute 18, 4
  14              		.thumb
  15              		.syntax unified
  16              		.file	"cy_sysanalog.c"
  17              		.text
  18              	.Ltext0:
  19              		.section	.gnu.lto_.profile.d5febdc8,"",%progbits
  20 0000 789C6361 		.ascii	"x\234ca`d`a`\000\222\374|\000\000\226\000("
  20      60646061 
  20      600092FC 
  20      7C000096 
  20      0028
  21              		.text
  22              		.section	.gnu.lto_.icf.d5febdc8,"",%progbits
  23 0000 789C6361 		.ascii	"x\234ca`d\000\001)\006\004`a\230\321y\354\011\013\323"
  23      60640001 
  23      29060460 
  23      6198D179 
  23      EC090BD3 
  24 0014 C1D5B33F 		.ascii	"\301\325\263?\2600?\230wy>\017\313\226{\277\256\263"
  24      B0303F98 
  24      77793E0F 
  24      CB967BBF 
  24      AEB3
  25 0026 330000A3 		.ascii	"3\000\000\243\303\014]"
  25      C30C5D
  26              		.text
  27              		.section	.gnu.lto_.jmpfuncs.d5febdc8,"",%progbits
  28 0000 789C6361 		.ascii	"x\234ca`d\000\001v\006\004`d`dd\254g\000\000\0026\000"
  28      60640001 
  28      76060460 
  28      64606464 
  28      AC670000 
  29 0017 90       		.ascii	"\220"
  30              		.text
  31              		.section	.gnu.lto_.inline.d5febdc8,"",%progbits
  32 0000 789C6361 		.ascii	"x\234ca`d\000\201e\014\010\000\024\021\340adgP\310\372"
  32      60640081 
  32      650C0800 
  32      1411E061 
  32      646750C8 
  33 0015 CBC438AD 		.ascii	"\313\3048\255\365\320y\366/L\255\314@a\306\345\2142"
  33      F5D079F6 
  33      2F4CADCC 
  33      4061C6E5 
ARM GAS  C:\Users\rdn\AppData\Local\Temp\ccE7gSzh.s 			page 2


  33      8C32
  34 0027 0C0C0AD9 		.ascii	"\014\014\012\331P\032\244\223\203\221\201\031\314dV"
  34      501AA493 
  34      83918119 
  34      CC6456
  35 0036 00930E60 		.ascii	"\000\223\016`2\201\037(\305\266@\236\211\201e\201\274"
  35      32811F28 
  35      C5B6409E 
  35      89816581 
  35      BC
  36 0047 0003E303 		.ascii	"\000\003\343\003V\005\016&\006\346\005\202\012\034 "
  36      56050E26 
  36      06E60582 
  36      0A1C20
  37 0056 8E039003 		.ascii	"\216\003\220\003\246\030\230\016p'\200\205\032\030!"
  37      A618980E 
  37      70278085 
  37      1A1821
  38 0065 62401A24 		.ascii	"b@\032$\370\200\021\"\312\004\025e\202\2102s0\260\035"
  38      F8801122 
  38      CA041565 
  38      82883273 
  38      30B01D
  39 0078 50E200BB 		.ascii	"P\342\000\273\022\000\344M\033C"
  39      1200E44D 
  39      1B43
  40              		.text
  41              		.section	.gnu.lto_.pureconst.d5febdc8,"",%progbits
  42 0000 789C6361 		.ascii	"x\234ca`d`f`\000\222R\000\000r\000$"
  42      60646066 
  42      60009252 
  42      00007200 
  42      24
  43              		.text
  44              		.section	.gnu.lto_Cy_SysAnalog_Init.d5febdc8,"",%progbits
  45 0000 789C8D53 		.ascii	"x\234\215S_l\223U\024\277\277{\277\366\353\372\037\234"
  45      5F6C9355 
  45      14BFBF7B 
  45      BFF6EBFA 
  45      1F9C
  46 0012 C68705F6 		.ascii	"\306\207\005\366\262\020\036\240\017\030\311\236}\300"
  46      B2101EA0 
  46      0F18C99E 
  46      7DC0
  47 0020 F8042331 		.ascii	"\370\004#11i\262,]\231K\232m\351\006\311\236v\267\266"
  47      3169B22C 
  47      5D994B9A 
  47      6DE906C9 
  47      9E76B7B6 
  48 0034 63444D00 		.ascii	"cDM\000\343\"C\235\211!\210\012e\014\205\361\317\256"
  48      E322439D 
  48      8921880A 
  48      650C85F1 
  48      CFAE
  49 0046 B0110D7F 		.ascii	"\260\021\015\177\342\"\220  \0330\343\266\020\213\240"
  49      E2229020 
  49      201B30E3 
ARM GAS  C:\Users\rdn\AppData\Local\Temp\ccE7gSzh.s 			page 3


  49      B6108BA0 
  50 0056 1064F39C 		.ascii	"\020d\363\234\373\265KQ\036v\223\336\357\336\323\363"
  50      FBB54B51 
  50      1E7693DE 
  50      EFDED3F3 
  51 0066 FBFDCEB9 		.ascii	"\373\375\316\271\347\034K@\360\252q\011QO\337\327\350"
  51      E71C4B40 
  51      F0AA7109 
  51      514FDFD7 
  51      E8
  52 0077 079780DC 		.ascii	"\007\227\200\334yI\210n\217\224\326\245J\241\275*_+"
  52      7949886E 
  52      8F94D6A5 
  52      4AA1BD2A 
  52      5F2B
  53 0089 B45FC172 		.ascii	"\264_\301r\314\026\300\007\355\201\350\222\312B\027"
  53      CC16C007 
  53      ED81E892 
  53      CA4217
  54 0098 1EC96712 		.ascii	"\036\311g\022?\245\017\177\242\036\312\214\022\260\350"
  54      3FA50F7F 
  54      A21ECA8C 
  54      12B0E8
  55 00a7 5AB83870 		.ascii	"Z\2708p'\310W\240\232\256{\365\304\016{\365~\255{\364"
  55      27C857A0 
  55      9AAE7BF5 
  55      C40E7BF5 
  55      7EAD7BF4 
  56 00bb ED7B531B 		.ascii	"\355{S\033?Le\336\314()\026\244\300\227\250\302~T\261"
  56      3F4C65DE 
  56      CC282916 
  56      A4C097A8 
  56      C27E54B1 
  57 00cf F601AC26 		.ascii	"\366\001\254&\337\337\347\263\277Y\352-\010:\037\270"
  57      DFDFE7B3 
  57      BF59EA2D 
  57      083A1FB8 
  58 00df B577D3AA 		.ascii	"\265w\323\252}\014\323'\307\375z'2J\341+\250r \231\004"
  58      7D0CD327 
  58      C7FD7A27 
  58      324AE12B 
  58      A8722099 
  59 00f4 BEC62AF6 		.ascii	"\276\306*\366\237=\365\250^m2\320_\037\316\216\271j"
  59      9F3DF5A8 
  59      5E6D32D0 
  59      5F1FCE8E 
  59      B96A
  60 0106 BE606C6E 		.ascii	"\276`ln\2507\264G\347\322\325\031\212\367\233\347\321"
  60      A837B447 
  60      E7D2D519 
  60      8AF79BE7 
  60      D1
  61 0117 BCC87BFA 		.ascii	"\274\310{\372\275\2613\266z\307 \177\370\347\203;\241"
  61      BDB133B6 
  61      7AC7207F 
  61      F8E7833B 
  61      A1
ARM GAS  C:\Users\rdn\AppData\Local\Temp\ccE7gSzh.s 			page 4


  62 0128 2272B077 		.ascii	"\"r\260we\021)q\350\205\310\251\241\371\217\002\356"
  62      65112971 
  62      E885C8A9 
  62      A1F98F02 
  62      EE
  63 0139 B4A6558D 		.ascii	"\264\246U\215,jp\0205\234\030\345s\030nzaY\262f\353"
  63      2C6A7010 
  63      359C18E5 
  63      73186E7A 
  63      6159B266 
  64 014e 727A6121 		.ascii	"rza!\245s{\334\243\273\355\345\020\374\007=\020\305"
  64      A5737BDC 
  64      A3BBEDE5 
  64      10FC073D 
  64      10C5
  65 0160 EEA22C5C 		.ascii	"\356\242,\\n\336l\332\334\036\332\354\012>yi\363\370"
  65      6EDE6CDA 
  65      DC1EDAEC 
  65      0A3E7969 
  65      F3F8
  66 0172 F8E4A7AD 		.ascii	"\370\344\247\255\" \230(HGo\210\215a\332|B\374Ar\\\224"
  66      22209828 
  66      48476F88 
  66      8D61DA7C 
  66      42FC4172 
  67 0188 8294FC55 		.ascii	"\202\224\374US\350\341\234M\000\344OQf\347F\236\004"
  67      53E8E19C 
  67      4D00E44F 
  67      5166E746 
  67      9E04
  68 019a B81E1411 		.ascii	"\270\036\024\021\206(\372I\244\257\247f\337\177\225"
  68      8628FA49 
  68      A4AFA766 
  68      DF7F95
  69 01a9 7D524A91 		.ascii	"}RJ\221K\177&\177\331f\027E.G\212\011\026\244\022\371"
  69      4B7F267F 
  69      D9661745 
  69      2E478A09 
  69      16A412F9 
  70 01bd 5A358D9E 		.ascii	"Z5\215\236\023\205\253\243\025\216\267\213\274\377>"
  70      1385ABA3 
  70      158EB78B 
  70      BCFF3E
  71 01cc FF639F7F 		.ascii	"\377c\237\177\020\237RE\374\204w\000d\377\354\343\343"
  71      109F5245 
  71      FC847700 
  71      64FFECE3 
  71      E3
  72 01dd 7F062307 		.ascii	"\177\006#\007u8\243\002\030\306 \346\371)\004\216\""
  72      7538A302 
  72      18C620E6 
  72      F929048E 
  72      22
  73 01ee 22A6917A 		.ascii	"\"\246\221z\334\373\327\300\333\016K\221h\364\366\221"
  73      DCFBD7C0 
  73      DB0E4B91 
  73      68F4F691 
ARM GAS  C:\Users\rdn\AppData\Local\Temp\ccE7gSzh.s 			page 5


  74 01fe 828F6503 		.ascii	"\202\217e\003\260\360-\261\220\326\003\333q\261\311"
  74      B0F02DB1 
  74      90D603DB 
  74      71B1C9
  75 020d 4B18ED6B 		.ascii	"K\030\355k\223Em\317\322\264\203\370\316hs\207\343X"
  75      93456DCF 
  75      D2B483F8 
  75      CE687387 
  75      E358
  76 021f 49FB8674 		.ascii	"I\373\206tH*\014\265\307P\017\335(Q{\227F\035\302qC"
  76      482A0CB5 
  76      C7500FDD 
  76      28517B97 
  76      461DC271 
  77 0234 6D4A3CF2 		.ascii	"mJ<\362_j\237a\367:Q/R\373\227F\035\306\011C\255\230"
  77      5F6A9F61 
  77      F73A512F 
  77      52FB9746 
  77      1DC60943 
  78 024a FA6489FA 		.ascii	"\372d\211\372\376@\235\303\0220\364~1\005Y*-\031Y\252"
  78      FE409DC3 
  78      1230F47E 
  78      3105592A 
  78      2D1959AA 
  79 025e BF707397 		.ascii	"\277ps\227r\234\202\345\245\\f\032zdd\356\027\273\353"
  79      729C82E5 
  79      A55C661A 
  79      7A6464EE 
  79      17BBEB
  80 0271 99EED32C 		.ascii	"\231\356\323,\262l\207r:w\346\302\225s^\012\250[\033"
  80      B26C8772 
  80      3A77E6C2 
  80      95735E0A 
  80      A85B1B
  81 0284 BB17A769 		.ascii	"\273\027\247i\230OqT8Ca\230\024\340\220\206\312I\275"
  81      984F7154 
  81      38436198 
  81      14E09086 
  81      CA49BD
  82 0297 86B42C9D 		.ascii	"\206\264,\235\345\244\212\357\377\237\316K\310\231t"
  82      E5A48AEF 
  82      FF9FCE4B 
  82      C89974
  83 02a6 2C4E67D4 		.ascii	",Ng\324\244\263X\3320\221\322=\337?\271\202\015\345"
  83      A4B358DA 
  83      3091D23D 
  83      DF3FB982 
  83      0DE5
  84 02b8 FCBEE7F8 		.ascii	"\374\276\347\3709:\275\216\372\274\222@\310\027U\366"
  84      393ABD8E 
  84      FABC9240 
  84      C81755F6 
  85 02c8 DDED3964 		.ascii	"\335\3559dG\326d\324\3138k4\\NN\247\207'\306%\251\247"
  85      47D664D4 
  85      CB386B34 
  85      5C4E4EA7 
  85      8727C625 
ARM GAS  C:\Users\rdn\AppData\Local\Temp\ccE7gSzh.s 			page 6


  86 02de 29AC5770 		.ascii	")\254Wp\016\221y\351f\3651D\370\251x0\236\366V\232\327"
  86      0E9179E9 
  86      66F53144 
  86      F8A97830 
  86      9EF6569A 
  87 02f3 CB9AC158 		.ascii	"\313\232\301XT\245V\301\270\351\372\002\005\\\234\242"
  87      54A556C1 
  87      B8E9FA02 
  87      055C9CA2 
  88 0303 B099D114 		.ascii	"\260\231\321\024M\304\014!wm\017:\301sW=\000\010\376"
  88      4DC40C21 
  88      776D0F3A 
  88      C173573D 
  88      0008FE
  89 0316 F4FAF47D 		.ascii	"\364\372\364}8\360n\375X\342<\252\344\205\341\317\301"
  89      38F06EFD 
  89      58E23CAA 
  89      E485E1CF 
  89      C1
  90 0327 54EAE7F5 		.ascii	"T\352\347\3654\231`.\352\225\015\033\342-\361dCG\274"
  90      3499602E 
  90      EA950D1B 
  90      E22DF164 
  90      4347BC
  91 033a B17E73EB 		.ascii	"\261~s\353\326d,\036\335\270\271\365\215\327\243m\215"
  91      D6642C1E 
  91      DDB8B9F5 
  91      8DD7A36D 
  91      8D
  92 034b 896863B2 		.ascii	"\211hc\262y[<\331\036m\213'\233\333\336%\257D\264\275"
  92      795B3CD9 
  92      1E6D8B27 
  92      9BDBDE25 
  92      AF44B4BD 
  93 035f B3BDA1A5 		.ascii	"\263\275\241\245!\321\332\024\215u\326/^\326\306\204"
  93      21D1DA14 
  93      8D75D62F 
  93      5ED6C684 
  94 036f 3BD6DAB2 		.ascii	";\326\332\262\245\271\311\216u$\023u\361&w2\336\276"
  94      A5B9C98E 
  94      75241375 
  94      F1267732 
  94      DEBE
  95 0381 35D1F12F 		.ascii	"5\321\361/\364,\311+"
  95      F42CC92B 
  96              		.text
  97              		.section	.gnu.lto_Cy_SysAnalog_Fast_External.d5febdc8,"",%progbits
  98 0000 789C6361 		.ascii	"x\234ca`d\000\201\022 \206\260\030\030\37621Nk=t\236"
  98      60640081 
  98      122086B0 
  98      1818FE32 
  98      314E6B3D 
  99 0016 FD0B532B 		.ascii	"\375\013S+3P\020\310\375\270\373Q\003+\210\313\310\330"
  99      335010C8 
  99      FDB8FB51 
  99      032B88CB 
  99      C8D8
ARM GAS  C:\Users\rdn\AppData\Local\Temp\ccE7gSzh.s 			page 7


 100 0028 D0D0C008 		.ascii	"\320\320\300\010\024Y\365}\376g\026\220\010\023P\204"
 100      1459F57D 
 100      FE671690 
 100      08135084 
 101 0038 0528B0B5 		.ascii	"\005(\260\265\375\314F.\220\000P\015\220;w\371\337."
 101      FDCC462E 
 101      9000500D 
 101      903B77F9 
 101      DF2E
 102 004a 268B6D0D 		.ascii	"&\213m\015\035\013\032\034Z\231Y\376110\256b\224\371"
 102      1D0B1A1C 
 102      5A9959FE 
 102      313130AE 
 102      6294F9
 103 005d C7C4C8B8 		.ascii	"\307\304\310\270\022D11\256\000Q\314\214\313\031e\030"
 103      12443131 
 103      AE0051CC 
 103      8CCB1965 
 103      18
 104 006e 1857335A 		.ascii	"\030W3Z0\000\000k\210(w"
 104      3000006B 
 104      882877
 105              		.text
 106              		.section	.gnu.lto_Cy_SysAnalog_Fast_SRSS.d5febdc8,"",%progbits
 107 0000 789C6361 		.ascii	"x\234ca`d\000\201| \206\260\030\030\37621Nk=t\236\375"
 107      60640081 
 107      7C2086B0 
 107      1818FE32 
 107      314E6B3D 
 108 0017 0B532B33 		.ascii	"\013S+3P\020\231\313\210\312e\002s\267\266\237\331\310"
 108      501099CB 
 108      88CA6502 
 108      73B7B69F 
 108      D9C8
 109 0029 05E202A5 		.ascii	"\005\342\002\245\201\334\311\273\376oc\267\330\326\320"
 109      81DCC9BB 
 109      FE6F63B7 
 109      D8D6D0
 110 0038 B1A0C1A1 		.ascii	"\261\240\301\241\225\231\345\037\023\003\343*F\231\177"
 110      9599E51F 
 110      1303E32A 
 110      46997F
 111 0047 4C8C8C2B 		.ascii	"L\214\214+A\024\023\343\012\020\305\314\270\234Q\206"
 111      411413E3 
 111      0A10C5CC 
 111      B89C5186 
 112 0057 817135A3 		.ascii	"\201q5\243\005\003\000\032\326%E"
 112      0503001A 
 112      D62545
 113              		.text
 114              		.section	.gnu.lto_Cy_SysAnalog_Fast_Local.d5febdc8,"",%progbits
 115 0000 789C6361 		.ascii	"x\234ca`d\000\201\022 \206\260\030\030\37621Nk=t\236"
 115      60640081 
 115      122086B0 
 115      1818FE32 
 115      314E6B3D 
 116 0016 FD0B532B 		.ascii	"\375\013S+3P\020\310\275\366\341\317i\036\020\227\221"
ARM GAS  C:\Users\rdn\AppData\Local\Temp\ccE7gSzh.s 			page 8


 116      335010C8 
 116      BDF6E1CF 
 116      691E1097 
 116      91
 117 0027 B1A1E100 		.ascii	"\261\241\341\000Hd\325\367\371\237Y@\"L@\021\026\240"
 117      4864D5F7 
 117      F99F5940 
 117      224C4011 
 117      16A0
 118 0039 C0D6F633 		.ascii	"\300\326\3663\033\271@\002@5@\356\227#\017\276rYlk\350"
 118      1BB94002 
 118      403540EE 
 118      97230FBE 
 118      72596C6B 
 119 004e 58D0E0D0 		.ascii	"X\320\340\320\312\314\362\217\211\201q\025\243\314?"
 119      CACCF28F 
 119      89817115 
 119      A3CC3F
 120 005d 2646C695 		.ascii	"&F\306\225 \212\211q\005\210bf\\\316(\303\300\270\232"
 120      208A8971 
 120      05886266 
 120      5CCE28C3 
 120      C0B89A
 121 0070 D1820100 		.ascii	"\321\202\001\000\330\205*\006"
 121      D8852A06 
 122              		.text
 123              		.section	.gnu.lto_.symbol_nodes.d5febdc8,"",%progbits
 124 0000 789C6361 		.ascii	"x\234ca`d0g\000\002\246\315\214\365\014\014\023\316"
 124      60643067 
 124      0002A6CD 
 124      8CF50C0C 
 124      13CE
 125 0012 313000A9 		.ascii	"10\000\251]\015\212\014\014\254[\030\031\024\2002\254"
 125      5D0D8A0C 
 125      0CAC5B18 
 125      19148032 
 125      AC
 126 0023 9B18191B 		.ascii	"\233\030\031\033\205@\214\215\214L\020\306\006Ff0\203"
 126      85408C8D 
 126      8C4C10C6 
 126      06466630 
 126      83
 127 0034 010038C0 		.ascii	"\001\0008\300\011h"
 127      0968
 128              		.text
 129              		.section	.gnu.lto_.refs.d5febdc8,"",%progbits
 130 0000 789C6361 		.ascii	"x\234ca`d`c`\000\222\014\214\274\014\000\000\261\000"
 130      60646063 
 130      6000920C 
 130      8CBC0C00 
 130      00B100
 131 0013 1B       		.ascii	"\033"
 132              		.text
 133              		.section	.gnu.lto_.decls.d5febdc8,"",%progbits
 134 0000 789CED5B 		.ascii	"x\234\355[{PTg\226\357{\277\006\232\346\245\350d\234"
 134      7B505467 
 134      96EF7BBF 
ARM GAS  C:\Users\rdn\AppData\Local\Temp\ccE7gSzh.s 			page 9


 134      069AE6A5 
 134      E8649C
 135 0013 1D27E3CE 		.ascii	"\035'\343\316:\023fw\307\367\244R[[[!H\022\253|P@2\231"
 135      3A136677 
 135      C7F7A452 
 135      5B5B5B21 
 135      4812AB7C 
 136 002b 29767B08 		.ascii	")v{\010\264\261+\274\246\273I&\363\307\326\005\024\001"
 136      B4B12BBC 
 136      A6BB4926 
 136      F3C7D605 
 136      1401
 137 003d A33C0544 		.ascii	"\243<\005D\344%\362Vy\250\240\242\002\"\210\212A\344"
 137      E425F256 
 137      79A8A0A2 
 137      0222888A 
 137      41E4
 138 004f E1839722 		.ascii	"\341\203\227\"(\202\200@\024\004d\317\367}\267\373\336"
 138      28828040 
 138      140464CF 
 138      F77DB7FB 
 138      DE
 139 0060 EEBE24A9 		.ascii	"\356\276$\251\232\331\371k\272<\364=\347\373}\347\234"
 139      9AD9F96B 
 139      BA3CF43D 
 139      E7FB7DE7 
 139      9C
 140 0071 EF9CF33D 		.ascii	"\357\234\363=n\337\253\\\306\310\360\307z\203L\366c"
 140      6EDFAB5C 
 140      C6C8F0C7 
 140      7A834CF6 
 140      63
 141 0082 3B99AC00 		.ascii	";\231\254\000\330\005\370X\201\354c \334:&\243\037|"
 141      D805F858 
 141      81EC6320 
 141      DC3A26A3 
 141      1F7C
 142 0094 FD1A480E 		.ascii	"\375\032H\016\364\014\2301\240\347@\223\214\314\344"
 142      F40C9831 
 142      A0E74093 
 142      8CCCE4
 143 00a3 83313F06 		.ascii	"\2031?\006r\006Z\0164\313\353\370\031\340\232\341\373"
 143      72065A0E 
 143      34CBEBF8 
 143      19E09AE1 
 143      FB
 144 00b4 2DA05AA0 		.ascii	"-\240Z\240J\240>\240\021\220\257ae\262Q\270^\013\337"
 144      4AA03EA0 
 144      1190AF61 
 144      65B251B8 
 144      5E0BDF
 145 00c7 EB80D603 		.ascii	"\353\200\326\003m\000\332\0104\014\355\233\340\373\337"
 145      6D00DA08 
 145      340CED9B 
 145      E0FBDF
 146 00d6 819601BD 		.ascii	"\201\226\001\275\000\336\006\260\203@O\200\006\200\036"
 146      00DE06B0 
ARM GAS  C:\Users\rdn\AppData\Local\Temp\ccE7gSzh.s 			page 10


 146      83404F80 
 146      06801E
 147 00e5 037581FC 		.ascii	"\003u\201\374\347\320\356\300\012\2762\274\257\342\017"
 147      E7D0EEC0 
 147      0ABE32BC 
 147      AFE20F
 148 00f4 F6DB8AB7 		.ascii	"\366\333\212\267]\311\373\202\375\032\345\307f\256W"
 148      5DC9FB82 
 148      FD1AE5C7 
 148      66AE57
 149 0103 EAF3FC6F 		.ascii	"\352\363\374o\240c\362o\240c\236en\355.MGS,\343\254"
 149      A063F26F 
 149      A0639E65 
 149      6EED2E4D 
 149      47532CE3 
 150 0118 64E4C03E 		.ascii	"d\344\300>oN\353w\004v\271\222Y\005l\332\371\251kV\264"
 150      6F4EEB77 
 150      0476B992 
 150      59056CDA 
 150      F9A96B56 
 151 012d 5501ECC4 		.ascii	"U\001\354\304\235\210*\005b\031\334\261\373ja1\356\270"
 151      9D882A05 
 151      6219DCB1 
 151      FB6A6131 
 151      EEB8
 152 013f 43C9E094 		.ascii	"C\311\340\224;\201\350\344\310\331\031\007*\302\210"
 152      3B81E8E4 
 152      C8D91907 
 152      2AC288
 153 014e F1D6917B 		.ascii	"\361\326\221{\014\260\036J\206\3438\006$\323/\263\367"
 153      0CB01E4A 
 153      86E33806 
 153      24D32FB3 
 153      F7
 154 015f 3A211BD2 		.ascii	":!\033\322Z[yq\330F\316\312\230\023\014b\2163+\2117"
 154      5A5B7971 
 154      D846CECA 
 154      98130C62 
 154      8E332B89 
 155 0174 15F1FB2F 		.ascii	"\025\361\373/:\032\272\324`Is\301\361\032+\364k\322"
 155      3A1ABAD4 
 155      604973C1 
 155      F11A2BF4 
 155      6BD2
 156 0186 2521A3E8 		.ascii	"%!\243\350\202\023\356R\006]J\231\225\314IF\216\345"
 156      8213EE52 
 156      065D4A99 
 156      95CC4946 
 156      8EE5
 157 0198 4D6D4773 		.ascii	"MmGs\025h\033\301\304\014\316d8`L\005`\376u%SN!\275"
 157      15681BC1 
 157      C40CCE64 
 157      38604C05 
 157      60FE7525 
 158 01b0 3305EFAF 		.ascii	"3\005\357\257)\0017\2708\216c\357#c\000\330\256\246"
 158      290137B8 
 158      388E63EF 
ARM GAS  C:\Users\rdn\AppData\Local\Temp\ccE7gSzh.s 			page 11


 158      236300D8 
 158      AEA6
 159 01c2 94797BC6 		.ascii	"\224y{\306E\221\207\033\373\3566~\221\310qK\230JF!c"
 159      4591871B 
 159      FBEE367E 
 159      91C8714B 
 159      984A4621 
 160 01d7 4E336B78 		.ascii	"N3kx\\$\307\205sq\021\341\316W\035eL\001X\316\307\016"
 160      5C24C785 
 160      737111E1 
 160      CE571D65 
 160      4C0158CE 
 161 01ed 63140631 		.ascii	"c\024\0061g\030\027\346\024#gJ\240\245\030Zpx*\333["
 161      671817E6 
 161      1423674A 
 161      A0A5185A 
 161      70782ADB 
 162 0202 1D513583 		.ascii	"\035Q5\203\235b\237<\353.\203\010\272H\252a\316A\357"
 162      9D629F3C 
 162      EB2E8308 
 162      BA48AA61 
 162      CE41EF
 163 0215 C53411AF 		.ascii	"\3054\021\257j&c!\034\012\346,\200\252`X\324/\342#\211"
 163      6A266321 
 163      1C0AE62C 
 163      80AA6058 
 163      D42FE223 
 164 022a 5A41EF58 		.ascii	"ZA\357X\254#\272Gl1\217GK\276\2661\204\020\247\264\342"
 164      AC23BA47 
 164      6C318F47 
 164      4BBEB631 
 164      8410A7B4 
 165 023f 3C77DB09 		.ascii	"<w\333\011\365\321\326\260\231\007u\2668<\027@O5\037"
 165      F5D1D6B0 
 165      990775B6 
 165      383C1740 
 165      4F351F
 166 0252 F5C767C7 		.ascii	"\365\307g\307Jl\020G\363z!\257g\201 .\321\000^$\001"
 166      4A6C1047 
 166      F37A21AF 
 166      6781202E 
 166      D1005E24 
 167 0267 643B8EC5 		.ascii	"d;\216\305?\224/6\004\031S\313\373_\007\376\327X\370"
 167      3F942F36 
 167      041953CB 
 167      FB5F07FE 
 167      D758F8
 168 027a 7FC813BB 		.ascii	"\177\310\023\273_k\032S\260U\\\367\262\236A\231\304"
 168      5F6B1A53 
 168      B0555CF7 
 168      B29E4199 
 168      C4
 169 028b 303B5191 		.ascii	"0;Q\221\233!7$\242&3\201\014\371\012\350\275,\014\271"
 169      9B213724 
 169      A2263381 
 169      0CF90AE8 
 169      BD2C0CB9 
ARM GAS  C:\Users\rdn\AppData\Local\Temp\ccE7gSzh.s 			page 12


 170 029f 960C593A 		.ascii	"\226\014Y:\214\365`z17\300\326\225\344\230:'t\221\016"
 170      8CF5607A 
 170      3137C0D6 
 170      95E4983A 
 170      2774910E 
 171 02b3 F2E49E47 		.ascii	"\362\344\236G\205\012\010\322J(^FT\271+i\345^\037\317"
 171      850A08D2 
 171      4A285E46 
 171      54B92B69 
 171      E55E1FCF 
 172 02c7 7D60831A 		.ascii	"}`\203\032(\366E\372D\267\022\007\244\011\374\3707\032"
 172      28F645FA 
 172      44B71207 
 172      A409FCF8 
 172      371A
 173 02d9 B185A4E9 		.ascii	"\261\205\244\351(\026\365Q\300\340\375\316$;\014\270"
 173      2816F551 
 173      C0E0FDCE 
 173      243B0CB8 
 174 02e9 4E23768D 		.ascii	"N#v\215F\254\350\302`\235\223!b\343\341\341\326\251"
 174      46ACE8C2 
 174      609D9321 
 174      62E3E1E1 
 174      D6A9
 175 02fb E0EDC695 		.ascii	"\340\355\306\225\314:\034\257f\336\321\233\340\350\015"
 175      CC3A1CAF 
 175      66DED19B 
 175      E0E80D
 176 030a 70F42A38 		.ascii	"p\364*8\332h\214W\331\016<\366f\213x]\372\246\353\240"
 176      DA688C57 
 176      D90E3CF6 
 176      668B785D 
 176      FAA6EBA0 
 177 031e 1CCDD178 		.ascii	"\034\315\321x\265L\346\337g\215\361\252\244%r\013\364"
 177      B54CE6DF 
 177      678DF1AA 
 177      A425720B 
 177      F4
 178 032f 7E23C4AB 		.ascii	"~#\304\253Y\210\227\251\007L\013\030^\314\011\260\324"
 178      598897A9 
 178      074C0B18 
 178      5ECC09B0 
 178      D4
 179 0340 3A7EE388 		.ascii	":~\343\210\035\235\370K\200=3\330\324\240\244\313\002"
 179      1D9DF84B 
 179      803D33D8 
 179      D4A0A4CB 
 179      02
 180 0351 99C863F9 		.ascii	"\231\310c\371\263\177@\311\210\014\1776-\242\326\301"
 180      B37F40C9 
 180      880C7F36 
 180      2DA2D6C1 
 181 0361 38CD391B 		.ascii	"8\3159\033\020q\334\334^\006e\321\366\231\216\205{\366"
 181      1071DCDC 
 181      5E0665D1 
 181      F6998E85 
 181      7BF6
ARM GAS  C:\Users\rdn\AppData\Local\Temp\ccE7gSzh.s 			page 13


 182 0373 383C1DE0 		.ascii	"8<\035\340W;_r\305\261}\321\266B'k\020=,\257\357\262"
 182      573B5F72 
 182      C5B17DD1 
 182      B642276B 
 182      103D2CAF 
 183 0389 425769A7 		.ascii	"BWi\247\274\252\252t2\215\357B\247;\340W'\235\307\341"
 183      BCAAAA74 
 183      328DEF42 
 183      A73BE057 
 183      279DC7E1 
 184 039d 5772C784 		.ascii	"Wr\307\2045\205\263\302\276\324Vg*\320c\332/\254\276"
 184      3585B3C2 
 184      BED45667 
 184      2AD063DA 
 184      2FACBE
 185 03b0 64C10AF7 		.ascii	"d\301\012\367\353\202~\367\241\337=\332/\346n\306\264"
 185      EB827EF7 
 185      A1DF3DDA 
 185      2FE66EC6 
 185      B4
 186 03c1 1C45CA29 		.ascii	"\034E\312)\250fo&\311h\017MX7M\330\271\230g\373\254"
 186      A8666F26 
 186      C9680F4D 
 186      58374DD8 
 186      B99867FB 
 187 03d6 172FF13E 		.ascii	"\027/\361>>Z\017 Z\275\026%\336IJ\274\317\"e\225\325"
 187      3E5A0F20 
 187      5ABD1625 
 187      DE494ABC 
 187      CF226595 
 188 03eb 4D534EE8 		.ascii	"MSN\350\0301\314\036+<\027\271\350$b\036\201\342\357"
 188      1831CC1E 
 188      2B3C17B9 
 188      E824621E 
 188      81E2EF
 189 03fe 36324327 		.ascii	"62C'E?\200\036\012I\356\343\327\001\353\236\310\322"
 189      453F801E 
 189      0A49EEE3 
 189      D701EB9E 
 189      C8D2
 190 0410 3E476635 		.ascii	">Gf5|\\\226\345`\0235\207:\326\034\342jv#\262t\024A"
 190      7C5C96E5 
 190      60133587 
 190      3AD61CE2 
 190      6A7623B2 
 191 0427 97A7CC32 		.ascii	"\227\247\3142\301`!\031\327z\370#\243\360\244\016;\256"
 191      C1602119 
 191      D77AF823 
 191      A3F0A40E 
 191      3BAE
 192 0439 F48FA488 		.ascii	"\364\217\244\210\032x0_.k\315\220i\035\366\\\234/\361"
 192      1A78305F 
 192      2E6BCD90 
 192      691DF65C 
 192      9C2FF1
 193 044c A44D5A6D 		.ascii	"\244MZm\001#\240\223)\032O\346\363\346\350\265\002\230"
 193      0123A093 
ARM GAS  C:\Users\rdn\AppData\Local\Temp\ccE7gSzh.s 			page 14


 193      291A4FE6 
 193      F3E6E8B5 
 193      0298
 194 045e 0E321EC0 		.ascii	"\0162\036\3000H\000\211C\031\317\257\335\034\243\227"
 194      30480089 
 194      4319CFAF 
 194      DD1CA397 
 195 046e 31B7A173 		.ascii	"1\267\241s+\261\202U\341x\015A\274\006\231\325\314\023"
 195      2BB18255 
 195      E1780D41 
 195      BC0699D5 
 195      CC13
 196 0480 A001A0C7 		.ascii	"\240\001\240\307\314jC\006&\312\233\241\256\352h\006"
 196      CC6A4306 
 196      26CA9BA1 
 196      AEEA6806 
 197 0490 E6EB86BA 		.ascii	"\346\353\206\272\345\3142\027Iu\3143\320\362}\032\251"
 197      E5CC3217 
 197      4975CC33 
 197      D0F27D1A 
 197      A9
 198 04a1 93479249 		.ascii	"\223G\222I&F\000<,d\002\373Ll\316\305\034)\261[\306"
 198      2646003C 
 198      2C6402FB 
 198      4C6CCEC5 
 198      1C29B15B 
 199 04b6 1BA959D4 		.ascii	"\033\251Y\324\210l1\237\237\015\336\030u\262\217\241"
 199      886C319F 
 199      9F0DDE18 
 199      75B28FA1 
 200 04c6 65C24199 		.ascii	"e\302A\2310\243\242\230\311\2301\306\036#\3617^\215"
 200      30A3A298 
 200      C99831C6 
 200      1E23F137 
 200      5E8D
 201 04d8 324FC52A 		.ascii	"2O\305*\356\343\251\"\343\017d2\206\241\177\031B2J\204"
 201      EEE3A922 
 201      E30F6432 
 201      86A17F19 
 201      42324A84 
 202 04ec 850B5646 		.ascii	"\205\013VF/\014\"\343G\306CX\303\245\240\214\374\343"
 202      2F0C22E3 
 202      47C64358 
 202      C3A5A08C 
 202      FCE3
 203 04fe FB930D9F 		.ascii	"\373\223\015\237|\210\022A;\303w\242<\337Y\306wbX\301"
 203      7C881241 
 203      3BC377A2 
 203      3CDF59C6 
 203      776258C1 
 204 0512 00435943 		.ascii	"\000CYC\017\221>3\217\014>\033\314\310XC\210\272\356"
 204      0F913E33 
 204      8F0C3E1B 
 204      CCC85843 
 204      88BAEE
 205 0525 9E2AB545 		.ascii	"\236*\265E]tF\237\035j\216V\310Y\032\021\346S2\345\317"
 205      5D74469F 
ARM GAS  C:\Users\rdn\AppData\Local\Temp\ccE7gSzh.s 			page 15


 205      1D6A8E56 
 205      C8591A11 
 205      E65332E5 
 206 053a 66C5473A 		.ascii	"f\305G:\321\245\"\214\233fA\362\340EQ\221\035\032\245"
 206      D1A5228C 
 206      9B6641F2 
 206      E0455191 
 206      1D1AA5
 207 054d 5DAAAEDC 		.ascii	"]\252\256\334\233#\347\217)\310\337$\277,\235H\234\032"
 207      9B23E78F 
 207      29C8DF24 
 207      BF2C9D48 
 207      9C1A
 208 055f 51A03D56 		.ascii	"Q\240=V\004\261\347\320\334\024\213\021/\3502\361-]"
 208      04B1E7D0 
 208      DC148B11 
 208      2FE832F1 
 208      2D5D
 209 0571 26E29AEB 		.ascii	"&\342\232\353N*\215\353\356\313\355\270\016f~\320qa"
 209      4E2A8DEB 
 209      EECBEDB8 
 209      0E667ED0 
 209      7161
 210 0583 869FDCD3 		.ascii	"\206\237\334\323P\001/Mw\247\230\347}\303\012\224F\014"
 210      50012F4D 
 210      77A798E7 
 210      7DC30A94 
 210      460C
 211 0595 B383037D 		.ascii	"\263\203\003}{\235\026]&\346\240\367b\232\250O\363\007"
 211      7B9D165D 
 211      26E6A0F7 
 211      629AA84F 
 211      F307
 212 05a7 4871CE02 		.ascii	"Hq\316\002\350\225P\2343\206\343B~\366|\267\303\212"
 212      E895509C 
 212      3386E342 
 212      7EF67CB7 
 212      C38A
 213 05b9 64529C11 		.ascii	"dR\234\021\334*9\001\012^\3163+\340\357\004#\247\350"
 213      DC2A3901 
 213      0A5ECE33 
 213      2BE0EF04 
 213      23A7E8
 214 05cc FD7BAF14 		.ascii	"\375{\257\0249\376\"\213\313*\345\372:\207?I\235z\304"
 214      39FE228B 
 214      CB2AE5FA 
 214      3A873F49 
 214      9D7AC4
 215 05df 71CE728C 		.ascii	"q\316r\214b\236\013\312\237\343\332\2231\343\260\346"
 215      629E0BCA 
 215      9FE3DA93 
 215      31E3B0E6 
 216 05ef CA98D7CC 		.ascii	"\312\230\327\314/\240c\312\315S\211\014\232\245\261"
 216      2FA063CA 
 216      CD53890C 
 216      9AA5B1
 217 05fe 6CCB4EE9 		.ascii	"l\313N\351\343\367\223R\274\201\\YxY\343DyV\264\335"
ARM GAS  C:\Users\rdn\AppData\Local\Temp\ccE7gSzh.s 			page 16


 217      E3F79352 
 217      BC815C59 
 217      7859E344 
 217      7956B4DD 
 218 0612 2CA7DB4D 		.ascii	",\247\333Ma\356\301\024+\264\307\232t=\366jv\034\037"
 218      61EEC114 
 218      2BB4C79A 
 218      743DF66A 
 218      761C1F
 219 0625 347F850F 		.ascii	"4\177\205\017\232H\264Y\377\212n\326\227\2567\345\331"
 219      9A48B459 
 219      FF8A6ED6 
 219      97AE37E5 
 219      D9
 220 0636 A3440266 		.ascii	"\243D\002fsk\302\3670\214\322%\012\207\216\213\340\224"
 220      736BC2F7 
 220      308CD225 
 220      0A878E8B 
 220      E094
 221 0648 0510BA70 		.ascii	"\005\020\272pv%\023\306B\350\242X\027\334\213\314\274"
 221      762513C6 
 221      42E8A258 
 221      17DC8BCC 
 221      BC
 222 0659 3D20DCCD 		.ascii	"= \334\315\362!\353\233\237\370\344\340^8\0312{Y%\023"
 222      F221EB9B 
 222      9FF8E4E0 
 222      5E381932 
 222      7B592513 
 223 066d C91AC7F5 		.ascii	"\311\032\307\365+%\215\302\305\370\373\203J\224M\216"
 223      2B258DC2 
 223      C5F8FB83 
 223      4A944D8E 
 224 067d AE6CE1F8 		.ascii	"\256l\341\370\215\022\247E\215\354[\324\310\351\331"
 224      8D12A745 
 224      8DEC5BD4 
 224      C8E9D9
 225 068c 3FD6EFC1 		.ascii	"?\326\357\301Fb\300H\264`\004lR+\347+\253\033\254h\030"
 225      4662C048 
 225      B460046C 
 225      522BE72B 
 225      AB1BAC68 
 226 06a1 D6013B59 		.ascii	"\326\001;YP\236\241\240A*\300A\353\341n\365\260([A\206"
 226      509EA1A0 
 226      412AC041 
 226      EBE16EF5 
 226      B0285B41 
 227 06b6 7DB32037 		.ascii	"}\263 7\306\026\235\244L\303|}\277\023\272@\231\372"
 227      C6169DA4 
 227      4CC37C7D 
 227      BF13BA40 
 227      99FA
 228 06c8 FD7BE070 		.ascii	"\375{\340pr\2352\363\275qq6TG\026\326Q\365|\266^\216"
 228      729D32F3 
 228      BD717136 
 228      544716D6 
 228      51F57CB6 
ARM GAS  C:\Users\rdn\AppData\Local\Temp\ccE7gSzh.s 			page 17


 229 06de 3A69E3E4 		.ascii	":i\343\344\341\201\002\0074B\231\304\310#0\3040[\223"
 229      E1810207 
 229      344299C4 
 229      C82330C4 
 229      305B93
 230 06f1 D3FD5B96 		.ascii	"\323\375[\226\247\373\267h\330[c'rmP\012\201\263\015"
 230      A7FBB768 
 230      D85B6327 
 230      726D500A 
 230      81B30D
 231 0704 FB2BCAED 		.ascii	"\373+\312\355\030\027\245!\230\037\246Np\334*&\015\306"
 231      1817A521 
 231      981FA64E 
 231      70DC2A26 
 231      0DC6
 232 0716 992A8CF3 		.ascii	"\231*\214\363-<\314(aQ\023\025\365!\010\332[|\320R "
 232      2D3CCC28 
 232      61511315 
 232      F52108DA 
 232      5B7CD052 
 233 072b 68C92C99 		.ascii	"h\311,\231\026\205\271\3619\326(\207\0329t\252\350\245"
 233      1685B9F1 
 233      39D62887 
 233      1A3974AA 
 233      E8A5
 234 073d D268E4F4 		.ascii	"\322h\344\364\354\273\015$\230G\300\310a\301H\032\273"
 234      ECBB0D24 
 234      9847C0C8 
 234      61C1481A 
 234      BB
 235 074e B8957469 		.ascii	"\270\225ti+M\341\373\363\355i\214Rq\214&2\346\2368\241"
 235      2B4DE1FB 
 235      F3ED698C 
 235      52718C26 
 235      32E69E38 
 236 0763 621A89D4 		.ascii	"b\032\211\324\231\241a\033TK\231\311\372\202I\276l\343"
 236      99A1611B 
 236      544B99C9 
 236      FA8249BE 
 236      6CE3
 237 0775 30B2AD20 		.ascii	"0\262\255 =^\201:ic\301\353\003\371r4B\231\222\346\306"
 237      3D5E813A 
 237      6963C1EB 
 237      03F97234 
 237      429992E6 
 238 078a 2EFEBE2A 		.ascii	".\376\276*\012##\213\302\316Z\2410\032\273\274\254\304"
 238      0A23238B 
 238      C2CE5AA1 
 238      301ABBBC 
 238      ACC4
 239 079c 465B944C 		.ascii	"F[\224L\031\303\331\312\231?[\315t&\336T\240\343J\376"
 239      19C3D9CA 
 239      993F5BCD 
 239      7426DE54 
 239      A0E34AFE 
 240 07b0 6C79B05D 		.ascii	"ly\260]\216\352)s\252f\362\270\034\335!\014{\253\342"
 240      8EEA2973 
ARM GAS  C:\Users\rdn\AppData\Local\Temp\ccE7gSzh.s 			page 18


 240      AA66F2B8 
 240      1CDD210C 
 240      7BABE2
 241 07c3 EE155B51 		.ascii	"\356\025[Q\310wE\220\372-\201h\024"
 241      C8774590 
 241      FA2D8168 
 241      14
 242 07d0 09D15869 		.ascii	"\011\321Xi\014\306x\016g\275\302x\374+\206H\254\344"
 242      0CC6780E 
 242      67BDC278 
 242      FC2B8648 
 242      ACE4
 243 07e2 23213AF6 		.ascii	"#!:\366\025f\026\324;\240\207\324\302\263\244\341($"
 243      156616D4 
 243      3BA087D4 
 243      C2B3A4E1 
 243      2824
 244 07f4 8E770589 		.ascii	"\216w\005\211\367I\260p\\\260P\302.b\342\204\264\211"
 244      F749B070 
 244      5CB050C2 
 244      2E62E284 
 244      B489
 245 0806 82C1F403 		.ascii	"\202\301\364\003\366\264\306\337\0016\352\301\336\333"
 245      F6B4C6DF 
 245      0136EAC1 
 245      DEDB
 246 0814 FCE8A749 		.ascii	"\374\350\247I\334\302\303j\355\320S:\340\252\326\321"
 246      DCC2C36A 
 246      EDD0533A 
 246      E0AAD6D1 
 247 0824 6E16BDA6 		.ascii	"n\026\275\246\314\341\311\356![\332\321\005\337\270"
 247      CCE1C9EE 
 247      215BDAD1 
 247      05DFB8
 248 0833 36174E28 		.ascii	"6\027N(Q\274\035\275\231,\216\212aP\016e\2722\023#\344"
 248      51BC1DBD 
 248      992C8E8A 
 248      61500E65 
 248      BA321323 
 249 0848 A89232AD 		.ascii	"\250\2222\255u\243%,\272A\231\205\241\273Gm\251\261"
 249      75A3252C 
 249      BA419985 
 249      A1BB476D 
 249      A9B1
 250 085a 71CCD7B4 		.ascii	"q\314\327\264\346v\311\321\003\3328\026\223\002\306"
 250      E676C9D1 
 250      03DA3816 
 250      9302C6
 251 0869 A62833BA 		.ascii	"\246(3\272{\240\217_\220V`\266\2672\203A\221\366\244"
 251      7BA08F5F 
 251      905660B6 
 251      B7328341 
 251      91F6A4
 252 087c ED4878C1 		.ascii	"\355Hx\301a{t\2042\257\333f\376\007U\360\015\363u\035"
 252      617B7484 
 252      32AFDB66 
 252      FE0755F0 
ARM GAS  C:\Users\rdn\AppData\Local\Temp\ccE7gSzh.s 			page 19


 252      0DF3751D 
 253 0890 76E82A65 		.ascii	"v\350*e\272r\222\216\311\251\255'd\334\345\331\2656"
 253      BA72928E 
 253      C9A9AD27 
 253      64DCE5D9 
 253      B536
 254 08a2 A88B364E 		.ascii	"\250\2136Ng\017\225 4D\231\344\210\332kVh\2322\217\312"
 254      670F9520 
 254      344499E4 
 254      88DA6B56 
 254      689A328F 
 255 08b7 92E71D51 		.ascii	"\222\347\035Q\214\003a\302\317\337\215\347\313\255\217"
 255      8C0361C2 
 255      CFDF8DE7 
 255      CBAD8F
 256 08c6 F85B9BDE 		.ascii	"\370[\233\336\010\273\004ml\237l~\027\025\323\353\312"
 256      08BB046D 
 256      6C9F6C7E 
 256      1715D3EB 
 256      CA
 257 08d7 07072FF1 		.ascii	"\007\007/\361\003\273C\316\344\267gS\225\250\2326\306"
 257      03BB43CE 
 257      E4B76753 
 257      95A89A36 
 257      C6
 258 08e8 1C8AEE90 		.ascii	"\034\212\356\220\243V\312\234+>\013\347\360\007\224"
 258      A356CA9C 
 258      2B3E0BE7 
 258      F00794
 259 08f7 2949AB79 		.ascii	")I\253y\023=\245\327\361\375S\307\355\321\267\2249\021"
 259      133DA5D7 
 259      F1FD53C7 
 259      EDD1B794 
 259      3911
 260 0909 11FB4489 		.ascii	"\021\373D\211\242\035\011s{0{7?=Z\310\202\233R\337\217"
 260      A21D0973 
 260      7B307B37 
 260      3F3D5AC8 
 260      829B52DF 
 261 091e D011DAD8 		.ascii	"\320\021\332\330\033Y\360L\201\312(\223?<\325\244DW"
 261      1B59F04C 
 261      81CA2893 
 261      3F3CD5A4 
 261      4457
 262 0930 28F3FA70 		.ascii	"(\363\372p\324 \213\356R\346q}g\227-\032\242LBS[<\354"
 262      D4208BEE 
 262      52E6717D 
 262      67972D1A 
 262      A24C4253 
 263 0947 0C94C97B 		.ascii	"\014\224\311{4\035o\213\3669\321\237\014\206\271:9:"
 263      341D6F8B 
 263      F639D19F 
 263      0C86B93A 
 263      393A
 264 0959 42997D57 		.ascii	"B\231}WN7\360S\350*\346\271\341\371{v\350\004m\034\231"
 264      4E37F053 
 264      E82AE6B9 
ARM GAS  C:\Users\rdn\AppData\Local\Temp\ccE7gSzh.s 			page 20


 264      E1F97B76 
 264      E8046D1C 
 265 096e 6D3F648B 		.ascii	"m?d\213\252)S9Z\\\351@\221\344G\203\221\371\306\026"
 265      AA295339 
 265      5A5CE940 
 265      91E44783 
 265      91F9C616 
 266 0982 16DDA48D 		.ascii	"\026\335\244\215\015C\021S\216\250\2277\3203Pl\217\236"
 266      0D431153 
 266      8EA89737 
 266      D033506C 
 266      8F9E
 267 0994 5226E970 		.ascii	"R&\351p\177\247\025zA\231\254\243\315\271\216(r\011"
 267      7FA7157A 
 267      4199ACA3 
 267      CDB98E28 
 267      7209
 268 09a6 232E5267 		.ascii	"#.RgZ\244\031\013/\006\344(\221\266\035\214<5\307\242"
 268      5AA4190B 
 268      2F06E428 
 268      91B61D8C 
 268      3C35C7A2 
 269 09ba 4CCA5C3A 		.ascii	"L\312\\:\3652\002&+ef\036\265\325X\241*\312\224\027"
 269      F5320226 
 269      2B65661E 
 269      B5D558A1 
 269      2ACA9417 
 270 09ce 5FE3AC50 		.ascii	"_\343\254P#e\372sn\036eA\337\012\274\234\342I\236V\323"
 270      2365FA73 
 270      6E1E6541 
 270      DF0ABC9C 
 270      E2499E56 
 271 09e3 F2DF94E7 		.ascii	"\362\337\224\347\270\377\005\276\342\376T!\213\272\010"
 271      B8FF05BE 
 271      E2FE5421 
 271      8BBA08
 272 09f2 9A1D2B8B 		.ascii	"\232\035+\213M\346\367\027\316r\177\031\201y\265\202"
 272      4DE6F717 
 272      CE727F19 
 272      8179B582 
 273 0a02 9F574320 		.ascii	"\237WC |\"\332\304>\334C\026\201a\230\242O\205)\272"
 273      7C22DAC4 
 273      3EDC4316 
 273      816198A2 
 273      4F8529BA 
 274 0a16 82DF5E4E 		.ascii	"\202\337^N\2476':\242Aj\344\304\340\302m[\361\354>E"
 274      A736273A 
 274      A2416AE4 
 274      C4E0C26D 
 274      5BF1EC3E 
 275 0a2b 66F71874 		.ascii	"f\367\030t}&t\0356\314n\011GF%\034\001+\331\227\317"
 275      7D26741D 
 275      36CC6E09 
 275      4746251C 
 275      012BD997 
 276 0a40 37C0298B 		.ascii	"7\300)\213\016\334\260\2439\323\035-\2727~\300\012\315"
 276      0EDCB0A3 
ARM GAS  C:\Users\rdn\AppData\Local\Temp\ccE7gSzh.s 			page 21


 276      39D31D2D 
 276      BA377EC0 
 276      0ACD
 277 0a52 D0B6F0A8 		.ascii	"\320\266\360\250\310\353\016(r)ar\372\207\366[\243\024"
 277      C8EB0E28 
 277      72296172 
 277      FA87F65B 
 277      A314
 278 0a64 CADC399F 		.ascii	"\312\3349\237\\\341\200\216Rf*!\357\264\025*\243L\344"
 278      5CE1808E 
 278      52662A21 
 278      EFB4152A 
 278      A34CE4
 279 0a77 FEFC5BD6 		.ascii	"\376\374[\326\250z\251\311\212\340LW\204\322\373\365"
 279      A87AA9C9 
 279      8AE04C57 
 279      84D2FBF5 
 280 0a87 65F6E82A 		.ascii	"e\366\350*mK\371\272\352\266=j\243L\302\211\233\375"
 280      6D4BF9BA 
 280      EAB63D6A 
 280      A34CC289 
 280      9BFD
 281 0a99 B6A89732 		.ascii	"\266\250\2272/\367t\247Z\243\021\312T\305\026g9\240"
 281      2FF774A7 
 281      5AA311CA 
 281      54C51667 
 281      39A0
 282 0aab 69CACCD5 		.ascii	"i\312\314\325\217LY\243Hg\352\371\345\236^+\024G\231"
 282      8F4C59A3 
 282      4867EAF9 
 282      E59E5E2B 
 282      144799
 283 0abe 734F12FE 		.ascii	"sO\022\376\023e\320k\303Od\316\364'\262\274\221=\015"
 283      1365D06B 
 283      C34F64CE 
 283      F427B2BC 
 283      913D0D
 284 0ad1 2C2AA66D 		.ascii	",*\246mI\203\375\0056\350\214\263\311\032\342L\327\220"
 284      4983FD05 
 284      36E88CB3 
 284      C91AE24C 
 284      D790
 285 0ae3 9927FBDA 		.ascii	"\231'\373\332\025\350\"m{\325|\351\230\015j\244\314"
 285      15E8226D 
 285      7BD57CE9 
 285      980D6AA4 
 285      CC
 286 0af4 50674533 		.ascii	"PgE3B-\224\231\217\215\377\332\006\335\243\314\261\303"
 286      422D9499 
 286      8F8DFFDA 
 286      06DDA3CC 
 286      B1C3
 287 0b06 4D154AD4 		.ascii	"M\025J\324O\231\372\033\273;\035\3200ef\257$\301\331"
 287      4F99FA1B 
 287      BB3B1DD0 
 287      306566AF 
 287      24C1D9
ARM GAS  C:\Users\rdn\AppData\Local\Temp\ccE7gSzh.s 			page 22


 288 0b19 6E8A3283 		.ascii	"n\2122\203\257\306\252\031\264@\231C\321\321\374\272"
 288      AFC6AA19 
 288      B4409943 
 288      D1D1FCBA 
 289 0b29 53852BED 		.ascii	"S\205+\355~o\231\206.d5v\300^+\214\313\264C\321\313"
 289      7E6F9986 
 289      2E643576 
 289      C05E2B8C 
 289      CBB443D1 
 290 0b3e 30F493E2 		.ascii	"0\364\223\342\203\345p?\272\372\373>\313\276\027A?."
 290      83E5703F 
 290      BAFAFB3E 
 290      CBBE1741 
 290      3F2E
 291 0b50 A62CB9F7 		.ascii	"\246,\271\367\353\233=\367^Fu\027\307\301\342\211w\216"
 291      EB9B3DF7 
 291      5E467517 
 291      C7C1E289 
 291      778E
 292 0b62 EB505B65 		.ascii	"\353P[e\310x_\331\304\342#\347\327\254p\257\230\321"
 292      C8785FD9 
 292      C4E223E7 
 292      D7AC70AF 
 292      98D1
 293 0b74 48EE4131 		.ascii	"H\356A1\366\226)\266\205`KE\330\352\006#\366\205)\366"
 293      F69629B6 
 293      85604B45 
 293      D8EA0623 
 293      F68529F6 
 294 0b88 39C16E14 		.ascii	"9\301n\024\240\345\002\364\225)t\332\302\205\270\006"
 294      A0E502F4 
 294      952974DA 
 294      C285B806 
 295 0b98 72BB8A0F 		.ascii	"r\273\212\017\026\341\210b\215G\2100d~s\333\265\327"
 295      16E18862 
 295      8D478830 
 295      647E73DB 
 295      B5D7
 296 0baa 9E6BF923 		.ascii	"\236k\371#9\323]\3415\033\247H-kv\337\\*\2701+\345\306"
 296      39D35DE1 
 296      351BA748 
 296      2D6B76DF 
 296      5C2AB831 
 297 0bc1 29911BE5 		.ascii	")\221\033\345B$nJEM4\272\322kFh\205)\264\314bt\345\002"
 297      42246E4A 
 297      454D34BA 
 297      D26B4668 
 297      8529B4CC 
 298 0bd9 B65C0A2B 		.ascii	"\266\\\012+\016\360\031\301\335\227R\001\026\215\354"
 298      0EF019C1 
 298      DD975201 
 298      168DEC
 299 0be8 9E001D34 		.ascii	"\236\000\0354\205>d\315C6'\004\370>k\026\340\273\346"
 299      853E64CD 
 299      43362704 
 299      F83E6B16 
 299      E0BBE6
ARM GAS  C:\Users\rdn\AppData\Local\Temp\ccE7gSzh.s 			page 23


 300 0bfb 8ADBAE19 		.ascii	"\212\333\256\031\301Y\346\340\014\0230\334\372\334\211"
 300      C159E6E0 
 300      0C1330DC 
 300      FADC89
 301 0c0a 24C9C0AB 		.ascii	"$\311\300\253\330c\363dP?\302\305\265&\204\342\264T"
 301      D863F364 
 301      503FC2C5 
 301      B52684E2 
 301      B454
 302 0c1c 28C4D948 		.ascii	"(\304\331H\022\262\321!U\227b\275\257\204Xt\233b\273"
 302      12B2D121 
 302      559762BD 
 302      AF845874 
 302      9B62BB
 303 0c2f 2C62D113 		.ascii	",b\321\023c,\237xs\217\367[\224\217\340\3047R%!\202"
 303      632C9F78 
 303      738FF75B 
 303      948FE0C4 
 303      37522521 
 304 0c44 F6086559 		.ascii	"\366\010eY/]\226b\217\357\011^$\231\243\023,|\316\020"
 304      2F5D9662 
 304      8FEF095E 
 304      2499A313 
 304      2C7CCE10 
 305 0c58 C6372755 		.ascii	"\3067'U\305bl\213\200\235\222*\241j\221\027w\204T\037"
 305      C5626C8B 
 305      809D922A 
 305      A16A9117 
 305      7784541F 
 306 0c6c 344F7582 		.ascii	"4Ou\202\371\000_\010\261\2501U|\326\034zJ\360aF\312"
 306      F9005F08 
 306      B1A83155 
 306      7CD61C7A 
 306      4AF06146 
 307 0c81 5F71C95F 		.ascii	"_q\311_\024\260\337J\371+\216Z\202\340B\247TM\210fh"
 307      14B0DF4A 
 307      F92B8E5A 
 307      82E042A7 
 307      544D8866 
 308 0c96 AAA07641 		.ascii	"\252\240vA\312\205\215B\015w\0105<.]\303\242\241]\024"
 308      CA858D42 
 308      0D770835 
 308      3C2E5DC3 
 308      A2A15D14 
 309 0caa D27CC31C 		.ascii	"\322|\303\034\334d\221\214W\202\303\027\245bF\007g\362"
 309      DC64918C 
 309      5782C317 
 309      A5624607 
 309      67F2
 310 0cbc E3D801B4 		.ascii	"\343\330\001\264\222\331O\026=\214\306?:\334E.\314u"
 310      92D94F16 
 310      3D8CC63F 
 310      3ADC452E 
 310      CC75
 311 0cce B49AA907 		.ascii	"\264\232\251\007\252\002:\0054\010T\007T\011\324\005"
 311      AA023A05 
 311      34085407 
ARM GAS  C:\Users\rdn\AppData\Local\Temp\ccE7gSzh.s 			page 24


 311      5409D405 
 312 0cde 741B2809 		.ascii	"t\033(\011\350\006\320q\240;@g\200\362\200\222\201\022"
 312      E806D071 
 312      A03B4067 
 312      80F28092 
 312      8112
 313 0cf0 818A80D2 		.ascii	"\201\212\200\322\200\022\200\212\201\362\201\036\001"
 313      8012808A 
 313      81F2811E 
 313      01
 314 0cfd B5029D00 		.ascii	"\265\002\235\000\312\000:\014\324\002t\005\250\027\350"
 314      CA003A0C 
 314      D4027405 
 314      A817E8
 315 0d0c 3CD045A0 		.ascii	"<\320E\240\233@W\201\262\201\322\201\372\200\032\200"
 315      9B405781 
 315      B281D281 
 315      FA801A80 
 316 0d1c 4A80B280 		.ascii	"J\200\262\200\036\0005\0035\001u\000\305\003\035\005"
 316      1E003503 
 316      35017500 
 316      C5031D05 
 317 0d2c 4A011A00 		.ascii	"J\001\032\000:\011\024\007\324\006t\011\250\006\350"
 317      3A091407 
 317      D4067409 
 317      A806E8
 318 0d3b 20502ED0 		.ascii	" P.\3207@\235@\205@\345@\245@\267\200.\000\235\003\272"
 318      37409D40 
 318      8540E540 
 318      A540B780 
 318      2E009D03 
 319 0d50 067419E8 		.ascii	"\006t\031\350!P&P*\320!\240\307@g\201\272\201\252\201"
 319      21502650 
 319      2AD021A0 
 319      C7406781 
 319      BA81AA81 
 320 0d64 DA811A81 		.ascii	"\332\201\032\201\216\000\365\003\025\000\035\003\272"
 320      8E00F503 
 320      15001D03 
 320      BA
 321 0d71 07940354 		.ascii	"\007\224\003T\013\324\003t\032\250\002\350>\242\277"
 321      0BD40374 
 321      1AA802E8 
 321      3EA2BF
 322 0d80 FFD1544D 		.ascii	"\377\321TM\013\251\272$\225*Qm\275\022&o\204y\015p\346"
 322      0BA9BA24 
 322      952A516D 
 322      BD12266F 
 322      84790D70 
 323 0d95 0533A5E6 		.ascii	"\0053\245\346\242\255\311\024\2136\337\333,\177\270"
 323      A2ADC914 
 323      8B36DFDB 
 323      2C7FB8
 324 0da4 9D12341F 		.ascii	"\235\0224\037\220^\234\304;K\272P\343\363R5.\236\352"
 324      905E9CC4 
 324      3B4BBA50 
 324      E3F35235 
ARM GAS  C:\Users\rdn\AppData\Local\Temp\ccE7gSzh.s 			page 25


 324      2E9EEA
 325 0db7 AF8C6E44 		.ascii	"\257\214nD\232\273\261\033\231\271<a\304\306H\273,\302"
 325      9ABBB11B 
 325      99B93C61 
 325      C4C648BB 
 325      2CC2
 326 0dc9 9E139690 		.ascii	"\236\023\226\220\002\363%$\337b>$\010\343;g>\276\263"
 326      02F32524 
 326      DF623E24 
 326      08E33B67 
 326      3EBEB3
 327 0ddc 16E39B10 		.ascii	"\026\343\233\020\306\367@jY\027OK\301\215c\346n\344"
 327      C6F7406A 
 327      59174F4B 
 327      C18D63E6 
 327      6EE4
 328 0dee 5AB81127 		.ascii	"Z\270\021'\270q^\332\015\223\244\010n\364I\271!\252"
 328      B8715EDA 
 328      0D93A408 
 328      6EF449B9 
 328      21AA
 329 0e00 8C36A188 		.ascii	"\2146\241\210\256\232B\033\314=\356h4z\334h\356q\203"
 329      AE9A421B 
 329      CC3DEE68 
 329      347ADC68 
 329      EE7183
 330 0e13 850FE382 		.ascii	"\205\017\343\202\307q\322\205!^'\247\215\011\334k\236"
 330      C771D285 
 330      215E27A7 
 330      8D09DC6B 
 330      9E
 331 0e24 C056CB87 		.ascii	"\300V\313\207\005\202\352Js\325e\026\252\307\215\252"
 331      0582EA4A 
 331      73D56516 
 331      AAC78DAA 
 332 0e34 F799AB5E 		.ascii	"\367\231\253^k\256\271G\010\334#\251#\212\311\031P\210"
 332      6BAEB947 
 332      08DC23A9 
 332      238AC919 
 332      5088
 333 0e46 DC1DA9A5 		.ascii	"\334\035\251\245]\024\271V!\3279\346\221\313\266\210"
 333      5D14B956 
 333      21D739E6 
 333      91CBB688 
 334 0e56 DCB4E044 		.ascii	"\334\264\340D\217T\366\304\223$Mp\342\266\224\023&\347"
 334      8F54F6C4 
 334      93244D70 
 334      E2B69413 
 334      26E7
 335 0e68 13216C55 		.ascii	"\023!lU\322a\023\037\016\214Q\373Z2j\"h\262\340/\207"
 335      D261131F 
 335      0E8C51FB 
 335      5A326A22 
 335      68B2E02F 
 336 0e7d 2426B508 		.ascii	"$&\265\010\232*\270\333&\345\2568\014/\004\265\275R"
 336      9A2AB8DB 
 336      26E5AE38 
ARM GAS  C:\Users\rdn\AppData\Local\Temp\ccE7gSzh.s 			page 26


 336      0C2F04B5 
 336      BD52
 337 0e8f 6130C9B1 		.ascii	"a0\311\261\260\307]\226>\312\230\234\307\005\315\003"
 337      B0C75D96 
 337      3ECA989C 
 337      C705CD03 
 338 0e9f 52591607 		.ascii	"RY\026\007mN\360\370\202\324\"kL\006l\313m\302\266<"
 338      6D4EF0F8 
 338      82D4226B 
 338      4C066CCB 
 338      6DC2B63C 
 339 0eb3 61EEC573 		.ascii	"a\356\305s\213\372ym\214p\204\364-\204\270\200\004/"
 339      8BFA796D 
 339      8C7084F4 
 339      2D84B880 
 339      042F
 340 0ec5 AE499DEA 		.ascii	"\256I\235\352\304\307\223\026\241\330\216J\027\233H"
 340      C4C79316 
 340      A1D88E4A 
 340      179B48
 341 0ed4 71BAA0B8 		.ascii	"q\272\240\270U*!&\213\233\020\344:\351 \213\321iB\220"
 341      552A2126 
 341      8B9B10E4 
 341      3AE9208B 
 341      D1694290 
 342 0ee8 5F4B2DF5 		.ascii	"_K-\3654}\364q\304]5~\032\001\020\361#\022\252\246;"
 342      347DF471 
 342      C45D357E 
 342      1A0110F1 
 342      2312AAA6 
 343 0efd C62995AB 		.ascii	"\306)\225\253\011G\304l\242\364\301SlvN\030}\254yX9"
 343      0947C46C 
 343      A2F4C153 
 343      6C764E18 
 343      7DAC7958 
 344 0f12 CBDB0C63 		.ascii	"\313\333\014c\016\366H\3571bp\265\240:Oz\305\026\357"
 344      0EF648EF 
 344      316270B5 
 344      A03A4F7A 
 344      C516EF
 345 0f25 48C2648B 		.ascii	"H\302d\213\225^\376L\026K!X\375R\025)\316\357k\341\326"
 345      955EFE4C 
 345      164B2158 
 345      FD521529 
 345      CEEF6BE1 
 346 0f3a E89EF4AD 		.ascii	"\350\236\364\255\221\311Z)$\270]*\301\342\305$]\270"
 346      91C95A29 
 346      24B85D2A 
 346      C1E2C524 
 346      5DB8
 347 0f4c D9392375 		.ascii	"\3319#u\263#\326\333!\004#S\372\236K\214n\025\3067)"
 347      B323D6DB 
 347      21042353 
 347      FA9E4B8C 
 347      6E15C637 
 348 0f61 75643609 		.ascii	"ud6\011\263Pf\315\322\347U\361\314\177a\314`\224\364"
 348      B35066CD 
ARM GAS  C:\Users\rdn\AppData\Local\Temp\ccE7gSzh.s 			page 27


 348      D2E755F1 
 348      CC7F61CC 
 348      6094F4
 349 0f74 C6213EE4 		.ascii	"\306!>\344\013\343+4\365\"_H\037~\264Q\230\326\344\210"
 349      0BE32B34 
 349      F5225F48 
 349      1F7EB451 
 349      98D6E488 
 350 0f88 7AC92F20 		.ascii	"z\311/ l\332\205\275\275V\214\3132Z\251\013\327\310"
 350      6CDA85BD 
 350      BD568CCB 
 350      325AA90B 
 350      D7C8
 351 0f9a 83B3A7D0 		.ascii	"\203\263\247\320\365\011"
 351      F509
 352 0fa0 32FE0686 		.ascii	"2\376\006\206+w\221C13\004g\341\177\234\213\377>\347"
 352      2B779143 
 352      31330467 
 352      E17F9C8B 
 352      FF3EE7
 353 0fb3 62C85DE3 		.ascii	"b\310]\343\236\247#\012\323\347\352R\251\220\375#\017"
 353      9EA7230A 
 353      D3E7EA52 
 353      A990FD23 
 353      0F
 354 0fc4 FFBF79B8 		.ascii	"\377\277y\270\261;o\2341y?a\030\211\337O\030A\366<\362"
 354      B13B6F9C 
 354      31793F61 
 354      1889DF4F 
 354      1841F63C 
 355 0fd9 50676DC0 		.ascii	"Pgm\300/\217rY0A3\367\255>\304\325\355\226\343Vf\201"
 355      2F8F7259 
 355      304133F7 
 355      AD3EC4D5 
 355      ED96E356 
 356 0fef 3E3B16F5 		.ascii	">;\026\365Y \257/<C\277\304?h\276\356\\"
 356      5920AF2F 
 356      3C43BFC4 
 356      3F68BEEE 
 356      5C
 357 1000 85C6C814 		.ascii	"\205\306\310\024e\006\322\222S\354AEi\026~\000\375\341"
 357      6506D292 
 357      53EC4145 
 357      69167E00 
 357      FDE1
 358 1012 C142C83D 		.ascii	"\301B\310=C\336\207\030\245sT\364:\010\226x\2632f\214"
 358      43DE8718 
 358      A57354F4 
 358      3A089678 
 358      B332668C 
 359 1026 68B91E16 		.ascii	"h\271\036\0267m\217b\226\323\237p\213\356d(\251\232"
 359      376D8F62 
 359      96D39F70 
 359      8BEE6428 
 359      A99A
 360 1038 9A382BCE 		.ascii	"\2328+\316\226h\030\267\3200\316kxN4\\\273\034\321\345"
 360      966818B7 
ARM GAS  C:\Users\rdn\AppData\Local\Temp\ccE7gSzh.s 			page 28


 360      D030CE6B 
 360      784E345C 
 360      BB1CD1E5 
 361 104c 84B2A986 		.ascii	"\204\262\251\206\366\275\225G\355x\015=r^\303\204\205"
 361      F6BD9547 
 361      ED780D3D 
 361      725EC384 
 361      85
 362 105d 86095EC3 		.ascii	"\206\011^\303$\321\320{4\346\2025\377l\361M\374P\243"
 362      24D1D07B 
 362      34E68235 
 362      FF6CF14D 
 362      FC50A3
 363 1070 A763CA0E 		.ascii	"\247c\312\016\235\245\032[\362\243Z\2202\012\377\264"
 363      9DA51A5B 
 363      F2A35A90 
 363      320AFFB4 
 364 1080 FE439F55 		.ascii	"\376C\237U\346\344\365n\341\037@bu-\251\367\272\031"
 364      E6E4F56E 
 364      E11F4062 
 364      752DA9F7 
 364      BA19
 365 1092 7485AAEB 		.ascii	"t\205\252\353\234\211\271\344\210nQf8\374\3342\376\371"
 365      9C89B9E4 
 365      886E5166 
 365      38FCDC32 
 365      FEF9
 366 10a4 23061634 		.ascii	"#\006\0264\327M[\241n\332\026?\266Pb\203\236P&f\177"
 366      D74D5BA1 
 366      6EDA163F 
 366      B6506283 
 366      9E502666 
 367 10b9 4C02EF21 		.ascii	"L\002\357!\207\221U\334\245\233vh\222o\214\352/\263"
 367      879155DC 
 367      A59B7668 
 367      926F8CEA 
 367      2FB3
 368 10cb 42AF2953 		.ascii	"B\257)S\322\236y\236\177*\302\255\304O\211\236\\J7<"
 368      D29E799E 
 368      7F2AC2AD 
 368      C44F899E 
 368      5C4A373C 
 369 10df B9C44FF1 		.ascii	"\271\304O\361\237\335\030\310\221\363o\211\341\307\370"
 369      9FDD18C8 
 369      91F36F89 
 369      E1C7F8
 370 10ee 974ECC07 		.ascii	"\227N\314\007\243\350\037\221\276\327\272\246\037\360"
 370      A3E81F91 
 370      BED7BAA6 
 370      1FF0
 371 10fc CFA1E7F0 		.ascii	"\317\241\347\360\317\322O\367/t\361\217\001\373\360"
 371      CFD24FF7 
 371      2F74F18F 
 371      01FBF0
 372 110b D3E5C29C 		.ascii	"\323\345\302\234\362c\266\350\000\005\217\326%hP*\275"
 372      F263B6E8 
 372      00058FD6 
ARM GAS  C:\Users\rdn\AppData\Local\Temp\ccE7gSzh.s 			page 29


 372      2568502A 
 372      BD
 373 111c 3E1B77F1 		.ascii	">\033w\361[\376\031\330\177\001{\362\300\302(\253\214"
 373      5BFE19D8 
 373      7F017BF2 
 373      C0C228AB 
 373      8C
 374 112d E25F5EC0 		.ascii	"\342_^\300\225G\236\216\033\212(Z\256\224\3413,\023"
 374      95479E8E 
 374      1B8A285A 
 374      AE94E133 
 374      2C13
 375 113f 2527E13A 		.ascii	"%'\341:<\220\024\205\234\343\370\265\373]==\015\310"
 375      3C901485 
 375      9CE3F8B5 
 375      FB5D3D3D 
 375      0DC8
 376 1151 5732BBE5 		.ascii	"W2\273\345\030\036#w6t\302\350\343w\270h[C>\342~P>b"
 376      181E2377 
 376      3674C2E8 
 376      E377B868 
 376      5B433EE2 
 377 1169 07F6B5DA 		.ascii	"\007\366\265\332\212\015\354\223/n@\376\355\271}\307"
 377      8A0DEC93 
 377      2F6E40FE 
 377      EDB97DC7 
 378 1179 ED99D5CB 		.ascii	"\355\231\325\313V\273\344p\273#\270\276\304\341?\344"
 378      56BBE470 
 378      BB23B8BE 
 378      C4E13FE4 
 379 1189 1E8BC45B 		.ascii	"\036\213\304[\355\013\004w\302r\304\034\220K\236\305"
 379      ED0B0477 
 379      C272C41C 
 379      904B9EC5 
 380 1199 4D769F70 		.ascii	"Mv\237pP\037F\324c4\256\2768\271\013\263_\276\232\211"
 380      501F46D4 
 380      6334AEBE 
 380      38B90BB3 
 380      5FBE9A89 
 381 11ad 951B7E42 		.ascii	"\225\033~BH\012\203\363\270\025\336=\277\226;3{y\315"
 381      480A83F3 
 381      B815DE3D 
 381      BF963B33 
 381      7B79CD
 382 11c0 06C72CDF 		.ascii	"\006\307,\337\272:H\016i\2001{\177\255\242\351Q\257"
 382      BA3A480E 
 382      6980317B 
 382      7FADA2E9 
 382      51AF
 383 11d2 2D7A4872 		.ascii	"-zHr\301\246\266\237\034p2\356\226\207\0358\226I\004"
 383      C1A6B69F 
 383      1C7032EE 
 383      96871D38 
 383      964904
 384 11e5 ADF172E3 		.ascii	"\255\361r\343^\211\025,\342-\223\000N.\3460X\352\351"
 384      5E89152C 
 384      E22D9300 
ARM GAS  C:\Users\rdn\AppData\Local\Temp\ccE7gSzh.s 			page 30


 384      4E2EE630 
 384      58EAE9
 385 11f8 88CBE313 		.ascii	"\210\313\343\023=\367S\3744&&\242\335\206\257\220^\\"
 385      3DF753FC 
 385      342626A2 
 385      DD86AF90 
 385      5E5C
 386 120a 32730303 		.ascii	"2s\003\003|\235\276\306\357\013\226\345\235I\267Y\274"
 386      7C9DBEC6 
 386      EF0B96E5 
 386      9D49B759 
 386      BC
 387 121b 12520C95 		.ascii	"\022R\014\225\220L+\341\356\215\2761'\363J8\010\276"
 387      904C2BE1 
 387      EE8DBE31 
 387      27F34A38 
 387      08BE
 388 122d 259148A6 		.ascii	"%\221H\246\222D\245\030*a\270\250\363\270\223yZ\027"
 388      9244A518 
 388      2A61B8A8 
 388      F3B89379 
 388      5A17
 389 123f 451FBF77 		.ascii	"E\037\277w\342:\213\246h\301\026UW\036\341\337\332\310"
 389      E23A8BA6 
 389      68C11655 
 389      571EE1DF 
 389      DAC8
 390 1251 C2F3E9CE 		.ascii	"\302\363\351\316\302d#\342g\305\004\036Gg\370\340m\005"
 390      C26423E2 
 390      67C5041E 
 390      4767F8E0 
 390      6D05
 391 1263 5A206887 		.ascii	"Z h\207\374\013/O0\214\360\220\305\005?7\201\322\250"
 391      FC0B2F4F 
 391      308CF090 
 391      C5053F37 
 391      81D2A8
 392 1276 B95DC8D0 		.ascii	"\271]\310\320W\367pe\314\302\232\222-\256\214W\246\347"
 392      57F77065 
 392      CCC29A92 
 392      2DAE8C57 
 392      A6E7
 393 1288 57C8C6F9 		.ascii	"W\310\306\371gL\030\301\343\214D\310)\336\030{N.:-a"
 393      674C18C1 
 393      E38C44C8 
 393      29DE187B 
 393      4E2E3A2D 
 394 129d F5F7C5EA 		.ascii	"\365\367\305\352\217\310\315\324O\211\324\233$3\035"
 394      8FC8CDD4 
 394      4F89D49B 
 394      24331D
 395 12ac 141E26BA 		.ascii	"\024\036&\272\262\371L\026@&\217A&\363\2002\201\216"
 395      B2F94C16 
 395      40268F41 
 395      26F38032 
 395      818E
 396 12be 021502E5 		.ascii	"\002\025\002\345\002e\000\345\003\025\001\345\000e\031"
ARM GAS  C:\Users\rdn\AppData\Local\Temp\ccE7gSzh.s 			page 31


 396      026500E5 
 396      031501E5 
 396      006519
 397 12cd CB13BB70 		.ascii	"\313\023\273p\207\034\356\260\375o\315\2077\205\314"
 397      871CEEB0 
 397      FD6FCD87 
 397      3785CC
 398 12dc DCAD3662 		.ascii	"\334\2556b\027\314\261\363\346\330\026#vN:l<6\011\260"
 398      17CCB1F3 
 398      E6D81623 
 398      764E3A6C 
 398      3C3609B0 
 399 12f0 67081627 		.ascii	"g\010\026'7\315<\006\342\033a<\233\252\310l:\304\317"
 399      37CD3C06 
 399      E21B613C 
 399      9BAAC86C 
 399      3AC4CF
 400 1303 260C35D4 		.ascii	"&\0145\324\203\351/\015\330\2056\243\0133\346.\274\024"
 400      83E92F0D 
 400      D88536A3 
 400      0B33E62E 
 400      BC14
 401 1315 5CA0D3E8 		.ascii	"\\\240\323\3504\231y\331r\263\333#\254\346\2228I\257"
 401      349979D9 
 401      72B3DB23 
 401      ACE69238 
 401      49AF
 402 1327 A5072E36 		.ascii	"\245\007.6\333a4;-m\226\202\241\006\037\356\236\335"
 402      DB61343B 
 402      2D6D9682 
 402      A1061FEE 
 402      9EDD
 403 1339 C3A27D6F 		.ascii	"\303\242}o\220i\035;\226\024kc\376R\244!\323\314qH\360"
 403      90691D3B 
 403      96146B63 
 403      FE52A421 
 403      D3CC7148 
 404 134e 5F936C3A 		.ascii	"_\223l:\312n\274X\224\200\232ba\261\310\226\363\257"
 404      CA6EBC58 
 404      94809A62 
 404      61B1C896 
 404      F3AF
 405 1360 4B66EEAE 		.ascii	"Kf\356\256\236\26329N\224\310\305\307\211\023r\372\272"
 405      9EB33239 
 405      4E94C8C5 
 405      C7891372 
 405      FABA
 406 1372 237CE307 		.ascii	"#|\343\007\360u\207\213\221\202\177\2519a\221\227\232"
 406      F075878B 
 406      91827FA9 
 406      39619197 
 406      9A
 407 1383 65266F34 		.ascii	"e&o43'\345\370\377/\264\037.y\245T\360\257\325%,\372"
 407      3327E5F8 
 407      FF2FB41F 
 407      2E79A554 
 407      F0AFD525 
ARM GAS  C:\Users\rdn\AppData\Local\Temp\ccE7gSzh.s 			page 32


 408 1399 FAB8CCE4 		.ascii	"\372\270\314\344\335q\246\224\364\275<\033{F\276H_\321"
 408      DD71A694 
 408      F4BD3C1B 
 408      7B46BE48 
 408      5FD1
 409 13ab 1BFC3293 		.ascii	"\033\3742\223\327\367\2312\3227n\252\274\331v\221\276"
 409      D7F79932 
 409      D2376EAA 
 409      BCD97691 
 409      BE
 410 13bc A2B77E65 		.ascii	"\242\267~e&\257\3742\345\244\357\213\364\322\343\216"
 410      26AFFC32 
 410      E5A4EF8B 
 410      F4D2E38E 
 411 13cc 26B1C1C7 		.ascii	"&\261\301\307'!6\025|l*Hl\256\266\367\247*\224\374\333"
 411      27213615 
 411      7C6C2A48 
 411      6CAEB6F7 
 411      A72A94FC 
 412 13e1 4F3F6007 		.ascii	"O?`\007cN\301\032&\377B\253\336\371\317n\277Wy\375\336"
 412      634EC11A 
 412      26FF42AB 
 412      DEF9CF6E 
 412      BF5779FD 
 413 13f6 CB75BBEB 		.ascii	"\313u\273\353\326\035\037\250>\366t\177_\345\265\343"
 413      D61D1FA8 
 413      3EF6747F 
 413      5FE5B5E3 
 414 1406 234F3777 		.ascii	"#O7w\225\373'\336\356\236 \376\227E\021[w\270\271nU"
 414      95FB27DE 
 414      EE9E20FE 
 414      9745115B 
 414      77B8B96E 
 415 141b AD576DF8 		.ascii	"\255Wm\370\370g\213b\274<\275\274\024\037l\377h\225"
 415      F8678B62 
 415      BC3CBDBC 
 415      141F6CFF 
 415      6895
 416 142d DBFAF5B2 		.ascii	"\333\372\365\262\017>P\007\251\265\276z\265\277\312"
 416      0F3E5007 
 416      A9B5BE7A 
 416      B5BFCA
 417 143c 2B3854EB 		.ascii	"+8T\353\247\366\361\360\012v{\333'\304?\300\307_\253"
 417      A7F6F1F0 
 417      0A767BDB 
 417      27C43FC0 
 417      C75FAB
 418 144f F942ADD5 		.ascii	"\371B\255\325\371\204\250\265\232\220]\200\012\360\321"
 418      F984A8B5 
 418      9A905D80 
 418      0AF0D1
 419 145e 7DA5F30D 		.ascii	"}\245\363\015\362\015\010\376\314\307\357+\225\221Y"
 419      F20D08FE 
 419      CCC7EF2B 
 419      959159
 420 146d B34BF633 		.ascii	"\263K\3663\340\325A\202H\205G\242\322\021\225*\275\225"
 420      E0D54182 
ARM GAS  C:\Users\rdn\AppData\Local\Temp\ccE7gSzh.s 			page 33


 420      488547A2 
 420      D211952A 
 420      BD95
 421 147f E62F7A5F 		.ascii	"\346/z_\375\317M\\\332\362\007oWo\023\277\337\\\274"
 421      FDCF4D5C 
 421      DAF2076F 
 421      576F13BF 
 421      DF5CBC
 422 1492 1DFBFCA6 		.ascii	"\035\373\374\246\271\011\242\324h\303F\247\367\325\352"
 422      B909A2D4 
 422      68C346A7 
 422      F7D5EA
 423 14a1 43437E62 		.ascii	"CC~b\242\305\313\333\325\323\373#\017\325\373\256^\336"
 423      A2C5CBDB 
 423      D5D3FB23 
 423      0FD5FBAE 
 423      5EDE
 424 14b3 3F956CD9 		.ascii	"?\225l\331\276\303s\233\353\326\237\230+\347\265\251"
 424      BEC3739B 
 424      EBD69F98 
 424      2BE7B5A9 
 425 14c3 F4B6FE6A 		.ascii	"\364\266\376ju\210W\000\374y\313\244\377fww\017\257"
 425      75885700 
 425      FC79CBA4 
 425      FF667777 
 425      0FAF
 426 14d5 ADF047B5 		.ascii	"\255\360G\265\305\003{J\375\305\201~\363;q\033\276\273"
 426      C5037B4A 
 426      FDC5817E 
 426      F33B711B 
 426      BEBB
 427 14e7 79FD62CD 		.ascii	"y\375b\315\233\267x\271\276\267\325}\245\271\243\330"
 427      9BB778B9 
 427      BEB7D57D 
 427      A5B9A3D8 
 428 14f7 3D950EFB 		.ascii	"=\225\016\373\247\322\343Q\350\364~\242V\277\340\240"
 428      A7D2E351 
 428      E8F47EA2 
 428      56BFE0A0 
 429 1507 9D9ACF54 		.ascii	"\235\232\317T\372\245n_\251\274\276\322\271R\351\226"
 429      FAA56E5F 
 429      A9BCBED2 
 429      B952E996 
 430 1517 208DFE0D 		.ascii	" \215\376\015\023;\357\271nVy\270z\272n[n\032\244\217"
 430      133BEFB9 
 430      6E5679B8 
 430      7ABA6E5B 
 430      6E1AA48F 
 431 152b DCDCDCBD 		.ascii	"\334\334\334\275\274VHDG\037\252S\351\3776\345\343'"
 431      BC564844 
 431      471FAA53 
 431      E9FF36E5 
 431      E327
 432 153d B305DE5F 		.ascii	"\263\005\336_\375\205\306O\355\240\011\361\363\322k"
 432      FD85C64F 
 432      EDA009F1 
 432      F3D26B
ARM GAS  C:\Users\rdn\AppData\Local\Temp\ccE7gSzh.s 			page 34


 433 154c 43FDF45E 		.ascii	"C\375\364^\232\277\250\225*U\250&H\277\376m\225>\214"
 433      9ABFA895 
 433      2A55A826 
 433      48BFFE6D 
 433      953E8C
 434 155f F1FB0F9F 		.ascii	"\361\373\017\237\020m\360gZ\337\300U;5\001j\335*\227"
 434      106DF067 
 434      5ADFC055 
 434      3B35016A 
 434      DD2A97
 435 1572 3FBFF3F6 		.ascii	"?\277\363\366\257AU\210V\255\003;\272`\277U~Z\265\257"
 435      AF415588 
 435      56AD033B 
 435      BA60BF55 
 435      7E5AB5AF 
 436 1586 3E58EBB3 		.ascii	">X\353\263i\315&S\201&0$X\253\367\371,(\324\307W\033"
 436      69CD2653 
 436      81263024 
 436      58ABF7F9 
 436      2C28D4C7 
 437 159c E8F3DB35 		.ascii	"\350\363\3335\233\326\254\307W\277\011\012\016R\377"
 437      9BD6ACC7 
 437      57BF090A 
 437      0E52FF
 438 15ab 46EDFBA9 		.ascii	"F\355\373\251\306G\023\344\027\020\352\257\366\011\364"
 438      C64713E4 
 438      1710EAAF 
 438      F609F4
 439 15ba F5DBA509 		.ascii	"\365\333\245\011R\373\200G;}C\003\364*\375W!j\035\024"
 439      52FB8047 
 439      3B7D4303 
 439      F42AFD57 
 439      216A1D14 
 440 15ce B9C2E0CB 		.ascii	"\271\302\340\313\027\177/W F>\020l\177\260\013\366\035"
 440      177F2F57 
 440      20463E10 
 440      6C7FB00B 
 440      F61D
 441 15e0 FC424275 		.ascii	"\374BBu:O\337\300\015n\372\200uFn\275\011\267\016sv"
 441      3A4FDFC0 
 441      0D6EFA80 
 441      75466EBD 
 441      09B70E73 
 442 15f5 940B0E04 		.ascii	"\224\013\016\004f9\271v\013\334\264=P\003\354\216\235"
 442      6639B976 
 442      0BDCB43D 
 442      5003EC8E 
 442      9D
 443 1606 3B756ABD 		.ascii	";uj\275A\270N,\374\021\021B\231xk\374>7J\371\034l\334"
 443      41B84E2C 
 443      FC111142 
 443      99786BFC 
 443      3E374AF9 
 444 161d A0D22B0C 		.ascii	"\240\322+\014\027\024\351\255\325\004R\033\342\376D"
 444      1714E9AD 
 444      D504521B 
 444      E2FE44
ARM GAS  C:\Users\rdn\AppData\Local\Temp\ccE7gSzh.s 			page 35


 445 162c EA1B6861 		.ascii	"\352\033haj\223\307\227ZK\373^\244\222\314\220b\341"
 445      6A93C797 
 445      5A4BFB5E 
 445      A492CC90 
 445      62E1
 446 163e 1B06A15B 		.ascii	"\033\006\241[@\260\310+\203x\235\251x\331g!\232`\017"
 446      40B0C82B 
 446      83789DA9 
 446      78D96721 
 446      9A600F
 447 1651 ADDE6DE7 		.ascii	"\255\336m\347g^\232`*\263\245\003x\007\326\010\376["
 447      675E9A60 
 447      2AB3A503 
 447      7807D608 
 447      FE5B
 448 1663 84DA11AA 		.ascii	"\204\332\021\252\247(gA\266%\210\212\226\210`\324A^"
 448      A7286741 
 448      B625888A 
 448      968860D4 
 448      415E
 449 1675 B02548AF 		.ascii	"\260%H\257\025\204\270\3007k\276\330\260I\365[a|\274"
 449      1584B8C0 
 449      376BBED8 
 449      B049F55B 
 449      617CBC
 450 1688 10AA4510 		.ascii	"\020\252E\020:\033\205F\321R^\364\21600^\342\026\350"
 450      3A1B8546 
 450      D1525EF4 
 450      8E30305E 
 450      E216E8
 451 169b EFE1EB0D 		.ascii	"\357\341\353\015\225\347\245\016\360\010\326\375H,\206"
 451      95E7A50E 
 451      F008D6FD 
 451      482C86
 452 16aa 6F2A5D2E 		.ascii	"o*].H\005\3502AH\201\333t\237\333c\231\267\366\003-"
 452      4805E832 
 452      414881DB 
 452      749FDB63 
 452      99B7F603 
 453 16bf 9E558E06 		.ascii	"\236U\216\006F\344\203\267\026\340\320L\320NF\011\037"
 453      46E483B7 
 453      16E0D04C 
 453      D04E4609 
 453      1F
 454 16d0 08FF2F69 		.ascii	"\010\377/iJ\334vm\361\3773\000L\005\330=\377/\335v\301"
 454      4ADC766D 
 454      F1FF3300 
 454      4C05D83D 
 454      FF2FDD76 
 455 16e5 183CB46A 		.ascii	"\030<\264ju`\210\336\367\323\0005H\035\215R\010[\260"
 455      756088DE 
 455      F7D30035 
 455      481D8D52 
 455      085BB0
 456 16f8 4E815932 		.ascii	"N\201Y2\255\361\005\237\260\235\001\276:\214\331\346"
 456      ADF1059F 
 456      B09D01BE 
ARM GAS  C:\Users\rdn\AppData\Local\Temp\ccE7gSzh.s 			page 36


 456      3A8CD9E6 
 457 1708 AB09FA9D 		.ascii	"\253\011\372\235n\323\373Z\365\237\314d\033%d\033$d"
 457      6ED3FB5A 
 457      F59FCC64 
 457      1B25641B 
 457      2464
 458 171a EB2564EB 		.ascii	"\353%d\353\260\314\211\310\334\265\276:\365fu\200\357"
 458      B0CC89C8 
 458      DCB5BE3A 
 458      F5667580 
 458      EF
 459 172b 574B09EF 		.ascii	"WK\011\357A'0\221P\304\357\264\032\275\011B\023\242"
 459      41273091 
 459      50C4EFB4 
 459      1ABD0942 
 459      13A2
 460 173d F654FF29 		.ascii	"\366T\377)T\243U\373/!\022\317/\2774\010\034\374\264"
 460      54A355FB 
 460      2F2112CF 
 460      2FBF3408 
 460      1CFCB4
 461 1750 5F85E883 		.ascii	"_\205\350\203\267\251\003\361\210\226\302r\240\177/"
 461      B7A903F1 
 461      8896C272 
 461      A07F2F
 462 175f 54B7CD57 		.ascii	"T\267\315W\247Wk\341\357\347K`\356z@[ \024\214Z\247"
 462      A7576BE1 
 462      EFE74B60 
 462      EE7A405B 
 462      20148C5A 
 463 1774 0ED22B43 		.ascii	"\016\322+C\375?\345/\355\324!\333\202a\015\016\326n"
 463      FD3FE52F 
 463      EDD421DB 
 463      82610D0E 
 463      D66E
 464 1786 D73A85F8 		.ascii	"\327:\205\370\302\234\363\325\272\355\362\015\012R\007"
 464      C29CF3D5 
 464      BAEDF20D 
 464      0A5207
 465 1795 E8EC7581 		.ascii	"\350\354u\201\232\235\233\311Z\270]k\207\023A*|\273"
 465      9A9D9BC9 
 465      5AB85D6B 
 465      8713412A 
 465      7CBB
 466 17a7 D641A7D5 		.ascii	"\326A\247\325\351\266\207\006~\270S\033\034\254W\362"
 466      E9B68706 
 466      7EB8531B 
 466      1CAC57F2 
 467 17b7 9C474080 		.ascii	"\234G@\200#\177\351\026\360y\210\257~\027\235E\333\203"
 467      237FE916 
 467      F07988AF 
 467      7E179D45 
 467      DB83
 468 17c9 F56EC1A0 		.ascii	"\365n\301\240\320\017\326"
 468      D00FD6
 469 17d0 E62DDA3F 		.ascii	"\346-\332?\301\034\340\327.\033\376[I`\357\007B\243"
 469      C11CE0D7 
ARM GAS  C:\Users\rdn\AppData\Local\Temp\ccE7gSzh.s 			page 37


 469      2E1BFE5B 
 469      4960EF07 
 469      42A3
 470 17e2 3DB9DC12 		.ascii	"=\271\334\022\342\267\016\230%TN\306\357\213\207F\327"
 470      E2B70E98 
 470      25544EC6 
 470      EF8B8746 
 470      D7
 471 17f3 92CD9031 		.ascii	"\222\315\2201\360\301\200\004\340v\255\322\300aGa\374"
 471      F0C18004 
 471      E076ADD2 
 471      C0614761 
 471      FC
 472 1804 1FC372AF 		.ascii	"\037\303r\257\011\016\"N\363\327JX\316\371K\373]\360"
 472      090E224E 
 472      F3D74A58 
 472      CEF94BFB 
 472      5DF0
 473 1816 37D080C1 		.ascii	"7\320\200\3013\211\277v \2415\300l\375\2774\310i\204"
 473      3389BF76 
 473      20A135C0 
 473      6CFDBF34 
 473      C86984
 474 1829 0DDD8931 		.ascii	"\015\335\2111\203Z\332\364\036d\324\006,\340o\005\216"
 474      835ADAF4 
 474      1E64D406 
 474      2CE06F05 
 474      8E
 475 183a 23B9C0AA 		.ascii	"#\271\300\252\361\205-1H\333pv0\030r@\005\340\"\276"
 475      F1852D31 
 475      48DB7076 
 475      30187240 
 475      05E022BE 
 476 184e 5052DB04 		.ascii	"PR\333\004N\014\340\253e\240r+\304\\\274\014\271~\377"
 476      4E0CE0AB 
 476      65A0722B 
 476      C45CBC0C 
 476      B97EFF
 477 1861 4EB756D8 		.ascii	"N\267V\330\351\326\322\315l\255q[\203\325\333\211\337"
 477      E9D6D2CD 
 477      6CAD715B 
 477      83D5DB89 
 477      DF
 478 1872 9CA940A5 		.ascii	"\234\251@\245\377'\223-\371}(\034\225\373\237\241x\200"
 478      FF27932D 
 478      F97D281C 
 478      95FB9FA1 
 478      7880
 479 1884 7FC3B209 		.ascii	"\177\303\262\011\237\200~l)\0067}\003\354\350\321\301"
 479      9F807E6C 
 479      2906377D 
 479      03ECE8D1 
 479      C1
 480 1895 DB73CBB6 		.ascii	"\333s\313\266uv\364\034\202\257\327\213\256\327)\311"
 480      7576F41C 
 480      82AFD78B 
 480      AED729C9 
ARM GAS  C:\Users\rdn\AppData\Local\Temp\ccE7gSzh.s 			page 38


 481 18a5 11105F6E 		.ascii	"\021\020_n\024.7\010\227\353\205\313urW\270\264\305"
 481      142E3708 
 481      97EB85CB 
 481      757257B8 
 481      B4C5
 482 18b7 7F546EDE 		.ascii	"\177Tn\336\236[\025\236\356^\356\236\037\273o~\367\273"
 482      9E5B159E 
 482      EE5EEE9E 
 482      1FBB6F7E 
 482      F7BB
 483 18c9 62404605 		.ascii	"b@F\0051\200\235\356\355\265\374\376\265V\023\002!\320"
 483      31809DEE 
 483      EDB5FCFE 
 483      B5561302 
 483      21D0
 484 18db 84A8706E 		.ascii	"\204\250pn \004K=\\\275\274TD\361\307\353Ux\305Rn\331"
 484      20044B3D 
 484      5CBDBC54 
 484      44F1C7EB 
 484      5578C552 
 485 18f1 EEEDA972 		.ascii	"\356\355\251rs\375\310\313\335n\213\233\321[{\002\344"
 485      73FDC8CB 
 485      DD6E8B9B 
 485      D15B7B02 
 485      E4
 486 1902 31FF07AC 		.ascii	"1\377\007\254\3240\243"
 486      D430A3
 487              		.text
 488              		.section	.gnu.lto_.symtab.d5febdc8,"",%progbits
 489 0000 43795F53 		.ascii	"Cy_SysAnalog_Init\000"
 489      7973416E 
 489      616C6F67 
 489      5F496E69 
 489      7400
 490 0012 00       		.ascii	"\000"
 491 0013 00       		.ascii	"\000"
 492 0014 00       		.ascii	"\000"
 493 0015 00000000 		.ascii	"\000\000\000\000\000\000\000\000"
 493      00000000 
 494 001d FE000000 		.ascii	"\376\000\000\000"
 495 0021 43795F53 		.ascii	"Cy_SysAnalog_Fast_External\000"
 495      7973416E 
 495      616C6F67 
 495      5F466173 
 495      745F4578 
 496 003c 00       		.ascii	"\000"
 497 003d 00       		.ascii	"\000"
 498 003e 00       		.ascii	"\000"
 499 003f 00000000 		.ascii	"\000\000\000\000\000\000\000\000"
 499      00000000 
 500 0047 EF010000 		.ascii	"\357\001\000\000"
 501 004b 43795F53 		.ascii	"Cy_SysAnalog_Fast_SRSS\000"
 501      7973416E 
 501      616C6F67 
 501      5F466173 
 501      745F5352 
 502 0062 00       		.ascii	"\000"
ARM GAS  C:\Users\rdn\AppData\Local\Temp\ccE7gSzh.s 			page 39


 503 0063 00       		.ascii	"\000"
 504 0064 00       		.ascii	"\000"
 505 0065 00000000 		.ascii	"\000\000\000\000\000\000\000\000"
 505      00000000 
 506 006d F1010000 		.ascii	"\361\001\000\000"
 507 0071 43795F53 		.ascii	"Cy_SysAnalog_Fast_Local\000"
 507      7973416E 
 507      616C6F67 
 507      5F466173 
 507      745F4C6F 
 508 0089 00       		.ascii	"\000"
 509 008a 00       		.ascii	"\000"
 510 008b 00       		.ascii	"\000"
 511 008c 00000000 		.ascii	"\000\000\000\000\000\000\000\000"
 511      00000000 
 512 0094 F3010000 		.ascii	"\363\001\000\000"
 513 0098 63795F64 		.ascii	"cy_device\000"
 513      65766963 
 513      6500
 514 00a2 00       		.ascii	"\000"
 515 00a3 02       		.ascii	"\002"
 516 00a4 00       		.ascii	"\000"
 517 00a5 00000000 		.ascii	"\000\000\000\000\000\000\000\000"
 517      00000000 
 518 00ad ED010000 		.ascii	"\355\001\000\000"
 519              		.text
 520              		.section	.gnu.lto_.opts,"",%progbits
 521 0000 272D666D 		.ascii	"'-fmath-errno' '-fsigned-zeros' '-ftrapping-math' '"
 521      6174682D 
 521      6572726E 
 521      6F272027 
 521      2D667369 
 522 0033 2D666E6F 		.ascii	"-fno-trapv' '-fno-openmp' '-fno-openacc' '-mcpu=cor"
 522      2D747261 
 522      70762720 
 522      272D666E 
 522      6F2D6F70 
 523 0066 7465782D 		.ascii	"tex-m4' '-mfloat-abi=softfp' '-mfpu=fpv4-sp-d16' '-"
 523      6D342720 
 523      272D6D66 
 523      6C6F6174 
 523      2D616269 
 524 0099 6D746875 		.ascii	"mthumb' '-g' '-O3' '-ffunction-sections' '-ffat-lto"
 524      6D622720 
 524      272D6727 
 524      20272D4F 
 524      33272027 
 525 00cc 2D6F626A 		.ascii	"-objects' '-finline-functions' '-flto'\000"
 525      65637473 
 525      2720272D 
 525      66696E6C 
 525      696E652D 
 526              		.text
 527              		.cfi_sections	.debug_frame
 528              		.section	.text.Cy_SysAnalog_Init,"ax",%progbits
 529              		.align	2
 530              		.global	Cy_SysAnalog_Init
ARM GAS  C:\Users\rdn\AppData\Local\Temp\ccE7gSzh.s 			page 40


 531              		.thumb
 532              		.thumb_func
 533              		.type	Cy_SysAnalog_Init, %function
 534              	Cy_SysAnalog_Init:
 535              	.LFB175:
 536              		.file 1 "Generated_Source\\PSoC6\\pdl\\drivers\\peripheral\\sysanalog\\cy_sysanalog.c"
   1:Generated_Source\PSoC6\pdl\drivers\peripheral\sysanalog/cy_sysanalog.c **** /***************************************************************************//**
   2:Generated_Source\PSoC6\pdl\drivers\peripheral\sysanalog/cy_sysanalog.c **** * \file cy_sysanalog.c
   3:Generated_Source\PSoC6\pdl\drivers\peripheral\sysanalog/cy_sysanalog.c **** * \version 1.10
   4:Generated_Source\PSoC6\pdl\drivers\peripheral\sysanalog/cy_sysanalog.c **** *
   5:Generated_Source\PSoC6\pdl\drivers\peripheral\sysanalog/cy_sysanalog.c **** * Provides the public functions for the API for the SAR driver.
   6:Generated_Source\PSoC6\pdl\drivers\peripheral\sysanalog/cy_sysanalog.c **** *
   7:Generated_Source\PSoC6\pdl\drivers\peripheral\sysanalog/cy_sysanalog.c **** ********************************************************************************
   8:Generated_Source\PSoC6\pdl\drivers\peripheral\sysanalog/cy_sysanalog.c **** * \copyright
   9:Generated_Source\PSoC6\pdl\drivers\peripheral\sysanalog/cy_sysanalog.c **** * Copyright 2017-2018, Cypress Semiconductor Corporation. All rights reserved.
  10:Generated_Source\PSoC6\pdl\drivers\peripheral\sysanalog/cy_sysanalog.c **** * You may use this file only in accordance with the license, terms, conditions,
  11:Generated_Source\PSoC6\pdl\drivers\peripheral\sysanalog/cy_sysanalog.c **** * disclaimers, and limitations in the end user license agreement accompanying
  12:Generated_Source\PSoC6\pdl\drivers\peripheral\sysanalog/cy_sysanalog.c **** * the software package with which this file was provided.
  13:Generated_Source\PSoC6\pdl\drivers\peripheral\sysanalog/cy_sysanalog.c **** *******************************************************************************/
  14:Generated_Source\PSoC6\pdl\drivers\peripheral\sysanalog/cy_sysanalog.c **** #include "cy_sysanalog.h"
  15:Generated_Source\PSoC6\pdl\drivers\peripheral\sysanalog/cy_sysanalog.c **** 
  16:Generated_Source\PSoC6\pdl\drivers\peripheral\sysanalog/cy_sysanalog.c **** #ifdef CY_IP_MXS40PASS
  17:Generated_Source\PSoC6\pdl\drivers\peripheral\sysanalog/cy_sysanalog.c **** 
  18:Generated_Source\PSoC6\pdl\drivers\peripheral\sysanalog/cy_sysanalog.c **** #if defined(__cplusplus)
  19:Generated_Source\PSoC6\pdl\drivers\peripheral\sysanalog/cy_sysanalog.c **** extern "C" {
  20:Generated_Source\PSoC6\pdl\drivers\peripheral\sysanalog/cy_sysanalog.c **** #endif
  21:Generated_Source\PSoC6\pdl\drivers\peripheral\sysanalog/cy_sysanalog.c **** 
  22:Generated_Source\PSoC6\pdl\drivers\peripheral\sysanalog/cy_sysanalog.c **** /* Configure the AREF to use the local Vref and local IZTAT. Can be used with \ref Cy_SysAnalog_Ini
  23:Generated_Source\PSoC6\pdl\drivers\peripheral\sysanalog/cy_sysanalog.c **** const cy_stc_sysanalog_config_t Cy_SysAnalog_Fast_Local =
  24:Generated_Source\PSoC6\pdl\drivers\peripheral\sysanalog/cy_sysanalog.c **** {
  25:Generated_Source\PSoC6\pdl\drivers\peripheral\sysanalog/cy_sysanalog.c ****     /*.startup    */ CY_SYSANALOG_STARTUP_FAST,
  26:Generated_Source\PSoC6\pdl\drivers\peripheral\sysanalog/cy_sysanalog.c ****     /*.iztat      */ CY_SYSANALOG_IZTAT_SOURCE_LOCAL,
  27:Generated_Source\PSoC6\pdl\drivers\peripheral\sysanalog/cy_sysanalog.c ****     /*.vref       */ CY_SYSANALOG_VREF_SOURCE_LOCAL_1_2V,
  28:Generated_Source\PSoC6\pdl\drivers\peripheral\sysanalog/cy_sysanalog.c ****     /*.deepSleep  */ CY_SYSANALOG_DEEPSLEEP_DISABLE,
  29:Generated_Source\PSoC6\pdl\drivers\peripheral\sysanalog/cy_sysanalog.c **** };
  30:Generated_Source\PSoC6\pdl\drivers\peripheral\sysanalog/cy_sysanalog.c **** 
  31:Generated_Source\PSoC6\pdl\drivers\peripheral\sysanalog/cy_sysanalog.c **** /* Configure the AREF to use the SRSS Vref and SRSS IZTAT. Can be used with \ref Cy_SysAnalog_Init.
  32:Generated_Source\PSoC6\pdl\drivers\peripheral\sysanalog/cy_sysanalog.c **** const cy_stc_sysanalog_config_t Cy_SysAnalog_Fast_SRSS =
  33:Generated_Source\PSoC6\pdl\drivers\peripheral\sysanalog/cy_sysanalog.c **** {
  34:Generated_Source\PSoC6\pdl\drivers\peripheral\sysanalog/cy_sysanalog.c ****     /*.startup    */ CY_SYSANALOG_STARTUP_FAST,
  35:Generated_Source\PSoC6\pdl\drivers\peripheral\sysanalog/cy_sysanalog.c ****     /*.iztat      */ CY_SYSANALOG_IZTAT_SOURCE_SRSS,
  36:Generated_Source\PSoC6\pdl\drivers\peripheral\sysanalog/cy_sysanalog.c ****     /*.vref       */ CY_SYSANALOG_VREF_SOURCE_SRSS,
  37:Generated_Source\PSoC6\pdl\drivers\peripheral\sysanalog/cy_sysanalog.c ****     /*.deepSleep  */ CY_SYSANALOG_DEEPSLEEP_DISABLE,
  38:Generated_Source\PSoC6\pdl\drivers\peripheral\sysanalog/cy_sysanalog.c **** };
  39:Generated_Source\PSoC6\pdl\drivers\peripheral\sysanalog/cy_sysanalog.c **** 
  40:Generated_Source\PSoC6\pdl\drivers\peripheral\sysanalog/cy_sysanalog.c **** /* Configure the AREF to use the external Vref and local IZTAT. Can be used with \ref Cy_SysAnalog_
  41:Generated_Source\PSoC6\pdl\drivers\peripheral\sysanalog/cy_sysanalog.c **** const cy_stc_sysanalog_config_t Cy_SysAnalog_Fast_External =
  42:Generated_Source\PSoC6\pdl\drivers\peripheral\sysanalog/cy_sysanalog.c **** {
  43:Generated_Source\PSoC6\pdl\drivers\peripheral\sysanalog/cy_sysanalog.c ****     /*.startup    */ CY_SYSANALOG_STARTUP_FAST,
  44:Generated_Source\PSoC6\pdl\drivers\peripheral\sysanalog/cy_sysanalog.c ****     /*.iztat      */ CY_SYSANALOG_IZTAT_SOURCE_LOCAL,
  45:Generated_Source\PSoC6\pdl\drivers\peripheral\sysanalog/cy_sysanalog.c ****     /*.vref       */ CY_SYSANALOG_VREF_SOURCE_EXTERNAL,
  46:Generated_Source\PSoC6\pdl\drivers\peripheral\sysanalog/cy_sysanalog.c ****     /*.deepSleep  */ CY_SYSANALOG_DEEPSLEEP_DISABLE,
  47:Generated_Source\PSoC6\pdl\drivers\peripheral\sysanalog/cy_sysanalog.c **** };
  48:Generated_Source\PSoC6\pdl\drivers\peripheral\sysanalog/cy_sysanalog.c **** 
  49:Generated_Source\PSoC6\pdl\drivers\peripheral\sysanalog/cy_sysanalog.c **** /*******************************************************************************
  50:Generated_Source\PSoC6\pdl\drivers\peripheral\sysanalog/cy_sysanalog.c **** * Function Name: Cy_SysAnalog_Init
  51:Generated_Source\PSoC6\pdl\drivers\peripheral\sysanalog/cy_sysanalog.c **** ****************************************************************************//**
ARM GAS  C:\Users\rdn\AppData\Local\Temp\ccE7gSzh.s 			page 41


  52:Generated_Source\PSoC6\pdl\drivers\peripheral\sysanalog/cy_sysanalog.c **** *
  53:Generated_Source\PSoC6\pdl\drivers\peripheral\sysanalog/cy_sysanalog.c **** * Initialize the AREF block.
  54:Generated_Source\PSoC6\pdl\drivers\peripheral\sysanalog/cy_sysanalog.c **** *
  55:Generated_Source\PSoC6\pdl\drivers\peripheral\sysanalog/cy_sysanalog.c **** * \param config
  56:Generated_Source\PSoC6\pdl\drivers\peripheral\sysanalog/cy_sysanalog.c **** * Pointer to structure containing configuration data. See \ref cy_stc_sysanalog_config_t
  57:Generated_Source\PSoC6\pdl\drivers\peripheral\sysanalog/cy_sysanalog.c **** *
  58:Generated_Source\PSoC6\pdl\drivers\peripheral\sysanalog/cy_sysanalog.c **** * \return
  59:Generated_Source\PSoC6\pdl\drivers\peripheral\sysanalog/cy_sysanalog.c **** * - \ref CY_SYSANALOG_SUCCESS : initialization complete
  60:Generated_Source\PSoC6\pdl\drivers\peripheral\sysanalog/cy_sysanalog.c **** * - \ref CY_SYSANALOG_BAD_PARAM : input pointers are null, initialization incomplete
  61:Generated_Source\PSoC6\pdl\drivers\peripheral\sysanalog/cy_sysanalog.c **** *
  62:Generated_Source\PSoC6\pdl\drivers\peripheral\sysanalog/cy_sysanalog.c **** * \funcusage
  63:Generated_Source\PSoC6\pdl\drivers\peripheral\sysanalog/cy_sysanalog.c **** *
  64:Generated_Source\PSoC6\pdl\drivers\peripheral\sysanalog/cy_sysanalog.c **** * \snippet sysanalog_sut_01.cydsn/main_cm0p.c SYSANA_SNIPPET_INIT
  65:Generated_Source\PSoC6\pdl\drivers\peripheral\sysanalog/cy_sysanalog.c **** *
  66:Generated_Source\PSoC6\pdl\drivers\peripheral\sysanalog/cy_sysanalog.c **** *******************************************************************************/
  67:Generated_Source\PSoC6\pdl\drivers\peripheral\sysanalog/cy_sysanalog.c **** cy_en_sysanalog_status_t Cy_SysAnalog_Init(const cy_stc_sysanalog_config_t *config)
  68:Generated_Source\PSoC6\pdl\drivers\peripheral\sysanalog/cy_sysanalog.c **** {
 537              		.loc 1 68 0
 538              		.cfi_startproc
 539              		@ args = 0, pretend = 0, frame = 0
 540              		@ frame_needed = 0, uses_anonymous_args = 0
 541              		@ link register save eliminated.
 542              	.LVL0:
  69:Generated_Source\PSoC6\pdl\drivers\peripheral\sysanalog/cy_sysanalog.c ****     CY_ASSERT_L1(NULL != config);
  70:Generated_Source\PSoC6\pdl\drivers\peripheral\sysanalog/cy_sysanalog.c **** 
  71:Generated_Source\PSoC6\pdl\drivers\peripheral\sysanalog/cy_sysanalog.c ****     cy_en_sysanalog_status_t result;
  72:Generated_Source\PSoC6\pdl\drivers\peripheral\sysanalog/cy_sysanalog.c ****     uint32_t ctrlReg = CY_SYSANALOG_DEINIT;
  73:Generated_Source\PSoC6\pdl\drivers\peripheral\sysanalog/cy_sysanalog.c **** 
  74:Generated_Source\PSoC6\pdl\drivers\peripheral\sysanalog/cy_sysanalog.c ****     if (NULL == config)
 543              		.loc 1 74 0
 544 0000 88B1     		cbz	r0, .L3
  68:Generated_Source\PSoC6\pdl\drivers\peripheral\sysanalog/cy_sysanalog.c ****     CY_ASSERT_L1(NULL != config);
 545              		.loc 1 68 0
 546 0002 30B4     		push	{r4, r5}
 547              		.cfi_def_cfa_offset 8
 548              		.cfi_offset 4, -8
 549              		.cfi_offset 5, -4
  75:Generated_Source\PSoC6\pdl\drivers\peripheral\sysanalog/cy_sysanalog.c ****     {
  76:Generated_Source\PSoC6\pdl\drivers\peripheral\sysanalog/cy_sysanalog.c ****         result = CY_SYSANALOG_BAD_PARAM;
  77:Generated_Source\PSoC6\pdl\drivers\peripheral\sysanalog/cy_sysanalog.c ****     }
  78:Generated_Source\PSoC6\pdl\drivers\peripheral\sysanalog/cy_sysanalog.c ****     else
  79:Generated_Source\PSoC6\pdl\drivers\peripheral\sysanalog/cy_sysanalog.c ****     {
  80:Generated_Source\PSoC6\pdl\drivers\peripheral\sysanalog/cy_sysanalog.c ****         CY_ASSERT_L3(CY_SYSANALOG_STARTUP(config->startup));
  81:Generated_Source\PSoC6\pdl\drivers\peripheral\sysanalog/cy_sysanalog.c ****         CY_ASSERT_L3(CY_SYSANALOG_DEEPSLEEP(config->deepSleep));
  82:Generated_Source\PSoC6\pdl\drivers\peripheral\sysanalog/cy_sysanalog.c ****         CY_ASSERT_L3(CY_SYSANALOG_VREF(config->vref));
  83:Generated_Source\PSoC6\pdl\drivers\peripheral\sysanalog/cy_sysanalog.c ****         CY_ASSERT_L3(CY_SYSANALOG_IZTAT(config->iztat));
  84:Generated_Source\PSoC6\pdl\drivers\peripheral\sysanalog/cy_sysanalog.c **** 
  85:Generated_Source\PSoC6\pdl\drivers\peripheral\sysanalog/cy_sysanalog.c ****         ctrlReg = (uint32_t) config->startup \
  86:Generated_Source\PSoC6\pdl\drivers\peripheral\sysanalog/cy_sysanalog.c ****                   | CY_SYSANALOG_DEFAULT_BIAS_SCALE \
  87:Generated_Source\PSoC6\pdl\drivers\peripheral\sysanalog/cy_sysanalog.c ****                   | (uint32_t) config->iztat \
  88:Generated_Source\PSoC6\pdl\drivers\peripheral\sysanalog/cy_sysanalog.c ****                   | (uint32_t) config->vref \
  89:Generated_Source\PSoC6\pdl\drivers\peripheral\sysanalog/cy_sysanalog.c ****                   | (uint32_t) config->deepSleep;
  90:Generated_Source\PSoC6\pdl\drivers\peripheral\sysanalog/cy_sysanalog.c **** 
  91:Generated_Source\PSoC6\pdl\drivers\peripheral\sysanalog/cy_sysanalog.c ****         PASS_AREF_AREF_CTRL = ctrlReg;
 550              		.loc 1 91 0
 551 0004 094D     		ldr	r5, .L7
  85:Generated_Source\PSoC6\pdl\drivers\peripheral\sysanalog/cy_sysanalog.c ****                   | CY_SYSANALOG_DEFAULT_BIAS_SCALE \
ARM GAS  C:\Users\rdn\AppData\Local\Temp\ccE7gSzh.s 			page 42


 552              		.loc 1 85 0
 553 0006 4468     		ldr	r4, [r0, #4]
 554 0008 8268     		ldr	r2, [r0, #8]
 555 000a C168     		ldr	r1, [r0, #12]
 556 000c 0378     		ldrb	r3, [r0]	@ zero_extendqisi2
 557              		.loc 1 91 0
 558 000e 2868     		ldr	r0, [r5]
 559              	.LVL1:
  85:Generated_Source\PSoC6\pdl\drivers\peripheral\sysanalog/cy_sysanalog.c ****                   | CY_SYSANALOG_DEFAULT_BIAS_SCALE \
 560              		.loc 1 85 0
 561 0010 2243     		orrs	r2, r2, r4
 562 0012 0A43     		orrs	r2, r2, r1
 563 0014 43F00403 		orr	r3, r3, #4
 564              		.loc 1 91 0
 565 0018 C169     		ldr	r1, [r0, #28]
  85:Generated_Source\PSoC6\pdl\drivers\peripheral\sysanalog/cy_sysanalog.c ****                   | CY_SYSANALOG_DEFAULT_BIAS_SCALE \
 566              		.loc 1 85 0
 567 001a 1343     		orrs	r3, r3, r2
 568              	.LVL2:
  92:Generated_Source\PSoC6\pdl\drivers\peripheral\sysanalog/cy_sysanalog.c **** 
  93:Generated_Source\PSoC6\pdl\drivers\peripheral\sysanalog/cy_sysanalog.c ****         result = CY_SYSANALOG_SUCCESS;
 569              		.loc 1 93 0
 570 001c 0020     		movs	r0, #0
  91:Generated_Source\PSoC6\pdl\drivers\peripheral\sysanalog/cy_sysanalog.c **** 
 571              		.loc 1 91 0
 572 001e C1F8003E 		str	r3, [r1, #3584]
 573              	.LVL3:
  94:Generated_Source\PSoC6\pdl\drivers\peripheral\sysanalog/cy_sysanalog.c ****     }
  95:Generated_Source\PSoC6\pdl\drivers\peripheral\sysanalog/cy_sysanalog.c **** 
  96:Generated_Source\PSoC6\pdl\drivers\peripheral\sysanalog/cy_sysanalog.c ****     return result;
  97:Generated_Source\PSoC6\pdl\drivers\peripheral\sysanalog/cy_sysanalog.c **** }
 574              		.loc 1 97 0
 575 0022 30BC     		pop	{r4, r5}
 576              		.cfi_restore 5
 577              		.cfi_restore 4
 578              		.cfi_def_cfa_offset 0
 579 0024 7047     		bx	lr
 580              	.LVL4:
 581              	.L3:
  76:Generated_Source\PSoC6\pdl\drivers\peripheral\sysanalog/cy_sysanalog.c ****     }
 582              		.loc 1 76 0
 583 0026 0248     		ldr	r0, .L7+4
 584              	.LVL5:
 585 0028 7047     		bx	lr
 586              	.L8:
 587 002a 00BF     		.align	2
 588              	.L7:
 589 002c 00000000 		.word	cy_device
 590 0030 01005E00 		.word	6160385
 591              		.cfi_endproc
 592              	.LFE175:
 593              		.size	Cy_SysAnalog_Init, .-Cy_SysAnalog_Init
 594              		.global	Cy_SysAnalog_Fast_External
 595              		.global	Cy_SysAnalog_Fast_SRSS
 596              		.global	Cy_SysAnalog_Fast_Local
 597              		.section	.rodata
 598              		.align	2
ARM GAS  C:\Users\rdn\AppData\Local\Temp\ccE7gSzh.s 			page 43


 599              		.type	Cy_SysAnalog_Fast_External, %object
 600              		.size	Cy_SysAnalog_Fast_External, 16
 601              	Cy_SysAnalog_Fast_External:
 602 0000 01       		.byte	1
 603 0001 000000   		.space	3
 604 0004 00000100 		.word	65536
 605 0008 00002000 		.word	2097152
 606 000c 00000000 		.word	0
 607              		.type	Cy_SysAnalog_Fast_SRSS, %object
 608              		.size	Cy_SysAnalog_Fast_SRSS, 16
 609              	Cy_SysAnalog_Fast_SRSS:
 610 0010 01       		.byte	1
 611 0011 000000   		.space	3
 612 0014 00000000 		.word	0
 613 0018 00000000 		.word	0
 614 001c 00000000 		.word	0
 615              		.type	Cy_SysAnalog_Fast_Local, %object
 616              		.size	Cy_SysAnalog_Fast_Local, 16
 617              	Cy_SysAnalog_Fast_Local:
 618 0020 01       		.byte	1
 619 0021 000000   		.space	3
 620 0024 00000100 		.word	65536
 621 0028 00001000 		.word	1048576
 622 002c 00000000 		.word	0
 623              		.text
 624              	.Letext0:
 625              		.file 2 "c:\\program files (x86)\\cypress\\psoc creator\\4.4\\psoc creator\\import\\gnu\\arm\\5.4.
 626              		.file 3 "c:\\program files (x86)\\cypress\\psoc creator\\4.4\\psoc creator\\import\\gnu\\arm\\5.4.
 627              		.file 4 "Generated_Source\\PSoC6\\pdl\\devices/psoc6/include/ip/cyip_pass.h"
 628              		.file 5 "Generated_Source\\PSoC6\\pdl\\drivers/peripheral/device/cy_device.h"
 629              		.file 6 "Generated_Source\\PSoC6\\pdl\\drivers\\peripheral\\sysanalog\\cy_sysanalog.h"
 630              		.file 7 "Generated_Source\\PSoC6\\pdl\\cmsis/include/core_cm4.h"