ARM GAS  C:\Users\rdn\AppData\Local\Temp\ccXLW28f.s 			page 1


   1              		.syntax unified
   2              		.cpu cortex-m4
   3              		.eabi_attribute 27, 1
   4              		.fpu fpv4-sp-d16
   5              		.eabi_attribute 20, 1
   6              		.eabi_attribute 21, 1
   7              		.eabi_attribute 23, 3
   8              		.eabi_attribute 24, 1
   9              		.eabi_attribute 25, 1
  10              		.eabi_attribute 26, 1
  11              		.eabi_attribute 30, 4
  12              		.eabi_attribute 34, 1
  13              		.eabi_attribute 18, 4
  14              		.thumb
  15              		.syntax unified
  16              		.file	"energy.c"
  17              		.text
  18              	.Ltext0:
  19              		.cfi_sections	.debug_frame
  20              		.section	.text.lc3_energy_compute,"ax",%progbits
  21              		.align	1
  22              		.global	lc3_energy_compute
  23              		.thumb
  24              		.thumb_func
  25              		.type	lc3_energy_compute, %function
  26              	lc3_energy_compute:
  27              	.LFB20:
  28              		.file 1 "..\\..\\..\\liblc3\\src\\energy.c"
   1:..\..\..\liblc3\src/energy.c **** /******************************************************************************
   2:..\..\..\liblc3\src/energy.c ****  *
   3:..\..\..\liblc3\src/energy.c ****  *  Copyright 2022 Google LLC
   4:..\..\..\liblc3\src/energy.c ****  *
   5:..\..\..\liblc3\src/energy.c ****  *  Licensed under the Apache License, Version 2.0 (the "License");
   6:..\..\..\liblc3\src/energy.c ****  *  you may not use this file except in compliance with the License.
   7:..\..\..\liblc3\src/energy.c ****  *  You may obtain a copy of the License at:
   8:..\..\..\liblc3\src/energy.c ****  *
   9:..\..\..\liblc3\src/energy.c ****  *  http://www.apache.org/licenses/LICENSE-2.0
  10:..\..\..\liblc3\src/energy.c ****  *
  11:..\..\..\liblc3\src/energy.c ****  *  Unless required by applicable law or agreed to in writing, software
  12:..\..\..\liblc3\src/energy.c ****  *  distributed under the License is distributed on an "AS IS" BASIS,
  13:..\..\..\liblc3\src/energy.c ****  *  WITHOUT WARRANTIES OR CONDITIONS OF ANY KIND, either express or implied.
  14:..\..\..\liblc3\src/energy.c ****  *  See the License for the specific language governing permissions and
  15:..\..\..\liblc3\src/energy.c ****  *  limitations under the License.
  16:..\..\..\liblc3\src/energy.c ****  *
  17:..\..\..\liblc3\src/energy.c ****  ******************************************************************************/
  18:..\..\..\liblc3\src/energy.c **** 
  19:..\..\..\liblc3\src/energy.c **** #include "energy.h"
  20:..\..\..\liblc3\src/energy.c **** #include "tables.h"
  21:..\..\..\liblc3\src/energy.c **** 
  22:..\..\..\liblc3\src/energy.c **** 
  23:..\..\..\liblc3\src/energy.c **** /**
  24:..\..\..\liblc3\src/energy.c ****  * Energy estimation per band
  25:..\..\..\liblc3\src/energy.c ****  */
  26:..\..\..\liblc3\src/energy.c **** bool lc3_energy_compute(
  27:..\..\..\liblc3\src/energy.c ****     enum lc3_dt dt, enum lc3_srate sr, const float *x, float *e)
  28:..\..\..\liblc3\src/energy.c **** {
  29              		.loc 1 28 0
ARM GAS  C:\Users\rdn\AppData\Local\Temp\ccXLW28f.s 			page 2


  30              		.cfi_startproc
  31              		@ args = 0, pretend = 0, frame = 24
  32              		@ frame_needed = 0, uses_anonymous_args = 0
  33              	.LVL0:
  34 0000 F0B5     		push	{r4, r5, r6, r7, lr}
  35              		.cfi_def_cfa_offset 20
  36              		.cfi_offset 4, -20
  37              		.cfi_offset 5, -16
  38              		.cfi_offset 6, -12
  39              		.cfi_offset 7, -8
  40              		.cfi_offset 14, -4
  41 0002 1F46     		mov	r7, r3
  29:..\..\..\liblc3\src/energy.c ****     int nb = lc3_num_bands[dt][sr];
  42              		.loc 1 29 0
  43 0004 C0EBC003 		rsb	r3, r0, r0, lsl #3
  44              	.LVL1:
  45 0008 1944     		add	r1, r1, r3
  46              	.LVL2:
  47 000a 2A4B     		ldr	r3, .L10
  48 000c 53F82160 		ldr	r6, [r3, r1, lsl #2]
  49              	.LVL3:
  30:..\..\..\liblc3\src/energy.c ****     const int *lim = lc3_band_lim[dt][sr];
  50              		.loc 1 30 0
  51 0010 294B     		ldr	r3, .L10+4
  28:..\..\..\liblc3\src/energy.c ****     int nb = lc3_num_bands[dt][sr];
  52              		.loc 1 28 0
  53 0012 87B0     		sub	sp, sp, #28
  54              		.cfi_def_cfa_offset 48
  55              		.loc 1 30 0
  56 0014 53F82140 		ldr	r4, [r3, r1, lsl #2]
  57              	.LVL4:
  31:..\..\..\liblc3\src/energy.c **** 
  32:..\..\..\liblc3\src/energy.c ****     /* Mean the square of coefficients within each band */
  33:..\..\..\liblc3\src/energy.c **** 
  34:..\..\..\liblc3\src/energy.c ****     float e_sum[2] = { 0, 0 };
  58              		.loc 1 34 0
  59 0018 0023     		movs	r3, #0
  60 001a 0093     		str	r3, [sp]	@ float
  61 001c 0193     		str	r3, [sp, #4]	@ float
  35:..\..\..\liblc3\src/energy.c ****     int iband_h = nb - (const int []){
  62              		.loc 1 35 0
  63 001e 274B     		ldr	r3, .L10+8
  28:..\..\..\liblc3\src/energy.c ****     int nb = lc3_num_bands[dt][sr];
  64              		.loc 1 28 0
  65 0020 0546     		mov	r5, r0
  66 0022 9646     		mov	lr, r2
  67              		.loc 1 35 0
  68 0024 0FCB     		ldmia	r3, {r0, r1, r2, r3}
  69              	.LVL5:
  70 0026 0DF1180C 		add	ip, sp, #24
  71 002a 0CE90F00 		stmdb	ip, {r0, r1, r2, r3}
  36:..\..\..\liblc3\src/energy.c ****         [LC3_DT_2M5] = 2, [LC3_DT_5M ] = 3,
  37:..\..\..\liblc3\src/energy.c ****         [LC3_DT_7M5] = 4, [LC3_DT_10M] = 2 }[dt];
  72              		.loc 1 37 0
  73 002e 0CEB8505 		add	r5, ip, r5, lsl #2
  74              	.LBB2:
  38:..\..\..\liblc3\src/energy.c **** 
ARM GAS  C:\Users\rdn\AppData\Local\Temp\ccXLW28f.s 			page 3


  39:..\..\..\liblc3\src/energy.c ****     for (int iband = 0, i = lim[iband]; iband < nb; iband++) {
  75              		.loc 1 39 0
  76 0032 2368     		ldr	r3, [r4]
  77              	.LBE2:
  35:..\..\..\liblc3\src/energy.c ****         [LC3_DT_2M5] = 2, [LC3_DT_5M ] = 3,
  78              		.loc 1 35 0
  79 0034 55F8100C 		ldr	r0, [r5, #-16]
  80              	.LBB5:
  81              		.loc 1 39 0
  82 0038 0021     		movs	r1, #0
  83              	.LBE5:
  35:..\..\..\liblc3\src/energy.c ****         [LC3_DT_2M5] = 2, [LC3_DT_5M ] = 3,
  84              		.loc 1 35 0
  85 003a 301A     		subs	r0, r6, r0
  86              	.LVL6:
  87              	.L2:
  88              	.LBB6:
  89              		.loc 1 39 0 discriminator 1
  90 003c B142     		cmp	r1, r6
  91 003e 28DA     		bge	.L8
  92              	.LBB3:
  40:..\..\..\liblc3\src/energy.c ****         int ie = lim[iband+1];
  93              		.loc 1 40 0
  94 0040 54F8045F 		ldr	r5, [r4, #4]!
  95              	.LVL7:
  41:..\..\..\liblc3\src/energy.c ****         int n = ie - i;
  96              		.loc 1 41 0
  97 0044 EA1A     		subs	r2, r5, r3
  98 0046 07EE102A 		vmov	s14, r2	@ int
  99              	.LVL8:
  42:..\..\..\liblc3\src/energy.c **** 
  43:..\..\..\liblc3\src/energy.c ****         float sx2 = x[i] * x[i];
 100              		.loc 1 43 0
 101 004a 0EEB8302 		add	r2, lr, r3, lsl #2
 102              	.LVL9:
 103 004e D2ED007A 		vldr.32	s15, [r2]
 104 0052 67EEA77A 		vmul.f32	s15, s15, s15
 105              	.LVL10:
 106              	.L6:
  44:..\..\..\liblc3\src/energy.c ****         for (i++; i < ie; i++)
 107              		.loc 1 44 0 discriminator 3
 108 0056 0133     		adds	r3, r3, #1
 109              	.LVL11:
 110 0058 AB42     		cmp	r3, r5
 111 005a 05DA     		bge	.L9
  45:..\..\..\liblc3\src/energy.c ****             sx2 += x[i] * x[i];
 112              		.loc 1 45 0 discriminator 3
 113 005c 0432     		adds	r2, r2, #4
 114 005e D2ED006A 		vldr.32	s13, [r2]
 115 0062 E6EEA67A 		vfma.f32	s15, s13, s13
 116              	.LVL12:
 117 0066 F6E7     		b	.L6
 118              	.LVL13:
 119              	.L9:
  46:..\..\..\liblc3\src/energy.c **** 
  47:..\..\..\liblc3\src/energy.c ****         *e = sx2 / n;
 120              		.loc 1 47 0 discriminator 2
ARM GAS  C:\Users\rdn\AppData\Local\Temp\ccXLW28f.s 			page 4


 121 0068 B8EEC77A 		vcvt.f32.s32	s14, s14
 122              	.LVL14:
  48:..\..\..\liblc3\src/energy.c ****         e_sum[iband >= iband_h] += *(e++);
 123              		.loc 1 48 0 discriminator 2
 124 006c 8142     		cmp	r1, r0
  47:..\..\..\liblc3\src/energy.c ****         e_sum[iband >= iband_h] += *(e++);
 125              		.loc 1 47 0 discriminator 2
 126 006e C7EE876A 		vdiv.f32	s13, s15, s14
 127              		.loc 1 48 0 discriminator 2
 128 0072 B4BF     		ite	lt
 129 0074 0022     		movlt	r2, #0
 130 0076 0122     		movge	r2, #1
 131 0078 06AD     		add	r5, sp, #24
 132              	.LVL15:
 133 007a 05EB8202 		add	r2, r5, r2, lsl #2
 134              	.LBE3:
  39:..\..\..\liblc3\src/energy.c ****         int ie = lim[iband+1];
 135              		.loc 1 39 0 discriminator 2
 136 007e 0131     		adds	r1, r1, #1
 137              	.LVL16:
 138              	.LBB4:
 139              		.loc 1 48 0 discriminator 2
 140 0080 52ED067A 		vldr.32	s15, [r2, #-24]
 141              	.LVL17:
  47:..\..\..\liblc3\src/energy.c ****         e_sum[iband >= iband_h] += *(e++);
 142              		.loc 1 47 0 discriminator 2
 143 0084 E7EC016A 		vstmia.32	r7!, {s13}
 144              	.LVL18:
 145              		.loc 1 48 0 discriminator 2
 146 0088 77EEA67A 		vadd.f32	s15, s15, s13
 147 008c 42ED067A 		vstr.32	s15, [r2, #-24]
 148 0090 D4E7     		b	.L2
 149              	.LVL19:
 150              	.L8:
 151              	.LBE4:
 152              	.LBE6:
  49:..\..\..\liblc3\src/energy.c ****     }
  50:..\..\..\liblc3\src/energy.c **** 
  51:..\..\..\liblc3\src/energy.c ****     /* Return the near nyquist flag */
  52:..\..\..\liblc3\src/energy.c **** 
  53:..\..\..\liblc3\src/energy.c ****     return e_sum[1] > 30 * e_sum[0];
 153              		.loc 1 53 0
 154 0092 DDED007A 		vldr.32	s15, [sp]
 155 0096 B3EE0E7A 		vmov.f32	s14, #3.0e+1
 156 009a 67EE877A 		vmul.f32	s15, s15, s14
 157 009e 9DED017A 		vldr.32	s14, [sp, #4]
 158 00a2 B4EEE77A 		vcmpe.f32	s14, s15
 159 00a6 F1EE10FA 		vmrs	APSR_nzcv, FPSCR
  54:..\..\..\liblc3\src/energy.c **** }
 160              		.loc 1 54 0
 161 00aa CCBF     		ite	gt
 162 00ac 0120     		movgt	r0, #1
 163              	.LVL20:
 164 00ae 0020     		movle	r0, #0
 165 00b0 07B0     		add	sp, sp, #28
 166              		.cfi_def_cfa_offset 20
 167              		@ sp needed
ARM GAS  C:\Users\rdn\AppData\Local\Temp\ccXLW28f.s 			page 5


 168 00b2 F0BD     		pop	{r4, r5, r6, r7, pc}
 169              	.LVL21:
 170              	.L11:
 171              		.align	2
 172              	.L10:
 173 00b4 00000000 		.word	lc3_num_bands
 174 00b8 00000000 		.word	lc3_band_lim
 175 00bc 00000000 		.word	.LANCHOR0
 176              		.cfi_endproc
 177              	.LFE20:
 178              		.size	lc3_energy_compute, .-lc3_energy_compute
 179              		.section	.rodata
 180              		.align	2
 181              		.set	.LANCHOR0,. + 0
 182              	.LC0:
 183 0000 02000000 		.word	2
 184 0004 03000000 		.word	3
 185 0008 04000000 		.word	4
 186 000c 02000000 		.word	2
 187              		.text
 188              	.Letext0:
 189              		.file 2 "./liblc3/include/lc3_private.h"
 190              		.file 3 "..\\..\\..\\liblc3\\src\\tables.h"