ARM GAS  C:\Users\rdn\AppData\Local\Temp\cckhx27q.s 			page 1


   1              		.syntax unified
   2              		.cpu cortex-m4
   3              		.eabi_attribute 27, 1
   4              		.fpu fpv4-sp-d16
   5              		.eabi_attribute 20, 1
   6              		.eabi_attribute 21, 1
   7              		.eabi_attribute 23, 3
   8              		.eabi_attribute 24, 1
   9              		.eabi_attribute 25, 1
  10              		.eabi_attribute 26, 1
  11              		.eabi_attribute 30, 4
  12              		.eabi_attribute 34, 1
  13              		.eabi_attribute 18, 4
  14              		.thumb
  15              		.syntax unified
  16              		.file	"lc3.c"
  17              		.text
  18              	.Ltext0:
  19              		.cfi_sections	.debug_frame
  20              		.section	.text.load_s16,"ax",%progbits
  21              		.align	1
  22              		.thumb
  23              		.thumb_func
  24              		.type	load_s16, %function
  25              	load_s16:
  26              	.LFB32:
  27              		.file 1 "..\\..\\..\\liblc3\\src\\lc3.c"
   1:..\..\..\liblc3\src/lc3.c **** /******************************************************************************
   2:..\..\..\liblc3\src/lc3.c ****  *
   3:..\..\..\liblc3\src/lc3.c ****  *  Copyright 2022 Google LLC
   4:..\..\..\liblc3\src/lc3.c ****  *
   5:..\..\..\liblc3\src/lc3.c ****  *  Licensed under the Apache License, Version 2.0 (the "License");
   6:..\..\..\liblc3\src/lc3.c ****  *  you may not use this file except in compliance with the License.
   7:..\..\..\liblc3\src/lc3.c ****  *  You may obtain a copy of the License at:
   8:..\..\..\liblc3\src/lc3.c ****  *
   9:..\..\..\liblc3\src/lc3.c ****  *  http://www.apache.org/licenses/LICENSE-2.0
  10:..\..\..\liblc3\src/lc3.c ****  *
  11:..\..\..\liblc3\src/lc3.c ****  *  Unless required by applicable law or agreed to in writing, software
  12:..\..\..\liblc3\src/lc3.c ****  *  distributed under the License is distributed on an "AS IS" BASIS,
  13:..\..\..\liblc3\src/lc3.c ****  *  WITHOUT WARRANTIES OR CONDITIONS OF ANY KIND, either express or implied.
  14:..\..\..\liblc3\src/lc3.c ****  *  See the License for the specific language governing permissions and
  15:..\..\..\liblc3\src/lc3.c ****  *  limitations under the License.
  16:..\..\..\liblc3\src/lc3.c ****  *
  17:..\..\..\liblc3\src/lc3.c ****  ******************************************************************************/
  18:..\..\..\liblc3\src/lc3.c **** 
  19:..\..\..\liblc3\src/lc3.c **** #include <lc3.h>
  20:..\..\..\liblc3\src/lc3.c **** 
  21:..\..\..\liblc3\src/lc3.c **** #include "common.h"
  22:..\..\..\liblc3\src/lc3.c **** #include "bits.h"
  23:..\..\..\liblc3\src/lc3.c **** 
  24:..\..\..\liblc3\src/lc3.c **** #include "attdet.h"
  25:..\..\..\liblc3\src/lc3.c **** #include "bwdet.h"
  26:..\..\..\liblc3\src/lc3.c **** #include "ltpf.h"
  27:..\..\..\liblc3\src/lc3.c **** #include "mdct.h"
  28:..\..\..\liblc3\src/lc3.c **** #include "energy.h"
  29:..\..\..\liblc3\src/lc3.c **** #include "sns.h"
  30:..\..\..\liblc3\src/lc3.c **** #include "tns.h"
ARM GAS  C:\Users\rdn\AppData\Local\Temp\cckhx27q.s 			page 2


  31:..\..\..\liblc3\src/lc3.c **** #include "spec.h"
  32:..\..\..\liblc3\src/lc3.c **** #include "plc.h"
  33:..\..\..\liblc3\src/lc3.c **** 
  34:..\..\..\liblc3\src/lc3.c **** 
  35:..\..\..\liblc3\src/lc3.c **** /**
  36:..\..\..\liblc3\src/lc3.c ****  * Frame side data
  37:..\..\..\liblc3\src/lc3.c ****  */
  38:..\..\..\liblc3\src/lc3.c **** 
  39:..\..\..\liblc3\src/lc3.c **** struct side_data {
  40:..\..\..\liblc3\src/lc3.c ****     enum lc3_bandwidth bw;
  41:..\..\..\liblc3\src/lc3.c ****     bool pitch_present;
  42:..\..\..\liblc3\src/lc3.c ****     lc3_ltpf_data_t ltpf;
  43:..\..\..\liblc3\src/lc3.c ****     lc3_sns_data_t sns;
  44:..\..\..\liblc3\src/lc3.c ****     lc3_tns_data_t tns;
  45:..\..\..\liblc3\src/lc3.c ****     lc3_spec_side_t spec;
  46:..\..\..\liblc3\src/lc3.c **** };
  47:..\..\..\liblc3\src/lc3.c **** 
  48:..\..\..\liblc3\src/lc3.c **** 
  49:..\..\..\liblc3\src/lc3.c **** /* ----------------------------------------------------------------------------
  50:..\..\..\liblc3\src/lc3.c ****  *  General
  51:..\..\..\liblc3\src/lc3.c ****  * -------------------------------------------------------------------------- */
  52:..\..\..\liblc3\src/lc3.c **** 
  53:..\..\..\liblc3\src/lc3.c **** /**
  54:..\..\..\liblc3\src/lc3.c ****  * Resolve frame duration in us
  55:..\..\..\liblc3\src/lc3.c ****  * us              Frame duration in us
  56:..\..\..\liblc3\src/lc3.c ****  * hrmode          High-resolution mode indication
  57:..\..\..\liblc3\src/lc3.c ****  * return          Frame duration identifier, or LC3_NUM_DT
  58:..\..\..\liblc3\src/lc3.c ****  */
  59:..\..\..\liblc3\src/lc3.c **** static enum lc3_dt resolve_dt(int us, bool hrmode)
  60:..\..\..\liblc3\src/lc3.c **** {
  61:..\..\..\liblc3\src/lc3.c ****     return LC3_PLUS && us ==  2500 ? LC3_DT_2M5 :
  62:..\..\..\liblc3\src/lc3.c ****            LC3_PLUS && us ==  5000 ? LC3_DT_5M  :
  63:..\..\..\liblc3\src/lc3.c ****            !hrmode  && us ==  7500 ? LC3_DT_7M5 :
  64:..\..\..\liblc3\src/lc3.c ****                        us == 10000 ? LC3_DT_10M : LC3_NUM_DT;
  65:..\..\..\liblc3\src/lc3.c **** }
  66:..\..\..\liblc3\src/lc3.c **** 
  67:..\..\..\liblc3\src/lc3.c **** /**
  68:..\..\..\liblc3\src/lc3.c ****  * Resolve samplerate in Hz
  69:..\..\..\liblc3\src/lc3.c ****  * hz              Samplerate in Hz
  70:..\..\..\liblc3\src/lc3.c ****  * hrmode          High-resolution mode indication
  71:..\..\..\liblc3\src/lc3.c ****  * return          Sample rate identifier, or LC3_NUM_SRATE
  72:..\..\..\liblc3\src/lc3.c ****  */
  73:..\..\..\liblc3\src/lc3.c **** static enum lc3_srate resolve_srate(int hz, bool hrmode)
  74:..\..\..\liblc3\src/lc3.c **** {
  75:..\..\..\liblc3\src/lc3.c ****     hrmode = LC3_PLUS_HR && hrmode;
  76:..\..\..\liblc3\src/lc3.c **** 
  77:..\..\..\liblc3\src/lc3.c ****     return !hrmode && hz ==  8000 ? LC3_SRATE_8K     :
  78:..\..\..\liblc3\src/lc3.c ****            !hrmode && hz == 16000 ? LC3_SRATE_16K    :
  79:..\..\..\liblc3\src/lc3.c ****            !hrmode && hz == 24000 ? LC3_SRATE_24K    :
  80:..\..\..\liblc3\src/lc3.c ****            !hrmode && hz == 32000 ? LC3_SRATE_32K    :
  81:..\..\..\liblc3\src/lc3.c ****            !hrmode && hz == 48000 ? LC3_SRATE_48K    :
  82:..\..\..\liblc3\src/lc3.c ****             hrmode && hz == 48000 ? LC3_SRATE_48K_HR :
  83:..\..\..\liblc3\src/lc3.c ****             hrmode && hz == 96000 ? LC3_SRATE_96K_HR : LC3_NUM_SRATE;
  84:..\..\..\liblc3\src/lc3.c **** }
  85:..\..\..\liblc3\src/lc3.c **** 
  86:..\..\..\liblc3\src/lc3.c **** /**
  87:..\..\..\liblc3\src/lc3.c ****  * Return the number of PCM samples in a frame
ARM GAS  C:\Users\rdn\AppData\Local\Temp\cckhx27q.s 			page 3


  88:..\..\..\liblc3\src/lc3.c ****  */
  89:..\..\..\liblc3\src/lc3.c **** LC3_EXPORT int lc3_hr_frame_samples(bool hrmode, int dt_us, int sr_hz)
  90:..\..\..\liblc3\src/lc3.c **** {
  91:..\..\..\liblc3\src/lc3.c ****     enum lc3_dt dt = resolve_dt(dt_us, hrmode);
  92:..\..\..\liblc3\src/lc3.c ****     enum lc3_srate sr = resolve_srate(sr_hz, hrmode);
  93:..\..\..\liblc3\src/lc3.c **** 
  94:..\..\..\liblc3\src/lc3.c ****     if (dt >= LC3_NUM_DT || sr >= LC3_NUM_SRATE)
  95:..\..\..\liblc3\src/lc3.c ****         return -1;
  96:..\..\..\liblc3\src/lc3.c **** 
  97:..\..\..\liblc3\src/lc3.c ****     return lc3_ns(dt, sr);
  98:..\..\..\liblc3\src/lc3.c **** }
  99:..\..\..\liblc3\src/lc3.c **** 
 100:..\..\..\liblc3\src/lc3.c **** LC3_EXPORT int lc3_frame_samples(int dt_us, int sr_hz)
 101:..\..\..\liblc3\src/lc3.c **** {
 102:..\..\..\liblc3\src/lc3.c ****     return lc3_hr_frame_samples(false, dt_us, sr_hz);
 103:..\..\..\liblc3\src/lc3.c **** }
 104:..\..\..\liblc3\src/lc3.c **** 
 105:..\..\..\liblc3\src/lc3.c **** /**
 106:..\..\..\liblc3\src/lc3.c ****  * Return the size of frames or frame blocks, from bitrate
 107:..\..\..\liblc3\src/lc3.c ****  */
 108:..\..\..\liblc3\src/lc3.c **** LC3_EXPORT int lc3_hr_frame_block_bytes(
 109:..\..\..\liblc3\src/lc3.c ****     bool hrmode, int dt_us, int sr_hz, int nchannels, int bitrate)
 110:..\..\..\liblc3\src/lc3.c **** {
 111:..\..\..\liblc3\src/lc3.c ****     enum lc3_dt dt = resolve_dt(dt_us, hrmode);
 112:..\..\..\liblc3\src/lc3.c ****     enum lc3_srate sr = resolve_srate(sr_hz, hrmode);
 113:..\..\..\liblc3\src/lc3.c **** 
 114:..\..\..\liblc3\src/lc3.c ****     if (dt >= LC3_NUM_DT || sr >= LC3_NUM_SRATE
 115:..\..\..\liblc3\src/lc3.c ****             || nchannels < 1 || nchannels > 8 || bitrate < 0)
 116:..\..\..\liblc3\src/lc3.c ****         return -1;
 117:..\..\..\liblc3\src/lc3.c **** 
 118:..\..\..\liblc3\src/lc3.c ****     bitrate = LC3_CLIP(bitrate, 0, 8*LC3_HR_MAX_BITRATE);
 119:..\..\..\liblc3\src/lc3.c **** 
 120:..\..\..\liblc3\src/lc3.c ****     return LC3_CLIP((bitrate * (int)(1 + dt)) / 3200,
 121:..\..\..\liblc3\src/lc3.c ****         nchannels * lc3_min_frame_bytes(dt, sr),
 122:..\..\..\liblc3\src/lc3.c ****         nchannels * lc3_max_frame_bytes(dt, sr) );
 123:..\..\..\liblc3\src/lc3.c **** }
 124:..\..\..\liblc3\src/lc3.c **** 
 125:..\..\..\liblc3\src/lc3.c **** LC3_EXPORT int lc3_frame_bock_bytes(int dt_us, int nchannels, int bitrate)
 126:..\..\..\liblc3\src/lc3.c **** {
 127:..\..\..\liblc3\src/lc3.c ****     return lc3_hr_frame_block_bytes(false, dt_us, 8000, nchannels, bitrate);
 128:..\..\..\liblc3\src/lc3.c **** }
 129:..\..\..\liblc3\src/lc3.c **** 
 130:..\..\..\liblc3\src/lc3.c **** LC3_EXPORT int lc3_hr_frame_bytes(
 131:..\..\..\liblc3\src/lc3.c ****     bool hrmode, int dt_us, int sr_hz, int bitrate)
 132:..\..\..\liblc3\src/lc3.c **** {
 133:..\..\..\liblc3\src/lc3.c ****     return lc3_hr_frame_block_bytes(hrmode, dt_us, sr_hz, 1, bitrate);
 134:..\..\..\liblc3\src/lc3.c **** }
 135:..\..\..\liblc3\src/lc3.c **** 
 136:..\..\..\liblc3\src/lc3.c **** LC3_EXPORT int lc3_frame_bytes(int dt_us, int bitrate)
 137:..\..\..\liblc3\src/lc3.c **** {
 138:..\..\..\liblc3\src/lc3.c ****     return lc3_hr_frame_bytes(false, dt_us, 8000, bitrate);
 139:..\..\..\liblc3\src/lc3.c **** }
 140:..\..\..\liblc3\src/lc3.c **** 
 141:..\..\..\liblc3\src/lc3.c **** /**
 142:..\..\..\liblc3\src/lc3.c ****  * Resolve the bitrate, from the size of frames or frame blocks
 143:..\..\..\liblc3\src/lc3.c ****  */
 144:..\..\..\liblc3\src/lc3.c **** LC3_EXPORT int lc3_hr_resolve_bitrate(
ARM GAS  C:\Users\rdn\AppData\Local\Temp\cckhx27q.s 			page 4


 145:..\..\..\liblc3\src/lc3.c ****     bool hrmode, int dt_us, int sr_hz, int nbytes)
 146:..\..\..\liblc3\src/lc3.c **** {
 147:..\..\..\liblc3\src/lc3.c ****     enum lc3_dt dt = resolve_dt(dt_us, hrmode);
 148:..\..\..\liblc3\src/lc3.c ****     enum lc3_srate sr = resolve_srate(sr_hz, hrmode);
 149:..\..\..\liblc3\src/lc3.c **** 
 150:..\..\..\liblc3\src/lc3.c ****     if (dt >= LC3_NUM_DT || sr >= LC3_NUM_SRATE || nbytes < 0)
 151:..\..\..\liblc3\src/lc3.c ****         return -1;
 152:..\..\..\liblc3\src/lc3.c **** 
 153:..\..\..\liblc3\src/lc3.c ****     return LC3_MIN(((int64_t)nbytes * 3200 + dt) / (1 + dt), INT_MAX);
 154:..\..\..\liblc3\src/lc3.c **** }
 155:..\..\..\liblc3\src/lc3.c **** 
 156:..\..\..\liblc3\src/lc3.c **** LC3_EXPORT int lc3_resolve_bitrate(int dt_us, int nbytes)
 157:..\..\..\liblc3\src/lc3.c **** {
 158:..\..\..\liblc3\src/lc3.c ****     return lc3_hr_resolve_bitrate(false, dt_us, 8000, nbytes);
 159:..\..\..\liblc3\src/lc3.c **** }
 160:..\..\..\liblc3\src/lc3.c **** 
 161:..\..\..\liblc3\src/lc3.c **** /**
 162:..\..\..\liblc3\src/lc3.c ****  * Return algorithmic delay, as a number of samples
 163:..\..\..\liblc3\src/lc3.c ****  */
 164:..\..\..\liblc3\src/lc3.c **** LC3_EXPORT int lc3_hr_delay_samples(bool hrmode, int dt_us, int sr_hz)
 165:..\..\..\liblc3\src/lc3.c **** {
 166:..\..\..\liblc3\src/lc3.c ****     enum lc3_dt dt = resolve_dt(dt_us, hrmode);
 167:..\..\..\liblc3\src/lc3.c ****     enum lc3_srate sr = resolve_srate(sr_hz, hrmode);
 168:..\..\..\liblc3\src/lc3.c **** 
 169:..\..\..\liblc3\src/lc3.c ****     if (dt >= LC3_NUM_DT || sr >= LC3_NUM_SRATE)
 170:..\..\..\liblc3\src/lc3.c ****         return -1;
 171:..\..\..\liblc3\src/lc3.c **** 
 172:..\..\..\liblc3\src/lc3.c ****     return 2 * lc3_nd(dt, sr) - lc3_ns(dt, sr);
 173:..\..\..\liblc3\src/lc3.c **** }
 174:..\..\..\liblc3\src/lc3.c **** 
 175:..\..\..\liblc3\src/lc3.c **** LC3_EXPORT int lc3_delay_samples(int dt_us, int sr_hz)
 176:..\..\..\liblc3\src/lc3.c **** {
 177:..\..\..\liblc3\src/lc3.c ****     return lc3_hr_delay_samples(false, dt_us, sr_hz);
 178:..\..\..\liblc3\src/lc3.c **** }
 179:..\..\..\liblc3\src/lc3.c **** 
 180:..\..\..\liblc3\src/lc3.c **** 
 181:..\..\..\liblc3\src/lc3.c **** /* ----------------------------------------------------------------------------
 182:..\..\..\liblc3\src/lc3.c ****  *  Encoder
 183:..\..\..\liblc3\src/lc3.c ****  * -------------------------------------------------------------------------- */
 184:..\..\..\liblc3\src/lc3.c **** 
 185:..\..\..\liblc3\src/lc3.c **** /**
 186:..\..\..\liblc3\src/lc3.c ****  * Input PCM Samples from signed 16 bits
 187:..\..\..\liblc3\src/lc3.c ****  * encoder         Encoder state
 188:..\..\..\liblc3\src/lc3.c ****  * pcm, stride     Input PCM samples, and count between two consecutives
 189:..\..\..\liblc3\src/lc3.c ****  */
 190:..\..\..\liblc3\src/lc3.c **** static void load_s16(
 191:..\..\..\liblc3\src/lc3.c ****     struct lc3_encoder *encoder, const void *_pcm, int stride)
 192:..\..\..\liblc3\src/lc3.c **** {
  28              		.loc 1 192 0
  29              		.cfi_startproc
  30              		@ args = 0, pretend = 0, frame = 0
  31              		@ frame_needed = 0, uses_anonymous_args = 0
  32              	.LVL0:
  33 0000 F0B5     		push	{r4, r5, r6, r7, lr}
  34              		.cfi_def_cfa_offset 20
  35              		.cfi_offset 4, -20
  36              		.cfi_offset 5, -16
ARM GAS  C:\Users\rdn\AppData\Local\Temp\cckhx27q.s 			page 5


  37              		.cfi_offset 6, -12
  38              		.cfi_offset 7, -8
  39              		.cfi_offset 14, -4
  40              	.LBB95:
  41              	.LBB96:
  42              		.file 2 "..\\..\\..\\liblc3\\src\\tables.h"
   1:..\..\..\liblc3\src/tables.h **** /******************************************************************************
   2:..\..\..\liblc3\src/tables.h ****  *
   3:..\..\..\liblc3\src/tables.h ****  *  Copyright 2022 Google LLC
   4:..\..\..\liblc3\src/tables.h ****  *
   5:..\..\..\liblc3\src/tables.h ****  *  Licensed under the Apache License, Version 2.0 (the "License");
   6:..\..\..\liblc3\src/tables.h ****  *  you may not use this file except in compliance with the License.
   7:..\..\..\liblc3\src/tables.h ****  *  You may obtain a copy of the License at:
   8:..\..\..\liblc3\src/tables.h ****  *
   9:..\..\..\liblc3\src/tables.h ****  *  http://www.apache.org/licenses/LICENSE-2.0
  10:..\..\..\liblc3\src/tables.h ****  *
  11:..\..\..\liblc3\src/tables.h ****  *  Unless required by applicable law or agreed to in writing, software
  12:..\..\..\liblc3\src/tables.h ****  *  distributed under the License is distributed on an "AS IS" BASIS,
  13:..\..\..\liblc3\src/tables.h ****  *  WITHOUT WARRANTIES OR CONDITIONS OF ANY KIND, either express or implied.
  14:..\..\..\liblc3\src/tables.h ****  *  See the License for the specific language governing permissions and
  15:..\..\..\liblc3\src/tables.h ****  *  limitations under the License.
  16:..\..\..\liblc3\src/tables.h ****  *
  17:..\..\..\liblc3\src/tables.h ****  ******************************************************************************/
  18:..\..\..\liblc3\src/tables.h **** 
  19:..\..\..\liblc3\src/tables.h **** #ifndef __LC3_TABLES_H
  20:..\..\..\liblc3\src/tables.h **** #define __LC3_TABLES_H
  21:..\..\..\liblc3\src/tables.h **** 
  22:..\..\..\liblc3\src/tables.h **** #include "common.h"
  23:..\..\..\liblc3\src/tables.h **** #include "bits.h"
  24:..\..\..\liblc3\src/tables.h **** 
  25:..\..\..\liblc3\src/tables.h **** 
  26:..\..\..\liblc3\src/tables.h **** /**
  27:..\..\..\liblc3\src/tables.h ****  * Characteristics
  28:..\..\..\liblc3\src/tables.h ****  *
  29:..\..\..\liblc3\src/tables.h ****  *   ns   Number of temporal samples / frequency coefficients within a frame
  30:..\..\..\liblc3\src/tables.h ****  *
  31:..\..\..\liblc3\src/tables.h ****  *   ne   Number of encoded frequency coefficients
  32:..\..\..\liblc3\src/tables.h ****  *
  33:..\..\..\liblc3\src/tables.h ****  *   nd   Number of MDCT delayed samples, sum of half a frame and an ovelap
  34:..\..\..\liblc3\src/tables.h ****  *        of future by 1.25 ms (2.5ms, 5ms and 10ms frame durations),
  35:..\..\..\liblc3\src/tables.h ****  *        or 2 ms (7.5ms frame duration).
  36:..\..\..\liblc3\src/tables.h ****  *
  37:..\..\..\liblc3\src/tables.h ****  *   nh   Number of 18 ms samples of the history buffer, aligned on a frame
  38:..\..\..\liblc3\src/tables.h ****  *
  39:..\..\..\liblc3\src/tables.h ****  *   nt   Number of 1.25 ms previous samples
  40:..\..\..\liblc3\src/tables.h ****  */
  41:..\..\..\liblc3\src/tables.h **** 
  42:..\..\..\liblc3\src/tables.h **** extern const int lc3_ns_2m5[LC3_NUM_SRATE];
  43:..\..\..\liblc3\src/tables.h **** extern const int lc3_ne_2m5[LC3_NUM_SRATE];
  44:..\..\..\liblc3\src/tables.h **** extern const int lc3_ns_4m [LC3_NUM_SRATE];
  45:..\..\..\liblc3\src/tables.h **** 
  46:..\..\..\liblc3\src/tables.h **** static inline int lc3_ns(enum lc3_dt dt, enum lc3_srate sr) {
  47:..\..\..\liblc3\src/tables.h ****     return lc3_ns_2m5[sr] * (1 + dt);
  43              		.loc 2 47 0
  44 0002 124B     		ldr	r3, .L6
  45 0004 8778     		ldrb	r7, [r0, #2]	@ zero_extendqisi2
  46 0006 0478     		ldrb	r4, [r0]	@ zero_extendqisi2
ARM GAS  C:\Users\rdn\AppData\Local\Temp\cckhx27q.s 			page 6


  47 0008 53F82730 		ldr	r3, [r3, r7, lsl #2]
  48              	.LBE96:
  49              	.LBE95:
 193:..\..\..\liblc3\src/lc3.c ****     const int16_t *pcm = _pcm;
 194:..\..\..\liblc3\src/lc3.c **** 
 195:..\..\..\liblc3\src/lc3.c ****     enum lc3_dt dt = encoder->dt;
 196:..\..\..\liblc3\src/lc3.c ****     enum lc3_srate sr = encoder->sr_pcm;
 197:..\..\..\liblc3\src/lc3.c **** 
 198:..\..\..\liblc3\src/lc3.c ****     int16_t *xt = (int16_t *)encoder->x + encoder->xt_off;
  50              		.loc 1 198 0
  51 000c D0F8A064 		ldr	r6, [r0, #1184]
  52              	.LBB98:
  53              	.LBB97:
  54              		.loc 2 47 0
  55 0010 04FB0333 		mla	r3, r4, r3, r3
  56 0014 D0F8A444 		ldr	r4, [r0, #1188]
  57              	.LBE97:
  58              	.LBE98:
  59              		.loc 1 198 0
  60 0018 00F2AC45 		addw	r5, r0, #1196
  61              	.LVL1:
  62 001c 05EB8404 		add	r4, r5, r4, lsl #2
  63              	.LVL2:
  64              	.LBB99:
 199:..\..\..\liblc3\src/lc3.c ****     float *xs = encoder->x + encoder->xs_off;
 200:..\..\..\liblc3\src/lc3.c ****     int ns = lc3_ns(dt, sr);
 201:..\..\..\liblc3\src/lc3.c **** 
 202:..\..\..\liblc3\src/lc3.c ****     for (int i = 0; i < ns; i++, pcm += stride)
  65              		.loc 1 202 0
  66 0020 5200     		lsls	r2, r2, #1
  67              	.LVL3:
  68 0022 0020     		movs	r0, #0
  69              	.LVL4:
 203:..\..\..\liblc3\src/lc3.c ****         xt[i] = *pcm, xs[i] = *pcm;
  70              		.loc 1 203 0
  71 0024 05EB4605 		add	r5, r5, r6, lsl #1
  72              	.LVL5:
  73              	.L2:
 202:..\..\..\liblc3\src/lc3.c ****         xt[i] = *pcm, xs[i] = *pcm;
  74              		.loc 1 202 0 discriminator 1
  75 0028 9842     		cmp	r0, r3
  76 002a 0EDA     		bge	.L5
  77              		.loc 1 203 0 discriminator 3
  78 002c B1F90060 		ldrsh	r6, [r1]
  79 0030 25F81060 		strh	r6, [r5, r0, lsl #1]	@ movhi
  80 0034 B1F90060 		ldrsh	r6, [r1]
  81 0038 07EE906A 		vmov	s15, r6	@ int
  82 003c F8EEE77A 		vcvt.f32.s32	s15, s15
 202:..\..\..\liblc3\src/lc3.c ****         xt[i] = *pcm, xs[i] = *pcm;
  83              		.loc 1 202 0 discriminator 3
  84 0040 0130     		adds	r0, r0, #1
  85              	.LVL6:
  86              		.loc 1 203 0 discriminator 3
  87 0042 E4EC017A 		vstmia.32	r4!, {s15}
 202:..\..\..\liblc3\src/lc3.c ****         xt[i] = *pcm, xs[i] = *pcm;
  88              		.loc 1 202 0 discriminator 3
  89 0046 1144     		add	r1, r1, r2
ARM GAS  C:\Users\rdn\AppData\Local\Temp\cckhx27q.s 			page 7


  90              	.LVL7:
  91 0048 EEE7     		b	.L2
  92              	.L5:
  93              	.LBE99:
 204:..\..\..\liblc3\src/lc3.c **** }
  94              		.loc 1 204 0
  95 004a F0BD     		pop	{r4, r5, r6, r7, pc}
  96              	.L7:
  97              		.align	2
  98              	.L6:
  99 004c 00000000 		.word	lc3_ns_2m5
 100              		.cfi_endproc
 101              	.LFE32:
 102              		.size	load_s16, .-load_s16
 103              		.section	.text.load_s24,"ax",%progbits
 104              		.align	1
 105              		.thumb
 106              		.thumb_func
 107              		.type	load_s24, %function
 108              	load_s24:
 109              	.LFB33:
 205:..\..\..\liblc3\src/lc3.c **** 
 206:..\..\..\liblc3\src/lc3.c **** /**
 207:..\..\..\liblc3\src/lc3.c ****  * Input PCM Samples from signed 24 bits
 208:..\..\..\liblc3\src/lc3.c ****  * encoder         Encoder state
 209:..\..\..\liblc3\src/lc3.c ****  * pcm, stride     Input PCM samples, and count between two consecutives
 210:..\..\..\liblc3\src/lc3.c ****  */
 211:..\..\..\liblc3\src/lc3.c **** static void load_s24(
 212:..\..\..\liblc3\src/lc3.c ****     struct lc3_encoder *encoder, const void *_pcm, int stride)
 213:..\..\..\liblc3\src/lc3.c **** {
 110              		.loc 1 213 0
 111              		.cfi_startproc
 112              		@ args = 0, pretend = 0, frame = 0
 113              		@ frame_needed = 0, uses_anonymous_args = 0
 114              	.LVL8:
 115 0000 F0B5     		push	{r4, r5, r6, r7, lr}
 116              		.cfi_def_cfa_offset 20
 117              		.cfi_offset 4, -20
 118              		.cfi_offset 5, -16
 119              		.cfi_offset 6, -12
 120              		.cfi_offset 7, -8
 121              		.cfi_offset 14, -4
 122              	.LBB100:
 123              	.LBB101:
 124              		.loc 2 47 0
 125 0002 8678     		ldrb	r6, [r0, #2]	@ zero_extendqisi2
 126 0004 144C     		ldr	r4, .L16
 127 0006 0778     		ldrb	r7, [r0]	@ zero_extendqisi2
 128 0008 54F82640 		ldr	r4, [r4, r6, lsl #2]
 129              	.LBE101:
 130              	.LBE100:
 214:..\..\..\liblc3\src/lc3.c ****     const int32_t *pcm = _pcm;
 215:..\..\..\liblc3\src/lc3.c **** 
 216:..\..\..\liblc3\src/lc3.c ****     enum lc3_dt dt = encoder->dt;
 217:..\..\..\liblc3\src/lc3.c ****     enum lc3_srate sr = encoder->sr_pcm;
 218:..\..\..\liblc3\src/lc3.c **** 
 219:..\..\..\liblc3\src/lc3.c ****     int16_t *xt = (int16_t *)encoder->x + encoder->xt_off;
ARM GAS  C:\Users\rdn\AppData\Local\Temp\cckhx27q.s 			page 8


 131              		.loc 1 219 0
 132 000c D0F8A054 		ldr	r5, [r0, #1184]
 133              	.LBB103:
 134              	.LBB102:
 135              		.loc 2 47 0
 136 0010 07FB0447 		mla	r7, r7, r4, r4
 137 0014 D0F8A444 		ldr	r4, [r0, #1188]
 138              	.LBE102:
 139              	.LBE103:
 140              		.loc 1 219 0
 141 0018 00F2AC43 		addw	r3, r0, #1196
 142              	.LVL9:
 143              	.LBB104:
 220:..\..\..\liblc3\src/lc3.c ****     float *xs = encoder->x + encoder->xs_off;
 221:..\..\..\liblc3\src/lc3.c ****     int ns = lc3_ns(dt, sr);
 222:..\..\..\liblc3\src/lc3.c **** 
 223:..\..\..\liblc3\src/lc3.c ****     for (int i = 0; i < ns; i++, pcm += stride) {
 144              		.loc 1 223 0
 145 001c 9200     		lsls	r2, r2, #2
 146              	.LVL10:
 147 001e 03EB8404 		add	r4, r3, r4, lsl #2
 148              	.LVL11:
 149 0022 0020     		movs	r0, #0
 150              	.LVL12:
 224:..\..\..\liblc3\src/lc3.c ****         xt[i] = *pcm >> 8;
 151              		.loc 1 224 0
 152 0024 03EB4505 		add	r5, r3, r5, lsl #1
 153              	.LVL13:
 154              	.L9:
 223:..\..\..\liblc3\src/lc3.c ****         xt[i] = *pcm >> 8;
 155              		.loc 1 223 0 discriminator 1
 156 0028 B842     		cmp	r0, r7
 157 002a 13DA     		bge	.L15
 158              		.loc 1 224 0 discriminator 3
 159 002c 0B68     		ldr	r3, [r1]
 225:..\..\..\liblc3\src/lc3.c ****         xs[i] = lc3_ldexpf(*pcm, -8);
 160              		.loc 1 225 0 discriminator 3
 161 002e 07EE903A 		vmov	s15, r3	@ int
 162 0032 F8EEE77A 		vcvt.f32.s32	s15, s15
 224:..\..\..\liblc3\src/lc3.c ****         xt[i] = *pcm >> 8;
 163              		.loc 1 224 0 discriminator 3
 164 0036 1E12     		asrs	r6, r3, #8
 165              		.loc 1 225 0 discriminator 3
 166 0038 17EE903A 		vmov	r3, s15
 167              	.LVL14:
 168              	.LBB105:
 169              	.LBB106:
 170              		.file 3 "..\\..\\..\\liblc3\\src\\fastmath.h"
   1:..\..\..\liblc3\src/fastmath.h **** /******************************************************************************
   2:..\..\..\liblc3\src/fastmath.h ****  *
   3:..\..\..\liblc3\src/fastmath.h ****  *  Copyright 2022 Google LLC
   4:..\..\..\liblc3\src/fastmath.h ****  *
   5:..\..\..\liblc3\src/fastmath.h ****  *  Licensed under the Apache License, Version 2.0 (the "License");
   6:..\..\..\liblc3\src/fastmath.h ****  *  you may not use this file except in compliance with the License.
   7:..\..\..\liblc3\src/fastmath.h ****  *  You may obtain a copy of the License at:
   8:..\..\..\liblc3\src/fastmath.h ****  *
   9:..\..\..\liblc3\src/fastmath.h ****  *  http://www.apache.org/licenses/LICENSE-2.0
ARM GAS  C:\Users\rdn\AppData\Local\Temp\cckhx27q.s 			page 9


  10:..\..\..\liblc3\src/fastmath.h ****  *
  11:..\..\..\liblc3\src/fastmath.h ****  *  Unless required by applicable law or agreed to in writing, software
  12:..\..\..\liblc3\src/fastmath.h ****  *  distributed under the License is distributed on an "AS IS" BASIS,
  13:..\..\..\liblc3\src/fastmath.h ****  *  WITHOUT WARRANTIES OR CONDITIONS OF ANY KIND, either express or implied.
  14:..\..\..\liblc3\src/fastmath.h ****  *  See the License for the specific language governing permissions and
  15:..\..\..\liblc3\src/fastmath.h ****  *  limitations under the License.
  16:..\..\..\liblc3\src/fastmath.h ****  *
  17:..\..\..\liblc3\src/fastmath.h ****  ******************************************************************************/
  18:..\..\..\liblc3\src/fastmath.h **** 
  19:..\..\..\liblc3\src/fastmath.h **** #ifndef __LC3_FASTMATH_H
  20:..\..\..\liblc3\src/fastmath.h **** #define __LC3_FASTMATH_H
  21:..\..\..\liblc3\src/fastmath.h **** 
  22:..\..\..\liblc3\src/fastmath.h **** #include <stdint.h>
  23:..\..\..\liblc3\src/fastmath.h **** #include <math.h>
  24:..\..\..\liblc3\src/fastmath.h **** 
  25:..\..\..\liblc3\src/fastmath.h **** 
  26:..\..\..\liblc3\src/fastmath.h **** /**
  27:..\..\..\liblc3\src/fastmath.h ****  * IEEE 754 Floating point representation
  28:..\..\..\liblc3\src/fastmath.h ****  */
  29:..\..\..\liblc3\src/fastmath.h **** 
  30:..\..\..\liblc3\src/fastmath.h **** #define LC3_IEEE754_SIGN_SHL   (31)
  31:..\..\..\liblc3\src/fastmath.h **** #define LC3_IEEE754_SIGN_MASK  (1 << LC3_IEEE754_SIGN_SHL)
  32:..\..\..\liblc3\src/fastmath.h **** 
  33:..\..\..\liblc3\src/fastmath.h **** #define LC3_IEEE754_EXP_SHL    (23)
  34:..\..\..\liblc3\src/fastmath.h **** #define LC3_IEEE754_EXP_MASK   (0xff << LC3_IEEE754_EXP_SHL)
  35:..\..\..\liblc3\src/fastmath.h **** #define LC3_IEEE754_EXP_BIAS   (127)
  36:..\..\..\liblc3\src/fastmath.h **** 
  37:..\..\..\liblc3\src/fastmath.h **** 
  38:..\..\..\liblc3\src/fastmath.h **** /**
  39:..\..\..\liblc3\src/fastmath.h ****  * Fast multiply floating-point number by integral power of 2
  40:..\..\..\liblc3\src/fastmath.h ****  * x               Operand, finite number
  41:..\..\..\liblc3\src/fastmath.h ****  * exp             Exponent such that 2^x is finite
  42:..\..\..\liblc3\src/fastmath.h ****  * return          2^exp
  43:..\..\..\liblc3\src/fastmath.h ****  */
  44:..\..\..\liblc3\src/fastmath.h **** static inline float lc3_ldexpf(float _x, int exp) {
  45:..\..\..\liblc3\src/fastmath.h ****     union { float f; int32_t s; } x = { .f = _x };
  46:..\..\..\liblc3\src/fastmath.h **** 
  47:..\..\..\liblc3\src/fastmath.h ****     if (x.s & LC3_IEEE754_EXP_MASK)
 171              		.loc 3 47 0 discriminator 3
 172 003c 13F0FF4F 		tst	r3, #2139095040
  48:..\..\..\liblc3\src/fastmath.h ****         x.s += exp << LC3_IEEE754_EXP_SHL;
 173              		.loc 3 48 0 discriminator 3
 174 0040 18BF     		it	ne
 175 0042 03F17C43 		addne	r3, r3, #-67108864
 176              	.LVL15:
 177              	.LBE106:
 178              	.LBE105:
 224:..\..\..\liblc3\src/lc3.c ****         xs[i] = lc3_ldexpf(*pcm, -8);
 179              		.loc 1 224 0 discriminator 3
 180 0046 25F81060 		strh	r6, [r5, r0, lsl #1]	@ movhi
 223:..\..\..\liblc3\src/lc3.c ****         xt[i] = *pcm >> 8;
 181              		.loc 1 223 0 discriminator 3
 182 004a 1144     		add	r1, r1, r2
 183              	.LVL16:
 184              		.loc 1 225 0 discriminator 3
 185 004c 44F8043B 		str	r3, [r4], #4	@ float
 223:..\..\..\liblc3\src/lc3.c ****         xt[i] = *pcm >> 8;
ARM GAS  C:\Users\rdn\AppData\Local\Temp\cckhx27q.s 			page 10


 186              		.loc 1 223 0 discriminator 3
 187 0050 0130     		adds	r0, r0, #1
 188              	.LVL17:
 189 0052 E9E7     		b	.L9
 190              	.L15:
 191              	.LBE104:
 226:..\..\..\liblc3\src/lc3.c ****     }
 227:..\..\..\liblc3\src/lc3.c **** }
 192              		.loc 1 227 0
 193 0054 F0BD     		pop	{r4, r5, r6, r7, pc}
 194              	.L17:
 195 0056 00BF     		.align	2
 196              	.L16:
 197 0058 00000000 		.word	lc3_ns_2m5
 198              		.cfi_endproc
 199              	.LFE33:
 200              		.size	load_s24, .-load_s24
 201              		.section	.text.load_s24_3le,"ax",%progbits
 202              		.align	1
 203              		.thumb
 204              		.thumb_func
 205              		.type	load_s24_3le, %function
 206              	load_s24_3le:
 207              	.LFB34:
 228:..\..\..\liblc3\src/lc3.c **** 
 229:..\..\..\liblc3\src/lc3.c **** /**
 230:..\..\..\liblc3\src/lc3.c ****  * Input PCM Samples from signed 24 bits packed
 231:..\..\..\liblc3\src/lc3.c ****  * encoder         Encoder state
 232:..\..\..\liblc3\src/lc3.c ****  * pcm, stride     Input PCM samples, and count between two consecutives
 233:..\..\..\liblc3\src/lc3.c ****  */
 234:..\..\..\liblc3\src/lc3.c **** static void load_s24_3le(
 235:..\..\..\liblc3\src/lc3.c ****     struct lc3_encoder *encoder, const void *_pcm, int stride)
 236:..\..\..\liblc3\src/lc3.c **** {
 208              		.loc 1 236 0
 209              		.cfi_startproc
 210              		@ args = 0, pretend = 0, frame = 0
 211              		@ frame_needed = 0, uses_anonymous_args = 0
 212              	.LVL18:
 213 0000 F0B5     		push	{r4, r5, r6, r7, lr}
 214              		.cfi_def_cfa_offset 20
 215              		.cfi_offset 4, -20
 216              		.cfi_offset 5, -16
 217              		.cfi_offset 6, -12
 218              		.cfi_offset 7, -8
 219              		.cfi_offset 14, -4
 220              	.LBB107:
 221              	.LBB108:
 222              		.loc 2 47 0
 223 0002 8578     		ldrb	r5, [r0, #2]	@ zero_extendqisi2
 224 0004 184C     		ldr	r4, .L26
 225 0006 0778     		ldrb	r7, [r0]	@ zero_extendqisi2
 226 0008 54F82540 		ldr	r4, [r4, r5, lsl #2]
 227              	.LBE108:
 228              	.LBE107:
 237:..\..\..\liblc3\src/lc3.c ****     const uint8_t *pcm = _pcm;
 238:..\..\..\liblc3\src/lc3.c **** 
 239:..\..\..\liblc3\src/lc3.c ****     enum lc3_dt dt = encoder->dt;
ARM GAS  C:\Users\rdn\AppData\Local\Temp\cckhx27q.s 			page 11


 240:..\..\..\liblc3\src/lc3.c ****     enum lc3_srate sr = encoder->sr_pcm;
 241:..\..\..\liblc3\src/lc3.c **** 
 242:..\..\..\liblc3\src/lc3.c ****     int16_t *xt = (int16_t *)encoder->x + encoder->xt_off;
 229              		.loc 1 242 0
 230 000c D0F8A064 		ldr	r6, [r0, #1184]
 231              	.LBB110:
 232              	.LBB109:
 233              		.loc 2 47 0
 234 0010 07FB0447 		mla	r7, r7, r4, r4
 235 0014 D0F8A444 		ldr	r4, [r0, #1188]
 236              	.LBE109:
 237              	.LBE110:
 238              		.loc 1 242 0
 239 0018 00F2AC43 		addw	r3, r0, #1196
 240              	.LVL19:
 241              	.LBB111:
 243:..\..\..\liblc3\src/lc3.c ****     float *xs = encoder->x + encoder->xs_off;
 244:..\..\..\liblc3\src/lc3.c ****     int ns = lc3_ns(dt, sr);
 245:..\..\..\liblc3\src/lc3.c **** 
 246:..\..\..\liblc3\src/lc3.c ****     for (int i = 0; i < ns; i++, pcm += 3*stride) {
 242              		.loc 1 246 0
 243 001c 02EB4202 		add	r2, r2, r2, lsl #1
 244              	.LVL20:
 245 0020 03EB8404 		add	r4, r3, r4, lsl #2
 246              	.LVL21:
 247 0024 0020     		movs	r0, #0
 248              	.LVL22:
 249              	.LBB112:
 247:..\..\..\liblc3\src/lc3.c ****         int32_t in = ((uint32_t)pcm[0] <<  8) |
 248:..\..\..\liblc3\src/lc3.c ****                      ((uint32_t)pcm[1] << 16) |
 249:..\..\..\liblc3\src/lc3.c ****                      ((uint32_t)pcm[2] << 24)  ;
 250:..\..\..\liblc3\src/lc3.c **** 
 251:..\..\..\liblc3\src/lc3.c ****         xt[i] = in >> 16;
 250              		.loc 1 251 0
 251 0026 03EB4606 		add	r6, r3, r6, lsl #1
 252              	.LVL23:
 253              	.L19:
 254              	.LBE112:
 246:..\..\..\liblc3\src/lc3.c ****         int32_t in = ((uint32_t)pcm[0] <<  8) |
 255              		.loc 1 246 0 discriminator 1
 256 002a B842     		cmp	r0, r7
 257 002c 1ADA     		bge	.L25
 258              	.LBB115:
 247:..\..\..\liblc3\src/lc3.c ****         int32_t in = ((uint32_t)pcm[0] <<  8) |
 259              		.loc 1 247 0 discriminator 3
 260 002e 4B78     		ldrb	r3, [r1, #1]	@ zero_extendqisi2
 261 0030 0D78     		ldrb	r5, [r1]	@ zero_extendqisi2
 262 0032 1B04     		lsls	r3, r3, #16
 263 0034 43EA0523 		orr	r3, r3, r5, lsl #8
 264 0038 8D78     		ldrb	r5, [r1, #2]	@ zero_extendqisi2
 265 003a 43EA0563 		orr	r3, r3, r5, lsl #24
 266              	.LVL24:
 252:..\..\..\liblc3\src/lc3.c ****         xs[i] = lc3_ldexpf(in, -16);
 267              		.loc 1 252 0 discriminator 3
 268 003e 07EE903A 		vmov	s15, r3	@ int
 269 0042 F8EEE77A 		vcvt.f32.s32	s15, s15
 251:..\..\..\liblc3\src/lc3.c ****         xs[i] = lc3_ldexpf(in, -16);
ARM GAS  C:\Users\rdn\AppData\Local\Temp\cckhx27q.s 			page 12


 270              		.loc 1 251 0 discriminator 3
 271 0046 1D14     		asrs	r5, r3, #16
 272              		.loc 1 252 0 discriminator 3
 273 0048 17EE903A 		vmov	r3, s15
 274              	.LVL25:
 275              	.LBB113:
 276              	.LBB114:
  47:..\..\..\liblc3\src/fastmath.h ****         x.s += exp << LC3_IEEE754_EXP_SHL;
 277              		.loc 3 47 0 discriminator 3
 278 004c 13F0FF4F 		tst	r3, #2139095040
 279              		.loc 3 48 0 discriminator 3
 280 0050 18BF     		it	ne
 281 0052 03F17843 		addne	r3, r3, #-134217728
 282              	.LVL26:
 283              	.LBE114:
 284              	.LBE113:
 251:..\..\..\liblc3\src/lc3.c ****         xs[i] = lc3_ldexpf(in, -16);
 285              		.loc 1 251 0 discriminator 3
 286 0056 26F81050 		strh	r5, [r6, r0, lsl #1]	@ movhi
 287              	.LVL27:
 288              	.LBE115:
 246:..\..\..\liblc3\src/lc3.c ****         int32_t in = ((uint32_t)pcm[0] <<  8) |
 289              		.loc 1 246 0 discriminator 3
 290 005a 1144     		add	r1, r1, r2
 291              	.LVL28:
 292              	.LBB116:
 293              		.loc 1 252 0 discriminator 3
 294 005c 44F8043B 		str	r3, [r4], #4	@ float
 295              	.LBE116:
 246:..\..\..\liblc3\src/lc3.c ****         int32_t in = ((uint32_t)pcm[0] <<  8) |
 296              		.loc 1 246 0 discriminator 3
 297 0060 0130     		adds	r0, r0, #1
 298              	.LVL29:
 299 0062 E2E7     		b	.L19
 300              	.L25:
 301              	.LBE111:
 253:..\..\..\liblc3\src/lc3.c ****     }
 254:..\..\..\liblc3\src/lc3.c **** }
 302              		.loc 1 254 0
 303 0064 F0BD     		pop	{r4, r5, r6, r7, pc}
 304              	.L27:
 305 0066 00BF     		.align	2
 306              	.L26:
 307 0068 00000000 		.word	lc3_ns_2m5
 308              		.cfi_endproc
 309              	.LFE34:
 310              		.size	load_s24_3le, .-load_s24_3le
 311              		.section	.text.load_float,"ax",%progbits
 312              		.align	1
 313              		.thumb
 314              		.thumb_func
 315              		.type	load_float, %function
 316              	load_float:
 317              	.LFB35:
 255:..\..\..\liblc3\src/lc3.c **** 
 256:..\..\..\liblc3\src/lc3.c **** /**
 257:..\..\..\liblc3\src/lc3.c ****  * Input PCM Samples from float 32 bits
ARM GAS  C:\Users\rdn\AppData\Local\Temp\cckhx27q.s 			page 13


 258:..\..\..\liblc3\src/lc3.c ****  * encoder         Encoder state
 259:..\..\..\liblc3\src/lc3.c ****  * pcm, stride     Input PCM samples, and count between two consecutives
 260:..\..\..\liblc3\src/lc3.c ****  */
 261:..\..\..\liblc3\src/lc3.c **** static void load_float(
 262:..\..\..\liblc3\src/lc3.c ****     struct lc3_encoder *encoder, const void *_pcm, int stride)
 263:..\..\..\liblc3\src/lc3.c **** {
 318              		.loc 1 263 0
 319              		.cfi_startproc
 320              		@ args = 0, pretend = 0, frame = 0
 321              		@ frame_needed = 0, uses_anonymous_args = 0
 322              	.LVL30:
 323 0000 F0B5     		push	{r4, r5, r6, r7, lr}
 324              		.cfi_def_cfa_offset 20
 325              		.cfi_offset 4, -20
 326              		.cfi_offset 5, -16
 327              		.cfi_offset 6, -12
 328              		.cfi_offset 7, -8
 329              		.cfi_offset 14, -4
 330              	.LBB117:
 331              	.LBB118:
 332              		.loc 2 47 0
 333 0002 8678     		ldrb	r6, [r0, #2]	@ zero_extendqisi2
 334 0004 1A4C     		ldr	r4, .L38
 335 0006 0778     		ldrb	r7, [r0]	@ zero_extendqisi2
 336 0008 54F82640 		ldr	r4, [r4, r6, lsl #2]
 337              	.LBE118:
 338              	.LBE117:
 264:..\..\..\liblc3\src/lc3.c ****     const float *pcm = _pcm;
 265:..\..\..\liblc3\src/lc3.c **** 
 266:..\..\..\liblc3\src/lc3.c ****     enum lc3_dt dt = encoder->dt;
 267:..\..\..\liblc3\src/lc3.c ****     enum lc3_srate sr = encoder->sr_pcm;
 268:..\..\..\liblc3\src/lc3.c **** 
 269:..\..\..\liblc3\src/lc3.c ****     int16_t *xt = (int16_t *)encoder->x + encoder->xt_off;
 339              		.loc 1 269 0
 340 000c D0F8A054 		ldr	r5, [r0, #1184]
 341              	.LBB120:
 270:..\..\..\liblc3\src/lc3.c ****     float *xs = encoder->x + encoder->xs_off;
 271:..\..\..\liblc3\src/lc3.c ****     int ns = lc3_ns(dt, sr);
 272:..\..\..\liblc3\src/lc3.c **** 
 273:..\..\..\liblc3\src/lc3.c ****     for (int i = 0; i < ns; i++, pcm += stride) {
 274:..\..\..\liblc3\src/lc3.c ****         xs[i] = lc3_ldexpf(*pcm, 15);
 275:..\..\..\liblc3\src/lc3.c ****         xt[i] = LC3_SAT16((int32_t)xs[i]);
 342              		.loc 1 275 0
 343 0010 DFF860C0 		ldr	ip, .L38+4
 344              	.LBE120:
 345              	.LBB123:
 346              	.LBB119:
 347              		.loc 2 47 0
 348 0014 07FB0447 		mla	r7, r7, r4, r4
 349 0018 D0F8A444 		ldr	r4, [r0, #1188]
 350              	.LBE119:
 351              	.LBE123:
 269:..\..\..\liblc3\src/lc3.c ****     float *xs = encoder->x + encoder->xs_off;
 352              		.loc 1 269 0
 353 001c 00F2AC43 		addw	r3, r0, #1196
 354              	.LVL31:
 355              	.LBB124:
ARM GAS  C:\Users\rdn\AppData\Local\Temp\cckhx27q.s 			page 14


 273:..\..\..\liblc3\src/lc3.c ****         xs[i] = lc3_ldexpf(*pcm, 15);
 356              		.loc 1 273 0
 357 0020 9200     		lsls	r2, r2, #2
 358              	.LVL32:
 359 0022 03EB8404 		add	r4, r3, r4, lsl #2
 360              	.LVL33:
 361 0026 0020     		movs	r0, #0
 362              	.LVL34:
 363              		.loc 1 275 0
 364 0028 47F6FE7E 		movw	lr, #32766
 365 002c 03EB4505 		add	r5, r3, r5, lsl #1
 366              	.LVL35:
 367              	.L29:
 273:..\..\..\liblc3\src/lc3.c ****         xs[i] = lc3_ldexpf(*pcm, 15);
 368              		.loc 1 273 0 discriminator 2
 369 0030 B842     		cmp	r0, r7
 370 0032 1BDA     		bge	.L37
 274:..\..\..\liblc3\src/lc3.c ****         xt[i] = LC3_SAT16((int32_t)xs[i]);
 371              		.loc 1 274 0
 372 0034 0B68     		ldr	r3, [r1]	@ float
 373              	.LVL36:
 374              	.LBB121:
 375              	.LBB122:
  47:..\..\..\liblc3\src/fastmath.h ****         x.s += exp << LC3_IEEE754_EXP_SHL;
 376              		.loc 3 47 0
 377 0036 13F0FF4F 		tst	r3, #2139095040
 378              		.loc 3 48 0
 379 003a 18BF     		it	ne
 380 003c 03F1F063 		addne	r3, r3, #125829120
 381              	.LVL37:
 382              	.LBE122:
 383              	.LBE121:
 384              		.loc 1 275 0
 385 0040 07EE903A 		vmov	s15, r3
 386 0044 FDEEE77A 		vcvt.s32.f32	s15, s15
 274:..\..\..\liblc3\src/lc3.c ****         xt[i] = LC3_SAT16((int32_t)xs[i]);
 387              		.loc 1 274 0
 388 0048 44F8043B 		str	r3, [r4], #4	@ float
 389              		.loc 1 275 0
 390 004c 17EE903A 		vmov	r3, s15	@ int
 391 0050 7345     		cmp	r3, lr
 392 0052 04DC     		bgt	.L33
 393              		.loc 1 275 0 is_stmt 0 discriminator 1
 394 0054 6345     		cmp	r3, ip
 395 0056 B8BF     		it	lt
 396 0058 6346     		movlt	r3, ip
 397 005a 1BB2     		sxth	r3, r3
 398 005c 01E0     		b	.L31
 399              	.L33:
 400              		.loc 1 275 0
 401 005e 47F6FF73 		movw	r3, #32767
 402              	.L31:
 403              		.loc 1 275 0 discriminator 4
 404 0062 25F81030 		strh	r3, [r5, r0, lsl #1]	@ movhi
 273:..\..\..\liblc3\src/lc3.c ****         xs[i] = lc3_ldexpf(*pcm, 15);
 405              		.loc 1 273 0 is_stmt 1 discriminator 4
 406 0066 1144     		add	r1, r1, r2
ARM GAS  C:\Users\rdn\AppData\Local\Temp\cckhx27q.s 			page 15


 407              	.LVL38:
 408 0068 0130     		adds	r0, r0, #1
 409              	.LVL39:
 410 006a E1E7     		b	.L29
 411              	.L37:
 412              	.LBE124:
 276:..\..\..\liblc3\src/lc3.c ****     }
 277:..\..\..\liblc3\src/lc3.c **** }
 413              		.loc 1 277 0
 414 006c F0BD     		pop	{r4, r5, r6, r7, pc}
 415              	.L39:
 416 006e 00BF     		.align	2
 417              	.L38:
 418 0070 00000000 		.word	lc3_ns_2m5
 419 0074 0080FFFF 		.word	-32768
 420              		.cfi_endproc
 421              	.LFE35:
 422              		.size	load_float, .-load_float
 423              		.section	.text.store_s16,"ax",%progbits
 424              		.align	1
 425              		.thumb
 426              		.thumb_func
 427              		.type	store_s16, %function
 428              	store_s16:
 429              	.LFB43:
 278:..\..\..\liblc3\src/lc3.c **** 
 279:..\..\..\liblc3\src/lc3.c **** /**
 280:..\..\..\liblc3\src/lc3.c ****  * Frame Analysis
 281:..\..\..\liblc3\src/lc3.c ****  * encoder         Encoder state
 282:..\..\..\liblc3\src/lc3.c ****  * nbytes          Size in bytes of the frame
 283:..\..\..\liblc3\src/lc3.c ****  * side            Return frame data
 284:..\..\..\liblc3\src/lc3.c ****  */
 285:..\..\..\liblc3\src/lc3.c **** static void analyze(struct lc3_encoder *encoder,
 286:..\..\..\liblc3\src/lc3.c ****     int nbytes, struct side_data *side)
 287:..\..\..\liblc3\src/lc3.c **** {
 288:..\..\..\liblc3\src/lc3.c ****     enum lc3_dt dt = encoder->dt;
 289:..\..\..\liblc3\src/lc3.c ****     enum lc3_srate sr = encoder->sr;
 290:..\..\..\liblc3\src/lc3.c ****     enum lc3_srate sr_pcm = encoder->sr_pcm;
 291:..\..\..\liblc3\src/lc3.c **** 
 292:..\..\..\liblc3\src/lc3.c ****     int16_t *xt = (int16_t *)encoder->x + encoder->xt_off;
 293:..\..\..\liblc3\src/lc3.c ****     float *xs = encoder->x + encoder->xs_off;
 294:..\..\..\liblc3\src/lc3.c ****     int ns = lc3_ns(dt, sr_pcm);
 295:..\..\..\liblc3\src/lc3.c ****     int nt = lc3_nt(sr_pcm);
 296:..\..\..\liblc3\src/lc3.c **** 
 297:..\..\..\liblc3\src/lc3.c ****     float *xd = encoder->x + encoder->xd_off;
 298:..\..\..\liblc3\src/lc3.c ****     float *xf = xs;
 299:..\..\..\liblc3\src/lc3.c **** 
 300:..\..\..\liblc3\src/lc3.c ****     /* --- Temporal --- */
 301:..\..\..\liblc3\src/lc3.c **** 
 302:..\..\..\liblc3\src/lc3.c ****     bool att = lc3_attdet_run(dt, sr_pcm, nbytes, &encoder->attdet, xt);
 303:..\..\..\liblc3\src/lc3.c **** 
 304:..\..\..\liblc3\src/lc3.c ****     side->pitch_present =
 305:..\..\..\liblc3\src/lc3.c ****         lc3_ltpf_analyse(dt, sr_pcm, &encoder->ltpf, xt, &side->ltpf);
 306:..\..\..\liblc3\src/lc3.c **** 
 307:..\..\..\liblc3\src/lc3.c ****     memmove(xt - nt, xt + (ns-nt), nt * sizeof(*xt));
 308:..\..\..\liblc3\src/lc3.c **** 
 309:..\..\..\liblc3\src/lc3.c ****     /* --- Spectral --- */
ARM GAS  C:\Users\rdn\AppData\Local\Temp\cckhx27q.s 			page 16


 310:..\..\..\liblc3\src/lc3.c **** 
 311:..\..\..\liblc3\src/lc3.c ****     float e[LC3_MAX_BANDS];
 312:..\..\..\liblc3\src/lc3.c **** 
 313:..\..\..\liblc3\src/lc3.c ****     lc3_mdct_forward(dt, sr_pcm, sr, xs, xd, xf);
 314:..\..\..\liblc3\src/lc3.c **** 
 315:..\..\..\liblc3\src/lc3.c ****     bool nn_flag = lc3_energy_compute(dt, sr, xf, e);
 316:..\..\..\liblc3\src/lc3.c ****     if (nn_flag)
 317:..\..\..\liblc3\src/lc3.c ****         lc3_ltpf_disable(&side->ltpf);
 318:..\..\..\liblc3\src/lc3.c **** 
 319:..\..\..\liblc3\src/lc3.c ****     side->bw = lc3_bwdet_run(dt, sr, e);
 320:..\..\..\liblc3\src/lc3.c **** 
 321:..\..\..\liblc3\src/lc3.c ****     lc3_sns_analyze(dt, sr, nbytes, e, att, &side->sns, xf, xf);
 322:..\..\..\liblc3\src/lc3.c **** 
 323:..\..\..\liblc3\src/lc3.c ****     lc3_tns_analyze(dt, side->bw, nn_flag, nbytes, &side->tns, xf);
 324:..\..\..\liblc3\src/lc3.c **** 
 325:..\..\..\liblc3\src/lc3.c ****     lc3_spec_analyze(dt, sr,
 326:..\..\..\liblc3\src/lc3.c ****         nbytes, side->pitch_present, &side->tns,
 327:..\..\..\liblc3\src/lc3.c ****         &encoder->spec, xf, &side->spec);
 328:..\..\..\liblc3\src/lc3.c **** }
 329:..\..\..\liblc3\src/lc3.c **** 
 330:..\..\..\liblc3\src/lc3.c **** /**
 331:..\..\..\liblc3\src/lc3.c ****  * Encode bitstream
 332:..\..\..\liblc3\src/lc3.c ****  * encoder         Encoder state
 333:..\..\..\liblc3\src/lc3.c ****  * side            The frame data
 334:..\..\..\liblc3\src/lc3.c ****  * nbytes          Target size of the frame (20 to 400)
 335:..\..\..\liblc3\src/lc3.c ****  * buffer          Output bitstream buffer of `nbytes` size
 336:..\..\..\liblc3\src/lc3.c ****  */
 337:..\..\..\liblc3\src/lc3.c **** static void encode(struct lc3_encoder *encoder,
 338:..\..\..\liblc3\src/lc3.c ****     const struct side_data *side, int nbytes, void *buffer)
 339:..\..\..\liblc3\src/lc3.c **** {
 340:..\..\..\liblc3\src/lc3.c ****     enum lc3_dt dt = encoder->dt;
 341:..\..\..\liblc3\src/lc3.c ****     enum lc3_srate sr = encoder->sr;
 342:..\..\..\liblc3\src/lc3.c **** 
 343:..\..\..\liblc3\src/lc3.c ****     float *xf = encoder->x + encoder->xs_off;
 344:..\..\..\liblc3\src/lc3.c ****     enum lc3_bandwidth bw = side->bw;
 345:..\..\..\liblc3\src/lc3.c **** 
 346:..\..\..\liblc3\src/lc3.c ****     lc3_bits_t bits;
 347:..\..\..\liblc3\src/lc3.c **** 
 348:..\..\..\liblc3\src/lc3.c ****     lc3_setup_bits(&bits, LC3_BITS_MODE_WRITE, buffer, nbytes);
 349:..\..\..\liblc3\src/lc3.c **** 
 350:..\..\..\liblc3\src/lc3.c ****     lc3_bwdet_put_bw(&bits, sr, bw);
 351:..\..\..\liblc3\src/lc3.c **** 
 352:..\..\..\liblc3\src/lc3.c ****     lc3_spec_put_side(&bits, dt, sr, &side->spec);
 353:..\..\..\liblc3\src/lc3.c **** 
 354:..\..\..\liblc3\src/lc3.c ****     lc3_tns_put_data(&bits, &side->tns);
 355:..\..\..\liblc3\src/lc3.c **** 
 356:..\..\..\liblc3\src/lc3.c ****     lc3_put_bit(&bits, side->pitch_present);
 357:..\..\..\liblc3\src/lc3.c **** 
 358:..\..\..\liblc3\src/lc3.c ****     lc3_sns_put_data(&bits, &side->sns);
 359:..\..\..\liblc3\src/lc3.c **** 
 360:..\..\..\liblc3\src/lc3.c ****     if (side->pitch_present)
 361:..\..\..\liblc3\src/lc3.c ****         lc3_ltpf_put_data(&bits, &side->ltpf);
 362:..\..\..\liblc3\src/lc3.c **** 
 363:..\..\..\liblc3\src/lc3.c ****     lc3_spec_encode(&bits, dt, sr, bw, nbytes, &side->spec, xf);
 364:..\..\..\liblc3\src/lc3.c **** 
 365:..\..\..\liblc3\src/lc3.c ****     lc3_flush_bits(&bits);
 366:..\..\..\liblc3\src/lc3.c **** }
ARM GAS  C:\Users\rdn\AppData\Local\Temp\cckhx27q.s 			page 17


 367:..\..\..\liblc3\src/lc3.c **** 
 368:..\..\..\liblc3\src/lc3.c **** /**
 369:..\..\..\liblc3\src/lc3.c ****  * Return size needed for an encoder
 370:..\..\..\liblc3\src/lc3.c ****  */
 371:..\..\..\liblc3\src/lc3.c **** LC3_EXPORT unsigned lc3_hr_encoder_size(bool hrmode, int dt_us, int sr_hz)
 372:..\..\..\liblc3\src/lc3.c **** {
 373:..\..\..\liblc3\src/lc3.c ****     if (resolve_dt(dt_us, hrmode) >= LC3_NUM_DT ||
 374:..\..\..\liblc3\src/lc3.c ****         resolve_srate(sr_hz, hrmode) >= LC3_NUM_SRATE)
 375:..\..\..\liblc3\src/lc3.c ****         return 0;
 376:..\..\..\liblc3\src/lc3.c **** 
 377:..\..\..\liblc3\src/lc3.c ****     return sizeof(struct lc3_encoder) +
 378:..\..\..\liblc3\src/lc3.c ****         (LC3_ENCODER_BUFFER_COUNT(dt_us, sr_hz)-1) * sizeof(float);
 379:..\..\..\liblc3\src/lc3.c **** }
 380:..\..\..\liblc3\src/lc3.c **** 
 381:..\..\..\liblc3\src/lc3.c **** LC3_EXPORT unsigned lc3_encoder_size(int dt_us, int sr_hz)
 382:..\..\..\liblc3\src/lc3.c **** {
 383:..\..\..\liblc3\src/lc3.c ****     return lc3_hr_encoder_size(false, dt_us, sr_hz);
 384:..\..\..\liblc3\src/lc3.c **** }
 385:..\..\..\liblc3\src/lc3.c **** 
 386:..\..\..\liblc3\src/lc3.c **** /**
 387:..\..\..\liblc3\src/lc3.c ****  * Setup encoder
 388:..\..\..\liblc3\src/lc3.c ****  */
 389:..\..\..\liblc3\src/lc3.c **** LC3_EXPORT struct lc3_encoder *lc3_hr_setup_encoder(
 390:..\..\..\liblc3\src/lc3.c ****     bool hrmode, int dt_us, int sr_hz, int sr_pcm_hz, void *mem)
 391:..\..\..\liblc3\src/lc3.c **** {
 392:..\..\..\liblc3\src/lc3.c ****     if (sr_pcm_hz <= 0)
 393:..\..\..\liblc3\src/lc3.c ****         sr_pcm_hz = sr_hz;
 394:..\..\..\liblc3\src/lc3.c **** 
 395:..\..\..\liblc3\src/lc3.c ****     enum lc3_dt dt = resolve_dt(dt_us, hrmode);
 396:..\..\..\liblc3\src/lc3.c ****     enum lc3_srate sr = resolve_srate(sr_hz, hrmode);
 397:..\..\..\liblc3\src/lc3.c ****     enum lc3_srate sr_pcm = resolve_srate(sr_pcm_hz, hrmode);
 398:..\..\..\liblc3\src/lc3.c **** 
 399:..\..\..\liblc3\src/lc3.c ****     if (dt >= LC3_NUM_DT || sr_pcm >= LC3_NUM_SRATE || sr > sr_pcm || !mem)
 400:..\..\..\liblc3\src/lc3.c ****         return NULL;
 401:..\..\..\liblc3\src/lc3.c **** 
 402:..\..\..\liblc3\src/lc3.c ****     struct lc3_encoder *encoder = mem;
 403:..\..\..\liblc3\src/lc3.c ****     int ns = lc3_ns(dt, sr_pcm);
 404:..\..\..\liblc3\src/lc3.c ****     int nt = lc3_nt(sr_pcm);
 405:..\..\..\liblc3\src/lc3.c **** 
 406:..\..\..\liblc3\src/lc3.c ****     *encoder = (struct lc3_encoder){
 407:..\..\..\liblc3\src/lc3.c ****         .dt = dt, .sr = sr,
 408:..\..\..\liblc3\src/lc3.c ****         .sr_pcm = sr_pcm,
 409:..\..\..\liblc3\src/lc3.c **** 
 410:..\..\..\liblc3\src/lc3.c ****         .xt_off = nt,
 411:..\..\..\liblc3\src/lc3.c ****         .xs_off = (nt + ns) / 2,
 412:..\..\..\liblc3\src/lc3.c ****         .xd_off = (nt + ns) / 2 + ns,
 413:..\..\..\liblc3\src/lc3.c ****     };
 414:..\..\..\liblc3\src/lc3.c **** 
 415:..\..\..\liblc3\src/lc3.c ****     memset(encoder->x, 0,
 416:..\..\..\liblc3\src/lc3.c ****         LC3_ENCODER_BUFFER_COUNT(dt_us, sr_pcm_hz) * sizeof(float));
 417:..\..\..\liblc3\src/lc3.c **** 
 418:..\..\..\liblc3\src/lc3.c ****     return encoder;
 419:..\..\..\liblc3\src/lc3.c **** }
 420:..\..\..\liblc3\src/lc3.c **** 
 421:..\..\..\liblc3\src/lc3.c **** LC3_EXPORT struct lc3_encoder *lc3_setup_encoder(
 422:..\..\..\liblc3\src/lc3.c ****     int dt_us, int sr_hz, int sr_pcm_hz, void *mem)
 423:..\..\..\liblc3\src/lc3.c **** {
ARM GAS  C:\Users\rdn\AppData\Local\Temp\cckhx27q.s 			page 18


 424:..\..\..\liblc3\src/lc3.c ****     return lc3_hr_setup_encoder(false, dt_us, sr_hz, sr_pcm_hz, mem);
 425:..\..\..\liblc3\src/lc3.c **** }
 426:..\..\..\liblc3\src/lc3.c **** 
 427:..\..\..\liblc3\src/lc3.c **** /**
 428:..\..\..\liblc3\src/lc3.c ****  * Encode a frame
 429:..\..\..\liblc3\src/lc3.c ****  */
 430:..\..\..\liblc3\src/lc3.c **** LC3_EXPORT int lc3_encode(struct lc3_encoder *encoder,
 431:..\..\..\liblc3\src/lc3.c ****     enum lc3_pcm_format fmt, const void *pcm, int stride, int nbytes, void *out)
 432:..\..\..\liblc3\src/lc3.c **** {
 433:..\..\..\liblc3\src/lc3.c ****     static void (* const load[])(struct lc3_encoder *, const void *, int) = {
 434:..\..\..\liblc3\src/lc3.c ****         [LC3_PCM_FORMAT_S16    ] = load_s16,
 435:..\..\..\liblc3\src/lc3.c ****         [LC3_PCM_FORMAT_S24    ] = load_s24,
 436:..\..\..\liblc3\src/lc3.c ****         [LC3_PCM_FORMAT_S24_3LE] = load_s24_3le,
 437:..\..\..\liblc3\src/lc3.c ****         [LC3_PCM_FORMAT_FLOAT  ] = load_float,
 438:..\..\..\liblc3\src/lc3.c ****     };
 439:..\..\..\liblc3\src/lc3.c **** 
 440:..\..\..\liblc3\src/lc3.c ****     /* --- Check parameters --- */
 441:..\..\..\liblc3\src/lc3.c **** 
 442:..\..\..\liblc3\src/lc3.c ****     if (!encoder || nbytes < lc3_min_frame_bytes(encoder->dt, encoder->sr)
 443:..\..\..\liblc3\src/lc3.c ****                  || nbytes > lc3_max_frame_bytes(encoder->dt, encoder->sr))
 444:..\..\..\liblc3\src/lc3.c ****         return -1;
 445:..\..\..\liblc3\src/lc3.c **** 
 446:..\..\..\liblc3\src/lc3.c ****     /* --- Processing --- */
 447:..\..\..\liblc3\src/lc3.c **** 
 448:..\..\..\liblc3\src/lc3.c ****     struct side_data side;
 449:..\..\..\liblc3\src/lc3.c **** 
 450:..\..\..\liblc3\src/lc3.c ****     load[fmt](encoder, pcm, stride);
 451:..\..\..\liblc3\src/lc3.c **** 
 452:..\..\..\liblc3\src/lc3.c ****     analyze(encoder, nbytes, &side);
 453:..\..\..\liblc3\src/lc3.c **** 
 454:..\..\..\liblc3\src/lc3.c ****     encode(encoder, &side, nbytes, out);
 455:..\..\..\liblc3\src/lc3.c **** 
 456:..\..\..\liblc3\src/lc3.c ****     return 0;
 457:..\..\..\liblc3\src/lc3.c **** }
 458:..\..\..\liblc3\src/lc3.c **** 
 459:..\..\..\liblc3\src/lc3.c **** 
 460:..\..\..\liblc3\src/lc3.c **** /* ----------------------------------------------------------------------------
 461:..\..\..\liblc3\src/lc3.c ****  *  Decoder
 462:..\..\..\liblc3\src/lc3.c ****  * -------------------------------------------------------------------------- */
 463:..\..\..\liblc3\src/lc3.c **** 
 464:..\..\..\liblc3\src/lc3.c **** /**
 465:..\..\..\liblc3\src/lc3.c ****  * Output PCM Samples to signed 16 bits
 466:..\..\..\liblc3\src/lc3.c ****  * decoder         Decoder state
 467:..\..\..\liblc3\src/lc3.c ****  * pcm, stride     Output PCM samples, and count between two consecutives
 468:..\..\..\liblc3\src/lc3.c ****  */
 469:..\..\..\liblc3\src/lc3.c **** static void store_s16(
 470:..\..\..\liblc3\src/lc3.c ****     struct lc3_decoder *decoder, void *_pcm, int stride)
 471:..\..\..\liblc3\src/lc3.c **** {
 430              		.loc 1 471 0
 431              		.cfi_startproc
 432              		@ args = 0, pretend = 0, frame = 0
 433              		@ frame_needed = 0, uses_anonymous_args = 0
 434              	.LVL40:
 435 0000 70B5     		push	{r4, r5, r6, lr}
 436              		.cfi_def_cfa_offset 16
 437              		.cfi_offset 4, -16
 438              		.cfi_offset 5, -12
ARM GAS  C:\Users\rdn\AppData\Local\Temp\cckhx27q.s 			page 19


 439              		.cfi_offset 6, -8
 440              		.cfi_offset 14, -4
 441              	.LBB125:
 442              	.LBB126:
 443              		.loc 2 47 0
 444 0002 0346     		mov	r3, r0
 445 0004 8678     		ldrb	r6, [r0, #2]	@ zero_extendqisi2
 446 0006 184C     		ldr	r4, .L52
 447 0008 13F8B85B 		ldrb	r5, [r3], #184	@ zero_extendqisi2
 448 000c 54F82640 		ldr	r4, [r4, r6, lsl #2]
 449 0010 D0F8AC00 		ldr	r0, [r0, #172]
 450              	.LVL41:
 451              	.LBE126:
 452              	.LBE125:
 453              	.LBB128:
 472:..\..\..\liblc3\src/lc3.c ****     int16_t *pcm = _pcm;
 473:..\..\..\liblc3\src/lc3.c **** 
 474:..\..\..\liblc3\src/lc3.c ****     enum lc3_dt dt = decoder->dt;
 475:..\..\..\liblc3\src/lc3.c ****     enum lc3_srate sr = decoder->sr_pcm;
 476:..\..\..\liblc3\src/lc3.c **** 
 477:..\..\..\liblc3\src/lc3.c ****     float *xs = decoder->x + decoder->xs_off;
 478:..\..\..\liblc3\src/lc3.c ****     int ns = lc3_ns(dt, sr);
 479:..\..\..\liblc3\src/lc3.c **** 
 480:..\..\..\liblc3\src/lc3.c ****     for ( ; ns > 0; ns--, xs++, pcm += stride) {
 481:..\..\..\liblc3\src/lc3.c ****         int32_t s = *xs >= 0 ? (int)(*xs + 0.5f) : (int)(*xs - 0.5f);
 482:..\..\..\liblc3\src/lc3.c ****         *pcm = LC3_SAT16(s);
 454              		.loc 1 482 0
 455 0014 154E     		ldr	r6, .L52+4
 456              	.LBE128:
 457              	.LBB129:
 458              	.LBB127:
 459              		.loc 2 47 0
 460 0016 05FB0444 		mla	r4, r5, r4, r4
 461              	.LVL42:
 462              	.LBE127:
 463              	.LBE129:
 480:..\..\..\liblc3\src/lc3.c ****         int32_t s = *xs >= 0 ? (int)(*xs + 0.5f) : (int)(*xs - 0.5f);
 464              		.loc 1 480 0
 465 001a 5200     		lsls	r2, r2, #1
 466              	.LVL43:
 467 001c 03EB8000 		add	r0, r3, r0, lsl #2
 468 0020 B6EE007A 		vmov.f32	s14, #5.0e-1
 469              	.LBB130:
 470              		.loc 1 482 0
 471 0024 47F6FE75 		movw	r5, #32766
 472              	.LVL44:
 473              	.L41:
 474              	.LBE130:
 480:..\..\..\liblc3\src/lc3.c ****         int32_t s = *xs >= 0 ? (int)(*xs + 0.5f) : (int)(*xs - 0.5f);
 475              		.loc 1 480 0 discriminator 1
 476 0028 002C     		cmp	r4, #0
 477 002a 1BDD     		ble	.L51
 478              	.LBB131:
 481:..\..\..\liblc3\src/lc3.c ****         *pcm = LC3_SAT16(s);
 479              		.loc 1 481 0
 480 002c F0EC017A 		vldmia.32	r0!, {s15}
 481              	.LVL45:
ARM GAS  C:\Users\rdn\AppData\Local\Temp\cckhx27q.s 			page 20


 482 0030 F5EEC07A 		vcmpe.f32	s15, #0
 483 0034 F1EE10FA 		vmrs	APSR_nzcv, FPSCR
 484 0038 ACBF     		ite	ge
 485 003a 77EE877A 		vaddge.f32	s15, s15, s14
 486 003e 77EEC77A 		vsublt.f32	s15, s15, s14
 487 0042 FDEEE77A 		vcvt.s32.f32	s15, s15
 488              	.LVL46:
 489              		.loc 1 482 0
 490 0046 17EE903A 		vmov	r3, s15	@ int
 491 004a AB42     		cmp	r3, r5
 492 004c 04DC     		bgt	.L47
 493              		.loc 1 482 0 is_stmt 0 discriminator 1
 494 004e B342     		cmp	r3, r6
 495 0050 B8BF     		it	lt
 496 0052 3346     		movlt	r3, r6
 497 0054 1BB2     		sxth	r3, r3
 498 0056 01E0     		b	.L45
 499              	.LVL47:
 500              	.L47:
 501              		.loc 1 482 0
 502 0058 47F6FF73 		movw	r3, #32767
 503              	.LVL48:
 504              	.L45:
 505              		.loc 1 482 0 discriminator 4
 506 005c 0B80     		strh	r3, [r1]	@ movhi
 507              	.LBE131:
 480:..\..\..\liblc3\src/lc3.c ****         int32_t s = *xs >= 0 ? (int)(*xs + 0.5f) : (int)(*xs - 0.5f);
 508              		.loc 1 480 0 is_stmt 1 discriminator 4
 509 005e 013C     		subs	r4, r4, #1
 510              	.LVL49:
 511 0060 1144     		add	r1, r1, r2
 512              	.LVL50:
 513 0062 E1E7     		b	.L41
 514              	.LVL51:
 515              	.L51:
 483:..\..\..\liblc3\src/lc3.c ****     }
 484:..\..\..\liblc3\src/lc3.c **** }
 516              		.loc 1 484 0
 517 0064 70BD     		pop	{r4, r5, r6, pc}
 518              	.LVL52:
 519              	.L53:
 520 0066 00BF     		.align	2
 521              	.L52:
 522 0068 00000000 		.word	lc3_ns_2m5
 523 006c 0080FFFF 		.word	-32768
 524              		.cfi_endproc
 525              	.LFE43:
 526              		.size	store_s16, .-store_s16
 527              		.section	.text.store_s24,"ax",%progbits
 528              		.align	1
 529              		.thumb
 530              		.thumb_func
 531              		.type	store_s24, %function
 532              	store_s24:
 533              	.LFB44:
 485:..\..\..\liblc3\src/lc3.c **** 
 486:..\..\..\liblc3\src/lc3.c **** /**
ARM GAS  C:\Users\rdn\AppData\Local\Temp\cckhx27q.s 			page 21


 487:..\..\..\liblc3\src/lc3.c ****  * Output PCM Samples to signed 24 bits
 488:..\..\..\liblc3\src/lc3.c ****  * decoder         Decoder state
 489:..\..\..\liblc3\src/lc3.c ****  * pcm, stride     Output PCM samples, and count between two consecutives
 490:..\..\..\liblc3\src/lc3.c ****  */
 491:..\..\..\liblc3\src/lc3.c **** static void store_s24(
 492:..\..\..\liblc3\src/lc3.c ****     struct lc3_decoder *decoder, void *_pcm, int stride)
 493:..\..\..\liblc3\src/lc3.c **** {
 534              		.loc 1 493 0
 535              		.cfi_startproc
 536              		@ args = 0, pretend = 0, frame = 0
 537              		@ frame_needed = 0, uses_anonymous_args = 0
 538              	.LVL53:
 539 0000 F0B5     		push	{r4, r5, r6, r7, lr}
 540              		.cfi_def_cfa_offset 20
 541              		.cfi_offset 4, -20
 542              		.cfi_offset 5, -16
 543              		.cfi_offset 6, -12
 544              		.cfi_offset 7, -8
 545              		.cfi_offset 14, -4
 546              	.LBB132:
 547              	.LBB133:
 548              		.loc 2 47 0
 549 0002 0346     		mov	r3, r0
 550 0004 8678     		ldrb	r6, [r0, #2]	@ zero_extendqisi2
 551 0006 1F4C     		ldr	r4, .L74
 552 0008 13F8B85B 		ldrb	r5, [r3], #184	@ zero_extendqisi2
 553 000c 54F82640 		ldr	r4, [r4, r6, lsl #2]
 554 0010 D0F8AC00 		ldr	r0, [r0, #172]
 555              	.LVL54:
 556              	.LBE133:
 557              	.LBE132:
 558              	.LBB135:
 494:..\..\..\liblc3\src/lc3.c ****     int32_t *pcm = _pcm;
 495:..\..\..\liblc3\src/lc3.c **** 
 496:..\..\..\liblc3\src/lc3.c ****     enum lc3_dt dt = decoder->dt;
 497:..\..\..\liblc3\src/lc3.c ****     enum lc3_srate sr = decoder->sr_pcm;
 498:..\..\..\liblc3\src/lc3.c **** 
 499:..\..\..\liblc3\src/lc3.c ****     float *xs = decoder->x + decoder->xs_off;
 500:..\..\..\liblc3\src/lc3.c ****     int ns = lc3_ns(dt, sr);
 501:..\..\..\liblc3\src/lc3.c **** 
 502:..\..\..\liblc3\src/lc3.c ****     for ( ; ns > 0; ns--, xs++, pcm += stride) {
 503:..\..\..\liblc3\src/lc3.c ****         int32_t s = *xs >= 0 ? (int32_t)(lc3_ldexpf(*xs, 8) + 0.5f)
 504:..\..\..\liblc3\src/lc3.c ****                              : (int32_t)(lc3_ldexpf(*xs, 8) - 0.5f);
 505:..\..\..\liblc3\src/lc3.c ****         *pcm = LC3_SAT24(s);
 559              		.loc 1 505 0
 560 0014 1C4E     		ldr	r6, .L74+4
 561 0016 1D4F     		ldr	r7, .L74+8
 562              	.LBE135:
 563              	.LBB140:
 564              	.LBB134:
 565              		.loc 2 47 0
 566 0018 05FB0444 		mla	r4, r5, r4, r4
 567              	.LVL55:
 568              	.LBE134:
 569              	.LBE140:
 502:..\..\..\liblc3\src/lc3.c ****         int32_t s = *xs >= 0 ? (int32_t)(lc3_ldexpf(*xs, 8) + 0.5f)
 570              		.loc 1 502 0
ARM GAS  C:\Users\rdn\AppData\Local\Temp\cckhx27q.s 			page 22


 571 001c 9200     		lsls	r2, r2, #2
 572              	.LVL56:
 573 001e 03EB8000 		add	r0, r3, r0, lsl #2
 574 0022 B6EE007A 		vmov.f32	s14, #5.0e-1
 575              	.LVL57:
 576              	.L55:
 502:..\..\..\liblc3\src/lc3.c ****         int32_t s = *xs >= 0 ? (int32_t)(lc3_ldexpf(*xs, 8) + 0.5f)
 577              		.loc 1 502 0 is_stmt 0 discriminator 1
 578 0026 002C     		cmp	r4, #0
 579 0028 2ADD     		ble	.L73
 580              	.LBB141:
 503:..\..\..\liblc3\src/lc3.c ****                              : (int32_t)(lc3_ldexpf(*xs, 8) - 0.5f);
 581              		.loc 1 503 0 is_stmt 1
 582 002a 50F8043B 		ldr	r3, [r0], #4	@ float
 583              	.LVL58:
 504:..\..\..\liblc3\src/lc3.c ****         *pcm = LC3_SAT24(s);
 584              		.loc 1 504 0
 585 002e 07EE903A 		vmov	s15, r3
 586 0032 F5EEC07A 		vcmpe.f32	s15, #0
 587 0036 F1EE10FA 		vmrs	APSR_nzcv, FPSCR
 588 003a 09DB     		blt	.L71
 589              	.LVL59:
 590              	.LBB136:
 591              	.LBB137:
  47:..\..\..\liblc3\src/fastmath.h ****         x.s += exp << LC3_IEEE754_EXP_SHL;
 592              		.loc 3 47 0 discriminator 1
 593 003c 13F0FF4F 		tst	r3, #2139095040
 594              		.loc 3 48 0 discriminator 1
 595 0040 18BF     		it	ne
 596 0042 03F18063 		addne	r3, r3, #67108864
 597              	.LVL60:
 598              	.LBE137:
 599              	.LBE136:
 504:..\..\..\liblc3\src/lc3.c ****         *pcm = LC3_SAT24(s);
 600              		.loc 1 504 0 discriminator 1
 601 0046 07EE903A 		vmov	s15, r3
 602 004a 77EE877A 		vadd.f32	s15, s15, s14
 603 004e 08E0     		b	.L72
 604              	.L71:
 605              	.LVL61:
 606              	.LBB138:
 607              	.LBB139:
  47:..\..\..\liblc3\src/fastmath.h ****         x.s += exp << LC3_IEEE754_EXP_SHL;
 608              		.loc 3 47 0 discriminator 2
 609 0050 13F0FF4F 		tst	r3, #2139095040
 610              		.loc 3 48 0 discriminator 2
 611 0054 18BF     		it	ne
 612 0056 03F18063 		addne	r3, r3, #67108864
 613              	.LVL62:
 614              	.LBE139:
 615              	.LBE138:
 504:..\..\..\liblc3\src/lc3.c ****         *pcm = LC3_SAT24(s);
 616              		.loc 1 504 0 discriminator 2
 617 005a 07EE903A 		vmov	s15, r3
 618 005e 77EEC77A 		vsub.f32	s15, s15, s14
 619              	.L72:
 504:..\..\..\liblc3\src/lc3.c ****         *pcm = LC3_SAT24(s);
ARM GAS  C:\Users\rdn\AppData\Local\Temp\cckhx27q.s 			page 23


 620              		.loc 1 504 0 is_stmt 0
 621 0062 FDEEE77A 		vcvt.s32.f32	s15, s15
 622 0066 17EE903A 		vmov	r3, s15	@ int
 623              	.LVL63:
 624              		.loc 1 505 0 is_stmt 1
 625 006a B342     		cmp	r3, r6
 626 006c 03DC     		bgt	.L63
 627              		.loc 1 505 0 is_stmt 0 discriminator 1
 628 006e BB42     		cmp	r3, r7
 629 0070 B8BF     		it	lt
 630 0072 3B46     		movlt	r3, r7
 631              	.LVL64:
 632 0074 00E0     		b	.L61
 633              	.LVL65:
 634              	.L63:
 635              		.loc 1 505 0
 636 0076 064B     		ldr	r3, .L74+12
 637              	.LVL66:
 638              	.L61:
 639              		.loc 1 505 0 discriminator 4
 640 0078 0B60     		str	r3, [r1]
 641              	.LBE141:
 502:..\..\..\liblc3\src/lc3.c ****         int32_t s = *xs >= 0 ? (int32_t)(lc3_ldexpf(*xs, 8) + 0.5f)
 642              		.loc 1 502 0 is_stmt 1 discriminator 4
 643 007a 013C     		subs	r4, r4, #1
 644              	.LVL67:
 645 007c 1144     		add	r1, r1, r2
 646              	.LVL68:
 647 007e D2E7     		b	.L55
 648              	.LVL69:
 649              	.L73:
 506:..\..\..\liblc3\src/lc3.c ****     }
 507:..\..\..\liblc3\src/lc3.c **** }
 650              		.loc 1 507 0
 651 0080 F0BD     		pop	{r4, r5, r6, r7, pc}
 652              	.LVL70:
 653              	.L75:
 654 0082 00BF     		.align	2
 655              	.L74:
 656 0084 00000000 		.word	lc3_ns_2m5
 657 0088 FEFF7F00 		.word	8388606
 658 008c 000080FF 		.word	-8388608
 659 0090 FFFF7F00 		.word	8388607
 660              		.cfi_endproc
 661              	.LFE44:
 662              		.size	store_s24, .-store_s24
 663              		.section	.text.store_s24_3le,"ax",%progbits
 664              		.align	1
 665              		.thumb
 666              		.thumb_func
 667              		.type	store_s24_3le, %function
 668              	store_s24_3le:
 669              	.LFB45:
 508:..\..\..\liblc3\src/lc3.c **** 
 509:..\..\..\liblc3\src/lc3.c **** /**
 510:..\..\..\liblc3\src/lc3.c ****  * Output PCM Samples to signed 24 bits packed
 511:..\..\..\liblc3\src/lc3.c ****  * decoder         Decoder state
ARM GAS  C:\Users\rdn\AppData\Local\Temp\cckhx27q.s 			page 24


 512:..\..\..\liblc3\src/lc3.c ****  * pcm, stride     Output PCM samples, and count between two consecutives
 513:..\..\..\liblc3\src/lc3.c ****  */
 514:..\..\..\liblc3\src/lc3.c **** static void store_s24_3le(
 515:..\..\..\liblc3\src/lc3.c ****     struct lc3_decoder *decoder, void *_pcm, int stride)
 516:..\..\..\liblc3\src/lc3.c **** {
 670              		.loc 1 516 0
 671              		.cfi_startproc
 672              		@ args = 0, pretend = 0, frame = 0
 673              		@ frame_needed = 0, uses_anonymous_args = 0
 674              	.LVL71:
 675 0000 F0B5     		push	{r4, r5, r6, r7, lr}
 676              		.cfi_def_cfa_offset 20
 677              		.cfi_offset 4, -20
 678              		.cfi_offset 5, -16
 679              		.cfi_offset 6, -12
 680              		.cfi_offset 7, -8
 681              		.cfi_offset 14, -4
 682              	.LBB142:
 683              	.LBB143:
 684              		.loc 2 47 0
 685 0002 0346     		mov	r3, r0
 686 0004 8678     		ldrb	r6, [r0, #2]	@ zero_extendqisi2
 687 0006 214C     		ldr	r4, .L96
 688 0008 13F8B85B 		ldrb	r5, [r3], #184	@ zero_extendqisi2
 689 000c 54F82640 		ldr	r4, [r4, r6, lsl #2]
 690 0010 D0F8AC00 		ldr	r0, [r0, #172]
 691              	.LVL72:
 692              	.LBE143:
 693              	.LBE142:
 694              	.LBB145:
 517:..\..\..\liblc3\src/lc3.c ****     uint8_t *pcm = _pcm;
 518:..\..\..\liblc3\src/lc3.c **** 
 519:..\..\..\liblc3\src/lc3.c ****     enum lc3_dt dt = decoder->dt;
 520:..\..\..\liblc3\src/lc3.c ****     enum lc3_srate sr = decoder->sr_pcm;
 521:..\..\..\liblc3\src/lc3.c **** 
 522:..\..\..\liblc3\src/lc3.c ****     float *xs = decoder->x + decoder->xs_off;
 523:..\..\..\liblc3\src/lc3.c ****     int ns = lc3_ns(dt, sr);
 524:..\..\..\liblc3\src/lc3.c **** 
 525:..\..\..\liblc3\src/lc3.c ****     for ( ; ns > 0; ns--, xs++, pcm += 3*stride) {
 526:..\..\..\liblc3\src/lc3.c ****         int32_t s = *xs >= 0 ? (int32_t)(lc3_ldexpf(*xs, 8) + 0.5f)
 527:..\..\..\liblc3\src/lc3.c ****                              : (int32_t)(lc3_ldexpf(*xs, 8) - 0.5f);
 528:..\..\..\liblc3\src/lc3.c **** 
 529:..\..\..\liblc3\src/lc3.c ****         s = LC3_SAT24(s);
 695              		.loc 1 529 0
 696 0014 1E4E     		ldr	r6, .L96+4
 697 0016 1F4F     		ldr	r7, .L96+8
 698              	.LBE145:
 699              	.LBB150:
 700              	.LBB144:
 701              		.loc 2 47 0
 702 0018 05FB0444 		mla	r4, r5, r4, r4
 703              	.LVL73:
 704              	.LBE144:
 705              	.LBE150:
 525:..\..\..\liblc3\src/lc3.c ****         int32_t s = *xs >= 0 ? (int32_t)(lc3_ldexpf(*xs, 8) + 0.5f)
 706              		.loc 1 525 0
 707 001c 02EB4202 		add	r2, r2, r2, lsl #1
ARM GAS  C:\Users\rdn\AppData\Local\Temp\cckhx27q.s 			page 25


 708              	.LVL74:
 709 0020 03EB8000 		add	r0, r3, r0, lsl #2
 710 0024 B6EE007A 		vmov.f32	s14, #5.0e-1
 711              	.LVL75:
 712              	.L77:
 525:..\..\..\liblc3\src/lc3.c ****         int32_t s = *xs >= 0 ? (int32_t)(lc3_ldexpf(*xs, 8) + 0.5f)
 713              		.loc 1 525 0 is_stmt 0 discriminator 1
 714 0028 002C     		cmp	r4, #0
 715 002a 2EDD     		ble	.L95
 716              	.LBB151:
 526:..\..\..\liblc3\src/lc3.c ****                              : (int32_t)(lc3_ldexpf(*xs, 8) - 0.5f);
 717              		.loc 1 526 0 is_stmt 1
 718 002c 50F8043B 		ldr	r3, [r0], #4	@ float
 719              	.LVL76:
 527:..\..\..\liblc3\src/lc3.c **** 
 720              		.loc 1 527 0
 721 0030 07EE903A 		vmov	s15, r3
 722 0034 F5EEC07A 		vcmpe.f32	s15, #0
 723 0038 F1EE10FA 		vmrs	APSR_nzcv, FPSCR
 724 003c 09DB     		blt	.L93
 725              	.LVL77:
 726              	.LBB146:
 727              	.LBB147:
  47:..\..\..\liblc3\src/fastmath.h ****         x.s += exp << LC3_IEEE754_EXP_SHL;
 728              		.loc 3 47 0 discriminator 1
 729 003e 13F0FF4F 		tst	r3, #2139095040
 730              		.loc 3 48 0 discriminator 1
 731 0042 18BF     		it	ne
 732 0044 03F18063 		addne	r3, r3, #67108864
 733              	.LVL78:
 734              	.LBE147:
 735              	.LBE146:
 527:..\..\..\liblc3\src/lc3.c **** 
 736              		.loc 1 527 0 discriminator 1
 737 0048 07EE903A 		vmov	s15, r3
 738 004c 77EE877A 		vadd.f32	s15, s15, s14
 739 0050 08E0     		b	.L94
 740              	.L93:
 741              	.LVL79:
 742              	.LBB148:
 743              	.LBB149:
  47:..\..\..\liblc3\src/fastmath.h ****         x.s += exp << LC3_IEEE754_EXP_SHL;
 744              		.loc 3 47 0 discriminator 2
 745 0052 13F0FF4F 		tst	r3, #2139095040
 746              		.loc 3 48 0 discriminator 2
 747 0056 18BF     		it	ne
 748 0058 03F18063 		addne	r3, r3, #67108864
 749              	.LVL80:
 750              	.LBE149:
 751              	.LBE148:
 527:..\..\..\liblc3\src/lc3.c **** 
 752              		.loc 1 527 0 discriminator 2
 753 005c 07EE903A 		vmov	s15, r3
 754 0060 77EEC77A 		vsub.f32	s15, s15, s14
 755              	.L94:
 527:..\..\..\liblc3\src/lc3.c **** 
 756              		.loc 1 527 0 is_stmt 0
ARM GAS  C:\Users\rdn\AppData\Local\Temp\cckhx27q.s 			page 26


 757 0064 FDEEE77A 		vcvt.s32.f32	s15, s15
 758 0068 17EE903A 		vmov	r3, s15	@ int
 759              	.LVL81:
 760              		.loc 1 529 0 is_stmt 1
 761 006c B342     		cmp	r3, r6
 762 006e 03DC     		bgt	.L85
 763              		.loc 1 529 0 is_stmt 0 discriminator 1
 764 0070 BB42     		cmp	r3, r7
 765 0072 B8BF     		it	lt
 766 0074 3B46     		movlt	r3, r7
 767              	.LVL82:
 768 0076 00E0     		b	.L83
 769              	.LVL83:
 770              	.L85:
 771              		.loc 1 529 0
 772 0078 074B     		ldr	r3, .L96+12
 773              	.LVL84:
 774              	.L83:
 530:..\..\..\liblc3\src/lc3.c ****         pcm[0] = (s >>  0) & 0xff;
 775              		.loc 1 530 0 is_stmt 1 discriminator 4
 776 007a 0B70     		strb	r3, [r1]
 531:..\..\..\liblc3\src/lc3.c ****         pcm[1] = (s >>  8) & 0xff;
 777              		.loc 1 531 0 discriminator 4
 778 007c 1D12     		asrs	r5, r3, #8
 532:..\..\..\liblc3\src/lc3.c ****         pcm[2] = (s >> 16) & 0xff;
 779              		.loc 1 532 0 discriminator 4
 780 007e 1B14     		asrs	r3, r3, #16
 781              	.LVL85:
 531:..\..\..\liblc3\src/lc3.c ****         pcm[1] = (s >>  8) & 0xff;
 782              		.loc 1 531 0 discriminator 4
 783 0080 4D70     		strb	r5, [r1, #1]
 784              		.loc 1 532 0 discriminator 4
 785 0082 8B70     		strb	r3, [r1, #2]
 786              	.LBE151:
 525:..\..\..\liblc3\src/lc3.c ****         int32_t s = *xs >= 0 ? (int32_t)(lc3_ldexpf(*xs, 8) + 0.5f)
 787              		.loc 1 525 0 discriminator 4
 788 0084 013C     		subs	r4, r4, #1
 789              	.LVL86:
 790 0086 1144     		add	r1, r1, r2
 791              	.LVL87:
 792 0088 CEE7     		b	.L77
 793              	.L95:
 533:..\..\..\liblc3\src/lc3.c ****     }
 534:..\..\..\liblc3\src/lc3.c **** }
 794              		.loc 1 534 0
 795 008a F0BD     		pop	{r4, r5, r6, r7, pc}
 796              	.LVL88:
 797              	.L97:
 798              		.align	2
 799              	.L96:
 800 008c 00000000 		.word	lc3_ns_2m5
 801 0090 FEFF7F00 		.word	8388606
 802 0094 000080FF 		.word	-8388608
 803 0098 FFFF7F00 		.word	8388607
 804              		.cfi_endproc
 805              	.LFE45:
 806              		.size	store_s24_3le, .-store_s24_3le
ARM GAS  C:\Users\rdn\AppData\Local\Temp\cckhx27q.s 			page 27


 807              		.section	.text.store_float,"ax",%progbits
 808              		.align	1
 809              		.thumb
 810              		.thumb_func
 811              		.type	store_float, %function
 812              	store_float:
 813              	.LFB46:
 535:..\..\..\liblc3\src/lc3.c **** 
 536:..\..\..\liblc3\src/lc3.c **** /**
 537:..\..\..\liblc3\src/lc3.c ****  * Output PCM Samples to float 32 bits
 538:..\..\..\liblc3\src/lc3.c ****  * decoder         Decoder state
 539:..\..\..\liblc3\src/lc3.c ****  * pcm, stride     Output PCM samples, and count between two consecutives
 540:..\..\..\liblc3\src/lc3.c ****  */
 541:..\..\..\liblc3\src/lc3.c **** static void store_float(
 542:..\..\..\liblc3\src/lc3.c ****     struct lc3_decoder *decoder, void *_pcm, int stride)
 543:..\..\..\liblc3\src/lc3.c **** {
 814              		.loc 1 543 0
 815              		.cfi_startproc
 816              		@ args = 0, pretend = 0, frame = 0
 817              		@ frame_needed = 0, uses_anonymous_args = 0
 818              	.LVL89:
 819 0000 F8B5     		push	{r3, r4, r5, r6, r7, lr}
 820              		.cfi_def_cfa_offset 24
 821              		.cfi_offset 3, -24
 822              		.cfi_offset 4, -20
 823              		.cfi_offset 5, -16
 824              		.cfi_offset 6, -12
 825              		.cfi_offset 7, -8
 826              		.cfi_offset 14, -4
 827              	.LBB152:
 828              	.LBB153:
 829              		.loc 2 47 0
 830 0002 8578     		ldrb	r5, [r0, #2]	@ zero_extendqisi2
 831 0004 114C     		ldr	r4, .L106
 832 0006 0346     		mov	r3, r0
 833 0008 54F82540 		ldr	r4, [r4, r5, lsl #2]
 834 000c D0F8AC50 		ldr	r5, [r0, #172]
 835              	.LBE153:
 836              	.LBE152:
 837              		.loc 1 543 0
 838 0010 0E46     		mov	r6, r1
 839              	.LVL90:
 840              	.LBB156:
 841              	.LBB154:
 842              		.loc 2 47 0
 843 0012 13F8B81B 		ldrb	r1, [r3], #184	@ zero_extendqisi2
 844              	.LVL91:
 845              	.LBE154:
 846              	.LBE156:
 544:..\..\..\liblc3\src/lc3.c ****     float *pcm = _pcm;
 545:..\..\..\liblc3\src/lc3.c **** 
 546:..\..\..\liblc3\src/lc3.c ****     enum lc3_dt dt = decoder->dt;
 547:..\..\..\liblc3\src/lc3.c ****     enum lc3_srate sr = decoder->sr_pcm;
 548:..\..\..\liblc3\src/lc3.c **** 
 549:..\..\..\liblc3\src/lc3.c ****     float *xs = decoder->x + decoder->xs_off;
 550:..\..\..\liblc3\src/lc3.c ****     int ns = lc3_ns(dt, sr);
 551:..\..\..\liblc3\src/lc3.c **** 
ARM GAS  C:\Users\rdn\AppData\Local\Temp\cckhx27q.s 			page 28


 552:..\..\..\liblc3\src/lc3.c ****     for ( ; ns > 0; ns--, xs++, pcm += stride) {
 847              		.loc 1 552 0
 848 0016 9700     		lsls	r7, r2, #2
 849              	.LBB157:
 850              	.LBB155:
 851              		.loc 2 47 0
 852 0018 01FB0444 		mla	r4, r1, r4, r4
 853              	.LVL92:
 854 001c 03EB8505 		add	r5, r3, r5, lsl #2
 855              	.LVL93:
 856              	.L99:
 857              	.LBE155:
 858              	.LBE157:
 859              		.loc 1 552 0 discriminator 1
 860 0020 002C     		cmp	r4, #0
 861 0022 11DD     		ble	.L105
 862              	.LBB158:
 553:..\..\..\liblc3\src/lc3.c ****         float s = lc3_ldexpf(*xs, -15);
 863              		.loc 1 553 0 discriminator 2
 864 0024 55F8040B 		ldr	r0, [r5], #4	@ float
 865              	.LVL94:
 554:..\..\..\liblc3\src/lc3.c ****         *pcm = fminf(fmaxf(s, -1.f), 1.f);
 866              		.loc 1 554 0 discriminator 2
 867 0028 0949     		ldr	r1, .L106+4
 868              	.LBB159:
 869              	.LBB160:
  47:..\..\..\liblc3\src/fastmath.h ****         x.s += exp << LC3_IEEE754_EXP_SHL;
 870              		.loc 3 47 0 discriminator 2
 871 002a 10F0FF4F 		tst	r0, #2139095040
 872              		.loc 3 48 0 discriminator 2
 873 002e 18BF     		it	ne
 874 0030 A0F1F060 		subne	r0, r0, #125829120
 875              	.LVL95:
 876              	.LBE160:
 877              	.LBE159:
 878              		.loc 1 554 0 discriminator 2
 879 0034 FFF7FEFF 		bl	fmaxf
 880              	.LVL96:
 881 0038 4FF07E51 		mov	r1, #1065353216
 882 003c FFF7FEFF 		bl	fminf
 883              	.LVL97:
 884              	.LBE158:
 552:..\..\..\liblc3\src/lc3.c ****         float s = lc3_ldexpf(*xs, -15);
 885              		.loc 1 552 0 discriminator 2
 886 0040 013C     		subs	r4, r4, #1
 887              	.LVL98:
 888              	.LBB161:
 889              		.loc 1 554 0 discriminator 2
 890 0042 3060     		str	r0, [r6]	@ float
 891              	.LBE161:
 552:..\..\..\liblc3\src/lc3.c ****         float s = lc3_ldexpf(*xs, -15);
 892              		.loc 1 552 0 discriminator 2
 893 0044 3E44     		add	r6, r6, r7
 894              	.LVL99:
 895 0046 EBE7     		b	.L99
 896              	.L105:
 555:..\..\..\liblc3\src/lc3.c ****     }
ARM GAS  C:\Users\rdn\AppData\Local\Temp\cckhx27q.s 			page 29


 556:..\..\..\liblc3\src/lc3.c **** }
 897              		.loc 1 556 0
 898 0048 F8BD     		pop	{r3, r4, r5, r6, r7, pc}
 899              	.LVL100:
 900              	.L107:
 901 004a 00BF     		.align	2
 902              	.L106:
 903 004c 00000000 		.word	lc3_ns_2m5
 904 0050 000080BF 		.word	-1082130432
 905              		.cfi_endproc
 906              	.LFE46:
 907              		.size	store_float, .-store_float
 908              		.section	.text.resolve_dt,"ax",%progbits
 909              		.align	1
 910              		.thumb
 911              		.thumb_func
 912              		.type	resolve_dt, %function
 913              	resolve_dt:
 914              	.LFB20:
  60:..\..\..\liblc3\src/lc3.c ****     return LC3_PLUS && us ==  2500 ? LC3_DT_2M5 :
 915              		.loc 1 60 0
 916              		.cfi_startproc
 917              		@ args = 0, pretend = 0, frame = 0
 918              		@ frame_needed = 0, uses_anonymous_args = 0
 919              		@ link register save eliminated.
 920              	.LVL101:
  61:..\..\..\liblc3\src/lc3.c ****            LC3_PLUS && us ==  5000 ? LC3_DT_5M  :
 921              		.loc 1 61 0
 922 0000 40F6C413 		movw	r3, #2500
 923 0004 9842     		cmp	r0, r3
 924 0006 0FD0     		beq	.L111
  61:..\..\..\liblc3\src/lc3.c ****            LC3_PLUS && us ==  5000 ? LC3_DT_5M  :
 925              		.loc 1 61 0 is_stmt 0 discriminator 1
 926 0008 41F28833 		movw	r3, #5000
 927 000c 9842     		cmp	r0, r3
 928 000e 0DD0     		beq	.L112
 929              	.LVL102:
 930              	.LBB164:
 931              	.LBB165:
  61:..\..\..\liblc3\src/lc3.c ****            LC3_PLUS && us ==  5000 ? LC3_DT_5M  :
 932              		.loc 1 61 0
 933 0010 19B9     		cbnz	r1, .L110
  63:..\..\..\liblc3\src/lc3.c ****                        us == 10000 ? LC3_DT_10M : LC3_NUM_DT;
 934              		.loc 1 63 0 is_stmt 1
 935 0012 41F64C53 		movw	r3, #7500
 936 0016 9842     		cmp	r0, r3
 937 0018 0AD0     		beq	.L113
 938              	.L110:
  61:..\..\..\liblc3\src/lc3.c ****            LC3_PLUS && us ==  5000 ? LC3_DT_5M  :
 939              		.loc 1 61 0
 940 001a 42F21073 		movw	r3, #10000
 941 001e 9842     		cmp	r0, r3
 942 0020 0CBF     		ite	eq
 943 0022 0320     		moveq	r0, #3
 944 0024 0420     		movne	r0, #4
 945              	.LVL103:
 946 0026 7047     		bx	lr
ARM GAS  C:\Users\rdn\AppData\Local\Temp\cckhx27q.s 			page 30


 947              	.LVL104:
 948              	.L111:
 949              	.LBE165:
 950              	.LBE164:
 951 0028 0020     		movs	r0, #0
 952              	.LVL105:
 953 002a 7047     		bx	lr
 954              	.LVL106:
 955              	.L112:
 956 002c 0120     		movs	r0, #1
 957              	.LVL107:
 958 002e 7047     		bx	lr
 959              	.LVL108:
 960              	.L113:
 961              	.LBB167:
 962              	.LBB166:
 963 0030 0220     		movs	r0, #2
 964              	.LVL109:
 965              	.LBE166:
 966              	.LBE167:
  65:..\..\..\liblc3\src/lc3.c **** 
 967              		.loc 1 65 0
 968 0032 7047     		bx	lr
 969              		.cfi_endproc
 970              	.LFE20:
 971              		.size	resolve_dt, .-resolve_dt
 972              		.section	.text.resolve_srate,"ax",%progbits
 973              		.align	1
 974              		.thumb
 975              		.thumb_func
 976              		.type	resolve_srate, %function
 977              	resolve_srate:
 978              	.LFB21:
  74:..\..\..\liblc3\src/lc3.c ****     hrmode = LC3_PLUS_HR && hrmode;
 979              		.loc 1 74 0
 980              		.cfi_startproc
 981              		@ args = 0, pretend = 0, frame = 0
 982              		@ frame_needed = 0, uses_anonymous_args = 0
 983              		@ link register save eliminated.
 984              	.LVL110:
  77:..\..\..\liblc3\src/lc3.c ****            !hrmode && hz == 16000 ? LC3_SRATE_16K    :
 985              		.loc 1 77 0
 986 0000 99B9     		cbnz	r1, .L116
  77:..\..\..\liblc3\src/lc3.c ****            !hrmode && hz == 16000 ? LC3_SRATE_16K    :
 987              		.loc 1 77 0 is_stmt 0 discriminator 2
 988 0002 B0F5FA5F 		cmp	r0, #8000
 989 0006 1AD0     		beq	.L118
  78:..\..\..\liblc3\src/lc3.c ****            !hrmode && hz == 24000 ? LC3_SRATE_24K    :
 990              		.loc 1 78 0 is_stmt 1
 991 0008 B0F57A5F 		cmp	r0, #16000
 992 000c 19D0     		beq	.L119
  79:..\..\..\liblc3\src/lc3.c ****            !hrmode && hz == 32000 ? LC3_SRATE_32K    :
 993              		.loc 1 79 0
 994 000e 45F6C053 		movw	r3, #24000
 995 0012 9842     		cmp	r0, r3
 996 0014 17D0     		beq	.L120
  80:..\..\..\liblc3\src/lc3.c ****            !hrmode && hz == 48000 ? LC3_SRATE_48K    :
ARM GAS  C:\Users\rdn\AppData\Local\Temp\cckhx27q.s 			page 31


 997              		.loc 1 80 0
 998 0016 B0F5FA4F 		cmp	r0, #32000
 999 001a 16D0     		beq	.L121
  77:..\..\..\liblc3\src/lc3.c ****            !hrmode && hz == 16000 ? LC3_SRATE_16K    :
 1000              		.loc 1 77 0
 1001 001c 4BF68031 		movw	r1, #48000
 1002              	.LVL111:
 1003 0020 8842     		cmp	r0, r1
 1004 0022 14BF     		ite	ne
 1005 0024 0720     		movne	r0, #7
 1006 0026 0420     		moveq	r0, #4
 1007              	.LVL112:
 1008 0028 7047     		bx	lr
 1009              	.LVL113:
 1010              	.L116:
 1011              	.LBB170:
 1012              	.LBB171:
  82:..\..\..\liblc3\src/lc3.c ****             hrmode && hz == 96000 ? LC3_SRATE_96K_HR : LC3_NUM_SRATE;
 1013              		.loc 1 82 0
 1014 002a 4BF68033 		movw	r3, #48000
 1015 002e 9842     		cmp	r0, r3
 1016 0030 0DD0     		beq	.L123
  77:..\..\..\liblc3\src/lc3.c ****            !hrmode && hz == 16000 ? LC3_SRATE_16K    :
 1017              		.loc 1 77 0
 1018 0032 0849     		ldr	r1, .L125
 1019              	.LVL114:
 1020 0034 8842     		cmp	r0, r1
 1021 0036 14BF     		ite	ne
 1022 0038 0720     		movne	r0, #7
 1023 003a 0620     		moveq	r0, #6
 1024              	.LVL115:
 1025 003c 7047     		bx	lr
 1026              	.LVL116:
 1027              	.L118:
 1028              	.LBE171:
 1029              	.LBE170:
 1030 003e 0846     		mov	r0, r1
 1031              	.LVL117:
 1032 0040 7047     		bx	lr
 1033              	.LVL118:
 1034              	.L119:
 1035 0042 0120     		movs	r0, #1
 1036              	.LVL119:
 1037 0044 7047     		bx	lr
 1038              	.LVL120:
 1039              	.L120:
 1040 0046 0220     		movs	r0, #2
 1041              	.LVL121:
 1042 0048 7047     		bx	lr
 1043              	.LVL122:
 1044              	.L121:
 1045 004a 0320     		movs	r0, #3
 1046              	.LVL123:
 1047 004c 7047     		bx	lr
 1048              	.LVL124:
 1049              	.L123:
 1050              	.LBB173:
ARM GAS  C:\Users\rdn\AppData\Local\Temp\cckhx27q.s 			page 32


 1051              	.LBB172:
 1052 004e 0520     		movs	r0, #5
 1053              	.LVL125:
 1054              	.LBE172:
 1055              	.LBE173:
  84:..\..\..\liblc3\src/lc3.c **** 
 1056              		.loc 1 84 0
 1057 0050 7047     		bx	lr
 1058              	.L126:
 1059 0052 00BF     		.align	2
 1060              	.L125:
 1061 0054 00770100 		.word	96000
 1062              		.cfi_endproc
 1063              	.LFE21:
 1064              		.size	resolve_srate, .-resolve_srate
 1065              		.section	.text.lc3_hr_frame_samples,"ax",%progbits
 1066              		.align	1
 1067              		.global	lc3_hr_frame_samples
 1068              		.thumb
 1069              		.thumb_func
 1070              		.type	lc3_hr_frame_samples, %function
 1071              	lc3_hr_frame_samples:
 1072              	.LFB22:
  90:..\..\..\liblc3\src/lc3.c ****     enum lc3_dt dt = resolve_dt(dt_us, hrmode);
 1073              		.loc 1 90 0
 1074              		.cfi_startproc
 1075              		@ args = 0, pretend = 0, frame = 0
 1076              		@ frame_needed = 0, uses_anonymous_args = 0
 1077              	.LVL126:
 1078 0000 38B5     		push	{r3, r4, r5, lr}
 1079              		.cfi_def_cfa_offset 16
 1080              		.cfi_offset 3, -16
 1081              		.cfi_offset 4, -12
 1082              		.cfi_offset 5, -8
 1083              		.cfi_offset 14, -4
  90:..\..\..\liblc3\src/lc3.c ****     enum lc3_dt dt = resolve_dt(dt_us, hrmode);
 1084              		.loc 1 90 0
 1085 0002 0546     		mov	r5, r0
 1086 0004 0846     		mov	r0, r1
 1087              	.LVL127:
  91:..\..\..\liblc3\src/lc3.c ****     enum lc3_srate sr = resolve_srate(sr_hz, hrmode);
 1088              		.loc 1 91 0
 1089 0006 2946     		mov	r1, r5
 1090              	.LVL128:
 1091 0008 FFF7FEFF 		bl	resolve_dt
 1092              	.LVL129:
  92:..\..\..\liblc3\src/lc3.c **** 
 1093              		.loc 1 92 0
 1094 000c 2946     		mov	r1, r5
  91:..\..\..\liblc3\src/lc3.c ****     enum lc3_srate sr = resolve_srate(sr_hz, hrmode);
 1095              		.loc 1 91 0
 1096 000e 0446     		mov	r4, r0
 1097              	.LVL130:
  92:..\..\..\liblc3\src/lc3.c **** 
 1098              		.loc 1 92 0
 1099 0010 1046     		mov	r0, r2
 1100 0012 FFF7FEFF 		bl	resolve_srate
ARM GAS  C:\Users\rdn\AppData\Local\Temp\cckhx27q.s 			page 33


 1101              	.LVL131:
  94:..\..\..\liblc3\src/lc3.c ****         return -1;
 1102              		.loc 1 94 0
 1103 0016 032C     		cmp	r4, #3
 1104 0018 07D8     		bhi	.L130
  94:..\..\..\liblc3\src/lc3.c ****         return -1;
 1105              		.loc 1 94 0 is_stmt 0 discriminator 1
 1106 001a 0628     		cmp	r0, #6
 1107 001c 05D8     		bhi	.L130
 1108              	.LVL132:
 1109              	.LBB174:
 1110              	.LBB175:
 1111              		.loc 2 47 0 is_stmt 1
 1112 001e 044B     		ldr	r3, .L131
 1113 0020 53F82000 		ldr	r0, [r3, r0, lsl #2]
 1114              	.LVL133:
 1115 0024 04FB0000 		mla	r0, r4, r0, r0
 1116              	.LVL134:
 1117              	.LBE175:
 1118              	.LBE174:
  97:..\..\..\liblc3\src/lc3.c **** }
 1119              		.loc 1 97 0
 1120 0028 38BD     		pop	{r3, r4, r5, pc}
 1121              	.LVL135:
 1122              	.L130:
  95:..\..\..\liblc3\src/lc3.c **** 
 1123              		.loc 1 95 0
 1124 002a 4FF0FF30 		mov	r0, #-1
 1125              	.LVL136:
  98:..\..\..\liblc3\src/lc3.c **** 
 1126              		.loc 1 98 0
 1127 002e 38BD     		pop	{r3, r4, r5, pc}
 1128              	.LVL137:
 1129              	.L132:
 1130              		.align	2
 1131              	.L131:
 1132 0030 00000000 		.word	lc3_ns_2m5
 1133              		.cfi_endproc
 1134              	.LFE22:
 1135              		.size	lc3_hr_frame_samples, .-lc3_hr_frame_samples
 1136              		.section	.text.lc3_frame_samples,"ax",%progbits
 1137              		.align	1
 1138              		.global	lc3_frame_samples
 1139              		.thumb
 1140              		.thumb_func
 1141              		.type	lc3_frame_samples, %function
 1142              	lc3_frame_samples:
 1143              	.LFB23:
 101:..\..\..\liblc3\src/lc3.c ****     return lc3_hr_frame_samples(false, dt_us, sr_hz);
 1144              		.loc 1 101 0
 1145              		.cfi_startproc
 1146              		@ args = 0, pretend = 0, frame = 0
 1147              		@ frame_needed = 0, uses_anonymous_args = 0
 1148              		@ link register save eliminated.
 1149              	.LVL138:
 102:..\..\..\liblc3\src/lc3.c **** }
 1150              		.loc 1 102 0
ARM GAS  C:\Users\rdn\AppData\Local\Temp\cckhx27q.s 			page 34


 1151 0000 0A46     		mov	r2, r1
 1152 0002 0146     		mov	r1, r0
 1153              	.LVL139:
 1154 0004 0020     		movs	r0, #0
 1155              	.LVL140:
 1156 0006 FFF7FEBF 		b	lc3_hr_frame_samples
 1157              	.LVL141:
 1158              		.cfi_endproc
 1159              	.LFE23:
 1160              		.size	lc3_frame_samples, .-lc3_frame_samples
 1161              		.section	.text.lc3_hr_frame_block_bytes,"ax",%progbits
 1162              		.align	1
 1163              		.global	lc3_hr_frame_block_bytes
 1164              		.thumb
 1165              		.thumb_func
 1166              		.type	lc3_hr_frame_block_bytes, %function
 1167              	lc3_hr_frame_block_bytes:
 1168              	.LFB24:
 110:..\..\..\liblc3\src/lc3.c ****     enum lc3_dt dt = resolve_dt(dt_us, hrmode);
 1169              		.loc 1 110 0
 1170              		.cfi_startproc
 1171              		@ args = 4, pretend = 0, frame = 0
 1172              		@ frame_needed = 0, uses_anonymous_args = 0
 1173              	.LVL142:
 1174 0000 F8B5     		push	{r3, r4, r5, r6, r7, lr}
 1175              		.cfi_def_cfa_offset 24
 1176              		.cfi_offset 3, -24
 1177              		.cfi_offset 4, -20
 1178              		.cfi_offset 5, -16
 1179              		.cfi_offset 6, -12
 1180              		.cfi_offset 7, -8
 1181              		.cfi_offset 14, -4
 110:..\..\..\liblc3\src/lc3.c ****     enum lc3_dt dt = resolve_dt(dt_us, hrmode);
 1182              		.loc 1 110 0
 1183 0002 0746     		mov	r7, r0
 1184 0004 0846     		mov	r0, r1
 1185              	.LVL143:
 111:..\..\..\liblc3\src/lc3.c ****     enum lc3_srate sr = resolve_srate(sr_hz, hrmode);
 1186              		.loc 1 111 0
 1187 0006 3946     		mov	r1, r7
 1188              	.LVL144:
 110:..\..\..\liblc3\src/lc3.c ****     enum lc3_dt dt = resolve_dt(dt_us, hrmode);
 1189              		.loc 1 110 0
 1190 0008 1E46     		mov	r6, r3
 111:..\..\..\liblc3\src/lc3.c ****     enum lc3_srate sr = resolve_srate(sr_hz, hrmode);
 1191              		.loc 1 111 0
 1192 000a FFF7FEFF 		bl	resolve_dt
 1193              	.LVL145:
 112:..\..\..\liblc3\src/lc3.c **** 
 1194              		.loc 1 112 0
 1195 000e 3946     		mov	r1, r7
 111:..\..\..\liblc3\src/lc3.c ****     enum lc3_srate sr = resolve_srate(sr_hz, hrmode);
 1196              		.loc 1 111 0
 1197 0010 0546     		mov	r5, r0
 1198              	.LVL146:
 112:..\..\..\liblc3\src/lc3.c **** 
 1199              		.loc 1 112 0
ARM GAS  C:\Users\rdn\AppData\Local\Temp\cckhx27q.s 			page 35


 1200 0012 1046     		mov	r0, r2
 1201 0014 FFF7FEFF 		bl	resolve_srate
 1202              	.LVL147:
 114:..\..\..\liblc3\src/lc3.c ****             || nchannels < 1 || nchannels > 8 || bitrate < 0)
 1203              		.loc 1 114 0
 1204 0018 032D     		cmp	r5, #3
 110:..\..\..\liblc3\src/lc3.c ****     enum lc3_dt dt = resolve_dt(dt_us, hrmode);
 1205              		.loc 1 110 0
 1206 001a 069C     		ldr	r4, [sp, #24]
 114:..\..\..\liblc3\src/lc3.c ****             || nchannels < 1 || nchannels > 8 || bitrate < 0)
 1207              		.loc 1 114 0
 1208 001c 61D8     		bhi	.L148
 114:..\..\..\liblc3\src/lc3.c ****             || nchannels < 1 || nchannels > 8 || bitrate < 0)
 1209              		.loc 1 114 0 is_stmt 0 discriminator 1
 1210 001e 0628     		cmp	r0, #6
 1211 0020 5FD8     		bhi	.L148
 115:..\..\..\liblc3\src/lc3.c ****         return -1;
 1212              		.loc 1 115 0 is_stmt 1
 1213 0022 731E     		subs	r3, r6, #1
 1214 0024 072B     		cmp	r3, #7
 1215 0026 5CD8     		bhi	.L148
 115:..\..\..\liblc3\src/lc3.c ****         return -1;
 1216              		.loc 1 115 0 is_stmt 0 discriminator 2
 1217 0028 002C     		cmp	r4, #0
 1218 002a 5ADB     		blt	.L148
 118:..\..\..\liblc3\src/lc3.c **** 
 1219              		.loc 1 118 0 is_stmt 1
 1220 002c 2F4B     		ldr	r3, .L157
 1221 002e 9C42     		cmp	r4, r3
 1222 0030 D4BF     		ite	le
 1223 0032 24EAE474 		bicle	r4, r4, r4, asr #31
 1224 0036 2E4C     		ldrgt	r4, .L157+4
 1225              	.LVL148:
 1226              	.LBB176:
 1227              	.LBB177:
  48:..\..\..\liblc3\src/tables.h **** }
  49:..\..\..\liblc3\src/tables.h **** 
  50:..\..\..\liblc3\src/tables.h **** static inline int lc3_ne(enum lc3_dt dt, enum lc3_srate sr) {
  51:..\..\..\liblc3\src/tables.h ****     return lc3_ne_2m5[sr] * (1 + dt);
  52:..\..\..\liblc3\src/tables.h **** }
  53:..\..\..\liblc3\src/tables.h **** 
  54:..\..\..\liblc3\src/tables.h **** static inline int lc3_nd(enum lc3_dt dt, enum lc3_srate sr) {
  55:..\..\..\liblc3\src/tables.h ****     return ( lc3_ns(dt, sr) +
  56:..\..\..\liblc3\src/tables.h ****         (dt == LC3_DT_7M5 ? lc3_ns_4m[sr] : lc3_ns_2m5[sr]) ) >> 1;
  57:..\..\..\liblc3\src/tables.h **** }
  58:..\..\..\liblc3\src/tables.h **** 
  59:..\..\..\liblc3\src/tables.h **** static inline int lc3_nh(enum lc3_dt dt, enum lc3_srate sr) {
  60:..\..\..\liblc3\src/tables.h ****     return sr > LC3_SRATE_48K_HR ? 0 :
  61:..\..\..\liblc3\src/tables.h ****         (8 + (dt == LC3_DT_7M5)) * lc3_ns_2m5[sr];
  62:..\..\..\liblc3\src/tables.h **** }
  63:..\..\..\liblc3\src/tables.h **** 
  64:..\..\..\liblc3\src/tables.h **** static inline int lc3_nt(enum lc3_srate sr) {
  65:..\..\..\liblc3\src/tables.h ****     return lc3_ns_2m5[sr] >> 1;
  66:..\..\..\liblc3\src/tables.h **** }
  67:..\..\..\liblc3\src/tables.h **** 
  68:..\..\..\liblc3\src/tables.h **** #define LC3_MAX_SRATE_HZ  ( LC3_PLUS_HR ? 96000 : 48000 )
  69:..\..\..\liblc3\src/tables.h **** 
ARM GAS  C:\Users\rdn\AppData\Local\Temp\cckhx27q.s 			page 36


  70:..\..\..\liblc3\src/tables.h **** #define LC3_MAX_NS  ( LC3_NS(10000, LC3_MAX_SRATE_HZ) )
  71:..\..\..\liblc3\src/tables.h **** #define LC3_MAX_NE  ( LC3_PLUS_HR ? LC3_MAX_NS : LC3_NS(10000, 40000) )
  72:..\..\..\liblc3\src/tables.h **** 
  73:..\..\..\liblc3\src/tables.h **** 
  74:..\..\..\liblc3\src/tables.h **** /**
  75:..\..\..\liblc3\src/tables.h ****  * Limits on size of frame
  76:..\..\..\liblc3\src/tables.h ****  */
  77:..\..\..\liblc3\src/tables.h **** 
  78:..\..\..\liblc3\src/tables.h **** extern const int lc3_frame_bytes_hr_lim
  79:..\..\..\liblc3\src/tables.h ****         [LC3_NUM_DT][LC3_NUM_SRATE - LC3_SRATE_48K_HR][2];
  80:..\..\..\liblc3\src/tables.h **** 
  81:..\..\..\liblc3\src/tables.h **** static inline int lc3_min_frame_bytes(enum lc3_dt dt, enum lc3_srate sr) {
  82:..\..\..\liblc3\src/tables.h ****     return !lc3_hr(sr) ? LC3_MIN_FRAME_BYTES :
 1228              		.loc 2 82 0
 1229 0038 0428     		cmp	r0, #4
 1230 003a 81BF     		itttt	hi
 1231 003c 431F     		subhi	r3, r0, #5
 1232 003e 03EB4503 		addhi	r3, r3, r5, lsl #1
 1233 0042 2C49     		ldrhi	r1, .L157+8
 1234 0044 51F83330 		ldrhi	r3, [r1, r3, lsl #3]
 1235 0048 98BF     		it	ls
 1236 004a 1423     		movls	r3, #20
 1237              	.LBE177:
 1238              	.LBE176:
 120:..\..\..\liblc3\src/lc3.c ****         nchannels * lc3_min_frame_bytes(dt, sr),
 1239              		.loc 1 120 0
 1240 004c 7343     		muls	r3, r6, r3
 1241 004e 05FB0444 		mla	r4, r5, r4, r4
 1242              	.LVL149:
 1243 0052 4FF44862 		mov	r2, #3200
 1244 0056 94FBF2F2 		sdiv	r2, r4, r2
 1245              	.LVL150:
 1246 005a 9A42     		cmp	r2, r3
 1247 005c 0BDC     		bgt	.L151
 1248              	.LVL151:
 1249              	.LBB178:
 1250              	.LBB179:
 1251              		.loc 2 82 0
 1252 005e 0428     		cmp	r0, #4
 1253 0060 81BF     		itttt	hi
 1254 0062 431F     		subhi	r3, r0, #5
 1255 0064 03EB4503 		addhi	r3, r3, r5, lsl #1
 1256 0068 2249     		ldrhi	r1, .L157+8
 1257 006a 51F83330 		ldrhi	r3, [r1, r3, lsl #3]
 1258 006e 98BF     		it	ls
 1259 0070 1423     		movls	r3, #20
 1260              	.LVL152:
 1261              	.LBE179:
 1262              	.LBE178:
 120:..\..\..\liblc3\src/lc3.c ****         nchannels * lc3_min_frame_bytes(dt, sr),
 1263              		.loc 1 120 0
 1264 0072 7343     		muls	r3, r6, r3
 1265 0074 00E0     		b	.L138
 1266              	.L151:
 1267 0076 1346     		mov	r3, r2
 1268              	.L138:
 1269              	.LVL153:
ARM GAS  C:\Users\rdn\AppData\Local\Temp\cckhx27q.s 			page 37


 1270              	.LBB180:
 1271              	.LBB181:
  83:..\..\..\liblc3\src/tables.h ****         lc3_frame_bytes_hr_lim[dt][sr - LC3_SRATE_48K_HR][0];
  84:..\..\..\liblc3\src/tables.h **** }
  85:..\..\..\liblc3\src/tables.h **** 
  86:..\..\..\liblc3\src/tables.h **** static inline int lc3_max_frame_bytes(enum lc3_dt dt, enum lc3_srate sr) {
  87:..\..\..\liblc3\src/tables.h ****     return !lc3_hr(sr) ? LC3_MAX_FRAME_BYTES :
 1272              		.loc 2 87 0 discriminator 4
 1273 0078 0428     		cmp	r0, #4
 1274 007a 81BF     		itttt	hi
 1275 007c 411F     		subhi	r1, r0, #5
 1276 007e 01EB4504 		addhi	r4, r1, r5, lsl #1
 1277 0082 1C49     		ldrhi	r1, .L157+8
 1278 0084 01EBC401 		addhi	r1, r1, r4, lsl #3
 1279 0088 94BF     		ite	ls
 1280 008a 4FF4C871 		movls	r1, #400
 1281              	.LVL154:
 1282 008e 4968     		ldrhi	r1, [r1, #4]
 1283              	.LBE181:
 1284              	.LBE180:
 120:..\..\..\liblc3\src/lc3.c ****         nchannels * lc3_min_frame_bytes(dt, sr),
 1285              		.loc 1 120 0 discriminator 4
 1286 0090 7143     		muls	r1, r6, r1
 1287 0092 8B42     		cmp	r3, r1
 1288 0094 17DA     		bge	.L141
 1289              	.LVL155:
 1290              	.LBB182:
 1291              	.LBB183:
  82:..\..\..\liblc3\src/tables.h ****         lc3_frame_bytes_hr_lim[dt][sr - LC3_SRATE_48K_HR][0];
 1292              		.loc 2 82 0 discriminator 5
 1293 0096 0428     		cmp	r0, #4
 1294 0098 81BF     		itttt	hi
 1295 009a 431F     		subhi	r3, r0, #5
 1296 009c 03EB4503 		addhi	r3, r3, r5, lsl #1
 1297 00a0 1449     		ldrhi	r1, .L157+8
 1298 00a2 51F83330 		ldrhi	r3, [r1, r3, lsl #3]
 1299 00a6 98BF     		it	ls
 1300 00a8 1423     		movls	r3, #20
 1301              	.LVL156:
 1302              	.LBE183:
 1303              	.LBE182:
 120:..\..\..\liblc3\src/lc3.c ****         nchannels * lc3_min_frame_bytes(dt, sr),
 1304              		.loc 1 120 0 discriminator 5
 1305 00aa 7343     		muls	r3, r6, r3
 1306 00ac 9A42     		cmp	r2, r3
 1307 00ae 1ADC     		bgt	.L135
 1308              	.LVL157:
 1309              	.LBB184:
 1310              	.LBB185:
  82:..\..\..\liblc3\src/tables.h ****         lc3_frame_bytes_hr_lim[dt][sr - LC3_SRATE_48K_HR][0];
 1311              		.loc 2 82 0
 1312 00b0 0428     		cmp	r0, #4
 1313 00b2 83BF     		ittte	hi
 1314 00b4 0538     		subhi	r0, r0, #5
 1315              	.LVL158:
 1316 00b6 00EB4500 		addhi	r0, r0, r5, lsl #1
 1317 00ba 0E4B     		ldrhi	r3, .L157+8
ARM GAS  C:\Users\rdn\AppData\Local\Temp\cckhx27q.s 			page 38


 1318 00bc 1422     		movls	r2, #20
 1319 00be 88BF     		it	hi
 1320 00c0 53F83020 		ldrhi	r2, [r3, r0, lsl #3]
 1321 00c4 0BE0     		b	.L144
 1322              	.LVL159:
 1323              	.L141:
 1324              	.LBE185:
 1325              	.LBE184:
 1326              	.LBB186:
 1327              	.LBB187:
 1328              		.loc 2 87 0
 1329 00c6 0428     		cmp	r0, #4
 1330 00c8 81BF     		itttt	hi
 1331 00ca 0538     		subhi	r0, r0, #5
 1332              	.LVL160:
 1333 00cc 094B     		ldrhi	r3, .L157+8
 1334 00ce 00EB4500 		addhi	r0, r0, r5, lsl #1
 1335 00d2 03EBC000 		addhi	r0, r3, r0, lsl #3
 1336 00d6 94BF     		ite	ls
 1337 00d8 4FF4C872 		movls	r2, #400
 1338 00dc 4268     		ldrhi	r2, [r0, #4]
 1339              	.L144:
 1340              	.LBE187:
 1341              	.LBE186:
 120:..\..\..\liblc3\src/lc3.c ****         nchannels * lc3_min_frame_bytes(dt, sr),
 1342              		.loc 1 120 0
 1343 00de 7243     		muls	r2, r6, r2
 1344 00e0 01E0     		b	.L135
 1345              	.LVL161:
 1346              	.L148:
 116:..\..\..\liblc3\src/lc3.c **** 
 1347              		.loc 1 116 0
 1348 00e2 4FF0FF32 		mov	r2, #-1
 1349              	.LVL162:
 1350              	.L135:
 123:..\..\..\liblc3\src/lc3.c **** 
 1351              		.loc 1 123 0
 1352 00e6 1046     		mov	r0, r2
 1353 00e8 F8BD     		pop	{r3, r4, r5, r6, r7, pc}
 1354              	.LVL163:
 1355              	.L158:
 1356 00ea 00BF     		.align	2
 1357              	.L157:
 1358 00ec FF075200 		.word	5375999
 1359 00f0 00085200 		.word	5376000
 1360 00f4 00000000 		.word	lc3_frame_bytes_hr_lim
 1361              		.cfi_endproc
 1362              	.LFE24:
 1363              		.size	lc3_hr_frame_block_bytes, .-lc3_hr_frame_block_bytes
 1364              		.section	.text.lc3_frame_bock_bytes,"ax",%progbits
 1365              		.align	1
 1366              		.global	lc3_frame_bock_bytes
 1367              		.thumb
 1368              		.thumb_func
 1369              		.type	lc3_frame_bock_bytes, %function
 1370              	lc3_frame_bock_bytes:
 1371              	.LFB25:
ARM GAS  C:\Users\rdn\AppData\Local\Temp\cckhx27q.s 			page 39


 126:..\..\..\liblc3\src/lc3.c ****     return lc3_hr_frame_block_bytes(false, dt_us, 8000, nchannels, bitrate);
 1372              		.loc 1 126 0
 1373              		.cfi_startproc
 1374              		@ args = 0, pretend = 0, frame = 0
 1375              		@ frame_needed = 0, uses_anonymous_args = 0
 1376              	.LVL164:
 1377 0000 07B5     		push	{r0, r1, r2, lr}
 1378              		.cfi_def_cfa_offset 16
 1379              		.cfi_offset 14, -4
 127:..\..\..\liblc3\src/lc3.c **** }
 1380              		.loc 1 127 0
 1381 0002 0B46     		mov	r3, r1
 1382 0004 0092     		str	r2, [sp]
 1383 0006 0146     		mov	r1, r0
 1384              	.LVL165:
 1385 0008 4FF4FA52 		mov	r2, #8000
 1386              	.LVL166:
 1387 000c 0020     		movs	r0, #0
 1388              	.LVL167:
 1389 000e FFF7FEFF 		bl	lc3_hr_frame_block_bytes
 1390              	.LVL168:
 128:..\..\..\liblc3\src/lc3.c **** 
 1391              		.loc 1 128 0
 1392 0012 03B0     		add	sp, sp, #12
 1393              		.cfi_def_cfa_offset 4
 1394              		@ sp needed
 1395 0014 5DF804FB 		ldr	pc, [sp], #4
 1396              		.cfi_endproc
 1397              	.LFE25:
 1398              		.size	lc3_frame_bock_bytes, .-lc3_frame_bock_bytes
 1399              		.section	.text.lc3_hr_frame_bytes,"ax",%progbits
 1400              		.align	1
 1401              		.global	lc3_hr_frame_bytes
 1402              		.thumb
 1403              		.thumb_func
 1404              		.type	lc3_hr_frame_bytes, %function
 1405              	lc3_hr_frame_bytes:
 1406              	.LFB26:
 132:..\..\..\liblc3\src/lc3.c ****     return lc3_hr_frame_block_bytes(hrmode, dt_us, sr_hz, 1, bitrate);
 1407              		.loc 1 132 0
 1408              		.cfi_startproc
 1409              		@ args = 0, pretend = 0, frame = 0
 1410              		@ frame_needed = 0, uses_anonymous_args = 0
 1411              	.LVL169:
 1412 0000 07B5     		push	{r0, r1, r2, lr}
 1413              		.cfi_def_cfa_offset 16
 1414              		.cfi_offset 14, -4
 133:..\..\..\liblc3\src/lc3.c **** }
 1415              		.loc 1 133 0
 1416 0002 0093     		str	r3, [sp]
 1417 0004 0123     		movs	r3, #1
 1418              	.LVL170:
 1419 0006 FFF7FEFF 		bl	lc3_hr_frame_block_bytes
 1420              	.LVL171:
 134:..\..\..\liblc3\src/lc3.c **** 
 1421              		.loc 1 134 0
 1422 000a 03B0     		add	sp, sp, #12
ARM GAS  C:\Users\rdn\AppData\Local\Temp\cckhx27q.s 			page 40


 1423              		.cfi_def_cfa_offset 4
 1424              		@ sp needed
 1425 000c 5DF804FB 		ldr	pc, [sp], #4
 1426              		.cfi_endproc
 1427              	.LFE26:
 1428              		.size	lc3_hr_frame_bytes, .-lc3_hr_frame_bytes
 1429              		.section	.text.lc3_frame_bytes,"ax",%progbits
 1430              		.align	1
 1431              		.global	lc3_frame_bytes
 1432              		.thumb
 1433              		.thumb_func
 1434              		.type	lc3_frame_bytes, %function
 1435              	lc3_frame_bytes:
 1436              	.LFB27:
 137:..\..\..\liblc3\src/lc3.c ****     return lc3_hr_frame_bytes(false, dt_us, 8000, bitrate);
 1437              		.loc 1 137 0
 1438              		.cfi_startproc
 1439              		@ args = 0, pretend = 0, frame = 0
 1440              		@ frame_needed = 0, uses_anonymous_args = 0
 1441              		@ link register save eliminated.
 1442              	.LVL172:
 138:..\..\..\liblc3\src/lc3.c **** }
 1443              		.loc 1 138 0
 1444 0000 0B46     		mov	r3, r1
 1445 0002 4FF4FA52 		mov	r2, #8000
 1446 0006 0146     		mov	r1, r0
 1447              	.LVL173:
 1448 0008 0020     		movs	r0, #0
 1449              	.LVL174:
 1450 000a FFF7FEBF 		b	lc3_hr_frame_bytes
 1451              	.LVL175:
 1452              		.cfi_endproc
 1453              	.LFE27:
 1454              		.size	lc3_frame_bytes, .-lc3_frame_bytes
 1455              		.global	__aeabi_ldivmod
 1456              		.section	.text.lc3_hr_resolve_bitrate,"ax",%progbits
 1457              		.align	1
 1458              		.global	lc3_hr_resolve_bitrate
 1459              		.thumb
 1460              		.thumb_func
 1461              		.type	lc3_hr_resolve_bitrate, %function
 1462              	lc3_hr_resolve_bitrate:
 1463              	.LFB28:
 146:..\..\..\liblc3\src/lc3.c ****     enum lc3_dt dt = resolve_dt(dt_us, hrmode);
 1464              		.loc 1 146 0
 1465              		.cfi_startproc
 1466              		@ args = 0, pretend = 0, frame = 0
 1467              		@ frame_needed = 0, uses_anonymous_args = 0
 1468              	.LVL176:
 1469 0000 70B5     		push	{r4, r5, r6, lr}
 1470              		.cfi_def_cfa_offset 16
 1471              		.cfi_offset 4, -16
 1472              		.cfi_offset 5, -12
 1473              		.cfi_offset 6, -8
 1474              		.cfi_offset 14, -4
 146:..\..\..\liblc3\src/lc3.c ****     enum lc3_dt dt = resolve_dt(dt_us, hrmode);
 1475              		.loc 1 146 0
ARM GAS  C:\Users\rdn\AppData\Local\Temp\cckhx27q.s 			page 41


 1476 0002 0646     		mov	r6, r0
 1477 0004 0846     		mov	r0, r1
 1478              	.LVL177:
 147:..\..\..\liblc3\src/lc3.c ****     enum lc3_srate sr = resolve_srate(sr_hz, hrmode);
 1479              		.loc 1 147 0
 1480 0006 3146     		mov	r1, r6
 1481              	.LVL178:
 146:..\..\..\liblc3\src/lc3.c ****     enum lc3_dt dt = resolve_dt(dt_us, hrmode);
 1482              		.loc 1 146 0
 1483 0008 1D46     		mov	r5, r3
 147:..\..\..\liblc3\src/lc3.c ****     enum lc3_srate sr = resolve_srate(sr_hz, hrmode);
 1484              		.loc 1 147 0
 1485 000a FFF7FEFF 		bl	resolve_dt
 1486              	.LVL179:
 148:..\..\..\liblc3\src/lc3.c **** 
 1487              		.loc 1 148 0
 1488 000e 3146     		mov	r1, r6
 147:..\..\..\liblc3\src/lc3.c ****     enum lc3_srate sr = resolve_srate(sr_hz, hrmode);
 1489              		.loc 1 147 0
 1490 0010 0446     		mov	r4, r0
 1491              	.LVL180:
 148:..\..\..\liblc3\src/lc3.c **** 
 1492              		.loc 1 148 0
 1493 0012 1046     		mov	r0, r2
 1494 0014 FFF7FEFF 		bl	resolve_srate
 1495              	.LVL181:
 150:..\..\..\liblc3\src/lc3.c ****         return -1;
 1496              		.loc 1 150 0
 1497 0018 032C     		cmp	r4, #3
 1498 001a 16D8     		bhi	.L167
 150:..\..\..\liblc3\src/lc3.c ****         return -1;
 1499              		.loc 1 150 0 is_stmt 0 discriminator 1
 1500 001c 0628     		cmp	r0, #6
 1501 001e 14D8     		bhi	.L167
 150:..\..\..\liblc3\src/lc3.c ****         return -1;
 1502              		.loc 1 150 0 discriminator 2
 1503 0020 002D     		cmp	r5, #0
 1504 0022 12DB     		blt	.L167
 153:..\..\..\liblc3\src/lc3.c **** }
 1505              		.loc 1 153 0 is_stmt 1
 1506 0024 621C     		adds	r2, r4, #1
 1507 0026 E0B2     		uxtb	r0, r4
 1508              	.LVL182:
 1509 0028 4FF44863 		mov	r3, #3200
 1510 002c 0021     		movs	r1, #0
 1511 002e C3FB0501 		smlal	r0, r1, r3, r5
 1512 0032 D317     		asrs	r3, r2, #31
 1513 0034 FFF7FEFF 		bl	__aeabi_ldivmod
 1514              	.LVL183:
 1515 0038 6FF00042 		mvn	r2, #-2147483648
 1516 003c 0023     		movs	r3, #0
 1517 003e 8242     		cmp	r2, r0
 1518 0040 73EB0104 		sbcs	r4, r3, r1
 1519              	.LVL184:
 1520 0044 03DA     		bge	.L163
 1521 0046 1046     		mov	r0, r2
 1522 0048 70BD     		pop	{r4, r5, r6, pc}
ARM GAS  C:\Users\rdn\AppData\Local\Temp\cckhx27q.s 			page 42


 1523              	.LVL185:
 1524              	.L167:
 151:..\..\..\liblc3\src/lc3.c **** 
 1525              		.loc 1 151 0
 1526 004a 4FF0FF30 		mov	r0, #-1
 1527              	.LVL186:
 1528              	.L163:
 154:..\..\..\liblc3\src/lc3.c **** 
 1529              		.loc 1 154 0
 1530 004e 70BD     		pop	{r4, r5, r6, pc}
 1531              		.cfi_endproc
 1532              	.LFE28:
 1533              		.size	lc3_hr_resolve_bitrate, .-lc3_hr_resolve_bitrate
 1534              		.section	.text.lc3_resolve_bitrate,"ax",%progbits
 1535              		.align	1
 1536              		.global	lc3_resolve_bitrate
 1537              		.thumb
 1538              		.thumb_func
 1539              		.type	lc3_resolve_bitrate, %function
 1540              	lc3_resolve_bitrate:
 1541              	.LFB29:
 157:..\..\..\liblc3\src/lc3.c ****     return lc3_hr_resolve_bitrate(false, dt_us, 8000, nbytes);
 1542              		.loc 1 157 0
 1543              		.cfi_startproc
 1544              		@ args = 0, pretend = 0, frame = 0
 1545              		@ frame_needed = 0, uses_anonymous_args = 0
 1546              		@ link register save eliminated.
 1547              	.LVL187:
 158:..\..\..\liblc3\src/lc3.c **** }
 1548              		.loc 1 158 0
 1549 0000 0B46     		mov	r3, r1
 1550 0002 4FF4FA52 		mov	r2, #8000
 1551 0006 0146     		mov	r1, r0
 1552              	.LVL188:
 1553 0008 0020     		movs	r0, #0
 1554              	.LVL189:
 1555 000a FFF7FEBF 		b	lc3_hr_resolve_bitrate
 1556              	.LVL190:
 1557              		.cfi_endproc
 1558              	.LFE29:
 1559              		.size	lc3_resolve_bitrate, .-lc3_resolve_bitrate
 1560              		.section	.text.lc3_hr_delay_samples,"ax",%progbits
 1561              		.align	1
 1562              		.global	lc3_hr_delay_samples
 1563              		.thumb
 1564              		.thumb_func
 1565              		.type	lc3_hr_delay_samples, %function
 1566              	lc3_hr_delay_samples:
 1567              	.LFB30:
 165:..\..\..\liblc3\src/lc3.c ****     enum lc3_dt dt = resolve_dt(dt_us, hrmode);
 1568              		.loc 1 165 0
 1569              		.cfi_startproc
 1570              		@ args = 0, pretend = 0, frame = 0
 1571              		@ frame_needed = 0, uses_anonymous_args = 0
 1572              	.LVL191:
 1573 0000 38B5     		push	{r3, r4, r5, lr}
 1574              		.cfi_def_cfa_offset 16
ARM GAS  C:\Users\rdn\AppData\Local\Temp\cckhx27q.s 			page 43


 1575              		.cfi_offset 3, -16
 1576              		.cfi_offset 4, -12
 1577              		.cfi_offset 5, -8
 1578              		.cfi_offset 14, -4
 165:..\..\..\liblc3\src/lc3.c ****     enum lc3_dt dt = resolve_dt(dt_us, hrmode);
 1579              		.loc 1 165 0
 1580 0002 0546     		mov	r5, r0
 1581 0004 0846     		mov	r0, r1
 1582              	.LVL192:
 166:..\..\..\liblc3\src/lc3.c ****     enum lc3_srate sr = resolve_srate(sr_hz, hrmode);
 1583              		.loc 1 166 0
 1584 0006 2946     		mov	r1, r5
 1585              	.LVL193:
 1586 0008 FFF7FEFF 		bl	resolve_dt
 1587              	.LVL194:
 167:..\..\..\liblc3\src/lc3.c **** 
 1588              		.loc 1 167 0
 1589 000c 2946     		mov	r1, r5
 166:..\..\..\liblc3\src/lc3.c ****     enum lc3_srate sr = resolve_srate(sr_hz, hrmode);
 1590              		.loc 1 166 0
 1591 000e 0446     		mov	r4, r0
 1592              	.LVL195:
 167:..\..\..\liblc3\src/lc3.c **** 
 1593              		.loc 1 167 0
 1594 0010 1046     		mov	r0, r2
 1595 0012 FFF7FEFF 		bl	resolve_srate
 1596              	.LVL196:
 169:..\..\..\liblc3\src/lc3.c ****         return -1;
 1597              		.loc 1 169 0
 1598 0016 032C     		cmp	r4, #3
 1599 0018 10D8     		bhi	.L173
 169:..\..\..\liblc3\src/lc3.c ****         return -1;
 1600              		.loc 1 169 0 is_stmt 0 discriminator 1
 1601 001a 0628     		cmp	r0, #6
 1602 001c 0ED8     		bhi	.L173
 1603              	.LVL197:
 1604              	.LBB194:
 1605              	.LBB195:
 1606              	.LBB196:
 1607              	.LBB197:
  47:..\..\..\liblc3\src/tables.h **** }
 1608              		.loc 2 47 0 is_stmt 1
 1609 001e 094B     		ldr	r3, .L174
 1610 0020 53F82030 		ldr	r3, [r3, r0, lsl #2]
 1611              	.LBE197:
 1612              	.LBE196:
  56:..\..\..\liblc3\src/tables.h **** }
 1613              		.loc 2 56 0
 1614 0024 022C     		cmp	r4, #2
 1615              	.LBB199:
 1616              	.LBB198:
  47:..\..\..\liblc3\src/tables.h **** }
 1617              		.loc 2 47 0
 1618 0026 04FB0332 		mla	r2, r4, r3, r3
 1619              	.LVL198:
 1620              	.LBE198:
 1621              	.LBE199:
ARM GAS  C:\Users\rdn\AppData\Local\Temp\cckhx27q.s 			page 44


  56:..\..\..\liblc3\src/tables.h **** }
 1622              		.loc 2 56 0
 1623 002a 04BF     		itt	eq
 1624 002c 064B     		ldreq	r3, .L174+4
 1625 002e 53F82030 		ldreq	r3, [r3, r0, lsl #2]
 1626              	.LVL199:
 1627              	.LBE195:
 1628              	.LBE194:
 172:..\..\..\liblc3\src/lc3.c **** }
 1629              		.loc 1 172 0
 1630 0032 1344     		add	r3, r3, r2
 1631 0034 23F00103 		bic	r3, r3, #1
 1632 0038 981A     		subs	r0, r3, r2
 1633              	.LVL200:
 1634 003a 38BD     		pop	{r3, r4, r5, pc}
 1635              	.LVL201:
 1636              	.L173:
 170:..\..\..\liblc3\src/lc3.c **** 
 1637              		.loc 1 170 0
 1638 003c 4FF0FF30 		mov	r0, #-1
 1639              	.LVL202:
 173:..\..\..\liblc3\src/lc3.c **** 
 1640              		.loc 1 173 0
 1641 0040 38BD     		pop	{r3, r4, r5, pc}
 1642              	.LVL203:
 1643              	.L175:
 1644 0042 00BF     		.align	2
 1645              	.L174:
 1646 0044 00000000 		.word	lc3_ns_2m5
 1647 0048 00000000 		.word	lc3_ns_4m
 1648              		.cfi_endproc
 1649              	.LFE30:
 1650              		.size	lc3_hr_delay_samples, .-lc3_hr_delay_samples
 1651              		.section	.text.lc3_delay_samples,"ax",%progbits
 1652              		.align	1
 1653              		.global	lc3_delay_samples
 1654              		.thumb
 1655              		.thumb_func
 1656              		.type	lc3_delay_samples, %function
 1657              	lc3_delay_samples:
 1658              	.LFB31:
 176:..\..\..\liblc3\src/lc3.c ****     return lc3_hr_delay_samples(false, dt_us, sr_hz);
 1659              		.loc 1 176 0
 1660              		.cfi_startproc
 1661              		@ args = 0, pretend = 0, frame = 0
 1662              		@ frame_needed = 0, uses_anonymous_args = 0
 1663              		@ link register save eliminated.
 1664              	.LVL204:
 177:..\..\..\liblc3\src/lc3.c **** }
 1665              		.loc 1 177 0
 1666 0000 0A46     		mov	r2, r1
 1667 0002 0146     		mov	r1, r0
 1668              	.LVL205:
 1669 0004 0020     		movs	r0, #0
 1670              	.LVL206:
 1671 0006 FFF7FEBF 		b	lc3_hr_delay_samples
 1672              	.LVL207:
ARM GAS  C:\Users\rdn\AppData\Local\Temp\cckhx27q.s 			page 45


 1673              		.cfi_endproc
 1674              	.LFE31:
 1675              		.size	lc3_delay_samples, .-lc3_delay_samples
 1676              		.section	.text.lc3_hr_encoder_size,"ax",%progbits
 1677              		.align	1
 1678              		.global	lc3_hr_encoder_size
 1679              		.thumb
 1680              		.thumb_func
 1681              		.type	lc3_hr_encoder_size, %function
 1682              	lc3_hr_encoder_size:
 1683              	.LFB38:
 372:..\..\..\liblc3\src/lc3.c ****     if (resolve_dt(dt_us, hrmode) >= LC3_NUM_DT ||
 1684              		.loc 1 372 0
 1685              		.cfi_startproc
 1686              		@ args = 0, pretend = 0, frame = 0
 1687              		@ frame_needed = 0, uses_anonymous_args = 0
 1688              	.LVL208:
 1689 0000 70B5     		push	{r4, r5, r6, lr}
 1690              		.cfi_def_cfa_offset 16
 1691              		.cfi_offset 4, -16
 1692              		.cfi_offset 5, -12
 1693              		.cfi_offset 6, -8
 1694              		.cfi_offset 14, -4
 372:..\..\..\liblc3\src/lc3.c ****     if (resolve_dt(dt_us, hrmode) >= LC3_NUM_DT ||
 1695              		.loc 1 372 0
 1696 0002 0C46     		mov	r4, r1
 1697 0004 0546     		mov	r5, r0
 373:..\..\..\liblc3\src/lc3.c ****         resolve_srate(sr_hz, hrmode) >= LC3_NUM_SRATE)
 1698              		.loc 1 373 0
 1699 0006 0146     		mov	r1, r0
 1700              	.LVL209:
 1701 0008 2046     		mov	r0, r4
 1702              	.LVL210:
 1703 000a FFF7FEFF 		bl	resolve_dt
 1704              	.LVL211:
 1705 000e 0328     		cmp	r0, #3
 1706 0010 27D8     		bhi	.L181
 374:..\..\..\liblc3\src/lc3.c ****         return 0;
 1707              		.loc 1 374 0 discriminator 1
 1708 0012 2946     		mov	r1, r5
 1709 0014 1046     		mov	r0, r2
 1710 0016 FFF7FEFF 		bl	resolve_srate
 1711              	.LVL212:
 373:..\..\..\liblc3\src/lc3.c ****         resolve_srate(sr_hz, hrmode) >= LC3_NUM_SRATE)
 1712              		.loc 1 373 0 discriminator 1
 1713 001a 0628     		cmp	r0, #6
 1714 001c 21D8     		bhi	.L181
 1715              	.LVL213:
 1716              	.LBB202:
 1717              	.LBB203:
 378:..\..\..\liblc3\src/lc3.c **** }
 1718              		.loc 1 378 0
 1719 001e 02FB04F5 		mul	r5, r2, r4
 1720              	.LVL214:
 1721 0022 114E     		ldr	r6, .L183
 1722 0024 95FBF6F3 		sdiv	r3, r5, r6
 1723 0028 4FF44871 		mov	r1, #800
ARM GAS  C:\Users\rdn\AppData\Local\Temp\cckhx27q.s 			page 46


 1724 002c 0220     		movs	r0, #2
 1725 002e 92FBF1F1 		sdiv	r1, r2, r1
 1726 0032 1944     		add	r1, r1, r3
 1727 0034 91FBF0F0 		sdiv	r0, r1, r0
 1728 0038 40F2E241 		movw	r1, #1250
 1729 003c 0344     		add	r3, r3, r0
 1730 003e 0B48     		ldr	r0, .L183+4
 1731 0040 95FBF0F0 		sdiv	r0, r5, r0
 1732 0044 41F64C55 		movw	r5, #7500
 1733 0048 AC42     		cmp	r4, r5
 1734 004a 08BF     		it	eq
 1735 004c 4FF4FA61 		moveq	r1, #2000
 377:..\..\..\liblc3\src/lc3.c ****         (LC3_ENCODER_BUFFER_COUNT(dt_us, sr_hz)-1) * sizeof(float);
 1736              		.loc 1 377 0
 1737 0050 4A43     		muls	r2, r1, r2
 1738              	.LVL215:
 1739 0052 92FBF6F2 		sdiv	r2, r2, r6
 1740 0056 1044     		add	r0, r0, r2
 1741 0058 1844     		add	r0, r0, r3
 1742 005a 00F22B10 		addw	r0, r0, #299
 1743 005e 8000     		lsls	r0, r0, #2
 1744              	.LVL216:
 1745 0060 70BD     		pop	{r4, r5, r6, pc}
 1746              	.LVL217:
 1747              	.L181:
 1748              	.LBE203:
 1749              	.LBE202:
 375:..\..\..\liblc3\src/lc3.c **** 
 1750              		.loc 1 375 0
 1751 0062 0020     		movs	r0, #0
 379:..\..\..\liblc3\src/lc3.c **** 
 1752              		.loc 1 379 0
 1753 0064 70BD     		pop	{r4, r5, r6, pc}
 1754              	.LVL218:
 1755              	.L184:
 1756 0066 00BF     		.align	2
 1757              	.L183:
 1758 0068 40420F00 		.word	1000000
 1759 006c 80841E00 		.word	2000000
 1760              		.cfi_endproc
 1761              	.LFE38:
 1762              		.size	lc3_hr_encoder_size, .-lc3_hr_encoder_size
 1763              		.section	.text.lc3_encoder_size,"ax",%progbits
 1764              		.align	1
 1765              		.global	lc3_encoder_size
 1766              		.thumb
 1767              		.thumb_func
 1768              		.type	lc3_encoder_size, %function
 1769              	lc3_encoder_size:
 1770              	.LFB39:
 382:..\..\..\liblc3\src/lc3.c ****     return lc3_hr_encoder_size(false, dt_us, sr_hz);
 1771              		.loc 1 382 0
 1772              		.cfi_startproc
 1773              		@ args = 0, pretend = 0, frame = 0
 1774              		@ frame_needed = 0, uses_anonymous_args = 0
 1775              		@ link register save eliminated.
 1776              	.LVL219:
ARM GAS  C:\Users\rdn\AppData\Local\Temp\cckhx27q.s 			page 47


 383:..\..\..\liblc3\src/lc3.c **** }
 1777              		.loc 1 383 0
 1778 0000 0A46     		mov	r2, r1
 1779 0002 0146     		mov	r1, r0
 1780              	.LVL220:
 1781 0004 0020     		movs	r0, #0
 1782              	.LVL221:
 1783 0006 FFF7FEBF 		b	lc3_hr_encoder_size
 1784              	.LVL222:
 1785              		.cfi_endproc
 1786              	.LFE39:
 1787              		.size	lc3_encoder_size, .-lc3_encoder_size
 1788              		.section	.text.lc3_hr_setup_encoder,"ax",%progbits
 1789              		.align	1
 1790              		.global	lc3_hr_setup_encoder
 1791              		.thumb
 1792              		.thumb_func
 1793              		.type	lc3_hr_setup_encoder, %function
 1794              	lc3_hr_setup_encoder:
 1795              	.LFB40:
 391:..\..\..\liblc3\src/lc3.c ****     if (sr_pcm_hz <= 0)
 1796              		.loc 1 391 0
 1797              		.cfi_startproc
 1798              		@ args = 4, pretend = 0, frame = 8
 1799              		@ frame_needed = 0, uses_anonymous_args = 0
 1800              	.LVL223:
 1801 0000 2DE9F74F 		push	{r0, r1, r2, r4, r5, r6, r7, r8, r9, r10, fp, lr}
 1802              		.cfi_def_cfa_offset 48
 1803              		.cfi_offset 4, -36
 1804              		.cfi_offset 5, -32
 1805              		.cfi_offset 6, -28
 1806              		.cfi_offset 7, -24
 1807              		.cfi_offset 8, -20
 1808              		.cfi_offset 9, -16
 1809              		.cfi_offset 10, -12
 1810              		.cfi_offset 11, -8
 1811              		.cfi_offset 14, -4
 391:..\..\..\liblc3\src/lc3.c ****     if (sr_pcm_hz <= 0)
 1812              		.loc 1 391 0
 1813 0004 8A46     		mov	r10, r1
 1814 0006 0546     		mov	r5, r0
 395:..\..\..\liblc3\src/lc3.c ****     enum lc3_srate sr = resolve_srate(sr_hz, hrmode);
 1815              		.loc 1 395 0
 1816 0008 0146     		mov	r1, r0
 1817              	.LVL224:
 1818 000a 5046     		mov	r0, r10
 1819              	.LVL225:
 393:..\..\..\liblc3\src/lc3.c **** 
 1820              		.loc 1 393 0
 1821 000c 002B     		cmp	r3, #0
 1822 000e CCBF     		ite	gt
 1823 0010 1E46     		movgt	r6, r3
 1824 0012 1646     		movle	r6, r2
 1825              	.LVL226:
 395:..\..\..\liblc3\src/lc3.c ****     enum lc3_srate sr = resolve_srate(sr_hz, hrmode);
 1826              		.loc 1 395 0
 1827 0014 FFF7FEFF 		bl	resolve_dt
ARM GAS  C:\Users\rdn\AppData\Local\Temp\cckhx27q.s 			page 48


 1828              	.LVL227:
 396:..\..\..\liblc3\src/lc3.c ****     enum lc3_srate sr_pcm = resolve_srate(sr_pcm_hz, hrmode);
 1829              		.loc 1 396 0
 1830 0018 2946     		mov	r1, r5
 395:..\..\..\liblc3\src/lc3.c ****     enum lc3_srate sr = resolve_srate(sr_hz, hrmode);
 1831              		.loc 1 395 0
 1832 001a 0746     		mov	r7, r0
 1833              	.LVL228:
 396:..\..\..\liblc3\src/lc3.c ****     enum lc3_srate sr_pcm = resolve_srate(sr_pcm_hz, hrmode);
 1834              		.loc 1 396 0
 1835 001c 1046     		mov	r0, r2
 1836 001e FFF7FEFF 		bl	resolve_srate
 1837              	.LVL229:
 397:..\..\..\liblc3\src/lc3.c **** 
 1838              		.loc 1 397 0
 1839 0022 2946     		mov	r1, r5
 396:..\..\..\liblc3\src/lc3.c ****     enum lc3_srate sr_pcm = resolve_srate(sr_pcm_hz, hrmode);
 1840              		.loc 1 396 0
 1841 0024 8346     		mov	fp, r0
 1842              	.LVL230:
 397:..\..\..\liblc3\src/lc3.c **** 
 1843              		.loc 1 397 0
 1844 0026 3046     		mov	r0, r6
 1845 0028 FFF7FEFF 		bl	resolve_srate
 1846              	.LVL231:
 399:..\..\..\liblc3\src/lc3.c ****         return NULL;
 1847              		.loc 1 399 0
 1848 002c 032F     		cmp	r7, #3
 391:..\..\..\liblc3\src/lc3.c ****     if (sr_pcm_hz <= 0)
 1849              		.loc 1 391 0
 1850 002e 0C9C     		ldr	r4, [sp, #48]
 397:..\..\..\liblc3\src/lc3.c **** 
 1851              		.loc 1 397 0
 1852 0030 8146     		mov	r9, r0
 1853              	.LVL232:
 399:..\..\..\liblc3\src/lc3.c ****         return NULL;
 1854              		.loc 1 399 0
 1855 0032 4CD8     		bhi	.L192
 399:..\..\..\liblc3\src/lc3.c ****         return NULL;
 1856              		.loc 1 399 0 is_stmt 0 discriminator 1
 1857 0034 0628     		cmp	r0, #6
 1858 0036 4AD8     		bhi	.L192
 399:..\..\..\liblc3\src/lc3.c ****         return NULL;
 1859              		.loc 1 399 0 discriminator 2
 1860 0038 8345     		cmp	fp, r0
 1861 003a 48D8     		bhi	.L192
 399:..\..\..\liblc3\src/lc3.c ****         return NULL;
 1862              		.loc 1 399 0 discriminator 3
 1863 003c 002C     		cmp	r4, #0
 1864 003e 48D0     		beq	.L193
 1865              	.LVL233:
 1866              	.LBB204:
 1867              	.LBB205:
  47:..\..\..\liblc3\src/tables.h **** }
 1868              		.loc 2 47 0 is_stmt 1
 1869 0040 264A     		ldr	r2, .L195
 1870 0042 52F82050 		ldr	r5, [r2, r0, lsl #2]
ARM GAS  C:\Users\rdn\AppData\Local\Temp\cckhx27q.s 			page 49


 1871              	.LBE205:
 1872              	.LBE204:
 406:..\..\..\liblc3\src/lc3.c ****         .dt = dt, .sr = sr,
 1873              		.loc 1 406 0
 1874 0046 0021     		movs	r1, #0
 1875              	.LBB207:
 1876              	.LBB206:
  47:..\..\..\liblc3\src/tables.h **** }
 1877              		.loc 2 47 0
 1878 0048 07FB0553 		mla	r3, r7, r5, r5
 1879              	.LVL234:
 1880              	.LBE206:
 1881              	.LBE207:
 406:..\..\..\liblc3\src/lc3.c ****         .dt = dt, .sr = sr,
 1882              		.loc 1 406 0
 1883 004c 4FF49662 		mov	r2, #1200
 1884              	.LBB208:
 1885              	.LBB209:
  65:..\..\..\liblc3\src/tables.h **** }
 1886              		.loc 2 65 0
 1887 0050 6D10     		asrs	r5, r5, #1
 1888              	.LVL235:
 1889              	.LBE209:
 1890              	.LBE208:
 406:..\..\..\liblc3\src/lc3.c ****         .dt = dt, .sr = sr,
 1891              		.loc 1 406 0
 1892 0052 2046     		mov	r0, r4
 1893              	.LVL236:
 412:..\..\..\liblc3\src/lc3.c ****     };
 1894              		.loc 1 412 0
 1895 0054 05EB0308 		add	r8, r5, r3
 1896 0058 0193     		str	r3, [sp, #4]
 1897 005a 0223     		movs	r3, #2
 1898 005c 98FBF3F8 		sdiv	r8, r8, r3
 406:..\..\..\liblc3\src/lc3.c ****         .dt = dt, .sr = sr,
 1899              		.loc 1 406 0
 1900 0060 FFF7FEFF 		bl	memset
 1901              	.LVL237:
 1902 0064 019B     		ldr	r3, [sp, #4]
 416:..\..\..\liblc3\src/lc3.c **** 
 1903              		.loc 1 416 0
 1904 0066 1E48     		ldr	r0, .L195+4
 406:..\..\..\liblc3\src/lc3.c ****         .dt = dt, .sr = sr,
 1905              		.loc 1 406 0
 1906 0068 2770     		strb	r7, [r4]
 416:..\..\..\liblc3\src/lc3.c **** 
 1907              		.loc 1 416 0
 1908 006a 0AFB06F2 		mul	r2, r10, r6
 406:..\..\..\liblc3\src/lc3.c ****         .dt = dt, .sr = sr,
 1909              		.loc 1 406 0
 1910 006e 08EB0307 		add	r7, r8, r3
 1911              	.LVL238:
 416:..\..\..\liblc3\src/lc3.c **** 
 1912              		.loc 1 416 0
 1913 0072 92FBF0F1 		sdiv	r1, r2, r0
 406:..\..\..\liblc3\src/lc3.c ****         .dt = dt, .sr = sr,
 1914              		.loc 1 406 0
ARM GAS  C:\Users\rdn\AppData\Local\Temp\cckhx27q.s 			page 50


 1915 0076 C4F8A054 		str	r5, [r4, #1184]
 416:..\..\..\liblc3\src/lc3.c **** 
 1916              		.loc 1 416 0
 1917 007a 4FF44873 		mov	r3, #800
 1918 007e 0225     		movs	r5, #2
 1919 0080 96FBF3F3 		sdiv	r3, r6, r3
 1920 0084 0B44     		add	r3, r3, r1
 1921 0086 93FBF5F3 		sdiv	r3, r3, r5
 1922 008a 41F64C55 		movw	r5, #7500
 1923 008e 1944     		add	r1, r1, r3
 1924 0090 144B     		ldr	r3, .L195+8
 1925 0092 92FBF3F2 		sdiv	r2, r2, r3
 1926 0096 40F2E243 		movw	r3, #1250
 1927 009a AA45     		cmp	r10, r5
 1928 009c 14BF     		ite	ne
 1929 009e 9A46     		movne	r10, r3
 1930 00a0 4FF4FA6A 		moveq	r10, #2000
 1931              	.LVL239:
 415:..\..\..\liblc3\src/lc3.c ****         LC3_ENCODER_BUFFER_COUNT(dt_us, sr_pcm_hz) * sizeof(float));
 1932              		.loc 1 415 0
 1933 00a4 0AFB06F6 		mul	r6, r10, r6
 1934              	.LVL240:
 1935 00a8 96FBF0F6 		sdiv	r6, r6, r0
 1936 00ac 3244     		add	r2, r2, r6
 1937 00ae 0A44     		add	r2, r2, r1
 406:..\..\..\liblc3\src/lc3.c ****         .dt = dt, .sr = sr,
 1938              		.loc 1 406 0
 1939 00b0 84F801B0 		strb	fp, [r4, #1]
 1940 00b4 84F80290 		strb	r9, [r4, #2]
 1941 00b8 C4F8A484 		str	r8, [r4, #1188]
 1942 00bc C4F8A874 		str	r7, [r4, #1192]
 415:..\..\..\liblc3\src/lc3.c ****         LC3_ENCODER_BUFFER_COUNT(dt_us, sr_pcm_hz) * sizeof(float));
 1943              		.loc 1 415 0
 1944 00c0 9200     		lsls	r2, r2, #2
 1945 00c2 0021     		movs	r1, #0
 1946 00c4 04F2AC40 		addw	r0, r4, #1196
 1947 00c8 FFF7FEFF 		bl	memset
 1948              	.LVL241:
 1949 00cc 01E0     		b	.L193
 1950              	.LVL242:
 1951              	.L192:
 400:..\..\..\liblc3\src/lc3.c **** 
 1952              		.loc 1 400 0
 1953 00ce 0020     		movs	r0, #0
 1954              	.LVL243:
 1955 00d0 00E0     		b	.L188
 1956              	.LVL244:
 1957              	.L193:
 1958 00d2 2046     		mov	r0, r4
 1959              	.L188:
 419:..\..\..\liblc3\src/lc3.c **** 
 1960              		.loc 1 419 0
 1961 00d4 03B0     		add	sp, sp, #12
 1962              		.cfi_def_cfa_offset 36
 1963              		@ sp needed
 1964 00d6 BDE8F08F 		pop	{r4, r5, r6, r7, r8, r9, r10, fp, pc}
 1965              	.LVL245:
ARM GAS  C:\Users\rdn\AppData\Local\Temp\cckhx27q.s 			page 51


 1966              	.L196:
 1967 00da 00BF     		.align	2
 1968              	.L195:
 1969 00dc 00000000 		.word	lc3_ns_2m5
 1970 00e0 40420F00 		.word	1000000
 1971 00e4 80841E00 		.word	2000000
 1972              		.cfi_endproc
 1973              	.LFE40:
 1974              		.size	lc3_hr_setup_encoder, .-lc3_hr_setup_encoder
 1975              		.section	.text.lc3_setup_encoder,"ax",%progbits
 1976              		.align	1
 1977              		.global	lc3_setup_encoder
 1978              		.thumb
 1979              		.thumb_func
 1980              		.type	lc3_setup_encoder, %function
 1981              	lc3_setup_encoder:
 1982              	.LFB41:
 423:..\..\..\liblc3\src/lc3.c ****     return lc3_hr_setup_encoder(false, dt_us, sr_hz, sr_pcm_hz, mem);
 1983              		.loc 1 423 0
 1984              		.cfi_startproc
 1985              		@ args = 0, pretend = 0, frame = 0
 1986              		@ frame_needed = 0, uses_anonymous_args = 0
 1987              	.LVL246:
 1988 0000 07B5     		push	{r0, r1, r2, lr}
 1989              		.cfi_def_cfa_offset 16
 1990              		.cfi_offset 14, -4
 424:..\..\..\liblc3\src/lc3.c **** }
 1991              		.loc 1 424 0
 1992 0002 0093     		str	r3, [sp]
 1993 0004 1346     		mov	r3, r2
 1994              	.LVL247:
 1995 0006 0A46     		mov	r2, r1
 1996              	.LVL248:
 1997 0008 0146     		mov	r1, r0
 1998              	.LVL249:
 1999 000a 0020     		movs	r0, #0
 2000              	.LVL250:
 2001 000c FFF7FEFF 		bl	lc3_hr_setup_encoder
 2002              	.LVL251:
 425:..\..\..\liblc3\src/lc3.c **** 
 2003              		.loc 1 425 0
 2004 0010 03B0     		add	sp, sp, #12
 2005              		.cfi_def_cfa_offset 4
 2006              		@ sp needed
 2007 0012 5DF804FB 		ldr	pc, [sp], #4
 2008              		.cfi_endproc
 2009              	.LFE41:
 2010              		.size	lc3_setup_encoder, .-lc3_setup_encoder
 2011              		.section	.text.lc3_encode,"ax",%progbits
 2012              		.align	1
 2013              		.global	lc3_encode
 2014              		.thumb
 2015              		.thumb_func
 2016              		.type	lc3_encode, %function
 2017              	lc3_encode:
 2018              	.LFB42:
 432:..\..\..\liblc3\src/lc3.c ****     static void (* const load[])(struct lc3_encoder *, const void *, int) = {
ARM GAS  C:\Users\rdn\AppData\Local\Temp\cckhx27q.s 			page 52


 2019              		.loc 1 432 0
 2020              		.cfi_startproc
 2021              		@ args = 8, pretend = 0, frame = 408
 2022              		@ frame_needed = 0, uses_anonymous_args = 0
 2023              	.LVL252:
 2024 0000 2DE9F04F 		push	{r4, r5, r6, r7, r8, r9, r10, fp, lr}
 2025              		.cfi_def_cfa_offset 36
 2026              		.cfi_offset 4, -36
 2027              		.cfi_offset 5, -32
 2028              		.cfi_offset 6, -28
 2029              		.cfi_offset 7, -24
 2030              		.cfi_offset 8, -20
 2031              		.cfi_offset 9, -16
 2032              		.cfi_offset 10, -12
 2033              		.cfi_offset 11, -8
 2034              		.cfi_offset 14, -4
 2035 0004 EBB0     		sub	sp, sp, #428
 2036              		.cfi_def_cfa_offset 464
 432:..\..\..\liblc3\src/lc3.c ****     static void (* const load[])(struct lc3_encoder *, const void *, int) = {
 2037              		.loc 1 432 0
 2038 0006 9646     		mov	lr, r2
 2039 0008 749D     		ldr	r5, [sp, #464]
 442:..\..\..\liblc3\src/lc3.c ****                  || nbytes > lc3_max_frame_bytes(encoder->dt, encoder->sr))
 2040              		.loc 1 442 0
 2041 000a 0446     		mov	r4, r0
 2042 000c 0028     		cmp	r0, #0
 2043 000e 00F0E580 		beq	.L209
 442:..\..\..\liblc3\src/lc3.c ****                  || nbytes > lc3_max_frame_bytes(encoder->dt, encoder->sr))
 2044              		.loc 1 442 0 is_stmt 0 discriminator 1
 2045 0012 4678     		ldrb	r6, [r0, #1]	@ zero_extendqisi2
 2046              	.LVL253:
 2047              	.LBB226:
 2048              	.LBB227:
  82:..\..\..\liblc3\src/tables.h ****         lc3_frame_bytes_hr_lim[dt][sr - LC3_SRATE_48K_HR][0];
 2049              		.loc 2 82 0 is_stmt 1 discriminator 1
 2050 0014 042E     		cmp	r6, #4
 2051 0016 40F2E480 		bls	.L200
  82:..\..\..\liblc3\src/tables.h ****         lc3_frame_bytes_hr_lim[dt][sr - LC3_SRATE_48K_HR][0];
 2052              		.loc 2 82 0 is_stmt 0
 2053 001a 0078     		ldrb	r0, [r0]	@ zero_extendqisi2
 2054              	.LVL254:
 2055 001c 754F     		ldr	r7, .L217
  83:..\..\..\liblc3\src/tables.h **** }
 2056              		.loc 2 83 0 is_stmt 1
 2057 001e 053E     		subs	r6, r6, #5
 2058              	.LVL255:
  82:..\..\..\liblc3\src/tables.h ****         lc3_frame_bytes_hr_lim[dt][sr - LC3_SRATE_48K_HR][0];
 2059              		.loc 2 82 0
 2060 0020 06EB4000 		add	r0, r6, r0, lsl #1
 2061              	.LBE227:
 2062              	.LBE226:
 442:..\..\..\liblc3\src/lc3.c ****                  || nbytes > lc3_max_frame_bytes(encoder->dt, encoder->sr))
 2063              		.loc 1 442 0
 2064 0024 57F83020 		ldr	r2, [r7, r0, lsl #3]
 2065              	.LVL256:
 2066 0028 9542     		cmp	r5, r2
 2067 002a C0F2D780 		blt	.L209
ARM GAS  C:\Users\rdn\AppData\Local\Temp\cckhx27q.s 			page 53


 2068              	.LVL257:
 2069              	.LBB228:
 2070              	.LBB229:
 2071              		.loc 2 87 0
 2072 002e 07EBC000 		add	r0, r7, r0, lsl #3
 2073 0032 4068     		ldr	r0, [r0, #4]
 2074              	.LVL258:
 2075              	.L205:
 2076              	.LBE229:
 2077              	.LBE228:
 443:..\..\..\liblc3\src/lc3.c ****         return -1;
 2078              		.loc 1 443 0
 2079 0034 8542     		cmp	r5, r0
 2080 0036 00F3D180 		bgt	.L209
 450:..\..\..\liblc3\src/lc3.c **** 
 2081              		.loc 1 450 0
 2082 003a 6F4A     		ldr	r2, .L217+4
 2083 003c 2046     		mov	r0, r4
 2084 003e 52F82160 		ldr	r6, [r2, r1, lsl #2]
 2085 0042 7146     		mov	r1, lr
 2086              	.LVL259:
 2087 0044 1A46     		mov	r2, r3
 2088 0046 B047     		blx	r6
 2089              	.LVL260:
 2090              	.LBB231:
 2091              	.LBB232:
 292:..\..\..\liblc3\src/lc3.c ****     float *xs = encoder->x + encoder->xs_off;
 2092              		.loc 1 292 0
 2093 0048 04F2AC43 		addw	r3, r4, #1196
 2094 004c D4F8A064 		ldr	r6, [r4, #1184]
 2095 0050 0493     		str	r3, [sp, #16]
 2096 0052 03EB4606 		add	r6, r3, r6, lsl #1
 293:..\..\..\liblc3\src/lc3.c ****     int ns = lc3_ns(dt, sr_pcm);
 2097              		.loc 1 293 0
 2098 0056 049A     		ldr	r2, [sp, #16]
 2099 0058 D4F8A434 		ldr	r3, [r4, #1188]
 290:..\..\..\liblc3\src/lc3.c **** 
 2100              		.loc 1 290 0
 2101 005c A778     		ldrb	r7, [r4, #2]	@ zero_extendqisi2
 288:..\..\..\liblc3\src/lc3.c ****     enum lc3_srate sr = encoder->sr;
 2102              		.loc 1 288 0
 2103 005e 94F80080 		ldrb	r8, [r4]	@ zero_extendqisi2
 2104              	.LVL261:
 289:..\..\..\liblc3\src/lc3.c ****     enum lc3_srate sr_pcm = encoder->sr_pcm;
 2105              		.loc 1 289 0
 2106 0062 94F801A0 		ldrb	r10, [r4, #1]	@ zero_extendqisi2
 2107              	.LVL262:
 293:..\..\..\liblc3\src/lc3.c ****     int ns = lc3_ns(dt, sr_pcm);
 2108              		.loc 1 293 0
 2109 0066 02EB8309 		add	r9, r2, r3, lsl #2
 2110              	.LVL263:
 2111              	.LBB233:
 2112              	.LBB234:
  47:..\..\..\liblc3\src/tables.h **** }
 2113              		.loc 2 47 0
 2114 006a 644B     		ldr	r3, .L217+8
 2115 006c 53F82710 		ldr	r1, [r3, r7, lsl #2]
ARM GAS  C:\Users\rdn\AppData\Local\Temp\cckhx27q.s 			page 54


 2116 0070 08FB0113 		mla	r3, r8, r1, r1
 2117 0074 0593     		str	r3, [sp, #20]
 2118              	.LVL264:
 2119              	.LBE234:
 2120              	.LBE233:
 297:..\..\..\liblc3\src/lc3.c ****     float *xf = xs;
 2121              		.loc 1 297 0
 2122 0076 D4F8A834 		ldr	r3, [r4, #1192]
 302:..\..\..\liblc3\src/lc3.c **** 
 2123              		.loc 1 302 0
 2124 007a 0096     		str	r6, [sp]
 297:..\..\..\liblc3\src/lc3.c ****     float *xf = xs;
 2125              		.loc 1 297 0
 2126 007c 02EB8303 		add	r3, r2, r3, lsl #2
 2127              	.LBB235:
 2128              	.LBB236:
  65:..\..\..\liblc3\src/tables.h **** }
 2129              		.loc 2 65 0
 2130 0080 4FEA610B 		asr	fp, r1, #1
 2131              	.LVL265:
 2132              	.LBE236:
 2133              	.LBE235:
 297:..\..\..\liblc3\src/lc3.c ****     float *xf = xs;
 2134              		.loc 1 297 0
 2135 0084 0693     		str	r3, [sp, #24]
 2136              	.LVL266:
 302:..\..\..\liblc3\src/lc3.c **** 
 2137              		.loc 1 302 0
 2138 0086 2A46     		mov	r2, r5
 2139 0088 231D     		adds	r3, r4, #4
 2140              	.LVL267:
 2141 008a 3946     		mov	r1, r7
 2142 008c 4046     		mov	r0, r8
 2143 008e FFF7FEFF 		bl	lc3_attdet_run
 2144              	.LVL268:
 305:..\..\..\liblc3\src/lc3.c **** 
 2145              		.loc 1 305 0
 2146 0092 0AAB     		add	r3, sp, #40
 302:..\..\..\liblc3\src/lc3.c **** 
 2147              		.loc 1 302 0
 2148 0094 0790     		str	r0, [sp, #28]
 2149              	.LVL269:
 305:..\..\..\liblc3\src/lc3.c **** 
 2150              		.loc 1 305 0
 2151 0096 0093     		str	r3, [sp]
 2152 0098 04F11002 		add	r2, r4, #16
 2153 009c 3346     		mov	r3, r6
 2154 009e 3946     		mov	r1, r7
 2155 00a0 4046     		mov	r0, r8
 2156 00a2 FFF7FEFF 		bl	lc3_ltpf_analyse
 2157              	.LVL270:
 307:..\..\..\liblc3\src/lc3.c **** 
 2158              		.loc 1 307 0
 2159 00a6 059B     		ldr	r3, [sp, #20]
 304:..\..\..\liblc3\src/lc3.c ****         lc3_ltpf_analyse(dt, sr_pcm, &encoder->ltpf, xt, &side->ltpf);
 2160              		.loc 1 304 0
 2161 00a8 8DF82500 		strb	r0, [sp, #37]
ARM GAS  C:\Users\rdn\AppData\Local\Temp\cckhx27q.s 			page 55


 307:..\..\..\liblc3\src/lc3.c **** 
 2162              		.loc 1 307 0
 2163 00ac 4FEA4B02 		lsl	r2, fp, #1
 2164 00b0 CBEB0301 		rsb	r1, fp, r3
 2165 00b4 06EB4101 		add	r1, r6, r1, lsl #1
 2166 00b8 B01A     		subs	r0, r6, r2
 2167 00ba FFF7FEFF 		bl	memmove
 2168              	.LVL271:
 313:..\..\..\liblc3\src/lc3.c **** 
 2169              		.loc 1 313 0
 2170 00be 069B     		ldr	r3, [sp, #24]
 2171 00c0 0093     		str	r3, [sp]
 2172 00c2 5246     		mov	r2, r10
 2173 00c4 4B46     		mov	r3, r9
 2174 00c6 3946     		mov	r1, r7
 2175 00c8 4046     		mov	r0, r8
 2176 00ca CDF80490 		str	r9, [sp, #4]
 2177 00ce FFF7FEFF 		bl	lc3_mdct_forward
 2178              	.LVL272:
 315:..\..\..\liblc3\src/lc3.c ****     if (nn_flag)
 2179              		.loc 1 315 0
 2180 00d2 2AAB     		add	r3, sp, #168
 2181 00d4 4A46     		mov	r2, r9
 2182 00d6 5146     		mov	r1, r10
 2183 00d8 4046     		mov	r0, r8
 2184 00da FFF7FEFF 		bl	lc3_energy_compute
 2185              	.LVL273:
 316:..\..\..\liblc3\src/lc3.c ****         lc3_ltpf_disable(&side->ltpf);
 2186              		.loc 1 316 0
 2187 00de 0646     		mov	r6, r0
 2188              	.LVL274:
 2189 00e0 10B1     		cbz	r0, .L201
 317:..\..\..\liblc3\src/lc3.c **** 
 2190              		.loc 1 317 0
 2191 00e2 0AA8     		add	r0, sp, #40
 2192              	.LVL275:
 2193 00e4 FFF7FEFF 		bl	lc3_ltpf_disable
 2194              	.LVL276:
 2195              	.L201:
 319:..\..\..\liblc3\src/lc3.c **** 
 2196              		.loc 1 319 0
 2197 00e8 5146     		mov	r1, r10
 2198 00ea 2AAA     		add	r2, sp, #168
 2199 00ec 4046     		mov	r0, r8
 2200 00ee FFF7FEFF 		bl	lc3_bwdet_run
 2201              	.LVL277:
 321:..\..\..\liblc3\src/lc3.c **** 
 2202              		.loc 1 321 0
 2203 00f2 0DF1300B 		add	fp, sp, #48
 2204 00f6 079B     		ldr	r3, [sp, #28]
 319:..\..\..\liblc3\src/lc3.c **** 
 2205              		.loc 1 319 0
 2206 00f8 8DF82400 		strb	r0, [sp, #36]
 321:..\..\..\liblc3\src/lc3.c **** 
 2207              		.loc 1 321 0
 2208 00fc 5146     		mov	r1, r10
 2209 00fe 4046     		mov	r0, r8
ARM GAS  C:\Users\rdn\AppData\Local\Temp\cckhx27q.s 			page 56


 323:..\..\..\liblc3\src/lc3.c **** 
 2210              		.loc 1 323 0
 2211 0100 13AF     		add	r7, sp, #76
 2212              	.LVL278:
 321:..\..\..\liblc3\src/lc3.c **** 
 2213              		.loc 1 321 0
 2214 0102 CDF80C90 		str	r9, [sp, #12]
 2215 0106 CDF80890 		str	r9, [sp, #8]
 2216 010a 0093     		str	r3, [sp]
 2217 010c 2A46     		mov	r2, r5
 2218 010e 2AAB     		add	r3, sp, #168
 2219 0110 CDF804B0 		str	fp, [sp, #4]
 2220 0114 FFF7FEFF 		bl	lc3_sns_analyze
 2221              	.LVL279:
 323:..\..\..\liblc3\src/lc3.c **** 
 2222              		.loc 1 323 0
 2223 0118 3246     		mov	r2, r6
 2224 011a 4046     		mov	r0, r8
 2225 011c 9DF82410 		ldrb	r1, [sp, #36]	@ zero_extendqisi2
 2226 0120 CDF80490 		str	r9, [sp, #4]
 2227 0124 2B46     		mov	r3, r5
 2228 0126 0097     		str	r7, [sp]
 2229 0128 FFF7FEFF 		bl	lc3_tns_analyze
 2230              	.LVL280:
 325:..\..\..\liblc3\src/lc3.c ****         nbytes, side->pitch_present, &side->tns,
 2231              		.loc 1 325 0
 2232 012c 27AE     		add	r6, sp, #156
 2233 012e 04F59362 		add	r2, r4, #1176
 2234 0132 5146     		mov	r1, r10
 2235 0134 4046     		mov	r0, r8
 2236 0136 9DF82530 		ldrb	r3, [sp, #37]	@ zero_extendqisi2
 2237 013a CDF80890 		str	r9, [sp, #8]
 2238 013e 0192     		str	r2, [sp, #4]
 2239 0140 0396     		str	r6, [sp, #12]
 2240 0142 2A46     		mov	r2, r5
 2241 0144 0097     		str	r7, [sp]
 2242 0146 FFF7FEFF 		bl	lc3_spec_analyze
 2243              	.LVL281:
 2244              	.LBE232:
 2245              	.LBE231:
 2246              	.LBB237:
 2247              	.LBB238:
 341:..\..\..\liblc3\src/lc3.c **** 
 2248              		.loc 1 341 0
 2249 014a 94F80180 		ldrb	r8, [r4, #1]	@ zero_extendqisi2
 340:..\..\..\liblc3\src/lc3.c ****     enum lc3_srate sr = encoder->sr;
 2250              		.loc 1 340 0
 2251 014e 94F80090 		ldrb	r9, [r4]	@ zero_extendqisi2
 2252              	.LVL282:
 343:..\..\..\liblc3\src/lc3.c ****     enum lc3_bandwidth bw = side->bw;
 2253              		.loc 1 343 0
 2254 0152 049B     		ldr	r3, [sp, #16]
 2255 0154 D4F8A444 		ldr	r4, [r4, #1188]
 2256              	.LVL283:
 344:..\..\..\liblc3\src/lc3.c **** 
 2257              		.loc 1 344 0
 2258 0158 9DF824A0 		ldrb	r10, [sp, #36]	@ zero_extendqisi2
ARM GAS  C:\Users\rdn\AppData\Local\Temp\cckhx27q.s 			page 57


 348:..\..\..\liblc3\src/lc3.c **** 
 2259              		.loc 1 348 0
 2260 015c 759A     		ldr	r2, [sp, #468]
 2261 015e 0121     		movs	r1, #1
 2262 0160 2AA8     		add	r0, sp, #168
 343:..\..\..\liblc3\src/lc3.c ****     enum lc3_bandwidth bw = side->bw;
 2263              		.loc 1 343 0
 2264 0162 03EB8404 		add	r4, r3, r4, lsl #2
 2265              	.LVL284:
 348:..\..\..\liblc3\src/lc3.c **** 
 2266              		.loc 1 348 0
 2267 0166 2B46     		mov	r3, r5
 2268 0168 FFF7FEFF 		bl	lc3_setup_bits
 2269              	.LVL285:
 350:..\..\..\liblc3\src/lc3.c **** 
 2270              		.loc 1 350 0
 2271 016c 5246     		mov	r2, r10
 2272 016e 4146     		mov	r1, r8
 2273 0170 2AA8     		add	r0, sp, #168
 2274 0172 FFF7FEFF 		bl	lc3_bwdet_put_bw
 2275              	.LVL286:
 352:..\..\..\liblc3\src/lc3.c **** 
 2276              		.loc 1 352 0
 2277 0176 3346     		mov	r3, r6
 2278 0178 4246     		mov	r2, r8
 2279 017a 4946     		mov	r1, r9
 2280 017c 2AA8     		add	r0, sp, #168
 2281 017e FFF7FEFF 		bl	lc3_spec_put_side
 2282              	.LVL287:
 354:..\..\..\liblc3\src/lc3.c **** 
 2283              		.loc 1 354 0
 2284 0182 3946     		mov	r1, r7
 2285 0184 2AA8     		add	r0, sp, #168
 2286 0186 FFF7FEFF 		bl	lc3_tns_put_data
 2287              	.LVL288:
 2288              	.LBB239:
 2289              	.LBB240:
 2290              	.LBB241:
 2291              	.LBB242:
 2292              		.file 4 "..\\..\\..\\liblc3\\src\\bits.h"
   1:..\..\..\liblc3\src/bits.h **** /******************************************************************************
   2:..\..\..\liblc3\src/bits.h ****  *
   3:..\..\..\liblc3\src/bits.h ****  *  Copyright 2022 Google LLC
   4:..\..\..\liblc3\src/bits.h ****  *
   5:..\..\..\liblc3\src/bits.h ****  *  Licensed under the Apache License, Version 2.0 (the "License");
   6:..\..\..\liblc3\src/bits.h ****  *  you may not use this file except in compliance with the License.
   7:..\..\..\liblc3\src/bits.h ****  *  You may obtain a copy of the License at:
   8:..\..\..\liblc3\src/bits.h ****  *
   9:..\..\..\liblc3\src/bits.h ****  *  http://www.apache.org/licenses/LICENSE-2.0
  10:..\..\..\liblc3\src/bits.h ****  *
  11:..\..\..\liblc3\src/bits.h ****  *  Unless required by applicable law or agreed to in writing, software
  12:..\..\..\liblc3\src/bits.h ****  *  distributed under the License is distributed on an "AS IS" BASIS,
  13:..\..\..\liblc3\src/bits.h ****  *  WITHOUT WARRANTIES OR CONDITIONS OF ANY KIND, either express or implied.
  14:..\..\..\liblc3\src/bits.h ****  *  See the License for the specific language governing permissions and
  15:..\..\..\liblc3\src/bits.h ****  *  limitations under the License.
  16:..\..\..\liblc3\src/bits.h ****  *
  17:..\..\..\liblc3\src/bits.h ****  ******************************************************************************/
ARM GAS  C:\Users\rdn\AppData\Local\Temp\cckhx27q.s 			page 58


  18:..\..\..\liblc3\src/bits.h **** 
  19:..\..\..\liblc3\src/bits.h **** /**
  20:..\..\..\liblc3\src/bits.h ****  * The bitstream is written by the 2 ends of the buffer :
  21:..\..\..\liblc3\src/bits.h ****  *
  22:..\..\..\liblc3\src/bits.h ****  * - Arthmetic coder put bits while increasing memory addresses
  23:..\..\..\liblc3\src/bits.h ****  *   in the buffer (forward)
  24:..\..\..\liblc3\src/bits.h ****  *
  25:..\..\..\liblc3\src/bits.h ****  * - Plain bits are puts starting the end of the buffer, with memeory
  26:..\..\..\liblc3\src/bits.h ****  *   addresses decreasing (backward)
  27:..\..\..\liblc3\src/bits.h ****  *
  28:..\..\..\liblc3\src/bits.h ****  *       .---------------------------------------------------.
  29:..\..\..\liblc3\src/bits.h ****  *       | > > > > > > > > > > :         : < < < < < < < < < |
  30:..\..\..\liblc3\src/bits.h ****  *       '---------------------------------------------------'
  31:..\..\..\liblc3\src/bits.h ****  *       |---------------------> - - - - - - - - - - - - - ->|
  32:..\..\..\liblc3\src/bits.h ****  *                              |< - - - <-------------------|
  33:..\..\..\liblc3\src/bits.h ****  *          Arithmetic coding                  Plain bits
  34:..\..\..\liblc3\src/bits.h ****  *          `lc3_put_symbol()`               `lc3_put_bits()`
  35:..\..\..\liblc3\src/bits.h ****  *
  36:..\..\..\liblc3\src/bits.h ****  * - The forward writing is protected against buffer overflow, it cannot
  37:..\..\..\liblc3\src/bits.h ****  *   write after the buffer, but can overwrite plain bits previously
  38:..\..\..\liblc3\src/bits.h ****  *   written in the buffer.
  39:..\..\..\liblc3\src/bits.h ****  *
  40:..\..\..\liblc3\src/bits.h ****  * - The backward writing is protected against overwrite of the arithmetic
  41:..\..\..\liblc3\src/bits.h ****  *   coder bitstream. In such way, the backward bitstream is always limited
  42:..\..\..\liblc3\src/bits.h ****  *   by the aritmetic coder bitstream, and can be overwritten by him.
  43:..\..\..\liblc3\src/bits.h ****  *
  44:..\..\..\liblc3\src/bits.h ****  *       .---------------------------------------------------.
  45:..\..\..\liblc3\src/bits.h ****  *       | > > > > > > > > > > :         : < < < < < < < < < |
  46:..\..\..\liblc3\src/bits.h ****  *       '---------------------------------------------------'
  47:..\..\..\liblc3\src/bits.h ****  *       |---------------------> - - - - - - - - - - - - - ->|
  48:..\..\..\liblc3\src/bits.h ****  *       |< - - - - - - - - - - -  - - - <-------------------|
  49:..\..\..\liblc3\src/bits.h ****  *          Arithmetic coding                  Plain bits
  50:..\..\..\liblc3\src/bits.h ****  *          `lc3_get_symbol()`               `lc3_get_bits()`
  51:..\..\..\liblc3\src/bits.h ****  *
  52:..\..\..\liblc3\src/bits.h ****  * - Reading is limited to read of the complementary end of the buffer.
  53:..\..\..\liblc3\src/bits.h ****  *
  54:..\..\..\liblc3\src/bits.h ****  * - The procedure `lc3_check_bits()` returns indication that read has been
  55:..\..\..\liblc3\src/bits.h ****  *   made crossing the other bit plane.
  56:..\..\..\liblc3\src/bits.h ****  *
  57:..\..\..\liblc3\src/bits.h ****  */
  58:..\..\..\liblc3\src/bits.h **** 
  59:..\..\..\liblc3\src/bits.h **** #ifndef __LC3_BITS_H
  60:..\..\..\liblc3\src/bits.h **** #define __LC3_BITS_H
  61:..\..\..\liblc3\src/bits.h **** 
  62:..\..\..\liblc3\src/bits.h **** #include "common.h"
  63:..\..\..\liblc3\src/bits.h **** 
  64:..\..\..\liblc3\src/bits.h **** 
  65:..\..\..\liblc3\src/bits.h **** /**
  66:..\..\..\liblc3\src/bits.h ****  * Bitstream mode
  67:..\..\..\liblc3\src/bits.h ****  */
  68:..\..\..\liblc3\src/bits.h **** 
  69:..\..\..\liblc3\src/bits.h **** enum lc3_bits_mode {
  70:..\..\..\liblc3\src/bits.h ****     LC3_BITS_MODE_READ,
  71:..\..\..\liblc3\src/bits.h ****     LC3_BITS_MODE_WRITE,
  72:..\..\..\liblc3\src/bits.h **** };
  73:..\..\..\liblc3\src/bits.h **** 
  74:..\..\..\liblc3\src/bits.h **** /**
ARM GAS  C:\Users\rdn\AppData\Local\Temp\cckhx27q.s 			page 59


  75:..\..\..\liblc3\src/bits.h ****  * Arithmetic coder symbol interval
  76:..\..\..\liblc3\src/bits.h ****  * The model split the interval in 17 symbols
  77:..\..\..\liblc3\src/bits.h ****  */
  78:..\..\..\liblc3\src/bits.h **** 
  79:..\..\..\liblc3\src/bits.h **** struct lc3_ac_symbol {
  80:..\..\..\liblc3\src/bits.h ****     uint16_t low   : 16;
  81:..\..\..\liblc3\src/bits.h ****     uint16_t range : 16;
  82:..\..\..\liblc3\src/bits.h **** };
  83:..\..\..\liblc3\src/bits.h **** 
  84:..\..\..\liblc3\src/bits.h **** struct lc3_ac_model {
  85:..\..\..\liblc3\src/bits.h ****     struct lc3_ac_symbol s[17];
  86:..\..\..\liblc3\src/bits.h **** };
  87:..\..\..\liblc3\src/bits.h **** 
  88:..\..\..\liblc3\src/bits.h **** /**
  89:..\..\..\liblc3\src/bits.h ****  * Bitstream context
  90:..\..\..\liblc3\src/bits.h ****  */
  91:..\..\..\liblc3\src/bits.h **** 
  92:..\..\..\liblc3\src/bits.h **** #define LC3_ACCU_BITS (int)(8 * sizeof(unsigned))
  93:..\..\..\liblc3\src/bits.h **** 
  94:..\..\..\liblc3\src/bits.h **** struct lc3_bits_accu {
  95:..\..\..\liblc3\src/bits.h ****     unsigned v;
  96:..\..\..\liblc3\src/bits.h ****     int n, nover;
  97:..\..\..\liblc3\src/bits.h **** };
  98:..\..\..\liblc3\src/bits.h **** 
  99:..\..\..\liblc3\src/bits.h **** #define LC3_AC_BITS (int)(24)
 100:..\..\..\liblc3\src/bits.h **** 
 101:..\..\..\liblc3\src/bits.h **** struct lc3_bits_ac {
 102:..\..\..\liblc3\src/bits.h ****     unsigned low, range;
 103:..\..\..\liblc3\src/bits.h ****     int cache, carry, carry_count;
 104:..\..\..\liblc3\src/bits.h ****     bool error;
 105:..\..\..\liblc3\src/bits.h **** };
 106:..\..\..\liblc3\src/bits.h **** 
 107:..\..\..\liblc3\src/bits.h **** struct lc3_bits_buffer {
 108:..\..\..\liblc3\src/bits.h ****     const uint8_t *start, *end;
 109:..\..\..\liblc3\src/bits.h ****     uint8_t *p_fw, *p_bw;
 110:..\..\..\liblc3\src/bits.h **** };
 111:..\..\..\liblc3\src/bits.h **** 
 112:..\..\..\liblc3\src/bits.h **** typedef struct lc3_bits {
 113:..\..\..\liblc3\src/bits.h ****     enum lc3_bits_mode mode;
 114:..\..\..\liblc3\src/bits.h ****     struct lc3_bits_ac ac;
 115:..\..\..\liblc3\src/bits.h ****     struct lc3_bits_accu accu;
 116:..\..\..\liblc3\src/bits.h ****     struct lc3_bits_buffer buffer;
 117:..\..\..\liblc3\src/bits.h **** } lc3_bits_t;
 118:..\..\..\liblc3\src/bits.h **** 
 119:..\..\..\liblc3\src/bits.h **** 
 120:..\..\..\liblc3\src/bits.h **** /**
 121:..\..\..\liblc3\src/bits.h ****  * Setup bitstream reading/writing
 122:..\..\..\liblc3\src/bits.h ****  * bits            Bitstream context
 123:..\..\..\liblc3\src/bits.h ****  * mode            Either READ or WRITE mode
 124:..\..\..\liblc3\src/bits.h ****  * buffer, len     Output buffer and length (in bytes)
 125:..\..\..\liblc3\src/bits.h ****  */
 126:..\..\..\liblc3\src/bits.h **** void lc3_setup_bits(lc3_bits_t *bits,
 127:..\..\..\liblc3\src/bits.h ****     enum lc3_bits_mode mode, void *buffer, int len);
 128:..\..\..\liblc3\src/bits.h **** 
 129:..\..\..\liblc3\src/bits.h **** /**
 130:..\..\..\liblc3\src/bits.h ****  * Return number of bits left in the bitstream
 131:..\..\..\liblc3\src/bits.h ****  * bits            Bitstream context
ARM GAS  C:\Users\rdn\AppData\Local\Temp\cckhx27q.s 			page 60


 132:..\..\..\liblc3\src/bits.h ****  * return          Number of bits left
 133:..\..\..\liblc3\src/bits.h ****  */
 134:..\..\..\liblc3\src/bits.h **** int lc3_get_bits_left(const lc3_bits_t *bits);
 135:..\..\..\liblc3\src/bits.h **** 
 136:..\..\..\liblc3\src/bits.h **** /**
 137:..\..\..\liblc3\src/bits.h ****  * Check if error occured on bitstream reading/writing
 138:..\..\..\liblc3\src/bits.h ****  * bits            Bitstream context
 139:..\..\..\liblc3\src/bits.h ****  * return          0: Ok  -1: Bitstream overflow or AC reading error
 140:..\..\..\liblc3\src/bits.h ****  */
 141:..\..\..\liblc3\src/bits.h **** int lc3_check_bits(const lc3_bits_t *bits);
 142:..\..\..\liblc3\src/bits.h **** 
 143:..\..\..\liblc3\src/bits.h **** /**
 144:..\..\..\liblc3\src/bits.h ****  * Put a bit
 145:..\..\..\liblc3\src/bits.h ****  * bits            Bitstream context
 146:..\..\..\liblc3\src/bits.h ****  * v               Bit value, 0 or 1
 147:..\..\..\liblc3\src/bits.h ****  */
 148:..\..\..\liblc3\src/bits.h **** static inline void lc3_put_bit(lc3_bits_t *bits, int v);
 149:..\..\..\liblc3\src/bits.h **** 
 150:..\..\..\liblc3\src/bits.h **** /**
 151:..\..\..\liblc3\src/bits.h ****  * Put from 1 to 32 bits
 152:..\..\..\liblc3\src/bits.h ****  * bits            Bitstream context
 153:..\..\..\liblc3\src/bits.h ****  * v, n            Value, in range 0 to 2^n - 1, and bits count (1 to 32)
 154:..\..\..\liblc3\src/bits.h ****  */
 155:..\..\..\liblc3\src/bits.h **** static inline void lc3_put_bits(lc3_bits_t *bits, unsigned v, int n);
 156:..\..\..\liblc3\src/bits.h **** 
 157:..\..\..\liblc3\src/bits.h **** /**
 158:..\..\..\liblc3\src/bits.h ****  * Put arithmetic coder symbol
 159:..\..\..\liblc3\src/bits.h ****  * bits            Bitstream context
 160:..\..\..\liblc3\src/bits.h ****  * model, s        Model distribution and symbol value
 161:..\..\..\liblc3\src/bits.h ****  */
 162:..\..\..\liblc3\src/bits.h **** static inline void lc3_put_symbol(lc3_bits_t *bits,
 163:..\..\..\liblc3\src/bits.h ****     const struct lc3_ac_model *model, unsigned s);
 164:..\..\..\liblc3\src/bits.h **** 
 165:..\..\..\liblc3\src/bits.h **** /**
 166:..\..\..\liblc3\src/bits.h ****  * Flush and terminate bitstream writing
 167:..\..\..\liblc3\src/bits.h ****  * bits            Bitstream context
 168:..\..\..\liblc3\src/bits.h ****  */
 169:..\..\..\liblc3\src/bits.h **** void lc3_flush_bits(lc3_bits_t *bits);
 170:..\..\..\liblc3\src/bits.h **** 
 171:..\..\..\liblc3\src/bits.h **** /**
 172:..\..\..\liblc3\src/bits.h ****  * Get a bit
 173:..\..\..\liblc3\src/bits.h ****  * bits            Bitstream context
 174:..\..\..\liblc3\src/bits.h ****  */
 175:..\..\..\liblc3\src/bits.h **** static inline int lc3_get_bit(lc3_bits_t *bits);
 176:..\..\..\liblc3\src/bits.h **** 
 177:..\..\..\liblc3\src/bits.h **** /**
 178:..\..\..\liblc3\src/bits.h ****  * Get from 1 to 32 bits
 179:..\..\..\liblc3\src/bits.h ****  * bits            Bitstream context
 180:..\..\..\liblc3\src/bits.h ****  * n               Number of bits to read (1 to 32)
 181:..\..\..\liblc3\src/bits.h ****  * return          The value read
 182:..\..\..\liblc3\src/bits.h ****  */
 183:..\..\..\liblc3\src/bits.h **** static inline unsigned lc3_get_bits(lc3_bits_t *bits,  int n);
 184:..\..\..\liblc3\src/bits.h **** 
 185:..\..\..\liblc3\src/bits.h **** /**
 186:..\..\..\liblc3\src/bits.h ****  * Get arithmetic coder symbol
 187:..\..\..\liblc3\src/bits.h ****  * bits            Bitstream context
 188:..\..\..\liblc3\src/bits.h ****  * model           Model distribution
ARM GAS  C:\Users\rdn\AppData\Local\Temp\cckhx27q.s 			page 61


 189:..\..\..\liblc3\src/bits.h ****  * return          The value read
 190:..\..\..\liblc3\src/bits.h ****  */
 191:..\..\..\liblc3\src/bits.h **** static inline unsigned lc3_get_symbol(lc3_bits_t *bits,
 192:..\..\..\liblc3\src/bits.h ****     const struct lc3_ac_model *model);
 193:..\..\..\liblc3\src/bits.h **** 
 194:..\..\..\liblc3\src/bits.h **** 
 195:..\..\..\liblc3\src/bits.h **** 
 196:..\..\..\liblc3\src/bits.h **** /* ----------------------------------------------------------------------------
 197:..\..\..\liblc3\src/bits.h ****  *  Inline implementations
 198:..\..\..\liblc3\src/bits.h ****  * -------------------------------------------------------------------------- */
 199:..\..\..\liblc3\src/bits.h **** 
 200:..\..\..\liblc3\src/bits.h **** void lc3_put_bits_generic(lc3_bits_t *bits, unsigned v, int n);
 201:..\..\..\liblc3\src/bits.h **** unsigned lc3_get_bits_generic(struct lc3_bits *bits, int n);
 202:..\..\..\liblc3\src/bits.h **** 
 203:..\..\..\liblc3\src/bits.h **** void lc3_ac_read_renorm(lc3_bits_t *bits);
 204:..\..\..\liblc3\src/bits.h **** void lc3_ac_write_renorm(lc3_bits_t *bits);
 205:..\..\..\liblc3\src/bits.h **** 
 206:..\..\..\liblc3\src/bits.h **** 
 207:..\..\..\liblc3\src/bits.h **** /**
 208:..\..\..\liblc3\src/bits.h ****  * Put a bit
 209:..\..\..\liblc3\src/bits.h ****  */
 210:..\..\..\liblc3\src/bits.h **** LC3_HOT static inline void lc3_put_bit(lc3_bits_t *bits, int v)
 211:..\..\..\liblc3\src/bits.h **** {
 212:..\..\..\liblc3\src/bits.h ****     lc3_put_bits(bits, v, 1);
 213:..\..\..\liblc3\src/bits.h **** }
 214:..\..\..\liblc3\src/bits.h **** 
 215:..\..\..\liblc3\src/bits.h **** /**
 216:..\..\..\liblc3\src/bits.h ****  * Put from 1 to 32 bits
 217:..\..\..\liblc3\src/bits.h ****  */
 218:..\..\..\liblc3\src/bits.h **** LC3_HOT static inline void lc3_put_bits(
 219:..\..\..\liblc3\src/bits.h ****     struct lc3_bits *bits, unsigned v, int n)
 220:..\..\..\liblc3\src/bits.h **** {
 221:..\..\..\liblc3\src/bits.h ****     struct lc3_bits_accu *accu = &bits->accu;
 222:..\..\..\liblc3\src/bits.h **** 
 223:..\..\..\liblc3\src/bits.h ****     if (accu->n + n <= LC3_ACCU_BITS) {
 2293              		.loc 4 223 0
 2294 018a 329A     		ldr	r2, [sp, #200]
 2295              	.LBE242:
 2296              	.LBE241:
 212:..\..\..\liblc3\src/bits.h **** }
 2297              		.loc 4 212 0
 2298 018c 9DF82510 		ldrb	r1, [sp, #37]	@ zero_extendqisi2
 2299              	.LVL289:
 2300              	.LBB244:
 2301              	.LBB243:
 2302              		.loc 4 223 0
 2303 0190 531C     		adds	r3, r2, #1
 2304 0192 202B     		cmp	r3, #32
 2305 0194 05DC     		bgt	.L202
 224:..\..\..\liblc3\src/bits.h ****         accu->v |= v << accu->n;
 2306              		.loc 4 224 0
 2307 0196 9140     		lsls	r1, r1, r2
 2308              	.LVL290:
 2309 0198 319A     		ldr	r2, [sp, #196]
 225:..\..\..\liblc3\src/bits.h ****         accu->n += n;
 2310              		.loc 4 225 0
 2311 019a 3293     		str	r3, [sp, #200]
ARM GAS  C:\Users\rdn\AppData\Local\Temp\cckhx27q.s 			page 62


 224:..\..\..\liblc3\src/bits.h ****         accu->v |= v << accu->n;
 2312              		.loc 4 224 0
 2313 019c 1143     		orrs	r1, r1, r2
 2314 019e 3191     		str	r1, [sp, #196]
 2315 01a0 03E0     		b	.L203
 2316              	.LVL291:
 2317              	.L202:
 226:..\..\..\liblc3\src/bits.h ****     } else {
 227:..\..\..\liblc3\src/bits.h ****         lc3_put_bits_generic(bits, v, n);
 2318              		.loc 4 227 0
 2319 01a2 0122     		movs	r2, #1
 2320 01a4 2AA8     		add	r0, sp, #168
 2321              	.LVL292:
 2322 01a6 FFF7FEFF 		bl	lc3_put_bits_generic
 2323              	.LVL293:
 2324              	.L203:
 2325              	.LBE243:
 2326              	.LBE244:
 2327              	.LBE240:
 2328              	.LBE239:
 358:..\..\..\liblc3\src/lc3.c **** 
 2329              		.loc 1 358 0
 2330 01aa 5946     		mov	r1, fp
 2331 01ac 2AA8     		add	r0, sp, #168
 2332 01ae FFF7FEFF 		bl	lc3_sns_put_data
 2333              	.LVL294:
 360:..\..\..\liblc3\src/lc3.c ****         lc3_ltpf_put_data(&bits, &side->ltpf);
 2334              		.loc 1 360 0
 2335 01b2 9DF82530 		ldrb	r3, [sp, #37]	@ zero_extendqisi2
 2336 01b6 1BB1     		cbz	r3, .L204
 361:..\..\..\liblc3\src/lc3.c **** 
 2337              		.loc 1 361 0
 2338 01b8 0AA9     		add	r1, sp, #40
 2339 01ba 2AA8     		add	r0, sp, #168
 2340 01bc FFF7FEFF 		bl	lc3_ltpf_put_data
 2341              	.LVL295:
 2342              	.L204:
 363:..\..\..\liblc3\src/lc3.c **** 
 2343              		.loc 1 363 0
 2344 01c0 5346     		mov	r3, r10
 2345 01c2 4246     		mov	r2, r8
 2346 01c4 4946     		mov	r1, r9
 2347 01c6 2AA8     		add	r0, sp, #168
 2348 01c8 0294     		str	r4, [sp, #8]
 2349 01ca 8DE86000 		stmia	sp, {r5, r6}
 2350 01ce FFF7FEFF 		bl	lc3_spec_encode
 2351              	.LVL296:
 365:..\..\..\liblc3\src/lc3.c **** }
 2352              		.loc 1 365 0
 2353 01d2 2AA8     		add	r0, sp, #168
 2354 01d4 FFF7FEFF 		bl	lc3_flush_bits
 2355              	.LVL297:
 2356              	.LBE238:
 2357              	.LBE237:
 456:..\..\..\liblc3\src/lc3.c **** }
 2358              		.loc 1 456 0
 2359 01d8 0020     		movs	r0, #0
ARM GAS  C:\Users\rdn\AppData\Local\Temp\cckhx27q.s 			page 63


 2360 01da 07E0     		b	.L216
 2361              	.LVL298:
 2362              	.L209:
 444:..\..\..\liblc3\src/lc3.c **** 
 2363              		.loc 1 444 0
 2364 01dc 4FF0FF30 		mov	r0, #-1
 2365 01e0 04E0     		b	.L216
 2366              	.LVL299:
 2367              	.L200:
 442:..\..\..\liblc3\src/lc3.c ****                  || nbytes > lc3_max_frame_bytes(encoder->dt, encoder->sr))
 2368              		.loc 1 442 0
 2369 01e2 132D     		cmp	r5, #19
 2370 01e4 FADD     		ble	.L209
 2371              	.LBB245:
 2372              	.LBB230:
 2373              		.loc 2 87 0
 2374 01e6 4FF4C870 		mov	r0, #400
 2375              	.LVL300:
 2376 01ea 23E7     		b	.L205
 2377              	.LVL301:
 2378              	.L216:
 2379              	.LBE230:
 2380              	.LBE245:
 457:..\..\..\liblc3\src/lc3.c **** 
 2381              		.loc 1 457 0
 2382 01ec 6BB0     		add	sp, sp, #428
 2383              		.cfi_def_cfa_offset 36
 2384              		@ sp needed
 2385 01ee BDE8F08F 		pop	{r4, r5, r6, r7, r8, r9, r10, fp, pc}
 2386              	.LVL302:
 2387              	.L218:
 2388 01f2 00BF     		.align	2
 2389              	.L217:
 2390 01f4 00000000 		.word	lc3_frame_bytes_hr_lim
 2391 01f8 00000000 		.word	.LANCHOR0
 2392 01fc 00000000 		.word	lc3_ns_2m5
 2393              		.cfi_endproc
 2394              	.LFE42:
 2395              		.size	lc3_encode, .-lc3_encode
 2396              		.section	.text.lc3_hr_decoder_size,"ax",%progbits
 2397              		.align	1
 2398              		.global	lc3_hr_decoder_size
 2399              		.thumb
 2400              		.thumb_func
 2401              		.type	lc3_hr_decoder_size, %function
 2402              	lc3_hr_decoder_size:
 2403              	.LFB50:
 557:..\..\..\liblc3\src/lc3.c **** 
 558:..\..\..\liblc3\src/lc3.c **** /**
 559:..\..\..\liblc3\src/lc3.c ****  * Decode bitstream
 560:..\..\..\liblc3\src/lc3.c ****  * decoder         Decoder state
 561:..\..\..\liblc3\src/lc3.c ****  * data, nbytes    Input bitstream buffer
 562:..\..\..\liblc3\src/lc3.c ****  * side            Return the side data
 563:..\..\..\liblc3\src/lc3.c ****  * return          0: Ok  < 0: Bitsream error detected
 564:..\..\..\liblc3\src/lc3.c ****  */
 565:..\..\..\liblc3\src/lc3.c **** static int decode(struct lc3_decoder *decoder,
 566:..\..\..\liblc3\src/lc3.c ****     const void *data, int nbytes, struct side_data *side)
ARM GAS  C:\Users\rdn\AppData\Local\Temp\cckhx27q.s 			page 64


 567:..\..\..\liblc3\src/lc3.c **** {
 568:..\..\..\liblc3\src/lc3.c ****     enum lc3_dt dt = decoder->dt;
 569:..\..\..\liblc3\src/lc3.c ****     enum lc3_srate sr = decoder->sr;
 570:..\..\..\liblc3\src/lc3.c **** 
 571:..\..\..\liblc3\src/lc3.c ****     float *xf = decoder->x + decoder->xs_off;
 572:..\..\..\liblc3\src/lc3.c ****     int ns = lc3_ns(dt, sr);
 573:..\..\..\liblc3\src/lc3.c ****     int ne = lc3_ne(dt, sr);
 574:..\..\..\liblc3\src/lc3.c **** 
 575:..\..\..\liblc3\src/lc3.c ****     lc3_bits_t bits;
 576:..\..\..\liblc3\src/lc3.c ****     int ret = 0;
 577:..\..\..\liblc3\src/lc3.c **** 
 578:..\..\..\liblc3\src/lc3.c ****     lc3_setup_bits(&bits, LC3_BITS_MODE_READ, (void *)data, nbytes);
 579:..\..\..\liblc3\src/lc3.c **** 
 580:..\..\..\liblc3\src/lc3.c ****     if ((ret = lc3_bwdet_get_bw(&bits, sr, &side->bw)) < 0)
 581:..\..\..\liblc3\src/lc3.c ****         return ret;
 582:..\..\..\liblc3\src/lc3.c **** 
 583:..\..\..\liblc3\src/lc3.c ****     if ((ret = lc3_spec_get_side(&bits, dt, sr, &side->spec)) < 0)
 584:..\..\..\liblc3\src/lc3.c ****         return ret;
 585:..\..\..\liblc3\src/lc3.c **** 
 586:..\..\..\liblc3\src/lc3.c ****     if ((ret = lc3_tns_get_data(&bits, dt, side->bw, nbytes, &side->tns)) < 0)
 587:..\..\..\liblc3\src/lc3.c ****         return ret;
 588:..\..\..\liblc3\src/lc3.c **** 
 589:..\..\..\liblc3\src/lc3.c ****     side->pitch_present = lc3_get_bit(&bits);
 590:..\..\..\liblc3\src/lc3.c **** 
 591:..\..\..\liblc3\src/lc3.c ****     if ((ret = lc3_sns_get_data(&bits, &side->sns)) < 0)
 592:..\..\..\liblc3\src/lc3.c ****         return ret;
 593:..\..\..\liblc3\src/lc3.c **** 
 594:..\..\..\liblc3\src/lc3.c ****     if (side->pitch_present)
 595:..\..\..\liblc3\src/lc3.c ****       lc3_ltpf_get_data(&bits, &side->ltpf);
 596:..\..\..\liblc3\src/lc3.c **** 
 597:..\..\..\liblc3\src/lc3.c ****     if ((ret = lc3_spec_decode(&bits, dt, sr,
 598:..\..\..\liblc3\src/lc3.c ****                     side->bw, nbytes, &side->spec, xf)) < 0)
 599:..\..\..\liblc3\src/lc3.c ****         return ret;
 600:..\..\..\liblc3\src/lc3.c **** 
 601:..\..\..\liblc3\src/lc3.c ****     memset(xf + ne, 0, (ns - ne) * sizeof(float));
 602:..\..\..\liblc3\src/lc3.c **** 
 603:..\..\..\liblc3\src/lc3.c ****     return lc3_check_bits(&bits);
 604:..\..\..\liblc3\src/lc3.c **** }
 605:..\..\..\liblc3\src/lc3.c **** 
 606:..\..\..\liblc3\src/lc3.c **** /**
 607:..\..\..\liblc3\src/lc3.c ****  * Frame synthesis
 608:..\..\..\liblc3\src/lc3.c ****  * decoder         Decoder state
 609:..\..\..\liblc3\src/lc3.c ****  * side            Frame data, NULL performs PLC
 610:..\..\..\liblc3\src/lc3.c ****  * nbytes          Size in bytes of the frame
 611:..\..\..\liblc3\src/lc3.c ****  */
 612:..\..\..\liblc3\src/lc3.c **** static void synthesize(struct lc3_decoder *decoder,
 613:..\..\..\liblc3\src/lc3.c ****     const struct side_data *side, int nbytes)
 614:..\..\..\liblc3\src/lc3.c **** {
 615:..\..\..\liblc3\src/lc3.c ****     enum lc3_dt dt = decoder->dt;
 616:..\..\..\liblc3\src/lc3.c ****     enum lc3_srate sr = decoder->sr;
 617:..\..\..\liblc3\src/lc3.c ****     enum lc3_srate sr_pcm = decoder->sr_pcm;
 618:..\..\..\liblc3\src/lc3.c **** 
 619:..\..\..\liblc3\src/lc3.c ****     float *xf = decoder->x + decoder->xs_off;
 620:..\..\..\liblc3\src/lc3.c ****     int ns = lc3_ns(dt, sr_pcm);
 621:..\..\..\liblc3\src/lc3.c ****     int ne = lc3_ne(dt, sr);
 622:..\..\..\liblc3\src/lc3.c **** 
 623:..\..\..\liblc3\src/lc3.c ****     float *xg = decoder->x + decoder->xg_off;
ARM GAS  C:\Users\rdn\AppData\Local\Temp\cckhx27q.s 			page 65


 624:..\..\..\liblc3\src/lc3.c ****     float *xs = xf;
 625:..\..\..\liblc3\src/lc3.c **** 
 626:..\..\..\liblc3\src/lc3.c ****     float *xd = decoder->x + decoder->xd_off;
 627:..\..\..\liblc3\src/lc3.c ****     float *xh = decoder->x + decoder->xh_off;
 628:..\..\..\liblc3\src/lc3.c **** 
 629:..\..\..\liblc3\src/lc3.c ****     if (side) {
 630:..\..\..\liblc3\src/lc3.c ****         enum lc3_bandwidth bw = side->bw;
 631:..\..\..\liblc3\src/lc3.c **** 
 632:..\..\..\liblc3\src/lc3.c ****         lc3_plc_suspend(&decoder->plc);
 633:..\..\..\liblc3\src/lc3.c **** 
 634:..\..\..\liblc3\src/lc3.c ****         lc3_tns_synthesize(dt, bw, &side->tns, xf);
 635:..\..\..\liblc3\src/lc3.c **** 
 636:..\..\..\liblc3\src/lc3.c ****         lc3_sns_synthesize(dt, sr, &side->sns, xf, xg);
 637:..\..\..\liblc3\src/lc3.c **** 
 638:..\..\..\liblc3\src/lc3.c ****         lc3_mdct_inverse(dt, sr_pcm, sr, xg, xd, xs);
 639:..\..\..\liblc3\src/lc3.c **** 
 640:..\..\..\liblc3\src/lc3.c ****     } else {
 641:..\..\..\liblc3\src/lc3.c ****         lc3_plc_synthesize(dt, sr, &decoder->plc, xg, xf);
 642:..\..\..\liblc3\src/lc3.c **** 
 643:..\..\..\liblc3\src/lc3.c ****         memset(xf + ne, 0, (ns - ne) * sizeof(float));
 644:..\..\..\liblc3\src/lc3.c **** 
 645:..\..\..\liblc3\src/lc3.c ****         lc3_mdct_inverse(dt, sr_pcm, sr, xf, xd, xs);
 646:..\..\..\liblc3\src/lc3.c ****     }
 647:..\..\..\liblc3\src/lc3.c **** 
 648:..\..\..\liblc3\src/lc3.c ****     if (!lc3_hr(sr))
 649:..\..\..\liblc3\src/lc3.c ****         lc3_ltpf_synthesize(dt, sr_pcm, nbytes, &decoder->ltpf,
 650:..\..\..\liblc3\src/lc3.c ****             side && side->pitch_present ? &side->ltpf : NULL, xh, xs);
 651:..\..\..\liblc3\src/lc3.c **** }
 652:..\..\..\liblc3\src/lc3.c **** 
 653:..\..\..\liblc3\src/lc3.c **** /**
 654:..\..\..\liblc3\src/lc3.c ****  * Update decoder state on decoding completion
 655:..\..\..\liblc3\src/lc3.c ****  * decoder         Decoder state
 656:..\..\..\liblc3\src/lc3.c ****  */
 657:..\..\..\liblc3\src/lc3.c **** static void complete(struct lc3_decoder *decoder)
 658:..\..\..\liblc3\src/lc3.c **** {
 659:..\..\..\liblc3\src/lc3.c ****     enum lc3_dt dt = decoder->dt;
 660:..\..\..\liblc3\src/lc3.c ****     enum lc3_srate sr_pcm = decoder->sr_pcm;
 661:..\..\..\liblc3\src/lc3.c ****     int nh = lc3_nh(dt, sr_pcm);
 662:..\..\..\liblc3\src/lc3.c ****     int ns = lc3_ns(dt, sr_pcm);
 663:..\..\..\liblc3\src/lc3.c **** 
 664:..\..\..\liblc3\src/lc3.c ****     decoder->xs_off = decoder->xs_off - decoder->xh_off < nh ?
 665:..\..\..\liblc3\src/lc3.c ****         decoder->xs_off + ns : decoder->xh_off;
 666:..\..\..\liblc3\src/lc3.c **** }
 667:..\..\..\liblc3\src/lc3.c **** 
 668:..\..\..\liblc3\src/lc3.c **** /**
 669:..\..\..\liblc3\src/lc3.c ****  * Return size needed for a decoder
 670:..\..\..\liblc3\src/lc3.c ****  */
 671:..\..\..\liblc3\src/lc3.c **** LC3_EXPORT unsigned lc3_hr_decoder_size(bool hrmode, int dt_us, int sr_hz)
 672:..\..\..\liblc3\src/lc3.c **** {
 2404              		.loc 1 672 0
 2405              		.cfi_startproc
 2406              		@ args = 0, pretend = 0, frame = 0
 2407              		@ frame_needed = 0, uses_anonymous_args = 0
 2408              	.LVL303:
 2409 0000 F8B5     		push	{r3, r4, r5, r6, r7, lr}
 2410              		.cfi_def_cfa_offset 24
 2411              		.cfi_offset 3, -24
ARM GAS  C:\Users\rdn\AppData\Local\Temp\cckhx27q.s 			page 66


 2412              		.cfi_offset 4, -20
 2413              		.cfi_offset 5, -16
 2414              		.cfi_offset 6, -12
 2415              		.cfi_offset 7, -8
 2416              		.cfi_offset 14, -4
 2417              		.loc 1 672 0
 2418 0002 0D46     		mov	r5, r1
 2419 0004 0446     		mov	r4, r0
 673:..\..\..\liblc3\src/lc3.c ****     if (resolve_dt(dt_us, hrmode) >= LC3_NUM_DT ||
 2420              		.loc 1 673 0
 2421 0006 0146     		mov	r1, r0
 2422              	.LVL304:
 2423 0008 2846     		mov	r0, r5
 2424              	.LVL305:
 2425 000a FFF7FEFF 		bl	resolve_dt
 2426              	.LVL306:
 2427 000e 0328     		cmp	r0, #3
 2428 0010 32D8     		bhi	.L224
 674:..\..\..\liblc3\src/lc3.c ****         resolve_srate(sr_hz, hrmode) >= LC3_NUM_SRATE)
 2429              		.loc 1 674 0 discriminator 1
 2430 0012 2146     		mov	r1, r4
 2431 0014 1046     		mov	r0, r2
 2432 0016 FFF7FEFF 		bl	resolve_srate
 2433              	.LVL307:
 673:..\..\..\liblc3\src/lc3.c ****     if (resolve_dt(dt_us, hrmode) >= LC3_NUM_DT ||
 2434              		.loc 1 673 0 discriminator 1
 2435 001a 0628     		cmp	r0, #6
 2436 001c 2CD8     		bhi	.L224
 2437              	.LVL308:
 2438              	.LBB248:
 2439              	.LBB249:
 675:..\..\..\liblc3\src/lc3.c ****         return 0;
 676:..\..\..\liblc3\src/lc3.c **** 
 677:..\..\..\liblc3\src/lc3.c ****     return sizeof(struct lc3_decoder) +
 678:..\..\..\liblc3\src/lc3.c ****         (LC3_DECODER_BUFFER_COUNT(dt_us, sr_hz)-1) * sizeof(float);
 2440              		.loc 1 678 0
 2441 001e 4BF68033 		movw	r3, #48000
 2442 0022 9A42     		cmp	r2, r3
 2443 0024 02FB05F3 		mul	r3, r2, r5
 2444 0028 0DDC     		bgt	.L225
 2445 002a 1224     		movs	r4, #18
 2446              	.LVL309:
 2447 002c 4FF47A70 		mov	r0, #1000
 2448 0030 5443     		muls	r4, r2, r4
 2449 0032 94FBF0F4 		sdiv	r4, r4, r0
 2450 0036 1148     		ldr	r0, .L227
 2451 0038 93FBF0F0 		sdiv	r0, r3, r0
 2452 003c 94FBF0F4 		sdiv	r4, r4, r0
 2453 0040 00FB0404 		mla	r4, r0, r4, r0
 2454 0044 00E0     		b	.L221
 2455              	.LVL310:
 2456              	.L225:
 2457 0046 0024     		movs	r4, #0
 2458              	.LVL311:
 2459              	.L221:
 2460 0048 0C4E     		ldr	r6, .L227
 2461 004a 0D49     		ldr	r1, .L227+4
ARM GAS  C:\Users\rdn\AppData\Local\Temp\cckhx27q.s 			page 67


 2462 004c 93FBF6F0 		sdiv	r0, r3, r6
 2463 0050 41F64C57 		movw	r7, #7500
 2464 0054 93FBF1F3 		sdiv	r3, r3, r1
 2465 0058 40F2E241 		movw	r1, #1250
 2466 005c BD42     		cmp	r5, r7
 2467 005e 08BF     		it	eq
 2468 0060 4FF4FA61 		moveq	r1, #2000
 677:..\..\..\liblc3\src/lc3.c ****         (LC3_DECODER_BUFFER_COUNT(dt_us, sr_hz)-1) * sizeof(float);
 2469              		.loc 1 677 0
 2470 0064 4A43     		muls	r2, r1, r2
 2471              	.LVL312:
 2472 0066 04EB4000 		add	r0, r4, r0, lsl #1
 2473 006a 92FBF6F2 		sdiv	r2, r2, r6
 2474 006e 1344     		add	r3, r3, r2
 2475 0070 1844     		add	r0, r0, r3
 2476 0072 2E30     		adds	r0, r0, #46
 2477 0074 8000     		lsls	r0, r0, #2
 2478              	.LVL313:
 2479 0076 F8BD     		pop	{r3, r4, r5, r6, r7, pc}
 2480              	.LVL314:
 2481              	.L224:
 2482              	.LBE249:
 2483              	.LBE248:
 675:..\..\..\liblc3\src/lc3.c ****         return 0;
 2484              		.loc 1 675 0
 2485 0078 0020     		movs	r0, #0
 679:..\..\..\liblc3\src/lc3.c **** }
 2486              		.loc 1 679 0
 2487 007a F8BD     		pop	{r3, r4, r5, r6, r7, pc}
 2488              	.LVL315:
 2489              	.L228:
 2490              		.align	2
 2491              	.L227:
 2492 007c 40420F00 		.word	1000000
 2493 0080 80841E00 		.word	2000000
 2494              		.cfi_endproc
 2495              	.LFE50:
 2496              		.size	lc3_hr_decoder_size, .-lc3_hr_decoder_size
 2497              		.section	.text.lc3_decoder_size,"ax",%progbits
 2498              		.align	1
 2499              		.global	lc3_decoder_size
 2500              		.thumb
 2501              		.thumb_func
 2502              		.type	lc3_decoder_size, %function
 2503              	lc3_decoder_size:
 2504              	.LFB51:
 680:..\..\..\liblc3\src/lc3.c **** 
 681:..\..\..\liblc3\src/lc3.c **** LC3_EXPORT unsigned lc3_decoder_size(int dt_us, int sr_hz)
 682:..\..\..\liblc3\src/lc3.c **** {
 2505              		.loc 1 682 0
 2506              		.cfi_startproc
 2507              		@ args = 0, pretend = 0, frame = 0
 2508              		@ frame_needed = 0, uses_anonymous_args = 0
 2509              		@ link register save eliminated.
 2510              	.LVL316:
 683:..\..\..\liblc3\src/lc3.c ****     return lc3_hr_decoder_size(false, dt_us, sr_hz);
 2511              		.loc 1 683 0
ARM GAS  C:\Users\rdn\AppData\Local\Temp\cckhx27q.s 			page 68


 2512 0000 0A46     		mov	r2, r1
 2513 0002 0146     		mov	r1, r0
 2514              	.LVL317:
 2515 0004 0020     		movs	r0, #0
 2516              	.LVL318:
 2517 0006 FFF7FEBF 		b	lc3_hr_decoder_size
 2518              	.LVL319:
 2519              		.cfi_endproc
 2520              	.LFE51:
 2521              		.size	lc3_decoder_size, .-lc3_decoder_size
 2522              		.section	.text.lc3_hr_setup_decoder,"ax",%progbits
 2523              		.align	1
 2524              		.global	lc3_hr_setup_decoder
 2525              		.thumb
 2526              		.thumb_func
 2527              		.type	lc3_hr_setup_decoder, %function
 2528              	lc3_hr_setup_decoder:
 2529              	.LFB52:
 684:..\..\..\liblc3\src/lc3.c **** }
 685:..\..\..\liblc3\src/lc3.c **** 
 686:..\..\..\liblc3\src/lc3.c **** /**
 687:..\..\..\liblc3\src/lc3.c ****  * Setup decoder
 688:..\..\..\liblc3\src/lc3.c ****  */
 689:..\..\..\liblc3\src/lc3.c **** LC3_EXPORT struct lc3_decoder *lc3_hr_setup_decoder(
 690:..\..\..\liblc3\src/lc3.c ****     bool hrmode, int dt_us, int sr_hz, int sr_pcm_hz, void *mem)
 691:..\..\..\liblc3\src/lc3.c **** {
 2530              		.loc 1 691 0
 2531              		.cfi_startproc
 2532              		@ args = 4, pretend = 0, frame = 8
 2533              		@ frame_needed = 0, uses_anonymous_args = 0
 2534              	.LVL320:
 2535 0000 2DE9F74F 		push	{r0, r1, r2, r4, r5, r6, r7, r8, r9, r10, fp, lr}
 2536              		.cfi_def_cfa_offset 48
 2537              		.cfi_offset 4, -36
 2538              		.cfi_offset 5, -32
 2539              		.cfi_offset 6, -28
 2540              		.cfi_offset 7, -24
 2541              		.cfi_offset 8, -20
 2542              		.cfi_offset 9, -16
 2543              		.cfi_offset 10, -12
 2544              		.cfi_offset 11, -8
 2545              		.cfi_offset 14, -4
 2546              		.loc 1 691 0
 2547 0004 8A46     		mov	r10, r1
 2548 0006 0546     		mov	r5, r0
 692:..\..\..\liblc3\src/lc3.c ****     if (sr_pcm_hz <= 0)
 693:..\..\..\liblc3\src/lc3.c ****         sr_pcm_hz = sr_hz;
 694:..\..\..\liblc3\src/lc3.c **** 
 695:..\..\..\liblc3\src/lc3.c ****     enum lc3_dt dt = resolve_dt(dt_us, hrmode);
 2549              		.loc 1 695 0
 2550 0008 0146     		mov	r1, r0
 2551              	.LVL321:
 2552 000a 5046     		mov	r0, r10
 2553              	.LVL322:
 693:..\..\..\liblc3\src/lc3.c **** 
 2554              		.loc 1 693 0
 2555 000c 002B     		cmp	r3, #0
ARM GAS  C:\Users\rdn\AppData\Local\Temp\cckhx27q.s 			page 69


 2556 000e CCBF     		ite	gt
 2557 0010 1F46     		movgt	r7, r3
 2558 0012 1746     		movle	r7, r2
 2559              	.LVL323:
 2560              		.loc 1 695 0
 2561 0014 FFF7FEFF 		bl	resolve_dt
 2562              	.LVL324:
 696:..\..\..\liblc3\src/lc3.c ****     enum lc3_srate sr = resolve_srate(sr_hz, hrmode);
 2563              		.loc 1 696 0
 2564 0018 2946     		mov	r1, r5
 695:..\..\..\liblc3\src/lc3.c ****     enum lc3_srate sr = resolve_srate(sr_hz, hrmode);
 2565              		.loc 1 695 0
 2566 001a 8146     		mov	r9, r0
 2567              	.LVL325:
 2568              		.loc 1 696 0
 2569 001c 1046     		mov	r0, r2
 2570 001e FFF7FEFF 		bl	resolve_srate
 2571              	.LVL326:
 697:..\..\..\liblc3\src/lc3.c ****     enum lc3_srate sr_pcm = resolve_srate(sr_pcm_hz, hrmode);
 2572              		.loc 1 697 0
 2573 0022 2946     		mov	r1, r5
 696:..\..\..\liblc3\src/lc3.c ****     enum lc3_srate sr = resolve_srate(sr_hz, hrmode);
 2574              		.loc 1 696 0
 2575 0024 8346     		mov	fp, r0
 2576              	.LVL327:
 2577              		.loc 1 697 0
 2578 0026 3846     		mov	r0, r7
 2579 0028 FFF7FEFF 		bl	resolve_srate
 2580              	.LVL328:
 698:..\..\..\liblc3\src/lc3.c **** 
 699:..\..\..\liblc3\src/lc3.c ****     if (dt >= LC3_NUM_DT || sr_pcm >= LC3_NUM_SRATE || sr > sr_pcm || !mem)
 2581              		.loc 1 699 0
 2582 002c B9F1030F 		cmp	r9, #3
 691:..\..\..\liblc3\src/lc3.c ****     if (sr_pcm_hz <= 0)
 2583              		.loc 1 691 0
 2584 0030 0C9C     		ldr	r4, [sp, #48]
 697:..\..\..\liblc3\src/lc3.c ****     enum lc3_srate sr_pcm = resolve_srate(sr_pcm_hz, hrmode);
 2585              		.loc 1 697 0
 2586 0032 0546     		mov	r5, r0
 2587              	.LVL329:
 2588              		.loc 1 699 0
 2589 0034 72D8     		bhi	.L240
 2590              		.loc 1 699 0 is_stmt 0 discriminator 1
 2591 0036 0628     		cmp	r0, #6
 2592 0038 70D8     		bhi	.L240
 2593              		.loc 1 699 0 discriminator 2
 2594 003a 8345     		cmp	fp, r0
 2595 003c 6ED8     		bhi	.L240
 2596              		.loc 1 699 0 discriminator 3
 2597 003e 002C     		cmp	r4, #0
 2598 0040 6ED0     		beq	.L241
 2599              	.LVL330:
 2600              	.LBB258:
 2601              	.LBB259:
  60:..\..\..\liblc3\src/tables.h ****         (8 + (dt == LC3_DT_7M5)) * lc3_ns_2m5[sr];
 2602              		.loc 2 60 0 is_stmt 1
 2603 0042 0628     		cmp	r0, #6
ARM GAS  C:\Users\rdn\AppData\Local\Temp\cckhx27q.s 			page 70


 2604 0044 384B     		ldr	r3, .L246
 2605 0046 0BD0     		beq	.L242
  61:..\..\..\liblc3\src/tables.h **** }
 2606              		.loc 2 61 0
 2607 0048 B9F1020F 		cmp	r9, #2
  60:..\..\..\liblc3\src/tables.h ****         (8 + (dt == LC3_DT_7M5)) * lc3_ns_2m5[sr];
 2608              		.loc 2 60 0
 2609 004c 53F82020 		ldr	r2, [r3, r0, lsl #2]
  61:..\..\..\liblc3\src/tables.h **** }
 2610              		.loc 2 61 0
 2611 0050 0CBF     		ite	eq
 2612 0052 4FF00908 		moveq	r8, #9
 2613 0056 4FF00808 		movne	r8, #8
  60:..\..\..\liblc3\src/tables.h ****         (8 + (dt == LC3_DT_7M5)) * lc3_ns_2m5[sr];
 2614              		.loc 2 60 0
 2615 005a 02FB08F8 		mul	r8, r2, r8
 2616 005e 01E0     		b	.L233
 2617              	.L242:
 2618 0060 4FF00008 		mov	r8, #0
 2619              	.L233:
 2620              	.LVL331:
 2621              	.LBE259:
 2622              	.LBE258:
 2623              	.LBB260:
 2624              	.LBB261:
  56:..\..\..\liblc3\src/tables.h **** }
 2625              		.loc 2 56 0
 2626 0064 B9F1020F 		cmp	r9, #2
 2627              	.LBE261:
 2628              	.LBE260:
 2629              	.LBB264:
 2630              	.LBB265:
  47:..\..\..\liblc3\src/tables.h **** }
 2631              		.loc 2 47 0
 2632 0068 53F82560 		ldr	r6, [r3, r5, lsl #2]
 2633              	.LBE265:
 2634              	.LBE264:
 2635              	.LBB267:
 2636              	.LBB262:
  56:..\..\..\liblc3\src/tables.h **** }
 2637              		.loc 2 56 0
 2638 006c 08BF     		it	eq
 2639 006e 2F4A     		ldreq	r2, .L246+4
 2640              	.LBE262:
 2641              	.LBE267:
 2642              	.LBB268:
 2643              	.LBB266:
  47:..\..\..\liblc3\src/tables.h **** }
 2644              		.loc 2 47 0
 2645 0070 09FB0663 		mla	r3, r9, r6, r6
 2646              	.LVL332:
 2647              	.LBE266:
 2648              	.LBE268:
 2649              	.LBB269:
 2650              	.LBB263:
  56:..\..\..\liblc3\src/tables.h **** }
 2651              		.loc 2 56 0
ARM GAS  C:\Users\rdn\AppData\Local\Temp\cckhx27q.s 			page 71


 2652 0074 08BF     		it	eq
 2653 0076 52F82560 		ldreq	r6, [r2, r5, lsl #2]
 2654              	.LVL333:
 2655              	.LBE263:
 2656              	.LBE269:
 700:..\..\..\liblc3\src/lc3.c ****         return NULL;
 701:..\..\..\liblc3\src/lc3.c **** 
 702:..\..\..\liblc3\src/lc3.c ****     struct lc3_decoder *decoder = mem;
 703:..\..\..\liblc3\src/lc3.c ****     int nh = lc3_nh(dt, sr_pcm);
 704:..\..\..\liblc3\src/lc3.c ****     int ns = lc3_ns(dt, sr_pcm);
 705:..\..\..\liblc3\src/lc3.c ****     int nd = lc3_nd(dt, sr_pcm);
 706:..\..\..\liblc3\src/lc3.c **** 
 707:..\..\..\liblc3\src/lc3.c ****     *decoder = (struct lc3_decoder){
 708:..\..\..\liblc3\src/lc3.c ****         .dt = dt, .sr = sr,
 709:..\..\..\liblc3\src/lc3.c ****         .sr_pcm = sr_pcm,
 710:..\..\..\liblc3\src/lc3.c **** 
 711:..\..\..\liblc3\src/lc3.c ****         .xh_off = 0,
 712:..\..\..\liblc3\src/lc3.c ****         .xs_off = nh,
 713:..\..\..\liblc3\src/lc3.c ****         .xd_off = nh + ns,
 714:..\..\..\liblc3\src/lc3.c ****         .xg_off = nh + ns + nd,
 2657              		.loc 1 714 0
 2658 007a 0193     		str	r3, [sp, #4]
 2659 007c 03EB0802 		add	r2, r3, r8
 707:..\..\..\liblc3\src/lc3.c ****         .dt = dt, .sr = sr,
 2660              		.loc 1 707 0
 2661 0080 0021     		movs	r1, #0
 2662              		.loc 1 714 0
 2663 0082 0092     		str	r2, [sp]
 707:..\..\..\liblc3\src/lc3.c ****         .dt = dt, .sr = sr,
 2664              		.loc 1 707 0
 2665 0084 2046     		mov	r0, r4
 2666              	.LVL334:
 2667 0086 BC22     		movs	r2, #188
 2668 0088 FFF7FEFF 		bl	memset
 2669              	.LVL335:
 2670 008c 009B     		ldr	r3, [sp]
 2671 008e C4F8B030 		str	r3, [r4, #176]
 2672 0092 019B     		ldr	r3, [sp, #4]
 2673 0094 84F80090 		strb	r9, [r4]
 2674 0098 1E44     		add	r6, r6, r3
 2675 009a 009B     		ldr	r3, [sp]
 2676 009c 84F801B0 		strb	fp, [r4, #1]
 2677 00a0 03EB6606 		add	r6, r3, r6, asr #1
 715:..\..\..\liblc3\src/lc3.c ****     };
 716:..\..\..\liblc3\src/lc3.c **** 
 717:..\..\..\liblc3\src/lc3.c ****     lc3_plc_reset(&decoder->plc);
 2678              		.loc 1 717 0
 2679 00a4 04F19C00 		add	r0, r4, #156
 707:..\..\..\liblc3\src/lc3.c ****         .dt = dt, .sr = sr,
 2680              		.loc 1 707 0
 2681 00a8 A570     		strb	r5, [r4, #2]
 2682 00aa C4F8AC80 		str	r8, [r4, #172]
 2683 00ae C4F8B460 		str	r6, [r4, #180]
 2684              		.loc 1 717 0
 2685 00b2 FFF7FEFF 		bl	lc3_plc_reset
 2686              	.LVL336:
 718:..\..\..\liblc3\src/lc3.c **** 
ARM GAS  C:\Users\rdn\AppData\Local\Temp\cckhx27q.s 			page 72


 719:..\..\..\liblc3\src/lc3.c ****     memset(decoder->x, 0,
 720:..\..\..\liblc3\src/lc3.c ****         LC3_DECODER_BUFFER_COUNT(dt_us, sr_pcm_hz) * sizeof(float));
 2687              		.loc 1 720 0
 2688 00b6 4BF68033 		movw	r3, #48000
 2689 00ba 9F42     		cmp	r7, r3
 719:..\..\..\liblc3\src/lc3.c ****         LC3_DECODER_BUFFER_COUNT(dt_us, sr_pcm_hz) * sizeof(float));
 2690              		.loc 1 719 0
 2691 00bc 04F1B800 		add	r0, r4, #184
 2692 00c0 0AFB07F1 		mul	r1, r10, r7
 2693              		.loc 1 720 0
 2694 00c4 0DDC     		bgt	.L244
 2695              		.loc 1 720 0 is_stmt 0 discriminator 1
 2696 00c6 1223     		movs	r3, #18
 2697 00c8 4FF47A72 		mov	r2, #1000
 2698 00cc 7B43     		muls	r3, r7, r3
 2699 00ce 93FBF2F3 		sdiv	r3, r3, r2
 2700 00d2 174A     		ldr	r2, .L246+8
 2701 00d4 91FBF2F2 		sdiv	r2, r1, r2
 2702 00d8 93FBF2F3 		sdiv	r3, r3, r2
 2703 00dc 02FB0323 		mla	r3, r2, r3, r2
 2704 00e0 00E0     		b	.L236
 2705              	.L244:
 2706              		.loc 1 720 0
 2707 00e2 0023     		movs	r3, #0
 2708              	.L236:
 2709              		.loc 1 720 0 discriminator 4
 2710 00e4 124E     		ldr	r6, .L246+8
 2711 00e6 134A     		ldr	r2, .L246+12
 2712 00e8 91FBF6FE 		sdiv	lr, r1, r6
 2713 00ec 40F2E245 		movw	r5, #1250
 2714 00f0 91FBF2F1 		sdiv	r1, r1, r2
 2715 00f4 41F64C52 		movw	r2, #7500
 2716 00f8 9245     		cmp	r10, r2
 2717 00fa 14BF     		ite	ne
 2718 00fc AA46     		movne	r10, r5
 2719 00fe 4FF4FA6A 		moveq	r10, #2000
 2720              	.LVL337:
 719:..\..\..\liblc3\src/lc3.c ****         LC3_DECODER_BUFFER_COUNT(dt_us, sr_pcm_hz) * sizeof(float));
 2721              		.loc 1 719 0 is_stmt 1 discriminator 4
 2722 0102 0AFB07F7 		mul	r7, r10, r7
 2723              	.LVL338:
 2724 0106 97FBF6F2 		sdiv	r2, r7, r6
 2725 010a 1144     		add	r1, r1, r2
 2726 010c 03EB4E02 		add	r2, r3, lr, lsl #1
 2727 0110 0A44     		add	r2, r2, r1
 2728 0112 9200     		lsls	r2, r2, #2
 2729 0114 0021     		movs	r1, #0
 2730 0116 FFF7FEFF 		bl	memset
 2731              	.LVL339:
 2732 011a 01E0     		b	.L241
 2733              	.LVL340:
 2734              	.L240:
 700:..\..\..\liblc3\src/lc3.c **** 
 2735              		.loc 1 700 0
 2736 011c 0020     		movs	r0, #0
 2737              	.LVL341:
 2738 011e 00E0     		b	.L232
ARM GAS  C:\Users\rdn\AppData\Local\Temp\cckhx27q.s 			page 73


 2739              	.LVL342:
 2740              	.L241:
 2741 0120 2046     		mov	r0, r4
 2742              	.L232:
 721:..\..\..\liblc3\src/lc3.c **** 
 722:..\..\..\liblc3\src/lc3.c ****     return decoder;
 723:..\..\..\liblc3\src/lc3.c **** }
 2743              		.loc 1 723 0
 2744 0122 03B0     		add	sp, sp, #12
 2745              		.cfi_def_cfa_offset 36
 2746              		@ sp needed
 2747 0124 BDE8F08F 		pop	{r4, r5, r6, r7, r8, r9, r10, fp, pc}
 2748              	.LVL343:
 2749              	.L247:
 2750              		.align	2
 2751              	.L246:
 2752 0128 00000000 		.word	lc3_ns_2m5
 2753 012c 00000000 		.word	lc3_ns_4m
 2754 0130 40420F00 		.word	1000000
 2755 0134 80841E00 		.word	2000000
 2756              		.cfi_endproc
 2757              	.LFE52:
 2758              		.size	lc3_hr_setup_decoder, .-lc3_hr_setup_decoder
 2759              		.section	.text.lc3_setup_decoder,"ax",%progbits
 2760              		.align	1
 2761              		.global	lc3_setup_decoder
 2762              		.thumb
 2763              		.thumb_func
 2764              		.type	lc3_setup_decoder, %function
 2765              	lc3_setup_decoder:
 2766              	.LFB53:
 724:..\..\..\liblc3\src/lc3.c **** 
 725:..\..\..\liblc3\src/lc3.c **** LC3_EXPORT struct lc3_decoder *lc3_setup_decoder(
 726:..\..\..\liblc3\src/lc3.c ****     int dt_us, int sr_hz, int sr_pcm_hz, void *mem)
 727:..\..\..\liblc3\src/lc3.c **** {
 2767              		.loc 1 727 0
 2768              		.cfi_startproc
 2769              		@ args = 0, pretend = 0, frame = 0
 2770              		@ frame_needed = 0, uses_anonymous_args = 0
 2771              	.LVL344:
 2772 0000 07B5     		push	{r0, r1, r2, lr}
 2773              		.cfi_def_cfa_offset 16
 2774              		.cfi_offset 14, -4
 728:..\..\..\liblc3\src/lc3.c ****     return lc3_hr_setup_decoder(false, dt_us, sr_hz, sr_pcm_hz, mem);
 2775              		.loc 1 728 0
 2776 0002 0093     		str	r3, [sp]
 2777 0004 1346     		mov	r3, r2
 2778              	.LVL345:
 2779 0006 0A46     		mov	r2, r1
 2780              	.LVL346:
 2781 0008 0146     		mov	r1, r0
 2782              	.LVL347:
 2783 000a 0020     		movs	r0, #0
 2784              	.LVL348:
 2785 000c FFF7FEFF 		bl	lc3_hr_setup_decoder
 2786              	.LVL349:
 729:..\..\..\liblc3\src/lc3.c **** }
ARM GAS  C:\Users\rdn\AppData\Local\Temp\cckhx27q.s 			page 74


 2787              		.loc 1 729 0
 2788 0010 03B0     		add	sp, sp, #12
 2789              		.cfi_def_cfa_offset 4
 2790              		@ sp needed
 2791 0012 5DF804FB 		ldr	pc, [sp], #4
 2792              		.cfi_endproc
 2793              	.LFE53:
 2794              		.size	lc3_setup_decoder, .-lc3_setup_decoder
 2795              		.section	.text.lc3_decode,"ax",%progbits
 2796              		.align	1
 2797              		.global	lc3_decode
 2798              		.thumb
 2799              		.thumb_func
 2800              		.type	lc3_decode, %function
 2801              	lc3_decode:
 2802              	.LFB54:
 730:..\..\..\liblc3\src/lc3.c **** 
 731:..\..\..\liblc3\src/lc3.c **** /**
 732:..\..\..\liblc3\src/lc3.c ****  * Decode a frame
 733:..\..\..\liblc3\src/lc3.c ****  */
 734:..\..\..\liblc3\src/lc3.c **** LC3_EXPORT int lc3_decode(struct lc3_decoder *decoder,
 735:..\..\..\liblc3\src/lc3.c ****     const void *in, int nbytes, enum lc3_pcm_format fmt, void *pcm, int stride)
 736:..\..\..\liblc3\src/lc3.c **** {
 2803              		.loc 1 736 0
 2804              		.cfi_startproc
 2805              		@ args = 8, pretend = 0, frame = 224
 2806              		@ frame_needed = 0, uses_anonymous_args = 0
 2807              	.LVL350:
 2808 0000 2DE9F04F 		push	{r4, r5, r6, r7, r8, r9, r10, fp, lr}
 2809              		.cfi_def_cfa_offset 36
 2810              		.cfi_offset 4, -36
 2811              		.cfi_offset 5, -32
 2812              		.cfi_offset 6, -28
 2813              		.cfi_offset 7, -24
 2814              		.cfi_offset 8, -20
 2815              		.cfi_offset 9, -16
 2816              		.cfi_offset 10, -12
 2817              		.cfi_offset 11, -8
 2818              		.cfi_offset 14, -4
 2819 0004 BDB0     		sub	sp, sp, #244
 2820              		.cfi_def_cfa_offset 280
 2821              		.loc 1 736 0
 2822 0006 9246     		mov	r10, r2
 2823 0008 0B93     		str	r3, [sp, #44]
 737:..\..\..\liblc3\src/lc3.c ****     static void (* const store[])(struct lc3_decoder *, void *, int) = {
 738:..\..\..\liblc3\src/lc3.c ****         [LC3_PCM_FORMAT_S16    ] = store_s16,
 739:..\..\..\liblc3\src/lc3.c ****         [LC3_PCM_FORMAT_S24    ] = store_s24,
 740:..\..\..\liblc3\src/lc3.c ****         [LC3_PCM_FORMAT_S24_3LE] = store_s24_3le,
 741:..\..\..\liblc3\src/lc3.c ****         [LC3_PCM_FORMAT_FLOAT  ] = store_float,
 742:..\..\..\liblc3\src/lc3.c ****     };
 743:..\..\..\liblc3\src/lc3.c **** 
 744:..\..\..\liblc3\src/lc3.c ****     /* --- Check parameters --- */
 745:..\..\..\liblc3\src/lc3.c **** 
 746:..\..\..\liblc3\src/lc3.c ****     if (!decoder)
 2824              		.loc 1 746 0
 2825 000a 0446     		mov	r4, r0
 2826 000c 0028     		cmp	r0, #0
ARM GAS  C:\Users\rdn\AppData\Local\Temp\cckhx27q.s 			page 75


 2827 000e 00F02D81 		beq	.L272
 747:..\..\..\liblc3\src/lc3.c ****         return -1;
 748:..\..\..\liblc3\src/lc3.c **** 
 749:..\..\..\liblc3\src/lc3.c ****     if (in && (nbytes < LC3_MIN_FRAME_BYTES ||
 2828              		.loc 1 749 0
 2829 0012 19B9     		cbnz	r1, .L251
 2830              	.LVL351:
 2831              	.L258:
 750:..\..\..\liblc3\src/lc3.c ****                nbytes > lc3_max_frame_bytes(decoder->dt, decoder->sr) ))
 751:..\..\..\liblc3\src/lc3.c ****         return -1;
 752:..\..\..\liblc3\src/lc3.c **** 
 753:..\..\..\liblc3\src/lc3.c ****     /* --- Processing --- */
 754:..\..\..\liblc3\src/lc3.c **** 
 755:..\..\..\liblc3\src/lc3.c ****     struct side_data side;
 756:..\..\..\liblc3\src/lc3.c **** 
 757:..\..\..\liblc3\src/lc3.c ****     int ret = !in || (decode(decoder, in, nbytes, &side) < 0);
 2832              		.loc 1 757 0
 2833 0014 0123     		movs	r3, #1
 2834 0016 0793     		str	r3, [sp, #28]
 758:..\..\..\liblc3\src/lc3.c **** 
 759:..\..\..\liblc3\src/lc3.c ****     synthesize(decoder, ret ? NULL : &side, nbytes);
 2835              		.loc 1 759 0
 2836 0018 0026     		movs	r6, #0
 2837 001a 85E0     		b	.L252
 2838              	.LVL352:
 2839              	.L251:
 749:..\..\..\liblc3\src/lc3.c ****                nbytes > lc3_max_frame_bytes(decoder->dt, decoder->sr) ))
 2840              		.loc 1 749 0 discriminator 1
 2841 001c 132A     		cmp	r2, #19
 2842 001e 40F32581 		ble	.L272
 750:..\..\..\liblc3\src/lc3.c ****                nbytes > lc3_max_frame_bytes(decoder->dt, decoder->sr) ))
 2843              		.loc 1 750 0 discriminator 2
 2844 0022 4678     		ldrb	r6, [r0, #1]	@ zero_extendqisi2
 2845 0024 0578     		ldrb	r5, [r0]	@ zero_extendqisi2
 2846              	.LVL353:
 2847              	.LBB296:
 2848              	.LBB297:
 2849              		.loc 2 87 0 discriminator 2
 2850 0026 042E     		cmp	r6, #4
 2851 0028 81BF     		itttt	hi
 2852 002a 731F     		subhi	r3, r6, #5
 2853              	.LVL354:
 2854 002c 03EB4502 		addhi	r2, r3, r5, lsl #1
 2855              	.LVL355:
 2856 0030 934B     		ldrhi	r3, .L285
 2857 0032 03EBC203 		addhi	r3, r3, r2, lsl #3
 2858 0036 94BF     		ite	ls
 2859 0038 4FF4C873 		movls	r3, #400
 2860              	.LVL356:
 2861 003c 5B68     		ldrhi	r3, [r3, #4]
 2862              	.LBE297:
 2863              	.LBE296:
 749:..\..\..\liblc3\src/lc3.c ****                nbytes > lc3_max_frame_bytes(decoder->dt, decoder->sr) ))
 2864              		.loc 1 749 0 discriminator 2
 2865 003e 9A45     		cmp	r10, r3
 2866 0040 00F31481 		bgt	.L272
 2867              	.LVL357:
ARM GAS  C:\Users\rdn\AppData\Local\Temp\cckhx27q.s 			page 76


 2868              	.LBB298:
 2869              	.LBB299:
 2870              	.LBB300:
 2871              	.LBB301:
  47:..\..\..\liblc3\src/tables.h **** }
 2872              		.loc 2 47 0
 2873 0044 8F4B     		ldr	r3, .L285+4
 2874              	.LBE301:
 2875              	.LBE300:
 571:..\..\..\liblc3\src/lc3.c ****     int ns = lc3_ns(dt, sr);
 2876              		.loc 1 571 0
 2877 0046 D0F8AC70 		ldr	r7, [r0, #172]
 2878              	.LVL358:
 2879              	.LBB304:
 2880              	.LBB302:
  47:..\..\..\liblc3\src/tables.h **** }
 2881              		.loc 2 47 0
 2882 004a 53F826B0 		ldr	fp, [r3, r6, lsl #2]
 2883              	.LVL359:
 2884              	.LBE302:
 2885              	.LBE304:
 2886              	.LBB305:
 2887              	.LBB306:
  51:..\..\..\liblc3\src/tables.h **** }
 2888              		.loc 2 51 0
 2889 004e 8E4B     		ldr	r3, .L285+8
 2890              	.LBE306:
 2891              	.LBE305:
 578:..\..\..\liblc3\src/lc3.c **** 
 2892              		.loc 1 578 0
 2893 0050 0A46     		mov	r2, r1
 2894              	.LBB309:
 2895              	.LBB307:
  51:..\..\..\liblc3\src/tables.h **** }
 2896              		.loc 2 51 0
 2897 0052 53F82680 		ldr	r8, [r3, r6, lsl #2]
 2898              	.LVL360:
 2899              	.LBE307:
 2900              	.LBE309:
 578:..\..\..\liblc3\src/lc3.c **** 
 2901              		.loc 1 578 0
 2902 0056 0021     		movs	r1, #0
 2903              	.LVL361:
 2904 0058 5346     		mov	r3, r10
 2905 005a 0DA8     		add	r0, sp, #52
 2906              	.LVL362:
 2907 005c FFF7FEFF 		bl	lc3_setup_bits
 2908              	.LVL363:
 580:..\..\..\liblc3\src/lc3.c ****         return ret;
 2909              		.loc 1 580 0
 2910 0060 1BAA     		add	r2, sp, #108
 2911              	.LVL364:
 2912 0062 3146     		mov	r1, r6
 2913 0064 0DA8     		add	r0, sp, #52
 2914 0066 FFF7FEFF 		bl	lc3_bwdet_get_bw
 2915              	.LVL365:
 2916 006a 0028     		cmp	r0, #0
ARM GAS  C:\Users\rdn\AppData\Local\Temp\cckhx27q.s 			page 77


 2917 006c 56DB     		blt	.L254
 583:..\..\..\liblc3\src/lc3.c ****         return ret;
 2918              		.loc 1 583 0
 2919 006e 0DF1E409 		add	r9, sp, #228
 2920 0072 4B46     		mov	r3, r9
 2921 0074 3246     		mov	r2, r6
 2922 0076 2946     		mov	r1, r5
 2923 0078 0DA8     		add	r0, sp, #52
 2924              	.LVL366:
 2925 007a FFF7FEFF 		bl	lc3_spec_get_side
 2926              	.LVL367:
 2927 007e 0028     		cmp	r0, #0
 2928 0080 4CDB     		blt	.L254
 586:..\..\..\liblc3\src/lc3.c ****         return ret;
 2929              		.loc 1 586 0
 2930 0082 25AB     		add	r3, sp, #148
 2931 0084 0093     		str	r3, [sp]
 2932 0086 9DF86C20 		ldrb	r2, [sp, #108]	@ zero_extendqisi2
 2933 008a 5346     		mov	r3, r10
 2934 008c 2946     		mov	r1, r5
 2935 008e 0DA8     		add	r0, sp, #52
 2936              	.LVL368:
 2937 0090 FFF7FEFF 		bl	lc3_tns_get_data
 2938              	.LVL369:
 2939 0094 0028     		cmp	r0, #0
 2940 0096 41DB     		blt	.L254
 2941              	.LVL370:
 2942              	.LBB310:
 2943              	.LBB311:
 2944              	.LBB312:
 228:..\..\..\liblc3\src/bits.h ****     }
 229:..\..\..\liblc3\src/bits.h **** }
 230:..\..\..\liblc3\src/bits.h **** 
 231:..\..\..\liblc3\src/bits.h **** /**
 232:..\..\..\liblc3\src/bits.h ****  * Get a bit
 233:..\..\..\liblc3\src/bits.h ****  */
 234:..\..\..\liblc3\src/bits.h **** LC3_HOT static inline int lc3_get_bit(lc3_bits_t *bits)
 235:..\..\..\liblc3\src/bits.h **** {
 236:..\..\..\liblc3\src/bits.h ****     return lc3_get_bits(bits, 1);
 237:..\..\..\liblc3\src/bits.h **** }
 238:..\..\..\liblc3\src/bits.h **** 
 239:..\..\..\liblc3\src/bits.h **** /**
 240:..\..\..\liblc3\src/bits.h ****  * Get from 1 to 32 bits
 241:..\..\..\liblc3\src/bits.h ****  */
 242:..\..\..\liblc3\src/bits.h **** LC3_HOT static inline unsigned lc3_get_bits(struct lc3_bits *bits, int n)
 243:..\..\..\liblc3\src/bits.h **** {
 244:..\..\..\liblc3\src/bits.h ****     struct lc3_bits_accu *accu = &bits->accu;
 245:..\..\..\liblc3\src/bits.h **** 
 246:..\..\..\liblc3\src/bits.h ****     if (accu->n + n <= LC3_ACCU_BITS) {
 2945              		.loc 4 246 0
 2946 0098 1598     		ldr	r0, [sp, #84]
 2947              	.LVL371:
 2948 009a 421C     		adds	r2, r0, #1
 2949 009c 202A     		cmp	r2, #32
 2950 009e 06DC     		bgt	.L255
 2951              	.LBB313:
 247:..\..\..\liblc3\src/bits.h ****         int v = (accu->v >> accu->n) & ((1u << n) - 1);
ARM GAS  C:\Users\rdn\AppData\Local\Temp\cckhx27q.s 			page 78


 2952              		.loc 4 247 0
 2953 00a0 149B     		ldr	r3, [sp, #80]
 248:..\..\..\liblc3\src/bits.h ****         return (accu->n += n), v;
 2954              		.loc 4 248 0
 2955 00a2 1592     		str	r2, [sp, #84]
 247:..\..\..\liblc3\src/bits.h ****         int v = (accu->v >> accu->n) & ((1u << n) - 1);
 2956              		.loc 4 247 0
 2957 00a4 23FA00F0 		lsr	r0, r3, r0
 2958 00a8 00F00100 		and	r0, r0, #1
 2959              	.LVL372:
 2960 00ac 03E0     		b	.L256
 2961              	.LVL373:
 2962              	.L255:
 2963              	.LBE313:
 249:..\..\..\liblc3\src/bits.h ****     }
 250:..\..\..\liblc3\src/bits.h ****     else {
 251:..\..\..\liblc3\src/bits.h ****         return lc3_get_bits_generic(bits, n);
 2964              		.loc 4 251 0
 2965 00ae 0121     		movs	r1, #1
 2966 00b0 0DA8     		add	r0, sp, #52
 2967              	.LVL374:
 2968 00b2 FFF7FEFF 		bl	lc3_get_bits_generic
 2969              	.LVL375:
 2970              	.L256:
 2971              	.LBE312:
 2972              	.LBE311:
 2973              	.LBE310:
 589:..\..\..\liblc3\src/lc3.c **** 
 2974              		.loc 1 589 0
 2975 00b6 0030     		adds	r0, r0, #0
 2976 00b8 18BF     		it	ne
 2977 00ba 0120     		movne	r0, #1
 2978 00bc 8DF86D00 		strb	r0, [sp, #109]
 591:..\..\..\liblc3\src/lc3.c ****         return ret;
 2979              		.loc 1 591 0
 2980 00c0 1EA9     		add	r1, sp, #120
 2981 00c2 0DA8     		add	r0, sp, #52
 2982 00c4 FFF7FEFF 		bl	lc3_sns_get_data
 2983              	.LVL376:
 2984 00c8 0028     		cmp	r0, #0
 2985 00ca 27DB     		blt	.L254
 594:..\..\..\liblc3\src/lc3.c ****       lc3_ltpf_get_data(&bits, &side->ltpf);
 2986              		.loc 1 594 0
 2987 00cc 9DF86D30 		ldrb	r3, [sp, #109]	@ zero_extendqisi2
 2988 00d0 1BB1     		cbz	r3, .L257
 595:..\..\..\liblc3\src/lc3.c **** 
 2989              		.loc 1 595 0
 2990 00d2 1CA9     		add	r1, sp, #112
 2991 00d4 0DA8     		add	r0, sp, #52
 2992              	.LVL377:
 2993 00d6 FFF7FEFF 		bl	lc3_ltpf_get_data
 2994              	.LVL378:
 2995              	.L257:
 571:..\..\..\liblc3\src/lc3.c ****     int ns = lc3_ns(dt, sr);
 2996              		.loc 1 571 0
 2997 00da 04F1B803 		add	r3, r4, #184
 2998 00de 03EB8707 		add	r7, r3, r7, lsl #2
ARM GAS  C:\Users\rdn\AppData\Local\Temp\cckhx27q.s 			page 79


 2999              	.LVL379:
 597:..\..\..\liblc3\src/lc3.c ****                     side->bw, nbytes, &side->spec, xf)) < 0)
 3000              		.loc 1 597 0
 3001 00e2 0297     		str	r7, [sp, #8]
 3002 00e4 9DF86C30 		ldrb	r3, [sp, #108]	@ zero_extendqisi2
 3003 00e8 CDF80490 		str	r9, [sp, #4]
 3004 00ec CDF800A0 		str	r10, [sp]
 3005 00f0 3246     		mov	r2, r6
 3006 00f2 2946     		mov	r1, r5
 3007 00f4 0DA8     		add	r0, sp, #52
 3008 00f6 FFF7FEFF 		bl	lc3_spec_decode
 3009              	.LVL380:
 3010 00fa 0028     		cmp	r0, #0
 3011 00fc 0EDB     		blt	.L254
 3012              	.LBB314:
 3013              	.LBB303:
  47:..\..\..\liblc3\src/tables.h **** }
 3014              		.loc 2 47 0
 3015 00fe 0135     		adds	r5, r5, #1
 3016              	.LVL381:
 3017              	.LBE303:
 3018              	.LBE314:
 3019              	.LBB315:
 3020              	.LBB308:
  51:..\..\..\liblc3\src/tables.h **** }
 3021              		.loc 2 51 0
 3022 0100 08FB05F0 		mul	r0, r8, r5
 3023              	.LVL382:
 3024              	.LBE308:
 3025              	.LBE315:
 601:..\..\..\liblc3\src/lc3.c **** 
 3026              		.loc 1 601 0
 3027 0104 05FB0BF5 		mul	r5, r5, fp
 3028              	.LVL383:
 3029 0108 2A1A     		subs	r2, r5, r0
 3030 010a 9200     		lsls	r2, r2, #2
 3031 010c 0021     		movs	r1, #0
 3032 010e 07EB8000 		add	r0, r7, r0, lsl #2
 3033 0112 FFF7FEFF 		bl	memset
 3034              	.LVL384:
 603:..\..\..\liblc3\src/lc3.c **** }
 3035              		.loc 1 603 0
 3036 0116 0DA8     		add	r0, sp, #52
 3037 0118 FFF7FEFF 		bl	lc3_check_bits
 3038              	.LVL385:
 3039              	.L254:
 3040              	.LBE299:
 3041              	.LBE298:
 757:..\..\..\liblc3\src/lc3.c **** 
 3042              		.loc 1 757 0
 3043 011c 0028     		cmp	r0, #0
 3044 011e FFF679AF 		blt	.L258
 3045 0122 0023     		movs	r3, #0
 3046 0124 0793     		str	r3, [sp, #28]
 3047              		.loc 1 759 0
 3048 0126 1BAE     		add	r6, sp, #108
 3049              	.L252:
ARM GAS  C:\Users\rdn\AppData\Local\Temp\cckhx27q.s 			page 80


 3050              	.LVL386:
 3051              	.LBB316:
 3052              	.LBB317:
 617:..\..\..\liblc3\src/lc3.c **** 
 3053              		.loc 1 617 0 discriminator 4
 3054 0128 A378     		ldrb	r3, [r4, #2]	@ zero_extendqisi2
 3055 012a 0493     		str	r3, [sp, #16]
 619:..\..\..\liblc3\src/lc3.c ****     int ns = lc3_ns(dt, sr_pcm);
 3056              		.loc 1 619 0 discriminator 4
 3057 012c D4F8AC50 		ldr	r5, [r4, #172]
 615:..\..\..\liblc3\src/lc3.c ****     enum lc3_srate sr = decoder->sr;
 3058              		.loc 1 615 0 discriminator 4
 3059 0130 94F80080 		ldrb	r8, [r4]	@ zero_extendqisi2
 3060              	.LVL387:
 616:..\..\..\liblc3\src/lc3.c ****     enum lc3_srate sr_pcm = decoder->sr_pcm;
 3061              		.loc 1 616 0 discriminator 4
 3062 0134 94F80190 		ldrb	r9, [r4, #1]	@ zero_extendqisi2
 3063              	.LVL388:
 619:..\..\..\liblc3\src/lc3.c ****     int ns = lc3_ns(dt, sr_pcm);
 3064              		.loc 1 619 0 discriminator 4
 3065 0138 04F1B803 		add	r3, r4, #184
 3066 013c 0593     		str	r3, [sp, #20]
 623:..\..\..\liblc3\src/lc3.c ****     float *xs = xf;
 3067              		.loc 1 623 0 discriminator 4
 3068 013e 059A     		ldr	r2, [sp, #20]
 619:..\..\..\liblc3\src/lc3.c ****     int ns = lc3_ns(dt, sr_pcm);
 3069              		.loc 1 619 0 discriminator 4
 3070 0140 03EB8505 		add	r5, r3, r5, lsl #2
 3071              	.LVL389:
 623:..\..\..\liblc3\src/lc3.c ****     float *xs = xf;
 3072              		.loc 1 623 0 discriminator 4
 3073 0144 D4F8B430 		ldr	r3, [r4, #180]
 3074 0148 02EB8303 		add	r3, r2, r3, lsl #2
 3075 014c 0693     		str	r3, [sp, #24]
 3076              	.LVL390:
 626:..\..\..\liblc3\src/lc3.c ****     float *xh = decoder->x + decoder->xh_off;
 3077              		.loc 1 626 0 discriminator 4
 3078 014e D4F8B030 		ldr	r3, [r4, #176]
 3079              	.LVL391:
 3080 0152 02EB8303 		add	r3, r2, r3, lsl #2
 3081 0156 0893     		str	r3, [sp, #32]
 3082              	.LVL392:
 627:..\..\..\liblc3\src/lc3.c **** 
 3083              		.loc 1 627 0 discriminator 4
 3084 0158 D4F8A830 		ldr	r3, [r4, #168]
 3085              	.LVL393:
 3086 015c 0A93     		str	r3, [sp, #40]
 3087              	.LVL394:
 629:..\..\..\liblc3\src/lc3.c ****         enum lc3_bandwidth bw = side->bw;
 3088              		.loc 1 629 0 discriminator 4
 3089 015e 16B3     		cbz	r6, .L259
 3090              	.LBB318:
 630:..\..\..\liblc3\src/lc3.c **** 
 3091              		.loc 1 630 0
 3092 0160 B346     		mov	fp, r6
 632:..\..\..\liblc3\src/lc3.c **** 
 3093              		.loc 1 632 0
ARM GAS  C:\Users\rdn\AppData\Local\Temp\cckhx27q.s 			page 81


 3094 0162 04F19C00 		add	r0, r4, #156
 630:..\..\..\liblc3\src/lc3.c **** 
 3095              		.loc 1 630 0
 3096 0166 1BF8287B 		ldrb	r7, [fp], #40	@ zero_extendqisi2
 3097              	.LVL395:
 632:..\..\..\liblc3\src/lc3.c **** 
 3098              		.loc 1 632 0
 3099 016a FFF7FEFF 		bl	lc3_plc_suspend
 3100              	.LVL396:
 634:..\..\..\liblc3\src/lc3.c **** 
 3101              		.loc 1 634 0
 3102 016e 2B46     		mov	r3, r5
 3103 0170 5A46     		mov	r2, fp
 3104 0172 3946     		mov	r1, r7
 3105 0174 4046     		mov	r0, r8
 3106 0176 FFF7FEFF 		bl	lc3_tns_synthesize
 3107              	.LVL397:
 636:..\..\..\liblc3\src/lc3.c **** 
 3108              		.loc 1 636 0
 3109 017a 069B     		ldr	r3, [sp, #24]
 3110 017c 0093     		str	r3, [sp]
 3111 017e 06F10C02 		add	r2, r6, #12
 3112 0182 2B46     		mov	r3, r5
 3113 0184 4946     		mov	r1, r9
 3114 0186 4046     		mov	r0, r8
 3115 0188 FFF7FEFF 		bl	lc3_sns_synthesize
 3116              	.LVL398:
 638:..\..\..\liblc3\src/lc3.c **** 
 3117              		.loc 1 638 0
 3118 018c 089B     		ldr	r3, [sp, #32]
 3119 018e 0093     		str	r3, [sp]
 3120 0190 0195     		str	r5, [sp, #4]
 3121 0192 069B     		ldr	r3, [sp, #24]
 3122 0194 0499     		ldr	r1, [sp, #16]
 3123 0196 4A46     		mov	r2, r9
 3124 0198 4046     		mov	r0, r8
 3125 019a FFF7FEFF 		bl	lc3_mdct_inverse
 3126              	.LVL399:
 3127              	.LBE318:
 648:..\..\..\liblc3\src/lc3.c ****         lc3_ltpf_synthesize(dt, sr_pcm, nbytes, &decoder->ltpf,
 3128              		.loc 1 648 0
 3129 019e B9F1040F 		cmp	r9, #4
 3130 01a2 2BD9     		bls	.L260
 3131 01a4 3BE0     		b	.L261
 3132              	.LVL400:
 3133              	.L259:
 3134              	.LBB319:
 3135              	.LBB320:
  47:..\..\..\liblc3\src/tables.h **** }
 3136              		.loc 2 47 0
 3137 01a6 049A     		ldr	r2, [sp, #16]
 3138              	.LVL401:
 3139 01a8 364B     		ldr	r3, .L285+4
 3140              	.LVL402:
 3141              	.LBE320:
 3142              	.LBE319:
 641:..\..\..\liblc3\src/lc3.c **** 
ARM GAS  C:\Users\rdn\AppData\Local\Temp\cckhx27q.s 			page 82


 3143              		.loc 1 641 0
 3144 01aa 0095     		str	r5, [sp]
 3145              	.LVL403:
 3146              	.LBB323:
 3147              	.LBB321:
  47:..\..\..\liblc3\src/tables.h **** }
 3148              		.loc 2 47 0
 3149 01ac 53F82230 		ldr	r3, [r3, r2, lsl #2]
 3150 01b0 0993     		str	r3, [sp, #36]
 3151              	.LBE321:
 3152              	.LBE323:
 3153              	.LBB324:
 3154              	.LBB325:
  51:..\..\..\liblc3\src/tables.h **** }
 3155              		.loc 2 51 0
 3156 01b2 354B     		ldr	r3, .L285+8
 3157 01b4 53F82930 		ldr	r3, [r3, r9, lsl #2]
 3158              	.LBE325:
 3159              	.LBE324:
 3160              	.LBB327:
 3161              	.LBB322:
  47:..\..\..\liblc3\src/tables.h **** }
 3162              		.loc 2 47 0
 3163 01b8 08F10107 		add	r7, r8, #1
 3164              	.LBE322:
 3165              	.LBE327:
 3166              	.LBB328:
 3167              	.LBB326:
  51:..\..\..\liblc3\src/tables.h **** }
 3168              		.loc 2 51 0
 3169 01bc 03FB07FB 		mul	fp, r3, r7
 3170              	.LBE326:
 3171              	.LBE328:
 641:..\..\..\liblc3\src/lc3.c **** 
 3172              		.loc 1 641 0
 3173 01c0 04F19C02 		add	r2, r4, #156
 3174 01c4 069B     		ldr	r3, [sp, #24]
 3175 01c6 4946     		mov	r1, r9
 3176 01c8 4046     		mov	r0, r8
 3177 01ca FFF7FEFF 		bl	lc3_plc_synthesize
 3178              	.LVL404:
 643:..\..\..\liblc3\src/lc3.c **** 
 3179              		.loc 1 643 0
 3180 01ce 099B     		ldr	r3, [sp, #36]
 3181 01d0 5F43     		muls	r7, r3, r7
 3182 01d2 CBEB0702 		rsb	r2, fp, r7
 3183 01d6 9200     		lsls	r2, r2, #2
 3184 01d8 3146     		mov	r1, r6
 3185 01da 05EB8B00 		add	r0, r5, fp, lsl #2
 3186 01de FFF7FEFF 		bl	memset
 3187              	.LVL405:
 645:..\..\..\liblc3\src/lc3.c ****     }
 3188              		.loc 1 645 0
 3189 01e2 089B     		ldr	r3, [sp, #32]
 3190 01e4 0093     		str	r3, [sp]
 3191 01e6 0195     		str	r5, [sp, #4]
 3192 01e8 2B46     		mov	r3, r5
ARM GAS  C:\Users\rdn\AppData\Local\Temp\cckhx27q.s 			page 83


 3193 01ea 4A46     		mov	r2, r9
 3194 01ec 0499     		ldr	r1, [sp, #16]
 3195 01ee 4046     		mov	r0, r8
 3196 01f0 FFF7FEFF 		bl	lc3_mdct_inverse
 3197              	.LVL406:
 648:..\..\..\liblc3\src/lc3.c ****         lc3_ltpf_synthesize(dt, sr_pcm, nbytes, &decoder->ltpf,
 3198              		.loc 1 648 0
 3199 01f4 B9F1040F 		cmp	r9, #4
 3200 01f8 3BD9     		bls	.L262
 3201 01fa 10E0     		b	.L261
 3202              	.LVL407:
 3203              	.L260:
 650:..\..\..\liblc3\src/lc3.c **** }
 3204              		.loc 1 650 0
 3205 01fc 7278     		ldrb	r2, [r6, #1]	@ zero_extendqisi2
 649:..\..\..\liblc3\src/lc3.c ****             side && side->pitch_present ? &side->ltpf : NULL, xh, xs);
 3206              		.loc 1 649 0
 3207 01fe 231D     		adds	r3, r4, #4
 650:..\..\..\liblc3\src/lc3.c **** }
 3208              		.loc 1 650 0
 3209 0200 002A     		cmp	r2, #0
 3210 0202 38D0     		beq	.L284
 649:..\..\..\liblc3\src/lc3.c ****             side && side->pitch_present ? &side->ltpf : NULL, xh, xs);
 3211              		.loc 1 649 0
 3212 0204 0436     		adds	r6, r6, #4
 3213              	.LVL408:
 3214              	.L267:
 3215 0206 0A99     		ldr	r1, [sp, #40]
 3216 0208 059A     		ldr	r2, [sp, #20]
 3217 020a 0295     		str	r5, [sp, #8]
 3218 020c 02EB8102 		add	r2, r2, r1, lsl #2
 3219 0210 0192     		str	r2, [sp, #4]
 3220 0212 0096     		str	r6, [sp]
 3221 0214 5246     		mov	r2, r10
 3222 0216 0499     		ldr	r1, [sp, #16]
 3223 0218 4046     		mov	r0, r8
 3224 021a FFF7FEFF 		bl	lc3_ltpf_synthesize
 3225              	.LVL409:
 3226              	.L261:
 3227              	.LBE317:
 3228              	.LBE316:
 760:..\..\..\liblc3\src/lc3.c **** 
 761:..\..\..\liblc3\src/lc3.c ****     store[fmt](decoder, pcm, stride);
 3229              		.loc 1 761 0 discriminator 4
 3230 021e 0B9A     		ldr	r2, [sp, #44]
 3231 0220 1A4B     		ldr	r3, .L285+12
 3232 0222 4699     		ldr	r1, [sp, #280]
 3233 0224 03EB8203 		add	r3, r3, r2, lsl #2
 3234 0228 2046     		mov	r0, r4
 3235 022a 1B69     		ldr	r3, [r3, #16]
 3236 022c 479A     		ldr	r2, [sp, #284]
 3237 022e 9847     		blx	r3
 3238              	.LVL410:
 3239              	.LBB330:
 3240              	.LBB331:
 660:..\..\..\liblc3\src/lc3.c ****     int nh = lc3_nh(dt, sr_pcm);
 3241              		.loc 1 660 0 discriminator 4
ARM GAS  C:\Users\rdn\AppData\Local\Temp\cckhx27q.s 			page 84


 3242 0230 A178     		ldrb	r1, [r4, #2]	@ zero_extendqisi2
 659:..\..\..\liblc3\src/lc3.c ****     enum lc3_srate sr_pcm = decoder->sr_pcm;
 3243              		.loc 1 659 0 discriminator 4
 3244 0232 2578     		ldrb	r5, [r4]	@ zero_extendqisi2
 3245              	.LVL411:
 3246 0234 134B     		ldr	r3, .L285+4
 3247              	.LBB332:
 3248              	.LBB333:
  60:..\..\..\liblc3\src/tables.h ****         (8 + (dt == LC3_DT_7M5)) * lc3_ns_2m5[sr];
 3249              		.loc 2 60 0 discriminator 4
 3250 0236 0529     		cmp	r1, #5
 3251 0238 07D8     		bhi	.L278
  61:..\..\..\liblc3\src/tables.h **** }
 3252              		.loc 2 61 0
 3253 023a 022D     		cmp	r5, #2
  60:..\..\..\liblc3\src/tables.h ****         (8 + (dt == LC3_DT_7M5)) * lc3_ns_2m5[sr];
 3254              		.loc 2 60 0
 3255 023c 53F82120 		ldr	r2, [r3, r1, lsl #2]
  61:..\..\..\liblc3\src/tables.h **** }
 3256              		.loc 2 61 0
 3257 0240 0CBF     		ite	eq
 3258 0242 0920     		moveq	r0, #9
 3259 0244 0820     		movne	r0, #8
  60:..\..\..\liblc3\src/tables.h ****         (8 + (dt == LC3_DT_7M5)) * lc3_ns_2m5[sr];
 3260              		.loc 2 60 0
 3261 0246 4243     		muls	r2, r0, r2
 3262 0248 00E0     		b	.L264
 3263              	.L278:
 3264 024a 0022     		movs	r2, #0
 3265              	.L264:
 3266              	.LVL412:
 3267              	.LBE333:
 3268              	.LBE332:
 664:..\..\..\liblc3\src/lc3.c ****         decoder->xs_off + ns : decoder->xh_off;
 3269              		.loc 1 664 0
 3270 024c D4F8AC00 		ldr	r0, [r4, #172]
 3271              	.LBB334:
 3272              	.LBB335:
  47:..\..\..\liblc3\src/tables.h **** }
 3273              		.loc 2 47 0
 3274 0250 53F82130 		ldr	r3, [r3, r1, lsl #2]
 3275              	.LVL413:
 3276              	.LBE335:
 3277              	.LBE334:
 664:..\..\..\liblc3\src/lc3.c ****         decoder->xs_off + ns : decoder->xh_off;
 3278              		.loc 1 664 0
 3279 0254 D4F8A810 		ldr	r1, [r4, #168]
 3280              	.LVL414:
 665:..\..\..\liblc3\src/lc3.c **** }
 3281              		.loc 1 665 0
 3282 0258 461A     		subs	r6, r0, r1
 3283 025a 9642     		cmp	r6, r2
 3284 025c BCBF     		itt	lt
 3285 025e 05FB0333 		mlalt	r3, r5, r3, r3
 3286 0262 1918     		addlt	r1, r3, r0
 664:..\..\..\liblc3\src/lc3.c ****         decoder->xs_off + ns : decoder->xh_off;
 3287              		.loc 1 664 0
ARM GAS  C:\Users\rdn\AppData\Local\Temp\cckhx27q.s 			page 85


 3288 0264 C4F8AC10 		str	r1, [r4, #172]
 3289 0268 0798     		ldr	r0, [sp, #28]
 3290 026a 06E0     		b	.L283
 3291              	.LVL415:
 3292              	.L272:
 3293              	.LBE331:
 3294              	.LBE330:
 747:..\..\..\liblc3\src/lc3.c **** 
 3295              		.loc 1 747 0
 3296 026c 4FF0FF30 		mov	r0, #-1
 3297              	.LVL416:
 3298 0270 03E0     		b	.L283
 3299              	.LVL417:
 3300              	.L262:
 3301              	.LBB336:
 3302              	.LBB329:
 649:..\..\..\liblc3\src/lc3.c ****             side && side->pitch_present ? &side->ltpf : NULL, xh, xs);
 3303              		.loc 1 649 0
 3304 0272 231D     		adds	r3, r4, #4
 3305 0274 C7E7     		b	.L267
 3306              	.LVL418:
 3307              	.L284:
 3308 0276 1646     		mov	r6, r2
 3309              	.LVL419:
 3310 0278 C5E7     		b	.L267
 3311              	.LVL420:
 3312              	.L283:
 3313              	.LBE329:
 3314              	.LBE336:
 762:..\..\..\liblc3\src/lc3.c **** 
 763:..\..\..\liblc3\src/lc3.c ****     complete(decoder);
 764:..\..\..\liblc3\src/lc3.c **** 
 765:..\..\..\liblc3\src/lc3.c ****     return ret;
 766:..\..\..\liblc3\src/lc3.c **** }
 3315              		.loc 1 766 0
 3316 027a 3DB0     		add	sp, sp, #244
 3317              		.cfi_def_cfa_offset 36
 3318              		@ sp needed
 3319 027c BDE8F08F 		pop	{r4, r5, r6, r7, r8, r9, r10, fp, pc}
 3320              	.LVL421:
 3321              	.L286:
 3322              		.align	2
 3323              	.L285:
 3324 0280 00000000 		.word	lc3_frame_bytes_hr_lim
 3325 0284 00000000 		.word	lc3_ns_2m5
 3326 0288 00000000 		.word	lc3_ne_2m5
 3327 028c 00000000 		.word	.LANCHOR0
 3328              		.cfi_endproc
 3329              	.LFE54:
 3330              		.size	lc3_decode, .-lc3_decode
 3331              		.section	.rodata
 3332              		.align	2
 3333              		.set	.LANCHOR0,. + 0
 3334              		.type	load.5874, %object
 3335              		.size	load.5874, 16
 3336              	load.5874:
 3337 0000 00000000 		.word	load_s16
ARM GAS  C:\Users\rdn\AppData\Local\Temp\cckhx27q.s 			page 86


 3338 0004 00000000 		.word	load_s24
 3339 0008 00000000 		.word	load_s24_3le
 3340 000c 00000000 		.word	load_float
 3341              		.type	store.6009, %object
 3342              		.size	store.6009, 16
 3343              	store.6009:
 3344 0010 00000000 		.word	store_s16
 3345 0014 00000000 		.word	store_s24
 3346 0018 00000000 		.word	store_s24_3le
 3347 001c 00000000 		.word	store_float
 3348              		.text
 3349              	.Letext0:
 3350              		.file 5 "c:\\program files (x86)\\cypress\\psoc creator\\4.4\\psoc creator\\import\\gnu\\arm\\5.4.
 3351              		.file 6 "c:\\program files (x86)\\cypress\\psoc creator\\4.4\\psoc creator\\import\\gnu\\arm\\5.4.
 3352              		.file 7 "./liblc3/include/lc3_private.h"
 3353              		.file 8 "./liblc3/include/lc3.h"
 3354              		.file 9 "..\\..\\..\\liblc3\\src\\common.h"
 3355              		.file 10 "..\\..\\..\\liblc3\\src\\ltpf.h"
 3356              		.file 11 "..\\..\\..\\liblc3\\src\\sns.h"
 3357              		.file 12 "..\\..\\..\\liblc3\\src\\tns.h"
 3358              		.file 13 "..\\..\\..\\liblc3\\src\\spec.h"
 3359              		.file 14 "c:\\program files (x86)\\cypress\\psoc creator\\4.4\\psoc creator\\import\\gnu\\arm\\5.4
 3360              		.file 15 "..\\..\\..\\liblc3\\src\\attdet.h"
 3361              		.file 16 "c:\\program files (x86)\\cypress\\psoc creator\\4.4\\psoc creator\\import\\gnu\\arm\\5.4
 3362              		.file 17 "..\\..\\..\\liblc3\\src\\mdct.h"
 3363              		.file 18 "..\\..\\..\\liblc3\\src\\energy.h"
 3364              		.file 19 "..\\..\\..\\liblc3\\src\\bwdet.h"
 3365              		.file 20 "..\\..\\..\\liblc3\\src\\plc.h"
 3366              		.section	.debug_info,"",%progbits
 3367              	.Ldebug_info0:
 3368 0000 1C310000 		.4byte	0x311c
 3369 0004 0400     		.2byte	0x4
 3370 0006 00000000 		.4byte	.Ldebug_abbrev0
 3371 000a 04       		.byte	0x4
 3372 000b 01       		.uleb128 0x1
 3373 000c 6E080000 		.4byte	.LASF238
 3374 0010 0C       		.byte	0xc
 3375 0011 500B0000 		.4byte	.LASF239
 3376 0015 A6040000 		.4byte	.LASF240
 3377 0019 C0020000 		.4byte	.Ldebug_ranges0+0x2c0
 3378 001d 00000000 		.4byte	0
 3379 0021 00000000 		.4byte	.Ldebug_line0
 3380 0025 02       		.uleb128 0x2
 3381 0026 01       		.byte	0x1
 3382 0027 06       		.byte	0x6
 3383 0028 7F0B0000 		.4byte	.LASF0
 3384 002c 03       		.uleb128 0x3
 3385 002d 5D090000 		.4byte	.LASF2
 3386 0031 05       		.byte	0x5
 3387 0032 1D       		.byte	0x1d
 3388 0033 37000000 		.4byte	0x37
 3389 0037 02       		.uleb128 0x2
 3390 0038 01       		.byte	0x1
 3391 0039 08       		.byte	0x8
 3392 003a 9F0A0000 		.4byte	.LASF1
 3393 003e 03       		.uleb128 0x3
 3394 003f 39060000 		.4byte	.LASF3
ARM GAS  C:\Users\rdn\AppData\Local\Temp\cckhx27q.s 			page 87


 3395 0043 05       		.byte	0x5
 3396 0044 29       		.byte	0x29
 3397 0045 49000000 		.4byte	0x49
 3398 0049 02       		.uleb128 0x2
 3399 004a 02       		.byte	0x2
 3400 004b 05       		.byte	0x5
 3401 004c 12080000 		.4byte	.LASF4
 3402 0050 03       		.uleb128 0x3
 3403 0051 98020000 		.4byte	.LASF5
 3404 0055 05       		.byte	0x5
 3405 0056 2B       		.byte	0x2b
 3406 0057 5B000000 		.4byte	0x5b
 3407 005b 02       		.uleb128 0x2
 3408 005c 02       		.byte	0x2
 3409 005d 07       		.byte	0x7
 3410 005e 8B0B0000 		.4byte	.LASF6
 3411 0062 03       		.uleb128 0x3
 3412 0063 AD000000 		.4byte	.LASF7
 3413 0067 05       		.byte	0x5
 3414 0068 3F       		.byte	0x3f
 3415 0069 6D000000 		.4byte	0x6d
 3416 006d 02       		.uleb128 0x2
 3417 006e 04       		.byte	0x4
 3418 006f 05       		.byte	0x5
 3419 0070 3A080000 		.4byte	.LASF8
 3420 0074 03       		.uleb128 0x3
 3421 0075 AD0A0000 		.4byte	.LASF9
 3422 0079 05       		.byte	0x5
 3423 007a 41       		.byte	0x41
 3424 007b 7F000000 		.4byte	0x7f
 3425 007f 02       		.uleb128 0x2
 3426 0080 04       		.byte	0x4
 3427 0081 07       		.byte	0x7
 3428 0082 0A0A0000 		.4byte	.LASF10
 3429 0086 03       		.uleb128 0x3
 3430 0087 6C070000 		.4byte	.LASF11
 3431 008b 05       		.byte	0x5
 3432 008c 59       		.byte	0x59
 3433 008d 91000000 		.4byte	0x91
 3434 0091 02       		.uleb128 0x2
 3435 0092 08       		.byte	0x8
 3436 0093 05       		.byte	0x5
 3437 0094 9A050000 		.4byte	.LASF12
 3438 0098 02       		.uleb128 0x2
 3439 0099 08       		.byte	0x8
 3440 009a 07       		.byte	0x7
 3441 009b 37020000 		.4byte	.LASF13
 3442 009f 04       		.uleb128 0x4
 3443 00a0 04       		.byte	0x4
 3444 00a1 05       		.byte	0x5
 3445 00a2 696E7400 		.ascii	"int\000"
 3446 00a6 02       		.uleb128 0x2
 3447 00a7 04       		.byte	0x4
 3448 00a8 07       		.byte	0x7
 3449 00a9 87000000 		.4byte	.LASF14
 3450 00ad 03       		.uleb128 0x3
 3451 00ae 2A050000 		.4byte	.LASF15
ARM GAS  C:\Users\rdn\AppData\Local\Temp\cckhx27q.s 			page 88


 3452 00b2 06       		.byte	0x6
 3453 00b3 18       		.byte	0x18
 3454 00b4 2C000000 		.4byte	0x2c
 3455 00b8 03       		.uleb128 0x3
 3456 00b9 2F020000 		.4byte	.LASF16
 3457 00bd 06       		.byte	0x6
 3458 00be 20       		.byte	0x20
 3459 00bf 3E000000 		.4byte	0x3e
 3460 00c3 03       		.uleb128 0x3
 3461 00c4 97070000 		.4byte	.LASF17
 3462 00c8 06       		.byte	0x6
 3463 00c9 24       		.byte	0x24
 3464 00ca 50000000 		.4byte	0x50
 3465 00ce 03       		.uleb128 0x3
 3466 00cf 510A0000 		.4byte	.LASF18
 3467 00d3 06       		.byte	0x6
 3468 00d4 2C       		.byte	0x2c
 3469 00d5 62000000 		.4byte	0x62
 3470 00d9 03       		.uleb128 0x3
 3471 00da D0010000 		.4byte	.LASF19
 3472 00de 06       		.byte	0x6
 3473 00df 30       		.byte	0x30
 3474 00e0 74000000 		.4byte	0x74
 3475 00e4 03       		.uleb128 0x3
 3476 00e5 60030000 		.4byte	.LASF20
 3477 00e9 06       		.byte	0x6
 3478 00ea 38       		.byte	0x38
 3479 00eb 86000000 		.4byte	0x86
 3480 00ef 05       		.uleb128 0x5
 3481 00f0 2E010000 		.4byte	.LASF26
 3482 00f4 01       		.byte	0x1
 3483 00f5 37000000 		.4byte	0x37
 3484 00f9 07       		.byte	0x7
 3485 00fa 3B       		.byte	0x3b
 3486 00fb 1E010000 		.4byte	0x11e
 3487 00ff 06       		.uleb128 0x6
 3488 0100 1C080000 		.4byte	.LASF21
 3489 0104 00       		.byte	0
 3490 0105 06       		.uleb128 0x6
 3491 0106 C6010000 		.4byte	.LASF22
 3492 010a 01       		.byte	0x1
 3493 010b 06       		.uleb128 0x6
 3494 010c FD070000 		.4byte	.LASF23
 3495 0110 02       		.byte	0x2
 3496 0111 06       		.uleb128 0x6
 3497 0112 16040000 		.4byte	.LASF24
 3498 0116 03       		.byte	0x3
 3499 0117 06       		.uleb128 0x6
 3500 0118 17030000 		.4byte	.LASF25
 3501 011c 04       		.byte	0x4
 3502 011d 00       		.byte	0
 3503 011e 05       		.uleb128 0x5
 3504 011f 830A0000 		.4byte	.LASF27
 3505 0123 01       		.byte	0x1
 3506 0124 37000000 		.4byte	0x37
 3507 0128 07       		.byte	0x7
 3508 0129 49       		.byte	0x49
ARM GAS  C:\Users\rdn\AppData\Local\Temp\cckhx27q.s 			page 89


 3509 012a 5F010000 		.4byte	0x15f
 3510 012e 06       		.uleb128 0x6
 3511 012f 720B0000 		.4byte	.LASF28
 3512 0133 00       		.byte	0
 3513 0134 06       		.uleb128 0x6
 3514 0135 6D090000 		.4byte	.LASF29
 3515 0139 01       		.byte	0x1
 3516 013a 06       		.uleb128 0x6
 3517 013b 1B000000 		.4byte	.LASF30
 3518 013f 02       		.byte	0x2
 3519 0140 06       		.uleb128 0x6
 3520 0141 C4020000 		.4byte	.LASF31
 3521 0145 03       		.byte	0x3
 3522 0146 06       		.uleb128 0x6
 3523 0147 94000000 		.4byte	.LASF32
 3524 014b 04       		.byte	0x4
 3525 014c 06       		.uleb128 0x6
 3526 014d 4B010000 		.4byte	.LASF33
 3527 0151 05       		.byte	0x5
 3528 0152 06       		.uleb128 0x6
 3529 0153 030C0000 		.4byte	.LASF34
 3530 0157 06       		.byte	0x6
 3531 0158 06       		.uleb128 0x6
 3532 0159 DA070000 		.4byte	.LASF35
 3533 015d 07       		.byte	0x7
 3534 015e 00       		.byte	0
 3535 015f 07       		.uleb128 0x7
 3536 0160 BA050000 		.4byte	.LASF38
 3537 0164 0C       		.byte	0xc
 3538 0165 07       		.byte	0x7
 3539 0166 5A       		.byte	0x5a
 3540 0167 90010000 		.4byte	0x190
 3541 016b 08       		.uleb128 0x8
 3542 016c 656E3100 		.ascii	"en1\000"
 3543 0170 07       		.byte	0x7
 3544 0171 5B       		.byte	0x5b
 3545 0172 CE000000 		.4byte	0xce
 3546 0176 00       		.byte	0
 3547 0177 08       		.uleb128 0x8
 3548 0178 616E3100 		.ascii	"an1\000"
 3549 017c 07       		.byte	0x7
 3550 017d 5B       		.byte	0x5b
 3551 017e CE000000 		.4byte	0xce
 3552 0182 04       		.byte	0x4
 3553 0183 09       		.uleb128 0x9
 3554 0184 C20B0000 		.4byte	.LASF36
 3555 0188 07       		.byte	0x7
 3556 0189 5C       		.byte	0x5c
 3557 018a 9F000000 		.4byte	0x9f
 3558 018e 08       		.byte	0x8
 3559 018f 00       		.byte	0
 3560 0190 03       		.uleb128 0x3
 3561 0191 01030000 		.4byte	.LASF37
 3562 0195 07       		.byte	0x7
 3563 0196 5D       		.byte	0x5d
 3564 0197 5F010000 		.4byte	0x15f
 3565 019b 07       		.uleb128 0x7
ARM GAS  C:\Users\rdn\AppData\Local\Temp\cckhx27q.s 			page 90


 3566 019c 0F010000 		.4byte	.LASF39
 3567 01a0 10       		.byte	0x10
 3568 01a1 07       		.byte	0x7
 3569 01a2 5F       		.byte	0x5f
 3570 01a3 BE010000 		.4byte	0x1be
 3571 01a7 08       		.uleb128 0x8
 3572 01a8 733100   		.ascii	"s1\000"
 3573 01ab 07       		.byte	0x7
 3574 01ac 60       		.byte	0x60
 3575 01ad E4000000 		.4byte	0xe4
 3576 01b1 00       		.byte	0
 3577 01b2 08       		.uleb128 0x8
 3578 01b3 733200   		.ascii	"s2\000"
 3579 01b6 07       		.byte	0x7
 3580 01b7 60       		.byte	0x60
 3581 01b8 E4000000 		.4byte	0xe4
 3582 01bc 08       		.byte	0x8
 3583 01bd 00       		.byte	0
 3584 01be 0A       		.uleb128 0xa
 3585 01bf 880C0000 		.4byte	.LASF40
 3586 01c3 8804     		.2byte	0x488
 3587 01c5 07       		.byte	0x7
 3588 01c6 63       		.byte	0x63
 3589 01c7 20020000 		.4byte	0x220
 3590 01cb 09       		.uleb128 0x9
 3591 01cc 95010000 		.4byte	.LASF41
 3592 01d0 07       		.byte	0x7
 3593 01d1 64       		.byte	0x64
 3594 01d2 20020000 		.4byte	0x220
 3595 01d6 00       		.byte	0
 3596 01d7 09       		.uleb128 0x9
 3597 01d8 C0000000 		.4byte	.LASF42
 3598 01dc 07       		.byte	0x7
 3599 01dd 65       		.byte	0x65
 3600 01de 9F000000 		.4byte	0x9f
 3601 01e2 04       		.byte	0x4
 3602 01e3 08       		.uleb128 0x8
 3603 01e4 6E6300   		.ascii	"nc\000"
 3604 01e7 07       		.byte	0x7
 3605 01e8 66       		.byte	0x66
 3606 01e9 27020000 		.4byte	0x227
 3607 01ed 08       		.byte	0x8
 3608 01ee 09       		.uleb128 0x9
 3609 01ef 01060000 		.4byte	.LASF43
 3610 01f3 07       		.byte	0x7
 3611 01f4 68       		.byte	0x68
 3612 01f5 9B010000 		.4byte	0x19b
 3613 01f9 10       		.byte	0x10
 3614 01fa 09       		.uleb128 0x9
 3615 01fb 9C010000 		.4byte	.LASF44
 3616 01ff 07       		.byte	0x7
 3617 0200 69       		.byte	0x69
 3618 0201 45020000 		.4byte	0x245
 3619 0205 20       		.byte	0x20
 3620 0206 0B       		.uleb128 0xb
 3621 0207 5A030000 		.4byte	.LASF45
 3622 020b 07       		.byte	0x7
ARM GAS  C:\Users\rdn\AppData\Local\Temp\cckhx27q.s 			page 91


 3623 020c 6A       		.byte	0x6a
 3624 020d 56020000 		.4byte	0x256
 3625 0211 2003     		.2byte	0x320
 3626 0213 0C       		.uleb128 0xc
 3627 0214 746300   		.ascii	"tc\000"
 3628 0217 07       		.byte	0x7
 3629 0218 6B       		.byte	0x6b
 3630 0219 9F000000 		.4byte	0x9f
 3631 021d 8404     		.2byte	0x484
 3632 021f 00       		.byte	0
 3633 0220 02       		.uleb128 0x2
 3634 0221 01       		.byte	0x1
 3635 0222 02       		.byte	0x2
 3636 0223 AC030000 		.4byte	.LASF46
 3637 0227 0D       		.uleb128 0xd
 3638 0228 3E020000 		.4byte	0x23e
 3639 022c 37020000 		.4byte	0x237
 3640 0230 0E       		.uleb128 0xe
 3641 0231 37020000 		.4byte	0x237
 3642 0235 01       		.byte	0x1
 3643 0236 00       		.byte	0
 3644 0237 02       		.uleb128 0x2
 3645 0238 04       		.byte	0x4
 3646 0239 07       		.byte	0x7
 3647 023a FA090000 		.4byte	.LASF47
 3648 023e 02       		.uleb128 0x2
 3649 023f 04       		.byte	0x4
 3650 0240 04       		.byte	0x4
 3651 0241 FA010000 		.4byte	.LASF48
 3652 0245 0D       		.uleb128 0xd
 3653 0246 B8000000 		.4byte	0xb8
 3654 024a 56020000 		.4byte	0x256
 3655 024e 0F       		.uleb128 0xf
 3656 024f 37020000 		.4byte	0x237
 3657 0253 7F01     		.2byte	0x17f
 3658 0255 00       		.byte	0
 3659 0256 0D       		.uleb128 0xd
 3660 0257 B8000000 		.4byte	0xb8
 3661 025b 66020000 		.4byte	0x266
 3662 025f 0E       		.uleb128 0xe
 3663 0260 37020000 		.4byte	0x237
 3664 0264 B1       		.byte	0xb1
 3665 0265 00       		.byte	0
 3666 0266 03       		.uleb128 0x3
 3667 0267 9A060000 		.4byte	.LASF49
 3668 026b 07       		.byte	0x7
 3669 026c 6C       		.byte	0x6c
 3670 026d BE010000 		.4byte	0x1be
 3671 0271 07       		.uleb128 0x7
 3672 0272 8D0A0000 		.4byte	.LASF50
 3673 0276 08       		.byte	0x8
 3674 0277 07       		.byte	0x7
 3675 0278 6E       		.byte	0x6e
 3676 0279 96020000 		.4byte	0x296
 3677 027d 09       		.uleb128 0x9
 3678 027e 18060000 		.4byte	.LASF51
 3679 0282 07       		.byte	0x7
ARM GAS  C:\Users\rdn\AppData\Local\Temp\cckhx27q.s 			page 92


 3680 0283 6F       		.byte	0x6f
 3681 0284 3E020000 		.4byte	0x23e
 3682 0288 00       		.byte	0
 3683 0289 09       		.uleb128 0x9
 3684 028a 85040000 		.4byte	.LASF52
 3685 028e 07       		.byte	0x7
 3686 028f 70       		.byte	0x70
 3687 0290 9F000000 		.4byte	0x9f
 3688 0294 04       		.byte	0x4
 3689 0295 00       		.byte	0
 3690 0296 03       		.uleb128 0x3
 3691 0297 5A080000 		.4byte	.LASF53
 3692 029b 07       		.byte	0x7
 3693 029c 71       		.byte	0x71
 3694 029d 71020000 		.4byte	0x271
 3695 02a1 0A       		.uleb128 0xa
 3696 02a2 37070000 		.4byte	.LASF54
 3697 02a6 B004     		.2byte	0x4b0
 3698 02a8 07       		.byte	0x7
 3699 02a9 73       		.byte	0x73
 3700 02aa 28030000 		.4byte	0x328
 3701 02ae 08       		.uleb128 0x8
 3702 02af 647400   		.ascii	"dt\000"
 3703 02b2 07       		.byte	0x7
 3704 02b3 74       		.byte	0x74
 3705 02b4 EF000000 		.4byte	0xef
 3706 02b8 00       		.byte	0
 3707 02b9 08       		.uleb128 0x8
 3708 02ba 737200   		.ascii	"sr\000"
 3709 02bd 07       		.byte	0x7
 3710 02be 75       		.byte	0x75
 3711 02bf 1E010000 		.4byte	0x11e
 3712 02c3 01       		.byte	0x1
 3713 02c4 09       		.uleb128 0x9
 3714 02c5 1C020000 		.4byte	.LASF55
 3715 02c9 07       		.byte	0x7
 3716 02ca 75       		.byte	0x75
 3717 02cb 1E010000 		.4byte	0x11e
 3718 02cf 02       		.byte	0x2
 3719 02d0 09       		.uleb128 0x9
 3720 02d1 6D010000 		.4byte	.LASF56
 3721 02d5 07       		.byte	0x7
 3722 02d6 77       		.byte	0x77
 3723 02d7 90010000 		.4byte	0x190
 3724 02db 04       		.byte	0x4
 3725 02dc 09       		.uleb128 0x9
 3726 02dd 92030000 		.4byte	.LASF57
 3727 02e1 07       		.byte	0x7
 3728 02e2 78       		.byte	0x78
 3729 02e3 66020000 		.4byte	0x266
 3730 02e7 10       		.byte	0x10
 3731 02e8 0B       		.uleb128 0xb
 3732 02e9 4B0C0000 		.4byte	.LASF58
 3733 02ed 07       		.byte	0x7
 3734 02ee 79       		.byte	0x79
 3735 02ef 96020000 		.4byte	0x296
 3736 02f3 9804     		.2byte	0x498
ARM GAS  C:\Users\rdn\AppData\Local\Temp\cckhx27q.s 			page 93


 3737 02f5 0B       		.uleb128 0xb
 3738 02f6 22030000 		.4byte	.LASF59
 3739 02fa 07       		.byte	0x7
 3740 02fb 7B       		.byte	0x7b
 3741 02fc 9F000000 		.4byte	0x9f
 3742 0300 A004     		.2byte	0x4a0
 3743 0302 0B       		.uleb128 0xb
 3744 0303 F6070000 		.4byte	.LASF60
 3745 0307 07       		.byte	0x7
 3746 0308 7B       		.byte	0x7b
 3747 0309 9F000000 		.4byte	0x9f
 3748 030d A404     		.2byte	0x4a4
 3749 030f 0B       		.uleb128 0xb
 3750 0310 260B0000 		.4byte	.LASF61
 3751 0314 07       		.byte	0x7
 3752 0315 7B       		.byte	0x7b
 3753 0316 9F000000 		.4byte	0x9f
 3754 031a A804     		.2byte	0x4a8
 3755 031c 0C       		.uleb128 0xc
 3756 031d 7800     		.ascii	"x\000"
 3757 031f 07       		.byte	0x7
 3758 0320 7C       		.byte	0x7c
 3759 0321 28030000 		.4byte	0x328
 3760 0325 AC04     		.2byte	0x4ac
 3761 0327 00       		.byte	0
 3762 0328 0D       		.uleb128 0xd
 3763 0329 3E020000 		.4byte	0x23e
 3764 032d 38030000 		.4byte	0x338
 3765 0331 0E       		.uleb128 0xe
 3766 0332 37020000 		.4byte	0x237
 3767 0336 00       		.byte	0
 3768 0337 00       		.byte	0
 3769 0338 07       		.uleb128 0x7
 3770 0339 55040000 		.4byte	.LASF62
 3771 033d 98       		.byte	0x98
 3772 033e 07       		.byte	0x7
 3773 033f 8E       		.byte	0x8e
 3774 0340 71030000 		.4byte	0x371
 3775 0344 09       		.uleb128 0x9
 3776 0345 95010000 		.4byte	.LASF41
 3777 0349 07       		.byte	0x7
 3778 034a 8F       		.byte	0x8f
 3779 034b 20020000 		.4byte	0x220
 3780 034f 00       		.byte	0
 3781 0350 09       		.uleb128 0x9
 3782 0351 C0000000 		.4byte	.LASF42
 3783 0355 07       		.byte	0x7
 3784 0356 90       		.byte	0x90
 3785 0357 9F000000 		.4byte	0x9f
 3786 035b 04       		.byte	0x4
 3787 035c 08       		.uleb128 0x8
 3788 035d 6300     		.ascii	"c\000"
 3789 035f 07       		.byte	0x7
 3790 0360 91       		.byte	0x91
 3791 0361 71030000 		.4byte	0x371
 3792 0365 08       		.byte	0x8
 3793 0366 08       		.uleb128 0x8
ARM GAS  C:\Users\rdn\AppData\Local\Temp\cckhx27q.s 			page 94


 3794 0367 7800     		.ascii	"x\000"
 3795 0369 07       		.byte	0x7
 3796 036a 91       		.byte	0x91
 3797 036b 81030000 		.4byte	0x381
 3798 036f 68       		.byte	0x68
 3799 0370 00       		.byte	0
 3800 0371 0D       		.uleb128 0xd
 3801 0372 3E020000 		.4byte	0x23e
 3802 0376 81030000 		.4byte	0x381
 3803 037a 0E       		.uleb128 0xe
 3804 037b 37020000 		.4byte	0x237
 3805 037f 17       		.byte	0x17
 3806 0380 00       		.byte	0
 3807 0381 0D       		.uleb128 0xd
 3808 0382 3E020000 		.4byte	0x23e
 3809 0386 91030000 		.4byte	0x391
 3810 038a 0E       		.uleb128 0xe
 3811 038b 37020000 		.4byte	0x237
 3812 038f 0B       		.byte	0xb
 3813 0390 00       		.byte	0
 3814 0391 03       		.uleb128 0x3
 3815 0392 76070000 		.4byte	.LASF63
 3816 0396 07       		.byte	0x7
 3817 0397 92       		.byte	0x92
 3818 0398 38030000 		.4byte	0x338
 3819 039c 07       		.uleb128 0x7
 3820 039d 72020000 		.4byte	.LASF64
 3821 03a1 0C       		.byte	0xc
 3822 03a2 07       		.byte	0x7
 3823 03a3 94       		.byte	0x94
 3824 03a4 CD030000 		.4byte	0x3cd
 3825 03a8 09       		.uleb128 0x9
 3826 03a9 0A070000 		.4byte	.LASF65
 3827 03ad 07       		.byte	0x7
 3828 03ae 95       		.byte	0x95
 3829 03af C3000000 		.4byte	0xc3
 3830 03b3 00       		.byte	0
 3831 03b4 09       		.uleb128 0x9
 3832 03b5 23020000 		.4byte	.LASF66
 3833 03b9 07       		.byte	0x7
 3834 03ba 96       		.byte	0x96
 3835 03bb 9F000000 		.4byte	0x9f
 3836 03bf 04       		.byte	0x4
 3837 03c0 09       		.uleb128 0x9
 3838 03c1 3D0A0000 		.4byte	.LASF67
 3839 03c5 07       		.byte	0x7
 3840 03c6 97       		.byte	0x97
 3841 03c7 3E020000 		.4byte	0x23e
 3842 03cb 08       		.byte	0x8
 3843 03cc 00       		.byte	0
 3844 03cd 03       		.uleb128 0x3
 3845 03ce 5A050000 		.4byte	.LASF68
 3846 03d2 07       		.byte	0x7
 3847 03d3 98       		.byte	0x98
 3848 03d4 9C030000 		.4byte	0x39c
 3849 03d8 07       		.uleb128 0x7
 3850 03d9 4C070000 		.4byte	.LASF69
ARM GAS  C:\Users\rdn\AppData\Local\Temp\cckhx27q.s 			page 95


 3851 03dd BC       		.byte	0xbc
 3852 03de 07       		.byte	0x7
 3853 03df 9A       		.byte	0x9a
 3854 03e0 59040000 		.4byte	0x459
 3855 03e4 08       		.uleb128 0x8
 3856 03e5 647400   		.ascii	"dt\000"
 3857 03e8 07       		.byte	0x7
 3858 03e9 9B       		.byte	0x9b
 3859 03ea EF000000 		.4byte	0xef
 3860 03ee 00       		.byte	0
 3861 03ef 08       		.uleb128 0x8
 3862 03f0 737200   		.ascii	"sr\000"
 3863 03f3 07       		.byte	0x7
 3864 03f4 9C       		.byte	0x9c
 3865 03f5 1E010000 		.4byte	0x11e
 3866 03f9 01       		.byte	0x1
 3867 03fa 09       		.uleb128 0x9
 3868 03fb 1C020000 		.4byte	.LASF55
 3869 03ff 07       		.byte	0x7
 3870 0400 9C       		.byte	0x9c
 3871 0401 1E010000 		.4byte	0x11e
 3872 0405 02       		.byte	0x2
 3873 0406 09       		.uleb128 0x9
 3874 0407 92030000 		.4byte	.LASF57
 3875 040b 07       		.byte	0x7
 3876 040c 9E       		.byte	0x9e
 3877 040d 91030000 		.4byte	0x391
 3878 0411 04       		.byte	0x4
 3879 0412 08       		.uleb128 0x8
 3880 0413 706C6300 		.ascii	"plc\000"
 3881 0417 07       		.byte	0x7
 3882 0418 9F       		.byte	0x9f
 3883 0419 CD030000 		.4byte	0x3cd
 3884 041d 9C       		.byte	0x9c
 3885 041e 09       		.uleb128 0x9
 3886 041f 7B050000 		.4byte	.LASF70
 3887 0423 07       		.byte	0x7
 3888 0424 A1       		.byte	0xa1
 3889 0425 9F000000 		.4byte	0x9f
 3890 0429 A8       		.byte	0xa8
 3891 042a 09       		.uleb128 0x9
 3892 042b F6070000 		.4byte	.LASF60
 3893 042f 07       		.byte	0x7
 3894 0430 A1       		.byte	0xa1
 3895 0431 9F000000 		.4byte	0x9f
 3896 0435 AC       		.byte	0xac
 3897 0436 09       		.uleb128 0x9
 3898 0437 260B0000 		.4byte	.LASF61
 3899 043b 07       		.byte	0x7
 3900 043c A1       		.byte	0xa1
 3901 043d 9F000000 		.4byte	0x9f
 3902 0441 B0       		.byte	0xb0
 3903 0442 09       		.uleb128 0x9
 3904 0443 B80A0000 		.4byte	.LASF71
 3905 0447 07       		.byte	0x7
 3906 0448 A1       		.byte	0xa1
 3907 0449 9F000000 		.4byte	0x9f
ARM GAS  C:\Users\rdn\AppData\Local\Temp\cckhx27q.s 			page 96


 3908 044d B4       		.byte	0xb4
 3909 044e 08       		.uleb128 0x8
 3910 044f 7800     		.ascii	"x\000"
 3911 0451 07       		.byte	0x7
 3912 0452 A2       		.byte	0xa2
 3913 0453 28030000 		.4byte	0x328
 3914 0457 B8       		.byte	0xb8
 3915 0458 00       		.byte	0
 3916 0459 05       		.uleb128 0x5
 3917 045a 58070000 		.4byte	.LASF72
 3918 045e 01       		.byte	0x1
 3919 045f 37000000 		.4byte	0x37
 3920 0463 08       		.byte	0x8
 3921 0464 E2       		.byte	0xe2
 3922 0465 82040000 		.4byte	0x482
 3923 0469 06       		.uleb128 0x6
 3924 046a F3030000 		.4byte	.LASF73
 3925 046e 00       		.byte	0
 3926 046f 06       		.uleb128 0x6
 3927 0470 F5040000 		.4byte	.LASF74
 3928 0474 01       		.byte	0x1
 3929 0475 06       		.uleb128 0x6
 3930 0476 C6000000 		.4byte	.LASF75
 3931 047a 02       		.byte	0x2
 3932 047b 06       		.uleb128 0x6
 3933 047c D8020000 		.4byte	.LASF76
 3934 0480 03       		.byte	0x3
 3935 0481 00       		.byte	0
 3936 0482 10       		.uleb128 0x10
 3937 0483 04       		.byte	0x4
 3938 0484 A1020000 		.4byte	0x2a1
 3939 0488 10       		.uleb128 0x10
 3940 0489 04       		.byte	0x4
 3941 048a D8030000 		.4byte	0x3d8
 3942 048e 02       		.uleb128 0x2
 3943 048f 08       		.byte	0x8
 3944 0490 04       		.byte	0x4
 3945 0491 8B070000 		.4byte	.LASF77
 3946 0495 11       		.uleb128 0x11
 3947 0496 04       		.byte	0x4
 3948 0497 02       		.uleb128 0x2
 3949 0498 01       		.byte	0x1
 3950 0499 08       		.byte	0x8
 3951 049a 32040000 		.4byte	.LASF78
 3952 049e 02       		.uleb128 0x2
 3953 049f 08       		.byte	0x8
 3954 04a0 04       		.byte	0x4
 3955 04a1 FC0B0000 		.4byte	.LASF79
 3956 04a5 05       		.uleb128 0x5
 3957 04a6 E30A0000 		.4byte	.LASF80
 3958 04aa 01       		.byte	0x1
 3959 04ab 37000000 		.4byte	0x37
 3960 04af 09       		.byte	0x9
 3961 04b0 76       		.byte	0x76
 3962 04b1 E6040000 		.4byte	0x4e6
 3963 04b5 06       		.uleb128 0x6
 3964 04b6 E4040000 		.4byte	.LASF81
ARM GAS  C:\Users\rdn\AppData\Local\Temp\cckhx27q.s 			page 97


 3965 04ba 00       		.byte	0
 3966 04bb 06       		.uleb128 0x6
 3967 04bc 44000000 		.4byte	.LASF82
 3968 04c0 01       		.byte	0x1
 3969 04c1 06       		.uleb128 0x6
 3970 04c2 E7090000 		.4byte	.LASF83
 3971 04c6 02       		.byte	0x2
 3972 04c7 06       		.uleb128 0x6
 3973 04c8 43060000 		.4byte	.LASF84
 3974 04cc 03       		.byte	0x3
 3975 04cd 06       		.uleb128 0x6
 3976 04ce C80B0000 		.4byte	.LASF85
 3977 04d2 04       		.byte	0x4
 3978 04d3 06       		.uleb128 0x6
 3979 04d4 30000000 		.4byte	.LASF86
 3980 04d8 05       		.byte	0x5
 3981 04d9 06       		.uleb128 0x6
 3982 04da 0F070000 		.4byte	.LASF87
 3983 04de 06       		.byte	0x6
 3984 04df 06       		.uleb128 0x6
 3985 04e0 D90B0000 		.4byte	.LASF88
 3986 04e4 07       		.byte	0x7
 3987 04e5 00       		.byte	0
 3988 04e6 05       		.uleb128 0x5
 3989 04e7 87010000 		.4byte	.LASF89
 3990 04eb 01       		.byte	0x1
 3991 04ec 37000000 		.4byte	0x37
 3992 04f0 04       		.byte	0x4
 3993 04f1 45       		.byte	0x45
 3994 04f2 03050000 		.4byte	0x503
 3995 04f6 06       		.uleb128 0x6
 3996 04f7 010B0000 		.4byte	.LASF90
 3997 04fb 00       		.byte	0
 3998 04fc 06       		.uleb128 0x6
 3999 04fd 27090000 		.4byte	.LASF91
 4000 0501 01       		.byte	0x1
 4001 0502 00       		.byte	0
 4002 0503 07       		.uleb128 0x7
 4003 0504 77040000 		.4byte	.LASF92
 4004 0508 0C       		.byte	0xc
 4005 0509 04       		.byte	0x4
 4006 050a 5E       		.byte	0x5e
 4007 050b 30050000 		.4byte	0x530
 4008 050f 08       		.uleb128 0x8
 4009 0510 7600     		.ascii	"v\000"
 4010 0512 04       		.byte	0x4
 4011 0513 5F       		.byte	0x5f
 4012 0514 A6000000 		.4byte	0xa6
 4013 0518 00       		.byte	0
 4014 0519 08       		.uleb128 0x8
 4015 051a 6E00     		.ascii	"n\000"
 4016 051c 04       		.byte	0x4
 4017 051d 60       		.byte	0x60
 4018 051e 9F000000 		.4byte	0x9f
 4019 0522 04       		.byte	0x4
 4020 0523 09       		.uleb128 0x9
 4021 0524 DE040000 		.4byte	.LASF93
ARM GAS  C:\Users\rdn\AppData\Local\Temp\cckhx27q.s 			page 98


 4022 0528 04       		.byte	0x4
 4023 0529 60       		.byte	0x60
 4024 052a 9F000000 		.4byte	0x9f
 4025 052e 08       		.byte	0x8
 4026 052f 00       		.byte	0
 4027 0530 07       		.uleb128 0x7
 4028 0531 140C0000 		.4byte	.LASF94
 4029 0535 18       		.byte	0x18
 4030 0536 04       		.byte	0x4
 4031 0537 65       		.byte	0x65
 4032 0538 85050000 		.4byte	0x585
 4033 053c 08       		.uleb128 0x8
 4034 053d 6C6F7700 		.ascii	"low\000"
 4035 0541 04       		.byte	0x4
 4036 0542 66       		.byte	0x66
 4037 0543 A6000000 		.4byte	0xa6
 4038 0547 00       		.byte	0
 4039 0548 09       		.uleb128 0x9
 4040 0549 AE060000 		.4byte	.LASF95
 4041 054d 04       		.byte	0x4
 4042 054e 66       		.byte	0x66
 4043 054f A6000000 		.4byte	0xa6
 4044 0553 04       		.byte	0x4
 4045 0554 09       		.uleb128 0x9
 4046 0555 23070000 		.4byte	.LASF96
 4047 0559 04       		.byte	0x4
 4048 055a 67       		.byte	0x67
 4049 055b 9F000000 		.4byte	0x9f
 4050 055f 08       		.byte	0x8
 4051 0560 09       		.uleb128 0x9
 4052 0561 29020000 		.4byte	.LASF97
 4053 0565 04       		.byte	0x4
 4054 0566 67       		.byte	0x67
 4055 0567 9F000000 		.4byte	0x9f
 4056 056b 0C       		.byte	0xc
 4057 056c 09       		.uleb128 0x9
 4058 056d 86030000 		.4byte	.LASF98
 4059 0571 04       		.byte	0x4
 4060 0572 67       		.byte	0x67
 4061 0573 9F000000 		.4byte	0x9f
 4062 0577 10       		.byte	0x10
 4063 0578 09       		.uleb128 0x9
 4064 0579 23010000 		.4byte	.LASF99
 4065 057d 04       		.byte	0x4
 4066 057e 68       		.byte	0x68
 4067 057f 20020000 		.4byte	0x220
 4068 0583 14       		.byte	0x14
 4069 0584 00       		.byte	0
 4070 0585 07       		.uleb128 0x7
 4071 0586 5E000000 		.4byte	.LASF100
 4072 058a 10       		.byte	0x10
 4073 058b 04       		.byte	0x4
 4074 058c 6B       		.byte	0x6b
 4075 058d C2050000 		.4byte	0x5c2
 4076 0591 09       		.uleb128 0x9
 4077 0592 67090000 		.4byte	.LASF101
 4078 0596 04       		.byte	0x4
ARM GAS  C:\Users\rdn\AppData\Local\Temp\cckhx27q.s 			page 99


 4079 0597 6C       		.byte	0x6c
 4080 0598 C2050000 		.4byte	0x5c2
 4081 059c 00       		.byte	0
 4082 059d 08       		.uleb128 0x8
 4083 059e 656E6400 		.ascii	"end\000"
 4084 05a2 04       		.byte	0x4
 4085 05a3 6C       		.byte	0x6c
 4086 05a4 C2050000 		.4byte	0x5c2
 4087 05a8 04       		.byte	0x4
 4088 05a9 09       		.uleb128 0x9
 4089 05aa 9A0C0000 		.4byte	.LASF102
 4090 05ae 04       		.byte	0x4
 4091 05af 6D       		.byte	0x6d
 4092 05b0 CD050000 		.4byte	0x5cd
 4093 05b4 08       		.byte	0x8
 4094 05b5 09       		.uleb128 0x9
 4095 05b6 6A050000 		.4byte	.LASF103
 4096 05ba 04       		.byte	0x4
 4097 05bb 6D       		.byte	0x6d
 4098 05bc CD050000 		.4byte	0x5cd
 4099 05c0 0C       		.byte	0xc
 4100 05c1 00       		.byte	0
 4101 05c2 10       		.uleb128 0x10
 4102 05c3 04       		.byte	0x4
 4103 05c4 C8050000 		.4byte	0x5c8
 4104 05c8 12       		.uleb128 0x12
 4105 05c9 AD000000 		.4byte	0xad
 4106 05cd 10       		.uleb128 0x10
 4107 05ce 04       		.byte	0x4
 4108 05cf AD000000 		.4byte	0xad
 4109 05d3 07       		.uleb128 0x7
 4110 05d4 43070000 		.4byte	.LASF104
 4111 05d8 38       		.byte	0x38
 4112 05d9 04       		.byte	0x4
 4113 05da 70       		.byte	0x70
 4114 05db 0F060000 		.4byte	0x60f
 4115 05df 09       		.uleb128 0x9
 4116 05e0 29010000 		.4byte	.LASF105
 4117 05e4 04       		.byte	0x4
 4118 05e5 71       		.byte	0x71
 4119 05e6 E6040000 		.4byte	0x4e6
 4120 05ea 00       		.byte	0
 4121 05eb 08       		.uleb128 0x8
 4122 05ec 616300   		.ascii	"ac\000"
 4123 05ef 04       		.byte	0x4
 4124 05f0 72       		.byte	0x72
 4125 05f1 30050000 		.4byte	0x530
 4126 05f5 04       		.byte	0x4
 4127 05f6 09       		.uleb128 0x9
 4128 05f7 2D040000 		.4byte	.LASF106
 4129 05fb 04       		.byte	0x4
 4130 05fc 73       		.byte	0x73
 4131 05fd 03050000 		.4byte	0x503
 4132 0601 1C       		.byte	0x1c
 4133 0602 09       		.uleb128 0x9
 4134 0603 6E000000 		.4byte	.LASF107
 4135 0607 04       		.byte	0x4
ARM GAS  C:\Users\rdn\AppData\Local\Temp\cckhx27q.s 			page 100


 4136 0608 74       		.byte	0x74
 4137 0609 85050000 		.4byte	0x585
 4138 060d 28       		.byte	0x28
 4139 060e 00       		.byte	0
 4140 060f 03       		.uleb128 0x3
 4141 0610 C8030000 		.4byte	.LASF108
 4142 0614 04       		.byte	0x4
 4143 0615 75       		.byte	0x75
 4144 0616 D3050000 		.4byte	0x5d3
 4145 061a 07       		.uleb128 0x7
 4146 061b 55060000 		.4byte	.LASF109
 4147 061f 08       		.byte	0x8
 4148 0620 0A       		.byte	0xa
 4149 0621 1E       		.byte	0x1e
 4150 0622 3F060000 		.4byte	0x63f
 4151 0626 09       		.uleb128 0x9
 4152 0627 95010000 		.4byte	.LASF41
 4153 062b 0A       		.byte	0xa
 4154 062c 1F       		.byte	0x1f
 4155 062d 20020000 		.4byte	0x220
 4156 0631 00       		.byte	0
 4157 0632 09       		.uleb128 0x9
 4158 0633 7A030000 		.4byte	.LASF110
 4159 0637 0A       		.byte	0xa
 4160 0638 20       		.byte	0x20
 4161 0639 9F000000 		.4byte	0x9f
 4162 063d 04       		.byte	0x4
 4163 063e 00       		.byte	0
 4164 063f 03       		.uleb128 0x3
 4165 0640 F10A0000 		.4byte	.LASF111
 4166 0644 0A       		.byte	0xa
 4167 0645 21       		.byte	0x21
 4168 0646 1A060000 		.4byte	0x61a
 4169 064a 07       		.uleb128 0x7
 4170 064b 590A0000 		.4byte	.LASF112
 4171 064f 1C       		.byte	0x1c
 4172 0650 0B       		.byte	0xb
 4173 0651 1E       		.byte	0x1e
 4174 0652 B7060000 		.4byte	0x6b7
 4175 0656 09       		.uleb128 0x9
 4176 0657 4E020000 		.4byte	.LASF113
 4177 065b 0B       		.byte	0xb
 4178 065c 1F       		.byte	0x1f
 4179 065d 9F000000 		.4byte	0x9f
 4180 0661 00       		.byte	0
 4181 0662 09       		.uleb128 0x9
 4182 0663 67070000 		.4byte	.LASF114
 4183 0667 0B       		.byte	0xb
 4184 0668 1F       		.byte	0x1f
 4185 0669 9F000000 		.4byte	0x9f
 4186 066d 04       		.byte	0x4
 4187 066e 09       		.uleb128 0x9
 4188 066f 43080000 		.4byte	.LASF115
 4189 0673 0B       		.byte	0xb
 4190 0674 20       		.byte	0x20
 4191 0675 9F000000 		.4byte	0x9f
 4192 0679 08       		.byte	0x8
ARM GAS  C:\Users\rdn\AppData\Local\Temp\cckhx27q.s 			page 101


 4193 067a 09       		.uleb128 0x9
 4194 067b 55050000 		.4byte	.LASF116
 4195 067f 0B       		.byte	0xb
 4196 0680 20       		.byte	0x20
 4197 0681 9F000000 		.4byte	0x9f
 4198 0685 0C       		.byte	0xc
 4199 0686 09       		.uleb128 0x9
 4200 0687 6D0C0000 		.4byte	.LASF117
 4201 068b 0B       		.byte	0xb
 4202 068c 21       		.byte	0x21
 4203 068d 9F000000 		.4byte	0x9f
 4204 0691 10       		.byte	0x10
 4205 0692 09       		.uleb128 0x9
 4206 0693 730C0000 		.4byte	.LASF118
 4207 0697 0B       		.byte	0xb
 4208 0698 21       		.byte	0x21
 4209 0699 9F000000 		.4byte	0x9f
 4210 069d 14       		.byte	0x14
 4211 069e 09       		.uleb128 0x9
 4212 069f 660A0000 		.4byte	.LASF119
 4213 06a3 0B       		.byte	0xb
 4214 06a4 22       		.byte	0x22
 4215 06a5 20020000 		.4byte	0x220
 4216 06a9 18       		.byte	0x18
 4217 06aa 09       		.uleb128 0x9
 4218 06ab 6B0A0000 		.4byte	.LASF120
 4219 06af 0B       		.byte	0xb
 4220 06b0 22       		.byte	0x22
 4221 06b1 20020000 		.4byte	0x220
 4222 06b5 19       		.byte	0x19
 4223 06b6 00       		.byte	0
 4224 06b7 03       		.uleb128 0x3
 4225 06b8 410B0000 		.4byte	.LASF121
 4226 06bc 0B       		.byte	0xb
 4227 06bd 23       		.byte	0x23
 4228 06be 4A060000 		.4byte	0x64a
 4229 06c2 07       		.uleb128 0x7
 4230 06c3 A3010000 		.4byte	.LASF122
 4231 06c7 50       		.byte	0x50
 4232 06c8 0C       		.byte	0xc
 4233 06c9 1E       		.byte	0x1e
 4234 06ca FE060000 		.4byte	0x6fe
 4235 06ce 09       		.uleb128 0x9
 4236 06cf A1090000 		.4byte	.LASF123
 4237 06d3 0C       		.byte	0xc
 4238 06d4 1F       		.byte	0x1f
 4239 06d5 9F000000 		.4byte	0x9f
 4240 06d9 00       		.byte	0
 4241 06da 09       		.uleb128 0x9
 4242 06db D1090000 		.4byte	.LASF124
 4243 06df 0C       		.byte	0xc
 4244 06e0 20       		.byte	0x20
 4245 06e1 20020000 		.4byte	0x220
 4246 06e5 04       		.byte	0x4
 4247 06e6 09       		.uleb128 0x9
 4248 06e7 55000000 		.4byte	.LASF125
 4249 06eb 0C       		.byte	0xc
ARM GAS  C:\Users\rdn\AppData\Local\Temp\cckhx27q.s 			page 102


 4250 06ec 21       		.byte	0x21
 4251 06ed FE060000 		.4byte	0x6fe
 4252 06f1 08       		.byte	0x8
 4253 06f2 08       		.uleb128 0x8
 4254 06f3 726300   		.ascii	"rc\000"
 4255 06f6 0C       		.byte	0xc
 4256 06f7 22       		.byte	0x22
 4257 06f8 0E070000 		.4byte	0x70e
 4258 06fc 10       		.byte	0x10
 4259 06fd 00       		.byte	0
 4260 06fe 0D       		.uleb128 0xd
 4261 06ff 9F000000 		.4byte	0x9f
 4262 0703 0E070000 		.4byte	0x70e
 4263 0707 0E       		.uleb128 0xe
 4264 0708 37020000 		.4byte	0x237
 4265 070c 01       		.byte	0x1
 4266 070d 00       		.byte	0
 4267 070e 0D       		.uleb128 0xd
 4268 070f 9F000000 		.4byte	0x9f
 4269 0713 24070000 		.4byte	0x724
 4270 0717 0E       		.uleb128 0xe
 4271 0718 37020000 		.4byte	0x237
 4272 071c 01       		.byte	0x1
 4273 071d 0E       		.uleb128 0xe
 4274 071e 37020000 		.4byte	0x237
 4275 0722 07       		.byte	0x7
 4276 0723 00       		.byte	0
 4277 0724 03       		.uleb128 0x3
 4278 0725 EF000000 		.4byte	.LASF126
 4279 0729 0C       		.byte	0xc
 4280 072a 23       		.byte	0x23
 4281 072b C2060000 		.4byte	0x6c2
 4282 072f 10       		.uleb128 0x10
 4283 0730 04       		.byte	0x4
 4284 0731 35070000 		.4byte	0x735
 4285 0735 12       		.uleb128 0x12
 4286 0736 3E020000 		.4byte	0x23e
 4287 073a 07       		.uleb128 0x7
 4288 073b 29070000 		.4byte	.LASF127
 4289 073f 0C       		.byte	0xc
 4290 0740 0D       		.byte	0xd
 4291 0741 21       		.byte	0x21
 4292 0742 6A070000 		.4byte	0x76a
 4293 0746 09       		.uleb128 0x9
 4294 0747 B0010000 		.4byte	.LASF128
 4295 074b 0D       		.byte	0xd
 4296 074c 22       		.byte	0x22
 4297 074d 9F000000 		.4byte	0x9f
 4298 0751 00       		.byte	0
 4299 0752 08       		.uleb128 0x8
 4300 0753 6E7100   		.ascii	"nq\000"
 4301 0756 0D       		.byte	0xd
 4302 0757 22       		.byte	0x22
 4303 0758 9F000000 		.4byte	0x9f
 4304 075c 04       		.byte	0x4
 4305 075d 09       		.uleb128 0x9
 4306 075e 700A0000 		.4byte	.LASF129
ARM GAS  C:\Users\rdn\AppData\Local\Temp\cckhx27q.s 			page 103


 4307 0762 0D       		.byte	0xd
 4308 0763 23       		.byte	0x23
 4309 0764 20020000 		.4byte	0x220
 4310 0768 08       		.byte	0x8
 4311 0769 00       		.byte	0
 4312 076a 03       		.uleb128 0x3
 4313 076b B6010000 		.4byte	.LASF130
 4314 076f 0D       		.byte	0xd
 4315 0770 24       		.byte	0x24
 4316 0771 3A070000 		.4byte	0x73a
 4317 0775 07       		.uleb128 0x7
 4318 0776 790A0000 		.4byte	.LASF131
 4319 077a 84       		.byte	0x84
 4320 077b 01       		.byte	0x1
 4321 077c 27       		.byte	0x27
 4322 077d C9070000 		.4byte	0x7c9
 4323 0781 08       		.uleb128 0x8
 4324 0782 627700   		.ascii	"bw\000"
 4325 0785 01       		.byte	0x1
 4326 0786 28       		.byte	0x28
 4327 0787 A5040000 		.4byte	0x4a5
 4328 078b 00       		.byte	0
 4329 078c 09       		.uleb128 0x9
 4330 078d 53020000 		.4byte	.LASF132
 4331 0791 01       		.byte	0x1
 4332 0792 29       		.byte	0x29
 4333 0793 20020000 		.4byte	0x220
 4334 0797 01       		.byte	0x1
 4335 0798 09       		.uleb128 0x9
 4336 0799 92030000 		.4byte	.LASF57
 4337 079d 01       		.byte	0x1
 4338 079e 2A       		.byte	0x2a
 4339 079f 3F060000 		.4byte	0x63f
 4340 07a3 04       		.byte	0x4
 4341 07a4 08       		.uleb128 0x8
 4342 07a5 736E7300 		.ascii	"sns\000"
 4343 07a9 01       		.byte	0x1
 4344 07aa 2B       		.byte	0x2b
 4345 07ab B7060000 		.4byte	0x6b7
 4346 07af 0C       		.byte	0xc
 4347 07b0 08       		.uleb128 0x8
 4348 07b1 746E7300 		.ascii	"tns\000"
 4349 07b5 01       		.byte	0x1
 4350 07b6 2C       		.byte	0x2c
 4351 07b7 24070000 		.4byte	0x724
 4352 07bb 28       		.byte	0x28
 4353 07bc 09       		.uleb128 0x9
 4354 07bd 4B0C0000 		.4byte	.LASF58
 4355 07c1 01       		.byte	0x1
 4356 07c2 2D       		.byte	0x2d
 4357 07c3 6A070000 		.4byte	0x76a
 4358 07c7 78       		.byte	0x78
 4359 07c8 00       		.byte	0
 4360 07c9 13       		.uleb128 0x13
 4361 07ca 430A0000 		.4byte	.LASF133
 4362 07ce 02       		.byte	0x2
 4363 07cf 2E       		.byte	0x2e
ARM GAS  C:\Users\rdn\AppData\Local\Temp\cckhx27q.s 			page 104


 4364 07d0 9F000000 		.4byte	0x9f
 4365 07d4 03       		.byte	0x3
 4366 07d5 EE070000 		.4byte	0x7ee
 4367 07d9 14       		.uleb128 0x14
 4368 07da 647400   		.ascii	"dt\000"
 4369 07dd 02       		.byte	0x2
 4370 07de 2E       		.byte	0x2e
 4371 07df EF000000 		.4byte	0xef
 4372 07e3 14       		.uleb128 0x14
 4373 07e4 737200   		.ascii	"sr\000"
 4374 07e7 02       		.byte	0x2
 4375 07e8 2E       		.byte	0x2e
 4376 07e9 1E010000 		.4byte	0x11e
 4377 07ed 00       		.byte	0
 4378 07ee 13       		.uleb128 0x13
 4379 07ef 26040000 		.4byte	.LASF134
 4380 07f3 09       		.byte	0x9
 4381 07f4 6D       		.byte	0x6d
 4382 07f5 20020000 		.4byte	0x220
 4383 07f9 03       		.byte	0x3
 4384 07fa 09080000 		.4byte	0x809
 4385 07fe 14       		.uleb128 0x14
 4386 07ff 737200   		.ascii	"sr\000"
 4387 0802 09       		.byte	0x9
 4388 0803 6D       		.byte	0x6d
 4389 0804 1E010000 		.4byte	0x11e
 4390 0808 00       		.byte	0
 4391 0809 13       		.uleb128 0x13
 4392 080a AA090000 		.4byte	.LASF135
 4393 080e 01       		.byte	0x1
 4394 080f 3B       		.byte	0x3b
 4395 0810 EF000000 		.4byte	0xef
 4396 0814 01       		.byte	0x1
 4397 0815 2F080000 		.4byte	0x82f
 4398 0819 14       		.uleb128 0x14
 4399 081a 757300   		.ascii	"us\000"
 4400 081d 01       		.byte	0x1
 4401 081e 3B       		.byte	0x3b
 4402 081f 9F000000 		.4byte	0x9f
 4403 0823 15       		.uleb128 0x15
 4404 0824 74050000 		.4byte	.LASF136
 4405 0828 01       		.byte	0x1
 4406 0829 3B       		.byte	0x3b
 4407 082a 20020000 		.4byte	0x220
 4408 082e 00       		.byte	0
 4409 082f 13       		.uleb128 0x13
 4410 0830 4F090000 		.4byte	.LASF137
 4411 0834 01       		.byte	0x1
 4412 0835 49       		.byte	0x49
 4413 0836 1E010000 		.4byte	0x11e
 4414 083a 01       		.byte	0x1
 4415 083b 55080000 		.4byte	0x855
 4416 083f 14       		.uleb128 0x14
 4417 0840 687A00   		.ascii	"hz\000"
 4418 0843 01       		.byte	0x1
 4419 0844 49       		.byte	0x49
 4420 0845 9F000000 		.4byte	0x9f
ARM GAS  C:\Users\rdn\AppData\Local\Temp\cckhx27q.s 			page 105


 4421 0849 15       		.uleb128 0x15
 4422 084a 74050000 		.4byte	.LASF136
 4423 084e 01       		.byte	0x1
 4424 084f 49       		.byte	0x49
 4425 0850 20020000 		.4byte	0x220
 4426 0854 00       		.byte	0
 4427 0855 13       		.uleb128 0x13
 4428 0856 D9010000 		.4byte	.LASF138
 4429 085a 03       		.byte	0x3
 4430 085b 2C       		.byte	0x2c
 4431 085c 3E020000 		.4byte	0x23e
 4432 0860 03       		.byte	0x3
 4433 0861 9F080000 		.4byte	0x89f
 4434 0865 14       		.uleb128 0x14
 4435 0866 5F7800   		.ascii	"_x\000"
 4436 0869 03       		.byte	0x3
 4437 086a 2C       		.byte	0x2c
 4438 086b 3E020000 		.4byte	0x23e
 4439 086f 14       		.uleb128 0x14
 4440 0870 65787000 		.ascii	"exp\000"
 4441 0874 03       		.byte	0x3
 4442 0875 2C       		.byte	0x2c
 4443 0876 9F000000 		.4byte	0x9f
 4444 087a 16       		.uleb128 0x16
 4445 087b 04       		.byte	0x4
 4446 087c 03       		.byte	0x3
 4447 087d 2D       		.byte	0x2d
 4448 087e 95080000 		.4byte	0x895
 4449 0882 17       		.uleb128 0x17
 4450 0883 6600     		.ascii	"f\000"
 4451 0885 03       		.byte	0x3
 4452 0886 2D       		.byte	0x2d
 4453 0887 3E020000 		.4byte	0x23e
 4454 088b 17       		.uleb128 0x17
 4455 088c 7300     		.ascii	"s\000"
 4456 088e 03       		.byte	0x3
 4457 088f 2D       		.byte	0x2d
 4458 0890 CE000000 		.4byte	0xce
 4459 0894 00       		.byte	0
 4460 0895 18       		.uleb128 0x18
 4461 0896 7800     		.ascii	"x\000"
 4462 0898 03       		.byte	0x3
 4463 0899 2D       		.byte	0x2d
 4464 089a 7A080000 		.4byte	0x87a
 4465 089e 00       		.byte	0
 4466 089f 13       		.uleb128 0x13
 4467 08a0 4A0A0000 		.4byte	.LASF139
 4468 08a4 02       		.byte	0x2
 4469 08a5 40       		.byte	0x40
 4470 08a6 9F000000 		.4byte	0x9f
 4471 08aa 03       		.byte	0x3
 4472 08ab BA080000 		.4byte	0x8ba
 4473 08af 14       		.uleb128 0x14
 4474 08b0 737200   		.ascii	"sr\000"
 4475 08b3 02       		.byte	0x2
 4476 08b4 40       		.byte	0x40
 4477 08b5 1E010000 		.4byte	0x11e
ARM GAS  C:\Users\rdn\AppData\Local\Temp\cckhx27q.s 			page 106


 4478 08b9 00       		.byte	0
 4479 08ba 13       		.uleb128 0x13
 4480 08bb 030A0000 		.4byte	.LASF140
 4481 08bf 02       		.byte	0x2
 4482 08c0 32       		.byte	0x32
 4483 08c1 9F000000 		.4byte	0x9f
 4484 08c5 03       		.byte	0x3
 4485 08c6 DF080000 		.4byte	0x8df
 4486 08ca 14       		.uleb128 0x14
 4487 08cb 647400   		.ascii	"dt\000"
 4488 08ce 02       		.byte	0x2
 4489 08cf 32       		.byte	0x32
 4490 08d0 EF000000 		.4byte	0xef
 4491 08d4 14       		.uleb128 0x14
 4492 08d5 737200   		.ascii	"sr\000"
 4493 08d8 02       		.byte	0x2
 4494 08d9 32       		.byte	0x32
 4495 08da 1E010000 		.4byte	0x11e
 4496 08de 00       		.byte	0
 4497 08df 13       		.uleb128 0x13
 4498 08e0 200C0000 		.4byte	.LASF141
 4499 08e4 02       		.byte	0x2
 4500 08e5 51       		.byte	0x51
 4501 08e6 9F000000 		.4byte	0x9f
 4502 08ea 03       		.byte	0x3
 4503 08eb 04090000 		.4byte	0x904
 4504 08ef 14       		.uleb128 0x14
 4505 08f0 647400   		.ascii	"dt\000"
 4506 08f3 02       		.byte	0x2
 4507 08f4 51       		.byte	0x51
 4508 08f5 EF000000 		.4byte	0xef
 4509 08f9 14       		.uleb128 0x14
 4510 08fa 737200   		.ascii	"sr\000"
 4511 08fd 02       		.byte	0x2
 4512 08fe 51       		.byte	0x51
 4513 08ff 1E010000 		.4byte	0x11e
 4514 0903 00       		.byte	0
 4515 0904 13       		.uleb128 0x13
 4516 0905 00000000 		.4byte	.LASF142
 4517 0909 02       		.byte	0x2
 4518 090a 56       		.byte	0x56
 4519 090b 9F000000 		.4byte	0x9f
 4520 090f 03       		.byte	0x3
 4521 0910 29090000 		.4byte	0x929
 4522 0914 14       		.uleb128 0x14
 4523 0915 647400   		.ascii	"dt\000"
 4524 0918 02       		.byte	0x2
 4525 0919 56       		.byte	0x56
 4526 091a EF000000 		.4byte	0xef
 4527 091e 14       		.uleb128 0x14
 4528 091f 737200   		.ascii	"sr\000"
 4529 0922 02       		.byte	0x2
 4530 0923 56       		.byte	0x56
 4531 0924 1E010000 		.4byte	0x11e
 4532 0928 00       		.byte	0
 4533 0929 19       		.uleb128 0x19
 4534 092a 3B090000 		.4byte	.LASF145
ARM GAS  C:\Users\rdn\AppData\Local\Temp\cckhx27q.s 			page 107


 4535 092e 01       		.byte	0x1
 4536 092f 7301     		.2byte	0x173
 4537 0931 A6000000 		.4byte	0xa6
 4538 0935 01       		.byte	0x1
 4539 0936 5F090000 		.4byte	0x95f
 4540 093a 1A       		.uleb128 0x1a
 4541 093b 74050000 		.4byte	.LASF136
 4542 093f 01       		.byte	0x1
 4543 0940 7301     		.2byte	0x173
 4544 0942 20020000 		.4byte	0x220
 4545 0946 1A       		.uleb128 0x1a
 4546 0947 D3030000 		.4byte	.LASF143
 4547 094b 01       		.byte	0x1
 4548 094c 7301     		.2byte	0x173
 4549 094e 9F000000 		.4byte	0x9f
 4550 0952 1A       		.uleb128 0x1a
 4551 0953 45010000 		.4byte	.LASF144
 4552 0957 01       		.byte	0x1
 4553 0958 7301     		.2byte	0x173
 4554 095a 9F000000 		.4byte	0x9f
 4555 095e 00       		.byte	0
 4556 095f 19       		.uleb128 0x19
 4557 0960 2D0B0000 		.4byte	.LASF146
 4558 0964 01       		.byte	0x1
 4559 0965 9F02     		.2byte	0x29f
 4560 0967 A6000000 		.4byte	0xa6
 4561 096b 01       		.byte	0x1
 4562 096c 95090000 		.4byte	0x995
 4563 0970 1A       		.uleb128 0x1a
 4564 0971 74050000 		.4byte	.LASF136
 4565 0975 01       		.byte	0x1
 4566 0976 9F02     		.2byte	0x29f
 4567 0978 20020000 		.4byte	0x220
 4568 097c 1A       		.uleb128 0x1a
 4569 097d D3030000 		.4byte	.LASF143
 4570 0981 01       		.byte	0x1
 4571 0982 9F02     		.2byte	0x29f
 4572 0984 9F000000 		.4byte	0x9f
 4573 0988 1A       		.uleb128 0x1a
 4574 0989 45010000 		.4byte	.LASF144
 4575 098d 01       		.byte	0x1
 4576 098e 9F02     		.2byte	0x29f
 4577 0990 9F000000 		.4byte	0x9f
 4578 0994 00       		.byte	0
 4579 0995 1B       		.uleb128 0x1b
 4580 0996 3D030000 		.4byte	.LASF179
 4581 099a 04       		.byte	0x4
 4582 099b DA       		.byte	0xda
 4583 099c 03       		.byte	0x3
 4584 099d CA090000 		.4byte	0x9ca
 4585 09a1 15       		.uleb128 0x15
 4586 09a2 6F050000 		.4byte	.LASF147
 4587 09a6 04       		.byte	0x4
 4588 09a7 DB       		.byte	0xdb
 4589 09a8 CA090000 		.4byte	0x9ca
 4590 09ac 14       		.uleb128 0x14
 4591 09ad 7600     		.ascii	"v\000"
ARM GAS  C:\Users\rdn\AppData\Local\Temp\cckhx27q.s 			page 108


 4592 09af 04       		.byte	0x4
 4593 09b0 DB       		.byte	0xdb
 4594 09b1 A6000000 		.4byte	0xa6
 4595 09b5 14       		.uleb128 0x14
 4596 09b6 6E00     		.ascii	"n\000"
 4597 09b8 04       		.byte	0x4
 4598 09b9 DB       		.byte	0xdb
 4599 09ba 9F000000 		.4byte	0x9f
 4600 09be 1C       		.uleb128 0x1c
 4601 09bf 2D040000 		.4byte	.LASF106
 4602 09c3 04       		.byte	0x4
 4603 09c4 DD       		.byte	0xdd
 4604 09c5 D0090000 		.4byte	0x9d0
 4605 09c9 00       		.byte	0
 4606 09ca 10       		.uleb128 0x10
 4607 09cb 04       		.byte	0x4
 4608 09cc D3050000 		.4byte	0x5d3
 4609 09d0 10       		.uleb128 0x10
 4610 09d1 04       		.byte	0x4
 4611 09d2 03050000 		.4byte	0x503
 4612 09d6 13       		.uleb128 0x13
 4613 09d7 E2000000 		.4byte	.LASF148
 4614 09db 04       		.byte	0x4
 4615 09dc F2       		.byte	0xf2
 4616 09dd A6000000 		.4byte	0xa6
 4617 09e1 03       		.byte	0x3
 4618 09e2 110A0000 		.4byte	0xa11
 4619 09e6 15       		.uleb128 0x15
 4620 09e7 6F050000 		.4byte	.LASF147
 4621 09eb 04       		.byte	0x4
 4622 09ec F2       		.byte	0xf2
 4623 09ed CA090000 		.4byte	0x9ca
 4624 09f1 14       		.uleb128 0x14
 4625 09f2 6E00     		.ascii	"n\000"
 4626 09f4 04       		.byte	0x4
 4627 09f5 F2       		.byte	0xf2
 4628 09f6 9F000000 		.4byte	0x9f
 4629 09fa 1C       		.uleb128 0x1c
 4630 09fb 2D040000 		.4byte	.LASF106
 4631 09ff 04       		.byte	0x4
 4632 0a00 F4       		.byte	0xf4
 4633 0a01 D0090000 		.4byte	0x9d0
 4634 0a05 1D       		.uleb128 0x1d
 4635 0a06 18       		.uleb128 0x18
 4636 0a07 7600     		.ascii	"v\000"
 4637 0a09 04       		.byte	0x4
 4638 0a0a F7       		.byte	0xf7
 4639 0a0b 9F000000 		.4byte	0x9f
 4640 0a0f 00       		.byte	0
 4641 0a10 00       		.byte	0
 4642 0a11 1E       		.uleb128 0x1e
 4643 0a12 B7000000 		.4byte	.LASF152
 4644 0a16 01       		.byte	0x1
 4645 0a17 BE       		.byte	0xbe
 4646 0a18 00000000 		.4byte	.LFB32
 4647 0a1c 50000000 		.4byte	.LFE32-.LFB32
 4648 0a20 01       		.uleb128 0x1
ARM GAS  C:\Users\rdn\AppData\Local\Temp\cckhx27q.s 			page 109


 4649 0a21 9C       		.byte	0x9c
 4650 0a22 D80A0000 		.4byte	0xad8
 4651 0a26 1F       		.uleb128 0x1f
 4652 0a27 4A030000 		.4byte	.LASF149
 4653 0a2b 01       		.byte	0x1
 4654 0a2c BF       		.byte	0xbf
 4655 0a2d 82040000 		.4byte	0x482
 4656 0a31 00000000 		.4byte	.LLST0
 4657 0a35 1F       		.uleb128 0x1f
 4658 0a36 21040000 		.4byte	.LASF150
 4659 0a3a 01       		.byte	0x1
 4660 0a3b BF       		.byte	0xbf
 4661 0a3c D80A0000 		.4byte	0xad8
 4662 0a40 2F000000 		.4byte	.LLST1
 4663 0a44 1F       		.uleb128 0x1f
 4664 0a45 CA090000 		.4byte	.LASF151
 4665 0a49 01       		.byte	0x1
 4666 0a4a BF       		.byte	0xbf
 4667 0a4b 9F000000 		.4byte	0x9f
 4668 0a4f 50000000 		.4byte	.LLST2
 4669 0a53 20       		.uleb128 0x20
 4670 0a54 70636D00 		.ascii	"pcm\000"
 4671 0a58 01       		.byte	0x1
 4672 0a59 C1       		.byte	0xc1
 4673 0a5a DF0A0000 		.4byte	0xadf
 4674 0a5e 01       		.uleb128 0x1
 4675 0a5f 51       		.byte	0x51
 4676 0a60 21       		.uleb128 0x21
 4677 0a61 647400   		.ascii	"dt\000"
 4678 0a64 01       		.byte	0x1
 4679 0a65 C3       		.byte	0xc3
 4680 0a66 EF000000 		.4byte	0xef
 4681 0a6a 71000000 		.4byte	.LLST3
 4682 0a6e 21       		.uleb128 0x21
 4683 0a6f 737200   		.ascii	"sr\000"
 4684 0a72 01       		.byte	0x1
 4685 0a73 C4       		.byte	0xc4
 4686 0a74 1E010000 		.4byte	0x11e
 4687 0a78 92000000 		.4byte	.LLST4
 4688 0a7c 21       		.uleb128 0x21
 4689 0a7d 787400   		.ascii	"xt\000"
 4690 0a80 01       		.byte	0x1
 4691 0a81 C6       		.byte	0xc6
 4692 0a82 EA0A0000 		.4byte	0xaea
 4693 0a86 B3000000 		.4byte	.LLST5
 4694 0a8a 21       		.uleb128 0x21
 4695 0a8b 787300   		.ascii	"xs\000"
 4696 0a8e 01       		.byte	0x1
 4697 0a8f C7       		.byte	0xc7
 4698 0a90 F00A0000 		.4byte	0xaf0
 4699 0a94 E8000000 		.4byte	.LLST6
 4700 0a98 18       		.uleb128 0x18
 4701 0a99 6E7300   		.ascii	"ns\000"
 4702 0a9c 01       		.byte	0x1
 4703 0a9d C8       		.byte	0xc8
 4704 0a9e 9F000000 		.4byte	0x9f
 4705 0aa2 22       		.uleb128 0x22
ARM GAS  C:\Users\rdn\AppData\Local\Temp\cckhx27q.s 			page 110


 4706 0aa3 C9070000 		.4byte	0x7c9
 4707 0aa7 02000000 		.4byte	.LBB95
 4708 0aab 00000000 		.4byte	.Ldebug_ranges0+0
 4709 0aaf 01       		.byte	0x1
 4710 0ab0 C8       		.byte	0xc8
 4711 0ab1 C00A0000 		.4byte	0xac0
 4712 0ab5 23       		.uleb128 0x23
 4713 0ab6 E3070000 		.4byte	0x7e3
 4714 0aba 23       		.uleb128 0x23
 4715 0abb D9070000 		.4byte	0x7d9
 4716 0abf 00       		.byte	0
 4717 0ac0 24       		.uleb128 0x24
 4718 0ac1 20000000 		.4byte	.LBB99
 4719 0ac5 2A000000 		.4byte	.LBE99-.LBB99
 4720 0ac9 21       		.uleb128 0x21
 4721 0aca 6900     		.ascii	"i\000"
 4722 0acc 01       		.byte	0x1
 4723 0acd CA       		.byte	0xca
 4724 0ace 9F000000 		.4byte	0x9f
 4725 0ad2 44010000 		.4byte	.LLST7
 4726 0ad6 00       		.byte	0
 4727 0ad7 00       		.byte	0
 4728 0ad8 10       		.uleb128 0x10
 4729 0ad9 04       		.byte	0x4
 4730 0ada DE0A0000 		.4byte	0xade
 4731 0ade 25       		.uleb128 0x25
 4732 0adf 10       		.uleb128 0x10
 4733 0ae0 04       		.byte	0x4
 4734 0ae1 E50A0000 		.4byte	0xae5
 4735 0ae5 12       		.uleb128 0x12
 4736 0ae6 B8000000 		.4byte	0xb8
 4737 0aea 10       		.uleb128 0x10
 4738 0aeb 04       		.byte	0x4
 4739 0aec B8000000 		.4byte	0xb8
 4740 0af0 10       		.uleb128 0x10
 4741 0af1 04       		.byte	0x4
 4742 0af2 3E020000 		.4byte	0x23e
 4743 0af6 1E       		.uleb128 0x1e
 4744 0af7 74010000 		.4byte	.LASF153
 4745 0afb 01       		.byte	0x1
 4746 0afc D3       		.byte	0xd3
 4747 0afd 00000000 		.4byte	.LFB33
 4748 0b01 5C000000 		.4byte	.LFE33-.LFB33
 4749 0b05 01       		.uleb128 0x1
 4750 0b06 9C       		.byte	0x9c
 4751 0b07 F40B0000 		.4byte	0xbf4
 4752 0b0b 1F       		.uleb128 0x1f
 4753 0b0c 4A030000 		.4byte	.LASF149
 4754 0b10 01       		.byte	0x1
 4755 0b11 D4       		.byte	0xd4
 4756 0b12 82040000 		.4byte	0x482
 4757 0b16 63010000 		.4byte	.LLST8
 4758 0b1a 1F       		.uleb128 0x1f
 4759 0b1b 21040000 		.4byte	.LASF150
 4760 0b1f 01       		.byte	0x1
 4761 0b20 D4       		.byte	0xd4
 4762 0b21 D80A0000 		.4byte	0xad8
ARM GAS  C:\Users\rdn\AppData\Local\Temp\cckhx27q.s 			page 111


 4763 0b25 92010000 		.4byte	.LLST9
 4764 0b29 1F       		.uleb128 0x1f
 4765 0b2a CA090000 		.4byte	.LASF151
 4766 0b2e 01       		.byte	0x1
 4767 0b2f D4       		.byte	0xd4
 4768 0b30 9F000000 		.4byte	0x9f
 4769 0b34 B3010000 		.4byte	.LLST10
 4770 0b38 21       		.uleb128 0x21
 4771 0b39 70636D00 		.ascii	"pcm\000"
 4772 0b3d 01       		.byte	0x1
 4773 0b3e D6       		.byte	0xd6
 4774 0b3f F40B0000 		.4byte	0xbf4
 4775 0b43 D4010000 		.4byte	.LLST11
 4776 0b47 21       		.uleb128 0x21
 4777 0b48 647400   		.ascii	"dt\000"
 4778 0b4b 01       		.byte	0x1
 4779 0b4c D8       		.byte	0xd8
 4780 0b4d EF000000 		.4byte	0xef
 4781 0b51 F2010000 		.4byte	.LLST12
 4782 0b55 21       		.uleb128 0x21
 4783 0b56 737200   		.ascii	"sr\000"
 4784 0b59 01       		.byte	0x1
 4785 0b5a D9       		.byte	0xd9
 4786 0b5b 1E010000 		.4byte	0x11e
 4787 0b5f 13020000 		.4byte	.LLST13
 4788 0b63 21       		.uleb128 0x21
 4789 0b64 787400   		.ascii	"xt\000"
 4790 0b67 01       		.byte	0x1
 4791 0b68 DB       		.byte	0xdb
 4792 0b69 EA0A0000 		.4byte	0xaea
 4793 0b6d 34020000 		.4byte	.LLST14
 4794 0b71 21       		.uleb128 0x21
 4795 0b72 787300   		.ascii	"xs\000"
 4796 0b75 01       		.byte	0x1
 4797 0b76 DC       		.byte	0xdc
 4798 0b77 F00A0000 		.4byte	0xaf0
 4799 0b7b 69020000 		.4byte	.LLST15
 4800 0b7f 18       		.uleb128 0x18
 4801 0b80 6E7300   		.ascii	"ns\000"
 4802 0b83 01       		.byte	0x1
 4803 0b84 DD       		.byte	0xdd
 4804 0b85 9F000000 		.4byte	0x9f
 4805 0b89 22       		.uleb128 0x22
 4806 0b8a C9070000 		.4byte	0x7c9
 4807 0b8e 02000000 		.4byte	.LBB100
 4808 0b92 18000000 		.4byte	.Ldebug_ranges0+0x18
 4809 0b96 01       		.byte	0x1
 4810 0b97 DD       		.byte	0xdd
 4811 0b98 A70B0000 		.4byte	0xba7
 4812 0b9c 23       		.uleb128 0x23
 4813 0b9d E3070000 		.4byte	0x7e3
 4814 0ba1 23       		.uleb128 0x23
 4815 0ba2 D9070000 		.4byte	0x7d9
 4816 0ba6 00       		.byte	0
 4817 0ba7 24       		.uleb128 0x24
 4818 0ba8 1C000000 		.4byte	.LBB104
 4819 0bac 38000000 		.4byte	.LBE104-.LBB104
ARM GAS  C:\Users\rdn\AppData\Local\Temp\cckhx27q.s 			page 112


 4820 0bb0 21       		.uleb128 0x21
 4821 0bb1 6900     		.ascii	"i\000"
 4822 0bb3 01       		.byte	0x1
 4823 0bb4 DF       		.byte	0xdf
 4824 0bb5 9F000000 		.4byte	0x9f
 4825 0bb9 C5020000 		.4byte	.LLST16
 4826 0bbd 26       		.uleb128 0x26
 4827 0bbe 55080000 		.4byte	0x855
 4828 0bc2 3C000000 		.4byte	.LBB105
 4829 0bc6 0A000000 		.4byte	.LBE105-.LBB105
 4830 0bca 01       		.byte	0x1
 4831 0bcb E1       		.byte	0xe1
 4832 0bcc 27       		.uleb128 0x27
 4833 0bcd 6F080000 		.4byte	0x86f
 4834 0bd1 E4020000 		.4byte	.LLST17
 4835 0bd5 27       		.uleb128 0x27
 4836 0bd6 65080000 		.4byte	0x865
 4837 0bda F9020000 		.4byte	.LLST18
 4838 0bde 24       		.uleb128 0x24
 4839 0bdf 3C000000 		.4byte	.LBB106
 4840 0be3 0A000000 		.4byte	.LBE106-.LBB106
 4841 0be7 28       		.uleb128 0x28
 4842 0be8 95080000 		.4byte	0x895
 4843 0bec 0C030000 		.4byte	.LLST19
 4844 0bf0 00       		.byte	0
 4845 0bf1 00       		.byte	0
 4846 0bf2 00       		.byte	0
 4847 0bf3 00       		.byte	0
 4848 0bf4 10       		.uleb128 0x10
 4849 0bf5 04       		.byte	0x4
 4850 0bf6 FA0B0000 		.4byte	0xbfa
 4851 0bfa 12       		.uleb128 0x12
 4852 0bfb CE000000 		.4byte	0xce
 4853 0bff 1E       		.uleb128 0x1e
 4854 0c00 EC060000 		.4byte	.LASF154
 4855 0c04 01       		.byte	0x1
 4856 0c05 EA       		.byte	0xea
 4857 0c06 00000000 		.4byte	.LFB34
 4858 0c0a 6C000000 		.4byte	.LFE34-.LFB34
 4859 0c0e 01       		.uleb128 0x1
 4860 0c0f 9C       		.byte	0x9c
 4861 0c10 110D0000 		.4byte	0xd11
 4862 0c14 1F       		.uleb128 0x1f
 4863 0c15 4A030000 		.4byte	.LASF149
 4864 0c19 01       		.byte	0x1
 4865 0c1a EB       		.byte	0xeb
 4866 0c1b 82040000 		.4byte	0x482
 4867 0c1f 21030000 		.4byte	.LLST20
 4868 0c23 1F       		.uleb128 0x1f
 4869 0c24 21040000 		.4byte	.LASF150
 4870 0c28 01       		.byte	0x1
 4871 0c29 EB       		.byte	0xeb
 4872 0c2a D80A0000 		.4byte	0xad8
 4873 0c2e 50030000 		.4byte	.LLST21
 4874 0c32 1F       		.uleb128 0x1f
 4875 0c33 CA090000 		.4byte	.LASF151
 4876 0c37 01       		.byte	0x1
ARM GAS  C:\Users\rdn\AppData\Local\Temp\cckhx27q.s 			page 113


 4877 0c38 EB       		.byte	0xeb
 4878 0c39 9F000000 		.4byte	0x9f
 4879 0c3d 71030000 		.4byte	.LLST22
 4880 0c41 21       		.uleb128 0x21
 4881 0c42 70636D00 		.ascii	"pcm\000"
 4882 0c46 01       		.byte	0x1
 4883 0c47 ED       		.byte	0xed
 4884 0c48 C2050000 		.4byte	0x5c2
 4885 0c4c 92030000 		.4byte	.LLST23
 4886 0c50 21       		.uleb128 0x21
 4887 0c51 647400   		.ascii	"dt\000"
 4888 0c54 01       		.byte	0x1
 4889 0c55 EF       		.byte	0xef
 4890 0c56 EF000000 		.4byte	0xef
 4891 0c5a B0030000 		.4byte	.LLST24
 4892 0c5e 21       		.uleb128 0x21
 4893 0c5f 737200   		.ascii	"sr\000"
 4894 0c62 01       		.byte	0x1
 4895 0c63 F0       		.byte	0xf0
 4896 0c64 1E010000 		.4byte	0x11e
 4897 0c68 D1030000 		.4byte	.LLST25
 4898 0c6c 21       		.uleb128 0x21
 4899 0c6d 787400   		.ascii	"xt\000"
 4900 0c70 01       		.byte	0x1
 4901 0c71 F2       		.byte	0xf2
 4902 0c72 EA0A0000 		.4byte	0xaea
 4903 0c76 F2030000 		.4byte	.LLST26
 4904 0c7a 21       		.uleb128 0x21
 4905 0c7b 787300   		.ascii	"xs\000"
 4906 0c7e 01       		.byte	0x1
 4907 0c7f F3       		.byte	0xf3
 4908 0c80 F00A0000 		.4byte	0xaf0
 4909 0c84 27040000 		.4byte	.LLST27
 4910 0c88 18       		.uleb128 0x18
 4911 0c89 6E7300   		.ascii	"ns\000"
 4912 0c8c 01       		.byte	0x1
 4913 0c8d F4       		.byte	0xf4
 4914 0c8e 9F000000 		.4byte	0x9f
 4915 0c92 22       		.uleb128 0x22
 4916 0c93 C9070000 		.4byte	0x7c9
 4917 0c97 02000000 		.4byte	.LBB107
 4918 0c9b 30000000 		.4byte	.Ldebug_ranges0+0x30
 4919 0c9f 01       		.byte	0x1
 4920 0ca0 F4       		.byte	0xf4
 4921 0ca1 B00C0000 		.4byte	0xcb0
 4922 0ca5 23       		.uleb128 0x23
 4923 0ca6 E3070000 		.4byte	0x7e3
 4924 0caa 23       		.uleb128 0x23
 4925 0cab D9070000 		.4byte	0x7d9
 4926 0caf 00       		.byte	0
 4927 0cb0 24       		.uleb128 0x24
 4928 0cb1 1C000000 		.4byte	.LBB111
 4929 0cb5 48000000 		.4byte	.LBE111-.LBB111
 4930 0cb9 21       		.uleb128 0x21
 4931 0cba 6900     		.ascii	"i\000"
 4932 0cbc 01       		.byte	0x1
 4933 0cbd F6       		.byte	0xf6
ARM GAS  C:\Users\rdn\AppData\Local\Temp\cckhx27q.s 			page 114


 4934 0cbe 9F000000 		.4byte	0x9f
 4935 0cc2 83040000 		.4byte	.LLST28
 4936 0cc6 29       		.uleb128 0x29
 4937 0cc7 48000000 		.4byte	.Ldebug_ranges0+0x48
 4938 0ccb 21       		.uleb128 0x21
 4939 0ccc 696E00   		.ascii	"in\000"
 4940 0ccf 01       		.byte	0x1
 4941 0cd0 F7       		.byte	0xf7
 4942 0cd1 CE000000 		.4byte	0xce
 4943 0cd5 A2040000 		.4byte	.LLST29
 4944 0cd9 26       		.uleb128 0x26
 4945 0cda 55080000 		.4byte	0x855
 4946 0cde 4C000000 		.4byte	.LBB113
 4947 0ce2 0A000000 		.4byte	.LBE113-.LBB113
 4948 0ce6 01       		.byte	0x1
 4949 0ce7 FC       		.byte	0xfc
 4950 0ce8 27       		.uleb128 0x27
 4951 0ce9 6F080000 		.4byte	0x86f
 4952 0ced DD040000 		.4byte	.LLST30
 4953 0cf1 27       		.uleb128 0x27
 4954 0cf2 65080000 		.4byte	0x865
 4955 0cf6 F2040000 		.4byte	.LLST31
 4956 0cfa 24       		.uleb128 0x24
 4957 0cfb 4C000000 		.4byte	.LBB114
 4958 0cff 0A000000 		.4byte	.LBE114-.LBB114
 4959 0d03 28       		.uleb128 0x28
 4960 0d04 95080000 		.4byte	0x895
 4961 0d08 05050000 		.4byte	.LLST32
 4962 0d0c 00       		.byte	0
 4963 0d0d 00       		.byte	0
 4964 0d0e 00       		.byte	0
 4965 0d0f 00       		.byte	0
 4966 0d10 00       		.byte	0
 4967 0d11 2A       		.uleb128 0x2a
 4968 0d12 4A040000 		.4byte	.LASF155
 4969 0d16 01       		.byte	0x1
 4970 0d17 0501     		.2byte	0x105
 4971 0d19 00000000 		.4byte	.LFB35
 4972 0d1d 78000000 		.4byte	.LFE35-.LFB35
 4973 0d21 01       		.uleb128 0x1
 4974 0d22 9C       		.byte	0x9c
 4975 0d23 180E0000 		.4byte	0xe18
 4976 0d27 2B       		.uleb128 0x2b
 4977 0d28 4A030000 		.4byte	.LASF149
 4978 0d2c 01       		.byte	0x1
 4979 0d2d 0601     		.2byte	0x106
 4980 0d2f 82040000 		.4byte	0x482
 4981 0d33 1A050000 		.4byte	.LLST33
 4982 0d37 2B       		.uleb128 0x2b
 4983 0d38 21040000 		.4byte	.LASF150
 4984 0d3c 01       		.byte	0x1
 4985 0d3d 0601     		.2byte	0x106
 4986 0d3f D80A0000 		.4byte	0xad8
 4987 0d43 49050000 		.4byte	.LLST34
 4988 0d47 2B       		.uleb128 0x2b
 4989 0d48 CA090000 		.4byte	.LASF151
 4990 0d4c 01       		.byte	0x1
ARM GAS  C:\Users\rdn\AppData\Local\Temp\cckhx27q.s 			page 115


 4991 0d4d 0601     		.2byte	0x106
 4992 0d4f 9F000000 		.4byte	0x9f
 4993 0d53 6A050000 		.4byte	.LLST35
 4994 0d57 2C       		.uleb128 0x2c
 4995 0d58 70636D00 		.ascii	"pcm\000"
 4996 0d5c 01       		.byte	0x1
 4997 0d5d 0801     		.2byte	0x108
 4998 0d5f 2F070000 		.4byte	0x72f
 4999 0d63 8B050000 		.4byte	.LLST36
 5000 0d67 2C       		.uleb128 0x2c
 5001 0d68 647400   		.ascii	"dt\000"
 5002 0d6b 01       		.byte	0x1
 5003 0d6c 0A01     		.2byte	0x10a
 5004 0d6e EF000000 		.4byte	0xef
 5005 0d72 A9050000 		.4byte	.LLST37
 5006 0d76 2C       		.uleb128 0x2c
 5007 0d77 737200   		.ascii	"sr\000"
 5008 0d7a 01       		.byte	0x1
 5009 0d7b 0B01     		.2byte	0x10b
 5010 0d7d 1E010000 		.4byte	0x11e
 5011 0d81 CA050000 		.4byte	.LLST38
 5012 0d85 2C       		.uleb128 0x2c
 5013 0d86 787400   		.ascii	"xt\000"
 5014 0d89 01       		.byte	0x1
 5015 0d8a 0D01     		.2byte	0x10d
 5016 0d8c EA0A0000 		.4byte	0xaea
 5017 0d90 EB050000 		.4byte	.LLST39
 5018 0d94 2C       		.uleb128 0x2c
 5019 0d95 787300   		.ascii	"xs\000"
 5020 0d98 01       		.byte	0x1
 5021 0d99 0E01     		.2byte	0x10e
 5022 0d9b F00A0000 		.4byte	0xaf0
 5023 0d9f 20060000 		.4byte	.LLST40
 5024 0da3 2D       		.uleb128 0x2d
 5025 0da4 6E7300   		.ascii	"ns\000"
 5026 0da7 01       		.byte	0x1
 5027 0da8 0F01     		.2byte	0x10f
 5028 0daa 9F000000 		.4byte	0x9f
 5029 0dae 2E       		.uleb128 0x2e
 5030 0daf C9070000 		.4byte	0x7c9
 5031 0db3 02000000 		.4byte	.LBB117
 5032 0db7 68000000 		.4byte	.Ldebug_ranges0+0x68
 5033 0dbb 01       		.byte	0x1
 5034 0dbc 0F01     		.2byte	0x10f
 5035 0dbe CD0D0000 		.4byte	0xdcd
 5036 0dc2 23       		.uleb128 0x23
 5037 0dc3 E3070000 		.4byte	0x7e3
 5038 0dc7 23       		.uleb128 0x23
 5039 0dc8 D9070000 		.4byte	0x7d9
 5040 0dcc 00       		.byte	0
 5041 0dcd 29       		.uleb128 0x29
 5042 0dce 80000000 		.4byte	.Ldebug_ranges0+0x80
 5043 0dd2 2C       		.uleb128 0x2c
 5044 0dd3 6900     		.ascii	"i\000"
 5045 0dd5 01       		.byte	0x1
 5046 0dd6 1101     		.2byte	0x111
 5047 0dd8 9F000000 		.4byte	0x9f
ARM GAS  C:\Users\rdn\AppData\Local\Temp\cckhx27q.s 			page 116


 5048 0ddc 7C060000 		.4byte	.LLST41
 5049 0de0 2F       		.uleb128 0x2f
 5050 0de1 55080000 		.4byte	0x855
 5051 0de5 36000000 		.4byte	.LBB121
 5052 0de9 0A000000 		.4byte	.LBE121-.LBB121
 5053 0ded 01       		.byte	0x1
 5054 0dee 1201     		.2byte	0x112
 5055 0df0 27       		.uleb128 0x27
 5056 0df1 6F080000 		.4byte	0x86f
 5057 0df5 9B060000 		.4byte	.LLST42
 5058 0df9 27       		.uleb128 0x27
 5059 0dfa 65080000 		.4byte	0x865
 5060 0dfe AF060000 		.4byte	.LLST43
 5061 0e02 24       		.uleb128 0x24
 5062 0e03 36000000 		.4byte	.LBB122
 5063 0e07 0A000000 		.4byte	.LBE122-.LBB122
 5064 0e0b 28       		.uleb128 0x28
 5065 0e0c 95080000 		.4byte	0x895
 5066 0e10 C2060000 		.4byte	.LLST44
 5067 0e14 00       		.byte	0
 5068 0e15 00       		.byte	0
 5069 0e16 00       		.byte	0
 5070 0e17 00       		.byte	0
 5071 0e18 2A       		.uleb128 0x2a
 5072 0e19 70060000 		.4byte	.LASF156
 5073 0e1d 01       		.byte	0x1
 5074 0e1e D501     		.2byte	0x1d5
 5075 0e20 00000000 		.4byte	.LFB43
 5076 0e24 70000000 		.4byte	.LFE43-.LFB43
 5077 0e28 01       		.uleb128 0x1
 5078 0e29 9C       		.byte	0x9c
 5079 0e2a E40E0000 		.4byte	0xee4
 5080 0e2e 2B       		.uleb128 0x2b
 5081 0e2f 52030000 		.4byte	.LASF157
 5082 0e33 01       		.byte	0x1
 5083 0e34 D601     		.2byte	0x1d6
 5084 0e36 88040000 		.4byte	0x488
 5085 0e3a D7060000 		.4byte	.LLST45
 5086 0e3e 2B       		.uleb128 0x2b
 5087 0e3f 21040000 		.4byte	.LASF150
 5088 0e43 01       		.byte	0x1
 5089 0e44 D601     		.2byte	0x1d6
 5090 0e46 95040000 		.4byte	0x495
 5091 0e4a 06070000 		.4byte	.LLST46
 5092 0e4e 2B       		.uleb128 0x2b
 5093 0e4f CA090000 		.4byte	.LASF151
 5094 0e53 01       		.byte	0x1
 5095 0e54 D601     		.2byte	0x1d6
 5096 0e56 9F000000 		.4byte	0x9f
 5097 0e5a 27070000 		.4byte	.LLST47
 5098 0e5e 30       		.uleb128 0x30
 5099 0e5f 70636D00 		.ascii	"pcm\000"
 5100 0e63 01       		.byte	0x1
 5101 0e64 D801     		.2byte	0x1d8
 5102 0e66 EA0A0000 		.4byte	0xaea
 5103 0e6a 01       		.uleb128 0x1
 5104 0e6b 51       		.byte	0x51
ARM GAS  C:\Users\rdn\AppData\Local\Temp\cckhx27q.s 			page 117


 5105 0e6c 2C       		.uleb128 0x2c
 5106 0e6d 647400   		.ascii	"dt\000"
 5107 0e70 01       		.byte	0x1
 5108 0e71 DA01     		.2byte	0x1da
 5109 0e73 EF000000 		.4byte	0xef
 5110 0e77 48070000 		.4byte	.LLST48
 5111 0e7b 2C       		.uleb128 0x2c
 5112 0e7c 737200   		.ascii	"sr\000"
 5113 0e7f 01       		.byte	0x1
 5114 0e80 DB01     		.2byte	0x1db
 5115 0e82 1E010000 		.4byte	0x11e
 5116 0e86 69070000 		.4byte	.LLST49
 5117 0e8a 2C       		.uleb128 0x2c
 5118 0e8b 787300   		.ascii	"xs\000"
 5119 0e8e 01       		.byte	0x1
 5120 0e8f DD01     		.2byte	0x1dd
 5121 0e91 F00A0000 		.4byte	0xaf0
 5122 0e95 8A070000 		.4byte	.LLST50
 5123 0e99 2C       		.uleb128 0x2c
 5124 0e9a 6E7300   		.ascii	"ns\000"
 5125 0e9d 01       		.byte	0x1
 5126 0e9e DE01     		.2byte	0x1de
 5127 0ea0 9F000000 		.4byte	0x9f
 5128 0ea4 DF070000 		.4byte	.LLST51
 5129 0ea8 2E       		.uleb128 0x2e
 5130 0ea9 C9070000 		.4byte	0x7c9
 5131 0ead 02000000 		.4byte	.LBB125
 5132 0eb1 98000000 		.4byte	.Ldebug_ranges0+0x98
 5133 0eb5 01       		.byte	0x1
 5134 0eb6 DE01     		.2byte	0x1de
 5135 0eb8 CF0E0000 		.4byte	0xecf
 5136 0ebc 27       		.uleb128 0x27
 5137 0ebd E3070000 		.4byte	0x7e3
 5138 0ec1 F2070000 		.4byte	.LLST52
 5139 0ec5 27       		.uleb128 0x27
 5140 0ec6 D9070000 		.4byte	0x7d9
 5141 0eca 13080000 		.4byte	.LLST53
 5142 0ece 00       		.byte	0
 5143 0ecf 29       		.uleb128 0x29
 5144 0ed0 B0000000 		.4byte	.Ldebug_ranges0+0xb0
 5145 0ed4 2C       		.uleb128 0x2c
 5146 0ed5 7300     		.ascii	"s\000"
 5147 0ed7 01       		.byte	0x1
 5148 0ed8 E101     		.2byte	0x1e1
 5149 0eda CE000000 		.4byte	0xce
 5150 0ede 34080000 		.4byte	.LLST54
 5151 0ee2 00       		.byte	0
 5152 0ee3 00       		.byte	0
 5153 0ee4 2A       		.uleb128 0x2a
 5154 0ee5 12020000 		.4byte	.LASF158
 5155 0ee9 01       		.byte	0x1
 5156 0eea EB01     		.2byte	0x1eb
 5157 0eec 00000000 		.4byte	.LFB44
 5158 0ef0 94000000 		.4byte	.LFE44-.LFB44
 5159 0ef4 01       		.uleb128 0x1
 5160 0ef5 9C       		.byte	0x9c
 5161 0ef6 20100000 		.4byte	0x1020
ARM GAS  C:\Users\rdn\AppData\Local\Temp\cckhx27q.s 			page 118


 5162 0efa 2B       		.uleb128 0x2b
 5163 0efb 52030000 		.4byte	.LASF157
 5164 0eff 01       		.byte	0x1
 5165 0f00 EC01     		.2byte	0x1ec
 5166 0f02 88040000 		.4byte	0x488
 5167 0f06 5F080000 		.4byte	.LLST55
 5168 0f0a 2B       		.uleb128 0x2b
 5169 0f0b 21040000 		.4byte	.LASF150
 5170 0f0f 01       		.byte	0x1
 5171 0f10 EC01     		.2byte	0x1ec
 5172 0f12 95040000 		.4byte	0x495
 5173 0f16 8E080000 		.4byte	.LLST56
 5174 0f1a 2B       		.uleb128 0x2b
 5175 0f1b CA090000 		.4byte	.LASF151
 5176 0f1f 01       		.byte	0x1
 5177 0f20 EC01     		.2byte	0x1ec
 5178 0f22 9F000000 		.4byte	0x9f
 5179 0f26 AF080000 		.4byte	.LLST57
 5180 0f2a 30       		.uleb128 0x30
 5181 0f2b 70636D00 		.ascii	"pcm\000"
 5182 0f2f 01       		.byte	0x1
 5183 0f30 EE01     		.2byte	0x1ee
 5184 0f32 20100000 		.4byte	0x1020
 5185 0f36 01       		.uleb128 0x1
 5186 0f37 51       		.byte	0x51
 5187 0f38 2C       		.uleb128 0x2c
 5188 0f39 647400   		.ascii	"dt\000"
 5189 0f3c 01       		.byte	0x1
 5190 0f3d F001     		.2byte	0x1f0
 5191 0f3f EF000000 		.4byte	0xef
 5192 0f43 D0080000 		.4byte	.LLST58
 5193 0f47 2C       		.uleb128 0x2c
 5194 0f48 737200   		.ascii	"sr\000"
 5195 0f4b 01       		.byte	0x1
 5196 0f4c F101     		.2byte	0x1f1
 5197 0f4e 1E010000 		.4byte	0x11e
 5198 0f52 F1080000 		.4byte	.LLST59
 5199 0f56 2C       		.uleb128 0x2c
 5200 0f57 787300   		.ascii	"xs\000"
 5201 0f5a 01       		.byte	0x1
 5202 0f5b F301     		.2byte	0x1f3
 5203 0f5d F00A0000 		.4byte	0xaf0
 5204 0f61 12090000 		.4byte	.LLST60
 5205 0f65 2C       		.uleb128 0x2c
 5206 0f66 6E7300   		.ascii	"ns\000"
 5207 0f69 01       		.byte	0x1
 5208 0f6a F401     		.2byte	0x1f4
 5209 0f6c 9F000000 		.4byte	0x9f
 5210 0f70 67090000 		.4byte	.LLST61
 5211 0f74 2E       		.uleb128 0x2e
 5212 0f75 C9070000 		.4byte	0x7c9
 5213 0f79 02000000 		.4byte	.LBB132
 5214 0f7d D0000000 		.4byte	.Ldebug_ranges0+0xd0
 5215 0f81 01       		.byte	0x1
 5216 0f82 F401     		.2byte	0x1f4
 5217 0f84 9B0F0000 		.4byte	0xf9b
 5218 0f88 27       		.uleb128 0x27
ARM GAS  C:\Users\rdn\AppData\Local\Temp\cckhx27q.s 			page 119


 5219 0f89 E3070000 		.4byte	0x7e3
 5220 0f8d 7A090000 		.4byte	.LLST62
 5221 0f91 27       		.uleb128 0x27
 5222 0f92 D9070000 		.4byte	0x7d9
 5223 0f96 9B090000 		.4byte	.LLST63
 5224 0f9a 00       		.byte	0
 5225 0f9b 29       		.uleb128 0x29
 5226 0f9c E8000000 		.4byte	.Ldebug_ranges0+0xe8
 5227 0fa0 2C       		.uleb128 0x2c
 5228 0fa1 7300     		.ascii	"s\000"
 5229 0fa3 01       		.byte	0x1
 5230 0fa4 F701     		.2byte	0x1f7
 5231 0fa6 CE000000 		.4byte	0xce
 5232 0faa BC090000 		.4byte	.LLST64
 5233 0fae 31       		.uleb128 0x31
 5234 0faf 55080000 		.4byte	0x855
 5235 0fb3 3C000000 		.4byte	.LBB136
 5236 0fb7 0A000000 		.4byte	.LBE136-.LBB136
 5237 0fbb 01       		.byte	0x1
 5238 0fbc F701     		.2byte	0x1f7
 5239 0fbe E80F0000 		.4byte	0xfe8
 5240 0fc2 27       		.uleb128 0x27
 5241 0fc3 6F080000 		.4byte	0x86f
 5242 0fc7 F2090000 		.4byte	.LLST65
 5243 0fcb 27       		.uleb128 0x27
 5244 0fcc 65080000 		.4byte	0x865
 5245 0fd0 060A0000 		.4byte	.LLST66
 5246 0fd4 24       		.uleb128 0x24
 5247 0fd5 3C000000 		.4byte	.LBB137
 5248 0fd9 0A000000 		.4byte	.LBE137-.LBB137
 5249 0fdd 28       		.uleb128 0x28
 5250 0fde 95080000 		.4byte	0x895
 5251 0fe2 190A0000 		.4byte	.LLST67
 5252 0fe6 00       		.byte	0
 5253 0fe7 00       		.byte	0
 5254 0fe8 2F       		.uleb128 0x2f
 5255 0fe9 55080000 		.4byte	0x855
 5256 0fed 50000000 		.4byte	.LBB138
 5257 0ff1 0A000000 		.4byte	.LBE138-.LBB138
 5258 0ff5 01       		.byte	0x1
 5259 0ff6 F801     		.2byte	0x1f8
 5260 0ff8 27       		.uleb128 0x27
 5261 0ff9 6F080000 		.4byte	0x86f
 5262 0ffd 2E0A0000 		.4byte	.LLST68
 5263 1001 27       		.uleb128 0x27
 5264 1002 65080000 		.4byte	0x865
 5265 1006 420A0000 		.4byte	.LLST69
 5266 100a 24       		.uleb128 0x24
 5267 100b 50000000 		.4byte	.LBB139
 5268 100f 0A000000 		.4byte	.LBE139-.LBB139
 5269 1013 28       		.uleb128 0x28
 5270 1014 95080000 		.4byte	0x895
 5271 1018 550A0000 		.4byte	.LLST70
 5272 101c 00       		.byte	0
 5273 101d 00       		.byte	0
 5274 101e 00       		.byte	0
 5275 101f 00       		.byte	0
ARM GAS  C:\Users\rdn\AppData\Local\Temp\cckhx27q.s 			page 120


 5276 1020 10       		.uleb128 0x10
 5277 1021 04       		.byte	0x4
 5278 1022 CE000000 		.4byte	0xce
 5279 1026 2A       		.uleb128 0x2a
 5280 1027 E8070000 		.4byte	.LASF159
 5281 102b 01       		.byte	0x1
 5282 102c 0202     		.2byte	0x202
 5283 102e 00000000 		.4byte	.LFB45
 5284 1032 9C000000 		.4byte	.LFE45-.LFB45
 5285 1036 01       		.uleb128 0x1
 5286 1037 9C       		.byte	0x9c
 5287 1038 62110000 		.4byte	0x1162
 5288 103c 2B       		.uleb128 0x2b
 5289 103d 52030000 		.4byte	.LASF157
 5290 1041 01       		.byte	0x1
 5291 1042 0302     		.2byte	0x203
 5292 1044 88040000 		.4byte	0x488
 5293 1048 6A0A0000 		.4byte	.LLST71
 5294 104c 2B       		.uleb128 0x2b
 5295 104d 21040000 		.4byte	.LASF150
 5296 1051 01       		.byte	0x1
 5297 1052 0302     		.2byte	0x203
 5298 1054 95040000 		.4byte	0x495
 5299 1058 990A0000 		.4byte	.LLST72
 5300 105c 2B       		.uleb128 0x2b
 5301 105d CA090000 		.4byte	.LASF151
 5302 1061 01       		.byte	0x1
 5303 1062 0302     		.2byte	0x203
 5304 1064 9F000000 		.4byte	0x9f
 5305 1068 BA0A0000 		.4byte	.LLST73
 5306 106c 30       		.uleb128 0x30
 5307 106d 70636D00 		.ascii	"pcm\000"
 5308 1071 01       		.byte	0x1
 5309 1072 0502     		.2byte	0x205
 5310 1074 CD050000 		.4byte	0x5cd
 5311 1078 01       		.uleb128 0x1
 5312 1079 51       		.byte	0x51
 5313 107a 2C       		.uleb128 0x2c
 5314 107b 647400   		.ascii	"dt\000"
 5315 107e 01       		.byte	0x1
 5316 107f 0702     		.2byte	0x207
 5317 1081 EF000000 		.4byte	0xef
 5318 1085 DB0A0000 		.4byte	.LLST74
 5319 1089 2C       		.uleb128 0x2c
 5320 108a 737200   		.ascii	"sr\000"
 5321 108d 01       		.byte	0x1
 5322 108e 0802     		.2byte	0x208
 5323 1090 1E010000 		.4byte	0x11e
 5324 1094 FC0A0000 		.4byte	.LLST75
 5325 1098 2C       		.uleb128 0x2c
 5326 1099 787300   		.ascii	"xs\000"
 5327 109c 01       		.byte	0x1
 5328 109d 0A02     		.2byte	0x20a
 5329 109f F00A0000 		.4byte	0xaf0
 5330 10a3 1D0B0000 		.4byte	.LLST76
 5331 10a7 2C       		.uleb128 0x2c
 5332 10a8 6E7300   		.ascii	"ns\000"
ARM GAS  C:\Users\rdn\AppData\Local\Temp\cckhx27q.s 			page 121


 5333 10ab 01       		.byte	0x1
 5334 10ac 0B02     		.2byte	0x20b
 5335 10ae 9F000000 		.4byte	0x9f
 5336 10b2 720B0000 		.4byte	.LLST77
 5337 10b6 2E       		.uleb128 0x2e
 5338 10b7 C9070000 		.4byte	0x7c9
 5339 10bb 02000000 		.4byte	.LBB142
 5340 10bf 00010000 		.4byte	.Ldebug_ranges0+0x100
 5341 10c3 01       		.byte	0x1
 5342 10c4 0B02     		.2byte	0x20b
 5343 10c6 DD100000 		.4byte	0x10dd
 5344 10ca 27       		.uleb128 0x27
 5345 10cb E3070000 		.4byte	0x7e3
 5346 10cf 850B0000 		.4byte	.LLST78
 5347 10d3 27       		.uleb128 0x27
 5348 10d4 D9070000 		.4byte	0x7d9
 5349 10d8 A60B0000 		.4byte	.LLST79
 5350 10dc 00       		.byte	0
 5351 10dd 29       		.uleb128 0x29
 5352 10de 18010000 		.4byte	.Ldebug_ranges0+0x118
 5353 10e2 2C       		.uleb128 0x2c
 5354 10e3 7300     		.ascii	"s\000"
 5355 10e5 01       		.byte	0x1
 5356 10e6 0E02     		.2byte	0x20e
 5357 10e8 CE000000 		.4byte	0xce
 5358 10ec C70B0000 		.4byte	.LLST80
 5359 10f0 31       		.uleb128 0x31
 5360 10f1 55080000 		.4byte	0x855
 5361 10f5 3E000000 		.4byte	.LBB146
 5362 10f9 0A000000 		.4byte	.LBE146-.LBB146
 5363 10fd 01       		.byte	0x1
 5364 10fe 0E02     		.2byte	0x20e
 5365 1100 2A110000 		.4byte	0x112a
 5366 1104 27       		.uleb128 0x27
 5367 1105 6F080000 		.4byte	0x86f
 5368 1109 F10B0000 		.4byte	.LLST81
 5369 110d 27       		.uleb128 0x27
 5370 110e 65080000 		.4byte	0x865
 5371 1112 050C0000 		.4byte	.LLST82
 5372 1116 24       		.uleb128 0x24
 5373 1117 3E000000 		.4byte	.LBB147
 5374 111b 0A000000 		.4byte	.LBE147-.LBB147
 5375 111f 28       		.uleb128 0x28
 5376 1120 95080000 		.4byte	0x895
 5377 1124 180C0000 		.4byte	.LLST83
 5378 1128 00       		.byte	0
 5379 1129 00       		.byte	0
 5380 112a 2F       		.uleb128 0x2f
 5381 112b 55080000 		.4byte	0x855
 5382 112f 52000000 		.4byte	.LBB148
 5383 1133 0A000000 		.4byte	.LBE148-.LBB148
 5384 1137 01       		.byte	0x1
 5385 1138 0F02     		.2byte	0x20f
 5386 113a 27       		.uleb128 0x27
 5387 113b 6F080000 		.4byte	0x86f
 5388 113f 2D0C0000 		.4byte	.LLST84
 5389 1143 27       		.uleb128 0x27
ARM GAS  C:\Users\rdn\AppData\Local\Temp\cckhx27q.s 			page 122


 5390 1144 65080000 		.4byte	0x865
 5391 1148 410C0000 		.4byte	.LLST85
 5392 114c 24       		.uleb128 0x24
 5393 114d 52000000 		.4byte	.LBB149
 5394 1151 0A000000 		.4byte	.LBE149-.LBB149
 5395 1155 28       		.uleb128 0x28
 5396 1156 95080000 		.4byte	0x895
 5397 115a 540C0000 		.4byte	.LLST86
 5398 115e 00       		.byte	0
 5399 115f 00       		.byte	0
 5400 1160 00       		.byte	0
 5401 1161 00       		.byte	0
 5402 1162 2A       		.uleb128 0x2a
 5403 1163 2E080000 		.4byte	.LASF160
 5404 1167 01       		.byte	0x1
 5405 1168 1D02     		.2byte	0x21d
 5406 116a 00000000 		.4byte	.LFB46
 5407 116e 54000000 		.4byte	.LFE46-.LFB46
 5408 1172 01       		.uleb128 0x1
 5409 1173 9C       		.byte	0x9c
 5410 1174 7A120000 		.4byte	0x127a
 5411 1178 2B       		.uleb128 0x2b
 5412 1179 52030000 		.4byte	.LASF157
 5413 117d 01       		.byte	0x1
 5414 117e 1E02     		.2byte	0x21e
 5415 1180 88040000 		.4byte	0x488
 5416 1184 690C0000 		.4byte	.LLST87
 5417 1188 2B       		.uleb128 0x2b
 5418 1189 21040000 		.4byte	.LASF150
 5419 118d 01       		.byte	0x1
 5420 118e 1E02     		.2byte	0x21e
 5421 1190 95040000 		.4byte	0x495
 5422 1194 8A0C0000 		.4byte	.LLST88
 5423 1198 2B       		.uleb128 0x2b
 5424 1199 CA090000 		.4byte	.LASF151
 5425 119d 01       		.byte	0x1
 5426 119e 1E02     		.2byte	0x21e
 5427 11a0 9F000000 		.4byte	0x9f
 5428 11a4 B60C0000 		.4byte	.LLST89
 5429 11a8 2C       		.uleb128 0x2c
 5430 11a9 70636D00 		.ascii	"pcm\000"
 5431 11ad 01       		.byte	0x1
 5432 11ae 2002     		.2byte	0x220
 5433 11b0 F00A0000 		.4byte	0xaf0
 5434 11b4 D70C0000 		.4byte	.LLST90
 5435 11b8 2C       		.uleb128 0x2c
 5436 11b9 647400   		.ascii	"dt\000"
 5437 11bc 01       		.byte	0x1
 5438 11bd 2202     		.2byte	0x222
 5439 11bf EF000000 		.4byte	0xef
 5440 11c3 F50C0000 		.4byte	.LLST91
 5441 11c7 2C       		.uleb128 0x2c
 5442 11c8 737200   		.ascii	"sr\000"
 5443 11cb 01       		.byte	0x1
 5444 11cc 2302     		.2byte	0x223
 5445 11ce 1E010000 		.4byte	0x11e
 5446 11d2 090D0000 		.4byte	.LLST92
ARM GAS  C:\Users\rdn\AppData\Local\Temp\cckhx27q.s 			page 123


 5447 11d6 2C       		.uleb128 0x2c
 5448 11d7 787300   		.ascii	"xs\000"
 5449 11da 01       		.byte	0x1
 5450 11db 2502     		.2byte	0x225
 5451 11dd F00A0000 		.4byte	0xaf0
 5452 11e1 1D0D0000 		.4byte	.LLST93
 5453 11e5 2C       		.uleb128 0x2c
 5454 11e6 6E7300   		.ascii	"ns\000"
 5455 11e9 01       		.byte	0x1
 5456 11ea 2602     		.2byte	0x226
 5457 11ec 9F000000 		.4byte	0x9f
 5458 11f0 5F0D0000 		.4byte	.LLST94
 5459 11f4 2E       		.uleb128 0x2e
 5460 11f5 C9070000 		.4byte	0x7c9
 5461 11f9 02000000 		.4byte	.LBB152
 5462 11fd 30010000 		.4byte	.Ldebug_ranges0+0x130
 5463 1201 01       		.byte	0x1
 5464 1202 2602     		.2byte	0x226
 5465 1204 1B120000 		.4byte	0x121b
 5466 1208 27       		.uleb128 0x27
 5467 1209 E3070000 		.4byte	0x7e3
 5468 120d 720D0000 		.4byte	.LLST95
 5469 1211 27       		.uleb128 0x27
 5470 1212 D9070000 		.4byte	0x7d9
 5471 1216 860D0000 		.4byte	.LLST96
 5472 121a 00       		.byte	0
 5473 121b 29       		.uleb128 0x29
 5474 121c 50010000 		.4byte	.Ldebug_ranges0+0x150
 5475 1220 30       		.uleb128 0x30
 5476 1221 7300     		.ascii	"s\000"
 5477 1223 01       		.byte	0x1
 5478 1224 2902     		.2byte	0x229
 5479 1226 3E020000 		.4byte	0x23e
 5480 122a 01       		.uleb128 0x1
 5481 122b 50       		.byte	0x50
 5482 122c 31       		.uleb128 0x31
 5483 122d 55080000 		.4byte	0x855
 5484 1231 2A000000 		.4byte	.LBB159
 5485 1235 0A000000 		.4byte	.LBE159-.LBB159
 5486 1239 01       		.byte	0x1
 5487 123a 2902     		.2byte	0x229
 5488 123c 66120000 		.4byte	0x1266
 5489 1240 27       		.uleb128 0x27
 5490 1241 6F080000 		.4byte	0x86f
 5491 1245 9A0D0000 		.4byte	.LLST97
 5492 1249 27       		.uleb128 0x27
 5493 124a 65080000 		.4byte	0x865
 5494 124e AF0D0000 		.4byte	.LLST98
 5495 1252 24       		.uleb128 0x24
 5496 1253 2A000000 		.4byte	.LBB160
 5497 1257 0A000000 		.4byte	.LBE160-.LBB160
 5498 125b 28       		.uleb128 0x28
 5499 125c 95080000 		.4byte	0x895
 5500 1260 C20D0000 		.4byte	.LLST99
 5501 1264 00       		.byte	0
 5502 1265 00       		.byte	0
 5503 1266 32       		.uleb128 0x32
ARM GAS  C:\Users\rdn\AppData\Local\Temp\cckhx27q.s 			page 124


 5504 1267 38000000 		.4byte	.LVL96
 5505 126b 882F0000 		.4byte	0x2f88
 5506 126f 32       		.uleb128 0x32
 5507 1270 40000000 		.4byte	.LVL97
 5508 1274 942F0000 		.4byte	0x2f94
 5509 1278 00       		.byte	0
 5510 1279 00       		.byte	0
 5511 127a 33       		.uleb128 0x33
 5512 127b 09080000 		.4byte	0x809
 5513 127f 00000000 		.4byte	.LFB20
 5514 1283 34000000 		.4byte	.LFE20-.LFB20
 5515 1287 01       		.uleb128 0x1
 5516 1288 9C       		.byte	0x9c
 5517 1289 B6120000 		.4byte	0x12b6
 5518 128d 27       		.uleb128 0x27
 5519 128e 19080000 		.4byte	0x819
 5520 1292 D70D0000 		.4byte	.LLST100
 5521 1296 34       		.uleb128 0x34
 5522 1297 23080000 		.4byte	0x823
 5523 129b 01       		.uleb128 0x1
 5524 129c 51       		.byte	0x51
 5525 129d 29       		.uleb128 0x29
 5526 129e 68010000 		.4byte	.Ldebug_ranges0+0x168
 5527 12a2 27       		.uleb128 0x27
 5528 12a3 23080000 		.4byte	0x823
 5529 12a7 430E0000 		.4byte	.LLST101
 5530 12ab 27       		.uleb128 0x27
 5531 12ac 19080000 		.4byte	0x819
 5532 12b0 610E0000 		.4byte	.LLST102
 5533 12b4 00       		.byte	0
 5534 12b5 00       		.byte	0
 5535 12b6 33       		.uleb128 0x33
 5536 12b7 2F080000 		.4byte	0x82f
 5537 12bb 00000000 		.4byte	.LFB21
 5538 12bf 58000000 		.4byte	.LFE21-.LFB21
 5539 12c3 01       		.uleb128 0x1
 5540 12c4 9C       		.byte	0x9c
 5541 12c5 F4120000 		.4byte	0x12f4
 5542 12c9 27       		.uleb128 0x27
 5543 12ca 3F080000 		.4byte	0x83f
 5544 12ce 9B0E0000 		.4byte	.LLST103
 5545 12d2 27       		.uleb128 0x27
 5546 12d3 49080000 		.4byte	0x849
 5547 12d7 520F0000 		.4byte	.LLST104
 5548 12db 29       		.uleb128 0x29
 5549 12dc 80010000 		.4byte	.Ldebug_ranges0+0x180
 5550 12e0 27       		.uleb128 0x27
 5551 12e1 49080000 		.4byte	0x849
 5552 12e5 970F0000 		.4byte	.LLST105
 5553 12e9 27       		.uleb128 0x27
 5554 12ea 3F080000 		.4byte	0x83f
 5555 12ee B70F0000 		.4byte	.LLST106
 5556 12f2 00       		.byte	0
 5557 12f3 00       		.byte	0
 5558 12f4 35       		.uleb128 0x35
 5559 12f5 AF020000 		.4byte	.LASF161
 5560 12f9 01       		.byte	0x1
ARM GAS  C:\Users\rdn\AppData\Local\Temp\cckhx27q.s 			page 125


 5561 12fa 59       		.byte	0x59
 5562 12fb 9F000000 		.4byte	0x9f
 5563 12ff 00000000 		.4byte	.LFB22
 5564 1303 34000000 		.4byte	.LFE22-.LFB22
 5565 1307 01       		.uleb128 0x1
 5566 1308 9C       		.byte	0x9c
 5567 1309 A8130000 		.4byte	0x13a8
 5568 130d 1F       		.uleb128 0x1f
 5569 130e 74050000 		.4byte	.LASF136
 5570 1312 01       		.byte	0x1
 5571 1313 59       		.byte	0x59
 5572 1314 20020000 		.4byte	0x220
 5573 1318 F10F0000 		.4byte	.LLST107
 5574 131c 1F       		.uleb128 0x1f
 5575 131d D3030000 		.4byte	.LASF143
 5576 1321 01       		.byte	0x1
 5577 1322 59       		.byte	0x59
 5578 1323 9F000000 		.4byte	0x9f
 5579 1327 12100000 		.4byte	.LLST108
 5580 132b 1F       		.uleb128 0x1f
 5581 132c 45010000 		.4byte	.LASF144
 5582 1330 01       		.byte	0x1
 5583 1331 59       		.byte	0x59
 5584 1332 9F000000 		.4byte	0x9f
 5585 1336 3E100000 		.4byte	.LLST109
 5586 133a 21       		.uleb128 0x21
 5587 133b 647400   		.ascii	"dt\000"
 5588 133e 01       		.byte	0x1
 5589 133f 5B       		.byte	0x5b
 5590 1340 EF000000 		.4byte	0xef
 5591 1344 5F100000 		.4byte	.LLST110
 5592 1348 21       		.uleb128 0x21
 5593 1349 737200   		.ascii	"sr\000"
 5594 134c 01       		.byte	0x1
 5595 134d 5C       		.byte	0x5c
 5596 134e 1E010000 		.4byte	0x11e
 5597 1352 72100000 		.4byte	.LLST111
 5598 1356 36       		.uleb128 0x36
 5599 1357 C9070000 		.4byte	0x7c9
 5600 135b 1E000000 		.4byte	.LBB174
 5601 135f 0A000000 		.4byte	.LBE174-.LBB174
 5602 1363 01       		.byte	0x1
 5603 1364 61       		.byte	0x61
 5604 1365 7C130000 		.4byte	0x137c
 5605 1369 27       		.uleb128 0x27
 5606 136a E3070000 		.4byte	0x7e3
 5607 136e 90100000 		.4byte	.LLST112
 5608 1372 27       		.uleb128 0x27
 5609 1373 D9070000 		.4byte	0x7d9
 5610 1377 A3100000 		.4byte	.LLST113
 5611 137b 00       		.byte	0
 5612 137c 37       		.uleb128 0x37
 5613 137d 0C000000 		.4byte	.LVL129
 5614 1381 09080000 		.4byte	0x809
 5615 1385 97130000 		.4byte	0x1397
 5616 1389 38       		.uleb128 0x38
 5617 138a 01       		.uleb128 0x1
ARM GAS  C:\Users\rdn\AppData\Local\Temp\cckhx27q.s 			page 126


 5618 138b 50       		.byte	0x50
 5619 138c 03       		.uleb128 0x3
 5620 138d F3       		.byte	0xf3
 5621 138e 01       		.uleb128 0x1
 5622 138f 51       		.byte	0x51
 5623 1390 38       		.uleb128 0x38
 5624 1391 01       		.uleb128 0x1
 5625 1392 51       		.byte	0x51
 5626 1393 02       		.uleb128 0x2
 5627 1394 75       		.byte	0x75
 5628 1395 00       		.sleb128 0
 5629 1396 00       		.byte	0
 5630 1397 39       		.uleb128 0x39
 5631 1398 16000000 		.4byte	.LVL131
 5632 139c 2F080000 		.4byte	0x82f
 5633 13a0 38       		.uleb128 0x38
 5634 13a1 01       		.uleb128 0x1
 5635 13a2 51       		.byte	0x51
 5636 13a3 02       		.uleb128 0x2
 5637 13a4 75       		.byte	0x75
 5638 13a5 00       		.sleb128 0
 5639 13a6 00       		.byte	0
 5640 13a7 00       		.byte	0
 5641 13a8 35       		.uleb128 0x35
 5642 13a9 A8050000 		.4byte	.LASF162
 5643 13ad 01       		.byte	0x1
 5644 13ae 64       		.byte	0x64
 5645 13af 9F000000 		.4byte	0x9f
 5646 13b3 00000000 		.4byte	.LFB23
 5647 13b7 0A000000 		.4byte	.LFE23-.LFB23
 5648 13bb 01       		.uleb128 0x1
 5649 13bc 9C       		.byte	0x9c
 5650 13bd FD130000 		.4byte	0x13fd
 5651 13c1 1F       		.uleb128 0x1f
 5652 13c2 D3030000 		.4byte	.LASF143
 5653 13c6 01       		.byte	0x1
 5654 13c7 64       		.byte	0x64
 5655 13c8 9F000000 		.4byte	0x9f
 5656 13cc B6100000 		.4byte	.LLST114
 5657 13d0 1F       		.uleb128 0x1f
 5658 13d1 45010000 		.4byte	.LASF144
 5659 13d5 01       		.byte	0x1
 5660 13d6 64       		.byte	0x64
 5661 13d7 9F000000 		.4byte	0x9f
 5662 13db E2100000 		.4byte	.LLST115
 5663 13df 3A       		.uleb128 0x3a
 5664 13e0 0A000000 		.4byte	.LVL141
 5665 13e4 F4120000 		.4byte	0x12f4
 5666 13e8 38       		.uleb128 0x38
 5667 13e9 01       		.uleb128 0x1
 5668 13ea 50       		.byte	0x50
 5669 13eb 01       		.uleb128 0x1
 5670 13ec 30       		.byte	0x30
 5671 13ed 38       		.uleb128 0x38
 5672 13ee 01       		.uleb128 0x1
 5673 13ef 51       		.byte	0x51
 5674 13f0 03       		.uleb128 0x3
ARM GAS  C:\Users\rdn\AppData\Local\Temp\cckhx27q.s 			page 127


 5675 13f1 F3       		.byte	0xf3
 5676 13f2 01       		.uleb128 0x1
 5677 13f3 50       		.byte	0x50
 5678 13f4 38       		.uleb128 0x38
 5679 13f5 01       		.uleb128 0x1
 5680 13f6 52       		.byte	0x52
 5681 13f7 03       		.uleb128 0x3
 5682 13f8 F3       		.byte	0xf3
 5683 13f9 01       		.uleb128 0x1
 5684 13fa 51       		.byte	0x51
 5685 13fb 00       		.byte	0
 5686 13fc 00       		.byte	0
 5687 13fd 35       		.uleb128 0x35
 5688 13fe E8050000 		.4byte	.LASF163
 5689 1402 01       		.byte	0x1
 5690 1403 6C       		.byte	0x6c
 5691 1404 9F000000 		.4byte	0x9f
 5692 1408 00000000 		.4byte	.LFB24
 5693 140c F8000000 		.4byte	.LFE24-.LFB24
 5694 1410 01       		.uleb128 0x1
 5695 1411 9C       		.byte	0x9c
 5696 1412 6D150000 		.4byte	0x156d
 5697 1416 1F       		.uleb128 0x1f
 5698 1417 74050000 		.4byte	.LASF136
 5699 141b 01       		.byte	0x1
 5700 141c 6D       		.byte	0x6d
 5701 141d 20020000 		.4byte	0x220
 5702 1421 0E110000 		.4byte	.LLST116
 5703 1425 1F       		.uleb128 0x1f
 5704 1426 D3030000 		.4byte	.LASF143
 5705 142a 01       		.byte	0x1
 5706 142b 6D       		.byte	0x6d
 5707 142c 9F000000 		.4byte	0x9f
 5708 1430 2F110000 		.4byte	.LLST117
 5709 1434 1F       		.uleb128 0x1f
 5710 1435 45010000 		.4byte	.LASF144
 5711 1439 01       		.byte	0x1
 5712 143a 6D       		.byte	0x6d
 5713 143b 9F000000 		.4byte	0x9f
 5714 143f 5B110000 		.4byte	.LLST118
 5715 1443 1F       		.uleb128 0x1f
 5716 1444 08080000 		.4byte	.LASF164
 5717 1448 01       		.byte	0x1
 5718 1449 6D       		.byte	0x6d
 5719 144a 9F000000 		.4byte	0x9f
 5720 144e 7C110000 		.4byte	.LLST119
 5721 1452 1F       		.uleb128 0x1f
 5722 1453 0A020000 		.4byte	.LASF165
 5723 1457 01       		.byte	0x1
 5724 1458 6D       		.byte	0x6d
 5725 1459 9F000000 		.4byte	0x9f
 5726 145d A8110000 		.4byte	.LLST120
 5727 1461 18       		.uleb128 0x18
 5728 1462 647400   		.ascii	"dt\000"
 5729 1465 01       		.byte	0x1
 5730 1466 6F       		.byte	0x6f
 5731 1467 EF000000 		.4byte	0xef
ARM GAS  C:\Users\rdn\AppData\Local\Temp\cckhx27q.s 			page 128


 5732 146b 21       		.uleb128 0x21
 5733 146c 737200   		.ascii	"sr\000"
 5734 146f 01       		.byte	0x1
 5735 1470 70       		.byte	0x70
 5736 1471 1E010000 		.4byte	0x11e
 5737 1475 0F120000 		.4byte	.LLST121
 5738 1479 36       		.uleb128 0x36
 5739 147a DF080000 		.4byte	0x8df
 5740 147e 38000000 		.4byte	.LBB176
 5741 1482 14000000 		.4byte	.LBE176-.LBB176
 5742 1486 01       		.byte	0x1
 5743 1487 78       		.byte	0x78
 5744 1488 97140000 		.4byte	0x1497
 5745 148c 23       		.uleb128 0x23
 5746 148d F9080000 		.4byte	0x8f9
 5747 1491 23       		.uleb128 0x23
 5748 1492 EF080000 		.4byte	0x8ef
 5749 1496 00       		.byte	0
 5750 1497 36       		.uleb128 0x36
 5751 1498 DF080000 		.4byte	0x8df
 5752 149c 5E000000 		.4byte	.LBB178
 5753 14a0 14000000 		.4byte	.LBE178-.LBB178
 5754 14a4 01       		.byte	0x1
 5755 14a5 78       		.byte	0x78
 5756 14a6 B9140000 		.4byte	0x14b9
 5757 14aa 27       		.uleb128 0x27
 5758 14ab F9080000 		.4byte	0x8f9
 5759 14af 38120000 		.4byte	.LLST122
 5760 14b3 23       		.uleb128 0x23
 5761 14b4 EF080000 		.4byte	0x8ef
 5762 14b8 00       		.byte	0
 5763 14b9 36       		.uleb128 0x36
 5764 14ba 04090000 		.4byte	0x904
 5765 14be 78000000 		.4byte	.LBB180
 5766 14c2 18000000 		.4byte	.LBE180-.LBB180
 5767 14c6 01       		.byte	0x1
 5768 14c7 78       		.byte	0x78
 5769 14c8 DB140000 		.4byte	0x14db
 5770 14cc 27       		.uleb128 0x27
 5771 14cd 1E090000 		.4byte	0x91e
 5772 14d1 4B120000 		.4byte	.LLST123
 5773 14d5 23       		.uleb128 0x23
 5774 14d6 14090000 		.4byte	0x914
 5775 14da 00       		.byte	0
 5776 14db 36       		.uleb128 0x36
 5777 14dc DF080000 		.4byte	0x8df
 5778 14e0 96000000 		.4byte	.LBB182
 5779 14e4 14000000 		.4byte	.LBE182-.LBB182
 5780 14e8 01       		.byte	0x1
 5781 14e9 78       		.byte	0x78
 5782 14ea FD140000 		.4byte	0x14fd
 5783 14ee 27       		.uleb128 0x27
 5784 14ef F9080000 		.4byte	0x8f9
 5785 14f3 5E120000 		.4byte	.LLST124
 5786 14f7 23       		.uleb128 0x23
 5787 14f8 EF080000 		.4byte	0x8ef
 5788 14fc 00       		.byte	0
ARM GAS  C:\Users\rdn\AppData\Local\Temp\cckhx27q.s 			page 129


 5789 14fd 36       		.uleb128 0x36
 5790 14fe DF080000 		.4byte	0x8df
 5791 1502 B0000000 		.4byte	.LBB184
 5792 1506 16000000 		.4byte	.LBE184-.LBB184
 5793 150a 01       		.byte	0x1
 5794 150b 78       		.byte	0x78
 5795 150c 1F150000 		.4byte	0x151f
 5796 1510 27       		.uleb128 0x27
 5797 1511 F9080000 		.4byte	0x8f9
 5798 1515 71120000 		.4byte	.LLST125
 5799 1519 23       		.uleb128 0x23
 5800 151a EF080000 		.4byte	0x8ef
 5801 151e 00       		.byte	0
 5802 151f 36       		.uleb128 0x36
 5803 1520 04090000 		.4byte	0x904
 5804 1524 C6000000 		.4byte	.LBB186
 5805 1528 18000000 		.4byte	.LBE186-.LBB186
 5806 152c 01       		.byte	0x1
 5807 152d 78       		.byte	0x78
 5808 152e 41150000 		.4byte	0x1541
 5809 1532 27       		.uleb128 0x27
 5810 1533 1E090000 		.4byte	0x91e
 5811 1537 84120000 		.4byte	.LLST126
 5812 153b 23       		.uleb128 0x23
 5813 153c 14090000 		.4byte	0x914
 5814 1540 00       		.byte	0
 5815 1541 37       		.uleb128 0x37
 5816 1542 0E000000 		.4byte	.LVL145
 5817 1546 09080000 		.4byte	0x809
 5818 154a 5C150000 		.4byte	0x155c
 5819 154e 38       		.uleb128 0x38
 5820 154f 01       		.uleb128 0x1
 5821 1550 50       		.byte	0x50
 5822 1551 03       		.uleb128 0x3
 5823 1552 F3       		.byte	0xf3
 5824 1553 01       		.uleb128 0x1
 5825 1554 51       		.byte	0x51
 5826 1555 38       		.uleb128 0x38
 5827 1556 01       		.uleb128 0x1
 5828 1557 51       		.byte	0x51
 5829 1558 02       		.uleb128 0x2
 5830 1559 77       		.byte	0x77
 5831 155a 00       		.sleb128 0
 5832 155b 00       		.byte	0
 5833 155c 39       		.uleb128 0x39
 5834 155d 18000000 		.4byte	.LVL147
 5835 1561 2F080000 		.4byte	0x82f
 5836 1565 38       		.uleb128 0x38
 5837 1566 01       		.uleb128 0x1
 5838 1567 51       		.byte	0x51
 5839 1568 02       		.uleb128 0x2
 5840 1569 77       		.byte	0x77
 5841 156a 00       		.sleb128 0
 5842 156b 00       		.byte	0
 5843 156c 00       		.byte	0
 5844 156d 35       		.uleb128 0x35
 5845 156e 8C090000 		.4byte	.LASF166
ARM GAS  C:\Users\rdn\AppData\Local\Temp\cckhx27q.s 			page 130


 5846 1572 01       		.byte	0x1
 5847 1573 7D       		.byte	0x7d
 5848 1574 9F000000 		.4byte	0x9f
 5849 1578 00000000 		.4byte	.LFB25
 5850 157c 18000000 		.4byte	.LFE25-.LFB25
 5851 1580 01       		.uleb128 0x1
 5852 1581 9C       		.byte	0x9c
 5853 1582 E0150000 		.4byte	0x15e0
 5854 1586 1F       		.uleb128 0x1f
 5855 1587 D3030000 		.4byte	.LASF143
 5856 158b 01       		.byte	0x1
 5857 158c 7D       		.byte	0x7d
 5858 158d 9F000000 		.4byte	0x9f
 5859 1591 97120000 		.4byte	.LLST127
 5860 1595 1F       		.uleb128 0x1f
 5861 1596 08080000 		.4byte	.LASF164
 5862 159a 01       		.byte	0x1
 5863 159b 7D       		.byte	0x7d
 5864 159c 9F000000 		.4byte	0x9f
 5865 15a0 C3120000 		.4byte	.LLST128
 5866 15a4 1F       		.uleb128 0x1f
 5867 15a5 0A020000 		.4byte	.LASF165
 5868 15a9 01       		.byte	0x1
 5869 15aa 7D       		.byte	0x7d
 5870 15ab 9F000000 		.4byte	0x9f
 5871 15af EF120000 		.4byte	.LLST129
 5872 15b3 39       		.uleb128 0x39
 5873 15b4 12000000 		.4byte	.LVL168
 5874 15b8 FD130000 		.4byte	0x13fd
 5875 15bc 38       		.uleb128 0x38
 5876 15bd 01       		.uleb128 0x1
 5877 15be 50       		.byte	0x50
 5878 15bf 01       		.uleb128 0x1
 5879 15c0 30       		.byte	0x30
 5880 15c1 38       		.uleb128 0x38
 5881 15c2 01       		.uleb128 0x1
 5882 15c3 51       		.byte	0x51
 5883 15c4 03       		.uleb128 0x3
 5884 15c5 F3       		.byte	0xf3
 5885 15c6 01       		.uleb128 0x1
 5886 15c7 50       		.byte	0x50
 5887 15c8 38       		.uleb128 0x38
 5888 15c9 01       		.uleb128 0x1
 5889 15ca 52       		.byte	0x52
 5890 15cb 03       		.uleb128 0x3
 5891 15cc 0A       		.byte	0xa
 5892 15cd 401F     		.2byte	0x1f40
 5893 15cf 38       		.uleb128 0x38
 5894 15d0 01       		.uleb128 0x1
 5895 15d1 53       		.byte	0x53
 5896 15d2 03       		.uleb128 0x3
 5897 15d3 F3       		.byte	0xf3
 5898 15d4 01       		.uleb128 0x1
 5899 15d5 51       		.byte	0x51
 5900 15d6 38       		.uleb128 0x38
 5901 15d7 02       		.uleb128 0x2
 5902 15d8 7D       		.byte	0x7d
ARM GAS  C:\Users\rdn\AppData\Local\Temp\cckhx27q.s 			page 131


 5903 15d9 00       		.sleb128 0
 5904 15da 03       		.uleb128 0x3
 5905 15db F3       		.byte	0xf3
 5906 15dc 01       		.uleb128 0x1
 5907 15dd 52       		.byte	0x52
 5908 15de 00       		.byte	0
 5909 15df 00       		.byte	0
 5910 15e0 35       		.uleb128 0x35
 5911 15e1 C4060000 		.4byte	.LASF167
 5912 15e5 01       		.byte	0x1
 5913 15e6 82       		.byte	0x82
 5914 15e7 9F000000 		.4byte	0x9f
 5915 15eb 00000000 		.4byte	.LFB26
 5916 15ef 10000000 		.4byte	.LFE26-.LFB26
 5917 15f3 01       		.uleb128 0x1
 5918 15f4 9C       		.byte	0x9c
 5919 15f5 5B160000 		.4byte	0x165b
 5920 15f9 1F       		.uleb128 0x1f
 5921 15fa 74050000 		.4byte	.LASF136
 5922 15fe 01       		.byte	0x1
 5923 15ff 83       		.byte	0x83
 5924 1600 20020000 		.4byte	0x220
 5925 1604 1C130000 		.4byte	.LLST130
 5926 1608 1F       		.uleb128 0x1f
 5927 1609 D3030000 		.4byte	.LASF143
 5928 160d 01       		.byte	0x1
 5929 160e 83       		.byte	0x83
 5930 160f 9F000000 		.4byte	0x9f
 5931 1613 3D130000 		.4byte	.LLST131
 5932 1617 1F       		.uleb128 0x1f
 5933 1618 45010000 		.4byte	.LASF144
 5934 161c 01       		.byte	0x1
 5935 161d 83       		.byte	0x83
 5936 161e 9F000000 		.4byte	0x9f
 5937 1622 5E130000 		.4byte	.LLST132
 5938 1626 1F       		.uleb128 0x1f
 5939 1627 0A020000 		.4byte	.LASF165
 5940 162b 01       		.byte	0x1
 5941 162c 83       		.byte	0x83
 5942 162d 9F000000 		.4byte	0x9f
 5943 1631 7F130000 		.4byte	.LLST133
 5944 1635 39       		.uleb128 0x39
 5945 1636 0A000000 		.4byte	.LVL171
 5946 163a FD130000 		.4byte	0x13fd
 5947 163e 38       		.uleb128 0x38
 5948 163f 01       		.uleb128 0x1
 5949 1640 51       		.byte	0x51
 5950 1641 03       		.uleb128 0x3
 5951 1642 F3       		.byte	0xf3
 5952 1643 01       		.uleb128 0x1
 5953 1644 51       		.byte	0x51
 5954 1645 38       		.uleb128 0x38
 5955 1646 01       		.uleb128 0x1
 5956 1647 52       		.byte	0x52
 5957 1648 03       		.uleb128 0x3
 5958 1649 F3       		.byte	0xf3
 5959 164a 01       		.uleb128 0x1
ARM GAS  C:\Users\rdn\AppData\Local\Temp\cckhx27q.s 			page 132


 5960 164b 52       		.byte	0x52
 5961 164c 38       		.uleb128 0x38
 5962 164d 01       		.uleb128 0x1
 5963 164e 53       		.byte	0x53
 5964 164f 01       		.uleb128 0x1
 5965 1650 31       		.byte	0x31
 5966 1651 38       		.uleb128 0x38
 5967 1652 02       		.uleb128 0x2
 5968 1653 7D       		.byte	0x7d
 5969 1654 00       		.sleb128 0
 5970 1655 03       		.uleb128 0x3
 5971 1656 F3       		.byte	0xf3
 5972 1657 01       		.uleb128 0x1
 5973 1658 53       		.byte	0x53
 5974 1659 00       		.byte	0
 5975 165a 00       		.byte	0
 5976 165b 35       		.uleb128 0x35
 5977 165c 96040000 		.4byte	.LASF168
 5978 1660 01       		.byte	0x1
 5979 1661 88       		.byte	0x88
 5980 1662 9F000000 		.4byte	0x9f
 5981 1666 00000000 		.4byte	.LFB27
 5982 166a 0E000000 		.4byte	.LFE27-.LFB27
 5983 166e 01       		.uleb128 0x1
 5984 166f 9C       		.byte	0x9c
 5985 1670 B7160000 		.4byte	0x16b7
 5986 1674 1F       		.uleb128 0x1f
 5987 1675 D3030000 		.4byte	.LASF143
 5988 1679 01       		.byte	0x1
 5989 167a 88       		.byte	0x88
 5990 167b 9F000000 		.4byte	0x9f
 5991 167f AC130000 		.4byte	.LLST134
 5992 1683 1F       		.uleb128 0x1f
 5993 1684 0A020000 		.4byte	.LASF165
 5994 1688 01       		.byte	0x1
 5995 1689 88       		.byte	0x88
 5996 168a 9F000000 		.4byte	0x9f
 5997 168e D8130000 		.4byte	.LLST135
 5998 1692 3A       		.uleb128 0x3a
 5999 1693 0E000000 		.4byte	.LVL175
 6000 1697 E0150000 		.4byte	0x15e0
 6001 169b 38       		.uleb128 0x38
 6002 169c 01       		.uleb128 0x1
 6003 169d 50       		.byte	0x50
 6004 169e 01       		.uleb128 0x1
 6005 169f 30       		.byte	0x30
 6006 16a0 38       		.uleb128 0x38
 6007 16a1 01       		.uleb128 0x1
 6008 16a2 51       		.byte	0x51
 6009 16a3 03       		.uleb128 0x3
 6010 16a4 F3       		.byte	0xf3
 6011 16a5 01       		.uleb128 0x1
 6012 16a6 50       		.byte	0x50
 6013 16a7 38       		.uleb128 0x38
 6014 16a8 01       		.uleb128 0x1
 6015 16a9 52       		.byte	0x52
 6016 16aa 03       		.uleb128 0x3
ARM GAS  C:\Users\rdn\AppData\Local\Temp\cckhx27q.s 			page 133


 6017 16ab 0A       		.byte	0xa
 6018 16ac 401F     		.2byte	0x1f40
 6019 16ae 38       		.uleb128 0x38
 6020 16af 01       		.uleb128 0x1
 6021 16b0 53       		.byte	0x53
 6022 16b1 03       		.uleb128 0x3
 6023 16b2 F3       		.byte	0xf3
 6024 16b3 01       		.uleb128 0x1
 6025 16b4 51       		.byte	0x51
 6026 16b5 00       		.byte	0
 6027 16b6 00       		.byte	0
 6028 16b7 3B       		.uleb128 0x3b
 6029 16b8 22060000 		.4byte	.LASF169
 6030 16bc 01       		.byte	0x1
 6031 16bd 90       		.byte	0x90
 6032 16be 9F000000 		.4byte	0x9f
 6033 16c2 00000000 		.4byte	.LFB28
 6034 16c6 50000000 		.4byte	.LFE28-.LFB28
 6035 16ca 01       		.uleb128 0x1
 6036 16cb 9C       		.byte	0x9c
 6037 16cc 54170000 		.4byte	0x1754
 6038 16d0 1F       		.uleb128 0x1f
 6039 16d1 74050000 		.4byte	.LASF136
 6040 16d5 01       		.byte	0x1
 6041 16d6 91       		.byte	0x91
 6042 16d7 20020000 		.4byte	0x220
 6043 16db 04140000 		.4byte	.LLST136
 6044 16df 1F       		.uleb128 0x1f
 6045 16e0 D3030000 		.4byte	.LASF143
 6046 16e4 01       		.byte	0x1
 6047 16e5 91       		.byte	0x91
 6048 16e6 9F000000 		.4byte	0x9f
 6049 16ea 25140000 		.4byte	.LLST137
 6050 16ee 1F       		.uleb128 0x1f
 6051 16ef 45010000 		.4byte	.LASF144
 6052 16f3 01       		.byte	0x1
 6053 16f4 91       		.byte	0x91
 6054 16f5 9F000000 		.4byte	0x9f
 6055 16f9 51140000 		.4byte	.LLST138
 6056 16fd 1F       		.uleb128 0x1f
 6057 16fe 80020000 		.4byte	.LASF170
 6058 1702 01       		.byte	0x1
 6059 1703 91       		.byte	0x91
 6060 1704 9F000000 		.4byte	0x9f
 6061 1708 72140000 		.4byte	.LLST139
 6062 170c 21       		.uleb128 0x21
 6063 170d 647400   		.ascii	"dt\000"
 6064 1710 01       		.byte	0x1
 6065 1711 93       		.byte	0x93
 6066 1712 EF000000 		.4byte	0xef
 6067 1716 90140000 		.4byte	.LLST140
 6068 171a 21       		.uleb128 0x21
 6069 171b 737200   		.ascii	"sr\000"
 6070 171e 01       		.byte	0x1
 6071 171f 94       		.byte	0x94
 6072 1720 1E010000 		.4byte	0x11e
 6073 1724 AE140000 		.4byte	.LLST141
ARM GAS  C:\Users\rdn\AppData\Local\Temp\cckhx27q.s 			page 134


 6074 1728 37       		.uleb128 0x37
 6075 1729 0E000000 		.4byte	.LVL179
 6076 172d 09080000 		.4byte	0x809
 6077 1731 43170000 		.4byte	0x1743
 6078 1735 38       		.uleb128 0x38
 6079 1736 01       		.uleb128 0x1
 6080 1737 50       		.byte	0x50
 6081 1738 03       		.uleb128 0x3
 6082 1739 F3       		.byte	0xf3
 6083 173a 01       		.uleb128 0x1
 6084 173b 51       		.byte	0x51
 6085 173c 38       		.uleb128 0x38
 6086 173d 01       		.uleb128 0x1
 6087 173e 51       		.byte	0x51
 6088 173f 02       		.uleb128 0x2
 6089 1740 76       		.byte	0x76
 6090 1741 00       		.sleb128 0
 6091 1742 00       		.byte	0
 6092 1743 39       		.uleb128 0x39
 6093 1744 18000000 		.4byte	.LVL181
 6094 1748 2F080000 		.4byte	0x82f
 6095 174c 38       		.uleb128 0x38
 6096 174d 01       		.uleb128 0x1
 6097 174e 51       		.byte	0x51
 6098 174f 02       		.uleb128 0x2
 6099 1750 76       		.byte	0x76
 6100 1751 00       		.sleb128 0
 6101 1752 00       		.byte	0
 6102 1753 00       		.byte	0
 6103 1754 35       		.uleb128 0x35
 6104 1755 ED020000 		.4byte	.LASF171
 6105 1759 01       		.byte	0x1
 6106 175a 9C       		.byte	0x9c
 6107 175b 9F000000 		.4byte	0x9f
 6108 175f 00000000 		.4byte	.LFB29
 6109 1763 0E000000 		.4byte	.LFE29-.LFB29
 6110 1767 01       		.uleb128 0x1
 6111 1768 9C       		.byte	0x9c
 6112 1769 B0170000 		.4byte	0x17b0
 6113 176d 1F       		.uleb128 0x1f
 6114 176e D3030000 		.4byte	.LASF143
 6115 1772 01       		.byte	0x1
 6116 1773 9C       		.byte	0x9c
 6117 1774 9F000000 		.4byte	0x9f
 6118 1778 CC140000 		.4byte	.LLST142
 6119 177c 1F       		.uleb128 0x1f
 6120 177d 80020000 		.4byte	.LASF170
 6121 1781 01       		.byte	0x1
 6122 1782 9C       		.byte	0x9c
 6123 1783 9F000000 		.4byte	0x9f
 6124 1787 F8140000 		.4byte	.LLST143
 6125 178b 3A       		.uleb128 0x3a
 6126 178c 0E000000 		.4byte	.LVL190
 6127 1790 B7160000 		.4byte	0x16b7
 6128 1794 38       		.uleb128 0x38
 6129 1795 01       		.uleb128 0x1
 6130 1796 50       		.byte	0x50
ARM GAS  C:\Users\rdn\AppData\Local\Temp\cckhx27q.s 			page 135


 6131 1797 01       		.uleb128 0x1
 6132 1798 30       		.byte	0x30
 6133 1799 38       		.uleb128 0x38
 6134 179a 01       		.uleb128 0x1
 6135 179b 51       		.byte	0x51
 6136 179c 03       		.uleb128 0x3
 6137 179d F3       		.byte	0xf3
 6138 179e 01       		.uleb128 0x1
 6139 179f 50       		.byte	0x50
 6140 17a0 38       		.uleb128 0x38
 6141 17a1 01       		.uleb128 0x1
 6142 17a2 52       		.byte	0x52
 6143 17a3 03       		.uleb128 0x3
 6144 17a4 0A       		.byte	0xa
 6145 17a5 401F     		.2byte	0x1f40
 6146 17a7 38       		.uleb128 0x38
 6147 17a8 01       		.uleb128 0x1
 6148 17a9 53       		.byte	0x53
 6149 17aa 03       		.uleb128 0x3
 6150 17ab F3       		.byte	0xf3
 6151 17ac 01       		.uleb128 0x1
 6152 17ad 51       		.byte	0x51
 6153 17ae 00       		.byte	0
 6154 17af 00       		.byte	0
 6155 17b0 13       		.uleb128 0x13
 6156 17b1 14000000 		.4byte	.LASF172
 6157 17b5 02       		.byte	0x2
 6158 17b6 36       		.byte	0x36
 6159 17b7 9F000000 		.4byte	0x9f
 6160 17bb 03       		.byte	0x3
 6161 17bc D5170000 		.4byte	0x17d5
 6162 17c0 14       		.uleb128 0x14
 6163 17c1 647400   		.ascii	"dt\000"
 6164 17c4 02       		.byte	0x2
 6165 17c5 36       		.byte	0x36
 6166 17c6 EF000000 		.4byte	0xef
 6167 17ca 14       		.uleb128 0x14
 6168 17cb 737200   		.ascii	"sr\000"
 6169 17ce 02       		.byte	0x2
 6170 17cf 36       		.byte	0x36
 6171 17d0 1E010000 		.4byte	0x11e
 6172 17d4 00       		.byte	0
 6173 17d5 35       		.uleb128 0x35
 6174 17d6 B5090000 		.4byte	.LASF173
 6175 17da 01       		.byte	0x1
 6176 17db A4       		.byte	0xa4
 6177 17dc 9F000000 		.4byte	0x9f
 6178 17e0 00000000 		.4byte	.LFB30
 6179 17e4 4C000000 		.4byte	.LFE30-.LFB30
 6180 17e8 01       		.uleb128 0x1
 6181 17e9 9C       		.byte	0x9c
 6182 17ea AB180000 		.4byte	0x18ab
 6183 17ee 1F       		.uleb128 0x1f
 6184 17ef 74050000 		.4byte	.LASF136
 6185 17f3 01       		.byte	0x1
 6186 17f4 A4       		.byte	0xa4
 6187 17f5 20020000 		.4byte	0x220
ARM GAS  C:\Users\rdn\AppData\Local\Temp\cckhx27q.s 			page 136


 6188 17f9 24150000 		.4byte	.LLST144
 6189 17fd 1F       		.uleb128 0x1f
 6190 17fe D3030000 		.4byte	.LASF143
 6191 1802 01       		.byte	0x1
 6192 1803 A4       		.byte	0xa4
 6193 1804 9F000000 		.4byte	0x9f
 6194 1808 45150000 		.4byte	.LLST145
 6195 180c 1F       		.uleb128 0x1f
 6196 180d 45010000 		.4byte	.LASF144
 6197 1811 01       		.byte	0x1
 6198 1812 A4       		.byte	0xa4
 6199 1813 9F000000 		.4byte	0x9f
 6200 1817 71150000 		.4byte	.LLST146
 6201 181b 21       		.uleb128 0x21
 6202 181c 647400   		.ascii	"dt\000"
 6203 181f 01       		.byte	0x1
 6204 1820 A6       		.byte	0xa6
 6205 1821 EF000000 		.4byte	0xef
 6206 1825 92150000 		.4byte	.LLST147
 6207 1829 21       		.uleb128 0x21
 6208 182a 737200   		.ascii	"sr\000"
 6209 182d 01       		.byte	0x1
 6210 182e A7       		.byte	0xa7
 6211 182f 1E010000 		.4byte	0x11e
 6212 1833 A5150000 		.4byte	.LLST148
 6213 1837 36       		.uleb128 0x36
 6214 1838 B0170000 		.4byte	0x17b0
 6215 183c 1E000000 		.4byte	.LBB194
 6216 1840 14000000 		.4byte	.LBE194-.LBB194
 6217 1844 01       		.byte	0x1
 6218 1845 AC       		.byte	0xac
 6219 1846 7F180000 		.4byte	0x187f
 6220 184a 27       		.uleb128 0x27
 6221 184b CA170000 		.4byte	0x17ca
 6222 184f C3150000 		.4byte	.LLST149
 6223 1853 27       		.uleb128 0x27
 6224 1854 C0170000 		.4byte	0x17c0
 6225 1858 D6150000 		.4byte	.LLST150
 6226 185c 3C       		.uleb128 0x3c
 6227 185d C9070000 		.4byte	0x7c9
 6228 1861 1E000000 		.4byte	.LBB196
 6229 1865 98010000 		.4byte	.Ldebug_ranges0+0x198
 6230 1869 02       		.byte	0x2
 6231 186a 37       		.byte	0x37
 6232 186b 27       		.uleb128 0x27
 6233 186c E3070000 		.4byte	0x7e3
 6234 1870 E9150000 		.4byte	.LLST151
 6235 1874 27       		.uleb128 0x27
 6236 1875 D9070000 		.4byte	0x7d9
 6237 1879 FC150000 		.4byte	.LLST152
 6238 187d 00       		.byte	0
 6239 187e 00       		.byte	0
 6240 187f 37       		.uleb128 0x37
 6241 1880 0C000000 		.4byte	.LVL194
 6242 1884 09080000 		.4byte	0x809
 6243 1888 9A180000 		.4byte	0x189a
 6244 188c 38       		.uleb128 0x38
ARM GAS  C:\Users\rdn\AppData\Local\Temp\cckhx27q.s 			page 137


 6245 188d 01       		.uleb128 0x1
 6246 188e 50       		.byte	0x50
 6247 188f 03       		.uleb128 0x3
 6248 1890 F3       		.byte	0xf3
 6249 1891 01       		.uleb128 0x1
 6250 1892 51       		.byte	0x51
 6251 1893 38       		.uleb128 0x38
 6252 1894 01       		.uleb128 0x1
 6253 1895 51       		.byte	0x51
 6254 1896 02       		.uleb128 0x2
 6255 1897 75       		.byte	0x75
 6256 1898 00       		.sleb128 0
 6257 1899 00       		.byte	0
 6258 189a 39       		.uleb128 0x39
 6259 189b 16000000 		.4byte	.LVL196
 6260 189f 2F080000 		.4byte	0x82f
 6261 18a3 38       		.uleb128 0x38
 6262 18a4 01       		.uleb128 0x1
 6263 18a5 51       		.byte	0x51
 6264 18a6 02       		.uleb128 0x2
 6265 18a7 75       		.byte	0x75
 6266 18a8 00       		.sleb128 0
 6267 18a9 00       		.byte	0
 6268 18aa 00       		.byte	0
 6269 18ab 35       		.uleb128 0x35
 6270 18ac 140B0000 		.4byte	.LASF174
 6271 18b0 01       		.byte	0x1
 6272 18b1 AF       		.byte	0xaf
 6273 18b2 9F000000 		.4byte	0x9f
 6274 18b6 00000000 		.4byte	.LFB31
 6275 18ba 0A000000 		.4byte	.LFE31-.LFB31
 6276 18be 01       		.uleb128 0x1
 6277 18bf 9C       		.byte	0x9c
 6278 18c0 00190000 		.4byte	0x1900
 6279 18c4 1F       		.uleb128 0x1f
 6280 18c5 D3030000 		.4byte	.LASF143
 6281 18c9 01       		.byte	0x1
 6282 18ca AF       		.byte	0xaf
 6283 18cb 9F000000 		.4byte	0x9f
 6284 18cf 0F160000 		.4byte	.LLST153
 6285 18d3 1F       		.uleb128 0x1f
 6286 18d4 45010000 		.4byte	.LASF144
 6287 18d8 01       		.byte	0x1
 6288 18d9 AF       		.byte	0xaf
 6289 18da 9F000000 		.4byte	0x9f
 6290 18de 3B160000 		.4byte	.LLST154
 6291 18e2 3A       		.uleb128 0x3a
 6292 18e3 0A000000 		.4byte	.LVL207
 6293 18e7 D5170000 		.4byte	0x17d5
 6294 18eb 38       		.uleb128 0x38
 6295 18ec 01       		.uleb128 0x1
 6296 18ed 50       		.byte	0x50
 6297 18ee 01       		.uleb128 0x1
 6298 18ef 30       		.byte	0x30
 6299 18f0 38       		.uleb128 0x38
 6300 18f1 01       		.uleb128 0x1
 6301 18f2 51       		.byte	0x51
ARM GAS  C:\Users\rdn\AppData\Local\Temp\cckhx27q.s 			page 138


 6302 18f3 03       		.uleb128 0x3
 6303 18f4 F3       		.byte	0xf3
 6304 18f5 01       		.uleb128 0x1
 6305 18f6 50       		.byte	0x50
 6306 18f7 38       		.uleb128 0x38
 6307 18f8 01       		.uleb128 0x1
 6308 18f9 52       		.byte	0x52
 6309 18fa 03       		.uleb128 0x3
 6310 18fb F3       		.byte	0xf3
 6311 18fc 01       		.uleb128 0x1
 6312 18fd 51       		.byte	0x51
 6313 18fe 00       		.byte	0
 6314 18ff 00       		.byte	0
 6315 1900 33       		.uleb128 0x33
 6316 1901 29090000 		.4byte	0x929
 6317 1905 00000000 		.4byte	.LFB38
 6318 1909 70000000 		.4byte	.LFE38-.LFB38
 6319 190d 01       		.uleb128 0x1
 6320 190e 9C       		.byte	0x9c
 6321 190f 82190000 		.4byte	0x1982
 6322 1913 27       		.uleb128 0x27
 6323 1914 3A090000 		.4byte	0x93a
 6324 1918 67160000 		.4byte	.LLST155
 6325 191c 27       		.uleb128 0x27
 6326 191d 46090000 		.4byte	0x946
 6327 1921 88160000 		.4byte	.LLST156
 6328 1925 27       		.uleb128 0x27
 6329 1926 52090000 		.4byte	0x952
 6330 192a B4160000 		.4byte	.LLST157
 6331 192e 3D       		.uleb128 0x3d
 6332 192f 1E000000 		.4byte	.LBB202
 6333 1933 44000000 		.4byte	.LBE202-.LBB202
 6334 1937 57190000 		.4byte	0x1957
 6335 193b 27       		.uleb128 0x27
 6336 193c 3A090000 		.4byte	0x93a
 6337 1940 D5160000 		.4byte	.LLST158
 6338 1944 27       		.uleb128 0x27
 6339 1945 52090000 		.4byte	0x952
 6340 1949 E8160000 		.4byte	.LLST159
 6341 194d 27       		.uleb128 0x27
 6342 194e 46090000 		.4byte	0x946
 6343 1952 FB160000 		.4byte	.LLST160
 6344 1956 00       		.byte	0
 6345 1957 37       		.uleb128 0x37
 6346 1958 0E000000 		.4byte	.LVL211
 6347 195c 09080000 		.4byte	0x809
 6348 1960 71190000 		.4byte	0x1971
 6349 1964 38       		.uleb128 0x38
 6350 1965 01       		.uleb128 0x1
 6351 1966 50       		.byte	0x50
 6352 1967 02       		.uleb128 0x2
 6353 1968 74       		.byte	0x74
 6354 1969 00       		.sleb128 0
 6355 196a 38       		.uleb128 0x38
 6356 196b 01       		.uleb128 0x1
 6357 196c 51       		.byte	0x51
 6358 196d 02       		.uleb128 0x2
ARM GAS  C:\Users\rdn\AppData\Local\Temp\cckhx27q.s 			page 139


 6359 196e 75       		.byte	0x75
 6360 196f 00       		.sleb128 0
 6361 1970 00       		.byte	0
 6362 1971 39       		.uleb128 0x39
 6363 1972 1A000000 		.4byte	.LVL212
 6364 1976 2F080000 		.4byte	0x82f
 6365 197a 38       		.uleb128 0x38
 6366 197b 01       		.uleb128 0x1
 6367 197c 51       		.byte	0x51
 6368 197d 02       		.uleb128 0x2
 6369 197e 75       		.byte	0x75
 6370 197f 00       		.sleb128 0
 6371 1980 00       		.byte	0
 6372 1981 00       		.byte	0
 6373 1982 3E       		.uleb128 0x3e
 6374 1983 61020000 		.4byte	.LASF175
 6375 1987 01       		.byte	0x1
 6376 1988 7D01     		.2byte	0x17d
 6377 198a A6000000 		.4byte	0xa6
 6378 198e 00000000 		.4byte	.LFB39
 6379 1992 0A000000 		.4byte	.LFE39-.LFB39
 6380 1996 01       		.uleb128 0x1
 6381 1997 9C       		.byte	0x9c
 6382 1998 DA190000 		.4byte	0x19da
 6383 199c 2B       		.uleb128 0x2b
 6384 199d D3030000 		.4byte	.LASF143
 6385 19a1 01       		.byte	0x1
 6386 19a2 7D01     		.2byte	0x17d
 6387 19a4 9F000000 		.4byte	0x9f
 6388 19a8 0E170000 		.4byte	.LLST161
 6389 19ac 2B       		.uleb128 0x2b
 6390 19ad 45010000 		.4byte	.LASF144
 6391 19b1 01       		.byte	0x1
 6392 19b2 7D01     		.2byte	0x17d
 6393 19b4 9F000000 		.4byte	0x9f
 6394 19b8 3A170000 		.4byte	.LLST162
 6395 19bc 3A       		.uleb128 0x3a
 6396 19bd 0A000000 		.4byte	.LVL222
 6397 19c1 29090000 		.4byte	0x929
 6398 19c5 38       		.uleb128 0x38
 6399 19c6 01       		.uleb128 0x1
 6400 19c7 50       		.byte	0x50
 6401 19c8 01       		.uleb128 0x1
 6402 19c9 30       		.byte	0x30
 6403 19ca 38       		.uleb128 0x38
 6404 19cb 01       		.uleb128 0x1
 6405 19cc 51       		.byte	0x51
 6406 19cd 03       		.uleb128 0x3
 6407 19ce F3       		.byte	0xf3
 6408 19cf 01       		.uleb128 0x1
 6409 19d0 50       		.byte	0x50
 6410 19d1 38       		.uleb128 0x38
 6411 19d2 01       		.uleb128 0x1
 6412 19d3 52       		.byte	0x52
 6413 19d4 03       		.uleb128 0x3
 6414 19d5 F3       		.byte	0xf3
 6415 19d6 01       		.uleb128 0x1
ARM GAS  C:\Users\rdn\AppData\Local\Temp\cckhx27q.s 			page 140


 6416 19d7 51       		.byte	0x51
 6417 19d8 00       		.byte	0
 6418 19d9 00       		.byte	0
 6419 19da 3E       		.uleb128 0x3e
 6420 19db A0070000 		.4byte	.LASF176
 6421 19df 01       		.byte	0x1
 6422 19e0 8501     		.2byte	0x185
 6423 19e2 82040000 		.4byte	0x482
 6424 19e6 00000000 		.4byte	.LFB40
 6425 19ea E8000000 		.4byte	.LFE40-.LFB40
 6426 19ee 01       		.uleb128 0x1
 6427 19ef 9C       		.byte	0x9c
 6428 19f0 CC1B0000 		.4byte	0x1bcc
 6429 19f4 2B       		.uleb128 0x2b
 6430 19f5 74050000 		.4byte	.LASF136
 6431 19f9 01       		.byte	0x1
 6432 19fa 8601     		.2byte	0x186
 6433 19fc 20020000 		.4byte	0x220
 6434 1a00 66170000 		.4byte	.LLST163
 6435 1a04 2B       		.uleb128 0x2b
 6436 1a05 D3030000 		.4byte	.LASF143
 6437 1a09 01       		.byte	0x1
 6438 1a0a 8601     		.2byte	0x186
 6439 1a0c 9F000000 		.4byte	0x9f
 6440 1a10 87170000 		.4byte	.LLST164
 6441 1a14 2B       		.uleb128 0x2b
 6442 1a15 45010000 		.4byte	.LASF144
 6443 1a19 01       		.byte	0x1
 6444 1a1a 8601     		.2byte	0x186
 6445 1a1c 9F000000 		.4byte	0x9f
 6446 1a20 CC170000 		.4byte	.LLST165
 6447 1a24 2B       		.uleb128 0x2b
 6448 1a25 00020000 		.4byte	.LASF177
 6449 1a29 01       		.byte	0x1
 6450 1a2a 8601     		.2byte	0x186
 6451 1a2c 9F000000 		.4byte	0x9f
 6452 1a30 ED170000 		.4byte	.LLST166
 6453 1a34 3F       		.uleb128 0x3f
 6454 1a35 6D656D00 		.ascii	"mem\000"
 6455 1a39 01       		.byte	0x1
 6456 1a3a 8601     		.2byte	0x186
 6457 1a3c 95040000 		.4byte	0x495
 6458 1a40 4C180000 		.4byte	.LLST167
 6459 1a44 2C       		.uleb128 0x2c
 6460 1a45 647400   		.ascii	"dt\000"
 6461 1a48 01       		.byte	0x1
 6462 1a49 8B01     		.2byte	0x18b
 6463 1a4b EF000000 		.4byte	0xef
 6464 1a4f 6C180000 		.4byte	.LLST168
 6465 1a53 2C       		.uleb128 0x2c
 6466 1a54 737200   		.ascii	"sr\000"
 6467 1a57 01       		.byte	0x1
 6468 1a58 8C01     		.2byte	0x18c
 6469 1a5a 1E010000 		.4byte	0x11e
 6470 1a5e 96180000 		.4byte	.LLST169
 6471 1a62 40       		.uleb128 0x40
 6472 1a63 1C020000 		.4byte	.LASF55
ARM GAS  C:\Users\rdn\AppData\Local\Temp\cckhx27q.s 			page 141


 6473 1a67 01       		.byte	0x1
 6474 1a68 8D01     		.2byte	0x18d
 6475 1a6a 1E010000 		.4byte	0x11e
 6476 1a6e A9180000 		.4byte	.LLST170
 6477 1a72 40       		.uleb128 0x40
 6478 1a73 4A030000 		.4byte	.LASF149
 6479 1a77 01       		.byte	0x1
 6480 1a78 9201     		.2byte	0x192
 6481 1a7a 82040000 		.4byte	0x482
 6482 1a7e C7180000 		.4byte	.LLST171
 6483 1a82 2D       		.uleb128 0x2d
 6484 1a83 6E7300   		.ascii	"ns\000"
 6485 1a86 01       		.byte	0x1
 6486 1a87 9301     		.2byte	0x193
 6487 1a89 9F000000 		.4byte	0x9f
 6488 1a8d 2D       		.uleb128 0x2d
 6489 1a8e 6E7400   		.ascii	"nt\000"
 6490 1a91 01       		.byte	0x1
 6491 1a92 9401     		.2byte	0x194
 6492 1a94 9F000000 		.4byte	0x9f
 6493 1a98 2E       		.uleb128 0x2e
 6494 1a99 C9070000 		.4byte	0x7c9
 6495 1a9d 40000000 		.4byte	.LBB204
 6496 1aa1 B0010000 		.4byte	.Ldebug_ranges0+0x1b0
 6497 1aa5 01       		.byte	0x1
 6498 1aa6 9301     		.2byte	0x193
 6499 1aa8 BF1A0000 		.4byte	0x1abf
 6500 1aac 27       		.uleb128 0x27
 6501 1aad E3070000 		.4byte	0x7e3
 6502 1ab1 DA180000 		.4byte	.LLST172
 6503 1ab5 27       		.uleb128 0x27
 6504 1ab6 D9070000 		.4byte	0x7d9
 6505 1aba ED180000 		.4byte	.LLST173
 6506 1abe 00       		.byte	0
 6507 1abf 31       		.uleb128 0x31
 6508 1ac0 9F080000 		.4byte	0x89f
 6509 1ac4 50000000 		.4byte	.LBB208
 6510 1ac8 02000000 		.4byte	.LBE208-.LBB208
 6511 1acc 01       		.byte	0x1
 6512 1acd 9401     		.2byte	0x194
 6513 1acf DD1A0000 		.4byte	0x1add
 6514 1ad3 27       		.uleb128 0x27
 6515 1ad4 AF080000 		.4byte	0x8af
 6516 1ad8 00190000 		.4byte	.LLST174
 6517 1adc 00       		.byte	0
 6518 1add 37       		.uleb128 0x37
 6519 1ade 18000000 		.4byte	.LVL227
 6520 1ae2 09080000 		.4byte	0x809
 6521 1ae6 F71A0000 		.4byte	0x1af7
 6522 1aea 38       		.uleb128 0x38
 6523 1aeb 01       		.uleb128 0x1
 6524 1aec 50       		.byte	0x50
 6525 1aed 02       		.uleb128 0x2
 6526 1aee 7A       		.byte	0x7a
 6527 1aef 00       		.sleb128 0
 6528 1af0 38       		.uleb128 0x38
 6529 1af1 01       		.uleb128 0x1
ARM GAS  C:\Users\rdn\AppData\Local\Temp\cckhx27q.s 			page 142


 6530 1af2 51       		.byte	0x51
 6531 1af3 02       		.uleb128 0x2
 6532 1af4 75       		.byte	0x75
 6533 1af5 00       		.sleb128 0
 6534 1af6 00       		.byte	0
 6535 1af7 37       		.uleb128 0x37
 6536 1af8 22000000 		.4byte	.LVL229
 6537 1afc 2F080000 		.4byte	0x82f
 6538 1b00 0B1B0000 		.4byte	0x1b0b
 6539 1b04 38       		.uleb128 0x38
 6540 1b05 01       		.uleb128 0x1
 6541 1b06 51       		.byte	0x51
 6542 1b07 02       		.uleb128 0x2
 6543 1b08 75       		.byte	0x75
 6544 1b09 00       		.sleb128 0
 6545 1b0a 00       		.byte	0
 6546 1b0b 37       		.uleb128 0x37
 6547 1b0c 2C000000 		.4byte	.LVL231
 6548 1b10 2F080000 		.4byte	0x82f
 6549 1b14 251B0000 		.4byte	0x1b25
 6550 1b18 38       		.uleb128 0x38
 6551 1b19 01       		.uleb128 0x1
 6552 1b1a 50       		.byte	0x50
 6553 1b1b 02       		.uleb128 0x2
 6554 1b1c 76       		.byte	0x76
 6555 1b1d 00       		.sleb128 0
 6556 1b1e 38       		.uleb128 0x38
 6557 1b1f 01       		.uleb128 0x1
 6558 1b20 51       		.byte	0x51
 6559 1b21 02       		.uleb128 0x2
 6560 1b22 75       		.byte	0x75
 6561 1b23 00       		.sleb128 0
 6562 1b24 00       		.byte	0
 6563 1b25 37       		.uleb128 0x37
 6564 1b26 64000000 		.4byte	.LVL237
 6565 1b2a A02F0000 		.4byte	0x2fa0
 6566 1b2e 451B0000 		.4byte	0x1b45
 6567 1b32 38       		.uleb128 0x38
 6568 1b33 01       		.uleb128 0x1
 6569 1b34 50       		.byte	0x50
 6570 1b35 02       		.uleb128 0x2
 6571 1b36 74       		.byte	0x74
 6572 1b37 00       		.sleb128 0
 6573 1b38 38       		.uleb128 0x38
 6574 1b39 01       		.uleb128 0x1
 6575 1b3a 51       		.byte	0x51
 6576 1b3b 01       		.uleb128 0x1
 6577 1b3c 30       		.byte	0x30
 6578 1b3d 38       		.uleb128 0x38
 6579 1b3e 01       		.uleb128 0x1
 6580 1b3f 52       		.byte	0x52
 6581 1b40 03       		.uleb128 0x3
 6582 1b41 0A       		.byte	0xa
 6583 1b42 B004     		.2byte	0x4b0
 6584 1b44 00       		.byte	0
 6585 1b45 39       		.uleb128 0x39
 6586 1b46 CC000000 		.4byte	.LVL241
ARM GAS  C:\Users\rdn\AppData\Local\Temp\cckhx27q.s 			page 143


 6587 1b4a A02F0000 		.4byte	0x2fa0
 6588 1b4e 38       		.uleb128 0x38
 6589 1b4f 01       		.uleb128 0x1
 6590 1b50 50       		.byte	0x50
 6591 1b51 03       		.uleb128 0x3
 6592 1b52 74       		.byte	0x74
 6593 1b53 AC09     		.sleb128 1196
 6594 1b55 38       		.uleb128 0x38
 6595 1b56 01       		.uleb128 0x1
 6596 1b57 51       		.byte	0x51
 6597 1b58 01       		.uleb128 0x1
 6598 1b59 30       		.byte	0x30
 6599 1b5a 38       		.uleb128 0x38
 6600 1b5b 01       		.uleb128 0x1
 6601 1b5c 52       		.byte	0x52
 6602 1b5d 6C       		.uleb128 0x6c
 6603 1b5e F3       		.byte	0xf3
 6604 1b5f 01       		.uleb128 0x1
 6605 1b60 53       		.byte	0x53
 6606 1b61 F3       		.byte	0xf3
 6607 1b62 01       		.uleb128 0x1
 6608 1b63 52       		.byte	0x52
 6609 1b64 F3       		.byte	0xf3
 6610 1b65 01       		.uleb128 0x1
 6611 1b66 53       		.byte	0x53
 6612 1b67 30       		.byte	0x30
 6613 1b68 2B       		.byte	0x2b
 6614 1b69 28       		.byte	0x28
 6615 1b6a 0100     		.2byte	0x1
 6616 1b6c 16       		.byte	0x16
 6617 1b6d 13       		.byte	0x13
 6618 1b6e F3       		.byte	0xf3
 6619 1b6f 01       		.uleb128 0x1
 6620 1b70 51       		.byte	0x51
 6621 1b71 1E       		.byte	0x1e
 6622 1b72 0C       		.byte	0xc
 6623 1b73 80841E00 		.4byte	0x1e8480
 6624 1b77 1B       		.byte	0x1b
 6625 1b78 F3       		.byte	0xf3
 6626 1b79 01       		.uleb128 0x1
 6627 1b7a 53       		.byte	0x53
 6628 1b7b F3       		.byte	0xf3
 6629 1b7c 01       		.uleb128 0x1
 6630 1b7d 52       		.byte	0x52
 6631 1b7e F3       		.byte	0xf3
 6632 1b7f 01       		.uleb128 0x1
 6633 1b80 53       		.byte	0x53
 6634 1b81 30       		.byte	0x30
 6635 1b82 2B       		.byte	0x2b
 6636 1b83 28       		.byte	0x28
 6637 1b84 0100     		.2byte	0x1
 6638 1b86 16       		.byte	0x16
 6639 1b87 13       		.byte	0x13
 6640 1b88 F3       		.byte	0xf3
 6641 1b89 01       		.uleb128 0x1
 6642 1b8a 51       		.byte	0x51
 6643 1b8b 1E       		.byte	0x1e
ARM GAS  C:\Users\rdn\AppData\Local\Temp\cckhx27q.s 			page 144


 6644 1b8c 0C       		.byte	0xc
 6645 1b8d 40420F00 		.4byte	0xf4240
 6646 1b91 1B       		.byte	0x1b
 6647 1b92 22       		.byte	0x22
 6648 1b93 F3       		.byte	0xf3
 6649 1b94 01       		.uleb128 0x1
 6650 1b95 53       		.byte	0x53
 6651 1b96 F3       		.byte	0xf3
 6652 1b97 01       		.uleb128 0x1
 6653 1b98 52       		.byte	0x52
 6654 1b99 F3       		.byte	0xf3
 6655 1b9a 01       		.uleb128 0x1
 6656 1b9b 53       		.byte	0x53
 6657 1b9c 30       		.byte	0x30
 6658 1b9d 2B       		.byte	0x2b
 6659 1b9e 28       		.byte	0x28
 6660 1b9f 0100     		.2byte	0x1
 6661 1ba1 16       		.byte	0x16
 6662 1ba2 13       		.byte	0x13
 6663 1ba3 0A       		.byte	0xa
 6664 1ba4 2003     		.2byte	0x320
 6665 1ba6 1B       		.byte	0x1b
 6666 1ba7 F3       		.byte	0xf3
 6667 1ba8 01       		.uleb128 0x1
 6668 1ba9 53       		.byte	0x53
 6669 1baa F3       		.byte	0xf3
 6670 1bab 01       		.uleb128 0x1
 6671 1bac 52       		.byte	0x52
 6672 1bad F3       		.byte	0xf3
 6673 1bae 01       		.uleb128 0x1
 6674 1baf 53       		.byte	0x53
 6675 1bb0 30       		.byte	0x30
 6676 1bb1 2B       		.byte	0x2b
 6677 1bb2 28       		.byte	0x28
 6678 1bb3 0100     		.2byte	0x1
 6679 1bb5 16       		.byte	0x16
 6680 1bb6 13       		.byte	0x13
 6681 1bb7 F3       		.byte	0xf3
 6682 1bb8 01       		.uleb128 0x1
 6683 1bb9 51       		.byte	0x51
 6684 1bba 1E       		.byte	0x1e
 6685 1bbb 0C       		.byte	0xc
 6686 1bbc 40420F00 		.4byte	0xf4240
 6687 1bc0 1B       		.byte	0x1b
 6688 1bc1 22       		.byte	0x22
 6689 1bc2 32       		.byte	0x32
 6690 1bc3 1B       		.byte	0x1b
 6691 1bc4 22       		.byte	0x22
 6692 1bc5 76       		.byte	0x76
 6693 1bc6 00       		.sleb128 0
 6694 1bc7 22       		.byte	0x22
 6695 1bc8 32       		.byte	0x32
 6696 1bc9 24       		.byte	0x24
 6697 1bca 00       		.byte	0
 6698 1bcb 00       		.byte	0
 6699 1bcc 3E       		.uleb128 0x3e
 6700 1bcd BF0A0000 		.4byte	.LASF178
ARM GAS  C:\Users\rdn\AppData\Local\Temp\cckhx27q.s 			page 145


 6701 1bd1 01       		.byte	0x1
 6702 1bd2 A501     		.2byte	0x1a5
 6703 1bd4 82040000 		.4byte	0x482
 6704 1bd8 00000000 		.4byte	.LFB41
 6705 1bdc 16000000 		.4byte	.LFE41-.LFB41
 6706 1be0 01       		.uleb128 0x1
 6707 1be1 9C       		.byte	0x9c
 6708 1be2 531C0000 		.4byte	0x1c53
 6709 1be6 2B       		.uleb128 0x2b
 6710 1be7 D3030000 		.4byte	.LASF143
 6711 1beb 01       		.byte	0x1
 6712 1bec A601     		.2byte	0x1a6
 6713 1bee 9F000000 		.4byte	0x9f
 6714 1bf2 13190000 		.4byte	.LLST175
 6715 1bf6 2B       		.uleb128 0x2b
 6716 1bf7 45010000 		.4byte	.LASF144
 6717 1bfb 01       		.byte	0x1
 6718 1bfc A601     		.2byte	0x1a6
 6719 1bfe 9F000000 		.4byte	0x9f
 6720 1c02 3F190000 		.4byte	.LLST176
 6721 1c06 2B       		.uleb128 0x2b
 6722 1c07 00020000 		.4byte	.LASF177
 6723 1c0b 01       		.byte	0x1
 6724 1c0c A601     		.2byte	0x1a6
 6725 1c0e 9F000000 		.4byte	0x9f
 6726 1c12 6B190000 		.4byte	.LLST177
 6727 1c16 3F       		.uleb128 0x3f
 6728 1c17 6D656D00 		.ascii	"mem\000"
 6729 1c1b 01       		.byte	0x1
 6730 1c1c A601     		.2byte	0x1a6
 6731 1c1e 95040000 		.4byte	0x495
 6732 1c22 97190000 		.4byte	.LLST178
 6733 1c26 39       		.uleb128 0x39
 6734 1c27 10000000 		.4byte	.LVL251
 6735 1c2b DA190000 		.4byte	0x19da
 6736 1c2f 38       		.uleb128 0x38
 6737 1c30 01       		.uleb128 0x1
 6738 1c31 50       		.byte	0x50
 6739 1c32 01       		.uleb128 0x1
 6740 1c33 30       		.byte	0x30
 6741 1c34 38       		.uleb128 0x38
 6742 1c35 01       		.uleb128 0x1
 6743 1c36 51       		.byte	0x51
 6744 1c37 03       		.uleb128 0x3
 6745 1c38 F3       		.byte	0xf3
 6746 1c39 01       		.uleb128 0x1
 6747 1c3a 50       		.byte	0x50
 6748 1c3b 38       		.uleb128 0x38
 6749 1c3c 01       		.uleb128 0x1
 6750 1c3d 52       		.byte	0x52
 6751 1c3e 03       		.uleb128 0x3
 6752 1c3f F3       		.byte	0xf3
 6753 1c40 01       		.uleb128 0x1
 6754 1c41 51       		.byte	0x51
 6755 1c42 38       		.uleb128 0x38
 6756 1c43 01       		.uleb128 0x1
 6757 1c44 53       		.byte	0x53
ARM GAS  C:\Users\rdn\AppData\Local\Temp\cckhx27q.s 			page 146


 6758 1c45 03       		.uleb128 0x3
 6759 1c46 F3       		.byte	0xf3
 6760 1c47 01       		.uleb128 0x1
 6761 1c48 52       		.byte	0x52
 6762 1c49 38       		.uleb128 0x38
 6763 1c4a 02       		.uleb128 0x2
 6764 1c4b 7D       		.byte	0x7d
 6765 1c4c 00       		.sleb128 0
 6766 1c4d 03       		.uleb128 0x3
 6767 1c4e F3       		.byte	0xf3
 6768 1c4f 01       		.uleb128 0x1
 6769 1c50 53       		.byte	0x53
 6770 1c51 00       		.byte	0
 6771 1c52 00       		.byte	0
 6772 1c53 41       		.uleb128 0x41
 6773 1c54 80000000 		.4byte	.LASF180
 6774 1c58 01       		.byte	0x1
 6775 1c59 5101     		.2byte	0x151
 6776 1c5b 01       		.byte	0x1
 6777 1c5c C91C0000 		.4byte	0x1cc9
 6778 1c60 1A       		.uleb128 0x1a
 6779 1c61 4A030000 		.4byte	.LASF149
 6780 1c65 01       		.byte	0x1
 6781 1c66 5101     		.2byte	0x151
 6782 1c68 82040000 		.4byte	0x482
 6783 1c6c 1A       		.uleb128 0x1a
 6784 1c6d DD000000 		.4byte	.LASF181
 6785 1c71 01       		.byte	0x1
 6786 1c72 5201     		.2byte	0x152
 6787 1c74 C91C0000 		.4byte	0x1cc9
 6788 1c78 1A       		.uleb128 0x1a
 6789 1c79 80020000 		.4byte	.LASF170
 6790 1c7d 01       		.byte	0x1
 6791 1c7e 5201     		.2byte	0x152
 6792 1c80 9F000000 		.4byte	0x9f
 6793 1c84 1A       		.uleb128 0x1a
 6794 1c85 6E000000 		.4byte	.LASF107
 6795 1c89 01       		.byte	0x1
 6796 1c8a 5201     		.2byte	0x152
 6797 1c8c 95040000 		.4byte	0x495
 6798 1c90 2D       		.uleb128 0x2d
 6799 1c91 647400   		.ascii	"dt\000"
 6800 1c94 01       		.byte	0x1
 6801 1c95 5401     		.2byte	0x154
 6802 1c97 EF000000 		.4byte	0xef
 6803 1c9b 2D       		.uleb128 0x2d
 6804 1c9c 737200   		.ascii	"sr\000"
 6805 1c9f 01       		.byte	0x1
 6806 1ca0 5501     		.2byte	0x155
 6807 1ca2 1E010000 		.4byte	0x11e
 6808 1ca6 2D       		.uleb128 0x2d
 6809 1ca7 786600   		.ascii	"xf\000"
 6810 1caa 01       		.byte	0x1
 6811 1cab 5701     		.2byte	0x157
 6812 1cad F00A0000 		.4byte	0xaf0
 6813 1cb1 2D       		.uleb128 0x2d
 6814 1cb2 627700   		.ascii	"bw\000"
ARM GAS  C:\Users\rdn\AppData\Local\Temp\cckhx27q.s 			page 147


 6815 1cb5 01       		.byte	0x1
 6816 1cb6 5801     		.2byte	0x158
 6817 1cb8 A5040000 		.4byte	0x4a5
 6818 1cbc 42       		.uleb128 0x42
 6819 1cbd 6F050000 		.4byte	.LASF147
 6820 1cc1 01       		.byte	0x1
 6821 1cc2 5A01     		.2byte	0x15a
 6822 1cc4 0F060000 		.4byte	0x60f
 6823 1cc8 00       		.byte	0
 6824 1cc9 10       		.uleb128 0x10
 6825 1cca 04       		.byte	0x4
 6826 1ccb CF1C0000 		.4byte	0x1ccf
 6827 1ccf 12       		.uleb128 0x12
 6828 1cd0 75070000 		.4byte	0x775
 6829 1cd4 41       		.uleb128 0x41
 6830 1cd5 6A0B0000 		.4byte	.LASF182
 6831 1cd9 01       		.byte	0x1
 6832 1cda 1D01     		.2byte	0x11d
 6833 1cdc 01       		.byte	0x1
 6834 1cdd 8C1D0000 		.4byte	0x1d8c
 6835 1ce1 1A       		.uleb128 0x1a
 6836 1ce2 4A030000 		.4byte	.LASF149
 6837 1ce6 01       		.byte	0x1
 6838 1ce7 1D01     		.2byte	0x11d
 6839 1ce9 82040000 		.4byte	0x482
 6840 1ced 1A       		.uleb128 0x1a
 6841 1cee 80020000 		.4byte	.LASF170
 6842 1cf2 01       		.byte	0x1
 6843 1cf3 1E01     		.2byte	0x11e
 6844 1cf5 9F000000 		.4byte	0x9f
 6845 1cf9 1A       		.uleb128 0x1a
 6846 1cfa DD000000 		.4byte	.LASF181
 6847 1cfe 01       		.byte	0x1
 6848 1cff 1E01     		.2byte	0x11e
 6849 1d01 8C1D0000 		.4byte	0x1d8c
 6850 1d05 2D       		.uleb128 0x2d
 6851 1d06 647400   		.ascii	"dt\000"
 6852 1d09 01       		.byte	0x1
 6853 1d0a 2001     		.2byte	0x120
 6854 1d0c EF000000 		.4byte	0xef
 6855 1d10 2D       		.uleb128 0x2d
 6856 1d11 737200   		.ascii	"sr\000"
 6857 1d14 01       		.byte	0x1
 6858 1d15 2101     		.2byte	0x121
 6859 1d17 1E010000 		.4byte	0x11e
 6860 1d1b 42       		.uleb128 0x42
 6861 1d1c 1C020000 		.4byte	.LASF55
 6862 1d20 01       		.byte	0x1
 6863 1d21 2201     		.2byte	0x122
 6864 1d23 1E010000 		.4byte	0x11e
 6865 1d27 2D       		.uleb128 0x2d
 6866 1d28 787400   		.ascii	"xt\000"
 6867 1d2b 01       		.byte	0x1
 6868 1d2c 2401     		.2byte	0x124
 6869 1d2e EA0A0000 		.4byte	0xaea
 6870 1d32 2D       		.uleb128 0x2d
 6871 1d33 787300   		.ascii	"xs\000"
ARM GAS  C:\Users\rdn\AppData\Local\Temp\cckhx27q.s 			page 148


 6872 1d36 01       		.byte	0x1
 6873 1d37 2501     		.2byte	0x125
 6874 1d39 F00A0000 		.4byte	0xaf0
 6875 1d3d 2D       		.uleb128 0x2d
 6876 1d3e 6E7300   		.ascii	"ns\000"
 6877 1d41 01       		.byte	0x1
 6878 1d42 2601     		.2byte	0x126
 6879 1d44 9F000000 		.4byte	0x9f
 6880 1d48 2D       		.uleb128 0x2d
 6881 1d49 6E7400   		.ascii	"nt\000"
 6882 1d4c 01       		.byte	0x1
 6883 1d4d 2701     		.2byte	0x127
 6884 1d4f 9F000000 		.4byte	0x9f
 6885 1d53 2D       		.uleb128 0x2d
 6886 1d54 786400   		.ascii	"xd\000"
 6887 1d57 01       		.byte	0x1
 6888 1d58 2901     		.2byte	0x129
 6889 1d5a F00A0000 		.4byte	0xaf0
 6890 1d5e 2D       		.uleb128 0x2d
 6891 1d5f 786600   		.ascii	"xf\000"
 6892 1d62 01       		.byte	0x1
 6893 1d63 2A01     		.2byte	0x12a
 6894 1d65 F00A0000 		.4byte	0xaf0
 6895 1d69 2D       		.uleb128 0x2d
 6896 1d6a 61747400 		.ascii	"att\000"
 6897 1d6e 01       		.byte	0x1
 6898 1d6f 2E01     		.2byte	0x12e
 6899 1d71 20020000 		.4byte	0x220
 6900 1d75 2D       		.uleb128 0x2d
 6901 1d76 6500     		.ascii	"e\000"
 6902 1d78 01       		.byte	0x1
 6903 1d79 3701     		.2byte	0x137
 6904 1d7b 921D0000 		.4byte	0x1d92
 6905 1d7f 42       		.uleb128 0x42
 6906 1d80 82050000 		.4byte	.LASF183
 6907 1d84 01       		.byte	0x1
 6908 1d85 3B01     		.2byte	0x13b
 6909 1d87 20020000 		.4byte	0x220
 6910 1d8b 00       		.byte	0
 6911 1d8c 10       		.uleb128 0x10
 6912 1d8d 04       		.byte	0x4
 6913 1d8e 75070000 		.4byte	0x775
 6914 1d92 0D       		.uleb128 0xd
 6915 1d93 3E020000 		.4byte	0x23e
 6916 1d97 A21D0000 		.4byte	0x1da2
 6917 1d9b 0E       		.uleb128 0xe
 6918 1d9c 37020000 		.4byte	0x237
 6919 1da0 3F       		.byte	0x3f
 6920 1da1 00       		.byte	0
 6921 1da2 1B       		.uleb128 0x1b
 6922 1da3 A3020000 		.4byte	.LASF184
 6923 1da7 04       		.byte	0x4
 6924 1da8 D2       		.byte	0xd2
 6925 1da9 03       		.byte	0x3
 6926 1daa C31D0000 		.4byte	0x1dc3
 6927 1dae 15       		.uleb128 0x15
 6928 1daf 6F050000 		.4byte	.LASF147
ARM GAS  C:\Users\rdn\AppData\Local\Temp\cckhx27q.s 			page 149


 6929 1db3 04       		.byte	0x4
 6930 1db4 D2       		.byte	0xd2
 6931 1db5 C31D0000 		.4byte	0x1dc3
 6932 1db9 14       		.uleb128 0x14
 6933 1dba 7600     		.ascii	"v\000"
 6934 1dbc 04       		.byte	0x4
 6935 1dbd D2       		.byte	0xd2
 6936 1dbe 9F000000 		.4byte	0x9f
 6937 1dc2 00       		.byte	0
 6938 1dc3 10       		.uleb128 0x10
 6939 1dc4 04       		.byte	0x4
 6940 1dc5 0F060000 		.4byte	0x60f
 6941 1dc9 3E       		.uleb128 0x3e
 6942 1dca BD030000 		.4byte	.LASF185
 6943 1dce 01       		.byte	0x1
 6944 1dcf AE01     		.2byte	0x1ae
 6945 1dd1 9F000000 		.4byte	0x9f
 6946 1dd5 00000000 		.4byte	.LFB42
 6947 1dd9 00020000 		.4byte	.LFE42-.LFB42
 6948 1ddd 01       		.uleb128 0x1
 6949 1dde 9C       		.byte	0x9c
 6950 1ddf 75230000 		.4byte	0x2375
 6951 1de3 2B       		.uleb128 0x2b
 6952 1de4 4A030000 		.4byte	.LASF149
 6953 1de8 01       		.byte	0x1
 6954 1de9 AE01     		.2byte	0x1ae
 6955 1deb 82040000 		.4byte	0x482
 6956 1def C4190000 		.4byte	.LLST179
 6957 1df3 3F       		.uleb128 0x3f
 6958 1df4 666D7400 		.ascii	"fmt\000"
 6959 1df8 01       		.byte	0x1
 6960 1df9 AF01     		.2byte	0x1af
 6961 1dfb 59040000 		.4byte	0x459
 6962 1dff 241A0000 		.4byte	.LLST180
 6963 1e03 3F       		.uleb128 0x3f
 6964 1e04 70636D00 		.ascii	"pcm\000"
 6965 1e08 01       		.byte	0x1
 6966 1e09 AF01     		.2byte	0x1af
 6967 1e0b D80A0000 		.4byte	0xad8
 6968 1e0f 5E1A0000 		.4byte	.LLST181
 6969 1e13 2B       		.uleb128 0x2b
 6970 1e14 CA090000 		.4byte	.LASF151
 6971 1e18 01       		.byte	0x1
 6972 1e19 AF01     		.2byte	0x1af
 6973 1e1b 9F000000 		.4byte	0x9f
 6974 1e1f AE1A0000 		.4byte	.LLST182
 6975 1e23 2B       		.uleb128 0x2b
 6976 1e24 80020000 		.4byte	.LASF170
 6977 1e28 01       		.byte	0x1
 6978 1e29 AF01     		.2byte	0x1af
 6979 1e2b 9F000000 		.4byte	0x9f
 6980 1e2f E81A0000 		.4byte	.LLST183
 6981 1e33 3F       		.uleb128 0x3f
 6982 1e34 6F757400 		.ascii	"out\000"
 6983 1e38 01       		.byte	0x1
 6984 1e39 AF01     		.2byte	0x1af
 6985 1e3b 95040000 		.4byte	0x495
ARM GAS  C:\Users\rdn\AppData\Local\Temp\cckhx27q.s 			page 150


 6986 1e3f 081B0000 		.4byte	.LLST184
 6987 1e43 43       		.uleb128 0x43
 6988 1e44 E4010000 		.4byte	.LASF186
 6989 1e48 01       		.byte	0x1
 6990 1e49 B101     		.2byte	0x1b1
 6991 1e4b A5230000 		.4byte	0x23a5
 6992 1e4f 05       		.uleb128 0x5
 6993 1e50 03       		.byte	0x3
 6994 1e51 00000000 		.4byte	load.5874
 6995 1e55 43       		.uleb128 0x43
 6996 1e56 DD000000 		.4byte	.LASF181
 6997 1e5a 01       		.byte	0x1
 6998 1e5b C001     		.2byte	0x1c0
 6999 1e5d 75070000 		.4byte	0x775
 7000 1e61 03       		.uleb128 0x3
 7001 1e62 91       		.byte	0x91
 7002 1e63 D47C     		.sleb128 -428
 7003 1e65 31       		.uleb128 0x31
 7004 1e66 DF080000 		.4byte	0x8df
 7005 1e6a 14000000 		.4byte	.LBB226
 7006 1e6e 10000000 		.4byte	.LBE226-.LBB226
 7007 1e72 01       		.byte	0x1
 7008 1e73 BA01     		.2byte	0x1ba
 7009 1e75 8C1E0000 		.4byte	0x1e8c
 7010 1e79 27       		.uleb128 0x27
 7011 1e7a F9080000 		.4byte	0x8f9
 7012 1e7e 281B0000 		.4byte	.LLST185
 7013 1e82 27       		.uleb128 0x27
 7014 1e83 EF080000 		.4byte	0x8ef
 7015 1e87 3B1B0000 		.4byte	.LLST186
 7016 1e8b 00       		.byte	0
 7017 1e8c 2E       		.uleb128 0x2e
 7018 1e8d 04090000 		.4byte	0x904
 7019 1e91 2E000000 		.4byte	.LBB228
 7020 1e95 C8010000 		.4byte	.Ldebug_ranges0+0x1c8
 7021 1e99 01       		.byte	0x1
 7022 1e9a BB01     		.2byte	0x1bb
 7023 1e9c B31E0000 		.4byte	0x1eb3
 7024 1ea0 27       		.uleb128 0x27
 7025 1ea1 1E090000 		.4byte	0x91e
 7026 1ea5 5B1B0000 		.4byte	.LLST187
 7027 1ea9 27       		.uleb128 0x27
 7028 1eaa 14090000 		.4byte	0x914
 7029 1eae 701B0000 		.4byte	.LLST188
 7030 1eb2 00       		.byte	0
 7031 1eb3 31       		.uleb128 0x31
 7032 1eb4 D41C0000 		.4byte	0x1cd4
 7033 1eb8 48000000 		.4byte	.LBB231
 7034 1ebc 02010000 		.4byte	.LBE231-.LBB231
 7035 1ec0 01       		.byte	0x1
 7036 1ec1 C401     		.2byte	0x1c4
 7037 1ec3 62210000 		.4byte	0x2162
 7038 1ec7 27       		.uleb128 0x27
 7039 1ec8 F91C0000 		.4byte	0x1cf9
 7040 1ecc 841B0000 		.4byte	.LLST189
 7041 1ed0 27       		.uleb128 0x27
 7042 1ed1 ED1C0000 		.4byte	0x1ced
ARM GAS  C:\Users\rdn\AppData\Local\Temp\cckhx27q.s 			page 151


 7043 1ed5 9A1B0000 		.4byte	.LLST190
 7044 1ed9 27       		.uleb128 0x27
 7045 1eda E11C0000 		.4byte	0x1ce1
 7046 1ede AD1B0000 		.4byte	.LLST191
 7047 1ee2 24       		.uleb128 0x24
 7048 1ee3 48000000 		.4byte	.LBB232
 7049 1ee7 02010000 		.4byte	.LBE232-.LBB232
 7050 1eeb 28       		.uleb128 0x28
 7051 1eec 051D0000 		.4byte	0x1d05
 7052 1ef0 C01B0000 		.4byte	.LLST192
 7053 1ef4 28       		.uleb128 0x28
 7054 1ef5 101D0000 		.4byte	0x1d10
 7055 1ef9 D31B0000 		.4byte	.LLST193
 7056 1efd 28       		.uleb128 0x28
 7057 1efe 1B1D0000 		.4byte	0x1d1b
 7058 1f02 E61B0000 		.4byte	.LLST194
 7059 1f06 28       		.uleb128 0x28
 7060 1f07 271D0000 		.4byte	0x1d27
 7061 1f0b F91B0000 		.4byte	.LLST195
 7062 1f0f 28       		.uleb128 0x28
 7063 1f10 321D0000 		.4byte	0x1d32
 7064 1f14 0C1C0000 		.4byte	.LLST196
 7065 1f18 44       		.uleb128 0x44
 7066 1f19 3D1D0000 		.4byte	0x1d3d
 7067 1f1d 44       		.uleb128 0x44
 7068 1f1e 481D0000 		.4byte	0x1d48
 7069 1f22 28       		.uleb128 0x28
 7070 1f23 531D0000 		.4byte	0x1d53
 7071 1f27 1F1C0000 		.4byte	.LLST197
 7072 1f2b 28       		.uleb128 0x28
 7073 1f2c 5E1D0000 		.4byte	0x1d5e
 7074 1f30 3F1C0000 		.4byte	.LLST198
 7075 1f34 28       		.uleb128 0x28
 7076 1f35 691D0000 		.4byte	0x1d69
 7077 1f39 521C0000 		.4byte	.LLST199
 7078 1f3d 45       		.uleb128 0x45
 7079 1f3e 751D0000 		.4byte	0x1d75
 7080 1f42 03       		.uleb128 0x3
 7081 1f43 91       		.byte	0x91
 7082 1f44 D87D     		.sleb128 -296
 7083 1f46 28       		.uleb128 0x28
 7084 1f47 7F1D0000 		.4byte	0x1d7f
 7085 1f4b 671C0000 		.4byte	.LLST200
 7086 1f4f 31       		.uleb128 0x31
 7087 1f50 C9070000 		.4byte	0x7c9
 7088 1f54 6A000000 		.4byte	.LBB233
 7089 1f58 0C000000 		.4byte	.LBE233-.LBB233
 7090 1f5c 01       		.byte	0x1
 7091 1f5d 2601     		.2byte	0x126
 7092 1f5f 761F0000 		.4byte	0x1f76
 7093 1f63 27       		.uleb128 0x27
 7094 1f64 E3070000 		.4byte	0x7e3
 7095 1f68 7A1C0000 		.4byte	.LLST201
 7096 1f6c 27       		.uleb128 0x27
 7097 1f6d D9070000 		.4byte	0x7d9
 7098 1f71 8D1C0000 		.4byte	.LLST202
 7099 1f75 00       		.byte	0
ARM GAS  C:\Users\rdn\AppData\Local\Temp\cckhx27q.s 			page 152


 7100 1f76 31       		.uleb128 0x31
 7101 1f77 9F080000 		.4byte	0x89f
 7102 1f7b 80000000 		.4byte	.LBB235
 7103 1f7f 04000000 		.4byte	.LBE235-.LBB235
 7104 1f83 01       		.byte	0x1
 7105 1f84 2701     		.2byte	0x127
 7106 1f86 941F0000 		.4byte	0x1f94
 7107 1f8a 27       		.uleb128 0x27
 7108 1f8b AF080000 		.4byte	0x8af
 7109 1f8f A01C0000 		.4byte	.LLST203
 7110 1f93 00       		.byte	0
 7111 1f94 37       		.uleb128 0x37
 7112 1f95 92000000 		.4byte	.LVL268
 7113 1f99 A92F0000 		.4byte	0x2fa9
 7114 1f9d C11F0000 		.4byte	0x1fc1
 7115 1fa1 38       		.uleb128 0x38
 7116 1fa2 01       		.uleb128 0x1
 7117 1fa3 50       		.byte	0x50
 7118 1fa4 02       		.uleb128 0x2
 7119 1fa5 78       		.byte	0x78
 7120 1fa6 00       		.sleb128 0
 7121 1fa7 38       		.uleb128 0x38
 7122 1fa8 01       		.uleb128 0x1
 7123 1fa9 51       		.byte	0x51
 7124 1faa 02       		.uleb128 0x2
 7125 1fab 77       		.byte	0x77
 7126 1fac 00       		.sleb128 0
 7127 1fad 38       		.uleb128 0x38
 7128 1fae 01       		.uleb128 0x1
 7129 1faf 52       		.byte	0x52
 7130 1fb0 02       		.uleb128 0x2
 7131 1fb1 75       		.byte	0x75
 7132 1fb2 00       		.sleb128 0
 7133 1fb3 38       		.uleb128 0x38
 7134 1fb4 01       		.uleb128 0x1
 7135 1fb5 53       		.byte	0x53
 7136 1fb6 02       		.uleb128 0x2
 7137 1fb7 74       		.byte	0x74
 7138 1fb8 04       		.sleb128 4
 7139 1fb9 38       		.uleb128 0x38
 7140 1fba 02       		.uleb128 0x2
 7141 1fbb 7D       		.byte	0x7d
 7142 1fbc 00       		.sleb128 0
 7143 1fbd 02       		.uleb128 0x2
 7144 1fbe 76       		.byte	0x76
 7145 1fbf 00       		.sleb128 0
 7146 1fc0 00       		.byte	0
 7147 1fc1 37       		.uleb128 0x37
 7148 1fc2 A6000000 		.4byte	.LVL270
 7149 1fc6 B42F0000 		.4byte	0x2fb4
 7150 1fca EF1F0000 		.4byte	0x1fef
 7151 1fce 38       		.uleb128 0x38
 7152 1fcf 01       		.uleb128 0x1
 7153 1fd0 50       		.byte	0x50
 7154 1fd1 02       		.uleb128 0x2
 7155 1fd2 78       		.byte	0x78
 7156 1fd3 00       		.sleb128 0
ARM GAS  C:\Users\rdn\AppData\Local\Temp\cckhx27q.s 			page 153


 7157 1fd4 38       		.uleb128 0x38
 7158 1fd5 01       		.uleb128 0x1
 7159 1fd6 51       		.byte	0x51
 7160 1fd7 02       		.uleb128 0x2
 7161 1fd8 77       		.byte	0x77
 7162 1fd9 00       		.sleb128 0
 7163 1fda 38       		.uleb128 0x38
 7164 1fdb 01       		.uleb128 0x1
 7165 1fdc 52       		.byte	0x52
 7166 1fdd 02       		.uleb128 0x2
 7167 1fde 74       		.byte	0x74
 7168 1fdf 10       		.sleb128 16
 7169 1fe0 38       		.uleb128 0x38
 7170 1fe1 01       		.uleb128 0x1
 7171 1fe2 53       		.byte	0x53
 7172 1fe3 02       		.uleb128 0x2
 7173 1fe4 76       		.byte	0x76
 7174 1fe5 00       		.sleb128 0
 7175 1fe6 38       		.uleb128 0x38
 7176 1fe7 02       		.uleb128 0x2
 7177 1fe8 7D       		.byte	0x7d
 7178 1fe9 00       		.sleb128 0
 7179 1fea 03       		.uleb128 0x3
 7180 1feb 91       		.byte	0x91
 7181 1fec D87C     		.sleb128 -424
 7182 1fee 00       		.byte	0
 7183 1fef 37       		.uleb128 0x37
 7184 1ff0 BE000000 		.4byte	.LVL271
 7185 1ff4 BF2F0000 		.4byte	0x2fbf
 7186 1ff8 20200000 		.4byte	0x2020
 7187 1ffc 38       		.uleb128 0x38
 7188 1ffd 01       		.uleb128 0x1
 7189 1ffe 50       		.byte	0x50
 7190 1fff 07       		.uleb128 0x7
 7191 2000 76       		.byte	0x76
 7192 2001 00       		.sleb128 0
 7193 2002 7B       		.byte	0x7b
 7194 2003 00       		.sleb128 0
 7195 2004 31       		.byte	0x31
 7196 2005 24       		.byte	0x24
 7197 2006 1C       		.byte	0x1c
 7198 2007 38       		.uleb128 0x38
 7199 2008 01       		.uleb128 0x1
 7200 2009 51       		.byte	0x51
 7201 200a 0C       		.uleb128 0xc
 7202 200b 91       		.byte	0x91
 7203 200c C47C     		.sleb128 -444
 7204 200e 06       		.byte	0x6
 7205 200f 7B       		.byte	0x7b
 7206 2010 00       		.sleb128 0
 7207 2011 1C       		.byte	0x1c
 7208 2012 31       		.byte	0x31
 7209 2013 24       		.byte	0x24
 7210 2014 76       		.byte	0x76
 7211 2015 00       		.sleb128 0
 7212 2016 22       		.byte	0x22
 7213 2017 38       		.uleb128 0x38
ARM GAS  C:\Users\rdn\AppData\Local\Temp\cckhx27q.s 			page 154


 7214 2018 01       		.uleb128 0x1
 7215 2019 52       		.byte	0x52
 7216 201a 04       		.uleb128 0x4
 7217 201b 7B       		.byte	0x7b
 7218 201c 00       		.sleb128 0
 7219 201d 31       		.byte	0x31
 7220 201e 24       		.byte	0x24
 7221 201f 00       		.byte	0
 7222 2020 37       		.uleb128 0x37
 7223 2021 D2000000 		.4byte	.LVL272
 7224 2025 CA2F0000 		.4byte	0x2fca
 7225 2029 56200000 		.4byte	0x2056
 7226 202d 38       		.uleb128 0x38
 7227 202e 01       		.uleb128 0x1
 7228 202f 50       		.byte	0x50
 7229 2030 02       		.uleb128 0x2
 7230 2031 78       		.byte	0x78
 7231 2032 00       		.sleb128 0
 7232 2033 38       		.uleb128 0x38
 7233 2034 01       		.uleb128 0x1
 7234 2035 51       		.byte	0x51
 7235 2036 02       		.uleb128 0x2
 7236 2037 77       		.byte	0x77
 7237 2038 00       		.sleb128 0
 7238 2039 38       		.uleb128 0x38
 7239 203a 01       		.uleb128 0x1
 7240 203b 52       		.byte	0x52
 7241 203c 02       		.uleb128 0x2
 7242 203d 7A       		.byte	0x7a
 7243 203e 00       		.sleb128 0
 7244 203f 38       		.uleb128 0x38
 7245 2040 01       		.uleb128 0x1
 7246 2041 53       		.byte	0x53
 7247 2042 02       		.uleb128 0x2
 7248 2043 79       		.byte	0x79
 7249 2044 00       		.sleb128 0
 7250 2045 38       		.uleb128 0x38
 7251 2046 02       		.uleb128 0x2
 7252 2047 7D       		.byte	0x7d
 7253 2048 00       		.sleb128 0
 7254 2049 04       		.uleb128 0x4
 7255 204a 91       		.byte	0x91
 7256 204b C87C     		.sleb128 -440
 7257 204d 06       		.byte	0x6
 7258 204e 38       		.uleb128 0x38
 7259 204f 02       		.uleb128 0x2
 7260 2050 7D       		.byte	0x7d
 7261 2051 04       		.sleb128 4
 7262 2052 02       		.uleb128 0x2
 7263 2053 79       		.byte	0x79
 7264 2054 00       		.sleb128 0
 7265 2055 00       		.byte	0
 7266 2056 37       		.uleb128 0x37
 7267 2057 DE000000 		.4byte	.LVL273
 7268 205b D52F0000 		.4byte	0x2fd5
 7269 205f 7D200000 		.4byte	0x207d
 7270 2063 38       		.uleb128 0x38
ARM GAS  C:\Users\rdn\AppData\Local\Temp\cckhx27q.s 			page 155


 7271 2064 01       		.uleb128 0x1
 7272 2065 50       		.byte	0x50
 7273 2066 02       		.uleb128 0x2
 7274 2067 78       		.byte	0x78
 7275 2068 00       		.sleb128 0
 7276 2069 38       		.uleb128 0x38
 7277 206a 01       		.uleb128 0x1
 7278 206b 51       		.byte	0x51
 7279 206c 02       		.uleb128 0x2
 7280 206d 7A       		.byte	0x7a
 7281 206e 00       		.sleb128 0
 7282 206f 38       		.uleb128 0x38
 7283 2070 01       		.uleb128 0x1
 7284 2071 52       		.byte	0x52
 7285 2072 02       		.uleb128 0x2
 7286 2073 79       		.byte	0x79
 7287 2074 00       		.sleb128 0
 7288 2075 38       		.uleb128 0x38
 7289 2076 01       		.uleb128 0x1
 7290 2077 53       		.byte	0x53
 7291 2078 03       		.uleb128 0x3
 7292 2079 91       		.byte	0x91
 7293 207a D87D     		.sleb128 -296
 7294 207c 00       		.byte	0
 7295 207d 37       		.uleb128 0x37
 7296 207e E8000000 		.4byte	.LVL276
 7297 2082 E02F0000 		.4byte	0x2fe0
 7298 2086 92200000 		.4byte	0x2092
 7299 208a 38       		.uleb128 0x38
 7300 208b 01       		.uleb128 0x1
 7301 208c 50       		.byte	0x50
 7302 208d 03       		.uleb128 0x3
 7303 208e 91       		.byte	0x91
 7304 208f D87C     		.sleb128 -424
 7305 2091 00       		.byte	0
 7306 2092 37       		.uleb128 0x37
 7307 2093 F2000000 		.4byte	.LVL277
 7308 2097 EB2F0000 		.4byte	0x2feb
 7309 209b B3200000 		.4byte	0x20b3
 7310 209f 38       		.uleb128 0x38
 7311 20a0 01       		.uleb128 0x1
 7312 20a1 50       		.byte	0x50
 7313 20a2 02       		.uleb128 0x2
 7314 20a3 78       		.byte	0x78
 7315 20a4 00       		.sleb128 0
 7316 20a5 38       		.uleb128 0x38
 7317 20a6 01       		.uleb128 0x1
 7318 20a7 51       		.byte	0x51
 7319 20a8 02       		.uleb128 0x2
 7320 20a9 7A       		.byte	0x7a
 7321 20aa 00       		.sleb128 0
 7322 20ab 38       		.uleb128 0x38
 7323 20ac 01       		.uleb128 0x1
 7324 20ad 52       		.byte	0x52
 7325 20ae 03       		.uleb128 0x3
 7326 20af 91       		.byte	0x91
 7327 20b0 D87D     		.sleb128 -296
ARM GAS  C:\Users\rdn\AppData\Local\Temp\cckhx27q.s 			page 156


 7328 20b2 00       		.byte	0
 7329 20b3 37       		.uleb128 0x37
 7330 20b4 18010000 		.4byte	.LVL279
 7331 20b8 F62F0000 		.4byte	0x2ff6
 7332 20bc F9200000 		.4byte	0x20f9
 7333 20c0 38       		.uleb128 0x38
 7334 20c1 01       		.uleb128 0x1
 7335 20c2 50       		.byte	0x50
 7336 20c3 02       		.uleb128 0x2
 7337 20c4 78       		.byte	0x78
 7338 20c5 00       		.sleb128 0
 7339 20c6 38       		.uleb128 0x38
 7340 20c7 01       		.uleb128 0x1
 7341 20c8 51       		.byte	0x51
 7342 20c9 02       		.uleb128 0x2
 7343 20ca 7A       		.byte	0x7a
 7344 20cb 00       		.sleb128 0
 7345 20cc 38       		.uleb128 0x38
 7346 20cd 01       		.uleb128 0x1
 7347 20ce 52       		.byte	0x52
 7348 20cf 02       		.uleb128 0x2
 7349 20d0 75       		.byte	0x75
 7350 20d1 00       		.sleb128 0
 7351 20d2 38       		.uleb128 0x38
 7352 20d3 01       		.uleb128 0x1
 7353 20d4 53       		.byte	0x53
 7354 20d5 03       		.uleb128 0x3
 7355 20d6 91       		.byte	0x91
 7356 20d7 D87D     		.sleb128 -296
 7357 20d9 38       		.uleb128 0x38
 7358 20da 02       		.uleb128 0x2
 7359 20db 7D       		.byte	0x7d
 7360 20dc 00       		.sleb128 0
 7361 20dd 05       		.uleb128 0x5
 7362 20de 91       		.byte	0x91
 7363 20df CC7C     		.sleb128 -436
 7364 20e1 94       		.byte	0x94
 7365 20e2 01       		.byte	0x1
 7366 20e3 38       		.uleb128 0x38
 7367 20e4 02       		.uleb128 0x2
 7368 20e5 7D       		.byte	0x7d
 7369 20e6 04       		.sleb128 4
 7370 20e7 02       		.uleb128 0x2
 7371 20e8 7B       		.byte	0x7b
 7372 20e9 00       		.sleb128 0
 7373 20ea 38       		.uleb128 0x38
 7374 20eb 02       		.uleb128 0x2
 7375 20ec 7D       		.byte	0x7d
 7376 20ed 08       		.sleb128 8
 7377 20ee 02       		.uleb128 0x2
 7378 20ef 79       		.byte	0x79
 7379 20f0 00       		.sleb128 0
 7380 20f1 38       		.uleb128 0x38
 7381 20f2 02       		.uleb128 0x2
 7382 20f3 7D       		.byte	0x7d
 7383 20f4 0C       		.sleb128 12
 7384 20f5 02       		.uleb128 0x2
ARM GAS  C:\Users\rdn\AppData\Local\Temp\cckhx27q.s 			page 157


 7385 20f6 79       		.byte	0x79
 7386 20f7 00       		.sleb128 0
 7387 20f8 00       		.byte	0
 7388 20f9 37       		.uleb128 0x37
 7389 20fa 2C010000 		.4byte	.LVL280
 7390 20fe 01300000 		.4byte	0x3001
 7391 2102 27210000 		.4byte	0x2127
 7392 2106 38       		.uleb128 0x38
 7393 2107 01       		.uleb128 0x1
 7394 2108 50       		.byte	0x50
 7395 2109 02       		.uleb128 0x2
 7396 210a 78       		.byte	0x78
 7397 210b 00       		.sleb128 0
 7398 210c 38       		.uleb128 0x38
 7399 210d 01       		.uleb128 0x1
 7400 210e 52       		.byte	0x52
 7401 210f 02       		.uleb128 0x2
 7402 2110 76       		.byte	0x76
 7403 2111 00       		.sleb128 0
 7404 2112 38       		.uleb128 0x38
 7405 2113 01       		.uleb128 0x1
 7406 2114 53       		.byte	0x53
 7407 2115 02       		.uleb128 0x2
 7408 2116 75       		.byte	0x75
 7409 2117 00       		.sleb128 0
 7410 2118 38       		.uleb128 0x38
 7411 2119 02       		.uleb128 0x2
 7412 211a 7D       		.byte	0x7d
 7413 211b 00       		.sleb128 0
 7414 211c 02       		.uleb128 0x2
 7415 211d 77       		.byte	0x77
 7416 211e 00       		.sleb128 0
 7417 211f 38       		.uleb128 0x38
 7418 2120 02       		.uleb128 0x2
 7419 2121 7D       		.byte	0x7d
 7420 2122 04       		.sleb128 4
 7421 2123 02       		.uleb128 0x2
 7422 2124 79       		.byte	0x79
 7423 2125 00       		.sleb128 0
 7424 2126 00       		.byte	0
 7425 2127 39       		.uleb128 0x39
 7426 2128 4A010000 		.4byte	.LVL281
 7427 212c 0C300000 		.4byte	0x300c
 7428 2130 38       		.uleb128 0x38
 7429 2131 01       		.uleb128 0x1
 7430 2132 50       		.byte	0x50
 7431 2133 02       		.uleb128 0x2
 7432 2134 78       		.byte	0x78
 7433 2135 00       		.sleb128 0
 7434 2136 38       		.uleb128 0x38
 7435 2137 01       		.uleb128 0x1
 7436 2138 51       		.byte	0x51
 7437 2139 02       		.uleb128 0x2
 7438 213a 7A       		.byte	0x7a
 7439 213b 00       		.sleb128 0
 7440 213c 38       		.uleb128 0x38
 7441 213d 01       		.uleb128 0x1
ARM GAS  C:\Users\rdn\AppData\Local\Temp\cckhx27q.s 			page 158


 7442 213e 52       		.byte	0x52
 7443 213f 02       		.uleb128 0x2
 7444 2140 75       		.byte	0x75
 7445 2141 00       		.sleb128 0
 7446 2142 38       		.uleb128 0x38
 7447 2143 02       		.uleb128 0x2
 7448 2144 7D       		.byte	0x7d
 7449 2145 00       		.sleb128 0
 7450 2146 02       		.uleb128 0x2
 7451 2147 77       		.byte	0x77
 7452 2148 00       		.sleb128 0
 7453 2149 38       		.uleb128 0x38
 7454 214a 02       		.uleb128 0x2
 7455 214b 7D       		.byte	0x7d
 7456 214c 04       		.sleb128 4
 7457 214d 03       		.uleb128 0x3
 7458 214e 74       		.byte	0x74
 7459 214f 9809     		.sleb128 1176
 7460 2151 38       		.uleb128 0x38
 7461 2152 02       		.uleb128 0x2
 7462 2153 7D       		.byte	0x7d
 7463 2154 08       		.sleb128 8
 7464 2155 02       		.uleb128 0x2
 7465 2156 79       		.byte	0x79
 7466 2157 00       		.sleb128 0
 7467 2158 38       		.uleb128 0x38
 7468 2159 02       		.uleb128 0x2
 7469 215a 7D       		.byte	0x7d
 7470 215b 0C       		.sleb128 12
 7471 215c 02       		.uleb128 0x2
 7472 215d 76       		.byte	0x76
 7473 215e 00       		.sleb128 0
 7474 215f 00       		.byte	0
 7475 2160 00       		.byte	0
 7476 2161 00       		.byte	0
 7477 2162 31       		.uleb128 0x31
 7478 2163 531C0000 		.4byte	0x1c53
 7479 2167 4A010000 		.4byte	.LBB237
 7480 216b 8E000000 		.4byte	.LBE237-.LBB237
 7481 216f 01       		.byte	0x1
 7482 2170 C601     		.2byte	0x1c6
 7483 2172 57230000 		.4byte	0x2357
 7484 2176 27       		.uleb128 0x27
 7485 2177 841C0000 		.4byte	0x1c84
 7486 217b B31C0000 		.4byte	.LLST204
 7487 217f 27       		.uleb128 0x27
 7488 2180 781C0000 		.4byte	0x1c78
 7489 2184 C71C0000 		.4byte	.LLST205
 7490 2188 27       		.uleb128 0x27
 7491 2189 6C1C0000 		.4byte	0x1c6c
 7492 218d DA1C0000 		.4byte	.LLST206
 7493 2191 27       		.uleb128 0x27
 7494 2192 601C0000 		.4byte	0x1c60
 7495 2196 F01C0000 		.4byte	.LLST207
 7496 219a 24       		.uleb128 0x24
 7497 219b 4A010000 		.4byte	.LBB238
 7498 219f 8E000000 		.4byte	.LBE238-.LBB238
ARM GAS  C:\Users\rdn\AppData\Local\Temp\cckhx27q.s 			page 159


 7499 21a3 28       		.uleb128 0x28
 7500 21a4 901C0000 		.4byte	0x1c90
 7501 21a8 161D0000 		.4byte	.LLST208
 7502 21ac 28       		.uleb128 0x28
 7503 21ad 9B1C0000 		.4byte	0x1c9b
 7504 21b1 291D0000 		.4byte	.LLST209
 7505 21b5 28       		.uleb128 0x28
 7506 21b6 A61C0000 		.4byte	0x1ca6
 7507 21ba 3C1D0000 		.4byte	.LLST210
 7508 21be 28       		.uleb128 0x28
 7509 21bf B11C0000 		.4byte	0x1cb1
 7510 21c3 4F1D0000 		.4byte	.LLST211
 7511 21c7 45       		.uleb128 0x45
 7512 21c8 BC1C0000 		.4byte	0x1cbc
 7513 21cc 03       		.uleb128 0x3
 7514 21cd 91       		.byte	0x91
 7515 21ce D87D     		.sleb128 -296
 7516 21d0 31       		.uleb128 0x31
 7517 21d1 A21D0000 		.4byte	0x1da2
 7518 21d5 8A010000 		.4byte	.LBB239
 7519 21d9 20000000 		.4byte	.LBE239-.LBB239
 7520 21dd 01       		.byte	0x1
 7521 21de 6401     		.2byte	0x164
 7522 21e0 47220000 		.4byte	0x2247
 7523 21e4 27       		.uleb128 0x27
 7524 21e5 B91D0000 		.4byte	0x1db9
 7525 21e9 621D0000 		.4byte	.LLST212
 7526 21ed 27       		.uleb128 0x27
 7527 21ee AE1D0000 		.4byte	0x1dae
 7528 21f2 A61D0000 		.4byte	.LLST213
 7529 21f6 3C       		.uleb128 0x3c
 7530 21f7 95090000 		.4byte	0x995
 7531 21fb 8A010000 		.4byte	.LBB241
 7532 21ff E0010000 		.4byte	.Ldebug_ranges0+0x1e0
 7533 2203 04       		.byte	0x4
 7534 2204 D4       		.byte	0xd4
 7535 2205 27       		.uleb128 0x27
 7536 2206 B5090000 		.4byte	0x9b5
 7537 220a D51D0000 		.4byte	.LLST214
 7538 220e 27       		.uleb128 0x27
 7539 220f AC090000 		.4byte	0x9ac
 7540 2213 E91D0000 		.4byte	.LLST215
 7541 2217 27       		.uleb128 0x27
 7542 2218 A1090000 		.4byte	0x9a1
 7543 221c 1A1E0000 		.4byte	.LLST216
 7544 2220 29       		.uleb128 0x29
 7545 2221 E0010000 		.4byte	.Ldebug_ranges0+0x1e0
 7546 2225 28       		.uleb128 0x28
 7547 2226 BE090000 		.4byte	0x9be
 7548 222a 491E0000 		.4byte	.LLST217
 7549 222e 39       		.uleb128 0x39
 7550 222f AA010000 		.4byte	.LVL293
 7551 2233 17300000 		.4byte	0x3017
 7552 2237 38       		.uleb128 0x38
 7553 2238 01       		.uleb128 0x1
 7554 2239 50       		.byte	0x50
 7555 223a 03       		.uleb128 0x3
ARM GAS  C:\Users\rdn\AppData\Local\Temp\cckhx27q.s 			page 160


 7556 223b 91       		.byte	0x91
 7557 223c D87D     		.sleb128 -296
 7558 223e 38       		.uleb128 0x38
 7559 223f 01       		.uleb128 0x1
 7560 2240 52       		.byte	0x52
 7561 2241 01       		.uleb128 0x1
 7562 2242 31       		.byte	0x31
 7563 2243 00       		.byte	0
 7564 2244 00       		.byte	0
 7565 2245 00       		.byte	0
 7566 2246 00       		.byte	0
 7567 2247 37       		.uleb128 0x37
 7568 2248 6C010000 		.4byte	.LVL285
 7569 224c 22300000 		.4byte	0x3022
 7570 2250 6E220000 		.4byte	0x226e
 7571 2254 38       		.uleb128 0x38
 7572 2255 01       		.uleb128 0x1
 7573 2256 50       		.byte	0x50
 7574 2257 03       		.uleb128 0x3
 7575 2258 91       		.byte	0x91
 7576 2259 D87D     		.sleb128 -296
 7577 225b 38       		.uleb128 0x38
 7578 225c 01       		.uleb128 0x1
 7579 225d 51       		.byte	0x51
 7580 225e 01       		.uleb128 0x1
 7581 225f 31       		.byte	0x31
 7582 2260 38       		.uleb128 0x38
 7583 2261 01       		.uleb128 0x1
 7584 2262 52       		.byte	0x52
 7585 2263 03       		.uleb128 0x3
 7586 2264 91       		.byte	0x91
 7587 2265 04       		.sleb128 4
 7588 2266 06       		.byte	0x6
 7589 2267 38       		.uleb128 0x38
 7590 2268 01       		.uleb128 0x1
 7591 2269 53       		.byte	0x53
 7592 226a 02       		.uleb128 0x2
 7593 226b 75       		.byte	0x75
 7594 226c 00       		.sleb128 0
 7595 226d 00       		.byte	0
 7596 226e 37       		.uleb128 0x37
 7597 226f 76010000 		.4byte	.LVL286
 7598 2273 2D300000 		.4byte	0x302d
 7599 2277 8F220000 		.4byte	0x228f
 7600 227b 38       		.uleb128 0x38
 7601 227c 01       		.uleb128 0x1
 7602 227d 50       		.byte	0x50
 7603 227e 03       		.uleb128 0x3
 7604 227f 91       		.byte	0x91
 7605 2280 D87D     		.sleb128 -296
 7606 2282 38       		.uleb128 0x38
 7607 2283 01       		.uleb128 0x1
 7608 2284 51       		.byte	0x51
 7609 2285 02       		.uleb128 0x2
 7610 2286 78       		.byte	0x78
 7611 2287 00       		.sleb128 0
 7612 2288 38       		.uleb128 0x38
ARM GAS  C:\Users\rdn\AppData\Local\Temp\cckhx27q.s 			page 161


 7613 2289 01       		.uleb128 0x1
 7614 228a 52       		.byte	0x52
 7615 228b 02       		.uleb128 0x2
 7616 228c 7A       		.byte	0x7a
 7617 228d 00       		.sleb128 0
 7618 228e 00       		.byte	0
 7619 228f 37       		.uleb128 0x37
 7620 2290 82010000 		.4byte	.LVL287
 7621 2294 38300000 		.4byte	0x3038
 7622 2298 B6220000 		.4byte	0x22b6
 7623 229c 38       		.uleb128 0x38
 7624 229d 01       		.uleb128 0x1
 7625 229e 50       		.byte	0x50
 7626 229f 03       		.uleb128 0x3
 7627 22a0 91       		.byte	0x91
 7628 22a1 D87D     		.sleb128 -296
 7629 22a3 38       		.uleb128 0x38
 7630 22a4 01       		.uleb128 0x1
 7631 22a5 51       		.byte	0x51
 7632 22a6 02       		.uleb128 0x2
 7633 22a7 79       		.byte	0x79
 7634 22a8 00       		.sleb128 0
 7635 22a9 38       		.uleb128 0x38
 7636 22aa 01       		.uleb128 0x1
 7637 22ab 52       		.byte	0x52
 7638 22ac 02       		.uleb128 0x2
 7639 22ad 78       		.byte	0x78
 7640 22ae 00       		.sleb128 0
 7641 22af 38       		.uleb128 0x38
 7642 22b0 01       		.uleb128 0x1
 7643 22b1 53       		.byte	0x53
 7644 22b2 02       		.uleb128 0x2
 7645 22b3 76       		.byte	0x76
 7646 22b4 00       		.sleb128 0
 7647 22b5 00       		.byte	0
 7648 22b6 37       		.uleb128 0x37
 7649 22b7 8A010000 		.4byte	.LVL288
 7650 22bb 43300000 		.4byte	0x3043
 7651 22bf D1220000 		.4byte	0x22d1
 7652 22c3 38       		.uleb128 0x38
 7653 22c4 01       		.uleb128 0x1
 7654 22c5 50       		.byte	0x50
 7655 22c6 03       		.uleb128 0x3
 7656 22c7 91       		.byte	0x91
 7657 22c8 D87D     		.sleb128 -296
 7658 22ca 38       		.uleb128 0x38
 7659 22cb 01       		.uleb128 0x1
 7660 22cc 51       		.byte	0x51
 7661 22cd 02       		.uleb128 0x2
 7662 22ce 77       		.byte	0x77
 7663 22cf 00       		.sleb128 0
 7664 22d0 00       		.byte	0
 7665 22d1 37       		.uleb128 0x37
 7666 22d2 B2010000 		.4byte	.LVL294
 7667 22d6 4E300000 		.4byte	0x304e
 7668 22da EC220000 		.4byte	0x22ec
 7669 22de 38       		.uleb128 0x38
ARM GAS  C:\Users\rdn\AppData\Local\Temp\cckhx27q.s 			page 162


 7670 22df 01       		.uleb128 0x1
 7671 22e0 50       		.byte	0x50
 7672 22e1 03       		.uleb128 0x3
 7673 22e2 91       		.byte	0x91
 7674 22e3 D87D     		.sleb128 -296
 7675 22e5 38       		.uleb128 0x38
 7676 22e6 01       		.uleb128 0x1
 7677 22e7 51       		.byte	0x51
 7678 22e8 02       		.uleb128 0x2
 7679 22e9 7B       		.byte	0x7b
 7680 22ea 00       		.sleb128 0
 7681 22eb 00       		.byte	0
 7682 22ec 37       		.uleb128 0x37
 7683 22ed C0010000 		.4byte	.LVL295
 7684 22f1 59300000 		.4byte	0x3059
 7685 22f5 08230000 		.4byte	0x2308
 7686 22f9 38       		.uleb128 0x38
 7687 22fa 01       		.uleb128 0x1
 7688 22fb 50       		.byte	0x50
 7689 22fc 03       		.uleb128 0x3
 7690 22fd 91       		.byte	0x91
 7691 22fe D87D     		.sleb128 -296
 7692 2300 38       		.uleb128 0x38
 7693 2301 01       		.uleb128 0x1
 7694 2302 51       		.byte	0x51
 7695 2303 03       		.uleb128 0x3
 7696 2304 91       		.byte	0x91
 7697 2305 D87C     		.sleb128 -424
 7698 2307 00       		.byte	0
 7699 2308 37       		.uleb128 0x37
 7700 2309 D2010000 		.4byte	.LVL296
 7701 230d 64300000 		.4byte	0x3064
 7702 2311 44230000 		.4byte	0x2344
 7703 2315 38       		.uleb128 0x38
 7704 2316 01       		.uleb128 0x1
 7705 2317 50       		.byte	0x50
 7706 2318 03       		.uleb128 0x3
 7707 2319 91       		.byte	0x91
 7708 231a D87D     		.sleb128 -296
 7709 231c 38       		.uleb128 0x38
 7710 231d 01       		.uleb128 0x1
 7711 231e 51       		.byte	0x51
 7712 231f 02       		.uleb128 0x2
 7713 2320 79       		.byte	0x79
 7714 2321 00       		.sleb128 0
 7715 2322 38       		.uleb128 0x38
 7716 2323 01       		.uleb128 0x1
 7717 2324 52       		.byte	0x52
 7718 2325 02       		.uleb128 0x2
 7719 2326 78       		.byte	0x78
 7720 2327 00       		.sleb128 0
 7721 2328 38       		.uleb128 0x38
 7722 2329 01       		.uleb128 0x1
 7723 232a 53       		.byte	0x53
 7724 232b 02       		.uleb128 0x2
 7725 232c 7A       		.byte	0x7a
 7726 232d 00       		.sleb128 0
ARM GAS  C:\Users\rdn\AppData\Local\Temp\cckhx27q.s 			page 163


 7727 232e 38       		.uleb128 0x38
 7728 232f 02       		.uleb128 0x2
 7729 2330 7D       		.byte	0x7d
 7730 2331 00       		.sleb128 0
 7731 2332 02       		.uleb128 0x2
 7732 2333 75       		.byte	0x75
 7733 2334 00       		.sleb128 0
 7734 2335 38       		.uleb128 0x38
 7735 2336 02       		.uleb128 0x2
 7736 2337 7D       		.byte	0x7d
 7737 2338 04       		.sleb128 4
 7738 2339 02       		.uleb128 0x2
 7739 233a 76       		.byte	0x76
 7740 233b 00       		.sleb128 0
 7741 233c 38       		.uleb128 0x38
 7742 233d 02       		.uleb128 0x2
 7743 233e 7D       		.byte	0x7d
 7744 233f 08       		.sleb128 8
 7745 2340 02       		.uleb128 0x2
 7746 2341 74       		.byte	0x74
 7747 2342 00       		.sleb128 0
 7748 2343 00       		.byte	0
 7749 2344 39       		.uleb128 0x39
 7750 2345 D8010000 		.4byte	.LVL297
 7751 2349 6F300000 		.4byte	0x306f
 7752 234d 38       		.uleb128 0x38
 7753 234e 01       		.uleb128 0x1
 7754 234f 50       		.byte	0x50
 7755 2350 03       		.uleb128 0x3
 7756 2351 91       		.byte	0x91
 7757 2352 D87D     		.sleb128 -296
 7758 2354 00       		.byte	0
 7759 2355 00       		.byte	0
 7760 2356 00       		.byte	0
 7761 2357 46       		.uleb128 0x46
 7762 2358 48000000 		.4byte	.LVL260
 7763 235c 02       		.uleb128 0x2
 7764 235d 76       		.byte	0x76
 7765 235e 00       		.sleb128 0
 7766 235f 38       		.uleb128 0x38
 7767 2360 01       		.uleb128 0x1
 7768 2361 50       		.byte	0x50
 7769 2362 02       		.uleb128 0x2
 7770 2363 74       		.byte	0x74
 7771 2364 00       		.sleb128 0
 7772 2365 38       		.uleb128 0x38
 7773 2366 01       		.uleb128 0x1
 7774 2367 51       		.byte	0x51
 7775 2368 03       		.uleb128 0x3
 7776 2369 F3       		.byte	0xf3
 7777 236a 01       		.uleb128 0x1
 7778 236b 52       		.byte	0x52
 7779 236c 38       		.uleb128 0x38
 7780 236d 01       		.uleb128 0x1
 7781 236e 52       		.byte	0x52
 7782 236f 03       		.uleb128 0x3
 7783 2370 F3       		.byte	0xf3
ARM GAS  C:\Users\rdn\AppData\Local\Temp\cckhx27q.s 			page 164


 7784 2371 01       		.uleb128 0x1
 7785 2372 53       		.byte	0x53
 7786 2373 00       		.byte	0
 7787 2374 00       		.byte	0
 7788 2375 0D       		.uleb128 0xd
 7789 2376 A0230000 		.4byte	0x23a0
 7790 237a 85230000 		.4byte	0x2385
 7791 237e 0E       		.uleb128 0xe
 7792 237f 37020000 		.4byte	0x237
 7793 2383 03       		.byte	0x3
 7794 2384 00       		.byte	0
 7795 2385 10       		.uleb128 0x10
 7796 2386 04       		.byte	0x4
 7797 2387 8B230000 		.4byte	0x238b
 7798 238b 47       		.uleb128 0x47
 7799 238c A0230000 		.4byte	0x23a0
 7800 2390 48       		.uleb128 0x48
 7801 2391 82040000 		.4byte	0x482
 7802 2395 48       		.uleb128 0x48
 7803 2396 D80A0000 		.4byte	0xad8
 7804 239a 48       		.uleb128 0x48
 7805 239b 9F000000 		.4byte	0x9f
 7806 239f 00       		.byte	0
 7807 23a0 12       		.uleb128 0x12
 7808 23a1 85230000 		.4byte	0x2385
 7809 23a5 12       		.uleb128 0x12
 7810 23a6 75230000 		.4byte	0x2375
 7811 23aa 33       		.uleb128 0x33
 7812 23ab 5F090000 		.4byte	0x95f
 7813 23af 00000000 		.4byte	.LFB50
 7814 23b3 84000000 		.4byte	.LFE50-.LFB50
 7815 23b7 01       		.uleb128 0x1
 7816 23b8 9C       		.byte	0x9c
 7817 23b9 2C240000 		.4byte	0x242c
 7818 23bd 27       		.uleb128 0x27
 7819 23be 70090000 		.4byte	0x970
 7820 23c2 5F1E0000 		.4byte	.LLST218
 7821 23c6 27       		.uleb128 0x27
 7822 23c7 7C090000 		.4byte	0x97c
 7823 23cb 801E0000 		.4byte	.LLST219
 7824 23cf 27       		.uleb128 0x27
 7825 23d0 88090000 		.4byte	0x988
 7826 23d4 AC1E0000 		.4byte	.LLST220
 7827 23d8 3D       		.uleb128 0x3d
 7828 23d9 1E000000 		.4byte	.LBB248
 7829 23dd 5A000000 		.4byte	.LBE248-.LBB248
 7830 23e1 01240000 		.4byte	0x2401
 7831 23e5 27       		.uleb128 0x27
 7832 23e6 70090000 		.4byte	0x970
 7833 23ea CD1E0000 		.4byte	.LLST221
 7834 23ee 27       		.uleb128 0x27
 7835 23ef 88090000 		.4byte	0x988
 7836 23f3 EB1E0000 		.4byte	.LLST222
 7837 23f7 27       		.uleb128 0x27
 7838 23f8 7C090000 		.4byte	0x97c
 7839 23fc FE1E0000 		.4byte	.LLST223
 7840 2400 00       		.byte	0
ARM GAS  C:\Users\rdn\AppData\Local\Temp\cckhx27q.s 			page 165


 7841 2401 37       		.uleb128 0x37
 7842 2402 0E000000 		.4byte	.LVL306
 7843 2406 09080000 		.4byte	0x809
 7844 240a 1B240000 		.4byte	0x241b
 7845 240e 38       		.uleb128 0x38
 7846 240f 01       		.uleb128 0x1
 7847 2410 50       		.byte	0x50
 7848 2411 02       		.uleb128 0x2
 7849 2412 75       		.byte	0x75
 7850 2413 00       		.sleb128 0
 7851 2414 38       		.uleb128 0x38
 7852 2415 01       		.uleb128 0x1
 7853 2416 51       		.byte	0x51
 7854 2417 02       		.uleb128 0x2
 7855 2418 74       		.byte	0x74
 7856 2419 00       		.sleb128 0
 7857 241a 00       		.byte	0
 7858 241b 39       		.uleb128 0x39
 7859 241c 1A000000 		.4byte	.LVL307
 7860 2420 2F080000 		.4byte	0x82f
 7861 2424 38       		.uleb128 0x38
 7862 2425 01       		.uleb128 0x1
 7863 2426 51       		.byte	0x51
 7864 2427 02       		.uleb128 0x2
 7865 2428 74       		.byte	0x74
 7866 2429 00       		.sleb128 0
 7867 242a 00       		.byte	0
 7868 242b 00       		.byte	0
 7869 242c 3E       		.uleb128 0x3e
 7870 242d 44050000 		.4byte	.LASF187
 7871 2431 01       		.byte	0x1
 7872 2432 A902     		.2byte	0x2a9
 7873 2434 A6000000 		.4byte	0xa6
 7874 2438 00000000 		.4byte	.LFB51
 7875 243c 0A000000 		.4byte	.LFE51-.LFB51
 7876 2440 01       		.uleb128 0x1
 7877 2441 9C       		.byte	0x9c
 7878 2442 84240000 		.4byte	0x2484
 7879 2446 2B       		.uleb128 0x2b
 7880 2447 D3030000 		.4byte	.LASF143
 7881 244b 01       		.byte	0x1
 7882 244c A902     		.2byte	0x2a9
 7883 244e 9F000000 		.4byte	0x9f
 7884 2452 111F0000 		.4byte	.LLST224
 7885 2456 2B       		.uleb128 0x2b
 7886 2457 45010000 		.4byte	.LASF144
 7887 245b 01       		.byte	0x1
 7888 245c A902     		.2byte	0x2a9
 7889 245e 9F000000 		.4byte	0x9f
 7890 2462 3D1F0000 		.4byte	.LLST225
 7891 2466 3A       		.uleb128 0x3a
 7892 2467 0A000000 		.4byte	.LVL319
 7893 246b 5F090000 		.4byte	0x95f
 7894 246f 38       		.uleb128 0x38
 7895 2470 01       		.uleb128 0x1
 7896 2471 50       		.byte	0x50
 7897 2472 01       		.uleb128 0x1
ARM GAS  C:\Users\rdn\AppData\Local\Temp\cckhx27q.s 			page 166


 7898 2473 30       		.byte	0x30
 7899 2474 38       		.uleb128 0x38
 7900 2475 01       		.uleb128 0x1
 7901 2476 51       		.byte	0x51
 7902 2477 03       		.uleb128 0x3
 7903 2478 F3       		.byte	0xf3
 7904 2479 01       		.uleb128 0x1
 7905 247a 50       		.byte	0x50
 7906 247b 38       		.uleb128 0x38
 7907 247c 01       		.uleb128 0x1
 7908 247d 52       		.byte	0x52
 7909 247e 03       		.uleb128 0x3
 7910 247f F3       		.byte	0xf3
 7911 2480 01       		.uleb128 0x1
 7912 2481 51       		.byte	0x51
 7913 2482 00       		.byte	0
 7914 2483 00       		.byte	0
 7915 2484 13       		.uleb128 0x13
 7916 2485 29000000 		.4byte	.LASF188
 7917 2489 02       		.byte	0x2
 7918 248a 3B       		.byte	0x3b
 7919 248b 9F000000 		.4byte	0x9f
 7920 248f 03       		.byte	0x3
 7921 2490 A9240000 		.4byte	0x24a9
 7922 2494 14       		.uleb128 0x14
 7923 2495 647400   		.ascii	"dt\000"
 7924 2498 02       		.byte	0x2
 7925 2499 3B       		.byte	0x3b
 7926 249a EF000000 		.4byte	0xef
 7927 249e 14       		.uleb128 0x14
 7928 249f 737200   		.ascii	"sr\000"
 7929 24a2 02       		.byte	0x2
 7930 24a3 3B       		.byte	0x3b
 7931 24a4 1E010000 		.4byte	0x11e
 7932 24a8 00       		.byte	0
 7933 24a9 3E       		.uleb128 0x3e
 7934 24aa C5070000 		.4byte	.LASF189
 7935 24ae 01       		.byte	0x1
 7936 24af B102     		.2byte	0x2b1
 7937 24b1 88040000 		.4byte	0x488
 7938 24b5 00000000 		.4byte	.LFB52
 7939 24b9 38010000 		.4byte	.LFE52-.LFB52
 7940 24bd 01       		.uleb128 0x1
 7941 24be 9C       		.byte	0x9c
 7942 24bf 73260000 		.4byte	0x2673
 7943 24c3 2B       		.uleb128 0x2b
 7944 24c4 74050000 		.4byte	.LASF136
 7945 24c8 01       		.byte	0x1
 7946 24c9 B202     		.2byte	0x2b2
 7947 24cb 20020000 		.4byte	0x220
 7948 24cf 691F0000 		.4byte	.LLST226
 7949 24d3 2B       		.uleb128 0x2b
 7950 24d4 D3030000 		.4byte	.LASF143
 7951 24d8 01       		.byte	0x1
 7952 24d9 B202     		.2byte	0x2b2
 7953 24db 9F000000 		.4byte	0x9f
 7954 24df 8A1F0000 		.4byte	.LLST227
ARM GAS  C:\Users\rdn\AppData\Local\Temp\cckhx27q.s 			page 167


 7955 24e3 2B       		.uleb128 0x2b
 7956 24e4 45010000 		.4byte	.LASF144
 7957 24e8 01       		.byte	0x1
 7958 24e9 B202     		.2byte	0x2b2
 7959 24eb 9F000000 		.4byte	0x9f
 7960 24ef CF1F0000 		.4byte	.LLST228
 7961 24f3 2B       		.uleb128 0x2b
 7962 24f4 00020000 		.4byte	.LASF177
 7963 24f8 01       		.byte	0x1
 7964 24f9 B202     		.2byte	0x2b2
 7965 24fb 9F000000 		.4byte	0x9f
 7966 24ff F01F0000 		.4byte	.LLST229
 7967 2503 3F       		.uleb128 0x3f
 7968 2504 6D656D00 		.ascii	"mem\000"
 7969 2508 01       		.byte	0x1
 7970 2509 B202     		.2byte	0x2b2
 7971 250b 95040000 		.4byte	0x495
 7972 250f 4F200000 		.4byte	.LLST230
 7973 2513 2C       		.uleb128 0x2c
 7974 2514 647400   		.ascii	"dt\000"
 7975 2517 01       		.byte	0x1
 7976 2518 B702     		.2byte	0x2b7
 7977 251a EF000000 		.4byte	0xef
 7978 251e 6F200000 		.4byte	.LLST231
 7979 2522 2C       		.uleb128 0x2c
 7980 2523 737200   		.ascii	"sr\000"
 7981 2526 01       		.byte	0x1
 7982 2527 B802     		.2byte	0x2b8
 7983 2529 1E010000 		.4byte	0x11e
 7984 252d 82200000 		.4byte	.LLST232
 7985 2531 40       		.uleb128 0x40
 7986 2532 1C020000 		.4byte	.LASF55
 7987 2536 01       		.byte	0x1
 7988 2537 B902     		.2byte	0x2b9
 7989 2539 1E010000 		.4byte	0x11e
 7990 253d 95200000 		.4byte	.LLST233
 7991 2541 40       		.uleb128 0x40
 7992 2542 52030000 		.4byte	.LASF157
 7993 2546 01       		.byte	0x1
 7994 2547 BE02     		.2byte	0x2be
 7995 2549 88040000 		.4byte	0x488
 7996 254d B3200000 		.4byte	.LLST234
 7997 2551 2D       		.uleb128 0x2d
 7998 2552 6E6800   		.ascii	"nh\000"
 7999 2555 01       		.byte	0x1
 8000 2556 BF02     		.2byte	0x2bf
 8001 2558 9F000000 		.4byte	0x9f
 8002 255c 2D       		.uleb128 0x2d
 8003 255d 6E7300   		.ascii	"ns\000"
 8004 2560 01       		.byte	0x1
 8005 2561 C002     		.2byte	0x2c0
 8006 2563 9F000000 		.4byte	0x9f
 8007 2567 2D       		.uleb128 0x2d
 8008 2568 6E6400   		.ascii	"nd\000"
 8009 256b 01       		.byte	0x1
 8010 256c C102     		.2byte	0x2c1
 8011 256e 9F000000 		.4byte	0x9f
ARM GAS  C:\Users\rdn\AppData\Local\Temp\cckhx27q.s 			page 168


 8012 2572 31       		.uleb128 0x31
 8013 2573 84240000 		.4byte	0x2484
 8014 2577 42000000 		.4byte	.LBB258
 8015 257b 22000000 		.4byte	.LBE258-.LBB258
 8016 257f 01       		.byte	0x1
 8017 2580 BF02     		.2byte	0x2bf
 8018 2582 99250000 		.4byte	0x2599
 8019 2586 27       		.uleb128 0x27
 8020 2587 9E240000 		.4byte	0x249e
 8021 258b C6200000 		.4byte	.LLST235
 8022 258f 27       		.uleb128 0x27
 8023 2590 94240000 		.4byte	0x2494
 8024 2594 D9200000 		.4byte	.LLST236
 8025 2598 00       		.byte	0
 8026 2599 2E       		.uleb128 0x2e
 8027 259a B0170000 		.4byte	0x17b0
 8028 259e 64000000 		.4byte	.LBB260
 8029 25a2 F8010000 		.4byte	.Ldebug_ranges0+0x1f8
 8030 25a6 01       		.byte	0x1
 8031 25a7 C102     		.2byte	0x2c1
 8032 25a9 C0250000 		.4byte	0x25c0
 8033 25ad 27       		.uleb128 0x27
 8034 25ae CA170000 		.4byte	0x17ca
 8035 25b2 EC200000 		.4byte	.LLST237
 8036 25b6 27       		.uleb128 0x27
 8037 25b7 C0170000 		.4byte	0x17c0
 8038 25bb FF200000 		.4byte	.LLST238
 8039 25bf 00       		.byte	0
 8040 25c0 2E       		.uleb128 0x2e
 8041 25c1 C9070000 		.4byte	0x7c9
 8042 25c5 68000000 		.4byte	.LBB264
 8043 25c9 18020000 		.4byte	.Ldebug_ranges0+0x218
 8044 25cd 01       		.byte	0x1
 8045 25ce C002     		.2byte	0x2c0
 8046 25d0 E7250000 		.4byte	0x25e7
 8047 25d4 27       		.uleb128 0x27
 8048 25d5 E3070000 		.4byte	0x7e3
 8049 25d9 12210000 		.4byte	.LLST239
 8050 25dd 27       		.uleb128 0x27
 8051 25de D9070000 		.4byte	0x7d9
 8052 25e2 25210000 		.4byte	.LLST240
 8053 25e6 00       		.byte	0
 8054 25e7 37       		.uleb128 0x37
 8055 25e8 18000000 		.4byte	.LVL324
 8056 25ec 09080000 		.4byte	0x809
 8057 25f0 01260000 		.4byte	0x2601
 8058 25f4 38       		.uleb128 0x38
 8059 25f5 01       		.uleb128 0x1
 8060 25f6 50       		.byte	0x50
 8061 25f7 02       		.uleb128 0x2
 8062 25f8 7A       		.byte	0x7a
 8063 25f9 00       		.sleb128 0
 8064 25fa 38       		.uleb128 0x38
 8065 25fb 01       		.uleb128 0x1
 8066 25fc 51       		.byte	0x51
 8067 25fd 02       		.uleb128 0x2
 8068 25fe 75       		.byte	0x75
ARM GAS  C:\Users\rdn\AppData\Local\Temp\cckhx27q.s 			page 169


 8069 25ff 00       		.sleb128 0
 8070 2600 00       		.byte	0
 8071 2601 37       		.uleb128 0x37
 8072 2602 22000000 		.4byte	.LVL326
 8073 2606 2F080000 		.4byte	0x82f
 8074 260a 15260000 		.4byte	0x2615
 8075 260e 38       		.uleb128 0x38
 8076 260f 01       		.uleb128 0x1
 8077 2610 51       		.byte	0x51
 8078 2611 02       		.uleb128 0x2
 8079 2612 75       		.byte	0x75
 8080 2613 00       		.sleb128 0
 8081 2614 00       		.byte	0
 8082 2615 37       		.uleb128 0x37
 8083 2616 2C000000 		.4byte	.LVL328
 8084 261a 2F080000 		.4byte	0x82f
 8085 261e 2F260000 		.4byte	0x262f
 8086 2622 38       		.uleb128 0x38
 8087 2623 01       		.uleb128 0x1
 8088 2624 50       		.byte	0x50
 8089 2625 02       		.uleb128 0x2
 8090 2626 77       		.byte	0x77
 8091 2627 00       		.sleb128 0
 8092 2628 38       		.uleb128 0x38
 8093 2629 01       		.uleb128 0x1
 8094 262a 51       		.byte	0x51
 8095 262b 02       		.uleb128 0x2
 8096 262c 75       		.byte	0x75
 8097 262d 00       		.sleb128 0
 8098 262e 00       		.byte	0
 8099 262f 37       		.uleb128 0x37
 8100 2630 8C000000 		.4byte	.LVL335
 8101 2634 A02F0000 		.4byte	0x2fa0
 8102 2638 4E260000 		.4byte	0x264e
 8103 263c 38       		.uleb128 0x38
 8104 263d 01       		.uleb128 0x1
 8105 263e 50       		.byte	0x50
 8106 263f 02       		.uleb128 0x2
 8107 2640 74       		.byte	0x74
 8108 2641 00       		.sleb128 0
 8109 2642 38       		.uleb128 0x38
 8110 2643 01       		.uleb128 0x1
 8111 2644 51       		.byte	0x51
 8112 2645 01       		.uleb128 0x1
 8113 2646 30       		.byte	0x30
 8114 2647 38       		.uleb128 0x38
 8115 2648 01       		.uleb128 0x1
 8116 2649 52       		.byte	0x52
 8117 264a 02       		.uleb128 0x2
 8118 264b 08       		.byte	0x8
 8119 264c BC       		.byte	0xbc
 8120 264d 00       		.byte	0
 8121 264e 37       		.uleb128 0x37
 8122 264f B6000000 		.4byte	.LVL336
 8123 2653 7A300000 		.4byte	0x307a
 8124 2657 63260000 		.4byte	0x2663
 8125 265b 38       		.uleb128 0x38
ARM GAS  C:\Users\rdn\AppData\Local\Temp\cckhx27q.s 			page 170


 8126 265c 01       		.uleb128 0x1
 8127 265d 50       		.byte	0x50
 8128 265e 03       		.uleb128 0x3
 8129 265f 74       		.byte	0x74
 8130 2660 9C01     		.sleb128 156
 8131 2662 00       		.byte	0
 8132 2663 39       		.uleb128 0x39
 8133 2664 1A010000 		.4byte	.LVL339
 8134 2668 A02F0000 		.4byte	0x2fa0
 8135 266c 38       		.uleb128 0x38
 8136 266d 01       		.uleb128 0x1
 8137 266e 51       		.byte	0x51
 8138 266f 01       		.uleb128 0x1
 8139 2670 30       		.byte	0x30
 8140 2671 00       		.byte	0
 8141 2672 00       		.byte	0
 8142 2673 3E       		.uleb128 0x3e
 8143 2674 D10A0000 		.4byte	.LASF190
 8144 2678 01       		.byte	0x1
 8145 2679 D502     		.2byte	0x2d5
 8146 267b 88040000 		.4byte	0x488
 8147 267f 00000000 		.4byte	.LFB53
 8148 2683 16000000 		.4byte	.LFE53-.LFB53
 8149 2687 01       		.uleb128 0x1
 8150 2688 9C       		.byte	0x9c
 8151 2689 FA260000 		.4byte	0x26fa
 8152 268d 2B       		.uleb128 0x2b
 8153 268e D3030000 		.4byte	.LASF143
 8154 2692 01       		.byte	0x1
 8155 2693 D602     		.2byte	0x2d6
 8156 2695 9F000000 		.4byte	0x9f
 8157 2699 38210000 		.4byte	.LLST241
 8158 269d 2B       		.uleb128 0x2b
 8159 269e 45010000 		.4byte	.LASF144
 8160 26a2 01       		.byte	0x1
 8161 26a3 D602     		.2byte	0x2d6
 8162 26a5 9F000000 		.4byte	0x9f
 8163 26a9 64210000 		.4byte	.LLST242
 8164 26ad 2B       		.uleb128 0x2b
 8165 26ae 00020000 		.4byte	.LASF177
 8166 26b2 01       		.byte	0x1
 8167 26b3 D602     		.2byte	0x2d6
 8168 26b5 9F000000 		.4byte	0x9f
 8169 26b9 90210000 		.4byte	.LLST243
 8170 26bd 3F       		.uleb128 0x3f
 8171 26be 6D656D00 		.ascii	"mem\000"
 8172 26c2 01       		.byte	0x1
 8173 26c3 D602     		.2byte	0x2d6
 8174 26c5 95040000 		.4byte	0x495
 8175 26c9 BC210000 		.4byte	.LLST244
 8176 26cd 39       		.uleb128 0x39
 8177 26ce 10000000 		.4byte	.LVL349
 8178 26d2 A9240000 		.4byte	0x24a9
 8179 26d6 38       		.uleb128 0x38
 8180 26d7 01       		.uleb128 0x1
 8181 26d8 50       		.byte	0x50
 8182 26d9 01       		.uleb128 0x1
ARM GAS  C:\Users\rdn\AppData\Local\Temp\cckhx27q.s 			page 171


 8183 26da 30       		.byte	0x30
 8184 26db 38       		.uleb128 0x38
 8185 26dc 01       		.uleb128 0x1
 8186 26dd 51       		.byte	0x51
 8187 26de 03       		.uleb128 0x3
 8188 26df F3       		.byte	0xf3
 8189 26e0 01       		.uleb128 0x1
 8190 26e1 50       		.byte	0x50
 8191 26e2 38       		.uleb128 0x38
 8192 26e3 01       		.uleb128 0x1
 8193 26e4 52       		.byte	0x52
 8194 26e5 03       		.uleb128 0x3
 8195 26e6 F3       		.byte	0xf3
 8196 26e7 01       		.uleb128 0x1
 8197 26e8 51       		.byte	0x51
 8198 26e9 38       		.uleb128 0x38
 8199 26ea 01       		.uleb128 0x1
 8200 26eb 53       		.byte	0x53
 8201 26ec 03       		.uleb128 0x3
 8202 26ed F3       		.byte	0xf3
 8203 26ee 01       		.uleb128 0x1
 8204 26ef 52       		.byte	0x52
 8205 26f0 38       		.uleb128 0x38
 8206 26f1 02       		.uleb128 0x2
 8207 26f2 7D       		.byte	0x7d
 8208 26f3 00       		.sleb128 0
 8209 26f4 03       		.uleb128 0x3
 8210 26f5 F3       		.byte	0xf3
 8211 26f6 01       		.uleb128 0x1
 8212 26f7 53       		.byte	0x53
 8213 26f8 00       		.byte	0
 8214 26f9 00       		.byte	0
 8215 26fa 49       		.uleb128 0x49
 8216 26fb 27080000 		.4byte	.LASF191
 8217 26ff 01       		.byte	0x1
 8218 2700 3502     		.2byte	0x235
 8219 2702 9F000000 		.4byte	0x9f
 8220 2706 01       		.byte	0x1
 8221 2707 8B270000 		.4byte	0x278b
 8222 270b 1A       		.uleb128 0x1a
 8223 270c 52030000 		.4byte	.LASF157
 8224 2710 01       		.byte	0x1
 8225 2711 3502     		.2byte	0x235
 8226 2713 88040000 		.4byte	0x488
 8227 2717 1A       		.uleb128 0x1a
 8228 2718 91040000 		.4byte	.LASF192
 8229 271c 01       		.byte	0x1
 8230 271d 3602     		.2byte	0x236
 8231 271f D80A0000 		.4byte	0xad8
 8232 2723 1A       		.uleb128 0x1a
 8233 2724 80020000 		.4byte	.LASF170
 8234 2728 01       		.byte	0x1
 8235 2729 3602     		.2byte	0x236
 8236 272b 9F000000 		.4byte	0x9f
 8237 272f 1A       		.uleb128 0x1a
 8238 2730 DD000000 		.4byte	.LASF181
 8239 2734 01       		.byte	0x1
ARM GAS  C:\Users\rdn\AppData\Local\Temp\cckhx27q.s 			page 172


 8240 2735 3602     		.2byte	0x236
 8241 2737 8C1D0000 		.4byte	0x1d8c
 8242 273b 2D       		.uleb128 0x2d
 8243 273c 647400   		.ascii	"dt\000"
 8244 273f 01       		.byte	0x1
 8245 2740 3802     		.2byte	0x238
 8246 2742 EF000000 		.4byte	0xef
 8247 2746 2D       		.uleb128 0x2d
 8248 2747 737200   		.ascii	"sr\000"
 8249 274a 01       		.byte	0x1
 8250 274b 3902     		.2byte	0x239
 8251 274d 1E010000 		.4byte	0x11e
 8252 2751 2D       		.uleb128 0x2d
 8253 2752 786600   		.ascii	"xf\000"
 8254 2755 01       		.byte	0x1
 8255 2756 3B02     		.2byte	0x23b
 8256 2758 F00A0000 		.4byte	0xaf0
 8257 275c 2D       		.uleb128 0x2d
 8258 275d 6E7300   		.ascii	"ns\000"
 8259 2760 01       		.byte	0x1
 8260 2761 3C02     		.2byte	0x23c
 8261 2763 9F000000 		.4byte	0x9f
 8262 2767 2D       		.uleb128 0x2d
 8263 2768 6E6500   		.ascii	"ne\000"
 8264 276b 01       		.byte	0x1
 8265 276c 3D02     		.2byte	0x23d
 8266 276e 9F000000 		.4byte	0x9f
 8267 2772 42       		.uleb128 0x42
 8268 2773 6F050000 		.4byte	.LASF147
 8269 2777 01       		.byte	0x1
 8270 2778 3F02     		.2byte	0x23f
 8271 277a 0F060000 		.4byte	0x60f
 8272 277e 2D       		.uleb128 0x2d
 8273 277f 72657400 		.ascii	"ret\000"
 8274 2783 01       		.byte	0x1
 8275 2784 4002     		.2byte	0x240
 8276 2786 9F000000 		.4byte	0x9f
 8277 278a 00       		.byte	0
 8278 278b 13       		.uleb128 0x13
 8279 278c CE050000 		.4byte	.LASF193
 8280 2790 04       		.byte	0x4
 8281 2791 EA       		.byte	0xea
 8282 2792 9F000000 		.4byte	0x9f
 8283 2796 03       		.byte	0x3
 8284 2797 A7270000 		.4byte	0x27a7
 8285 279b 15       		.uleb128 0x15
 8286 279c 6F050000 		.4byte	.LASF147
 8287 27a0 04       		.byte	0x4
 8288 27a1 EA       		.byte	0xea
 8289 27a2 C31D0000 		.4byte	0x1dc3
 8290 27a6 00       		.byte	0
 8291 27a7 41       		.uleb128 0x41
 8292 27a8 EA030000 		.4byte	.LASF194
 8293 27ac 01       		.byte	0x1
 8294 27ad 9102     		.2byte	0x291
 8295 27af 01       		.byte	0x1
 8296 27b0 EE270000 		.4byte	0x27ee
ARM GAS  C:\Users\rdn\AppData\Local\Temp\cckhx27q.s 			page 173


 8297 27b4 1A       		.uleb128 0x1a
 8298 27b5 52030000 		.4byte	.LASF157
 8299 27b9 01       		.byte	0x1
 8300 27ba 9102     		.2byte	0x291
 8301 27bc 88040000 		.4byte	0x488
 8302 27c0 2D       		.uleb128 0x2d
 8303 27c1 647400   		.ascii	"dt\000"
 8304 27c4 01       		.byte	0x1
 8305 27c5 9302     		.2byte	0x293
 8306 27c7 EF000000 		.4byte	0xef
 8307 27cb 42       		.uleb128 0x42
 8308 27cc 1C020000 		.4byte	.LASF55
 8309 27d0 01       		.byte	0x1
 8310 27d1 9402     		.2byte	0x294
 8311 27d3 1E010000 		.4byte	0x11e
 8312 27d7 2D       		.uleb128 0x2d
 8313 27d8 6E6800   		.ascii	"nh\000"
 8314 27db 01       		.byte	0x1
 8315 27dc 9502     		.2byte	0x295
 8316 27de 9F000000 		.4byte	0x9f
 8317 27e2 2D       		.uleb128 0x2d
 8318 27e3 6E7300   		.ascii	"ns\000"
 8319 27e6 01       		.byte	0x1
 8320 27e7 9602     		.2byte	0x296
 8321 27e9 9F000000 		.4byte	0x9f
 8322 27ed 00       		.byte	0
 8323 27ee 41       		.uleb128 0x41
 8324 27ef B2030000 		.4byte	.LASF195
 8325 27f3 01       		.byte	0x1
 8326 27f4 6402     		.2byte	0x264
 8327 27f6 01       		.byte	0x1
 8328 27f7 9C280000 		.4byte	0x289c
 8329 27fb 1A       		.uleb128 0x1a
 8330 27fc 52030000 		.4byte	.LASF157
 8331 2800 01       		.byte	0x1
 8332 2801 6402     		.2byte	0x264
 8333 2803 88040000 		.4byte	0x488
 8334 2807 1A       		.uleb128 0x1a
 8335 2808 DD000000 		.4byte	.LASF181
 8336 280c 01       		.byte	0x1
 8337 280d 6502     		.2byte	0x265
 8338 280f C91C0000 		.4byte	0x1cc9
 8339 2813 1A       		.uleb128 0x1a
 8340 2814 80020000 		.4byte	.LASF170
 8341 2818 01       		.byte	0x1
 8342 2819 6502     		.2byte	0x265
 8343 281b 9F000000 		.4byte	0x9f
 8344 281f 2D       		.uleb128 0x2d
 8345 2820 647400   		.ascii	"dt\000"
 8346 2823 01       		.byte	0x1
 8347 2824 6702     		.2byte	0x267
 8348 2826 EF000000 		.4byte	0xef
 8349 282a 2D       		.uleb128 0x2d
 8350 282b 737200   		.ascii	"sr\000"
 8351 282e 01       		.byte	0x1
 8352 282f 6802     		.2byte	0x268
 8353 2831 1E010000 		.4byte	0x11e
ARM GAS  C:\Users\rdn\AppData\Local\Temp\cckhx27q.s 			page 174


 8354 2835 42       		.uleb128 0x42
 8355 2836 1C020000 		.4byte	.LASF55
 8356 283a 01       		.byte	0x1
 8357 283b 6902     		.2byte	0x269
 8358 283d 1E010000 		.4byte	0x11e
 8359 2841 2D       		.uleb128 0x2d
 8360 2842 786600   		.ascii	"xf\000"
 8361 2845 01       		.byte	0x1
 8362 2846 6B02     		.2byte	0x26b
 8363 2848 F00A0000 		.4byte	0xaf0
 8364 284c 2D       		.uleb128 0x2d
 8365 284d 6E7300   		.ascii	"ns\000"
 8366 2850 01       		.byte	0x1
 8367 2851 6C02     		.2byte	0x26c
 8368 2853 9F000000 		.4byte	0x9f
 8369 2857 2D       		.uleb128 0x2d
 8370 2858 6E6500   		.ascii	"ne\000"
 8371 285b 01       		.byte	0x1
 8372 285c 6D02     		.2byte	0x26d
 8373 285e 9F000000 		.4byte	0x9f
 8374 2862 2D       		.uleb128 0x2d
 8375 2863 786700   		.ascii	"xg\000"
 8376 2866 01       		.byte	0x1
 8377 2867 6F02     		.2byte	0x26f
 8378 2869 F00A0000 		.4byte	0xaf0
 8379 286d 2D       		.uleb128 0x2d
 8380 286e 787300   		.ascii	"xs\000"
 8381 2871 01       		.byte	0x1
 8382 2872 7002     		.2byte	0x270
 8383 2874 F00A0000 		.4byte	0xaf0
 8384 2878 2D       		.uleb128 0x2d
 8385 2879 786400   		.ascii	"xd\000"
 8386 287c 01       		.byte	0x1
 8387 287d 7202     		.2byte	0x272
 8388 287f F00A0000 		.4byte	0xaf0
 8389 2883 2D       		.uleb128 0x2d
 8390 2884 786800   		.ascii	"xh\000"
 8391 2887 01       		.byte	0x1
 8392 2888 7302     		.2byte	0x273
 8393 288a F00A0000 		.4byte	0xaf0
 8394 288e 1D       		.uleb128 0x1d
 8395 288f 2D       		.uleb128 0x2d
 8396 2890 627700   		.ascii	"bw\000"
 8397 2893 01       		.byte	0x1
 8398 2894 7602     		.2byte	0x276
 8399 2896 A5040000 		.4byte	0x4a5
 8400 289a 00       		.byte	0
 8401 289b 00       		.byte	0
 8402 289c 3E       		.uleb128 0x3e
 8403 289d 500C0000 		.4byte	.LASF196
 8404 28a1 01       		.byte	0x1
 8405 28a2 DE02     		.2byte	0x2de
 8406 28a4 9F000000 		.4byte	0x9f
 8407 28a8 00000000 		.4byte	.LFB54
 8408 28ac 90020000 		.4byte	.LFE54-.LFB54
 8409 28b0 01       		.uleb128 0x1
 8410 28b1 9C       		.byte	0x9c
ARM GAS  C:\Users\rdn\AppData\Local\Temp\cckhx27q.s 			page 175


 8411 28b2 E22E0000 		.4byte	0x2ee2
 8412 28b6 2B       		.uleb128 0x2b
 8413 28b7 52030000 		.4byte	.LASF157
 8414 28bb 01       		.byte	0x1
 8415 28bc DE02     		.2byte	0x2de
 8416 28be 88040000 		.4byte	0x488
 8417 28c2 E9210000 		.4byte	.LLST245
 8418 28c6 3F       		.uleb128 0x3f
 8419 28c7 696E00   		.ascii	"in\000"
 8420 28ca 01       		.byte	0x1
 8421 28cb DF02     		.2byte	0x2df
 8422 28cd D80A0000 		.4byte	0xad8
 8423 28d1 41220000 		.4byte	.LLST246
 8424 28d5 2B       		.uleb128 0x2b
 8425 28d6 80020000 		.4byte	.LASF170
 8426 28da 01       		.byte	0x1
 8427 28db DF02     		.2byte	0x2df
 8428 28dd 9F000000 		.4byte	0x9f
 8429 28e1 9F220000 		.4byte	.LLST247
 8430 28e5 3F       		.uleb128 0x3f
 8431 28e6 666D7400 		.ascii	"fmt\000"
 8432 28ea 01       		.byte	0x1
 8433 28eb DF02     		.2byte	0x2df
 8434 28ed 59040000 		.4byte	0x459
 8435 28f1 E1220000 		.4byte	.LLST248
 8436 28f5 3F       		.uleb128 0x3f
 8437 28f6 70636D00 		.ascii	"pcm\000"
 8438 28fa 01       		.byte	0x1
 8439 28fb DF02     		.2byte	0x2df
 8440 28fd 95040000 		.4byte	0x495
 8441 2901 1B230000 		.4byte	.LLST249
 8442 2905 2B       		.uleb128 0x2b
 8443 2906 CA090000 		.4byte	.LASF151
 8444 290a 01       		.byte	0x1
 8445 290b DF02     		.2byte	0x2df
 8446 290d 9F000000 		.4byte	0x9f
 8447 2911 3B230000 		.4byte	.LLST250
 8448 2915 43       		.uleb128 0x43
 8449 2916 D2020000 		.4byte	.LASF197
 8450 291a 01       		.byte	0x1
 8451 291b E102     		.2byte	0x2e1
 8452 291d 122F0000 		.4byte	0x2f12
 8453 2921 05       		.uleb128 0x5
 8454 2922 03       		.byte	0x3
 8455 2923 10000000 		.4byte	store.6009
 8456 2927 43       		.uleb128 0x43
 8457 2928 DD000000 		.4byte	.LASF181
 8458 292c 01       		.byte	0x1
 8459 292d F302     		.2byte	0x2f3
 8460 292f 75070000 		.4byte	0x775
 8461 2933 03       		.uleb128 0x3
 8462 2934 91       		.byte	0x91
 8463 2935 D47E     		.sleb128 -172
 8464 2937 2D       		.uleb128 0x2d
 8465 2938 72657400 		.ascii	"ret\000"
 8466 293c 01       		.byte	0x1
 8467 293d F502     		.2byte	0x2f5
ARM GAS  C:\Users\rdn\AppData\Local\Temp\cckhx27q.s 			page 176


 8468 293f 9F000000 		.4byte	0x9f
 8469 2943 31       		.uleb128 0x31
 8470 2944 04090000 		.4byte	0x904
 8471 2948 26000000 		.4byte	.LBB296
 8472 294c 18000000 		.4byte	.LBE296-.LBB296
 8473 2950 01       		.byte	0x1
 8474 2951 EE02     		.2byte	0x2ee
 8475 2953 6A290000 		.4byte	0x296a
 8476 2957 27       		.uleb128 0x27
 8477 2958 1E090000 		.4byte	0x91e
 8478 295c 5B230000 		.4byte	.LLST251
 8479 2960 27       		.uleb128 0x27
 8480 2961 14090000 		.4byte	0x914
 8481 2965 6E230000 		.4byte	.LLST252
 8482 2969 00       		.byte	0
 8483 296a 31       		.uleb128 0x31
 8484 296b FA260000 		.4byte	0x26fa
 8485 296f 44000000 		.4byte	.LBB298
 8486 2973 D8000000 		.4byte	.LBE298-.LBB298
 8487 2977 01       		.byte	0x1
 8488 2978 F502     		.2byte	0x2f5
 8489 297a DD2B0000 		.4byte	0x2bdd
 8490 297e 27       		.uleb128 0x27
 8491 297f 2F270000 		.4byte	0x272f
 8492 2983 81230000 		.4byte	.LLST253
 8493 2987 27       		.uleb128 0x27
 8494 2988 23270000 		.4byte	0x2723
 8495 298c B0230000 		.4byte	.LLST254
 8496 2990 27       		.uleb128 0x27
 8497 2991 17270000 		.4byte	0x2717
 8498 2995 C3230000 		.4byte	.LLST255
 8499 2999 27       		.uleb128 0x27
 8500 299a 0B270000 		.4byte	0x270b
 8501 299e EF230000 		.4byte	.LLST256
 8502 29a2 24       		.uleb128 0x24
 8503 29a3 44000000 		.4byte	.LBB299
 8504 29a7 D8000000 		.4byte	.LBE299-.LBB299
 8505 29ab 28       		.uleb128 0x28
 8506 29ac 3B270000 		.4byte	0x273b
 8507 29b0 0D240000 		.4byte	.LLST257
 8508 29b4 28       		.uleb128 0x28
 8509 29b5 46270000 		.4byte	0x2746
 8510 29b9 2D240000 		.4byte	.LLST258
 8511 29bd 28       		.uleb128 0x28
 8512 29be 51270000 		.4byte	0x2751
 8513 29c2 40240000 		.4byte	.LLST259
 8514 29c6 44       		.uleb128 0x44
 8515 29c7 5C270000 		.4byte	0x275c
 8516 29cb 44       		.uleb128 0x44
 8517 29cc 67270000 		.4byte	0x2767
 8518 29d0 45       		.uleb128 0x45
 8519 29d1 72270000 		.4byte	0x2772
 8520 29d5 03       		.uleb128 0x3
 8521 29d6 91       		.byte	0x91
 8522 29d7 9C7E     		.sleb128 -228
 8523 29d9 28       		.uleb128 0x28
 8524 29da 7E270000 		.4byte	0x277e
ARM GAS  C:\Users\rdn\AppData\Local\Temp\cckhx27q.s 			page 177


 8525 29de 72240000 		.4byte	.LLST260
 8526 29e2 2E       		.uleb128 0x2e
 8527 29e3 C9070000 		.4byte	0x7c9
 8528 29e7 44000000 		.4byte	.LBB300
 8529 29eb 30020000 		.4byte	.Ldebug_ranges0+0x230
 8530 29ef 01       		.byte	0x1
 8531 29f0 3C02     		.2byte	0x23c
 8532 29f2 092A0000 		.4byte	0x2a09
 8533 29f6 27       		.uleb128 0x27
 8534 29f7 E3070000 		.4byte	0x7e3
 8535 29fb BD240000 		.4byte	.LLST261
 8536 29ff 27       		.uleb128 0x27
 8537 2a00 D9070000 		.4byte	0x7d9
 8538 2a04 D0240000 		.4byte	.LLST262
 8539 2a08 00       		.byte	0
 8540 2a09 2E       		.uleb128 0x2e
 8541 2a0a BA080000 		.4byte	0x8ba
 8542 2a0e 4E000000 		.4byte	.LBB305
 8543 2a12 50020000 		.4byte	.Ldebug_ranges0+0x250
 8544 2a16 01       		.byte	0x1
 8545 2a17 3D02     		.2byte	0x23d
 8546 2a19 302A0000 		.4byte	0x2a30
 8547 2a1d 27       		.uleb128 0x27
 8548 2a1e D4080000 		.4byte	0x8d4
 8549 2a22 E3240000 		.4byte	.LLST263
 8550 2a26 27       		.uleb128 0x27
 8551 2a27 CA080000 		.4byte	0x8ca
 8552 2a2b F6240000 		.4byte	.LLST264
 8553 2a2f 00       		.byte	0
 8554 2a30 31       		.uleb128 0x31
 8555 2a31 8B270000 		.4byte	0x278b
 8556 2a35 98000000 		.4byte	.LBB310
 8557 2a39 1E000000 		.4byte	.LBE310-.LBB310
 8558 2a3d 01       		.byte	0x1
 8559 2a3e 4D02     		.2byte	0x24d
 8560 2a40 B02A0000 		.4byte	0x2ab0
 8561 2a44 27       		.uleb128 0x27
 8562 2a45 9B270000 		.4byte	0x279b
 8563 2a49 09250000 		.4byte	.LLST265
 8564 2a4d 26       		.uleb128 0x26
 8565 2a4e D6090000 		.4byte	0x9d6
 8566 2a52 98000000 		.4byte	.LBB311
 8567 2a56 1E000000 		.4byte	.LBE311-.LBB311
 8568 2a5a 04       		.byte	0x4
 8569 2a5b EC       		.byte	0xec
 8570 2a5c 27       		.uleb128 0x27
 8571 2a5d F1090000 		.4byte	0x9f1
 8572 2a61 38250000 		.4byte	.LLST266
 8573 2a65 27       		.uleb128 0x27
 8574 2a66 E6090000 		.4byte	0x9e6
 8575 2a6a 09250000 		.4byte	.LLST265
 8576 2a6e 24       		.uleb128 0x24
 8577 2a6f 98000000 		.4byte	.LBB312
 8578 2a73 1E000000 		.4byte	.LBE312-.LBB312
 8579 2a77 28       		.uleb128 0x28
 8580 2a78 FA090000 		.4byte	0x9fa
 8581 2a7c 4C250000 		.4byte	.LLST268
ARM GAS  C:\Users\rdn\AppData\Local\Temp\cckhx27q.s 			page 178


 8582 2a80 3D       		.uleb128 0x3d
 8583 2a81 A0000000 		.4byte	.LBB313
 8584 2a85 0E000000 		.4byte	.LBE313-.LBB313
 8585 2a89 972A0000 		.4byte	0x2a97
 8586 2a8d 28       		.uleb128 0x28
 8587 2a8e 060A0000 		.4byte	0xa06
 8588 2a92 62250000 		.4byte	.LLST269
 8589 2a96 00       		.byte	0
 8590 2a97 39       		.uleb128 0x39
 8591 2a98 B6000000 		.4byte	.LVL375
 8592 2a9c 85300000 		.4byte	0x3085
 8593 2aa0 38       		.uleb128 0x38
 8594 2aa1 01       		.uleb128 0x1
 8595 2aa2 50       		.byte	0x50
 8596 2aa3 03       		.uleb128 0x3
 8597 2aa4 91       		.byte	0x91
 8598 2aa5 9C7E     		.sleb128 -228
 8599 2aa7 38       		.uleb128 0x38
 8600 2aa8 01       		.uleb128 0x1
 8601 2aa9 51       		.byte	0x51
 8602 2aaa 01       		.uleb128 0x1
 8603 2aab 31       		.byte	0x31
 8604 2aac 00       		.byte	0
 8605 2aad 00       		.byte	0
 8606 2aae 00       		.byte	0
 8607 2aaf 00       		.byte	0
 8608 2ab0 37       		.uleb128 0x37
 8609 2ab1 60000000 		.4byte	.LVL363
 8610 2ab5 22300000 		.4byte	0x3022
 8611 2ab9 D72A0000 		.4byte	0x2ad7
 8612 2abd 38       		.uleb128 0x38
 8613 2abe 01       		.uleb128 0x1
 8614 2abf 50       		.byte	0x50
 8615 2ac0 03       		.uleb128 0x3
 8616 2ac1 91       		.byte	0x91
 8617 2ac2 9C7E     		.sleb128 -228
 8618 2ac4 38       		.uleb128 0x38
 8619 2ac5 01       		.uleb128 0x1
 8620 2ac6 51       		.byte	0x51
 8621 2ac7 01       		.uleb128 0x1
 8622 2ac8 30       		.byte	0x30
 8623 2ac9 38       		.uleb128 0x38
 8624 2aca 01       		.uleb128 0x1
 8625 2acb 52       		.byte	0x52
 8626 2acc 03       		.uleb128 0x3
 8627 2acd F3       		.byte	0xf3
 8628 2ace 01       		.uleb128 0x1
 8629 2acf 51       		.byte	0x51
 8630 2ad0 38       		.uleb128 0x38
 8631 2ad1 01       		.uleb128 0x1
 8632 2ad2 53       		.byte	0x53
 8633 2ad3 02       		.uleb128 0x2
 8634 2ad4 7A       		.byte	0x7a
 8635 2ad5 00       		.sleb128 0
 8636 2ad6 00       		.byte	0
 8637 2ad7 37       		.uleb128 0x37
 8638 2ad8 6A000000 		.4byte	.LVL365
ARM GAS  C:\Users\rdn\AppData\Local\Temp\cckhx27q.s 			page 179


 8639 2adc 90300000 		.4byte	0x3090
 8640 2ae0 F92A0000 		.4byte	0x2af9
 8641 2ae4 38       		.uleb128 0x38
 8642 2ae5 01       		.uleb128 0x1
 8643 2ae6 50       		.byte	0x50
 8644 2ae7 03       		.uleb128 0x3
 8645 2ae8 91       		.byte	0x91
 8646 2ae9 9C7E     		.sleb128 -228
 8647 2aeb 38       		.uleb128 0x38
 8648 2aec 01       		.uleb128 0x1
 8649 2aed 51       		.byte	0x51
 8650 2aee 02       		.uleb128 0x2
 8651 2aef 76       		.byte	0x76
 8652 2af0 00       		.sleb128 0
 8653 2af1 38       		.uleb128 0x38
 8654 2af2 01       		.uleb128 0x1
 8655 2af3 52       		.byte	0x52
 8656 2af4 03       		.uleb128 0x3
 8657 2af5 91       		.byte	0x91
 8658 2af6 D47E     		.sleb128 -172
 8659 2af8 00       		.byte	0
 8660 2af9 37       		.uleb128 0x37
 8661 2afa 7E000000 		.4byte	.LVL367
 8662 2afe 9B300000 		.4byte	0x309b
 8663 2b02 202B0000 		.4byte	0x2b20
 8664 2b06 38       		.uleb128 0x38
 8665 2b07 01       		.uleb128 0x1
 8666 2b08 50       		.byte	0x50
 8667 2b09 03       		.uleb128 0x3
 8668 2b0a 91       		.byte	0x91
 8669 2b0b 9C7E     		.sleb128 -228
 8670 2b0d 38       		.uleb128 0x38
 8671 2b0e 01       		.uleb128 0x1
 8672 2b0f 51       		.byte	0x51
 8673 2b10 02       		.uleb128 0x2
 8674 2b11 75       		.byte	0x75
 8675 2b12 00       		.sleb128 0
 8676 2b13 38       		.uleb128 0x38
 8677 2b14 01       		.uleb128 0x1
 8678 2b15 52       		.byte	0x52
 8679 2b16 02       		.uleb128 0x2
 8680 2b17 76       		.byte	0x76
 8681 2b18 00       		.sleb128 0
 8682 2b19 38       		.uleb128 0x38
 8683 2b1a 01       		.uleb128 0x1
 8684 2b1b 53       		.byte	0x53
 8685 2b1c 02       		.uleb128 0x2
 8686 2b1d 79       		.byte	0x79
 8687 2b1e 00       		.sleb128 0
 8688 2b1f 00       		.byte	0
 8689 2b20 37       		.uleb128 0x37
 8690 2b21 94000000 		.4byte	.LVL369
 8691 2b25 A6300000 		.4byte	0x30a6
 8692 2b29 492B0000 		.4byte	0x2b49
 8693 2b2d 38       		.uleb128 0x38
 8694 2b2e 01       		.uleb128 0x1
 8695 2b2f 50       		.byte	0x50
ARM GAS  C:\Users\rdn\AppData\Local\Temp\cckhx27q.s 			page 180


 8696 2b30 03       		.uleb128 0x3
 8697 2b31 91       		.byte	0x91
 8698 2b32 9C7E     		.sleb128 -228
 8699 2b34 38       		.uleb128 0x38
 8700 2b35 01       		.uleb128 0x1
 8701 2b36 51       		.byte	0x51
 8702 2b37 02       		.uleb128 0x2
 8703 2b38 75       		.byte	0x75
 8704 2b39 00       		.sleb128 0
 8705 2b3a 38       		.uleb128 0x38
 8706 2b3b 01       		.uleb128 0x1
 8707 2b3c 53       		.byte	0x53
 8708 2b3d 02       		.uleb128 0x2
 8709 2b3e 7A       		.byte	0x7a
 8710 2b3f 00       		.sleb128 0
 8711 2b40 38       		.uleb128 0x38
 8712 2b41 02       		.uleb128 0x2
 8713 2b42 7D       		.byte	0x7d
 8714 2b43 00       		.sleb128 0
 8715 2b44 03       		.uleb128 0x3
 8716 2b45 91       		.byte	0x91
 8717 2b46 FC7E     		.sleb128 -132
 8718 2b48 00       		.byte	0
 8719 2b49 37       		.uleb128 0x37
 8720 2b4a C8000000 		.4byte	.LVL376
 8721 2b4e B1300000 		.4byte	0x30b1
 8722 2b52 652B0000 		.4byte	0x2b65
 8723 2b56 38       		.uleb128 0x38
 8724 2b57 01       		.uleb128 0x1
 8725 2b58 50       		.byte	0x50
 8726 2b59 03       		.uleb128 0x3
 8727 2b5a 91       		.byte	0x91
 8728 2b5b 9C7E     		.sleb128 -228
 8729 2b5d 38       		.uleb128 0x38
 8730 2b5e 01       		.uleb128 0x1
 8731 2b5f 51       		.byte	0x51
 8732 2b60 03       		.uleb128 0x3
 8733 2b61 91       		.byte	0x91
 8734 2b62 E07E     		.sleb128 -160
 8735 2b64 00       		.byte	0
 8736 2b65 37       		.uleb128 0x37
 8737 2b66 DA000000 		.4byte	.LVL378
 8738 2b6a BC300000 		.4byte	0x30bc
 8739 2b6e 812B0000 		.4byte	0x2b81
 8740 2b72 38       		.uleb128 0x38
 8741 2b73 01       		.uleb128 0x1
 8742 2b74 50       		.byte	0x50
 8743 2b75 03       		.uleb128 0x3
 8744 2b76 91       		.byte	0x91
 8745 2b77 9C7E     		.sleb128 -228
 8746 2b79 38       		.uleb128 0x38
 8747 2b7a 01       		.uleb128 0x1
 8748 2b7b 51       		.byte	0x51
 8749 2b7c 03       		.uleb128 0x3
 8750 2b7d 91       		.byte	0x91
 8751 2b7e D87E     		.sleb128 -168
 8752 2b80 00       		.byte	0
ARM GAS  C:\Users\rdn\AppData\Local\Temp\cckhx27q.s 			page 181


 8753 2b81 37       		.uleb128 0x37
 8754 2b82 FA000000 		.4byte	.LVL380
 8755 2b86 C7300000 		.4byte	0x30c7
 8756 2b8a B72B0000 		.4byte	0x2bb7
 8757 2b8e 38       		.uleb128 0x38
 8758 2b8f 01       		.uleb128 0x1
 8759 2b90 50       		.byte	0x50
 8760 2b91 03       		.uleb128 0x3
 8761 2b92 91       		.byte	0x91
 8762 2b93 9C7E     		.sleb128 -228
 8763 2b95 38       		.uleb128 0x38
 8764 2b96 01       		.uleb128 0x1
 8765 2b97 51       		.byte	0x51
 8766 2b98 02       		.uleb128 0x2
 8767 2b99 75       		.byte	0x75
 8768 2b9a 00       		.sleb128 0
 8769 2b9b 38       		.uleb128 0x38
 8770 2b9c 01       		.uleb128 0x1
 8771 2b9d 52       		.byte	0x52
 8772 2b9e 02       		.uleb128 0x2
 8773 2b9f 76       		.byte	0x76
 8774 2ba0 00       		.sleb128 0
 8775 2ba1 38       		.uleb128 0x38
 8776 2ba2 02       		.uleb128 0x2
 8777 2ba3 7D       		.byte	0x7d
 8778 2ba4 00       		.sleb128 0
 8779 2ba5 02       		.uleb128 0x2
 8780 2ba6 7A       		.byte	0x7a
 8781 2ba7 00       		.sleb128 0
 8782 2ba8 38       		.uleb128 0x38
 8783 2ba9 02       		.uleb128 0x2
 8784 2baa 7D       		.byte	0x7d
 8785 2bab 04       		.sleb128 4
 8786 2bac 02       		.uleb128 0x2
 8787 2bad 79       		.byte	0x79
 8788 2bae 00       		.sleb128 0
 8789 2baf 38       		.uleb128 0x38
 8790 2bb0 02       		.uleb128 0x2
 8791 2bb1 7D       		.byte	0x7d
 8792 2bb2 08       		.sleb128 8
 8793 2bb3 02       		.uleb128 0x2
 8794 2bb4 77       		.byte	0x77
 8795 2bb5 00       		.sleb128 0
 8796 2bb6 00       		.byte	0
 8797 2bb7 37       		.uleb128 0x37
 8798 2bb8 16010000 		.4byte	.LVL384
 8799 2bbc A02F0000 		.4byte	0x2fa0
 8800 2bc0 CA2B0000 		.4byte	0x2bca
 8801 2bc4 38       		.uleb128 0x38
 8802 2bc5 01       		.uleb128 0x1
 8803 2bc6 51       		.byte	0x51
 8804 2bc7 01       		.uleb128 0x1
 8805 2bc8 30       		.byte	0x30
 8806 2bc9 00       		.byte	0
 8807 2bca 39       		.uleb128 0x39
 8808 2bcb 1C010000 		.4byte	.LVL385
 8809 2bcf D2300000 		.4byte	0x30d2
ARM GAS  C:\Users\rdn\AppData\Local\Temp\cckhx27q.s 			page 182


 8810 2bd3 38       		.uleb128 0x38
 8811 2bd4 01       		.uleb128 0x1
 8812 2bd5 50       		.byte	0x50
 8813 2bd6 03       		.uleb128 0x3
 8814 2bd7 91       		.byte	0x91
 8815 2bd8 9C7E     		.sleb128 -228
 8816 2bda 00       		.byte	0
 8817 2bdb 00       		.byte	0
 8818 2bdc 00       		.byte	0
 8819 2bdd 2E       		.uleb128 0x2e
 8820 2bde EE270000 		.4byte	0x27ee
 8821 2be2 28010000 		.4byte	.LBB316
 8822 2be6 70020000 		.4byte	.Ldebug_ranges0+0x270
 8823 2bea 01       		.byte	0x1
 8824 2beb F702     		.2byte	0x2f7
 8825 2bed 2B2E0000 		.4byte	0x2e2b
 8826 2bf1 27       		.uleb128 0x27
 8827 2bf2 13280000 		.4byte	0x2813
 8828 2bf6 75250000 		.4byte	.LLST270
 8829 2bfa 27       		.uleb128 0x27
 8830 2bfb 07280000 		.4byte	0x2807
 8831 2bff 93250000 		.4byte	.LLST271
 8832 2c03 27       		.uleb128 0x27
 8833 2c04 FB270000 		.4byte	0x27fb
 8834 2c08 BE250000 		.4byte	.LLST272
 8835 2c0c 29       		.uleb128 0x29
 8836 2c0d 70020000 		.4byte	.Ldebug_ranges0+0x270
 8837 2c11 28       		.uleb128 0x28
 8838 2c12 1F280000 		.4byte	0x281f
 8839 2c16 DC250000 		.4byte	.LLST273
 8840 2c1a 28       		.uleb128 0x28
 8841 2c1b 2A280000 		.4byte	0x282a
 8842 2c1f FA250000 		.4byte	.LLST274
 8843 2c23 28       		.uleb128 0x28
 8844 2c24 35280000 		.4byte	0x2835
 8845 2c28 18260000 		.4byte	.LLST275
 8846 2c2c 28       		.uleb128 0x28
 8847 2c2d 41280000 		.4byte	0x2841
 8848 2c31 3A260000 		.4byte	.LLST276
 8849 2c35 44       		.uleb128 0x44
 8850 2c36 4C280000 		.4byte	0x284c
 8851 2c3a 44       		.uleb128 0x44
 8852 2c3b 57280000 		.4byte	0x2857
 8853 2c3f 28       		.uleb128 0x28
 8854 2c40 62280000 		.4byte	0x2862
 8855 2c44 58260000 		.4byte	.LLST277
 8856 2c48 28       		.uleb128 0x28
 8857 2c49 6D280000 		.4byte	0x286d
 8858 2c4d 85260000 		.4byte	.LLST278
 8859 2c51 28       		.uleb128 0x28
 8860 2c52 78280000 		.4byte	0x2878
 8861 2c56 A3260000 		.4byte	.LLST279
 8862 2c5a 28       		.uleb128 0x28
 8863 2c5b 83280000 		.4byte	0x2883
 8864 2c5f D0260000 		.4byte	.LLST280
 8865 2c63 3D       		.uleb128 0x3d
 8866 2c64 60010000 		.4byte	.LBB318
ARM GAS  C:\Users\rdn\AppData\Local\Temp\cckhx27q.s 			page 183


 8867 2c68 3E000000 		.4byte	.LBE318-.LBB318
 8868 2c6c 1B2D0000 		.4byte	0x2d1b
 8869 2c70 28       		.uleb128 0x28
 8870 2c71 8F280000 		.4byte	0x288f
 8871 2c75 68270000 		.4byte	.LLST281
 8872 2c79 37       		.uleb128 0x37
 8873 2c7a 6E010000 		.4byte	.LVL396
 8874 2c7e DD300000 		.4byte	0x30dd
 8875 2c82 8E2C0000 		.4byte	0x2c8e
 8876 2c86 38       		.uleb128 0x38
 8877 2c87 01       		.uleb128 0x1
 8878 2c88 50       		.byte	0x50
 8879 2c89 03       		.uleb128 0x3
 8880 2c8a 74       		.byte	0x74
 8881 2c8b 9C01     		.sleb128 156
 8882 2c8d 00       		.byte	0
 8883 2c8e 37       		.uleb128 0x37
 8884 2c8f 7A010000 		.4byte	.LVL397
 8885 2c93 E8300000 		.4byte	0x30e8
 8886 2c97 B42C0000 		.4byte	0x2cb4
 8887 2c9b 38       		.uleb128 0x38
 8888 2c9c 01       		.uleb128 0x1
 8889 2c9d 50       		.byte	0x50
 8890 2c9e 02       		.uleb128 0x2
 8891 2c9f 78       		.byte	0x78
 8892 2ca0 00       		.sleb128 0
 8893 2ca1 38       		.uleb128 0x38
 8894 2ca2 01       		.uleb128 0x1
 8895 2ca3 51       		.byte	0x51
 8896 2ca4 02       		.uleb128 0x2
 8897 2ca5 77       		.byte	0x77
 8898 2ca6 00       		.sleb128 0
 8899 2ca7 38       		.uleb128 0x38
 8900 2ca8 01       		.uleb128 0x1
 8901 2ca9 52       		.byte	0x52
 8902 2caa 02       		.uleb128 0x2
 8903 2cab 7B       		.byte	0x7b
 8904 2cac 00       		.sleb128 0
 8905 2cad 38       		.uleb128 0x38
 8906 2cae 01       		.uleb128 0x1
 8907 2caf 53       		.byte	0x53
 8908 2cb0 02       		.uleb128 0x2
 8909 2cb1 75       		.byte	0x75
 8910 2cb2 00       		.sleb128 0
 8911 2cb3 00       		.byte	0
 8912 2cb4 37       		.uleb128 0x37
 8913 2cb5 8C010000 		.4byte	.LVL398
 8914 2cb9 F3300000 		.4byte	0x30f3
 8915 2cbd E32C0000 		.4byte	0x2ce3
 8916 2cc1 38       		.uleb128 0x38
 8917 2cc2 01       		.uleb128 0x1
 8918 2cc3 50       		.byte	0x50
 8919 2cc4 02       		.uleb128 0x2
 8920 2cc5 78       		.byte	0x78
 8921 2cc6 00       		.sleb128 0
 8922 2cc7 38       		.uleb128 0x38
 8923 2cc8 01       		.uleb128 0x1
ARM GAS  C:\Users\rdn\AppData\Local\Temp\cckhx27q.s 			page 184


 8924 2cc9 51       		.byte	0x51
 8925 2cca 02       		.uleb128 0x2
 8926 2ccb 79       		.byte	0x79
 8927 2ccc 00       		.sleb128 0
 8928 2ccd 38       		.uleb128 0x38
 8929 2cce 01       		.uleb128 0x1
 8930 2ccf 52       		.byte	0x52
 8931 2cd0 02       		.uleb128 0x2
 8932 2cd1 76       		.byte	0x76
 8933 2cd2 0C       		.sleb128 12
 8934 2cd3 38       		.uleb128 0x38
 8935 2cd4 01       		.uleb128 0x1
 8936 2cd5 53       		.byte	0x53
 8937 2cd6 02       		.uleb128 0x2
 8938 2cd7 75       		.byte	0x75
 8939 2cd8 00       		.sleb128 0
 8940 2cd9 38       		.uleb128 0x38
 8941 2cda 02       		.uleb128 0x2
 8942 2cdb 7D       		.byte	0x7d
 8943 2cdc 00       		.sleb128 0
 8944 2cdd 04       		.uleb128 0x4
 8945 2cde 91       		.byte	0x91
 8946 2cdf 807E     		.sleb128 -256
 8947 2ce1 06       		.byte	0x6
 8948 2ce2 00       		.byte	0
 8949 2ce3 39       		.uleb128 0x39
 8950 2ce4 9E010000 		.4byte	.LVL399
 8951 2ce8 FE300000 		.4byte	0x30fe
 8952 2cec 38       		.uleb128 0x38
 8953 2ced 01       		.uleb128 0x1
 8954 2cee 50       		.byte	0x50
 8955 2cef 02       		.uleb128 0x2
 8956 2cf0 78       		.byte	0x78
 8957 2cf1 00       		.sleb128 0
 8958 2cf2 38       		.uleb128 0x38
 8959 2cf3 01       		.uleb128 0x1
 8960 2cf4 51       		.byte	0x51
 8961 2cf5 05       		.uleb128 0x5
 8962 2cf6 91       		.byte	0x91
 8963 2cf7 F87D     		.sleb128 -264
 8964 2cf9 94       		.byte	0x94
 8965 2cfa 01       		.byte	0x1
 8966 2cfb 38       		.uleb128 0x38
 8967 2cfc 01       		.uleb128 0x1
 8968 2cfd 52       		.byte	0x52
 8969 2cfe 02       		.uleb128 0x2
 8970 2cff 79       		.byte	0x79
 8971 2d00 00       		.sleb128 0
 8972 2d01 38       		.uleb128 0x38
 8973 2d02 01       		.uleb128 0x1
 8974 2d03 53       		.byte	0x53
 8975 2d04 04       		.uleb128 0x4
 8976 2d05 91       		.byte	0x91
 8977 2d06 807E     		.sleb128 -256
 8978 2d08 06       		.byte	0x6
 8979 2d09 38       		.uleb128 0x38
 8980 2d0a 02       		.uleb128 0x2
ARM GAS  C:\Users\rdn\AppData\Local\Temp\cckhx27q.s 			page 185


 8981 2d0b 7D       		.byte	0x7d
 8982 2d0c 00       		.sleb128 0
 8983 2d0d 04       		.uleb128 0x4
 8984 2d0e 91       		.byte	0x91
 8985 2d0f 887E     		.sleb128 -248
 8986 2d11 06       		.byte	0x6
 8987 2d12 38       		.uleb128 0x38
 8988 2d13 02       		.uleb128 0x2
 8989 2d14 7D       		.byte	0x7d
 8990 2d15 04       		.sleb128 4
 8991 2d16 02       		.uleb128 0x2
 8992 2d17 75       		.byte	0x75
 8993 2d18 00       		.sleb128 0
 8994 2d19 00       		.byte	0
 8995 2d1a 00       		.byte	0
 8996 2d1b 2E       		.uleb128 0x2e
 8997 2d1c C9070000 		.4byte	0x7c9
 8998 2d20 A6010000 		.4byte	.LBB319
 8999 2d24 88020000 		.4byte	.Ldebug_ranges0+0x288
 9000 2d28 01       		.byte	0x1
 9001 2d29 6C02     		.2byte	0x26c
 9002 2d2b 3A2D0000 		.4byte	0x2d3a
 9003 2d2f 23       		.uleb128 0x23
 9004 2d30 E3070000 		.4byte	0x7e3
 9005 2d34 23       		.uleb128 0x23
 9006 2d35 D9070000 		.4byte	0x7d9
 9007 2d39 00       		.byte	0
 9008 2d3a 2E       		.uleb128 0x2e
 9009 2d3b BA080000 		.4byte	0x8ba
 9010 2d3f B2010000 		.4byte	.LBB324
 9011 2d43 A8020000 		.4byte	.Ldebug_ranges0+0x2a8
 9012 2d47 01       		.byte	0x1
 9013 2d48 6D02     		.2byte	0x26d
 9014 2d4a 592D0000 		.4byte	0x2d59
 9015 2d4e 23       		.uleb128 0x23
 9016 2d4f D4080000 		.4byte	0x8d4
 9017 2d53 23       		.uleb128 0x23
 9018 2d54 CA080000 		.4byte	0x8ca
 9019 2d58 00       		.byte	0
 9020 2d59 37       		.uleb128 0x37
 9021 2d5a CE010000 		.4byte	.LVL404
 9022 2d5e 09310000 		.4byte	0x3109
 9023 2d62 892D0000 		.4byte	0x2d89
 9024 2d66 38       		.uleb128 0x38
 9025 2d67 01       		.uleb128 0x1
 9026 2d68 50       		.byte	0x50
 9027 2d69 02       		.uleb128 0x2
 9028 2d6a 78       		.byte	0x78
 9029 2d6b 00       		.sleb128 0
 9030 2d6c 38       		.uleb128 0x38
 9031 2d6d 01       		.uleb128 0x1
 9032 2d6e 51       		.byte	0x51
 9033 2d6f 02       		.uleb128 0x2
 9034 2d70 79       		.byte	0x79
 9035 2d71 00       		.sleb128 0
 9036 2d72 38       		.uleb128 0x38
 9037 2d73 01       		.uleb128 0x1
ARM GAS  C:\Users\rdn\AppData\Local\Temp\cckhx27q.s 			page 186


 9038 2d74 52       		.byte	0x52
 9039 2d75 03       		.uleb128 0x3
 9040 2d76 74       		.byte	0x74
 9041 2d77 9C01     		.sleb128 156
 9042 2d79 38       		.uleb128 0x38
 9043 2d7a 01       		.uleb128 0x1
 9044 2d7b 53       		.byte	0x53
 9045 2d7c 04       		.uleb128 0x4
 9046 2d7d 91       		.byte	0x91
 9047 2d7e 807E     		.sleb128 -256
 9048 2d80 06       		.byte	0x6
 9049 2d81 38       		.uleb128 0x38
 9050 2d82 02       		.uleb128 0x2
 9051 2d83 7D       		.byte	0x7d
 9052 2d84 00       		.sleb128 0
 9053 2d85 02       		.uleb128 0x2
 9054 2d86 75       		.byte	0x75
 9055 2d87 00       		.sleb128 0
 9056 2d88 00       		.byte	0
 9057 2d89 37       		.uleb128 0x37
 9058 2d8a E2010000 		.4byte	.LVL405
 9059 2d8e A02F0000 		.4byte	0x2fa0
 9060 2d92 B32D0000 		.4byte	0x2db3
 9061 2d96 38       		.uleb128 0x38
 9062 2d97 01       		.uleb128 0x1
 9063 2d98 50       		.byte	0x50
 9064 2d99 07       		.uleb128 0x7
 9065 2d9a 7B       		.byte	0x7b
 9066 2d9b 00       		.sleb128 0
 9067 2d9c 32       		.byte	0x32
 9068 2d9d 24       		.byte	0x24
 9069 2d9e 75       		.byte	0x75
 9070 2d9f 00       		.sleb128 0
 9071 2da0 22       		.byte	0x22
 9072 2da1 38       		.uleb128 0x38
 9073 2da2 01       		.uleb128 0x1
 9074 2da3 51       		.byte	0x51
 9075 2da4 02       		.uleb128 0x2
 9076 2da5 76       		.byte	0x76
 9077 2da6 00       		.sleb128 0
 9078 2da7 38       		.uleb128 0x38
 9079 2da8 01       		.uleb128 0x1
 9080 2da9 52       		.byte	0x52
 9081 2daa 07       		.uleb128 0x7
 9082 2dab 77       		.byte	0x77
 9083 2dac 00       		.sleb128 0
 9084 2dad 7B       		.byte	0x7b
 9085 2dae 00       		.sleb128 0
 9086 2daf 1C       		.byte	0x1c
 9087 2db0 32       		.byte	0x32
 9088 2db1 24       		.byte	0x24
 9089 2db2 00       		.byte	0
 9090 2db3 37       		.uleb128 0x37
 9091 2db4 F4010000 		.4byte	.LVL406
 9092 2db8 FE300000 		.4byte	0x30fe
 9093 2dbc EC2D0000 		.4byte	0x2dec
 9094 2dc0 38       		.uleb128 0x38
ARM GAS  C:\Users\rdn\AppData\Local\Temp\cckhx27q.s 			page 187


 9095 2dc1 01       		.uleb128 0x1
 9096 2dc2 50       		.byte	0x50
 9097 2dc3 02       		.uleb128 0x2
 9098 2dc4 78       		.byte	0x78
 9099 2dc5 00       		.sleb128 0
 9100 2dc6 38       		.uleb128 0x38
 9101 2dc7 01       		.uleb128 0x1
 9102 2dc8 51       		.byte	0x51
 9103 2dc9 05       		.uleb128 0x5
 9104 2dca 91       		.byte	0x91
 9105 2dcb F87D     		.sleb128 -264
 9106 2dcd 94       		.byte	0x94
 9107 2dce 01       		.byte	0x1
 9108 2dcf 38       		.uleb128 0x38
 9109 2dd0 01       		.uleb128 0x1
 9110 2dd1 52       		.byte	0x52
 9111 2dd2 02       		.uleb128 0x2
 9112 2dd3 79       		.byte	0x79
 9113 2dd4 00       		.sleb128 0
 9114 2dd5 38       		.uleb128 0x38
 9115 2dd6 01       		.uleb128 0x1
 9116 2dd7 53       		.byte	0x53
 9117 2dd8 02       		.uleb128 0x2
 9118 2dd9 75       		.byte	0x75
 9119 2dda 00       		.sleb128 0
 9120 2ddb 38       		.uleb128 0x38
 9121 2ddc 02       		.uleb128 0x2
 9122 2ddd 7D       		.byte	0x7d
 9123 2dde 00       		.sleb128 0
 9124 2ddf 04       		.uleb128 0x4
 9125 2de0 91       		.byte	0x91
 9126 2de1 887E     		.sleb128 -248
 9127 2de3 06       		.byte	0x6
 9128 2de4 38       		.uleb128 0x38
 9129 2de5 02       		.uleb128 0x2
 9130 2de6 7D       		.byte	0x7d
 9131 2de7 04       		.sleb128 4
 9132 2de8 02       		.uleb128 0x2
 9133 2de9 75       		.byte	0x75
 9134 2dea 00       		.sleb128 0
 9135 2deb 00       		.byte	0
 9136 2dec 39       		.uleb128 0x39
 9137 2ded 1E020000 		.4byte	.LVL409
 9138 2df1 14310000 		.4byte	0x3114
 9139 2df5 38       		.uleb128 0x38
 9140 2df6 01       		.uleb128 0x1
 9141 2df7 50       		.byte	0x50
 9142 2df8 02       		.uleb128 0x2
 9143 2df9 78       		.byte	0x78
 9144 2dfa 00       		.sleb128 0
 9145 2dfb 38       		.uleb128 0x38
 9146 2dfc 01       		.uleb128 0x1
 9147 2dfd 51       		.byte	0x51
 9148 2dfe 05       		.uleb128 0x5
 9149 2dff 91       		.byte	0x91
 9150 2e00 F87D     		.sleb128 -264
 9151 2e02 94       		.byte	0x94
ARM GAS  C:\Users\rdn\AppData\Local\Temp\cckhx27q.s 			page 188


 9152 2e03 01       		.byte	0x1
 9153 2e04 38       		.uleb128 0x38
 9154 2e05 01       		.uleb128 0x1
 9155 2e06 52       		.byte	0x52
 9156 2e07 02       		.uleb128 0x2
 9157 2e08 7A       		.byte	0x7a
 9158 2e09 00       		.sleb128 0
 9159 2e0a 38       		.uleb128 0x38
 9160 2e0b 02       		.uleb128 0x2
 9161 2e0c 7D       		.byte	0x7d
 9162 2e0d 00       		.sleb128 0
 9163 2e0e 02       		.uleb128 0x2
 9164 2e0f 76       		.byte	0x76
 9165 2e10 00       		.sleb128 0
 9166 2e11 38       		.uleb128 0x38
 9167 2e12 02       		.uleb128 0x2
 9168 2e13 7D       		.byte	0x7d
 9169 2e14 04       		.sleb128 4
 9170 2e15 0B       		.uleb128 0xb
 9171 2e16 91       		.byte	0x91
 9172 2e17 907E     		.sleb128 -240
 9173 2e19 06       		.byte	0x6
 9174 2e1a 32       		.byte	0x32
 9175 2e1b 24       		.byte	0x24
 9176 2e1c 91       		.byte	0x91
 9177 2e1d FC7D     		.sleb128 -260
 9178 2e1f 06       		.byte	0x6
 9179 2e20 22       		.byte	0x22
 9180 2e21 38       		.uleb128 0x38
 9181 2e22 02       		.uleb128 0x2
 9182 2e23 7D       		.byte	0x7d
 9183 2e24 08       		.sleb128 8
 9184 2e25 02       		.uleb128 0x2
 9185 2e26 75       		.byte	0x75
 9186 2e27 00       		.sleb128 0
 9187 2e28 00       		.byte	0
 9188 2e29 00       		.byte	0
 9189 2e2a 00       		.byte	0
 9190 2e2b 31       		.uleb128 0x31
 9191 2e2c A7270000 		.4byte	0x27a7
 9192 2e30 30020000 		.4byte	.LBB330
 9193 2e34 3C000000 		.4byte	.LBE330-.LBB330
 9194 2e38 01       		.byte	0x1
 9195 2e39 FB02     		.2byte	0x2fb
 9196 2e3b B92E0000 		.4byte	0x2eb9
 9197 2e3f 27       		.uleb128 0x27
 9198 2e40 B4270000 		.4byte	0x27b4
 9199 2e44 91270000 		.4byte	.LLST282
 9200 2e48 24       		.uleb128 0x24
 9201 2e49 30020000 		.4byte	.LBB331
 9202 2e4d 3C000000 		.4byte	.LBE331-.LBB331
 9203 2e51 28       		.uleb128 0x28
 9204 2e52 C0270000 		.4byte	0x27c0
 9205 2e56 A4270000 		.4byte	.LLST283
 9206 2e5a 28       		.uleb128 0x28
 9207 2e5b CB270000 		.4byte	0x27cb
 9208 2e5f B7270000 		.4byte	.LLST284
ARM GAS  C:\Users\rdn\AppData\Local\Temp\cckhx27q.s 			page 189


 9209 2e63 44       		.uleb128 0x44
 9210 2e64 D7270000 		.4byte	0x27d7
 9211 2e68 44       		.uleb128 0x44
 9212 2e69 E2270000 		.4byte	0x27e2
 9213 2e6d 31       		.uleb128 0x31
 9214 2e6e 84240000 		.4byte	0x2484
 9215 2e72 36020000 		.4byte	.LBB332
 9216 2e76 16000000 		.4byte	.LBE332-.LBB332
 9217 2e7a 01       		.byte	0x1
 9218 2e7b 9502     		.2byte	0x295
 9219 2e7d 942E0000 		.4byte	0x2e94
 9220 2e81 27       		.uleb128 0x27
 9221 2e82 9E240000 		.4byte	0x249e
 9222 2e86 D6270000 		.4byte	.LLST285
 9223 2e8a 27       		.uleb128 0x27
 9224 2e8b 94240000 		.4byte	0x2494
 9225 2e8f E9270000 		.4byte	.LLST286
 9226 2e93 00       		.byte	0
 9227 2e94 2F       		.uleb128 0x2f
 9228 2e95 C9070000 		.4byte	0x7c9
 9229 2e99 50020000 		.4byte	.LBB334
 9230 2e9d 04000000 		.4byte	.LBE334-.LBB334
 9231 2ea1 01       		.byte	0x1
 9232 2ea2 9602     		.2byte	0x296
 9233 2ea4 27       		.uleb128 0x27
 9234 2ea5 E3070000 		.4byte	0x7e3
 9235 2ea9 FC270000 		.4byte	.LLST287
 9236 2ead 27       		.uleb128 0x27
 9237 2eae D9070000 		.4byte	0x7d9
 9238 2eb2 0F280000 		.4byte	.LLST288
 9239 2eb6 00       		.byte	0
 9240 2eb7 00       		.byte	0
 9241 2eb8 00       		.byte	0
 9242 2eb9 46       		.uleb128 0x46
 9243 2eba 30020000 		.4byte	.LVL410
 9244 2ebe 0D       		.uleb128 0xd
 9245 2ebf 91       		.byte	0x91
 9246 2ec0 947E     		.sleb128 -236
 9247 2ec2 06       		.byte	0x6
 9248 2ec3 32       		.byte	0x32
 9249 2ec4 24       		.byte	0x24
 9250 2ec5 03       		.byte	0x3
 9251 2ec6 10000000 		.4byte	.LANCHOR0+16
 9252 2eca 22       		.byte	0x22
 9253 2ecb 06       		.byte	0x6
 9254 2ecc 38       		.uleb128 0x38
 9255 2ecd 01       		.uleb128 0x1
 9256 2ece 50       		.byte	0x50
 9257 2ecf 02       		.uleb128 0x2
 9258 2ed0 74       		.byte	0x74
 9259 2ed1 00       		.sleb128 0
 9260 2ed2 38       		.uleb128 0x38
 9261 2ed3 01       		.uleb128 0x1
 9262 2ed4 51       		.byte	0x51
 9263 2ed5 03       		.uleb128 0x3
 9264 2ed6 91       		.byte	0x91
 9265 2ed7 00       		.sleb128 0
ARM GAS  C:\Users\rdn\AppData\Local\Temp\cckhx27q.s 			page 190


 9266 2ed8 06       		.byte	0x6
 9267 2ed9 38       		.uleb128 0x38
 9268 2eda 01       		.uleb128 0x1
 9269 2edb 52       		.byte	0x52
 9270 2edc 03       		.uleb128 0x3
 9271 2edd 91       		.byte	0x91
 9272 2ede 04       		.sleb128 4
 9273 2edf 06       		.byte	0x6
 9274 2ee0 00       		.byte	0
 9275 2ee1 00       		.byte	0
 9276 2ee2 0D       		.uleb128 0xd
 9277 2ee3 0D2F0000 		.4byte	0x2f0d
 9278 2ee7 F22E0000 		.4byte	0x2ef2
 9279 2eeb 0E       		.uleb128 0xe
 9280 2eec 37020000 		.4byte	0x237
 9281 2ef0 03       		.byte	0x3
 9282 2ef1 00       		.byte	0
 9283 2ef2 10       		.uleb128 0x10
 9284 2ef3 04       		.byte	0x4
 9285 2ef4 F82E0000 		.4byte	0x2ef8
 9286 2ef8 47       		.uleb128 0x47
 9287 2ef9 0D2F0000 		.4byte	0x2f0d
 9288 2efd 48       		.uleb128 0x48
 9289 2efe 88040000 		.4byte	0x488
 9290 2f02 48       		.uleb128 0x48
 9291 2f03 95040000 		.4byte	0x495
 9292 2f07 48       		.uleb128 0x48
 9293 2f08 9F000000 		.4byte	0x9f
 9294 2f0c 00       		.byte	0
 9295 2f0d 12       		.uleb128 0x12
 9296 2f0e F22E0000 		.4byte	0x2ef2
 9297 2f12 12       		.uleb128 0x12
 9298 2f13 E22E0000 		.4byte	0x2ee2
 9299 2f17 0D       		.uleb128 0xd
 9300 2f18 272F0000 		.4byte	0x2f27
 9301 2f1c 272F0000 		.4byte	0x2f27
 9302 2f20 0E       		.uleb128 0xe
 9303 2f21 37020000 		.4byte	0x237
 9304 2f25 06       		.byte	0x6
 9305 2f26 00       		.byte	0
 9306 2f27 12       		.uleb128 0x12
 9307 2f28 9F000000 		.4byte	0x9f
 9308 2f2c 4A       		.uleb128 0x4a
 9309 2f2d A2000000 		.4byte	.LASF198
 9310 2f31 02       		.byte	0x2
 9311 2f32 2A       		.byte	0x2a
 9312 2f33 372F0000 		.4byte	0x2f37
 9313 2f37 12       		.uleb128 0x12
 9314 2f38 172F0000 		.4byte	0x2f17
 9315 2f3c 4A       		.uleb128 0x4a
 9316 2f3d 75000000 		.4byte	.LASF199
 9317 2f41 02       		.byte	0x2
 9318 2f42 2B       		.byte	0x2b
 9319 2f43 472F0000 		.4byte	0x2f47
 9320 2f47 12       		.uleb128 0x12
 9321 2f48 172F0000 		.4byte	0x2f17
 9322 2f4c 4A       		.uleb128 0x4a
ARM GAS  C:\Users\rdn\AppData\Local\Temp\cckhx27q.s 			page 191


 9323 2f4d 7D010000 		.4byte	.LASF200
 9324 2f51 02       		.byte	0x2
 9325 2f52 2C       		.byte	0x2c
 9326 2f53 572F0000 		.4byte	0x2f57
 9327 2f57 12       		.uleb128 0x12
 9328 2f58 172F0000 		.4byte	0x2f17
 9329 2f5c 0D       		.uleb128 0xd
 9330 2f5d 272F0000 		.4byte	0x2f27
 9331 2f61 782F0000 		.4byte	0x2f78
 9332 2f65 0E       		.uleb128 0xe
 9333 2f66 37020000 		.4byte	0x237
 9334 2f6a 03       		.byte	0x3
 9335 2f6b 0E       		.uleb128 0xe
 9336 2f6c 37020000 		.4byte	0x237
 9337 2f70 01       		.byte	0x1
 9338 2f71 0E       		.uleb128 0xe
 9339 2f72 37020000 		.4byte	0x237
 9340 2f76 01       		.byte	0x1
 9341 2f77 00       		.byte	0
 9342 2f78 4A       		.uleb128 0x4a
 9343 2f79 340C0000 		.4byte	.LASF201
 9344 2f7d 02       		.byte	0x2
 9345 2f7e 4E       		.byte	0x4e
 9346 2f7f 832F0000 		.4byte	0x2f83
 9347 2f83 12       		.uleb128 0x12
 9348 2f84 5C2F0000 		.4byte	0x2f5c
 9349 2f88 4B       		.uleb128 0x4b
 9350 2f89 21090000 		.4byte	.LASF202
 9351 2f8d 21090000 		.4byte	.LASF202
 9352 2f91 0E       		.byte	0xe
 9353 2f92 9701     		.2byte	0x197
 9354 2f94 4B       		.uleb128 0x4b
 9355 2f95 6A060000 		.4byte	.LASF203
 9356 2f99 6A060000 		.4byte	.LASF203
 9357 2f9d 0E       		.byte	0xe
 9358 2f9e 9801     		.2byte	0x198
 9359 2fa0 4C       		.uleb128 0x4c
 9360 2fa1 63060000 		.4byte	.LASF241
 9361 2fa5 63060000 		.4byte	.LASF241
 9362 2fa9 4D       		.uleb128 0x4d
 9363 2faa 68040000 		.4byte	.LASF204
 9364 2fae 68040000 		.4byte	.LASF204
 9365 2fb2 0F       		.byte	0xf
 9366 2fb3 21       		.byte	0x21
 9367 2fb4 4D       		.uleb128 0x4d
 9368 2fb5 7B090000 		.4byte	.LASF205
 9369 2fb9 7B090000 		.4byte	.LASF205
 9370 2fbd 0A       		.byte	0xa
 9371 2fbe 35       		.byte	0x35
 9372 2fbf 4D       		.uleb128 0x4d
 9373 2fc0 DF090000 		.4byte	.LASF206
 9374 2fc4 DF090000 		.4byte	.LASF206
 9375 2fc8 10       		.byte	0x10
 9376 2fc9 18       		.byte	0x18
 9377 2fca 4D       		.uleb128 0x4d
 9378 2fcb FE000000 		.4byte	.LASF207
 9379 2fcf FE000000 		.4byte	.LASF207
ARM GAS  C:\Users\rdn\AppData\Local\Temp\cckhx27q.s 			page 192


 9380 2fd3 11       		.byte	0x11
 9381 2fd4 22       		.byte	0x22
 9382 2fd5 4D       		.uleb128 0x4d
 9383 2fd6 1C0A0000 		.4byte	.LASF208
 9384 2fda 1C0A0000 		.4byte	.LASF208
 9385 2fde 12       		.byte	0x12
 9386 2fdf 20       		.byte	0x20
 9387 2fe0 4D       		.uleb128 0x4d
 9388 2fe1 87020000 		.4byte	.LASF209
 9389 2fe5 87020000 		.4byte	.LASF209
 9390 2fe9 0A       		.byte	0xa
 9391 2fea 3C       		.byte	0x3c
 9392 2feb 4D       		.uleb128 0x4d
 9393 2fec 2F0A0000 		.4byte	.LASF210
 9394 2ff0 2F0A0000 		.4byte	.LASF210
 9395 2ff4 13       		.byte	0x13
 9396 2ff5 20       		.byte	0x20
 9397 2ff6 4D       		.uleb128 0x4d
 9398 2ff7 06040000 		.4byte	.LASF211
 9399 2ffb 06040000 		.4byte	.LASF211
 9400 2fff 0B       		.byte	0xb
 9401 3000 36       		.byte	0x36
 9402 3001 4D       		.uleb128 0x4d
 9403 3002 B4060000 		.4byte	.LASF212
 9404 3006 B4060000 		.4byte	.LASF212
 9405 300a 0C       		.byte	0xc
 9406 300b 32       		.byte	0x32
 9407 300c 4D       		.uleb128 0x4d
 9408 300d EB0B0000 		.4byte	.LASF213
 9409 3011 EB0B0000 		.4byte	.LASF213
 9410 3015 0D       		.byte	0xd
 9411 3016 33       		.byte	0x33
 9412 3017 4D       		.uleb128 0x4d
 9413 3018 D7060000 		.4byte	.LASF214
 9414 301c D7060000 		.4byte	.LASF214
 9415 3020 04       		.byte	0x4
 9416 3021 C8       		.byte	0xc8
 9417 3022 4D       		.uleb128 0x4d
 9418 3023 790C0000 		.4byte	.LASF215
 9419 3027 790C0000 		.4byte	.LASF215
 9420 302b 04       		.byte	0x4
 9421 302c 7E       		.byte	0x7e
 9422 302d 4D       		.uleb128 0x4d
 9423 302e 7A060000 		.4byte	.LASF216
 9424 3032 7A060000 		.4byte	.LASF216
 9425 3036 13       		.byte	0x13
 9426 3037 30       		.byte	0x30
 9427 3038 4D       		.uleb128 0x4d
 9428 3039 32050000 		.4byte	.LASF217
 9429 303d 32050000 		.4byte	.LASF217
 9430 3041 0D       		.byte	0xd
 9431 3042 3E       		.byte	0x3e
 9432 3043 4D       		.uleb128 0x4d
 9433 3044 9E0B0000 		.4byte	.LASF218
 9434 3048 9E0B0000 		.4byte	.LASF218
 9435 304c 0C       		.byte	0xc
 9436 304d 41       		.byte	0x41
ARM GAS  C:\Users\rdn\AppData\Local\Temp\cckhx27q.s 			page 193


 9437 304e 4D       		.uleb128 0x4d
 9438 304f F9060000 		.4byte	.LASF219
 9439 3053 F9060000 		.4byte	.LASF219
 9440 3057 0B       		.byte	0xb
 9441 3058 46       		.byte	0x46
 9442 3059 4D       		.uleb128 0x4d
 9443 305a 06060000 		.4byte	.LASF220
 9444 305e 06060000 		.4byte	.LASF220
 9445 3062 0A       		.byte	0xa
 9446 3063 4A       		.byte	0x4a
 9447 3064 4D       		.uleb128 0x4d
 9448 3065 B5070000 		.4byte	.LASF221
 9449 3069 B5070000 		.4byte	.LASF221
 9450 306d 0D       		.byte	0xd
 9451 306e 48       		.byte	0x48
 9452 306f 4D       		.uleb128 0x4d
 9453 3070 1B050000 		.4byte	.LASF222
 9454 3074 1B050000 		.4byte	.LASF222
 9455 3078 04       		.byte	0x4
 9456 3079 A9       		.byte	0xa9
 9457 307a 4D       		.uleb128 0x4d
 9458 307b DA050000 		.4byte	.LASF223
 9459 307f DA050000 		.4byte	.LASF223
 9460 3083 14       		.byte	0x14
 9461 3084 1D       		.byte	0x1d
 9462 3085 4D       		.uleb128 0x4d
 9463 3086 97030000 		.4byte	.LASF224
 9464 308a 97030000 		.4byte	.LASF224
 9465 308e 04       		.byte	0x4
 9466 308f C9       		.byte	0xc9
 9467 3090 4D       		.uleb128 0x4d
 9468 3091 49080000 		.4byte	.LASF225
 9469 3095 49080000 		.4byte	.LASF225
 9470 3099 13       		.byte	0x13
 9471 309a 3A       		.byte	0x3a
 9472 309b 4D       		.uleb128 0x4d
 9473 309c 5B0C0000 		.4byte	.LASF226
 9474 30a0 5B0C0000 		.4byte	.LASF226
 9475 30a4 0D       		.byte	0xd
 9476 30a5 58       		.byte	0x58
 9477 30a6 4D       		.uleb128 0x4d
 9478 30a7 D9030000 		.4byte	.LASF227
 9479 30ab D9030000 		.4byte	.LASF227
 9480 30af 0C       		.byte	0xc
 9481 30b0 50       		.byte	0x50
 9482 30b1 4D       		.uleb128 0x4d
 9483 30b2 5C010000 		.4byte	.LASF228
 9484 30b6 5C010000 		.4byte	.LASF228
 9485 30ba 0B       		.byte	0xb
 9486 30bb 53       		.byte	0x53
 9487 30bc 4D       		.uleb128 0x4d
 9488 30bd 68030000 		.4byte	.LASF229
 9489 30c1 68030000 		.4byte	.LASF229
 9490 30c5 0A       		.byte	0xa
 9491 30c6 55       		.byte	0x55
 9492 30c7 4D       		.uleb128 0x4d
 9493 30c8 35010000 		.4byte	.LASF230
ARM GAS  C:\Users\rdn\AppData\Local\Temp\cckhx27q.s 			page 194


 9494 30cc 35010000 		.4byte	.LASF230
 9495 30d0 0D       		.byte	0xd
 9496 30d1 64       		.byte	0x64
 9497 30d2 4D       		.uleb128 0x4d
 9498 30d3 8B060000 		.4byte	.LASF231
 9499 30d7 8B060000 		.4byte	.LASF231
 9500 30db 04       		.byte	0x4
 9501 30dc 8D       		.byte	0x8d
 9502 30dd 4D       		.uleb128 0x4d
 9503 30de 8A050000 		.4byte	.LASF232
 9504 30e2 8A050000 		.4byte	.LASF232
 9505 30e6 14       		.byte	0x14
 9506 30e7 23       		.byte	0x23
 9507 30e8 4D       		.uleb128 0x4d
 9508 30e9 37040000 		.4byte	.LASF233
 9509 30ed 37040000 		.4byte	.LASF233
 9510 30f1 0C       		.byte	0xc
 9511 30f2 59       		.byte	0x59
 9512 30f3 4D       		.uleb128 0x4d
 9513 30f4 08050000 		.4byte	.LASF234
 9514 30f8 08050000 		.4byte	.LASF234
 9515 30fc 0B       		.byte	0xb
 9516 30fd 5E       		.byte	0x5e
 9517 30fe 4D       		.uleb128 0x4d
 9518 30ff E9010000 		.4byte	.LASF235
 9519 3103 E9010000 		.4byte	.LASF235
 9520 3107 11       		.byte	0x11
 9521 3108 2F       		.byte	0x2f
 9522 3109 4D       		.uleb128 0x4d
 9523 310a AF0B0000 		.4byte	.LASF236
 9524 310e AF0B0000 		.4byte	.LASF236
 9525 3112 14       		.byte	0x14
 9526 3113 2E       		.byte	0x2e
 9527 3114 4D       		.uleb128 0x4d
 9528 3115 29030000 		.4byte	.LASF237
 9529 3119 29030000 		.4byte	.LASF237
 9530 311d 0A       		.byte	0xa
 9531 311e 63       		.byte	0x63
 9532 311f 00       		.byte	0
 9533              		.section	.debug_abbrev,"",%progbits
 9534              	.Ldebug_abbrev0:
 9535 0000 01       		.uleb128 0x1
 9536 0001 11       		.uleb128 0x11
 9537 0002 01       		.byte	0x1
 9538 0003 25       		.uleb128 0x25
 9539 0004 0E       		.uleb128 0xe
 9540 0005 13       		.uleb128 0x13
 9541 0006 0B       		.uleb128 0xb
 9542 0007 03       		.uleb128 0x3
 9543 0008 0E       		.uleb128 0xe
 9544 0009 1B       		.uleb128 0x1b
 9545 000a 0E       		.uleb128 0xe
 9546 000b 55       		.uleb128 0x55
 9547 000c 17       		.uleb128 0x17
 9548 000d 11       		.uleb128 0x11
 9549 000e 01       		.uleb128 0x1
 9550 000f 10       		.uleb128 0x10
ARM GAS  C:\Users\rdn\AppData\Local\Temp\cckhx27q.s 			page 195


 9551 0010 17       		.uleb128 0x17
 9552 0011 00       		.byte	0
 9553 0012 00       		.byte	0
 9554 0013 02       		.uleb128 0x2
 9555 0014 24       		.uleb128 0x24
 9556 0015 00       		.byte	0
 9557 0016 0B       		.uleb128 0xb
 9558 0017 0B       		.uleb128 0xb
 9559 0018 3E       		.uleb128 0x3e
 9560 0019 0B       		.uleb128 0xb
 9561 001a 03       		.uleb128 0x3
 9562 001b 0E       		.uleb128 0xe
 9563 001c 00       		.byte	0
 9564 001d 00       		.byte	0
 9565 001e 03       		.uleb128 0x3
 9566 001f 16       		.uleb128 0x16
 9567 0020 00       		.byte	0
 9568 0021 03       		.uleb128 0x3
 9569 0022 0E       		.uleb128 0xe
 9570 0023 3A       		.uleb128 0x3a
 9571 0024 0B       		.uleb128 0xb
 9572 0025 3B       		.uleb128 0x3b
 9573 0026 0B       		.uleb128 0xb
 9574 0027 49       		.uleb128 0x49
 9575 0028 13       		.uleb128 0x13
 9576 0029 00       		.byte	0
 9577 002a 00       		.byte	0
 9578 002b 04       		.uleb128 0x4
 9579 002c 24       		.uleb128 0x24
 9580 002d 00       		.byte	0
 9581 002e 0B       		.uleb128 0xb
 9582 002f 0B       		.uleb128 0xb
 9583 0030 3E       		.uleb128 0x3e
 9584 0031 0B       		.uleb128 0xb
 9585 0032 03       		.uleb128 0x3
 9586 0033 08       		.uleb128 0x8
 9587 0034 00       		.byte	0
 9588 0035 00       		.byte	0
 9589 0036 05       		.uleb128 0x5
 9590 0037 04       		.uleb128 0x4
 9591 0038 01       		.byte	0x1
 9592 0039 03       		.uleb128 0x3
 9593 003a 0E       		.uleb128 0xe
 9594 003b 0B       		.uleb128 0xb
 9595 003c 0B       		.uleb128 0xb
 9596 003d 49       		.uleb128 0x49
 9597 003e 13       		.uleb128 0x13
 9598 003f 3A       		.uleb128 0x3a
 9599 0040 0B       		.uleb128 0xb
 9600 0041 3B       		.uleb128 0x3b
 9601 0042 0B       		.uleb128 0xb
 9602 0043 01       		.uleb128 0x1
 9603 0044 13       		.uleb128 0x13
 9604 0045 00       		.byte	0
 9605 0046 00       		.byte	0
 9606 0047 06       		.uleb128 0x6
 9607 0048 28       		.uleb128 0x28
ARM GAS  C:\Users\rdn\AppData\Local\Temp\cckhx27q.s 			page 196


 9608 0049 00       		.byte	0
 9609 004a 03       		.uleb128 0x3
 9610 004b 0E       		.uleb128 0xe
 9611 004c 1C       		.uleb128 0x1c
 9612 004d 0B       		.uleb128 0xb
 9613 004e 00       		.byte	0
 9614 004f 00       		.byte	0
 9615 0050 07       		.uleb128 0x7
 9616 0051 13       		.uleb128 0x13
 9617 0052 01       		.byte	0x1
 9618 0053 03       		.uleb128 0x3
 9619 0054 0E       		.uleb128 0xe
 9620 0055 0B       		.uleb128 0xb
 9621 0056 0B       		.uleb128 0xb
 9622 0057 3A       		.uleb128 0x3a
 9623 0058 0B       		.uleb128 0xb
 9624 0059 3B       		.uleb128 0x3b
 9625 005a 0B       		.uleb128 0xb
 9626 005b 01       		.uleb128 0x1
 9627 005c 13       		.uleb128 0x13
 9628 005d 00       		.byte	0
 9629 005e 00       		.byte	0
 9630 005f 08       		.uleb128 0x8
 9631 0060 0D       		.uleb128 0xd
 9632 0061 00       		.byte	0
 9633 0062 03       		.uleb128 0x3
 9634 0063 08       		.uleb128 0x8
 9635 0064 3A       		.uleb128 0x3a
 9636 0065 0B       		.uleb128 0xb
 9637 0066 3B       		.uleb128 0x3b
 9638 0067 0B       		.uleb128 0xb
 9639 0068 49       		.uleb128 0x49
 9640 0069 13       		.uleb128 0x13
 9641 006a 38       		.uleb128 0x38
 9642 006b 0B       		.uleb128 0xb
 9643 006c 00       		.byte	0
 9644 006d 00       		.byte	0
 9645 006e 09       		.uleb128 0x9
 9646 006f 0D       		.uleb128 0xd
 9647 0070 00       		.byte	0
 9648 0071 03       		.uleb128 0x3
 9649 0072 0E       		.uleb128 0xe
 9650 0073 3A       		.uleb128 0x3a
 9651 0074 0B       		.uleb128 0xb
 9652 0075 3B       		.uleb128 0x3b
 9653 0076 0B       		.uleb128 0xb
 9654 0077 49       		.uleb128 0x49
 9655 0078 13       		.uleb128 0x13
 9656 0079 38       		.uleb128 0x38
 9657 007a 0B       		.uleb128 0xb
 9658 007b 00       		.byte	0
 9659 007c 00       		.byte	0
 9660 007d 0A       		.uleb128 0xa
 9661 007e 13       		.uleb128 0x13
 9662 007f 01       		.byte	0x1
 9663 0080 03       		.uleb128 0x3
 9664 0081 0E       		.uleb128 0xe
ARM GAS  C:\Users\rdn\AppData\Local\Temp\cckhx27q.s 			page 197


 9665 0082 0B       		.uleb128 0xb
 9666 0083 05       		.uleb128 0x5
 9667 0084 3A       		.uleb128 0x3a
 9668 0085 0B       		.uleb128 0xb
 9669 0086 3B       		.uleb128 0x3b
 9670 0087 0B       		.uleb128 0xb
 9671 0088 01       		.uleb128 0x1
 9672 0089 13       		.uleb128 0x13
 9673 008a 00       		.byte	0
 9674 008b 00       		.byte	0
 9675 008c 0B       		.uleb128 0xb
 9676 008d 0D       		.uleb128 0xd
 9677 008e 00       		.byte	0
 9678 008f 03       		.uleb128 0x3
 9679 0090 0E       		.uleb128 0xe
 9680 0091 3A       		.uleb128 0x3a
 9681 0092 0B       		.uleb128 0xb
 9682 0093 3B       		.uleb128 0x3b
 9683 0094 0B       		.uleb128 0xb
 9684 0095 49       		.uleb128 0x49
 9685 0096 13       		.uleb128 0x13
 9686 0097 38       		.uleb128 0x38
 9687 0098 05       		.uleb128 0x5
 9688 0099 00       		.byte	0
 9689 009a 00       		.byte	0
 9690 009b 0C       		.uleb128 0xc
 9691 009c 0D       		.uleb128 0xd
 9692 009d 00       		.byte	0
 9693 009e 03       		.uleb128 0x3
 9694 009f 08       		.uleb128 0x8
 9695 00a0 3A       		.uleb128 0x3a
 9696 00a1 0B       		.uleb128 0xb
 9697 00a2 3B       		.uleb128 0x3b
 9698 00a3 0B       		.uleb128 0xb
 9699 00a4 49       		.uleb128 0x49
 9700 00a5 13       		.uleb128 0x13
 9701 00a6 38       		.uleb128 0x38
 9702 00a7 05       		.uleb128 0x5
 9703 00a8 00       		.byte	0
 9704 00a9 00       		.byte	0
 9705 00aa 0D       		.uleb128 0xd
 9706 00ab 01       		.uleb128 0x1
 9707 00ac 01       		.byte	0x1
 9708 00ad 49       		.uleb128 0x49
 9709 00ae 13       		.uleb128 0x13
 9710 00af 01       		.uleb128 0x1
 9711 00b0 13       		.uleb128 0x13
 9712 00b1 00       		.byte	0
 9713 00b2 00       		.byte	0
 9714 00b3 0E       		.uleb128 0xe
 9715 00b4 21       		.uleb128 0x21
 9716 00b5 00       		.byte	0
 9717 00b6 49       		.uleb128 0x49
 9718 00b7 13       		.uleb128 0x13
 9719 00b8 2F       		.uleb128 0x2f
 9720 00b9 0B       		.uleb128 0xb
 9721 00ba 00       		.byte	0
ARM GAS  C:\Users\rdn\AppData\Local\Temp\cckhx27q.s 			page 198


 9722 00bb 00       		.byte	0
 9723 00bc 0F       		.uleb128 0xf
 9724 00bd 21       		.uleb128 0x21
 9725 00be 00       		.byte	0
 9726 00bf 49       		.uleb128 0x49
 9727 00c0 13       		.uleb128 0x13
 9728 00c1 2F       		.uleb128 0x2f
 9729 00c2 05       		.uleb128 0x5
 9730 00c3 00       		.byte	0
 9731 00c4 00       		.byte	0
 9732 00c5 10       		.uleb128 0x10
 9733 00c6 0F       		.uleb128 0xf
 9734 00c7 00       		.byte	0
 9735 00c8 0B       		.uleb128 0xb
 9736 00c9 0B       		.uleb128 0xb
 9737 00ca 49       		.uleb128 0x49
 9738 00cb 13       		.uleb128 0x13
 9739 00cc 00       		.byte	0
 9740 00cd 00       		.byte	0
 9741 00ce 11       		.uleb128 0x11
 9742 00cf 0F       		.uleb128 0xf
 9743 00d0 00       		.byte	0
 9744 00d1 0B       		.uleb128 0xb
 9745 00d2 0B       		.uleb128 0xb
 9746 00d3 00       		.byte	0
 9747 00d4 00       		.byte	0
 9748 00d5 12       		.uleb128 0x12
 9749 00d6 26       		.uleb128 0x26
 9750 00d7 00       		.byte	0
 9751 00d8 49       		.uleb128 0x49
 9752 00d9 13       		.uleb128 0x13
 9753 00da 00       		.byte	0
 9754 00db 00       		.byte	0
 9755 00dc 13       		.uleb128 0x13
 9756 00dd 2E       		.uleb128 0x2e
 9757 00de 01       		.byte	0x1
 9758 00df 03       		.uleb128 0x3
 9759 00e0 0E       		.uleb128 0xe
 9760 00e1 3A       		.uleb128 0x3a
 9761 00e2 0B       		.uleb128 0xb
 9762 00e3 3B       		.uleb128 0x3b
 9763 00e4 0B       		.uleb128 0xb
 9764 00e5 27       		.uleb128 0x27
 9765 00e6 19       		.uleb128 0x19
 9766 00e7 49       		.uleb128 0x49
 9767 00e8 13       		.uleb128 0x13
 9768 00e9 20       		.uleb128 0x20
 9769 00ea 0B       		.uleb128 0xb
 9770 00eb 01       		.uleb128 0x1
 9771 00ec 13       		.uleb128 0x13
 9772 00ed 00       		.byte	0
 9773 00ee 00       		.byte	0
 9774 00ef 14       		.uleb128 0x14
 9775 00f0 05       		.uleb128 0x5
 9776 00f1 00       		.byte	0
 9777 00f2 03       		.uleb128 0x3
 9778 00f3 08       		.uleb128 0x8
ARM GAS  C:\Users\rdn\AppData\Local\Temp\cckhx27q.s 			page 199


 9779 00f4 3A       		.uleb128 0x3a
 9780 00f5 0B       		.uleb128 0xb
 9781 00f6 3B       		.uleb128 0x3b
 9782 00f7 0B       		.uleb128 0xb
 9783 00f8 49       		.uleb128 0x49
 9784 00f9 13       		.uleb128 0x13
 9785 00fa 00       		.byte	0
 9786 00fb 00       		.byte	0
 9787 00fc 15       		.uleb128 0x15
 9788 00fd 05       		.uleb128 0x5
 9789 00fe 00       		.byte	0
 9790 00ff 03       		.uleb128 0x3
 9791 0100 0E       		.uleb128 0xe
 9792 0101 3A       		.uleb128 0x3a
 9793 0102 0B       		.uleb128 0xb
 9794 0103 3B       		.uleb128 0x3b
 9795 0104 0B       		.uleb128 0xb
 9796 0105 49       		.uleb128 0x49
 9797 0106 13       		.uleb128 0x13
 9798 0107 00       		.byte	0
 9799 0108 00       		.byte	0
 9800 0109 16       		.uleb128 0x16
 9801 010a 17       		.uleb128 0x17
 9802 010b 01       		.byte	0x1
 9803 010c 0B       		.uleb128 0xb
 9804 010d 0B       		.uleb128 0xb
 9805 010e 3A       		.uleb128 0x3a
 9806 010f 0B       		.uleb128 0xb
 9807 0110 3B       		.uleb128 0x3b
 9808 0111 0B       		.uleb128 0xb
 9809 0112 01       		.uleb128 0x1
 9810 0113 13       		.uleb128 0x13
 9811 0114 00       		.byte	0
 9812 0115 00       		.byte	0
 9813 0116 17       		.uleb128 0x17
 9814 0117 0D       		.uleb128 0xd
 9815 0118 00       		.byte	0
 9816 0119 03       		.uleb128 0x3
 9817 011a 08       		.uleb128 0x8
 9818 011b 3A       		.uleb128 0x3a
 9819 011c 0B       		.uleb128 0xb
 9820 011d 3B       		.uleb128 0x3b
 9821 011e 0B       		.uleb128 0xb
 9822 011f 49       		.uleb128 0x49
 9823 0120 13       		.uleb128 0x13
 9824 0121 00       		.byte	0
 9825 0122 00       		.byte	0
 9826 0123 18       		.uleb128 0x18
 9827 0124 34       		.uleb128 0x34
 9828 0125 00       		.byte	0
 9829 0126 03       		.uleb128 0x3
 9830 0127 08       		.uleb128 0x8
 9831 0128 3A       		.uleb128 0x3a
 9832 0129 0B       		.uleb128 0xb
 9833 012a 3B       		.uleb128 0x3b
 9834 012b 0B       		.uleb128 0xb
 9835 012c 49       		.uleb128 0x49
ARM GAS  C:\Users\rdn\AppData\Local\Temp\cckhx27q.s 			page 200


 9836 012d 13       		.uleb128 0x13
 9837 012e 00       		.byte	0
 9838 012f 00       		.byte	0
 9839 0130 19       		.uleb128 0x19
 9840 0131 2E       		.uleb128 0x2e
 9841 0132 01       		.byte	0x1
 9842 0133 3F       		.uleb128 0x3f
 9843 0134 19       		.uleb128 0x19
 9844 0135 03       		.uleb128 0x3
 9845 0136 0E       		.uleb128 0xe
 9846 0137 3A       		.uleb128 0x3a
 9847 0138 0B       		.uleb128 0xb
 9848 0139 3B       		.uleb128 0x3b
 9849 013a 05       		.uleb128 0x5
 9850 013b 27       		.uleb128 0x27
 9851 013c 19       		.uleb128 0x19
 9852 013d 49       		.uleb128 0x49
 9853 013e 13       		.uleb128 0x13
 9854 013f 20       		.uleb128 0x20
 9855 0140 0B       		.uleb128 0xb
 9856 0141 01       		.uleb128 0x1
 9857 0142 13       		.uleb128 0x13
 9858 0143 00       		.byte	0
 9859 0144 00       		.byte	0
 9860 0145 1A       		.uleb128 0x1a
 9861 0146 05       		.uleb128 0x5
 9862 0147 00       		.byte	0
 9863 0148 03       		.uleb128 0x3
 9864 0149 0E       		.uleb128 0xe
 9865 014a 3A       		.uleb128 0x3a
 9866 014b 0B       		.uleb128 0xb
 9867 014c 3B       		.uleb128 0x3b
 9868 014d 05       		.uleb128 0x5
 9869 014e 49       		.uleb128 0x49
 9870 014f 13       		.uleb128 0x13
 9871 0150 00       		.byte	0
 9872 0151 00       		.byte	0
 9873 0152 1B       		.uleb128 0x1b
 9874 0153 2E       		.uleb128 0x2e
 9875 0154 01       		.byte	0x1
 9876 0155 03       		.uleb128 0x3
 9877 0156 0E       		.uleb128 0xe
 9878 0157 3A       		.uleb128 0x3a
 9879 0158 0B       		.uleb128 0xb
 9880 0159 3B       		.uleb128 0x3b
 9881 015a 0B       		.uleb128 0xb
 9882 015b 27       		.uleb128 0x27
 9883 015c 19       		.uleb128 0x19
 9884 015d 20       		.uleb128 0x20
 9885 015e 0B       		.uleb128 0xb
 9886 015f 01       		.uleb128 0x1
 9887 0160 13       		.uleb128 0x13
 9888 0161 00       		.byte	0
 9889 0162 00       		.byte	0
 9890 0163 1C       		.uleb128 0x1c
 9891 0164 34       		.uleb128 0x34
 9892 0165 00       		.byte	0
ARM GAS  C:\Users\rdn\AppData\Local\Temp\cckhx27q.s 			page 201


 9893 0166 03       		.uleb128 0x3
 9894 0167 0E       		.uleb128 0xe
 9895 0168 3A       		.uleb128 0x3a
 9896 0169 0B       		.uleb128 0xb
 9897 016a 3B       		.uleb128 0x3b
 9898 016b 0B       		.uleb128 0xb
 9899 016c 49       		.uleb128 0x49
 9900 016d 13       		.uleb128 0x13
 9901 016e 00       		.byte	0
 9902 016f 00       		.byte	0
 9903 0170 1D       		.uleb128 0x1d
 9904 0171 0B       		.uleb128 0xb
 9905 0172 01       		.byte	0x1
 9906 0173 00       		.byte	0
 9907 0174 00       		.byte	0
 9908 0175 1E       		.uleb128 0x1e
 9909 0176 2E       		.uleb128 0x2e
 9910 0177 01       		.byte	0x1
 9911 0178 03       		.uleb128 0x3
 9912 0179 0E       		.uleb128 0xe
 9913 017a 3A       		.uleb128 0x3a
 9914 017b 0B       		.uleb128 0xb
 9915 017c 3B       		.uleb128 0x3b
 9916 017d 0B       		.uleb128 0xb
 9917 017e 27       		.uleb128 0x27
 9918 017f 19       		.uleb128 0x19
 9919 0180 11       		.uleb128 0x11
 9920 0181 01       		.uleb128 0x1
 9921 0182 12       		.uleb128 0x12
 9922 0183 06       		.uleb128 0x6
 9923 0184 40       		.uleb128 0x40
 9924 0185 18       		.uleb128 0x18
 9925 0186 9742     		.uleb128 0x2117
 9926 0188 19       		.uleb128 0x19
 9927 0189 01       		.uleb128 0x1
 9928 018a 13       		.uleb128 0x13
 9929 018b 00       		.byte	0
 9930 018c 00       		.byte	0
 9931 018d 1F       		.uleb128 0x1f
 9932 018e 05       		.uleb128 0x5
 9933 018f 00       		.byte	0
 9934 0190 03       		.uleb128 0x3
 9935 0191 0E       		.uleb128 0xe
 9936 0192 3A       		.uleb128 0x3a
 9937 0193 0B       		.uleb128 0xb
 9938 0194 3B       		.uleb128 0x3b
 9939 0195 0B       		.uleb128 0xb
 9940 0196 49       		.uleb128 0x49
 9941 0197 13       		.uleb128 0x13
 9942 0198 02       		.uleb128 0x2
 9943 0199 17       		.uleb128 0x17
 9944 019a 00       		.byte	0
 9945 019b 00       		.byte	0
 9946 019c 20       		.uleb128 0x20
 9947 019d 34       		.uleb128 0x34
 9948 019e 00       		.byte	0
 9949 019f 03       		.uleb128 0x3
ARM GAS  C:\Users\rdn\AppData\Local\Temp\cckhx27q.s 			page 202


 9950 01a0 08       		.uleb128 0x8
 9951 01a1 3A       		.uleb128 0x3a
 9952 01a2 0B       		.uleb128 0xb
 9953 01a3 3B       		.uleb128 0x3b
 9954 01a4 0B       		.uleb128 0xb
 9955 01a5 49       		.uleb128 0x49
 9956 01a6 13       		.uleb128 0x13
 9957 01a7 02       		.uleb128 0x2
 9958 01a8 18       		.uleb128 0x18
 9959 01a9 00       		.byte	0
 9960 01aa 00       		.byte	0
 9961 01ab 21       		.uleb128 0x21
 9962 01ac 34       		.uleb128 0x34
 9963 01ad 00       		.byte	0
 9964 01ae 03       		.uleb128 0x3
 9965 01af 08       		.uleb128 0x8
 9966 01b0 3A       		.uleb128 0x3a
 9967 01b1 0B       		.uleb128 0xb
 9968 01b2 3B       		.uleb128 0x3b
 9969 01b3 0B       		.uleb128 0xb
 9970 01b4 49       		.uleb128 0x49
 9971 01b5 13       		.uleb128 0x13
 9972 01b6 02       		.uleb128 0x2
 9973 01b7 17       		.uleb128 0x17
 9974 01b8 00       		.byte	0
 9975 01b9 00       		.byte	0
 9976 01ba 22       		.uleb128 0x22
 9977 01bb 1D       		.uleb128 0x1d
 9978 01bc 01       		.byte	0x1
 9979 01bd 31       		.uleb128 0x31
 9980 01be 13       		.uleb128 0x13
 9981 01bf 52       		.uleb128 0x52
 9982 01c0 01       		.uleb128 0x1
 9983 01c1 55       		.uleb128 0x55
 9984 01c2 17       		.uleb128 0x17
 9985 01c3 58       		.uleb128 0x58
 9986 01c4 0B       		.uleb128 0xb
 9987 01c5 59       		.uleb128 0x59
 9988 01c6 0B       		.uleb128 0xb
 9989 01c7 01       		.uleb128 0x1
 9990 01c8 13       		.uleb128 0x13
 9991 01c9 00       		.byte	0
 9992 01ca 00       		.byte	0
 9993 01cb 23       		.uleb128 0x23
 9994 01cc 05       		.uleb128 0x5
 9995 01cd 00       		.byte	0
 9996 01ce 31       		.uleb128 0x31
 9997 01cf 13       		.uleb128 0x13
 9998 01d0 00       		.byte	0
 9999 01d1 00       		.byte	0
 10000 01d2 24       		.uleb128 0x24
 10001 01d3 0B       		.uleb128 0xb
 10002 01d4 01       		.byte	0x1
 10003 01d5 11       		.uleb128 0x11
 10004 01d6 01       		.uleb128 0x1
 10005 01d7 12       		.uleb128 0x12
 10006 01d8 06       		.uleb128 0x6
ARM GAS  C:\Users\rdn\AppData\Local\Temp\cckhx27q.s 			page 203


 10007 01d9 00       		.byte	0
 10008 01da 00       		.byte	0
 10009 01db 25       		.uleb128 0x25
 10010 01dc 26       		.uleb128 0x26
 10011 01dd 00       		.byte	0
 10012 01de 00       		.byte	0
 10013 01df 00       		.byte	0
 10014 01e0 26       		.uleb128 0x26
 10015 01e1 1D       		.uleb128 0x1d
 10016 01e2 01       		.byte	0x1
 10017 01e3 31       		.uleb128 0x31
 10018 01e4 13       		.uleb128 0x13
 10019 01e5 11       		.uleb128 0x11
 10020 01e6 01       		.uleb128 0x1
 10021 01e7 12       		.uleb128 0x12
 10022 01e8 06       		.uleb128 0x6
 10023 01e9 58       		.uleb128 0x58
 10024 01ea 0B       		.uleb128 0xb
 10025 01eb 59       		.uleb128 0x59
 10026 01ec 0B       		.uleb128 0xb
 10027 01ed 00       		.byte	0
 10028 01ee 00       		.byte	0
 10029 01ef 27       		.uleb128 0x27
 10030 01f0 05       		.uleb128 0x5
 10031 01f1 00       		.byte	0
 10032 01f2 31       		.uleb128 0x31
 10033 01f3 13       		.uleb128 0x13
 10034 01f4 02       		.uleb128 0x2
 10035 01f5 17       		.uleb128 0x17
 10036 01f6 00       		.byte	0
 10037 01f7 00       		.byte	0
 10038 01f8 28       		.uleb128 0x28
 10039 01f9 34       		.uleb128 0x34
 10040 01fa 00       		.byte	0
 10041 01fb 31       		.uleb128 0x31
 10042 01fc 13       		.uleb128 0x13
 10043 01fd 02       		.uleb128 0x2
 10044 01fe 17       		.uleb128 0x17
 10045 01ff 00       		.byte	0
 10046 0200 00       		.byte	0
 10047 0201 29       		.uleb128 0x29
 10048 0202 0B       		.uleb128 0xb
 10049 0203 01       		.byte	0x1
 10050 0204 55       		.uleb128 0x55
 10051 0205 17       		.uleb128 0x17
 10052 0206 00       		.byte	0
 10053 0207 00       		.byte	0
 10054 0208 2A       		.uleb128 0x2a
 10055 0209 2E       		.uleb128 0x2e
 10056 020a 01       		.byte	0x1
 10057 020b 03       		.uleb128 0x3
 10058 020c 0E       		.uleb128 0xe
 10059 020d 3A       		.uleb128 0x3a
 10060 020e 0B       		.uleb128 0xb
 10061 020f 3B       		.uleb128 0x3b
 10062 0210 05       		.uleb128 0x5
 10063 0211 27       		.uleb128 0x27
ARM GAS  C:\Users\rdn\AppData\Local\Temp\cckhx27q.s 			page 204


 10064 0212 19       		.uleb128 0x19
 10065 0213 11       		.uleb128 0x11
 10066 0214 01       		.uleb128 0x1
 10067 0215 12       		.uleb128 0x12
 10068 0216 06       		.uleb128 0x6
 10069 0217 40       		.uleb128 0x40
 10070 0218 18       		.uleb128 0x18
 10071 0219 9742     		.uleb128 0x2117
 10072 021b 19       		.uleb128 0x19
 10073 021c 01       		.uleb128 0x1
 10074 021d 13       		.uleb128 0x13
 10075 021e 00       		.byte	0
 10076 021f 00       		.byte	0
 10077 0220 2B       		.uleb128 0x2b
 10078 0221 05       		.uleb128 0x5
 10079 0222 00       		.byte	0
 10080 0223 03       		.uleb128 0x3
 10081 0224 0E       		.uleb128 0xe
 10082 0225 3A       		.uleb128 0x3a
 10083 0226 0B       		.uleb128 0xb
 10084 0227 3B       		.uleb128 0x3b
 10085 0228 05       		.uleb128 0x5
 10086 0229 49       		.uleb128 0x49
 10087 022a 13       		.uleb128 0x13
 10088 022b 02       		.uleb128 0x2
 10089 022c 17       		.uleb128 0x17
 10090 022d 00       		.byte	0
 10091 022e 00       		.byte	0
 10092 022f 2C       		.uleb128 0x2c
 10093 0230 34       		.uleb128 0x34
 10094 0231 00       		.byte	0
 10095 0232 03       		.uleb128 0x3
 10096 0233 08       		.uleb128 0x8
 10097 0234 3A       		.uleb128 0x3a
 10098 0235 0B       		.uleb128 0xb
 10099 0236 3B       		.uleb128 0x3b
 10100 0237 05       		.uleb128 0x5
 10101 0238 49       		.uleb128 0x49
 10102 0239 13       		.uleb128 0x13
 10103 023a 02       		.uleb128 0x2
 10104 023b 17       		.uleb128 0x17
 10105 023c 00       		.byte	0
 10106 023d 00       		.byte	0
 10107 023e 2D       		.uleb128 0x2d
 10108 023f 34       		.uleb128 0x34
 10109 0240 00       		.byte	0
 10110 0241 03       		.uleb128 0x3
 10111 0242 08       		.uleb128 0x8
 10112 0243 3A       		.uleb128 0x3a
 10113 0244 0B       		.uleb128 0xb
 10114 0245 3B       		.uleb128 0x3b
 10115 0246 05       		.uleb128 0x5
 10116 0247 49       		.uleb128 0x49
 10117 0248 13       		.uleb128 0x13
 10118 0249 00       		.byte	0
 10119 024a 00       		.byte	0
 10120 024b 2E       		.uleb128 0x2e
ARM GAS  C:\Users\rdn\AppData\Local\Temp\cckhx27q.s 			page 205


 10121 024c 1D       		.uleb128 0x1d
 10122 024d 01       		.byte	0x1
 10123 024e 31       		.uleb128 0x31
 10124 024f 13       		.uleb128 0x13
 10125 0250 52       		.uleb128 0x52
 10126 0251 01       		.uleb128 0x1
 10127 0252 55       		.uleb128 0x55
 10128 0253 17       		.uleb128 0x17
 10129 0254 58       		.uleb128 0x58
 10130 0255 0B       		.uleb128 0xb
 10131 0256 59       		.uleb128 0x59
 10132 0257 05       		.uleb128 0x5
 10133 0258 01       		.uleb128 0x1
 10134 0259 13       		.uleb128 0x13
 10135 025a 00       		.byte	0
 10136 025b 00       		.byte	0
 10137 025c 2F       		.uleb128 0x2f
 10138 025d 1D       		.uleb128 0x1d
 10139 025e 01       		.byte	0x1
 10140 025f 31       		.uleb128 0x31
 10141 0260 13       		.uleb128 0x13
 10142 0261 11       		.uleb128 0x11
 10143 0262 01       		.uleb128 0x1
 10144 0263 12       		.uleb128 0x12
 10145 0264 06       		.uleb128 0x6
 10146 0265 58       		.uleb128 0x58
 10147 0266 0B       		.uleb128 0xb
 10148 0267 59       		.uleb128 0x59
 10149 0268 05       		.uleb128 0x5
 10150 0269 00       		.byte	0
 10151 026a 00       		.byte	0
 10152 026b 30       		.uleb128 0x30
 10153 026c 34       		.uleb128 0x34
 10154 026d 00       		.byte	0
 10155 026e 03       		.uleb128 0x3
 10156 026f 08       		.uleb128 0x8
 10157 0270 3A       		.uleb128 0x3a
 10158 0271 0B       		.uleb128 0xb
 10159 0272 3B       		.uleb128 0x3b
 10160 0273 05       		.uleb128 0x5
 10161 0274 49       		.uleb128 0x49
 10162 0275 13       		.uleb128 0x13
 10163 0276 02       		.uleb128 0x2
 10164 0277 18       		.uleb128 0x18
 10165 0278 00       		.byte	0
 10166 0279 00       		.byte	0
 10167 027a 31       		.uleb128 0x31
 10168 027b 1D       		.uleb128 0x1d
 10169 027c 01       		.byte	0x1
 10170 027d 31       		.uleb128 0x31
 10171 027e 13       		.uleb128 0x13
 10172 027f 11       		.uleb128 0x11
 10173 0280 01       		.uleb128 0x1
 10174 0281 12       		.uleb128 0x12
 10175 0282 06       		.uleb128 0x6
 10176 0283 58       		.uleb128 0x58
 10177 0284 0B       		.uleb128 0xb
ARM GAS  C:\Users\rdn\AppData\Local\Temp\cckhx27q.s 			page 206


 10178 0285 59       		.uleb128 0x59
 10179 0286 05       		.uleb128 0x5
 10180 0287 01       		.uleb128 0x1
 10181 0288 13       		.uleb128 0x13
 10182 0289 00       		.byte	0
 10183 028a 00       		.byte	0
 10184 028b 32       		.uleb128 0x32
 10185 028c 898201   		.uleb128 0x4109
 10186 028f 00       		.byte	0
 10187 0290 11       		.uleb128 0x11
 10188 0291 01       		.uleb128 0x1
 10189 0292 31       		.uleb128 0x31
 10190 0293 13       		.uleb128 0x13
 10191 0294 00       		.byte	0
 10192 0295 00       		.byte	0
 10193 0296 33       		.uleb128 0x33
 10194 0297 2E       		.uleb128 0x2e
 10195 0298 01       		.byte	0x1
 10196 0299 31       		.uleb128 0x31
 10197 029a 13       		.uleb128 0x13
 10198 029b 11       		.uleb128 0x11
 10199 029c 01       		.uleb128 0x1
 10200 029d 12       		.uleb128 0x12
 10201 029e 06       		.uleb128 0x6
 10202 029f 40       		.uleb128 0x40
 10203 02a0 18       		.uleb128 0x18
 10204 02a1 9742     		.uleb128 0x2117
 10205 02a3 19       		.uleb128 0x19
 10206 02a4 01       		.uleb128 0x1
 10207 02a5 13       		.uleb128 0x13
 10208 02a6 00       		.byte	0
 10209 02a7 00       		.byte	0
 10210 02a8 34       		.uleb128 0x34
 10211 02a9 05       		.uleb128 0x5
 10212 02aa 00       		.byte	0
 10213 02ab 31       		.uleb128 0x31
 10214 02ac 13       		.uleb128 0x13
 10215 02ad 02       		.uleb128 0x2
 10216 02ae 18       		.uleb128 0x18
 10217 02af 00       		.byte	0
 10218 02b0 00       		.byte	0
 10219 02b1 35       		.uleb128 0x35
 10220 02b2 2E       		.uleb128 0x2e
 10221 02b3 01       		.byte	0x1
 10222 02b4 3F       		.uleb128 0x3f
 10223 02b5 19       		.uleb128 0x19
 10224 02b6 03       		.uleb128 0x3
 10225 02b7 0E       		.uleb128 0xe
 10226 02b8 3A       		.uleb128 0x3a
 10227 02b9 0B       		.uleb128 0xb
 10228 02ba 3B       		.uleb128 0x3b
 10229 02bb 0B       		.uleb128 0xb
 10230 02bc 27       		.uleb128 0x27
 10231 02bd 19       		.uleb128 0x19
 10232 02be 49       		.uleb128 0x49
 10233 02bf 13       		.uleb128 0x13
 10234 02c0 11       		.uleb128 0x11
ARM GAS  C:\Users\rdn\AppData\Local\Temp\cckhx27q.s 			page 207


 10235 02c1 01       		.uleb128 0x1
 10236 02c2 12       		.uleb128 0x12
 10237 02c3 06       		.uleb128 0x6
 10238 02c4 40       		.uleb128 0x40
 10239 02c5 18       		.uleb128 0x18
 10240 02c6 9742     		.uleb128 0x2117
 10241 02c8 19       		.uleb128 0x19
 10242 02c9 01       		.uleb128 0x1
 10243 02ca 13       		.uleb128 0x13
 10244 02cb 00       		.byte	0
 10245 02cc 00       		.byte	0
 10246 02cd 36       		.uleb128 0x36
 10247 02ce 1D       		.uleb128 0x1d
 10248 02cf 01       		.byte	0x1
 10249 02d0 31       		.uleb128 0x31
 10250 02d1 13       		.uleb128 0x13
 10251 02d2 11       		.uleb128 0x11
 10252 02d3 01       		.uleb128 0x1
 10253 02d4 12       		.uleb128 0x12
 10254 02d5 06       		.uleb128 0x6
 10255 02d6 58       		.uleb128 0x58
 10256 02d7 0B       		.uleb128 0xb
 10257 02d8 59       		.uleb128 0x59
 10258 02d9 0B       		.uleb128 0xb
 10259 02da 01       		.uleb128 0x1
 10260 02db 13       		.uleb128 0x13
 10261 02dc 00       		.byte	0
 10262 02dd 00       		.byte	0
 10263 02de 37       		.uleb128 0x37
 10264 02df 898201   		.uleb128 0x4109
 10265 02e2 01       		.byte	0x1
 10266 02e3 11       		.uleb128 0x11
 10267 02e4 01       		.uleb128 0x1
 10268 02e5 31       		.uleb128 0x31
 10269 02e6 13       		.uleb128 0x13
 10270 02e7 01       		.uleb128 0x1
 10271 02e8 13       		.uleb128 0x13
 10272 02e9 00       		.byte	0
 10273 02ea 00       		.byte	0
 10274 02eb 38       		.uleb128 0x38
 10275 02ec 8A8201   		.uleb128 0x410a
 10276 02ef 00       		.byte	0
 10277 02f0 02       		.uleb128 0x2
 10278 02f1 18       		.uleb128 0x18
 10279 02f2 9142     		.uleb128 0x2111
 10280 02f4 18       		.uleb128 0x18
 10281 02f5 00       		.byte	0
 10282 02f6 00       		.byte	0
 10283 02f7 39       		.uleb128 0x39
 10284 02f8 898201   		.uleb128 0x4109
 10285 02fb 01       		.byte	0x1
 10286 02fc 11       		.uleb128 0x11
 10287 02fd 01       		.uleb128 0x1
 10288 02fe 31       		.uleb128 0x31
 10289 02ff 13       		.uleb128 0x13
 10290 0300 00       		.byte	0
 10291 0301 00       		.byte	0
ARM GAS  C:\Users\rdn\AppData\Local\Temp\cckhx27q.s 			page 208


 10292 0302 3A       		.uleb128 0x3a
 10293 0303 898201   		.uleb128 0x4109
 10294 0306 01       		.byte	0x1
 10295 0307 11       		.uleb128 0x11
 10296 0308 01       		.uleb128 0x1
 10297 0309 9542     		.uleb128 0x2115
 10298 030b 19       		.uleb128 0x19
 10299 030c 31       		.uleb128 0x31
 10300 030d 13       		.uleb128 0x13
 10301 030e 00       		.byte	0
 10302 030f 00       		.byte	0
 10303 0310 3B       		.uleb128 0x3b
 10304 0311 2E       		.uleb128 0x2e
 10305 0312 01       		.byte	0x1
 10306 0313 3F       		.uleb128 0x3f
 10307 0314 19       		.uleb128 0x19
 10308 0315 03       		.uleb128 0x3
 10309 0316 0E       		.uleb128 0xe
 10310 0317 3A       		.uleb128 0x3a
 10311 0318 0B       		.uleb128 0xb
 10312 0319 3B       		.uleb128 0x3b
 10313 031a 0B       		.uleb128 0xb
 10314 031b 27       		.uleb128 0x27
 10315 031c 19       		.uleb128 0x19
 10316 031d 49       		.uleb128 0x49
 10317 031e 13       		.uleb128 0x13
 10318 031f 11       		.uleb128 0x11
 10319 0320 01       		.uleb128 0x1
 10320 0321 12       		.uleb128 0x12
 10321 0322 06       		.uleb128 0x6
 10322 0323 40       		.uleb128 0x40
 10323 0324 18       		.uleb128 0x18
 10324 0325 9642     		.uleb128 0x2116
 10325 0327 19       		.uleb128 0x19
 10326 0328 01       		.uleb128 0x1
 10327 0329 13       		.uleb128 0x13
 10328 032a 00       		.byte	0
 10329 032b 00       		.byte	0
 10330 032c 3C       		.uleb128 0x3c
 10331 032d 1D       		.uleb128 0x1d
 10332 032e 01       		.byte	0x1
 10333 032f 31       		.uleb128 0x31
 10334 0330 13       		.uleb128 0x13
 10335 0331 52       		.uleb128 0x52
 10336 0332 01       		.uleb128 0x1
 10337 0333 55       		.uleb128 0x55
 10338 0334 17       		.uleb128 0x17
 10339 0335 58       		.uleb128 0x58
 10340 0336 0B       		.uleb128 0xb
 10341 0337 59       		.uleb128 0x59
 10342 0338 0B       		.uleb128 0xb
 10343 0339 00       		.byte	0
 10344 033a 00       		.byte	0
 10345 033b 3D       		.uleb128 0x3d
 10346 033c 0B       		.uleb128 0xb
 10347 033d 01       		.byte	0x1
 10348 033e 11       		.uleb128 0x11
ARM GAS  C:\Users\rdn\AppData\Local\Temp\cckhx27q.s 			page 209


 10349 033f 01       		.uleb128 0x1
 10350 0340 12       		.uleb128 0x12
 10351 0341 06       		.uleb128 0x6
 10352 0342 01       		.uleb128 0x1
 10353 0343 13       		.uleb128 0x13
 10354 0344 00       		.byte	0
 10355 0345 00       		.byte	0
 10356 0346 3E       		.uleb128 0x3e
 10357 0347 2E       		.uleb128 0x2e
 10358 0348 01       		.byte	0x1
 10359 0349 3F       		.uleb128 0x3f
 10360 034a 19       		.uleb128 0x19
 10361 034b 03       		.uleb128 0x3
 10362 034c 0E       		.uleb128 0xe
 10363 034d 3A       		.uleb128 0x3a
 10364 034e 0B       		.uleb128 0xb
 10365 034f 3B       		.uleb128 0x3b
 10366 0350 05       		.uleb128 0x5
 10367 0351 27       		.uleb128 0x27
 10368 0352 19       		.uleb128 0x19
 10369 0353 49       		.uleb128 0x49
 10370 0354 13       		.uleb128 0x13
 10371 0355 11       		.uleb128 0x11
 10372 0356 01       		.uleb128 0x1
 10373 0357 12       		.uleb128 0x12
 10374 0358 06       		.uleb128 0x6
 10375 0359 40       		.uleb128 0x40
 10376 035a 18       		.uleb128 0x18
 10377 035b 9742     		.uleb128 0x2117
 10378 035d 19       		.uleb128 0x19
 10379 035e 01       		.uleb128 0x1
 10380 035f 13       		.uleb128 0x13
 10381 0360 00       		.byte	0
 10382 0361 00       		.byte	0
 10383 0362 3F       		.uleb128 0x3f
 10384 0363 05       		.uleb128 0x5
 10385 0364 00       		.byte	0
 10386 0365 03       		.uleb128 0x3
 10387 0366 08       		.uleb128 0x8
 10388 0367 3A       		.uleb128 0x3a
 10389 0368 0B       		.uleb128 0xb
 10390 0369 3B       		.uleb128 0x3b
 10391 036a 05       		.uleb128 0x5
 10392 036b 49       		.uleb128 0x49
 10393 036c 13       		.uleb128 0x13
 10394 036d 02       		.uleb128 0x2
 10395 036e 17       		.uleb128 0x17
 10396 036f 00       		.byte	0
 10397 0370 00       		.byte	0
 10398 0371 40       		.uleb128 0x40
 10399 0372 34       		.uleb128 0x34
 10400 0373 00       		.byte	0
 10401 0374 03       		.uleb128 0x3
 10402 0375 0E       		.uleb128 0xe
 10403 0376 3A       		.uleb128 0x3a
 10404 0377 0B       		.uleb128 0xb
 10405 0378 3B       		.uleb128 0x3b
ARM GAS  C:\Users\rdn\AppData\Local\Temp\cckhx27q.s 			page 210


 10406 0379 05       		.uleb128 0x5
 10407 037a 49       		.uleb128 0x49
 10408 037b 13       		.uleb128 0x13
 10409 037c 02       		.uleb128 0x2
 10410 037d 17       		.uleb128 0x17
 10411 037e 00       		.byte	0
 10412 037f 00       		.byte	0
 10413 0380 41       		.uleb128 0x41
 10414 0381 2E       		.uleb128 0x2e
 10415 0382 01       		.byte	0x1
 10416 0383 03       		.uleb128 0x3
 10417 0384 0E       		.uleb128 0xe
 10418 0385 3A       		.uleb128 0x3a
 10419 0386 0B       		.uleb128 0xb
 10420 0387 3B       		.uleb128 0x3b
 10421 0388 05       		.uleb128 0x5
 10422 0389 27       		.uleb128 0x27
 10423 038a 19       		.uleb128 0x19
 10424 038b 20       		.uleb128 0x20
 10425 038c 0B       		.uleb128 0xb
 10426 038d 01       		.uleb128 0x1
 10427 038e 13       		.uleb128 0x13
 10428 038f 00       		.byte	0
 10429 0390 00       		.byte	0
 10430 0391 42       		.uleb128 0x42
 10431 0392 34       		.uleb128 0x34
 10432 0393 00       		.byte	0
 10433 0394 03       		.uleb128 0x3
 10434 0395 0E       		.uleb128 0xe
 10435 0396 3A       		.uleb128 0x3a
 10436 0397 0B       		.uleb128 0xb
 10437 0398 3B       		.uleb128 0x3b
 10438 0399 05       		.uleb128 0x5
 10439 039a 49       		.uleb128 0x49
 10440 039b 13       		.uleb128 0x13
 10441 039c 00       		.byte	0
 10442 039d 00       		.byte	0
 10443 039e 43       		.uleb128 0x43
 10444 039f 34       		.uleb128 0x34
 10445 03a0 00       		.byte	0
 10446 03a1 03       		.uleb128 0x3
 10447 03a2 0E       		.uleb128 0xe
 10448 03a3 3A       		.uleb128 0x3a
 10449 03a4 0B       		.uleb128 0xb
 10450 03a5 3B       		.uleb128 0x3b
 10451 03a6 05       		.uleb128 0x5
 10452 03a7 49       		.uleb128 0x49
 10453 03a8 13       		.uleb128 0x13
 10454 03a9 02       		.uleb128 0x2
 10455 03aa 18       		.uleb128 0x18
 10456 03ab 00       		.byte	0
 10457 03ac 00       		.byte	0
 10458 03ad 44       		.uleb128 0x44
 10459 03ae 34       		.uleb128 0x34
 10460 03af 00       		.byte	0
 10461 03b0 31       		.uleb128 0x31
 10462 03b1 13       		.uleb128 0x13
ARM GAS  C:\Users\rdn\AppData\Local\Temp\cckhx27q.s 			page 211


 10463 03b2 00       		.byte	0
 10464 03b3 00       		.byte	0
 10465 03b4 45       		.uleb128 0x45
 10466 03b5 34       		.uleb128 0x34
 10467 03b6 00       		.byte	0
 10468 03b7 31       		.uleb128 0x31
 10469 03b8 13       		.uleb128 0x13
 10470 03b9 02       		.uleb128 0x2
 10471 03ba 18       		.uleb128 0x18
 10472 03bb 00       		.byte	0
 10473 03bc 00       		.byte	0
 10474 03bd 46       		.uleb128 0x46
 10475 03be 898201   		.uleb128 0x4109
 10476 03c1 01       		.byte	0x1
 10477 03c2 11       		.uleb128 0x11
 10478 03c3 01       		.uleb128 0x1
 10479 03c4 9342     		.uleb128 0x2113
 10480 03c6 18       		.uleb128 0x18
 10481 03c7 00       		.byte	0
 10482 03c8 00       		.byte	0
 10483 03c9 47       		.uleb128 0x47
 10484 03ca 15       		.uleb128 0x15
 10485 03cb 01       		.byte	0x1
 10486 03cc 27       		.uleb128 0x27
 10487 03cd 19       		.uleb128 0x19
 10488 03ce 01       		.uleb128 0x1
 10489 03cf 13       		.uleb128 0x13
 10490 03d0 00       		.byte	0
 10491 03d1 00       		.byte	0
 10492 03d2 48       		.uleb128 0x48
 10493 03d3 05       		.uleb128 0x5
 10494 03d4 00       		.byte	0
 10495 03d5 49       		.uleb128 0x49
 10496 03d6 13       		.uleb128 0x13
 10497 03d7 00       		.byte	0
 10498 03d8 00       		.byte	0
 10499 03d9 49       		.uleb128 0x49
 10500 03da 2E       		.uleb128 0x2e
 10501 03db 01       		.byte	0x1
 10502 03dc 03       		.uleb128 0x3
 10503 03dd 0E       		.uleb128 0xe
 10504 03de 3A       		.uleb128 0x3a
 10505 03df 0B       		.uleb128 0xb
 10506 03e0 3B       		.uleb128 0x3b
 10507 03e1 05       		.uleb128 0x5
 10508 03e2 27       		.uleb128 0x27
 10509 03e3 19       		.uleb128 0x19
 10510 03e4 49       		.uleb128 0x49
 10511 03e5 13       		.uleb128 0x13
 10512 03e6 20       		.uleb128 0x20
 10513 03e7 0B       		.uleb128 0xb
 10514 03e8 01       		.uleb128 0x1
 10515 03e9 13       		.uleb128 0x13
 10516 03ea 00       		.byte	0
 10517 03eb 00       		.byte	0
 10518 03ec 4A       		.uleb128 0x4a
 10519 03ed 34       		.uleb128 0x34
ARM GAS  C:\Users\rdn\AppData\Local\Temp\cckhx27q.s 			page 212


 10520 03ee 00       		.byte	0
 10521 03ef 03       		.uleb128 0x3
 10522 03f0 0E       		.uleb128 0xe
 10523 03f1 3A       		.uleb128 0x3a
 10524 03f2 0B       		.uleb128 0xb
 10525 03f3 3B       		.uleb128 0x3b
 10526 03f4 0B       		.uleb128 0xb
 10527 03f5 49       		.uleb128 0x49
 10528 03f6 13       		.uleb128 0x13
 10529 03f7 3F       		.uleb128 0x3f
 10530 03f8 19       		.uleb128 0x19
 10531 03f9 3C       		.uleb128 0x3c
 10532 03fa 19       		.uleb128 0x19
 10533 03fb 00       		.byte	0
 10534 03fc 00       		.byte	0
 10535 03fd 4B       		.uleb128 0x4b
 10536 03fe 2E       		.uleb128 0x2e
 10537 03ff 00       		.byte	0
 10538 0400 3F       		.uleb128 0x3f
 10539 0401 19       		.uleb128 0x19
 10540 0402 3C       		.uleb128 0x3c
 10541 0403 19       		.uleb128 0x19
 10542 0404 6E       		.uleb128 0x6e
 10543 0405 0E       		.uleb128 0xe
 10544 0406 03       		.uleb128 0x3
 10545 0407 0E       		.uleb128 0xe
 10546 0408 3A       		.uleb128 0x3a
 10547 0409 0B       		.uleb128 0xb
 10548 040a 3B       		.uleb128 0x3b
 10549 040b 05       		.uleb128 0x5
 10550 040c 00       		.byte	0
 10551 040d 00       		.byte	0
 10552 040e 4C       		.uleb128 0x4c
 10553 040f 2E       		.uleb128 0x2e
 10554 0410 00       		.byte	0
 10555 0411 3F       		.uleb128 0x3f
 10556 0412 19       		.uleb128 0x19
 10557 0413 3C       		.uleb128 0x3c
 10558 0414 19       		.uleb128 0x19
 10559 0415 6E       		.uleb128 0x6e
 10560 0416 0E       		.uleb128 0xe
 10561 0417 03       		.uleb128 0x3
 10562 0418 0E       		.uleb128 0xe
 10563 0419 00       		.byte	0
 10564 041a 00       		.byte	0
 10565 041b 4D       		.uleb128 0x4d
 10566 041c 2E       		.uleb128 0x2e
 10567 041d 00       		.byte	0
 10568 041e 3F       		.uleb128 0x3f
 10569 041f 19       		.uleb128 0x19
 10570 0420 3C       		.uleb128 0x3c
 10571 0421 19       		.uleb128 0x19
 10572 0422 6E       		.uleb128 0x6e
 10573 0423 0E       		.uleb128 0xe
 10574 0424 03       		.uleb128 0x3
 10575 0425 0E       		.uleb128 0xe
 10576 0426 3A       		.uleb128 0x3a
ARM GAS  C:\Users\rdn\AppData\Local\Temp\cckhx27q.s 			page 213


 10577 0427 0B       		.uleb128 0xb
 10578 0428 3B       		.uleb128 0x3b
 10579 0429 0B       		.uleb128 0xb
 10580 042a 00       		.byte	0
 10581 042b 00       		.byte	0
 10582 042c 00       		.byte	0
 10583              		.section	.debug_loc,"",%progbits
 10584              	.Ldebug_loc0:
 10585              	.LLST0:
 10586 0000 00000000 		.4byte	.LVL0
 10587 0004 24000000 		.4byte	.LVL4
 10588 0008 0100     		.2byte	0x1
 10589 000a 50       		.byte	0x50
 10590 000b 24000000 		.4byte	.LVL4
 10591 000f 28000000 		.4byte	.LVL5
 10592 0013 0400     		.2byte	0x4
 10593 0015 75       		.byte	0x75
 10594 0016 D476     		.sleb128 -1196
 10595 0018 9F       		.byte	0x9f
 10596 0019 28000000 		.4byte	.LVL5
 10597 001d 50000000 		.4byte	.LFE32
 10598 0021 0400     		.2byte	0x4
 10599 0023 F3       		.byte	0xf3
 10600 0024 01       		.uleb128 0x1
 10601 0025 50       		.byte	0x50
 10602 0026 9F       		.byte	0x9f
 10603 0027 00000000 		.4byte	0
 10604 002b 00000000 		.4byte	0
 10605              	.LLST1:
 10606 002f 00000000 		.4byte	.LVL0
 10607 0033 28000000 		.4byte	.LVL5
 10608 0037 0100     		.2byte	0x1
 10609 0039 51       		.byte	0x51
 10610 003a 28000000 		.4byte	.LVL5
 10611 003e 50000000 		.4byte	.LFE32
 10612 0042 0400     		.2byte	0x4
 10613 0044 F3       		.byte	0xf3
 10614 0045 01       		.uleb128 0x1
 10615 0046 51       		.byte	0x51
 10616 0047 9F       		.byte	0x9f
 10617 0048 00000000 		.4byte	0
 10618 004c 00000000 		.4byte	0
 10619              	.LLST2:
 10620 0050 00000000 		.4byte	.LVL0
 10621 0054 22000000 		.4byte	.LVL3
 10622 0058 0100     		.2byte	0x1
 10623 005a 52       		.byte	0x52
 10624 005b 22000000 		.4byte	.LVL3
 10625 005f 50000000 		.4byte	.LFE32
 10626 0063 0400     		.2byte	0x4
 10627 0065 F3       		.byte	0xf3
 10628 0066 01       		.uleb128 0x1
 10629 0067 52       		.byte	0x52
 10630 0068 9F       		.byte	0x9f
 10631 0069 00000000 		.4byte	0
 10632 006d 00000000 		.4byte	0
 10633              	.LLST3:
ARM GAS  C:\Users\rdn\AppData\Local\Temp\cckhx27q.s 			page 214


 10634 0071 00000000 		.4byte	.LVL0
 10635 0075 24000000 		.4byte	.LVL4
 10636 0079 0200     		.2byte	0x2
 10637 007b 70       		.byte	0x70
 10638 007c 00       		.sleb128 0
 10639 007d 24000000 		.4byte	.LVL4
 10640 0081 28000000 		.4byte	.LVL5
 10641 0085 0300     		.2byte	0x3
 10642 0087 75       		.byte	0x75
 10643 0088 D476     		.sleb128 -1196
 10644 008a 00000000 		.4byte	0
 10645 008e 00000000 		.4byte	0
 10646              	.LLST4:
 10647 0092 00000000 		.4byte	.LVL0
 10648 0096 24000000 		.4byte	.LVL4
 10649 009a 0200     		.2byte	0x2
 10650 009c 70       		.byte	0x70
 10651 009d 02       		.sleb128 2
 10652 009e 24000000 		.4byte	.LVL4
 10653 00a2 28000000 		.4byte	.LVL5
 10654 00a6 0300     		.2byte	0x3
 10655 00a8 75       		.byte	0x75
 10656 00a9 D676     		.sleb128 -1194
 10657 00ab 00000000 		.4byte	0
 10658 00af 00000000 		.4byte	0
 10659              	.LLST5:
 10660 00b3 1C000000 		.4byte	.LVL1
 10661 00b7 28000000 		.4byte	.LVL5
 10662 00bb 0800     		.2byte	0x8
 10663 00bd 76       		.byte	0x76
 10664 00be 00       		.sleb128 0
 10665 00bf 31       		.byte	0x31
 10666 00c0 24       		.byte	0x24
 10667 00c1 75       		.byte	0x75
 10668 00c2 00       		.sleb128 0
 10669 00c3 22       		.byte	0x22
 10670 00c4 9F       		.byte	0x9f
 10671 00c5 28000000 		.4byte	.LVL5
 10672 00c9 50000000 		.4byte	.LFE32
 10673 00cd 1100     		.2byte	0x11
 10674 00cf F3       		.byte	0xf3
 10675 00d0 01       		.uleb128 0x1
 10676 00d1 50       		.byte	0x50
 10677 00d2 23       		.byte	0x23
 10678 00d3 A009     		.uleb128 0x4a0
 10679 00d5 06       		.byte	0x6
 10680 00d6 31       		.byte	0x31
 10681 00d7 24       		.byte	0x24
 10682 00d8 F3       		.byte	0xf3
 10683 00d9 01       		.uleb128 0x1
 10684 00da 50       		.byte	0x50
 10685 00db 22       		.byte	0x22
 10686 00dc 23       		.byte	0x23
 10687 00dd AC09     		.uleb128 0x4ac
 10688 00df 9F       		.byte	0x9f
 10689 00e0 00000000 		.4byte	0
 10690 00e4 00000000 		.4byte	0
ARM GAS  C:\Users\rdn\AppData\Local\Temp\cckhx27q.s 			page 215


 10691              	.LLST6:
 10692 00e8 1C000000 		.4byte	.LVL1
 10693 00ec 20000000 		.4byte	.LVL2
 10694 00f0 0800     		.2byte	0x8
 10695 00f2 74       		.byte	0x74
 10696 00f3 00       		.sleb128 0
 10697 00f4 32       		.byte	0x32
 10698 00f5 24       		.byte	0x24
 10699 00f6 75       		.byte	0x75
 10700 00f7 00       		.sleb128 0
 10701 00f8 22       		.byte	0x22
 10702 00f9 9F       		.byte	0x9f
 10703 00fa 20000000 		.4byte	.LVL2
 10704 00fe 24000000 		.4byte	.LVL4
 10705 0102 0A00     		.2byte	0xa
 10706 0104 70       		.byte	0x70
 10707 0105 A409     		.sleb128 1188
 10708 0107 06       		.byte	0x6
 10709 0108 32       		.byte	0x32
 10710 0109 24       		.byte	0x24
 10711 010a 75       		.byte	0x75
 10712 010b 00       		.sleb128 0
 10713 010c 22       		.byte	0x22
 10714 010d 9F       		.byte	0x9f
 10715 010e 24000000 		.4byte	.LVL4
 10716 0112 28000000 		.4byte	.LVL5
 10717 0116 0900     		.2byte	0x9
 10718 0118 75       		.byte	0x75
 10719 0119 78       		.sleb128 -8
 10720 011a 06       		.byte	0x6
 10721 011b 32       		.byte	0x32
 10722 011c 24       		.byte	0x24
 10723 011d 75       		.byte	0x75
 10724 011e 00       		.sleb128 0
 10725 011f 22       		.byte	0x22
 10726 0120 9F       		.byte	0x9f
 10727 0121 28000000 		.4byte	.LVL5
 10728 0125 50000000 		.4byte	.LFE32
 10729 0129 1100     		.2byte	0x11
 10730 012b F3       		.byte	0xf3
 10731 012c 01       		.uleb128 0x1
 10732 012d 50       		.byte	0x50
 10733 012e 23       		.byte	0x23
 10734 012f A409     		.uleb128 0x4a4
 10735 0131 06       		.byte	0x6
 10736 0132 32       		.byte	0x32
 10737 0133 24       		.byte	0x24
 10738 0134 F3       		.byte	0xf3
 10739 0135 01       		.uleb128 0x1
 10740 0136 50       		.byte	0x50
 10741 0137 22       		.byte	0x22
 10742 0138 23       		.byte	0x23
 10743 0139 AC09     		.uleb128 0x4ac
 10744 013b 9F       		.byte	0x9f
 10745 013c 00000000 		.4byte	0
 10746 0140 00000000 		.4byte	0
 10747              	.LLST7:
ARM GAS  C:\Users\rdn\AppData\Local\Temp\cckhx27q.s 			page 216


 10748 0144 1C000000 		.4byte	.LVL1
 10749 0148 28000000 		.4byte	.LVL5
 10750 014c 0200     		.2byte	0x2
 10751 014e 30       		.byte	0x30
 10752 014f 9F       		.byte	0x9f
 10753 0150 28000000 		.4byte	.LVL5
 10754 0154 50000000 		.4byte	.LFE32
 10755 0158 0100     		.2byte	0x1
 10756 015a 50       		.byte	0x50
 10757 015b 00000000 		.4byte	0
 10758 015f 00000000 		.4byte	0
 10759              	.LLST8:
 10760 0163 00000000 		.4byte	.LVL8
 10761 0167 24000000 		.4byte	.LVL12
 10762 016b 0100     		.2byte	0x1
 10763 016d 50       		.byte	0x50
 10764 016e 24000000 		.4byte	.LVL12
 10765 0172 28000000 		.4byte	.LVL13
 10766 0176 0400     		.2byte	0x4
 10767 0178 73       		.byte	0x73
 10768 0179 D476     		.sleb128 -1196
 10769 017b 9F       		.byte	0x9f
 10770 017c 28000000 		.4byte	.LVL13
 10771 0180 5C000000 		.4byte	.LFE33
 10772 0184 0400     		.2byte	0x4
 10773 0186 F3       		.byte	0xf3
 10774 0187 01       		.uleb128 0x1
 10775 0188 50       		.byte	0x50
 10776 0189 9F       		.byte	0x9f
 10777 018a 00000000 		.4byte	0
 10778 018e 00000000 		.4byte	0
 10779              	.LLST9:
 10780 0192 00000000 		.4byte	.LVL8
 10781 0196 28000000 		.4byte	.LVL13
 10782 019a 0100     		.2byte	0x1
 10783 019c 51       		.byte	0x51
 10784 019d 28000000 		.4byte	.LVL13
 10785 01a1 5C000000 		.4byte	.LFE33
 10786 01a5 0400     		.2byte	0x4
 10787 01a7 F3       		.byte	0xf3
 10788 01a8 01       		.uleb128 0x1
 10789 01a9 51       		.byte	0x51
 10790 01aa 9F       		.byte	0x9f
 10791 01ab 00000000 		.4byte	0
 10792 01af 00000000 		.4byte	0
 10793              	.LLST10:
 10794 01b3 00000000 		.4byte	.LVL8
 10795 01b7 1E000000 		.4byte	.LVL10
 10796 01bb 0100     		.2byte	0x1
 10797 01bd 52       		.byte	0x52
 10798 01be 1E000000 		.4byte	.LVL10
 10799 01c2 5C000000 		.4byte	.LFE33
 10800 01c6 0400     		.2byte	0x4
 10801 01c8 F3       		.byte	0xf3
 10802 01c9 01       		.uleb128 0x1
 10803 01ca 52       		.byte	0x52
 10804 01cb 9F       		.byte	0x9f
ARM GAS  C:\Users\rdn\AppData\Local\Temp\cckhx27q.s 			page 217


 10805 01cc 00000000 		.4byte	0
 10806 01d0 00000000 		.4byte	0
 10807              	.LLST11:
 10808 01d4 00000000 		.4byte	.LVL8
 10809 01d8 4C000000 		.4byte	.LVL16
 10810 01dc 0100     		.2byte	0x1
 10811 01de 51       		.byte	0x51
 10812 01df 52000000 		.4byte	.LVL17
 10813 01e3 5C000000 		.4byte	.LFE33
 10814 01e7 0100     		.2byte	0x1
 10815 01e9 51       		.byte	0x51
 10816 01ea 00000000 		.4byte	0
 10817 01ee 00000000 		.4byte	0
 10818              	.LLST12:
 10819 01f2 00000000 		.4byte	.LVL8
 10820 01f6 24000000 		.4byte	.LVL12
 10821 01fa 0200     		.2byte	0x2
 10822 01fc 70       		.byte	0x70
 10823 01fd 00       		.sleb128 0
 10824 01fe 24000000 		.4byte	.LVL12
 10825 0202 28000000 		.4byte	.LVL13
 10826 0206 0300     		.2byte	0x3
 10827 0208 73       		.byte	0x73
 10828 0209 D476     		.sleb128 -1196
 10829 020b 00000000 		.4byte	0
 10830 020f 00000000 		.4byte	0
 10831              	.LLST13:
 10832 0213 00000000 		.4byte	.LVL8
 10833 0217 24000000 		.4byte	.LVL12
 10834 021b 0200     		.2byte	0x2
 10835 021d 70       		.byte	0x70
 10836 021e 02       		.sleb128 2
 10837 021f 24000000 		.4byte	.LVL12
 10838 0223 28000000 		.4byte	.LVL13
 10839 0227 0300     		.2byte	0x3
 10840 0229 73       		.byte	0x73
 10841 022a D676     		.sleb128 -1194
 10842 022c 00000000 		.4byte	0
 10843 0230 00000000 		.4byte	0
 10844              	.LLST14:
 10845 0234 1C000000 		.4byte	.LVL9
 10846 0238 28000000 		.4byte	.LVL13
 10847 023c 0800     		.2byte	0x8
 10848 023e 75       		.byte	0x75
 10849 023f 00       		.sleb128 0
 10850 0240 31       		.byte	0x31
 10851 0241 24       		.byte	0x24
 10852 0242 73       		.byte	0x73
 10853 0243 00       		.sleb128 0
 10854 0244 22       		.byte	0x22
 10855 0245 9F       		.byte	0x9f
 10856 0246 28000000 		.4byte	.LVL13
 10857 024a 5C000000 		.4byte	.LFE33
 10858 024e 1100     		.2byte	0x11
 10859 0250 F3       		.byte	0xf3
 10860 0251 01       		.uleb128 0x1
 10861 0252 50       		.byte	0x50
ARM GAS  C:\Users\rdn\AppData\Local\Temp\cckhx27q.s 			page 218


 10862 0253 23       		.byte	0x23
 10863 0254 A009     		.uleb128 0x4a0
 10864 0256 06       		.byte	0x6
 10865 0257 31       		.byte	0x31
 10866 0258 24       		.byte	0x24
 10867 0259 F3       		.byte	0xf3
 10868 025a 01       		.uleb128 0x1
 10869 025b 50       		.byte	0x50
 10870 025c 22       		.byte	0x22
 10871 025d 23       		.byte	0x23
 10872 025e AC09     		.uleb128 0x4ac
 10873 0260 9F       		.byte	0x9f
 10874 0261 00000000 		.4byte	0
 10875 0265 00000000 		.4byte	0
 10876              	.LLST15:
 10877 0269 1C000000 		.4byte	.LVL9
 10878 026d 22000000 		.4byte	.LVL11
 10879 0271 0800     		.2byte	0x8
 10880 0273 74       		.byte	0x74
 10881 0274 00       		.sleb128 0
 10882 0275 32       		.byte	0x32
 10883 0276 24       		.byte	0x24
 10884 0277 73       		.byte	0x73
 10885 0278 00       		.sleb128 0
 10886 0279 22       		.byte	0x22
 10887 027a 9F       		.byte	0x9f
 10888 027b 22000000 		.4byte	.LVL11
 10889 027f 24000000 		.4byte	.LVL12
 10890 0283 0A00     		.2byte	0xa
 10891 0285 70       		.byte	0x70
 10892 0286 A409     		.sleb128 1188
 10893 0288 06       		.byte	0x6
 10894 0289 32       		.byte	0x32
 10895 028a 24       		.byte	0x24
 10896 028b 73       		.byte	0x73
 10897 028c 00       		.sleb128 0
 10898 028d 22       		.byte	0x22
 10899 028e 9F       		.byte	0x9f
 10900 028f 24000000 		.4byte	.LVL12
 10901 0293 28000000 		.4byte	.LVL13
 10902 0297 0900     		.2byte	0x9
 10903 0299 73       		.byte	0x73
 10904 029a 78       		.sleb128 -8
 10905 029b 06       		.byte	0x6
 10906 029c 32       		.byte	0x32
 10907 029d 24       		.byte	0x24
 10908 029e 73       		.byte	0x73
 10909 029f 00       		.sleb128 0
 10910 02a0 22       		.byte	0x22
 10911 02a1 9F       		.byte	0x9f
 10912 02a2 28000000 		.4byte	.LVL13
 10913 02a6 5C000000 		.4byte	.LFE33
 10914 02aa 1100     		.2byte	0x11
 10915 02ac F3       		.byte	0xf3
 10916 02ad 01       		.uleb128 0x1
 10917 02ae 50       		.byte	0x50
 10918 02af 23       		.byte	0x23
ARM GAS  C:\Users\rdn\AppData\Local\Temp\cckhx27q.s 			page 219


 10919 02b0 A409     		.uleb128 0x4a4
 10920 02b2 06       		.byte	0x6
 10921 02b3 32       		.byte	0x32
 10922 02b4 24       		.byte	0x24
 10923 02b5 F3       		.byte	0xf3
 10924 02b6 01       		.uleb128 0x1
 10925 02b7 50       		.byte	0x50
 10926 02b8 22       		.byte	0x22
 10927 02b9 23       		.byte	0x23
 10928 02ba AC09     		.uleb128 0x4ac
 10929 02bc 9F       		.byte	0x9f
 10930 02bd 00000000 		.4byte	0
 10931 02c1 00000000 		.4byte	0
 10932              	.LLST16:
 10933 02c5 1C000000 		.4byte	.LVL9
 10934 02c9 28000000 		.4byte	.LVL13
 10935 02cd 0200     		.2byte	0x2
 10936 02cf 30       		.byte	0x30
 10937 02d0 9F       		.byte	0x9f
 10938 02d1 28000000 		.4byte	.LVL13
 10939 02d5 5C000000 		.4byte	.LFE33
 10940 02d9 0100     		.2byte	0x1
 10941 02db 50       		.byte	0x50
 10942 02dc 00000000 		.4byte	0
 10943 02e0 00000000 		.4byte	0
 10944              	.LLST17:
 10945 02e4 3C000000 		.4byte	.LVL14
 10946 02e8 46000000 		.4byte	.LVL15
 10947 02ec 0300     		.2byte	0x3
 10948 02ee 09       		.byte	0x9
 10949 02ef F8       		.byte	0xf8
 10950 02f0 9F       		.byte	0x9f
 10951 02f1 00000000 		.4byte	0
 10952 02f5 00000000 		.4byte	0
 10953              	.LLST18:
 10954 02f9 3C000000 		.4byte	.LVL14
 10955 02fd 46000000 		.4byte	.LVL15
 10956 0301 0100     		.2byte	0x1
 10957 0303 53       		.byte	0x53
 10958 0304 00000000 		.4byte	0
 10959 0308 00000000 		.4byte	0
 10960              	.LLST19:
 10961 030c 3C000000 		.4byte	.LVL14
 10962 0310 46000000 		.4byte	.LVL15
 10963 0314 0300     		.2byte	0x3
 10964 0316 53       		.byte	0x53
 10965 0317 93       		.byte	0x93
 10966 0318 04       		.uleb128 0x4
 10967 0319 00000000 		.4byte	0
 10968 031d 00000000 		.4byte	0
 10969              	.LLST20:
 10970 0321 00000000 		.4byte	.LVL18
 10971 0325 26000000 		.4byte	.LVL22
 10972 0329 0100     		.2byte	0x1
 10973 032b 50       		.byte	0x50
 10974 032c 26000000 		.4byte	.LVL22
 10975 0330 2A000000 		.4byte	.LVL23
ARM GAS  C:\Users\rdn\AppData\Local\Temp\cckhx27q.s 			page 220


 10976 0334 0400     		.2byte	0x4
 10977 0336 73       		.byte	0x73
 10978 0337 D476     		.sleb128 -1196
 10979 0339 9F       		.byte	0x9f
 10980 033a 2A000000 		.4byte	.LVL23
 10981 033e 6C000000 		.4byte	.LFE34
 10982 0342 0400     		.2byte	0x4
 10983 0344 F3       		.byte	0xf3
 10984 0345 01       		.uleb128 0x1
 10985 0346 50       		.byte	0x50
 10986 0347 9F       		.byte	0x9f
 10987 0348 00000000 		.4byte	0
 10988 034c 00000000 		.4byte	0
 10989              	.LLST21:
 10990 0350 00000000 		.4byte	.LVL18
 10991 0354 2A000000 		.4byte	.LVL23
 10992 0358 0100     		.2byte	0x1
 10993 035a 51       		.byte	0x51
 10994 035b 2A000000 		.4byte	.LVL23
 10995 035f 6C000000 		.4byte	.LFE34
 10996 0363 0400     		.2byte	0x4
 10997 0365 F3       		.byte	0xf3
 10998 0366 01       		.uleb128 0x1
 10999 0367 51       		.byte	0x51
 11000 0368 9F       		.byte	0x9f
 11001 0369 00000000 		.4byte	0
 11002 036d 00000000 		.4byte	0
 11003              	.LLST22:
 11004 0371 00000000 		.4byte	.LVL18
 11005 0375 20000000 		.4byte	.LVL20
 11006 0379 0100     		.2byte	0x1
 11007 037b 52       		.byte	0x52
 11008 037c 20000000 		.4byte	.LVL20
 11009 0380 6C000000 		.4byte	.LFE34
 11010 0384 0400     		.2byte	0x4
 11011 0386 F3       		.byte	0xf3
 11012 0387 01       		.uleb128 0x1
 11013 0388 52       		.byte	0x52
 11014 0389 9F       		.byte	0x9f
 11015 038a 00000000 		.4byte	0
 11016 038e 00000000 		.4byte	0
 11017              	.LLST23:
 11018 0392 00000000 		.4byte	.LVL18
 11019 0396 5C000000 		.4byte	.LVL28
 11020 039a 0100     		.2byte	0x1
 11021 039c 51       		.byte	0x51
 11022 039d 62000000 		.4byte	.LVL29
 11023 03a1 6C000000 		.4byte	.LFE34
 11024 03a5 0100     		.2byte	0x1
 11025 03a7 51       		.byte	0x51
 11026 03a8 00000000 		.4byte	0
 11027 03ac 00000000 		.4byte	0
 11028              	.LLST24:
 11029 03b0 00000000 		.4byte	.LVL18
 11030 03b4 26000000 		.4byte	.LVL22
 11031 03b8 0200     		.2byte	0x2
 11032 03ba 70       		.byte	0x70
ARM GAS  C:\Users\rdn\AppData\Local\Temp\cckhx27q.s 			page 221


 11033 03bb 00       		.sleb128 0
 11034 03bc 26000000 		.4byte	.LVL22
 11035 03c0 2A000000 		.4byte	.LVL23
 11036 03c4 0300     		.2byte	0x3
 11037 03c6 73       		.byte	0x73
 11038 03c7 D476     		.sleb128 -1196
 11039 03c9 00000000 		.4byte	0
 11040 03cd 00000000 		.4byte	0
 11041              	.LLST25:
 11042 03d1 00000000 		.4byte	.LVL18
 11043 03d5 26000000 		.4byte	.LVL22
 11044 03d9 0200     		.2byte	0x2
 11045 03db 70       		.byte	0x70
 11046 03dc 02       		.sleb128 2
 11047 03dd 26000000 		.4byte	.LVL22
 11048 03e1 2A000000 		.4byte	.LVL23
 11049 03e5 0300     		.2byte	0x3
 11050 03e7 73       		.byte	0x73
 11051 03e8 D676     		.sleb128 -1194
 11052 03ea 00000000 		.4byte	0
 11053 03ee 00000000 		.4byte	0
 11054              	.LLST26:
 11055 03f2 1C000000 		.4byte	.LVL19
 11056 03f6 2A000000 		.4byte	.LVL23
 11057 03fa 0800     		.2byte	0x8
 11058 03fc 76       		.byte	0x76
 11059 03fd 00       		.sleb128 0
 11060 03fe 31       		.byte	0x31
 11061 03ff 24       		.byte	0x24
 11062 0400 73       		.byte	0x73
 11063 0401 00       		.sleb128 0
 11064 0402 22       		.byte	0x22
 11065 0403 9F       		.byte	0x9f
 11066 0404 2A000000 		.4byte	.LVL23
 11067 0408 6C000000 		.4byte	.LFE34
 11068 040c 1100     		.2byte	0x11
 11069 040e F3       		.byte	0xf3
 11070 040f 01       		.uleb128 0x1
 11071 0410 50       		.byte	0x50
 11072 0411 23       		.byte	0x23
 11073 0412 A009     		.uleb128 0x4a0
 11074 0414 06       		.byte	0x6
 11075 0415 31       		.byte	0x31
 11076 0416 24       		.byte	0x24
 11077 0417 F3       		.byte	0xf3
 11078 0418 01       		.uleb128 0x1
 11079 0419 50       		.byte	0x50
 11080 041a 22       		.byte	0x22
 11081 041b 23       		.byte	0x23
 11082 041c AC09     		.uleb128 0x4ac
 11083 041e 9F       		.byte	0x9f
 11084 041f 00000000 		.4byte	0
 11085 0423 00000000 		.4byte	0
 11086              	.LLST27:
 11087 0427 1C000000 		.4byte	.LVL19
 11088 042b 24000000 		.4byte	.LVL21
 11089 042f 0800     		.2byte	0x8
ARM GAS  C:\Users\rdn\AppData\Local\Temp\cckhx27q.s 			page 222


 11090 0431 74       		.byte	0x74
 11091 0432 00       		.sleb128 0
 11092 0433 32       		.byte	0x32
 11093 0434 24       		.byte	0x24
 11094 0435 73       		.byte	0x73
 11095 0436 00       		.sleb128 0
 11096 0437 22       		.byte	0x22
 11097 0438 9F       		.byte	0x9f
 11098 0439 24000000 		.4byte	.LVL21
 11099 043d 26000000 		.4byte	.LVL22
 11100 0441 0A00     		.2byte	0xa
 11101 0443 70       		.byte	0x70
 11102 0444 A409     		.sleb128 1188
 11103 0446 06       		.byte	0x6
 11104 0447 32       		.byte	0x32
 11105 0448 24       		.byte	0x24
 11106 0449 73       		.byte	0x73
 11107 044a 00       		.sleb128 0
 11108 044b 22       		.byte	0x22
 11109 044c 9F       		.byte	0x9f
 11110 044d 26000000 		.4byte	.LVL22
 11111 0451 2A000000 		.4byte	.LVL23
 11112 0455 0900     		.2byte	0x9
 11113 0457 73       		.byte	0x73
 11114 0458 78       		.sleb128 -8
 11115 0459 06       		.byte	0x6
 11116 045a 32       		.byte	0x32
 11117 045b 24       		.byte	0x24
 11118 045c 73       		.byte	0x73
 11119 045d 00       		.sleb128 0
 11120 045e 22       		.byte	0x22
 11121 045f 9F       		.byte	0x9f
 11122 0460 2A000000 		.4byte	.LVL23
 11123 0464 6C000000 		.4byte	.LFE34
 11124 0468 1100     		.2byte	0x11
 11125 046a F3       		.byte	0xf3
 11126 046b 01       		.uleb128 0x1
 11127 046c 50       		.byte	0x50
 11128 046d 23       		.byte	0x23
 11129 046e A409     		.uleb128 0x4a4
 11130 0470 06       		.byte	0x6
 11131 0471 32       		.byte	0x32
 11132 0472 24       		.byte	0x24
 11133 0473 F3       		.byte	0xf3
 11134 0474 01       		.uleb128 0x1
 11135 0475 50       		.byte	0x50
 11136 0476 22       		.byte	0x22
 11137 0477 23       		.byte	0x23
 11138 0478 AC09     		.uleb128 0x4ac
 11139 047a 9F       		.byte	0x9f
 11140 047b 00000000 		.4byte	0
 11141 047f 00000000 		.4byte	0
 11142              	.LLST28:
 11143 0483 1C000000 		.4byte	.LVL19
 11144 0487 2A000000 		.4byte	.LVL23
 11145 048b 0200     		.2byte	0x2
 11146 048d 30       		.byte	0x30
ARM GAS  C:\Users\rdn\AppData\Local\Temp\cckhx27q.s 			page 223


 11147 048e 9F       		.byte	0x9f
 11148 048f 2A000000 		.4byte	.LVL23
 11149 0493 6C000000 		.4byte	.LFE34
 11150 0497 0100     		.2byte	0x1
 11151 0499 50       		.byte	0x50
 11152 049a 00000000 		.4byte	0
 11153 049e 00000000 		.4byte	0
 11154              	.LLST29:
 11155 04a2 3E000000 		.4byte	.LVL24
 11156 04a6 4C000000 		.4byte	.LVL25
 11157 04aa 0100     		.2byte	0x1
 11158 04ac 53       		.byte	0x53
 11159 04ad 4C000000 		.4byte	.LVL25
 11160 04b1 5A000000 		.4byte	.LVL27
 11161 04b5 1E00     		.2byte	0x1e
 11162 04b7 71       		.byte	0x71
 11163 04b8 00       		.sleb128 0
 11164 04b9 94       		.byte	0x94
 11165 04ba 01       		.byte	0x1
 11166 04bb 08       		.byte	0x8
 11167 04bc FF       		.byte	0xff
 11168 04bd 1A       		.byte	0x1a
 11169 04be 38       		.byte	0x38
 11170 04bf 24       		.byte	0x24
 11171 04c0 71       		.byte	0x71
 11172 04c1 01       		.sleb128 1
 11173 04c2 94       		.byte	0x94
 11174 04c3 01       		.byte	0x1
 11175 04c4 08       		.byte	0x8
 11176 04c5 FF       		.byte	0xff
 11177 04c6 1A       		.byte	0x1a
 11178 04c7 40       		.byte	0x40
 11179 04c8 24       		.byte	0x24
 11180 04c9 21       		.byte	0x21
 11181 04ca 71       		.byte	0x71
 11182 04cb 02       		.sleb128 2
 11183 04cc 94       		.byte	0x94
 11184 04cd 01       		.byte	0x1
 11185 04ce 08       		.byte	0x8
 11186 04cf FF       		.byte	0xff
 11187 04d0 1A       		.byte	0x1a
 11188 04d1 48       		.byte	0x48
 11189 04d2 24       		.byte	0x24
 11190 04d3 21       		.byte	0x21
 11191 04d4 9F       		.byte	0x9f
 11192 04d5 00000000 		.4byte	0
 11193 04d9 00000000 		.4byte	0
 11194              	.LLST30:
 11195 04dd 4C000000 		.4byte	.LVL25
 11196 04e1 56000000 		.4byte	.LVL26
 11197 04e5 0300     		.2byte	0x3
 11198 04e7 09       		.byte	0x9
 11199 04e8 F0       		.byte	0xf0
 11200 04e9 9F       		.byte	0x9f
 11201 04ea 00000000 		.4byte	0
 11202 04ee 00000000 		.4byte	0
 11203              	.LLST31:
ARM GAS  C:\Users\rdn\AppData\Local\Temp\cckhx27q.s 			page 224


 11204 04f2 4C000000 		.4byte	.LVL25
 11205 04f6 56000000 		.4byte	.LVL26
 11206 04fa 0100     		.2byte	0x1
 11207 04fc 53       		.byte	0x53
 11208 04fd 00000000 		.4byte	0
 11209 0501 00000000 		.4byte	0
 11210              	.LLST32:
 11211 0505 4C000000 		.4byte	.LVL25
 11212 0509 56000000 		.4byte	.LVL26
 11213 050d 0300     		.2byte	0x3
 11214 050f 53       		.byte	0x53
 11215 0510 93       		.byte	0x93
 11216 0511 04       		.uleb128 0x4
 11217 0512 00000000 		.4byte	0
 11218 0516 00000000 		.4byte	0
 11219              	.LLST33:
 11220 051a 00000000 		.4byte	.LVL30
 11221 051e 28000000 		.4byte	.LVL34
 11222 0522 0100     		.2byte	0x1
 11223 0524 50       		.byte	0x50
 11224 0525 28000000 		.4byte	.LVL34
 11225 0529 30000000 		.4byte	.LVL35
 11226 052d 0400     		.2byte	0x4
 11227 052f 73       		.byte	0x73
 11228 0530 D476     		.sleb128 -1196
 11229 0532 9F       		.byte	0x9f
 11230 0533 30000000 		.4byte	.LVL35
 11231 0537 78000000 		.4byte	.LFE35
 11232 053b 0400     		.2byte	0x4
 11233 053d F3       		.byte	0xf3
 11234 053e 01       		.uleb128 0x1
 11235 053f 50       		.byte	0x50
 11236 0540 9F       		.byte	0x9f
 11237 0541 00000000 		.4byte	0
 11238 0545 00000000 		.4byte	0
 11239              	.LLST34:
 11240 0549 00000000 		.4byte	.LVL30
 11241 054d 30000000 		.4byte	.LVL35
 11242 0551 0100     		.2byte	0x1
 11243 0553 51       		.byte	0x51
 11244 0554 30000000 		.4byte	.LVL35
 11245 0558 78000000 		.4byte	.LFE35
 11246 055c 0400     		.2byte	0x4
 11247 055e F3       		.byte	0xf3
 11248 055f 01       		.uleb128 0x1
 11249 0560 51       		.byte	0x51
 11250 0561 9F       		.byte	0x9f
 11251 0562 00000000 		.4byte	0
 11252 0566 00000000 		.4byte	0
 11253              	.LLST35:
 11254 056a 00000000 		.4byte	.LVL30
 11255 056e 22000000 		.4byte	.LVL32
 11256 0572 0100     		.2byte	0x1
 11257 0574 52       		.byte	0x52
 11258 0575 22000000 		.4byte	.LVL32
 11259 0579 78000000 		.4byte	.LFE35
 11260 057d 0400     		.2byte	0x4
ARM GAS  C:\Users\rdn\AppData\Local\Temp\cckhx27q.s 			page 225


 11261 057f F3       		.byte	0xf3
 11262 0580 01       		.uleb128 0x1
 11263 0581 52       		.byte	0x52
 11264 0582 9F       		.byte	0x9f
 11265 0583 00000000 		.4byte	0
 11266 0587 00000000 		.4byte	0
 11267              	.LLST36:
 11268 058b 00000000 		.4byte	.LVL30
 11269 058f 68000000 		.4byte	.LVL38
 11270 0593 0100     		.2byte	0x1
 11271 0595 51       		.byte	0x51
 11272 0596 6A000000 		.4byte	.LVL39
 11273 059a 78000000 		.4byte	.LFE35
 11274 059e 0100     		.2byte	0x1
 11275 05a0 51       		.byte	0x51
 11276 05a1 00000000 		.4byte	0
 11277 05a5 00000000 		.4byte	0
 11278              	.LLST37:
 11279 05a9 00000000 		.4byte	.LVL30
 11280 05ad 28000000 		.4byte	.LVL34
 11281 05b1 0200     		.2byte	0x2
 11282 05b3 70       		.byte	0x70
 11283 05b4 00       		.sleb128 0
 11284 05b5 28000000 		.4byte	.LVL34
 11285 05b9 30000000 		.4byte	.LVL35
 11286 05bd 0300     		.2byte	0x3
 11287 05bf 73       		.byte	0x73
 11288 05c0 D476     		.sleb128 -1196
 11289 05c2 00000000 		.4byte	0
 11290 05c6 00000000 		.4byte	0
 11291              	.LLST38:
 11292 05ca 00000000 		.4byte	.LVL30
 11293 05ce 28000000 		.4byte	.LVL34
 11294 05d2 0200     		.2byte	0x2
 11295 05d4 70       		.byte	0x70
 11296 05d5 02       		.sleb128 2
 11297 05d6 28000000 		.4byte	.LVL34
 11298 05da 30000000 		.4byte	.LVL35
 11299 05de 0300     		.2byte	0x3
 11300 05e0 73       		.byte	0x73
 11301 05e1 D676     		.sleb128 -1194
 11302 05e3 00000000 		.4byte	0
 11303 05e7 00000000 		.4byte	0
 11304              	.LLST39:
 11305 05eb 20000000 		.4byte	.LVL31
 11306 05ef 30000000 		.4byte	.LVL35
 11307 05f3 0800     		.2byte	0x8
 11308 05f5 75       		.byte	0x75
 11309 05f6 00       		.sleb128 0
 11310 05f7 31       		.byte	0x31
 11311 05f8 24       		.byte	0x24
 11312 05f9 73       		.byte	0x73
 11313 05fa 00       		.sleb128 0
 11314 05fb 22       		.byte	0x22
 11315 05fc 9F       		.byte	0x9f
 11316 05fd 30000000 		.4byte	.LVL35
 11317 0601 78000000 		.4byte	.LFE35
ARM GAS  C:\Users\rdn\AppData\Local\Temp\cckhx27q.s 			page 226


 11318 0605 1100     		.2byte	0x11
 11319 0607 F3       		.byte	0xf3
 11320 0608 01       		.uleb128 0x1
 11321 0609 50       		.byte	0x50
 11322 060a 23       		.byte	0x23
 11323 060b A009     		.uleb128 0x4a0
 11324 060d 06       		.byte	0x6
 11325 060e 31       		.byte	0x31
 11326 060f 24       		.byte	0x24
 11327 0610 F3       		.byte	0xf3
 11328 0611 01       		.uleb128 0x1
 11329 0612 50       		.byte	0x50
 11330 0613 22       		.byte	0x22
 11331 0614 23       		.byte	0x23
 11332 0615 AC09     		.uleb128 0x4ac
 11333 0617 9F       		.byte	0x9f
 11334 0618 00000000 		.4byte	0
 11335 061c 00000000 		.4byte	0
 11336              	.LLST40:
 11337 0620 20000000 		.4byte	.LVL31
 11338 0624 26000000 		.4byte	.LVL33
 11339 0628 0800     		.2byte	0x8
 11340 062a 74       		.byte	0x74
 11341 062b 00       		.sleb128 0
 11342 062c 32       		.byte	0x32
 11343 062d 24       		.byte	0x24
 11344 062e 73       		.byte	0x73
 11345 062f 00       		.sleb128 0
 11346 0630 22       		.byte	0x22
 11347 0631 9F       		.byte	0x9f
 11348 0632 26000000 		.4byte	.LVL33
 11349 0636 28000000 		.4byte	.LVL34
 11350 063a 0A00     		.2byte	0xa
 11351 063c 70       		.byte	0x70
 11352 063d A409     		.sleb128 1188
 11353 063f 06       		.byte	0x6
 11354 0640 32       		.byte	0x32
 11355 0641 24       		.byte	0x24
 11356 0642 73       		.byte	0x73
 11357 0643 00       		.sleb128 0
 11358 0644 22       		.byte	0x22
 11359 0645 9F       		.byte	0x9f
 11360 0646 28000000 		.4byte	.LVL34
 11361 064a 30000000 		.4byte	.LVL35
 11362 064e 0900     		.2byte	0x9
 11363 0650 73       		.byte	0x73
 11364 0651 78       		.sleb128 -8
 11365 0652 06       		.byte	0x6
 11366 0653 32       		.byte	0x32
 11367 0654 24       		.byte	0x24
 11368 0655 73       		.byte	0x73
 11369 0656 00       		.sleb128 0
 11370 0657 22       		.byte	0x22
 11371 0658 9F       		.byte	0x9f
 11372 0659 30000000 		.4byte	.LVL35
 11373 065d 78000000 		.4byte	.LFE35
 11374 0661 1100     		.2byte	0x11
ARM GAS  C:\Users\rdn\AppData\Local\Temp\cckhx27q.s 			page 227


 11375 0663 F3       		.byte	0xf3
 11376 0664 01       		.uleb128 0x1
 11377 0665 50       		.byte	0x50
 11378 0666 23       		.byte	0x23
 11379 0667 A409     		.uleb128 0x4a4
 11380 0669 06       		.byte	0x6
 11381 066a 32       		.byte	0x32
 11382 066b 24       		.byte	0x24
 11383 066c F3       		.byte	0xf3
 11384 066d 01       		.uleb128 0x1
 11385 066e 50       		.byte	0x50
 11386 066f 22       		.byte	0x22
 11387 0670 23       		.byte	0x23
 11388 0671 AC09     		.uleb128 0x4ac
 11389 0673 9F       		.byte	0x9f
 11390 0674 00000000 		.4byte	0
 11391 0678 00000000 		.4byte	0
 11392              	.LLST41:
 11393 067c 20000000 		.4byte	.LVL31
 11394 0680 30000000 		.4byte	.LVL35
 11395 0684 0200     		.2byte	0x2
 11396 0686 30       		.byte	0x30
 11397 0687 9F       		.byte	0x9f
 11398 0688 30000000 		.4byte	.LVL35
 11399 068c 78000000 		.4byte	.LFE35
 11400 0690 0100     		.2byte	0x1
 11401 0692 50       		.byte	0x50
 11402 0693 00000000 		.4byte	0
 11403 0697 00000000 		.4byte	0
 11404              	.LLST42:
 11405 069b 36000000 		.4byte	.LVL36
 11406 069f 40000000 		.4byte	.LVL37
 11407 06a3 0200     		.2byte	0x2
 11408 06a5 3F       		.byte	0x3f
 11409 06a6 9F       		.byte	0x9f
 11410 06a7 00000000 		.4byte	0
 11411 06ab 00000000 		.4byte	0
 11412              	.LLST43:
 11413 06af 36000000 		.4byte	.LVL36
 11414 06b3 40000000 		.4byte	.LVL37
 11415 06b7 0100     		.2byte	0x1
 11416 06b9 53       		.byte	0x53
 11417 06ba 00000000 		.4byte	0
 11418 06be 00000000 		.4byte	0
 11419              	.LLST44:
 11420 06c2 36000000 		.4byte	.LVL36
 11421 06c6 40000000 		.4byte	.LVL37
 11422 06ca 0300     		.2byte	0x3
 11423 06cc 53       		.byte	0x53
 11424 06cd 93       		.byte	0x93
 11425 06ce 04       		.uleb128 0x4
 11426 06cf 00000000 		.4byte	0
 11427 06d3 00000000 		.4byte	0
 11428              	.LLST45:
 11429 06d7 00000000 		.4byte	.LVL40
 11430 06db 14000000 		.4byte	.LVL41
 11431 06df 0100     		.2byte	0x1
ARM GAS  C:\Users\rdn\AppData\Local\Temp\cckhx27q.s 			page 228


 11432 06e1 50       		.byte	0x50
 11433 06e2 14000000 		.4byte	.LVL41
 11434 06e6 28000000 		.4byte	.LVL44
 11435 06ea 0400     		.2byte	0x4
 11436 06ec 73       		.byte	0x73
 11437 06ed C87E     		.sleb128 -184
 11438 06ef 9F       		.byte	0x9f
 11439 06f0 28000000 		.4byte	.LVL44
 11440 06f4 70000000 		.4byte	.LFE43
 11441 06f8 0400     		.2byte	0x4
 11442 06fa F3       		.byte	0xf3
 11443 06fb 01       		.uleb128 0x1
 11444 06fc 50       		.byte	0x50
 11445 06fd 9F       		.byte	0x9f
 11446 06fe 00000000 		.4byte	0
 11447 0702 00000000 		.4byte	0
 11448              	.LLST46:
 11449 0706 00000000 		.4byte	.LVL40
 11450 070a 28000000 		.4byte	.LVL44
 11451 070e 0100     		.2byte	0x1
 11452 0710 51       		.byte	0x51
 11453 0711 28000000 		.4byte	.LVL44
 11454 0715 70000000 		.4byte	.LFE43
 11455 0719 0400     		.2byte	0x4
 11456 071b F3       		.byte	0xf3
 11457 071c 01       		.uleb128 0x1
 11458 071d 51       		.byte	0x51
 11459 071e 9F       		.byte	0x9f
 11460 071f 00000000 		.4byte	0
 11461 0723 00000000 		.4byte	0
 11462              	.LLST47:
 11463 0727 00000000 		.4byte	.LVL40
 11464 072b 1C000000 		.4byte	.LVL43
 11465 072f 0100     		.2byte	0x1
 11466 0731 52       		.byte	0x52
 11467 0732 1C000000 		.4byte	.LVL43
 11468 0736 70000000 		.4byte	.LFE43
 11469 073a 0400     		.2byte	0x4
 11470 073c F3       		.byte	0xf3
 11471 073d 01       		.uleb128 0x1
 11472 073e 52       		.byte	0x52
 11473 073f 9F       		.byte	0x9f
 11474 0740 00000000 		.4byte	0
 11475 0744 00000000 		.4byte	0
 11476              	.LLST48:
 11477 0748 00000000 		.4byte	.LVL40
 11478 074c 14000000 		.4byte	.LVL41
 11479 0750 0200     		.2byte	0x2
 11480 0752 70       		.byte	0x70
 11481 0753 00       		.sleb128 0
 11482 0754 14000000 		.4byte	.LVL41
 11483 0758 28000000 		.4byte	.LVL44
 11484 075c 0300     		.2byte	0x3
 11485 075e 73       		.byte	0x73
 11486 075f C87E     		.sleb128 -184
 11487 0761 00000000 		.4byte	0
 11488 0765 00000000 		.4byte	0
ARM GAS  C:\Users\rdn\AppData\Local\Temp\cckhx27q.s 			page 229


 11489              	.LLST49:
 11490 0769 00000000 		.4byte	.LVL40
 11491 076d 14000000 		.4byte	.LVL41
 11492 0771 0200     		.2byte	0x2
 11493 0773 70       		.byte	0x70
 11494 0774 02       		.sleb128 2
 11495 0775 14000000 		.4byte	.LVL41
 11496 0779 28000000 		.4byte	.LVL44
 11497 077d 0300     		.2byte	0x3
 11498 077f 73       		.byte	0x73
 11499 0780 CA7E     		.sleb128 -182
 11500 0782 00000000 		.4byte	0
 11501 0786 00000000 		.4byte	0
 11502              	.LLST50:
 11503 078a 00000000 		.4byte	.LVL40
 11504 078e 14000000 		.4byte	.LVL41
 11505 0792 0D00     		.2byte	0xd
 11506 0794 70       		.byte	0x70
 11507 0795 AC01     		.sleb128 172
 11508 0797 06       		.byte	0x6
 11509 0798 32       		.byte	0x32
 11510 0799 24       		.byte	0x24
 11511 079a 70       		.byte	0x70
 11512 079b 00       		.sleb128 0
 11513 079c 22       		.byte	0x22
 11514 079d 23       		.byte	0x23
 11515 079e B801     		.uleb128 0xb8
 11516 07a0 9F       		.byte	0x9f
 11517 07a1 14000000 		.4byte	.LVL41
 11518 07a5 28000000 		.4byte	.LVL44
 11519 07a9 0900     		.2byte	0x9
 11520 07ab 73       		.byte	0x73
 11521 07ac 74       		.sleb128 -12
 11522 07ad 06       		.byte	0x6
 11523 07ae 32       		.byte	0x32
 11524 07af 24       		.byte	0x24
 11525 07b0 73       		.byte	0x73
 11526 07b1 00       		.sleb128 0
 11527 07b2 22       		.byte	0x22
 11528 07b3 9F       		.byte	0x9f
 11529 07b4 28000000 		.4byte	.LVL44
 11530 07b8 30000000 		.4byte	.LVL45
 11531 07bc 0100     		.2byte	0x1
 11532 07be 50       		.byte	0x50
 11533 07bf 30000000 		.4byte	.LVL45
 11534 07c3 60000000 		.4byte	.LVL49
 11535 07c7 0300     		.2byte	0x3
 11536 07c9 70       		.byte	0x70
 11537 07ca 7C       		.sleb128 -4
 11538 07cb 9F       		.byte	0x9f
 11539 07cc 60000000 		.4byte	.LVL49
 11540 07d0 70000000 		.4byte	.LFE43
 11541 07d4 0100     		.2byte	0x1
 11542 07d6 50       		.byte	0x50
 11543 07d7 00000000 		.4byte	0
 11544 07db 00000000 		.4byte	0
 11545              	.LLST51:
ARM GAS  C:\Users\rdn\AppData\Local\Temp\cckhx27q.s 			page 230


 11546 07df 28000000 		.4byte	.LVL44
 11547 07e3 66000000 		.4byte	.LVL52
 11548 07e7 0100     		.2byte	0x1
 11549 07e9 54       		.byte	0x54
 11550 07ea 00000000 		.4byte	0
 11551 07ee 00000000 		.4byte	0
 11552              	.LLST52:
 11553 07f2 00000000 		.4byte	.LVL40
 11554 07f6 14000000 		.4byte	.LVL41
 11555 07fa 0200     		.2byte	0x2
 11556 07fc 70       		.byte	0x70
 11557 07fd 02       		.sleb128 2
 11558 07fe 14000000 		.4byte	.LVL41
 11559 0802 1A000000 		.4byte	.LVL42
 11560 0806 0300     		.2byte	0x3
 11561 0808 73       		.byte	0x73
 11562 0809 CA7E     		.sleb128 -182
 11563 080b 00000000 		.4byte	0
 11564 080f 00000000 		.4byte	0
 11565              	.LLST53:
 11566 0813 00000000 		.4byte	.LVL40
 11567 0817 14000000 		.4byte	.LVL41
 11568 081b 0200     		.2byte	0x2
 11569 081d 70       		.byte	0x70
 11570 081e 00       		.sleb128 0
 11571 081f 14000000 		.4byte	.LVL41
 11572 0823 1A000000 		.4byte	.LVL42
 11573 0827 0300     		.2byte	0x3
 11574 0829 73       		.byte	0x73
 11575 082a C87E     		.sleb128 -184
 11576 082c 00000000 		.4byte	0
 11577 0830 00000000 		.4byte	0
 11578              	.LLST54:
 11579 0834 46000000 		.4byte	.LVL46
 11580 0838 58000000 		.4byte	.LVL47
 11581 083c 0200     		.2byte	0x2
 11582 083e 90       		.byte	0x90
 11583 083f 4F       		.uleb128 0x4f
 11584 0840 58000000 		.4byte	.LVL47
 11585 0844 5C000000 		.4byte	.LVL48
 11586 0848 0100     		.2byte	0x1
 11587 084a 53       		.byte	0x53
 11588 084b 5C000000 		.4byte	.LVL48
 11589 084f 64000000 		.4byte	.LVL51
 11590 0853 0200     		.2byte	0x2
 11591 0855 90       		.byte	0x90
 11592 0856 4F       		.uleb128 0x4f
 11593 0857 00000000 		.4byte	0
 11594 085b 00000000 		.4byte	0
 11595              	.LLST55:
 11596 085f 00000000 		.4byte	.LVL53
 11597 0863 14000000 		.4byte	.LVL54
 11598 0867 0100     		.2byte	0x1
 11599 0869 50       		.byte	0x50
 11600 086a 14000000 		.4byte	.LVL54
 11601 086e 26000000 		.4byte	.LVL57
 11602 0872 0400     		.2byte	0x4
ARM GAS  C:\Users\rdn\AppData\Local\Temp\cckhx27q.s 			page 231


 11603 0874 73       		.byte	0x73
 11604 0875 C87E     		.sleb128 -184
 11605 0877 9F       		.byte	0x9f
 11606 0878 26000000 		.4byte	.LVL57
 11607 087c 94000000 		.4byte	.LFE44
 11608 0880 0400     		.2byte	0x4
 11609 0882 F3       		.byte	0xf3
 11610 0883 01       		.uleb128 0x1
 11611 0884 50       		.byte	0x50
 11612 0885 9F       		.byte	0x9f
 11613 0886 00000000 		.4byte	0
 11614 088a 00000000 		.4byte	0
 11615              	.LLST56:
 11616 088e 00000000 		.4byte	.LVL53
 11617 0892 26000000 		.4byte	.LVL57
 11618 0896 0100     		.2byte	0x1
 11619 0898 51       		.byte	0x51
 11620 0899 26000000 		.4byte	.LVL57
 11621 089d 94000000 		.4byte	.LFE44
 11622 08a1 0400     		.2byte	0x4
 11623 08a3 F3       		.byte	0xf3
 11624 08a4 01       		.uleb128 0x1
 11625 08a5 51       		.byte	0x51
 11626 08a6 9F       		.byte	0x9f
 11627 08a7 00000000 		.4byte	0
 11628 08ab 00000000 		.4byte	0
 11629              	.LLST57:
 11630 08af 00000000 		.4byte	.LVL53
 11631 08b3 1E000000 		.4byte	.LVL56
 11632 08b7 0100     		.2byte	0x1
 11633 08b9 52       		.byte	0x52
 11634 08ba 1E000000 		.4byte	.LVL56
 11635 08be 94000000 		.4byte	.LFE44
 11636 08c2 0400     		.2byte	0x4
 11637 08c4 F3       		.byte	0xf3
 11638 08c5 01       		.uleb128 0x1
 11639 08c6 52       		.byte	0x52
 11640 08c7 9F       		.byte	0x9f
 11641 08c8 00000000 		.4byte	0
 11642 08cc 00000000 		.4byte	0
 11643              	.LLST58:
 11644 08d0 00000000 		.4byte	.LVL53
 11645 08d4 14000000 		.4byte	.LVL54
 11646 08d8 0200     		.2byte	0x2
 11647 08da 70       		.byte	0x70
 11648 08db 00       		.sleb128 0
 11649 08dc 14000000 		.4byte	.LVL54
 11650 08e0 26000000 		.4byte	.LVL57
 11651 08e4 0300     		.2byte	0x3
 11652 08e6 73       		.byte	0x73
 11653 08e7 C87E     		.sleb128 -184
 11654 08e9 00000000 		.4byte	0
 11655 08ed 00000000 		.4byte	0
 11656              	.LLST59:
 11657 08f1 00000000 		.4byte	.LVL53
 11658 08f5 14000000 		.4byte	.LVL54
 11659 08f9 0200     		.2byte	0x2
ARM GAS  C:\Users\rdn\AppData\Local\Temp\cckhx27q.s 			page 232


 11660 08fb 70       		.byte	0x70
 11661 08fc 02       		.sleb128 2
 11662 08fd 14000000 		.4byte	.LVL54
 11663 0901 26000000 		.4byte	.LVL57
 11664 0905 0300     		.2byte	0x3
 11665 0907 73       		.byte	0x73
 11666 0908 CA7E     		.sleb128 -182
 11667 090a 00000000 		.4byte	0
 11668 090e 00000000 		.4byte	0
 11669              	.LLST60:
 11670 0912 00000000 		.4byte	.LVL53
 11671 0916 14000000 		.4byte	.LVL54
 11672 091a 0D00     		.2byte	0xd
 11673 091c 70       		.byte	0x70
 11674 091d AC01     		.sleb128 172
 11675 091f 06       		.byte	0x6
 11676 0920 32       		.byte	0x32
 11677 0921 24       		.byte	0x24
 11678 0922 70       		.byte	0x70
 11679 0923 00       		.sleb128 0
 11680 0924 22       		.byte	0x22
 11681 0925 23       		.byte	0x23
 11682 0926 B801     		.uleb128 0xb8
 11683 0928 9F       		.byte	0x9f
 11684 0929 14000000 		.4byte	.LVL54
 11685 092d 26000000 		.4byte	.LVL57
 11686 0931 0900     		.2byte	0x9
 11687 0933 73       		.byte	0x73
 11688 0934 74       		.sleb128 -12
 11689 0935 06       		.byte	0x6
 11690 0936 32       		.byte	0x32
 11691 0937 24       		.byte	0x24
 11692 0938 73       		.byte	0x73
 11693 0939 00       		.sleb128 0
 11694 093a 22       		.byte	0x22
 11695 093b 9F       		.byte	0x9f
 11696 093c 26000000 		.4byte	.LVL57
 11697 0940 2E000000 		.4byte	.LVL58
 11698 0944 0100     		.2byte	0x1
 11699 0946 50       		.byte	0x50
 11700 0947 2E000000 		.4byte	.LVL58
 11701 094b 7C000000 		.4byte	.LVL67
 11702 094f 0300     		.2byte	0x3
 11703 0951 70       		.byte	0x70
 11704 0952 7C       		.sleb128 -4
 11705 0953 9F       		.byte	0x9f
 11706 0954 7C000000 		.4byte	.LVL67
 11707 0958 94000000 		.4byte	.LFE44
 11708 095c 0100     		.2byte	0x1
 11709 095e 50       		.byte	0x50
 11710 095f 00000000 		.4byte	0
 11711 0963 00000000 		.4byte	0
 11712              	.LLST61:
 11713 0967 26000000 		.4byte	.LVL57
 11714 096b 82000000 		.4byte	.LVL70
 11715 096f 0100     		.2byte	0x1
 11716 0971 54       		.byte	0x54
ARM GAS  C:\Users\rdn\AppData\Local\Temp\cckhx27q.s 			page 233


 11717 0972 00000000 		.4byte	0
 11718 0976 00000000 		.4byte	0
 11719              	.LLST62:
 11720 097a 00000000 		.4byte	.LVL53
 11721 097e 14000000 		.4byte	.LVL54
 11722 0982 0200     		.2byte	0x2
 11723 0984 70       		.byte	0x70
 11724 0985 02       		.sleb128 2
 11725 0986 14000000 		.4byte	.LVL54
 11726 098a 1C000000 		.4byte	.LVL55
 11727 098e 0300     		.2byte	0x3
 11728 0990 73       		.byte	0x73
 11729 0991 CA7E     		.sleb128 -182
 11730 0993 00000000 		.4byte	0
 11731 0997 00000000 		.4byte	0
 11732              	.LLST63:
 11733 099b 00000000 		.4byte	.LVL53
 11734 099f 14000000 		.4byte	.LVL54
 11735 09a3 0200     		.2byte	0x2
 11736 09a5 70       		.byte	0x70
 11737 09a6 00       		.sleb128 0
 11738 09a7 14000000 		.4byte	.LVL54
 11739 09ab 1C000000 		.4byte	.LVL55
 11740 09af 0300     		.2byte	0x3
 11741 09b1 73       		.byte	0x73
 11742 09b2 C87E     		.sleb128 -184
 11743 09b4 00000000 		.4byte	0
 11744 09b8 00000000 		.4byte	0
 11745              	.LLST64:
 11746 09bc 6A000000 		.4byte	.LVL63
 11747 09c0 74000000 		.4byte	.LVL64
 11748 09c4 0100     		.2byte	0x1
 11749 09c6 53       		.byte	0x53
 11750 09c7 74000000 		.4byte	.LVL64
 11751 09cb 76000000 		.4byte	.LVL65
 11752 09cf 0200     		.2byte	0x2
 11753 09d1 90       		.byte	0x90
 11754 09d2 4F       		.uleb128 0x4f
 11755 09d3 76000000 		.4byte	.LVL65
 11756 09d7 78000000 		.4byte	.LVL66
 11757 09db 0100     		.2byte	0x1
 11758 09dd 53       		.byte	0x53
 11759 09de 78000000 		.4byte	.LVL66
 11760 09e2 80000000 		.4byte	.LVL69
 11761 09e6 0200     		.2byte	0x2
 11762 09e8 90       		.byte	0x90
 11763 09e9 4F       		.uleb128 0x4f
 11764 09ea 00000000 		.4byte	0
 11765 09ee 00000000 		.4byte	0
 11766              	.LLST65:
 11767 09f2 3C000000 		.4byte	.LVL59
 11768 09f6 46000000 		.4byte	.LVL60
 11769 09fa 0200     		.2byte	0x2
 11770 09fc 38       		.byte	0x38
 11771 09fd 9F       		.byte	0x9f
 11772 09fe 00000000 		.4byte	0
 11773 0a02 00000000 		.4byte	0
ARM GAS  C:\Users\rdn\AppData\Local\Temp\cckhx27q.s 			page 234


 11774              	.LLST66:
 11775 0a06 3C000000 		.4byte	.LVL59
 11776 0a0a 46000000 		.4byte	.LVL60
 11777 0a0e 0100     		.2byte	0x1
 11778 0a10 53       		.byte	0x53
 11779 0a11 00000000 		.4byte	0
 11780 0a15 00000000 		.4byte	0
 11781              	.LLST67:
 11782 0a19 3C000000 		.4byte	.LVL59
 11783 0a1d 46000000 		.4byte	.LVL60
 11784 0a21 0300     		.2byte	0x3
 11785 0a23 53       		.byte	0x53
 11786 0a24 93       		.byte	0x93
 11787 0a25 04       		.uleb128 0x4
 11788 0a26 00000000 		.4byte	0
 11789 0a2a 00000000 		.4byte	0
 11790              	.LLST68:
 11791 0a2e 50000000 		.4byte	.LVL61
 11792 0a32 5A000000 		.4byte	.LVL62
 11793 0a36 0200     		.2byte	0x2
 11794 0a38 38       		.byte	0x38
 11795 0a39 9F       		.byte	0x9f
 11796 0a3a 00000000 		.4byte	0
 11797 0a3e 00000000 		.4byte	0
 11798              	.LLST69:
 11799 0a42 50000000 		.4byte	.LVL61
 11800 0a46 5A000000 		.4byte	.LVL62
 11801 0a4a 0100     		.2byte	0x1
 11802 0a4c 53       		.byte	0x53
 11803 0a4d 00000000 		.4byte	0
 11804 0a51 00000000 		.4byte	0
 11805              	.LLST70:
 11806 0a55 50000000 		.4byte	.LVL61
 11807 0a59 5A000000 		.4byte	.LVL62
 11808 0a5d 0300     		.2byte	0x3
 11809 0a5f 53       		.byte	0x53
 11810 0a60 93       		.byte	0x93
 11811 0a61 04       		.uleb128 0x4
 11812 0a62 00000000 		.4byte	0
 11813 0a66 00000000 		.4byte	0
 11814              	.LLST71:
 11815 0a6a 00000000 		.4byte	.LVL71
 11816 0a6e 14000000 		.4byte	.LVL72
 11817 0a72 0100     		.2byte	0x1
 11818 0a74 50       		.byte	0x50
 11819 0a75 14000000 		.4byte	.LVL72
 11820 0a79 28000000 		.4byte	.LVL75
 11821 0a7d 0400     		.2byte	0x4
 11822 0a7f 73       		.byte	0x73
 11823 0a80 C87E     		.sleb128 -184
 11824 0a82 9F       		.byte	0x9f
 11825 0a83 28000000 		.4byte	.LVL75
 11826 0a87 9C000000 		.4byte	.LFE45
 11827 0a8b 0400     		.2byte	0x4
 11828 0a8d F3       		.byte	0xf3
 11829 0a8e 01       		.uleb128 0x1
 11830 0a8f 50       		.byte	0x50
ARM GAS  C:\Users\rdn\AppData\Local\Temp\cckhx27q.s 			page 235


 11831 0a90 9F       		.byte	0x9f
 11832 0a91 00000000 		.4byte	0
 11833 0a95 00000000 		.4byte	0
 11834              	.LLST72:
 11835 0a99 00000000 		.4byte	.LVL71
 11836 0a9d 28000000 		.4byte	.LVL75
 11837 0aa1 0100     		.2byte	0x1
 11838 0aa3 51       		.byte	0x51
 11839 0aa4 28000000 		.4byte	.LVL75
 11840 0aa8 9C000000 		.4byte	.LFE45
 11841 0aac 0400     		.2byte	0x4
 11842 0aae F3       		.byte	0xf3
 11843 0aaf 01       		.uleb128 0x1
 11844 0ab0 51       		.byte	0x51
 11845 0ab1 9F       		.byte	0x9f
 11846 0ab2 00000000 		.4byte	0
 11847 0ab6 00000000 		.4byte	0
 11848              	.LLST73:
 11849 0aba 00000000 		.4byte	.LVL71
 11850 0abe 20000000 		.4byte	.LVL74
 11851 0ac2 0100     		.2byte	0x1
 11852 0ac4 52       		.byte	0x52
 11853 0ac5 20000000 		.4byte	.LVL74
 11854 0ac9 9C000000 		.4byte	.LFE45
 11855 0acd 0400     		.2byte	0x4
 11856 0acf F3       		.byte	0xf3
 11857 0ad0 01       		.uleb128 0x1
 11858 0ad1 52       		.byte	0x52
 11859 0ad2 9F       		.byte	0x9f
 11860 0ad3 00000000 		.4byte	0
 11861 0ad7 00000000 		.4byte	0
 11862              	.LLST74:
 11863 0adb 00000000 		.4byte	.LVL71
 11864 0adf 14000000 		.4byte	.LVL72
 11865 0ae3 0200     		.2byte	0x2
 11866 0ae5 70       		.byte	0x70
 11867 0ae6 00       		.sleb128 0
 11868 0ae7 14000000 		.4byte	.LVL72
 11869 0aeb 28000000 		.4byte	.LVL75
 11870 0aef 0300     		.2byte	0x3
 11871 0af1 73       		.byte	0x73
 11872 0af2 C87E     		.sleb128 -184
 11873 0af4 00000000 		.4byte	0
 11874 0af8 00000000 		.4byte	0
 11875              	.LLST75:
 11876 0afc 00000000 		.4byte	.LVL71
 11877 0b00 14000000 		.4byte	.LVL72
 11878 0b04 0200     		.2byte	0x2
 11879 0b06 70       		.byte	0x70
 11880 0b07 02       		.sleb128 2
 11881 0b08 14000000 		.4byte	.LVL72
 11882 0b0c 28000000 		.4byte	.LVL75
 11883 0b10 0300     		.2byte	0x3
 11884 0b12 73       		.byte	0x73
 11885 0b13 CA7E     		.sleb128 -182
 11886 0b15 00000000 		.4byte	0
 11887 0b19 00000000 		.4byte	0
ARM GAS  C:\Users\rdn\AppData\Local\Temp\cckhx27q.s 			page 236


 11888              	.LLST76:
 11889 0b1d 00000000 		.4byte	.LVL71
 11890 0b21 14000000 		.4byte	.LVL72
 11891 0b25 0D00     		.2byte	0xd
 11892 0b27 70       		.byte	0x70
 11893 0b28 AC01     		.sleb128 172
 11894 0b2a 06       		.byte	0x6
 11895 0b2b 32       		.byte	0x32
 11896 0b2c 24       		.byte	0x24
 11897 0b2d 70       		.byte	0x70
 11898 0b2e 00       		.sleb128 0
 11899 0b2f 22       		.byte	0x22
 11900 0b30 23       		.byte	0x23
 11901 0b31 B801     		.uleb128 0xb8
 11902 0b33 9F       		.byte	0x9f
 11903 0b34 14000000 		.4byte	.LVL72
 11904 0b38 28000000 		.4byte	.LVL75
 11905 0b3c 0900     		.2byte	0x9
 11906 0b3e 73       		.byte	0x73
 11907 0b3f 74       		.sleb128 -12
 11908 0b40 06       		.byte	0x6
 11909 0b41 32       		.byte	0x32
 11910 0b42 24       		.byte	0x24
 11911 0b43 73       		.byte	0x73
 11912 0b44 00       		.sleb128 0
 11913 0b45 22       		.byte	0x22
 11914 0b46 9F       		.byte	0x9f
 11915 0b47 28000000 		.4byte	.LVL75
 11916 0b4b 30000000 		.4byte	.LVL76
 11917 0b4f 0100     		.2byte	0x1
 11918 0b51 50       		.byte	0x50
 11919 0b52 30000000 		.4byte	.LVL76
 11920 0b56 86000000 		.4byte	.LVL86
 11921 0b5a 0300     		.2byte	0x3
 11922 0b5c 70       		.byte	0x70
 11923 0b5d 7C       		.sleb128 -4
 11924 0b5e 9F       		.byte	0x9f
 11925 0b5f 86000000 		.4byte	.LVL86
 11926 0b63 9C000000 		.4byte	.LFE45
 11927 0b67 0100     		.2byte	0x1
 11928 0b69 50       		.byte	0x50
 11929 0b6a 00000000 		.4byte	0
 11930 0b6e 00000000 		.4byte	0
 11931              	.LLST77:
 11932 0b72 28000000 		.4byte	.LVL75
 11933 0b76 8C000000 		.4byte	.LVL88
 11934 0b7a 0100     		.2byte	0x1
 11935 0b7c 54       		.byte	0x54
 11936 0b7d 00000000 		.4byte	0
 11937 0b81 00000000 		.4byte	0
 11938              	.LLST78:
 11939 0b85 00000000 		.4byte	.LVL71
 11940 0b89 14000000 		.4byte	.LVL72
 11941 0b8d 0200     		.2byte	0x2
 11942 0b8f 70       		.byte	0x70
 11943 0b90 02       		.sleb128 2
 11944 0b91 14000000 		.4byte	.LVL72
ARM GAS  C:\Users\rdn\AppData\Local\Temp\cckhx27q.s 			page 237


 11945 0b95 1C000000 		.4byte	.LVL73
 11946 0b99 0300     		.2byte	0x3
 11947 0b9b 73       		.byte	0x73
 11948 0b9c CA7E     		.sleb128 -182
 11949 0b9e 00000000 		.4byte	0
 11950 0ba2 00000000 		.4byte	0
 11951              	.LLST79:
 11952 0ba6 00000000 		.4byte	.LVL71
 11953 0baa 14000000 		.4byte	.LVL72
 11954 0bae 0200     		.2byte	0x2
 11955 0bb0 70       		.byte	0x70
 11956 0bb1 00       		.sleb128 0
 11957 0bb2 14000000 		.4byte	.LVL72
 11958 0bb6 1C000000 		.4byte	.LVL73
 11959 0bba 0300     		.2byte	0x3
 11960 0bbc 73       		.byte	0x73
 11961 0bbd C87E     		.sleb128 -184
 11962 0bbf 00000000 		.4byte	0
 11963 0bc3 00000000 		.4byte	0
 11964              	.LLST80:
 11965 0bc7 6C000000 		.4byte	.LVL81
 11966 0bcb 76000000 		.4byte	.LVL82
 11967 0bcf 0100     		.2byte	0x1
 11968 0bd1 53       		.byte	0x53
 11969 0bd2 76000000 		.4byte	.LVL82
 11970 0bd6 78000000 		.4byte	.LVL83
 11971 0bda 0200     		.2byte	0x2
 11972 0bdc 90       		.byte	0x90
 11973 0bdd 4F       		.uleb128 0x4f
 11974 0bde 78000000 		.4byte	.LVL83
 11975 0be2 80000000 		.4byte	.LVL85
 11976 0be6 0100     		.2byte	0x1
 11977 0be8 53       		.byte	0x53
 11978 0be9 00000000 		.4byte	0
 11979 0bed 00000000 		.4byte	0
 11980              	.LLST81:
 11981 0bf1 3E000000 		.4byte	.LVL77
 11982 0bf5 48000000 		.4byte	.LVL78
 11983 0bf9 0200     		.2byte	0x2
 11984 0bfb 38       		.byte	0x38
 11985 0bfc 9F       		.byte	0x9f
 11986 0bfd 00000000 		.4byte	0
 11987 0c01 00000000 		.4byte	0
 11988              	.LLST82:
 11989 0c05 3E000000 		.4byte	.LVL77
 11990 0c09 48000000 		.4byte	.LVL78
 11991 0c0d 0100     		.2byte	0x1
 11992 0c0f 53       		.byte	0x53
 11993 0c10 00000000 		.4byte	0
 11994 0c14 00000000 		.4byte	0
 11995              	.LLST83:
 11996 0c18 3E000000 		.4byte	.LVL77
 11997 0c1c 48000000 		.4byte	.LVL78
 11998 0c20 0300     		.2byte	0x3
 11999 0c22 53       		.byte	0x53
 12000 0c23 93       		.byte	0x93
 12001 0c24 04       		.uleb128 0x4
ARM GAS  C:\Users\rdn\AppData\Local\Temp\cckhx27q.s 			page 238


 12002 0c25 00000000 		.4byte	0
 12003 0c29 00000000 		.4byte	0
 12004              	.LLST84:
 12005 0c2d 52000000 		.4byte	.LVL79
 12006 0c31 5C000000 		.4byte	.LVL80
 12007 0c35 0200     		.2byte	0x2
 12008 0c37 38       		.byte	0x38
 12009 0c38 9F       		.byte	0x9f
 12010 0c39 00000000 		.4byte	0
 12011 0c3d 00000000 		.4byte	0
 12012              	.LLST85:
 12013 0c41 52000000 		.4byte	.LVL79
 12014 0c45 5C000000 		.4byte	.LVL80
 12015 0c49 0100     		.2byte	0x1
 12016 0c4b 53       		.byte	0x53
 12017 0c4c 00000000 		.4byte	0
 12018 0c50 00000000 		.4byte	0
 12019              	.LLST86:
 12020 0c54 52000000 		.4byte	.LVL79
 12021 0c58 5C000000 		.4byte	.LVL80
 12022 0c5c 0300     		.2byte	0x3
 12023 0c5e 53       		.byte	0x53
 12024 0c5f 93       		.byte	0x93
 12025 0c60 04       		.uleb128 0x4
 12026 0c61 00000000 		.4byte	0
 12027 0c65 00000000 		.4byte	0
 12028              	.LLST87:
 12029 0c69 00000000 		.4byte	.LVL89
 12030 0c6d 20000000 		.4byte	.LVL93
 12031 0c71 0100     		.2byte	0x1
 12032 0c73 50       		.byte	0x50
 12033 0c74 20000000 		.4byte	.LVL93
 12034 0c78 54000000 		.4byte	.LFE46
 12035 0c7c 0400     		.2byte	0x4
 12036 0c7e F3       		.byte	0xf3
 12037 0c7f 01       		.uleb128 0x1
 12038 0c80 50       		.byte	0x50
 12039 0c81 9F       		.byte	0x9f
 12040 0c82 00000000 		.4byte	0
 12041 0c86 00000000 		.4byte	0
 12042              	.LLST88:
 12043 0c8a 00000000 		.4byte	.LVL89
 12044 0c8e 16000000 		.4byte	.LVL91
 12045 0c92 0100     		.2byte	0x1
 12046 0c94 51       		.byte	0x51
 12047 0c95 16000000 		.4byte	.LVL91
 12048 0c99 20000000 		.4byte	.LVL93
 12049 0c9d 0100     		.2byte	0x1
 12050 0c9f 56       		.byte	0x56
 12051 0ca0 20000000 		.4byte	.LVL93
 12052 0ca4 54000000 		.4byte	.LFE46
 12053 0ca8 0400     		.2byte	0x4
 12054 0caa F3       		.byte	0xf3
 12055 0cab 01       		.uleb128 0x1
 12056 0cac 51       		.byte	0x51
 12057 0cad 9F       		.byte	0x9f
 12058 0cae 00000000 		.4byte	0
ARM GAS  C:\Users\rdn\AppData\Local\Temp\cckhx27q.s 			page 239


 12059 0cb2 00000000 		.4byte	0
 12060              	.LLST89:
 12061 0cb6 00000000 		.4byte	.LVL89
 12062 0cba 20000000 		.4byte	.LVL93
 12063 0cbe 0100     		.2byte	0x1
 12064 0cc0 52       		.byte	0x52
 12065 0cc1 20000000 		.4byte	.LVL93
 12066 0cc5 54000000 		.4byte	.LFE46
 12067 0cc9 0400     		.2byte	0x4
 12068 0ccb F3       		.byte	0xf3
 12069 0ccc 01       		.uleb128 0x1
 12070 0ccd 52       		.byte	0x52
 12071 0cce 9F       		.byte	0x9f
 12072 0ccf 00000000 		.4byte	0
 12073 0cd3 00000000 		.4byte	0
 12074              	.LLST90:
 12075 0cd7 12000000 		.4byte	.LVL90
 12076 0cdb 16000000 		.4byte	.LVL91
 12077 0cdf 0100     		.2byte	0x1
 12078 0ce1 51       		.byte	0x51
 12079 0ce2 16000000 		.4byte	.LVL91
 12080 0ce6 4A000000 		.4byte	.LVL100
 12081 0cea 0100     		.2byte	0x1
 12082 0cec 56       		.byte	0x56
 12083 0ced 00000000 		.4byte	0
 12084 0cf1 00000000 		.4byte	0
 12085              	.LLST91:
 12086 0cf5 12000000 		.4byte	.LVL90
 12087 0cf9 20000000 		.4byte	.LVL93
 12088 0cfd 0200     		.2byte	0x2
 12089 0cff 70       		.byte	0x70
 12090 0d00 00       		.sleb128 0
 12091 0d01 00000000 		.4byte	0
 12092 0d05 00000000 		.4byte	0
 12093              	.LLST92:
 12094 0d09 12000000 		.4byte	.LVL90
 12095 0d0d 20000000 		.4byte	.LVL93
 12096 0d11 0200     		.2byte	0x2
 12097 0d13 70       		.byte	0x70
 12098 0d14 02       		.sleb128 2
 12099 0d15 00000000 		.4byte	0
 12100 0d19 00000000 		.4byte	0
 12101              	.LLST93:
 12102 0d1d 12000000 		.4byte	.LVL90
 12103 0d21 20000000 		.4byte	.LVL93
 12104 0d25 0D00     		.2byte	0xd
 12105 0d27 70       		.byte	0x70
 12106 0d28 AC01     		.sleb128 172
 12107 0d2a 06       		.byte	0x6
 12108 0d2b 32       		.byte	0x32
 12109 0d2c 24       		.byte	0x24
 12110 0d2d 70       		.byte	0x70
 12111 0d2e 00       		.sleb128 0
 12112 0d2f 22       		.byte	0x22
 12113 0d30 23       		.byte	0x23
 12114 0d31 B801     		.uleb128 0xb8
 12115 0d33 9F       		.byte	0x9f
ARM GAS  C:\Users\rdn\AppData\Local\Temp\cckhx27q.s 			page 240


 12116 0d34 20000000 		.4byte	.LVL93
 12117 0d38 28000000 		.4byte	.LVL94
 12118 0d3c 0100     		.2byte	0x1
 12119 0d3e 55       		.byte	0x55
 12120 0d3f 28000000 		.4byte	.LVL94
 12121 0d43 42000000 		.4byte	.LVL98
 12122 0d47 0300     		.2byte	0x3
 12123 0d49 75       		.byte	0x75
 12124 0d4a 7C       		.sleb128 -4
 12125 0d4b 9F       		.byte	0x9f
 12126 0d4c 42000000 		.4byte	.LVL98
 12127 0d50 4A000000 		.4byte	.LVL100
 12128 0d54 0100     		.2byte	0x1
 12129 0d56 55       		.byte	0x55
 12130 0d57 00000000 		.4byte	0
 12131 0d5b 00000000 		.4byte	0
 12132              	.LLST94:
 12133 0d5f 20000000 		.4byte	.LVL93
 12134 0d63 4A000000 		.4byte	.LVL100
 12135 0d67 0100     		.2byte	0x1
 12136 0d69 54       		.byte	0x54
 12137 0d6a 00000000 		.4byte	0
 12138 0d6e 00000000 		.4byte	0
 12139              	.LLST95:
 12140 0d72 12000000 		.4byte	.LVL90
 12141 0d76 1C000000 		.4byte	.LVL92
 12142 0d7a 0200     		.2byte	0x2
 12143 0d7c 70       		.byte	0x70
 12144 0d7d 02       		.sleb128 2
 12145 0d7e 00000000 		.4byte	0
 12146 0d82 00000000 		.4byte	0
 12147              	.LLST96:
 12148 0d86 12000000 		.4byte	.LVL90
 12149 0d8a 1C000000 		.4byte	.LVL92
 12150 0d8e 0200     		.2byte	0x2
 12151 0d90 70       		.byte	0x70
 12152 0d91 00       		.sleb128 0
 12153 0d92 00000000 		.4byte	0
 12154 0d96 00000000 		.4byte	0
 12155              	.LLST97:
 12156 0d9a 28000000 		.4byte	.LVL94
 12157 0d9e 34000000 		.4byte	.LVL95
 12158 0da2 0300     		.2byte	0x3
 12159 0da4 09       		.byte	0x9
 12160 0da5 F1       		.byte	0xf1
 12161 0da6 9F       		.byte	0x9f
 12162 0da7 00000000 		.4byte	0
 12163 0dab 00000000 		.4byte	0
 12164              	.LLST98:
 12165 0daf 28000000 		.4byte	.LVL94
 12166 0db3 34000000 		.4byte	.LVL95
 12167 0db7 0100     		.2byte	0x1
 12168 0db9 50       		.byte	0x50
 12169 0dba 00000000 		.4byte	0
 12170 0dbe 00000000 		.4byte	0
 12171              	.LLST99:
 12172 0dc2 28000000 		.4byte	.LVL94
ARM GAS  C:\Users\rdn\AppData\Local\Temp\cckhx27q.s 			page 241


 12173 0dc6 34000000 		.4byte	.LVL95
 12174 0dca 0300     		.2byte	0x3
 12175 0dcc 50       		.byte	0x50
 12176 0dcd 93       		.byte	0x93
 12177 0dce 04       		.uleb128 0x4
 12178 0dcf 00000000 		.4byte	0
 12179 0dd3 00000000 		.4byte	0
 12180              	.LLST100:
 12181 0dd7 00000000 		.4byte	.LVL101
 12182 0ddb 26000000 		.4byte	.LVL103
 12183 0ddf 0100     		.2byte	0x1
 12184 0de1 50       		.byte	0x50
 12185 0de2 26000000 		.4byte	.LVL103
 12186 0de6 28000000 		.4byte	.LVL104
 12187 0dea 0400     		.2byte	0x4
 12188 0dec F3       		.byte	0xf3
 12189 0ded 01       		.uleb128 0x1
 12190 0dee 50       		.byte	0x50
 12191 0def 9F       		.byte	0x9f
 12192 0df0 28000000 		.4byte	.LVL104
 12193 0df4 2A000000 		.4byte	.LVL105
 12194 0df8 0100     		.2byte	0x1
 12195 0dfa 50       		.byte	0x50
 12196 0dfb 2A000000 		.4byte	.LVL105
 12197 0dff 2C000000 		.4byte	.LVL106
 12198 0e03 0400     		.2byte	0x4
 12199 0e05 F3       		.byte	0xf3
 12200 0e06 01       		.uleb128 0x1
 12201 0e07 50       		.byte	0x50
 12202 0e08 9F       		.byte	0x9f
 12203 0e09 2C000000 		.4byte	.LVL106
 12204 0e0d 2E000000 		.4byte	.LVL107
 12205 0e11 0100     		.2byte	0x1
 12206 0e13 50       		.byte	0x50
 12207 0e14 2E000000 		.4byte	.LVL107
 12208 0e18 30000000 		.4byte	.LVL108
 12209 0e1c 0400     		.2byte	0x4
 12210 0e1e F3       		.byte	0xf3
 12211 0e1f 01       		.uleb128 0x1
 12212 0e20 50       		.byte	0x50
 12213 0e21 9F       		.byte	0x9f
 12214 0e22 30000000 		.4byte	.LVL108
 12215 0e26 32000000 		.4byte	.LVL109
 12216 0e2a 0100     		.2byte	0x1
 12217 0e2c 50       		.byte	0x50
 12218 0e2d 32000000 		.4byte	.LVL109
 12219 0e31 34000000 		.4byte	.LFE20
 12220 0e35 0400     		.2byte	0x4
 12221 0e37 F3       		.byte	0xf3
 12222 0e38 01       		.uleb128 0x1
 12223 0e39 50       		.byte	0x50
 12224 0e3a 9F       		.byte	0x9f
 12225 0e3b 00000000 		.4byte	0
 12226 0e3f 00000000 		.4byte	0
 12227              	.LLST101:
 12228 0e43 10000000 		.4byte	.LVL102
 12229 0e47 28000000 		.4byte	.LVL104
ARM GAS  C:\Users\rdn\AppData\Local\Temp\cckhx27q.s 			page 242


 12230 0e4b 0100     		.2byte	0x1
 12231 0e4d 51       		.byte	0x51
 12232 0e4e 30000000 		.4byte	.LVL108
 12233 0e52 34000000 		.4byte	.LFE20
 12234 0e56 0100     		.2byte	0x1
 12235 0e58 51       		.byte	0x51
 12236 0e59 00000000 		.4byte	0
 12237 0e5d 00000000 		.4byte	0
 12238              	.LLST102:
 12239 0e61 10000000 		.4byte	.LVL102
 12240 0e65 26000000 		.4byte	.LVL103
 12241 0e69 0100     		.2byte	0x1
 12242 0e6b 50       		.byte	0x50
 12243 0e6c 26000000 		.4byte	.LVL103
 12244 0e70 28000000 		.4byte	.LVL104
 12245 0e74 0400     		.2byte	0x4
 12246 0e76 F3       		.byte	0xf3
 12247 0e77 01       		.uleb128 0x1
 12248 0e78 50       		.byte	0x50
 12249 0e79 9F       		.byte	0x9f
 12250 0e7a 30000000 		.4byte	.LVL108
 12251 0e7e 32000000 		.4byte	.LVL109
 12252 0e82 0100     		.2byte	0x1
 12253 0e84 50       		.byte	0x50
 12254 0e85 32000000 		.4byte	.LVL109
 12255 0e89 34000000 		.4byte	.LFE20
 12256 0e8d 0400     		.2byte	0x4
 12257 0e8f F3       		.byte	0xf3
 12258 0e90 01       		.uleb128 0x1
 12259 0e91 50       		.byte	0x50
 12260 0e92 9F       		.byte	0x9f
 12261 0e93 00000000 		.4byte	0
 12262 0e97 00000000 		.4byte	0
 12263              	.LLST103:
 12264 0e9b 00000000 		.4byte	.LVL110
 12265 0e9f 28000000 		.4byte	.LVL112
 12266 0ea3 0100     		.2byte	0x1
 12267 0ea5 50       		.byte	0x50
 12268 0ea6 28000000 		.4byte	.LVL112
 12269 0eaa 2A000000 		.4byte	.LVL113
 12270 0eae 0400     		.2byte	0x4
 12271 0eb0 F3       		.byte	0xf3
 12272 0eb1 01       		.uleb128 0x1
 12273 0eb2 50       		.byte	0x50
 12274 0eb3 9F       		.byte	0x9f
 12275 0eb4 2A000000 		.4byte	.LVL113
 12276 0eb8 3C000000 		.4byte	.LVL115
 12277 0ebc 0100     		.2byte	0x1
 12278 0ebe 50       		.byte	0x50
 12279 0ebf 3C000000 		.4byte	.LVL115
 12280 0ec3 3E000000 		.4byte	.LVL116
 12281 0ec7 0400     		.2byte	0x4
 12282 0ec9 F3       		.byte	0xf3
 12283 0eca 01       		.uleb128 0x1
 12284 0ecb 50       		.byte	0x50
 12285 0ecc 9F       		.byte	0x9f
 12286 0ecd 3E000000 		.4byte	.LVL116
ARM GAS  C:\Users\rdn\AppData\Local\Temp\cckhx27q.s 			page 243


 12287 0ed1 40000000 		.4byte	.LVL117
 12288 0ed5 0100     		.2byte	0x1
 12289 0ed7 50       		.byte	0x50
 12290 0ed8 40000000 		.4byte	.LVL117
 12291 0edc 42000000 		.4byte	.LVL118
 12292 0ee0 0400     		.2byte	0x4
 12293 0ee2 F3       		.byte	0xf3
 12294 0ee3 01       		.uleb128 0x1
 12295 0ee4 50       		.byte	0x50
 12296 0ee5 9F       		.byte	0x9f
 12297 0ee6 42000000 		.4byte	.LVL118
 12298 0eea 44000000 		.4byte	.LVL119
 12299 0eee 0100     		.2byte	0x1
 12300 0ef0 50       		.byte	0x50
 12301 0ef1 44000000 		.4byte	.LVL119
 12302 0ef5 46000000 		.4byte	.LVL120
 12303 0ef9 0400     		.2byte	0x4
 12304 0efb F3       		.byte	0xf3
 12305 0efc 01       		.uleb128 0x1
 12306 0efd 50       		.byte	0x50
 12307 0efe 9F       		.byte	0x9f
 12308 0eff 46000000 		.4byte	.LVL120
 12309 0f03 48000000 		.4byte	.LVL121
 12310 0f07 0100     		.2byte	0x1
 12311 0f09 50       		.byte	0x50
 12312 0f0a 48000000 		.4byte	.LVL121
 12313 0f0e 4A000000 		.4byte	.LVL122
 12314 0f12 0400     		.2byte	0x4
 12315 0f14 F3       		.byte	0xf3
 12316 0f15 01       		.uleb128 0x1
 12317 0f16 50       		.byte	0x50
 12318 0f17 9F       		.byte	0x9f
 12319 0f18 4A000000 		.4byte	.LVL122
 12320 0f1c 4C000000 		.4byte	.LVL123
 12321 0f20 0100     		.2byte	0x1
 12322 0f22 50       		.byte	0x50
 12323 0f23 4C000000 		.4byte	.LVL123
 12324 0f27 4E000000 		.4byte	.LVL124
 12325 0f2b 0400     		.2byte	0x4
 12326 0f2d F3       		.byte	0xf3
 12327 0f2e 01       		.uleb128 0x1
 12328 0f2f 50       		.byte	0x50
 12329 0f30 9F       		.byte	0x9f
 12330 0f31 4E000000 		.4byte	.LVL124
 12331 0f35 50000000 		.4byte	.LVL125
 12332 0f39 0100     		.2byte	0x1
 12333 0f3b 50       		.byte	0x50
 12334 0f3c 50000000 		.4byte	.LVL125
 12335 0f40 58000000 		.4byte	.LFE21
 12336 0f44 0400     		.2byte	0x4
 12337 0f46 F3       		.byte	0xf3
 12338 0f47 01       		.uleb128 0x1
 12339 0f48 50       		.byte	0x50
 12340 0f49 9F       		.byte	0x9f
 12341 0f4a 00000000 		.4byte	0
 12342 0f4e 00000000 		.4byte	0
 12343              	.LLST104:
ARM GAS  C:\Users\rdn\AppData\Local\Temp\cckhx27q.s 			page 244


 12344 0f52 00000000 		.4byte	.LVL110
 12345 0f56 20000000 		.4byte	.LVL111
 12346 0f5a 0100     		.2byte	0x1
 12347 0f5c 51       		.byte	0x51
 12348 0f5d 20000000 		.4byte	.LVL111
 12349 0f61 2A000000 		.4byte	.LVL113
 12350 0f65 0400     		.2byte	0x4
 12351 0f67 F3       		.byte	0xf3
 12352 0f68 01       		.uleb128 0x1
 12353 0f69 51       		.byte	0x51
 12354 0f6a 9F       		.byte	0x9f
 12355 0f6b 2A000000 		.4byte	.LVL113
 12356 0f6f 34000000 		.4byte	.LVL114
 12357 0f73 0100     		.2byte	0x1
 12358 0f75 51       		.byte	0x51
 12359 0f76 34000000 		.4byte	.LVL114
 12360 0f7a 3E000000 		.4byte	.LVL116
 12361 0f7e 0400     		.2byte	0x4
 12362 0f80 F3       		.byte	0xf3
 12363 0f81 01       		.uleb128 0x1
 12364 0f82 51       		.byte	0x51
 12365 0f83 9F       		.byte	0x9f
 12366 0f84 3E000000 		.4byte	.LVL116
 12367 0f88 58000000 		.4byte	.LFE21
 12368 0f8c 0100     		.2byte	0x1
 12369 0f8e 51       		.byte	0x51
 12370 0f8f 00000000 		.4byte	0
 12371 0f93 00000000 		.4byte	0
 12372              	.LLST105:
 12373 0f97 2A000000 		.4byte	.LVL113
 12374 0f9b 3E000000 		.4byte	.LVL116
 12375 0f9f 0200     		.2byte	0x2
 12376 0fa1 31       		.byte	0x31
 12377 0fa2 9F       		.byte	0x9f
 12378 0fa3 4E000000 		.4byte	.LVL124
 12379 0fa7 58000000 		.4byte	.LFE21
 12380 0fab 0200     		.2byte	0x2
 12381 0fad 31       		.byte	0x31
 12382 0fae 9F       		.byte	0x9f
 12383 0faf 00000000 		.4byte	0
 12384 0fb3 00000000 		.4byte	0
 12385              	.LLST106:
 12386 0fb7 2A000000 		.4byte	.LVL113
 12387 0fbb 3C000000 		.4byte	.LVL115
 12388 0fbf 0100     		.2byte	0x1
 12389 0fc1 50       		.byte	0x50
 12390 0fc2 3C000000 		.4byte	.LVL115
 12391 0fc6 3E000000 		.4byte	.LVL116
 12392 0fca 0400     		.2byte	0x4
 12393 0fcc F3       		.byte	0xf3
 12394 0fcd 01       		.uleb128 0x1
 12395 0fce 50       		.byte	0x50
 12396 0fcf 9F       		.byte	0x9f
 12397 0fd0 4E000000 		.4byte	.LVL124
 12398 0fd4 50000000 		.4byte	.LVL125
 12399 0fd8 0100     		.2byte	0x1
 12400 0fda 50       		.byte	0x50
ARM GAS  C:\Users\rdn\AppData\Local\Temp\cckhx27q.s 			page 245


 12401 0fdb 50000000 		.4byte	.LVL125
 12402 0fdf 58000000 		.4byte	.LFE21
 12403 0fe3 0400     		.2byte	0x4
 12404 0fe5 F3       		.byte	0xf3
 12405 0fe6 01       		.uleb128 0x1
 12406 0fe7 50       		.byte	0x50
 12407 0fe8 9F       		.byte	0x9f
 12408 0fe9 00000000 		.4byte	0
 12409 0fed 00000000 		.4byte	0
 12410              	.LLST107:
 12411 0ff1 00000000 		.4byte	.LVL126
 12412 0ff5 06000000 		.4byte	.LVL127
 12413 0ff9 0100     		.2byte	0x1
 12414 0ffb 50       		.byte	0x50
 12415 0ffc 06000000 		.4byte	.LVL127
 12416 1000 34000000 		.4byte	.LFE22
 12417 1004 0400     		.2byte	0x4
 12418 1006 F3       		.byte	0xf3
 12419 1007 01       		.uleb128 0x1
 12420 1008 50       		.byte	0x50
 12421 1009 9F       		.byte	0x9f
 12422 100a 00000000 		.4byte	0
 12423 100e 00000000 		.4byte	0
 12424              	.LLST108:
 12425 1012 00000000 		.4byte	.LVL126
 12426 1016 08000000 		.4byte	.LVL128
 12427 101a 0100     		.2byte	0x1
 12428 101c 51       		.byte	0x51
 12429 101d 08000000 		.4byte	.LVL128
 12430 1021 0B000000 		.4byte	.LVL129-1
 12431 1025 0100     		.2byte	0x1
 12432 1027 50       		.byte	0x50
 12433 1028 0B000000 		.4byte	.LVL129-1
 12434 102c 34000000 		.4byte	.LFE22
 12435 1030 0400     		.2byte	0x4
 12436 1032 F3       		.byte	0xf3
 12437 1033 01       		.uleb128 0x1
 12438 1034 51       		.byte	0x51
 12439 1035 9F       		.byte	0x9f
 12440 1036 00000000 		.4byte	0
 12441 103a 00000000 		.4byte	0
 12442              	.LLST109:
 12443 103e 00000000 		.4byte	.LVL126
 12444 1042 0B000000 		.4byte	.LVL129-1
 12445 1046 0100     		.2byte	0x1
 12446 1048 52       		.byte	0x52
 12447 1049 0B000000 		.4byte	.LVL129-1
 12448 104d 34000000 		.4byte	.LFE22
 12449 1051 0400     		.2byte	0x4
 12450 1053 F3       		.byte	0xf3
 12451 1054 01       		.uleb128 0x1
 12452 1055 52       		.byte	0x52
 12453 1056 9F       		.byte	0x9f
 12454 1057 00000000 		.4byte	0
 12455 105b 00000000 		.4byte	0
 12456              	.LLST110:
 12457 105f 10000000 		.4byte	.LVL130
ARM GAS  C:\Users\rdn\AppData\Local\Temp\cckhx27q.s 			page 246


 12458 1063 30000000 		.4byte	.LVL137
 12459 1067 0100     		.2byte	0x1
 12460 1069 54       		.byte	0x54
 12461 106a 00000000 		.4byte	0
 12462 106e 00000000 		.4byte	0
 12463              	.LLST111:
 12464 1072 16000000 		.4byte	.LVL131
 12465 1076 24000000 		.4byte	.LVL133
 12466 107a 0100     		.2byte	0x1
 12467 107c 50       		.byte	0x50
 12468 107d 2A000000 		.4byte	.LVL135
 12469 1081 2E000000 		.4byte	.LVL136
 12470 1085 0100     		.2byte	0x1
 12471 1087 50       		.byte	0x50
 12472 1088 00000000 		.4byte	0
 12473 108c 00000000 		.4byte	0
 12474              	.LLST112:
 12475 1090 1E000000 		.4byte	.LVL132
 12476 1094 24000000 		.4byte	.LVL133
 12477 1098 0100     		.2byte	0x1
 12478 109a 50       		.byte	0x50
 12479 109b 00000000 		.4byte	0
 12480 109f 00000000 		.4byte	0
 12481              	.LLST113:
 12482 10a3 1E000000 		.4byte	.LVL132
 12483 10a7 28000000 		.4byte	.LVL134
 12484 10ab 0100     		.2byte	0x1
 12485 10ad 54       		.byte	0x54
 12486 10ae 00000000 		.4byte	0
 12487 10b2 00000000 		.4byte	0
 12488              	.LLST114:
 12489 10b6 00000000 		.4byte	.LVL138
 12490 10ba 06000000 		.4byte	.LVL140
 12491 10be 0100     		.2byte	0x1
 12492 10c0 50       		.byte	0x50
 12493 10c1 06000000 		.4byte	.LVL140
 12494 10c5 09000000 		.4byte	.LVL141-1
 12495 10c9 0100     		.2byte	0x1
 12496 10cb 51       		.byte	0x51
 12497 10cc 09000000 		.4byte	.LVL141-1
 12498 10d0 0A000000 		.4byte	.LFE23
 12499 10d4 0400     		.2byte	0x4
 12500 10d6 F3       		.byte	0xf3
 12501 10d7 01       		.uleb128 0x1
 12502 10d8 50       		.byte	0x50
 12503 10d9 9F       		.byte	0x9f
 12504 10da 00000000 		.4byte	0
 12505 10de 00000000 		.4byte	0
 12506              	.LLST115:
 12507 10e2 00000000 		.4byte	.LVL138
 12508 10e6 04000000 		.4byte	.LVL139
 12509 10ea 0100     		.2byte	0x1
 12510 10ec 51       		.byte	0x51
 12511 10ed 04000000 		.4byte	.LVL139
 12512 10f1 09000000 		.4byte	.LVL141-1
 12513 10f5 0100     		.2byte	0x1
 12514 10f7 52       		.byte	0x52
ARM GAS  C:\Users\rdn\AppData\Local\Temp\cckhx27q.s 			page 247


 12515 10f8 09000000 		.4byte	.LVL141-1
 12516 10fc 0A000000 		.4byte	.LFE23
 12517 1100 0400     		.2byte	0x4
 12518 1102 F3       		.byte	0xf3
 12519 1103 01       		.uleb128 0x1
 12520 1104 51       		.byte	0x51
 12521 1105 9F       		.byte	0x9f
 12522 1106 00000000 		.4byte	0
 12523 110a 00000000 		.4byte	0
 12524              	.LLST116:
 12525 110e 00000000 		.4byte	.LVL142
 12526 1112 06000000 		.4byte	.LVL143
 12527 1116 0100     		.2byte	0x1
 12528 1118 50       		.byte	0x50
 12529 1119 06000000 		.4byte	.LVL143
 12530 111d F8000000 		.4byte	.LFE24
 12531 1121 0400     		.2byte	0x4
 12532 1123 F3       		.byte	0xf3
 12533 1124 01       		.uleb128 0x1
 12534 1125 50       		.byte	0x50
 12535 1126 9F       		.byte	0x9f
 12536 1127 00000000 		.4byte	0
 12537 112b 00000000 		.4byte	0
 12538              	.LLST117:
 12539 112f 00000000 		.4byte	.LVL142
 12540 1133 08000000 		.4byte	.LVL144
 12541 1137 0100     		.2byte	0x1
 12542 1139 51       		.byte	0x51
 12543 113a 08000000 		.4byte	.LVL144
 12544 113e 0D000000 		.4byte	.LVL145-1
 12545 1142 0100     		.2byte	0x1
 12546 1144 50       		.byte	0x50
 12547 1145 0D000000 		.4byte	.LVL145-1
 12548 1149 F8000000 		.4byte	.LFE24
 12549 114d 0400     		.2byte	0x4
 12550 114f F3       		.byte	0xf3
 12551 1150 01       		.uleb128 0x1
 12552 1151 51       		.byte	0x51
 12553 1152 9F       		.byte	0x9f
 12554 1153 00000000 		.4byte	0
 12555 1157 00000000 		.4byte	0
 12556              	.LLST118:
 12557 115b 00000000 		.4byte	.LVL142
 12558 115f 0D000000 		.4byte	.LVL145-1
 12559 1163 0100     		.2byte	0x1
 12560 1165 52       		.byte	0x52
 12561 1166 0D000000 		.4byte	.LVL145-1
 12562 116a F8000000 		.4byte	.LFE24
 12563 116e 0400     		.2byte	0x4
 12564 1170 F3       		.byte	0xf3
 12565 1171 01       		.uleb128 0x1
 12566 1172 52       		.byte	0x52
 12567 1173 9F       		.byte	0x9f
 12568 1174 00000000 		.4byte	0
 12569 1178 00000000 		.4byte	0
 12570              	.LLST119:
 12571 117c 00000000 		.4byte	.LVL142
ARM GAS  C:\Users\rdn\AppData\Local\Temp\cckhx27q.s 			page 248


 12572 1180 0D000000 		.4byte	.LVL145-1
 12573 1184 0100     		.2byte	0x1
 12574 1186 53       		.byte	0x53
 12575 1187 0D000000 		.4byte	.LVL145-1
 12576 118b EA000000 		.4byte	.LVL163
 12577 118f 0100     		.2byte	0x1
 12578 1191 56       		.byte	0x56
 12579 1192 EA000000 		.4byte	.LVL163
 12580 1196 F8000000 		.4byte	.LFE24
 12581 119a 0400     		.2byte	0x4
 12582 119c F3       		.byte	0xf3
 12583 119d 01       		.uleb128 0x1
 12584 119e 53       		.byte	0x53
 12585 119f 9F       		.byte	0x9f
 12586 11a0 00000000 		.4byte	0
 12587 11a4 00000000 		.4byte	0
 12588              	.LLST120:
 12589 11a8 00000000 		.4byte	.LVL142
 12590 11ac 38000000 		.4byte	.LVL148
 12591 11b0 0200     		.2byte	0x2
 12592 11b2 91       		.byte	0x91
 12593 11b3 00       		.sleb128 0
 12594 11b4 38000000 		.4byte	.LVL148
 12595 11b8 52000000 		.4byte	.LVL149
 12596 11bc 0100     		.2byte	0x1
 12597 11be 54       		.byte	0x54
 12598 11bf 52000000 		.4byte	.LVL149
 12599 11c3 E2000000 		.4byte	.LVL161
 12600 11c7 3200     		.2byte	0x32
 12601 11c9 0C       		.byte	0xc
 12602 11ca 00085200 		.4byte	0x520800
 12603 11ce 91       		.byte	0x91
 12604 11cf 00       		.sleb128 0
 12605 11d0 06       		.byte	0x6
 12606 11d1 12       		.byte	0x12
 12607 11d2 30       		.byte	0x30
 12608 11d3 16       		.byte	0x16
 12609 11d4 14       		.byte	0x14
 12610 11d5 2B       		.byte	0x2b
 12611 11d6 28       		.byte	0x28
 12612 11d7 0100     		.2byte	0x1
 12613 11d9 16       		.byte	0x16
 12614 11da 13       		.byte	0x13
 12615 11db 91       		.byte	0x91
 12616 11dc 00       		.sleb128 0
 12617 11dd 06       		.byte	0x6
 12618 11de 91       		.byte	0x91
 12619 11df 00       		.sleb128 0
 12620 11e0 06       		.byte	0x6
 12621 11e1 0C       		.byte	0xc
 12622 11e2 FF075200 		.4byte	0x5207ff
 12623 11e6 2C       		.byte	0x2c
 12624 11e7 28       		.byte	0x28
 12625 11e8 0100     		.2byte	0x1
 12626 11ea 16       		.byte	0x16
 12627 11eb 13       		.byte	0x13
 12628 11ec 91       		.byte	0x91
ARM GAS  C:\Users\rdn\AppData\Local\Temp\cckhx27q.s 			page 249


 12629 11ed 00       		.sleb128 0
 12630 11ee 06       		.byte	0x6
 12631 11ef 0C       		.byte	0xc
 12632 11f0 FF075200 		.4byte	0x5207ff
 12633 11f4 2B       		.byte	0x2b
 12634 11f5 28       		.byte	0x28
 12635 11f6 0100     		.2byte	0x1
 12636 11f8 16       		.byte	0x16
 12637 11f9 13       		.byte	0x13
 12638 11fa 9F       		.byte	0x9f
 12639 11fb E2000000 		.4byte	.LVL161
 12640 11ff E6000000 		.4byte	.LVL162
 12641 1203 0200     		.2byte	0x2
 12642 1205 91       		.byte	0x91
 12643 1206 00       		.sleb128 0
 12644 1207 00000000 		.4byte	0
 12645 120b 00000000 		.4byte	0
 12646              	.LLST121:
 12647 120f 18000000 		.4byte	.LVL147
 12648 1213 B6000000 		.4byte	.LVL158
 12649 1217 0100     		.2byte	0x1
 12650 1219 50       		.byte	0x50
 12651 121a C6000000 		.4byte	.LVL159
 12652 121e CC000000 		.4byte	.LVL160
 12653 1222 0100     		.2byte	0x1
 12654 1224 50       		.byte	0x50
 12655 1225 E2000000 		.4byte	.LVL161
 12656 1229 E6000000 		.4byte	.LVL162
 12657 122d 0100     		.2byte	0x1
 12658 122f 50       		.byte	0x50
 12659 1230 00000000 		.4byte	0
 12660 1234 00000000 		.4byte	0
 12661              	.LLST122:
 12662 1238 5E000000 		.4byte	.LVL151
 12663 123c 72000000 		.4byte	.LVL152
 12664 1240 0100     		.2byte	0x1
 12665 1242 50       		.byte	0x50
 12666 1243 00000000 		.4byte	0
 12667 1247 00000000 		.4byte	0
 12668              	.LLST123:
 12669 124b 78000000 		.4byte	.LVL153
 12670 124f 8E000000 		.4byte	.LVL154
 12671 1253 0100     		.2byte	0x1
 12672 1255 50       		.byte	0x50
 12673 1256 00000000 		.4byte	0
 12674 125a 00000000 		.4byte	0
 12675              	.LLST124:
 12676 125e 96000000 		.4byte	.LVL155
 12677 1262 AA000000 		.4byte	.LVL156
 12678 1266 0100     		.2byte	0x1
 12679 1268 50       		.byte	0x50
 12680 1269 00000000 		.4byte	0
 12681 126d 00000000 		.4byte	0
 12682              	.LLST125:
 12683 1271 B0000000 		.4byte	.LVL157
 12684 1275 B6000000 		.4byte	.LVL158
 12685 1279 0100     		.2byte	0x1
ARM GAS  C:\Users\rdn\AppData\Local\Temp\cckhx27q.s 			page 250


 12686 127b 50       		.byte	0x50
 12687 127c 00000000 		.4byte	0
 12688 1280 00000000 		.4byte	0
 12689              	.LLST126:
 12690 1284 C6000000 		.4byte	.LVL159
 12691 1288 CC000000 		.4byte	.LVL160
 12692 128c 0100     		.2byte	0x1
 12693 128e 50       		.byte	0x50
 12694 128f 00000000 		.4byte	0
 12695 1293 00000000 		.4byte	0
 12696              	.LLST127:
 12697 1297 00000000 		.4byte	.LVL164
 12698 129b 0E000000 		.4byte	.LVL167
 12699 129f 0100     		.2byte	0x1
 12700 12a1 50       		.byte	0x50
 12701 12a2 0E000000 		.4byte	.LVL167
 12702 12a6 11000000 		.4byte	.LVL168-1
 12703 12aa 0100     		.2byte	0x1
 12704 12ac 51       		.byte	0x51
 12705 12ad 11000000 		.4byte	.LVL168-1
 12706 12b1 18000000 		.4byte	.LFE25
 12707 12b5 0400     		.2byte	0x4
 12708 12b7 F3       		.byte	0xf3
 12709 12b8 01       		.uleb128 0x1
 12710 12b9 50       		.byte	0x50
 12711 12ba 9F       		.byte	0x9f
 12712 12bb 00000000 		.4byte	0
 12713 12bf 00000000 		.4byte	0
 12714              	.LLST128:
 12715 12c3 00000000 		.4byte	.LVL164
 12716 12c7 08000000 		.4byte	.LVL165
 12717 12cb 0100     		.2byte	0x1
 12718 12cd 51       		.byte	0x51
 12719 12ce 08000000 		.4byte	.LVL165
 12720 12d2 11000000 		.4byte	.LVL168-1
 12721 12d6 0100     		.2byte	0x1
 12722 12d8 53       		.byte	0x53
 12723 12d9 11000000 		.4byte	.LVL168-1
 12724 12dd 18000000 		.4byte	.LFE25
 12725 12e1 0400     		.2byte	0x4
 12726 12e3 F3       		.byte	0xf3
 12727 12e4 01       		.uleb128 0x1
 12728 12e5 51       		.byte	0x51
 12729 12e6 9F       		.byte	0x9f
 12730 12e7 00000000 		.4byte	0
 12731 12eb 00000000 		.4byte	0
 12732              	.LLST129:
 12733 12ef 00000000 		.4byte	.LVL164
 12734 12f3 0C000000 		.4byte	.LVL166
 12735 12f7 0100     		.2byte	0x1
 12736 12f9 52       		.byte	0x52
 12737 12fa 0C000000 		.4byte	.LVL166
 12738 12fe 11000000 		.4byte	.LVL168-1
 12739 1302 0200     		.2byte	0x2
 12740 1304 7D       		.byte	0x7d
 12741 1305 00       		.sleb128 0
 12742 1306 11000000 		.4byte	.LVL168-1
ARM GAS  C:\Users\rdn\AppData\Local\Temp\cckhx27q.s 			page 251


 12743 130a 18000000 		.4byte	.LFE25
 12744 130e 0400     		.2byte	0x4
 12745 1310 F3       		.byte	0xf3
 12746 1311 01       		.uleb128 0x1
 12747 1312 52       		.byte	0x52
 12748 1313 9F       		.byte	0x9f
 12749 1314 00000000 		.4byte	0
 12750 1318 00000000 		.4byte	0
 12751              	.LLST130:
 12752 131c 00000000 		.4byte	.LVL169
 12753 1320 09000000 		.4byte	.LVL171-1
 12754 1324 0100     		.2byte	0x1
 12755 1326 50       		.byte	0x50
 12756 1327 09000000 		.4byte	.LVL171-1
 12757 132b 10000000 		.4byte	.LFE26
 12758 132f 0400     		.2byte	0x4
 12759 1331 F3       		.byte	0xf3
 12760 1332 01       		.uleb128 0x1
 12761 1333 50       		.byte	0x50
 12762 1334 9F       		.byte	0x9f
 12763 1335 00000000 		.4byte	0
 12764 1339 00000000 		.4byte	0
 12765              	.LLST131:
 12766 133d 00000000 		.4byte	.LVL169
 12767 1341 09000000 		.4byte	.LVL171-1
 12768 1345 0100     		.2byte	0x1
 12769 1347 51       		.byte	0x51
 12770 1348 09000000 		.4byte	.LVL171-1
 12771 134c 10000000 		.4byte	.LFE26
 12772 1350 0400     		.2byte	0x4
 12773 1352 F3       		.byte	0xf3
 12774 1353 01       		.uleb128 0x1
 12775 1354 51       		.byte	0x51
 12776 1355 9F       		.byte	0x9f
 12777 1356 00000000 		.4byte	0
 12778 135a 00000000 		.4byte	0
 12779              	.LLST132:
 12780 135e 00000000 		.4byte	.LVL169
 12781 1362 09000000 		.4byte	.LVL171-1
 12782 1366 0100     		.2byte	0x1
 12783 1368 52       		.byte	0x52
 12784 1369 09000000 		.4byte	.LVL171-1
 12785 136d 10000000 		.4byte	.LFE26
 12786 1371 0400     		.2byte	0x4
 12787 1373 F3       		.byte	0xf3
 12788 1374 01       		.uleb128 0x1
 12789 1375 52       		.byte	0x52
 12790 1376 9F       		.byte	0x9f
 12791 1377 00000000 		.4byte	0
 12792 137b 00000000 		.4byte	0
 12793              	.LLST133:
 12794 137f 00000000 		.4byte	.LVL169
 12795 1383 06000000 		.4byte	.LVL170
 12796 1387 0100     		.2byte	0x1
 12797 1389 53       		.byte	0x53
 12798 138a 06000000 		.4byte	.LVL170
 12799 138e 09000000 		.4byte	.LVL171-1
ARM GAS  C:\Users\rdn\AppData\Local\Temp\cckhx27q.s 			page 252


 12800 1392 0200     		.2byte	0x2
 12801 1394 7D       		.byte	0x7d
 12802 1395 00       		.sleb128 0
 12803 1396 09000000 		.4byte	.LVL171-1
 12804 139a 10000000 		.4byte	.LFE26
 12805 139e 0400     		.2byte	0x4
 12806 13a0 F3       		.byte	0xf3
 12807 13a1 01       		.uleb128 0x1
 12808 13a2 53       		.byte	0x53
 12809 13a3 9F       		.byte	0x9f
 12810 13a4 00000000 		.4byte	0
 12811 13a8 00000000 		.4byte	0
 12812              	.LLST134:
 12813 13ac 00000000 		.4byte	.LVL172
 12814 13b0 0A000000 		.4byte	.LVL174
 12815 13b4 0100     		.2byte	0x1
 12816 13b6 50       		.byte	0x50
 12817 13b7 0A000000 		.4byte	.LVL174
 12818 13bb 0D000000 		.4byte	.LVL175-1
 12819 13bf 0100     		.2byte	0x1
 12820 13c1 51       		.byte	0x51
 12821 13c2 0D000000 		.4byte	.LVL175-1
 12822 13c6 0E000000 		.4byte	.LFE27
 12823 13ca 0400     		.2byte	0x4
 12824 13cc F3       		.byte	0xf3
 12825 13cd 01       		.uleb128 0x1
 12826 13ce 50       		.byte	0x50
 12827 13cf 9F       		.byte	0x9f
 12828 13d0 00000000 		.4byte	0
 12829 13d4 00000000 		.4byte	0
 12830              	.LLST135:
 12831 13d8 00000000 		.4byte	.LVL172
 12832 13dc 08000000 		.4byte	.LVL173
 12833 13e0 0100     		.2byte	0x1
 12834 13e2 51       		.byte	0x51
 12835 13e3 08000000 		.4byte	.LVL173
 12836 13e7 0D000000 		.4byte	.LVL175-1
 12837 13eb 0100     		.2byte	0x1
 12838 13ed 53       		.byte	0x53
 12839 13ee 0D000000 		.4byte	.LVL175-1
 12840 13f2 0E000000 		.4byte	.LFE27
 12841 13f6 0400     		.2byte	0x4
 12842 13f8 F3       		.byte	0xf3
 12843 13f9 01       		.uleb128 0x1
 12844 13fa 51       		.byte	0x51
 12845 13fb 9F       		.byte	0x9f
 12846 13fc 00000000 		.4byte	0
 12847 1400 00000000 		.4byte	0
 12848              	.LLST136:
 12849 1404 00000000 		.4byte	.LVL176
 12850 1408 06000000 		.4byte	.LVL177
 12851 140c 0100     		.2byte	0x1
 12852 140e 50       		.byte	0x50
 12853 140f 06000000 		.4byte	.LVL177
 12854 1413 50000000 		.4byte	.LFE28
 12855 1417 0400     		.2byte	0x4
 12856 1419 F3       		.byte	0xf3
ARM GAS  C:\Users\rdn\AppData\Local\Temp\cckhx27q.s 			page 253


 12857 141a 01       		.uleb128 0x1
 12858 141b 50       		.byte	0x50
 12859 141c 9F       		.byte	0x9f
 12860 141d 00000000 		.4byte	0
 12861 1421 00000000 		.4byte	0
 12862              	.LLST137:
 12863 1425 00000000 		.4byte	.LVL176
 12864 1429 08000000 		.4byte	.LVL178
 12865 142d 0100     		.2byte	0x1
 12866 142f 51       		.byte	0x51
 12867 1430 08000000 		.4byte	.LVL178
 12868 1434 0D000000 		.4byte	.LVL179-1
 12869 1438 0100     		.2byte	0x1
 12870 143a 50       		.byte	0x50
 12871 143b 0D000000 		.4byte	.LVL179-1
 12872 143f 50000000 		.4byte	.LFE28
 12873 1443 0400     		.2byte	0x4
 12874 1445 F3       		.byte	0xf3
 12875 1446 01       		.uleb128 0x1
 12876 1447 51       		.byte	0x51
 12877 1448 9F       		.byte	0x9f
 12878 1449 00000000 		.4byte	0
 12879 144d 00000000 		.4byte	0
 12880              	.LLST138:
 12881 1451 00000000 		.4byte	.LVL176
 12882 1455 0D000000 		.4byte	.LVL179-1
 12883 1459 0100     		.2byte	0x1
 12884 145b 52       		.byte	0x52
 12885 145c 0D000000 		.4byte	.LVL179-1
 12886 1460 50000000 		.4byte	.LFE28
 12887 1464 0400     		.2byte	0x4
 12888 1466 F3       		.byte	0xf3
 12889 1467 01       		.uleb128 0x1
 12890 1468 52       		.byte	0x52
 12891 1469 9F       		.byte	0x9f
 12892 146a 00000000 		.4byte	0
 12893 146e 00000000 		.4byte	0
 12894              	.LLST139:
 12895 1472 00000000 		.4byte	.LVL176
 12896 1476 0D000000 		.4byte	.LVL179-1
 12897 147a 0100     		.2byte	0x1
 12898 147c 53       		.byte	0x53
 12899 147d 0D000000 		.4byte	.LVL179-1
 12900 1481 50000000 		.4byte	.LFE28
 12901 1485 0100     		.2byte	0x1
 12902 1487 55       		.byte	0x55
 12903 1488 00000000 		.4byte	0
 12904 148c 00000000 		.4byte	0
 12905              	.LLST140:
 12906 1490 12000000 		.4byte	.LVL180
 12907 1494 44000000 		.4byte	.LVL184
 12908 1498 0100     		.2byte	0x1
 12909 149a 54       		.byte	0x54
 12910 149b 4A000000 		.4byte	.LVL185
 12911 149f 4E000000 		.4byte	.LVL186
 12912 14a3 0100     		.2byte	0x1
 12913 14a5 54       		.byte	0x54
ARM GAS  C:\Users\rdn\AppData\Local\Temp\cckhx27q.s 			page 254


 12914 14a6 00000000 		.4byte	0
 12915 14aa 00000000 		.4byte	0
 12916              	.LLST141:
 12917 14ae 18000000 		.4byte	.LVL181
 12918 14b2 28000000 		.4byte	.LVL182
 12919 14b6 0100     		.2byte	0x1
 12920 14b8 50       		.byte	0x50
 12921 14b9 4A000000 		.4byte	.LVL185
 12922 14bd 4E000000 		.4byte	.LVL186
 12923 14c1 0100     		.2byte	0x1
 12924 14c3 50       		.byte	0x50
 12925 14c4 00000000 		.4byte	0
 12926 14c8 00000000 		.4byte	0
 12927              	.LLST142:
 12928 14cc 00000000 		.4byte	.LVL187
 12929 14d0 0A000000 		.4byte	.LVL189
 12930 14d4 0100     		.2byte	0x1
 12931 14d6 50       		.byte	0x50
 12932 14d7 0A000000 		.4byte	.LVL189
 12933 14db 0D000000 		.4byte	.LVL190-1
 12934 14df 0100     		.2byte	0x1
 12935 14e1 51       		.byte	0x51
 12936 14e2 0D000000 		.4byte	.LVL190-1
 12937 14e6 0E000000 		.4byte	.LFE29
 12938 14ea 0400     		.2byte	0x4
 12939 14ec F3       		.byte	0xf3
 12940 14ed 01       		.uleb128 0x1
 12941 14ee 50       		.byte	0x50
 12942 14ef 9F       		.byte	0x9f
 12943 14f0 00000000 		.4byte	0
 12944 14f4 00000000 		.4byte	0
 12945              	.LLST143:
 12946 14f8 00000000 		.4byte	.LVL187
 12947 14fc 08000000 		.4byte	.LVL188
 12948 1500 0100     		.2byte	0x1
 12949 1502 51       		.byte	0x51
 12950 1503 08000000 		.4byte	.LVL188
 12951 1507 0D000000 		.4byte	.LVL190-1
 12952 150b 0100     		.2byte	0x1
 12953 150d 53       		.byte	0x53
 12954 150e 0D000000 		.4byte	.LVL190-1
 12955 1512 0E000000 		.4byte	.LFE29
 12956 1516 0400     		.2byte	0x4
 12957 1518 F3       		.byte	0xf3
 12958 1519 01       		.uleb128 0x1
 12959 151a 51       		.byte	0x51
 12960 151b 9F       		.byte	0x9f
 12961 151c 00000000 		.4byte	0
 12962 1520 00000000 		.4byte	0
 12963              	.LLST144:
 12964 1524 00000000 		.4byte	.LVL191
 12965 1528 06000000 		.4byte	.LVL192
 12966 152c 0100     		.2byte	0x1
 12967 152e 50       		.byte	0x50
 12968 152f 06000000 		.4byte	.LVL192
 12969 1533 4C000000 		.4byte	.LFE30
 12970 1537 0400     		.2byte	0x4
ARM GAS  C:\Users\rdn\AppData\Local\Temp\cckhx27q.s 			page 255


 12971 1539 F3       		.byte	0xf3
 12972 153a 01       		.uleb128 0x1
 12973 153b 50       		.byte	0x50
 12974 153c 9F       		.byte	0x9f
 12975 153d 00000000 		.4byte	0
 12976 1541 00000000 		.4byte	0
 12977              	.LLST145:
 12978 1545 00000000 		.4byte	.LVL191
 12979 1549 08000000 		.4byte	.LVL193
 12980 154d 0100     		.2byte	0x1
 12981 154f 51       		.byte	0x51
 12982 1550 08000000 		.4byte	.LVL193
 12983 1554 0B000000 		.4byte	.LVL194-1
 12984 1558 0100     		.2byte	0x1
 12985 155a 50       		.byte	0x50
 12986 155b 0B000000 		.4byte	.LVL194-1
 12987 155f 4C000000 		.4byte	.LFE30
 12988 1563 0400     		.2byte	0x4
 12989 1565 F3       		.byte	0xf3
 12990 1566 01       		.uleb128 0x1
 12991 1567 51       		.byte	0x51
 12992 1568 9F       		.byte	0x9f
 12993 1569 00000000 		.4byte	0
 12994 156d 00000000 		.4byte	0
 12995              	.LLST146:
 12996 1571 00000000 		.4byte	.LVL191
 12997 1575 0B000000 		.4byte	.LVL194-1
 12998 1579 0100     		.2byte	0x1
 12999 157b 52       		.byte	0x52
 13000 157c 0B000000 		.4byte	.LVL194-1
 13001 1580 4C000000 		.4byte	.LFE30
 13002 1584 0400     		.2byte	0x4
 13003 1586 F3       		.byte	0xf3
 13004 1587 01       		.uleb128 0x1
 13005 1588 52       		.byte	0x52
 13006 1589 9F       		.byte	0x9f
 13007 158a 00000000 		.4byte	0
 13008 158e 00000000 		.4byte	0
 13009              	.LLST147:
 13010 1592 10000000 		.4byte	.LVL195
 13011 1596 42000000 		.4byte	.LVL203
 13012 159a 0100     		.2byte	0x1
 13013 159c 54       		.byte	0x54
 13014 159d 00000000 		.4byte	0
 13015 15a1 00000000 		.4byte	0
 13016              	.LLST148:
 13017 15a5 16000000 		.4byte	.LVL196
 13018 15a9 3A000000 		.4byte	.LVL200
 13019 15ad 0100     		.2byte	0x1
 13020 15af 50       		.byte	0x50
 13021 15b0 3C000000 		.4byte	.LVL201
 13022 15b4 40000000 		.4byte	.LVL202
 13023 15b8 0100     		.2byte	0x1
 13024 15ba 50       		.byte	0x50
 13025 15bb 00000000 		.4byte	0
 13026 15bf 00000000 		.4byte	0
 13027              	.LLST149:
ARM GAS  C:\Users\rdn\AppData\Local\Temp\cckhx27q.s 			page 256


 13028 15c3 1E000000 		.4byte	.LVL197
 13029 15c7 32000000 		.4byte	.LVL199
 13030 15cb 0100     		.2byte	0x1
 13031 15cd 50       		.byte	0x50
 13032 15ce 00000000 		.4byte	0
 13033 15d2 00000000 		.4byte	0
 13034              	.LLST150:
 13035 15d6 1E000000 		.4byte	.LVL197
 13036 15da 32000000 		.4byte	.LVL199
 13037 15de 0100     		.2byte	0x1
 13038 15e0 54       		.byte	0x54
 13039 15e1 00000000 		.4byte	0
 13040 15e5 00000000 		.4byte	0
 13041              	.LLST151:
 13042 15e9 1E000000 		.4byte	.LVL197
 13043 15ed 2A000000 		.4byte	.LVL198
 13044 15f1 0100     		.2byte	0x1
 13045 15f3 50       		.byte	0x50
 13046 15f4 00000000 		.4byte	0
 13047 15f8 00000000 		.4byte	0
 13048              	.LLST152:
 13049 15fc 1E000000 		.4byte	.LVL197
 13050 1600 2A000000 		.4byte	.LVL198
 13051 1604 0100     		.2byte	0x1
 13052 1606 54       		.byte	0x54
 13053 1607 00000000 		.4byte	0
 13054 160b 00000000 		.4byte	0
 13055              	.LLST153:
 13056 160f 00000000 		.4byte	.LVL204
 13057 1613 06000000 		.4byte	.LVL206
 13058 1617 0100     		.2byte	0x1
 13059 1619 50       		.byte	0x50
 13060 161a 06000000 		.4byte	.LVL206
 13061 161e 09000000 		.4byte	.LVL207-1
 13062 1622 0100     		.2byte	0x1
 13063 1624 51       		.byte	0x51
 13064 1625 09000000 		.4byte	.LVL207-1
 13065 1629 0A000000 		.4byte	.LFE31
 13066 162d 0400     		.2byte	0x4
 13067 162f F3       		.byte	0xf3
 13068 1630 01       		.uleb128 0x1
 13069 1631 50       		.byte	0x50
 13070 1632 9F       		.byte	0x9f
 13071 1633 00000000 		.4byte	0
 13072 1637 00000000 		.4byte	0
 13073              	.LLST154:
 13074 163b 00000000 		.4byte	.LVL204
 13075 163f 04000000 		.4byte	.LVL205
 13076 1643 0100     		.2byte	0x1
 13077 1645 51       		.byte	0x51
 13078 1646 04000000 		.4byte	.LVL205
 13079 164a 09000000 		.4byte	.LVL207-1
 13080 164e 0100     		.2byte	0x1
 13081 1650 52       		.byte	0x52
 13082 1651 09000000 		.4byte	.LVL207-1
 13083 1655 0A000000 		.4byte	.LFE31
 13084 1659 0400     		.2byte	0x4
ARM GAS  C:\Users\rdn\AppData\Local\Temp\cckhx27q.s 			page 257


 13085 165b F3       		.byte	0xf3
 13086 165c 01       		.uleb128 0x1
 13087 165d 51       		.byte	0x51
 13088 165e 9F       		.byte	0x9f
 13089 165f 00000000 		.4byte	0
 13090 1663 00000000 		.4byte	0
 13091              	.LLST155:
 13092 1667 00000000 		.4byte	.LVL208
 13093 166b 0A000000 		.4byte	.LVL210
 13094 166f 0100     		.2byte	0x1
 13095 1671 50       		.byte	0x50
 13096 1672 0A000000 		.4byte	.LVL210
 13097 1676 70000000 		.4byte	.LFE38
 13098 167a 0400     		.2byte	0x4
 13099 167c F3       		.byte	0xf3
 13100 167d 01       		.uleb128 0x1
 13101 167e 50       		.byte	0x50
 13102 167f 9F       		.byte	0x9f
 13103 1680 00000000 		.4byte	0
 13104 1684 00000000 		.4byte	0
 13105              	.LLST156:
 13106 1688 00000000 		.4byte	.LVL208
 13107 168c 08000000 		.4byte	.LVL209
 13108 1690 0100     		.2byte	0x1
 13109 1692 51       		.byte	0x51
 13110 1693 08000000 		.4byte	.LVL209
 13111 1697 66000000 		.4byte	.LVL218
 13112 169b 0100     		.2byte	0x1
 13113 169d 54       		.byte	0x54
 13114 169e 66000000 		.4byte	.LVL218
 13115 16a2 70000000 		.4byte	.LFE38
 13116 16a6 0400     		.2byte	0x4
 13117 16a8 F3       		.byte	0xf3
 13118 16a9 01       		.uleb128 0x1
 13119 16aa 51       		.byte	0x51
 13120 16ab 9F       		.byte	0x9f
 13121 16ac 00000000 		.4byte	0
 13122 16b0 00000000 		.4byte	0
 13123              	.LLST157:
 13124 16b4 00000000 		.4byte	.LVL208
 13125 16b8 0D000000 		.4byte	.LVL211-1
 13126 16bc 0100     		.2byte	0x1
 13127 16be 52       		.byte	0x52
 13128 16bf 0D000000 		.4byte	.LVL211-1
 13129 16c3 70000000 		.4byte	.LFE38
 13130 16c7 0400     		.2byte	0x4
 13131 16c9 F3       		.byte	0xf3
 13132 16ca 01       		.uleb128 0x1
 13133 16cb 52       		.byte	0x52
 13134 16cc 9F       		.byte	0x9f
 13135 16cd 00000000 		.4byte	0
 13136 16d1 00000000 		.4byte	0
 13137              	.LLST158:
 13138 16d5 1E000000 		.4byte	.LVL213
 13139 16d9 22000000 		.4byte	.LVL214
 13140 16dd 0100     		.2byte	0x1
 13141 16df 55       		.byte	0x55
ARM GAS  C:\Users\rdn\AppData\Local\Temp\cckhx27q.s 			page 258


 13142 16e0 00000000 		.4byte	0
 13143 16e4 00000000 		.4byte	0
 13144              	.LLST159:
 13145 16e8 1E000000 		.4byte	.LVL213
 13146 16ec 52000000 		.4byte	.LVL215
 13147 16f0 0100     		.2byte	0x1
 13148 16f2 52       		.byte	0x52
 13149 16f3 00000000 		.4byte	0
 13150 16f7 00000000 		.4byte	0
 13151              	.LLST160:
 13152 16fb 1E000000 		.4byte	.LVL213
 13153 16ff 60000000 		.4byte	.LVL216
 13154 1703 0100     		.2byte	0x1
 13155 1705 54       		.byte	0x54
 13156 1706 00000000 		.4byte	0
 13157 170a 00000000 		.4byte	0
 13158              	.LLST161:
 13159 170e 00000000 		.4byte	.LVL219
 13160 1712 06000000 		.4byte	.LVL221
 13161 1716 0100     		.2byte	0x1
 13162 1718 50       		.byte	0x50
 13163 1719 06000000 		.4byte	.LVL221
 13164 171d 09000000 		.4byte	.LVL222-1
 13165 1721 0100     		.2byte	0x1
 13166 1723 51       		.byte	0x51
 13167 1724 09000000 		.4byte	.LVL222-1
 13168 1728 0A000000 		.4byte	.LFE39
 13169 172c 0400     		.2byte	0x4
 13170 172e F3       		.byte	0xf3
 13171 172f 01       		.uleb128 0x1
 13172 1730 50       		.byte	0x50
 13173 1731 9F       		.byte	0x9f
 13174 1732 00000000 		.4byte	0
 13175 1736 00000000 		.4byte	0
 13176              	.LLST162:
 13177 173a 00000000 		.4byte	.LVL219
 13178 173e 04000000 		.4byte	.LVL220
 13179 1742 0100     		.2byte	0x1
 13180 1744 51       		.byte	0x51
 13181 1745 04000000 		.4byte	.LVL220
 13182 1749 09000000 		.4byte	.LVL222-1
 13183 174d 0100     		.2byte	0x1
 13184 174f 52       		.byte	0x52
 13185 1750 09000000 		.4byte	.LVL222-1
 13186 1754 0A000000 		.4byte	.LFE39
 13187 1758 0400     		.2byte	0x4
 13188 175a F3       		.byte	0xf3
 13189 175b 01       		.uleb128 0x1
 13190 175c 51       		.byte	0x51
 13191 175d 9F       		.byte	0x9f
 13192 175e 00000000 		.4byte	0
 13193 1762 00000000 		.4byte	0
 13194              	.LLST163:
 13195 1766 00000000 		.4byte	.LVL223
 13196 176a 0C000000 		.4byte	.LVL225
 13197 176e 0100     		.2byte	0x1
 13198 1770 50       		.byte	0x50
ARM GAS  C:\Users\rdn\AppData\Local\Temp\cckhx27q.s 			page 259


 13199 1771 0C000000 		.4byte	.LVL225
 13200 1775 E8000000 		.4byte	.LFE40
 13201 1779 0400     		.2byte	0x4
 13202 177b F3       		.byte	0xf3
 13203 177c 01       		.uleb128 0x1
 13204 177d 50       		.byte	0x50
 13205 177e 9F       		.byte	0x9f
 13206 177f 00000000 		.4byte	0
 13207 1783 00000000 		.4byte	0
 13208              	.LLST164:
 13209 1787 00000000 		.4byte	.LVL223
 13210 178b 0A000000 		.4byte	.LVL224
 13211 178f 0100     		.2byte	0x1
 13212 1791 51       		.byte	0x51
 13213 1792 0A000000 		.4byte	.LVL224
 13214 1796 A4000000 		.4byte	.LVL239
 13215 179a 0100     		.2byte	0x1
 13216 179c 5A       		.byte	0x5a
 13217 179d A4000000 		.4byte	.LVL239
 13218 17a1 CE000000 		.4byte	.LVL242
 13219 17a5 0400     		.2byte	0x4
 13220 17a7 F3       		.byte	0xf3
 13221 17a8 01       		.uleb128 0x1
 13222 17a9 51       		.byte	0x51
 13223 17aa 9F       		.byte	0x9f
 13224 17ab CE000000 		.4byte	.LVL242
 13225 17af D2000000 		.4byte	.LVL244
 13226 17b3 0100     		.2byte	0x1
 13227 17b5 5A       		.byte	0x5a
 13228 17b6 D2000000 		.4byte	.LVL244
 13229 17ba E8000000 		.4byte	.LFE40
 13230 17be 0400     		.2byte	0x4
 13231 17c0 F3       		.byte	0xf3
 13232 17c1 01       		.uleb128 0x1
 13233 17c2 51       		.byte	0x51
 13234 17c3 9F       		.byte	0x9f
 13235 17c4 00000000 		.4byte	0
 13236 17c8 00000000 		.4byte	0
 13237              	.LLST165:
 13238 17cc 00000000 		.4byte	.LVL223
 13239 17d0 17000000 		.4byte	.LVL227-1
 13240 17d4 0100     		.2byte	0x1
 13241 17d6 52       		.byte	0x52
 13242 17d7 17000000 		.4byte	.LVL227-1
 13243 17db E8000000 		.4byte	.LFE40
 13244 17df 0400     		.2byte	0x4
 13245 17e1 F3       		.byte	0xf3
 13246 17e2 01       		.uleb128 0x1
 13247 17e3 52       		.byte	0x52
 13248 17e4 9F       		.byte	0x9f
 13249 17e5 00000000 		.4byte	0
 13250 17e9 00000000 		.4byte	0
 13251              	.LLST166:
 13252 17ed 00000000 		.4byte	.LVL223
 13253 17f1 14000000 		.4byte	.LVL226
 13254 17f5 0100     		.2byte	0x1
 13255 17f7 53       		.byte	0x53
ARM GAS  C:\Users\rdn\AppData\Local\Temp\cckhx27q.s 			page 260


 13256 17f8 14000000 		.4byte	.LVL226
 13257 17fc A8000000 		.4byte	.LVL240
 13258 1800 0100     		.2byte	0x1
 13259 1802 56       		.byte	0x56
 13260 1803 A8000000 		.4byte	.LVL240
 13261 1807 CE000000 		.4byte	.LVL242
 13262 180b 1100     		.2byte	0x11
 13263 180d F3       		.byte	0xf3
 13264 180e 01       		.uleb128 0x1
 13265 180f 53       		.byte	0x53
 13266 1810 F3       		.byte	0xf3
 13267 1811 01       		.uleb128 0x1
 13268 1812 52       		.byte	0x52
 13269 1813 F3       		.byte	0xf3
 13270 1814 01       		.uleb128 0x1
 13271 1815 53       		.byte	0x53
 13272 1816 30       		.byte	0x30
 13273 1817 2B       		.byte	0x2b
 13274 1818 28       		.byte	0x28
 13275 1819 0100     		.2byte	0x1
 13276 181b 16       		.byte	0x16
 13277 181c 13       		.byte	0x13
 13278 181d 9F       		.byte	0x9f
 13279 181e CE000000 		.4byte	.LVL242
 13280 1822 D2000000 		.4byte	.LVL244
 13281 1826 0100     		.2byte	0x1
 13282 1828 56       		.byte	0x56
 13283 1829 D2000000 		.4byte	.LVL244
 13284 182d E8000000 		.4byte	.LFE40
 13285 1831 1100     		.2byte	0x11
 13286 1833 F3       		.byte	0xf3
 13287 1834 01       		.uleb128 0x1
 13288 1835 53       		.byte	0x53
 13289 1836 F3       		.byte	0xf3
 13290 1837 01       		.uleb128 0x1
 13291 1838 52       		.byte	0x52
 13292 1839 F3       		.byte	0xf3
 13293 183a 01       		.uleb128 0x1
 13294 183b 53       		.byte	0x53
 13295 183c 30       		.byte	0x30
 13296 183d 2B       		.byte	0x2b
 13297 183e 28       		.byte	0x28
 13298 183f 0100     		.2byte	0x1
 13299 1841 16       		.byte	0x16
 13300 1842 13       		.byte	0x13
 13301 1843 9F       		.byte	0x9f
 13302 1844 00000000 		.4byte	0
 13303 1848 00000000 		.4byte	0
 13304              	.LLST167:
 13305 184c 00000000 		.4byte	.LVL223
 13306 1850 DA000000 		.4byte	.LVL245
 13307 1854 0200     		.2byte	0x2
 13308 1856 91       		.byte	0x91
 13309 1857 00       		.sleb128 0
 13310 1858 DA000000 		.4byte	.LVL245
 13311 185c E8000000 		.4byte	.LFE40
 13312 1860 0200     		.2byte	0x2
ARM GAS  C:\Users\rdn\AppData\Local\Temp\cckhx27q.s 			page 261


 13313 1862 7D       		.byte	0x7d
 13314 1863 00       		.sleb128 0
 13315 1864 00000000 		.4byte	0
 13316 1868 00000000 		.4byte	0
 13317              	.LLST168:
 13318 186c 1C000000 		.4byte	.LVL228
 13319 1870 72000000 		.4byte	.LVL238
 13320 1874 0100     		.2byte	0x1
 13321 1876 57       		.byte	0x57
 13322 1877 72000000 		.4byte	.LVL238
 13323 187b CB000000 		.4byte	.LVL241-1
 13324 187f 0200     		.2byte	0x2
 13325 1881 74       		.byte	0x74
 13326 1882 00       		.sleb128 0
 13327 1883 CE000000 		.4byte	.LVL242
 13328 1887 D2000000 		.4byte	.LVL244
 13329 188b 0100     		.2byte	0x1
 13330 188d 57       		.byte	0x57
 13331 188e 00000000 		.4byte	0
 13332 1892 00000000 		.4byte	0
 13333              	.LLST169:
 13334 1896 26000000 		.4byte	.LVL230
 13335 189a DA000000 		.4byte	.LVL245
 13336 189e 0100     		.2byte	0x1
 13337 18a0 5B       		.byte	0x5b
 13338 18a1 00000000 		.4byte	0
 13339 18a5 00000000 		.4byte	0
 13340              	.LLST170:
 13341 18a9 32000000 		.4byte	.LVL232
 13342 18ad 54000000 		.4byte	.LVL236
 13343 18b1 0100     		.2byte	0x1
 13344 18b3 50       		.byte	0x50
 13345 18b4 CE000000 		.4byte	.LVL242
 13346 18b8 D0000000 		.4byte	.LVL243
 13347 18bc 0100     		.2byte	0x1
 13348 18be 50       		.byte	0x50
 13349 18bf 00000000 		.4byte	0
 13350 18c3 00000000 		.4byte	0
 13351              	.LLST171:
 13352 18c7 40000000 		.4byte	.LVL233
 13353 18cb CE000000 		.4byte	.LVL242
 13354 18cf 0100     		.2byte	0x1
 13355 18d1 54       		.byte	0x54
 13356 18d2 00000000 		.4byte	0
 13357 18d6 00000000 		.4byte	0
 13358              	.LLST172:
 13359 18da 40000000 		.4byte	.LVL233
 13360 18de 4C000000 		.4byte	.LVL234
 13361 18e2 0100     		.2byte	0x1
 13362 18e4 50       		.byte	0x50
 13363 18e5 00000000 		.4byte	0
 13364 18e9 00000000 		.4byte	0
 13365              	.LLST173:
 13366 18ed 40000000 		.4byte	.LVL233
 13367 18f1 4C000000 		.4byte	.LVL234
 13368 18f5 0100     		.2byte	0x1
 13369 18f7 57       		.byte	0x57
ARM GAS  C:\Users\rdn\AppData\Local\Temp\cckhx27q.s 			page 262


 13370 18f8 00000000 		.4byte	0
 13371 18fc 00000000 		.4byte	0
 13372              	.LLST174:
 13373 1900 4C000000 		.4byte	.LVL234
 13374 1904 52000000 		.4byte	.LVL235
 13375 1908 0100     		.2byte	0x1
 13376 190a 59       		.byte	0x59
 13377 190b 00000000 		.4byte	0
 13378 190f 00000000 		.4byte	0
 13379              	.LLST175:
 13380 1913 00000000 		.4byte	.LVL246
 13381 1917 0C000000 		.4byte	.LVL250
 13382 191b 0100     		.2byte	0x1
 13383 191d 50       		.byte	0x50
 13384 191e 0C000000 		.4byte	.LVL250
 13385 1922 0F000000 		.4byte	.LVL251-1
 13386 1926 0100     		.2byte	0x1
 13387 1928 51       		.byte	0x51
 13388 1929 0F000000 		.4byte	.LVL251-1
 13389 192d 16000000 		.4byte	.LFE41
 13390 1931 0400     		.2byte	0x4
 13391 1933 F3       		.byte	0xf3
 13392 1934 01       		.uleb128 0x1
 13393 1935 50       		.byte	0x50
 13394 1936 9F       		.byte	0x9f
 13395 1937 00000000 		.4byte	0
 13396 193b 00000000 		.4byte	0
 13397              	.LLST176:
 13398 193f 00000000 		.4byte	.LVL246
 13399 1943 0A000000 		.4byte	.LVL249
 13400 1947 0100     		.2byte	0x1
 13401 1949 51       		.byte	0x51
 13402 194a 0A000000 		.4byte	.LVL249
 13403 194e 0F000000 		.4byte	.LVL251-1
 13404 1952 0100     		.2byte	0x1
 13405 1954 52       		.byte	0x52
 13406 1955 0F000000 		.4byte	.LVL251-1
 13407 1959 16000000 		.4byte	.LFE41
 13408 195d 0400     		.2byte	0x4
 13409 195f F3       		.byte	0xf3
 13410 1960 01       		.uleb128 0x1
 13411 1961 51       		.byte	0x51
 13412 1962 9F       		.byte	0x9f
 13413 1963 00000000 		.4byte	0
 13414 1967 00000000 		.4byte	0
 13415              	.LLST177:
 13416 196b 00000000 		.4byte	.LVL246
 13417 196f 08000000 		.4byte	.LVL248
 13418 1973 0100     		.2byte	0x1
 13419 1975 52       		.byte	0x52
 13420 1976 08000000 		.4byte	.LVL248
 13421 197a 0F000000 		.4byte	.LVL251-1
 13422 197e 0100     		.2byte	0x1
 13423 1980 53       		.byte	0x53
 13424 1981 0F000000 		.4byte	.LVL251-1
 13425 1985 16000000 		.4byte	.LFE41
 13426 1989 0400     		.2byte	0x4
ARM GAS  C:\Users\rdn\AppData\Local\Temp\cckhx27q.s 			page 263


 13427 198b F3       		.byte	0xf3
 13428 198c 01       		.uleb128 0x1
 13429 198d 52       		.byte	0x52
 13430 198e 9F       		.byte	0x9f
 13431 198f 00000000 		.4byte	0
 13432 1993 00000000 		.4byte	0
 13433              	.LLST178:
 13434 1997 00000000 		.4byte	.LVL246
 13435 199b 06000000 		.4byte	.LVL247
 13436 199f 0100     		.2byte	0x1
 13437 19a1 53       		.byte	0x53
 13438 19a2 06000000 		.4byte	.LVL247
 13439 19a6 0F000000 		.4byte	.LVL251-1
 13440 19aa 0200     		.2byte	0x2
 13441 19ac 7D       		.byte	0x7d
 13442 19ad 00       		.sleb128 0
 13443 19ae 0F000000 		.4byte	.LVL251-1
 13444 19b2 16000000 		.4byte	.LFE41
 13445 19b6 0400     		.2byte	0x4
 13446 19b8 F3       		.byte	0xf3
 13447 19b9 01       		.uleb128 0x1
 13448 19ba 53       		.byte	0x53
 13449 19bb 9F       		.byte	0x9f
 13450 19bc 00000000 		.4byte	0
 13451 19c0 00000000 		.4byte	0
 13452              	.LLST179:
 13453 19c4 00000000 		.4byte	.LVL252
 13454 19c8 1C000000 		.4byte	.LVL254
 13455 19cc 0100     		.2byte	0x1
 13456 19ce 50       		.byte	0x50
 13457 19cf 1C000000 		.4byte	.LVL254
 13458 19d3 58010000 		.4byte	.LVL283
 13459 19d7 0100     		.2byte	0x1
 13460 19d9 54       		.byte	0x54
 13461 19da 58010000 		.4byte	.LVL283
 13462 19de DC010000 		.4byte	.LVL298
 13463 19e2 0900     		.2byte	0x9
 13464 19e4 91       		.byte	0x91
 13465 19e5 C07C     		.sleb128 -448
 13466 19e7 06       		.byte	0x6
 13467 19e8 0A       		.byte	0xa
 13468 19e9 AC04     		.2byte	0x4ac
 13469 19eb 1C       		.byte	0x1c
 13470 19ec 9F       		.byte	0x9f
 13471 19ed DC010000 		.4byte	.LVL298
 13472 19f1 E2010000 		.4byte	.LVL299
 13473 19f5 0100     		.2byte	0x1
 13474 19f7 54       		.byte	0x54
 13475 19f8 E2010000 		.4byte	.LVL299
 13476 19fc EA010000 		.4byte	.LVL300
 13477 1a00 0100     		.2byte	0x1
 13478 1a02 50       		.byte	0x50
 13479 1a03 EA010000 		.4byte	.LVL300
 13480 1a07 EC010000 		.4byte	.LVL301
 13481 1a0b 0100     		.2byte	0x1
 13482 1a0d 54       		.byte	0x54
 13483 1a0e EC010000 		.4byte	.LVL301
ARM GAS  C:\Users\rdn\AppData\Local\Temp\cckhx27q.s 			page 264


 13484 1a12 00020000 		.4byte	.LFE42
 13485 1a16 0400     		.2byte	0x4
 13486 1a18 F3       		.byte	0xf3
 13487 1a19 01       		.uleb128 0x1
 13488 1a1a 50       		.byte	0x50
 13489 1a1b 9F       		.byte	0x9f
 13490 1a1c 00000000 		.4byte	0
 13491 1a20 00000000 		.4byte	0
 13492              	.LLST180:
 13493 1a24 00000000 		.4byte	.LVL252
 13494 1a28 44000000 		.4byte	.LVL259
 13495 1a2c 0100     		.2byte	0x1
 13496 1a2e 51       		.byte	0x51
 13497 1a2f 44000000 		.4byte	.LVL259
 13498 1a33 DC010000 		.4byte	.LVL298
 13499 1a37 0400     		.2byte	0x4
 13500 1a39 F3       		.byte	0xf3
 13501 1a3a 01       		.uleb128 0x1
 13502 1a3b 51       		.byte	0x51
 13503 1a3c 9F       		.byte	0x9f
 13504 1a3d DC010000 		.4byte	.LVL298
 13505 1a41 EC010000 		.4byte	.LVL301
 13506 1a45 0100     		.2byte	0x1
 13507 1a47 51       		.byte	0x51
 13508 1a48 EC010000 		.4byte	.LVL301
 13509 1a4c 00020000 		.4byte	.LFE42
 13510 1a50 0400     		.2byte	0x4
 13511 1a52 F3       		.byte	0xf3
 13512 1a53 01       		.uleb128 0x1
 13513 1a54 51       		.byte	0x51
 13514 1a55 9F       		.byte	0x9f
 13515 1a56 00000000 		.4byte	0
 13516 1a5a 00000000 		.4byte	0
 13517              	.LLST181:
 13518 1a5e 00000000 		.4byte	.LVL252
 13519 1a62 28000000 		.4byte	.LVL256
 13520 1a66 0100     		.2byte	0x1
 13521 1a68 52       		.byte	0x52
 13522 1a69 28000000 		.4byte	.LVL256
 13523 1a6d 47000000 		.4byte	.LVL260-1
 13524 1a71 0100     		.2byte	0x1
 13525 1a73 5E       		.byte	0x5e
 13526 1a74 47000000 		.4byte	.LVL260-1
 13527 1a78 DC010000 		.4byte	.LVL298
 13528 1a7c 0400     		.2byte	0x4
 13529 1a7e F3       		.byte	0xf3
 13530 1a7f 01       		.uleb128 0x1
 13531 1a80 52       		.byte	0x52
 13532 1a81 9F       		.byte	0x9f
 13533 1a82 DC010000 		.4byte	.LVL298
 13534 1a86 E2010000 		.4byte	.LVL299
 13535 1a8a 0100     		.2byte	0x1
 13536 1a8c 5E       		.byte	0x5e
 13537 1a8d E2010000 		.4byte	.LVL299
 13538 1a91 EC010000 		.4byte	.LVL301
 13539 1a95 0100     		.2byte	0x1
 13540 1a97 52       		.byte	0x52
ARM GAS  C:\Users\rdn\AppData\Local\Temp\cckhx27q.s 			page 265


 13541 1a98 EC010000 		.4byte	.LVL301
 13542 1a9c 00020000 		.4byte	.LFE42
 13543 1aa0 0400     		.2byte	0x4
 13544 1aa2 F3       		.byte	0xf3
 13545 1aa3 01       		.uleb128 0x1
 13546 1aa4 52       		.byte	0x52
 13547 1aa5 9F       		.byte	0x9f
 13548 1aa6 00000000 		.4byte	0
 13549 1aaa 00000000 		.4byte	0
 13550              	.LLST182:
 13551 1aae 00000000 		.4byte	.LVL252
 13552 1ab2 47000000 		.4byte	.LVL260-1
 13553 1ab6 0100     		.2byte	0x1
 13554 1ab8 53       		.byte	0x53
 13555 1ab9 47000000 		.4byte	.LVL260-1
 13556 1abd DC010000 		.4byte	.LVL298
 13557 1ac1 0400     		.2byte	0x4
 13558 1ac3 F3       		.byte	0xf3
 13559 1ac4 01       		.uleb128 0x1
 13560 1ac5 53       		.byte	0x53
 13561 1ac6 9F       		.byte	0x9f
 13562 1ac7 DC010000 		.4byte	.LVL298
 13563 1acb EC010000 		.4byte	.LVL301
 13564 1acf 0100     		.2byte	0x1
 13565 1ad1 53       		.byte	0x53
 13566 1ad2 EC010000 		.4byte	.LVL301
 13567 1ad6 00020000 		.4byte	.LFE42
 13568 1ada 0400     		.2byte	0x4
 13569 1adc F3       		.byte	0xf3
 13570 1add 01       		.uleb128 0x1
 13571 1ade 53       		.byte	0x53
 13572 1adf 9F       		.byte	0x9f
 13573 1ae0 00000000 		.4byte	0
 13574 1ae4 00000000 		.4byte	0
 13575              	.LLST183:
 13576 1ae8 00000000 		.4byte	.LVL252
 13577 1aec F2010000 		.4byte	.LVL302
 13578 1af0 0200     		.2byte	0x2
 13579 1af2 91       		.byte	0x91
 13580 1af3 00       		.sleb128 0
 13581 1af4 F2010000 		.4byte	.LVL302
 13582 1af8 00020000 		.4byte	.LFE42
 13583 1afc 0200     		.2byte	0x2
 13584 1afe 7D       		.byte	0x7d
 13585 1aff 00       		.sleb128 0
 13586 1b00 00000000 		.4byte	0
 13587 1b04 00000000 		.4byte	0
 13588              	.LLST184:
 13589 1b08 00000000 		.4byte	.LVL252
 13590 1b0c F2010000 		.4byte	.LVL302
 13591 1b10 0200     		.2byte	0x2
 13592 1b12 91       		.byte	0x91
 13593 1b13 04       		.sleb128 4
 13594 1b14 F2010000 		.4byte	.LVL302
 13595 1b18 00020000 		.4byte	.LFE42
 13596 1b1c 0200     		.2byte	0x2
 13597 1b1e 7D       		.byte	0x7d
ARM GAS  C:\Users\rdn\AppData\Local\Temp\cckhx27q.s 			page 266


 13598 1b1f 04       		.sleb128 4
 13599 1b20 00000000 		.4byte	0
 13600 1b24 00000000 		.4byte	0
 13601              	.LLST185:
 13602 1b28 14000000 		.4byte	.LVL253
 13603 1b2c 20000000 		.4byte	.LVL255
 13604 1b30 0100     		.2byte	0x1
 13605 1b32 56       		.byte	0x56
 13606 1b33 00000000 		.4byte	0
 13607 1b37 00000000 		.4byte	0
 13608              	.LLST186:
 13609 1b3b 14000000 		.4byte	.LVL253
 13610 1b3f 1C000000 		.4byte	.LVL254
 13611 1b43 0200     		.2byte	0x2
 13612 1b45 70       		.byte	0x70
 13613 1b46 00       		.sleb128 0
 13614 1b47 1C000000 		.4byte	.LVL254
 13615 1b4b 20000000 		.4byte	.LVL255
 13616 1b4f 0200     		.2byte	0x2
 13617 1b51 74       		.byte	0x74
 13618 1b52 00       		.sleb128 0
 13619 1b53 00000000 		.4byte	0
 13620 1b57 00000000 		.4byte	0
 13621              	.LLST187:
 13622 1b5b 2E000000 		.4byte	.LVL257
 13623 1b5f 34000000 		.4byte	.LVL258
 13624 1b63 0300     		.2byte	0x3
 13625 1b65 76       		.byte	0x76
 13626 1b66 05       		.sleb128 5
 13627 1b67 9F       		.byte	0x9f
 13628 1b68 00000000 		.4byte	0
 13629 1b6c 00000000 		.4byte	0
 13630              	.LLST188:
 13631 1b70 2E000000 		.4byte	.LVL257
 13632 1b74 34000000 		.4byte	.LVL258
 13633 1b78 0200     		.2byte	0x2
 13634 1b7a 74       		.byte	0x74
 13635 1b7b 00       		.sleb128 0
 13636 1b7c 00000000 		.4byte	0
 13637 1b80 00000000 		.4byte	0
 13638              	.LLST189:
 13639 1b84 48000000 		.4byte	.LVL260
 13640 1b88 4A010000 		.4byte	.LVL281
 13641 1b8c 0400     		.2byte	0x4
 13642 1b8e 91       		.byte	0x91
 13643 1b8f D47C     		.sleb128 -428
 13644 1b91 9F       		.byte	0x9f
 13645 1b92 00000000 		.4byte	0
 13646 1b96 00000000 		.4byte	0
 13647              	.LLST190:
 13648 1b9a 48000000 		.4byte	.LVL260
 13649 1b9e 4A010000 		.4byte	.LVL281
 13650 1ba2 0100     		.2byte	0x1
 13651 1ba4 55       		.byte	0x55
 13652 1ba5 00000000 		.4byte	0
 13653 1ba9 00000000 		.4byte	0
 13654              	.LLST191:
ARM GAS  C:\Users\rdn\AppData\Local\Temp\cckhx27q.s 			page 267


 13655 1bad 48000000 		.4byte	.LVL260
 13656 1bb1 4A010000 		.4byte	.LVL281
 13657 1bb5 0100     		.2byte	0x1
 13658 1bb7 54       		.byte	0x54
 13659 1bb8 00000000 		.4byte	0
 13660 1bbc 00000000 		.4byte	0
 13661              	.LLST192:
 13662 1bc0 62000000 		.4byte	.LVL261
 13663 1bc4 4A010000 		.4byte	.LVL281
 13664 1bc8 0100     		.2byte	0x1
 13665 1bca 58       		.byte	0x58
 13666 1bcb 00000000 		.4byte	0
 13667 1bcf 00000000 		.4byte	0
 13668              	.LLST193:
 13669 1bd3 66000000 		.4byte	.LVL262
 13670 1bd7 4A010000 		.4byte	.LVL281
 13671 1bdb 0100     		.2byte	0x1
 13672 1bdd 5A       		.byte	0x5a
 13673 1bde 00000000 		.4byte	0
 13674 1be2 00000000 		.4byte	0
 13675              	.LLST194:
 13676 1be6 66000000 		.4byte	.LVL262
 13677 1bea 02010000 		.4byte	.LVL278
 13678 1bee 0100     		.2byte	0x1
 13679 1bf0 57       		.byte	0x57
 13680 1bf1 00000000 		.4byte	0
 13681 1bf5 00000000 		.4byte	0
 13682              	.LLST195:
 13683 1bf9 66000000 		.4byte	.LVL262
 13684 1bfd E0000000 		.4byte	.LVL274
 13685 1c01 0100     		.2byte	0x1
 13686 1c03 56       		.byte	0x56
 13687 1c04 00000000 		.4byte	0
 13688 1c08 00000000 		.4byte	0
 13689              	.LLST196:
 13690 1c0c 6A000000 		.4byte	.LVL263
 13691 1c10 52010000 		.4byte	.LVL282
 13692 1c14 0100     		.2byte	0x1
 13693 1c16 59       		.byte	0x59
 13694 1c17 00000000 		.4byte	0
 13695 1c1b 00000000 		.4byte	0
 13696              	.LLST197:
 13697 1c1f 86000000 		.4byte	.LVL266
 13698 1c23 8A000000 		.4byte	.LVL267
 13699 1c27 0100     		.2byte	0x1
 13700 1c29 53       		.byte	0x53
 13701 1c2a 8A000000 		.4byte	.LVL267
 13702 1c2e 4A010000 		.4byte	.LVL281
 13703 1c32 0300     		.2byte	0x3
 13704 1c34 91       		.byte	0x91
 13705 1c35 C87C     		.sleb128 -440
 13706 1c37 00000000 		.4byte	0
 13707 1c3b 00000000 		.4byte	0
 13708              	.LLST198:
 13709 1c3f 86000000 		.4byte	.LVL266
 13710 1c43 4A010000 		.4byte	.LVL281
 13711 1c47 0100     		.2byte	0x1
ARM GAS  C:\Users\rdn\AppData\Local\Temp\cckhx27q.s 			page 268


 13712 1c49 59       		.byte	0x59
 13713 1c4a 00000000 		.4byte	0
 13714 1c4e 00000000 		.4byte	0
 13715              	.LLST199:
 13716 1c52 96000000 		.4byte	.LVL269
 13717 1c56 4A010000 		.4byte	.LVL281
 13718 1c5a 0300     		.2byte	0x3
 13719 1c5c 91       		.byte	0x91
 13720 1c5d CC7C     		.sleb128 -436
 13721 1c5f 00000000 		.4byte	0
 13722 1c63 00000000 		.4byte	0
 13723              	.LLST200:
 13724 1c67 DE000000 		.4byte	.LVL273
 13725 1c6b E4000000 		.4byte	.LVL275
 13726 1c6f 0100     		.2byte	0x1
 13727 1c71 50       		.byte	0x50
 13728 1c72 00000000 		.4byte	0
 13729 1c76 00000000 		.4byte	0
 13730              	.LLST201:
 13731 1c7a 6A000000 		.4byte	.LVL263
 13732 1c7e 76000000 		.4byte	.LVL264
 13733 1c82 0100     		.2byte	0x1
 13734 1c84 57       		.byte	0x57
 13735 1c85 00000000 		.4byte	0
 13736 1c89 00000000 		.4byte	0
 13737              	.LLST202:
 13738 1c8d 6A000000 		.4byte	.LVL263
 13739 1c91 76000000 		.4byte	.LVL264
 13740 1c95 0100     		.2byte	0x1
 13741 1c97 58       		.byte	0x58
 13742 1c98 00000000 		.4byte	0
 13743 1c9c 00000000 		.4byte	0
 13744              	.LLST203:
 13745 1ca0 76000000 		.4byte	.LVL264
 13746 1ca4 84000000 		.4byte	.LVL265
 13747 1ca8 0100     		.2byte	0x1
 13748 1caa 57       		.byte	0x57
 13749 1cab 00000000 		.4byte	0
 13750 1caf 00000000 		.4byte	0
 13751              	.LLST204:
 13752 1cb3 4A010000 		.4byte	.LVL281
 13753 1cb7 DC010000 		.4byte	.LVL298
 13754 1cbb 0200     		.2byte	0x2
 13755 1cbd 91       		.byte	0x91
 13756 1cbe 04       		.sleb128 4
 13757 1cbf 00000000 		.4byte	0
 13758 1cc3 00000000 		.4byte	0
 13759              	.LLST205:
 13760 1cc7 4A010000 		.4byte	.LVL281
 13761 1ccb DC010000 		.4byte	.LVL298
 13762 1ccf 0100     		.2byte	0x1
 13763 1cd1 55       		.byte	0x55
 13764 1cd2 00000000 		.4byte	0
 13765 1cd6 00000000 		.4byte	0
 13766              	.LLST206:
 13767 1cda 4A010000 		.4byte	.LVL281
 13768 1cde DC010000 		.4byte	.LVL298
ARM GAS  C:\Users\rdn\AppData\Local\Temp\cckhx27q.s 			page 269


 13769 1ce2 0400     		.2byte	0x4
 13770 1ce4 91       		.byte	0x91
 13771 1ce5 D47C     		.sleb128 -428
 13772 1ce7 9F       		.byte	0x9f
 13773 1ce8 00000000 		.4byte	0
 13774 1cec 00000000 		.4byte	0
 13775              	.LLST207:
 13776 1cf0 4A010000 		.4byte	.LVL281
 13777 1cf4 58010000 		.4byte	.LVL283
 13778 1cf8 0100     		.2byte	0x1
 13779 1cfa 54       		.byte	0x54
 13780 1cfb 58010000 		.4byte	.LVL283
 13781 1cff DC010000 		.4byte	.LVL298
 13782 1d03 0900     		.2byte	0x9
 13783 1d05 91       		.byte	0x91
 13784 1d06 C07C     		.sleb128 -448
 13785 1d08 06       		.byte	0x6
 13786 1d09 0A       		.byte	0xa
 13787 1d0a AC04     		.2byte	0x4ac
 13788 1d0c 1C       		.byte	0x1c
 13789 1d0d 9F       		.byte	0x9f
 13790 1d0e 00000000 		.4byte	0
 13791 1d12 00000000 		.4byte	0
 13792              	.LLST208:
 13793 1d16 52010000 		.4byte	.LVL282
 13794 1d1a DC010000 		.4byte	.LVL298
 13795 1d1e 0100     		.2byte	0x1
 13796 1d20 59       		.byte	0x59
 13797 1d21 00000000 		.4byte	0
 13798 1d25 00000000 		.4byte	0
 13799              	.LLST209:
 13800 1d29 52010000 		.4byte	.LVL282
 13801 1d2d DC010000 		.4byte	.LVL298
 13802 1d31 0100     		.2byte	0x1
 13803 1d33 58       		.byte	0x58
 13804 1d34 00000000 		.4byte	0
 13805 1d38 00000000 		.4byte	0
 13806              	.LLST210:
 13807 1d3c 66010000 		.4byte	.LVL284
 13808 1d40 DC010000 		.4byte	.LVL298
 13809 1d44 0100     		.2byte	0x1
 13810 1d46 54       		.byte	0x54
 13811 1d47 00000000 		.4byte	0
 13812 1d4b 00000000 		.4byte	0
 13813              	.LLST211:
 13814 1d4f 66010000 		.4byte	.LVL284
 13815 1d53 DC010000 		.4byte	.LVL298
 13816 1d57 0100     		.2byte	0x1
 13817 1d59 5A       		.byte	0x5a
 13818 1d5a 00000000 		.4byte	0
 13819 1d5e 00000000 		.4byte	0
 13820              	.LLST212:
 13821 1d62 8A010000 		.4byte	.LVL288
 13822 1d66 90010000 		.4byte	.LVL289
 13823 1d6a 0900     		.2byte	0x9
 13824 1d6c 91       		.byte	0x91
 13825 1d6d D57C     		.sleb128 -427
ARM GAS  C:\Users\rdn\AppData\Local\Temp\cckhx27q.s 			page 270


 13826 1d6f 94       		.byte	0x94
 13827 1d70 01       		.byte	0x1
 13828 1d71 08       		.byte	0x8
 13829 1d72 FF       		.byte	0xff
 13830 1d73 1A       		.byte	0x1a
 13831 1d74 9F       		.byte	0x9f
 13832 1d75 90010000 		.4byte	.LVL289
 13833 1d79 98010000 		.4byte	.LVL290
 13834 1d7d 0100     		.2byte	0x1
 13835 1d7f 51       		.byte	0x51
 13836 1d80 98010000 		.4byte	.LVL290
 13837 1d84 A2010000 		.4byte	.LVL291
 13838 1d88 0900     		.2byte	0x9
 13839 1d8a 91       		.byte	0x91
 13840 1d8b D57C     		.sleb128 -427
 13841 1d8d 94       		.byte	0x94
 13842 1d8e 01       		.byte	0x1
 13843 1d8f 08       		.byte	0x8
 13844 1d90 FF       		.byte	0xff
 13845 1d91 1A       		.byte	0x1a
 13846 1d92 9F       		.byte	0x9f
 13847 1d93 A2010000 		.4byte	.LVL291
 13848 1d97 A9010000 		.4byte	.LVL293-1
 13849 1d9b 0100     		.2byte	0x1
 13850 1d9d 51       		.byte	0x51
 13851 1d9e 00000000 		.4byte	0
 13852 1da2 00000000 		.4byte	0
 13853              	.LLST213:
 13854 1da6 8A010000 		.4byte	.LVL288
 13855 1daa A6010000 		.4byte	.LVL292
 13856 1dae 0400     		.2byte	0x4
 13857 1db0 91       		.byte	0x91
 13858 1db1 D87D     		.sleb128 -296
 13859 1db3 9F       		.byte	0x9f
 13860 1db4 A6010000 		.4byte	.LVL292
 13861 1db8 A9010000 		.4byte	.LVL293-1
 13862 1dbc 0100     		.2byte	0x1
 13863 1dbe 50       		.byte	0x50
 13864 1dbf A9010000 		.4byte	.LVL293-1
 13865 1dc3 AA010000 		.4byte	.LVL293
 13866 1dc7 0400     		.2byte	0x4
 13867 1dc9 91       		.byte	0x91
 13868 1dca D87D     		.sleb128 -296
 13869 1dcc 9F       		.byte	0x9f
 13870 1dcd 00000000 		.4byte	0
 13871 1dd1 00000000 		.4byte	0
 13872              	.LLST214:
 13873 1dd5 90010000 		.4byte	.LVL289
 13874 1dd9 AA010000 		.4byte	.LVL293
 13875 1ddd 0200     		.2byte	0x2
 13876 1ddf 31       		.byte	0x31
 13877 1de0 9F       		.byte	0x9f
 13878 1de1 00000000 		.4byte	0
 13879 1de5 00000000 		.4byte	0
 13880              	.LLST215:
 13881 1de9 90010000 		.4byte	.LVL289
 13882 1ded 98010000 		.4byte	.LVL290
ARM GAS  C:\Users\rdn\AppData\Local\Temp\cckhx27q.s 			page 271


 13883 1df1 0100     		.2byte	0x1
 13884 1df3 51       		.byte	0x51
 13885 1df4 98010000 		.4byte	.LVL290
 13886 1df8 A2010000 		.4byte	.LVL291
 13887 1dfc 0900     		.2byte	0x9
 13888 1dfe 91       		.byte	0x91
 13889 1dff D57C     		.sleb128 -427
 13890 1e01 94       		.byte	0x94
 13891 1e02 01       		.byte	0x1
 13892 1e03 08       		.byte	0x8
 13893 1e04 FF       		.byte	0xff
 13894 1e05 1A       		.byte	0x1a
 13895 1e06 9F       		.byte	0x9f
 13896 1e07 A2010000 		.4byte	.LVL291
 13897 1e0b A9010000 		.4byte	.LVL293-1
 13898 1e0f 0100     		.2byte	0x1
 13899 1e11 51       		.byte	0x51
 13900 1e12 00000000 		.4byte	0
 13901 1e16 00000000 		.4byte	0
 13902              	.LLST216:
 13903 1e1a 90010000 		.4byte	.LVL289
 13904 1e1e A6010000 		.4byte	.LVL292
 13905 1e22 0400     		.2byte	0x4
 13906 1e24 91       		.byte	0x91
 13907 1e25 D87D     		.sleb128 -296
 13908 1e27 9F       		.byte	0x9f
 13909 1e28 A6010000 		.4byte	.LVL292
 13910 1e2c A9010000 		.4byte	.LVL293-1
 13911 1e30 0100     		.2byte	0x1
 13912 1e32 50       		.byte	0x50
 13913 1e33 A9010000 		.4byte	.LVL293-1
 13914 1e37 AA010000 		.4byte	.LVL293
 13915 1e3b 0400     		.2byte	0x4
 13916 1e3d 91       		.byte	0x91
 13917 1e3e D87D     		.sleb128 -296
 13918 1e40 9F       		.byte	0x9f
 13919 1e41 00000000 		.4byte	0
 13920 1e45 00000000 		.4byte	0
 13921              	.LLST217:
 13922 1e49 90010000 		.4byte	.LVL289
 13923 1e4d DC010000 		.4byte	.LVL298
 13924 1e51 0400     		.2byte	0x4
 13925 1e53 91       		.byte	0x91
 13926 1e54 F47D     		.sleb128 -268
 13927 1e56 9F       		.byte	0x9f
 13928 1e57 00000000 		.4byte	0
 13929 1e5b 00000000 		.4byte	0
 13930              	.LLST218:
 13931 1e5f 00000000 		.4byte	.LVL303
 13932 1e63 0A000000 		.4byte	.LVL305
 13933 1e67 0100     		.2byte	0x1
 13934 1e69 50       		.byte	0x50
 13935 1e6a 0A000000 		.4byte	.LVL305
 13936 1e6e 84000000 		.4byte	.LFE50
 13937 1e72 0400     		.2byte	0x4
 13938 1e74 F3       		.byte	0xf3
 13939 1e75 01       		.uleb128 0x1
ARM GAS  C:\Users\rdn\AppData\Local\Temp\cckhx27q.s 			page 272


 13940 1e76 50       		.byte	0x50
 13941 1e77 9F       		.byte	0x9f
 13942 1e78 00000000 		.4byte	0
 13943 1e7c 00000000 		.4byte	0
 13944              	.LLST219:
 13945 1e80 00000000 		.4byte	.LVL303
 13946 1e84 08000000 		.4byte	.LVL304
 13947 1e88 0100     		.2byte	0x1
 13948 1e8a 51       		.byte	0x51
 13949 1e8b 08000000 		.4byte	.LVL304
 13950 1e8f 7C000000 		.4byte	.LVL315
 13951 1e93 0100     		.2byte	0x1
 13952 1e95 55       		.byte	0x55
 13953 1e96 7C000000 		.4byte	.LVL315
 13954 1e9a 84000000 		.4byte	.LFE50
 13955 1e9e 0400     		.2byte	0x4
 13956 1ea0 F3       		.byte	0xf3
 13957 1ea1 01       		.uleb128 0x1
 13958 1ea2 51       		.byte	0x51
 13959 1ea3 9F       		.byte	0x9f
 13960 1ea4 00000000 		.4byte	0
 13961 1ea8 00000000 		.4byte	0
 13962              	.LLST220:
 13963 1eac 00000000 		.4byte	.LVL303
 13964 1eb0 0D000000 		.4byte	.LVL306-1
 13965 1eb4 0100     		.2byte	0x1
 13966 1eb6 52       		.byte	0x52
 13967 1eb7 0D000000 		.4byte	.LVL306-1
 13968 1ebb 84000000 		.4byte	.LFE50
 13969 1ebf 0400     		.2byte	0x4
 13970 1ec1 F3       		.byte	0xf3
 13971 1ec2 01       		.uleb128 0x1
 13972 1ec3 52       		.byte	0x52
 13973 1ec4 9F       		.byte	0x9f
 13974 1ec5 00000000 		.4byte	0
 13975 1ec9 00000000 		.4byte	0
 13976              	.LLST221:
 13977 1ecd 1E000000 		.4byte	.LVL308
 13978 1ed1 2C000000 		.4byte	.LVL309
 13979 1ed5 0100     		.2byte	0x1
 13980 1ed7 54       		.byte	0x54
 13981 1ed8 46000000 		.4byte	.LVL310
 13982 1edc 48000000 		.4byte	.LVL311
 13983 1ee0 0100     		.2byte	0x1
 13984 1ee2 54       		.byte	0x54
 13985 1ee3 00000000 		.4byte	0
 13986 1ee7 00000000 		.4byte	0
 13987              	.LLST222:
 13988 1eeb 1E000000 		.4byte	.LVL308
 13989 1eef 66000000 		.4byte	.LVL312
 13990 1ef3 0100     		.2byte	0x1
 13991 1ef5 52       		.byte	0x52
 13992 1ef6 00000000 		.4byte	0
 13993 1efa 00000000 		.4byte	0
 13994              	.LLST223:
 13995 1efe 1E000000 		.4byte	.LVL308
 13996 1f02 76000000 		.4byte	.LVL313
ARM GAS  C:\Users\rdn\AppData\Local\Temp\cckhx27q.s 			page 273


 13997 1f06 0100     		.2byte	0x1
 13998 1f08 55       		.byte	0x55
 13999 1f09 00000000 		.4byte	0
 14000 1f0d 00000000 		.4byte	0
 14001              	.LLST224:
 14002 1f11 00000000 		.4byte	.LVL316
 14003 1f15 06000000 		.4byte	.LVL318
 14004 1f19 0100     		.2byte	0x1
 14005 1f1b 50       		.byte	0x50
 14006 1f1c 06000000 		.4byte	.LVL318
 14007 1f20 09000000 		.4byte	.LVL319-1
 14008 1f24 0100     		.2byte	0x1
 14009 1f26 51       		.byte	0x51
 14010 1f27 09000000 		.4byte	.LVL319-1
 14011 1f2b 0A000000 		.4byte	.LFE51
 14012 1f2f 0400     		.2byte	0x4
 14013 1f31 F3       		.byte	0xf3
 14014 1f32 01       		.uleb128 0x1
 14015 1f33 50       		.byte	0x50
 14016 1f34 9F       		.byte	0x9f
 14017 1f35 00000000 		.4byte	0
 14018 1f39 00000000 		.4byte	0
 14019              	.LLST225:
 14020 1f3d 00000000 		.4byte	.LVL316
 14021 1f41 04000000 		.4byte	.LVL317
 14022 1f45 0100     		.2byte	0x1
 14023 1f47 51       		.byte	0x51
 14024 1f48 04000000 		.4byte	.LVL317
 14025 1f4c 09000000 		.4byte	.LVL319-1
 14026 1f50 0100     		.2byte	0x1
 14027 1f52 52       		.byte	0x52
 14028 1f53 09000000 		.4byte	.LVL319-1
 14029 1f57 0A000000 		.4byte	.LFE51
 14030 1f5b 0400     		.2byte	0x4
 14031 1f5d F3       		.byte	0xf3
 14032 1f5e 01       		.uleb128 0x1
 14033 1f5f 51       		.byte	0x51
 14034 1f60 9F       		.byte	0x9f
 14035 1f61 00000000 		.4byte	0
 14036 1f65 00000000 		.4byte	0
 14037              	.LLST226:
 14038 1f69 00000000 		.4byte	.LVL320
 14039 1f6d 0C000000 		.4byte	.LVL322
 14040 1f71 0100     		.2byte	0x1
 14041 1f73 50       		.byte	0x50
 14042 1f74 0C000000 		.4byte	.LVL322
 14043 1f78 38010000 		.4byte	.LFE52
 14044 1f7c 0400     		.2byte	0x4
 14045 1f7e F3       		.byte	0xf3
 14046 1f7f 01       		.uleb128 0x1
 14047 1f80 50       		.byte	0x50
 14048 1f81 9F       		.byte	0x9f
 14049 1f82 00000000 		.4byte	0
 14050 1f86 00000000 		.4byte	0
 14051              	.LLST227:
 14052 1f8a 00000000 		.4byte	.LVL320
 14053 1f8e 0A000000 		.4byte	.LVL321
ARM GAS  C:\Users\rdn\AppData\Local\Temp\cckhx27q.s 			page 274


 14054 1f92 0100     		.2byte	0x1
 14055 1f94 51       		.byte	0x51
 14056 1f95 0A000000 		.4byte	.LVL321
 14057 1f99 02010000 		.4byte	.LVL337
 14058 1f9d 0100     		.2byte	0x1
 14059 1f9f 5A       		.byte	0x5a
 14060 1fa0 02010000 		.4byte	.LVL337
 14061 1fa4 1C010000 		.4byte	.LVL340
 14062 1fa8 0400     		.2byte	0x4
 14063 1faa F3       		.byte	0xf3
 14064 1fab 01       		.uleb128 0x1
 14065 1fac 51       		.byte	0x51
 14066 1fad 9F       		.byte	0x9f
 14067 1fae 1C010000 		.4byte	.LVL340
 14068 1fb2 20010000 		.4byte	.LVL342
 14069 1fb6 0100     		.2byte	0x1
 14070 1fb8 5A       		.byte	0x5a
 14071 1fb9 20010000 		.4byte	.LVL342
 14072 1fbd 38010000 		.4byte	.LFE52
 14073 1fc1 0400     		.2byte	0x4
 14074 1fc3 F3       		.byte	0xf3
 14075 1fc4 01       		.uleb128 0x1
 14076 1fc5 51       		.byte	0x51
 14077 1fc6 9F       		.byte	0x9f
 14078 1fc7 00000000 		.4byte	0
 14079 1fcb 00000000 		.4byte	0
 14080              	.LLST228:
 14081 1fcf 00000000 		.4byte	.LVL320
 14082 1fd3 17000000 		.4byte	.LVL324-1
 14083 1fd7 0100     		.2byte	0x1
 14084 1fd9 52       		.byte	0x52
 14085 1fda 17000000 		.4byte	.LVL324-1
 14086 1fde 38010000 		.4byte	.LFE52
 14087 1fe2 0400     		.2byte	0x4
 14088 1fe4 F3       		.byte	0xf3
 14089 1fe5 01       		.uleb128 0x1
 14090 1fe6 52       		.byte	0x52
 14091 1fe7 9F       		.byte	0x9f
 14092 1fe8 00000000 		.4byte	0
 14093 1fec 00000000 		.4byte	0
 14094              	.LLST229:
 14095 1ff0 00000000 		.4byte	.LVL320
 14096 1ff4 14000000 		.4byte	.LVL323
 14097 1ff8 0100     		.2byte	0x1
 14098 1ffa 53       		.byte	0x53
 14099 1ffb 14000000 		.4byte	.LVL323
 14100 1fff 06010000 		.4byte	.LVL338
 14101 2003 0100     		.2byte	0x1
 14102 2005 57       		.byte	0x57
 14103 2006 06010000 		.4byte	.LVL338
 14104 200a 1C010000 		.4byte	.LVL340
 14105 200e 1100     		.2byte	0x11
 14106 2010 F3       		.byte	0xf3
 14107 2011 01       		.uleb128 0x1
 14108 2012 53       		.byte	0x53
 14109 2013 F3       		.byte	0xf3
 14110 2014 01       		.uleb128 0x1
ARM GAS  C:\Users\rdn\AppData\Local\Temp\cckhx27q.s 			page 275


 14111 2015 52       		.byte	0x52
 14112 2016 F3       		.byte	0xf3
 14113 2017 01       		.uleb128 0x1
 14114 2018 53       		.byte	0x53
 14115 2019 30       		.byte	0x30
 14116 201a 2B       		.byte	0x2b
 14117 201b 28       		.byte	0x28
 14118 201c 0100     		.2byte	0x1
 14119 201e 16       		.byte	0x16
 14120 201f 13       		.byte	0x13
 14121 2020 9F       		.byte	0x9f
 14122 2021 1C010000 		.4byte	.LVL340
 14123 2025 20010000 		.4byte	.LVL342
 14124 2029 0100     		.2byte	0x1
 14125 202b 57       		.byte	0x57
 14126 202c 20010000 		.4byte	.LVL342
 14127 2030 38010000 		.4byte	.LFE52
 14128 2034 1100     		.2byte	0x11
 14129 2036 F3       		.byte	0xf3
 14130 2037 01       		.uleb128 0x1
 14131 2038 53       		.byte	0x53
 14132 2039 F3       		.byte	0xf3
 14133 203a 01       		.uleb128 0x1
 14134 203b 52       		.byte	0x52
 14135 203c F3       		.byte	0xf3
 14136 203d 01       		.uleb128 0x1
 14137 203e 53       		.byte	0x53
 14138 203f 30       		.byte	0x30
 14139 2040 2B       		.byte	0x2b
 14140 2041 28       		.byte	0x28
 14141 2042 0100     		.2byte	0x1
 14142 2044 16       		.byte	0x16
 14143 2045 13       		.byte	0x13
 14144 2046 9F       		.byte	0x9f
 14145 2047 00000000 		.4byte	0
 14146 204b 00000000 		.4byte	0
 14147              	.LLST230:
 14148 204f 00000000 		.4byte	.LVL320
 14149 2053 28010000 		.4byte	.LVL343
 14150 2057 0200     		.2byte	0x2
 14151 2059 91       		.byte	0x91
 14152 205a 00       		.sleb128 0
 14153 205b 28010000 		.4byte	.LVL343
 14154 205f 38010000 		.4byte	.LFE52
 14155 2063 0200     		.2byte	0x2
 14156 2065 7D       		.byte	0x7d
 14157 2066 00       		.sleb128 0
 14158 2067 00000000 		.4byte	0
 14159 206b 00000000 		.4byte	0
 14160              	.LLST231:
 14161 206f 1C000000 		.4byte	.LVL325
 14162 2073 28010000 		.4byte	.LVL343
 14163 2077 0100     		.2byte	0x1
 14164 2079 59       		.byte	0x59
 14165 207a 00000000 		.4byte	0
 14166 207e 00000000 		.4byte	0
 14167              	.LLST232:
ARM GAS  C:\Users\rdn\AppData\Local\Temp\cckhx27q.s 			page 276


 14168 2082 26000000 		.4byte	.LVL327
 14169 2086 28010000 		.4byte	.LVL343
 14170 208a 0100     		.2byte	0x1
 14171 208c 5B       		.byte	0x5b
 14172 208d 00000000 		.4byte	0
 14173 2091 00000000 		.4byte	0
 14174              	.LLST233:
 14175 2095 34000000 		.4byte	.LVL329
 14176 2099 86000000 		.4byte	.LVL334
 14177 209d 0100     		.2byte	0x1
 14178 209f 50       		.byte	0x50
 14179 20a0 1C010000 		.4byte	.LVL340
 14180 20a4 1E010000 		.4byte	.LVL341
 14181 20a8 0100     		.2byte	0x1
 14182 20aa 50       		.byte	0x50
 14183 20ab 00000000 		.4byte	0
 14184 20af 00000000 		.4byte	0
 14185              	.LLST234:
 14186 20b3 42000000 		.4byte	.LVL330
 14187 20b7 1C010000 		.4byte	.LVL340
 14188 20bb 0100     		.2byte	0x1
 14189 20bd 54       		.byte	0x54
 14190 20be 00000000 		.4byte	0
 14191 20c2 00000000 		.4byte	0
 14192              	.LLST235:
 14193 20c6 42000000 		.4byte	.LVL330
 14194 20ca 64000000 		.4byte	.LVL331
 14195 20ce 0100     		.2byte	0x1
 14196 20d0 50       		.byte	0x50
 14197 20d1 00000000 		.4byte	0
 14198 20d5 00000000 		.4byte	0
 14199              	.LLST236:
 14200 20d9 42000000 		.4byte	.LVL330
 14201 20dd 64000000 		.4byte	.LVL331
 14202 20e1 0100     		.2byte	0x1
 14203 20e3 59       		.byte	0x59
 14204 20e4 00000000 		.4byte	0
 14205 20e8 00000000 		.4byte	0
 14206              	.LLST237:
 14207 20ec 74000000 		.4byte	.LVL332
 14208 20f0 7A000000 		.4byte	.LVL333
 14209 20f4 0100     		.2byte	0x1
 14210 20f6 55       		.byte	0x55
 14211 20f7 00000000 		.4byte	0
 14212 20fb 00000000 		.4byte	0
 14213              	.LLST238:
 14214 20ff 74000000 		.4byte	.LVL332
 14215 2103 7A000000 		.4byte	.LVL333
 14216 2107 0100     		.2byte	0x1
 14217 2109 59       		.byte	0x59
 14218 210a 00000000 		.4byte	0
 14219 210e 00000000 		.4byte	0
 14220              	.LLST239:
 14221 2112 64000000 		.4byte	.LVL331
 14222 2116 74000000 		.4byte	.LVL332
 14223 211a 0100     		.2byte	0x1
 14224 211c 55       		.byte	0x55
ARM GAS  C:\Users\rdn\AppData\Local\Temp\cckhx27q.s 			page 277


 14225 211d 00000000 		.4byte	0
 14226 2121 00000000 		.4byte	0
 14227              	.LLST240:
 14228 2125 64000000 		.4byte	.LVL331
 14229 2129 74000000 		.4byte	.LVL332
 14230 212d 0100     		.2byte	0x1
 14231 212f 59       		.byte	0x59
 14232 2130 00000000 		.4byte	0
 14233 2134 00000000 		.4byte	0
 14234              	.LLST241:
 14235 2138 00000000 		.4byte	.LVL344
 14236 213c 0C000000 		.4byte	.LVL348
 14237 2140 0100     		.2byte	0x1
 14238 2142 50       		.byte	0x50
 14239 2143 0C000000 		.4byte	.LVL348
 14240 2147 0F000000 		.4byte	.LVL349-1
 14241 214b 0100     		.2byte	0x1
 14242 214d 51       		.byte	0x51
 14243 214e 0F000000 		.4byte	.LVL349-1
 14244 2152 16000000 		.4byte	.LFE53
 14245 2156 0400     		.2byte	0x4
 14246 2158 F3       		.byte	0xf3
 14247 2159 01       		.uleb128 0x1
 14248 215a 50       		.byte	0x50
 14249 215b 9F       		.byte	0x9f
 14250 215c 00000000 		.4byte	0
 14251 2160 00000000 		.4byte	0
 14252              	.LLST242:
 14253 2164 00000000 		.4byte	.LVL344
 14254 2168 0A000000 		.4byte	.LVL347
 14255 216c 0100     		.2byte	0x1
 14256 216e 51       		.byte	0x51
 14257 216f 0A000000 		.4byte	.LVL347
 14258 2173 0F000000 		.4byte	.LVL349-1
 14259 2177 0100     		.2byte	0x1
 14260 2179 52       		.byte	0x52
 14261 217a 0F000000 		.4byte	.LVL349-1
 14262 217e 16000000 		.4byte	.LFE53
 14263 2182 0400     		.2byte	0x4
 14264 2184 F3       		.byte	0xf3
 14265 2185 01       		.uleb128 0x1
 14266 2186 51       		.byte	0x51
 14267 2187 9F       		.byte	0x9f
 14268 2188 00000000 		.4byte	0
 14269 218c 00000000 		.4byte	0
 14270              	.LLST243:
 14271 2190 00000000 		.4byte	.LVL344
 14272 2194 08000000 		.4byte	.LVL346
 14273 2198 0100     		.2byte	0x1
 14274 219a 52       		.byte	0x52
 14275 219b 08000000 		.4byte	.LVL346
 14276 219f 0F000000 		.4byte	.LVL349-1
 14277 21a3 0100     		.2byte	0x1
 14278 21a5 53       		.byte	0x53
 14279 21a6 0F000000 		.4byte	.LVL349-1
 14280 21aa 16000000 		.4byte	.LFE53
 14281 21ae 0400     		.2byte	0x4
ARM GAS  C:\Users\rdn\AppData\Local\Temp\cckhx27q.s 			page 278


 14282 21b0 F3       		.byte	0xf3
 14283 21b1 01       		.uleb128 0x1
 14284 21b2 52       		.byte	0x52
 14285 21b3 9F       		.byte	0x9f
 14286 21b4 00000000 		.4byte	0
 14287 21b8 00000000 		.4byte	0
 14288              	.LLST244:
 14289 21bc 00000000 		.4byte	.LVL344
 14290 21c0 06000000 		.4byte	.LVL345
 14291 21c4 0100     		.2byte	0x1
 14292 21c6 53       		.byte	0x53
 14293 21c7 06000000 		.4byte	.LVL345
 14294 21cb 0F000000 		.4byte	.LVL349-1
 14295 21cf 0200     		.2byte	0x2
 14296 21d1 7D       		.byte	0x7d
 14297 21d2 00       		.sleb128 0
 14298 21d3 0F000000 		.4byte	.LVL349-1
 14299 21d7 16000000 		.4byte	.LFE53
 14300 21db 0400     		.2byte	0x4
 14301 21dd F3       		.byte	0xf3
 14302 21de 01       		.uleb128 0x1
 14303 21df 53       		.byte	0x53
 14304 21e0 9F       		.byte	0x9f
 14305 21e1 00000000 		.4byte	0
 14306 21e5 00000000 		.4byte	0
 14307              	.LLST245:
 14308 21e9 00000000 		.4byte	.LVL350
 14309 21ed 14000000 		.4byte	.LVL351
 14310 21f1 0100     		.2byte	0x1
 14311 21f3 50       		.byte	0x50
 14312 21f4 14000000 		.4byte	.LVL351
 14313 21f8 1C000000 		.4byte	.LVL352
 14314 21fc 0100     		.2byte	0x1
 14315 21fe 54       		.byte	0x54
 14316 21ff 1C000000 		.4byte	.LVL352
 14317 2203 5C000000 		.4byte	.LVL362
 14318 2207 0100     		.2byte	0x1
 14319 2209 50       		.byte	0x50
 14320 220a 5C000000 		.4byte	.LVL362
 14321 220e 6C020000 		.4byte	.LVL415
 14322 2212 0100     		.2byte	0x1
 14323 2214 54       		.byte	0x54
 14324 2215 6C020000 		.4byte	.LVL415
 14325 2219 70020000 		.4byte	.LVL416
 14326 221d 0100     		.2byte	0x1
 14327 221f 50       		.byte	0x50
 14328 2220 70020000 		.4byte	.LVL416
 14329 2224 80020000 		.4byte	.LVL421
 14330 2228 0100     		.2byte	0x1
 14331 222a 54       		.byte	0x54
 14332 222b 80020000 		.4byte	.LVL421
 14333 222f 90020000 		.4byte	.LFE54
 14334 2233 0400     		.2byte	0x4
 14335 2235 F3       		.byte	0xf3
 14336 2236 01       		.uleb128 0x1
 14337 2237 50       		.byte	0x50
 14338 2238 9F       		.byte	0x9f
ARM GAS  C:\Users\rdn\AppData\Local\Temp\cckhx27q.s 			page 279


 14339 2239 00000000 		.4byte	0
 14340 223d 00000000 		.4byte	0
 14341              	.LLST246:
 14342 2241 00000000 		.4byte	.LVL350
 14343 2245 14000000 		.4byte	.LVL351
 14344 2249 0100     		.2byte	0x1
 14345 224b 51       		.byte	0x51
 14346 224c 14000000 		.4byte	.LVL351
 14347 2250 1C000000 		.4byte	.LVL352
 14348 2254 0400     		.2byte	0x4
 14349 2256 F3       		.byte	0xf3
 14350 2257 01       		.uleb128 0x1
 14351 2258 51       		.byte	0x51
 14352 2259 9F       		.byte	0x9f
 14353 225a 1C000000 		.4byte	.LVL352
 14354 225e 58000000 		.4byte	.LVL361
 14355 2262 0100     		.2byte	0x1
 14356 2264 51       		.byte	0x51
 14357 2265 58000000 		.4byte	.LVL361
 14358 2269 5F000000 		.4byte	.LVL363-1
 14359 226d 0100     		.2byte	0x1
 14360 226f 52       		.byte	0x52
 14361 2270 5F000000 		.4byte	.LVL363-1
 14362 2274 6C020000 		.4byte	.LVL415
 14363 2278 0400     		.2byte	0x4
 14364 227a F3       		.byte	0xf3
 14365 227b 01       		.uleb128 0x1
 14366 227c 51       		.byte	0x51
 14367 227d 9F       		.byte	0x9f
 14368 227e 6C020000 		.4byte	.LVL415
 14369 2282 72020000 		.4byte	.LVL417
 14370 2286 0100     		.2byte	0x1
 14371 2288 51       		.byte	0x51
 14372 2289 72020000 		.4byte	.LVL417
 14373 228d 90020000 		.4byte	.LFE54
 14374 2291 0400     		.2byte	0x4
 14375 2293 F3       		.byte	0xf3
 14376 2294 01       		.uleb128 0x1
 14377 2295 51       		.byte	0x51
 14378 2296 9F       		.byte	0x9f
 14379 2297 00000000 		.4byte	0
 14380 229b 00000000 		.4byte	0
 14381              	.LLST247:
 14382 229f 00000000 		.4byte	.LVL350
 14383 22a3 14000000 		.4byte	.LVL351
 14384 22a7 0100     		.2byte	0x1
 14385 22a9 52       		.byte	0x52
 14386 22aa 14000000 		.4byte	.LVL351
 14387 22ae 1C000000 		.4byte	.LVL352
 14388 22b2 0100     		.2byte	0x1
 14389 22b4 5A       		.byte	0x5a
 14390 22b5 1C000000 		.4byte	.LVL352
 14391 22b9 30000000 		.4byte	.LVL355
 14392 22bd 0100     		.2byte	0x1
 14393 22bf 52       		.byte	0x52
 14394 22c0 30000000 		.4byte	.LVL355
 14395 22c4 80020000 		.4byte	.LVL421
ARM GAS  C:\Users\rdn\AppData\Local\Temp\cckhx27q.s 			page 280


 14396 22c8 0100     		.2byte	0x1
 14397 22ca 5A       		.byte	0x5a
 14398 22cb 80020000 		.4byte	.LVL421
 14399 22cf 90020000 		.4byte	.LFE54
 14400 22d3 0400     		.2byte	0x4
 14401 22d5 F3       		.byte	0xf3
 14402 22d6 01       		.uleb128 0x1
 14403 22d7 52       		.byte	0x52
 14404 22d8 9F       		.byte	0x9f
 14405 22d9 00000000 		.4byte	0
 14406 22dd 00000000 		.4byte	0
 14407              	.LLST248:
 14408 22e1 00000000 		.4byte	.LVL350
 14409 22e5 14000000 		.4byte	.LVL351
 14410 22e9 0100     		.2byte	0x1
 14411 22eb 53       		.byte	0x53
 14412 22ec 14000000 		.4byte	.LVL351
 14413 22f0 1C000000 		.4byte	.LVL352
 14414 22f4 0400     		.2byte	0x4
 14415 22f6 F3       		.byte	0xf3
 14416 22f7 01       		.uleb128 0x1
 14417 22f8 53       		.byte	0x53
 14418 22f9 9F       		.byte	0x9f
 14419 22fa 1C000000 		.4byte	.LVL352
 14420 22fe 2C000000 		.4byte	.LVL354
 14421 2302 0100     		.2byte	0x1
 14422 2304 53       		.byte	0x53
 14423 2305 2C000000 		.4byte	.LVL354
 14424 2309 90020000 		.4byte	.LFE54
 14425 230d 0400     		.2byte	0x4
 14426 230f F3       		.byte	0xf3
 14427 2310 01       		.uleb128 0x1
 14428 2311 53       		.byte	0x53
 14429 2312 9F       		.byte	0x9f
 14430 2313 00000000 		.4byte	0
 14431 2317 00000000 		.4byte	0
 14432              	.LLST249:
 14433 231b 00000000 		.4byte	.LVL350
 14434 231f 80020000 		.4byte	.LVL421
 14435 2323 0200     		.2byte	0x2
 14436 2325 91       		.byte	0x91
 14437 2326 00       		.sleb128 0
 14438 2327 80020000 		.4byte	.LVL421
 14439 232b 90020000 		.4byte	.LFE54
 14440 232f 0200     		.2byte	0x2
 14441 2331 7D       		.byte	0x7d
 14442 2332 00       		.sleb128 0
 14443 2333 00000000 		.4byte	0
 14444 2337 00000000 		.4byte	0
 14445              	.LLST250:
 14446 233b 00000000 		.4byte	.LVL350
 14447 233f 80020000 		.4byte	.LVL421
 14448 2343 0200     		.2byte	0x2
 14449 2345 91       		.byte	0x91
 14450 2346 04       		.sleb128 4
 14451 2347 80020000 		.4byte	.LVL421
 14452 234b 90020000 		.4byte	.LFE54
ARM GAS  C:\Users\rdn\AppData\Local\Temp\cckhx27q.s 			page 281


 14453 234f 0200     		.2byte	0x2
 14454 2351 7D       		.byte	0x7d
 14455 2352 04       		.sleb128 4
 14456 2353 00000000 		.4byte	0
 14457 2357 00000000 		.4byte	0
 14458              	.LLST251:
 14459 235b 26000000 		.4byte	.LVL353
 14460 235f 3C000000 		.4byte	.LVL356
 14461 2363 0100     		.2byte	0x1
 14462 2365 56       		.byte	0x56
 14463 2366 00000000 		.4byte	0
 14464 236a 00000000 		.4byte	0
 14465              	.LLST252:
 14466 236e 26000000 		.4byte	.LVL353
 14467 2372 3C000000 		.4byte	.LVL356
 14468 2376 0100     		.2byte	0x1
 14469 2378 55       		.byte	0x55
 14470 2379 00000000 		.4byte	0
 14471 237d 00000000 		.4byte	0
 14472              	.LLST253:
 14473 2381 44000000 		.4byte	.LVL357
 14474 2385 62000000 		.4byte	.LVL364
 14475 2389 0400     		.2byte	0x4
 14476 238b 91       		.byte	0x91
 14477 238c D47E     		.sleb128 -172
 14478 238e 9F       		.byte	0x9f
 14479 238f 62000000 		.4byte	.LVL364
 14480 2393 69000000 		.4byte	.LVL365-1
 14481 2397 0100     		.2byte	0x1
 14482 2399 52       		.byte	0x52
 14483 239a 69000000 		.4byte	.LVL365-1
 14484 239e 1C010000 		.4byte	.LVL385
 14485 23a2 0400     		.2byte	0x4
 14486 23a4 91       		.byte	0x91
 14487 23a5 D47E     		.sleb128 -172
 14488 23a7 9F       		.byte	0x9f
 14489 23a8 00000000 		.4byte	0
 14490 23ac 00000000 		.4byte	0
 14491              	.LLST254:
 14492 23b0 44000000 		.4byte	.LVL357
 14493 23b4 1C010000 		.4byte	.LVL385
 14494 23b8 0100     		.2byte	0x1
 14495 23ba 5A       		.byte	0x5a
 14496 23bb 00000000 		.4byte	0
 14497 23bf 00000000 		.4byte	0
 14498              	.LLST255:
 14499 23c3 44000000 		.4byte	.LVL357
 14500 23c7 58000000 		.4byte	.LVL361
 14501 23cb 0100     		.2byte	0x1
 14502 23cd 51       		.byte	0x51
 14503 23ce 58000000 		.4byte	.LVL361
 14504 23d2 5F000000 		.4byte	.LVL363-1
 14505 23d6 0100     		.2byte	0x1
 14506 23d8 52       		.byte	0x52
 14507 23d9 5F000000 		.4byte	.LVL363-1
 14508 23dd 1C010000 		.4byte	.LVL385
 14509 23e1 0400     		.2byte	0x4
ARM GAS  C:\Users\rdn\AppData\Local\Temp\cckhx27q.s 			page 282


 14510 23e3 F3       		.byte	0xf3
 14511 23e4 01       		.uleb128 0x1
 14512 23e5 51       		.byte	0x51
 14513 23e6 9F       		.byte	0x9f
 14514 23e7 00000000 		.4byte	0
 14515 23eb 00000000 		.4byte	0
 14516              	.LLST256:
 14517 23ef 44000000 		.4byte	.LVL357
 14518 23f3 5C000000 		.4byte	.LVL362
 14519 23f7 0100     		.2byte	0x1
 14520 23f9 50       		.byte	0x50
 14521 23fa 5C000000 		.4byte	.LVL362
 14522 23fe 1C010000 		.4byte	.LVL385
 14523 2402 0100     		.2byte	0x1
 14524 2404 54       		.byte	0x54
 14525 2405 00000000 		.4byte	0
 14526 2409 00000000 		.4byte	0
 14527              	.LLST257:
 14528 240d 44000000 		.4byte	.LVL357
 14529 2411 00010000 		.4byte	.LVL381
 14530 2415 0100     		.2byte	0x1
 14531 2417 55       		.byte	0x55
 14532 2418 00010000 		.4byte	.LVL381
 14533 241c 08010000 		.4byte	.LVL383
 14534 2420 0300     		.2byte	0x3
 14535 2422 75       		.byte	0x75
 14536 2423 7F       		.sleb128 -1
 14537 2424 9F       		.byte	0x9f
 14538 2425 00000000 		.4byte	0
 14539 2429 00000000 		.4byte	0
 14540              	.LLST258:
 14541 242d 44000000 		.4byte	.LVL357
 14542 2431 1C010000 		.4byte	.LVL385
 14543 2435 0100     		.2byte	0x1
 14544 2437 56       		.byte	0x56
 14545 2438 00000000 		.4byte	0
 14546 243c 00000000 		.4byte	0
 14547              	.LLST259:
 14548 2440 4A000000 		.4byte	.LVL358
 14549 2444 5C000000 		.4byte	.LVL362
 14550 2448 0B00     		.2byte	0xb
 14551 244a 77       		.byte	0x77
 14552 244b 00       		.sleb128 0
 14553 244c 32       		.byte	0x32
 14554 244d 24       		.byte	0x24
 14555 244e 70       		.byte	0x70
 14556 244f 00       		.sleb128 0
 14557 2450 22       		.byte	0x22
 14558 2451 23       		.byte	0x23
 14559 2452 B801     		.uleb128 0xb8
 14560 2454 9F       		.byte	0x9f
 14561 2455 5C000000 		.4byte	.LVL362
 14562 2459 E2000000 		.4byte	.LVL379
 14563 245d 0B00     		.2byte	0xb
 14564 245f 77       		.byte	0x77
 14565 2460 00       		.sleb128 0
 14566 2461 32       		.byte	0x32
ARM GAS  C:\Users\rdn\AppData\Local\Temp\cckhx27q.s 			page 283


 14567 2462 24       		.byte	0x24
 14568 2463 74       		.byte	0x74
 14569 2464 00       		.sleb128 0
 14570 2465 22       		.byte	0x22
 14571 2466 23       		.byte	0x23
 14572 2467 B801     		.uleb128 0xb8
 14573 2469 9F       		.byte	0x9f
 14574 246a 00000000 		.4byte	0
 14575 246e 00000000 		.4byte	0
 14576              	.LLST260:
 14577 2472 56000000 		.4byte	.LVL360
 14578 2476 6A000000 		.4byte	.LVL365
 14579 247a 0200     		.2byte	0x2
 14580 247c 30       		.byte	0x30
 14581 247d 9F       		.byte	0x9f
 14582 247e 6A000000 		.4byte	.LVL365
 14583 2482 7A000000 		.4byte	.LVL366
 14584 2486 0100     		.2byte	0x1
 14585 2488 50       		.byte	0x50
 14586 2489 7E000000 		.4byte	.LVL367
 14587 248d 90000000 		.4byte	.LVL368
 14588 2491 0100     		.2byte	0x1
 14589 2493 50       		.byte	0x50
 14590 2494 94000000 		.4byte	.LVL369
 14591 2498 9A000000 		.4byte	.LVL371
 14592 249c 0100     		.2byte	0x1
 14593 249e 50       		.byte	0x50
 14594 249f C8000000 		.4byte	.LVL376
 14595 24a3 D6000000 		.4byte	.LVL377
 14596 24a7 0100     		.2byte	0x1
 14597 24a9 50       		.byte	0x50
 14598 24aa FA000000 		.4byte	.LVL380
 14599 24ae 04010000 		.4byte	.LVL382
 14600 24b2 0100     		.2byte	0x1
 14601 24b4 50       		.byte	0x50
 14602 24b5 00000000 		.4byte	0
 14603 24b9 00000000 		.4byte	0
 14604              	.LLST261:
 14605 24bd 4A000000 		.4byte	.LVL358
 14606 24c1 4E000000 		.4byte	.LVL359
 14607 24c5 0100     		.2byte	0x1
 14608 24c7 56       		.byte	0x56
 14609 24c8 00000000 		.4byte	0
 14610 24cc 00000000 		.4byte	0
 14611              	.LLST262:
 14612 24d0 4A000000 		.4byte	.LVL358
 14613 24d4 4E000000 		.4byte	.LVL359
 14614 24d8 0100     		.2byte	0x1
 14615 24da 55       		.byte	0x55
 14616 24db 00000000 		.4byte	0
 14617 24df 00000000 		.4byte	0
 14618              	.LLST263:
 14619 24e3 4E000000 		.4byte	.LVL359
 14620 24e7 56000000 		.4byte	.LVL360
 14621 24eb 0100     		.2byte	0x1
 14622 24ed 56       		.byte	0x56
 14623 24ee 00000000 		.4byte	0
ARM GAS  C:\Users\rdn\AppData\Local\Temp\cckhx27q.s 			page 284


 14624 24f2 00000000 		.4byte	0
 14625              	.LLST264:
 14626 24f6 4E000000 		.4byte	.LVL359
 14627 24fa 56000000 		.4byte	.LVL360
 14628 24fe 0100     		.2byte	0x1
 14629 2500 55       		.byte	0x55
 14630 2501 00000000 		.4byte	0
 14631 2505 00000000 		.4byte	0
 14632              	.LLST265:
 14633 2509 98000000 		.4byte	.LVL370
 14634 250d B2000000 		.4byte	.LVL374
 14635 2511 0400     		.2byte	0x4
 14636 2513 91       		.byte	0x91
 14637 2514 9C7E     		.sleb128 -228
 14638 2516 9F       		.byte	0x9f
 14639 2517 B2000000 		.4byte	.LVL374
 14640 251b B5000000 		.4byte	.LVL375-1
 14641 251f 0100     		.2byte	0x1
 14642 2521 50       		.byte	0x50
 14643 2522 B5000000 		.4byte	.LVL375-1
 14644 2526 B6000000 		.4byte	.LVL375
 14645 252a 0400     		.2byte	0x4
 14646 252c 91       		.byte	0x91
 14647 252d 9C7E     		.sleb128 -228
 14648 252f 9F       		.byte	0x9f
 14649 2530 00000000 		.4byte	0
 14650 2534 00000000 		.4byte	0
 14651              	.LLST266:
 14652 2538 98000000 		.4byte	.LVL370
 14653 253c B6000000 		.4byte	.LVL375
 14654 2540 0200     		.2byte	0x2
 14655 2542 31       		.byte	0x31
 14656 2543 9F       		.byte	0x9f
 14657 2544 00000000 		.4byte	0
 14658 2548 00000000 		.4byte	0
 14659              	.LLST268:
 14660 254c 98000000 		.4byte	.LVL370
 14661 2550 1C010000 		.4byte	.LVL385
 14662 2554 0400     		.2byte	0x4
 14663 2556 91       		.byte	0x91
 14664 2557 B87E     		.sleb128 -200
 14665 2559 9F       		.byte	0x9f
 14666 255a 00000000 		.4byte	0
 14667 255e 00000000 		.4byte	0
 14668              	.LLST269:
 14669 2562 AC000000 		.4byte	.LVL372
 14670 2566 AE000000 		.4byte	.LVL373
 14671 256a 0100     		.2byte	0x1
 14672 256c 50       		.byte	0x50
 14673 256d 00000000 		.4byte	0
 14674 2571 00000000 		.4byte	0
 14675              	.LLST270:
 14676 2575 28010000 		.4byte	.LVL386
 14677 2579 1E020000 		.4byte	.LVL409
 14678 257d 0100     		.2byte	0x1
 14679 257f 5A       		.byte	0x5a
 14680 2580 72020000 		.4byte	.LVL417
ARM GAS  C:\Users\rdn\AppData\Local\Temp\cckhx27q.s 			page 285


 14681 2584 7A020000 		.4byte	.LVL420
 14682 2588 0100     		.2byte	0x1
 14683 258a 5A       		.byte	0x5a
 14684 258b 00000000 		.4byte	0
 14685 258f 00000000 		.4byte	0
 14686              	.LLST271:
 14687 2593 28010000 		.4byte	.LVL386
 14688 2597 06020000 		.4byte	.LVL408
 14689 259b 0100     		.2byte	0x1
 14690 259d 56       		.byte	0x56
 14691 259e 72020000 		.4byte	.LVL417
 14692 25a2 78020000 		.4byte	.LVL419
 14693 25a6 0100     		.2byte	0x1
 14694 25a8 56       		.byte	0x56
 14695 25a9 78020000 		.4byte	.LVL419
 14696 25ad 7A020000 		.4byte	.LVL420
 14697 25b1 0300     		.2byte	0x3
 14698 25b3 7B       		.byte	0x7b
 14699 25b4 58       		.sleb128 -40
 14700 25b5 9F       		.byte	0x9f
 14701 25b6 00000000 		.4byte	0
 14702 25ba 00000000 		.4byte	0
 14703              	.LLST272:
 14704 25be 28010000 		.4byte	.LVL386
 14705 25c2 1E020000 		.4byte	.LVL409
 14706 25c6 0100     		.2byte	0x1
 14707 25c8 54       		.byte	0x54
 14708 25c9 72020000 		.4byte	.LVL417
 14709 25cd 7A020000 		.4byte	.LVL420
 14710 25d1 0100     		.2byte	0x1
 14711 25d3 54       		.byte	0x54
 14712 25d4 00000000 		.4byte	0
 14713 25d8 00000000 		.4byte	0
 14714              	.LLST273:
 14715 25dc 34010000 		.4byte	.LVL387
 14716 25e0 1E020000 		.4byte	.LVL409
 14717 25e4 0100     		.2byte	0x1
 14718 25e6 58       		.byte	0x58
 14719 25e7 72020000 		.4byte	.LVL417
 14720 25eb 7A020000 		.4byte	.LVL420
 14721 25ef 0100     		.2byte	0x1
 14722 25f1 58       		.byte	0x58
 14723 25f2 00000000 		.4byte	0
 14724 25f6 00000000 		.4byte	0
 14725              	.LLST274:
 14726 25fa 38010000 		.4byte	.LVL388
 14727 25fe 1E020000 		.4byte	.LVL409
 14728 2602 0100     		.2byte	0x1
 14729 2604 59       		.byte	0x59
 14730 2605 72020000 		.4byte	.LVL417
 14731 2609 7A020000 		.4byte	.LVL420
 14732 260d 0100     		.2byte	0x1
 14733 260f 59       		.byte	0x59
 14734 2610 00000000 		.4byte	0
 14735 2614 00000000 		.4byte	0
 14736              	.LLST275:
 14737 2618 38010000 		.4byte	.LVL388
ARM GAS  C:\Users\rdn\AppData\Local\Temp\cckhx27q.s 			page 286


 14738 261c 1E020000 		.4byte	.LVL409
 14739 2620 0300     		.2byte	0x3
 14740 2622 91       		.byte	0x91
 14741 2623 F87D     		.sleb128 -264
 14742 2625 72020000 		.4byte	.LVL417
 14743 2629 7A020000 		.4byte	.LVL420
 14744 262d 0300     		.2byte	0x3
 14745 262f 91       		.byte	0x91
 14746 2630 F87D     		.sleb128 -264
 14747 2632 00000000 		.4byte	0
 14748 2636 00000000 		.4byte	0
 14749              	.LLST276:
 14750 263a 44010000 		.4byte	.LVL389
 14751 263e 34020000 		.4byte	.LVL411
 14752 2642 0100     		.2byte	0x1
 14753 2644 55       		.byte	0x55
 14754 2645 72020000 		.4byte	.LVL417
 14755 2649 7A020000 		.4byte	.LVL420
 14756 264d 0100     		.2byte	0x1
 14757 264f 55       		.byte	0x55
 14758 2650 00000000 		.4byte	0
 14759 2654 00000000 		.4byte	0
 14760              	.LLST277:
 14761 2658 4E010000 		.4byte	.LVL390
 14762 265c 52010000 		.4byte	.LVL391
 14763 2660 0100     		.2byte	0x1
 14764 2662 53       		.byte	0x53
 14765 2663 52010000 		.4byte	.LVL391
 14766 2667 1E020000 		.4byte	.LVL409
 14767 266b 0300     		.2byte	0x3
 14768 266d 91       		.byte	0x91
 14769 266e 807E     		.sleb128 -256
 14770 2670 72020000 		.4byte	.LVL417
 14771 2674 7A020000 		.4byte	.LVL420
 14772 2678 0300     		.2byte	0x3
 14773 267a 91       		.byte	0x91
 14774 267b 807E     		.sleb128 -256
 14775 267d 00000000 		.4byte	0
 14776 2681 00000000 		.4byte	0
 14777              	.LLST278:
 14778 2685 4E010000 		.4byte	.LVL390
 14779 2689 1E020000 		.4byte	.LVL409
 14780 268d 0100     		.2byte	0x1
 14781 268f 55       		.byte	0x55
 14782 2690 72020000 		.4byte	.LVL417
 14783 2694 7A020000 		.4byte	.LVL420
 14784 2698 0100     		.2byte	0x1
 14785 269a 55       		.byte	0x55
 14786 269b 00000000 		.4byte	0
 14787 269f 00000000 		.4byte	0
 14788              	.LLST279:
 14789 26a3 58010000 		.4byte	.LVL392
 14790 26a7 5C010000 		.4byte	.LVL393
 14791 26ab 0100     		.2byte	0x1
 14792 26ad 53       		.byte	0x53
 14793 26ae 5C010000 		.4byte	.LVL393
 14794 26b2 1E020000 		.4byte	.LVL409
ARM GAS  C:\Users\rdn\AppData\Local\Temp\cckhx27q.s 			page 287


 14795 26b6 0300     		.2byte	0x3
 14796 26b8 91       		.byte	0x91
 14797 26b9 887E     		.sleb128 -248
 14798 26bb 72020000 		.4byte	.LVL417
 14799 26bf 7A020000 		.4byte	.LVL420
 14800 26c3 0300     		.2byte	0x3
 14801 26c5 91       		.byte	0x91
 14802 26c6 887E     		.sleb128 -248
 14803 26c8 00000000 		.4byte	0
 14804 26cc 00000000 		.4byte	0
 14805              	.LLST280:
 14806 26d0 5E010000 		.4byte	.LVL394
 14807 26d4 6D010000 		.4byte	.LVL396-1
 14808 26d8 0800     		.2byte	0x8
 14809 26da 73       		.byte	0x73
 14810 26db 00       		.sleb128 0
 14811 26dc 32       		.byte	0x32
 14812 26dd 24       		.byte	0x24
 14813 26de 72       		.byte	0x72
 14814 26df 00       		.sleb128 0
 14815 26e0 22       		.byte	0x22
 14816 26e1 9F       		.byte	0x9f
 14817 26e2 6D010000 		.4byte	.LVL396-1
 14818 26e6 A6010000 		.4byte	.LVL400
 14819 26ea 0C00     		.2byte	0xc
 14820 26ec 91       		.byte	0x91
 14821 26ed 907E     		.sleb128 -240
 14822 26ef 06       		.byte	0x6
 14823 26f0 32       		.byte	0x32
 14824 26f1 24       		.byte	0x24
 14825 26f2 91       		.byte	0x91
 14826 26f3 FC7D     		.sleb128 -260
 14827 26f5 06       		.byte	0x6
 14828 26f6 22       		.byte	0x22
 14829 26f7 9F       		.byte	0x9f
 14830 26f8 A6010000 		.4byte	.LVL400
 14831 26fc A8010000 		.4byte	.LVL401
 14832 2700 0800     		.2byte	0x8
 14833 2702 73       		.byte	0x73
 14834 2703 00       		.sleb128 0
 14835 2704 32       		.byte	0x32
 14836 2705 24       		.byte	0x24
 14837 2706 72       		.byte	0x72
 14838 2707 00       		.sleb128 0
 14839 2708 22       		.byte	0x22
 14840 2709 9F       		.byte	0x9f
 14841 270a A8010000 		.4byte	.LVL401
 14842 270e AA010000 		.4byte	.LVL402
 14843 2712 0A00     		.2byte	0xa
 14844 2714 73       		.byte	0x73
 14845 2715 00       		.sleb128 0
 14846 2716 32       		.byte	0x32
 14847 2717 24       		.byte	0x24
 14848 2718 91       		.byte	0x91
 14849 2719 FC7D     		.sleb128 -260
 14850 271b 06       		.byte	0x6
 14851 271c 22       		.byte	0x22
ARM GAS  C:\Users\rdn\AppData\Local\Temp\cckhx27q.s 			page 288


 14852 271d 9F       		.byte	0x9f
 14853 271e AA010000 		.4byte	.LVL402
 14854 2722 AC010000 		.4byte	.LVL403
 14855 2726 0C00     		.2byte	0xc
 14856 2728 74       		.byte	0x74
 14857 2729 A801     		.sleb128 168
 14858 272b 06       		.byte	0x6
 14859 272c 32       		.byte	0x32
 14860 272d 24       		.byte	0x24
 14861 272e 91       		.byte	0x91
 14862 272f FC7D     		.sleb128 -260
 14863 2731 06       		.byte	0x6
 14864 2732 22       		.byte	0x22
 14865 2733 9F       		.byte	0x9f
 14866 2734 AC010000 		.4byte	.LVL403
 14867 2738 1E020000 		.4byte	.LVL409
 14868 273c 0C00     		.2byte	0xc
 14869 273e 91       		.byte	0x91
 14870 273f 907E     		.sleb128 -240
 14871 2741 06       		.byte	0x6
 14872 2742 32       		.byte	0x32
 14873 2743 24       		.byte	0x24
 14874 2744 91       		.byte	0x91
 14875 2745 FC7D     		.sleb128 -260
 14876 2747 06       		.byte	0x6
 14877 2748 22       		.byte	0x22
 14878 2749 9F       		.byte	0x9f
 14879 274a 72020000 		.4byte	.LVL417
 14880 274e 7A020000 		.4byte	.LVL420
 14881 2752 0C00     		.2byte	0xc
 14882 2754 91       		.byte	0x91
 14883 2755 907E     		.sleb128 -240
 14884 2757 06       		.byte	0x6
 14885 2758 32       		.byte	0x32
 14886 2759 24       		.byte	0x24
 14887 275a 91       		.byte	0x91
 14888 275b FC7D     		.sleb128 -260
 14889 275d 06       		.byte	0x6
 14890 275e 22       		.byte	0x22
 14891 275f 9F       		.byte	0x9f
 14892 2760 00000000 		.4byte	0
 14893 2764 00000000 		.4byte	0
 14894              	.LLST281:
 14895 2768 6A010000 		.4byte	.LVL395
 14896 276c A6010000 		.4byte	.LVL400
 14897 2770 0100     		.2byte	0x1
 14898 2772 57       		.byte	0x57
 14899 2773 FC010000 		.4byte	.LVL407
 14900 2777 06020000 		.4byte	.LVL408
 14901 277b 0100     		.2byte	0x1
 14902 277d 57       		.byte	0x57
 14903 277e 76020000 		.4byte	.LVL418
 14904 2782 7A020000 		.4byte	.LVL420
 14905 2786 0100     		.2byte	0x1
 14906 2788 57       		.byte	0x57
 14907 2789 00000000 		.4byte	0
 14908 278d 00000000 		.4byte	0
ARM GAS  C:\Users\rdn\AppData\Local\Temp\cckhx27q.s 			page 289


 14909              	.LLST282:
 14910 2791 30020000 		.4byte	.LVL410
 14911 2795 6C020000 		.4byte	.LVL415
 14912 2799 0100     		.2byte	0x1
 14913 279b 54       		.byte	0x54
 14914 279c 00000000 		.4byte	0
 14915 27a0 00000000 		.4byte	0
 14916              	.LLST283:
 14917 27a4 34020000 		.4byte	.LVL411
 14918 27a8 6C020000 		.4byte	.LVL415
 14919 27ac 0100     		.2byte	0x1
 14920 27ae 55       		.byte	0x55
 14921 27af 00000000 		.4byte	0
 14922 27b3 00000000 		.4byte	0
 14923              	.LLST284:
 14924 27b7 34020000 		.4byte	.LVL411
 14925 27bb 58020000 		.4byte	.LVL414
 14926 27bf 0100     		.2byte	0x1
 14927 27c1 51       		.byte	0x51
 14928 27c2 58020000 		.4byte	.LVL414
 14929 27c6 6C020000 		.4byte	.LVL415
 14930 27ca 0200     		.2byte	0x2
 14931 27cc 74       		.byte	0x74
 14932 27cd 02       		.sleb128 2
 14933 27ce 00000000 		.4byte	0
 14934 27d2 00000000 		.4byte	0
 14935              	.LLST285:
 14936 27d6 34020000 		.4byte	.LVL411
 14937 27da 4C020000 		.4byte	.LVL412
 14938 27de 0100     		.2byte	0x1
 14939 27e0 51       		.byte	0x51
 14940 27e1 00000000 		.4byte	0
 14941 27e5 00000000 		.4byte	0
 14942              	.LLST286:
 14943 27e9 34020000 		.4byte	.LVL411
 14944 27ed 4C020000 		.4byte	.LVL412
 14945 27f1 0100     		.2byte	0x1
 14946 27f3 55       		.byte	0x55
 14947 27f4 00000000 		.4byte	0
 14948 27f8 00000000 		.4byte	0
 14949              	.LLST287:
 14950 27fc 4C020000 		.4byte	.LVL412
 14951 2800 54020000 		.4byte	.LVL413
 14952 2804 0100     		.2byte	0x1
 14953 2806 51       		.byte	0x51
 14954 2807 00000000 		.4byte	0
 14955 280b 00000000 		.4byte	0
 14956              	.LLST288:
 14957 280f 4C020000 		.4byte	.LVL412
 14958 2813 54020000 		.4byte	.LVL413
 14959 2817 0100     		.2byte	0x1
 14960 2819 55       		.byte	0x55
 14961 281a 00000000 		.4byte	0
 14962 281e 00000000 		.4byte	0
 14963              		.section	.debug_aranges,"",%progbits
 14964 0000 04010000 		.4byte	0x104
 14965 0004 0200     		.2byte	0x2
ARM GAS  C:\Users\rdn\AppData\Local\Temp\cckhx27q.s 			page 290


 14966 0006 00000000 		.4byte	.Ldebug_info0
 14967 000a 04       		.byte	0x4
 14968 000b 00       		.byte	0
 14969 000c 0000     		.2byte	0
 14970 000e 0000     		.2byte	0
 14971 0010 00000000 		.4byte	.LFB32
 14972 0014 50000000 		.4byte	.LFE32-.LFB32
 14973 0018 00000000 		.4byte	.LFB33
 14974 001c 5C000000 		.4byte	.LFE33-.LFB33
 14975 0020 00000000 		.4byte	.LFB34
 14976 0024 6C000000 		.4byte	.LFE34-.LFB34
 14977 0028 00000000 		.4byte	.LFB35
 14978 002c 78000000 		.4byte	.LFE35-.LFB35
 14979 0030 00000000 		.4byte	.LFB43
 14980 0034 70000000 		.4byte	.LFE43-.LFB43
 14981 0038 00000000 		.4byte	.LFB44
 14982 003c 94000000 		.4byte	.LFE44-.LFB44
 14983 0040 00000000 		.4byte	.LFB45
 14984 0044 9C000000 		.4byte	.LFE45-.LFB45
 14985 0048 00000000 		.4byte	.LFB46
 14986 004c 54000000 		.4byte	.LFE46-.LFB46
 14987 0050 00000000 		.4byte	.LFB20
 14988 0054 34000000 		.4byte	.LFE20-.LFB20
 14989 0058 00000000 		.4byte	.LFB21
 14990 005c 58000000 		.4byte	.LFE21-.LFB21
 14991 0060 00000000 		.4byte	.LFB22
 14992 0064 34000000 		.4byte	.LFE22-.LFB22
 14993 0068 00000000 		.4byte	.LFB23
 14994 006c 0A000000 		.4byte	.LFE23-.LFB23
 14995 0070 00000000 		.4byte	.LFB24
 14996 0074 F8000000 		.4byte	.LFE24-.LFB24
 14997 0078 00000000 		.4byte	.LFB25
 14998 007c 18000000 		.4byte	.LFE25-.LFB25
 14999 0080 00000000 		.4byte	.LFB26
 15000 0084 10000000 		.4byte	.LFE26-.LFB26
 15001 0088 00000000 		.4byte	.LFB27
 15002 008c 0E000000 		.4byte	.LFE27-.LFB27
 15003 0090 00000000 		.4byte	.LFB28
 15004 0094 50000000 		.4byte	.LFE28-.LFB28
 15005 0098 00000000 		.4byte	.LFB29
 15006 009c 0E000000 		.4byte	.LFE29-.LFB29
 15007 00a0 00000000 		.4byte	.LFB30
 15008 00a4 4C000000 		.4byte	.LFE30-.LFB30
 15009 00a8 00000000 		.4byte	.LFB31
 15010 00ac 0A000000 		.4byte	.LFE31-.LFB31
 15011 00b0 00000000 		.4byte	.LFB38
 15012 00b4 70000000 		.4byte	.LFE38-.LFB38
 15013 00b8 00000000 		.4byte	.LFB39
 15014 00bc 0A000000 		.4byte	.LFE39-.LFB39
 15015 00c0 00000000 		.4byte	.LFB40
 15016 00c4 E8000000 		.4byte	.LFE40-.LFB40
 15017 00c8 00000000 		.4byte	.LFB41
 15018 00cc 16000000 		.4byte	.LFE41-.LFB41
 15019 00d0 00000000 		.4byte	.LFB42
 15020 00d4 00020000 		.4byte	.LFE42-.LFB42
 15021 00d8 00000000 		.4byte	.LFB50
 15022 00dc 84000000 		.4byte	.LFE50-.LFB50
ARM GAS  C:\Users\rdn\AppData\Local\Temp\cckhx27q.s 			page 291


 15023 00e0 00000000 		.4byte	.LFB51
 15024 00e4 0A000000 		.4byte	.LFE51-.LFB51
 15025 00e8 00000000 		.4byte	.LFB52
 15026 00ec 38010000 		.4byte	.LFE52-.LFB52
 15027 00f0 00000000 		.4byte	.LFB53
 15028 00f4 16000000 		.4byte	.LFE53-.LFB53
 15029 00f8 00000000 		.4byte	.LFB54
 15030 00fc 90020000 		.4byte	.LFE54-.LFB54
 15031 0100 00000000 		.4byte	0
 15032 0104 00000000 		.4byte	0
 15033              		.section	.debug_ranges,"",%progbits
 15034              	.Ldebug_ranges0:
 15035 0000 02000000 		.4byte	.LBB95
 15036 0004 0C000000 		.4byte	.LBE95
 15037 0008 10000000 		.4byte	.LBB98
 15038 000c 18000000 		.4byte	.LBE98
 15039 0010 00000000 		.4byte	0
 15040 0014 00000000 		.4byte	0
 15041 0018 02000000 		.4byte	.LBB100
 15042 001c 0C000000 		.4byte	.LBE100
 15043 0020 10000000 		.4byte	.LBB103
 15044 0024 18000000 		.4byte	.LBE103
 15045 0028 00000000 		.4byte	0
 15046 002c 00000000 		.4byte	0
 15047 0030 02000000 		.4byte	.LBB107
 15048 0034 0C000000 		.4byte	.LBE107
 15049 0038 10000000 		.4byte	.LBB110
 15050 003c 18000000 		.4byte	.LBE110
 15051 0040 00000000 		.4byte	0
 15052 0044 00000000 		.4byte	0
 15053 0048 26000000 		.4byte	.LBB112
 15054 004c 2A000000 		.4byte	.LBE112
 15055 0050 2E000000 		.4byte	.LBB115
 15056 0054 5A000000 		.4byte	.LBE115
 15057 0058 5C000000 		.4byte	.LBB116
 15058 005c 60000000 		.4byte	.LBE116
 15059 0060 00000000 		.4byte	0
 15060 0064 00000000 		.4byte	0
 15061 0068 02000000 		.4byte	.LBB117
 15062 006c 0C000000 		.4byte	.LBE117
 15063 0070 14000000 		.4byte	.LBB123
 15064 0074 1C000000 		.4byte	.LBE123
 15065 0078 00000000 		.4byte	0
 15066 007c 00000000 		.4byte	0
 15067 0080 10000000 		.4byte	.LBB120
 15068 0084 14000000 		.4byte	.LBE120
 15069 0088 20000000 		.4byte	.LBB124
 15070 008c 6C000000 		.4byte	.LBE124
 15071 0090 00000000 		.4byte	0
 15072 0094 00000000 		.4byte	0
 15073 0098 02000000 		.4byte	.LBB125
 15074 009c 14000000 		.4byte	.LBE125
 15075 00a0 16000000 		.4byte	.LBB129
 15076 00a4 1A000000 		.4byte	.LBE129
 15077 00a8 00000000 		.4byte	0
 15078 00ac 00000000 		.4byte	0
 15079 00b0 14000000 		.4byte	.LBB128
ARM GAS  C:\Users\rdn\AppData\Local\Temp\cckhx27q.s 			page 292


 15080 00b4 16000000 		.4byte	.LBE128
 15081 00b8 24000000 		.4byte	.LBB130
 15082 00bc 28000000 		.4byte	.LBE130
 15083 00c0 2C000000 		.4byte	.LBB131
 15084 00c4 5E000000 		.4byte	.LBE131
 15085 00c8 00000000 		.4byte	0
 15086 00cc 00000000 		.4byte	0
 15087 00d0 02000000 		.4byte	.LBB132
 15088 00d4 14000000 		.4byte	.LBE132
 15089 00d8 18000000 		.4byte	.LBB140
 15090 00dc 1C000000 		.4byte	.LBE140
 15091 00e0 00000000 		.4byte	0
 15092 00e4 00000000 		.4byte	0
 15093 00e8 14000000 		.4byte	.LBB135
 15094 00ec 18000000 		.4byte	.LBE135
 15095 00f0 2A000000 		.4byte	.LBB141
 15096 00f4 7A000000 		.4byte	.LBE141
 15097 00f8 00000000 		.4byte	0
 15098 00fc 00000000 		.4byte	0
 15099 0100 02000000 		.4byte	.LBB142
 15100 0104 14000000 		.4byte	.LBE142
 15101 0108 18000000 		.4byte	.LBB150
 15102 010c 1C000000 		.4byte	.LBE150
 15103 0110 00000000 		.4byte	0
 15104 0114 00000000 		.4byte	0
 15105 0118 14000000 		.4byte	.LBB145
 15106 011c 18000000 		.4byte	.LBE145
 15107 0120 2C000000 		.4byte	.LBB151
 15108 0124 84000000 		.4byte	.LBE151
 15109 0128 00000000 		.4byte	0
 15110 012c 00000000 		.4byte	0
 15111 0130 02000000 		.4byte	.LBB152
 15112 0134 10000000 		.4byte	.LBE152
 15113 0138 12000000 		.4byte	.LBB156
 15114 013c 16000000 		.4byte	.LBE156
 15115 0140 18000000 		.4byte	.LBB157
 15116 0144 20000000 		.4byte	.LBE157
 15117 0148 00000000 		.4byte	0
 15118 014c 00000000 		.4byte	0
 15119 0150 24000000 		.4byte	.LBB158
 15120 0154 40000000 		.4byte	.LBE158
 15121 0158 42000000 		.4byte	.LBB161
 15122 015c 44000000 		.4byte	.LBE161
 15123 0160 00000000 		.4byte	0
 15124 0164 00000000 		.4byte	0
 15125 0168 10000000 		.4byte	.LBB164
 15126 016c 28000000 		.4byte	.LBE164
 15127 0170 30000000 		.4byte	.LBB167
 15128 0174 32000000 		.4byte	.LBE167
 15129 0178 00000000 		.4byte	0
 15130 017c 00000000 		.4byte	0
 15131 0180 2A000000 		.4byte	.LBB170
 15132 0184 3E000000 		.4byte	.LBE170
 15133 0188 4E000000 		.4byte	.LBB173
 15134 018c 50000000 		.4byte	.LBE173
 15135 0190 00000000 		.4byte	0
 15136 0194 00000000 		.4byte	0
ARM GAS  C:\Users\rdn\AppData\Local\Temp\cckhx27q.s 			page 293


 15137 0198 1E000000 		.4byte	.LBB196
 15138 019c 24000000 		.4byte	.LBE196
 15139 01a0 26000000 		.4byte	.LBB199
 15140 01a4 2A000000 		.4byte	.LBE199
 15141 01a8 00000000 		.4byte	0
 15142 01ac 00000000 		.4byte	0
 15143 01b0 40000000 		.4byte	.LBB204
 15144 01b4 46000000 		.4byte	.LBE204
 15145 01b8 48000000 		.4byte	.LBB207
 15146 01bc 4C000000 		.4byte	.LBE207
 15147 01c0 00000000 		.4byte	0
 15148 01c4 00000000 		.4byte	0
 15149 01c8 2E000000 		.4byte	.LBB228
 15150 01cc 34000000 		.4byte	.LBE228
 15151 01d0 E6010000 		.4byte	.LBB245
 15152 01d4 EC010000 		.4byte	.LBE245
 15153 01d8 00000000 		.4byte	0
 15154 01dc 00000000 		.4byte	0
 15155 01e0 8A010000 		.4byte	.LBB241
 15156 01e4 8C010000 		.4byte	.LBE241
 15157 01e8 90010000 		.4byte	.LBB244
 15158 01ec AA010000 		.4byte	.LBE244
 15159 01f0 00000000 		.4byte	0
 15160 01f4 00000000 		.4byte	0
 15161 01f8 64000000 		.4byte	.LBB260
 15162 01fc 68000000 		.4byte	.LBE260
 15163 0200 6C000000 		.4byte	.LBB267
 15164 0204 70000000 		.4byte	.LBE267
 15165 0208 74000000 		.4byte	.LBB269
 15166 020c 7A000000 		.4byte	.LBE269
 15167 0210 00000000 		.4byte	0
 15168 0214 00000000 		.4byte	0
 15169 0218 68000000 		.4byte	.LBB264
 15170 021c 6C000000 		.4byte	.LBE264
 15171 0220 70000000 		.4byte	.LBB268
 15172 0224 74000000 		.4byte	.LBE268
 15173 0228 00000000 		.4byte	0
 15174 022c 00000000 		.4byte	0
 15175 0230 44000000 		.4byte	.LBB300
 15176 0234 46000000 		.4byte	.LBE300
 15177 0238 4A000000 		.4byte	.LBB304
 15178 023c 4E000000 		.4byte	.LBE304
 15179 0240 FE000000 		.4byte	.LBB314
 15180 0244 00010000 		.4byte	.LBE314
 15181 0248 00000000 		.4byte	0
 15182 024c 00000000 		.4byte	0
 15183 0250 4E000000 		.4byte	.LBB305
 15184 0254 50000000 		.4byte	.LBE305
 15185 0258 52000000 		.4byte	.LBB309
 15186 025c 56000000 		.4byte	.LBE309
 15187 0260 00010000 		.4byte	.LBB315
 15188 0264 04010000 		.4byte	.LBE315
 15189 0268 00000000 		.4byte	0
 15190 026c 00000000 		.4byte	0
 15191 0270 28010000 		.4byte	.LBB316
 15192 0274 1E020000 		.4byte	.LBE316
 15193 0278 72020000 		.4byte	.LBB336
ARM GAS  C:\Users\rdn\AppData\Local\Temp\cckhx27q.s 			page 294


 15194 027c 7A020000 		.4byte	.LBE336
 15195 0280 00000000 		.4byte	0
 15196 0284 00000000 		.4byte	0
 15197 0288 A6010000 		.4byte	.LBB319
 15198 028c AA010000 		.4byte	.LBE319
 15199 0290 AC010000 		.4byte	.LBB323
 15200 0294 B2010000 		.4byte	.LBE323
 15201 0298 B8010000 		.4byte	.LBB327
 15202 029c BC010000 		.4byte	.LBE327
 15203 02a0 00000000 		.4byte	0
 15204 02a4 00000000 		.4byte	0
 15205 02a8 B2010000 		.4byte	.LBB324
 15206 02ac B8010000 		.4byte	.LBE324
 15207 02b0 BC010000 		.4byte	.LBB328
 15208 02b4 C0010000 		.4byte	.LBE328
 15209 02b8 00000000 		.4byte	0
 15210 02bc 00000000 		.4byte	0
 15211 02c0 00000000 		.4byte	.LFB32
 15212 02c4 50000000 		.4byte	.LFE32
 15213 02c8 00000000 		.4byte	.LFB33
 15214 02cc 5C000000 		.4byte	.LFE33
 15215 02d0 00000000 		.4byte	.LFB34
 15216 02d4 6C000000 		.4byte	.LFE34
 15217 02d8 00000000 		.4byte	.LFB35
 15218 02dc 78000000 		.4byte	.LFE35
 15219 02e0 00000000 		.4byte	.LFB43
 15220 02e4 70000000 		.4byte	.LFE43
 15221 02e8 00000000 		.4byte	.LFB44
 15222 02ec 94000000 		.4byte	.LFE44
 15223 02f0 00000000 		.4byte	.LFB45
 15224 02f4 9C000000 		.4byte	.LFE45
 15225 02f8 00000000 		.4byte	.LFB46
 15226 02fc 54000000 		.4byte	.LFE46
 15227 0300 00000000 		.4byte	.LFB20
 15228 0304 34000000 		.4byte	.LFE20
 15229 0308 00000000 		.4byte	.LFB21
 15230 030c 58000000 		.4byte	.LFE21
 15231 0310 00000000 		.4byte	.LFB22
 15232 0314 34000000 		.4byte	.LFE22
 15233 0318 00000000 		.4byte	.LFB23
 15234 031c 0A000000 		.4byte	.LFE23
 15235 0320 00000000 		.4byte	.LFB24
 15236 0324 F8000000 		.4byte	.LFE24
 15237 0328 00000000 		.4byte	.LFB25
 15238 032c 18000000 		.4byte	.LFE25
 15239 0330 00000000 		.4byte	.LFB26
 15240 0334 10000000 		.4byte	.LFE26
 15241 0338 00000000 		.4byte	.LFB27
 15242 033c 0E000000 		.4byte	.LFE27
 15243 0340 00000000 		.4byte	.LFB28
 15244 0344 50000000 		.4byte	.LFE28
 15245 0348 00000000 		.4byte	.LFB29
 15246 034c 0E000000 		.4byte	.LFE29
 15247 0350 00000000 		.4byte	.LFB30
 15248 0354 4C000000 		.4byte	.LFE30
 15249 0358 00000000 		.4byte	.LFB31
 15250 035c 0A000000 		.4byte	.LFE31
ARM GAS  C:\Users\rdn\AppData\Local\Temp\cckhx27q.s 			page 295


 15251 0360 00000000 		.4byte	.LFB38
 15252 0364 70000000 		.4byte	.LFE38
 15253 0368 00000000 		.4byte	.LFB39
 15254 036c 0A000000 		.4byte	.LFE39
 15255 0370 00000000 		.4byte	.LFB40
 15256 0374 E8000000 		.4byte	.LFE40
 15257 0378 00000000 		.4byte	.LFB41
 15258 037c 16000000 		.4byte	.LFE41
 15259 0380 00000000 		.4byte	.LFB42
 15260 0384 00020000 		.4byte	.LFE42
 15261 0388 00000000 		.4byte	.LFB50
 15262 038c 84000000 		.4byte	.LFE50
 15263 0390 00000000 		.4byte	.LFB51
 15264 0394 0A000000 		.4byte	.LFE51
 15265 0398 00000000 		.4byte	.LFB52
 15266 039c 38010000 		.4byte	.LFE52
 15267 03a0 00000000 		.4byte	.LFB53
 15268 03a4 16000000 		.4byte	.LFE53
 15269 03a8 00000000 		.4byte	.LFB54
 15270 03ac 90020000 		.4byte	.LFE54
 15271 03b0 00000000 		.4byte	0
 15272 03b4 00000000 		.4byte	0
 15273              		.section	.debug_line,"",%progbits
 15274              	.Ldebug_line0:
 15275 0000 880A0000 		.section	.debug_str,"MS",%progbits,1
 15275      02006202 
 15275      00000201 
 15275      FB0E0D00 
 15275      01010101 
 15276              	.LASF142:
 15277 0000 6C63335F 		.ascii	"lc3_max_frame_bytes\000"
 15277      6D61785F 
 15277      6672616D 
 15277      655F6279 
 15277      74657300 
 15278              	.LASF172:
 15279 0014 6C63335F 		.ascii	"lc3_nd\000"
 15279      6E6400
 15280              	.LASF30:
 15281 001b 4C43335F 		.ascii	"LC3_SRATE_24K\000"
 15281      53524154 
 15281      455F3234 
 15281      4B00
 15282              	.LASF188:
 15283 0029 6C63335F 		.ascii	"lc3_nh\000"
 15283      6E6800
 15284              	.LASF86:
 15285 0030 4C43335F 		.ascii	"LC3_BANDWIDTH_FB_HR\000"
 15285      42414E44 
 15285      57494454 
 15285      485F4642 
 15285      5F485200 
 15286              	.LASF82:
 15287 0044 4C43335F 		.ascii	"LC3_BANDWIDTH_WB\000"
 15287      42414E44 
 15287      57494454 
 15287      485F5742 
ARM GAS  C:\Users\rdn\AppData\Local\Temp\cckhx27q.s 			page 296


 15287      00
 15288              	.LASF125:
 15289 0055 72635F6F 		.ascii	"rc_order\000"
 15289      72646572 
 15289      00
 15290              	.LASF100:
 15291 005e 6C63335F 		.ascii	"lc3_bits_buffer\000"
 15291      62697473 
 15291      5F627566 
 15291      66657200 
 15292              	.LASF107:
 15293 006e 62756666 		.ascii	"buffer\000"
 15293      657200
 15294              	.LASF199:
 15295 0075 6C63335F 		.ascii	"lc3_ne_2m5\000"
 15295      6E655F32 
 15295      6D3500
 15296              	.LASF180:
 15297 0080 656E636F 		.ascii	"encode\000"
 15297      646500
 15298              	.LASF14:
 15299 0087 756E7369 		.ascii	"unsigned int\000"
 15299      676E6564 
 15299      20696E74 
 15299      00
 15300              	.LASF32:
 15301 0094 4C43335F 		.ascii	"LC3_SRATE_48K\000"
 15301      53524154 
 15301      455F3438 
 15301      4B00
 15302              	.LASF198:
 15303 00a2 6C63335F 		.ascii	"lc3_ns_2m5\000"
 15303      6E735F32 
 15303      6D3500
 15304              	.LASF7:
 15305 00ad 5F5F696E 		.ascii	"__int32_t\000"
 15305      7433325F 
 15305      7400
 15306              	.LASF152:
 15307 00b7 6C6F6164 		.ascii	"load_s16\000"
 15307      5F733136 
 15307      00
 15308              	.LASF42:
 15309 00c0 70697463 		.ascii	"pitch\000"
 15309      6800
 15310              	.LASF75:
 15311 00c6 4C43335F 		.ascii	"LC3_PCM_FORMAT_S24_3LE\000"
 15311      50434D5F 
 15311      464F524D 
 15311      41545F53 
 15311      32345F33 
 15312              	.LASF181:
 15313 00dd 73696465 		.ascii	"side\000"
 15313      00
 15314              	.LASF148:
 15315 00e2 6C63335F 		.ascii	"lc3_get_bits\000"
 15315      6765745F 
ARM GAS  C:\Users\rdn\AppData\Local\Temp\cckhx27q.s 			page 297


 15315      62697473 
 15315      00
 15316              	.LASF126:
 15317 00ef 6C63335F 		.ascii	"lc3_tns_data_t\000"
 15317      746E735F 
 15317      64617461 
 15317      5F7400
 15318              	.LASF207:
 15319 00fe 6C63335F 		.ascii	"lc3_mdct_forward\000"
 15319      6D646374 
 15319      5F666F72 
 15319      77617264 
 15319      00
 15320              	.LASF39:
 15321 010f 6C63335F 		.ascii	"lc3_ltpf_hp50_state\000"
 15321      6C747066 
 15321      5F687035 
 15321      305F7374 
 15321      61746500 
 15322              	.LASF99:
 15323 0123 6572726F 		.ascii	"error\000"
 15323      7200
 15324              	.LASF105:
 15325 0129 6D6F6465 		.ascii	"mode\000"
 15325      00
 15326              	.LASF26:
 15327 012e 6C63335F 		.ascii	"lc3_dt\000"
 15327      647400
 15328              	.LASF230:
 15329 0135 6C63335F 		.ascii	"lc3_spec_decode\000"
 15329      73706563 
 15329      5F646563 
 15329      6F646500 
 15330              	.LASF144:
 15331 0145 73725F68 		.ascii	"sr_hz\000"
 15331      7A00
 15332              	.LASF33:
 15333 014b 4C43335F 		.ascii	"LC3_SRATE_48K_HR\000"
 15333      53524154 
 15333      455F3438 
 15333      4B5F4852 
 15333      00
 15334              	.LASF228:
 15335 015c 6C63335F 		.ascii	"lc3_sns_get_data\000"
 15335      736E735F 
 15335      6765745F 
 15335      64617461 
 15335      00
 15336              	.LASF56:
 15337 016d 61747464 		.ascii	"attdet\000"
 15337      657400
 15338              	.LASF153:
 15339 0174 6C6F6164 		.ascii	"load_s24\000"
 15339      5F733234 
 15339      00
 15340              	.LASF200:
 15341 017d 6C63335F 		.ascii	"lc3_ns_4m\000"
ARM GAS  C:\Users\rdn\AppData\Local\Temp\cckhx27q.s 			page 298


 15341      6E735F34 
 15341      6D00
 15342              	.LASF89:
 15343 0187 6C63335F 		.ascii	"lc3_bits_mode\000"
 15343      62697473 
 15343      5F6D6F64 
 15343      6500
 15344              	.LASF41:
 15345 0195 61637469 		.ascii	"active\000"
 15345      766500
 15346              	.LASF44:
 15347 019c 785F3132 		.ascii	"x_12k8\000"
 15347      6B3800
 15348              	.LASF122:
 15349 01a3 6C63335F 		.ascii	"lc3_tns_data\000"
 15349      746E735F 
 15349      64617461 
 15349      00
 15350              	.LASF128:
 15351 01b0 675F6964 		.ascii	"g_idx\000"
 15351      7800
 15352              	.LASF130:
 15353 01b6 6C63335F 		.ascii	"lc3_spec_side_t\000"
 15353      73706563 
 15353      5F736964 
 15353      655F7400 
 15354              	.LASF22:
 15355 01c6 4C43335F 		.ascii	"LC3_DT_5M\000"
 15355      44545F35 
 15355      4D00
 15356              	.LASF19:
 15357 01d0 75696E74 		.ascii	"uint32_t\000"
 15357      33325F74 
 15357      00
 15358              	.LASF138:
 15359 01d9 6C63335F 		.ascii	"lc3_ldexpf\000"
 15359      6C646578 
 15359      706600
 15360              	.LASF186:
 15361 01e4 6C6F6164 		.ascii	"load\000"
 15361      00
 15362              	.LASF235:
 15363 01e9 6C63335F 		.ascii	"lc3_mdct_inverse\000"
 15363      6D646374 
 15363      5F696E76 
 15363      65727365 
 15363      00
 15364              	.LASF48:
 15365 01fa 666C6F61 		.ascii	"float\000"
 15365      7400
 15366              	.LASF177:
 15367 0200 73725F70 		.ascii	"sr_pcm_hz\000"
 15367      636D5F68 
 15367      7A00
 15368              	.LASF165:
 15369 020a 62697472 		.ascii	"bitrate\000"
 15369      61746500 
ARM GAS  C:\Users\rdn\AppData\Local\Temp\cckhx27q.s 			page 299


 15370              	.LASF158:
 15371 0212 73746F72 		.ascii	"store_s24\000"
 15371      655F7332 
 15371      3400
 15372              	.LASF55:
 15373 021c 73725F70 		.ascii	"sr_pcm\000"
 15373      636D00
 15374              	.LASF66:
 15375 0223 636F756E 		.ascii	"count\000"
 15375      7400
 15376              	.LASF97:
 15377 0229 63617272 		.ascii	"carry\000"
 15377      7900
 15378              	.LASF16:
 15379 022f 696E7431 		.ascii	"int16_t\000"
 15379      365F7400 
 15380              	.LASF13:
 15381 0237 6C6F6E67 		.ascii	"long long unsigned int\000"
 15381      206C6F6E 
 15381      6720756E 
 15381      7369676E 
 15381      65642069 
 15382              	.LASF113:
 15383 024e 6C666362 		.ascii	"lfcb\000"
 15383      00
 15384              	.LASF132:
 15385 0253 70697463 		.ascii	"pitch_present\000"
 15385      685F7072 
 15385      6573656E 
 15385      7400
 15386              	.LASF175:
 15387 0261 6C63335F 		.ascii	"lc3_encoder_size\000"
 15387      656E636F 
 15387      6465725F 
 15387      73697A65 
 15387      00
 15388              	.LASF64:
 15389 0272 6C63335F 		.ascii	"lc3_plc_state\000"
 15389      706C635F 
 15389      73746174 
 15389      6500
 15390              	.LASF170:
 15391 0280 6E627974 		.ascii	"nbytes\000"
 15391      657300
 15392              	.LASF209:
 15393 0287 6C63335F 		.ascii	"lc3_ltpf_disable\000"
 15393      6C747066 
 15393      5F646973 
 15393      61626C65 
 15393      00
 15394              	.LASF5:
 15395 0298 5F5F7569 		.ascii	"__uint16_t\000"
 15395      6E743136 
 15395      5F7400
 15396              	.LASF184:
 15397 02a3 6C63335F 		.ascii	"lc3_put_bit\000"
 15397      7075745F 
ARM GAS  C:\Users\rdn\AppData\Local\Temp\cckhx27q.s 			page 300


 15397      62697400 
 15398              	.LASF161:
 15399 02af 6C63335F 		.ascii	"lc3_hr_frame_samples\000"
 15399      68725F66 
 15399      72616D65 
 15399      5F73616D 
 15399      706C6573 
 15400              	.LASF31:
 15401 02c4 4C43335F 		.ascii	"LC3_SRATE_32K\000"
 15401      53524154 
 15401      455F3332 
 15401      4B00
 15402              	.LASF197:
 15403 02d2 73746F72 		.ascii	"store\000"
 15403      6500
 15404              	.LASF76:
 15405 02d8 4C43335F 		.ascii	"LC3_PCM_FORMAT_FLOAT\000"
 15405      50434D5F 
 15405      464F524D 
 15405      41545F46 
 15405      4C4F4154 
 15406              	.LASF171:
 15407 02ed 6C63335F 		.ascii	"lc3_resolve_bitrate\000"
 15407      7265736F 
 15407      6C76655F 
 15407      62697472 
 15407      61746500 
 15408              	.LASF37:
 15409 0301 6C63335F 		.ascii	"lc3_attdet_analysis_t\000"
 15409      61747464 
 15409      65745F61 
 15409      6E616C79 
 15409      7369735F 
 15410              	.LASF25:
 15411 0317 4C43335F 		.ascii	"LC3_NUM_DT\000"
 15411      4E554D5F 
 15411      445400
 15412              	.LASF59:
 15413 0322 78745F6F 		.ascii	"xt_off\000"
 15413      666600
 15414              	.LASF237:
 15415 0329 6C63335F 		.ascii	"lc3_ltpf_synthesize\000"
 15415      6C747066 
 15415      5F73796E 
 15415      74686573 
 15415      697A6500 
 15416              	.LASF179:
 15417 033d 6C63335F 		.ascii	"lc3_put_bits\000"
 15417      7075745F 
 15417      62697473 
 15417      00
 15418              	.LASF149:
 15419 034a 656E636F 		.ascii	"encoder\000"
 15419      64657200 
 15420              	.LASF157:
 15421 0352 6465636F 		.ascii	"decoder\000"
 15421      64657200 
ARM GAS  C:\Users\rdn\AppData\Local\Temp\cckhx27q.s 			page 301


 15422              	.LASF45:
 15423 035a 785F366B 		.ascii	"x_6k4\000"
 15423      3400
 15424              	.LASF20:
 15425 0360 696E7436 		.ascii	"int64_t\000"
 15425      345F7400 
 15426              	.LASF229:
 15427 0368 6C63335F 		.ascii	"lc3_ltpf_get_data\000"
 15427      6C747066 
 15427      5F676574 
 15427      5F646174 
 15427      6100
 15428              	.LASF110:
 15429 037a 70697463 		.ascii	"pitch_index\000"
 15429      685F696E 
 15429      64657800 
 15430              	.LASF98:
 15431 0386 63617272 		.ascii	"carry_count\000"
 15431      795F636F 
 15431      756E7400 
 15432              	.LASF57:
 15433 0392 6C747066 		.ascii	"ltpf\000"
 15433      00
 15434              	.LASF224:
 15435 0397 6C63335F 		.ascii	"lc3_get_bits_generic\000"
 15435      6765745F 
 15435      62697473 
 15435      5F67656E 
 15435      65726963 
 15436              	.LASF46:
 15437 03ac 5F426F6F 		.ascii	"_Bool\000"
 15437      6C00
 15438              	.LASF195:
 15439 03b2 73796E74 		.ascii	"synthesize\000"
 15439      68657369 
 15439      7A6500
 15440              	.LASF185:
 15441 03bd 6C63335F 		.ascii	"lc3_encode\000"
 15441      656E636F 
 15441      646500
 15442              	.LASF108:
 15443 03c8 6C63335F 		.ascii	"lc3_bits_t\000"
 15443      62697473 
 15443      5F7400
 15444              	.LASF143:
 15445 03d3 64745F75 		.ascii	"dt_us\000"
 15445      7300
 15446              	.LASF227:
 15447 03d9 6C63335F 		.ascii	"lc3_tns_get_data\000"
 15447      746E735F 
 15447      6765745F 
 15447      64617461 
 15447      00
 15448              	.LASF194:
 15449 03ea 636F6D70 		.ascii	"complete\000"
 15449      6C657465 
 15449      00
ARM GAS  C:\Users\rdn\AppData\Local\Temp\cckhx27q.s 			page 302


 15450              	.LASF73:
 15451 03f3 4C43335F 		.ascii	"LC3_PCM_FORMAT_S16\000"
 15451      50434D5F 
 15451      464F524D 
 15451      41545F53 
 15451      313600
 15452              	.LASF211:
 15453 0406 6C63335F 		.ascii	"lc3_sns_analyze\000"
 15453      736E735F 
 15453      616E616C 
 15453      797A6500 
 15454              	.LASF24:
 15455 0416 4C43335F 		.ascii	"LC3_DT_10M\000"
 15455      44545F31 
 15455      304D00
 15456              	.LASF150:
 15457 0421 5F70636D 		.ascii	"_pcm\000"
 15457      00
 15458              	.LASF134:
 15459 0426 6C63335F 		.ascii	"lc3_hr\000"
 15459      687200
 15460              	.LASF106:
 15461 042d 61636375 		.ascii	"accu\000"
 15461      00
 15462              	.LASF78:
 15463 0432 63686172 		.ascii	"char\000"
 15463      00
 15464              	.LASF233:
 15465 0437 6C63335F 		.ascii	"lc3_tns_synthesize\000"
 15465      746E735F 
 15465      73796E74 
 15465      68657369 
 15465      7A6500
 15466              	.LASF155:
 15467 044a 6C6F6164 		.ascii	"load_float\000"
 15467      5F666C6F 
 15467      617400
 15468              	.LASF62:
 15469 0455 6C63335F 		.ascii	"lc3_ltpf_synthesis\000"
 15469      6C747066 
 15469      5F73796E 
 15469      74686573 
 15469      697300
 15470              	.LASF204:
 15471 0468 6C63335F 		.ascii	"lc3_attdet_run\000"
 15471      61747464 
 15471      65745F72 
 15471      756E00
 15472              	.LASF92:
 15473 0477 6C63335F 		.ascii	"lc3_bits_accu\000"
 15473      62697473 
 15473      5F616363 
 15473      7500
 15474              	.LASF52:
 15475 0485 6E626974 		.ascii	"nbits_spare\000"
 15475      735F7370 
 15475      61726500 
ARM GAS  C:\Users\rdn\AppData\Local\Temp\cckhx27q.s 			page 303


 15476              	.LASF192:
 15477 0491 64617461 		.ascii	"data\000"
 15477      00
 15478              	.LASF168:
 15479 0496 6C63335F 		.ascii	"lc3_frame_bytes\000"
 15479      6672616D 
 15479      655F6279 
 15479      74657300 
 15480              	.LASF240:
 15481 04a6 433A5C55 		.ascii	"C:\\Users\\rdn\\Documents\\PSoC Creator\\SEES\\ble_"
 15481      73657273 
 15481      5C72646E 
 15481      5C446F63 
 15481      756D656E 
 15482 04d3 74657374 		.ascii	"test.cydsn\000"
 15482      2E637964 
 15482      736E00
 15483              	.LASF93:
 15484 04de 6E6F7665 		.ascii	"nover\000"
 15484      7200
 15485              	.LASF81:
 15486 04e4 4C43335F 		.ascii	"LC3_BANDWIDTH_NB\000"
 15486      42414E44 
 15486      57494454 
 15486      485F4E42 
 15486      00
 15487              	.LASF74:
 15488 04f5 4C43335F 		.ascii	"LC3_PCM_FORMAT_S24\000"
 15488      50434D5F 
 15488      464F524D 
 15488      41545F53 
 15488      323400
 15489              	.LASF234:
 15490 0508 6C63335F 		.ascii	"lc3_sns_synthesize\000"
 15490      736E735F 
 15490      73796E74 
 15490      68657369 
 15490      7A6500
 15491              	.LASF222:
 15492 051b 6C63335F 		.ascii	"lc3_flush_bits\000"
 15492      666C7573 
 15492      685F6269 
 15492      747300
 15493              	.LASF15:
 15494 052a 75696E74 		.ascii	"uint8_t\000"
 15494      385F7400 
 15495              	.LASF217:
 15496 0532 6C63335F 		.ascii	"lc3_spec_put_side\000"
 15496      73706563 
 15496      5F707574 
 15496      5F736964 
 15496      6500
 15497              	.LASF187:
 15498 0544 6C63335F 		.ascii	"lc3_decoder_size\000"
 15498      6465636F 
 15498      6465725F 
 15498      73697A65 
ARM GAS  C:\Users\rdn\AppData\Local\Temp\cckhx27q.s 			page 304


 15498      00
 15499              	.LASF116:
 15500 0555 6761696E 		.ascii	"gain\000"
 15500      00
 15501              	.LASF68:
 15502 055a 6C63335F 		.ascii	"lc3_plc_state_t\000"
 15502      706C635F 
 15502      73746174 
 15502      655F7400 
 15503              	.LASF103:
 15504 056a 705F6277 		.ascii	"p_bw\000"
 15504      00
 15505              	.LASF147:
 15506 056f 62697473 		.ascii	"bits\000"
 15506      00
 15507              	.LASF136:
 15508 0574 68726D6F 		.ascii	"hrmode\000"
 15508      646500
 15509              	.LASF70:
 15510 057b 78685F6F 		.ascii	"xh_off\000"
 15510      666600
 15511              	.LASF183:
 15512 0582 6E6E5F66 		.ascii	"nn_flag\000"
 15512      6C616700 
 15513              	.LASF232:
 15514 058a 6C63335F 		.ascii	"lc3_plc_suspend\000"
 15514      706C635F 
 15514      73757370 
 15514      656E6400 
 15515              	.LASF12:
 15516 059a 6C6F6E67 		.ascii	"long long int\000"
 15516      206C6F6E 
 15516      6720696E 
 15516      7400
 15517              	.LASF162:
 15518 05a8 6C63335F 		.ascii	"lc3_frame_samples\000"
 15518      6672616D 
 15518      655F7361 
 15518      6D706C65 
 15518      7300
 15519              	.LASF38:
 15520 05ba 6C63335F 		.ascii	"lc3_attdet_analysis\000"
 15520      61747464 
 15520      65745F61 
 15520      6E616C79 
 15520      73697300 
 15521              	.LASF193:
 15522 05ce 6C63335F 		.ascii	"lc3_get_bit\000"
 15522      6765745F 
 15522      62697400 
 15523              	.LASF223:
 15524 05da 6C63335F 		.ascii	"lc3_plc_reset\000"
 15524      706C635F 
 15524      72657365 
 15524      7400
 15525              	.LASF163:
 15526 05e8 6C63335F 		.ascii	"lc3_hr_frame_block_bytes\000"
ARM GAS  C:\Users\rdn\AppData\Local\Temp\cckhx27q.s 			page 305


 15526      68725F66 
 15526      72616D65 
 15526      5F626C6F 
 15526      636B5F62 
 15527              	.LASF43:
 15528 0601 68703530 		.ascii	"hp50\000"
 15528      00
 15529              	.LASF220:
 15530 0606 6C63335F 		.ascii	"lc3_ltpf_put_data\000"
 15530      6C747066 
 15530      5F707574 
 15530      5F646174 
 15530      6100
 15531              	.LASF51:
 15532 0618 6E626974 		.ascii	"nbits_off\000"
 15532      735F6F66 
 15532      6600
 15533              	.LASF169:
 15534 0622 6C63335F 		.ascii	"lc3_hr_resolve_bitrate\000"
 15534      68725F72 
 15534      65736F6C 
 15534      76655F62 
 15534      69747261 
 15535              	.LASF3:
 15536 0639 5F5F696E 		.ascii	"__int16_t\000"
 15536      7431365F 
 15536      7400
 15537              	.LASF84:
 15538 0643 4C43335F 		.ascii	"LC3_BANDWIDTH_SWB\000"
 15538      42414E44 
 15538      57494454 
 15538      485F5357 
 15538      4200
 15539              	.LASF109:
 15540 0655 6C63335F 		.ascii	"lc3_ltpf_data\000"
 15540      6C747066 
 15540      5F646174 
 15540      6100
 15541              	.LASF241:
 15542 0663 6D656D73 		.ascii	"memset\000"
 15542      657400
 15543              	.LASF203:
 15544 066a 666D696E 		.ascii	"fminf\000"
 15544      6600
 15545              	.LASF156:
 15546 0670 73746F72 		.ascii	"store_s16\000"
 15546      655F7331 
 15546      3600
 15547              	.LASF216:
 15548 067a 6C63335F 		.ascii	"lc3_bwdet_put_bw\000"
 15548      62776465 
 15548      745F7075 
 15548      745F6277 
 15548      00
 15549              	.LASF231:
 15550 068b 6C63335F 		.ascii	"lc3_check_bits\000"
 15550      63686563 
ARM GAS  C:\Users\rdn\AppData\Local\Temp\cckhx27q.s 			page 306


 15550      6B5F6269 
 15550      747300
 15551              	.LASF49:
 15552 069a 6C63335F 		.ascii	"lc3_ltpf_analysis_t\000"
 15552      6C747066 
 15552      5F616E61 
 15552      6C797369 
 15552      735F7400 
 15553              	.LASF95:
 15554 06ae 72616E67 		.ascii	"range\000"
 15554      6500
 15555              	.LASF212:
 15556 06b4 6C63335F 		.ascii	"lc3_tns_analyze\000"
 15556      746E735F 
 15556      616E616C 
 15556      797A6500 
 15557              	.LASF167:
 15558 06c4 6C63335F 		.ascii	"lc3_hr_frame_bytes\000"
 15558      68725F66 
 15558      72616D65 
 15558      5F627974 
 15558      657300
 15559              	.LASF214:
 15560 06d7 6C63335F 		.ascii	"lc3_put_bits_generic\000"
 15560      7075745F 
 15560      62697473 
 15560      5F67656E 
 15560      65726963 
 15561              	.LASF154:
 15562 06ec 6C6F6164 		.ascii	"load_s24_3le\000"
 15562      5F733234 
 15562      5F336C65 
 15562      00
 15563              	.LASF219:
 15564 06f9 6C63335F 		.ascii	"lc3_sns_put_data\000"
 15564      736E735F 
 15564      7075745F 
 15564      64617461 
 15564      00
 15565              	.LASF65:
 15566 070a 73656564 		.ascii	"seed\000"
 15566      00
 15567              	.LASF87:
 15568 070f 4C43335F 		.ascii	"LC3_BANDWIDTH_UB_HR\000"
 15568      42414E44 
 15568      57494454 
 15568      485F5542 
 15568      5F485200 
 15569              	.LASF96:
 15570 0723 63616368 		.ascii	"cache\000"
 15570      6500
 15571              	.LASF127:
 15572 0729 6C63335F 		.ascii	"lc3_spec_side\000"
 15572      73706563 
 15572      5F736964 
 15572      6500
 15573              	.LASF54:
ARM GAS  C:\Users\rdn\AppData\Local\Temp\cckhx27q.s 			page 307


 15574 0737 6C63335F 		.ascii	"lc3_encoder\000"
 15574      656E636F 
 15574      64657200 
 15575              	.LASF104:
 15576 0743 6C63335F 		.ascii	"lc3_bits\000"
 15576      62697473 
 15576      00
 15577              	.LASF69:
 15578 074c 6C63335F 		.ascii	"lc3_decoder\000"
 15578      6465636F 
 15578      64657200 
 15579              	.LASF72:
 15580 0758 6C63335F 		.ascii	"lc3_pcm_format\000"
 15580      70636D5F 
 15580      666F726D 
 15580      617400
 15581              	.LASF114:
 15582 0767 68666362 		.ascii	"hfcb\000"
 15582      00
 15583              	.LASF11:
 15584 076c 5F5F696E 		.ascii	"__int64_t\000"
 15584      7436345F 
 15584      7400
 15585              	.LASF63:
 15586 0776 6C63335F 		.ascii	"lc3_ltpf_synthesis_t\000"
 15586      6C747066 
 15586      5F73796E 
 15586      74686573 
 15586      69735F74 
 15587              	.LASF77:
 15588 078b 6C6F6E67 		.ascii	"long double\000"
 15588      20646F75 
 15588      626C6500 
 15589              	.LASF17:
 15590 0797 75696E74 		.ascii	"uint16_t\000"
 15590      31365F74 
 15590      00
 15591              	.LASF176:
 15592 07a0 6C63335F 		.ascii	"lc3_hr_setup_encoder\000"
 15592      68725F73 
 15592      65747570 
 15592      5F656E63 
 15592      6F646572 
 15593              	.LASF221:
 15594 07b5 6C63335F 		.ascii	"lc3_spec_encode\000"
 15594      73706563 
 15594      5F656E63 
 15594      6F646500 
 15595              	.LASF189:
 15596 07c5 6C63335F 		.ascii	"lc3_hr_setup_decoder\000"
 15596      68725F73 
 15596      65747570 
 15596      5F646563 
 15596      6F646572 
 15597              	.LASF35:
 15598 07da 4C43335F 		.ascii	"LC3_NUM_SRATE\000"
 15598      4E554D5F 
ARM GAS  C:\Users\rdn\AppData\Local\Temp\cckhx27q.s 			page 308


 15598      53524154 
 15598      4500
 15599              	.LASF159:
 15600 07e8 73746F72 		.ascii	"store_s24_3le\000"
 15600      655F7332 
 15600      345F336C 
 15600      6500
 15601              	.LASF60:
 15602 07f6 78735F6F 		.ascii	"xs_off\000"
 15602      666600
 15603              	.LASF23:
 15604 07fd 4C43335F 		.ascii	"LC3_DT_7M5\000"
 15604      44545F37 
 15604      4D3500
 15605              	.LASF164:
 15606 0808 6E636861 		.ascii	"nchannels\000"
 15606      6E6E656C 
 15606      7300
 15607              	.LASF4:
 15608 0812 73686F72 		.ascii	"short int\000"
 15608      7420696E 
 15608      7400
 15609              	.LASF21:
 15610 081c 4C43335F 		.ascii	"LC3_DT_2M5\000"
 15610      44545F32 
 15610      4D3500
 15611              	.LASF191:
 15612 0827 6465636F 		.ascii	"decode\000"
 15612      646500
 15613              	.LASF160:
 15614 082e 73746F72 		.ascii	"store_float\000"
 15614      655F666C 
 15614      6F617400 
 15615              	.LASF8:
 15616 083a 6C6F6E67 		.ascii	"long int\000"
 15616      20696E74 
 15616      00
 15617              	.LASF115:
 15618 0843 73686170 		.ascii	"shape\000"
 15618      6500
 15619              	.LASF225:
 15620 0849 6C63335F 		.ascii	"lc3_bwdet_get_bw\000"
 15620      62776465 
 15620      745F6765 
 15620      745F6277 
 15620      00
 15621              	.LASF53:
 15622 085a 6C63335F 		.ascii	"lc3_spec_analysis_t\000"
 15622      73706563 
 15622      5F616E61 
 15622      6C797369 
 15622      735F7400 
 15623              	.LASF238:
 15624 086e 474E5520 		.ascii	"GNU C11 5.4.1 20160609 (release) [ARM/embedded-5-br"
 15624      43313120 
 15624      352E342E 
 15624      31203230 
ARM GAS  C:\Users\rdn\AppData\Local\Temp\cckhx27q.s 			page 309


 15624      31363036 
 15625 08a1 616E6368 		.ascii	"anch revision 237715] -mcpu=cortex-m4 -mfloat-abi=s"
 15625      20726576 
 15625      6973696F 
 15625      6E203233 
 15625      37373135 
 15626 08d4 6F667466 		.ascii	"oftfp -mfpu=fpv4-sp-d16 -mthumb -g -Os -ffunction-s"
 15626      70202D6D 
 15626      6670753D 
 15626      66707634 
 15626      2D73702D 
 15627 0907 65637469 		.ascii	"ections -ffat-lto-objects\000"
 15627      6F6E7320 
 15627      2D666661 
 15627      742D6C74 
 15627      6F2D6F62 
 15628              	.LASF202:
 15629 0921 666D6178 		.ascii	"fmaxf\000"
 15629      6600
 15630              	.LASF91:
 15631 0927 4C43335F 		.ascii	"LC3_BITS_MODE_WRITE\000"
 15631      42495453 
 15631      5F4D4F44 
 15631      455F5752 
 15631      49544500 
 15632              	.LASF145:
 15633 093b 6C63335F 		.ascii	"lc3_hr_encoder_size\000"
 15633      68725F65 
 15633      6E636F64 
 15633      65725F73 
 15633      697A6500 
 15634              	.LASF137:
 15635 094f 7265736F 		.ascii	"resolve_srate\000"
 15635      6C76655F 
 15635      73726174 
 15635      6500
 15636              	.LASF2:
 15637 095d 5F5F7569 		.ascii	"__uint8_t\000"
 15637      6E74385F 
 15637      7400
 15638              	.LASF101:
 15639 0967 73746172 		.ascii	"start\000"
 15639      7400
 15640              	.LASF29:
 15641 096d 4C43335F 		.ascii	"LC3_SRATE_16K\000"
 15641      53524154 
 15641      455F3136 
 15641      4B00
 15642              	.LASF205:
 15643 097b 6C63335F 		.ascii	"lc3_ltpf_analyse\000"
 15643      6C747066 
 15643      5F616E61 
 15643      6C797365 
 15643      00
 15644              	.LASF166:
 15645 098c 6C63335F 		.ascii	"lc3_frame_bock_bytes\000"
 15645      6672616D 
ARM GAS  C:\Users\rdn\AppData\Local\Temp\cckhx27q.s 			page 310


 15645      655F626F 
 15645      636B5F62 
 15645      79746573 
 15646              	.LASF123:
 15647 09a1 6E66696C 		.ascii	"nfilters\000"
 15647      74657273 
 15647      00
 15648              	.LASF135:
 15649 09aa 7265736F 		.ascii	"resolve_dt\000"
 15649      6C76655F 
 15649      647400
 15650              	.LASF173:
 15651 09b5 6C63335F 		.ascii	"lc3_hr_delay_samples\000"
 15651      68725F64 
 15651      656C6179 
 15651      5F73616D 
 15651      706C6573 
 15652              	.LASF151:
 15653 09ca 73747269 		.ascii	"stride\000"
 15653      646500
 15654              	.LASF124:
 15655 09d1 6C70635F 		.ascii	"lpc_weighting\000"
 15655      77656967 
 15655      6874696E 
 15655      6700
 15656              	.LASF206:
 15657 09df 6D656D6D 		.ascii	"memmove\000"
 15657      6F766500 
 15658              	.LASF83:
 15659 09e7 4C43335F 		.ascii	"LC3_BANDWIDTH_SSWB\000"
 15659      42414E44 
 15659      57494454 
 15659      485F5353 
 15659      574200
 15660              	.LASF47:
 15661 09fa 73697A65 		.ascii	"sizetype\000"
 15661      74797065 
 15661      00
 15662              	.LASF140:
 15663 0a03 6C63335F 		.ascii	"lc3_ne\000"
 15663      6E6500
 15664              	.LASF10:
 15665 0a0a 6C6F6E67 		.ascii	"long unsigned int\000"
 15665      20756E73 
 15665      69676E65 
 15665      6420696E 
 15665      7400
 15666              	.LASF208:
 15667 0a1c 6C63335F 		.ascii	"lc3_energy_compute\000"
 15667      656E6572 
 15667      67795F63 
 15667      6F6D7075 
 15667      746500
 15668              	.LASF210:
 15669 0a2f 6C63335F 		.ascii	"lc3_bwdet_run\000"
 15669      62776465 
 15669      745F7275 
ARM GAS  C:\Users\rdn\AppData\Local\Temp\cckhx27q.s 			page 311


 15669      6E00
 15670              	.LASF67:
 15671 0a3d 616C7068 		.ascii	"alpha\000"
 15671      6100
 15672              	.LASF133:
 15673 0a43 6C63335F 		.ascii	"lc3_ns\000"
 15673      6E7300
 15674              	.LASF139:
 15675 0a4a 6C63335F 		.ascii	"lc3_nt\000"
 15675      6E7400
 15676              	.LASF18:
 15677 0a51 696E7433 		.ascii	"int32_t\000"
 15677      325F7400 
 15678              	.LASF112:
 15679 0a59 6C63335F 		.ascii	"lc3_sns_data\000"
 15679      736E735F 
 15679      64617461 
 15679      00
 15680              	.LASF119:
 15681 0a66 6C735F61 		.ascii	"ls_a\000"
 15681      00
 15682              	.LASF120:
 15683 0a6b 6C735F62 		.ascii	"ls_b\000"
 15683      00
 15684              	.LASF129:
 15685 0a70 6C73625F 		.ascii	"lsb_mode\000"
 15685      6D6F6465 
 15685      00
 15686              	.LASF131:
 15687 0a79 73696465 		.ascii	"side_data\000"
 15687      5F646174 
 15687      6100
 15688              	.LASF27:
 15689 0a83 6C63335F 		.ascii	"lc3_srate\000"
 15689      73726174 
 15689      6500
 15690              	.LASF50:
 15691 0a8d 6C63335F 		.ascii	"lc3_spec_analysis\000"
 15691      73706563 
 15691      5F616E61 
 15691      6C797369 
 15691      7300
 15692              	.LASF1:
 15693 0a9f 756E7369 		.ascii	"unsigned char\000"
 15693      676E6564 
 15693      20636861 
 15693      7200
 15694              	.LASF9:
 15695 0aad 5F5F7569 		.ascii	"__uint32_t\000"
 15695      6E743332 
 15695      5F7400
 15696              	.LASF71:
 15697 0ab8 78675F6F 		.ascii	"xg_off\000"
 15697      666600
 15698              	.LASF178:
 15699 0abf 6C63335F 		.ascii	"lc3_setup_encoder\000"
 15699      73657475 
ARM GAS  C:\Users\rdn\AppData\Local\Temp\cckhx27q.s 			page 312


 15699      705F656E 
 15699      636F6465 
 15699      7200
 15700              	.LASF190:
 15701 0ad1 6C63335F 		.ascii	"lc3_setup_decoder\000"
 15701      73657475 
 15701      705F6465 
 15701      636F6465 
 15701      7200
 15702              	.LASF80:
 15703 0ae3 6C63335F 		.ascii	"lc3_bandwidth\000"
 15703      62616E64 
 15703      77696474 
 15703      6800
 15704              	.LASF111:
 15705 0af1 6C63335F 		.ascii	"lc3_ltpf_data_t\000"
 15705      6C747066 
 15705      5F646174 
 15705      615F7400 
 15706              	.LASF90:
 15707 0b01 4C43335F 		.ascii	"LC3_BITS_MODE_READ\000"
 15707      42495453 
 15707      5F4D4F44 
 15707      455F5245 
 15707      414400
 15708              	.LASF174:
 15709 0b14 6C63335F 		.ascii	"lc3_delay_samples\000"
 15709      64656C61 
 15709      795F7361 
 15709      6D706C65 
 15709      7300
 15710              	.LASF61:
 15711 0b26 78645F6F 		.ascii	"xd_off\000"
 15711      666600
 15712              	.LASF146:
 15713 0b2d 6C63335F 		.ascii	"lc3_hr_decoder_size\000"
 15713      68725F64 
 15713      65636F64 
 15713      65725F73 
 15713      697A6500 
 15714              	.LASF121:
 15715 0b41 6C63335F 		.ascii	"lc3_sns_data_t\000"
 15715      736E735F 
 15715      64617461 
 15715      5F7400
 15716              	.LASF239:
 15717 0b50 2E2E5C2E 		.ascii	"..\\..\\..\\liblc3\\src\\lc3.c\000"
 15717      2E5C2E2E 
 15717      5C6C6962 
 15717      6C63335C 
 15717      7372635C 
 15718              	.LASF182:
 15719 0b6a 616E616C 		.ascii	"analyze\000"
 15719      797A6500 
 15720              	.LASF28:
 15721 0b72 4C43335F 		.ascii	"LC3_SRATE_8K\000"
 15721      53524154 
ARM GAS  C:\Users\rdn\AppData\Local\Temp\cckhx27q.s 			page 313


 15721      455F384B 
 15721      00
 15722              	.LASF0:
 15723 0b7f 7369676E 		.ascii	"signed char\000"
 15723      65642063 
 15723      68617200 
 15724              	.LASF6:
 15725 0b8b 73686F72 		.ascii	"short unsigned int\000"
 15725      7420756E 
 15725      7369676E 
 15725      65642069 
 15725      6E7400
 15726              	.LASF218:
 15727 0b9e 6C63335F 		.ascii	"lc3_tns_put_data\000"
 15727      746E735F 
 15727      7075745F 
 15727      64617461 
 15727      00
 15728              	.LASF236:
 15729 0baf 6C63335F 		.ascii	"lc3_plc_synthesize\000"
 15729      706C635F 
 15729      73796E74 
 15729      68657369 
 15729      7A6500
 15730              	.LASF36:
 15731 0bc2 705F6174 		.ascii	"p_att\000"
 15731      7400
 15732              	.LASF85:
 15733 0bc8 4C43335F 		.ascii	"LC3_BANDWIDTH_FB\000"
 15733      42414E44 
 15733      57494454 
 15733      485F4642 
 15733      00
 15734              	.LASF88:
 15735 0bd9 4C43335F 		.ascii	"LC3_NUM_BANDWIDTH\000"
 15735      4E554D5F 
 15735      42414E44 
 15735      57494454 
 15735      4800
 15736              	.LASF213:
 15737 0beb 6C63335F 		.ascii	"lc3_spec_analyze\000"
 15737      73706563 
 15737      5F616E61 
 15737      6C797A65 
 15737      00
 15738              	.LASF79:
 15739 0bfc 646F7562 		.ascii	"double\000"
 15739      6C6500
 15740              	.LASF34:
 15741 0c03 4C43335F 		.ascii	"LC3_SRATE_96K_HR\000"
 15741      53524154 
 15741      455F3936 
 15741      4B5F4852 
 15741      00
 15742              	.LASF94:
 15743 0c14 6C63335F 		.ascii	"lc3_bits_ac\000"
 15743      62697473 
ARM GAS  C:\Users\rdn\AppData\Local\Temp\cckhx27q.s 			page 314


 15743      5F616300 
 15744              	.LASF141:
 15745 0c20 6C63335F 		.ascii	"lc3_min_frame_bytes\000"
 15745      6D696E5F 
 15745      6672616D 
 15745      655F6279 
 15745      74657300 
 15746              	.LASF201:
 15747 0c34 6C63335F 		.ascii	"lc3_frame_bytes_hr_lim\000"
 15747      6672616D 
 15747      655F6279 
 15747      7465735F 
 15747      68725F6C 
 15748              	.LASF58:
 15749 0c4b 73706563 		.ascii	"spec\000"
 15749      00
 15750              	.LASF196:
 15751 0c50 6C63335F 		.ascii	"lc3_decode\000"
 15751      6465636F 
 15751      646500
 15752              	.LASF226:
 15753 0c5b 6C63335F 		.ascii	"lc3_spec_get_side\000"
 15753      73706563 
 15753      5F676574 
 15753      5F736964 
 15753      6500
 15754              	.LASF117:
 15755 0c6d 6964785F 		.ascii	"idx_a\000"
 15755      6100
 15756              	.LASF118:
 15757 0c73 6964785F 		.ascii	"idx_b\000"
 15757      6200
 15758              	.LASF215:
 15759 0c79 6C63335F 		.ascii	"lc3_setup_bits\000"
 15759      73657475 
 15759      705F6269 
 15759      747300
 15760              	.LASF40:
 15761 0c88 6C63335F 		.ascii	"lc3_ltpf_analysis\000"
 15761      6C747066 
 15761      5F616E61 
 15761      6C797369 
 15761      7300
 15762              	.LASF102:
 15763 0c9a 705F6677 		.ascii	"p_fw\000"
 15763      00
 15764              		.ident	"GCC: (GNU Tools for ARM Embedded Processors) 5.4.1 20160609 (release) [ARM/embedded-5-bran
