ARM GAS  C:\Users\rdn\AppData\Local\Temp\ccIOjLNc.s 			page 1


   1              		.syntax unified
   2              		.cpu cortex-m4
   3              		.eabi_attribute 27, 1
   4              		.fpu fpv4-sp-d16
   5              		.eabi_attribute 20, 1
   6              		.eabi_attribute 21, 1
   7              		.eabi_attribute 23, 3
   8              		.eabi_attribute 24, 1
   9              		.eabi_attribute 25, 1
  10              		.eabi_attribute 26, 1
  11              		.eabi_attribute 30, 4
  12              		.eabi_attribute 34, 1
  13              		.eabi_attribute 18, 4
  14              		.thumb
  15              		.syntax unified
  16              		.file	"ltpf.c"
  17              		.text
  18              	.Ltext0:
  19              		.cfi_sections	.debug_frame
  20              		.section	.text.resample_x192k_12k8,"ax",%progbits
  21              		.align	1
  22              		.thumb
  23              		.thumb_func
  24              		.type	resample_x192k_12k8, %function
  25              	resample_x192k_12k8:
  26              	.LFB22:
  27              		.file 1 "..\\..\\..\\liblc3\\src\\ltpf.c"
   1:..\..\..\liblc3\src/ltpf.c **** /******************************************************************************
   2:..\..\..\liblc3\src/ltpf.c ****  *
   3:..\..\..\liblc3\src/ltpf.c ****  *  Copyright 2022 Google LLC
   4:..\..\..\liblc3\src/ltpf.c ****  *
   5:..\..\..\liblc3\src/ltpf.c ****  *  Licensed under the Apache License, Version 2.0 (the "License");
   6:..\..\..\liblc3\src/ltpf.c ****  *  you may not use this file except in compliance with the License.
   7:..\..\..\liblc3\src/ltpf.c ****  *  You may obtain a copy of the License at:
   8:..\..\..\liblc3\src/ltpf.c ****  *
   9:..\..\..\liblc3\src/ltpf.c ****  *  http://www.apache.org/licenses/LICENSE-2.0
  10:..\..\..\liblc3\src/ltpf.c ****  *
  11:..\..\..\liblc3\src/ltpf.c ****  *  Unless required by applicable law or agreed to in writing, software
  12:..\..\..\liblc3\src/ltpf.c ****  *  distributed under the License is distributed on an "AS IS" BASIS,
  13:..\..\..\liblc3\src/ltpf.c ****  *  WITHOUT WARRANTIES OR CONDITIONS OF ANY KIND, either express or implied.
  14:..\..\..\liblc3\src/ltpf.c ****  *  See the License for the specific language governing permissions and
  15:..\..\..\liblc3\src/ltpf.c ****  *  limitations under the License.
  16:..\..\..\liblc3\src/ltpf.c ****  *
  17:..\..\..\liblc3\src/ltpf.c ****  ******************************************************************************/
  18:..\..\..\liblc3\src/ltpf.c **** 
  19:..\..\..\liblc3\src/ltpf.c **** #include "ltpf.h"
  20:..\..\..\liblc3\src/ltpf.c **** #include "tables.h"
  21:..\..\..\liblc3\src/ltpf.c **** 
  22:..\..\..\liblc3\src/ltpf.c **** #include "ltpf_neon.h"
  23:..\..\..\liblc3\src/ltpf.c **** #include "ltpf_arm.h"
  24:..\..\..\liblc3\src/ltpf.c **** 
  25:..\..\..\liblc3\src/ltpf.c **** 
  26:..\..\..\liblc3\src/ltpf.c **** /* ----------------------------------------------------------------------------
  27:..\..\..\liblc3\src/ltpf.c ****  *  Resampling
  28:..\..\..\liblc3\src/ltpf.c ****  * -------------------------------------------------------------------------- */
  29:..\..\..\liblc3\src/ltpf.c **** 
  30:..\..\..\liblc3\src/ltpf.c **** /**
ARM GAS  C:\Users\rdn\AppData\Local\Temp\ccIOjLNc.s 			page 2


  31:..\..\..\liblc3\src/ltpf.c ****  * Resampling coefficients
  32:..\..\..\liblc3\src/ltpf.c ****  * The coefficients, in fixed Q15, are reordered by phase for each source
  33:..\..\..\liblc3\src/ltpf.c ****  * samplerate (coefficient matrix transposed)
  34:..\..\..\liblc3\src/ltpf.c ****  */
  35:..\..\..\liblc3\src/ltpf.c **** 
  36:..\..\..\liblc3\src/ltpf.c **** #ifndef resample_8k_12k8
  37:..\..\..\liblc3\src/ltpf.c **** static const int16_t h_8k_12k8_q15[8*10] = {
  38:..\..\..\liblc3\src/ltpf.c ****       214,   417, -1052, -4529, 26233, -4529, -1052,   417,   214,     0,
  39:..\..\..\liblc3\src/ltpf.c ****       180,     0, -1522, -2427, 24506, -5289,     0,   763,   156,   -28,
  40:..\..\..\liblc3\src/ltpf.c ****        92,  -323, -1361,     0, 19741, -3885,  1317,   861,     0,   -61,
  41:..\..\..\liblc3\src/ltpf.c ****         0,  -457,  -752,  1873, 13068,     0,  2389,   598,  -213,   -79,
  42:..\..\..\liblc3\src/ltpf.c ****       -61,  -398,     0,  2686,  5997,  5997,  2686,     0,  -398,   -61,
  43:..\..\..\liblc3\src/ltpf.c ****       -79,  -213,   598,  2389,     0, 13068,  1873,  -752,  -457,     0,
  44:..\..\..\liblc3\src/ltpf.c ****       -61,     0,   861,  1317, -3885, 19741,     0, -1361,  -323,    92,
  45:..\..\..\liblc3\src/ltpf.c ****       -28,   156,   763,     0, -5289, 24506, -2427, -1522,     0,   180,
  46:..\..\..\liblc3\src/ltpf.c **** };
  47:..\..\..\liblc3\src/ltpf.c **** #endif /* resample_8k_12k8 */
  48:..\..\..\liblc3\src/ltpf.c **** 
  49:..\..\..\liblc3\src/ltpf.c **** #ifndef resample_16k_12k8
  50:..\..\..\liblc3\src/ltpf.c **** static const int16_t h_16k_12k8_q15[4*20] = {
  51:..\..\..\liblc3\src/ltpf.c ****       -61,   214,  -398,   417,     0, -1052,  2686, -4529,  5997, 26233,
  52:..\..\..\liblc3\src/ltpf.c ****      5997, -4529,  2686, -1052,     0,   417,  -398,   214,   -61,     0,
  53:..\..\..\liblc3\src/ltpf.c **** 
  54:..\..\..\liblc3\src/ltpf.c ****       -79,   180,  -213,     0,   598, -1522,  2389, -2427,     0, 24506,
  55:..\..\..\liblc3\src/ltpf.c ****     13068, -5289,  1873,     0,  -752,   763,  -457,   156,     0,   -28,
  56:..\..\..\liblc3\src/ltpf.c **** 
  57:..\..\..\liblc3\src/ltpf.c ****       -61,    92,     0,  -323,   861, -1361,  1317,     0, -3885, 19741,
  58:..\..\..\liblc3\src/ltpf.c ****     19741, -3885,     0,  1317, -1361,   861,  -323,     0,    92,   -61,
  59:..\..\..\liblc3\src/ltpf.c **** 
  60:..\..\..\liblc3\src/ltpf.c ****       -28,     0,   156,  -457,   763,  -752,     0,  1873, -5289, 13068,
  61:..\..\..\liblc3\src/ltpf.c ****     24506,     0, -2427,  2389, -1522,   598,     0,  -213,   180,   -79,
  62:..\..\..\liblc3\src/ltpf.c **** };
  63:..\..\..\liblc3\src/ltpf.c **** #endif /* resample_16k_12k8 */
  64:..\..\..\liblc3\src/ltpf.c **** 
  65:..\..\..\liblc3\src/ltpf.c **** #ifndef resample_32k_12k8
  66:..\..\..\liblc3\src/ltpf.c **** static const int16_t h_32k_12k8_q15[2*40] = {
  67:..\..\..\liblc3\src/ltpf.c ****       -30,   -31,    46,   107,     0,  -199,  -162,   209,   430,     0,
  68:..\..\..\liblc3\src/ltpf.c ****      -681,  -526,   658,  1343,     0, -2264, -1943,  2999,  9871, 13116,
  69:..\..\..\liblc3\src/ltpf.c ****      9871,  2999, -1943, -2264,     0,  1343,   658,  -526,  -681,     0,
  70:..\..\..\liblc3\src/ltpf.c ****       430,   209,  -162,  -199,     0,   107,    46,   -31,   -30,     0,
  71:..\..\..\liblc3\src/ltpf.c **** 
  72:..\..\..\liblc3\src/ltpf.c ****       -14,   -39,     0,    90,    78,  -106,  -229,     0,   382,   299,
  73:..\..\..\liblc3\src/ltpf.c ****      -376,  -761,     0,  1194,   937, -1214, -2644,     0,  6534, 12253,
  74:..\..\..\liblc3\src/ltpf.c ****     12253,  6534,     0, -2644, -1214,   937,  1194,     0,  -761,  -376,
  75:..\..\..\liblc3\src/ltpf.c ****       299,   382,     0,  -229,  -106,    78,    90,     0,   -39,   -14,
  76:..\..\..\liblc3\src/ltpf.c **** };
  77:..\..\..\liblc3\src/ltpf.c **** #endif /* resample_32k_12k8 */
  78:..\..\..\liblc3\src/ltpf.c **** 
  79:..\..\..\liblc3\src/ltpf.c **** #ifndef resample_24k_12k8
  80:..\..\..\liblc3\src/ltpf.c **** static const int16_t h_24k_12k8_q15[8*30] = {
  81:..\..\..\liblc3\src/ltpf.c ****       -50,    19,   143,   -93,  -290,   278,   485,  -658,  -701,  1396,
  82:..\..\..\liblc3\src/ltpf.c ****       901, -3019, -1042, 10276, 17488, 10276, -1042, -3019,   901,  1396,
  83:..\..\..\liblc3\src/ltpf.c ****      -701,  -658,   485,   278,  -290,   -93,   143,    19,   -50,     0,
  84:..\..\..\liblc3\src/ltpf.c **** 
  85:..\..\..\liblc3\src/ltpf.c ****       -46,     0,   141,   -45,  -305,   185,   543,  -501,  -854,  1153,
  86:..\..\..\liblc3\src/ltpf.c ****      1249, -2619, -1908,  8712, 17358, 11772,     0, -3319,   480,  1593,
  87:..\..\..\liblc3\src/ltpf.c ****      -504,  -796,   399,   367,  -261,  -142,   138,    40,   -52,    -5,
ARM GAS  C:\Users\rdn\AppData\Local\Temp\ccIOjLNc.s 			page 3


  88:..\..\..\liblc3\src/ltpf.c **** 
  89:..\..\..\liblc3\src/ltpf.c ****       -41,   -17,   133,     0,  -304,    91,   574,  -334,  -959,   878,
  90:..\..\..\liblc3\src/ltpf.c ****      1516, -2143, -2590,  7118, 16971, 13161,  1202, -3495,     0,  1731,
  91:..\..\..\liblc3\src/ltpf.c ****      -267,  -908,   287,   445,  -215,  -188,   125,    62,   -52,   -12,
  92:..\..\..\liblc3\src/ltpf.c **** 
  93:..\..\..\liblc3\src/ltpf.c ****       -34,   -30,   120,    41,  -291,     0,   577,  -164, -1015,   585,
  94:..\..\..\liblc3\src/ltpf.c ****      1697, -1618, -3084,  5534, 16337, 14406,  2544, -3526,  -523,  1800,
  95:..\..\..\liblc3\src/ltpf.c ****         0,  -985,   152,   509,  -156,  -230,   104,    83,   -48,   -19,
  96:..\..\..\liblc3\src/ltpf.c **** 
  97:..\..\..\liblc3\src/ltpf.c ****       -26,   -41,   103,    76,  -265,   -83,   554,     0, -1023,   288,
  98:..\..\..\liblc3\src/ltpf.c ****      1791, -1070, -3393,  3998, 15474, 15474,  3998, -3393, -1070,  1791,
  99:..\..\..\liblc3\src/ltpf.c ****       288, -1023,     0,   554,   -83,  -265,    76,   103,   -41,   -26,
 100:..\..\..\liblc3\src/ltpf.c **** 
 101:..\..\..\liblc3\src/ltpf.c ****       -19,   -48,    83,   104,  -230,  -156,   509,   152,  -985,     0,
 102:..\..\..\liblc3\src/ltpf.c ****      1800,  -523, -3526,  2544, 14406, 16337,  5534, -3084, -1618,  1697,
 103:..\..\..\liblc3\src/ltpf.c ****       585, -1015,  -164,   577,     0,  -291,    41,   120,   -30,   -34,
 104:..\..\..\liblc3\src/ltpf.c **** 
 105:..\..\..\liblc3\src/ltpf.c ****       -12,   -52,    62,   125,  -188,  -215,   445,   287,  -908,  -267,
 106:..\..\..\liblc3\src/ltpf.c ****      1731,     0, -3495,  1202, 13161, 16971,  7118, -2590, -2143,  1516,
 107:..\..\..\liblc3\src/ltpf.c ****       878,  -959,  -334,   574,    91,  -304,     0,   133,   -17,   -41,
 108:..\..\..\liblc3\src/ltpf.c **** 
 109:..\..\..\liblc3\src/ltpf.c ****        -5,   -52,    40,   138,  -142,  -261,   367,   399,  -796,  -504,
 110:..\..\..\liblc3\src/ltpf.c ****      1593,   480, -3319,     0, 11772, 17358,  8712, -1908, -2619,  1249,
 111:..\..\..\liblc3\src/ltpf.c ****      1153,  -854,  -501,   543,   185,  -305,   -45,   141,     0,   -46,
 112:..\..\..\liblc3\src/ltpf.c **** };
 113:..\..\..\liblc3\src/ltpf.c **** #endif /* resample_24k_12k8 */
 114:..\..\..\liblc3\src/ltpf.c **** 
 115:..\..\..\liblc3\src/ltpf.c **** #ifndef resample_48k_12k8
 116:..\..\..\liblc3\src/ltpf.c **** static const int16_t h_48k_12k8_q15[4*60] = {
 117:..\..\..\liblc3\src/ltpf.c ****       -13,   -25,   -20,    10,    51,    71,    38,   -47,  -133,  -145,
 118:..\..\..\liblc3\src/ltpf.c ****       -42,   139,   277,   242,     0,  -329,  -511,  -351,   144,   698,
 119:..\..\..\liblc3\src/ltpf.c ****       895,   450,  -535, -1510, -1697,  -521,  1999,  5138,  7737,  8744,
 120:..\..\..\liblc3\src/ltpf.c ****      7737,  5138,  1999,  -521, -1697, -1510,  -535,   450,   895,   698,
 121:..\..\..\liblc3\src/ltpf.c ****       144,  -351,  -511,  -329,     0,   242,   277,   139,   -42,  -145,
 122:..\..\..\liblc3\src/ltpf.c ****      -133,   -47,    38,    71,    51,    10,   -20,   -25,   -13,     0,
 123:..\..\..\liblc3\src/ltpf.c **** 
 124:..\..\..\liblc3\src/ltpf.c ****        -9,   -23,   -24,     0,    41,    71,    52,   -23,  -115,  -152,
 125:..\..\..\liblc3\src/ltpf.c ****       -78,    92,   254,   272,    76,  -251,  -493,  -427,     0,   576,
 126:..\..\..\liblc3\src/ltpf.c ****       900,   624,  -262, -1309, -1763,  -954,  1272,  4356,  7203,  8679,
 127:..\..\..\liblc3\src/ltpf.c ****      8169,  5886,  2767,     0, -1542, -1660,  -809,   240,   848,   796,
 128:..\..\..\liblc3\src/ltpf.c ****       292,  -252,  -507,  -398,   -82,   199,   288,   183,     0,  -130,
 129:..\..\..\liblc3\src/ltpf.c ****      -145,   -71,    20,    69,    60,    20,   -15,   -26,   -17,    -3,
 130:..\..\..\liblc3\src/ltpf.c **** 
 131:..\..\..\liblc3\src/ltpf.c ****        -6,   -20,   -26,    -8,    31,    67,    62,     0,   -94,  -152,
 132:..\..\..\liblc3\src/ltpf.c ****      -108,    45,   223,   287,   143,  -167,  -454,  -480,  -134,   439,
 133:..\..\..\liblc3\src/ltpf.c ****       866,   758,     0, -1071, -1748, -1295,   601,  3559,  6580,  8485,
 134:..\..\..\liblc3\src/ltpf.c ****      8485,  6580,  3559,   601, -1295, -1748, -1071,     0,   758,   866,
 135:..\..\..\liblc3\src/ltpf.c ****       439,  -134,  -480,  -454,  -167,   143,   287,   223,    45,  -108,
 136:..\..\..\liblc3\src/ltpf.c ****      -152,   -94,     0,    62,    67,    31,    -8,   -26,   -20,    -6,
 137:..\..\..\liblc3\src/ltpf.c **** 
 138:..\..\..\liblc3\src/ltpf.c ****        -3,   -17,   -26,   -15,    20,    60,    69,    20,   -71,  -145,
 139:..\..\..\liblc3\src/ltpf.c ****      -130,     0,   183,   288,   199,   -82,  -398,  -507,  -252,   292,
 140:..\..\..\liblc3\src/ltpf.c ****       796,   848,   240,  -809, -1660, -1542,     0,  2767,  5886,  8169,
 141:..\..\..\liblc3\src/ltpf.c ****      8679,  7203,  4356,  1272,  -954, -1763, -1309,  -262,   624,   900,
 142:..\..\..\liblc3\src/ltpf.c ****       576,     0,  -427,  -493,  -251,    76,   272,   254,    92,   -78,
 143:..\..\..\liblc3\src/ltpf.c ****      -152,  -115,   -23,    52,    71,    41,     0,   -24,   -23,    -9,
 144:..\..\..\liblc3\src/ltpf.c **** };
ARM GAS  C:\Users\rdn\AppData\Local\Temp\ccIOjLNc.s 			page 4


 145:..\..\..\liblc3\src/ltpf.c **** #endif /* resample_48k_12k8 */
 146:..\..\..\liblc3\src/ltpf.c **** 
 147:..\..\..\liblc3\src/ltpf.c **** #ifndef resample_96k_12k8
 148:..\..\..\liblc3\src/ltpf.c **** static const int16_t h_96k_12k8_q15[2*120] = {
 149:..\..\..\liblc3\src/ltpf.c ****        -3,    -7,   -10,   -13,   -13,   -10,    -4,     5,    15,    26,
 150:..\..\..\liblc3\src/ltpf.c ****        33,    36,    31,    19,     0,   -23,   -47,   -66,   -76,   -73,
 151:..\..\..\liblc3\src/ltpf.c ****       -54,   -21,    23,    70,   111,   139,   143,   121,    72,     0,
 152:..\..\..\liblc3\src/ltpf.c ****       -84,  -165,  -227,  -256,  -240,  -175,   -67,    72,   219,   349,
 153:..\..\..\liblc3\src/ltpf.c ****       433,   448,   379,   225,     0,  -268,  -536,  -755,  -874,  -848,
 154:..\..\..\liblc3\src/ltpf.c ****      -648,  -260,   301,  1000,  1780,  2569,  3290,  3869,  4243,  4372,
 155:..\..\..\liblc3\src/ltpf.c ****      4243,  3869,  3290,  2569,  1780,  1000,   301,  -260,  -648,  -848,
 156:..\..\..\liblc3\src/ltpf.c ****      -874,  -755,  -536,  -268,     0,   225,   379,   448,   433,   349,
 157:..\..\..\liblc3\src/ltpf.c ****       219,    72,   -67,  -175,  -240,  -256,  -227,  -165,   -84,     0,
 158:..\..\..\liblc3\src/ltpf.c ****        72,   121,   143,   139,   111,    70,    23,   -21,   -54,   -73,
 159:..\..\..\liblc3\src/ltpf.c ****       -76,   -66,   -47,   -23,     0,    19,    31,    36,    33,    26,
 160:..\..\..\liblc3\src/ltpf.c ****        15,     5,    -4,   -10,   -13,   -13,   -10,    -7,    -3,     0,
 161:..\..\..\liblc3\src/ltpf.c **** 
 162:..\..\..\liblc3\src/ltpf.c ****        -1,    -5,    -8,   -12,   -13,   -12,    -8,     0,    10,    21,
 163:..\..\..\liblc3\src/ltpf.c ****        30,    35,    34,    26,    10,   -11,   -35,   -58,   -73,   -76,
 164:..\..\..\liblc3\src/ltpf.c ****       -65,   -39,     0,    46,    92,   127,   144,   136,   100,    38,
 165:..\..\..\liblc3\src/ltpf.c ****       -41,  -125,  -199,  -246,  -254,  -214,  -126,     0,   146,   288,
 166:..\..\..\liblc3\src/ltpf.c ****       398,   450,   424,   312,   120,  -131,  -405,  -655,  -830,  -881,
 167:..\..\..\liblc3\src/ltpf.c ****      -771,  -477,     0,   636,  1384,  2178,  2943,  3601,  4084,  4340,
 168:..\..\..\liblc3\src/ltpf.c ****      4340,  4084,  3601,  2943,  2178,  1384,   636,     0,  -477,  -771,
 169:..\..\..\liblc3\src/ltpf.c ****      -881,  -830,  -655,  -405,  -131,   120,   312,   424,   450,   398,
 170:..\..\..\liblc3\src/ltpf.c ****       288,   146,     0,  -126,  -214,  -254,  -246,  -199,  -125,   -41,
 171:..\..\..\liblc3\src/ltpf.c ****        38,   100,   136,   144,   127,    92,    46,     0,   -39,   -65,
 172:..\..\..\liblc3\src/ltpf.c ****       -76,   -73,   -58,   -35,   -11,    10,    26,    34,    35,    30,
 173:..\..\..\liblc3\src/ltpf.c ****        21,    10,     0,    -8,   -12,   -13,   -12,    -8,    -5,    -1,
 174:..\..\..\liblc3\src/ltpf.c **** };
 175:..\..\..\liblc3\src/ltpf.c **** #endif /* resample_96k_12k8 */
 176:..\..\..\liblc3\src/ltpf.c **** 
 177:..\..\..\liblc3\src/ltpf.c **** 
 178:..\..\..\liblc3\src/ltpf.c **** /**
 179:..\..\..\liblc3\src/ltpf.c ****  * High-pass 50Hz filtering, at 12.8 KHz samplerate
 180:..\..\..\liblc3\src/ltpf.c ****  * hp50            Biquad filter state
 181:..\..\..\liblc3\src/ltpf.c ****  * xn              Input sample, in fixed Q30
 182:..\..\..\liblc3\src/ltpf.c ****  * return          Filtered sample, in fixed Q30
 183:..\..\..\liblc3\src/ltpf.c ****  */
 184:..\..\..\liblc3\src/ltpf.c **** LC3_HOT static inline int32_t filter_hp50(
 185:..\..\..\liblc3\src/ltpf.c ****     struct lc3_ltpf_hp50_state *hp50, int32_t xn)
 186:..\..\..\liblc3\src/ltpf.c **** {
 187:..\..\..\liblc3\src/ltpf.c ****     int32_t yn;
 188:..\..\..\liblc3\src/ltpf.c **** 
 189:..\..\..\liblc3\src/ltpf.c ****     const int32_t a1 = -2110217691, a2 = 1037111617;
 190:..\..\..\liblc3\src/ltpf.c ****     const int32_t b1 = -2110535566, b2 = 1055267782;
 191:..\..\..\liblc3\src/ltpf.c **** 
 192:..\..\..\liblc3\src/ltpf.c ****     yn       = (hp50->s1 + (int64_t)xn * b2) >> 30;
 193:..\..\..\liblc3\src/ltpf.c ****     hp50->s1 = (hp50->s2 + (int64_t)xn * b1 - (int64_t)yn * a1);
 194:..\..\..\liblc3\src/ltpf.c ****     hp50->s2 = (           (int64_t)xn * b2 - (int64_t)yn * a2);
 195:..\..\..\liblc3\src/ltpf.c **** 
 196:..\..\..\liblc3\src/ltpf.c ****     return yn;
 197:..\..\..\liblc3\src/ltpf.c **** }
 198:..\..\..\liblc3\src/ltpf.c **** 
 199:..\..\..\liblc3\src/ltpf.c **** /**
 200:..\..\..\liblc3\src/ltpf.c ****  * Resample from 8 / 16 / 32 KHz to 12.8 KHz Template
 201:..\..\..\liblc3\src/ltpf.c ****  * p               Resampling factor with compared to 192 KHz (8, 4 or 2)
ARM GAS  C:\Users\rdn\AppData\Local\Temp\ccIOjLNc.s 			page 5


 202:..\..\..\liblc3\src/ltpf.c ****  * h               Arrange by phase coefficients table
 203:..\..\..\liblc3\src/ltpf.c ****  * hp50            High-Pass biquad filter state
 204:..\..\..\liblc3\src/ltpf.c ****  * x               [-d..-1] Previous, [0..ns-1] Current samples, Q15
 205:..\..\..\liblc3\src/ltpf.c ****  * y, n            [0..n-1] Output `n` processed samples, Q14
 206:..\..\..\liblc3\src/ltpf.c ****  *
 207:..\..\..\liblc3\src/ltpf.c ****  * The `x` vector is aligned on 32 bits
 208:..\..\..\liblc3\src/ltpf.c ****  * The number of previous samples `d` accessed on `x` is :
 209:..\..\..\liblc3\src/ltpf.c ****  *   d: { 10, 20, 40 } - 1 for resampling factors 8, 4 and 2.
 210:..\..\..\liblc3\src/ltpf.c ****  */
 211:..\..\..\liblc3\src/ltpf.c **** #if !defined(resample_8k_12k8) || !defined(resample_16k_12k8) \
 212:..\..\..\liblc3\src/ltpf.c ****     || !defined(resample_32k_12k8)
 213:..\..\..\liblc3\src/ltpf.c **** LC3_HOT static inline void resample_x64k_12k8(const int p, const int16_t *h,
 214:..\..\..\liblc3\src/ltpf.c ****     struct lc3_ltpf_hp50_state *hp50, const int16_t *x, int16_t *y, int n)
 215:..\..\..\liblc3\src/ltpf.c **** {
 216:..\..\..\liblc3\src/ltpf.c ****     const int w = 2*(40 / p);
 217:..\..\..\liblc3\src/ltpf.c **** 
 218:..\..\..\liblc3\src/ltpf.c ****     x -= w - 1;
 219:..\..\..\liblc3\src/ltpf.c **** 
 220:..\..\..\liblc3\src/ltpf.c ****     for (int i = 0; i < 5*n; i += 5) {
 221:..\..\..\liblc3\src/ltpf.c ****         const int16_t *hn = h + (i % p) * w;
 222:..\..\..\liblc3\src/ltpf.c ****         const int16_t *xn = x + (i / p);
 223:..\..\..\liblc3\src/ltpf.c ****         int32_t un = 0;
 224:..\..\..\liblc3\src/ltpf.c **** 
 225:..\..\..\liblc3\src/ltpf.c ****         for (int k = 0; k < w; k += 10) {
 226:..\..\..\liblc3\src/ltpf.c ****             un += *(xn++) * *(hn++);
 227:..\..\..\liblc3\src/ltpf.c ****             un += *(xn++) * *(hn++);
 228:..\..\..\liblc3\src/ltpf.c ****             un += *(xn++) * *(hn++);
 229:..\..\..\liblc3\src/ltpf.c ****             un += *(xn++) * *(hn++);
 230:..\..\..\liblc3\src/ltpf.c ****             un += *(xn++) * *(hn++);
 231:..\..\..\liblc3\src/ltpf.c ****             un += *(xn++) * *(hn++);
 232:..\..\..\liblc3\src/ltpf.c ****             un += *(xn++) * *(hn++);
 233:..\..\..\liblc3\src/ltpf.c ****             un += *(xn++) * *(hn++);
 234:..\..\..\liblc3\src/ltpf.c ****             un += *(xn++) * *(hn++);
 235:..\..\..\liblc3\src/ltpf.c ****             un += *(xn++) * *(hn++);
 236:..\..\..\liblc3\src/ltpf.c ****         }
 237:..\..\..\liblc3\src/ltpf.c **** 
 238:..\..\..\liblc3\src/ltpf.c ****         int32_t yn = filter_hp50(hp50, un);
 239:..\..\..\liblc3\src/ltpf.c ****         *(y++) = (yn + (1 << 15)) >> 16;
 240:..\..\..\liblc3\src/ltpf.c ****     }
 241:..\..\..\liblc3\src/ltpf.c **** }
 242:..\..\..\liblc3\src/ltpf.c **** #endif
 243:..\..\..\liblc3\src/ltpf.c **** 
 244:..\..\..\liblc3\src/ltpf.c **** /**
 245:..\..\..\liblc3\src/ltpf.c ****  * Resample from 24 / 48 KHz to 12.8 KHz Template
 246:..\..\..\liblc3\src/ltpf.c ****  * p               Resampling factor with compared to 192 KHz (8 or 4)
 247:..\..\..\liblc3\src/ltpf.c ****  * h               Arrange by phase coefficients table
 248:..\..\..\liblc3\src/ltpf.c ****  * hp50            High-Pass biquad filter state
 249:..\..\..\liblc3\src/ltpf.c ****  * x               [-d..-1] Previous, [0..ns-1] Current samples, Q15
 250:..\..\..\liblc3\src/ltpf.c ****  * y, n            [0..n-1] Output `n` processed samples, Q14
 251:..\..\..\liblc3\src/ltpf.c ****  *
 252:..\..\..\liblc3\src/ltpf.c ****  * The `x` vector is aligned on 32 bits
 253:..\..\..\liblc3\src/ltpf.c ****  * The number of previous samples `d` accessed on `x` is :
 254:..\..\..\liblc3\src/ltpf.c ****  *   d: { 30, 60 } - 1 for resampling factors 8 and 4.
 255:..\..\..\liblc3\src/ltpf.c ****  */
 256:..\..\..\liblc3\src/ltpf.c **** #if !defined(resample_24k_12k8) || !defined(resample_48k_12k8) \
 257:..\..\..\liblc3\src/ltpf.c ****     || !defined(resample_96k_12k8)
 258:..\..\..\liblc3\src/ltpf.c **** LC3_HOT static inline void resample_x192k_12k8(const int p, const int16_t *h,
ARM GAS  C:\Users\rdn\AppData\Local\Temp\ccIOjLNc.s 			page 6


 259:..\..\..\liblc3\src/ltpf.c ****     struct lc3_ltpf_hp50_state *hp50, const int16_t *x, int16_t *y, int n)
 260:..\..\..\liblc3\src/ltpf.c **** {
  28              		.loc 1 260 0
  29              		.cfi_startproc
  30              		@ args = 8, pretend = 0, frame = 8
  31              		@ frame_needed = 0, uses_anonymous_args = 0
  32              	.LVL0:
  33 0000 2DE9F74F 		push	{r0, r1, r2, r4, r5, r6, r7, r8, r9, r10, fp, lr}
  34              		.cfi_def_cfa_offset 48
  35              		.cfi_offset 4, -36
  36              		.cfi_offset 5, -32
  37              		.cfi_offset 6, -28
  38              		.cfi_offset 7, -24
  39              		.cfi_offset 8, -20
  40              		.cfi_offset 9, -16
  41              		.cfi_offset 10, -12
  42              		.cfi_offset 11, -8
  43              		.cfi_offset 14, -4
  44              		.loc 1 260 0
  45 0004 8946     		mov	r9, r1
  46 0006 9846     		mov	r8, r3
  47 0008 0D99     		ldr	r1, [sp, #52]
  48              	.LVL1:
 261:..\..\..\liblc3\src/ltpf.c ****     const int w = 2*(120 / p);
  49              		.loc 1 261 0
  50 000a 7823     		movs	r3, #120
  51              	.LVL2:
  52 000c 93FBF0F3 		sdiv	r3, r3, r0
  53 0010 5B00     		lsls	r3, r3, #1
  54              	.LVL3:
 262:..\..\..\liblc3\src/ltpf.c **** 
 263:..\..\..\liblc3\src/ltpf.c ****     x -= w - 1;
  55              		.loc 1 263 0
  56 0012 5C00     		lsls	r4, r3, #1
  57              	.LBB22:
 264:..\..\..\liblc3\src/ltpf.c **** 
 265:..\..\..\liblc3\src/ltpf.c ****     for (int i = 0; i < 15*n; i += 15) {
  58              		.loc 1 265 0
  59 0014 C1EB011A 		rsb	r10, r1, r1, lsl #4
  60              	.LBE22:
 263:..\..\..\liblc3\src/ltpf.c **** 
  61              		.loc 1 263 0
  62 0018 C4F1020B 		rsb	fp, r4, #2
  63              	.LVL4:
  64              	.LBB31:
  65              		.loc 1 265 0
  66 001c 0021     		movs	r1, #0
  67              	.LVL5:
  68              	.L2:
  69              		.loc 1 265 0 is_stmt 0 discriminator 1
  70 001e 5145     		cmp	r1, r10
  71 0020 80F29F80 		bge	.L7
  72              	.LVL6:
  73 0024 91FBF0F6 		sdiv	r6, r1, r0
  74 0028 00FB1617 		mls	r7, r0, r6, r1
  75 002c 5F43     		muls	r7, r3, r7
  76 002e 0BEB4606 		add	r6, fp, r6, lsl #1
ARM GAS  C:\Users\rdn\AppData\Local\Temp\ccIOjLNc.s 			page 7


  77              	.LBB23:
  78              	.LBB24:
 266:..\..\..\liblc3\src/ltpf.c ****         const int16_t *hn = h + (i % p) * w;
 267:..\..\..\liblc3\src/ltpf.c ****         const int16_t *xn = x + (i / p);
 268:..\..\..\liblc3\src/ltpf.c ****         int32_t un = 0;
 269:..\..\..\liblc3\src/ltpf.c **** 
 270:..\..\..\liblc3\src/ltpf.c ****         for (int k = 0; k < w; k += 15) {
  79              		.loc 1 270 0 is_stmt 1
  80 0032 4FF0000E 		mov	lr, #0
  81 0036 09EB4707 		add	r7, r9, r7, lsl #1
  82 003a 4644     		add	r6, r6, r8
  83              	.LBE24:
 268:..\..\..\liblc3\src/ltpf.c **** 
  84              		.loc 1 268 0
  85 003c F446     		mov	ip, lr
  86              	.LVL7:
  87              	.L3:
  88              	.LBB25:
  89              		.loc 1 270 0 discriminator 1
  90 003e 9E45     		cmp	lr, r3
  91 0040 07F11E07 		add	r7, r7, #30
  92 0044 06F11E06 		add	r6, r6, #30
  93              	.LVL8:
  94 0048 5CDA     		bge	.L8
  95              	.LVL9:
 271:..\..\..\liblc3\src/ltpf.c ****             un += *(xn++) * *(hn++);
  96              		.loc 1 271 0 discriminator 3
  97 004a 37F91E4C 		ldrsh	r4, [r7, #-30]
  98 004e 36F91E5C 		ldrsh	r5, [r6, #-30]
  99              	.LVL10:
 100 0052 05FB04C5 		mla	r5, r5, r4, ip
 101              	.LVL11:
 272:..\..\..\liblc3\src/ltpf.c ****             un += *(xn++) * *(hn++);
 102              		.loc 1 272 0 discriminator 3
 103 0056 36F91CCC 		ldrsh	ip, [r6, #-28]
 104              	.LVL12:
 105 005a 37F91C4C 		ldrsh	r4, [r7, #-28]
 106 005e 0CFB0454 		mla	r4, ip, r4, r5
 107              	.LVL13:
 273:..\..\..\liblc3\src/ltpf.c ****             un += *(xn++) * *(hn++);
 108              		.loc 1 273 0 discriminator 3
 109 0062 37F91A5C 		ldrsh	r5, [r7, #-26]
 110 0066 36F91ACC 		ldrsh	ip, [r6, #-26]
 111              	.LVL14:
 112 006a 0CFB054C 		mla	ip, ip, r5, r4
 113              	.LVL15:
 274:..\..\..\liblc3\src/ltpf.c ****             un += *(xn++) * *(hn++);
 114              		.loc 1 274 0 discriminator 3
 115 006e 37F9184C 		ldrsh	r4, [r7, #-24]
 116 0072 36F9185C 		ldrsh	r5, [r6, #-24]
 117              	.LVL16:
 118 0076 05FB04C5 		mla	r5, r5, r4, ip
 119              	.LVL17:
 275:..\..\..\liblc3\src/ltpf.c ****             un += *(xn++) * *(hn++);
 120              		.loc 1 275 0 discriminator 3
 121 007a 36F916CC 		ldrsh	ip, [r6, #-22]
 122              	.LVL18:
ARM GAS  C:\Users\rdn\AppData\Local\Temp\ccIOjLNc.s 			page 8


 123 007e 37F9164C 		ldrsh	r4, [r7, #-22]
 124 0082 0CFB0454 		mla	r4, ip, r4, r5
 125              	.LVL19:
 276:..\..\..\liblc3\src/ltpf.c ****             un += *(xn++) * *(hn++);
 126              		.loc 1 276 0 discriminator 3
 127 0086 37F9145C 		ldrsh	r5, [r7, #-20]
 128 008a 36F914CC 		ldrsh	ip, [r6, #-20]
 129              	.LVL20:
 130 008e 0CFB054C 		mla	ip, ip, r5, r4
 131              	.LVL21:
 277:..\..\..\liblc3\src/ltpf.c ****             un += *(xn++) * *(hn++);
 132              		.loc 1 277 0 discriminator 3
 133 0092 37F9124C 		ldrsh	r4, [r7, #-18]
 134 0096 36F9125C 		ldrsh	r5, [r6, #-18]
 135              	.LVL22:
 136 009a 05FB04C5 		mla	r5, r5, r4, ip
 137              	.LVL23:
 278:..\..\..\liblc3\src/ltpf.c ****             un += *(xn++) * *(hn++);
 138              		.loc 1 278 0 discriminator 3
 139 009e 36F910CC 		ldrsh	ip, [r6, #-16]
 140              	.LVL24:
 141 00a2 37F9104C 		ldrsh	r4, [r7, #-16]
 142 00a6 0CFB0454 		mla	r4, ip, r4, r5
 143              	.LVL25:
 279:..\..\..\liblc3\src/ltpf.c ****             un += *(xn++) * *(hn++);
 144              		.loc 1 279 0 discriminator 3
 145 00aa 37F90E5C 		ldrsh	r5, [r7, #-14]
 146 00ae 36F90ECC 		ldrsh	ip, [r6, #-14]
 147              	.LVL26:
 148 00b2 0CFB054C 		mla	ip, ip, r5, r4
 149              	.LVL27:
 280:..\..\..\liblc3\src/ltpf.c ****             un += *(xn++) * *(hn++);
 150              		.loc 1 280 0 discriminator 3
 151 00b6 37F90C4C 		ldrsh	r4, [r7, #-12]
 152 00ba 36F90C5C 		ldrsh	r5, [r6, #-12]
 153              	.LVL28:
 154 00be 05FB04C5 		mla	r5, r5, r4, ip
 155              	.LVL29:
 281:..\..\..\liblc3\src/ltpf.c ****             un += *(xn++) * *(hn++);
 156              		.loc 1 281 0 discriminator 3
 157 00c2 36F90ACC 		ldrsh	ip, [r6, #-10]
 158              	.LVL30:
 159 00c6 37F90A4C 		ldrsh	r4, [r7, #-10]
 160 00ca 0CFB0454 		mla	r4, ip, r4, r5
 161              	.LVL31:
 282:..\..\..\liblc3\src/ltpf.c ****             un += *(xn++) * *(hn++);
 162              		.loc 1 282 0 discriminator 3
 163 00ce 37F9085C 		ldrsh	r5, [r7, #-8]
 164 00d2 36F908CC 		ldrsh	ip, [r6, #-8]
 165              	.LVL32:
 166 00d6 0CFB054C 		mla	ip, ip, r5, r4
 167              	.LVL33:
 283:..\..\..\liblc3\src/ltpf.c ****             un += *(xn++) * *(hn++);
 168              		.loc 1 283 0 discriminator 3
 169 00da 37F9064C 		ldrsh	r4, [r7, #-6]
 170 00de 36F9065C 		ldrsh	r5, [r6, #-6]
 171              	.LVL34:
ARM GAS  C:\Users\rdn\AppData\Local\Temp\ccIOjLNc.s 			page 9


 172 00e2 05FB04C5 		mla	r5, r5, r4, ip
 173              	.LVL35:
 284:..\..\..\liblc3\src/ltpf.c ****             un += *(xn++) * *(hn++);
 174              		.loc 1 284 0 discriminator 3
 175 00e6 36F904CC 		ldrsh	ip, [r6, #-4]
 176              	.LVL36:
 177 00ea 37F9044C 		ldrsh	r4, [r7, #-4]
 178 00ee 0CFB0454 		mla	r4, ip, r4, r5
 179              	.LVL37:
 285:..\..\..\liblc3\src/ltpf.c ****             un += *(xn++) * *(hn++);
 180              		.loc 1 285 0 discriminator 3
 181 00f2 36F902CC 		ldrsh	ip, [r6, #-2]
 182              	.LVL38:
 183 00f6 37F9025C 		ldrsh	r5, [r7, #-2]
 270:..\..\..\liblc3\src/ltpf.c ****             un += *(xn++) * *(hn++);
 184              		.loc 1 270 0 discriminator 3
 185 00fa 0EF10F0E 		add	lr, lr, #15
 186              	.LVL39:
 187              		.loc 1 285 0 discriminator 3
 188 00fe 0CFB054C 		mla	ip, ip, r5, r4
 189              	.LVL40:
 190 0102 9CE7     		b	.L3
 191              	.LVL41:
 192              	.L8:
 193              	.LBE25:
 194              	.LBB26:
 195              	.LBB27:
 192:..\..\..\liblc3\src/ltpf.c ****     hp50->s1 = (hp50->s2 + (int64_t)xn * b1 - (int64_t)yn * a1);
 196              		.loc 1 192 0
 197 0104 184C     		ldr	r4, .L9
 198 0106 8CFB0445 		smull	r4, r5, ip, r4
 199 010a CDE90045 		strd	r4, [sp]
 200 010e DDE90067 		ldrd	r6, [sp]
 201              	.LVL42:
 202 0112 D2E90045 		ldrd	r4, [r2]
 203 0116 3619     		adds	r6, r6, r4
 204 0118 6F41     		adcs	r7, r7, r5
 193:..\..\..\liblc3\src/ltpf.c ****     hp50->s2 = (           (int64_t)xn * b2 - (int64_t)yn * a2);
 205              		.loc 1 193 0
 206 011a D2E90245 		ldrd	r4, [r2, #8]
 192:..\..\..\liblc3\src/ltpf.c ****     hp50->s1 = (hp50->s2 + (int64_t)xn * b1 - (int64_t)yn * a1);
 207              		.loc 1 192 0
 208 011e 4FEA967E 		lsr	lr, r6, #30
 209              	.LVL43:
 193:..\..\..\liblc3\src/ltpf.c ****     hp50->s2 = (           (int64_t)xn * b2 - (int64_t)yn * a2);
 210              		.loc 1 193 0
 211 0122 124E     		ldr	r6, .L9+4
 212 0124 C6FB0C45 		smlal	r4, r5, r6, ip
 213 0128 A6F18D66 		sub	r6, r6, #73924608
 214 012c A6F58D26 		sub	r6, r6, #288768
 192:..\..\..\liblc3\src/ltpf.c ****     hp50->s1 = (hp50->s2 + (int64_t)xn * b1 - (int64_t)yn * a1);
 215              		.loc 1 192 0
 216 0130 4EEA870E 		orr	lr, lr, r7, lsl #2
 217              	.LVL44:
 193:..\..\..\liblc3\src/ltpf.c ****     hp50->s2 = (           (int64_t)xn * b2 - (int64_t)yn * a2);
 218              		.loc 1 193 0
 219 0134 A6F29726 		subw	r6, r6, #663
ARM GAS  C:\Users\rdn\AppData\Local\Temp\ccIOjLNc.s 			page 10


 220 0138 C6FB0E45 		smlal	r4, r5, r6, lr
 194:..\..\..\liblc3\src/ltpf.c **** 
 221              		.loc 1 194 0
 222 013c DDE90067 		ldrd	r6, [sp]
 193:..\..\..\liblc3\src/ltpf.c ****     hp50->s2 = (           (int64_t)xn * b2 - (int64_t)yn * a2);
 223              		.loc 1 193 0
 224 0140 C2E90045 		strd	r4, [r2]
 194:..\..\..\liblc3\src/ltpf.c **** 
 225              		.loc 1 194 0
 226 0144 0A4C     		ldr	r4, .L9+8
 227 0146 C4FB0E67 		smlal	r6, r7, r4, lr
 228              	.LBE27:
 229              	.LBE26:
 286:..\..\..\liblc3\src/ltpf.c ****         }
 287:..\..\..\liblc3\src/ltpf.c **** 
 288:..\..\..\liblc3\src/ltpf.c ****         int32_t yn = filter_hp50(hp50, un);
 289:..\..\..\liblc3\src/ltpf.c ****         *(y++) = (yn + (1 << 15)) >> 16;
 230              		.loc 1 289 0
 231 014a 0C9C     		ldr	r4, [sp, #48]
 232 014c 0EF5004E 		add	lr, lr, #32768
 233              	.LVL45:
 234 0150 4FEA2E4E 		asr	lr, lr, #16
 235              	.LVL46:
 236              	.LBB29:
 237              	.LBB28:
 194:..\..\..\liblc3\src/ltpf.c **** 
 238              		.loc 1 194 0
 239 0154 C2E90267 		strd	r6, [r2, #8]
 240              	.LVL47:
 241              	.LBE28:
 242              	.LBE29:
 243              		.loc 1 289 0
 244 0158 24F802EB 		strh	lr, [r4], #2	@ movhi
 245              	.LVL48:
 246              	.LBE23:
 265:..\..\..\liblc3\src/ltpf.c ****         const int16_t *hn = h + (i % p) * w;
 247              		.loc 1 265 0
 248 015c 0F31     		adds	r1, r1, #15
 249              	.LVL49:
 250              	.LBB30:
 251              		.loc 1 289 0
 252 015e 0C94     		str	r4, [sp, #48]
 253              	.LVL50:
 254 0160 5DE7     		b	.L2
 255              	.LVL51:
 256              	.L7:
 257              	.LBE30:
 258              	.LBE31:
 290:..\..\..\liblc3\src/ltpf.c ****     }
 291:..\..\..\liblc3\src/ltpf.c **** }
 259              		.loc 1 291 0
 260 0162 03B0     		add	sp, sp, #12
 261              		.cfi_def_cfa_offset 36
 262              		@ sp needed
 263 0164 BDE8F08F 		pop	{r4, r5, r6, r7, r8, r9, r10, fp, pc}
 264              	.LVL52:
 265              	.L10:
ARM GAS  C:\Users\rdn\AppData\Local\Temp\ccIOjLNc.s 			page 11


 266              		.align	2
 267              	.L9:
 268 0168 C61BE63E 		.word	1055267782
 269 016c 72C83382 		.word	-2110535566
 270 0170 BFEE2EC2 		.word	-1037111617
 271              		.cfi_endproc
 272              	.LFE22:
 273              		.size	resample_x192k_12k8, .-resample_x192k_12k8
 274              		.section	.text.resample_24k_12k8,"ax",%progbits
 275              		.align	1
 276              		.thumb
 277              		.thumb_func
 278              		.type	resample_24k_12k8, %function
 279              	resample_24k_12k8:
 280              	.LFB26:
 292:..\..\..\liblc3\src/ltpf.c **** #endif
 293:..\..\..\liblc3\src/ltpf.c **** 
 294:..\..\..\liblc3\src/ltpf.c **** /**
 295:..\..\..\liblc3\src/ltpf.c ****  * Resample from 8 Khz to 12.8 KHz
 296:..\..\..\liblc3\src/ltpf.c ****  * hp50            High-Pass biquad filter state
 297:..\..\..\liblc3\src/ltpf.c ****  * x               [-10..-1] Previous, [0..ns-1] Current samples, Q15
 298:..\..\..\liblc3\src/ltpf.c ****  * y, n            [0..n-1] Output `n` processed samples, Q14
 299:..\..\..\liblc3\src/ltpf.c ****  *
 300:..\..\..\liblc3\src/ltpf.c ****  * The `x` vector is aligned on 32 bits
 301:..\..\..\liblc3\src/ltpf.c ****  */
 302:..\..\..\liblc3\src/ltpf.c **** #ifndef resample_8k_12k8
 303:..\..\..\liblc3\src/ltpf.c **** LC3_HOT static void resample_8k_12k8(
 304:..\..\..\liblc3\src/ltpf.c ****     struct lc3_ltpf_hp50_state *hp50, const int16_t *x, int16_t *y, int n)
 305:..\..\..\liblc3\src/ltpf.c **** {
 306:..\..\..\liblc3\src/ltpf.c ****     resample_x64k_12k8(8, h_8k_12k8_q15, hp50, x, y, n);
 307:..\..\..\liblc3\src/ltpf.c **** }
 308:..\..\..\liblc3\src/ltpf.c **** #endif /* resample_8k_12k8 */
 309:..\..\..\liblc3\src/ltpf.c **** 
 310:..\..\..\liblc3\src/ltpf.c **** /**
 311:..\..\..\liblc3\src/ltpf.c ****  * Resample from 16 Khz to 12.8 KHz
 312:..\..\..\liblc3\src/ltpf.c ****  * hp50            High-Pass biquad filter state
 313:..\..\..\liblc3\src/ltpf.c ****  * x               [-20..-1] Previous, [0..ns-1] Current samples, in fixed Q15
 314:..\..\..\liblc3\src/ltpf.c ****  * y, n            [0..n-1] Output `n` processed samples, in fixed Q14
 315:..\..\..\liblc3\src/ltpf.c ****  *
 316:..\..\..\liblc3\src/ltpf.c ****  * The `x` vector is aligned on 32 bits
 317:..\..\..\liblc3\src/ltpf.c ****  */
 318:..\..\..\liblc3\src/ltpf.c **** #ifndef resample_16k_12k8
 319:..\..\..\liblc3\src/ltpf.c **** LC3_HOT static void resample_16k_12k8(
 320:..\..\..\liblc3\src/ltpf.c ****     struct lc3_ltpf_hp50_state *hp50, const int16_t *x, int16_t *y, int n)
 321:..\..\..\liblc3\src/ltpf.c **** {
 322:..\..\..\liblc3\src/ltpf.c ****     resample_x64k_12k8(4, h_16k_12k8_q15, hp50, x, y, n);
 323:..\..\..\liblc3\src/ltpf.c **** }
 324:..\..\..\liblc3\src/ltpf.c **** #endif /* resample_16k_12k8 */
 325:..\..\..\liblc3\src/ltpf.c **** 
 326:..\..\..\liblc3\src/ltpf.c **** /**
 327:..\..\..\liblc3\src/ltpf.c ****  * Resample from 32 Khz to 12.8 KHz
 328:..\..\..\liblc3\src/ltpf.c ****  * hp50            High-Pass biquad filter state
 329:..\..\..\liblc3\src/ltpf.c ****  * x               [-30..-1] Previous, [0..ns-1] Current samples, in fixed Q15
 330:..\..\..\liblc3\src/ltpf.c ****  * y, n            [0..n-1] Output `n` processed samples, in fixed Q14
 331:..\..\..\liblc3\src/ltpf.c ****  *
 332:..\..\..\liblc3\src/ltpf.c ****  * The `x` vector is aligned on 32 bits
 333:..\..\..\liblc3\src/ltpf.c ****  */
ARM GAS  C:\Users\rdn\AppData\Local\Temp\ccIOjLNc.s 			page 12


 334:..\..\..\liblc3\src/ltpf.c **** #ifndef resample_32k_12k8
 335:..\..\..\liblc3\src/ltpf.c **** LC3_HOT static void resample_32k_12k8(
 336:..\..\..\liblc3\src/ltpf.c ****     struct lc3_ltpf_hp50_state *hp50, const int16_t *x, int16_t *y, int n)
 337:..\..\..\liblc3\src/ltpf.c **** {
 338:..\..\..\liblc3\src/ltpf.c ****     resample_x64k_12k8(2, h_32k_12k8_q15, hp50, x, y, n);
 339:..\..\..\liblc3\src/ltpf.c **** }
 340:..\..\..\liblc3\src/ltpf.c **** #endif /* resample_32k_12k8 */
 341:..\..\..\liblc3\src/ltpf.c **** 
 342:..\..\..\liblc3\src/ltpf.c **** /**
 343:..\..\..\liblc3\src/ltpf.c ****  * Resample from 24 Khz to 12.8 KHz
 344:..\..\..\liblc3\src/ltpf.c ****  * hp50            High-Pass biquad filter state
 345:..\..\..\liblc3\src/ltpf.c ****  * x               [-30..-1] Previous, [0..ns-1] Current samples, in fixed Q15
 346:..\..\..\liblc3\src/ltpf.c ****  * y, n            [0..n-1] Output `n` processed samples, in fixed Q14
 347:..\..\..\liblc3\src/ltpf.c ****  *
 348:..\..\..\liblc3\src/ltpf.c ****  * The `x` vector is aligned on 32 bits
 349:..\..\..\liblc3\src/ltpf.c ****  */
 350:..\..\..\liblc3\src/ltpf.c **** #ifndef resample_24k_12k8
 351:..\..\..\liblc3\src/ltpf.c **** LC3_HOT static void resample_24k_12k8(
 352:..\..\..\liblc3\src/ltpf.c ****     struct lc3_ltpf_hp50_state *hp50, const int16_t *x, int16_t *y, int n)
 353:..\..\..\liblc3\src/ltpf.c **** {
 281              		.loc 1 353 0
 282              		.cfi_startproc
 283              		@ args = 0, pretend = 0, frame = 0
 284              		@ frame_needed = 0, uses_anonymous_args = 0
 285              	.LVL53:
 286 0000 07B5     		push	{r0, r1, r2, lr}
 287              		.cfi_def_cfa_offset 16
 288              		.cfi_offset 14, -4
 354:..\..\..\liblc3\src/ltpf.c ****     resample_x192k_12k8(8, h_24k_12k8_q15, hp50, x, y, n);
 289              		.loc 1 354 0
 290 0002 8DE80C00 		stmia	sp, {r2, r3}
 291 0006 0B46     		mov	r3, r1
 292              	.LVL54:
 293 0008 0246     		mov	r2, r0
 294              	.LVL55:
 295 000a 0349     		ldr	r1, .L12
 296              	.LVL56:
 297 000c 0820     		movs	r0, #8
 298              	.LVL57:
 299 000e FFF7FEFF 		bl	resample_x192k_12k8
 300              	.LVL58:
 355:..\..\..\liblc3\src/ltpf.c **** }
 301              		.loc 1 355 0
 302 0012 03B0     		add	sp, sp, #12
 303              		.cfi_def_cfa_offset 4
 304              		@ sp needed
 305 0014 5DF804FB 		ldr	pc, [sp], #4
 306              	.L13:
 307              		.align	2
 308              	.L12:
 309 0018 00000000 		.word	.LANCHOR0
 310              		.cfi_endproc
 311              	.LFE26:
 312              		.size	resample_24k_12k8, .-resample_24k_12k8
 313              		.section	.text.resample_48k_12k8,"ax",%progbits
 314              		.align	1
 315              		.thumb
ARM GAS  C:\Users\rdn\AppData\Local\Temp\ccIOjLNc.s 			page 13


 316              		.thumb_func
 317              		.type	resample_48k_12k8, %function
 318              	resample_48k_12k8:
 319              	.LFB27:
 356:..\..\..\liblc3\src/ltpf.c **** #endif /* resample_24k_12k8 */
 357:..\..\..\liblc3\src/ltpf.c **** 
 358:..\..\..\liblc3\src/ltpf.c **** /**
 359:..\..\..\liblc3\src/ltpf.c ****  * Resample from 48 Khz to 12.8 KHz
 360:..\..\..\liblc3\src/ltpf.c ****  * hp50            High-Pass biquad filter state
 361:..\..\..\liblc3\src/ltpf.c ****  * x               [-60..-1] Previous, [0..ns-1] Current samples, in fixed Q15
 362:..\..\..\liblc3\src/ltpf.c ****  * y, n            [0..n-1] Output `n` processed samples, in fixed Q14
 363:..\..\..\liblc3\src/ltpf.c ****  *
 364:..\..\..\liblc3\src/ltpf.c **** * The `x` vector is aligned on 32 bits
 365:..\..\..\liblc3\src/ltpf.c **** */
 366:..\..\..\liblc3\src/ltpf.c **** #ifndef resample_48k_12k8
 367:..\..\..\liblc3\src/ltpf.c **** LC3_HOT static void resample_48k_12k8(
 368:..\..\..\liblc3\src/ltpf.c ****     struct lc3_ltpf_hp50_state *hp50, const int16_t *x, int16_t *y, int n)
 369:..\..\..\liblc3\src/ltpf.c **** {
 320              		.loc 1 369 0
 321              		.cfi_startproc
 322              		@ args = 0, pretend = 0, frame = 0
 323              		@ frame_needed = 0, uses_anonymous_args = 0
 324              	.LVL59:
 325 0000 07B5     		push	{r0, r1, r2, lr}
 326              		.cfi_def_cfa_offset 16
 327              		.cfi_offset 14, -4
 370:..\..\..\liblc3\src/ltpf.c ****     resample_x192k_12k8(4, h_48k_12k8_q15, hp50, x, y, n);
 328              		.loc 1 370 0
 329 0002 8DE80C00 		stmia	sp, {r2, r3}
 330 0006 0B46     		mov	r3, r1
 331              	.LVL60:
 332 0008 0246     		mov	r2, r0
 333              	.LVL61:
 334 000a 0349     		ldr	r1, .L15
 335              	.LVL62:
 336 000c 0420     		movs	r0, #4
 337              	.LVL63:
 338 000e FFF7FEFF 		bl	resample_x192k_12k8
 339              	.LVL64:
 371:..\..\..\liblc3\src/ltpf.c **** }
 340              		.loc 1 371 0
 341 0012 03B0     		add	sp, sp, #12
 342              		.cfi_def_cfa_offset 4
 343              		@ sp needed
 344 0014 5DF804FB 		ldr	pc, [sp], #4
 345              	.L16:
 346              		.align	2
 347              	.L15:
 348 0018 E0010000 		.word	.LANCHOR0+480
 349              		.cfi_endproc
 350              	.LFE27:
 351              		.size	resample_48k_12k8, .-resample_48k_12k8
 352              		.section	.text.resample_96k_12k8,"ax",%progbits
 353              		.align	1
 354              		.thumb
 355              		.thumb_func
 356              		.type	resample_96k_12k8, %function
ARM GAS  C:\Users\rdn\AppData\Local\Temp\ccIOjLNc.s 			page 14


 357              	resample_96k_12k8:
 358              	.LFB28:
 372:..\..\..\liblc3\src/ltpf.c **** #endif /* resample_48k_12k8 */
 373:..\..\..\liblc3\src/ltpf.c **** 
 374:..\..\..\liblc3\src/ltpf.c **** /**
 375:..\..\..\liblc3\src/ltpf.c ****  * Resample from 96 Khz to 12.8 KHz
 376:..\..\..\liblc3\src/ltpf.c ****  * hp50            High-Pass biquad filter state
 377:..\..\..\liblc3\src/ltpf.c ****  * x               [-120..-1] Previous, [0..ns-1] Current samples, in fixed Q15
 378:..\..\..\liblc3\src/ltpf.c ****  * y, n            [0..n-1] Output `n` processed samples, in fixed Q14
 379:..\..\..\liblc3\src/ltpf.c ****  *
 380:..\..\..\liblc3\src/ltpf.c **** * The `x` vector is aligned on 32 bits
 381:..\..\..\liblc3\src/ltpf.c **** */
 382:..\..\..\liblc3\src/ltpf.c **** #ifndef resample_96k_12k8
 383:..\..\..\liblc3\src/ltpf.c **** LC3_HOT static void resample_96k_12k8(
 384:..\..\..\liblc3\src/ltpf.c ****     struct lc3_ltpf_hp50_state *hp50, const int16_t *x, int16_t *y, int n)
 385:..\..\..\liblc3\src/ltpf.c **** {
 359              		.loc 1 385 0
 360              		.cfi_startproc
 361              		@ args = 0, pretend = 0, frame = 0
 362              		@ frame_needed = 0, uses_anonymous_args = 0
 363              	.LVL65:
 364 0000 07B5     		push	{r0, r1, r2, lr}
 365              		.cfi_def_cfa_offset 16
 366              		.cfi_offset 14, -4
 386:..\..\..\liblc3\src/ltpf.c ****     resample_x192k_12k8(2, h_96k_12k8_q15, hp50, x, y, n);
 367              		.loc 1 386 0
 368 0002 8DE80C00 		stmia	sp, {r2, r3}
 369 0006 0B46     		mov	r3, r1
 370              	.LVL66:
 371 0008 0246     		mov	r2, r0
 372              	.LVL67:
 373 000a 0349     		ldr	r1, .L18
 374              	.LVL68:
 375 000c 0220     		movs	r0, #2
 376              	.LVL69:
 377 000e FFF7FEFF 		bl	resample_x192k_12k8
 378              	.LVL70:
 387:..\..\..\liblc3\src/ltpf.c **** }
 379              		.loc 1 387 0
 380 0012 03B0     		add	sp, sp, #12
 381              		.cfi_def_cfa_offset 4
 382              		@ sp needed
 383 0014 5DF804FB 		ldr	pc, [sp], #4
 384              	.L19:
 385              		.align	2
 386              	.L18:
 387 0018 C0030000 		.word	.LANCHOR0+960
 388              		.cfi_endproc
 389              	.LFE28:
 390              		.size	resample_96k_12k8, .-resample_96k_12k8
 391              		.section	.text.dot,"ax",%progbits
 392              		.align	1
 393              		.thumb
 394              		.thumb_func
 395              		.type	dot, %function
 396              	dot:
 397              	.LFB30:
ARM GAS  C:\Users\rdn\AppData\Local\Temp\ccIOjLNc.s 			page 15


 388:..\..\..\liblc3\src/ltpf.c **** #endif /* resample_96k_12k8 */
 389:..\..\..\liblc3\src/ltpf.c **** 
 390:..\..\..\liblc3\src/ltpf.c **** /**
 391:..\..\..\liblc3\src/ltpf.c **** * Resample to 6.4 KHz
 392:..\..\..\liblc3\src/ltpf.c **** * x               [-3..-1] Previous, [0..n-1] Current samples
 393:..\..\..\liblc3\src/ltpf.c **** * y, n            [0..n-1] Output `n` processed samples
 394:..\..\..\liblc3\src/ltpf.c **** *
 395:..\..\..\liblc3\src/ltpf.c **** * The `x` vector is aligned on 32 bits
 396:..\..\..\liblc3\src/ltpf.c ****  */
 397:..\..\..\liblc3\src/ltpf.c **** #ifndef resample_6k4
 398:..\..\..\liblc3\src/ltpf.c **** LC3_HOT static void resample_6k4(const int16_t *x, int16_t *y, int n)
 399:..\..\..\liblc3\src/ltpf.c **** {
 400:..\..\..\liblc3\src/ltpf.c ****     static const int16_t h[] = { 18477, 15424, 8105 };
 401:..\..\..\liblc3\src/ltpf.c ****     const int16_t *ye = y + n;
 402:..\..\..\liblc3\src/ltpf.c **** 
 403:..\..\..\liblc3\src/ltpf.c ****     for (x--; y < ye; x += 2)
 404:..\..\..\liblc3\src/ltpf.c ****         *(y++) = (x[0] * h[0] + (x[-1] + x[1]) * h[1]
 405:..\..\..\liblc3\src/ltpf.c ****                               + (x[-2] + x[2]) * h[2]) >> 16;
 406:..\..\..\liblc3\src/ltpf.c **** }
 407:..\..\..\liblc3\src/ltpf.c **** #endif /* resample_6k4 */
 408:..\..\..\liblc3\src/ltpf.c **** 
 409:..\..\..\liblc3\src/ltpf.c **** /**
 410:..\..\..\liblc3\src/ltpf.c ****  * LTPF Resample to 12.8 KHz implementations for each samplerates
 411:..\..\..\liblc3\src/ltpf.c ****  */
 412:..\..\..\liblc3\src/ltpf.c **** 
 413:..\..\..\liblc3\src/ltpf.c **** static void (* const resample_12k8[])
 414:..\..\..\liblc3\src/ltpf.c ****     (struct lc3_ltpf_hp50_state *, const int16_t *, int16_t *, int ) =
 415:..\..\..\liblc3\src/ltpf.c **** {
 416:..\..\..\liblc3\src/ltpf.c ****     [LC3_SRATE_8K    ] = resample_8k_12k8,
 417:..\..\..\liblc3\src/ltpf.c ****     [LC3_SRATE_16K   ] = resample_16k_12k8,
 418:..\..\..\liblc3\src/ltpf.c ****     [LC3_SRATE_24K   ] = resample_24k_12k8,
 419:..\..\..\liblc3\src/ltpf.c ****     [LC3_SRATE_32K   ] = resample_32k_12k8,
 420:..\..\..\liblc3\src/ltpf.c ****     [LC3_SRATE_48K   ] = resample_48k_12k8,
 421:..\..\..\liblc3\src/ltpf.c ****     [LC3_SRATE_48K_HR] = resample_48k_12k8,
 422:..\..\..\liblc3\src/ltpf.c ****     [LC3_SRATE_96K_HR] = resample_96k_12k8,
 423:..\..\..\liblc3\src/ltpf.c **** };
 424:..\..\..\liblc3\src/ltpf.c **** 
 425:..\..\..\liblc3\src/ltpf.c **** 
 426:..\..\..\liblc3\src/ltpf.c **** /* ----------------------------------------------------------------------------
 427:..\..\..\liblc3\src/ltpf.c ****  *  Analysis
 428:..\..\..\liblc3\src/ltpf.c ****  * -------------------------------------------------------------------------- */
 429:..\..\..\liblc3\src/ltpf.c **** 
 430:..\..\..\liblc3\src/ltpf.c **** /**
 431:..\..\..\liblc3\src/ltpf.c ****  * Return dot product of 2 vectors
 432:..\..\..\liblc3\src/ltpf.c ****  * a, b, n         The 2 vectors of size `n` (> 0 and <= 128)
 433:..\..\..\liblc3\src/ltpf.c ****  * return          sum( a[i] * b[i] ), i = [0..n-1]
 434:..\..\..\liblc3\src/ltpf.c ****  *
 435:..\..\..\liblc3\src/ltpf.c ****  * The size `n` of vectors must be multiple of 16, and less or equal to 128
 436:..\..\..\liblc3\src/ltpf.c **** */
 437:..\..\..\liblc3\src/ltpf.c **** #ifndef dot
 438:..\..\..\liblc3\src/ltpf.c **** LC3_HOT static inline float dot(const int16_t *a, const int16_t *b, int n)
 439:..\..\..\liblc3\src/ltpf.c **** {
 398              		.loc 1 439 0
 399              		.cfi_startproc
 400              		@ args = 0, pretend = 0, frame = 0
 401              		@ frame_needed = 0, uses_anonymous_args = 0
 402              	.LVL71:
ARM GAS  C:\Users\rdn\AppData\Local\Temp\ccIOjLNc.s 			page 16


 403 0000 F0B5     		push	{r4, r5, r6, r7, lr}
 404              		.cfi_def_cfa_offset 20
 405              		.cfi_offset 4, -20
 406              		.cfi_offset 5, -16
 407              		.cfi_offset 6, -12
 408              		.cfi_offset 7, -8
 409              		.cfi_offset 14, -4
 410              	.LBB32:
 440:..\..\..\liblc3\src/ltpf.c ****     int64_t v = 0;
 441:..\..\..\liblc3\src/ltpf.c **** 
 442:..\..\..\liblc3\src/ltpf.c ****     for (int i = 0; i < (n >> 4); i++)
 411              		.loc 1 442 0
 412 0002 1211     		asrs	r2, r2, #4
 413              	.LVL72:
 414 0004 0023     		movs	r3, #0
 415              	.LBE32:
 440:..\..\..\liblc3\src/ltpf.c ****     int64_t v = 0;
 416              		.loc 1 440 0
 417 0006 0024     		movs	r4, #0
 418 0008 0025     		movs	r5, #0
 419              	.LVL73:
 420              	.L21:
 421              	.LBB34:
 422              		.loc 1 442 0 discriminator 1
 423 000a 9342     		cmp	r3, r2
 424 000c 01EB4316 		add	r6, r1, r3, lsl #5
 425              	.LVL74:
 426 0010 0BDA     		bge	.L23
 427 0012 00F12007 		add	r7, r0, #32
 428              	.L22:
 429              	.LBB33:
 443:..\..\..\liblc3\src/ltpf.c ****         for (int j = 0; j < 16; j++)
 444:..\..\..\liblc3\src/ltpf.c ****             v += *(a++) * *(b++);
 430              		.loc 1 444 0 discriminator 3
 431 0016 30F902CB 		ldrsh	ip, [r0], #2
 432              	.LVL75:
 433 001a 36F902EB 		ldrsh	lr, [r6], #2
 434              	.LVL76:
 443:..\..\..\liblc3\src/ltpf.c ****         for (int j = 0; j < 16; j++)
 435              		.loc 1 443 0 discriminator 3
 436 001e B842     		cmp	r0, r7
 437              		.loc 1 444 0 discriminator 3
 438 0020 CCFB8E45 		smlalbb	r4, r5, ip, lr
 439              	.LVL77:
 443:..\..\..\liblc3\src/ltpf.c ****         for (int j = 0; j < 16; j++)
 440              		.loc 1 443 0 discriminator 3
 441 0024 F7D1     		bne	.L22
 442              	.LBE33:
 442:..\..\..\liblc3\src/ltpf.c ****         for (int j = 0; j < 16; j++)
 443              		.loc 1 442 0 discriminator 2
 444 0026 0133     		adds	r3, r3, #1
 445              	.LVL78:
 446 0028 EFE7     		b	.L21
 447              	.L23:
 448              	.LVL79:
 449              	.LBE34:
 445:..\..\..\liblc3\src/ltpf.c **** 
ARM GAS  C:\Users\rdn\AppData\Local\Temp\ccIOjLNc.s 			page 17


 446:..\..\..\liblc3\src/ltpf.c ****     int32_t v32 = (v + (1 << 5)) >> 6;
 447:..\..\..\liblc3\src/ltpf.c ****     return (float)v32;
 450              		.loc 1 447 0
 451 002a 2034     		adds	r4, r4, #32
 452              	.LVL80:
 453 002c 45F10005 		adc	r5, r5, #0
 454 0030 A309     		lsrs	r3, r4, #6
 455              	.LVL81:
 456 0032 43EA8563 		orr	r3, r3, r5, lsl #26
 448:..\..\..\liblc3\src/ltpf.c **** }
 457              		.loc 1 448 0
 458 0036 07EE903A 		vmov	s15, r3	@ int
 459 003a B8EEE70A 		vcvt.f32.s32	s0, s15
 460 003e F0BD     		pop	{r4, r5, r6, r7, pc}
 461              		.cfi_endproc
 462              	.LFE30:
 463              		.size	dot, .-dot
 464              		.section	.text.interpolate,"ax",%progbits
 465              		.align	1
 466              		.thumb
 467              		.thumb_func
 468              		.type	interpolate, %function
 469              	interpolate:
 470              	.LFB34:
 449:..\..\..\liblc3\src/ltpf.c **** #endif /* dot */
 450:..\..\..\liblc3\src/ltpf.c **** 
 451:..\..\..\liblc3\src/ltpf.c **** /**
 452:..\..\..\liblc3\src/ltpf.c ****  * Return vector of correlations
 453:..\..\..\liblc3\src/ltpf.c ****  * a, b, n         The 2 vector of size `n` (> 0 and <= 128)
 454:..\..\..\liblc3\src/ltpf.c ****  * y, nc           Output the correlation vector of size `nc`
 455:..\..\..\liblc3\src/ltpf.c ****  *
 456:..\..\..\liblc3\src/ltpf.c ****  * The first vector `a` is aligned of 32 bits
 457:..\..\..\liblc3\src/ltpf.c ****  * The size `n` of vectors is multiple of 16, and less or equal to 128
 458:..\..\..\liblc3\src/ltpf.c ****  */
 459:..\..\..\liblc3\src/ltpf.c **** #ifndef correlate
 460:..\..\..\liblc3\src/ltpf.c **** LC3_HOT static void correlate(
 461:..\..\..\liblc3\src/ltpf.c ****     const int16_t *a, const int16_t *b, int n, float *y, int nc)
 462:..\..\..\liblc3\src/ltpf.c **** {
 463:..\..\..\liblc3\src/ltpf.c ****     for (const float *ye = y + nc; y < ye; )
 464:..\..\..\liblc3\src/ltpf.c ****         *(y++) = dot(a, b--, n);
 465:..\..\..\liblc3\src/ltpf.c **** }
 466:..\..\..\liblc3\src/ltpf.c **** #endif /* correlate */
 467:..\..\..\liblc3\src/ltpf.c **** 
 468:..\..\..\liblc3\src/ltpf.c **** /**
 469:..\..\..\liblc3\src/ltpf.c ****  * Search the maximum value and returns its argument
 470:..\..\..\liblc3\src/ltpf.c ****  * x, n            The input vector of size `n`
 471:..\..\..\liblc3\src/ltpf.c ****  * x_max           Return the maximum value
 472:..\..\..\liblc3\src/ltpf.c ****  * return          Return the argument of the maximum
 473:..\..\..\liblc3\src/ltpf.c ****  */
 474:..\..\..\liblc3\src/ltpf.c **** LC3_HOT static int argmax(const float *x, int n, float *x_max)
 475:..\..\..\liblc3\src/ltpf.c **** {
 476:..\..\..\liblc3\src/ltpf.c ****     int arg = 0;
 477:..\..\..\liblc3\src/ltpf.c **** 
 478:..\..\..\liblc3\src/ltpf.c ****     *x_max = x[arg = 0];
 479:..\..\..\liblc3\src/ltpf.c ****     for (int i = 1; i < n; i++)
 480:..\..\..\liblc3\src/ltpf.c ****         if (*x_max < x[i])
 481:..\..\..\liblc3\src/ltpf.c ****             *x_max = x[arg = i];
ARM GAS  C:\Users\rdn\AppData\Local\Temp\ccIOjLNc.s 			page 18


 482:..\..\..\liblc3\src/ltpf.c **** 
 483:..\..\..\liblc3\src/ltpf.c ****     return arg;
 484:..\..\..\liblc3\src/ltpf.c **** }
 485:..\..\..\liblc3\src/ltpf.c **** 
 486:..\..\..\liblc3\src/ltpf.c **** /**
 487:..\..\..\liblc3\src/ltpf.c ****  * Search the maximum weithed value and returns its argument
 488:..\..\..\liblc3\src/ltpf.c ****  * x, n            The input vector of size `n`
 489:..\..\..\liblc3\src/ltpf.c ****  * w_incr          Increment of the weight
 490:..\..\..\liblc3\src/ltpf.c ****  * x_max, xw_max   Return the maximum not weighted value
 491:..\..\..\liblc3\src/ltpf.c ****  * return          Return the argument of the weigthed maximum
 492:..\..\..\liblc3\src/ltpf.c ****  */
 493:..\..\..\liblc3\src/ltpf.c **** LC3_HOT static int argmax_weighted(
 494:..\..\..\liblc3\src/ltpf.c ****     const float *x, int n, float w_incr, float *x_max)
 495:..\..\..\liblc3\src/ltpf.c **** {
 496:..\..\..\liblc3\src/ltpf.c ****     int arg;
 497:..\..\..\liblc3\src/ltpf.c **** 
 498:..\..\..\liblc3\src/ltpf.c ****     float xw_max = (*x_max = x[arg = 0]);
 499:..\..\..\liblc3\src/ltpf.c ****     float w = 1 + w_incr;
 500:..\..\..\liblc3\src/ltpf.c **** 
 501:..\..\..\liblc3\src/ltpf.c ****     for (int i = 1; i < n; i++, w += w_incr)
 502:..\..\..\liblc3\src/ltpf.c ****         if (xw_max < x[i] * w)
 503:..\..\..\liblc3\src/ltpf.c ****             xw_max = (*x_max = x[arg = i]) * w;
 504:..\..\..\liblc3\src/ltpf.c **** 
 505:..\..\..\liblc3\src/ltpf.c ****     return arg;
 506:..\..\..\liblc3\src/ltpf.c **** }
 507:..\..\..\liblc3\src/ltpf.c **** 
 508:..\..\..\liblc3\src/ltpf.c **** /**
 509:..\..\..\liblc3\src/ltpf.c ****  * Interpolate from pitch detected value
 510:..\..\..\liblc3\src/ltpf.c ****  * x, n            [-2..-1] Previous, [0..n] Current input
 511:..\..\..\liblc3\src/ltpf.c ****  * d               The phase of interpolation (0 to 3)
 512:..\..\..\liblc3\src/ltpf.c ****  * return          The interpolated vector
 513:..\..\..\liblc3\src/ltpf.c ****  *
 514:..\..\..\liblc3\src/ltpf.c ****  * The size `n` of vectors must be multiple of 4
 515:..\..\..\liblc3\src/ltpf.c ****  */
 516:..\..\..\liblc3\src/ltpf.c **** LC3_HOT static void interpolate(const int16_t *x, int n, int d, int16_t *y)
 517:..\..\..\liblc3\src/ltpf.c **** {
 471              		.loc 1 517 0
 472              		.cfi_startproc
 473              		@ args = 0, pretend = 0, frame = 0
 474              		@ frame_needed = 0, uses_anonymous_args = 0
 475              	.LVL82:
 476 0000 2DE9F043 		push	{r4, r5, r6, r7, r8, r9, lr}
 477              		.cfi_def_cfa_offset 28
 478              		.cfi_offset 4, -28
 479              		.cfi_offset 5, -24
 480              		.cfi_offset 6, -20
 481              		.cfi_offset 7, -16
 482              		.cfi_offset 8, -12
 483              		.cfi_offset 9, -8
 484              		.cfi_offset 14, -4
 518:..\..\..\liblc3\src/ltpf.c ****     static const int16_t h4_q15[][4] = {
 519:..\..\..\liblc3\src/ltpf.c ****         { 6877, 19121,  6877,     0 }, { 3506, 18025, 11000,   220 },
 520:..\..\..\liblc3\src/ltpf.c ****         { 1300, 15048, 15048,  1300 }, {  220, 11000, 18025,  3506 } };
 521:..\..\..\liblc3\src/ltpf.c **** 
 522:..\..\..\liblc3\src/ltpf.c ****     const int16_t *h = h4_q15[d];
 485              		.loc 1 522 0
 486 0004 304C     		ldr	r4, .L29
ARM GAS  C:\Users\rdn\AppData\Local\Temp\ccIOjLNc.s 			page 19


 523:..\..\..\liblc3\src/ltpf.c ****     int16_t x3 = x[-2], x2 = x[-1], x1, x0;
 487              		.loc 1 523 0
 488 0006 30F9025C 		ldrsh	r5, [r0, #-2]
 522:..\..\..\liblc3\src/ltpf.c ****     int16_t x3 = x[-2], x2 = x[-1], x1, x0;
 489              		.loc 1 522 0
 490 000a 04EBC202 		add	r2, r4, r2, lsl #3
 491              	.LVL83:
 492              		.loc 1 523 0
 493 000e 30F9044C 		ldrsh	r4, [r0, #-4]
 494              	.LVL84:
 524:..\..\..\liblc3\src/ltpf.c **** 
 525:..\..\..\liblc3\src/ltpf.c ****     x1 = (*x++);
 495              		.loc 1 525 0
 496 0012 30F9026B 		ldrsh	r6, [r0], #2
 497              	.LVL85:
 498              	.LBB35:
 526:..\..\..\liblc3\src/ltpf.c ****     for (const int16_t *ye = y + n; y < ye; ) {
 499              		.loc 1 526 0
 500 0016 03EB4101 		add	r1, r3, r1, lsl #1
 501              	.LVL86:
 502              	.L26:
 503              		.loc 1 526 0 is_stmt 0 discriminator 1
 504 001a 8B42     		cmp	r3, r1
 505 001c 00F10800 		add	r0, r0, #8
 506 0020 50D2     		bcs	.L28
 507              	.LVL87:
 508              	.LBB36:
 527:..\..\..\liblc3\src/ltpf.c ****         int32_t yn;
 528:..\..\..\liblc3\src/ltpf.c **** 
 529:..\..\..\liblc3\src/ltpf.c ****         yn = (x0 = *(x++)) * h[0] + x1 * h[1] + x2 * h[2] + x3 * h[3];
 509              		.loc 1 529 0 is_stmt 1
 510 0022 B2F902E0 		ldrsh	lr, [r2, #2]
 511 0026 30F908CC 		ldrsh	ip, [r0, #-8]
 512              	.LVL88:
 513 002a B2F90090 		ldrsh	r9, [r2]
 514 002e B2F90480 		ldrsh	r8, [r2, #4]
 515 0032 B2F90670 		ldrsh	r7, [r2, #6]
 516              	.LVL89:
 530:..\..\..\liblc3\src/ltpf.c ****         *(y++) = yn >> 15;
 517              		.loc 1 530 0
 518 0036 06FB0EFE 		mul	lr, r6, lr
 519              	.LVL90:
 520 003a 0CFB09EE 		mla	lr, ip, r9, lr
 521 003e 05FB08EE 		mla	lr, r5, r8, lr
 522 0042 04FB07E4 		mla	r4, r4, r7, lr
 523              	.LVL91:
 524 0046 E413     		asrs	r4, r4, #15
 525 0048 1C80     		strh	r4, [r3]	@ movhi
 526              	.LVL92:
 531:..\..\..\liblc3\src/ltpf.c **** 
 532:..\..\..\liblc3\src/ltpf.c ****         yn = (x3 = *(x++)) * h[0] + x0 * h[1] + x1 * h[2] + x2 * h[3];
 527              		.loc 1 532 0
 528 004a B2F902E0 		ldrsh	lr, [r2, #2]
 529 004e 30F9064C 		ldrsh	r4, [r0, #-6]
 530              	.LVL93:
 531 0052 B2F90090 		ldrsh	r9, [r2]
 532 0056 B2F90480 		ldrsh	r8, [r2, #4]
ARM GAS  C:\Users\rdn\AppData\Local\Temp\ccIOjLNc.s 			page 20


 533 005a B2F90670 		ldrsh	r7, [r2, #6]
 534              	.LVL94:
 533:..\..\..\liblc3\src/ltpf.c ****         *(y++) = yn >> 15;
 535              		.loc 1 533 0
 536 005e 0CFB0EFE 		mul	lr, ip, lr
 537              	.LVL95:
 538 0062 04FB09EE 		mla	lr, r4, r9, lr
 539 0066 06FB08EE 		mla	lr, r6, r8, lr
 540 006a 05FB07E5 		mla	r5, r5, r7, lr
 541              	.LVL96:
 542 006e ED13     		asrs	r5, r5, #15
 543 0070 5D80     		strh	r5, [r3, #2]	@ movhi
 544              	.LVL97:
 534:..\..\..\liblc3\src/ltpf.c **** 
 535:..\..\..\liblc3\src/ltpf.c ****         yn = (x2 = *(x++)) * h[0] + x3 * h[1] + x0 * h[2] + x1 * h[3];
 545              		.loc 1 535 0
 546 0072 B2F90270 		ldrsh	r7, [r2, #2]
 547 0076 30F9045C 		ldrsh	r5, [r0, #-4]
 548              	.LVL98:
 549 007a B2F90090 		ldrsh	r9, [r2]
 550 007e B2F90480 		ldrsh	r8, [r2, #4]
 551 0082 B2F906E0 		ldrsh	lr, [r2, #6]
 552              	.LVL99:
 536:..\..\..\liblc3\src/ltpf.c ****         *(y++) = yn >> 15;
 553              		.loc 1 536 0
 554 0086 6743     		muls	r7, r4, r7
 555              	.LVL100:
 556 0088 05FB0977 		mla	r7, r5, r9, r7
 557 008c 0CFB0877 		mla	r7, ip, r8, r7
 558 0090 06FB0E76 		mla	r6, r6, lr, r7
 559              	.LVL101:
 560 0094 F613     		asrs	r6, r6, #15
 561 0096 9E80     		strh	r6, [r3, #4]	@ movhi
 562              	.LVL102:
 537:..\..\..\liblc3\src/ltpf.c **** 
 538:..\..\..\liblc3\src/ltpf.c ****         yn = (x1 = *(x++)) * h[0] + x2 * h[1] + x3 * h[2] + x0 * h[3];
 563              		.loc 1 538 0
 564 0098 B2F90270 		ldrsh	r7, [r2, #2]
 565 009c 30F9026C 		ldrsh	r6, [r0, #-2]
 566              	.LVL103:
 567 00a0 B2F90090 		ldrsh	r9, [r2]
 568 00a4 B2F90480 		ldrsh	r8, [r2, #4]
 569 00a8 B2F906E0 		ldrsh	lr, [r2, #6]
 570              	.LVL104:
 539:..\..\..\liblc3\src/ltpf.c ****         *(y++) = yn >> 15;
 571              		.loc 1 539 0
 572 00ac 6F43     		muls	r7, r5, r7
 573              	.LVL105:
 574 00ae 06FB0977 		mla	r7, r6, r9, r7
 575 00b2 04FB0877 		mla	r7, r4, r8, r7
 576 00b6 0833     		adds	r3, r3, #8
 577              	.LVL106:
 578 00b8 0CFB0E77 		mla	r7, ip, lr, r7
 579 00bc FF13     		asrs	r7, r7, #15
 580 00be 23F8027C 		strh	r7, [r3, #-2]	@ movhi
 581              	.LVL107:
 582 00c2 AAE7     		b	.L26
ARM GAS  C:\Users\rdn\AppData\Local\Temp\ccIOjLNc.s 			page 21


 583              	.LVL108:
 584              	.L28:
 585              	.LBE36:
 586              	.LBE35:
 540:..\..\..\liblc3\src/ltpf.c ****     }
 541:..\..\..\liblc3\src/ltpf.c **** }
 587              		.loc 1 541 0
 588 00c4 BDE8F083 		pop	{r4, r5, r6, r7, r8, r9, pc}
 589              	.LVL109:
 590              	.L30:
 591              		.align	2
 592              	.L29:
 593 00c8 A0050000 		.word	.LANCHOR0+1440
 594              		.cfi_endproc
 595              	.LFE34:
 596              		.size	interpolate, .-interpolate
 597              		.section	.text.interpolate_corr,"ax",%progbits
 598              		.align	1
 599              		.thumb
 600              		.thumb_func
 601              		.type	interpolate_corr, %function
 602              	interpolate_corr:
 603              	.LFB35:
 542:..\..\..\liblc3\src/ltpf.c **** 
 543:..\..\..\liblc3\src/ltpf.c **** /**
 544:..\..\..\liblc3\src/ltpf.c ****  * Interpolate autocorrelation
 545:..\..\..\liblc3\src/ltpf.c ****  * x               [-4..-1] Previous, [0..4] Current input
 546:..\..\..\liblc3\src/ltpf.c ****  * d               The phase of interpolation (-3 to 3)
 547:..\..\..\liblc3\src/ltpf.c ****  * return          The interpolated value
 548:..\..\..\liblc3\src/ltpf.c ****  */
 549:..\..\..\liblc3\src/ltpf.c **** LC3_HOT static float interpolate_corr(const float *x, int d)
 550:..\..\..\liblc3\src/ltpf.c **** {
 604              		.loc 1 550 0
 605              		.cfi_startproc
 606              		@ args = 0, pretend = 0, frame = 0
 607              		@ frame_needed = 0, uses_anonymous_args = 0
 608              		@ link register save eliminated.
 609              	.LVL110:
 551:..\..\..\liblc3\src/ltpf.c ****     static const float h4[][8] = {
 552:..\..\..\liblc3\src/ltpf.c ****         {  1.53572770e-02, -4.72963246e-02,  8.35788573e-02,  8.98638285e-01,
 553:..\..\..\liblc3\src/ltpf.c ****            8.35788573e-02, -4.72963246e-02,  1.53572770e-02,                 },
 554:..\..\..\liblc3\src/ltpf.c ****         {  2.74547165e-03,  4.59833449e-03, -7.54404636e-02,  8.17488686e-01,
 555:..\..\..\liblc3\src/ltpf.c ****            3.30182571e-01, -1.05835916e-01,  2.86823405e-02, -2.87456116e-03 },
 556:..\..\..\liblc3\src/ltpf.c ****         { -3.00125103e-03,  2.95038503e-02, -1.30305021e-01,  6.03297008e-01,
 557:..\..\..\liblc3\src/ltpf.c ****            6.03297008e-01, -1.30305021e-01,  2.95038503e-02, -3.00125103e-03 },
 558:..\..\..\liblc3\src/ltpf.c ****         { -2.87456116e-03,  2.86823405e-02, -1.05835916e-01,  3.30182571e-01,
 559:..\..\..\liblc3\src/ltpf.c ****            8.17488686e-01, -7.54404636e-02,  4.59833449e-03,  2.74547165e-03 },
 560:..\..\..\liblc3\src/ltpf.c ****     };
 561:..\..\..\liblc3\src/ltpf.c **** 
 562:..\..\..\liblc3\src/ltpf.c ****     const float *h = h4[(4+d) % 4];
 610              		.loc 1 562 0
 611 0000 264A     		ldr	r2, .L36
 612 0002 0B1D     		adds	r3, r1, #4
 613 0004 1A40     		ands	r2, r2, r3
 614 0006 002A     		cmp	r2, #0
 615 0008 BCBF     		itt	lt
 616 000a 02F1FF32 		addlt	r2, r2, #-1
ARM GAS  C:\Users\rdn\AppData\Local\Temp\ccIOjLNc.s 			page 22


 617 000e 62F00302 		ornlt	r2, r2, #3
 618 0012 234B     		ldr	r3, .L36+4
 619 0014 B8BF     		it	lt
 620 0016 0132     		addlt	r2, r2, #1
 563:..\..\..\liblc3\src/ltpf.c **** 
 564:..\..\..\liblc3\src/ltpf.c ****     float y = d < 0 ? x[-4] * *(h++) :
 621              		.loc 1 564 0
 622 0018 0029     		cmp	r1, #0
 562:..\..\..\liblc3\src/ltpf.c **** 
 623              		.loc 1 562 0
 624 001a 03EB4213 		add	r3, r3, r2, lsl #5
 625              	.LVL111:
 626              		.loc 1 564 0
 627 001e 07DA     		bge	.L33
 628              	.LVL112:
 629              		.loc 1 564 0 is_stmt 0 discriminator 1
 630 0020 93ED007A 		vldr.32	s14, [r3]
 631 0024 50ED047A 		vldr.32	s15, [r0, #-16]
 632 0028 0433     		adds	r3, r3, #4
 633              	.LVL113:
 634 002a 27EE877A 		vmul.f32	s14, s15, s14
 635 002e 08E0     		b	.L34
 636              	.L33:
 565:..\..\..\liblc3\src/ltpf.c ****               d > 0 ? x[ 4] * *(h+7) : 0;
 637              		.loc 1 565 0 is_stmt 1
 638 0030 1BBF     		ittet	ne
 639 0032 D0ED047A 		vldrne.32	s15, [r0, #16]
 640 0036 93ED077A 		vldrne.32	s14, [r3, #28]
 641 003a 9FED1A7A 		vldreq.32	s14, .L36+8
 642 003e 27EE877A 		vmulne.f32	s14, s15, s14
 643              	.L34:
 644              	.LVL114:
 566:..\..\..\liblc3\src/ltpf.c **** 
 567:..\..\..\liblc3\src/ltpf.c ****     y += x[-3] * h[0] + x[-2] * h[1] + x[-1] * h[2] + x[0] * h[3] +
 568:..\..\..\liblc3\src/ltpf.c ****          x[ 1] * h[4] + x[ 2] * h[5] + x[ 3] * h[6];
 569:..\..\..\liblc3\src/ltpf.c **** 
 570:..\..\..\liblc3\src/ltpf.c ****     return y;
 645              		.loc 1 570 0 discriminator 2
 646 0042 50ED027A 		vldr.32	s15, [r0, #-8]
 647 0046 93ED010A 		vldr.32	s0, [r3, #4]
 648 004a 50ED036A 		vldr.32	s13, [r0, #-12]
 649 004e 27EE800A 		vmul.f32	s0, s15, s0
 650              	.LVL115:
 651 0052 D3ED007A 		vldr.32	s15, [r3]
 652 0056 A6EEA70A 		vfma.f32	s0, s13, s15
 653              	.LVL116:
 654 005a 50ED016A 		vldr.32	s13, [r0, #-4]
 655 005e D3ED027A 		vldr.32	s15, [r3, #8]
 656 0062 A6EEA70A 		vfma.f32	s0, s13, s15
 657 0066 D0ED006A 		vldr.32	s13, [r0]
 658 006a D3ED037A 		vldr.32	s15, [r3, #12]
 659 006e A6EEA70A 		vfma.f32	s0, s13, s15
 660 0072 D0ED016A 		vldr.32	s13, [r0, #4]
 661 0076 D3ED047A 		vldr.32	s15, [r3, #16]
 662 007a A6EEA70A 		vfma.f32	s0, s13, s15
 663 007e D0ED026A 		vldr.32	s13, [r0, #8]
 664 0082 D3ED057A 		vldr.32	s15, [r3, #20]
ARM GAS  C:\Users\rdn\AppData\Local\Temp\ccIOjLNc.s 			page 23


 665 0086 A6EEA70A 		vfma.f32	s0, s13, s15
 666 008a D0ED036A 		vldr.32	s13, [r0, #12]
 667 008e D3ED067A 		vldr.32	s15, [r3, #24]
 668 0092 A6EEA70A 		vfma.f32	s0, s13, s15
 571:..\..\..\liblc3\src/ltpf.c **** }
 669              		.loc 1 571 0 discriminator 2
 670 0096 30EE070A 		vadd.f32	s0, s0, s14
 671 009a 7047     		bx	lr
 672              	.L37:
 673              		.align	2
 674              	.L36:
 675 009c 03000080 		.word	-2147483645
 676 00a0 C0050000 		.word	.LANCHOR0+1472
 677 00a4 00000000 		.word	0
 678              		.cfi_endproc
 679              	.LFE35:
 680              		.size	interpolate_corr, .-interpolate_corr
 681              		.section	.text.synthesize_template,"ax",%progbits
 682              		.align	1
 683              		.thumb
 684              		.thumb_func
 685              		.type	synthesize_template, %function
 686              	synthesize_template:
 687              	.LFB39:
 572:..\..\..\liblc3\src/ltpf.c **** 
 573:..\..\..\liblc3\src/ltpf.c **** /**
 574:..\..\..\liblc3\src/ltpf.c ****  * Pitch detection algorithm
 575:..\..\..\liblc3\src/ltpf.c ****  * ltpf            Context of analysis
 576:..\..\..\liblc3\src/ltpf.c ****  * x, n            [-114..-17] Previous, [0..n-1] Current 6.4KHz samples
 577:..\..\..\liblc3\src/ltpf.c ****  * tc              Return the pitch-lag estimation
 578:..\..\..\liblc3\src/ltpf.c ****  * return          True when pitch present
 579:..\..\..\liblc3\src/ltpf.c ****  *
 580:..\..\..\liblc3\src/ltpf.c ****  * The `x` vector is aligned on 32 bits
 581:..\..\..\liblc3\src/ltpf.c ****  */
 582:..\..\..\liblc3\src/ltpf.c **** static bool detect_pitch(struct lc3_ltpf_analysis *ltpf,
 583:..\..\..\liblc3\src/ltpf.c ****     const int16_t *x, int n, int *tc)
 584:..\..\..\liblc3\src/ltpf.c **** {
 585:..\..\..\liblc3\src/ltpf.c ****     float rm1, rm2;
 586:..\..\..\liblc3\src/ltpf.c ****     float r[98];
 587:..\..\..\liblc3\src/ltpf.c **** 
 588:..\..\..\liblc3\src/ltpf.c ****     const int r0 = 17, nr = 98;
 589:..\..\..\liblc3\src/ltpf.c ****     int k0 = LC3_MAX(   0, ltpf->tc-4);
 590:..\..\..\liblc3\src/ltpf.c ****     int nk = LC3_MIN(nr-1, ltpf->tc+4) - k0 + 1;
 591:..\..\..\liblc3\src/ltpf.c **** 
 592:..\..\..\liblc3\src/ltpf.c ****     correlate(x, x - r0, n, r, nr);
 593:..\..\..\liblc3\src/ltpf.c **** 
 594:..\..\..\liblc3\src/ltpf.c ****     int t1 = argmax_weighted(r, nr, -.5f/(nr-1), &rm1);
 595:..\..\..\liblc3\src/ltpf.c ****     int t2 = k0 + argmax(r + k0, nk, &rm2);
 596:..\..\..\liblc3\src/ltpf.c **** 
 597:..\..\..\liblc3\src/ltpf.c ****     const int16_t *x1 = x - (r0 + t1);
 598:..\..\..\liblc3\src/ltpf.c ****     const int16_t *x2 = x - (r0 + t2);
 599:..\..\..\liblc3\src/ltpf.c **** 
 600:..\..\..\liblc3\src/ltpf.c ****     float nc1 = rm1 <= 0 ? 0 :
 601:..\..\..\liblc3\src/ltpf.c ****         rm1 / sqrtf(dot(x, x, n) * dot(x1, x1, n));
 602:..\..\..\liblc3\src/ltpf.c **** 
 603:..\..\..\liblc3\src/ltpf.c ****     float nc2 = rm2 <= 0 ? 0 :
 604:..\..\..\liblc3\src/ltpf.c ****         rm2 / sqrtf(dot(x, x, n) * dot(x2, x2, n));
ARM GAS  C:\Users\rdn\AppData\Local\Temp\ccIOjLNc.s 			page 24


 605:..\..\..\liblc3\src/ltpf.c **** 
 606:..\..\..\liblc3\src/ltpf.c ****     int t1sel = nc2 <= 0.85f * nc1;
 607:..\..\..\liblc3\src/ltpf.c ****     ltpf->tc = (t1sel ? t1 : t2);
 608:..\..\..\liblc3\src/ltpf.c **** 
 609:..\..\..\liblc3\src/ltpf.c ****     *tc = r0 + ltpf->tc;
 610:..\..\..\liblc3\src/ltpf.c ****     return (t1sel ? nc1 : nc2) > 0.6f;
 611:..\..\..\liblc3\src/ltpf.c **** }
 612:..\..\..\liblc3\src/ltpf.c **** 
 613:..\..\..\liblc3\src/ltpf.c **** /**
 614:..\..\..\liblc3\src/ltpf.c ****  * Pitch-lag parameter
 615:..\..\..\liblc3\src/ltpf.c ****  * x, n            [-232..-28] Previous, [0..n-1] Current 12.8KHz samples, Q14
 616:..\..\..\liblc3\src/ltpf.c ****  * tc              Pitch-lag estimation
 617:..\..\..\liblc3\src/ltpf.c ****  * pitch           The pitch value, in fixed .4
 618:..\..\..\liblc3\src/ltpf.c ****  * return          The bitstream pitch index value
 619:..\..\..\liblc3\src/ltpf.c ****  *
 620:..\..\..\liblc3\src/ltpf.c ****  * The `x` vector is aligned on 32 bits
 621:..\..\..\liblc3\src/ltpf.c ****  */
 622:..\..\..\liblc3\src/ltpf.c **** static int refine_pitch(const int16_t *x, int n, int tc, int *pitch)
 623:..\..\..\liblc3\src/ltpf.c **** {
 624:..\..\..\liblc3\src/ltpf.c ****     float r[17], rm;
 625:..\..\..\liblc3\src/ltpf.c ****     int e, f;
 626:..\..\..\liblc3\src/ltpf.c **** 
 627:..\..\..\liblc3\src/ltpf.c ****     int r0 = LC3_MAX( 32, 2*tc - 4);
 628:..\..\..\liblc3\src/ltpf.c ****     int nr = LC3_MIN(228, 2*tc + 4) - r0 + 1;
 629:..\..\..\liblc3\src/ltpf.c **** 
 630:..\..\..\liblc3\src/ltpf.c ****     correlate(x, x - (r0 - 4), n, r, nr + 8);
 631:..\..\..\liblc3\src/ltpf.c **** 
 632:..\..\..\liblc3\src/ltpf.c ****     e = r0 + argmax(r + 4, nr, &rm);
 633:..\..\..\liblc3\src/ltpf.c ****     const float *re = r + (e - (r0 - 4));
 634:..\..\..\liblc3\src/ltpf.c **** 
 635:..\..\..\liblc3\src/ltpf.c ****     float dm = interpolate_corr(re, f = 0);
 636:..\..\..\liblc3\src/ltpf.c ****     for (int i = 1; i <= 3; i++) {
 637:..\..\..\liblc3\src/ltpf.c ****         float d;
 638:..\..\..\liblc3\src/ltpf.c **** 
 639:..\..\..\liblc3\src/ltpf.c ****         if (e >= 127 && ((i & 1) | (e >= 157)))
 640:..\..\..\liblc3\src/ltpf.c ****             continue;
 641:..\..\..\liblc3\src/ltpf.c **** 
 642:..\..\..\liblc3\src/ltpf.c ****         if ((d = interpolate_corr(re, i)) > dm)
 643:..\..\..\liblc3\src/ltpf.c ****             dm = d, f = i;
 644:..\..\..\liblc3\src/ltpf.c **** 
 645:..\..\..\liblc3\src/ltpf.c ****         if (e > 32 && (d = interpolate_corr(re, -i)) > dm)
 646:..\..\..\liblc3\src/ltpf.c ****             dm = d, f = -i;
 647:..\..\..\liblc3\src/ltpf.c ****     }
 648:..\..\..\liblc3\src/ltpf.c **** 
 649:..\..\..\liblc3\src/ltpf.c ****     e -=   (f < 0);
 650:..\..\..\liblc3\src/ltpf.c ****     f += 4*(f < 0);
 651:..\..\..\liblc3\src/ltpf.c **** 
 652:..\..\..\liblc3\src/ltpf.c ****     *pitch = 4*e + f;
 653:..\..\..\liblc3\src/ltpf.c ****     return e < 127 ? 4*e +  f       - 128 :
 654:..\..\..\liblc3\src/ltpf.c ****            e < 157 ? 2*e + (f >> 1) + 126 : e + 283;
 655:..\..\..\liblc3\src/ltpf.c **** }
 656:..\..\..\liblc3\src/ltpf.c **** 
 657:..\..\..\liblc3\src/ltpf.c **** /**
 658:..\..\..\liblc3\src/ltpf.c ****  * LTPF Analysis
 659:..\..\..\liblc3\src/ltpf.c ****  */
 660:..\..\..\liblc3\src/ltpf.c **** bool lc3_ltpf_analyse(
 661:..\..\..\liblc3\src/ltpf.c ****     enum lc3_dt dt, enum lc3_srate sr, struct lc3_ltpf_analysis *ltpf,
ARM GAS  C:\Users\rdn\AppData\Local\Temp\ccIOjLNc.s 			page 25


 662:..\..\..\liblc3\src/ltpf.c ****     const int16_t *x, struct lc3_ltpf_data *data)
 663:..\..\..\liblc3\src/ltpf.c **** {
 664:..\..\..\liblc3\src/ltpf.c ****     /* --- Resampling to 12.8 KHz --- */
 665:..\..\..\liblc3\src/ltpf.c **** 
 666:..\..\..\liblc3\src/ltpf.c ****     int z_12k8 = sizeof(ltpf->x_12k8) / sizeof(*ltpf->x_12k8);
 667:..\..\..\liblc3\src/ltpf.c ****     int n_12k8 = (1 + dt) * 32;
 668:..\..\..\liblc3\src/ltpf.c **** 
 669:..\..\..\liblc3\src/ltpf.c ****     memmove(ltpf->x_12k8, ltpf->x_12k8 + n_12k8,
 670:..\..\..\liblc3\src/ltpf.c ****         (z_12k8 - n_12k8) * sizeof(*ltpf->x_12k8));
 671:..\..\..\liblc3\src/ltpf.c **** 
 672:..\..\..\liblc3\src/ltpf.c ****     int16_t *x_12k8 = ltpf->x_12k8 + (z_12k8 - n_12k8);
 673:..\..\..\liblc3\src/ltpf.c **** 
 674:..\..\..\liblc3\src/ltpf.c ****     resample_12k8[sr](&ltpf->hp50, x, x_12k8, n_12k8);
 675:..\..\..\liblc3\src/ltpf.c **** 
 676:..\..\..\liblc3\src/ltpf.c ****     x_12k8 -= (dt == LC3_DT_7M5 ? 44 : 24);
 677:..\..\..\liblc3\src/ltpf.c **** 
 678:..\..\..\liblc3\src/ltpf.c ****     /* --- Resampling to 6.4 KHz --- */
 679:..\..\..\liblc3\src/ltpf.c **** 
 680:..\..\..\liblc3\src/ltpf.c ****     int z_6k4 = sizeof(ltpf->x_6k4) / sizeof(*ltpf->x_6k4);
 681:..\..\..\liblc3\src/ltpf.c ****     int n_6k4 = n_12k8 >> 1;
 682:..\..\..\liblc3\src/ltpf.c **** 
 683:..\..\..\liblc3\src/ltpf.c ****     memmove(ltpf->x_6k4, ltpf->x_6k4 + n_6k4,
 684:..\..\..\liblc3\src/ltpf.c ****         (z_6k4 - n_6k4) * sizeof(*ltpf->x_6k4));
 685:..\..\..\liblc3\src/ltpf.c **** 
 686:..\..\..\liblc3\src/ltpf.c ****     int16_t *x_6k4 = ltpf->x_6k4 + (z_6k4 - n_6k4);
 687:..\..\..\liblc3\src/ltpf.c **** 
 688:..\..\..\liblc3\src/ltpf.c ****     resample_6k4(x_12k8, x_6k4, n_6k4);
 689:..\..\..\liblc3\src/ltpf.c **** 
 690:..\..\..\liblc3\src/ltpf.c ****     /* --- Enlarge for small frame size --- */
 691:..\..\..\liblc3\src/ltpf.c **** 
 692:..\..\..\liblc3\src/ltpf.c ****     if (dt == LC3_DT_2M5) {
 693:..\..\..\liblc3\src/ltpf.c ****         x_12k8 -= n_12k8, x_6k4 -= n_6k4;
 694:..\..\..\liblc3\src/ltpf.c ****         n_12k8 += n_12k8; n_6k4 += n_6k4;
 695:..\..\..\liblc3\src/ltpf.c ****     }
 696:..\..\..\liblc3\src/ltpf.c **** 
 697:..\..\..\liblc3\src/ltpf.c ****     /* --- Pitch detection --- */
 698:..\..\..\liblc3\src/ltpf.c **** 
 699:..\..\..\liblc3\src/ltpf.c ****     int tc, pitch = 0;
 700:..\..\..\liblc3\src/ltpf.c ****     float nc = 0;
 701:..\..\..\liblc3\src/ltpf.c **** 
 702:..\..\..\liblc3\src/ltpf.c ****     bool pitch_present = detect_pitch(ltpf, x_6k4, n_6k4, &tc);
 703:..\..\..\liblc3\src/ltpf.c **** 
 704:..\..\..\liblc3\src/ltpf.c ****     if (pitch_present) {
 705:..\..\..\liblc3\src/ltpf.c ****         int16_t u[128], v[128];
 706:..\..\..\liblc3\src/ltpf.c **** 
 707:..\..\..\liblc3\src/ltpf.c ****         data->pitch_index = refine_pitch(x_12k8, n_12k8, tc, &pitch);
 708:..\..\..\liblc3\src/ltpf.c **** 
 709:..\..\..\liblc3\src/ltpf.c ****         interpolate(x_12k8, n_12k8, 0, u);
 710:..\..\..\liblc3\src/ltpf.c ****         interpolate(x_12k8 - (pitch >> 2), n_12k8, pitch & 3, v);
 711:..\..\..\liblc3\src/ltpf.c **** 
 712:..\..\..\liblc3\src/ltpf.c ****         nc = dot(u, v, n_12k8) / sqrtf(dot(u, u, n_12k8) * dot(v, v, n_12k8));
 713:..\..\..\liblc3\src/ltpf.c ****     }
 714:..\..\..\liblc3\src/ltpf.c **** 
 715:..\..\..\liblc3\src/ltpf.c ****     /* --- Activation --- */
 716:..\..\..\liblc3\src/ltpf.c **** 
 717:..\..\..\liblc3\src/ltpf.c ****      if (ltpf->active) {
 718:..\..\..\liblc3\src/ltpf.c ****         int pitch_diff =
ARM GAS  C:\Users\rdn\AppData\Local\Temp\ccIOjLNc.s 			page 26


 719:..\..\..\liblc3\src/ltpf.c ****             LC3_MAX(pitch, ltpf->pitch) - LC3_MIN(pitch, ltpf->pitch);
 720:..\..\..\liblc3\src/ltpf.c ****         float nc_diff = nc - ltpf->nc[0];
 721:..\..\..\liblc3\src/ltpf.c **** 
 722:..\..\..\liblc3\src/ltpf.c ****         data->active = !lc3_hr(sr) && pitch_present &&
 723:..\..\..\liblc3\src/ltpf.c ****             ((nc > 0.9f) || (nc > 0.84f && pitch_diff < 8 && nc_diff > -0.1f));
 724:..\..\..\liblc3\src/ltpf.c **** 
 725:..\..\..\liblc3\src/ltpf.c ****      } else {
 726:..\..\..\liblc3\src/ltpf.c ****          data->active = !lc3_hr(sr) && pitch_present &&
 727:..\..\..\liblc3\src/ltpf.c ****             ( (dt == LC3_DT_10M || ltpf->nc[1] > 0.94f) &&
 728:..\..\..\liblc3\src/ltpf.c ****               (ltpf->nc[0] > 0.94f && nc > 0.94f) );
 729:..\..\..\liblc3\src/ltpf.c ****      }
 730:..\..\..\liblc3\src/ltpf.c **** 
 731:..\..\..\liblc3\src/ltpf.c ****      ltpf->active = data->active;
 732:..\..\..\liblc3\src/ltpf.c ****      ltpf->pitch = pitch;
 733:..\..\..\liblc3\src/ltpf.c ****      ltpf->nc[1] = ltpf->nc[0];
 734:..\..\..\liblc3\src/ltpf.c ****      ltpf->nc[0] = nc;
 735:..\..\..\liblc3\src/ltpf.c **** 
 736:..\..\..\liblc3\src/ltpf.c ****      return pitch_present;
 737:..\..\..\liblc3\src/ltpf.c **** }
 738:..\..\..\liblc3\src/ltpf.c **** 
 739:..\..\..\liblc3\src/ltpf.c **** 
 740:..\..\..\liblc3\src/ltpf.c **** /* ----------------------------------------------------------------------------
 741:..\..\..\liblc3\src/ltpf.c ****  *  Synthesis
 742:..\..\..\liblc3\src/ltpf.c ****  * -------------------------------------------------------------------------- */
 743:..\..\..\liblc3\src/ltpf.c **** 
 744:..\..\..\liblc3\src/ltpf.c **** /**
 745:..\..\..\liblc3\src/ltpf.c ****  * Width of synthesis filter
 746:..\..\..\liblc3\src/ltpf.c ****  */
 747:..\..\..\liblc3\src/ltpf.c **** 
 748:..\..\..\liblc3\src/ltpf.c **** #define MAX_FILTER_WIDTH \
 749:..\..\..\liblc3\src/ltpf.c ****     (LC3_MAX_SRATE_HZ / 4000)
 750:..\..\..\liblc3\src/ltpf.c **** 
 751:..\..\..\liblc3\src/ltpf.c **** 
 752:..\..\..\liblc3\src/ltpf.c **** /**
 753:..\..\..\liblc3\src/ltpf.c ****  * Synthesis filter template
 754:..\..\..\liblc3\src/ltpf.c ****  * xh, nh          History ring buffer of filtered samples
 755:..\..\..\liblc3\src/ltpf.c ****  * lag             Lag parameter in the ring buffer
 756:..\..\..\liblc3\src/ltpf.c ****  * x0              w-1 previous input samples
 757:..\..\..\liblc3\src/ltpf.c ****  * x, n            Current samples as input, filtered as output
 758:..\..\..\liblc3\src/ltpf.c ****  * c, w            Coefficients `den` then `num`, and width of filter
 759:..\..\..\liblc3\src/ltpf.c ****  * fade            Fading mode of filter  -1: Out  1: In  0: None
 760:..\..\..\liblc3\src/ltpf.c ****  */
 761:..\..\..\liblc3\src/ltpf.c **** LC3_HOT static inline void synthesize_template(
 762:..\..\..\liblc3\src/ltpf.c ****     const float *xh, int nh, int lag,
 763:..\..\..\liblc3\src/ltpf.c ****     const float *x0, float *x, int n,
 764:..\..\..\liblc3\src/ltpf.c ****     const float *c, const int w, int fade)
 765:..\..\..\liblc3\src/ltpf.c **** {
 688              		.loc 1 765 0
 689              		.cfi_startproc
 690              		@ args = 20, pretend = 0, frame = 104
 691              		@ frame_needed = 0, uses_anonymous_args = 0
 692              	.LVL117:
 693 0000 2DE9F04F 		push	{r4, r5, r6, r7, r8, r9, r10, fp, lr}
 694              		.cfi_def_cfa_offset 36
 695              		.cfi_offset 4, -36
 696              		.cfi_offset 5, -32
 697              		.cfi_offset 6, -28
ARM GAS  C:\Users\rdn\AppData\Local\Temp\ccIOjLNc.s 			page 27


 698              		.cfi_offset 7, -24
 699              		.cfi_offset 8, -20
 700              		.cfi_offset 9, -16
 701              		.cfi_offset 10, -12
 702              		.cfi_offset 11, -8
 703              		.cfi_offset 14, -4
 704 0004 9BB0     		sub	sp, sp, #108
 705              		.cfi_def_cfa_offset 144
 766:..\..\..\liblc3\src/ltpf.c ****     float g = (float)(fade <= 0);
 767:..\..\..\liblc3\src/ltpf.c ****     float g_incr = (float)((fade > 0) - (fade < 0)) / n;
 706              		.loc 1 767 0
 707 0006 DDED256A 		vldr.32	s13, [sp, #148]	@ int
 765:..\..\..\liblc3\src/ltpf.c ****     float g = (float)(fade <= 0);
 708              		.loc 1 765 0
 709 000a 289F     		ldr	r7, [sp, #160]
 710 000c 249D     		ldr	r5, [sp, #144]
 711 000e 279C     		ldr	r4, [sp, #156]
 712 0010 9FED676A 		vldr.32	s12, .L67
 766:..\..\..\liblc3\src/ltpf.c ****     float g = (float)(fade <= 0);
 713              		.loc 1 766 0
 714 0014 002F     		cmp	r7, #0
 715              		.loc 1 767 0
 716 0016 CCBF     		ite	gt
 717 0018 0126     		movgt	r6, #1
 718 001a 0026     		movle	r6, #0
 719 001c A6EBD776 		sub	r6, r6, r7, lsr #31
 720 0020 07EE106A 		vmov	s14, r6	@ int
 721 0024 F8EEE66A 		vcvt.f32.s32	s13, s13
 722 0028 B8EEC77A 		vcvt.f32.s32	s14, s14
 768:..\..\..\liblc3\src/ltpf.c ****     float u[MAX_FILTER_WIDTH];
 769:..\..\..\liblc3\src/ltpf.c **** 
 770:..\..\..\liblc3\src/ltpf.c ****     /* --- Load previous samples --- */
 771:..\..\..\liblc3\src/ltpf.c **** 
 772:..\..\..\liblc3\src/ltpf.c ****     lag += (w >> 1);
 723              		.loc 1 772 0
 724 002c 02EB6402 		add	r2, r2, r4, asr #1
 725              	.LVL118:
 767:..\..\..\liblc3\src/ltpf.c ****     float u[MAX_FILTER_WIDTH];
 726              		.loc 1 767 0
 727 0030 87EE265A 		vdiv.f32	s10, s14, s13
 773:..\..\..\liblc3\src/ltpf.c **** 
 774:..\..\..\liblc3\src/ltpf.c ****     const float *y = x - xh < lag ? x + (nh - lag) : x - lag;
 728              		.loc 1 774 0
 729 0034 A5EB0006 		sub	r6, r5, r0
 765:..\..\..\liblc3\src/ltpf.c ****     float g = (float)(fade <= 0);
 730              		.loc 1 765 0
 731 0038 9A46     		mov	r10, r3
 732              	.LBB37:
 775:..\..\..\liblc3\src/ltpf.c ****     const float *y_end = xh + nh - 1;
 776:..\..\..\liblc3\src/ltpf.c **** 
 777:..\..\..\liblc3\src/ltpf.c ****     for (int j = 0; j < w-1; j++) {
 733              		.loc 1 777 0
 734 003a 02AF     		add	r7, sp, #8
 735              	.LBE37:
 766:..\..\..\liblc3\src/ltpf.c ****     float g_incr = (float)((fade > 0) - (fade < 0)) / n;
 736              		.loc 1 766 0
 737 003c F7EE007A 		vmov.f32	s15, #1.0e+0
ARM GAS  C:\Users\rdn\AppData\Local\Temp\ccIOjLNc.s 			page 28


 738 0040 C8BF     		it	gt
 739 0042 F0EE467A 		vmovgt.f32	s15, s12
 740              	.LVL119:
 774:..\..\..\liblc3\src/ltpf.c ****     const float *y_end = xh + nh - 1;
 741              		.loc 1 774 0
 742 0046 B2EBA60F 		cmp	r2, r6, asr #2
 743 004a C8BF     		it	gt
 744 004c 8A1A     		subgt	r2, r1, r2
 745              	.LVL120:
 775:..\..\..\liblc3\src/ltpf.c ****     const float *y_end = xh + nh - 1;
 746              		.loc 1 775 0
 747 004e 01F18041 		add	r1, r1, #1073741824
 748              	.LVL121:
 749 0052 01F1FF31 		add	r1, r1, #-1
 750              	.LVL122:
 751 0056 00EB8101 		add	r1, r0, r1, lsl #2
 752              	.LVL123:
 753 005a 0091     		str	r1, [sp]
 754 005c 2699     		ldr	r1, [sp, #152]
 774:..\..\..\liblc3\src/ltpf.c ****     const float *y_end = xh + nh - 1;
 755              		.loc 1 774 0
 756 005e C8BF     		it	gt
 757 0060 05EB8202 		addgt	r2, r5, r2, lsl #2
 758 0064 01EB8408 		add	r8, r1, r4, lsl #2
 759 0068 D8BF     		it	le
 760 006a A5EB8202 		suble	r2, r5, r2, lsl #2
 761              	.LVL124:
 762              	.LBB41:
 763              		.loc 1 777 0
 764 006e 0021     		movs	r1, #0
 765 0070 661E     		subs	r6, r4, #1
 766              	.LVL125:
 767              	.L42:
 768              		.loc 1 777 0 is_stmt 0 discriminator 1
 769 0072 B142     		cmp	r1, r6
 770 0074 31DA     		bge	.L61
 771              	.LBB38:
 778:..\..\..\liblc3\src/ltpf.c **** 
 779:..\..\..\liblc3\src/ltpf.c ****         u[j] = 0;
 780:..\..\..\liblc3\src/ltpf.c **** 
 781:..\..\..\liblc3\src/ltpf.c ****         float yi = *y, xi = *(x0++);
 782:..\..\..\liblc3\src/ltpf.c ****         y = y < y_end ? y + 1 : xh;
 772              		.loc 1 782 0 is_stmt 1
 773 0076 009B     		ldr	r3, [sp]
 781:..\..\..\liblc3\src/ltpf.c ****         y = y < y_end ? y + 1 : xh;
 774              		.loc 1 781 0
 775 0078 92ED007A 		vldr.32	s14, [r2]
 776              	.LVL126:
 779:..\..\..\liblc3\src/ltpf.c **** 
 777              		.loc 1 779 0
 778 007c A7EC016A 		vstmia.32	r7!, {s12}
 779              		.loc 1 782 0
 780 0080 9A42     		cmp	r2, r3
 781:..\..\..\liblc3\src/ltpf.c ****         y = y < y_end ? y + 1 : xh;
 781              		.loc 1 781 0
 782 0082 FAEC015A 		vldmia.32	r10!, {s11}
 783              	.LVL127:
ARM GAS  C:\Users\rdn\AppData\Local\Temp\ccIOjLNc.s 			page 29


 784 0086 DDF89890 		ldr	r9, [sp, #152]
 785              		.loc 1 782 0
 786 008a 34BF     		ite	cc
 787 008c 0432     		addcc	r2, r2, #4
 788              	.LVL128:
 789 008e 0246     		movcs	r2, r0
 790              	.LVL129:
 791              	.LBB39:
 783:..\..\..\liblc3\src/ltpf.c **** 
 784:..\..\..\liblc3\src/ltpf.c ****         for (int k = 0; k <= j; k++)
 792              		.loc 1 784 0
 793 0090 BC46     		mov	ip, r7
 794 0092 4FF0000E 		mov	lr, #0
 785:..\..\..\liblc3\src/ltpf.c ****             u[j-k] -= yi * c[k];
 795              		.loc 1 785 0
 796 0096 B1EE477A 		vneg.f32	s14, s14
 797              	.LVL130:
 798              	.L44:
 784:..\..\..\liblc3\src/ltpf.c ****             u[j-k] -= yi * c[k];
 799              		.loc 1 784 0 discriminator 1
 800 009a 7145     		cmp	r1, lr
 801 009c 0ADB     		blt	.L62
 802              		.loc 1 785 0 discriminator 3
 803 009e 7CED016A 		vldmdb.32	ip!, {s13}
 804 00a2 F9EC014A 		vldmia.32	r9!, {s9}
 805 00a6 E7EE246A 		vfma.f32	s13, s14, s9
 784:..\..\..\liblc3\src/ltpf.c ****             u[j-k] -= yi * c[k];
 806              		.loc 1 784 0 discriminator 3
 807 00aa 0EF1010E 		add	lr, lr, #1
 808              	.LVL131:
 809              		.loc 1 785 0 discriminator 3
 810 00ae CCED006A 		vstr.32	s13, [ip]
 811 00b2 F2E7     		b	.L44
 812              	.L62:
 813 00b4 C146     		mov	r9, r8
 814 00b6 BC46     		mov	ip, r7
 815 00b8 4FF0000E 		mov	lr, #0
 816              	.LVL132:
 817              	.L46:
 818              	.LBE39:
 819              	.LBB40:
 786:..\..\..\liblc3\src/ltpf.c **** 
 787:..\..\..\liblc3\src/ltpf.c ****         for (int k = 0; k <= j; k++)
 820              		.loc 1 787 0 discriminator 1
 821 00bc 7145     		cmp	r1, lr
 822 00be 0ADB     		blt	.L63
 788:..\..\..\liblc3\src/ltpf.c ****             u[j-k] += xi * c[w+k];
 823              		.loc 1 788 0 discriminator 3
 824 00c0 3CED017A 		vldmdb.32	ip!, {s14}
 825 00c4 F9EC016A 		vldmia.32	r9!, {s13}
 826 00c8 A5EEA67A 		vfma.f32	s14, s11, s13
 787:..\..\..\liblc3\src/ltpf.c ****             u[j-k] += xi * c[w+k];
 827              		.loc 1 787 0 discriminator 3
 828 00cc 0EF1010E 		add	lr, lr, #1
 829              	.LVL133:
 830              		.loc 1 788 0 discriminator 3
 831 00d0 8CED007A 		vstr.32	s14, [ip]
ARM GAS  C:\Users\rdn\AppData\Local\Temp\ccIOjLNc.s 			page 30


 832 00d4 F2E7     		b	.L46
 833              	.L63:
 834              	.LBE40:
 835              	.LBE38:
 777:..\..\..\liblc3\src/ltpf.c **** 
 836              		.loc 1 777 0 discriminator 2
 837 00d6 0131     		adds	r1, r1, #1
 838              	.LVL134:
 839 00d8 CBE7     		b	.L42
 840              	.LVL135:
 841              	.L61:
 842              	.LBE41:
 789:..\..\..\liblc3\src/ltpf.c ****     }
 790:..\..\..\liblc3\src/ltpf.c **** 
 791:..\..\..\liblc3\src/ltpf.c ****     u[w-1] = 0;
 843              		.loc 1 791 0
 844 00da 1AAB     		add	r3, sp, #104
 845 00dc 03EB8606 		add	r6, r3, r6, lsl #2
 846 00e0 24EAE471 		bic	r1, r4, r4, asr #31
 847              	.LVL136:
 848 00e4 0023     		movs	r3, #0
 849 00e6 8900     		lsls	r1, r1, #2
 850              	.LBB42:
 851              	.LBB43:
 852              	.LBB44:
 792:..\..\..\liblc3\src/ltpf.c **** 
 793:..\..\..\liblc3\src/ltpf.c ****     /* --- Process by filter length --- */
 794:..\..\..\liblc3\src/ltpf.c **** 
 795:..\..\..\liblc3\src/ltpf.c ****     for (int i = 0; i < n; i += w)
 796:..\..\..\liblc3\src/ltpf.c ****         for (int j = 0; j < w; j++, g += g_incr) {
 797:..\..\..\liblc3\src/ltpf.c **** 
 798:..\..\..\liblc3\src/ltpf.c ****             float yi = *y, xi = *x;
 799:..\..\..\liblc3\src/ltpf.c ****             y = y < y_end ? y + 1 : xh;
 800:..\..\..\liblc3\src/ltpf.c **** 
 801:..\..\..\liblc3\src/ltpf.c ****             for (int k = 0; k < w; k++)
 802:..\..\..\liblc3\src/ltpf.c ****                 u[(j+(w-1)-k)%w] -= yi * c[k];
 803:..\..\..\liblc3\src/ltpf.c **** 
 804:..\..\..\liblc3\src/ltpf.c ****             for (int k = 0; k < w; k++)
 805:..\..\..\liblc3\src/ltpf.c ****                 u[(j+(w-1)-k)%w] += xi * c[w+k];
 806:..\..\..\liblc3\src/ltpf.c **** 
 807:..\..\..\liblc3\src/ltpf.c ****             *(x++) = xi - g * u[j];
 808:..\..\..\liblc3\src/ltpf.c ****             u[j] = 0;
 853              		.loc 1 808 0
 854 00e8 07EE103A 		vmov	s14, r3
 855              	.LBE44:
 856              	.LBE43:
 857              	.LBE42:
 791:..\..\..\liblc3\src/ltpf.c **** 
 858              		.loc 1 791 0
 859 00ec 46F8603C 		str	r3, [r6, #-96]	@ float
 860              	.LVL137:
 861 00f0 0191     		str	r1, [sp, #4]
 862              	.LBB50:
 795:..\..\..\liblc3\src/ltpf.c ****         for (int j = 0; j < w; j++, g += g_incr) {
 863              		.loc 1 795 0
 864 00f2 4FF0000C 		mov	ip, #0
 865              	.LVL138:
ARM GAS  C:\Users\rdn\AppData\Local\Temp\ccIOjLNc.s 			page 31


 866              	.L49:
 795:..\..\..\liblc3\src/ltpf.c ****         for (int j = 0; j < w; j++, g += g_incr) {
 867              		.loc 1 795 0 is_stmt 0 discriminator 1
 868 00f6 259B     		ldr	r3, [sp, #148]
 869 00f8 9C45     		cmp	ip, r3
 870 00fa 55DA     		bge	.L38
 871 00fc AE46     		mov	lr, r5
 795:..\..\..\liblc3\src/ltpf.c ****         for (int j = 0; j < w; j++, g += g_incr) {
 872              		.loc 1 795 0
 873 00fe 2146     		mov	r1, r4
 874 0100 02AF     		add	r7, sp, #8
 875              	.LVL139:
 876              	.L57:
 877              	.LBB49:
 796:..\..\..\liblc3\src/ltpf.c **** 
 878              		.loc 1 796 0 is_stmt 1 discriminator 1
 879 0102 0B1B     		subs	r3, r1, r4
 880              	.LVL140:
 881 0104 9C42     		cmp	r4, r3
 882 0106 4BDD     		ble	.L64
 883              	.LBB47:
 799:..\..\..\liblc3\src/ltpf.c **** 
 884              		.loc 1 799 0
 885 0108 009B     		ldr	r3, [sp]
 886              	.LVL141:
 798:..\..\..\liblc3\src/ltpf.c ****             y = y < y_end ? y + 1 : xh;
 887              		.loc 1 798 0
 888 010a 92ED006A 		vldr.32	s12, [r2]
 889              	.LVL142:
 890 010e DEED006A 		vldr.32	s13, [lr]
 891              	.LVL143:
 892 0112 DDF89890 		ldr	r9, [sp, #152]
 799:..\..\..\liblc3\src/ltpf.c **** 
 893              		.loc 1 799 0
 894 0116 9A42     		cmp	r2, r3
 895 0118 34BF     		ite	cc
 896 011a 0432     		addcc	r2, r2, #4
 897              	.LVL144:
 898 011c 0246     		movcs	r2, r0
 899              	.LVL145:
 900              	.LBB45:
 801:..\..\..\liblc3\src/ltpf.c ****                 u[(j+(w-1)-k)%w] -= yi * c[k];
 901              		.loc 1 801 0
 902 011e 0026     		movs	r6, #0
 802:..\..\..\liblc3\src/ltpf.c **** 
 903              		.loc 1 802 0
 904 0120 01F1FF3B 		add	fp, r1, #-1
 905 0124 B1EE466A 		vneg.f32	s12, s12
 906              	.LVL146:
 907              	.L51:
 801:..\..\..\liblc3\src/ltpf.c ****                 u[(j+(w-1)-k)%w] -= yi * c[k];
 908              		.loc 1 801 0 discriminator 1
 909 0128 A642     		cmp	r6, r4
 910 012a 13DA     		bge	.L65
 802:..\..\..\liblc3\src/ltpf.c **** 
 911              		.loc 1 802 0 discriminator 3
 912 012c C6EB0B0A 		rsb	r10, r6, fp
ARM GAS  C:\Users\rdn\AppData\Local\Temp\ccIOjLNc.s 			page 32


 913 0130 9AFBF4F3 		sdiv	r3, r10, r4
 914 0134 04FB13A3 		mls	r3, r4, r3, r10
 915 0138 0DF1680A 		add	r10, sp, #104
 916 013c 0AEB8303 		add	r3, r10, r3, lsl #2
 917 0140 53ED185A 		vldr.32	s11, [r3, #-96]
 918 0144 F9EC014A 		vldmia.32	r9!, {s9}
 919 0148 E6EE245A 		vfma.f32	s11, s12, s9
 801:..\..\..\liblc3\src/ltpf.c ****                 u[(j+(w-1)-k)%w] -= yi * c[k];
 920              		.loc 1 801 0 discriminator 3
 921 014c 0136     		adds	r6, r6, #1
 922              	.LVL147:
 802:..\..\..\liblc3\src/ltpf.c **** 
 923              		.loc 1 802 0 discriminator 3
 924 014e 43ED185A 		vstr.32	s11, [r3, #-96]
 925 0152 E9E7     		b	.L51
 926              	.L65:
 927 0154 C146     		mov	r9, r8
 928 0156 0026     		movs	r6, #0
 929              	.LVL148:
 930              	.LBE45:
 931              	.LBB46:
 805:..\..\..\liblc3\src/ltpf.c **** 
 932              		.loc 1 805 0 discriminator 1
 933 0158 01F1FF3B 		add	fp, r1, #-1
 934              	.L53:
 935              	.LVL149:
 804:..\..\..\liblc3\src/ltpf.c ****                 u[(j+(w-1)-k)%w] += xi * c[w+k];
 936              		.loc 1 804 0 discriminator 1
 937 015c A642     		cmp	r6, r4
 938 015e 13DA     		bge	.L66
 805:..\..\..\liblc3\src/ltpf.c **** 
 939              		.loc 1 805 0 discriminator 3
 940 0160 C6EB0B0A 		rsb	r10, r6, fp
 941 0164 9AFBF4F3 		sdiv	r3, r10, r4
 942 0168 04FB13A3 		mls	r3, r4, r3, r10
 943 016c 0DF1680A 		add	r10, sp, #104
 944 0170 0AEB8303 		add	r3, r10, r3, lsl #2
 945 0174 13ED186A 		vldr.32	s12, [r3, #-96]
 946 0178 F9EC015A 		vldmia.32	r9!, {s11}
 947 017c A6EEA56A 		vfma.f32	s12, s13, s11
 804:..\..\..\liblc3\src/ltpf.c ****                 u[(j+(w-1)-k)%w] += xi * c[w+k];
 948              		.loc 1 804 0 discriminator 3
 949 0180 0136     		adds	r6, r6, #1
 950              	.LVL150:
 805:..\..\..\liblc3\src/ltpf.c **** 
 951              		.loc 1 805 0 discriminator 3
 952 0182 03ED186A 		vstr.32	s12, [r3, #-96]
 953 0186 E9E7     		b	.L53
 954              	.L66:
 955              	.LBE46:
 807:..\..\..\liblc3\src/ltpf.c ****             u[j] = 0;
 956              		.loc 1 807 0 discriminator 2
 957 0188 97ED006A 		vldr.32	s12, [r7]
 958              		.loc 1 808 0 discriminator 2
 959 018c A7EC017A 		vstmia.32	r7!, {s14}
 960              	.LVL151:
 807:..\..\..\liblc3\src/ltpf.c ****             u[j] = 0;
ARM GAS  C:\Users\rdn\AppData\Local\Temp\ccIOjLNc.s 			page 33


 961              		.loc 1 807 0 discriminator 2
 962 0190 E7EEC66A 		vfms.f32	s13, s15, s12
 963              	.LVL152:
 964 0194 0131     		adds	r1, r1, #1
 965              	.LBE47:
 796:..\..\..\liblc3\src/ltpf.c **** 
 966              		.loc 1 796 0 discriminator 2
 967 0196 77EE857A 		vadd.f32	s15, s15, s10
 968              	.LVL153:
 969              	.LBB48:
 807:..\..\..\liblc3\src/ltpf.c ****             u[j] = 0;
 970              		.loc 1 807 0 discriminator 2
 971 019a EEEC016A 		vstmia.32	lr!, {s13}
 972              	.LVL154:
 973 019e B0E7     		b	.L57
 974              	.LVL155:
 975              	.L64:
 976 01a0 019B     		ldr	r3, [sp, #4]
 977              	.LVL156:
 978              	.LBE48:
 979              	.LBE49:
 795:..\..\..\liblc3\src/ltpf.c ****         for (int j = 0; j < w; j++, g += g_incr) {
 980              		.loc 1 795 0 discriminator 2
 981 01a2 A444     		add	ip, ip, r4
 982              	.LVL157:
 983 01a4 1D44     		add	r5, r5, r3
 984 01a6 A6E7     		b	.L49
 985              	.LVL158:
 986              	.L38:
 987              	.LBE50:
 809:..\..\..\liblc3\src/ltpf.c ****         }
 810:..\..\..\liblc3\src/ltpf.c **** }
 988              		.loc 1 810 0
 989 01a8 1BB0     		add	sp, sp, #108
 990              		.cfi_def_cfa_offset 36
 991              	.LVL159:
 992              		@ sp needed
 993 01aa BDE8F08F 		pop	{r4, r5, r6, r7, r8, r9, r10, fp, pc}
 994              	.LVL160:
 995              	.L68:
 996 01ae 00BF     		.align	2
 997              	.L67:
 998 01b0 00000000 		.word	0
 999              		.cfi_endproc
 1000              	.LFE39:
 1001              		.size	synthesize_template, .-synthesize_template
 1002              		.section	.text.synthesize_4,"ax",%progbits
 1003              		.align	1
 1004              		.thumb
 1005              		.thumb_func
 1006              		.type	synthesize_4, %function
 1007              	synthesize_4:
 1008              	.LFB40:
 811:..\..\..\liblc3\src/ltpf.c **** 
 812:..\..\..\liblc3\src/ltpf.c **** /**
 813:..\..\..\liblc3\src/ltpf.c ****  * Synthesis filter for each samplerates (width of filter)
 814:..\..\..\liblc3\src/ltpf.c ****  */
ARM GAS  C:\Users\rdn\AppData\Local\Temp\ccIOjLNc.s 			page 34


 815:..\..\..\liblc3\src/ltpf.c **** 
 816:..\..\..\liblc3\src/ltpf.c **** 
 817:..\..\..\liblc3\src/ltpf.c **** LC3_HOT static void synthesize_4(const float *xh, int nh, int lag,
 818:..\..\..\liblc3\src/ltpf.c ****     const float *x0, float *x, int n, const float *c, int fade)
 819:..\..\..\liblc3\src/ltpf.c **** {
 1009              		.loc 1 819 0
 1010              		.cfi_startproc
 1011              		@ args = 16, pretend = 0, frame = 0
 1012              		@ frame_needed = 0, uses_anonymous_args = 0
 1013              	.LVL161:
 1014 0000 10B5     		push	{r4, lr}
 1015              		.cfi_def_cfa_offset 8
 1016              		.cfi_offset 4, -8
 1017              		.cfi_offset 14, -4
 1018 0002 86B0     		sub	sp, sp, #24
 1019              		.cfi_def_cfa_offset 32
 820:..\..\..\liblc3\src/ltpf.c ****     synthesize_template(xh, nh, lag, x0, x, n, c, 4, fade);
 1020              		.loc 1 820 0
 1021 0004 0B9C     		ldr	r4, [sp, #44]
 1022 0006 0494     		str	r4, [sp, #16]
 1023 0008 0424     		movs	r4, #4
 1024 000a 0394     		str	r4, [sp, #12]
 1025 000c 0A9C     		ldr	r4, [sp, #40]
 1026 000e 0294     		str	r4, [sp, #8]
 1027 0010 099C     		ldr	r4, [sp, #36]
 1028 0012 0194     		str	r4, [sp, #4]
 1029 0014 089C     		ldr	r4, [sp, #32]
 1030 0016 0094     		str	r4, [sp]
 1031 0018 FFF7FEFF 		bl	synthesize_template
 1032              	.LVL162:
 821:..\..\..\liblc3\src/ltpf.c **** }
 1033              		.loc 1 821 0
 1034 001c 06B0     		add	sp, sp, #24
 1035              		.cfi_def_cfa_offset 8
 1036              		@ sp needed
 1037 001e 10BD     		pop	{r4, pc}
 1038              		.cfi_endproc
 1039              	.LFE40:
 1040              		.size	synthesize_4, .-synthesize_4
 1041              		.section	.text.synthesize_6,"ax",%progbits
 1042              		.align	1
 1043              		.thumb
 1044              		.thumb_func
 1045              		.type	synthesize_6, %function
 1046              	synthesize_6:
 1047              	.LFB41:
 822:..\..\..\liblc3\src/ltpf.c **** 
 823:..\..\..\liblc3\src/ltpf.c **** LC3_HOT static void synthesize_6(const float *xh, int nh, int lag,
 824:..\..\..\liblc3\src/ltpf.c ****     const float *x0, float *x, int n, const float *c, int fade)
 825:..\..\..\liblc3\src/ltpf.c **** {
 1048              		.loc 1 825 0
 1049              		.cfi_startproc
 1050              		@ args = 16, pretend = 0, frame = 0
 1051              		@ frame_needed = 0, uses_anonymous_args = 0
 1052              	.LVL163:
 1053 0000 10B5     		push	{r4, lr}
 1054              		.cfi_def_cfa_offset 8
ARM GAS  C:\Users\rdn\AppData\Local\Temp\ccIOjLNc.s 			page 35


 1055              		.cfi_offset 4, -8
 1056              		.cfi_offset 14, -4
 1057 0002 86B0     		sub	sp, sp, #24
 1058              		.cfi_def_cfa_offset 32
 826:..\..\..\liblc3\src/ltpf.c ****     synthesize_template(xh, nh, lag, x0, x, n, c, 6, fade);
 1059              		.loc 1 826 0
 1060 0004 0B9C     		ldr	r4, [sp, #44]
 1061 0006 0494     		str	r4, [sp, #16]
 1062 0008 0624     		movs	r4, #6
 1063 000a 0394     		str	r4, [sp, #12]
 1064 000c 0A9C     		ldr	r4, [sp, #40]
 1065 000e 0294     		str	r4, [sp, #8]
 1066 0010 099C     		ldr	r4, [sp, #36]
 1067 0012 0194     		str	r4, [sp, #4]
 1068 0014 089C     		ldr	r4, [sp, #32]
 1069 0016 0094     		str	r4, [sp]
 1070 0018 FFF7FEFF 		bl	synthesize_template
 1071              	.LVL164:
 827:..\..\..\liblc3\src/ltpf.c **** }
 1072              		.loc 1 827 0
 1073 001c 06B0     		add	sp, sp, #24
 1074              		.cfi_def_cfa_offset 8
 1075              		@ sp needed
 1076 001e 10BD     		pop	{r4, pc}
 1077              		.cfi_endproc
 1078              	.LFE41:
 1079              		.size	synthesize_6, .-synthesize_6
 1080              		.section	.text.synthesize_8,"ax",%progbits
 1081              		.align	1
 1082              		.thumb
 1083              		.thumb_func
 1084              		.type	synthesize_8, %function
 1085              	synthesize_8:
 1086              	.LFB42:
 828:..\..\..\liblc3\src/ltpf.c **** 
 829:..\..\..\liblc3\src/ltpf.c **** LC3_HOT static void synthesize_8(const float *xh, int nh, int lag,
 830:..\..\..\liblc3\src/ltpf.c ****     const float *x0, float *x, int n, const float *c, int fade)
 831:..\..\..\liblc3\src/ltpf.c **** {
 1087              		.loc 1 831 0
 1088              		.cfi_startproc
 1089              		@ args = 16, pretend = 0, frame = 0
 1090              		@ frame_needed = 0, uses_anonymous_args = 0
 1091              	.LVL165:
 1092 0000 10B5     		push	{r4, lr}
 1093              		.cfi_def_cfa_offset 8
 1094              		.cfi_offset 4, -8
 1095              		.cfi_offset 14, -4
 1096 0002 86B0     		sub	sp, sp, #24
 1097              		.cfi_def_cfa_offset 32
 832:..\..\..\liblc3\src/ltpf.c ****     synthesize_template(xh, nh, lag, x0, x, n, c, 8, fade);
 1098              		.loc 1 832 0
 1099 0004 0B9C     		ldr	r4, [sp, #44]
 1100 0006 0494     		str	r4, [sp, #16]
 1101 0008 0824     		movs	r4, #8
 1102 000a 0394     		str	r4, [sp, #12]
 1103 000c 0A9C     		ldr	r4, [sp, #40]
 1104 000e 0294     		str	r4, [sp, #8]
ARM GAS  C:\Users\rdn\AppData\Local\Temp\ccIOjLNc.s 			page 36


 1105 0010 099C     		ldr	r4, [sp, #36]
 1106 0012 0194     		str	r4, [sp, #4]
 1107 0014 089C     		ldr	r4, [sp, #32]
 1108 0016 0094     		str	r4, [sp]
 1109 0018 FFF7FEFF 		bl	synthesize_template
 1110              	.LVL166:
 833:..\..\..\liblc3\src/ltpf.c **** }
 1111              		.loc 1 833 0
 1112 001c 06B0     		add	sp, sp, #24
 1113              		.cfi_def_cfa_offset 8
 1114              		@ sp needed
 1115 001e 10BD     		pop	{r4, pc}
 1116              		.cfi_endproc
 1117              	.LFE42:
 1118              		.size	synthesize_8, .-synthesize_8
 1119              		.section	.text.synthesize_12,"ax",%progbits
 1120              		.align	1
 1121              		.thumb
 1122              		.thumb_func
 1123              		.type	synthesize_12, %function
 1124              	synthesize_12:
 1125              	.LFB43:
 834:..\..\..\liblc3\src/ltpf.c **** 
 835:..\..\..\liblc3\src/ltpf.c **** LC3_HOT static void synthesize_12(const float *xh, int nh, int lag,
 836:..\..\..\liblc3\src/ltpf.c ****     const float *x0, float *x, int n, const float *c, int fade)
 837:..\..\..\liblc3\src/ltpf.c **** {
 1126              		.loc 1 837 0
 1127              		.cfi_startproc
 1128              		@ args = 16, pretend = 0, frame = 0
 1129              		@ frame_needed = 0, uses_anonymous_args = 0
 1130              	.LVL167:
 1131 0000 10B5     		push	{r4, lr}
 1132              		.cfi_def_cfa_offset 8
 1133              		.cfi_offset 4, -8
 1134              		.cfi_offset 14, -4
 1135 0002 86B0     		sub	sp, sp, #24
 1136              		.cfi_def_cfa_offset 32
 838:..\..\..\liblc3\src/ltpf.c ****     synthesize_template(xh, nh, lag, x0, x, n, c, 12, fade);
 1137              		.loc 1 838 0
 1138 0004 0B9C     		ldr	r4, [sp, #44]
 1139 0006 0494     		str	r4, [sp, #16]
 1140 0008 0C24     		movs	r4, #12
 1141 000a 0394     		str	r4, [sp, #12]
 1142 000c 0A9C     		ldr	r4, [sp, #40]
 1143 000e 0294     		str	r4, [sp, #8]
 1144 0010 099C     		ldr	r4, [sp, #36]
 1145 0012 0194     		str	r4, [sp, #4]
 1146 0014 089C     		ldr	r4, [sp, #32]
 1147 0016 0094     		str	r4, [sp]
 1148 0018 FFF7FEFF 		bl	synthesize_template
 1149              	.LVL168:
 839:..\..\..\liblc3\src/ltpf.c **** }
 1150              		.loc 1 839 0
 1151 001c 06B0     		add	sp, sp, #24
 1152              		.cfi_def_cfa_offset 8
 1153              		@ sp needed
 1154 001e 10BD     		pop	{r4, pc}
ARM GAS  C:\Users\rdn\AppData\Local\Temp\ccIOjLNc.s 			page 37


 1155              		.cfi_endproc
 1156              	.LFE43:
 1157              		.size	synthesize_12, .-synthesize_12
 1158              		.section	.text.resample_x64k_12k8,"ax",%progbits
 1159              		.align	1
 1160              		.thumb
 1161              		.thumb_func
 1162              		.type	resample_x64k_12k8, %function
 1163              	resample_x64k_12k8:
 1164              	.LFB21:
 215:..\..\..\liblc3\src/ltpf.c ****     const int w = 2*(40 / p);
 1165              		.loc 1 215 0
 1166              		.cfi_startproc
 1167              		@ args = 8, pretend = 0, frame = 8
 1168              		@ frame_needed = 0, uses_anonymous_args = 0
 1169              	.LVL169:
 1170 0000 2DE9F74F 		push	{r0, r1, r2, r4, r5, r6, r7, r8, r9, r10, fp, lr}
 1171              		.cfi_def_cfa_offset 48
 1172              		.cfi_offset 4, -36
 1173              		.cfi_offset 5, -32
 1174              		.cfi_offset 6, -28
 1175              		.cfi_offset 7, -24
 1176              		.cfi_offset 8, -20
 1177              		.cfi_offset 9, -16
 1178              		.cfi_offset 10, -12
 1179              		.cfi_offset 11, -8
 1180              		.cfi_offset 14, -4
 215:..\..\..\liblc3\src/ltpf.c ****     const int w = 2*(40 / p);
 1181              		.loc 1 215 0
 1182 0004 8946     		mov	r9, r1
 1183 0006 9846     		mov	r8, r3
 1184 0008 0D99     		ldr	r1, [sp, #52]
 1185              	.LVL170:
 216:..\..\..\liblc3\src/ltpf.c **** 
 1186              		.loc 1 216 0
 1187 000a 2823     		movs	r3, #40
 1188              	.LVL171:
 1189 000c 93FBF0F3 		sdiv	r3, r3, r0
 1190 0010 5B00     		lsls	r3, r3, #1
 1191              	.LVL172:
 218:..\..\..\liblc3\src/ltpf.c **** 
 1192              		.loc 1 218 0
 1193 0012 5C00     		lsls	r4, r3, #1
 1194              	.LBB56:
 220:..\..\..\liblc3\src/ltpf.c ****         const int16_t *hn = h + (i % p) * w;
 1195              		.loc 1 220 0
 1196 0014 01EB810A 		add	r10, r1, r1, lsl #2
 1197              	.LBE56:
 218:..\..\..\liblc3\src/ltpf.c **** 
 1198              		.loc 1 218 0
 1199 0018 C4F1020B 		rsb	fp, r4, #2
 1200              	.LVL173:
 1201              	.LBB65:
 220:..\..\..\liblc3\src/ltpf.c ****         const int16_t *hn = h + (i % p) * w;
 1202              		.loc 1 220 0
 1203 001c 0021     		movs	r1, #0
 1204              	.LVL174:
ARM GAS  C:\Users\rdn\AppData\Local\Temp\ccIOjLNc.s 			page 38


 1205              	.L74:
 220:..\..\..\liblc3\src/ltpf.c ****         const int16_t *hn = h + (i % p) * w;
 1206              		.loc 1 220 0 is_stmt 0 discriminator 1
 1207 001e 5145     		cmp	r1, r10
 1208 0020 80F28180 		bge	.L78
 1209              	.LVL175:
 1210 0024 91FBF0F6 		sdiv	r6, r1, r0
 1211 0028 00FB1617 		mls	r7, r0, r6, r1
 1212 002c 5F43     		muls	r7, r3, r7
 1213 002e 0BEB4606 		add	r6, fp, r6, lsl #1
 1214              	.LBB57:
 1215              	.LBB58:
 225:..\..\..\liblc3\src/ltpf.c ****             un += *(xn++) * *(hn++);
 1216              		.loc 1 225 0 is_stmt 1
 1217 0032 4FF0000E 		mov	lr, #0
 1218 0036 09EB4707 		add	r7, r9, r7, lsl #1
 1219 003a 4644     		add	r6, r6, r8
 1220              	.LBE58:
 223:..\..\..\liblc3\src/ltpf.c **** 
 1221              		.loc 1 223 0
 1222 003c F446     		mov	ip, lr
 1223              	.LVL176:
 1224              	.L75:
 1225              	.LBB59:
 225:..\..\..\liblc3\src/ltpf.c ****             un += *(xn++) * *(hn++);
 1226              		.loc 1 225 0 discriminator 1
 1227 003e 9E45     		cmp	lr, r3
 1228 0040 07F11407 		add	r7, r7, #20
 1229 0044 06F11406 		add	r6, r6, #20
 1230              	.LVL177:
 1231 0048 3EDA     		bge	.L79
 1232              	.LVL178:
 226:..\..\..\liblc3\src/ltpf.c ****             un += *(xn++) * *(hn++);
 1233              		.loc 1 226 0 discriminator 3
 1234 004a 36F9145C 		ldrsh	r5, [r6, #-20]
 1235              	.LVL179:
 1236 004e 37F9144C 		ldrsh	r4, [r7, #-20]
 1237 0052 05FB04CC 		mla	ip, r5, r4, ip
 1238              	.LVL180:
 227:..\..\..\liblc3\src/ltpf.c ****             un += *(xn++) * *(hn++);
 1239              		.loc 1 227 0 discriminator 3
 1240 0056 37F9124C 		ldrsh	r4, [r7, #-18]
 1241 005a 36F9125C 		ldrsh	r5, [r6, #-18]
 1242              	.LVL181:
 1243 005e 05FB04C5 		mla	r5, r5, r4, ip
 1244              	.LVL182:
 228:..\..\..\liblc3\src/ltpf.c ****             un += *(xn++) * *(hn++);
 1245              		.loc 1 228 0 discriminator 3
 1246 0062 36F910CC 		ldrsh	ip, [r6, #-16]
 1247              	.LVL183:
 1248 0066 37F9104C 		ldrsh	r4, [r7, #-16]
 1249 006a 0CFB0454 		mla	r4, ip, r4, r5
 1250              	.LVL184:
 229:..\..\..\liblc3\src/ltpf.c ****             un += *(xn++) * *(hn++);
 1251              		.loc 1 229 0 discriminator 3
 1252 006e 37F90E5C 		ldrsh	r5, [r7, #-14]
 1253 0072 36F90ECC 		ldrsh	ip, [r6, #-14]
ARM GAS  C:\Users\rdn\AppData\Local\Temp\ccIOjLNc.s 			page 39


 1254              	.LVL185:
 1255 0076 0CFB054C 		mla	ip, ip, r5, r4
 1256              	.LVL186:
 230:..\..\..\liblc3\src/ltpf.c ****             un += *(xn++) * *(hn++);
 1257              		.loc 1 230 0 discriminator 3
 1258 007a 37F90C4C 		ldrsh	r4, [r7, #-12]
 1259 007e 36F90C5C 		ldrsh	r5, [r6, #-12]
 1260              	.LVL187:
 1261 0082 05FB04C5 		mla	r5, r5, r4, ip
 1262              	.LVL188:
 231:..\..\..\liblc3\src/ltpf.c ****             un += *(xn++) * *(hn++);
 1263              		.loc 1 231 0 discriminator 3
 1264 0086 36F90ACC 		ldrsh	ip, [r6, #-10]
 1265              	.LVL189:
 1266 008a 37F90A4C 		ldrsh	r4, [r7, #-10]
 1267 008e 0CFB0454 		mla	r4, ip, r4, r5
 1268              	.LVL190:
 232:..\..\..\liblc3\src/ltpf.c ****             un += *(xn++) * *(hn++);
 1269              		.loc 1 232 0 discriminator 3
 1270 0092 37F9085C 		ldrsh	r5, [r7, #-8]
 1271 0096 36F908CC 		ldrsh	ip, [r6, #-8]
 1272              	.LVL191:
 1273 009a 0CFB054C 		mla	ip, ip, r5, r4
 1274              	.LVL192:
 233:..\..\..\liblc3\src/ltpf.c ****             un += *(xn++) * *(hn++);
 1275              		.loc 1 233 0 discriminator 3
 1276 009e 37F9064C 		ldrsh	r4, [r7, #-6]
 1277 00a2 36F9065C 		ldrsh	r5, [r6, #-6]
 1278              	.LVL193:
 1279 00a6 05FB04C5 		mla	r5, r5, r4, ip
 1280              	.LVL194:
 234:..\..\..\liblc3\src/ltpf.c ****             un += *(xn++) * *(hn++);
 1281              		.loc 1 234 0 discriminator 3
 1282 00aa 36F904CC 		ldrsh	ip, [r6, #-4]
 1283              	.LVL195:
 1284 00ae 37F9044C 		ldrsh	r4, [r7, #-4]
 1285 00b2 0CFB0454 		mla	r4, ip, r4, r5
 1286              	.LVL196:
 235:..\..\..\liblc3\src/ltpf.c ****         }
 1287              		.loc 1 235 0 discriminator 3
 1288 00b6 36F902CC 		ldrsh	ip, [r6, #-2]
 1289              	.LVL197:
 1290 00ba 37F9025C 		ldrsh	r5, [r7, #-2]
 225:..\..\..\liblc3\src/ltpf.c ****             un += *(xn++) * *(hn++);
 1291              		.loc 1 225 0 discriminator 3
 1292 00be 0EF10A0E 		add	lr, lr, #10
 1293              	.LVL198:
 235:..\..\..\liblc3\src/ltpf.c ****         }
 1294              		.loc 1 235 0 discriminator 3
 1295 00c2 0CFB054C 		mla	ip, ip, r5, r4
 1296              	.LVL199:
 1297 00c6 BAE7     		b	.L75
 1298              	.LVL200:
 1299              	.L79:
 1300              	.LBE59:
 1301              	.LBB60:
 1302              	.LBB61:
ARM GAS  C:\Users\rdn\AppData\Local\Temp\ccIOjLNc.s 			page 40


 192:..\..\..\liblc3\src/ltpf.c ****     hp50->s1 = (hp50->s2 + (int64_t)xn * b1 - (int64_t)yn * a1);
 1303              		.loc 1 192 0
 1304 00c8 184C     		ldr	r4, .L80
 1305 00ca 8CFB0445 		smull	r4, r5, ip, r4
 1306 00ce CDE90045 		strd	r4, [sp]
 1307 00d2 DDE90067 		ldrd	r6, [sp]
 1308              	.LVL201:
 1309 00d6 D2E90045 		ldrd	r4, [r2]
 1310 00da 3619     		adds	r6, r6, r4
 1311 00dc 6F41     		adcs	r7, r7, r5
 193:..\..\..\liblc3\src/ltpf.c ****     hp50->s2 = (           (int64_t)xn * b2 - (int64_t)yn * a2);
 1312              		.loc 1 193 0
 1313 00de D2E90245 		ldrd	r4, [r2, #8]
 192:..\..\..\liblc3\src/ltpf.c ****     hp50->s1 = (hp50->s2 + (int64_t)xn * b1 - (int64_t)yn * a1);
 1314              		.loc 1 192 0
 1315 00e2 4FEA967E 		lsr	lr, r6, #30
 1316              	.LVL202:
 193:..\..\..\liblc3\src/ltpf.c ****     hp50->s2 = (           (int64_t)xn * b2 - (int64_t)yn * a2);
 1317              		.loc 1 193 0
 1318 00e6 124E     		ldr	r6, .L80+4
 1319 00e8 C6FB0C45 		smlal	r4, r5, r6, ip
 1320 00ec A6F18D66 		sub	r6, r6, #73924608
 1321 00f0 A6F58D26 		sub	r6, r6, #288768
 192:..\..\..\liblc3\src/ltpf.c ****     hp50->s1 = (hp50->s2 + (int64_t)xn * b1 - (int64_t)yn * a1);
 1322              		.loc 1 192 0
 1323 00f4 4EEA870E 		orr	lr, lr, r7, lsl #2
 1324              	.LVL203:
 193:..\..\..\liblc3\src/ltpf.c ****     hp50->s2 = (           (int64_t)xn * b2 - (int64_t)yn * a2);
 1325              		.loc 1 193 0
 1326 00f8 A6F29726 		subw	r6, r6, #663
 1327 00fc C6FB0E45 		smlal	r4, r5, r6, lr
 194:..\..\..\liblc3\src/ltpf.c **** 
 1328              		.loc 1 194 0
 1329 0100 DDE90067 		ldrd	r6, [sp]
 193:..\..\..\liblc3\src/ltpf.c ****     hp50->s2 = (           (int64_t)xn * b2 - (int64_t)yn * a2);
 1330              		.loc 1 193 0
 1331 0104 C2E90045 		strd	r4, [r2]
 194:..\..\..\liblc3\src/ltpf.c **** 
 1332              		.loc 1 194 0
 1333 0108 0A4C     		ldr	r4, .L80+8
 1334 010a C4FB0E67 		smlal	r6, r7, r4, lr
 1335              	.LBE61:
 1336              	.LBE60:
 239:..\..\..\liblc3\src/ltpf.c ****     }
 1337              		.loc 1 239 0
 1338 010e 0C9C     		ldr	r4, [sp, #48]
 1339 0110 0EF5004E 		add	lr, lr, #32768
 1340              	.LVL204:
 1341 0114 4FEA2E4E 		asr	lr, lr, #16
 1342              	.LVL205:
 1343              	.LBB63:
 1344              	.LBB62:
 194:..\..\..\liblc3\src/ltpf.c **** 
 1345              		.loc 1 194 0
 1346 0118 C2E90267 		strd	r6, [r2, #8]
 1347              	.LVL206:
 1348              	.LBE62:
ARM GAS  C:\Users\rdn\AppData\Local\Temp\ccIOjLNc.s 			page 41


 1349              	.LBE63:
 239:..\..\..\liblc3\src/ltpf.c ****     }
 1350              		.loc 1 239 0
 1351 011c 24F802EB 		strh	lr, [r4], #2	@ movhi
 1352              	.LVL207:
 1353              	.LBE57:
 220:..\..\..\liblc3\src/ltpf.c ****         const int16_t *hn = h + (i % p) * w;
 1354              		.loc 1 220 0
 1355 0120 0531     		adds	r1, r1, #5
 1356              	.LVL208:
 1357              	.LBB64:
 239:..\..\..\liblc3\src/ltpf.c ****     }
 1358              		.loc 1 239 0
 1359 0122 0C94     		str	r4, [sp, #48]
 1360              	.LVL209:
 1361 0124 7BE7     		b	.L74
 1362              	.LVL210:
 1363              	.L78:
 1364              	.LBE64:
 1365              	.LBE65:
 241:..\..\..\liblc3\src/ltpf.c **** #endif
 1366              		.loc 1 241 0
 1367 0126 03B0     		add	sp, sp, #12
 1368              		.cfi_def_cfa_offset 36
 1369              		@ sp needed
 1370 0128 BDE8F08F 		pop	{r4, r5, r6, r7, r8, r9, r10, fp, pc}
 1371              	.LVL211:
 1372              	.L81:
 1373              		.align	2
 1374              	.L80:
 1375 012c C61BE63E 		.word	1055267782
 1376 0130 72C83382 		.word	-2110535566
 1377 0134 BFEE2EC2 		.word	-1037111617
 1378              		.cfi_endproc
 1379              	.LFE21:
 1380              		.size	resample_x64k_12k8, .-resample_x64k_12k8
 1381              		.section	.text.resample_8k_12k8,"ax",%progbits
 1382              		.align	1
 1383              		.thumb
 1384              		.thumb_func
 1385              		.type	resample_8k_12k8, %function
 1386              	resample_8k_12k8:
 1387              	.LFB23:
 305:..\..\..\liblc3\src/ltpf.c ****     resample_x64k_12k8(8, h_8k_12k8_q15, hp50, x, y, n);
 1388              		.loc 1 305 0
 1389              		.cfi_startproc
 1390              		@ args = 0, pretend = 0, frame = 0
 1391              		@ frame_needed = 0, uses_anonymous_args = 0
 1392              	.LVL212:
 1393 0000 07B5     		push	{r0, r1, r2, lr}
 1394              		.cfi_def_cfa_offset 16
 1395              		.cfi_offset 14, -4
 306:..\..\..\liblc3\src/ltpf.c **** }
 1396              		.loc 1 306 0
 1397 0002 8DE80C00 		stmia	sp, {r2, r3}
 1398 0006 0B46     		mov	r3, r1
 1399              	.LVL213:
ARM GAS  C:\Users\rdn\AppData\Local\Temp\ccIOjLNc.s 			page 42


 1400 0008 0246     		mov	r2, r0
 1401              	.LVL214:
 1402 000a 0349     		ldr	r1, .L83
 1403              	.LVL215:
 1404 000c 0820     		movs	r0, #8
 1405              	.LVL216:
 1406 000e FFF7FEFF 		bl	resample_x64k_12k8
 1407              	.LVL217:
 307:..\..\..\liblc3\src/ltpf.c **** #endif /* resample_8k_12k8 */
 1408              		.loc 1 307 0
 1409 0012 03B0     		add	sp, sp, #12
 1410              		.cfi_def_cfa_offset 4
 1411              		@ sp needed
 1412 0014 5DF804FB 		ldr	pc, [sp], #4
 1413              	.L84:
 1414              		.align	2
 1415              	.L83:
 1416 0018 40060000 		.word	.LANCHOR0+1600
 1417              		.cfi_endproc
 1418              	.LFE23:
 1419              		.size	resample_8k_12k8, .-resample_8k_12k8
 1420              		.section	.text.resample_16k_12k8,"ax",%progbits
 1421              		.align	1
 1422              		.thumb
 1423              		.thumb_func
 1424              		.type	resample_16k_12k8, %function
 1425              	resample_16k_12k8:
 1426              	.LFB24:
 321:..\..\..\liblc3\src/ltpf.c ****     resample_x64k_12k8(4, h_16k_12k8_q15, hp50, x, y, n);
 1427              		.loc 1 321 0
 1428              		.cfi_startproc
 1429              		@ args = 0, pretend = 0, frame = 0
 1430              		@ frame_needed = 0, uses_anonymous_args = 0
 1431              	.LVL218:
 1432 0000 07B5     		push	{r0, r1, r2, lr}
 1433              		.cfi_def_cfa_offset 16
 1434              		.cfi_offset 14, -4
 322:..\..\..\liblc3\src/ltpf.c **** }
 1435              		.loc 1 322 0
 1436 0002 8DE80C00 		stmia	sp, {r2, r3}
 1437 0006 0B46     		mov	r3, r1
 1438              	.LVL219:
 1439 0008 0246     		mov	r2, r0
 1440              	.LVL220:
 1441 000a 0349     		ldr	r1, .L86
 1442              	.LVL221:
 1443 000c 0420     		movs	r0, #4
 1444              	.LVL222:
 1445 000e FFF7FEFF 		bl	resample_x64k_12k8
 1446              	.LVL223:
 323:..\..\..\liblc3\src/ltpf.c **** #endif /* resample_16k_12k8 */
 1447              		.loc 1 323 0
 1448 0012 03B0     		add	sp, sp, #12
 1449              		.cfi_def_cfa_offset 4
 1450              		@ sp needed
 1451 0014 5DF804FB 		ldr	pc, [sp], #4
 1452              	.L87:
ARM GAS  C:\Users\rdn\AppData\Local\Temp\ccIOjLNc.s 			page 43


 1453              		.align	2
 1454              	.L86:
 1455 0018 E0060000 		.word	.LANCHOR0+1760
 1456              		.cfi_endproc
 1457              	.LFE24:
 1458              		.size	resample_16k_12k8, .-resample_16k_12k8
 1459              		.section	.text.resample_32k_12k8,"ax",%progbits
 1460              		.align	1
 1461              		.thumb
 1462              		.thumb_func
 1463              		.type	resample_32k_12k8, %function
 1464              	resample_32k_12k8:
 1465              	.LFB25:
 337:..\..\..\liblc3\src/ltpf.c ****     resample_x64k_12k8(2, h_32k_12k8_q15, hp50, x, y, n);
 1466              		.loc 1 337 0
 1467              		.cfi_startproc
 1468              		@ args = 0, pretend = 0, frame = 0
 1469              		@ frame_needed = 0, uses_anonymous_args = 0
 1470              	.LVL224:
 1471 0000 07B5     		push	{r0, r1, r2, lr}
 1472              		.cfi_def_cfa_offset 16
 1473              		.cfi_offset 14, -4
 338:..\..\..\liblc3\src/ltpf.c **** }
 1474              		.loc 1 338 0
 1475 0002 8DE80C00 		stmia	sp, {r2, r3}
 1476 0006 0B46     		mov	r3, r1
 1477              	.LVL225:
 1478 0008 0246     		mov	r2, r0
 1479              	.LVL226:
 1480 000a 0349     		ldr	r1, .L89
 1481              	.LVL227:
 1482 000c 0220     		movs	r0, #2
 1483              	.LVL228:
 1484 000e FFF7FEFF 		bl	resample_x64k_12k8
 1485              	.LVL229:
 339:..\..\..\liblc3\src/ltpf.c **** #endif /* resample_32k_12k8 */
 1486              		.loc 1 339 0
 1487 0012 03B0     		add	sp, sp, #12
 1488              		.cfi_def_cfa_offset 4
 1489              		@ sp needed
 1490 0014 5DF804FB 		ldr	pc, [sp], #4
 1491              	.L90:
 1492              		.align	2
 1493              	.L89:
 1494 0018 80070000 		.word	.LANCHOR0+1920
 1495              		.cfi_endproc
 1496              	.LFE25:
 1497              		.size	resample_32k_12k8, .-resample_32k_12k8
 1498              		.section	.text.lc3_ltpf_analyse,"ax",%progbits
 1499              		.align	1
 1500              		.global	lc3_ltpf_analyse
 1501              		.thumb
 1502              		.thumb_func
 1503              		.type	lc3_ltpf_analyse, %function
 1504              	lc3_ltpf_analyse:
 1505              	.LFB38:
 663:..\..\..\liblc3\src/ltpf.c ****     /* --- Resampling to 12.8 KHz --- */
ARM GAS  C:\Users\rdn\AppData\Local\Temp\ccIOjLNc.s 			page 44


 1506              		.loc 1 663 0
 1507              		.cfi_startproc
 1508              		@ args = 4, pretend = 0, frame = 664
 1509              		@ frame_needed = 0, uses_anonymous_args = 0
 1510              	.LVL230:
 1511 0000 2DE9F04F 		push	{r4, r5, r6, r7, r8, r9, r10, fp, lr}
 1512              		.cfi_def_cfa_offset 36
 1513              		.cfi_offset 4, -36
 1514              		.cfi_offset 5, -32
 1515              		.cfi_offset 6, -28
 1516              		.cfi_offset 7, -24
 1517              		.cfi_offset 8, -20
 1518              		.cfi_offset 9, -16
 1519              		.cfi_offset 10, -12
 1520              		.cfi_offset 11, -8
 1521              		.cfi_offset 14, -4
 667:..\..\..\liblc3\src/ltpf.c **** 
 1522              		.loc 1 667 0
 1523 0004 00F10109 		add	r9, r0, #1
 663:..\..\..\liblc3\src/ltpf.c ****     /* --- Resampling to 12.8 KHz --- */
 1524              		.loc 1 663 0
 1525 0008 2DED048B 		vpush.64	{d8, d9}
 1526              		.cfi_def_cfa_offset 52
 1527              		.cfi_offset 80, -52
 1528              		.cfi_offset 81, -48
 1529              		.cfi_offset 82, -44
 1530              		.cfi_offset 83, -40
 667:..\..\..\liblc3\src/ltpf.c **** 
 1531              		.loc 1 667 0
 1532 000c 4FEA4917 		lsl	r7, r9, #5
 1533              	.LVL231:
 669:..\..\..\liblc3\src/ltpf.c ****         (z_12k8 - n_12k8) * sizeof(*ltpf->x_12k8));
 1534              		.loc 1 669 0
 1535 0010 C7F5C078 		rsb	r8, r7, #384
 663:..\..\..\liblc3\src/ltpf.c ****     /* --- Resampling to 12.8 KHz --- */
 1536              		.loc 1 663 0
 1537 0014 ADF5277D 		sub	sp, sp, #668
 1538              		.cfi_def_cfa_offset 720
 669:..\..\..\liblc3\src/ltpf.c ****         (z_12k8 - n_12k8) * sizeof(*ltpf->x_12k8));
 1539              		.loc 1 669 0
 1540 0018 4FEA4808 		lsl	r8, r8, #1
 663:..\..\..\liblc3\src/ltpf.c ****     /* --- Resampling to 12.8 KHz --- */
 1541              		.loc 1 663 0
 1542 001c 9A46     		mov	r10, r3
 669:..\..\..\liblc3\src/ltpf.c ****         (z_12k8 - n_12k8) * sizeof(*ltpf->x_12k8));
 1543              		.loc 1 669 0
 1544 001e 4FEA8919 		lsl	r9, r9, #6
 1545 0022 02F12003 		add	r3, r2, #32
 1546              	.LVL232:
 663:..\..\..\liblc3\src/ltpf.c ****     /* --- Resampling to 12.8 KHz --- */
 1547              		.loc 1 663 0
 1548 0026 8DE80300 		stmia	sp, {r0, r1}
 1549 002a 1646     		mov	r6, r2
 669:..\..\..\liblc3\src/ltpf.c ****         (z_12k8 - n_12k8) * sizeof(*ltpf->x_12k8));
 1550              		.loc 1 669 0
 1551 002c 03EB0901 		add	r1, r3, r9
 1552              	.LVL233:
ARM GAS  C:\Users\rdn\AppData\Local\Temp\ccIOjLNc.s 			page 45


 1553 0030 4246     		mov	r2, r8
 1554              	.LVL234:
 1555 0032 1846     		mov	r0, r3
 1556              	.LVL235:
 1557 0034 FFF7FEFF 		bl	memmove
 1558              	.LVL236:
 674:..\..\..\liblc3\src/ltpf.c **** 
 1559              		.loc 1 674 0
 1560 0038 019A     		ldr	r2, [sp, #4]
 1561 003a C74B     		ldr	r3, .L178
 1562 003c 03EB8203 		add	r3, r3, r2, lsl #2
 672:..\..\..\liblc3\src/ltpf.c **** 
 1563              		.loc 1 672 0
 1564 0040 00EB0804 		add	r4, r0, r8
 1565              	.LVL237:
 674:..\..\..\liblc3\src/ltpf.c **** 
 1566              		.loc 1 674 0
 1567 0044 D3F82058 		ldr	r5, [r3, #2080]
 1568 0048 2246     		mov	r2, r4
 1569 004a 5146     		mov	r1, r10
 1570 004c 3B46     		mov	r3, r7
 1571 004e 06F11000 		add	r0, r6, #16
 1572 0052 A847     		blx	r5
 1573              	.LVL238:
 676:..\..\..\liblc3\src/ltpf.c **** 
 1574              		.loc 1 676 0
 1575 0054 009B     		ldr	r3, [sp]
 1576 0056 022B     		cmp	r3, #2
 1577 0058 0CBF     		ite	eq
 1578 005a 6FF05708 		mvneq	r8, #87
 1579 005e 6FF02F08 		mvnne	r8, #47
 681:..\..\..\liblc3\src/ltpf.c **** 
 1580              		.loc 1 681 0
 1581 0062 7D10     		asrs	r5, r7, #1
 676:..\..\..\liblc3\src/ltpf.c **** 
 1582              		.loc 1 676 0
 1583 0064 A044     		add	r8, r8, r4
 1584              	.LVL239:
 683:..\..\..\liblc3\src/ltpf.c ****         (z_6k4 - n_6k4) * sizeof(*ltpf->x_6k4));
 1585              		.loc 1 683 0
 1586 0066 C5F1B204 		rsb	r4, r5, #178
 1587 006a 06F54873 		add	r3, r6, #800
 1588 006e 4FEA450A 		lsl	r10, r5, #1
 1589              	.LVL240:
 1590 0072 6400     		lsls	r4, r4, #1
 1591 0074 03EB0A01 		add	r1, r3, r10
 1592 0078 2246     		mov	r2, r4
 1593 007a 1846     		mov	r0, r3
 1594 007c FFF7FEFF 		bl	memmove
 1595              	.LVL241:
 686:..\..\..\liblc3\src/ltpf.c **** 
 1596              		.loc 1 686 0
 1597 0080 0444     		add	r4, r4, r0
 1598              	.LVL242:
 1599              	.LBB91:
 1600              	.LBB92:
 401:..\..\..\liblc3\src/ltpf.c **** 
ARM GAS  C:\Users\rdn\AppData\Local\Temp\ccIOjLNc.s 			page 46


 1601              		.loc 1 401 0
 1602 0082 04EB0A0E 		add	lr, r4, r10
 1603              	.LVL243:
 1604 0086 08F10203 		add	r3, r8, #2
 1605 008a A446     		mov	ip, r4
 404:..\..\..\liblc3\src/ltpf.c ****                               + (x[-2] + x[2]) * h[2]) >> 16;
 1606              		.loc 1 404 0
 1607 008c 41F6A97A 		movw	r10, #8105
 1608              	.LVL244:
 1609              	.L93:
 403:..\..\..\liblc3\src/ltpf.c ****         *(y++) = (x[0] * h[0] + (x[-1] + x[1]) * h[1]
 1610              		.loc 1 403 0
 1611 0090 E645     		cmp	lr, ip
 1612 0092 03F10403 		add	r3, r3, #4
 1613              	.LVL245:
 1614 0096 18D9     		bls	.L174
 1615              	.LVL246:
 404:..\..\..\liblc3\src/ltpf.c ****                               + (x[-2] + x[2]) * h[2]) >> 16;
 1616              		.loc 1 404 0
 1617 0098 33F9060C 		ldrsh	r0, [r3, #-6]
 1618 009c 33F90A1C 		ldrsh	r1, [r3, #-10]
 1619 00a0 33F908BC 		ldrsh	fp, [r3, #-8]
 1620 00a4 0144     		add	r1, r1, r0
 1621 00a6 4FF47152 		mov	r2, #15424
 1622 00aa 5143     		muls	r1, r2, r1
 1623 00ac 44F62D02 		movw	r2, #18477
 1624 00b0 1BFB0211 		smlabb	r1, fp, r2, r1
 1625 00b4 33F90C0C 		ldrsh	r0, [r3, #-12]
 1626 00b8 33F9042C 		ldrsh	r2, [r3, #-4]
 1627 00bc 0244     		add	r2, r2, r0
 1628 00be 0AFB0212 		mla	r2, r10, r2, r1
 1629 00c2 1214     		asrs	r2, r2, #16
 1630 00c4 2CF8022B 		strh	r2, [ip], #2	@ movhi
 1631              	.LVL247:
 1632 00c8 E2E7     		b	.L93
 1633              	.LVL248:
 1634              	.L174:
 1635              	.LBE92:
 1636              	.LBE91:
 692:..\..\..\liblc3\src/ltpf.c ****         x_12k8 -= n_12k8, x_6k4 -= n_6k4;
 1637              		.loc 1 692 0 discriminator 4
 1638 00ca 009B     		ldr	r3, [sp]
 1639 00cc 2BB9     		cbnz	r3, .L95
 693:..\..\..\liblc3\src/ltpf.c ****         n_12k8 += n_12k8; n_6k4 += n_6k4;
 1640              		.loc 1 693 0
 1641 00ce AEEB8504 		sub	r4, lr, r5, lsl #2
 1642              	.LVL249:
 1643 00d2 C9EB0808 		rsb	r8, r9, r8
 1644              	.LVL250:
 694:..\..\..\liblc3\src/ltpf.c ****     }
 1645              		.loc 1 694 0
 1646 00d6 7F00     		lsls	r7, r7, #1
 1647              	.LVL251:
 1648 00d8 6D00     		lsls	r5, r5, #1
 1649              	.LVL252:
 1650              	.L95:
 1651              	.LBB93:
ARM GAS  C:\Users\rdn\AppData\Local\Temp\ccIOjLNc.s 			page 47


 1652              	.LBB94:
 589:..\..\..\liblc3\src/ltpf.c ****     int nk = LC3_MIN(nr-1, ltpf->tc+4) - k0 + 1;
 1653              		.loc 1 589 0
 1654 00da D6F88434 		ldr	r3, [r6, #1156]
 1655 00de 032B     		cmp	r3, #3
 1656 00e0 04DD     		ble	.L138
 590:..\..\..\liblc3\src/ltpf.c **** 
 1657              		.loc 1 590 0
 1658 00e2 5D2B     		cmp	r3, #93
 589:..\..\..\liblc3\src/ltpf.c ****     int nk = LC3_MIN(nr-1, ltpf->tc+4) - k0 + 1;
 1659              		.loc 1 589 0
 1660 00e4 A3F10409 		sub	r9, r3, #4
 1661              	.LVL253:
 590:..\..\..\liblc3\src/ltpf.c **** 
 1662              		.loc 1 590 0
 1663 00e8 04DC     		bgt	.L139
 1664 00ea 01E0     		b	.L96
 1665              	.LVL254:
 1666              	.L138:
 589:..\..\..\liblc3\src/ltpf.c ****     int nk = LC3_MIN(nr-1, ltpf->tc+4) - k0 + 1;
 1667              		.loc 1 589 0
 1668 00ec 4FF00009 		mov	r9, #0
 1669              	.L96:
 1670              	.LVL255:
 590:..\..\..\liblc3\src/ltpf.c **** 
 1671              		.loc 1 590 0
 1672 00f0 0433     		adds	r3, r3, #4
 1673 00f2 00E0     		b	.L97
 1674              	.L139:
 1675 00f4 6123     		movs	r3, #97
 1676              	.L97:
 1677 00f6 C9EB0303 		rsb	r3, r9, r3
 1678 00fa 0293     		str	r3, [sp, #8]
 1679              	.LVL256:
 592:..\..\..\liblc3\src/ltpf.c **** 
 1680              		.loc 1 592 0
 1681 00fc A4F12201 		sub	r1, r4, #34
 1682              	.LVL257:
 1683 0100 A4F1E60B 		sub	fp, r4, #230
 1684 0104 0DF5887A 		add	r10, sp, #272
 1685              	.LVL258:
 1686              	.L98:
 1687              	.LBB95:
 1688              	.LBB96:
 464:..\..\..\liblc3\src/ltpf.c **** }
 1689              		.loc 1 464 0
 1690 0108 8B1E     		subs	r3, r1, #2
 1691 010a 2A46     		mov	r2, r5
 1692 010c 2046     		mov	r0, r4
 1693 010e 0393     		str	r3, [sp, #12]
 1694              	.LVL259:
 1695 0110 FFF7FEFF 		bl	dot
 1696              	.LVL260:
 1697 0114 039B     		ldr	r3, [sp, #12]
 1698 0116 AAEC010A 		vstmia.32	r10!, {s0}
 1699              	.LVL261:
 463:..\..\..\liblc3\src/ltpf.c ****         *(y++) = dot(a, b--, n);
ARM GAS  C:\Users\rdn\AppData\Local\Temp\ccIOjLNc.s 			page 48


 1700              		.loc 1 463 0
 1701 011a 9B45     		cmp	fp, r3
 1702 011c 1946     		mov	r1, r3
 1703 011e F3D1     		bne	.L98
 1704              	.LVL262:
 1705              	.LBE96:
 1706              	.LBE95:
 1707              	.LBB97:
 1708              	.LBB98:
 498:..\..\..\liblc3\src/ltpf.c ****     float w = 1 + w_incr;
 1709              		.loc 1 498 0
 1710 0120 9DED447A 		vldr.32	s14, [sp, #272]
 1711              	.LVL263:
 499:..\..\..\liblc3\src/ltpf.c **** 
 1712              		.loc 1 499 0
 1713 0124 DFED8D7A 		vldr.32	s15, .L178+4
 1714              	.LBB99:
 501:..\..\..\liblc3\src/ltpf.c ****         if (xw_max < x[i] * w)
 1715              		.loc 1 501 0
 1716 0128 DFED8D5A 		vldr.32	s11, .L178+8
 1717 012c 45AA     		add	r2, sp, #276
 1718              	.LBE99:
 498:..\..\..\liblc3\src/ltpf.c ****     float w = 1 + w_incr;
 1719              		.loc 1 498 0
 1720 012e B0EE479A 		vmov.f32	s18, s14
 1721 0132 4FF0000A 		mov	r10, #0
 1722              	.LBB100:
 501:..\..\..\liblc3\src/ltpf.c ****         if (xw_max < x[i] * w)
 1723              		.loc 1 501 0
 1724 0136 0123     		movs	r3, #1
 1725              	.LVL264:
 1726              	.L101:
 502:..\..\..\liblc3\src/ltpf.c ****             xw_max = (*x_max = x[arg = i]) * w;
 1727              		.loc 1 502 0
 1728 0138 B2EC016A 		vldmia.32	r2!, {s12}
 1729 013c 66EE276A 		vmul.f32	s13, s12, s15
 501:..\..\..\liblc3\src/ltpf.c ****         if (xw_max < x[i] * w)
 1730              		.loc 1 501 0
 1731 0140 77EEE57A 		vsub.f32	s15, s15, s11
 1732              	.LVL265:
 502:..\..\..\liblc3\src/ltpf.c ****             xw_max = (*x_max = x[arg = i]) * w;
 1733              		.loc 1 502 0
 1734 0144 B4EEE67A 		vcmpe.f32	s14, s13
 1735 0148 F1EE10FA 		vmrs	APSR_nzcv, FPSCR
 1736 014c 48BF     		it	mi
 1737 014e 9A46     		movmi	r10, r3
 501:..\..\..\liblc3\src/ltpf.c ****         if (xw_max < x[i] * w)
 1738              		.loc 1 501 0
 1739 0150 03F10103 		add	r3, r3, #1
 1740              	.LVL266:
 503:..\..\..\liblc3\src/ltpf.c **** 
 1741              		.loc 1 503 0
 1742 0154 44BF     		itt	mi
 1743 0156 B0EE469A 		vmovmi.f32	s18, s12
 1744 015a B0EE667A 		vmovmi.f32	s14, s13
 1745              	.LVL267:
 501:..\..\..\liblc3\src/ltpf.c ****         if (xw_max < x[i] * w)
ARM GAS  C:\Users\rdn\AppData\Local\Temp\ccIOjLNc.s 			page 49


 1746              		.loc 1 501 0
 1747 015e 622B     		cmp	r3, #98
 1748 0160 EAD1     		bne	.L101
 1749              	.LVL268:
 1750              	.LBE100:
 1751              	.LBE98:
 1752              	.LBE97:
 1753              	.LBB101:
 1754              	.LBB102:
 478:..\..\..\liblc3\src/ltpf.c ****     for (int i = 1; i < n; i++)
 1755              		.loc 1 478 0
 1756 0162 44AB     		add	r3, sp, #272
 1757              	.LVL269:
 1758 0164 03EB8903 		add	r3, r3, r9, lsl #2
 1759 0168 B3EC018A 		vldmia.32	r3!, {s16}
 1760              	.LVL270:
 1761              	.LBB103:
 479:..\..\..\liblc3\src/ltpf.c ****         if (*x_max < x[i])
 1762              		.loc 1 479 0
 1763 016c 0122     		movs	r2, #1
 1764              	.LBE103:
 478:..\..\..\liblc3\src/ltpf.c ****     for (int i = 1; i < n; i++)
 1765              		.loc 1 478 0
 1766 016e 0021     		movs	r1, #0
 1767              	.LVL271:
 1768              	.L102:
 1769              	.LBB104:
 479:..\..\..\liblc3\src/ltpf.c ****         if (*x_max < x[i])
 1770              		.loc 1 479 0
 1771 0170 0298     		ldr	r0, [sp, #8]
 1772 0172 9042     		cmp	r0, r2
 1773 0174 0BDB     		blt	.L175
 480:..\..\..\liblc3\src/ltpf.c ****             *x_max = x[arg = i];
 1774              		.loc 1 480 0
 1775 0176 F3EC017A 		vldmia.32	r3!, {s15}
 1776 017a F4EEC87A 		vcmpe.f32	s15, s16
 1777 017e F1EE10FA 		vmrs	APSR_nzcv, FPSCR
 1778 0182 C4BF     		itt	gt
 1779 0184 1146     		movgt	r1, r2
 481:..\..\..\liblc3\src/ltpf.c **** 
 1780              		.loc 1 481 0
 1781 0186 B0EE678A 		vmovgt.f32	s16, s15
 1782              	.LVL272:
 479:..\..\..\liblc3\src/ltpf.c ****         if (*x_max < x[i])
 1783              		.loc 1 479 0
 1784 018a 0132     		adds	r2, r2, #1
 1785              	.LVL273:
 1786 018c F0E7     		b	.L102
 1787              	.L175:
 1788              	.LVL274:
 1789              	.LBE104:
 1790              	.LBE102:
 1791              	.LBE101:
 600:..\..\..\liblc3\src/ltpf.c ****         rm1 / sqrtf(dot(x, x, n) * dot(x1, x1, n));
 1792              		.loc 1 600 0
 1793 018e B5EEC09A 		vcmpe.f32	s18, #0
 1794 0192 F1EE10FA 		vmrs	APSR_nzcv, FPSCR
ARM GAS  C:\Users\rdn\AppData\Local\Temp\ccIOjLNc.s 			page 50


 595:..\..\..\liblc3\src/ltpf.c **** 
 1795              		.loc 1 595 0
 1796 0196 8944     		add	r9, r9, r1
 1797              	.LVL275:
 600:..\..\..\liblc3\src/ltpf.c ****         rm1 / sqrtf(dot(x, x, n) * dot(x1, x1, n));
 1798              		.loc 1 600 0
 1799 0198 19D9     		bls	.L140
 601:..\..\..\liblc3\src/ltpf.c **** 
 1800              		.loc 1 601 0
 1801 019a 2A46     		mov	r2, r5
 1802              	.LVL276:
 1803 019c 2146     		mov	r1, r4
 1804 019e 2046     		mov	r0, r4
 1805 01a0 FFF7FEFF 		bl	dot
 1806              	.LVL277:
 597:..\..\..\liblc3\src/ltpf.c ****     const int16_t *x2 = x - (r0 + t2);
 1807              		.loc 1 597 0
 1808 01a4 0AF11101 		add	r1, r10, #17
 1809              	.LVL278:
 1810 01a8 A4EB4101 		sub	r1, r4, r1, lsl #1
 1811              	.LVL279:
 601:..\..\..\liblc3\src/ltpf.c **** 
 1812              		.loc 1 601 0
 1813 01ac 0846     		mov	r0, r1
 1814 01ae 2A46     		mov	r2, r5
 1815 01b0 B0EE407A 		vmov.f32	s14, s0
 1816 01b4 FFF7FEFF 		bl	dot
 1817              	.LVL280:
 1818 01b8 67EE007A 		vmul.f32	s15, s14, s0
 1819 01bc 17EE900A 		vmov	r0, s15
 1820 01c0 FFF7FEFF 		bl	sqrtf
 1821              	.LVL281:
 600:..\..\..\liblc3\src/ltpf.c ****         rm1 / sqrtf(dot(x, x, n) * dot(x1, x1, n));
 1822              		.loc 1 600 0
 1823 01c4 07EE900A 		vmov	s15, r0
 1824 01c8 C9EE278A 		vdiv.f32	s17, s18, s15
 1825 01cc 01E0     		b	.L106
 1826              	.LVL282:
 1827              	.L140:
 1828 01ce DFED678A 		vldr.32	s17, .L178+20
 1829              	.LVL283:
 1830              	.L106:
 603:..\..\..\liblc3\src/ltpf.c ****         rm2 / sqrtf(dot(x, x, n) * dot(x2, x2, n));
 1831              		.loc 1 603 0
 1832 01d2 B5EEC08A 		vcmpe.f32	s16, #0
 1833 01d6 F1EE10FA 		vmrs	APSR_nzcv, FPSCR
 1834 01da 19D9     		bls	.L141
 604:..\..\..\liblc3\src/ltpf.c **** 
 1835              		.loc 1 604 0
 1836 01dc 2A46     		mov	r2, r5
 1837 01de 2146     		mov	r1, r4
 1838 01e0 2046     		mov	r0, r4
 1839 01e2 FFF7FEFF 		bl	dot
 1840              	.LVL284:
 598:..\..\..\liblc3\src/ltpf.c **** 
 1841              		.loc 1 598 0
 1842 01e6 09F11101 		add	r1, r9, #17
ARM GAS  C:\Users\rdn\AppData\Local\Temp\ccIOjLNc.s 			page 51


 1843 01ea A4EB4101 		sub	r1, r4, r1, lsl #1
 604:..\..\..\liblc3\src/ltpf.c **** 
 1844              		.loc 1 604 0
 1845 01ee 0846     		mov	r0, r1
 1846 01f0 2A46     		mov	r2, r5
 1847 01f2 B0EE407A 		vmov.f32	s14, s0
 1848 01f6 FFF7FEFF 		bl	dot
 1849              	.LVL285:
 1850 01fa 67EE007A 		vmul.f32	s15, s14, s0
 1851 01fe 17EE900A 		vmov	r0, s15
 1852 0202 FFF7FEFF 		bl	sqrtf
 1853              	.LVL286:
 603:..\..\..\liblc3\src/ltpf.c ****         rm2 / sqrtf(dot(x, x, n) * dot(x2, x2, n));
 1854              		.loc 1 603 0
 1855 0206 07EE100A 		vmov	s14, r0
 1856 020a C8EE077A 		vdiv.f32	s15, s16, s14
 1857 020e 01E0     		b	.L107
 1858              	.L141:
 1859 0210 DFED567A 		vldr.32	s15, .L178+20
 1860              	.L107:
 1861              	.LVL287:
 606:..\..\..\liblc3\src/ltpf.c ****     ltpf->tc = (t1sel ? t1 : t2);
 1862              		.loc 1 606 0
 1863 0214 9FED537A 		vldr.32	s14, .L178+12
 1864 0218 28EE877A 		vmul.f32	s14, s17, s14
 1865              	.LVL288:
 607:..\..\..\liblc3\src/ltpf.c **** 
 1866              		.loc 1 607 0
 1867 021c B4EEE77A 		vcmpe.f32	s14, s15
 1868 0220 9FED517A 		vldr.32	s14, .L178+16
 1869              	.LVL289:
 1870 0224 F1EE10FA 		vmrs	APSR_nzcv, FPSCR
 610:..\..\..\liblc3\src/ltpf.c **** }
 1871              		.loc 1 610 0
 1872 0228 ADBF     		iteet	ge
 1873 022a F4EEC78A 		vcmpege.f32	s17, s14
 1874 022e F4EEC77A 		vcmpelt.f32	s15, s14
 607:..\..\..\liblc3\src/ltpf.c **** 
 1875              		.loc 1 607 0
 1876 0232 4D46     		movlt	r5, r9
 1877              	.LVL290:
 1878 0234 5546     		movge	r5, r10
 610:..\..\..\liblc3\src/ltpf.c **** }
 1879              		.loc 1 610 0
 1880 0236 F1EE10FA 		vmrs	APSR_nzcv, FPSCR
 1881 023a CCBF     		ite	gt
 1882 023c 4FF00109 		movgt	r9, #1
 1883              	.LVL291:
 1884 0240 4FF00009 		movle	r9, #0
 607:..\..\..\liblc3\src/ltpf.c **** 
 1885              		.loc 1 607 0
 1886 0244 C6F88454 		str	r5, [r6, #1156]
 1887              	.LVL292:
 1888              	.LBE94:
 1889              	.LBE93:
 704:..\..\..\liblc3\src/ltpf.c ****         int16_t u[128], v[128];
 1890              		.loc 1 704 0
ARM GAS  C:\Users\rdn\AppData\Local\Temp\ccIOjLNc.s 			page 52


 1891 0248 B9F1000F 		cmp	r9, #0
 1892 024c 00F0CF80 		beq	.L143
 1893              	.LVL293:
 1894              	.LBB105:
 1895              	.LBB106:
 1896              	.LBB107:
 627:..\..\..\liblc3\src/ltpf.c ****     int nr = LC3_MIN(228, 2*tc + 4) - r0 + 1;
 1897              		.loc 1 627 0
 1898 0250 0F35     		adds	r5, r5, #15
 1899              	.LVL294:
 1900 0252 6D00     		lsls	r5, r5, #1
 1901 0254 202D     		cmp	r5, #32
 1902 0256 2C46     		mov	r4, r5
 1903              	.LVL295:
 1904 0258 B8BF     		it	lt
 1905 025a 2024     		movlt	r4, #32
 1906              	.LVL296:
 628:..\..\..\liblc3\src/ltpf.c **** 
 1907              		.loc 1 628 0
 1908 025c 0835     		adds	r5, r5, #8
 1909 025e E42D     		cmp	r5, #228
 1910 0260 D4BF     		ite	le
 1911 0262 C4EB0505 		rsble	r5, r4, r5
 1912 0266 C4F1E405 		rsbgt	r5, r4, #228
 1913              	.LVL297:
 630:..\..\..\liblc3\src/ltpf.c **** 
 1914              		.loc 1 630 0
 1915 026a 6100     		lsls	r1, r4, #1
 1916              	.LBB108:
 1917              	.LBB109:
 463:..\..\..\liblc3\src/ltpf.c ****         *(y++) = dot(a, b--, n);
 1918              		.loc 1 463 0
 1919 026c 44AB     		add	r3, sp, #272
 1920              	.LBE109:
 1921              	.LBE108:
 630:..\..\..\liblc3\src/ltpf.c **** 
 1922              		.loc 1 630 0
 1923 026e C1F10801 		rsb	r1, r1, #8
 1924              	.LBB112:
 1925              	.LBB110:
 463:..\..\..\liblc3\src/ltpf.c ****         *(y++) = dot(a, b--, n);
 1926              		.loc 1 463 0
 1927 0272 05F1090B 		add	fp, r5, #9
 1928              	.LVL298:
 1929              	.LBE110:
 1930              	.LBE112:
 630:..\..\..\liblc3\src/ltpf.c **** 
 1931              		.loc 1 630 0
 1932 0276 4144     		add	r1, r1, r8
 1933              	.LVL299:
 1934              	.LBB113:
 1935              	.LBB111:
 463:..\..\..\liblc3\src/ltpf.c ****         *(y++) = dot(a, b--, n);
 1936              		.loc 1 463 0
 1937 0278 03EB8B0B 		add	fp, r3, fp, lsl #2
 1938              	.LVL300:
 1939 027c 9A46     		mov	r10, r3
ARM GAS  C:\Users\rdn\AppData\Local\Temp\ccIOjLNc.s 			page 53


 1940              	.LVL301:
 1941              	.L113:
 1942 027e D345     		cmp	fp, r10
 1943 0280 0AD9     		bls	.L176
 464:..\..\..\liblc3\src/ltpf.c **** }
 1944              		.loc 1 464 0
 1945 0282 8B1E     		subs	r3, r1, #2
 1946 0284 3A46     		mov	r2, r7
 1947 0286 4046     		mov	r0, r8
 1948 0288 0293     		str	r3, [sp, #8]
 1949              	.LVL302:
 1950 028a FFF7FEFF 		bl	dot
 1951              	.LVL303:
 1952 028e 029B     		ldr	r3, [sp, #8]
 1953 0290 AAEC010A 		vstmia.32	r10!, {s0}
 1954              	.LVL304:
 1955 0294 1946     		mov	r1, r3
 1956 0296 F2E7     		b	.L113
 1957              	.LVL305:
 1958              	.L176:
 1959              	.LBE111:
 1960              	.LBE113:
 1961              	.LBB114:
 1962              	.LBB115:
 478:..\..\..\liblc3\src/ltpf.c ****     for (int i = 1; i < n; i++)
 1963              		.loc 1 478 0
 1964 0298 DDED487A 		vldr.32	s15, [sp, #288]
 1965              	.LVL306:
 1966 029c 49AA     		add	r2, sp, #292
 1967              	.LBB116:
 479:..\..\..\liblc3\src/ltpf.c ****         if (*x_max < x[i])
 1968              		.loc 1 479 0
 1969 029e 0123     		movs	r3, #1
 1970              	.LBE116:
 478:..\..\..\liblc3\src/ltpf.c ****     for (int i = 1; i < n; i++)
 1971              		.loc 1 478 0
 1972 02a0 4FF0000A 		mov	r10, #0
 1973              	.LVL307:
 1974              	.L115:
 1975              	.LBB117:
 479:..\..\..\liblc3\src/ltpf.c ****         if (*x_max < x[i])
 1976              		.loc 1 479 0
 1977 02a4 9D42     		cmp	r5, r3
 1978 02a6 0BDB     		blt	.L177
 480:..\..\..\liblc3\src/ltpf.c ****             *x_max = x[arg = i];
 1979              		.loc 1 480 0
 1980 02a8 B2EC017A 		vldmia.32	r2!, {s14}
 1981 02ac B4EEE77A 		vcmpe.f32	s14, s15
 1982 02b0 F1EE10FA 		vmrs	APSR_nzcv, FPSCR
 1983 02b4 C4BF     		itt	gt
 1984 02b6 9A46     		movgt	r10, r3
 481:..\..\..\liblc3\src/ltpf.c **** 
 1985              		.loc 1 481 0
 1986 02b8 F0EE477A 		vmovgt.f32	s15, s14
 1987              	.LVL308:
 479:..\..\..\liblc3\src/ltpf.c ****         if (*x_max < x[i])
 1988              		.loc 1 479 0
ARM GAS  C:\Users\rdn\AppData\Local\Temp\ccIOjLNc.s 			page 54


 1989 02bc 0133     		adds	r3, r3, #1
 1990              	.LVL309:
 1991 02be F1E7     		b	.L115
 1992              	.L177:
 1993              	.LVL310:
 1994              	.LBE117:
 1995              	.LBE115:
 1996              	.LBE114:
 633:..\..\..\liblc3\src/ltpf.c **** 
 1997              		.loc 1 633 0
 1998 02c0 44AB     		add	r3, sp, #272
 1999              	.LVL311:
 2000 02c2 5444     		add	r4, r4, r10
 2001              	.LVL312:
 2002 02c4 0AF1040A 		add	r10, r10, #4
 2003 02c8 03EB8A0A 		add	r10, r3, r10, lsl #2
 2004              	.LVL313:
 635:..\..\..\liblc3\src/ltpf.c ****     for (int i = 1; i <= 3; i++) {
 2005              		.loc 1 635 0
 2006 02cc 0021     		movs	r1, #0
 2007 02ce 5046     		mov	r0, r10
 2008 02d0 FFF7FEFF 		bl	interpolate_corr
 2009              	.LVL314:
 2010 02d4 4FF0000B 		mov	fp, #0
 2011 02d8 B0EE406A 		vmov.f32	s12, s0
 2012              	.LVL315:
 2013 02dc 5D46     		mov	r5, fp
 2014              	.LVL316:
 2015              	.L124:
 2016              	.LBB118:
 2017              	.LBB119:
 639:..\..\..\liblc3\src/ltpf.c ****             continue;
 2018              		.loc 1 639 0
 2019 02de 7E2C     		cmp	r4, #126
 2020 02e0 0BF10103 		add	r3, fp, #1
 2021              	.LVL317:
 2022 02e4 07DD     		ble	.L119
 2023 02e6 9C2C     		cmp	r4, #156
 2024 02e8 0BF00102 		and	r2, fp, #1
 2025 02ec D4BF     		ite	le
 2026 02ee 0021     		movle	r1, #0
 2027 02f0 0121     		movgt	r1, #1
 2028 02f2 9142     		cmp	r1, r2
 2029 02f4 1FD2     		bcs	.L120
 2030              	.L119:
 642:..\..\..\liblc3\src/ltpf.c ****             dm = d, f = i;
 2031              		.loc 1 642 0
 2032 02f6 1946     		mov	r1, r3
 2033 02f8 5046     		mov	r0, r10
 2034 02fa 0293     		str	r3, [sp, #8]
 2035 02fc FFF7FEFF 		bl	interpolate_corr
 2036              	.LVL318:
 2037 0300 029B     		ldr	r3, [sp, #8]
 2038 0302 B4EEC60A 		vcmpe.f32	s0, s12
 2039 0306 F1EE10FA 		vmrs	APSR_nzcv, FPSCR
 643:..\..\..\liblc3\src/ltpf.c **** 
 2040              		.loc 1 643 0
ARM GAS  C:\Users\rdn\AppData\Local\Temp\ccIOjLNc.s 			page 55


 2041 030a C4BF     		itt	gt
 2042 030c B0EE406A 		vmovgt.f32	s12, s0
 642:..\..\..\liblc3\src/ltpf.c ****             dm = d, f = i;
 2043              		.loc 1 642 0
 2044 0310 1D46     		movgt	r5, r3
 2045              	.LVL319:
 645:..\..\..\liblc3\src/ltpf.c ****             dm = d, f = -i;
 2046              		.loc 1 645 0
 2047 0312 202C     		cmp	r4, #32
 2048 0314 0FDD     		ble	.L120
 2049              	.LVL320:
 2050 0316 6FEA0B0B 		mvn	fp, fp
 2051 031a 5946     		mov	r1, fp
 2052 031c 5046     		mov	r0, r10
 2053 031e 0293     		str	r3, [sp, #8]
 2054 0320 FFF7FEFF 		bl	interpolate_corr
 2055              	.LVL321:
 2056 0324 B4EEC60A 		vcmpe.f32	s0, s12
 2057 0328 F1EE10FA 		vmrs	APSR_nzcv, FPSCR
 2058 032c 029B     		ldr	r3, [sp, #8]
 646:..\..\..\liblc3\src/ltpf.c ****     }
 2059              		.loc 1 646 0
 2060 032e C4BF     		itt	gt
 2061 0330 B0EE406A 		vmovgt.f32	s12, s0
 2062 0334 5D46     		movgt	r5, fp
 2063              	.LVL322:
 2064              	.L120:
 2065              	.LBE119:
 636:..\..\..\liblc3\src/ltpf.c ****         float d;
 2066              		.loc 1 636 0
 2067 0336 032B     		cmp	r3, #3
 2068 0338 9B46     		mov	fp, r3
 2069 033a D0D1     		bne	.L124
 2070              	.LBE118:
 650:..\..\..\liblc3\src/ltpf.c **** 
 2071              		.loc 1 650 0
 2072 033c 002D     		cmp	r5, #0
 649:..\..\..\liblc3\src/ltpf.c ****     f += 4*(f < 0);
 2073              		.loc 1 649 0
 2074 033e A4EBD574 		sub	r4, r4, r5, lsr #31
 2075              	.LVL323:
 650:..\..\..\liblc3\src/ltpf.c **** 
 2076              		.loc 1 650 0
 2077 0342 ACBF     		ite	ge
 2078 0344 0023     		movge	r3, #0
 2079              	.LVL324:
 2080 0346 0423     		movlt	r3, #4
 2081 0348 2B44     		add	r3, r3, r5
 2082              	.LVL325:
 653:..\..\..\liblc3\src/ltpf.c ****            e < 157 ? 2*e + (f >> 1) + 126 : e + 283;
 2083              		.loc 1 653 0
 2084 034a 7E2C     		cmp	r4, #126
 652:..\..\..\liblc3\src/ltpf.c ****     return e < 127 ? 4*e +  f       - 128 :
 2085              		.loc 1 652 0
 2086 034c 03EB8405 		add	r5, r3, r4, lsl #2
 2087              	.LVL326:
 653:..\..\..\liblc3\src/ltpf.c ****            e < 157 ? 2*e + (f >> 1) + 126 : e + 283;
ARM GAS  C:\Users\rdn\AppData\Local\Temp\ccIOjLNc.s 			page 56


 2088              		.loc 1 653 0
 2089 0350 16DC     		bgt	.L126
 2090 0352 A5F18004 		sub	r4, r5, #128
 2091              	.LVL327:
 2092 0356 1BE0     		b	.L127
 2093              	.L179:
 2094              		.align	2
 2095              	.L178:
 2096 0358 00000000 		.word	.LANCHOR0
 2097 035c 30AE7E3F 		.word	1065266736
 2098 0360 3FE8A83B 		.word	1000925247
 2099 0364 9A99593F 		.word	1062836634
 2100 0368 9A99193F 		.word	1058642330
 2101 036c 00000000 		.word	0
 2102 0370 6666663F 		.word	1063675494
 2103 0374 3D0A573F 		.word	1062668861
 2104 0378 CDCCCCBD 		.word	-1110651699
 2105 037c D7A3703F 		.word	1064346583
 2106              	.LVL328:
 2107              	.L126:
 654:..\..\..\liblc3\src/ltpf.c **** }
 2108              		.loc 1 654 0
 2109 0380 9C2C     		cmp	r4, #156
 2110 0382 DDBF     		ittte	le
 2111 0384 5B10     		asrle	r3, r3, #1
 2112              	.LVL329:
 2113 0386 03EB4404 		addle	r4, r3, r4, lsl #1
 2114              	.LVL330:
 2115 038a 7E34     		addle	r4, r4, #126
 2116 038c 04F21B14 		addwgt	r4, r4, #283
 2117              	.L127:
 2118              	.LVL331:
 2119              	.LBE107:
 2120              	.LBE106:
 707:..\..\..\liblc3\src/ltpf.c **** 
 2121              		.loc 1 707 0
 2122 0390 B49B     		ldr	r3, [sp, #720]
 709:..\..\..\liblc3\src/ltpf.c ****         interpolate(x_12k8 - (pitch >> 2), n_12k8, pitch & 3, v);
 2123              		.loc 1 709 0
 2124 0392 0022     		movs	r2, #0
 707:..\..\..\liblc3\src/ltpf.c **** 
 2125              		.loc 1 707 0
 2126 0394 5C60     		str	r4, [r3, #4]
 709:..\..\..\liblc3\src/ltpf.c ****         interpolate(x_12k8 - (pitch >> 2), n_12k8, pitch & 3, v);
 2127              		.loc 1 709 0
 2128 0396 3946     		mov	r1, r7
 2129 0398 04AB     		add	r3, sp, #16
 2130 039a 4046     		mov	r0, r8
 2131 039c FFF7FEFF 		bl	interpolate
 2132              	.LVL332:
 710:..\..\..\liblc3\src/ltpf.c **** 
 2133              		.loc 1 710 0
 2134 03a0 A810     		asrs	r0, r5, #2
 2135 03a2 44AB     		add	r3, sp, #272
 2136 03a4 05F00302 		and	r2, r5, #3
 2137 03a8 3946     		mov	r1, r7
 2138 03aa A8EB4000 		sub	r0, r8, r0, lsl #1
ARM GAS  C:\Users\rdn\AppData\Local\Temp\ccIOjLNc.s 			page 57


 2139 03ae FFF7FEFF 		bl	interpolate
 2140              	.LVL333:
 712:..\..\..\liblc3\src/ltpf.c ****     }
 2141              		.loc 1 712 0
 2142 03b2 3A46     		mov	r2, r7
 2143 03b4 44A9     		add	r1, sp, #272
 2144 03b6 04A8     		add	r0, sp, #16
 2145 03b8 FFF7FEFF 		bl	dot
 2146              	.LVL334:
 2147 03bc 04A9     		add	r1, sp, #16
 2148 03be 0846     		mov	r0, r1
 2149 03c0 3A46     		mov	r2, r7
 2150 03c2 B0EE408A 		vmov.f32	s16, s0
 2151 03c6 FFF7FEFF 		bl	dot
 2152              	.LVL335:
 2153 03ca 44A9     		add	r1, sp, #272
 2154 03cc 0846     		mov	r0, r1
 2155 03ce 3A46     		mov	r2, r7
 2156 03d0 B0EE407A 		vmov.f32	s14, s0
 2157 03d4 FFF7FEFF 		bl	dot
 2158              	.LVL336:
 2159 03d8 67EE007A 		vmul.f32	s15, s14, s0
 2160 03dc 17EE900A 		vmov	r0, s15
 2161 03e0 FFF7FEFF 		bl	sqrtf
 2162              	.LVL337:
 2163 03e4 07EE100A 		vmov	s14, r0
 2164 03e8 C8EE077A 		vdiv.f32	s15, s16, s14
 2165              	.LVL338:
 2166 03ec 02E0     		b	.L112
 2167              	.LVL339:
 2168              	.L143:
 2169              	.LBE105:
 700:..\..\..\liblc3\src/ltpf.c **** 
 2170              		.loc 1 700 0
 2171 03ee 5FED217A 		vldr.32	s15, .L178+20
 2172              	.LVL340:
 699:..\..\..\liblc3\src/ltpf.c ****     float nc = 0;
 2173              		.loc 1 699 0
 2174 03f2 4D46     		mov	r5, r9
 2175              	.LVL341:
 2176              	.L112:
 717:..\..\..\liblc3\src/ltpf.c ****         int pitch_diff =
 2177              		.loc 1 717 0
 2178 03f4 3378     		ldrb	r3, [r6]	@ zero_extendqisi2
 2179 03f6 96ED027A 		vldr.32	s14, [r6, #8]
 2180 03fa 4BB3     		cbz	r3, .L129
 2181              	.LBB120:
 722:..\..\..\liblc3\src/ltpf.c ****             ((nc > 0.9f) || (nc > 0.84f && pitch_diff < 8 && nc_diff > -0.1f));
 2182              		.loc 1 722 0
 2183 03fc 019B     		ldr	r3, [sp, #4]
 719:..\..\..\liblc3\src/ltpf.c ****         float nc_diff = nc - ltpf->nc[0];
 2184              		.loc 1 719 0
 2185 03fe 7268     		ldr	r2, [r6, #4]
 2186              	.LVL342:
 722:..\..\..\liblc3\src/ltpf.c ****             ((nc > 0.9f) || (nc > 0.84f && pitch_diff < 8 && nc_diff > -0.1f));
 2187              		.loc 1 722 0
 2188 0400 042B     		cmp	r3, #4
ARM GAS  C:\Users\rdn\AppData\Local\Temp\ccIOjLNc.s 			page 58


 2189 0402 48D8     		bhi	.L171
 722:..\..\..\liblc3\src/ltpf.c ****             ((nc > 0.9f) || (nc > 0.84f && pitch_diff < 8 && nc_diff > -0.1f));
 2190              		.loc 1 722 0 is_stmt 0 discriminator 1
 2191 0404 B9F1000F 		cmp	r9, #0
 2192 0408 43D0     		beq	.L151
 722:..\..\..\liblc3\src/ltpf.c ****             ((nc > 0.9f) || (nc > 0.84f && pitch_diff < 8 && nc_diff > -0.1f));
 2193              		.loc 1 722 0 discriminator 3
 2194 040a 5FED276A 		vldr.32	s13, .L178+24
 2195 040e F4EEE67A 		vcmpe.f32	s15, s13
 2196 0412 F1EE10FA 		vmrs	APSR_nzcv, FPSCR
 2197 0416 19DC     		bgt	.L147
 723:..\..\..\liblc3\src/ltpf.c **** 
 2198              		.loc 1 723 0 is_stmt 1
 2199 0418 5FED2A6A 		vldr.32	s13, .L178+28
 2200 041c F4EEE67A 		vcmpe.f32	s15, s13
 2201 0420 F1EE10FA 		vmrs	APSR_nzcv, FPSCR
 2202 0424 37DD     		ble	.L171
 723:..\..\..\liblc3\src/ltpf.c **** 
 2203              		.loc 1 723 0 is_stmt 0 discriminator 1
 2204 0426 AA42     		cmp	r2, r5
 2205 0428 1346     		mov	r3, r2
 2206 042a A8BF     		it	ge
 2207 042c 2B46     		movge	r3, r5
 2208 042e AA42     		cmp	r2, r5
 2209 0430 ACBF     		ite	ge
 2210 0432 C3EB0203 		rsbge	r3, r3, r2
 2211 0436 C3EB0503 		rsblt	r3, r3, r5
 2212 043a 072B     		cmp	r3, #7
 2213 043c 2BDC     		bgt	.L171
 722:..\..\..\liblc3\src/ltpf.c ****             ((nc > 0.9f) || (nc > 0.84f && pitch_diff < 8 && nc_diff > -0.1f));
 2214              		.loc 1 722 0 is_stmt 1 discriminator 2
 2215 043e 77EEC76A 		vsub.f32	s13, s15, s14
 2216              	.LVL343:
 2217 0442 1FED336A 		vldr.32	s12, .L178+32
 2218 0446 F4EEC66A 		vcmpe.f32	s13, s12
 2219 044a 1CE0     		b	.L173
 2220              	.LVL344:
 2221              	.L147:
 722:..\..\..\liblc3\src/ltpf.c ****             ((nc > 0.9f) || (nc > 0.84f && pitch_diff < 8 && nc_diff > -0.1f));
 2222              		.loc 1 722 0 is_stmt 0
 2223 044c 0123     		movs	r3, #1
 2224 044e 23E0     		b	.L133
 2225              	.LVL345:
 2226              	.L129:
 2227              	.LBE120:
 726:..\..\..\liblc3\src/ltpf.c ****             ( (dt == LC3_DT_10M || ltpf->nc[1] > 0.94f) &&
 2228              		.loc 1 726 0 is_stmt 1
 2229 0450 019A     		ldr	r2, [sp, #4]
 2230 0452 042A     		cmp	r2, #4
 2231 0454 20D8     		bhi	.L133
 726:..\..\..\liblc3\src/ltpf.c ****             ( (dt == LC3_DT_10M || ltpf->nc[1] > 0.94f) &&
 2232              		.loc 1 726 0 is_stmt 0 discriminator 1
 2233 0456 B9F1000F 		cmp	r9, #0
 2234 045a 1AD0     		beq	.L151
 726:..\..\..\liblc3\src/ltpf.c ****             ( (dt == LC3_DT_10M || ltpf->nc[1] > 0.94f) &&
 2235              		.loc 1 726 0 discriminator 3
 2236 045c 009A     		ldr	r2, [sp]
ARM GAS  C:\Users\rdn\AppData\Local\Temp\ccIOjLNc.s 			page 59


 2237 045e 5FED396A 		vldr.32	s13, .L178+36
 2238 0462 032A     		cmp	r2, #3
 2239 0464 06D0     		beq	.L134
 727:..\..\..\liblc3\src/ltpf.c ****               (ltpf->nc[0] > 0.94f && nc > 0.94f) );
 2240              		.loc 1 727 0 is_stmt 1
 2241 0466 96ED036A 		vldr.32	s12, [r6, #12]
 2242 046a B4EEE66A 		vcmpe.f32	s12, s13
 2243 046e F1EE10FA 		vmrs	APSR_nzcv, FPSCR
 2244 0472 11DD     		ble	.L133
 2245              	.L134:
 727:..\..\..\liblc3\src/ltpf.c ****               (ltpf->nc[0] > 0.94f && nc > 0.94f) );
 2246              		.loc 1 727 0 is_stmt 0 discriminator 1
 2247 0474 B4EEE67A 		vcmpe.f32	s14, s13
 2248 0478 F1EE10FA 		vmrs	APSR_nzcv, FPSCR
 2249 047c 0BDD     		ble	.L171
 726:..\..\..\liblc3\src/ltpf.c ****             ( (dt == LC3_DT_10M || ltpf->nc[1] > 0.94f) &&
 2250              		.loc 1 726 0 is_stmt 1
 2251 047e 5FED416A 		vldr.32	s13, .L178+36
 2252 0482 F4EEE67A 		vcmpe.f32	s15, s13
 2253              	.L173:
 2254 0486 F1EE10FA 		vmrs	APSR_nzcv, FPSCR
 2255 048a CCBF     		ite	gt
 2256 048c 0123     		movgt	r3, #1
 2257 048e 0023     		movle	r3, #0
 2258 0490 02E0     		b	.L133
 2259              	.L151:
 2260 0492 4B46     		mov	r3, r9
 2261 0494 00E0     		b	.L133
 2262              	.L171:
 2263 0496 0023     		movs	r3, #0
 2264              	.L133:
 726:..\..\..\liblc3\src/ltpf.c ****             ( (dt == LC3_DT_10M || ltpf->nc[1] > 0.94f) &&
 2265              		.loc 1 726 0 is_stmt 0 discriminator 6
 2266 0498 B49A     		ldr	r2, [sp, #720]
 2267 049a 03F00103 		and	r3, r3, #1
 2268 049e 1370     		strb	r3, [r2]
 731:..\..\..\liblc3\src/ltpf.c ****      ltpf->pitch = pitch;
 2269              		.loc 1 731 0 is_stmt 1 discriminator 6
 2270 04a0 B49B     		ldr	r3, [sp, #720]
 2271 04a2 1B78     		ldrb	r3, [r3]	@ zero_extendqisi2
 2272 04a4 3370     		strb	r3, [r6]
 737:..\..\..\liblc3\src/ltpf.c **** 
 2273              		.loc 1 737 0 discriminator 6
 2274 04a6 4846     		mov	r0, r9
 732:..\..\..\liblc3\src/ltpf.c ****      ltpf->nc[1] = ltpf->nc[0];
 2275              		.loc 1 732 0 discriminator 6
 2276 04a8 7560     		str	r5, [r6, #4]
 733:..\..\..\liblc3\src/ltpf.c ****      ltpf->nc[0] = nc;
 2277              		.loc 1 733 0 discriminator 6
 2278 04aa 86ED037A 		vstr.32	s14, [r6, #12]
 734:..\..\..\liblc3\src/ltpf.c **** 
 2279              		.loc 1 734 0 discriminator 6
 2280 04ae C6ED027A 		vstr.32	s15, [r6, #8]
 2281              	.LVL346:
 737:..\..\..\liblc3\src/ltpf.c **** 
 2282              		.loc 1 737 0 discriminator 6
 2283 04b2 0DF5277D 		add	sp, sp, #668
ARM GAS  C:\Users\rdn\AppData\Local\Temp\ccIOjLNc.s 			page 60


 2284              		.cfi_def_cfa_offset 52
 2285              		@ sp needed
 2286 04b6 BDEC048B 		vldm	sp!, {d8-d9}
 2287              		.cfi_restore 82
 2288              		.cfi_restore 83
 2289              		.cfi_restore 80
 2290              		.cfi_restore 81
 2291              		.cfi_def_cfa_offset 36
 2292 04ba BDE8F08F 		pop	{r4, r5, r6, r7, r8, r9, r10, fp, pc}
 2293              		.cfi_endproc
 2294              	.LFE38:
 2295              		.size	lc3_ltpf_analyse, .-lc3_ltpf_analyse
 2296 04be 00BF     		.section	.text.lc3_ltpf_synthesize,"ax",%progbits
 2297              		.align	1
 2298              		.global	lc3_ltpf_synthesize
 2299              		.thumb
 2300              		.thumb_func
 2301              		.type	lc3_ltpf_synthesize, %function
 2302              	lc3_ltpf_synthesize:
 2303              	.LFB44:
 840:..\..\..\liblc3\src/ltpf.c **** 
 841:..\..\..\liblc3\src/ltpf.c **** static void (* const synthesize[])(const float *, int, int,
 842:..\..\..\liblc3\src/ltpf.c ****     const float *, float *, int, const float *, int) =
 843:..\..\..\liblc3\src/ltpf.c **** {
 844:..\..\..\liblc3\src/ltpf.c ****     [LC3_SRATE_8K ] = synthesize_4,
 845:..\..\..\liblc3\src/ltpf.c ****     [LC3_SRATE_16K] = synthesize_4,
 846:..\..\..\liblc3\src/ltpf.c ****     [LC3_SRATE_24K] = synthesize_6,
 847:..\..\..\liblc3\src/ltpf.c ****     [LC3_SRATE_32K] = synthesize_8,
 848:..\..\..\liblc3\src/ltpf.c ****     [LC3_SRATE_48K] = synthesize_12,
 849:..\..\..\liblc3\src/ltpf.c **** };
 850:..\..\..\liblc3\src/ltpf.c **** 
 851:..\..\..\liblc3\src/ltpf.c **** 
 852:..\..\..\liblc3\src/ltpf.c **** /**
 853:..\..\..\liblc3\src/ltpf.c ****  * LTPF Synthesis
 854:..\..\..\liblc3\src/ltpf.c ****  */
 855:..\..\..\liblc3\src/ltpf.c **** void lc3_ltpf_synthesize(enum lc3_dt dt, enum lc3_srate sr, int nbytes,
 856:..\..\..\liblc3\src/ltpf.c ****     lc3_ltpf_synthesis_t *ltpf, const lc3_ltpf_data_t *data,
 857:..\..\..\liblc3\src/ltpf.c ****     const float *xh, float *x)
 858:..\..\..\liblc3\src/ltpf.c **** {
 2304              		.loc 1 858 0
 2305              		.cfi_startproc
 2306              		@ args = 12, pretend = 0, frame = 408
 2307              		@ frame_needed = 0, uses_anonymous_args = 0
 2308              	.LVL347:
 2309 0000 2DE9F04F 		push	{r4, r5, r6, r7, r8, r9, r10, fp, lr}
 2310              		.cfi_def_cfa_offset 36
 2311              		.cfi_offset 4, -36
 2312              		.cfi_offset 5, -32
 2313              		.cfi_offset 6, -28
 2314              		.cfi_offset 7, -24
 2315              		.cfi_offset 8, -20
 2316              		.cfi_offset 9, -16
 2317              		.cfi_offset 10, -12
 2318              		.cfi_offset 11, -8
 2319              		.cfi_offset 14, -4
 2320 0004 9946     		mov	r9, r3
 2321              	.LBB129:
ARM GAS  C:\Users\rdn\AppData\Local\Temp\ccIOjLNc.s 			page 61


 2322              	.LBB130:
 2323              		.file 2 "..\\..\\..\\liblc3\\src\\tables.h"
   1:..\..\..\liblc3\src/tables.h **** /******************************************************************************
   2:..\..\..\liblc3\src/tables.h ****  *
   3:..\..\..\liblc3\src/tables.h ****  *  Copyright 2022 Google LLC
   4:..\..\..\liblc3\src/tables.h ****  *
   5:..\..\..\liblc3\src/tables.h ****  *  Licensed under the Apache License, Version 2.0 (the "License");
   6:..\..\..\liblc3\src/tables.h ****  *  you may not use this file except in compliance with the License.
   7:..\..\..\liblc3\src/tables.h ****  *  You may obtain a copy of the License at:
   8:..\..\..\liblc3\src/tables.h ****  *
   9:..\..\..\liblc3\src/tables.h ****  *  http://www.apache.org/licenses/LICENSE-2.0
  10:..\..\..\liblc3\src/tables.h ****  *
  11:..\..\..\liblc3\src/tables.h ****  *  Unless required by applicable law or agreed to in writing, software
  12:..\..\..\liblc3\src/tables.h ****  *  distributed under the License is distributed on an "AS IS" BASIS,
  13:..\..\..\liblc3\src/tables.h ****  *  WITHOUT WARRANTIES OR CONDITIONS OF ANY KIND, either express or implied.
  14:..\..\..\liblc3\src/tables.h ****  *  See the License for the specific language governing permissions and
  15:..\..\..\liblc3\src/tables.h ****  *  limitations under the License.
  16:..\..\..\liblc3\src/tables.h ****  *
  17:..\..\..\liblc3\src/tables.h ****  ******************************************************************************/
  18:..\..\..\liblc3\src/tables.h **** 
  19:..\..\..\liblc3\src/tables.h **** #ifndef __LC3_TABLES_H
  20:..\..\..\liblc3\src/tables.h **** #define __LC3_TABLES_H
  21:..\..\..\liblc3\src/tables.h **** 
  22:..\..\..\liblc3\src/tables.h **** #include "common.h"
  23:..\..\..\liblc3\src/tables.h **** #include "bits.h"
  24:..\..\..\liblc3\src/tables.h **** 
  25:..\..\..\liblc3\src/tables.h **** 
  26:..\..\..\liblc3\src/tables.h **** /**
  27:..\..\..\liblc3\src/tables.h ****  * Characteristics
  28:..\..\..\liblc3\src/tables.h ****  *
  29:..\..\..\liblc3\src/tables.h ****  *   ns   Number of temporal samples / frequency coefficients within a frame
  30:..\..\..\liblc3\src/tables.h ****  *
  31:..\..\..\liblc3\src/tables.h ****  *   ne   Number of encoded frequency coefficients
  32:..\..\..\liblc3\src/tables.h ****  *
  33:..\..\..\liblc3\src/tables.h ****  *   nd   Number of MDCT delayed samples, sum of half a frame and an ovelap
  34:..\..\..\liblc3\src/tables.h ****  *        of future by 1.25 ms (2.5ms, 5ms and 10ms frame durations),
  35:..\..\..\liblc3\src/tables.h ****  *        or 2 ms (7.5ms frame duration).
  36:..\..\..\liblc3\src/tables.h ****  *
  37:..\..\..\liblc3\src/tables.h ****  *   nh   Number of 18 ms samples of the history buffer, aligned on a frame
  38:..\..\..\liblc3\src/tables.h ****  *
  39:..\..\..\liblc3\src/tables.h ****  *   nt   Number of 1.25 ms previous samples
  40:..\..\..\liblc3\src/tables.h ****  */
  41:..\..\..\liblc3\src/tables.h **** 
  42:..\..\..\liblc3\src/tables.h **** extern const int lc3_ns_2m5[LC3_NUM_SRATE];
  43:..\..\..\liblc3\src/tables.h **** extern const int lc3_ne_2m5[LC3_NUM_SRATE];
  44:..\..\..\liblc3\src/tables.h **** extern const int lc3_ns_4m [LC3_NUM_SRATE];
  45:..\..\..\liblc3\src/tables.h **** 
  46:..\..\..\liblc3\src/tables.h **** static inline int lc3_ns(enum lc3_dt dt, enum lc3_srate sr) {
  47:..\..\..\liblc3\src/tables.h ****     return lc3_ns_2m5[sr] * (1 + dt);
 2324              		.loc 2 47 0
 2325 0006 AC4B     		ldr	r3, .L218
 2326              	.LVL348:
 2327              	.LBE130:
 2328              	.LBE129:
 2329              		.loc 1 858 0
 2330 0008 8846     		mov	r8, r1
 2331              	.LBB134:
ARM GAS  C:\Users\rdn\AppData\Local\Temp\ccIOjLNc.s 			page 62


 2332              	.LBB131:
 2333              		.loc 2 47 0
 2334 000a 53F82110 		ldr	r1, [r3, r1, lsl #2]
 2335              	.LVL349:
 2336              	.LBE131:
 2337              	.LBE134:
 2338              		.loc 1 858 0
 2339 000e EBB0     		sub	sp, sp, #428
 2340              		.cfi_def_cfa_offset 464
 2341              	.LBB135:
 2342              	.LBB132:
 2343              		.loc 2 47 0
 2344 0010 451C     		adds	r5, r0, #1
 2345 0012 01FB05F3 		mul	r3, r1, r5
 2346              	.LBE132:
 2347              	.LBE135:
 2348              	.LBB136:
 2349              	.LBB137:
  48:..\..\..\liblc3\src/tables.h **** }
  49:..\..\..\liblc3\src/tables.h **** 
  50:..\..\..\liblc3\src/tables.h **** static inline int lc3_ne(enum lc3_dt dt, enum lc3_srate sr) {
  51:..\..\..\liblc3\src/tables.h ****     return lc3_ne_2m5[sr] * (1 + dt);
  52:..\..\..\liblc3\src/tables.h **** }
  53:..\..\..\liblc3\src/tables.h **** 
  54:..\..\..\liblc3\src/tables.h **** static inline int lc3_nd(enum lc3_dt dt, enum lc3_srate sr) {
  55:..\..\..\liblc3\src/tables.h ****     return ( lc3_ns(dt, sr) +
  56:..\..\..\liblc3\src/tables.h ****         (dt == LC3_DT_7M5 ? lc3_ns_4m[sr] : lc3_ns_2m5[sr]) ) >> 1;
  57:..\..\..\liblc3\src/tables.h **** }
  58:..\..\..\liblc3\src/tables.h **** 
  59:..\..\..\liblc3\src/tables.h **** static inline int lc3_nh(enum lc3_dt dt, enum lc3_srate sr) {
  60:..\..\..\liblc3\src/tables.h ****     return sr > LC3_SRATE_48K_HR ? 0 :
 2350              		.loc 2 60 0
 2351 0016 B8F1050F 		cmp	r8, #5
 2352              	.LBE137:
 2353              	.LBE136:
 2354              		.loc 1 858 0
 2355 001a 749C     		ldr	r4, [sp, #464]
 2356 001c 769F     		ldr	r7, [sp, #472]
 2357              	.LBB139:
 2358              	.LBB133:
  47:..\..\..\liblc3\src/tables.h **** }
 2359              		.loc 2 47 0
 2360 001e 0493     		str	r3, [sp, #16]
 2361              	.LVL350:
 2362              	.LBE133:
 2363              	.LBE139:
 2364              	.LBB140:
 2365              	.LBB138:
 2366              		.loc 2 60 0
 2367 0020 05D8     		bhi	.L201
  61:..\..\..\liblc3\src/tables.h ****         (8 + (dt == LC3_DT_7M5)) * lc3_ns_2m5[sr];
 2368              		.loc 2 61 0
 2369 0022 0228     		cmp	r0, #2
 2370 0024 14BF     		ite	ne
 2371 0026 0826     		movne	r6, #8
 2372 0028 0926     		moveq	r6, #9
  60:..\..\..\liblc3\src/tables.h ****         (8 + (dt == LC3_DT_7M5)) * lc3_ns_2m5[sr];
ARM GAS  C:\Users\rdn\AppData\Local\Temp\ccIOjLNc.s 			page 63


 2373              		.loc 2 60 0
 2374 002a 4E43     		muls	r6, r1, r6
 2375 002c 00E0     		b	.L181
 2376              	.L201:
 2377 002e 0026     		movs	r6, #0
 2378              	.L181:
 2379              	.LVL351:
 2380              	.LBE138:
 2381              	.LBE140:
 859:..\..\..\liblc3\src/ltpf.c ****     int nh = lc3_ns(dt, sr) + lc3_nh(dt, sr);
 2382              		.loc 1 859 0
 2383 0030 049B     		ldr	r3, [sp, #16]
 2384 0032 1E44     		add	r6, r6, r3
 2385              	.LVL352:
 860:..\..\..\liblc3\src/ltpf.c **** 
 861:..\..\..\liblc3\src/ltpf.c ****     /* --- Filter parameters --- */
 862:..\..\..\liblc3\src/ltpf.c **** 
 863:..\..\..\liblc3\src/ltpf.c ****     int p_idx = data ? data->pitch_index : 0;
 2386              		.loc 1 863 0
 2387 0034 ACB1     		cbz	r4, .L203
 2388              		.loc 1 863 0 is_stmt 0 discriminator 1
 2389 0036 6368     		ldr	r3, [r4, #4]
 2390              	.LVL353:
 864:..\..\..\liblc3\src/ltpf.c ****     int pitch =
 865:..\..\..\liblc3\src/ltpf.c ****         p_idx >= 440 ? (((p_idx     ) - 283) << 2)  :
 2391              		.loc 1 865 0 is_stmt 1 discriminator 1
 2392 0038 B3F5DC7F 		cmp	r3, #440
 2393 003c 04DB     		blt	.L184
 2394 003e 6FF48D7E 		mvn	lr, #282
 2395 0042 7344     		add	r3, r3, lr
 2396              	.LVL354:
 2397 0044 9B00     		lsls	r3, r3, #2
 2398 0046 14E0     		b	.L185
 2399              	.LVL355:
 2400              	.L184:
 866:..\..\..\liblc3\src/ltpf.c ****         p_idx >= 380 ? (((p_idx >> 1) -  63) << 2) + (((p_idx & 1)) << 1) :
 2401              		.loc 1 866 0
 2402 0048 B3F5BE7F 		cmp	r3, #380
 2403 004c 0ADB     		blt	.L183
 2404              		.loc 1 866 0 is_stmt 0 discriminator 1
 2405 004e 4FEA630E 		asr	lr, r3, #1
 2406 0052 5B00     		lsls	r3, r3, #1
 2407              	.LVL356:
 2408 0054 AEF13F0E 		sub	lr, lr, #63
 2409 0058 03F00203 		and	r3, r3, #2
 2410 005c 03EB8E03 		add	r3, r3, lr, lsl #2
 2411 0060 07E0     		b	.L185
 2412              	.LVL357:
 2413              	.L203:
 863:..\..\..\liblc3\src/ltpf.c ****     int pitch =
 2414              		.loc 1 863 0 is_stmt 1
 2415 0062 2346     		mov	r3, r4
 2416              	.L183:
 2417              	.LVL358:
 2418              		.loc 1 866 0 discriminator 2
 2419 0064 23F0030E 		bic	lr, r3, #3
 2420 0068 0EF1800E 		add	lr, lr, #128
ARM GAS  C:\Users\rdn\AppData\Local\Temp\ccIOjLNc.s 			page 64


 2421 006c 03F00303 		and	r3, r3, #3
 2422              	.LVL359:
 2423 0070 7344     		add	r3, r3, lr
 2424              	.L185:
 2425              	.LVL360:
 867:..\..\..\liblc3\src/ltpf.c ****                        (((p_idx >> 2) +  32) << 2) + (((p_idx & 3)) << 0)  ;
 868:..\..\..\liblc3\src/ltpf.c **** 
 869:..\..\..\liblc3\src/ltpf.c ****     pitch = (pitch * lc3_ns(LC3_DT_10M, sr) + 64) / 128;
 2426              		.loc 1 869 0
 2427 0072 8900     		lsls	r1, r1, #2
 2428 0074 4B43     		muls	r3, r1, r3
 2429              	.LVL361:
 2430 0076 03F1400B 		add	fp, r3, #64
 870:..\..\..\liblc3\src/ltpf.c **** 
 871:..\..\..\liblc3\src/ltpf.c ****     int nbits = (nbytes*8 * (1 + LC3_DT_10M)) / (1 + dt);
 2431              		.loc 1 871 0
 2432 007a 5201     		lsls	r2, r2, #5
 2433              	.LVL362:
 869:..\..\..\liblc3\src/ltpf.c **** 
 2434              		.loc 1 869 0
 2435 007c 8023     		movs	r3, #128
 2436              		.loc 1 871 0
 2437 007e 92FBF5F2 		sdiv	r2, r2, r5
 869:..\..\..\liblc3\src/ltpf.c **** 
 2438              		.loc 1 869 0
 2439 0082 9BFBF3F3 		sdiv	r3, fp, r3
 2440 0086 0693     		str	r3, [sp, #24]
 2441              	.LVL363:
 872:..\..\..\liblc3\src/ltpf.c ****     if (dt == LC3_DT_2M5)
 2442              		.loc 1 872 0
 2443 0088 48B9     		cbnz	r0, .L186
 873:..\..\..\liblc3\src/ltpf.c ****       nbits = (6 * nbits + 5) / 10;
 2444              		.loc 1 873 0
 2445 008a 4FF0060C 		mov	ip, #6
 2446 008e 0CFB02F2 		mul	r2, ip, r2
 2447              	.LVL364:
 2448 0092 0532     		adds	r2, r2, #5
 2449 0094 4FF00A0C 		mov	ip, #10
 2450 0098 92FBFCF2 		sdiv	r2, r2, ip
 2451              	.LVL365:
 2452 009c 02E0     		b	.L187
 2453              	.L186:
 874:..\..\..\liblc3\src/ltpf.c ****     if (dt == LC3_DT_5M)
 2454              		.loc 1 874 0
 2455 009e 0128     		cmp	r0, #1
 875:..\..\..\liblc3\src/ltpf.c ****       nbits -= 160;
 2456              		.loc 1 875 0
 2457 00a0 08BF     		it	eq
 2458 00a2 A03A     		subeq	r2, r2, #160
 2459              	.LVL366:
 2460              	.L187:
 876:..\..\..\liblc3\src/ltpf.c **** 
 877:..\..\..\liblc3\src/ltpf.c ****     int g_idx = LC3_MAX(nbits / 80, (int)(3 + sr)) - (3 + sr);
 2461              		.loc 1 877 0
 2462 00a4 08F1030C 		add	ip, r8, #3
 2463 00a8 5023     		movs	r3, #80
 2464              	.LVL367:
ARM GAS  C:\Users\rdn\AppData\Local\Temp\ccIOjLNc.s 			page 65


 2465 00aa 92FBF3F2 		sdiv	r2, r2, r3
 2466              	.LVL368:
 2467 00ae 6245     		cmp	r2, ip
 2468 00b0 ACBF     		ite	ge
 2469 00b2 CCEB020C 		rsbge	ip, ip, r2
 2470 00b6 CCEB0C0C 		rsblt	ip, ip, ip
 2471              	.LVL369:
 878:..\..\..\liblc3\src/ltpf.c ****     bool active = data && data->active && g_idx < 4;
 2472              		.loc 1 878 0
 2473 00ba 34B1     		cbz	r4, .L188
 2474              		.loc 1 878 0 is_stmt 0 discriminator 1
 2475 00bc 2478     		ldrb	r4, [r4]	@ zero_extendqisi2
 2476 00be 24B1     		cbz	r4, .L188
 2477              		.loc 1 878 0 discriminator 3
 2478 00c0 BCF1030F 		cmp	ip, #3
 2479 00c4 CCBF     		ite	gt
 2480 00c6 0024     		movgt	r4, #0
 2481 00c8 0124     		movle	r4, #1
 2482              	.L188:
 2483              		.loc 1 878 0 discriminator 8
 2484 00ca 04F00103 		and	r3, r4, #1
 2485 00ce 0893     		str	r3, [sp, #32]
 2486              	.LVL370:
 2487              	.LBB141:
 2488              	.LBB142:
 879:..\..\..\liblc3\src/ltpf.c **** 
 880:..\..\..\liblc3\src/ltpf.c ****     int w = LC3_MAX(4, lc3_ns_4m[sr] >> 4);
 881:..\..\..\liblc3\src/ltpf.c ****     float c[2 * MAX_FILTER_WIDTH];
 882:..\..\..\liblc3\src/ltpf.c **** 
 883:..\..\..\liblc3\src/ltpf.c ****     for (int i = 0; i < w; i++) {
 884:..\..\..\liblc3\src/ltpf.c ****         float g = active ? 0.4f - 0.05f * g_idx : 0;
 885:..\..\..\liblc3\src/ltpf.c ****         c[  i] = g * lc3_ltpf_cden[sr][pitch & 3][(w-1)-i];
 2489              		.loc 1 885 0 is_stmt 1 discriminator 8
 2490 00d0 069B     		ldr	r3, [sp, #24]
 2491 00d2 7A49     		ldr	r1, .L218+4
 2492 00d4 DFF800E2 		ldr	lr, .L218+32
 884:..\..\..\liblc3\src/ltpf.c ****         c[  i] = g * lc3_ltpf_cden[sr][pitch & 3][(w-1)-i];
 2493              		.loc 1 884 0 discriminator 8
 2494 00d8 9FED796A 		vldr.32	s12, .L218+8
 2495 00dc DFED795A 		vldr.32	s11, .L218+12
 886:..\..\..\liblc3\src/ltpf.c ****         c[w+i] = 0.85f * g * lc3_ltpf_cnum[sr][LC3_MIN(g_idx, 3)][(w-1)-i];
 2496              		.loc 1 886 0 discriminator 8
 2497 00e0 DFED796A 		vldr.32	s13, .L218+16
 885:..\..\..\liblc3\src/ltpf.c ****         c[w+i] = 0.85f * g * lc3_ltpf_cnum[sr][LC3_MIN(g_idx, 3)][(w-1)-i];
 2498              		.loc 1 885 0 discriminator 8
 2499 00e4 03F00302 		and	r2, r3, #3
 2500 00e8 4FEA8803 		lsl	r3, r8, #2
 2501              	.LVL371:
 2502 00ec 1A44     		add	r2, r2, r3
 2503 00ee 51F82200 		ldr	r0, [r1, r2, lsl #2]
 2504              	.LVL372:
 2505              	.LBE142:
 2506              	.LBE141:
 880:..\..\..\liblc3\src/ltpf.c ****     float c[2 * MAX_FILTER_WIDTH];
 2507              		.loc 1 880 0 discriminator 8
 2508 00f2 764A     		ldr	r2, .L218+20
 2509 00f4 52F82820 		ldr	r2, [r2, r8, lsl #2]
ARM GAS  C:\Users\rdn\AppData\Local\Temp\ccIOjLNc.s 			page 66


 2510 00f8 4FEA221A 		asr	r10, r2, #4
 2511 00fc BAF1040F 		cmp	r10, #4
 2512 0100 B8BF     		it	lt
 2513 0102 4FF0040A 		movlt	r10, #4
 2514 0106 4FEA8A02 		lsl	r2, r10, #2
 2515              	.LBB145:
 2516              	.LBB143:
 2517              		.loc 1 886 0 discriminator 8
 2518 010a BCF1030F 		cmp	ip, #3
 2519 010e D4BF     		ite	le
 2520 0110 6344     		addle	r3, r3, ip
 2521 0112 0333     		addgt	r3, r3, #3
 2522              	.LVL373:
 2523 0114 0592     		str	r2, [sp, #20]
 2524 0116 8218     		adds	r2, r0, r2
 2525 0118 5EF82330 		ldr	r3, [lr, r3, lsl #2]
 2526 011c 0792     		str	r2, [sp, #28]
 2527 011e 059A     		ldr	r2, [sp, #20]
 2528 0120 0AA9     		add	r1, sp, #40
 2529 0122 1344     		add	r3, r3, r2
 2530 0124 01EB020E 		add	lr, r1, r2
 2531              	.LVL374:
 2532              	.L190:
 884:..\..\..\liblc3\src/ltpf.c ****         c[  i] = g * lc3_ltpf_cden[sr][pitch & 3][(w-1)-i];
 2533              		.loc 1 884 0
 2534 0128 54B1     		cbz	r4, .L206
 884:..\..\..\liblc3\src/ltpf.c ****         c[  i] = g * lc3_ltpf_cden[sr][pitch & 3][(w-1)-i];
 2535              		.loc 1 884 0 is_stmt 0 discriminator 1
 2536 012a 07EE90CA 		vmov	s15, ip	@ int
 2537 012e F8EEE77A 		vcvt.f32.s32	s15, s15
 2538 0132 B0EE657A 		vmov.f32	s14, s11
 2539 0136 A7EEC67A 		vfms.f32	s14, s15, s12
 2540 013a F0EE477A 		vmov.f32	s15, s14
 2541 013e 01E0     		b	.L189
 2542              	.L206:
 884:..\..\..\liblc3\src/ltpf.c ****         c[  i] = g * lc3_ltpf_cden[sr][pitch & 3][(w-1)-i];
 2543              		.loc 1 884 0
 2544 0140 DFED637A 		vldr.32	s15, .L218+24
 2545              	.L189:
 2546              	.LVL375:
 885:..\..\..\liblc3\src/ltpf.c ****         c[w+i] = 0.85f * g * lc3_ltpf_cnum[sr][LC3_MIN(g_idx, 3)][(w-1)-i];
 2547              		.loc 1 885 0 is_stmt 1 discriminator 4
 2548 0144 079A     		ldr	r2, [sp, #28]
 2549 0146 32ED017A 		vldmdb.32	r2!, {s14}
 2550 014a 27EE277A 		vmul.f32	s14, s14, s15
 2551              		.loc 1 886 0 discriminator 4
 2552 014e 67EEA67A 		vmul.f32	s15, s15, s13
 2553              	.LVL376:
 885:..\..\..\liblc3\src/ltpf.c ****         c[w+i] = 0.85f * g * lc3_ltpf_cnum[sr][LC3_MIN(g_idx, 3)][(w-1)-i];
 2554              		.loc 1 885 0 discriminator 4
 2555 0152 A1EC017A 		vstmia.32	r1!, {s14}
 2556              		.loc 1 886 0 discriminator 4
 2557 0156 33ED017A 		vldmdb.32	r3!, {s14}
 885:..\..\..\liblc3\src/ltpf.c ****         c[w+i] = 0.85f * g * lc3_ltpf_cnum[sr][LC3_MIN(g_idx, 3)][(w-1)-i];
 2558              		.loc 1 885 0 discriminator 4
 2559 015a 0792     		str	r2, [sp, #28]
 2560              		.loc 1 886 0 discriminator 4
ARM GAS  C:\Users\rdn\AppData\Local\Temp\ccIOjLNc.s 			page 67


 2561 015c 67EE877A 		vmul.f32	s15, s15, s14
 2562              	.LBE143:
 883:..\..\..\liblc3\src/ltpf.c ****         float g = active ? 0.4f - 0.05f * g_idx : 0;
 2563              		.loc 1 883 0 discriminator 4
 2564 0160 9042     		cmp	r0, r2
 2565              	.LBB144:
 2566              		.loc 1 886 0 discriminator 4
 2567 0162 EEEC017A 		vstmia.32	lr!, {s15}
 2568              	.LBE144:
 883:..\..\..\liblc3\src/ltpf.c ****         float g = active ? 0.4f - 0.05f * g_idx : 0;
 2569              		.loc 1 883 0 discriminator 4
 2570 0166 DFD1     		bne	.L190
 2571              	.LBE145:
 887:..\..\..\liblc3\src/ltpf.c ****     }
 888:..\..\..\liblc3\src/ltpf.c **** 
 889:..\..\..\liblc3\src/ltpf.c ****     /* --- Transition handling --- */
 890:..\..\..\liblc3\src/ltpf.c **** 
 891:..\..\..\liblc3\src/ltpf.c ****     int ns = lc3_ns(dt, sr);
 892:..\..\..\liblc3\src/ltpf.c ****     int nt = ns / (1 + dt);
 893:..\..\..\liblc3\src/ltpf.c ****     float x0[2][MAX_FILTER_WIDTH];
 894:..\..\..\liblc3\src/ltpf.c **** 
 895:..\..\..\liblc3\src/ltpf.c ****     memcpy(x0[0], ltpf->x, (w-1) * sizeof(float));
 2572              		.loc 1 895 0
 2573 0168 059A     		ldr	r2, [sp, #20]
 892:..\..\..\liblc3\src/ltpf.c ****     float x0[2][MAX_FILTER_WIDTH];
 2574              		.loc 1 892 0
 2575 016a 049B     		ldr	r3, [sp, #16]
 2576 016c 93FBF5F5 		sdiv	r5, r3, r5
 2577              	.LVL377:
 2578              		.loc 1 895 0
 2579 0170 09F16803 		add	r3, r9, #104
 2580 0174 043A     		subs	r2, r2, #4
 2581 0176 1946     		mov	r1, r3
 2582 0178 3AA8     		add	r0, sp, #232
 2583 017a 0792     		str	r2, [sp, #28]
 2584 017c 0993     		str	r3, [sp, #36]
 2585 017e FFF7FEFF 		bl	memcpy
 2586              	.LVL378:
 896:..\..\..\liblc3\src/ltpf.c ****     memcpy(ltpf->x, x + ns - (w-1), (w-1) * sizeof(float));
 2587              		.loc 1 896 0
 2588 0182 049B     		ldr	r3, [sp, #16]
 2589 0184 079A     		ldr	r2, [sp, #28]
 2590 0186 591C     		adds	r1, r3, #1
 2591 0188 099B     		ldr	r3, [sp, #36]
 2592 018a CAEB0101 		rsb	r1, r10, r1
 2593 018e 07EB8101 		add	r1, r7, r1, lsl #2
 2594 0192 1846     		mov	r0, r3
 2595 0194 FFF7FEFF 		bl	memcpy
 2596              	.LVL379:
 897:..\..\..\liblc3\src/ltpf.c **** 
 898:..\..\..\liblc3\src/ltpf.c ****     if (active)
 2597              		.loc 1 898 0
 2598 0198 44B1     		cbz	r4, .L191
 899:..\..\..\liblc3\src/ltpf.c ****         memcpy(x0[1], x + nt-(w-1), (w-1) * sizeof(float));
 2599              		.loc 1 899 0
 2600 019a CAEB0501 		rsb	r1, r10, r5
 2601 019e 0131     		adds	r1, r1, #1
ARM GAS  C:\Users\rdn\AppData\Local\Temp\ccIOjLNc.s 			page 68


 2602 01a0 079A     		ldr	r2, [sp, #28]
 2603 01a2 07EB8101 		add	r1, r7, r1, lsl #2
 2604 01a6 52A8     		add	r0, sp, #328
 2605 01a8 FFF7FEFF 		bl	memcpy
 2606              	.LVL380:
 2607              	.L191:
 900:..\..\..\liblc3\src/ltpf.c **** 
 901:..\..\..\liblc3\src/ltpf.c ****     if (!ltpf->active && active)
 2608              		.loc 1 901 0
 2609 01ac 99F80030 		ldrb	r3, [r9]	@ zero_extendqisi2
 2610 01b0 0AA9     		add	r1, sp, #40
 2611 01b2 33B9     		cbnz	r3, .L192
 2612              		.loc 1 901 0 is_stmt 0 discriminator 1
 2613 01b4 002C     		cmp	r4, #0
 2614 01b6 6DD0     		beq	.L200
 902:..\..\..\liblc3\src/ltpf.c ****         synthesize[sr](xh, nh, pitch/4, x0[0], x, nt, c, 1);
 2615              		.loc 1 902 0 is_stmt 1
 2616 01b8 464B     		ldr	r3, .L218+28
 2617 01ba 0122     		movs	r2, #1
 2618 01bc 03EB8803 		add	r3, r3, r8, lsl #2
 2619 01c0 1AE0     		b	.L217
 2620              	.L192:
 2621 01c2 4FEA8803 		lsl	r3, r8, #2
 2622 01c6 4348     		ldr	r0, .L218+28
 2623 01c8 D9F80420 		ldr	r2, [r9, #4]
 903:..\..\..\liblc3\src/ltpf.c ****     else if (ltpf->active && !active)
 2624              		.loc 1 903 0 discriminator 1
 2625 01cc 7CB9     		cbnz	r4, .L195
 904:..\..\..\liblc3\src/ltpf.c ****         synthesize[sr](xh, nh, ltpf->pitch/4, x0[0], x, nt, ltpf->c, -1);
 2626              		.loc 1 904 0
 2627 01ce 0344     		add	r3, r3, r0
 2628 01d0 4FF0FF31 		mov	r1, #-1
 2629 01d4 0391     		str	r1, [sp, #12]
 2630 01d6 09F10801 		add	r1, r9, #8
 2631 01da 0291     		str	r1, [sp, #8]
 2632 01dc D3F83C48 		ldr	r4, [r3, #2108]
 2633 01e0 0195     		str	r5, [sp, #4]
 2634 01e2 0421     		movs	r1, #4
 2635 01e4 0097     		str	r7, [sp]
 2636 01e6 3AAB     		add	r3, sp, #232
 2637 01e8 92FBF1F2 		sdiv	r2, r2, r1
 2638 01ec 4FE0     		b	.L215
 2639              	.L195:
 905:..\..\..\liblc3\src/ltpf.c ****     else if (ltpf->active && active && ltpf->pitch == pitch)
 2640              		.loc 1 905 0 discriminator 2
 2641 01ee 069C     		ldr	r4, [sp, #24]
 2642 01f0 9442     		cmp	r4, r2
 906:..\..\..\liblc3\src/ltpf.c ****         synthesize[sr](xh, nh, pitch/4, x0[0], x, nt, c, 0);
 2643              		.loc 1 906 0 discriminator 2
 2644 01f2 0344     		add	r3, r3, r0
 905:..\..\..\liblc3\src/ltpf.c ****     else if (ltpf->active && active && ltpf->pitch == pitch)
 2645              		.loc 1 905 0 discriminator 2
 2646 01f4 0CD1     		bne	.L196
 2647              		.loc 1 906 0
 2648 01f6 0022     		movs	r2, #0
 2649              	.L217:
 2650 01f8 0392     		str	r2, [sp, #12]
ARM GAS  C:\Users\rdn\AppData\Local\Temp\ccIOjLNc.s 			page 69


 2651 01fa D3F83C48 		ldr	r4, [r3, #2108]
 2652 01fe 0291     		str	r1, [sp, #8]
 2653 0200 4FF40072 		mov	r2, #512
 2654 0204 0195     		str	r5, [sp, #4]
 2655 0206 0097     		str	r7, [sp]
 2656 0208 3AAB     		add	r3, sp, #232
 2657 020a 9BFBF2F2 		sdiv	r2, fp, r2
 2658 020e 24E0     		b	.L216
 2659              	.L196:
 907:..\..\..\liblc3\src/ltpf.c ****     else if (ltpf->active && active) {
 908:..\..\..\liblc3\src/ltpf.c ****         synthesize[sr](xh, nh, ltpf->pitch/4, x0[0], x, nt, ltpf->c, -1);
 2660              		.loc 1 908 0
 2661 0210 D3F83C48 		ldr	r4, [r3, #2108]
 2662 0214 0195     		str	r5, [sp, #4]
 2663 0216 4FF0FF33 		mov	r3, #-1
 2664 021a 0393     		str	r3, [sp, #12]
 2665 021c 09F10803 		add	r3, r9, #8
 2666 0220 0293     		str	r3, [sp, #8]
 2667 0222 0421     		movs	r1, #4
 2668 0224 3AAB     		add	r3, sp, #232
 2669 0226 92FBF1F2 		sdiv	r2, r2, r1
 2670 022a 0097     		str	r7, [sp]
 2671 022c 3146     		mov	r1, r6
 2672 022e 7598     		ldr	r0, [sp, #468]
 2673 0230 A047     		blx	r4
 2674              	.LVL381:
 909:..\..\..\liblc3\src/ltpf.c ****         synthesize[sr](xh, nh, pitch/4,
 910:..\..\..\liblc3\src/ltpf.c ****             (x <= xh ? x + nh : x) - (w-1), x, nt, c, 1);
 2675              		.loc 1 910 0
 2676 0232 759B     		ldr	r3, [sp, #468]
 909:..\..\..\liblc3\src/ltpf.c ****         synthesize[sr](xh, nh, pitch/4,
 2677              		.loc 1 909 0
 2678 0234 0195     		str	r5, [sp, #4]
 2679 0236 0121     		movs	r1, #1
 2680              		.loc 1 910 0
 2681 0238 9F42     		cmp	r7, r3
 909:..\..\..\liblc3\src/ltpf.c ****         synthesize[sr](xh, nh, pitch/4,
 2682              		.loc 1 909 0
 2683 023a 0391     		str	r1, [sp, #12]
 2684 023c 0AA9     		add	r1, sp, #40
 2685              		.loc 1 910 0
 2686 023e 98BF     		it	ls
 2687 0240 731C     		addls	r3, r6, #1
 909:..\..\..\liblc3\src/ltpf.c ****         synthesize[sr](xh, nh, pitch/4,
 2688              		.loc 1 909 0
 2689 0242 0291     		str	r1, [sp, #8]
 2690 0244 0599     		ldr	r1, [sp, #20]
 2691 0246 0097     		str	r7, [sp]
 2692              		.loc 1 910 0
 2693 0248 94BF     		ite	ls
 2694 024a 07EB8303 		addls	r3, r7, r3, lsl #2
 2695 024e 3B1D     		addhi	r3, r7, #4
 909:..\..\..\liblc3\src/ltpf.c ****         synthesize[sr](xh, nh, pitch/4,
 2696              		.loc 1 909 0
 2697 0250 5B1A     		subs	r3, r3, r1
 2698 0252 4FF40072 		mov	r2, #512
 2699 0256 9BFBF2F2 		sdiv	r2, fp, r2
ARM GAS  C:\Users\rdn\AppData\Local\Temp\ccIOjLNc.s 			page 70


 2700              	.L216:
 909:..\..\..\liblc3\src/ltpf.c ****         synthesize[sr](xh, nh, pitch/4,
 2701              		.loc 1 909 0 is_stmt 0 discriminator 4
 2702 025a 3146     		mov	r1, r6
 2703 025c 7598     		ldr	r0, [sp, #468]
 2704 025e A047     		blx	r4
 2705              	.LVL382:
 911:..\..\..\liblc3\src/ltpf.c ****     }
 912:..\..\..\liblc3\src/ltpf.c **** 
 913:..\..\..\liblc3\src/ltpf.c ****     /* --- Remainder --- */
 914:..\..\..\liblc3\src/ltpf.c **** 
 915:..\..\..\liblc3\src/ltpf.c ****     if (active && ns > nt)
 2706              		.loc 1 915 0 is_stmt 1 discriminator 4
 2707 0260 049B     		ldr	r3, [sp, #16]
 2708 0262 9D42     		cmp	r5, r3
 2709 0264 16DA     		bge	.L200
 916:..\..\..\liblc3\src/ltpf.c ****         synthesize[sr](xh, nh, pitch/4, x0[1], x + nt, ns-nt, c, 0);
 2710              		.loc 1 916 0
 2711 0266 1B4B     		ldr	r3, .L218+28
 2712 0268 03EB8808 		add	r8, r3, r8, lsl #2
 2713              	.LVL383:
 2714 026c 0023     		movs	r3, #0
 2715 026e 0393     		str	r3, [sp, #12]
 2716 0270 0AAB     		add	r3, sp, #40
 2717 0272 0293     		str	r3, [sp, #8]
 2718 0274 049B     		ldr	r3, [sp, #16]
 2719 0276 D8F83C48 		ldr	r4, [r8, #2108]
 2720 027a 5B1B     		subs	r3, r3, r5
 2721 027c 07EB8505 		add	r5, r7, r5, lsl #2
 2722              	.LVL384:
 2723 0280 0193     		str	r3, [sp, #4]
 2724 0282 0095     		str	r5, [sp]
 2725 0284 52AB     		add	r3, sp, #328
 2726 0286 4FF40072 		mov	r2, #512
 2727 028a 9BFBF2F2 		sdiv	r2, fp, r2
 2728              	.L215:
 2729 028e 3146     		mov	r1, r6
 2730 0290 7598     		ldr	r0, [sp, #468]
 2731 0292 A047     		blx	r4
 2732              	.LVL385:
 2733              	.L200:
 917:..\..\..\liblc3\src/ltpf.c **** 
 918:..\..\..\liblc3\src/ltpf.c ****     /* --- Update state --- */
 919:..\..\..\liblc3\src/ltpf.c **** 
 920:..\..\..\liblc3\src/ltpf.c ****     ltpf->active = active;
 2734              		.loc 1 920 0
 2735 0294 9DF82030 		ldrb	r3, [sp, #32]	@ zero_extendqisi2
 2736 0298 89F80030 		strb	r3, [r9]
 921:..\..\..\liblc3\src/ltpf.c ****     ltpf->pitch = pitch;
 2737              		.loc 1 921 0
 2738 029c 069B     		ldr	r3, [sp, #24]
 2739 029e C9F80430 		str	r3, [r9, #4]
 922:..\..\..\liblc3\src/ltpf.c ****     memcpy(ltpf->c, c, 2*w * sizeof(*ltpf->c));
 2740              		.loc 1 922 0
 2741 02a2 4FEACA02 		lsl	r2, r10, #3
 2742 02a6 0AA9     		add	r1, sp, #40
 2743 02a8 09F10800 		add	r0, r9, #8
ARM GAS  C:\Users\rdn\AppData\Local\Temp\ccIOjLNc.s 			page 71


 2744 02ac FFF7FEFF 		bl	memcpy
 2745              	.LVL386:
 923:..\..\..\liblc3\src/ltpf.c **** }
 2746              		.loc 1 923 0
 2747 02b0 6BB0     		add	sp, sp, #428
 2748              		.cfi_def_cfa_offset 36
 2749              		@ sp needed
 2750 02b2 BDE8F08F 		pop	{r4, r5, r6, r7, r8, r9, r10, fp, pc}
 2751              	.LVL387:
 2752              	.L219:
 2753 02b6 00BF     		.align	2
 2754              	.L218:
 2755 02b8 00000000 		.word	lc3_ns_2m5
 2756 02bc 00000000 		.word	lc3_ltpf_cden
 2757 02c0 CDCC4C3D 		.word	1028443341
 2758 02c4 CDCCCC3E 		.word	1053609165
 2759 02c8 9A99593F 		.word	1062836634
 2760 02cc 00000000 		.word	lc3_ns_4m
 2761 02d0 00000000 		.word	0
 2762 02d4 00000000 		.word	.LANCHOR0
 2763 02d8 00000000 		.word	lc3_ltpf_cnum
 2764              		.cfi_endproc
 2765              	.LFE44:
 2766              		.size	lc3_ltpf_synthesize, .-lc3_ltpf_synthesize
 2767              		.section	.text.lc3_ltpf_disable,"ax",%progbits
 2768              		.align	1
 2769              		.global	lc3_ltpf_disable
 2770              		.thumb
 2771              		.thumb_func
 2772              		.type	lc3_ltpf_disable, %function
 2773              	lc3_ltpf_disable:
 2774              	.LFB45:
 924:..\..\..\liblc3\src/ltpf.c **** 
 925:..\..\..\liblc3\src/ltpf.c **** 
 926:..\..\..\liblc3\src/ltpf.c **** /* ----------------------------------------------------------------------------
 927:..\..\..\liblc3\src/ltpf.c ****  *  Bitstream data
 928:..\..\..\liblc3\src/ltpf.c ****  * -------------------------------------------------------------------------- */
 929:..\..\..\liblc3\src/ltpf.c **** 
 930:..\..\..\liblc3\src/ltpf.c **** /**
 931:..\..\..\liblc3\src/ltpf.c ****  * LTPF disable
 932:..\..\..\liblc3\src/ltpf.c ****  */
 933:..\..\..\liblc3\src/ltpf.c **** void lc3_ltpf_disable(struct lc3_ltpf_data *data)
 934:..\..\..\liblc3\src/ltpf.c **** {
 2775              		.loc 1 934 0
 2776              		.cfi_startproc
 2777              		@ args = 0, pretend = 0, frame = 0
 2778              		@ frame_needed = 0, uses_anonymous_args = 0
 2779              		@ link register save eliminated.
 2780              	.LVL388:
 935:..\..\..\liblc3\src/ltpf.c ****     data->active = false;
 2781              		.loc 1 935 0
 2782 0000 0023     		movs	r3, #0
 2783 0002 0370     		strb	r3, [r0]
 2784 0004 7047     		bx	lr
 2785              		.cfi_endproc
 2786              	.LFE45:
 2787              		.size	lc3_ltpf_disable, .-lc3_ltpf_disable
ARM GAS  C:\Users\rdn\AppData\Local\Temp\ccIOjLNc.s 			page 72


 2788              		.section	.text.lc3_ltpf_get_nbits,"ax",%progbits
 2789              		.align	1
 2790              		.global	lc3_ltpf_get_nbits
 2791              		.thumb
 2792              		.thumb_func
 2793              		.type	lc3_ltpf_get_nbits, %function
 2794              	lc3_ltpf_get_nbits:
 2795              	.LFB46:
 936:..\..\..\liblc3\src/ltpf.c **** }
 937:..\..\..\liblc3\src/ltpf.c **** 
 938:..\..\..\liblc3\src/ltpf.c **** /**
 939:..\..\..\liblc3\src/ltpf.c ****  * Return number of bits coding the bitstream data
 940:..\..\..\liblc3\src/ltpf.c ****  */
 941:..\..\..\liblc3\src/ltpf.c **** int lc3_ltpf_get_nbits(bool pitch)
 942:..\..\..\liblc3\src/ltpf.c **** {
 2796              		.loc 1 942 0
 2797              		.cfi_startproc
 2798              		@ args = 0, pretend = 0, frame = 0
 2799              		@ frame_needed = 0, uses_anonymous_args = 0
 2800              		@ link register save eliminated.
 2801              	.LVL389:
 943:..\..\..\liblc3\src/ltpf.c ****     return 1 + 10 * pitch;
 2802              		.loc 1 943 0
 2803 0000 0A23     		movs	r3, #10
 2804 0002 5843     		muls	r0, r3, r0
 2805              	.LVL390:
 944:..\..\..\liblc3\src/ltpf.c **** }
 2806              		.loc 1 944 0
 2807 0004 0130     		adds	r0, r0, #1
 2808 0006 7047     		bx	lr
 2809              		.cfi_endproc
 2810              	.LFE46:
 2811              		.size	lc3_ltpf_get_nbits, .-lc3_ltpf_get_nbits
 2812              		.section	.text.lc3_ltpf_put_data,"ax",%progbits
 2813              		.align	1
 2814              		.global	lc3_ltpf_put_data
 2815              		.thumb
 2816              		.thumb_func
 2817              		.type	lc3_ltpf_put_data, %function
 2818              	lc3_ltpf_put_data:
 2819              	.LFB47:
 945:..\..\..\liblc3\src/ltpf.c **** 
 946:..\..\..\liblc3\src/ltpf.c **** /**
 947:..\..\..\liblc3\src/ltpf.c ****  * Put bitstream data
 948:..\..\..\liblc3\src/ltpf.c ****  */
 949:..\..\..\liblc3\src/ltpf.c **** void lc3_ltpf_put_data(lc3_bits_t *bits,
 950:..\..\..\liblc3\src/ltpf.c ****     const struct lc3_ltpf_data *data)
 951:..\..\..\liblc3\src/ltpf.c **** {
 2820              		.loc 1 951 0
 2821              		.cfi_startproc
 2822              		@ args = 0, pretend = 0, frame = 0
 2823              		@ frame_needed = 0, uses_anonymous_args = 0
 2824              	.LVL391:
 2825              	.LBB152:
 2826              	.LBB153:
 2827              	.LBB154:
 2828              	.LBB155:
ARM GAS  C:\Users\rdn\AppData\Local\Temp\ccIOjLNc.s 			page 73


 2829              		.file 3 "..\\..\\..\\liblc3\\src\\bits.h"
   1:..\..\..\liblc3\src/bits.h **** /******************************************************************************
   2:..\..\..\liblc3\src/bits.h ****  *
   3:..\..\..\liblc3\src/bits.h ****  *  Copyright 2022 Google LLC
   4:..\..\..\liblc3\src/bits.h ****  *
   5:..\..\..\liblc3\src/bits.h ****  *  Licensed under the Apache License, Version 2.0 (the "License");
   6:..\..\..\liblc3\src/bits.h ****  *  you may not use this file except in compliance with the License.
   7:..\..\..\liblc3\src/bits.h ****  *  You may obtain a copy of the License at:
   8:..\..\..\liblc3\src/bits.h ****  *
   9:..\..\..\liblc3\src/bits.h ****  *  http://www.apache.org/licenses/LICENSE-2.0
  10:..\..\..\liblc3\src/bits.h ****  *
  11:..\..\..\liblc3\src/bits.h ****  *  Unless required by applicable law or agreed to in writing, software
  12:..\..\..\liblc3\src/bits.h ****  *  distributed under the License is distributed on an "AS IS" BASIS,
  13:..\..\..\liblc3\src/bits.h ****  *  WITHOUT WARRANTIES OR CONDITIONS OF ANY KIND, either express or implied.
  14:..\..\..\liblc3\src/bits.h ****  *  See the License for the specific language governing permissions and
  15:..\..\..\liblc3\src/bits.h ****  *  limitations under the License.
  16:..\..\..\liblc3\src/bits.h ****  *
  17:..\..\..\liblc3\src/bits.h ****  ******************************************************************************/
  18:..\..\..\liblc3\src/bits.h **** 
  19:..\..\..\liblc3\src/bits.h **** /**
  20:..\..\..\liblc3\src/bits.h ****  * The bitstream is written by the 2 ends of the buffer :
  21:..\..\..\liblc3\src/bits.h ****  *
  22:..\..\..\liblc3\src/bits.h ****  * - Arthmetic coder put bits while increasing memory addresses
  23:..\..\..\liblc3\src/bits.h ****  *   in the buffer (forward)
  24:..\..\..\liblc3\src/bits.h ****  *
  25:..\..\..\liblc3\src/bits.h ****  * - Plain bits are puts starting the end of the buffer, with memeory
  26:..\..\..\liblc3\src/bits.h ****  *   addresses decreasing (backward)
  27:..\..\..\liblc3\src/bits.h ****  *
  28:..\..\..\liblc3\src/bits.h ****  *       .---------------------------------------------------.
  29:..\..\..\liblc3\src/bits.h ****  *       | > > > > > > > > > > :         : < < < < < < < < < |
  30:..\..\..\liblc3\src/bits.h ****  *       '---------------------------------------------------'
  31:..\..\..\liblc3\src/bits.h ****  *       |---------------------> - - - - - - - - - - - - - ->|
  32:..\..\..\liblc3\src/bits.h ****  *                              |< - - - <-------------------|
  33:..\..\..\liblc3\src/bits.h ****  *          Arithmetic coding                  Plain bits
  34:..\..\..\liblc3\src/bits.h ****  *          `lc3_put_symbol()`               `lc3_put_bits()`
  35:..\..\..\liblc3\src/bits.h ****  *
  36:..\..\..\liblc3\src/bits.h ****  * - The forward writing is protected against buffer overflow, it cannot
  37:..\..\..\liblc3\src/bits.h ****  *   write after the buffer, but can overwrite plain bits previously
  38:..\..\..\liblc3\src/bits.h ****  *   written in the buffer.
  39:..\..\..\liblc3\src/bits.h ****  *
  40:..\..\..\liblc3\src/bits.h ****  * - The backward writing is protected against overwrite of the arithmetic
  41:..\..\..\liblc3\src/bits.h ****  *   coder bitstream. In such way, the backward bitstream is always limited
  42:..\..\..\liblc3\src/bits.h ****  *   by the aritmetic coder bitstream, and can be overwritten by him.
  43:..\..\..\liblc3\src/bits.h ****  *
  44:..\..\..\liblc3\src/bits.h ****  *       .---------------------------------------------------.
  45:..\..\..\liblc3\src/bits.h ****  *       | > > > > > > > > > > :         : < < < < < < < < < |
  46:..\..\..\liblc3\src/bits.h ****  *       '---------------------------------------------------'
  47:..\..\..\liblc3\src/bits.h ****  *       |---------------------> - - - - - - - - - - - - - ->|
  48:..\..\..\liblc3\src/bits.h ****  *       |< - - - - - - - - - - -  - - - <-------------------|
  49:..\..\..\liblc3\src/bits.h ****  *          Arithmetic coding                  Plain bits
  50:..\..\..\liblc3\src/bits.h ****  *          `lc3_get_symbol()`               `lc3_get_bits()`
  51:..\..\..\liblc3\src/bits.h ****  *
  52:..\..\..\liblc3\src/bits.h ****  * - Reading is limited to read of the complementary end of the buffer.
  53:..\..\..\liblc3\src/bits.h ****  *
  54:..\..\..\liblc3\src/bits.h ****  * - The procedure `lc3_check_bits()` returns indication that read has been
  55:..\..\..\liblc3\src/bits.h ****  *   made crossing the other bit plane.
  56:..\..\..\liblc3\src/bits.h ****  *
ARM GAS  C:\Users\rdn\AppData\Local\Temp\ccIOjLNc.s 			page 74


  57:..\..\..\liblc3\src/bits.h ****  */
  58:..\..\..\liblc3\src/bits.h **** 
  59:..\..\..\liblc3\src/bits.h **** #ifndef __LC3_BITS_H
  60:..\..\..\liblc3\src/bits.h **** #define __LC3_BITS_H
  61:..\..\..\liblc3\src/bits.h **** 
  62:..\..\..\liblc3\src/bits.h **** #include "common.h"
  63:..\..\..\liblc3\src/bits.h **** 
  64:..\..\..\liblc3\src/bits.h **** 
  65:..\..\..\liblc3\src/bits.h **** /**
  66:..\..\..\liblc3\src/bits.h ****  * Bitstream mode
  67:..\..\..\liblc3\src/bits.h ****  */
  68:..\..\..\liblc3\src/bits.h **** 
  69:..\..\..\liblc3\src/bits.h **** enum lc3_bits_mode {
  70:..\..\..\liblc3\src/bits.h ****     LC3_BITS_MODE_READ,
  71:..\..\..\liblc3\src/bits.h ****     LC3_BITS_MODE_WRITE,
  72:..\..\..\liblc3\src/bits.h **** };
  73:..\..\..\liblc3\src/bits.h **** 
  74:..\..\..\liblc3\src/bits.h **** /**
  75:..\..\..\liblc3\src/bits.h ****  * Arithmetic coder symbol interval
  76:..\..\..\liblc3\src/bits.h ****  * The model split the interval in 17 symbols
  77:..\..\..\liblc3\src/bits.h ****  */
  78:..\..\..\liblc3\src/bits.h **** 
  79:..\..\..\liblc3\src/bits.h **** struct lc3_ac_symbol {
  80:..\..\..\liblc3\src/bits.h ****     uint16_t low   : 16;
  81:..\..\..\liblc3\src/bits.h ****     uint16_t range : 16;
  82:..\..\..\liblc3\src/bits.h **** };
  83:..\..\..\liblc3\src/bits.h **** 
  84:..\..\..\liblc3\src/bits.h **** struct lc3_ac_model {
  85:..\..\..\liblc3\src/bits.h ****     struct lc3_ac_symbol s[17];
  86:..\..\..\liblc3\src/bits.h **** };
  87:..\..\..\liblc3\src/bits.h **** 
  88:..\..\..\liblc3\src/bits.h **** /**
  89:..\..\..\liblc3\src/bits.h ****  * Bitstream context
  90:..\..\..\liblc3\src/bits.h ****  */
  91:..\..\..\liblc3\src/bits.h **** 
  92:..\..\..\liblc3\src/bits.h **** #define LC3_ACCU_BITS (int)(8 * sizeof(unsigned))
  93:..\..\..\liblc3\src/bits.h **** 
  94:..\..\..\liblc3\src/bits.h **** struct lc3_bits_accu {
  95:..\..\..\liblc3\src/bits.h ****     unsigned v;
  96:..\..\..\liblc3\src/bits.h ****     int n, nover;
  97:..\..\..\liblc3\src/bits.h **** };
  98:..\..\..\liblc3\src/bits.h **** 
  99:..\..\..\liblc3\src/bits.h **** #define LC3_AC_BITS (int)(24)
 100:..\..\..\liblc3\src/bits.h **** 
 101:..\..\..\liblc3\src/bits.h **** struct lc3_bits_ac {
 102:..\..\..\liblc3\src/bits.h ****     unsigned low, range;
 103:..\..\..\liblc3\src/bits.h ****     int cache, carry, carry_count;
 104:..\..\..\liblc3\src/bits.h ****     bool error;
 105:..\..\..\liblc3\src/bits.h **** };
 106:..\..\..\liblc3\src/bits.h **** 
 107:..\..\..\liblc3\src/bits.h **** struct lc3_bits_buffer {
 108:..\..\..\liblc3\src/bits.h ****     const uint8_t *start, *end;
 109:..\..\..\liblc3\src/bits.h ****     uint8_t *p_fw, *p_bw;
 110:..\..\..\liblc3\src/bits.h **** };
 111:..\..\..\liblc3\src/bits.h **** 
 112:..\..\..\liblc3\src/bits.h **** typedef struct lc3_bits {
 113:..\..\..\liblc3\src/bits.h ****     enum lc3_bits_mode mode;
ARM GAS  C:\Users\rdn\AppData\Local\Temp\ccIOjLNc.s 			page 75


 114:..\..\..\liblc3\src/bits.h ****     struct lc3_bits_ac ac;
 115:..\..\..\liblc3\src/bits.h ****     struct lc3_bits_accu accu;
 116:..\..\..\liblc3\src/bits.h ****     struct lc3_bits_buffer buffer;
 117:..\..\..\liblc3\src/bits.h **** } lc3_bits_t;
 118:..\..\..\liblc3\src/bits.h **** 
 119:..\..\..\liblc3\src/bits.h **** 
 120:..\..\..\liblc3\src/bits.h **** /**
 121:..\..\..\liblc3\src/bits.h ****  * Setup bitstream reading/writing
 122:..\..\..\liblc3\src/bits.h ****  * bits            Bitstream context
 123:..\..\..\liblc3\src/bits.h ****  * mode            Either READ or WRITE mode
 124:..\..\..\liblc3\src/bits.h ****  * buffer, len     Output buffer and length (in bytes)
 125:..\..\..\liblc3\src/bits.h ****  */
 126:..\..\..\liblc3\src/bits.h **** void lc3_setup_bits(lc3_bits_t *bits,
 127:..\..\..\liblc3\src/bits.h ****     enum lc3_bits_mode mode, void *buffer, int len);
 128:..\..\..\liblc3\src/bits.h **** 
 129:..\..\..\liblc3\src/bits.h **** /**
 130:..\..\..\liblc3\src/bits.h ****  * Return number of bits left in the bitstream
 131:..\..\..\liblc3\src/bits.h ****  * bits            Bitstream context
 132:..\..\..\liblc3\src/bits.h ****  * return          Number of bits left
 133:..\..\..\liblc3\src/bits.h ****  */
 134:..\..\..\liblc3\src/bits.h **** int lc3_get_bits_left(const lc3_bits_t *bits);
 135:..\..\..\liblc3\src/bits.h **** 
 136:..\..\..\liblc3\src/bits.h **** /**
 137:..\..\..\liblc3\src/bits.h ****  * Check if error occured on bitstream reading/writing
 138:..\..\..\liblc3\src/bits.h ****  * bits            Bitstream context
 139:..\..\..\liblc3\src/bits.h ****  * return          0: Ok  -1: Bitstream overflow or AC reading error
 140:..\..\..\liblc3\src/bits.h ****  */
 141:..\..\..\liblc3\src/bits.h **** int lc3_check_bits(const lc3_bits_t *bits);
 142:..\..\..\liblc3\src/bits.h **** 
 143:..\..\..\liblc3\src/bits.h **** /**
 144:..\..\..\liblc3\src/bits.h ****  * Put a bit
 145:..\..\..\liblc3\src/bits.h ****  * bits            Bitstream context
 146:..\..\..\liblc3\src/bits.h ****  * v               Bit value, 0 or 1
 147:..\..\..\liblc3\src/bits.h ****  */
 148:..\..\..\liblc3\src/bits.h **** static inline void lc3_put_bit(lc3_bits_t *bits, int v);
 149:..\..\..\liblc3\src/bits.h **** 
 150:..\..\..\liblc3\src/bits.h **** /**
 151:..\..\..\liblc3\src/bits.h ****  * Put from 1 to 32 bits
 152:..\..\..\liblc3\src/bits.h ****  * bits            Bitstream context
 153:..\..\..\liblc3\src/bits.h ****  * v, n            Value, in range 0 to 2^n - 1, and bits count (1 to 32)
 154:..\..\..\liblc3\src/bits.h ****  */
 155:..\..\..\liblc3\src/bits.h **** static inline void lc3_put_bits(lc3_bits_t *bits, unsigned v, int n);
 156:..\..\..\liblc3\src/bits.h **** 
 157:..\..\..\liblc3\src/bits.h **** /**
 158:..\..\..\liblc3\src/bits.h ****  * Put arithmetic coder symbol
 159:..\..\..\liblc3\src/bits.h ****  * bits            Bitstream context
 160:..\..\..\liblc3\src/bits.h ****  * model, s        Model distribution and symbol value
 161:..\..\..\liblc3\src/bits.h ****  */
 162:..\..\..\liblc3\src/bits.h **** static inline void lc3_put_symbol(lc3_bits_t *bits,
 163:..\..\..\liblc3\src/bits.h ****     const struct lc3_ac_model *model, unsigned s);
 164:..\..\..\liblc3\src/bits.h **** 
 165:..\..\..\liblc3\src/bits.h **** /**
 166:..\..\..\liblc3\src/bits.h ****  * Flush and terminate bitstream writing
 167:..\..\..\liblc3\src/bits.h ****  * bits            Bitstream context
 168:..\..\..\liblc3\src/bits.h ****  */
 169:..\..\..\liblc3\src/bits.h **** void lc3_flush_bits(lc3_bits_t *bits);
 170:..\..\..\liblc3\src/bits.h **** 
ARM GAS  C:\Users\rdn\AppData\Local\Temp\ccIOjLNc.s 			page 76


 171:..\..\..\liblc3\src/bits.h **** /**
 172:..\..\..\liblc3\src/bits.h ****  * Get a bit
 173:..\..\..\liblc3\src/bits.h ****  * bits            Bitstream context
 174:..\..\..\liblc3\src/bits.h ****  */
 175:..\..\..\liblc3\src/bits.h **** static inline int lc3_get_bit(lc3_bits_t *bits);
 176:..\..\..\liblc3\src/bits.h **** 
 177:..\..\..\liblc3\src/bits.h **** /**
 178:..\..\..\liblc3\src/bits.h ****  * Get from 1 to 32 bits
 179:..\..\..\liblc3\src/bits.h ****  * bits            Bitstream context
 180:..\..\..\liblc3\src/bits.h ****  * n               Number of bits to read (1 to 32)
 181:..\..\..\liblc3\src/bits.h ****  * return          The value read
 182:..\..\..\liblc3\src/bits.h ****  */
 183:..\..\..\liblc3\src/bits.h **** static inline unsigned lc3_get_bits(lc3_bits_t *bits,  int n);
 184:..\..\..\liblc3\src/bits.h **** 
 185:..\..\..\liblc3\src/bits.h **** /**
 186:..\..\..\liblc3\src/bits.h ****  * Get arithmetic coder symbol
 187:..\..\..\liblc3\src/bits.h ****  * bits            Bitstream context
 188:..\..\..\liblc3\src/bits.h ****  * model           Model distribution
 189:..\..\..\liblc3\src/bits.h ****  * return          The value read
 190:..\..\..\liblc3\src/bits.h ****  */
 191:..\..\..\liblc3\src/bits.h **** static inline unsigned lc3_get_symbol(lc3_bits_t *bits,
 192:..\..\..\liblc3\src/bits.h ****     const struct lc3_ac_model *model);
 193:..\..\..\liblc3\src/bits.h **** 
 194:..\..\..\liblc3\src/bits.h **** 
 195:..\..\..\liblc3\src/bits.h **** 
 196:..\..\..\liblc3\src/bits.h **** /* ----------------------------------------------------------------------------
 197:..\..\..\liblc3\src/bits.h ****  *  Inline implementations
 198:..\..\..\liblc3\src/bits.h ****  * -------------------------------------------------------------------------- */
 199:..\..\..\liblc3\src/bits.h **** 
 200:..\..\..\liblc3\src/bits.h **** void lc3_put_bits_generic(lc3_bits_t *bits, unsigned v, int n);
 201:..\..\..\liblc3\src/bits.h **** unsigned lc3_get_bits_generic(struct lc3_bits *bits, int n);
 202:..\..\..\liblc3\src/bits.h **** 
 203:..\..\..\liblc3\src/bits.h **** void lc3_ac_read_renorm(lc3_bits_t *bits);
 204:..\..\..\liblc3\src/bits.h **** void lc3_ac_write_renorm(lc3_bits_t *bits);
 205:..\..\..\liblc3\src/bits.h **** 
 206:..\..\..\liblc3\src/bits.h **** 
 207:..\..\..\liblc3\src/bits.h **** /**
 208:..\..\..\liblc3\src/bits.h ****  * Put a bit
 209:..\..\..\liblc3\src/bits.h ****  */
 210:..\..\..\liblc3\src/bits.h **** LC3_HOT static inline void lc3_put_bit(lc3_bits_t *bits, int v)
 211:..\..\..\liblc3\src/bits.h **** {
 212:..\..\..\liblc3\src/bits.h ****     lc3_put_bits(bits, v, 1);
 213:..\..\..\liblc3\src/bits.h **** }
 214:..\..\..\liblc3\src/bits.h **** 
 215:..\..\..\liblc3\src/bits.h **** /**
 216:..\..\..\liblc3\src/bits.h ****  * Put from 1 to 32 bits
 217:..\..\..\liblc3\src/bits.h ****  */
 218:..\..\..\liblc3\src/bits.h **** LC3_HOT static inline void lc3_put_bits(
 219:..\..\..\liblc3\src/bits.h ****     struct lc3_bits *bits, unsigned v, int n)
 220:..\..\..\liblc3\src/bits.h **** {
 221:..\..\..\liblc3\src/bits.h ****     struct lc3_bits_accu *accu = &bits->accu;
 222:..\..\..\liblc3\src/bits.h **** 
 223:..\..\..\liblc3\src/bits.h ****     if (accu->n + n <= LC3_ACCU_BITS) {
 2830              		.loc 3 223 0
 2831 0000 026A     		ldr	r2, [r0, #32]
 2832              	.LBE155:
 2833              	.LBE154:
ARM GAS  C:\Users\rdn\AppData\Local\Temp\ccIOjLNc.s 			page 77


 2834              	.LBE153:
 2835              	.LBE152:
 2836              		.loc 1 951 0
 2837 0002 38B5     		push	{r3, r4, r5, lr}
 2838              		.cfi_def_cfa_offset 16
 2839              		.cfi_offset 3, -16
 2840              		.cfi_offset 4, -12
 2841              		.cfi_offset 5, -8
 2842              		.cfi_offset 14, -4
 2843              	.LBB162:
 2844              	.LBB160:
 2845              	.LBB158:
 2846              	.LBB156:
 2847              		.loc 3 223 0
 2848 0004 531C     		adds	r3, r2, #1
 2849 0006 202B     		cmp	r3, #32
 2850              	.LBE156:
 2851              	.LBE158:
 2852              	.LBE160:
 2853              	.LBE162:
 2854              		.loc 1 951 0
 2855 0008 0D46     		mov	r5, r1
 2856 000a 0446     		mov	r4, r0
 2857              	.LBB163:
 2858              	.LBB161:
 212:..\..\..\liblc3\src/bits.h **** }
 2859              		.loc 3 212 0
 2860 000c 0978     		ldrb	r1, [r1]	@ zero_extendqisi2
 2861              	.LVL392:
 2862              	.LBB159:
 2863              	.LBB157:
 2864              		.loc 3 223 0
 2865 000e 05DC     		bgt	.L223
 224:..\..\..\liblc3\src/bits.h ****         accu->v |= v << accu->n;
 2866              		.loc 3 224 0
 2867 0010 9140     		lsls	r1, r1, r2
 2868              	.LVL393:
 2869 0012 C269     		ldr	r2, [r0, #28]
 225:..\..\..\liblc3\src/bits.h ****         accu->n += n;
 2870              		.loc 3 225 0
 2871 0014 0362     		str	r3, [r0, #32]
 2872              	.LVL394:
 224:..\..\..\liblc3\src/bits.h ****         accu->v |= v << accu->n;
 2873              		.loc 3 224 0
 2874 0016 1143     		orrs	r1, r1, r2
 2875 0018 C161     		str	r1, [r0, #28]
 2876 001a 02E0     		b	.L224
 2877              	.LVL395:
 2878              	.L223:
 226:..\..\..\liblc3\src/bits.h ****     } else {
 227:..\..\..\liblc3\src/bits.h ****         lc3_put_bits_generic(bits, v, n);
 2879              		.loc 3 227 0
 2880 001c 0122     		movs	r2, #1
 2881 001e FFF7FEFF 		bl	lc3_put_bits_generic
 2882              	.LVL396:
 2883              	.L224:
 2884              	.LBE157:
ARM GAS  C:\Users\rdn\AppData\Local\Temp\ccIOjLNc.s 			page 78


 2885              	.LBE159:
 2886              	.LBE161:
 2887              	.LBE163:
 2888              	.LBB164:
 2889              	.LBB165:
 223:..\..\..\liblc3\src/bits.h ****         accu->v |= v << accu->n;
 2890              		.loc 3 223 0
 2891 0022 226A     		ldr	r2, [r4, #32]
 2892              	.LBE165:
 2893              	.LBE164:
 952:..\..\..\liblc3\src/ltpf.c ****     lc3_put_bit(bits, data->active);
 953:..\..\..\liblc3\src/ltpf.c ****     lc3_put_bits(bits, data->pitch_index, 9);
 2894              		.loc 1 953 0
 2895 0024 6968     		ldr	r1, [r5, #4]
 2896              	.LVL397:
 2897              	.LBB168:
 2898              	.LBB166:
 223:..\..\..\liblc3\src/bits.h ****         accu->v |= v << accu->n;
 2899              		.loc 3 223 0
 2900 0026 02F10903 		add	r3, r2, #9
 2901 002a 202B     		cmp	r3, #32
 2902 002c 05DC     		bgt	.L225
 224:..\..\..\liblc3\src/bits.h ****         accu->n += n;
 2903              		.loc 3 224 0
 2904 002e 9140     		lsls	r1, r1, r2
 2905              	.LVL398:
 2906 0030 E269     		ldr	r2, [r4, #28]
 225:..\..\..\liblc3\src/bits.h ****     } else {
 2907              		.loc 3 225 0
 2908 0032 2362     		str	r3, [r4, #32]
 224:..\..\..\liblc3\src/bits.h ****         accu->n += n;
 2909              		.loc 3 224 0
 2910 0034 1143     		orrs	r1, r1, r2
 2911 0036 E161     		str	r1, [r4, #28]
 2912 0038 38BD     		pop	{r3, r4, r5, pc}
 2913              	.LVL399:
 2914              	.L225:
 2915              		.loc 3 227 0
 2916 003a 2046     		mov	r0, r4
 2917 003c 0922     		movs	r2, #9
 2918              	.LBE166:
 2919              	.LBE168:
 954:..\..\..\liblc3\src/ltpf.c **** }
 2920              		.loc 1 954 0
 2921 003e BDE83840 		pop	{r3, r4, r5, lr}
 2922              		.cfi_restore 14
 2923              		.cfi_restore 5
 2924              		.cfi_restore 4
 2925              		.cfi_restore 3
 2926              		.cfi_def_cfa_offset 0
 2927              	.LVL400:
 2928              	.LBB169:
 2929              	.LBB167:
 2930              		.loc 3 227 0
 2931 0042 FFF7FEBF 		b	lc3_put_bits_generic
 2932              	.LVL401:
 2933              	.LBE167:
ARM GAS  C:\Users\rdn\AppData\Local\Temp\ccIOjLNc.s 			page 79


 2934              	.LBE169:
 2935              		.cfi_endproc
 2936              	.LFE47:
 2937              		.size	lc3_ltpf_put_data, .-lc3_ltpf_put_data
 2938              		.section	.text.lc3_ltpf_get_data,"ax",%progbits
 2939              		.align	1
 2940              		.global	lc3_ltpf_get_data
 2941              		.thumb
 2942              		.thumb_func
 2943              		.type	lc3_ltpf_get_data, %function
 2944              	lc3_ltpf_get_data:
 2945              	.LFB48:
 955:..\..\..\liblc3\src/ltpf.c **** 
 956:..\..\..\liblc3\src/ltpf.c **** /**
 957:..\..\..\liblc3\src/ltpf.c ****  * Get bitstream data
 958:..\..\..\liblc3\src/ltpf.c ****  */
 959:..\..\..\liblc3\src/ltpf.c **** void lc3_ltpf_get_data(lc3_bits_t *bits,
 960:..\..\..\liblc3\src/ltpf.c ****     struct lc3_ltpf_data *data)
 961:..\..\..\liblc3\src/ltpf.c **** {
 2946              		.loc 1 961 0
 2947              		.cfi_startproc
 2948              		@ args = 0, pretend = 0, frame = 0
 2949              		@ frame_needed = 0, uses_anonymous_args = 0
 2950              	.LVL402:
 2951              	.LBB178:
 2952              	.LBB179:
 2953              	.LBB180:
 228:..\..\..\liblc3\src/bits.h ****     }
 229:..\..\..\liblc3\src/bits.h **** }
 230:..\..\..\liblc3\src/bits.h **** 
 231:..\..\..\liblc3\src/bits.h **** /**
 232:..\..\..\liblc3\src/bits.h ****  * Get a bit
 233:..\..\..\liblc3\src/bits.h ****  */
 234:..\..\..\liblc3\src/bits.h **** LC3_HOT static inline int lc3_get_bit(lc3_bits_t *bits)
 235:..\..\..\liblc3\src/bits.h **** {
 236:..\..\..\liblc3\src/bits.h ****     return lc3_get_bits(bits, 1);
 237:..\..\..\liblc3\src/bits.h **** }
 238:..\..\..\liblc3\src/bits.h **** 
 239:..\..\..\liblc3\src/bits.h **** /**
 240:..\..\..\liblc3\src/bits.h ****  * Get from 1 to 32 bits
 241:..\..\..\liblc3\src/bits.h ****  */
 242:..\..\..\liblc3\src/bits.h **** LC3_HOT static inline unsigned lc3_get_bits(struct lc3_bits *bits, int n)
 243:..\..\..\liblc3\src/bits.h **** {
 244:..\..\..\liblc3\src/bits.h ****     struct lc3_bits_accu *accu = &bits->accu;
 245:..\..\..\liblc3\src/bits.h **** 
 246:..\..\..\liblc3\src/bits.h ****     if (accu->n + n <= LC3_ACCU_BITS) {
 2954              		.loc 3 246 0
 2955 0000 026A     		ldr	r2, [r0, #32]
 2956              	.LBE180:
 2957              	.LBE179:
 2958              	.LBE178:
 2959              		.loc 1 961 0
 2960 0002 38B5     		push	{r3, r4, r5, lr}
 2961              		.cfi_def_cfa_offset 16
 2962              		.cfi_offset 3, -16
 2963              		.cfi_offset 4, -12
 2964              		.cfi_offset 5, -8
ARM GAS  C:\Users\rdn\AppData\Local\Temp\ccIOjLNc.s 			page 80


 2965              		.cfi_offset 14, -4
 2966              	.LBB186:
 2967              	.LBB184:
 2968              	.LBB182:
 2969              		.loc 3 246 0
 2970 0004 531C     		adds	r3, r2, #1
 2971 0006 202B     		cmp	r3, #32
 2972              	.LBE182:
 2973              	.LBE184:
 2974              	.LBE186:
 2975              		.loc 1 961 0
 2976 0008 0446     		mov	r4, r0
 2977 000a 0D46     		mov	r5, r1
 2978              	.LBB187:
 2979              	.LBB185:
 2980              	.LBB183:
 2981              		.loc 3 246 0
 2982 000c 05DC     		bgt	.L229
 2983              	.LBB181:
 247:..\..\..\liblc3\src/bits.h ****         int v = (accu->v >> accu->n) & ((1u << n) - 1);
 2984              		.loc 3 247 0
 2985 000e C069     		ldr	r0, [r0, #28]
 2986              	.LVL403:
 248:..\..\..\liblc3\src/bits.h ****         return (accu->n += n), v;
 2987              		.loc 3 248 0
 2988 0010 2362     		str	r3, [r4, #32]
 247:..\..\..\liblc3\src/bits.h ****         int v = (accu->v >> accu->n) & ((1u << n) - 1);
 2989              		.loc 3 247 0
 2990 0012 D040     		lsrs	r0, r0, r2
 2991 0014 00F00100 		and	r0, r0, #1
 2992              	.LVL404:
 2993 0018 02E0     		b	.L230
 2994              	.LVL405:
 2995              	.L229:
 2996              	.LBE181:
 249:..\..\..\liblc3\src/bits.h ****     }
 250:..\..\..\liblc3\src/bits.h ****     else {
 251:..\..\..\liblc3\src/bits.h ****         return lc3_get_bits_generic(bits, n);
 2997              		.loc 3 251 0
 2998 001a 0121     		movs	r1, #1
 2999              	.LVL406:
 3000 001c FFF7FEFF 		bl	lc3_get_bits_generic
 3001              	.LVL407:
 3002              	.L230:
 3003              	.LBE183:
 3004              	.LBE185:
 3005              	.LBE187:
 962:..\..\..\liblc3\src/ltpf.c ****     data->active = lc3_get_bit(bits);
 3006              		.loc 1 962 0
 3007 0020 0030     		adds	r0, r0, #0
 3008 0022 18BF     		it	ne
 3009 0024 0120     		movne	r0, #1
 3010 0026 2870     		strb	r0, [r5]
 3011              	.LVL408:
 3012              	.LBB188:
 3013              	.LBB189:
 246:..\..\..\liblc3\src/bits.h ****         int v = (accu->v >> accu->n) & ((1u << n) - 1);
ARM GAS  C:\Users\rdn\AppData\Local\Temp\ccIOjLNc.s 			page 81


 3014              		.loc 3 246 0
 3015 0028 206A     		ldr	r0, [r4, #32]
 3016 002a 00F10902 		add	r2, r0, #9
 3017 002e 202A     		cmp	r2, #32
 3018 0030 06DC     		bgt	.L231
 3019              	.LBB190:
 247:..\..\..\liblc3\src/bits.h ****         return (accu->n += n), v;
 3020              		.loc 3 247 0
 3021 0032 E369     		ldr	r3, [r4, #28]
 248:..\..\..\liblc3\src/bits.h ****     }
 3022              		.loc 3 248 0
 3023 0034 2262     		str	r2, [r4, #32]
 247:..\..\..\liblc3\src/bits.h ****         return (accu->n += n), v;
 3024              		.loc 3 247 0
 3025 0036 23FA00F0 		lsr	r0, r3, r0
 3026 003a C0F30800 		ubfx	r0, r0, #0, #9
 3027              	.LVL409:
 3028 003e 03E0     		b	.L232
 3029              	.LVL410:
 3030              	.L231:
 3031              	.LBE190:
 3032              		.loc 3 251 0
 3033 0040 0921     		movs	r1, #9
 3034 0042 2046     		mov	r0, r4
 3035 0044 FFF7FEFF 		bl	lc3_get_bits_generic
 3036              	.LVL411:
 3037              	.L232:
 3038              	.LBE189:
 3039              	.LBE188:
 963:..\..\..\liblc3\src/ltpf.c ****     data->pitch_index = lc3_get_bits(bits, 9);
 3040              		.loc 1 963 0
 3041 0048 6860     		str	r0, [r5, #4]
 3042 004a 38BD     		pop	{r3, r4, r5, pc}
 3043              		.cfi_endproc
 3044              	.LFE48:
 3045              		.size	lc3_ltpf_get_data, .-lc3_ltpf_get_data
 3046              		.section	.rodata
 3047              		.align	2
 3048              		.set	.LANCHOR0,. + 0
 3049              		.type	h_24k_12k8_q15, %object
 3050              		.size	h_24k_12k8_q15, 480
 3051              	h_24k_12k8_q15:
 3052 0000 CEFF     		.short	-50
 3053 0002 1300     		.short	19
 3054 0004 8F00     		.short	143
 3055 0006 A3FF     		.short	-93
 3056 0008 DEFE     		.short	-290
 3057 000a 1601     		.short	278
 3058 000c E501     		.short	485
 3059 000e 6EFD     		.short	-658
 3060 0010 43FD     		.short	-701
 3061 0012 7405     		.short	1396
 3062 0014 8503     		.short	901
 3063 0016 35F4     		.short	-3019
 3064 0018 EEFB     		.short	-1042
 3065 001a 2428     		.short	10276
 3066 001c 5044     		.short	17488
ARM GAS  C:\Users\rdn\AppData\Local\Temp\ccIOjLNc.s 			page 82


 3067 001e 2428     		.short	10276
 3068 0020 EEFB     		.short	-1042
 3069 0022 35F4     		.short	-3019
 3070 0024 8503     		.short	901
 3071 0026 7405     		.short	1396
 3072 0028 43FD     		.short	-701
 3073 002a 6EFD     		.short	-658
 3074 002c E501     		.short	485
 3075 002e 1601     		.short	278
 3076 0030 DEFE     		.short	-290
 3077 0032 A3FF     		.short	-93
 3078 0034 8F00     		.short	143
 3079 0036 1300     		.short	19
 3080 0038 CEFF     		.short	-50
 3081 003a 0000     		.short	0
 3082 003c D2FF     		.short	-46
 3083 003e 0000     		.short	0
 3084 0040 8D00     		.short	141
 3085 0042 D3FF     		.short	-45
 3086 0044 CFFE     		.short	-305
 3087 0046 B900     		.short	185
 3088 0048 1F02     		.short	543
 3089 004a 0BFE     		.short	-501
 3090 004c AAFC     		.short	-854
 3091 004e 8104     		.short	1153
 3092 0050 E104     		.short	1249
 3093 0052 C5F5     		.short	-2619
 3094 0054 8CF8     		.short	-1908
 3095 0056 0822     		.short	8712
 3096 0058 CE43     		.short	17358
 3097 005a FC2D     		.short	11772
 3098 005c 0000     		.short	0
 3099 005e 09F3     		.short	-3319
 3100 0060 E001     		.short	480
 3101 0062 3906     		.short	1593
 3102 0064 08FE     		.short	-504
 3103 0066 E4FC     		.short	-796
 3104 0068 8F01     		.short	399
 3105 006a 6F01     		.short	367
 3106 006c FBFE     		.short	-261
 3107 006e 72FF     		.short	-142
 3108 0070 8A00     		.short	138
 3109 0072 2800     		.short	40
 3110 0074 CCFF     		.short	-52
 3111 0076 FBFF     		.short	-5
 3112 0078 D7FF     		.short	-41
 3113 007a EFFF     		.short	-17
 3114 007c 8500     		.short	133
 3115 007e 0000     		.short	0
 3116 0080 D0FE     		.short	-304
 3117 0082 5B00     		.short	91
 3118 0084 3E02     		.short	574
 3119 0086 B2FE     		.short	-334
 3120 0088 41FC     		.short	-959
 3121 008a 6E03     		.short	878
 3122 008c EC05     		.short	1516
 3123 008e A1F7     		.short	-2143
ARM GAS  C:\Users\rdn\AppData\Local\Temp\ccIOjLNc.s 			page 83


 3124 0090 E2F5     		.short	-2590
 3125 0092 CE1B     		.short	7118
 3126 0094 4B42     		.short	16971
 3127 0096 6933     		.short	13161
 3128 0098 B204     		.short	1202
 3129 009a 59F2     		.short	-3495
 3130 009c 0000     		.short	0
 3131 009e C306     		.short	1731
 3132 00a0 F5FE     		.short	-267
 3133 00a2 74FC     		.short	-908
 3134 00a4 1F01     		.short	287
 3135 00a6 BD01     		.short	445
 3136 00a8 29FF     		.short	-215
 3137 00aa 44FF     		.short	-188
 3138 00ac 7D00     		.short	125
 3139 00ae 3E00     		.short	62
 3140 00b0 CCFF     		.short	-52
 3141 00b2 F4FF     		.short	-12
 3142 00b4 DEFF     		.short	-34
 3143 00b6 E2FF     		.short	-30
 3144 00b8 7800     		.short	120
 3145 00ba 2900     		.short	41
 3146 00bc DDFE     		.short	-291
 3147 00be 0000     		.short	0
 3148 00c0 4102     		.short	577
 3149 00c2 5CFF     		.short	-164
 3150 00c4 09FC     		.short	-1015
 3151 00c6 4902     		.short	585
 3152 00c8 A106     		.short	1697
 3153 00ca AEF9     		.short	-1618
 3154 00cc F4F3     		.short	-3084
 3155 00ce 9E15     		.short	5534
 3156 00d0 D13F     		.short	16337
 3157 00d2 4638     		.short	14406
 3158 00d4 F009     		.short	2544
 3159 00d6 3AF2     		.short	-3526
 3160 00d8 F5FD     		.short	-523
 3161 00da 0807     		.short	1800
 3162 00dc 0000     		.short	0
 3163 00de 27FC     		.short	-985
 3164 00e0 9800     		.short	152
 3165 00e2 FD01     		.short	509
 3166 00e4 64FF     		.short	-156
 3167 00e6 1AFF     		.short	-230
 3168 00e8 6800     		.short	104
 3169 00ea 5300     		.short	83
 3170 00ec D0FF     		.short	-48
 3171 00ee EDFF     		.short	-19
 3172 00f0 E6FF     		.short	-26
 3173 00f2 D7FF     		.short	-41
 3174 00f4 6700     		.short	103
 3175 00f6 4C00     		.short	76
 3176 00f8 F7FE     		.short	-265
 3177 00fa ADFF     		.short	-83
 3178 00fc 2A02     		.short	554
 3179 00fe 0000     		.short	0
 3180 0100 01FC     		.short	-1023
ARM GAS  C:\Users\rdn\AppData\Local\Temp\ccIOjLNc.s 			page 84


 3181 0102 2001     		.short	288
 3182 0104 FF06     		.short	1791
 3183 0106 D2FB     		.short	-1070
 3184 0108 BFF2     		.short	-3393
 3185 010a 9E0F     		.short	3998
 3186 010c 723C     		.short	15474
 3187 010e 723C     		.short	15474
 3188 0110 9E0F     		.short	3998
 3189 0112 BFF2     		.short	-3393
 3190 0114 D2FB     		.short	-1070
 3191 0116 FF06     		.short	1791
 3192 0118 2001     		.short	288
 3193 011a 01FC     		.short	-1023
 3194 011c 0000     		.short	0
 3195 011e 2A02     		.short	554
 3196 0120 ADFF     		.short	-83
 3197 0122 F7FE     		.short	-265
 3198 0124 4C00     		.short	76
 3199 0126 6700     		.short	103
 3200 0128 D7FF     		.short	-41
 3201 012a E6FF     		.short	-26
 3202 012c EDFF     		.short	-19
 3203 012e D0FF     		.short	-48
 3204 0130 5300     		.short	83
 3205 0132 6800     		.short	104
 3206 0134 1AFF     		.short	-230
 3207 0136 64FF     		.short	-156
 3208 0138 FD01     		.short	509
 3209 013a 9800     		.short	152
 3210 013c 27FC     		.short	-985
 3211 013e 0000     		.short	0
 3212 0140 0807     		.short	1800
 3213 0142 F5FD     		.short	-523
 3214 0144 3AF2     		.short	-3526
 3215 0146 F009     		.short	2544
 3216 0148 4638     		.short	14406
 3217 014a D13F     		.short	16337
 3218 014c 9E15     		.short	5534
 3219 014e F4F3     		.short	-3084
 3220 0150 AEF9     		.short	-1618
 3221 0152 A106     		.short	1697
 3222 0154 4902     		.short	585
 3223 0156 09FC     		.short	-1015
 3224 0158 5CFF     		.short	-164
 3225 015a 4102     		.short	577
 3226 015c 0000     		.short	0
 3227 015e DDFE     		.short	-291
 3228 0160 2900     		.short	41
 3229 0162 7800     		.short	120
 3230 0164 E2FF     		.short	-30
 3231 0166 DEFF     		.short	-34
 3232 0168 F4FF     		.short	-12
 3233 016a CCFF     		.short	-52
 3234 016c 3E00     		.short	62
 3235 016e 7D00     		.short	125
 3236 0170 44FF     		.short	-188
 3237 0172 29FF     		.short	-215
ARM GAS  C:\Users\rdn\AppData\Local\Temp\ccIOjLNc.s 			page 85


 3238 0174 BD01     		.short	445
 3239 0176 1F01     		.short	287
 3240 0178 74FC     		.short	-908
 3241 017a F5FE     		.short	-267
 3242 017c C306     		.short	1731
 3243 017e 0000     		.short	0
 3244 0180 59F2     		.short	-3495
 3245 0182 B204     		.short	1202
 3246 0184 6933     		.short	13161
 3247 0186 4B42     		.short	16971
 3248 0188 CE1B     		.short	7118
 3249 018a E2F5     		.short	-2590
 3250 018c A1F7     		.short	-2143
 3251 018e EC05     		.short	1516
 3252 0190 6E03     		.short	878
 3253 0192 41FC     		.short	-959
 3254 0194 B2FE     		.short	-334
 3255 0196 3E02     		.short	574
 3256 0198 5B00     		.short	91
 3257 019a D0FE     		.short	-304
 3258 019c 0000     		.short	0
 3259 019e 8500     		.short	133
 3260 01a0 EFFF     		.short	-17
 3261 01a2 D7FF     		.short	-41
 3262 01a4 FBFF     		.short	-5
 3263 01a6 CCFF     		.short	-52
 3264 01a8 2800     		.short	40
 3265 01aa 8A00     		.short	138
 3266 01ac 72FF     		.short	-142
 3267 01ae FBFE     		.short	-261
 3268 01b0 6F01     		.short	367
 3269 01b2 8F01     		.short	399
 3270 01b4 E4FC     		.short	-796
 3271 01b6 08FE     		.short	-504
 3272 01b8 3906     		.short	1593
 3273 01ba E001     		.short	480
 3274 01bc 09F3     		.short	-3319
 3275 01be 0000     		.short	0
 3276 01c0 FC2D     		.short	11772
 3277 01c2 CE43     		.short	17358
 3278 01c4 0822     		.short	8712
 3279 01c6 8CF8     		.short	-1908
 3280 01c8 C5F5     		.short	-2619
 3281 01ca E104     		.short	1249
 3282 01cc 8104     		.short	1153
 3283 01ce AAFC     		.short	-854
 3284 01d0 0BFE     		.short	-501
 3285 01d2 1F02     		.short	543
 3286 01d4 B900     		.short	185
 3287 01d6 CFFE     		.short	-305
 3288 01d8 D3FF     		.short	-45
 3289 01da 8D00     		.short	141
 3290 01dc 0000     		.short	0
 3291 01de D2FF     		.short	-46
 3292              		.type	h_48k_12k8_q15, %object
 3293              		.size	h_48k_12k8_q15, 480
 3294              	h_48k_12k8_q15:
ARM GAS  C:\Users\rdn\AppData\Local\Temp\ccIOjLNc.s 			page 86


 3295 01e0 F3FF     		.short	-13
 3296 01e2 E7FF     		.short	-25
 3297 01e4 ECFF     		.short	-20
 3298 01e6 0A00     		.short	10
 3299 01e8 3300     		.short	51
 3300 01ea 4700     		.short	71
 3301 01ec 2600     		.short	38
 3302 01ee D1FF     		.short	-47
 3303 01f0 7BFF     		.short	-133
 3304 01f2 6FFF     		.short	-145
 3305 01f4 D6FF     		.short	-42
 3306 01f6 8B00     		.short	139
 3307 01f8 1501     		.short	277
 3308 01fa F200     		.short	242
 3309 01fc 0000     		.short	0
 3310 01fe B7FE     		.short	-329
 3311 0200 01FE     		.short	-511
 3312 0202 A1FE     		.short	-351
 3313 0204 9000     		.short	144
 3314 0206 BA02     		.short	698
 3315 0208 7F03     		.short	895
 3316 020a C201     		.short	450
 3317 020c E9FD     		.short	-535
 3318 020e 1AFA     		.short	-1510
 3319 0210 5FF9     		.short	-1697
 3320 0212 F7FD     		.short	-521
 3321 0214 CF07     		.short	1999
 3322 0216 1214     		.short	5138
 3323 0218 391E     		.short	7737
 3324 021a 2822     		.short	8744
 3325 021c 391E     		.short	7737
 3326 021e 1214     		.short	5138
 3327 0220 CF07     		.short	1999
 3328 0222 F7FD     		.short	-521
 3329 0224 5FF9     		.short	-1697
 3330 0226 1AFA     		.short	-1510
 3331 0228 E9FD     		.short	-535
 3332 022a C201     		.short	450
 3333 022c 7F03     		.short	895
 3334 022e BA02     		.short	698
 3335 0230 9000     		.short	144
 3336 0232 A1FE     		.short	-351
 3337 0234 01FE     		.short	-511
 3338 0236 B7FE     		.short	-329
 3339 0238 0000     		.short	0
 3340 023a F200     		.short	242
 3341 023c 1501     		.short	277
 3342 023e 8B00     		.short	139
 3343 0240 D6FF     		.short	-42
 3344 0242 6FFF     		.short	-145
 3345 0244 7BFF     		.short	-133
 3346 0246 D1FF     		.short	-47
 3347 0248 2600     		.short	38
 3348 024a 4700     		.short	71
 3349 024c 3300     		.short	51
 3350 024e 0A00     		.short	10
 3351 0250 ECFF     		.short	-20
ARM GAS  C:\Users\rdn\AppData\Local\Temp\ccIOjLNc.s 			page 87


 3352 0252 E7FF     		.short	-25
 3353 0254 F3FF     		.short	-13
 3354 0256 0000     		.short	0
 3355 0258 F7FF     		.short	-9
 3356 025a E9FF     		.short	-23
 3357 025c E8FF     		.short	-24
 3358 025e 0000     		.short	0
 3359 0260 2900     		.short	41
 3360 0262 4700     		.short	71
 3361 0264 3400     		.short	52
 3362 0266 E9FF     		.short	-23
 3363 0268 8DFF     		.short	-115
 3364 026a 68FF     		.short	-152
 3365 026c B2FF     		.short	-78
 3366 026e 5C00     		.short	92
 3367 0270 FE00     		.short	254
 3368 0272 1001     		.short	272
 3369 0274 4C00     		.short	76
 3370 0276 05FF     		.short	-251
 3371 0278 13FE     		.short	-493
 3372 027a 55FE     		.short	-427
 3373 027c 0000     		.short	0
 3374 027e 4002     		.short	576
 3375 0280 8403     		.short	900
 3376 0282 7002     		.short	624
 3377 0284 FAFE     		.short	-262
 3378 0286 E3FA     		.short	-1309
 3379 0288 1DF9     		.short	-1763
 3380 028a 46FC     		.short	-954
 3381 028c F804     		.short	1272
 3382 028e 0411     		.short	4356
 3383 0290 231C     		.short	7203
 3384 0292 E721     		.short	8679
 3385 0294 E91F     		.short	8169
 3386 0296 FE16     		.short	5886
 3387 0298 CF0A     		.short	2767
 3388 029a 0000     		.short	0
 3389 029c FAF9     		.short	-1542
 3390 029e 84F9     		.short	-1660
 3391 02a0 D7FC     		.short	-809
 3392 02a2 F000     		.short	240
 3393 02a4 5003     		.short	848
 3394 02a6 1C03     		.short	796
 3395 02a8 2401     		.short	292
 3396 02aa 04FF     		.short	-252
 3397 02ac 05FE     		.short	-507
 3398 02ae 72FE     		.short	-398
 3399 02b0 AEFF     		.short	-82
 3400 02b2 C700     		.short	199
 3401 02b4 2001     		.short	288
 3402 02b6 B700     		.short	183
 3403 02b8 0000     		.short	0
 3404 02ba 7EFF     		.short	-130
 3405 02bc 6FFF     		.short	-145
 3406 02be B9FF     		.short	-71
 3407 02c0 1400     		.short	20
 3408 02c2 4500     		.short	69
ARM GAS  C:\Users\rdn\AppData\Local\Temp\ccIOjLNc.s 			page 88


 3409 02c4 3C00     		.short	60
 3410 02c6 1400     		.short	20
 3411 02c8 F1FF     		.short	-15
 3412 02ca E6FF     		.short	-26
 3413 02cc EFFF     		.short	-17
 3414 02ce FDFF     		.short	-3
 3415 02d0 FAFF     		.short	-6
 3416 02d2 ECFF     		.short	-20
 3417 02d4 E6FF     		.short	-26
 3418 02d6 F8FF     		.short	-8
 3419 02d8 1F00     		.short	31
 3420 02da 4300     		.short	67
 3421 02dc 3E00     		.short	62
 3422 02de 0000     		.short	0
 3423 02e0 A2FF     		.short	-94
 3424 02e2 68FF     		.short	-152
 3425 02e4 94FF     		.short	-108
 3426 02e6 2D00     		.short	45
 3427 02e8 DF00     		.short	223
 3428 02ea 1F01     		.short	287
 3429 02ec 8F00     		.short	143
 3430 02ee 59FF     		.short	-167
 3431 02f0 3AFE     		.short	-454
 3432 02f2 20FE     		.short	-480
 3433 02f4 7AFF     		.short	-134
 3434 02f6 B701     		.short	439
 3435 02f8 6203     		.short	866
 3436 02fa F602     		.short	758
 3437 02fc 0000     		.short	0
 3438 02fe D1FB     		.short	-1071
 3439 0300 2CF9     		.short	-1748
 3440 0302 F1FA     		.short	-1295
 3441 0304 5902     		.short	601
 3442 0306 E70D     		.short	3559
 3443 0308 B419     		.short	6580
 3444 030a 2521     		.short	8485
 3445 030c 2521     		.short	8485
 3446 030e B419     		.short	6580
 3447 0310 E70D     		.short	3559
 3448 0312 5902     		.short	601
 3449 0314 F1FA     		.short	-1295
 3450 0316 2CF9     		.short	-1748
 3451 0318 D1FB     		.short	-1071
 3452 031a 0000     		.short	0
 3453 031c F602     		.short	758
 3454 031e 6203     		.short	866
 3455 0320 B701     		.short	439
 3456 0322 7AFF     		.short	-134
 3457 0324 20FE     		.short	-480
 3458 0326 3AFE     		.short	-454
 3459 0328 59FF     		.short	-167
 3460 032a 8F00     		.short	143
 3461 032c 1F01     		.short	287
 3462 032e DF00     		.short	223
 3463 0330 2D00     		.short	45
 3464 0332 94FF     		.short	-108
 3465 0334 68FF     		.short	-152
ARM GAS  C:\Users\rdn\AppData\Local\Temp\ccIOjLNc.s 			page 89


 3466 0336 A2FF     		.short	-94
 3467 0338 0000     		.short	0
 3468 033a 3E00     		.short	62
 3469 033c 4300     		.short	67
 3470 033e 1F00     		.short	31
 3471 0340 F8FF     		.short	-8
 3472 0342 E6FF     		.short	-26
 3473 0344 ECFF     		.short	-20
 3474 0346 FAFF     		.short	-6
 3475 0348 FDFF     		.short	-3
 3476 034a EFFF     		.short	-17
 3477 034c E6FF     		.short	-26
 3478 034e F1FF     		.short	-15
 3479 0350 1400     		.short	20
 3480 0352 3C00     		.short	60
 3481 0354 4500     		.short	69
 3482 0356 1400     		.short	20
 3483 0358 B9FF     		.short	-71
 3484 035a 6FFF     		.short	-145
 3485 035c 7EFF     		.short	-130
 3486 035e 0000     		.short	0
 3487 0360 B700     		.short	183
 3488 0362 2001     		.short	288
 3489 0364 C700     		.short	199
 3490 0366 AEFF     		.short	-82
 3491 0368 72FE     		.short	-398
 3492 036a 05FE     		.short	-507
 3493 036c 04FF     		.short	-252
 3494 036e 2401     		.short	292
 3495 0370 1C03     		.short	796
 3496 0372 5003     		.short	848
 3497 0374 F000     		.short	240
 3498 0376 D7FC     		.short	-809
 3499 0378 84F9     		.short	-1660
 3500 037a FAF9     		.short	-1542
 3501 037c 0000     		.short	0
 3502 037e CF0A     		.short	2767
 3503 0380 FE16     		.short	5886
 3504 0382 E91F     		.short	8169
 3505 0384 E721     		.short	8679
 3506 0386 231C     		.short	7203
 3507 0388 0411     		.short	4356
 3508 038a F804     		.short	1272
 3509 038c 46FC     		.short	-954
 3510 038e 1DF9     		.short	-1763
 3511 0390 E3FA     		.short	-1309
 3512 0392 FAFE     		.short	-262
 3513 0394 7002     		.short	624
 3514 0396 8403     		.short	900
 3515 0398 4002     		.short	576
 3516 039a 0000     		.short	0
 3517 039c 55FE     		.short	-427
 3518 039e 13FE     		.short	-493
 3519 03a0 05FF     		.short	-251
 3520 03a2 4C00     		.short	76
 3521 03a4 1001     		.short	272
 3522 03a6 FE00     		.short	254
ARM GAS  C:\Users\rdn\AppData\Local\Temp\ccIOjLNc.s 			page 90


 3523 03a8 5C00     		.short	92
 3524 03aa B2FF     		.short	-78
 3525 03ac 68FF     		.short	-152
 3526 03ae 8DFF     		.short	-115
 3527 03b0 E9FF     		.short	-23
 3528 03b2 3400     		.short	52
 3529 03b4 4700     		.short	71
 3530 03b6 2900     		.short	41
 3531 03b8 0000     		.short	0
 3532 03ba E8FF     		.short	-24
 3533 03bc E9FF     		.short	-23
 3534 03be F7FF     		.short	-9
 3535              		.type	h_96k_12k8_q15, %object
 3536              		.size	h_96k_12k8_q15, 480
 3537              	h_96k_12k8_q15:
 3538 03c0 FDFF     		.short	-3
 3539 03c2 F9FF     		.short	-7
 3540 03c4 F6FF     		.short	-10
 3541 03c6 F3FF     		.short	-13
 3542 03c8 F3FF     		.short	-13
 3543 03ca F6FF     		.short	-10
 3544 03cc FCFF     		.short	-4
 3545 03ce 0500     		.short	5
 3546 03d0 0F00     		.short	15
 3547 03d2 1A00     		.short	26
 3548 03d4 2100     		.short	33
 3549 03d6 2400     		.short	36
 3550 03d8 1F00     		.short	31
 3551 03da 1300     		.short	19
 3552 03dc 0000     		.short	0
 3553 03de E9FF     		.short	-23
 3554 03e0 D1FF     		.short	-47
 3555 03e2 BEFF     		.short	-66
 3556 03e4 B4FF     		.short	-76
 3557 03e6 B7FF     		.short	-73
 3558 03e8 CAFF     		.short	-54
 3559 03ea EBFF     		.short	-21
 3560 03ec 1700     		.short	23
 3561 03ee 4600     		.short	70
 3562 03f0 6F00     		.short	111
 3563 03f2 8B00     		.short	139
 3564 03f4 8F00     		.short	143
 3565 03f6 7900     		.short	121
 3566 03f8 4800     		.short	72
 3567 03fa 0000     		.short	0
 3568 03fc ACFF     		.short	-84
 3569 03fe 5BFF     		.short	-165
 3570 0400 1DFF     		.short	-227
 3571 0402 00FF     		.short	-256
 3572 0404 10FF     		.short	-240
 3573 0406 51FF     		.short	-175
 3574 0408 BDFF     		.short	-67
 3575 040a 4800     		.short	72
 3576 040c DB00     		.short	219
 3577 040e 5D01     		.short	349
 3578 0410 B101     		.short	433
 3579 0412 C001     		.short	448
ARM GAS  C:\Users\rdn\AppData\Local\Temp\ccIOjLNc.s 			page 91


 3580 0414 7B01     		.short	379
 3581 0416 E100     		.short	225
 3582 0418 0000     		.short	0
 3583 041a F4FE     		.short	-268
 3584 041c E8FD     		.short	-536
 3585 041e 0DFD     		.short	-755
 3586 0420 96FC     		.short	-874
 3587 0422 B0FC     		.short	-848
 3588 0424 78FD     		.short	-648
 3589 0426 FCFE     		.short	-260
 3590 0428 2D01     		.short	301
 3591 042a E803     		.short	1000
 3592 042c F406     		.short	1780
 3593 042e 090A     		.short	2569
 3594 0430 DA0C     		.short	3290
 3595 0432 1D0F     		.short	3869
 3596 0434 9310     		.short	4243
 3597 0436 1411     		.short	4372
 3598 0438 9310     		.short	4243
 3599 043a 1D0F     		.short	3869
 3600 043c DA0C     		.short	3290
 3601 043e 090A     		.short	2569
 3602 0440 F406     		.short	1780
 3603 0442 E803     		.short	1000
 3604 0444 2D01     		.short	301
 3605 0446 FCFE     		.short	-260
 3606 0448 78FD     		.short	-648
 3607 044a B0FC     		.short	-848
 3608 044c 96FC     		.short	-874
 3609 044e 0DFD     		.short	-755
 3610 0450 E8FD     		.short	-536
 3611 0452 F4FE     		.short	-268
 3612 0454 0000     		.short	0
 3613 0456 E100     		.short	225
 3614 0458 7B01     		.short	379
 3615 045a C001     		.short	448
 3616 045c B101     		.short	433
 3617 045e 5D01     		.short	349
 3618 0460 DB00     		.short	219
 3619 0462 4800     		.short	72
 3620 0464 BDFF     		.short	-67
 3621 0466 51FF     		.short	-175
 3622 0468 10FF     		.short	-240
 3623 046a 00FF     		.short	-256
 3624 046c 1DFF     		.short	-227
 3625 046e 5BFF     		.short	-165
 3626 0470 ACFF     		.short	-84
 3627 0472 0000     		.short	0
 3628 0474 4800     		.short	72
 3629 0476 7900     		.short	121
 3630 0478 8F00     		.short	143
 3631 047a 8B00     		.short	139
 3632 047c 6F00     		.short	111
 3633 047e 4600     		.short	70
 3634 0480 1700     		.short	23
 3635 0482 EBFF     		.short	-21
 3636 0484 CAFF     		.short	-54
ARM GAS  C:\Users\rdn\AppData\Local\Temp\ccIOjLNc.s 			page 92


 3637 0486 B7FF     		.short	-73
 3638 0488 B4FF     		.short	-76
 3639 048a BEFF     		.short	-66
 3640 048c D1FF     		.short	-47
 3641 048e E9FF     		.short	-23
 3642 0490 0000     		.short	0
 3643 0492 1300     		.short	19
 3644 0494 1F00     		.short	31
 3645 0496 2400     		.short	36
 3646 0498 2100     		.short	33
 3647 049a 1A00     		.short	26
 3648 049c 0F00     		.short	15
 3649 049e 0500     		.short	5
 3650 04a0 FCFF     		.short	-4
 3651 04a2 F6FF     		.short	-10
 3652 04a4 F3FF     		.short	-13
 3653 04a6 F3FF     		.short	-13
 3654 04a8 F6FF     		.short	-10
 3655 04aa F9FF     		.short	-7
 3656 04ac FDFF     		.short	-3
 3657 04ae 0000     		.short	0
 3658 04b0 FFFF     		.short	-1
 3659 04b2 FBFF     		.short	-5
 3660 04b4 F8FF     		.short	-8
 3661 04b6 F4FF     		.short	-12
 3662 04b8 F3FF     		.short	-13
 3663 04ba F4FF     		.short	-12
 3664 04bc F8FF     		.short	-8
 3665 04be 0000     		.short	0
 3666 04c0 0A00     		.short	10
 3667 04c2 1500     		.short	21
 3668 04c4 1E00     		.short	30
 3669 04c6 2300     		.short	35
 3670 04c8 2200     		.short	34
 3671 04ca 1A00     		.short	26
 3672 04cc 0A00     		.short	10
 3673 04ce F5FF     		.short	-11
 3674 04d0 DDFF     		.short	-35
 3675 04d2 C6FF     		.short	-58
 3676 04d4 B7FF     		.short	-73
 3677 04d6 B4FF     		.short	-76
 3678 04d8 BFFF     		.short	-65
 3679 04da D9FF     		.short	-39
 3680 04dc 0000     		.short	0
 3681 04de 2E00     		.short	46
 3682 04e0 5C00     		.short	92
 3683 04e2 7F00     		.short	127
 3684 04e4 9000     		.short	144
 3685 04e6 8800     		.short	136
 3686 04e8 6400     		.short	100
 3687 04ea 2600     		.short	38
 3688 04ec D7FF     		.short	-41
 3689 04ee 83FF     		.short	-125
 3690 04f0 39FF     		.short	-199
 3691 04f2 0AFF     		.short	-246
 3692 04f4 02FF     		.short	-254
 3693 04f6 2AFF     		.short	-214
ARM GAS  C:\Users\rdn\AppData\Local\Temp\ccIOjLNc.s 			page 93


 3694 04f8 82FF     		.short	-126
 3695 04fa 0000     		.short	0
 3696 04fc 9200     		.short	146
 3697 04fe 2001     		.short	288
 3698 0500 8E01     		.short	398
 3699 0502 C201     		.short	450
 3700 0504 A801     		.short	424
 3701 0506 3801     		.short	312
 3702 0508 7800     		.short	120
 3703 050a 7DFF     		.short	-131
 3704 050c 6BFE     		.short	-405
 3705 050e 71FD     		.short	-655
 3706 0510 C2FC     		.short	-830
 3707 0512 8FFC     		.short	-881
 3708 0514 FDFC     		.short	-771
 3709 0516 23FE     		.short	-477
 3710 0518 0000     		.short	0
 3711 051a 7C02     		.short	636
 3712 051c 6805     		.short	1384
 3713 051e 8208     		.short	2178
 3714 0520 7F0B     		.short	2943
 3715 0522 110E     		.short	3601
 3716 0524 F40F     		.short	4084
 3717 0526 F410     		.short	4340
 3718 0528 F410     		.short	4340
 3719 052a F40F     		.short	4084
 3720 052c 110E     		.short	3601
 3721 052e 7F0B     		.short	2943
 3722 0530 8208     		.short	2178
 3723 0532 6805     		.short	1384
 3724 0534 7C02     		.short	636
 3725 0536 0000     		.short	0
 3726 0538 23FE     		.short	-477
 3727 053a FDFC     		.short	-771
 3728 053c 8FFC     		.short	-881
 3729 053e C2FC     		.short	-830
 3730 0540 71FD     		.short	-655
 3731 0542 6BFE     		.short	-405
 3732 0544 7DFF     		.short	-131
 3733 0546 7800     		.short	120
 3734 0548 3801     		.short	312
 3735 054a A801     		.short	424
 3736 054c C201     		.short	450
 3737 054e 8E01     		.short	398
 3738 0550 2001     		.short	288
 3739 0552 9200     		.short	146
 3740 0554 0000     		.short	0
 3741 0556 82FF     		.short	-126
 3742 0558 2AFF     		.short	-214
 3743 055a 02FF     		.short	-254
 3744 055c 0AFF     		.short	-246
 3745 055e 39FF     		.short	-199
 3746 0560 83FF     		.short	-125
 3747 0562 D7FF     		.short	-41
 3748 0564 2600     		.short	38
 3749 0566 6400     		.short	100
 3750 0568 8800     		.short	136
ARM GAS  C:\Users\rdn\AppData\Local\Temp\ccIOjLNc.s 			page 94


 3751 056a 9000     		.short	144
 3752 056c 7F00     		.short	127
 3753 056e 5C00     		.short	92
 3754 0570 2E00     		.short	46
 3755 0572 0000     		.short	0
 3756 0574 D9FF     		.short	-39
 3757 0576 BFFF     		.short	-65
 3758 0578 B4FF     		.short	-76
 3759 057a B7FF     		.short	-73
 3760 057c C6FF     		.short	-58
 3761 057e DDFF     		.short	-35
 3762 0580 F5FF     		.short	-11
 3763 0582 0A00     		.short	10
 3764 0584 1A00     		.short	26
 3765 0586 2200     		.short	34
 3766 0588 2300     		.short	35
 3767 058a 1E00     		.short	30
 3768 058c 1500     		.short	21
 3769 058e 0A00     		.short	10
 3770 0590 0000     		.short	0
 3771 0592 F8FF     		.short	-8
 3772 0594 F4FF     		.short	-12
 3773 0596 F3FF     		.short	-13
 3774 0598 F4FF     		.short	-12
 3775 059a F8FF     		.short	-8
 3776 059c FBFF     		.short	-5
 3777 059e FFFF     		.short	-1
 3778              		.type	h4_q15.5684, %object
 3779              		.size	h4_q15.5684, 32
 3780              	h4_q15.5684:
 3781 05a0 DD1A     		.short	6877
 3782 05a2 B14A     		.short	19121
 3783 05a4 DD1A     		.short	6877
 3784 05a6 0000     		.short	0
 3785 05a8 B20D     		.short	3506
 3786 05aa 6946     		.short	18025
 3787 05ac F82A     		.short	11000
 3788 05ae DC00     		.short	220
 3789 05b0 1405     		.short	1300
 3790 05b2 C83A     		.short	15048
 3791 05b4 C83A     		.short	15048
 3792 05b6 1405     		.short	1300
 3793 05b8 DC00     		.short	220
 3794 05ba F82A     		.short	11000
 3795 05bc 6946     		.short	18025
 3796 05be B20D     		.short	3506
 3797              		.type	h4.5699, %object
 3798              		.size	h4.5699, 128
 3799              	h4.5699:
 3800 05c0 179D7B3C 		.word	1014734103
 3801 05c4 CAB941BD 		.word	-1119766070
 3802 05c8 642BAB3D 		.word	1034627940
 3803 05cc 290D663F 		.word	1063652649
 3804 05d0 642BAB3D 		.word	1034627940
 3805 05d4 CAB941BD 		.word	-1119766070
 3806 05d8 179D7B3C 		.word	1014734103
 3807 05dc 00000000 		.space	4
ARM GAS  C:\Users\rdn\AppData\Local\Temp\ccIOjLNc.s 			page 95


 3808 05e0 5FED333B 		.word	993258847
 3809 05e4 A0AD963B 		.word	999730592
 3810 05e8 88809ABD 		.word	-1113948024
 3811 05ec F046513F 		.word	1062291184
 3812 05f0 B10DA93E 		.word	1051266481
 3813 05f4 80C0D8BD 		.word	-1109868416
 3814 05f8 3AF7EA3C 		.word	1022031674
 3815 05fc 22633CBB 		.word	-1153670366
 3816 0600 A3B044BB 		.word	-1153126237
 3817 0604 0FB2F13C 		.word	1022472719
 3818 0608 AE6E05BE 		.word	-1106940242
 3819 060c AC711A3F 		.word	1058697644
 3820 0610 AC711A3F 		.word	1058697644
 3821 0614 AE6E05BE 		.word	-1106940242
 3822 0618 0FB2F13C 		.word	1022472719
 3823 061c A3B044BB 		.word	-1153126237
 3824 0620 22633CBB 		.word	-1153670366
 3825 0624 3AF7EA3C 		.word	1022031674
 3826 0628 80C0D8BD 		.word	-1109868416
 3827 062c B10DA93E 		.word	1051266481
 3828 0630 F046513F 		.word	1062291184
 3829 0634 88809ABD 		.word	-1113948024
 3830 0638 A0AD963B 		.word	999730592
 3831 063c 5FED333B 		.word	993258847
 3832              		.type	h_8k_12k8_q15, %object
 3833              		.size	h_8k_12k8_q15, 160
 3834              	h_8k_12k8_q15:
 3835 0640 D600     		.short	214
 3836 0642 A101     		.short	417
 3837 0644 E4FB     		.short	-1052
 3838 0646 4FEE     		.short	-4529
 3839 0648 7966     		.short	26233
 3840 064a 4FEE     		.short	-4529
 3841 064c E4FB     		.short	-1052
 3842 064e A101     		.short	417
 3843 0650 D600     		.short	214
 3844 0652 0000     		.short	0
 3845 0654 B400     		.short	180
 3846 0656 0000     		.short	0
 3847 0658 0EFA     		.short	-1522
 3848 065a 85F6     		.short	-2427
 3849 065c BA5F     		.short	24506
 3850 065e 57EB     		.short	-5289
 3851 0660 0000     		.short	0
 3852 0662 FB02     		.short	763
 3853 0664 9C00     		.short	156
 3854 0666 E4FF     		.short	-28
 3855 0668 5C00     		.short	92
 3856 066a BDFE     		.short	-323
 3857 066c AFFA     		.short	-1361
 3858 066e 0000     		.short	0
