ARM GAS  C:\Users\rdn\AppData\Local\Temp\ccIOjLNc.s 			page 1


   1              		.syntax unified
   2              		.cpu cortex-m4
   3              		.eabi_attribute 27, 1
   4              		.fpu fpv4-sp-d16
   5              		.eabi_attribute 20, 1
   6              		.eabi_attribute 21, 1
   7              		.eabi_attribute 23, 3
   8              		.eabi_attribute 24, 1
   9              		.eabi_attribute 25, 1
  10              		.eabi_attribute 26, 1
  11              		.eabi_attribute 30, 4
  12              		.eabi_attribute 34, 1
  13              		.eabi_attribute 18, 4
  14              		.thumb
  15              		.syntax unified
  16              		.file	"ltpf.c"
  17              		.text
  18              	.Ltext0:
  19              		.cfi_sections	.debug_frame
  20              		.section	.text.resample_x192k_12k8,"ax",%progbits
  21              		.align	1
  22              		.thumb
  23              		.thumb_func
  24              		.type	resample_x192k_12k8, %function
  25              	resample_x192k_12k8:
  26              	.LFB22:
  27              		.file 1 "..\\..\\..\\liblc3\\src\\ltpf.c"
   1:..\..\..\liblc3\src/ltpf.c **** /******************************************************************************
   2:..\..\..\liblc3\src/ltpf.c ****  *
   3:..\..\..\liblc3\src/ltpf.c ****  *  Copyright 2022 Google LLC
   4:..\..\..\liblc3\src/ltpf.c ****  *
   5:..\..\..\liblc3\src/ltpf.c ****  *  Licensed under the Apache License, Version 2.0 (the "License");
   6:..\..\..\liblc3\src/ltpf.c ****  *  you may not use this file except in compliance with the License.
   7:..\..\..\liblc3\src/ltpf.c ****  *  You may obtain a copy of the License at:
   8:..\..\..\liblc3\src/ltpf.c ****  *
   9:..\..\..\liblc3\src/ltpf.c ****  *  http://www.apache.org/licenses/LICENSE-2.0
  10:..\..\..\liblc3\src/ltpf.c ****  *
  11:..\..\..\liblc3\src/ltpf.c ****  *  Unless required by applicable law or agreed to in writing, software
  12:..\..\..\liblc3\src/ltpf.c ****  *  distributed under the License is distributed on an "AS IS" BASIS,
  13:..\..\..\liblc3\src/ltpf.c ****  *  WITHOUT WARRANTIES OR CONDITIONS OF ANY KIND, either express or implied.
  14:..\..\..\liblc3\src/ltpf.c ****  *  See the License for the specific language governing permissions and
  15:..\..\..\liblc3\src/ltpf.c ****  *  limitations under the License.
  16:..\..\..\liblc3\src/ltpf.c ****  *
  17:..\..\..\liblc3\src/ltpf.c ****  ******************************************************************************/
  18:..\..\..\liblc3\src/ltpf.c **** 
  19:..\..\..\liblc3\src/ltpf.c **** #include "ltpf.h"
  20:..\..\..\liblc3\src/ltpf.c **** #include "tables.h"
  21:..\..\..\liblc3\src/ltpf.c **** 
  22:..\..\..\liblc3\src/ltpf.c **** #include "ltpf_neon.h"
  23:..\..\..\liblc3\src/ltpf.c **** #include "ltpf_arm.h"
  24:..\..\..\liblc3\src/ltpf.c **** 
  25:..\..\..\liblc3\src/ltpf.c **** 
  26:..\..\..\liblc3\src/ltpf.c **** /* ----------------------------------------------------------------------------
  27:..\..\..\liblc3\src/ltpf.c ****  *  Resampling
  28:..\..\..\liblc3\src/ltpf.c ****  * -------------------------------------------------------------------------- */
  29:..\..\..\liblc3\src/ltpf.c **** 
  30:..\..\..\liblc3\src/ltpf.c **** /**
ARM GAS  C:\Users\rdn\AppData\Local\Temp\ccIOjLNc.s 			page 2


  31:..\..\..\liblc3\src/ltpf.c ****  * Resampling coefficients
  32:..\..\..\liblc3\src/ltpf.c ****  * The coefficients, in fixed Q15, are reordered by phase for each source
  33:..\..\..\liblc3\src/ltpf.c ****  * samplerate (coefficient matrix transposed)
  34:..\..\..\liblc3\src/ltpf.c ****  */
  35:..\..\..\liblc3\src/ltpf.c **** 
  36:..\..\..\liblc3\src/ltpf.c **** #ifndef resample_8k_12k8
  37:..\..\..\liblc3\src/ltpf.c **** static const int16_t h_8k_12k8_q15[8*10] = {
  38:..\..\..\liblc3\src/ltpf.c ****       214,   417, -1052, -4529, 26233, -4529, -1052,   417,   214,     0,
  39:..\..\..\liblc3\src/ltpf.c ****       180,     0, -1522, -2427, 24506, -5289,     0,   763,   156,   -28,
  40:..\..\..\liblc3\src/ltpf.c ****        92,  -323, -1361,     0, 19741, -3885,  1317,   861,     0,   -61,
  41:..\..\..\liblc3\src/ltpf.c ****         0,  -457,  -752,  1873, 13068,     0,  2389,   598,  -213,   -79,
  42:..\..\..\liblc3\src/ltpf.c ****       -61,  -398,     0,  2686,  5997,  5997,  2686,     0,  -398,   -61,
  43:..\..\..\liblc3\src/ltpf.c ****       -79,  -213,   598,  2389,     0, 13068,  1873,  -752,  -457,     0,
  44:..\..\..\liblc3\src/ltpf.c ****       -61,     0,   861,  1317, -3885, 19741,     0, -1361,  -323,    92,
  45:..\..\..\liblc3\src/ltpf.c ****       -28,   156,   763,     0, -5289, 24506, -2427, -1522,     0,   180,
  46:..\..\..\liblc3\src/ltpf.c **** };
  47:..\..\..\liblc3\src/ltpf.c **** #endif /* resample_8k_12k8 */
  48:..\..\..\liblc3\src/ltpf.c **** 
  49:..\..\..\liblc3\src/ltpf.c **** #ifndef resample_16k_12k8
  50:..\..\..\liblc3\src/ltpf.c **** static const int16_t h_16k_12k8_q15[4*20] = {
  51:..\..\..\liblc3\src/ltpf.c ****       -61,   214,  -398,   417,     0, -1052,  2686, -4529,  5997, 26233,
  52:..\..\..\liblc3\src/ltpf.c ****      5997, -4529,  2686, -1052,     0,   417,  -398,   214,   -61,     0,
  53:..\..\..\liblc3\src/ltpf.c **** 
  54:..\..\..\liblc3\src/ltpf.c ****       -79,   180,  -213,     0,   598, -1522,  2389, -2427,     0, 24506,
  55:..\..\..\liblc3\src/ltpf.c ****     13068, -5289,  1873,     0,  -752,   763,  -457,   156,     0,   -28,
  56:..\..\..\liblc3\src/ltpf.c **** 
  57:..\..\..\liblc3\src/ltpf.c ****       -61,    92,     0,  -323,   861, -1361,  1317,     0, -3885, 19741,
  58:..\..\..\liblc3\src/ltpf.c ****     19741, -3885,     0,  1317, -1361,   861,  -323,     0,    92,   -61,
  59:..\..\..\liblc3\src/ltpf.c **** 
  60:..\..\..\liblc3\src/ltpf.c ****       -28,     0,   156,  -457,   763,  -752,     0,  1873, -5289, 13068,
  61:..\..\..\liblc3\src/ltpf.c ****     24506,     0, -2427,  2389, -1522,   598,     0,  -213,   180,   -79,
  62:..\..\..\liblc3\src/ltpf.c **** };
  63:..\..\..\liblc3\src/ltpf.c **** #endif /* resample_16k_12k8 */
  64:..\..\..\liblc3\src/ltpf.c **** 
  65:..\..\..\liblc3\src/ltpf.c **** #ifndef resample_32k_12k8
  66:..\..\..\liblc3\src/ltpf.c **** static const int16_t h_32k_12k8_q15[2*40] = {
  67:..\..\..\liblc3\src/ltpf.c ****       -30,   -31,    46,   107,     0,  -199,  -162,   209,   430,     0,
  68:..\..\..\liblc3\src/ltpf.c ****      -681,  -526,   658,  1343,     0, -2264, -1943,  2999,  9871, 13116,
  69:..\..\..\liblc3\src/ltpf.c ****      9871,  2999, -1943, -2264,     0,  1343,   658,  -526,  -681,     0,
  70:..\..\..\liblc3\src/ltpf.c ****       430,   209,  -162,  -199,     0,   107,    46,   -31,   -30,     0,
  71:..\..\..\liblc3\src/ltpf.c **** 
  72:..\..\..\liblc3\src/ltpf.c ****       -14,   -39,     0,    90,    78,  -106,  -229,     0,   382,   299,
  73:..\..\..\liblc3\src/ltpf.c ****      -376,  -761,     0,  1194,   937, -1214, -2644,     0,  6534, 12253,
  74:..\..\..\liblc3\src/ltpf.c ****     12253,  6534,     0, -2644, -1214,   937,  1194,     0,  -761,  -376,
  75:..\..\..\liblc3\src/ltpf.c ****       299,   382,     0,  -229,  -106,    78,    90,     0,   -39,   -14,
  76:..\..\..\liblc3\src/ltpf.c **** };
  77:..\..\..\liblc3\src/ltpf.c **** #endif /* resample_32k_12k8 */
  78:..\..\..\liblc3\src/ltpf.c **** 
  79:..\..\..\liblc3\src/ltpf.c **** #ifndef resample_24k_12k8
  80:..\..\..\liblc3\src/ltpf.c **** static const int16_t h_24k_12k8_q15[8*30] = {
  81:..\..\..\liblc3\src/ltpf.c ****       -50,    19,   143,   -93,  -290,   278,   485,  -658,  -701,  1396,
  82:..\..\..\liblc3\src/ltpf.c ****       901, -3019, -1042, 10276, 17488, 10276, -1042, -3019,   901,  1396,
  83:..\..\..\liblc3\src/ltpf.c ****      -701,  -658,   485,   278,  -290,   -93,   143,    19,   -50,     0,
  84:..\..\..\liblc3\src/ltpf.c **** 
  85:..\..\..\liblc3\src/ltpf.c ****       -46,     0,   141,   -45,  -305,   185,   543,  -501,  -854,  1153,
  86:..\..\..\liblc3\src/ltpf.c ****      1249, -2619, -1908,  8712, 17358, 11772,     0, -3319,   480,  1593,
  87:..\..\..\liblc3\src/ltpf.c ****      -504,  -796,   399,   367,  -261,  -142,   138,    40,   -52,    -5,
ARM GAS  C:\Users\rdn\AppData\Local\Temp\ccIOjLNc.s 			page 3


  88:..\..\..\liblc3\src/ltpf.c **** 
  89:..\..\..\liblc3\src/ltpf.c ****       -41,   -17,   133,     0,  -304,    91,   574,  -334,  -959,   878,
  90:..\..\..\liblc3\src/ltpf.c ****      1516, -2143, -2590,  7118, 16971, 13161,  1202, -3495,     0,  1731,
  91:..\..\..\liblc3\src/ltpf.c ****      -267,  -908,   287,   445,  -215,  -188,   125,    62,   -52,   -12,
  92:..\..\..\liblc3\src/ltpf.c **** 
  93:..\..\..\liblc3\src/ltpf.c ****       -34,   -30,   120,    41,  -291,     0,   577,  -164, -1015,   585,
  94:..\..\..\liblc3\src/ltpf.c ****      1697, -1618, -3084,  5534, 16337, 14406,  2544, -3526,  -523,  1800,
  95:..\..\..\liblc3\src/ltpf.c ****         0,  -985,   152,   509,  -156,  -230,   104,    83,   -48,   -19,
  96:..\..\..\liblc3\src/ltpf.c **** 
  97:..\..\..\liblc3\src/ltpf.c ****       -26,   -41,   103,    76,  -265,   -83,   554,     0, -1023,   288,
  98:..\..\..\liblc3\src/ltpf.c ****      1791, -1070, -3393,  3998, 15474, 15474,  3998, -3393, -1070,  1791,
  99:..\..\..\liblc3\src/ltpf.c ****       288, -1023,     0,   554,   -83,  -265,    76,   103,   -41,   -26,
 100:..\..\..\liblc3\src/ltpf.c **** 
 101:..\..\..\liblc3\src/ltpf.c ****       -19,   -48,    83,   104,  -230,  -156,   509,   152,  -985,     0,
 102:..\..\..\liblc3\src/ltpf.c ****      1800,  -523, -3526,  2544, 14406, 16337,  5534, -3084, -1618,  1697,
 103:..\..\..\liblc3\src/ltpf.c ****       585, -1015,  -164,   577,     0,  -291,    41,   120,   -30,   -34,
 104:..\..\..\liblc3\src/ltpf.c **** 
 105:..\..\..\liblc3\src/ltpf.c ****       -12,   -52,    62,   125,  -188,  -215,   445,   287,  -908,  -267,
 106:..\..\..\liblc3\src/ltpf.c ****      1731,     0, -3495,  1202, 13161, 16971,  7118, -2590, -2143,  1516,
 107:..\..\..\liblc3\src/ltpf.c ****       878,  -959,  -334,   574,    91,  -304,     0,   133,   -17,   -41,
 108:..\..\..\liblc3\src/ltpf.c **** 
 109:..\..\..\liblc3\src/ltpf.c ****        -5,   -52,    40,   138,  -142,  -261,   367,   399,  -796,  -504,
 110:..\..\..\liblc3\src/ltpf.c ****      1593,   480, -3319,     0, 11772, 17358,  8712, -1908, -2619,  1249,
 111:..\..\..\liblc3\src/ltpf.c ****      1153,  -854,  -501,   543,   185,  -305,   -45,   141,     0,   -46,
 112:..\..\..\liblc3\src/ltpf.c **** };
 113:..\..\..\liblc3\src/ltpf.c **** #endif /* resample_24k_12k8 */
 114:..\..\..\liblc3\src/ltpf.c **** 
 115:..\..\..\liblc3\src/ltpf.c **** #ifndef resample_48k_12k8
 116:..\..\..\liblc3\src/ltpf.c **** static const int16_t h_48k_12k8_q15[4*60] = {
 117:..\..\..\liblc3\src/ltpf.c ****       -13,   -25,   -20,    10,    51,    71,    38,   -47,  -133,  -145,
 118:..\..\..\liblc3\src/ltpf.c ****       -42,   139,   277,   242,     0,  -329,  -511,  -351,   144,   698,
 119:..\..\..\liblc3\src/ltpf.c ****       895,   450,  -535, -1510, -1697,  -521,  1999,  5138,  7737,  8744,
 120:..\..\..\liblc3\src/ltpf.c ****      7737,  5138,  1999,  -521, -1697, -1510,  -535,   450,   895,   698,
 121:..\..\..\liblc3\src/ltpf.c ****       144,  -351,  -511,  -329,     0,   242,   277,   139,   -42,  -145,
 122:..\..\..\liblc3\src/ltpf.c ****      -133,   -47,    38,    71,    51,    10,   -20,   -25,   -13,     0,
 123:..\..\..\liblc3\src/ltpf.c **** 
 124:..\..\..\liblc3\src/ltpf.c ****        -9,   -23,   -24,     0,    41,    71,    52,   -23,  -115,  -152,
 125:..\..\..\liblc3\src/ltpf.c ****       -78,    92,   254,   272,    76,  -251,  -493,  -427,     0,   576,
 126:..\..\..\liblc3\src/ltpf.c ****       900,   624,  -262, -1309, -1763,  -954,  1272,  4356,  7203,  8679,
 127:..\..\..\liblc3\src/ltpf.c ****      8169,  5886,  2767,     0, -1542, -1660,  -809,   240,   848,   796,
 128:..\..\..\liblc3\src/ltpf.c ****       292,  -252,  -507,  -398,   -82,   199,   288,   183,     0,  -130,
 129:..\..\..\liblc3\src/ltpf.c ****      -145,   -71,    20,    69,    60,    20,   -15,   -26,   -17,    -3,
 130:..\..\..\liblc3\src/ltpf.c **** 
 131:..\..\..\liblc3\src/ltpf.c ****        -6,   -20,   -26,    -8,    31,    67,    62,     0,   -94,  -152,
 132:..\..\..\liblc3\src/ltpf.c ****      -108,    45,   223,   287,   143,  -167,  -454,  -480,  -134,   439,
 133:..\..\..\liblc3\src/ltpf.c ****       866,   758,     0, -1071, -1748, -1295,   601,  3559,  6580,  8485,
 134:..\..\..\liblc3\src/ltpf.c ****      8485,  6580,  3559,   601, -1295, -1748, -1071,     0,   758,   866,
 135:..\..\..\liblc3\src/ltpf.c ****       439,  -134,  -480,  -454,  -167,   143,   287,   223,    45,  -108,
 136:..\..\..\liblc3\src/ltpf.c ****      -152,   -94,     0,    62,    67,    31,    -8,   -26,   -20,    -6,
 137:..\..\..\liblc3\src/ltpf.c **** 
 138:..\..\..\liblc3\src/ltpf.c ****        -3,   -17,   -26,   -15,    20,    60,    69,    20,   -71,  -145,
 139:..\..\..\liblc3\src/ltpf.c ****      -130,     0,   183,   288,   199,   -82,  -398,  -507,  -252,   292,
 140:..\..\..\liblc3\src/ltpf.c ****       796,   848,   240,  -809, -1660, -1542,     0,  2767,  5886,  8169,
 141:..\..\..\liblc3\src/ltpf.c ****      8679,  7203,  4356,  1272,  -954, -1763, -1309,  -262,   624,   900,
 142:..\..\..\liblc3\src/ltpf.c ****       576,     0,  -427,  -493,  -251,    76,   272,   254,    92,   -78,
 143:..\..\..\liblc3\src/ltpf.c ****      -152,  -115,   -23,    52,    71,    41,     0,   -24,   -23,    -9,
 144:..\..\..\liblc3\src/ltpf.c **** };
ARM GAS  C:\Users\rdn\AppData\Local\Temp\ccIOjLNc.s 			page 4


 145:..\..\..\liblc3\src/ltpf.c **** #endif /* resample_48k_12k8 */
 146:..\..\..\liblc3\src/ltpf.c **** 
 147:..\..\..\liblc3\src/ltpf.c **** #ifndef resample_96k_12k8
 148:..\..\..\liblc3\src/ltpf.c **** static const int16_t h_96k_12k8_q15[2*120] = {
 149:..\..\..\liblc3\src/ltpf.c ****        -3,    -7,   -10,   -13,   -13,   -10,    -4,     5,    15,    26,
 150:..\..\..\liblc3\src/ltpf.c ****        33,    36,    31,    19,     0,   -23,   -47,   -66,   -76,   -73,
 151:..\..\..\liblc3\src/ltpf.c ****       -54,   -21,    23,    70,   111,   139,   143,   121,    72,     0,
 152:..\..\..\liblc3\src/ltpf.c ****       -84,  -165,  -227,  -256,  -240,  -175,   -67,    72,   219,   349,
 153:..\..\..\liblc3\src/ltpf.c ****       433,   448,   379,   225,     0,  -268,  -536,  -755,  -874,  -848,
 154:..\..\..\liblc3\src/ltpf.c ****      -648,  -260,   301,  1000,  1780,  2569,  3290,  3869,  4243,  4372,
 155:..\..\..\liblc3\src/ltpf.c ****      4243,  3869,  3290,  2569,  1780,  1000,   301,  -260,  -648,  -848,
 156:..\..\..\liblc3\src/ltpf.c ****      -874,  -755,  -536,  -268,     0,   225,   379,   448,   433,   349,
 157:..\..\..\liblc3\src/ltpf.c ****       219,    72,   -67,  -175,  -240,  -256,  -227,  -165,   -84,     0,
 158:..\..\..\liblc3\src/ltpf.c ****        72,   121,   143,   139,   111,    70,    23,   -21,   -54,   -73,
 159:..\..\..\liblc3\src/ltpf.c ****       -76,   -66,   -47,   -23,     0,    19,    31,    36,    33,    26,
 160:..\..\..\liblc3\src/ltpf.c ****        15,     5,    -4,   -10,   -13,   -13,   -10,    -7,    -3,     0,
 161:..\..\..\liblc3\src/ltpf.c **** 
 162:..\..\..\liblc3\src/ltpf.c ****        -1,    -5,    -8,   -12,   -13,   -12,    -8,     0,    10,    21,
 163:..\..\..\liblc3\src/ltpf.c ****        30,    35,    34,    26,    10,   -11,   -35,   -58,   -73,   -76,
 164:..\..\..\liblc3\src/ltpf.c ****       -65,   -39,     0,    46,    92,   127,   144,   136,   100,    38,
 165:..\..\..\liblc3\src/ltpf.c ****       -41,  -125,  -199,  -246,  -254,  -214,  -126,     0,   146,   288,
 166:..\..\..\liblc3\src/ltpf.c ****       398,   450,   424,   312,   120,  -131,  -405,  -655,  -830,  -881,
 167:..\..\..\liblc3\src/ltpf.c ****      -771,  -477,     0,   636,  1384,  2178,  2943,  3601,  4084,  4340,
 168:..\..\..\liblc3\src/ltpf.c ****      4340,  4084,  3601,  2943,  2178,  1384,   636,     0,  -477,  -771,
 169:..\..\..\liblc3\src/ltpf.c ****      -881,  -830,  -655,  -405,  -131,   120,   312,   424,   450,   398,
 170:..\..\..\liblc3\src/ltpf.c ****       288,   146,     0,  -126,  -214,  -254,  -246,  -199,  -125,   -41,
 171:..\..\..\liblc3\src/ltpf.c ****        38,   100,   136,   144,   127,    92,    46,     0,   -39,   -65,
 172:..\..\..\liblc3\src/ltpf.c ****       -76,   -73,   -58,   -35,   -11,    10,    26,    34,    35,    30,
 173:..\..\..\liblc3\src/ltpf.c ****        21,    10,     0,    -8,   -12,   -13,   -12,    -8,    -5,    -1,
 174:..\..\..\liblc3\src/ltpf.c **** };
 175:..\..\..\liblc3\src/ltpf.c **** #endif /* resample_96k_12k8 */
 176:..\..\..\liblc3\src/ltpf.c **** 
 177:..\..\..\liblc3\src/ltpf.c **** 
 178:..\..\..\liblc3\src/ltpf.c **** /**
 179:..\..\..\liblc3\src/ltpf.c ****  * High-pass 50Hz filtering, at 12.8 KHz samplerate
 180:..\..\..\liblc3\src/ltpf.c ****  * hp50            Biquad filter state
 181:..\..\..\liblc3\src/ltpf.c ****  * xn              Input sample, in fixed Q30
 182:..\..\..\liblc3\src/ltpf.c ****  * return          Filtered sample, in fixed Q30
 183:..\..\..\liblc3\src/ltpf.c ****  */
 184:..\..\..\liblc3\src/ltpf.c **** LC3_HOT static inline int32_t filter_hp50(
 185:..\..\..\liblc3\src/ltpf.c ****     struct lc3_ltpf_hp50_state *hp50, int32_t xn)
 186:..\..\..\liblc3\src/ltpf.c **** {
 187:..\..\..\liblc3\src/ltpf.c ****     int32_t yn;
 188:..\..\..\liblc3\src/ltpf.c **** 
 189:..\..\..\liblc3\src/ltpf.c ****     const int32_t a1 = -2110217691, a2 = 1037111617;
 190:..\..\..\liblc3\src/ltpf.c ****     const int32_t b1 = -2110535566, b2 = 1055267782;
 191:..\..\..\liblc3\src/ltpf.c **** 
 192:..\..\..\liblc3\src/ltpf.c ****     yn       = (hp50->s1 + (int64_t)xn * b2) >> 30;
 193:..\..\..\liblc3\src/ltpf.c ****     hp50->s1 = (hp50->s2 + (int64_t)xn * b1 - (int64_t)yn * a1);
 194:..\..\..\liblc3\src/ltpf.c ****     hp50->s2 = (           (int64_t)xn * b2 - (int64_t)yn * a2);
 195:..\..\..\liblc3\src/ltpf.c **** 
 196:..\..\..\liblc3\src/ltpf.c ****     return yn;
 197:..\..\..\liblc3\src/ltpf.c **** }
 198:..\..\..\liblc3\src/ltpf.c **** 
 199:..\..\..\liblc3\src/ltpf.c **** /**
 200:..\..\..\liblc3\src/ltpf.c ****  * Resample from 8 / 16 / 32 KHz to 12.8 KHz Template
 201:..\..\..\liblc3\src/ltpf.c ****  * p               Resampling factor with compared to 192 KHz (8, 4 or 2)
ARM GAS  C:\Users\rdn\AppData\Local\Temp\ccIOjLNc.s 			page 5


 202:..\..\..\liblc3\src/ltpf.c ****  * h               Arrange by phase coefficients table
 203:..\..\..\liblc3\src/ltpf.c ****  * hp50            High-Pass biquad filter state
 204:..\..\..\liblc3\src/ltpf.c ****  * x               [-d..-1] Previous, [0..ns-1] Current samples, Q15
 205:..\..\..\liblc3\src/ltpf.c ****  * y, n            [0..n-1] Output `n` processed samples, Q14
 206:..\..\..\liblc3\src/ltpf.c ****  *
 207:..\..\..\liblc3\src/ltpf.c ****  * The `x` vector is aligned on 32 bits
 208:..\..\..\liblc3\src/ltpf.c ****  * The number of previous samples `d` accessed on `x` is :
 209:..\..\..\liblc3\src/ltpf.c ****  *   d: { 10, 20, 40 } - 1 for resampling factors 8, 4 and 2.
 210:..\..\..\liblc3\src/ltpf.c ****  */
 211:..\..\..\liblc3\src/ltpf.c **** #if !defined(resample_8k_12k8) || !defined(resample_16k_12k8) \
 212:..\..\..\liblc3\src/ltpf.c ****     || !defined(resample_32k_12k8)
 213:..\..\..\liblc3\src/ltpf.c **** LC3_HOT static inline void resample_x64k_12k8(const int p, const int16_t *h,
 214:..\..\..\liblc3\src/ltpf.c ****     struct lc3_ltpf_hp50_state *hp50, const int16_t *x, int16_t *y, int n)
 215:..\..\..\liblc3\src/ltpf.c **** {
 216:..\..\..\liblc3\src/ltpf.c ****     const int w = 2*(40 / p);
 217:..\..\..\liblc3\src/ltpf.c **** 
 218:..\..\..\liblc3\src/ltpf.c ****     x -= w - 1;
 219:..\..\..\liblc3\src/ltpf.c **** 
 220:..\..\..\liblc3\src/ltpf.c ****     for (int i = 0; i < 5*n; i += 5) {
 221:..\..\..\liblc3\src/ltpf.c ****         const int16_t *hn = h + (i % p) * w;
 222:..\..\..\liblc3\src/ltpf.c ****         const int16_t *xn = x + (i / p);
 223:..\..\..\liblc3\src/ltpf.c ****         int32_t un = 0;
 224:..\..\..\liblc3\src/ltpf.c **** 
 225:..\..\..\liblc3\src/ltpf.c ****         for (int k = 0; k < w; k += 10) {
 226:..\..\..\liblc3\src/ltpf.c ****             un += *(xn++) * *(hn++);
 227:..\..\..\liblc3\src/ltpf.c ****             un += *(xn++) * *(hn++);
 228:..\..\..\liblc3\src/ltpf.c ****             un += *(xn++) * *(hn++);
 229:..\..\..\liblc3\src/ltpf.c ****             un += *(xn++) * *(hn++);
 230:..\..\..\liblc3\src/ltpf.c ****             un += *(xn++) * *(hn++);
 231:..\..\..\liblc3\src/ltpf.c ****             un += *(xn++) * *(hn++);
 232:..\..\..\liblc3\src/ltpf.c ****             un += *(xn++) * *(hn++);
 233:..\..\..\liblc3\src/ltpf.c ****             un += *(xn++) * *(hn++);
 234:..\..\..\liblc3\src/ltpf.c ****             un += *(xn++) * *(hn++);
 235:..\..\..\liblc3\src/ltpf.c ****             un += *(xn++) * *(hn++);
 236:..\..\..\liblc3\src/ltpf.c ****         }
 237:..\..\..\liblc3\src/ltpf.c **** 
 238:..\..\..\liblc3\src/ltpf.c ****         int32_t yn = filter_hp50(hp50, un);
 239:..\..\..\liblc3\src/ltpf.c ****         *(y++) = (yn + (1 << 15)) >> 16;
 240:..\..\..\liblc3\src/ltpf.c ****     }
 241:..\..\..\liblc3\src/ltpf.c **** }
 242:..\..\..\liblc3\src/ltpf.c **** #endif
 243:..\..\..\liblc3\src/ltpf.c **** 
 244:..\..\..\liblc3\src/ltpf.c **** /**
 245:..\..\..\liblc3\src/ltpf.c ****  * Resample from 24 / 48 KHz to 12.8 KHz Template
 246:..\..\..\liblc3\src/ltpf.c ****  * p               Resampling factor with compared to 192 KHz (8 or 4)
 247:..\..\..\liblc3\src/ltpf.c ****  * h               Arrange by phase coefficients table
 248:..\..\..\liblc3\src/ltpf.c ****  * hp50            High-Pass biquad filter state
 249:..\..\..\liblc3\src/ltpf.c ****  * x               [-d..-1] Previous, [0..ns-1] Current samples, Q15
 250:..\..\..\liblc3\src/ltpf.c ****  * y, n            [0..n-1] Output `n` processed samples, Q14
 251:..\..\..\liblc3\src/ltpf.c ****  *
 252:..\..\..\liblc3\src/ltpf.c ****  * The `x` vector is aligned on 32 bits
 253:..\..\..\liblc3\src/ltpf.c ****  * The number of previous samples `d` accessed on `x` is :
 254:..\..\..\liblc3\src/ltpf.c ****  *   d: { 30, 60 } - 1 for resampling factors 8 and 4.
 255:..\..\..\liblc3\src/ltpf.c ****  */
 256:..\..\..\liblc3\src/ltpf.c **** #if !defined(resample_24k_12k8) || !defined(resample_48k_12k8) \
 257:..\..\..\liblc3\src/ltpf.c ****     || !defined(resample_96k_12k8)
 258:..\..\..\liblc3\src/ltpf.c **** LC3_HOT static inline void resample_x192k_12k8(const int p, const int16_t *h,
ARM GAS  C:\Users\rdn\AppData\Local\Temp\ccIOjLNc.s 			page 6


 259:..\..\..\liblc3\src/ltpf.c ****     struct lc3_ltpf_hp50_state *hp50, const int16_t *x, int16_t *y, int n)
 260:..\..\..\liblc3\src/ltpf.c **** {
  28              		.loc 1 260 0
  29              		.cfi_startproc
  30              		@ args = 8, pretend = 0, frame = 8
  31              		@ frame_needed = 0, uses_anonymous_args = 0
  32              	.LVL0:
  33 0000 2DE9F74F 		push	{r0, r1, r2, r4, r5, r6, r7, r8, r9, r10, fp, lr}
  34              		.cfi_def_cfa_offset 48
  35              		.cfi_offset 4, -36
  36              		.cfi_offset 5, -32
  37              		.cfi_offset 6, -28
  38              		.cfi_offset 7, -24
  39              		.cfi_offset 8, -20
  40              		.cfi_offset 9, -16
  41              		.cfi_offset 10, -12
  42              		.cfi_offset 11, -8
  43              		.cfi_offset 14, -4
  44              		.loc 1 260 0
  45 0004 8946     		mov	r9, r1
  46 0006 9846     		mov	r8, r3
  47 0008 0D99     		ldr	r1, [sp, #52]
  48              	.LVL1:
 261:..\..\..\liblc3\src/ltpf.c ****     const int w = 2*(120 / p);
  49              		.loc 1 261 0
  50 000a 7823     		movs	r3, #120
  51              	.LVL2:
  52 000c 93FBF0F3 		sdiv	r3, r3, r0
  53 0010 5B00     		lsls	r3, r3, #1
  54              	.LVL3:
 262:..\..\..\liblc3\src/ltpf.c **** 
 263:..\..\..\liblc3\src/ltpf.c ****     x -= w - 1;
  55              		.loc 1 263 0
  56 0012 5C00     		lsls	r4, r3, #1
  57              	.LBB22:
 264:..\..\..\liblc3\src/ltpf.c **** 
 265:..\..\..\liblc3\src/ltpf.c ****     for (int i = 0; i < 15*n; i += 15) {
  58              		.loc 1 265 0
  59 0014 C1EB011A 		rsb	r10, r1, r1, lsl #4
  60              	.LBE22:
 263:..\..\..\liblc3\src/ltpf.c **** 
  61              		.loc 1 263 0
  62 0018 C4F1020B 		rsb	fp, r4, #2
  63              	.LVL4:
  64              	.LBB31:
  65              		.loc 1 265 0
  66 001c 0021     		movs	r1, #0
  67              	.LVL5:
  68              	.L2:
  69              		.loc 1 265 0 is_stmt 0 discriminator 1
  70 001e 5145     		cmp	r1, r10
  71 0020 80F29F80 		bge	.L7
  72              	.LVL6:
  73 0024 91FBF0F6 		sdiv	r6, r1, r0
  74 0028 00FB1617 		mls	r7, r0, r6, r1
  75 002c 5F43     		muls	r7, r3, r7
  76 002e 0BEB4606 		add	r6, fp, r6, lsl #1
ARM GAS  C:\Users\rdn\AppData\Local\Temp\ccIOjLNc.s 			page 7


  77              	.LBB23:
  78              	.LBB24:
 266:..\..\..\liblc3\src/ltpf.c ****         const int16_t *hn = h + (i % p) * w;
 267:..\..\..\liblc3\src/ltpf.c ****         const int16_t *xn = x + (i / p);
 268:..\..\..\liblc3\src/ltpf.c ****         int32_t un = 0;
 269:..\..\..\liblc3\src/ltpf.c **** 
 270:..\..\..\liblc3\src/ltpf.c ****         for (int k = 0; k < w; k += 15) {
  79              		.loc 1 270 0 is_stmt 1
  80 0032 4FF0000E 		mov	lr, #0
  81 0036 09EB4707 		add	r7, r9, r7, lsl #1
  82 003a 4644     		add	r6, r6, r8
  83              	.LBE24:
 268:..\..\..\liblc3\src/ltpf.c **** 
  84              		.loc 1 268 0
  85 003c F446     		mov	ip, lr
  86              	.LVL7:
  87              	.L3:
  88              	.LBB25:
  89              		.loc 1 270 0 discriminator 1
  90 003e 9E45     		cmp	lr, r3
  91 0040 07F11E07 		add	r7, r7, #30
  92 0044 06F11E06 		add	r6, r6, #30
  93              	.LVL8:
  94 0048 5CDA     		bge	.L8
  95              	.LVL9:
 271:..\..\..\liblc3\src/ltpf.c ****             un += *(xn++) * *(hn++);
  96              		.loc 1 271 0 discriminator 3
  97 004a 37F91E4C 		ldrsh	r4, [r7, #-30]
  98 004e 36F91E5C 		ldrsh	r5, [r6, #-30]
  99              	.LVL10:
 100 0052 05FB04C5 		mla	r5, r5, r4, ip
 101              	.LVL11:
 272:..\..\..\liblc3\src/ltpf.c ****             un += *(xn++) * *(hn++);
 102              		.loc 1 272 0 discriminator 3
 103 0056 36F91CCC 		ldrsh	ip, [r6, #-28]
 104              	.LVL12:
 105 005a 37F91C4C 		ldrsh	r4, [r7, #-28]
 106 005e 0CFB0454 		mla	r4, ip, r4, r5
 107              	.LVL13:
 273:..\..\..\liblc3\src/ltpf.c ****             un += *(xn++) * *(hn++);
 108              		.loc 1 273 0 discriminator 3
 109 0062 37F91A5C 		ldrsh	r5, [r7, #-26]
 110 0066 36F91ACC 		ldrsh	ip, [r6, #-26]
 111              	.LVL14:
 112 006a 0CFB054C 		mla	ip, ip, r5, r4
 113              	.LVL15:
 274:..\..\..\liblc3\src/ltpf.c ****             un += *(xn++) * *(hn++);
 114              		.loc 1 274 0 discriminator 3
 115 006e 37F9184C 		ldrsh	r4, [r7, #-24]
 116 0072 36F9185C 		ldrsh	r5, [r6, #-24]
 117              	.LVL16:
 118 0076 05FB04C5 		mla	r5, r5, r4, ip
 119              	.LVL17:
 275:..\..\..\liblc3\src/ltpf.c ****             un += *(xn++) * *(hn++);
 120              		.loc 1 275 0 discriminator 3
 121 007a 36F916CC 		ldrsh	ip, [r6, #-22]
 122              	.LVL18:
ARM GAS  C:\Users\rdn\AppData\Local\Temp\ccIOjLNc.s 			page 8


 123 007e 37F9164C 		ldrsh	r4, [r7, #-22]
 124 0082 0CFB0454 		mla	r4, ip, r4, r5
 125              	.LVL19:
 276:..\..\..\liblc3\src/ltpf.c ****             un += *(xn++) * *(hn++);
 126              		.loc 1 276 0 discriminator 3
 127 0086 37F9145C 		ldrsh	r5, [r7, #-20]
 128 008a 36F914CC 		ldrsh	ip, [r6, #-20]
 129              	.LVL20:
 130 008e 0CFB054C 		mla	ip, ip, r5, r4
 131              	.LVL21:
 277:..\..\..\liblc3\src/ltpf.c ****             un += *(xn++) * *(hn++);
 132              		.loc 1 277 0 discriminator 3
 133 0092 37F9124C 		ldrsh	r4, [r7, #-18]
 134 0096 36F9125C 		ldrsh	r5, [r6, #-18]
 135              	.LVL22:
 136 009a 05FB04C5 		mla	r5, r5, r4, ip
 137              	.LVL23:
 278:..\..\..\liblc3\src/ltpf.c ****             un += *(xn++) * *(hn++);
 138              		.loc 1 278 0 discriminator 3
 139 009e 36F910CC 		ldrsh	ip, [r6, #-16]
 140              	.LVL24:
 141 00a2 37F9104C 		ldrsh	r4, [r7, #-16]
 142 00a6 0CFB0454 		mla	r4, ip, r4, r5
 143              	.LVL25:
 279:..\..\..\liblc3\src/ltpf.c ****             un += *(xn++) * *(hn++);
 144              		.loc 1 279 0 discriminator 3
 145 00aa 37F90E5C 		ldrsh	r5, [r7, #-14]
 146 00ae 36F90ECC 		ldrsh	ip, [r6, #-14]
 147              	.LVL26:
 148 00b2 0CFB054C 		mla	ip, ip, r5, r4
 149              	.LVL27:
 280:..\..\..\liblc3\src/ltpf.c ****             un += *(xn++) * *(hn++);
 150              		.loc 1 280 0 discriminator 3
 151 00b6 37F90C4C 		ldrsh	r4, [r7, #-12]
 152 00ba 36F90C5C 		ldrsh	r5, [r6, #-12]
 153              	.LVL28:
 154 00be 05FB04C5 		mla	r5, r5, r4, ip
 155              	.LVL29:
 281:..\..\..\liblc3\src/ltpf.c ****             un += *(xn++) * *(hn++);
 156              		.loc 1 281 0 discriminator 3
 157 00c2 36F90ACC 		ldrsh	ip, [r6, #-10]
 158              	.LVL30:
 159 00c6 37F90A4C 		ldrsh	r4, [r7, #-10]
 160 00ca 0CFB0454 		mla	r4, ip, r4, r5
 161              	.LVL31:
 282:..\..\..\liblc3\src/ltpf.c ****             un += *(xn++) * *(hn++);
 162              		.loc 1 282 0 discriminator 3
 163 00ce 37F9085C 		ldrsh	r5, [r7, #-8]
 164 00d2 36F908CC 		ldrsh	ip, [r6, #-8]
 165              	.LVL32:
 166 00d6 0CFB054C 		mla	ip, ip, r5, r4
 167              	.LVL33:
 283:..\..\..\liblc3\src/ltpf.c ****             un += *(xn++) * *(hn++);
 168              		.loc 1 283 0 discriminator 3
 169 00da 37F9064C 		ldrsh	r4, [r7, #-6]
 170 00de 36F9065C 		ldrsh	r5, [r6, #-6]
 171              	.LVL34:
ARM GAS  C:\Users\rdn\AppData\Local\Temp\ccIOjLNc.s 			page 9


 172 00e2 05FB04C5 		mla	r5, r5, r4, ip
 173              	.LVL35:
 284:..\..\..\liblc3\src/ltpf.c ****             un += *(xn++) * *(hn++);
 174              		.loc 1 284 0 discriminator 3
 175 00e6 36F904CC 		ldrsh	ip, [r6, #-4]
 176              	.LVL36:
 177 00ea 37F9044C 		ldrsh	r4, [r7, #-4]
 178 00ee 0CFB0454 		mla	r4, ip, r4, r5
 179              	.LVL37:
 285:..\..\..\liblc3\src/ltpf.c ****             un += *(xn++) * *(hn++);
 180              		.loc 1 285 0 discriminator 3
 181 00f2 36F902CC 		ldrsh	ip, [r6, #-2]
 182              	.LVL38:
 183 00f6 37F9025C 		ldrsh	r5, [r7, #-2]
 270:..\..\..\liblc3\src/ltpf.c ****             un += *(xn++) * *(hn++);
 184              		.loc 1 270 0 discriminator 3
 185 00fa 0EF10F0E 		add	lr, lr, #15
 186              	.LVL39:
 187              		.loc 1 285 0 discriminator 3
 188 00fe 0CFB054C 		mla	ip, ip, r5, r4
 189              	.LVL40:
 190 0102 9CE7     		b	.L3
 191              	.LVL41:
 192              	.L8:
 193              	.LBE25:
 194              	.LBB26:
 195              	.LBB27:
 192:..\..\..\liblc3\src/ltpf.c ****     hp50->s1 = (hp50->s2 + (int64_t)xn * b1 - (int64_t)yn * a1);
 196              		.loc 1 192 0
 197 0104 184C     		ldr	r4, .L9
 198 0106 8CFB0445 		smull	r4, r5, ip, r4
 199 010a CDE90045 		strd	r4, [sp]
 200 010e DDE90067 		ldrd	r6, [sp]
 201              	.LVL42:
 202 0112 D2E90045 		ldrd	r4, [r2]
 203 0116 3619     		adds	r6, r6, r4
 204 0118 6F41     		adcs	r7, r7, r5
 193:..\..\..\liblc3\src/ltpf.c ****     hp50->s2 = (           (int64_t)xn * b2 - (int64_t)yn * a2);
 205              		.loc 1 193 0
 206 011a D2E90245 		ldrd	r4, [r2, #8]
 192:..\..\..\liblc3\src/ltpf.c ****     hp50->s1 = (hp50->s2 + (int64_t)xn * b1 - (int64_t)yn * a1);
 207              		.loc 1 192 0
 208 011e 4FEA967E 		lsr	lr, r6, #30
 209              	.LVL43:
 193:..\..\..\liblc3\src/ltpf.c ****     hp50->s2 = (           (int64_t)xn * b2 - (int64_t)yn * a2);
 210              		.loc 1 193 0
 211 0122 124E     		ldr	r6, .L9+4
 212 0124 C6FB0C45 		smlal	r4, r5, r6, ip
 213 0128 A6F18D66 		sub	r6, r6, #73924608
 214 012c A6F58D26 		sub	r6, r6, #288768
 192:..\..\..\liblc3\src/ltpf.c ****     hp50->s1 = (hp50->s2 + (int64_t)xn * b1 - (int64_t)yn * a1);
 215              		.loc 1 192 0
 216 0130 4EEA870E 		orr	lr, lr, r7, lsl #2
 217              	.LVL44:
 193:..\..\..\liblc3\src/ltpf.c ****     hp50->s2 = (           (int64_t)xn * b2 - (int64_t)yn * a2);
 218              		.loc 1 193 0
 219 0134 A6F29726 		subw	r6, r6, #663
ARM GAS  C:\Users\rdn\AppData\Local\Temp\ccIOjLNc.s 			page 10


 220 0138 C6FB0E45 		smlal	r4, r5, r6, lr
 194:..\..\..\liblc3\src/ltpf.c **** 
 221              		.loc 1 194 0
 222 013c DDE90067 		ldrd	r6, [sp]
 193:..\..\..\liblc3\src/ltpf.c ****     hp50->s2 = (           (int64_t)xn * b2 - (int64_t)yn * a2);
 223              		.loc 1 193 0
 224 0140 C2E90045 		strd	r4, [r2]
 194:..\..\..\liblc3\src/ltpf.c **** 
 225              		.loc 1 194 0
 226 0144 0A4C     		ldr	r4, .L9+8
 227 0146 C4FB0E67 		smlal	r6, r7, r4, lr
 228              	.LBE27:
 229              	.LBE26:
 286:..\..\..\liblc3\src/ltpf.c ****         }
 287:..\..\..\liblc3\src/ltpf.c **** 
 288:..\..\..\liblc3\src/ltpf.c ****         int32_t yn = filter_hp50(hp50, un);
 289:..\..\..\liblc3\src/ltpf.c ****         *(y++) = (yn + (1 << 15)) >> 16;
 230              		.loc 1 289 0
 231 014a 0C9C     		ldr	r4, [sp, #48]
 232 014c 0EF5004E 		add	lr, lr, #32768
 233              	.LVL45:
 234 0150 4FEA2E4E 		asr	lr, lr, #16
 235              	.LVL46:
 236              	.LBB29:
 237              	.LBB28:
 194:..\..\..\liblc3\src/ltpf.c **** 
 238              		.loc 1 194 0
 239 0154 C2E90267 		strd	r6, [r2, #8]
 240              	.LVL47:
 241              	.LBE28:
 242              	.LBE29:
 243              		.loc 1 289 0
 244 0158 24F802EB 		strh	lr, [r4], #2	@ movhi
 245              	.LVL48:
 246              	.LBE23:
 265:..\..\..\liblc3\src/ltpf.c ****         const int16_t *hn = h + (i % p) * w;
 247              		.loc 1 265 0
 248 015c 0F31     		adds	r1, r1, #15
 249              	.LVL49:
 250              	.LBB30:
 251              		.loc 1 289 0
 252 015e 0C94     		str	r4, [sp, #48]
 253              	.LVL50:
 254 0160 5DE7     		b	.L2
 255              	.LVL51:
 256              	.L7:
 257              	.LBE30:
 258              	.LBE31:
 290:..\..\..\liblc3\src/ltpf.c ****     }
 291:..\..\..\liblc3\src/ltpf.c **** }
 259              		.loc 1 291 0
 260 0162 03B0     		add	sp, sp, #12
 261              		.cfi_def_cfa_offset 36
 262              		@ sp needed
 263 0164 BDE8F08F 		pop	{r4, r5, r6, r7, r8, r9, r10, fp, pc}
 264              	.LVL52:
 265              	.L10:
ARM GAS  C:\Users\rdn\AppData\Local\Temp\ccIOjLNc.s 			page 11


 266              		.align	2
 267              	.L9:
 268 0168 C61BE63E 		.word	1055267782
 269 016c 72C83382 		.word	-2110535566
 270 0170 BFEE2EC2 		.word	-1037111617
 271              		.cfi_endproc
 272              	.LFE22:
 273              		.size	resample_x192k_12k8, .-resample_x192k_12k8
 274              		.section	.text.resample_24k_12k8,"ax",%progbits
 275              		.align	1
 276              		.thumb
 277              		.thumb_func
 278              		.type	resample_24k_12k8, %function
 279              	resample_24k_12k8:
 280              	.LFB26:
 292:..\..\..\liblc3\src/ltpf.c **** #endif
 293:..\..\..\liblc3\src/ltpf.c **** 
 294:..\..\..\liblc3\src/ltpf.c **** /**
 295:..\..\..\liblc3\src/ltpf.c ****  * Resample from 8 Khz to 12.8 KHz
 296:..\..\..\liblc3\src/ltpf.c ****  * hp50            High-Pass biquad filter state
 297:..\..\..\liblc3\src/ltpf.c ****  * x               [-10..-1] Previous, [0..ns-1] Current samples, Q15
 298:..\..\..\liblc3\src/ltpf.c ****  * y, n            [0..n-1] Output `n` processed samples, Q14
 299:..\..\..\liblc3\src/ltpf.c ****  *
 300:..\..\..\liblc3\src/ltpf.c ****  * The `x` vector is aligned on 32 bits
 301:..\..\..\liblc3\src/ltpf.c ****  */
 302:..\..\..\liblc3\src/ltpf.c **** #ifndef resample_8k_12k8
 303:..\..\..\liblc3\src/ltpf.c **** LC3_HOT static void resample_8k_12k8(
 304:..\..\..\liblc3\src/ltpf.c ****     struct lc3_ltpf_hp50_state *hp50, const int16_t *x, int16_t *y, int n)
 305:..\..\..\liblc3\src/ltpf.c **** {
 306:..\..\..\liblc3\src/ltpf.c ****     resample_x64k_12k8(8, h_8k_12k8_q15, hp50, x, y, n);
 307:..\..\..\liblc3\src/ltpf.c **** }
 308:..\..\..\liblc3\src/ltpf.c **** #endif /* resample_8k_12k8 */
 309:..\..\..\liblc3\src/ltpf.c **** 
 310:..\..\..\liblc3\src/ltpf.c **** /**
 311:..\..\..\liblc3\src/ltpf.c ****  * Resample from 16 Khz to 12.8 KHz
 312:..\..\..\liblc3\src/ltpf.c ****  * hp50            High-Pass biquad filter state
 313:..\..\..\liblc3\src/ltpf.c ****  * x               [-20..-1] Previous, [0..ns-1] Current samples, in fixed Q15
 314:..\..\..\liblc3\src/ltpf.c ****  * y, n            [0..n-1] Output `n` processed samples, in fixed Q14
 315:..\..\..\liblc3\src/ltpf.c ****  *
 316:..\..\..\liblc3\src/ltpf.c ****  * The `x` vector is aligned on 32 bits
 317:..\..\..\liblc3\src/ltpf.c ****  */
 318:..\..\..\liblc3\src/ltpf.c **** #ifndef resample_16k_12k8
 319:..\..\..\liblc3\src/ltpf.c **** LC3_HOT static void resample_16k_12k8(
 320:..\..\..\liblc3\src/ltpf.c ****     struct lc3_ltpf_hp50_state *hp50, const int16_t *x, int16_t *y, int n)
 321:..\..\..\liblc3\src/ltpf.c **** {
 322:..\..\..\liblc3\src/ltpf.c ****     resample_x64k_12k8(4, h_16k_12k8_q15, hp50, x, y, n);
 323:..\..\..\liblc3\src/ltpf.c **** }
 324:..\..\..\liblc3\src/ltpf.c **** #endif /* resample_16k_12k8 */
 325:..\..\..\liblc3\src/ltpf.c **** 
 326:..\..\..\liblc3\src/ltpf.c **** /**
 327:..\..\..\liblc3\src/ltpf.c ****  * Resample from 32 Khz to 12.8 KHz
 328:..\..\..\liblc3\src/ltpf.c ****  * hp50            High-Pass biquad filter state
 329:..\..\..\liblc3\src/ltpf.c ****  * x               [-30..-1] Previous, [0..ns-1] Current samples, in fixed Q15
 330:..\..\..\liblc3\src/ltpf.c ****  * y, n            [0..n-1] Output `n` processed samples, in fixed Q14
 331:..\..\..\liblc3\src/ltpf.c ****  *
 332:..\..\..\liblc3\src/ltpf.c ****  * The `x` vector is aligned on 32 bits
 333:..\..\..\liblc3\src/ltpf.c ****  */
ARM GAS  C:\Users\rdn\AppData\Local\Temp\ccIOjLNc.s 			page 12


 334:..\..\..\liblc3\src/ltpf.c **** #ifndef resample_32k_12k8
 335:..\..\..\liblc3\src/ltpf.c **** LC3_HOT static void resample_32k_12k8(
 336:..\..\..\liblc3\src/ltpf.c ****     struct lc3_ltpf_hp50_state *hp50, const int16_t *x, int16_t *y, int n)
 337:..\..\..\liblc3\src/ltpf.c **** {
 338:..\..\..\liblc3\src/ltpf.c ****     resample_x64k_12k8(2, h_32k_12k8_q15, hp50, x, y, n);
 339:..\..\..\liblc3\src/ltpf.c **** }
 340:..\..\..\liblc3\src/ltpf.c **** #endif /* resample_32k_12k8 */
 341:..\..\..\liblc3\src/ltpf.c **** 
 342:..\..\..\liblc3\src/ltpf.c **** /**
 343:..\..\..\liblc3\src/ltpf.c ****  * Resample from 24 Khz to 12.8 KHz
 344:..\..\..\liblc3\src/ltpf.c ****  * hp50            High-Pass biquad filter state
 345:..\..\..\liblc3\src/ltpf.c ****  * x               [-30..-1] Previous, [0..ns-1] Current samples, in fixed Q15
 346:..\..\..\liblc3\src/ltpf.c ****  * y, n            [0..n-1] Output `n` processed samples, in fixed Q14
 347:..\..\..\liblc3\src/ltpf.c ****  *
 348:..\..\..\liblc3\src/ltpf.c ****  * The `x` vector is aligned on 32 bits
 349:..\..\..\liblc3\src/ltpf.c ****  */
 350:..\..\..\liblc3\src/ltpf.c **** #ifndef resample_24k_12k8
 351:..\..\..\liblc3\src/ltpf.c **** LC3_HOT static void resample_24k_12k8(
 352:..\..\..\liblc3\src/ltpf.c ****     struct lc3_ltpf_hp50_state *hp50, const int16_t *x, int16_t *y, int n)
 353:..\..\..\liblc3\src/ltpf.c **** {
 281              		.loc 1 353 0
 282              		.cfi_startproc
 283              		@ args = 0, pretend = 0, frame = 0
 284              		@ frame_needed = 0, uses_anonymous_args = 0
 285              	.LVL53:
 286 0000 07B5     		push	{r0, r1, r2, lr}
 287              		.cfi_def_cfa_offset 16
 288              		.cfi_offset 14, -4
 354:..\..\..\liblc3\src/ltpf.c ****     resample_x192k_12k8(8, h_24k_12k8_q15, hp50, x, y, n);
 289              		.loc 1 354 0
 290 0002 8DE80C00 		stmia	sp, {r2, r3}
 291 0006 0B46     		mov	r3, r1
 292              	.LVL54:
 293 0008 0246     		mov	r2, r0
 294              	.LVL55:
 295 000a 0349     		ldr	r1, .L12
 296              	.LVL56:
 297 000c 0820     		movs	r0, #8
 298              	.LVL57:
 299 000e FFF7FEFF 		bl	resample_x192k_12k8
 300              	.LVL58:
 355:..\..\..\liblc3\src/ltpf.c **** }
 301              		.loc 1 355 0
 302 0012 03B0     		add	sp, sp, #12
 303              		.cfi_def_cfa_offset 4
 304              		@ sp needed
 305 0014 5DF804FB 		ldr	pc, [sp], #4
 306              	.L13:
 307              		.align	2
 308              	.L12:
 309 0018 00000000 		.word	.LANCHOR0
 310              		.cfi_endproc
 311              	.LFE26:
 312              		.size	resample_24k_12k8, .-resample_24k_12k8
 313              		.section	.text.resample_48k_12k8,"ax",%progbits
 314              		.align	1
 315              		.thumb
ARM GAS  C:\Users\rdn\AppData\Local\Temp\ccIOjLNc.s 			page 13


 316              		.thumb_func
 317              		.type	resample_48k_12k8, %function
 318              	resample_48k_12k8:
 319              	.LFB27:
 356:..\..\..\liblc3\src/ltpf.c **** #endif /* resample_24k_12k8 */
 357:..\..\..\liblc3\src/ltpf.c **** 
 358:..\..\..\liblc3\src/ltpf.c **** /**
 359:..\..\..\liblc3\src/ltpf.c ****  * Resample from 48 Khz to 12.8 KHz
 360:..\..\..\liblc3\src/ltpf.c ****  * hp50            High-Pass biquad filter state
 361:..\..\..\liblc3\src/ltpf.c ****  * x               [-60..-1] Previous, [0..ns-1] Current samples, in fixed Q15
 362:..\..\..\liblc3\src/ltpf.c ****  * y, n            [0..n-1] Output `n` processed samples, in fixed Q14
 363:..\..\..\liblc3\src/ltpf.c ****  *
 364:..\..\..\liblc3\src/ltpf.c **** * The `x` vector is aligned on 32 bits
 365:..\..\..\liblc3\src/ltpf.c **** */
 366:..\..\..\liblc3\src/ltpf.c **** #ifndef resample_48k_12k8
 367:..\..\..\liblc3\src/ltpf.c **** LC3_HOT static void resample_48k_12k8(
 368:..\..\..\liblc3\src/ltpf.c ****     struct lc3_ltpf_hp50_state *hp50, const int16_t *x, int16_t *y, int n)
 369:..\..\..\liblc3\src/ltpf.c **** {
 320              		.loc 1 369 0
 321              		.cfi_startproc
 322              		@ args = 0, pretend = 0, frame = 0
 323              		@ frame_needed = 0, uses_anonymous_args = 0
 324              	.LVL59:
 325 0000 07B5     		push	{r0, r1, r2, lr}
 326              		.cfi_def_cfa_offset 16
 327              		.cfi_offset 14, -4
 370:..\..\..\liblc3\src/ltpf.c ****     resample_x192k_12k8(4, h_48k_12k8_q15, hp50, x, y, n);
 328              		.loc 1 370 0
 329 0002 8DE80C00 		stmia	sp, {r2, r3}
 330 0006 0B46     		mov	r3, r1
 331              	.LVL60:
 332 0008 0246     		mov	r2, r0
 333              	.LVL61:
 334 000a 0349     		ldr	r1, .L15
 335              	.LVL62:
 336 000c 0420     		movs	r0, #4
 337              	.LVL63:
 338 000e FFF7FEFF 		bl	resample_x192k_12k8
 339              	.LVL64:
 371:..\..\..\liblc3\src/ltpf.c **** }
 340              		.loc 1 371 0
 341 0012 03B0     		add	sp, sp, #12
 342              		.cfi_def_cfa_offset 4
 343              		@ sp needed
 344 0014 5DF804FB 		ldr	pc, [sp], #4
 345              	.L16:
 346              		.align	2
 347              	.L15:
 348 0018 E0010000 		.word	.LANCHOR0+480
 349              		.cfi_endproc
 350              	.LFE27:
 351              		.size	resample_48k_12k8, .-resample_48k_12k8
 352              		.section	.text.resample_96k_12k8,"ax",%progbits
 353              		.align	1
 354              		.thumb
 355              		.thumb_func
 356              		.type	resample_96k_12k8, %function
ARM GAS  C:\Users\rdn\AppData\Local\Temp\ccIOjLNc.s 			page 14


 357              	resample_96k_12k8:
 358              	.LFB28:
 372:..\..\..\liblc3\src/ltpf.c **** #endif /* resample_48k_12k8 */
 373:..\..\..\liblc3\src/ltpf.c **** 
 374:..\..\..\liblc3\src/ltpf.c **** /**
 375:..\..\..\liblc3\src/ltpf.c ****  * Resample from 96 Khz to 12.8 KHz
 376:..\..\..\liblc3\src/ltpf.c ****  * hp50            High-Pass biquad filter state
 377:..\..\..\liblc3\src/ltpf.c ****  * x               [-120..-1] Previous, [0..ns-1] Current samples, in fixed Q15
 378:..\..\..\liblc3\src/ltpf.c ****  * y, n            [0..n-1] Output `n` processed samples, in fixed Q14
 379:..\..\..\liblc3\src/ltpf.c ****  *
 380:..\..\..\liblc3\src/ltpf.c **** * The `x` vector is aligned on 32 bits
 381:..\..\..\liblc3\src/ltpf.c **** */
 382:..\..\..\liblc3\src/ltpf.c **** #ifndef resample_96k_12k8
 383:..\..\..\liblc3\src/ltpf.c **** LC3_HOT static void resample_96k_12k8(
 384:..\..\..\liblc3\src/ltpf.c ****     struct lc3_ltpf_hp50_state *hp50, const int16_t *x, int16_t *y, int n)
 385:..\..\..\liblc3\src/ltpf.c **** {
 359              		.loc 1 385 0
 360              		.cfi_startproc
 361              		@ args = 0, pretend = 0, frame = 0
 362              		@ frame_needed = 0, uses_anonymous_args = 0
 363              	.LVL65:
 364 0000 07B5     		push	{r0, r1, r2, lr}
 365              		.cfi_def_cfa_offset 16
 366              		.cfi_offset 14, -4
 386:..\..\..\liblc3\src/ltpf.c ****     resample_x192k_12k8(2, h_96k_12k8_q15, hp50, x, y, n);
 367              		.loc 1 386 0
 368 0002 8DE80C00 		stmia	sp, {r2, r3}
 369 0006 0B46     		mov	r3, r1
 370              	.LVL66:
 371 0008 0246     		mov	r2, r0
 372              	.LVL67:
 373 000a 0349     		ldr	r1, .L18
 374              	.LVL68:
 375 000c 0220     		movs	r0, #2
 376              	.LVL69:
 377 000e FFF7FEFF 		bl	resample_x192k_12k8
 378              	.LVL70:
 387:..\..\..\liblc3\src/ltpf.c **** }
 379              		.loc 1 387 0
 380 0012 03B0     		add	sp, sp, #12
 381              		.cfi_def_cfa_offset 4
 382              		@ sp needed
 383 0014 5DF804FB 		ldr	pc, [sp], #4
 384              	.L19:
 385              		.align	2
 386              	.L18:
 387 0018 C0030000 		.word	.LANCHOR0+960
 388              		.cfi_endproc
 389              	.LFE28:
 390              		.size	resample_96k_12k8, .-resample_96k_12k8
 391              		.section	.text.dot,"ax",%progbits
 392              		.align	1
 393              		.thumb
 394              		.thumb_func
 395              		.type	dot, %function
 396              	dot:
 397              	.LFB30:
ARM GAS  C:\Users\rdn\AppData\Local\Temp\ccIOjLNc.s 			page 15


 388:..\..\..\liblc3\src/ltpf.c **** #endif /* resample_96k_12k8 */
 389:..\..\..\liblc3\src/ltpf.c **** 
 390:..\..\..\liblc3\src/ltpf.c **** /**
 391:..\..\..\liblc3\src/ltpf.c **** * Resample to 6.4 KHz
 392:..\..\..\liblc3\src/ltpf.c **** * x               [-3..-1] Previous, [0..n-1] Current samples
 393:..\..\..\liblc3\src/ltpf.c **** * y, n            [0..n-1] Output `n` processed samples
 394:..\..\..\liblc3\src/ltpf.c **** *
 395:..\..\..\liblc3\src/ltpf.c **** * The `x` vector is aligned on 32 bits
 396:..\..\..\liblc3\src/ltpf.c ****  */
 397:..\..\..\liblc3\src/ltpf.c **** #ifndef resample_6k4
 398:..\..\..\liblc3\src/ltpf.c **** LC3_HOT static void resample_6k4(const int16_t *x, int16_t *y, int n)
 399:..\..\..\liblc3\src/ltpf.c **** {
 400:..\..\..\liblc3\src/ltpf.c ****     static const int16_t h[] = { 18477, 15424, 8105 };
 401:..\..\..\liblc3\src/ltpf.c ****     const int16_t *ye = y + n;
 402:..\..\..\liblc3\src/ltpf.c **** 
 403:..\..\..\liblc3\src/ltpf.c ****     for (x--; y < ye; x += 2)
 404:..\..\..\liblc3\src/ltpf.c ****         *(y++) = (x[0] * h[0] + (x[-1] + x[1]) * h[1]
 405:..\..\..\liblc3\src/ltpf.c ****                               + (x[-2] + x[2]) * h[2]) >> 16;
 406:..\..\..\liblc3\src/ltpf.c **** }
 407:..\..\..\liblc3\src/ltpf.c **** #endif /* resample_6k4 */
 408:..\..\..\liblc3\src/ltpf.c **** 
 409:..\..\..\liblc3\src/ltpf.c **** /**
 410:..\..\..\liblc3\src/ltpf.c ****  * LTPF Resample to 12.8 KHz implementations for each samplerates
 411:..\..\..\liblc3\src/ltpf.c ****  */
 412:..\..\..\liblc3\src/ltpf.c **** 
 413:..\..\..\liblc3\src/ltpf.c **** static void (* const resample_12k8[])
 414:..\..\..\liblc3\src/ltpf.c ****     (struct lc3_ltpf_hp50_state *, const int16_t *, int16_t *, int ) =
 415:..\..\..\liblc3\src/ltpf.c **** {
 416:..\..\..\liblc3\src/ltpf.c ****     [LC3_SRATE_8K    ] = resample_8k_12k8,
 417:..\..\..\liblc3\src/ltpf.c ****     [LC3_SRATE_16K   ] = resample_16k_12k8,
 418:..\..\..\liblc3\src/ltpf.c ****     [LC3_SRATE_24K   ] = resample_24k_12k8,
 419:..\..\..\liblc3\src/ltpf.c ****     [LC3_SRATE_32K   ] = resample_32k_12k8,
 420:..\..\..\liblc3\src/ltpf.c ****     [LC3_SRATE_48K   ] = resample_48k_12k8,
 421:..\..\..\liblc3\src/ltpf.c ****     [LC3_SRATE_48K_HR] = resample_48k_12k8,
 422:..\..\..\liblc3\src/ltpf.c ****     [LC3_SRATE_96K_HR] = resample_96k_12k8,
 423:..\..\..\liblc3\src/ltpf.c **** };
 424:..\..\..\liblc3\src/ltpf.c **** 
 425:..\..\..\liblc3\src/ltpf.c **** 
 426:..\..\..\liblc3\src/ltpf.c **** /* ----------------------------------------------------------------------------
 427:..\..\..\liblc3\src/ltpf.c ****  *  Analysis
 428:..\..\..\liblc3\src/ltpf.c ****  * -------------------------------------------------------------------------- */
 429:..\..\..\liblc3\src/ltpf.c **** 
 430:..\..\..\liblc3\src/ltpf.c **** /**
 431:..\..\..\liblc3\src/ltpf.c ****  * Return dot product of 2 vectors
 432:..\..\..\liblc3\src/ltpf.c ****  * a, b, n         The 2 vectors of size `n` (> 0 and <= 128)
 433:..\..\..\liblc3\src/ltpf.c ****  * return          sum( a[i] * b[i] ), i = [0..n-1]
 434:..\..\..\liblc3\src/ltpf.c ****  *
 435:..\..\..\liblc3\src/ltpf.c ****  * The size `n` of vectors must be multiple of 16, and less or equal to 128
 436:..\..\..\liblc3\src/ltpf.c **** */
 437:..\..\..\liblc3\src/ltpf.c **** #ifndef dot
 438:..\..\..\liblc3\src/ltpf.c **** LC3_HOT static inline float dot(const int16_t *a, const int16_t *b, int n)
 439:..\..\..\liblc3\src/ltpf.c **** {
 398              		.loc 1 439 0
 399              		.cfi_startproc
 400              		@ args = 0, pretend = 0, frame = 0
 401              		@ frame_needed = 0, uses_anonymous_args = 0
 402              	.LVL71:
ARM GAS  C:\Users\rdn\AppData\Local\Temp\ccIOjLNc.s 			page 16


 403 0000 F0B5     		push	{r4, r5, r6, r7, lr}
 404              		.cfi_def_cfa_offset 20
 405              		.cfi_offset 4, -20
 406              		.cfi_offset 5, -16
 407              		.cfi_offset 6, -12
 408              		.cfi_offset 7, -8
 409              		.cfi_offset 14, -4
 410              	.LBB32:
 440:..\..\..\liblc3\src/ltpf.c ****     int64_t v = 0;
 441:..\..\..\liblc3\src/ltpf.c **** 
 442:..\..\..\liblc3\src/ltpf.c ****     for (int i = 0; i < (n >> 4); i++)
 411              		.loc 1 442 0
 412 0002 1211     		asrs	r2, r2, #4
 413              	.LVL72:
 414 0004 0023     		movs	r3, #0
 415              	.LBE32:
 440:..\..\..\liblc3\src/ltpf.c ****     int64_t v = 0;
 416              		.loc 1 440 0
 417 0006 0024     		movs	r4, #0
 418 0008 0025     		movs	r5, #0
 419              	.LVL73:
 420              	.L21:
 421              	.LBB34:
 422              		.loc 1 442 0 discriminator 1
 423 000a 9342     		cmp	r3, r2
 424 000c 01EB4316 		add	r6, r1, r3, lsl #5
 425              	.LVL74:
 426 0010 0BDA     		bge	.L23
 427 0012 00F12007 		add	r7, r0, #32
 428              	.L22:
 429              	.LBB33:
 443:..\..\..\liblc3\src/ltpf.c ****         for (int j = 0; j < 16; j++)
 444:..\..\..\liblc3\src/ltpf.c ****             v += *(a++) * *(b++);
 430              		.loc 1 444 0 discriminator 3
 431 0016 30F902CB 		ldrsh	ip, [r0], #2
 432              	.LVL75:
 433 001a 36F902EB 		ldrsh	lr, [r6], #2
 434              	.LVL76:
 443:..\..\..\liblc3\src/ltpf.c ****         for (int j = 0; j < 16; j++)
 435              		.loc 1 443 0 discriminator 3
 436 001e B842     		cmp	r0, r7
 437              		.loc 1 444 0 discriminator 3
 438 0020 CCFB8E45 		smlalbb	r4, r5, ip, lr
 439              	.LVL77:
 443:..\..\..\liblc3\src/ltpf.c ****         for (int j = 0; j < 16; j++)
 440              		.loc 1 443 0 discriminator 3
 441 0024 F7D1     		bne	.L22
 442              	.LBE33:
 442:..\..\..\liblc3\src/ltpf.c ****         for (int j = 0; j < 16; j++)
 443              		.loc 1 442 0 discriminator 2
 444 0026 0133     		adds	r3, r3, #1
 445              	.LVL78:
 446 0028 EFE7     		b	.L21
 447              	.L23:
 448              	.LVL79:
 449              	.LBE34:
 445:..\..\..\liblc3\src/ltpf.c **** 
ARM GAS  C:\Users\rdn\AppData\Local\Temp\ccIOjLNc.s 			page 17


 446:..\..\..\liblc3\src/ltpf.c ****     int32_t v32 = (v + (1 << 5)) >> 6;
 447:..\..\..\liblc3\src/ltpf.c ****     return (float)v32;
 450              		.loc 1 447 0
 451 002a 2034     		adds	r4, r4, #32
 452              	.LVL80:
 453 002c 45F10005 		adc	r5, r5, #0
 454 0030 A309     		lsrs	r3, r4, #6
 455              	.LVL81:
 456 0032 43EA8563 		orr	r3, r3, r5, lsl #26
 448:..\..\..\liblc3\src/ltpf.c **** }
 457              		.loc 1 448 0
 458 0036 07EE903A 		vmov	s15, r3	@ int
 459 003a B8EEE70A 		vcvt.f32.s32	s0, s15
 460 003e F0BD     		pop	{r4, r5, r6, r7, pc}
 461              		.cfi_endproc
 462              	.LFE30:
 463              		.size	dot, .-dot
 464              		.section	.text.interpolate,"ax",%progbits
 465              		.align	1
 466              		.thumb
 467              		.thumb_func
 468              		.type	interpolate, %function
 469              	interpolate:
 470              	.LFB34:
 449:..\..\..\liblc3\src/ltpf.c **** #endif /* dot */
 450:..\..\..\liblc3\src/ltpf.c **** 
 451:..\..\..\liblc3\src/ltpf.c **** /**
 452:..\..\..\liblc3\src/ltpf.c ****  * Return vector of correlations
 453:..\..\..\liblc3\src/ltpf.c ****  * a, b, n         The 2 vector of size `n` (> 0 and <= 128)
 454:..\..\..\liblc3\src/ltpf.c ****  * y, nc           Output the correlation vector of size `nc`
 455:..\..\..\liblc3\src/ltpf.c ****  *
 456:..\..\..\liblc3\src/ltpf.c ****  * The first vector `a` is aligned of 32 bits
 457:..\..\..\liblc3\src/ltpf.c ****  * The size `n` of vectors is multiple of 16, and less or equal to 128
 458:..\..\..\liblc3\src/ltpf.c ****  */
 459:..\..\..\liblc3\src/ltpf.c **** #ifndef correlate
 460:..\..\..\liblc3\src/ltpf.c **** LC3_HOT static void correlate(
 461:..\..\..\liblc3\src/ltpf.c ****     const int16_t *a, const int16_t *b, int n, float *y, int nc)
 462:..\..\..\liblc3\src/ltpf.c **** {
 463:..\..\..\liblc3\src/ltpf.c ****     for (const float *ye = y + nc; y < ye; )
 464:..\..\..\liblc3\src/ltpf.c ****         *(y++) = dot(a, b--, n);
 465:..\..\..\liblc3\src/ltpf.c **** }
 466:..\..\..\liblc3\src/ltpf.c **** #endif /* correlate */
 467:..\..\..\liblc3\src/ltpf.c **** 
 468:..\..\..\liblc3\src/ltpf.c **** /**
 469:..\..\..\liblc3\src/ltpf.c ****  * Search the maximum value and returns its argument
 470:..\..\..\liblc3\src/ltpf.c ****  * x, n            The input vector of size `n`
 471:..\..\..\liblc3\src/ltpf.c ****  * x_max           Return the maximum value
 472:..\..\..\liblc3\src/ltpf.c ****  * return          Return the argument of the maximum
 473:..\..\..\liblc3\src/ltpf.c ****  */
 474:..\..\..\liblc3\src/ltpf.c **** LC3_HOT static int argmax(const float *x, int n, float *x_max)
 475:..\..\..\liblc3\src/ltpf.c **** {
 476:..\..\..\liblc3\src/ltpf.c ****     int arg = 0;
 477:..\..\..\liblc3\src/ltpf.c **** 
 478:..\..\..\liblc3\src/ltpf.c ****     *x_max = x[arg = 0];
 479:..\..\..\liblc3\src/ltpf.c ****     for (int i = 1; i < n; i++)
 480:..\..\..\liblc3\src/ltpf.c ****         if (*x_max < x[i])
 481:..\..\..\liblc3\src/ltpf.c ****             *x_max = x[arg = i];
ARM GAS  C:\Users\rdn\AppData\Local\Temp\ccIOjLNc.s 			page 18


 482:..\..\..\liblc3\src/ltpf.c **** 
 483:..\..\..\liblc3\src/ltpf.c ****     return arg;
 484:..\..\..\liblc3\src/ltpf.c **** }
 485:..\..\..\liblc3\src/ltpf.c **** 
 486:..\..\..\liblc3\src/ltpf.c **** /**
 487:..\..\..\liblc3\src/ltpf.c ****  * Search the maximum weithed value and returns its argument
 488:..\..\..\liblc3\src/ltpf.c ****  * x, n            The input vector of size `n`
 489:..\..\..\liblc3\src/ltpf.c ****  * w_incr          Increment of the weight
 490:..\..\..\liblc3\src/ltpf.c ****  * x_max, xw_max   Return the maximum not weighted value
 491:..\..\..\liblc3\src/ltpf.c ****  * return          Return the argument of the weigthed maximum
 492:..\..\..\liblc3\src/ltpf.c ****  */
 493:..\..\..\liblc3\src/ltpf.c **** LC3_HOT static int argmax_weighted(
 494:..\..\..\liblc3\src/ltpf.c ****     const float *x, int n, float w_incr, float *x_max)
 495:..\..\..\liblc3\src/ltpf.c **** {
 496:..\..\..\liblc3\src/ltpf.c ****     int arg;
 497:..\..\..\liblc3\src/ltpf.c **** 
 498:..\..\..\liblc3\src/ltpf.c ****     float xw_max = (*x_max = x[arg = 0]);
 499:..\..\..\liblc3\src/ltpf.c ****     float w = 1 + w_incr;
 500:..\..\..\liblc3\src/ltpf.c **** 
 501:..\..\..\liblc3\src/ltpf.c ****     for (int i = 1; i < n; i++, w += w_incr)
 502:..\..\..\liblc3\src/ltpf.c ****         if (xw_max < x[i] * w)
 503:..\..\..\liblc3\src/ltpf.c ****             xw_max = (*x_max = x[arg = i]) * w;
 504:..\..\..\liblc3\src/ltpf.c **** 
 505:..\..\..\liblc3\src/ltpf.c ****     return arg;
 506:..\..\..\liblc3\src/ltpf.c **** }
 507:..\..\..\liblc3\src/ltpf.c **** 
 508:..\..\..\liblc3\src/ltpf.c **** /**
 509:..\..\..\liblc3\src/ltpf.c ****  * Interpolate from pitch detected value
 510:..\..\..\liblc3\src/ltpf.c ****  * x, n            [-2..-1] Previous, [0..n] Current input
 511:..\..\..\liblc3\src/ltpf.c ****  * d               The phase of interpolation (0 to 3)
 512:..\..\..\liblc3\src/ltpf.c ****  * return          The interpolated vector
 513:..\..\..\liblc3\src/ltpf.c ****  *
 514:..\..\..\liblc3\src/ltpf.c ****  * The size `n` of vectors must be multiple of 4
 515:..\..\..\liblc3\src/ltpf.c ****  */
 516:..\..\..\liblc3\src/ltpf.c **** LC3_HOT static void interpolate(const int16_t *x, int n, int d, int16_t *y)
 517:..\..\..\liblc3\src/ltpf.c **** {
 471              		.loc 1 517 0
 472              		.cfi_startproc
 473              		@ args = 0, pretend = 0, frame = 0
 474              		@ frame_needed = 0, uses_anonymous_args = 0
 475              	.LVL82:
 476 0000 2DE9F043 		push	{r4, r5, r6, r7, r8, r9, lr}
 477              		.cfi_def_cfa_offset 28
 478              		.cfi_offset 4, -28
 479              		.cfi_offset 5, -24
 480              		.cfi_offset 6, -20
 481              		.cfi_offset 7, -16
 482              		.cfi_offset 8, -12
 483              		.cfi_offset 9, -8
 484              		.cfi_offset 14, -4
 518:..\..\..\liblc3\src/ltpf.c ****     static const int16_t h4_q15[][4] = {
 519:..\..\..\liblc3\src/ltpf.c ****         { 6877, 19121,  6877,     0 }, { 3506, 18025, 11000,   220 },
 520:..\..\..\liblc3\src/ltpf.c ****         { 1300, 15048, 15048,  1300 }, {  220, 11000, 18025,  3506 } };
 521:..\..\..\liblc3\src/ltpf.c **** 
 522:..\..\..\liblc3\src/ltpf.c ****     const int16_t *h = h4_q15[d];
 485              		.loc 1 522 0
 486 0004 304C     		ldr	r4, .L29
ARM GAS  C:\Users\rdn\AppData\Local\Temp\ccIOjLNc.s 			page 19


 523:..\..\..\liblc3\src/ltpf.c ****     int16_t x3 = x[-2], x2 = x[-1], x1, x0;
 487              		.loc 1 523 0
 488 0006 30F9025C 		ldrsh	r5, [r0, #-2]
 522:..\..\..\liblc3\src/ltpf.c ****     int16_t x3 = x[-2], x2 = x[-1], x1, x0;
 489              		.loc 1 522 0
 490 000a 04EBC202 		add	r2, r4, r2, lsl #3
 491              	.LVL83:
 492              		.loc 1 523 0
 493 000e 30F9044C 		ldrsh	r4, [r0, #-4]
 494              	.LVL84:
 524:..\..\..\liblc3\src/ltpf.c **** 
 525:..\..\..\liblc3\src/ltpf.c ****     x1 = (*x++);
 495              		.loc 1 525 0
 496 0012 30F9026B 		ldrsh	r6, [r0], #2
 497              	.LVL85:
 498              	.LBB35:
 526:..\..\..\liblc3\src/ltpf.c ****     for (const int16_t *ye = y + n; y < ye; ) {
 499              		.loc 1 526 0
 500 0016 03EB4101 		add	r1, r3, r1, lsl #1
 501              	.LVL86:
 502              	.L26:
 503              		.loc 1 526 0 is_stmt 0 discriminator 1
 504 001a 8B42     		cmp	r3, r1
 505 001c 00F10800 		add	r0, r0, #8
 506 0020 50D2     		bcs	.L28
 507              	.LVL87:
 508              	.LBB36:
 527:..\..\..\liblc3\src/ltpf.c ****         int32_t yn;
 528:..\..\..\liblc3\src/ltpf.c **** 
 529:..\..\..\liblc3\src/ltpf.c ****         yn = (x0 = *(x++)) * h[0] + x1 * h[1] + x2 * h[2] + x3 * h[3];
 509              		.loc 1 529 0 is_stmt 1
 510 0022 B2F902E0 		ldrsh	lr, [r2, #2]
 511 0026 30F908CC 		ldrsh	ip, [r0, #-8]
 512              	.LVL88:
 513 002a B2F90090 		ldrsh	r9, [r2]
 514 002e B2F90480 		ldrsh	r8, [r2, #4]
 515 0032 B2F90670 		ldrsh	r7, [r2, #6]
 516              	.LVL89:
 530:..\..\..\liblc3\src/ltpf.c ****         *(y++) = yn >> 15;
 517              		.loc 1 530 0
 518 0036 06FB0EFE 		mul	lr, r6, lr
 519              	.LVL90:
 520 003a 0CFB09EE 		mla	lr, ip, r9, lr
 521 003e 05FB08EE 		mla	lr, r5, r8, lr
 522 0042 04FB07E4 		mla	r4, r4, r7, lr
 523              	.LVL91:
 524 0046 E413     		asrs	r4, r4, #15
 525 0048 1C80     		strh	r4, [r3]	@ movhi
 526              	.LVL92:
 531:..\..\..\liblc3\src/ltpf.c **** 
 532:..\..\..\liblc3\src/ltpf.c ****         yn = (x3 = *(x++)) * h[0] + x0 * h[1] + x1 * h[2] + x2 * h[3];
 527              		.loc 1 532 0
 528 004a B2F902E0 		ldrsh	lr, [r2, #2]
 529 004e 30F9064C 		ldrsh	r4, [r0, #-6]
 530              	.LVL93:
 531 0052 B2F90090 		ldrsh	r9, [r2]
 532 0056 B2F90480 		ldrsh	r8, [r2, #4]
ARM GAS  C:\Users\rdn\AppData\Local\Temp\ccIOjLNc.s 			page 20


 533 005a B2F90670 		ldrsh	r7, [r2, #6]
 534              	.LVL94:
 533:..\..\..\liblc3\src/ltpf.c ****         *(y++) = yn >> 15;
 535              		.loc 1 533 0
 536 005e 0CFB0EFE 		mul	lr, ip, lr
 537              	.LVL95:
 538 0062 04FB09EE 		mla	lr, r4, r9, lr
 539 0066 06FB08EE 		mla	lr, r6, r8, lr
 540 006a 05FB07E5 		mla	r5, r5, r7, lr
 541              	.LVL96:
 542 006e ED13     		asrs	r5, r5, #15
 543 0070 5D80     		strh	r5, [r3, #2]	@ movhi
 544              	.LVL97:
 534:..\..\..\liblc3\src/ltpf.c **** 
 535:..\..\..\liblc3\src/ltpf.c ****         yn = (x2 = *(x++)) * h[0] + x3 * h[1] + x0 * h[2] + x1 * h[3];
 545              		.loc 1 535 0
 546 0072 B2F90270 		ldrsh	r7, [r2, #2]
 547 0076 30F9045C 		ldrsh	r5, [r0, #-4]
 548              	.LVL98:
 549 007a B2F90090 		ldrsh	r9, [r2]
 550 007e B2F90480 		ldrsh	r8, [r2, #4]
 551 0082 B2F906E0 		ldrsh	lr, [r2, #6]
 552              	.LVL99:
 536:..\..\..\liblc3\src/ltpf.c ****         *(y++) = yn >> 15;
 553              		.loc 1 536 0
 554 0086 6743     		muls	r7, r4, r7
 555              	.LVL100:
 556 0088 05FB0977 		mla	r7, r5, r9, r7
 557 008c 0CFB0877 		mla	r7, ip, r8, r7
 558 0090 06FB0E76 		mla	r6, r6, lr, r7
 559              	.LVL101:
 560 0094 F613     		asrs	r6, r6, #15
 561 0096 9E80     		strh	r6, [r3, #4]	@ movhi
 562              	.LVL102:
 537:..\..\..\liblc3\src/ltpf.c **** 
 538:..\..\..\liblc3\src/ltpf.c ****         yn = (x1 = *(x++)) * h[0] + x2 * h[1] + x3 * h[2] + x0 * h[3];
 563              		.loc 1 538 0
 564 0098 B2F90270 		ldrsh	r7, [r2, #2]
 565 009c 30F9026C 		ldrsh	r6, [r0, #-2]
 566              	.LVL103:
 567 00a0 B2F90090 		ldrsh	r9, [r2]
 568 00a4 B2F90480 		ldrsh	r8, [r2, #4]
 569 00a8 B2F906E0 		ldrsh	lr, [r2, #6]
 570              	.LVL104:
 539:..\..\..\liblc3\src/ltpf.c ****         *(y++) = yn >> 15;
 571              		.loc 1 539 0
 572 00ac 6F43     		muls	r7, r5, r7
 573              	.LVL105:
 574 00ae 06FB0977 		mla	r7, r6, r9, r7
 575 00b2 04FB0877 		mla	r7, r4, r8, r7
 576 00b6 0833     		adds	r3, r3, #8
 577              	.LVL106:
 578 00b8 0CFB0E77 		mla	r7, ip, lr, r7
 579 00bc FF13     		asrs	r7, r7, #15
 580 00be 23F8027C 		strh	r7, [r3, #-2]	@ movhi
 581              	.LVL107:
 582 00c2 AAE7     		b	.L26
ARM GAS  C:\Users\rdn\AppData\Local\Temp\ccIOjLNc.s 			page 21


 583              	.LVL108:
 584              	.L28:
 585              	.LBE36:
 586              	.LBE35:
 540:..\..\..\liblc3\src/ltpf.c ****     }
 541:..\..\..\liblc3\src/ltpf.c **** }
 587              		.loc 1 541 0
 588 00c4 BDE8F083 		pop	{r4, r5, r6, r7, r8, r9, pc}
 589              	.LVL109:
 590              	.L30:
 591              		.align	2
 592              	.L29:
 593 00c8 A0050000 		.word	.LANCHOR0+1440
 594              		.cfi_endproc
 595              	.LFE34:
 596              		.size	interpolate, .-interpolate
 597              		.section	.text.interpolate_corr,"ax",%progbits
 598              		.align	1
 599              		.thumb
 600              		.thumb_func
 601              		.type	interpolate_corr, %function
 602              	interpolate_corr:
 603              	.LFB35:
 542:..\..\..\liblc3\src/ltpf.c **** 
 543:..\..\..\liblc3\src/ltpf.c **** /**
 544:..\..\..\liblc3\src/ltpf.c ****  * Interpolate autocorrelation
 545:..\..\..\liblc3\src/ltpf.c ****  * x               [-4..-1] Previous, [0..4] Current input
 546:..\..\..\liblc3\src/ltpf.c ****  * d               The phase of interpolation (-3 to 3)
 547:..\..\..\liblc3\src/ltpf.c ****  * return          The interpolated value
 548:..\..\..\liblc3\src/ltpf.c ****  */
 549:..\..\..\liblc3\src/ltpf.c **** LC3_HOT static float interpolate_corr(const float *x, int d)
 550:..\..\..\liblc3\src/ltpf.c **** {
 604              		.loc 1 550 0
 605              		.cfi_startproc
 606              		@ args = 0, pretend = 0, frame = 0
 607              		@ frame_needed = 0, uses_anonymous_args = 0
 608              		@ link register save eliminated.
 609              	.LVL110:
 551:..\..\..\liblc3\src/ltpf.c ****     static const float h4[][8] = {
 552:..\..\..\liblc3\src/ltpf.c ****         {  1.53572770e-02, -4.72963246e-02,  8.35788573e-02,  8.98638285e-01,
 553:..\..\..\liblc3\src/ltpf.c ****            8.35788573e-02, -4.72963246e-02,  1.53572770e-02,                 },
 554:..\..\..\liblc3\src/ltpf.c ****         {  2.74547165e-03,  4.59833449e-03, -7.54404636e-02,  8.17488686e-01,
 555:..\..\..\liblc3\src/ltpf.c ****            3.30182571e-01, -1.05835916e-01,  2.86823405e-02, -2.87456116e-03 },
 556:..\..\..\liblc3\src/ltpf.c ****         { -3.00125103e-03,  2.95038503e-02, -1.30305021e-01,  6.03297008e-01,
 557:..\..\..\liblc3\src/ltpf.c ****            6.03297008e-01, -1.30305021e-01,  2.95038503e-02, -3.00125103e-03 },
 558:..\..\..\liblc3\src/ltpf.c ****         { -2.87456116e-03,  2.86823405e-02, -1.05835916e-01,  3.30182571e-01,
 559:..\..\..\liblc3\src/ltpf.c ****            8.17488686e-01, -7.54404636e-02,  4.59833449e-03,  2.74547165e-03 },
 560:..\..\..\liblc3\src/ltpf.c ****     };
 561:..\..\..\liblc3\src/ltpf.c **** 
 562:..\..\..\liblc3\src/ltpf.c ****     const float *h = h4[(4+d) % 4];
 610              		.loc 1 562 0
 611 0000 264A     		ldr	r2, .L36
 612 0002 0B1D     		adds	r3, r1, #4
 613 0004 1A40     		ands	r2, r2, r3
 614 0006 002A     		cmp	r2, #0
 615 0008 BCBF     		itt	lt
 616 000a 02F1FF32 		addlt	r2, r2, #-1
ARM GAS  C:\Users\rdn\AppData\Local\Temp\ccIOjLNc.s 			page 22


 617 000e 62F00302 		ornlt	r2, r2, #3
 618 0012 234B     		ldr	r3, .L36+4
 619 0014 B8BF     		it	lt
 620 0016 0132     		addlt	r2, r2, #1
 563:..\..\..\liblc3\src/ltpf.c **** 
 564:..\..\..\liblc3\src/ltpf.c ****     float y = d < 0 ? x[-4] * *(h++) :
 621              		.loc 1 564 0
 622 0018 0029     		cmp	r1, #0
 562:..\..\..\liblc3\src/ltpf.c **** 
 623              		.loc 1 562 0
 624 001a 03EB4213 		add	r3, r3, r2, lsl #5
 625              	.LVL111:
 626              		.loc 1 564 0
 627 001e 07DA     		bge	.L33
 628              	.LVL112:
 629              		.loc 1 564 0 is_stmt 0 discriminator 1
 630 0020 93ED007A 		vldr.32	s14, [r3]
 631 0024 50ED047A 		vldr.32	s15, [r0, #-16]
 632 0028 0433     		adds	r3, r3, #4
 633              	.LVL113:
 634 002a 27EE877A 		vmul.f32	s14, s15, s14
 635 002e 08E0     		b	.L34
 636              	.L33:
 565:..\..\..\liblc3\src/ltpf.c ****               d > 0 ? x[ 4] * *(h+7) : 0;
 637              		.loc 1 565 0 is_stmt 1
 638 0030 1BBF     		ittet	ne
 639 0032 D0ED047A 		vldrne.32	s15, [r0, #16]
 640 0036 93ED077A 		vldrne.32	s14, [r3, #28]
 641 003a 9FED1A7A 		vldreq.32	s14, .L36+8
 642 003e 27EE877A 		vmulne.f32	s14, s15, s14
 643              	.L34:
 644              	.LVL114:
 566:..\..\..\liblc3\src/ltpf.c **** 
 567:..\..\..\liblc3\src/ltpf.c ****     y += x[-3] * h[0] + x[-2] * h[1] + x[-1] * h[2] + x[0] * h[3] +
 568:..\..\..\liblc3\src/ltpf.c ****          x[ 1] * h[4] + x[ 2] * h[5] + x[ 3] * h[6];
 569:..\..\..\liblc3\src/ltpf.c **** 
 570:..\..\..\liblc3\src/ltpf.c ****     return y;
 645              		.loc 1 570 0 discriminator 2
 646 0042 50ED027A 		vldr.32	s15, [r0, #-8]
 647 0046 93ED010A 		vldr.32	s0, [r3, #4]
 648 004a 50ED036A 		vldr.32	s13, [r0, #-12]
 649 004e 27EE800A 		vmul.f32	s0, s15, s0
 650              	.LVL115:
 651 0052 D3ED007A 		vldr.32	s15, [r3]
 652 0056 A6EEA70A 		vfma.f32	s0, s13, s15
 653              	.LVL116:
 654 005a 50ED016A 		vldr.32	s13, [r0, #-4]
 655 005e D3ED027A 		vldr.32	s15, [r3, #8]
 656 0062 A6EEA70A 		vfma.f32	s0, s13, s15
 657 0066 D0ED006A 		vldr.32	s13, [r0]
 658 006a D3ED037A 		vldr.32	s15, [r3, #12]
 659 006e A6EEA70A 		vfma.f32	s0, s13, s15
 660 0072 D0ED016A 		vldr.32	s13, [r0, #4]
 661 0076 D3ED047A 		vldr.32	s15, [r3, #16]
 662 007a A6EEA70A 		vfma.f32	s0, s13, s15
 663 007e D0ED026A 		vldr.32	s13, [r0, #8]
 664 0082 D3ED057A 		vldr.32	s15, [r3, #20]
ARM GAS  C:\Users\rdn\AppData\Local\Temp\ccIOjLNc.s 			page 23


 665 0086 A6EEA70A 		vfma.f32	s0, s13, s15
 666 008a D0ED036A 		vldr.32	s13, [r0, #12]
 667 008e D3ED067A 		vldr.32	s15, [r3, #24]
 668 0092 A6EEA70A 		vfma.f32	s0, s13, s15
 571:..\..\..\liblc3\src/ltpf.c **** }
 669              		.loc 1 571 0 discriminator 2
 670 0096 30EE070A 		vadd.f32	s0, s0, s14
 671 009a 7047     		bx	lr
 672              	.L37:
 673              		.align	2
 674              	.L36:
 675 009c 03000080 		.word	-2147483645
 676 00a0 C0050000 		.word	.LANCHOR0+1472
 677 00a4 00000000 		.word	0
 678              		.cfi_endproc
 679              	.LFE35:
 680              		.size	interpolate_corr, .-interpolate_corr
 681              		.section	.text.synthesize_template,"ax",%progbits
 682              		.align	1
 683              		.thumb
 684              		.thumb_func
 685              		.type	synthesize_template, %function
 686              	synthesize_template:
 687              	.LFB39:
 572:..\..\..\liblc3\src/ltpf.c **** 
 573:..\..\..\liblc3\src/ltpf.c **** /**
 574:..\..\..\liblc3\src/ltpf.c ****  * Pitch detection algorithm
 575:..\..\..\liblc3\src/ltpf.c ****  * ltpf            Context of analysis
 576:..\..\..\liblc3\src/ltpf.c ****  * x, n            [-114..-17] Previous, [0..n-1] Current 6.4KHz samples
 577:..\..\..\liblc3\src/ltpf.c ****  * tc              Return the pitch-lag estimation
 578:..\..\..\liblc3\src/ltpf.c ****  * return          True when pitch present
 579:..\..\..\liblc3\src/ltpf.c ****  *
 580:..\..\..\liblc3\src/ltpf.c ****  * The `x` vector is aligned on 32 bits
 581:..\..\..\liblc3\src/ltpf.c ****  */
 582:..\..\..\liblc3\src/ltpf.c **** static bool detect_pitch(struct lc3_ltpf_analysis *ltpf,
 583:..\..\..\liblc3\src/ltpf.c ****     const int16_t *x, int n, int *tc)
 584:..\..\..\liblc3\src/ltpf.c **** {
 585:..\..\..\liblc3\src/ltpf.c ****     float rm1, rm2;
 586:..\..\..\liblc3\src/ltpf.c ****     float r[98];
 587:..\..\..\liblc3\src/ltpf.c **** 
 588:..\..\..\liblc3\src/ltpf.c ****     const int r0 = 17, nr = 98;
 589:..\..\..\liblc3\src/ltpf.c ****     int k0 = LC3_MAX(   0, ltpf->tc-4);
 590:..\..\..\liblc3\src/ltpf.c ****     int nk = LC3_MIN(nr-1, ltpf->tc+4) - k0 + 1;
 591:..\..\..\liblc3\src/ltpf.c **** 
 592:..\..\..\liblc3\src/ltpf.c ****     correlate(x, x - r0, n, r, nr);
 593:..\..\..\liblc3\src/ltpf.c **** 
 594:..\..\..\liblc3\src/ltpf.c ****     int t1 = argmax_weighted(r, nr, -.5f/(nr-1), &rm1);
 595:..\..\..\liblc3\src/ltpf.c ****     int t2 = k0 + argmax(r + k0, nk, &rm2);
 596:..\..\..\liblc3\src/ltpf.c **** 
 597:..\..\..\liblc3\src/ltpf.c ****     const int16_t *x1 = x - (r0 + t1);
 598:..\..\..\liblc3\src/ltpf.c ****     const int16_t *x2 = x - (r0 + t2);
 599:..\..\..\liblc3\src/ltpf.c **** 
 600:..\..\..\liblc3\src/ltpf.c ****     float nc1 = rm1 <= 0 ? 0 :
 601:..\..\..\liblc3\src/ltpf.c ****         rm1 / sqrtf(dot(x, x, n) * dot(x1, x1, n));
 602:..\..\..\liblc3\src/ltpf.c **** 
 603:..\..\..\liblc3\src/ltpf.c ****     float nc2 = rm2 <= 0 ? 0 :
 604:..\..\..\liblc3\src/ltpf.c ****         rm2 / sqrtf(dot(x, x, n) * dot(x2, x2, n));
ARM GAS  C:\Users\rdn\AppData\Local\Temp\ccIOjLNc.s 			page 24


 605:..\..\..\liblc3\src/ltpf.c **** 
 606:..\..\..\liblc3\src/ltpf.c ****     int t1sel = nc2 <= 0.85f * nc1;
 607:..\..\..\liblc3\src/ltpf.c ****     ltpf->tc = (t1sel ? t1 : t2);
 608:..\..\..\liblc3\src/ltpf.c **** 
 609:..\..\..\liblc3\src/ltpf.c ****     *tc = r0 + ltpf->tc;
 610:..\..\..\liblc3\src/ltpf.c ****     return (t1sel ? nc1 : nc2) > 0.6f;
 611:..\..\..\liblc3\src/ltpf.c **** }
 612:..\..\..\liblc3\src/ltpf.c **** 
 613:..\..\..\liblc3\src/ltpf.c **** /**
 614:..\..\..\liblc3\src/ltpf.c ****  * Pitch-lag parameter
 615:..\..\..\liblc3\src/ltpf.c ****  * x, n            [-232..-28] Previous, [0..n-1] Current 12.8KHz samples, Q14
 616:..\..\..\liblc3\src/ltpf.c ****  * tc              Pitch-lag estimation
 617:..\..\..\liblc3\src/ltpf.c ****  * pitch           The pitch value, in fixed .4
 618:..\..\..\liblc3\src/ltpf.c ****  * return          The bitstream pitch index value
 619:..\..\..\liblc3\src/ltpf.c ****  *
 620:..\..\..\liblc3\src/ltpf.c ****  * The `x` vector is aligned on 32 bits
 621:..\..\..\liblc3\src/ltpf.c ****  */
 622:..\..\..\liblc3\src/ltpf.c **** static int refine_pitch(const int16_t *x, int n, int tc, int *pitch)
 623:..\..\..\liblc3\src/ltpf.c **** {
 624:..\..\..\liblc3\src/ltpf.c ****     float r[17], rm;
 625:..\..\..\liblc3\src/ltpf.c ****     int e, f;
 626:..\..\..\liblc3\src/ltpf.c **** 
 627:..\..\..\liblc3\src/ltpf.c ****     int r0 = LC3_MAX( 32, 2*tc - 4);
 628:..\..\..\liblc3\src/ltpf.c ****     int nr = LC3_MIN(228, 2*tc + 4) - r0 + 1;
 629:..\..\..\liblc3\src/ltpf.c **** 
 630:..\..\..\liblc3\src/ltpf.c ****     correlate(x, x - (r0 - 4), n, r, nr + 8);
 631:..\..\..\liblc3\src/ltpf.c **** 
 632:..\..\..\liblc3\src/ltpf.c ****     e = r0 + argmax(r + 4, nr, &rm);
 633:..\..\..\liblc3\src/ltpf.c ****     const float *re = r + (e - (r0 - 4));
 634:..\..\..\liblc3\src/ltpf.c **** 
 635:..\..\..\liblc3\src/ltpf.c ****     float dm = interpolate_corr(re, f = 0);
 636:..\..\..\liblc3\src/ltpf.c ****     for (int i = 1; i <= 3; i++) {
 637:..\..\..\liblc3\src/ltpf.c ****         float d;
 638:..\..\..\liblc3\src/ltpf.c **** 
 639:..\..\..\liblc3\src/ltpf.c ****         if (e >= 127 && ((i & 1) | (e >= 157)))
 640:..\..\..\liblc3\src/ltpf.c ****             continue;
 641:..\..\..\liblc3\src/ltpf.c **** 
 642:..\..\..\liblc3\src/ltpf.c ****         if ((d = interpolate_corr(re, i)) > dm)
 643:..\..\..\liblc3\src/ltpf.c ****             dm = d, f = i;
 644:..\..\..\liblc3\src/ltpf.c **** 
 645:..\..\..\liblc3\src/ltpf.c ****         if (e > 32 && (d = interpolate_corr(re, -i)) > dm)
 646:..\..\..\liblc3\src/ltpf.c ****             dm = d, f = -i;
 647:..\..\..\liblc3\src/ltpf.c ****     }
 648:..\..\..\liblc3\src/ltpf.c **** 
 649:..\..\..\liblc3\src/ltpf.c ****     e -=   (f < 0);
 650:..\..\..\liblc3\src/ltpf.c ****     f += 4*(f < 0);
 651:..\..\..\liblc3\src/ltpf.c **** 
 652:..\..\..\liblc3\src/ltpf.c ****     *pitch = 4*e + f;
 653:..\..\..\liblc3\src/ltpf.c ****     return e < 127 ? 4*e +  f       - 128 :
 654:..\..\..\liblc3\src/ltpf.c ****            e < 157 ? 2*e + (f >> 1) + 126 : e + 283;
 655:..\..\..\liblc3\src/ltpf.c **** }
 656:..\..\..\liblc3\src/ltpf.c **** 
 657:..\..\..\liblc3\src/ltpf.c **** /**
 658:..\..\..\liblc3\src/ltpf.c ****  * LTPF Analysis
 659:..\..\..\liblc3\src/ltpf.c ****  */
 660:..\..\..\liblc3\src/ltpf.c **** bool lc3_ltpf_analyse(
 661:..\..\..\liblc3\src/ltpf.c ****     enum lc3_dt dt, enum lc3_srate sr, struct lc3_ltpf_analysis *ltpf,
ARM GAS  C:\Users\rdn\AppData\Local\Temp\ccIOjLNc.s 			page 25


 662:..\..\..\liblc3\src/ltpf.c ****     const int16_t *x, struct lc3_ltpf_data *data)
 663:..\..\..\liblc3\src/ltpf.c **** {
 664:..\..\..\liblc3\src/ltpf.c ****     /* --- Resampling to 12.8 KHz --- */
 665:..\..\..\liblc3\src/ltpf.c **** 
 666:..\..\..\liblc3\src/ltpf.c ****     int z_12k8 = sizeof(ltpf->x_12k8) / sizeof(*ltpf->x_12k8);
 667:..\..\..\liblc3\src/ltpf.c ****     int n_12k8 = (1 + dt) * 32;
 668:..\..\..\liblc3\src/ltpf.c **** 
 669:..\..\..\liblc3\src/ltpf.c ****     memmove(ltpf->x_12k8, ltpf->x_12k8 + n_12k8,
 670:..\..\..\liblc3\src/ltpf.c ****         (z_12k8 - n_12k8) * sizeof(*ltpf->x_12k8));
 671:..\..\..\liblc3\src/ltpf.c **** 
 672:..\..\..\liblc3\src/ltpf.c ****     int16_t *x_12k8 = ltpf->x_12k8 + (z_12k8 - n_12k8);
 673:..\..\..\liblc3\src/ltpf.c **** 
 674:..\..\..\liblc3\src/ltpf.c ****     resample_12k8[sr](&ltpf->hp50, x, x_12k8, n_12k8);
 675:..\..\..\liblc3\src/ltpf.c **** 
 676:..\..\..\liblc3\src/ltpf.c ****     x_12k8 -= (dt == LC3_DT_7M5 ? 44 : 24);
 677:..\..\..\liblc3\src/ltpf.c **** 
 678:..\..\..\liblc3\src/ltpf.c ****     /* --- Resampling to 6.4 KHz --- */
 679:..\..\..\liblc3\src/ltpf.c **** 
 680:..\..\..\liblc3\src/ltpf.c ****     int z_6k4 = sizeof(ltpf->x_6k4) / sizeof(*ltpf->x_6k4);
 681:..\..\..\liblc3\src/ltpf.c ****     int n_6k4 = n_12k8 >> 1;
 682:..\..\..\liblc3\src/ltpf.c **** 
 683:..\..\..\liblc3\src/ltpf.c ****     memmove(ltpf->x_6k4, ltpf->x_6k4 + n_6k4,
 684:..\..\..\liblc3\src/ltpf.c ****         (z_6k4 - n_6k4) * sizeof(*ltpf->x_6k4));
 685:..\..\..\liblc3\src/ltpf.c **** 
 686:..\..\..\liblc3\src/ltpf.c ****     int16_t *x_6k4 = ltpf->x_6k4 + (z_6k4 - n_6k4);
 687:..\..\..\liblc3\src/ltpf.c **** 
 688:..\..\..\liblc3\src/ltpf.c ****     resample_6k4(x_12k8, x_6k4, n_6k4);
 689:..\..\..\liblc3\src/ltpf.c **** 
 690:..\..\..\liblc3\src/ltpf.c ****     /* --- Enlarge for small frame size --- */
 691:..\..\..\liblc3\src/ltpf.c **** 
 692:..\..\..\liblc3\src/ltpf.c ****     if (dt == LC3_DT_2M5) {
 693:..\..\..\liblc3\src/ltpf.c ****         x_12k8 -= n_12k8, x_6k4 -= n_6k4;
 694:..\..\..\liblc3\src/ltpf.c ****         n_12k8 += n_12k8; n_6k4 += n_6k4;
 695:..\..\..\liblc3\src/ltpf.c ****     }
 696:..\..\..\liblc3\src/ltpf.c **** 
 697:..\..\..\liblc3\src/ltpf.c ****     /* --- Pitch detection --- */
 698:..\..\..\liblc3\src/ltpf.c **** 
 699:..\..\..\liblc3\src/ltpf.c ****     int tc, pitch = 0;
 700:..\..\..\liblc3\src/ltpf.c ****     float nc = 0;
 701:..\..\..\liblc3\src/ltpf.c **** 
 702:..\..\..\liblc3\src/ltpf.c ****     bool pitch_present = detect_pitch(ltpf, x_6k4, n_6k4, &tc);
 703:..\..\..\liblc3\src/ltpf.c **** 
 704:..\..\..\liblc3\src/ltpf.c ****     if (pitch_present) {
 705:..\..\..\liblc3\src/ltpf.c ****         int16_t u[128], v[128];
 706:..\..\..\liblc3\src/ltpf.c **** 
 707:..\..\..\liblc3\src/ltpf.c ****         data->pitch_index = refine_pitch(x_12k8, n_12k8, tc, &pitch);
 708:..\..\..\liblc3\src/ltpf.c **** 
 709:..\..\..\liblc3\src/ltpf.c ****         interpolate(x_12k8, n_12k8, 0, u);
 710:..\..\..\liblc3\src/ltpf.c ****         interpolate(x_12k8 - (pitch >> 2), n_12k8, pitch & 3, v);
 711:..\..\..\liblc3\src/ltpf.c **** 
 712:..\..\..\liblc3\src/ltpf.c ****         nc = dot(u, v, n_12k8) / sqrtf(dot(u, u, n_12k8) * dot(v, v, n_12k8));
 713:..\..\..\liblc3\src/ltpf.c ****     }
 714:..\..\..\liblc3\src/ltpf.c **** 
 715:..\..\..\liblc3\src/ltpf.c ****     /* --- Activation --- */
 716:..\..\..\liblc3\src/ltpf.c **** 
 717:..\..\..\liblc3\src/ltpf.c ****      if (ltpf->active) {
 718:..\..\..\liblc3\src/ltpf.c ****         int pitch_diff =
ARM GAS  C:\Users\rdn\AppData\Local\Temp\ccIOjLNc.s 			page 26


 719:..\..\..\liblc3\src/ltpf.c ****             LC3_MAX(pitch, ltpf->pitch) - LC3_MIN(pitch, ltpf->pitch);
 720:..\..\..\liblc3\src/ltpf.c ****         float nc_diff = nc - ltpf->nc[0];
 721:..\..\..\liblc3\src/ltpf.c **** 
 722:..\..\..\liblc3\src/ltpf.c ****         data->active = !lc3_hr(sr) && pitch_present &&
 723:..\..\..\liblc3\src/ltpf.c ****             ((nc > 0.9f) || (nc > 0.84f && pitch_diff < 8 && nc_diff > -0.1f));
 724:..\..\..\liblc3\src/ltpf.c **** 
 725:..\..\..\liblc3\src/ltpf.c ****      } else {
 726:..\..\..\liblc3\src/ltpf.c ****          data->active = !lc3_hr(sr) && pitch_present &&
 727:..\..\..\liblc3\src/ltpf.c ****             ( (dt == LC3_DT_10M || ltpf->nc[1] > 0.94f) &&
 728:..\..\..\liblc3\src/ltpf.c ****               (ltpf->nc[0] > 0.94f && nc > 0.94f) );
 729:..\..\..\liblc3\src/ltpf.c ****      }
 730:..\..\..\liblc3\src/ltpf.c **** 
 731:..\..\..\liblc3\src/ltpf.c ****      ltpf->active = data->active;
 732:..\..\..\liblc3\src/ltpf.c ****      ltpf->pitch = pitch;
 733:..\..\..\liblc3\src/ltpf.c ****      ltpf->nc[1] = ltpf->nc[0];
 734:..\..\..\liblc3\src/ltpf.c ****      ltpf->nc[0] = nc;
 735:..\..\..\liblc3\src/ltpf.c **** 
 736:..\..\..\liblc3\src/ltpf.c ****      return pitch_present;
 737:..\..\..\liblc3\src/ltpf.c **** }
 738:..\..\..\liblc3\src/ltpf.c **** 
 739:..\..\..\liblc3\src/ltpf.c **** 
 740:..\..\..\liblc3\src/ltpf.c **** /* ----------------------------------------------------------------------------
 741:..\..\..\liblc3\src/ltpf.c ****  *  Synthesis
 742:..\..\..\liblc3\src/ltpf.c ****  * -------------------------------------------------------------------------- */
 743:..\..\..\liblc3\src/ltpf.c **** 
 744:..\..\..\liblc3\src/ltpf.c **** /**
 745:..\..\..\liblc3\src/ltpf.c ****  * Width of synthesis filter
 746:..\..\..\liblc3\src/ltpf.c ****  */
 747:..\..\..\liblc3\src/ltpf.c **** 
 748:..\..\..\liblc3\src/ltpf.c **** #define MAX_FILTER_WIDTH \
 749:..\..\..\liblc3\src/ltpf.c ****     (LC3_MAX_SRATE_HZ / 4000)
 750:..\..\..\liblc3\src/ltpf.c **** 
 751:..\..\..\liblc3\src/ltpf.c **** 
 752:..\..\..\liblc3\src/ltpf.c **** /**
 753:..\..\..\liblc3\src/ltpf.c ****  * Synthesis filter template
 754:..\..\..\liblc3\src/ltpf.c ****  * xh, nh          History ring buffer of filtered samples
 755:..\..\..\liblc3\src/ltpf.c ****  * lag             Lag parameter in the ring buffer
 756:..\..\..\liblc3\src/ltpf.c ****  * x0              w-1 previous input samples
 757:..\..\..\liblc3\src/ltpf.c ****  * x, n            Current samples as input, filtered as output
 758:..\..\..\liblc3\src/ltpf.c ****  * c, w            Coefficients `den` then `num`, and width of filter
 759:..\..\..\liblc3\src/ltpf.c ****  * fade            Fading mode of filter  -1: Out  1: In  0: None
 760:..\..\..\liblc3\src/ltpf.c ****  */
 761:..\..\..\liblc3\src/ltpf.c **** LC3_HOT static inline void synthesize_template(
 762:..\..\..\liblc3\src/ltpf.c ****     const float *xh, int nh, int lag,
 763:..\..\..\liblc3\src/ltpf.c ****     const float *x0, float *x, int n,
 764:..\..\..\liblc3\src/ltpf.c ****     const float *c, const int w, int fade)
 765:..\..\..\liblc3\src/ltpf.c **** {
 688              		.loc 1 765 0
 689              		.cfi_startproc
 690              		@ args = 20, pretend = 0, frame = 104
 691              		@ frame_needed = 0, uses_anonymous_args = 0
 692              	.LVL117:
 693 0000 2DE9F04F 		push	{r4, r5, r6, r7, r8, r9, r10, fp, lr}
 694              		.cfi_def_cfa_offset 36
 695              		.cfi_offset 4, -36
 696              		.cfi_offset 5, -32
 697              		.cfi_offset 6, -28
ARM GAS  C:\Users\rdn\AppData\Local\Temp\ccIOjLNc.s 			page 27


 698              		.cfi_offset 7, -24
 699              		.cfi_offset 8, -20
 700              		.cfi_offset 9, -16
 701              		.cfi_offset 10, -12
 702              		.cfi_offset 11, -8
 703              		.cfi_offset 14, -4
 704 0004 9BB0     		sub	sp, sp, #108
 705              		.cfi_def_cfa_offset 144
 766:..\..\..\liblc3\src/ltpf.c ****     float g = (float)(fade <= 0);
 767:..\..\..\liblc3\src/ltpf.c ****     float g_incr = (float)((fade > 0) - (fade < 0)) / n;
 706              		.loc 1 767 0
 707 0006 DDED256A 		vldr.32	s13, [sp, #148]	@ int
 765:..\..\..\liblc3\src/ltpf.c ****     float g = (float)(fade <= 0);
 708              		.loc 1 765 0
 709 000a 289F     		ldr	r7, [sp, #160]
 710 000c 249D     		ldr	r5, [sp, #144]
 711 000e 279C     		ldr	r4, [sp, #156]
 712 0010 9FED676A 		vldr.32	s12, .L67
 766:..\..\..\liblc3\src/ltpf.c ****     float g = (float)(fade <= 0);
 713              		.loc 1 766 0
 714 0014 002F     		cmp	r7, #0
 715              		.loc 1 767 0
 716 0016 CCBF     		ite	gt
 717 0018 0126     		movgt	r6, #1
 718 001a 0026     		movle	r6, #0
 719 001c A6EBD776 		sub	r6, r6, r7, lsr #31
 720 0020 07EE106A 		vmov	s14, r6	@ int
 721 0024 F8EEE66A 		vcvt.f32.s32	s13, s13
 722 0028 B8EEC77A 		vcvt.f32.s32	s14, s14
 768:..\..\..\liblc3\src/ltpf.c ****     float u[MAX_FILTER_WIDTH];
 769:..\..\..\liblc3\src/ltpf.c **** 
 770:..\..\..\liblc3\src/ltpf.c ****     /* --- Load previous samples --- */
 771:..\..\..\liblc3\src/ltpf.c **** 
 772:..\..\..\liblc3\src/ltpf.c ****     lag += (w >> 1);
 723              		.loc 1 772 0
 724 002c 02EB6402 		add	r2, r2, r4, asr #1
 725              	.LVL118:
 767:..\..\..\liblc3\src/ltpf.c ****     float u[MAX_FILTER_WIDTH];
 726              		.loc 1 767 0
 727 0030 87EE265A 		vdiv.f32	s10, s14, s13
 773:..\..\..\liblc3\src/ltpf.c **** 
 774:..\..\..\liblc3\src/ltpf.c ****     const float *y = x - xh < lag ? x + (nh - lag) : x - lag;
 728              		.loc 1 774 0
 729 0034 A5EB0006 		sub	r6, r5, r0
 765:..\..\..\liblc3\src/ltpf.c ****     float g = (float)(fade <= 0);
 730              		.loc 1 765 0
 731 0038 9A46     		mov	r10, r3
 732              	.LBB37:
 775:..\..\..\liblc3\src/ltpf.c ****     const float *y_end = xh + nh - 1;
 776:..\..\..\liblc3\src/ltpf.c **** 
 777:..\..\..\liblc3\src/ltpf.c ****     for (int j = 0; j < w-1; j++) {
 733              		.loc 1 777 0
 734 003a 02AF     		add	r7, sp, #8
 735              	.LBE37:
 766:..\..\..\liblc3\src/ltpf.c ****     float g_incr = (float)((fade > 0) - (fade < 0)) / n;
 736              		.loc 1 766 0
 737 003c F7EE007A 		vmov.f32	s15, #1.0e+0
ARM GAS  C:\Users\rdn\AppData\Local\Temp\ccIOjLNc.s 			page 28


 738 0040 C8BF     		it	gt
 739 0042 F0EE467A 		vmovgt.f32	s15, s12
 740              	.LVL119:
 774:..\..\..\liblc3\src/ltpf.c ****     const float *y_end = xh + nh - 1;
 741              		.loc 1 774 0
 742 0046 B2EBA60F 		cmp	r2, r6, asr #2
 743 004a C8BF     		it	gt
 744 004c 8A1A     		subgt	r2, r1, r2
 745              	.LVL120:
 775:..\..\..\liblc3\src/ltpf.c ****     const float *y_end = xh + nh - 1;
 746              		.loc 1 775 0
 747 004e 01F18041 		add	r1, r1, #1073741824
 748              	.LVL121:
 749 0052 01F1FF31 		add	r1, r1, #-1
 750              	.LVL122:
 751 0056 00EB8101 		add	r1, r0, r1, lsl #2
 752              	.LVL123:
 753 005a 0091     		str	r1, [sp]
 754 005c 2699     		ldr	r1, [sp, #152]
 774:..\..\..\liblc3\src/ltpf.c ****     const float *y_end = xh + nh - 1;
 755              		.loc 1 774 0
 756 005e C8BF     		it	gt
 757 0060 05EB8202 		addgt	r2, r5, r2, lsl #2
 758 0064 01EB8408 		add	r8, r1, r4, lsl #2
 759 0068 D8BF     		it	le
 760 006a A5EB8202 		suble	r2, r5, r2, lsl #2
 761              	.LVL124:
 762              	.LBB41:
 763              		.loc 1 777 0
 764 006e 0021     		movs	r1, #0
 765 0070 661E     		subs	r6, r4, #1
 766              	.LVL125:
 767              	.L42:
 768              		.loc 1 777 0 is_stmt 0 discriminator 1
 769 0072 B142     		cmp	r1, r6
 770 0074 31DA     		bge	.L61
 771              	.LBB38:
 778:..\..\..\liblc3\src/ltpf.c **** 
 779:..\..\..\liblc3\src/ltpf.c ****         u[j] = 0;
 780:..\..\..\liblc3\src/ltpf.c **** 
 781:..\..\..\liblc3\src/ltpf.c ****         float yi = *y, xi = *(x0++);
 782:..\..\..\liblc3\src/ltpf.c ****         y = y < y_end ? y + 1 : xh;
 772              		.loc 1 782 0 is_stmt 1
 773 0076 009B     		ldr	r3, [sp]
 781:..\..\..\liblc3\src/ltpf.c ****         y = y < y_end ? y + 1 : xh;
 774              		.loc 1 781 0
 775 0078 92ED007A 		vldr.32	s14, [r2]
 776              	.LVL126:
 779:..\..\..\liblc3\src/ltpf.c **** 
 777              		.loc 1 779 0
 778 007c A7EC016A 		vstmia.32	r7!, {s12}
 779              		.loc 1 782 0
 780 0080 9A42     		cmp	r2, r3
 781:..\..\..\liblc3\src/ltpf.c ****         y = y < y_end ? y + 1 : xh;
 781              		.loc 1 781 0
 782 0082 FAEC015A 		vldmia.32	r10!, {s11}
 783              	.LVL127:
ARM GAS  C:\Users\rdn\AppData\Local\Temp\ccIOjLNc.s 			page 29


 784 0086 DDF89890 		ldr	r9, [sp, #152]
 785              		.loc 1 782 0
 786 008a 34BF     		ite	cc
 787 008c 0432     		addcc	r2, r2, #4
 788              	.LVL128:
 789 008e 0246     		movcs	r2, r0
 790              	.LVL129:
 791              	.LBB39:
 783:..\..\..\liblc3\src/ltpf.c **** 
 784:..\..\..\liblc3\src/ltpf.c ****         for (int k = 0; k <= j; k++)
 792              		.loc 1 784 0
 793 0090 BC46     		mov	ip, r7
 794 0092 4FF0000E 		mov	lr, #0
 785:..\..\..\liblc3\src/ltpf.c ****             u[j-k] -= yi * c[k];
 795              		.loc 1 785 0
 796 0096 B1EE477A 		vneg.f32	s14, s14
 797              	.LVL130:
 798              	.L44:
 784:..\..\..\liblc3\src/ltpf.c ****             u[j-k] -= yi * c[k];
 799              		.loc 1 784 0 discriminator 1
 800 009a 7145     		cmp	r1, lr
 801 009c 0ADB     		blt	.L62
 802              		.loc 1 785 0 discriminator 3
 803 009e 7CED016A 		vldmdb.32	ip!, {s13}
 804 00a2 F9EC014A 		vldmia.32	r9!, {s9}
 805 00a6 E7EE246A 		vfma.f32	s13, s14, s9
 784:..\..\..\liblc3\src/ltpf.c ****             u[j-k] -= yi * c[k];
 806              		.loc 1 784 0 discriminator 3
 807 00aa 0EF1010E 		add	lr, lr, #1
 808              	.LVL131:
 809              		.loc 1 785 0 discriminator 3
 810 00ae CCED006A 		vstr.32	s13, [ip]
 811 00b2 F2E7     		b	.L44
 812              	.L62:
 813 00b4 C146     		mov	r9, r8
 814 00b6 BC46     		mov	ip, r7
 815 00b8 4FF0000E 		mov	lr, #0
 816              	.LVL132:
 817              	.L46:
 818              	.LBE39:
 819              	.LBB40:
 786:..\..\..\liblc3\src/ltpf.c **** 
 787:..\..\..\liblc3\src/ltpf.c ****         for (int k = 0; k <= j; k++)
 820              		.loc 1 787 0 discriminator 1
 821 00bc 7145     		cmp	r1, lr
 822 00be 0ADB     		blt	.L63
 788:..\..\..\liblc3\src/ltpf.c ****             u[j-k] += xi * c[w+k];
 823              		.loc 1 788 0 discriminator 3
 824 00c0 3CED017A 		vldmdb.32	ip!, {s14}
 825 00c4 F9EC016A 		vldmia.32	r9!, {s13}
 826 00c8 A5EEA67A 		vfma.f32	s14, s11, s13
 787:..\..\..\liblc3\src/ltpf.c ****             u[j-k] += xi * c[w+k];
 827              		.loc 1 787 0 discriminator 3
 828 00cc 0EF1010E 		add	lr, lr, #1
 829              	.LVL133:
 830              		.loc 1 788 0 discriminator 3
 831 00d0 8CED007A 		vstr.32	s14, [ip]
ARM GAS  C:\Users\rdn\AppData\Local\Temp\ccIOjLNc.s 			page 30


 832 00d4 F2E7     		b	.L46
 833              	.L63:
 834              	.LBE40:
 835              	.LBE38:
 777:..\..\..\liblc3\src/ltpf.c **** 
 836              		.loc 1 777 0 discriminator 2
 837 00d6 0131     		adds	r1, r1, #1
 838              	.LVL134:
 839 00d8 CBE7     		b	.L42
 840              	.LVL135:
 841              	.L61:
 842              	.LBE41:
 789:..\..\..\liblc3\src/ltpf.c ****     }
 790:..\..\..\liblc3\src/ltpf.c **** 
 791:..\..\..\liblc3\src/ltpf.c ****     u[w-1] = 0;
 843              		.loc 1 791 0
 844 00da 1AAB     		add	r3, sp, #104
 845 00dc 03EB8606 		add	r6, r3, r6, lsl #2
 846 00e0 24EAE471 		bic	r1, r4, r4, asr #31
 847              	.LVL136:
 848 00e4 0023     		movs	r3, #0
 849 00e6 8900     		lsls	r1, r1, #2
 850              	.LBB42:
 851              	.LBB43:
 852              	.LBB44:
 792:..\..\..\liblc3\src/ltpf.c **** 
 793:..\..\..\liblc3\src/ltpf.c ****     /* --- Process by filter length --- */
 794:..\..\..\liblc3\src/ltpf.c **** 
 795:..\..\..\liblc3\src/ltpf.c ****     for (int i = 0; i < n; i += w)
 796:..\..\..\liblc3\src/ltpf.c ****         for (int j = 0; j < w; j++, g += g_incr) {
 797:..\..\..\liblc3\src/ltpf.c **** 
 798:..\..\..\liblc3\src/ltpf.c ****             float yi = *y, xi = *x;
 799:..\..\..\liblc3\src/ltpf.c ****             y = y < y_end ? y + 1 : xh;
 800:..\..\..\liblc3\src/ltpf.c **** 
 801:..\..\..\liblc3\src/ltpf.c ****             for (int k = 0; k < w; k++)
 802:..\..\..\liblc3\src/ltpf.c ****                 u[(j+(w-1)-k)%w] -= yi * c[k];
 803:..\..\..\liblc3\src/ltpf.c **** 
 804:..\..\..\liblc3\src/ltpf.c ****             for (int k = 0; k < w; k++)
 805:..\..\..\liblc3\src/ltpf.c ****                 u[(j+(w-1)-k)%w] += xi * c[w+k];
 806:..\..\..\liblc3\src/ltpf.c **** 
 807:..\..\..\liblc3\src/ltpf.c ****             *(x++) = xi - g * u[j];
 808:..\..\..\liblc3\src/ltpf.c ****             u[j] = 0;
 853              		.loc 1 808 0
 854 00e8 07EE103A 		vmov	s14, r3
 855              	.LBE44:
 856              	.LBE43:
 857              	.LBE42:
 791:..\..\..\liblc3\src/ltpf.c **** 
 858              		.loc 1 791 0
 859 00ec 46F8603C 		str	r3, [r6, #-96]	@ float
 860              	.LVL137:
 861 00f0 0191     		str	r1, [sp, #4]
 862              	.LBB50:
 795:..\..\..\liblc3\src/ltpf.c ****         for (int j = 0; j < w; j++, g += g_incr) {
 863              		.loc 1 795 0
 864 00f2 4FF0000C 		mov	ip, #0
 865              	.LVL138:
ARM GAS  C:\Users\rdn\AppData\Local\Temp\ccIOjLNc.s 			page 31


 866              	.L49:
 795:..\..\..\liblc3\src/ltpf.c ****         for (int j = 0; j < w; j++, g += g_incr) {
 867              		.loc 1 795 0 is_stmt 0 discriminator 1
 868 00f6 259B     		ldr	r3, [sp, #148]
 869 00f8 9C45     		cmp	ip, r3
 870 00fa 55DA     		bge	.L38
 871 00fc AE46     		mov	lr, r5
 795:..\..\..\liblc3\src/ltpf.c ****         for (int j = 0; j < w; j++, g += g_incr) {
 872              		.loc 1 795 0
 873 00fe 2146     		mov	r1, r4
 874 0100 02AF     		add	r7, sp, #8
 875              	.LVL139:
 876              	.L57:
 877              	.LBB49:
 796:..\..\..\liblc3\src/ltpf.c **** 
 878              		.loc 1 796 0 is_stmt 1 discriminator 1
 879 0102 0B1B     		subs	r3, r1, r4
 880              	.LVL140:
 881 0104 9C42     		cmp	r4, r3
 882 0106 4BDD     		ble	.L64
 883              	.LBB47:
 799:..\..\..\liblc3\src/ltpf.c **** 
 884              		.loc 1 799 0
 885 0108 009B     		ldr	r3, [sp]
 886              	.LVL141:
 798:..\..\..\liblc3\src/ltpf.c ****             y = y < y_end ? y + 1 : xh;
 887              		.loc 1 798 0
 888 010a 92ED006A 		vldr.32	s12, [r2]
 889              	.LVL142:
 890 010e DEED006A 		vldr.32	s13, [lr]
 891              	.LVL143:
 892 0112 DDF89890 		ldr	r9, [sp, #152]
 799:..\..\..\liblc3\src/ltpf.c **** 
 893              		.loc 1 799 0
 894 0116 9A42     		cmp	r2, r3
 895 0118 34BF     		ite	cc
 896 011a 0432     		addcc	r2, r2, #4
 897              	.LVL144:
 898 011c 0246     		movcs	r2, r0
 899              	.LVL145:
 900              	.LBB45:
 801:..\..\..\liblc3\src/ltpf.c ****                 u[(j+(w-1)-k)%w] -= yi * c[k];
 901              		.loc 1 801 0
 902 011e 0026     		movs	r6, #0
 802:..\..\..\liblc3\src/ltpf.c **** 
 903              		.loc 1 802 0
 904 0120 01F1FF3B 		add	fp, r1, #-1
 905 0124 B1EE466A 		vneg.f32	s12, s12
 906              	.LVL146:
 907              	.L51:
 801:..\..\..\liblc3\src/ltpf.c ****                 u[(j+(w-1)-k)%w] -= yi * c[k];
 908              		.loc 1 801 0 discriminator 1
 909 0128 A642     		cmp	r6, r4
 910 012a 13DA     		bge	.L65
 802:..\..\..\liblc3\src/ltpf.c **** 
 911              		.loc 1 802 0 discriminator 3
 912 012c C6EB0B0A 		rsb	r10, r6, fp
ARM GAS  C:\Users\rdn\AppData\Local\Temp\ccIOjLNc.s 			page 32


 913 0130 9AFBF4F3 		sdiv	r3, r10, r4
 914 0134 04FB13A3 		mls	r3, r4, r3, r10
 915 0138 0DF1680A 		add	r10, sp, #104
 916 013c 0AEB8303 		add	r3, r10, r3, lsl #2
 917 0140 53ED185A 		vldr.32	s11, [r3, #-96]
 918 0144 F9EC014A 		vldmia.32	r9!, {s9}
 919 0148 E6EE245A 		vfma.f32	s11, s12, s9
 801:..\..\..\liblc3\src/ltpf.c ****                 u[(j+(w-1)-k)%w] -= yi * c[k];
 920              		.loc 1 801 0 discriminator 3
 921 014c 0136     		adds	r6, r6, #1
 922              	.LVL147:
 802:..\..\..\liblc3\src/ltpf.c **** 
 923              		.loc 1 802 0 discriminator 3
 924 014e 43ED185A 		vstr.32	s11, [r3, #-96]
 925 0152 E9E7     		b	.L51
 926              	.L65:
 927 0154 C146     		mov	r9, r8
 928 0156 0026     		movs	r6, #0
 929              	.LVL148:
 930              	.LBE45:
 931              	.LBB46:
 805:..\..\..\liblc3\src/ltpf.c **** 
 932              		.loc 1 805 0 discriminator 1
 933 0158 01F1FF3B 		add	fp, r1, #-1
 934              	.L53:
 935              	.LVL149:
 804:..\..\..\liblc3\src/ltpf.c ****                 u[(j+(w-1)-k)%w] += xi * c[w+k];
 936              		.loc 1 804 0 discriminator 1
 937 015c A642     		cmp	r6, r4
 938 015e 13DA     		bge	.L66
 805:..\..\..\liblc3\src/ltpf.c **** 
 939              		.loc 1 805 0 discriminator 3
 940 0160 C6EB0B0A 		rsb	r10, r6, fp
 941 0164 9AFBF4F3 		sdiv	r3, r10, r4
 942 0168 04FB13A3 		mls	r3, r4, r3, r10
 943 016c 0DF1680A 		add	r10, sp, #104
 944 0170 0AEB8303 		add	r3, r10, r3, lsl #2
 945 0174 13ED186A 		vldr.32	s12, [r3, #-96]
 946 0178 F9EC015A 		vldmia.32	r9!, {s11}
 947 017c A6EEA56A 		vfma.f32	s12, s13, s11
 804:..\..\..\liblc3\src/ltpf.c ****                 u[(j+(w-1)-k)%w] += xi * c[w+k];
 948              		.loc 1 804 0 discriminator 3
 949 0180 0136     		adds	r6, r6, #1
 950              	.LVL150:
 805:..\..\..\liblc3\src/ltpf.c **** 
 951              		.loc 1 805 0 discriminator 3
 952 0182 03ED186A 		vstr.32	s12, [r3, #-96]
 953 0186 E9E7     		b	.L53
 954              	.L66:
 955              	.LBE46:
 807:..\..\..\liblc3\src/ltpf.c ****             u[j] = 0;
 956              		.loc 1 807 0 discriminator 2
 957 0188 97ED006A 		vldr.32	s12, [r7]
 958              		.loc 1 808 0 discriminator 2
 959 018c A7EC017A 		vstmia.32	r7!, {s14}
 960              	.LVL151:
 807:..\..\..\liblc3\src/ltpf.c ****             u[j] = 0;
ARM GAS  C:\Users\rdn\AppData\Local\Temp\ccIOjLNc.s 			page 33


 961              		.loc 1 807 0 discriminator 2
 962 0190 E7EEC66A 		vfms.f32	s13, s15, s12
 963              	.LVL152:
 964 0194 0131     		adds	r1, r1, #1
 965              	.LBE47:
 796:..\..\..\liblc3\src/ltpf.c **** 
 966              		.loc 1 796 0 discriminator 2
 967 0196 77EE857A 		vadd.f32	s15, s15, s10
 968              	.LVL153:
 969              	.LBB48:
 807:..\..\..\liblc3\src/ltpf.c ****             u[j] = 0;
 970              		.loc 1 807 0 discriminator 2
 971 019a EEEC016A 		vstmia.32	lr!, {s13}
 972              	.LVL154:
 973 019e B0E7     		b	.L57
 974              	.LVL155:
 975              	.L64:
 976 01a0 019B     		ldr	r3, [sp, #4]
 977              	.LVL156:
 978              	.LBE48:
 979              	.LBE49:
 795:..\..\..\liblc3\src/ltpf.c ****         for (int j = 0; j < w; j++, g += g_incr) {
 980              		.loc 1 795 0 discriminator 2
 981 01a2 A444     		add	ip, ip, r4
 982              	.LVL157:
 983 01a4 1D44     		add	r5, r5, r3
 984 01a6 A6E7     		b	.L49
 985              	.LVL158:
 986              	.L38:
 987              	.LBE50:
 809:..\..\..\liblc3\src/ltpf.c ****         }
 810:..\..\..\liblc3\src/ltpf.c **** }
 988              		.loc 1 810 0
 989 01a8 1BB0     		add	sp, sp, #108
 990              		.cfi_def_cfa_offset 36
 991              	.LVL159:
 992              		@ sp needed
 993 01aa BDE8F08F 		pop	{r4, r5, r6, r7, r8, r9, r10, fp, pc}
 994              	.LVL160:
 995              	.L68:
 996 01ae 00BF     		.align	2
 997              	.L67:
 998 01b0 00000000 		.word	0
 999              		.cfi_endproc
 1000              	.LFE39:
 1001              		.size	synthesize_template, .-synthesize_template
 1002              		.section	.text.synthesize_4,"ax",%progbits
 1003              		.align	1
 1004              		.thumb
 1005              		.thumb_func
 1006              		.type	synthesize_4, %function
 1007              	synthesize_4:
 1008              	.LFB40:
 811:..\..\..\liblc3\src/ltpf.c **** 
 812:..\..\..\liblc3\src/ltpf.c **** /**
 813:..\..\..\liblc3\src/ltpf.c ****  * Synthesis filter for each samplerates (width of filter)
 814:..\..\..\liblc3\src/ltpf.c ****  */
ARM GAS  C:\Users\rdn\AppData\Local\Temp\ccIOjLNc.s 			page 34


 815:..\..\..\liblc3\src/ltpf.c **** 
 816:..\..\..\liblc3\src/ltpf.c **** 
 817:..\..\..\liblc3\src/ltpf.c **** LC3_HOT static void synthesize_4(const float *xh, int nh, int lag,
 818:..\..\..\liblc3\src/ltpf.c ****     const float *x0, float *x, int n, const float *c, int fade)
 819:..\..\..\liblc3\src/ltpf.c **** {
 1009              		.loc 1 819 0
 1010              		.cfi_startproc
 1011              		@ args = 16, pretend = 0, frame = 0
 1012              		@ frame_needed = 0, uses_anonymous_args = 0
 1013              	.LVL161:
 1014 0000 10B5     		push	{r4, lr}
 1015              		.cfi_def_cfa_offset 8
 1016              		.cfi_offset 4, -8
 1017              		.cfi_offset 14, -4
 1018 0002 86B0     		sub	sp, sp, #24
 1019              		.cfi_def_cfa_offset 32
 820:..\..\..\liblc3\src/ltpf.c ****     synthesize_template(xh, nh, lag, x0, x, n, c, 4, fade);
 1020              		.loc 1 820 0
 1021 0004 0B9C     		ldr	r4, [sp, #44]
 1022 0006 0494     		str	r4, [sp, #16]
 1023 0008 0424     		movs	r4, #4
 1024 000a 0394     		str	r4, [sp, #12]
 1025 000c 0A9C     		ldr	r4, [sp, #40]
 1026 000e 0294     		str	r4, [sp, #8]
 1027 0010 099C     		ldr	r4, [sp, #36]
 1028 0012 0194     		str	r4, [sp, #4]
 1029 0014 089C     		ldr	r4, [sp, #32]
 1030 0016 0094     		str	r4, [sp]
 1031 0018 FFF7FEFF 		bl	synthesize_template
 1032              	.LVL162:
 821:..\..\..\liblc3\src/ltpf.c **** }
 1033              		.loc 1 821 0
 1034 001c 06B0     		add	sp, sp, #24
 1035              		.cfi_def_cfa_offset 8
 1036              		@ sp needed
 1037 001e 10BD     		pop	{r4, pc}
 1038              		.cfi_endproc
 1039              	.LFE40:
 1040              		.size	synthesize_4, .-synthesize_4
 1041              		.section	.text.synthesize_6,"ax",%progbits
 1042              		.align	1
 1043              		.thumb
 1044              		.thumb_func
 1045              		.type	synthesize_6, %function
 1046              	synthesize_6:
 1047              	.LFB41:
 822:..\..\..\liblc3\src/ltpf.c **** 
 823:..\..\..\liblc3\src/ltpf.c **** LC3_HOT static void synthesize_6(const float *xh, int nh, int lag,
 824:..\..\..\liblc3\src/ltpf.c ****     const float *x0, float *x, int n, const float *c, int fade)
 825:..\..\..\liblc3\src/ltpf.c **** {
 1048              		.loc 1 825 0
 1049              		.cfi_startproc
 1050              		@ args = 16, pretend = 0, frame = 0
 1051              		@ frame_needed = 0, uses_anonymous_args = 0
 1052              	.LVL163:
 1053 0000 10B5     		push	{r4, lr}
 1054              		.cfi_def_cfa_offset 8
ARM GAS  C:\Users\rdn\AppData\Local\Temp\ccIOjLNc.s 			page 35


 1055              		.cfi_offset 4, -8
 1056              		.cfi_offset 14, -4
 1057 0002 86B0     		sub	sp, sp, #24
 1058              		.cfi_def_cfa_offset 32
 826:..\..\..\liblc3\src/ltpf.c ****     synthesize_template(xh, nh, lag, x0, x, n, c, 6, fade);
 1059              		.loc 1 826 0
 1060 0004 0B9C     		ldr	r4, [sp, #44]
 1061 0006 0494     		str	r4, [sp, #16]
 1062 0008 0624     		movs	r4, #6
 1063 000a 0394     		str	r4, [sp, #12]
 1064 000c 0A9C     		ldr	r4, [sp, #40]
 1065 000e 0294     		str	r4, [sp, #8]
 1066 0010 099C     		ldr	r4, [sp, #36]
 1067 0012 0194     		str	r4, [sp, #4]
 1068 0014 089C     		ldr	r4, [sp, #32]
 1069 0016 0094     		str	r4, [sp]
 1070 0018 FFF7FEFF 		bl	synthesize_template
 1071              	.LVL164:
 827:..\..\..\liblc3\src/ltpf.c **** }
 1072              		.loc 1 827 0
 1073 001c 06B0     		add	sp, sp, #24
 1074              		.cfi_def_cfa_offset 8
 1075              		@ sp needed
 1076 001e 10BD     		pop	{r4, pc}
 1077              		.cfi_endproc
 1078              	.LFE41:
 1079              		.size	synthesize_6, .-synthesize_6
 1080              		.section	.text.synthesize_8,"ax",%progbits
 1081              		.align	1
 1082              		.thumb
 1083              		.thumb_func
 1084              		.type	synthesize_8, %function
 1085              	synthesize_8:
 1086              	.LFB42:
 828:..\..\..\liblc3\src/ltpf.c **** 
 829:..\..\..\liblc3\src/ltpf.c **** LC3_HOT static void synthesize_8(const float *xh, int nh, int lag,
 830:..\..\..\liblc3\src/ltpf.c ****     const float *x0, float *x, int n, const float *c, int fade)
 831:..\..\..\liblc3\src/ltpf.c **** {
 1087              		.loc 1 831 0
 1088              		.cfi_startproc
 1089              		@ args = 16, pretend = 0, frame = 0
 1090              		@ frame_needed = 0, uses_anonymous_args = 0
 1091              	.LVL165:
 1092 0000 10B5     		push	{r4, lr}
 1093              		.cfi_def_cfa_offset 8
 1094              		.cfi_offset 4, -8
 1095              		.cfi_offset 14, -4
 1096 0002 86B0     		sub	sp, sp, #24
 1097              		.cfi_def_cfa_offset 32
 832:..\..\..\liblc3\src/ltpf.c ****     synthesize_template(xh, nh, lag, x0, x, n, c, 8, fade);
 1098              		.loc 1 832 0
 1099 0004 0B9C     		ldr	r4, [sp, #44]
 1100 0006 0494     		str	r4, [sp, #16]
 1101 0008 0824     		movs	r4, #8
 1102 000a 0394     		str	r4, [sp, #12]
 1103 000c 0A9C     		ldr	r4, [sp, #40]
 1104 000e 0294     		str	r4, [sp, #8]
ARM GAS  C:\Users\rdn\AppData\Local\Temp\ccIOjLNc.s 			page 36


 1105 0010 099C     		ldr	r4, [sp, #36]
 1106 0012 0194     		str	r4, [sp, #4]
 1107 0014 089C     		ldr	r4, [sp, #32]
 1108 0016 0094     		str	r4, [sp]
 1109 0018 FFF7FEFF 		bl	synthesize_template
 1110              	.LVL166:
 833:..\..\..\liblc3\src/ltpf.c **** }
 1111              		.loc 1 833 0
 1112 001c 06B0     		add	sp, sp, #24
 1113              		.cfi_def_cfa_offset 8
 1114              		@ sp needed
 1115 001e 10BD     		pop	{r4, pc}
 1116              		.cfi_endproc
 1117              	.LFE42:
 1118              		.size	synthesize_8, .-synthesize_8
 1119              		.section	.text.synthesize_12,"ax",%progbits
 1120              		.align	1
 1121              		.thumb
 1122              		.thumb_func
 1123              		.type	synthesize_12, %function
 1124              	synthesize_12:
 1125              	.LFB43:
 834:..\..\..\liblc3\src/ltpf.c **** 
 835:..\..\..\liblc3\src/ltpf.c **** LC3_HOT static void synthesize_12(const float *xh, int nh, int lag,
 836:..\..\..\liblc3\src/ltpf.c ****     const float *x0, float *x, int n, const float *c, int fade)
 837:..\..\..\liblc3\src/ltpf.c **** {
 1126              		.loc 1 837 0
 1127              		.cfi_startproc
 1128              		@ args = 16, pretend = 0, frame = 0
 1129              		@ frame_needed = 0, uses_anonymous_args = 0
 1130              	.LVL167:
 1131 0000 10B5     		push	{r4, lr}
 1132              		.cfi_def_cfa_offset 8
 1133              		.cfi_offset 4, -8
 1134              		.cfi_offset 14, -4
 1135 0002 86B0     		sub	sp, sp, #24
 1136              		.cfi_def_cfa_offset 32
 838:..\..\..\liblc3\src/ltpf.c ****     synthesize_template(xh, nh, lag, x0, x, n, c, 12, fade);
 1137              		.loc 1 838 0
 1138 0004 0B9C     		ldr	r4, [sp, #44]
 1139 0006 0494     		str	r4, [sp, #16]
 1140 0008 0C24     		movs	r4, #12
 1141 000a 0394     		str	r4, [sp, #12]
 1142 000c 0A9C     		ldr	r4, [sp, #40]
 1143 000e 0294     		str	r4, [sp, #8]
 1144 0010 099C     		ldr	r4, [sp, #36]
 1145 0012 0194     		str	r4, [sp, #4]
 1146 0014 089C     		ldr	r4, [sp, #32]
 1147 0016 0094     		str	r4, [sp]
 1148 0018 FFF7FEFF 		bl	synthesize_template
 1149              	.LVL168:
 839:..\..\..\liblc3\src/ltpf.c **** }
 1150              		.loc 1 839 0
 1151 001c 06B0     		add	sp, sp, #24
 1152              		.cfi_def_cfa_offset 8
 1153              		@ sp needed
 1154 001e 10BD     		pop	{r4, pc}
ARM GAS  C:\Users\rdn\AppData\Local\Temp\ccIOjLNc.s 			page 37


 1155              		.cfi_endproc
 1156              	.LFE43:
 1157              		.size	synthesize_12, .-synthesize_12
 1158              		.section	.text.resample_x64k_12k8,"ax",%progbits
 1159              		.align	1
 1160              		.thumb
 1161              		.thumb_func
 1162              		.type	resample_x64k_12k8, %function
 1163              	resample_x64k_12k8:
 1164              	.LFB21:
 215:..\..\..\liblc3\src/ltpf.c ****     const int w = 2*(40 / p);
 1165              		.loc 1 215 0
 1166              		.cfi_startproc
 1167              		@ args = 8, pretend = 0, frame = 8
 1168              		@ frame_needed = 0, uses_anonymous_args = 0
 1169              	.LVL169:
 1170 0000 2DE9F74F 		push	{r0, r1, r2, r4, r5, r6, r7, r8, r9, r10, fp, lr}
 1171              		.cfi_def_cfa_offset 48
 1172              		.cfi_offset 4, -36
 1173              		.cfi_offset 5, -32
 1174              		.cfi_offset 6, -28
 1175              		.cfi_offset 7, -24
 1176              		.cfi_offset 8, -20
 1177              		.cfi_offset 9, -16
 1178              		.cfi_offset 10, -12
 1179              		.cfi_offset 11, -8
 1180              		.cfi_offset 14, -4
 215:..\..\..\liblc3\src/ltpf.c ****     const int w = 2*(40 / p);
 1181              		.loc 1 215 0
 1182 0004 8946     		mov	r9, r1
 1183 0006 9846     		mov	r8, r3
 1184 0008 0D99     		ldr	r1, [sp, #52]
 1185              	.LVL170:
 216:..\..\..\liblc3\src/ltpf.c **** 
 1186              		.loc 1 216 0
 1187 000a 2823     		movs	r3, #40
 1188              	.LVL171:
 1189 000c 93FBF0F3 		sdiv	r3, r3, r0
 1190 0010 5B00     		lsls	r3, r3, #1
 1191              	.LVL172:
 218:..\..\..\liblc3\src/ltpf.c **** 
 1192              		.loc 1 218 0
 1193 0012 5C00     		lsls	r4, r3, #1
 1194              	.LBB56:
 220:..\..\..\liblc3\src/ltpf.c ****         const int16_t *hn = h + (i % p) * w;
 1195              		.loc 1 220 0
 1196 0014 01EB810A 		add	r10, r1, r1, lsl #2
 1197              	.LBE56:
 218:..\..\..\liblc3\src/ltpf.c **** 
 1198              		.loc 1 218 0
 1199 0018 C4F1020B 		rsb	fp, r4, #2
 1200              	.LVL173:
 1201              	.LBB65:
 220:..\..\..\liblc3\src/ltpf.c ****         const int16_t *hn = h + (i % p) * w;
 1202              		.loc 1 220 0
 1203 001c 0021     		movs	r1, #0
 1204              	.LVL174:
ARM GAS  C:\Users\rdn\AppData\Local\Temp\ccIOjLNc.s 			page 38


 1205              	.L74:
 220:..\..\..\liblc3\src/ltpf.c ****         const int16_t *hn = h + (i % p) * w;
 1206              		.loc 1 220 0 is_stmt 0 discriminator 1
 1207 001e 5145     		cmp	r1, r10
 1208 0020 80F28180 		bge	.L78
 1209              	.LVL175:
 1210 0024 91FBF0F6 		sdiv	r6, r1, r0
 1211 0028 00FB1617 		mls	r7, r0, r6, r1
 1212 002c 5F43     		muls	r7, r3, r7
 1213 002e 0BEB4606 		add	r6, fp, r6, lsl #1
 1214              	.LBB57:
 1215              	.LBB58:
 225:..\..\..\liblc3\src/ltpf.c ****             un += *(xn++) * *(hn++);
 1216              		.loc 1 225 0 is_stmt 1
 1217 0032 4FF0000E 		mov	lr, #0
 1218 0036 09EB4707 		add	r7, r9, r7, lsl #1
 1219 003a 4644     		add	r6, r6, r8
 1220              	.LBE58:
 223:..\..\..\liblc3\src/ltpf.c **** 
 1221              		.loc 1 223 0
 1222 003c F446     		mov	ip, lr
 1223              	.LVL176:
 1224              	.L75:
 1225              	.LBB59:
 225:..\..\..\liblc3\src/ltpf.c ****             un += *(xn++) * *(hn++);
 1226              		.loc 1 225 0 discriminator 1
 1227 003e 9E45     		cmp	lr, r3
 1228 0040 07F11407 		add	r7, r7, #20
 1229 0044 06F11406 		add	r6, r6, #20
 1230              	.LVL177:
 1231 0048 3EDA     		bge	.L79
 1232              	.LVL178:
 226:..\..\..\liblc3\src/ltpf.c ****             un += *(xn++) * *(hn++);
 1233              		.loc 1 226 0 discriminator 3
 1234 004a 36F9145C 		ldrsh	r5, [r6, #-20]
 1235              	.LVL179:
 1236 004e 37F9144C 		ldrsh	r4, [r7, #-20]
 1237 0052 05FB04CC 		mla	ip, r5, r4, ip
 1238              	.LVL180:
 227:..\..\..\liblc3\src/ltpf.c ****             un += *(xn++) * *(hn++);
 1239              		.loc 1 227 0 discriminator 3
 1240 0056 37F9124C 		ldrsh	r4, [r7, #-18]
 1241 005a 36F9125C 		ldrsh	r5, [r6, #-18]
 1242              	.LVL181:
 1243 005e 05FB04C5 		mla	r5, r5, r4, ip
 1244              	.LVL182:
 228:..\..\..\liblc3\src/ltpf.c ****             un += *(xn++) * *(hn++);
 1245              		.loc 1 228 0 discriminator 3
 1246 0062 36F910CC 		ldrsh	ip, [r6, #-16]
 1247              	.LVL183:
 1248 0066 37F9104C 		ldrsh	r4, [r7, #-16]
 1249 006a 0CFB0454 		mla	r4, ip, r4, r5
 1250              	.LVL184:
 229:..\..\..\liblc3\src/ltpf.c ****             un += *(xn++) * *(hn++);
 1251              		.loc 1 229 0 discriminator 3
 1252 006e 37F90E5C 		ldrsh	r5, [r7, #-14]
 1253 0072 36F90ECC 		ldrsh	ip, [r6, #-14]
ARM GAS  C:\Users\rdn\AppData\Local\Temp\ccIOjLNc.s 			page 39


 1254              	.LVL185:
 1255 0076 0CFB054C 		mla	ip, ip, r5, r4
 1256              	.LVL186:
 230:..\..\..\liblc3\src/ltpf.c ****             un += *(xn++) * *(hn++);
 1257              		.loc 1 230 0 discriminator 3
 1258 007a 37F90C4C 		ldrsh	r4, [r7, #-12]
 1259 007e 36F90C5C 		ldrsh	r5, [r6, #-12]
 1260              	.LVL187:
 1261 0082 05FB04C5 		mla	r5, r5, r4, ip
 1262              	.LVL188:
 231:..\..\..\liblc3\src/ltpf.c ****             un += *(xn++) * *(hn++);
 1263              		.loc 1 231 0 discriminator 3
 1264 0086 36F90ACC 		ldrsh	ip, [r6, #-10]
 1265              	.LVL189:
 1266 008a 37F90A4C 		ldrsh	r4, [r7, #-10]
 1267 008e 0CFB0454 		mla	r4, ip, r4, r5
 1268              	.LVL190:
 232:..\..\..\liblc3\src/ltpf.c ****             un += *(xn++) * *(hn++);
 1269              		.loc 1 232 0 discriminator 3
 1270 0092 37F9085C 		ldrsh	r5, [r7, #-8]
 1271 0096 36F908CC 		ldrsh	ip, [r6, #-8]
 1272              	.LVL191:
 1273 009a 0CFB054C 		mla	ip, ip, r5, r4
 1274              	.LVL192:
 233:..\..\..\liblc3\src/ltpf.c ****             un += *(xn++) * *(hn++);
 1275              		.loc 1 233 0 discriminator 3
 1276 009e 37F9064C 		ldrsh	r4, [r7, #-6]
 1277 00a2 36F9065C 		ldrsh	r5, [r6, #-6]
 1278              	.LVL193:
 1279 00a6 05FB04C5 		mla	r5, r5, r4, ip
 1280              	.LVL194:
 234:..\..\..\liblc3\src/ltpf.c ****             un += *(xn++) * *(hn++);
 1281              		.loc 1 234 0 discriminator 3
 1282 00aa 36F904CC 		ldrsh	ip, [r6, #-4]
 1283              	.LVL195:
 1284 00ae 37F9044C 		ldrsh	r4, [r7, #-4]
 1285 00b2 0CFB0454 		mla	r4, ip, r4, r5
 1286              	.LVL196:
 235:..\..\..\liblc3\src/ltpf.c ****         }
 1287              		.loc 1 235 0 discriminator 3
 1288 00b6 36F902CC 		ldrsh	ip, [r6, #-2]
 1289              	.LVL197:
 1290 00ba 37F9025C 		ldrsh	r5, [r7, #-2]
 225:..\..\..\liblc3\src/ltpf.c ****             un += *(xn++) * *(hn++);
 1291              		.loc 1 225 0 discriminator 3
 1292 00be 0EF10A0E 		add	lr, lr, #10
 1293              	.LVL198:
 235:..\..\..\liblc3\src/ltpf.c ****         }
 1294              		.loc 1 235 0 discriminator 3
 1295 00c2 0CFB054C 		mla	ip, ip, r5, r4
 1296              	.LVL199:
 1297 00c6 BAE7     		b	.L75
 1298              	.LVL200:
 1299              	.L79:
 1300              	.LBE59:
 1301              	.LBB60:
 1302              	.LBB61:
ARM GAS  C:\Users\rdn\AppData\Local\Temp\ccIOjLNc.s 			page 40


 192:..\..\..\liblc3\src/ltpf.c ****     hp50->s1 = (hp50->s2 + (int64_t)xn * b1 - (int64_t)yn * a1);
 1303              		.loc 1 192 0
 1304 00c8 184C     		ldr	r4, .L80
 1305 00ca 8CFB0445 		smull	r4, r5, ip, r4
 1306 00ce CDE90045 		strd	r4, [sp]
 1307 00d2 DDE90067 		ldrd	r6, [sp]
 1308              	.LVL201:
 1309 00d6 D2E90045 		ldrd	r4, [r2]
 1310 00da 3619     		adds	r6, r6, r4
 1311 00dc 6F41     		adcs	r7, r7, r5
 193:..\..\..\liblc3\src/ltpf.c ****     hp50->s2 = (           (int64_t)xn * b2 - (int64_t)yn * a2);
 1312              		.loc 1 193 0
 1313 00de D2E90245 		ldrd	r4, [r2, #8]
 192:..\..\..\liblc3\src/ltpf.c ****     hp50->s1 = (hp50->s2 + (int64_t)xn * b1 - (int64_t)yn * a1);
 1314              		.loc 1 192 0
 1315 00e2 4FEA967E 		lsr	lr, r6, #30
 1316              	.LVL202:
 193:..\..\..\liblc3\src/ltpf.c ****     hp50->s2 = (           (int64_t)xn * b2 - (int64_t)yn * a2);
 1317              		.loc 1 193 0
 1318 00e6 124E     		ldr	r6, .L80+4
 1319 00e8 C6FB0C45 		smlal	r4, r5, r6, ip
 1320 00ec A6F18D66 		sub	r6, r6, #73924608
 1321 00f0 A6F58D26 		sub	r6, r6, #288768
 192:..\..\..\liblc3\src/ltpf.c ****     hp50->s1 = (hp50->s2 + (int64_t)xn * b1 - (int64_t)yn * a1);
 1322              		.loc 1 192 0
 1323 00f4 4EEA870E 		orr	lr, lr, r7, lsl #2
 1324              	.LVL203:
 193:..\..\..\liblc3\src/ltpf.c ****     hp50->s2 = (           (int64_t)xn * b2 - (int64_t)yn * a2);
 1325              		.loc 1 193 0
 1326 00f8 A6F29726 		subw	r6, r6, #663
 1327 00fc C6FB0E45 		smlal	r4, r5, r6, lr
 194:..\..\..\liblc3\src/ltpf.c **** 
 1328              		.loc 1 194 0
 1329 0100 DDE90067 		ldrd	r6, [sp]
 193:..\..\..\liblc3\src/ltpf.c ****     hp50->s2 = (           (int64_t)xn * b2 - (int64_t)yn * a2);
 1330              		.loc 1 193 0
 1331 0104 C2E90045 		strd	r4, [r2]
 194:..\..\..\liblc3\src/ltpf.c **** 
 1332              		.loc 1 194 0
 1333 0108 0A4C     		ldr	r4, .L80+8
 1334 010a C4FB0E67 		smlal	r6, r7, r4, lr
 1335              	.LBE61:
 1336              	.LBE60:
 239:..\..\..\liblc3\src/ltpf.c ****     }
 1337              		.loc 1 239 0
 1338 010e 0C9C     		ldr	r4, [sp, #48]
 1339 0110 0EF5004E 		add	lr, lr, #32768
 1340              	.LVL204:
 1341 0114 4FEA2E4E 		asr	lr, lr, #16
 1342              	.LVL205:
 1343              	.LBB63:
 1344              	.LBB62:
 194:..\..\..\liblc3\src/ltpf.c **** 
 1345              		.loc 1 194 0
 1346 0118 C2E90267 		strd	r6, [r2, #8]
 1347              	.LVL206:
 1348              	.LBE62:
ARM GAS  C:\Users\rdn\AppData\Local\Temp\ccIOjLNc.s 			page 41


 1349              	.LBE63:
 239:..\..\..\liblc3\src/ltpf.c ****     }
 1350              		.loc 1 239 0
 1351 011c 24F802EB 		strh	lr, [r4], #2	@ movhi
 1352              	.LVL207:
 1353              	.LBE57:
 220:..\..\..\liblc3\src/ltpf.c ****         const int16_t *hn = h + (i % p) * w;
 1354              		.loc 1 220 0
 1355 0120 0531     		adds	r1, r1, #5
 1356              	.LVL208:
 1357              	.LBB64:
 239:..\..\..\liblc3\src/ltpf.c ****     }
 1358              		.loc 1 239 0
 1359 0122 0C94     		str	r4, [sp, #48]
 1360              	.LVL209:
 1361 0124 7BE7     		b	.L74
 1362              	.LVL210:
 1363              	.L78:
 1364              	.LBE64:
 1365              	.LBE65:
 241:..\..\..\liblc3\src/ltpf.c **** #endif
 1366              		.loc 1 241 0
 1367 0126 03B0     		add	sp, sp, #12
 1368              		.cfi_def_cfa_offset 36
 1369              		@ sp needed
 1370 0128 BDE8F08F 		pop	{r4, r5, r6, r7, r8, r9, r10, fp, pc}
 1371              	.LVL211:
 1372              	.L81:
 1373              		.align	2
 1374              	.L80:
 1375 012c C61BE63E 		.word	1055267782
 1376 0130 72C83382 		.word	-2110535566
 1377 0134 BFEE2EC2 		.word	-1037111617
 1378              		.cfi_endproc
 1379              	.LFE21:
 1380              		.size	resample_x64k_12k8, .-resample_x64k_12k8
 1381              		.section	.text.resample_8k_12k8,"ax",%progbits
 1382              		.align	1
 1383              		.thumb
 1384              		.thumb_func
 1385              		.type	resample_8k_12k8, %function
 1386              	resample_8k_12k8:
 1387              	.LFB23:
 305:..\..\..\liblc3\src/ltpf.c ****     resample_x64k_12k8(8, h_8k_12k8_q15, hp50, x, y, n);
 1388              		.loc 1 305 0
 1389              		.cfi_startproc
 1390              		@ args = 0, pretend = 0, frame = 0
 1391              		@ frame_needed = 0, uses_anonymous_args = 0
 1392              	.LVL212:
 1393 0000 07B5     		push	{r0, r1, r2, lr}
 1394              		.cfi_def_cfa_offset 16
 1395              		.cfi_offset 14, -4
 306:..\..\..\liblc3\src/ltpf.c **** }
 1396              		.loc 1 306 0
 1397 0002 8DE80C00 		stmia	sp, {r2, r3}
 1398 0006 0B46     		mov	r3, r1
 1399              	.LVL213:
ARM GAS  C:\Users\rdn\AppData\Local\Temp\ccIOjLNc.s 			page 42


 1400 0008 0246     		mov	r2, r0
 1401              	.LVL214:
 1402 000a 0349     		ldr	r1, .L83
 1403              	.LVL215:
 1404 000c 0820     		movs	r0, #8
 1405              	.LVL216:
 1406 000e FFF7FEFF 		bl	resample_x64k_12k8
 1407              	.LVL217:
 307:..\..\..\liblc3\src/ltpf.c **** #endif /* resample_8k_12k8 */
 1408              		.loc 1 307 0
 1409 0012 03B0     		add	sp, sp, #12
 1410              		.cfi_def_cfa_offset 4
 1411              		@ sp needed
 1412 0014 5DF804FB 		ldr	pc, [sp], #4
 1413              	.L84:
 1414              		.align	2
 1415              	.L83:
 1416 0018 40060000 		.word	.LANCHOR0+1600
 1417              		.cfi_endproc
 1418              	.LFE23:
 1419              		.size	resample_8k_12k8, .-resample_8k_12k8
 1420              		.section	.text.resample_16k_12k8,"ax",%progbits
 1421              		.align	1
 1422              		.thumb
 1423              		.thumb_func
 1424              		.type	resample_16k_12k8, %function
 1425              	resample_16k_12k8:
 1426              	.LFB24:
 321:..\..\..\liblc3\src/ltpf.c ****     resample_x64k_12k8(4, h_16k_12k8_q15, hp50, x, y, n);
 1427              		.loc 1 321 0
 1428              		.cfi_startproc
 1429              		@ args = 0, pretend = 0, frame = 0
 1430              		@ frame_needed = 0, uses_anonymous_args = 0
 1431              	.LVL218:
 1432 0000 07B5     		push	{r0, r1, r2, lr}
 1433              		.cfi_def_cfa_offset 16
 1434              		.cfi_offset 14, -4
 322:..\..\..\liblc3\src/ltpf.c **** }
 1435              		.loc 1 322 0
 1436 0002 8DE80C00 		stmia	sp, {r2, r3}
 1437 0006 0B46     		mov	r3, r1
 1438              	.LVL219:
 1439 0008 0246     		mov	r2, r0
 1440              	.LVL220:
 1441 000a 0349     		ldr	r1, .L86
 1442              	.LVL221:
 1443 000c 0420     		movs	r0, #4
 1444              	.LVL222:
 1445 000e FFF7FEFF 		bl	resample_x64k_12k8
 1446              	.LVL223:
 323:..\..\..\liblc3\src/ltpf.c **** #endif /* resample_16k_12k8 */
 1447              		.loc 1 323 0
 1448 0012 03B0     		add	sp, sp, #12
 1449              		.cfi_def_cfa_offset 4
 1450              		@ sp needed
 1451 0014 5DF804FB 		ldr	pc, [sp], #4
 1452              	.L87:
ARM GAS  C:\Users\rdn\AppData\Local\Temp\ccIOjLNc.s 			page 43


 1453              		.align	2
 1454              	.L86:
 1455 0018 E0060000 		.word	.LANCHOR0+1760
 1456              		.cfi_endproc
 1457              	.LFE24:
 1458              		.size	resample_16k_12k8, .-resample_16k_12k8
 1459              		.section	.text.resample_32k_12k8,"ax",%progbits
 1460              		.align	1
 1461              		.thumb
 1462              		.thumb_func
 1463              		.type	resample_32k_12k8, %function
 1464              	resample_32k_12k8:
 1465              	.LFB25:
 337:..\..\..\liblc3\src/ltpf.c ****     resample_x64k_12k8(2, h_32k_12k8_q15, hp50, x, y, n);
 1466              		.loc 1 337 0
 1467              		.cfi_startproc
 1468              		@ args = 0, pretend = 0, frame = 0
 1469              		@ frame_needed = 0, uses_anonymous_args = 0
 1470              	.LVL224:
 1471 0000 07B5     		push	{r0, r1, r2, lr}
 1472              		.cfi_def_cfa_offset 16
 1473              		.cfi_offset 14, -4
 338:..\..\..\liblc3\src/ltpf.c **** }
 1474              		.loc 1 338 0
 1475 0002 8DE80C00 		stmia	sp, {r2, r3}
 1476 0006 0B46     		mov	r3, r1
 1477              	.LVL225:
 1478 0008 0246     		mov	r2, r0
 1479              	.LVL226:
 1480 000a 0349     		ldr	r1, .L89
 1481              	.LVL227:
 1482 000c 0220     		movs	r0, #2
 1483              	.LVL228:
 1484 000e FFF7FEFF 		bl	resample_x64k_12k8
 1485              	.LVL229:
 339:..\..\..\liblc3\src/ltpf.c **** #endif /* resample_32k_12k8 */
 1486              		.loc 1 339 0
 1487 0012 03B0     		add	sp, sp, #12
 1488              		.cfi_def_cfa_offset 4
 1489              		@ sp needed
 1490 0014 5DF804FB 		ldr	pc, [sp], #4
 1491              	.L90:
 1492              		.align	2
 1493              	.L89:
 1494 0018 80070000 		.word	.LANCHOR0+1920
 1495              		.cfi_endproc
 1496              	.LFE25:
 1497              		.size	resample_32k_12k8, .-resample_32k_12k8
 1498              		.section	.text.lc3_ltpf_analyse,"ax",%progbits
 1499              		.align	1
 1500              		.global	lc3_ltpf_analyse
 1501              		.thumb
 1502              		.thumb_func
 1503              		.type	lc3_ltpf_analyse, %function
 1504              	lc3_ltpf_analyse:
 1505              	.LFB38:
 663:..\..\..\liblc3\src/ltpf.c ****     /* --- Resampling to 12.8 KHz --- */
ARM GAS  C:\Users\rdn\AppData\Local\Temp\ccIOjLNc.s 			page 44


 1506              		.loc 1 663 0
 1507              		.cfi_startproc
 1508              		@ args = 4, pretend = 0, frame = 664
 1509              		@ frame_needed = 0, uses_anonymous_args = 0
 1510              	.LVL230:
 1511 0000 2DE9F04F 		push	{r4, r5, r6, r7, r8, r9, r10, fp, lr}
 1512              		.cfi_def_cfa_offset 36
 1513              		.cfi_offset 4, -36
 1514              		.cfi_offset 5, -32
 1515              		.cfi_offset 6, -28
 1516              		.cfi_offset 7, -24
 1517              		.cfi_offset 8, -20
 1518              		.cfi_offset 9, -16
 1519              		.cfi_offset 10, -12
 1520              		.cfi_offset 11, -8
 1521              		.cfi_offset 14, -4
 667:..\..\..\liblc3\src/ltpf.c **** 
 1522              		.loc 1 667 0
 1523 0004 00F10109 		add	r9, r0, #1
 663:..\..\..\liblc3\src/ltpf.c ****     /* --- Resampling to 12.8 KHz --- */
 1524              		.loc 1 663 0
 1525 0008 2DED048B 		vpush.64	{d8, d9}
 1526              		.cfi_def_cfa_offset 52
 1527              		.cfi_offset 80, -52
 1528              		.cfi_offset 81, -48
 1529              		.cfi_offset 82, -44
 1530              		.cfi_offset 83, -40
 667:..\..\..\liblc3\src/ltpf.c **** 
 1531              		.loc 1 667 0
 1532 000c 4FEA4917 		lsl	r7, r9, #5
 1533              	.LVL231:
 669:..\..\..\liblc3\src/ltpf.c ****         (z_12k8 - n_12k8) * sizeof(*ltpf->x_12k8));
 1534              		.loc 1 669 0
 1535 0010 C7F5C078 		rsb	r8, r7, #384
 663:..\..\..\liblc3\src/ltpf.c ****     /* --- Resampling to 12.8 KHz --- */
 1536              		.loc 1 663 0
 1537 0014 ADF5277D 		sub	sp, sp, #668
 1538              		.cfi_def_cfa_offset 720
 669:..\..\..\liblc3\src/ltpf.c ****         (z_12k8 - n_12k8) * sizeof(*ltpf->x_12k8));
 1539              		.loc 1 669 0
 1540 0018 4FEA4808 		lsl	r8, r8, #1
 663:..\..\..\liblc3\src/ltpf.c ****     /* --- Resampling to 12.8 KHz --- */
 1541              		.loc 1 663 0
 1542 001c 9A46     		mov	r10, r3
 669:..\..\..\liblc3\src/ltpf.c ****         (z_12k8 - n_12k8) * sizeof(*ltpf->x_12k8));
 1543              		.loc 1 669 0
 1544 001e 4FEA8919 		lsl	r9, r9, #6
 1545 0022 02F12003 		add	r3, r2, #32
 1546              	.LVL232:
 663:..\..\..\liblc3\src/ltpf.c ****     /* --- Resampling to 12.8 KHz --- */
 1547              		.loc 1 663 0
 1548 0026 8DE80300 		stmia	sp, {r0, r1}
 1549 002a 1646     		mov	r6, r2
 669:..\..\..\liblc3\src/ltpf.c ****         (z_12k8 - n_12k8) * sizeof(*ltpf->x_12k8));
 1550              		.loc 1 669 0
 1551 002c 03EB0901 		add	r1, r3, r9
 1552              	.LVL233:
ARM GAS  C:\Users\rdn\AppData\Local\Temp\ccIOjLNc.s 			page 45


 1553 0030 4246     		mov	r2, r8
 1554              	.LVL234:
 1555 0032 1846     		mov	r0, r3
 1556              	.LVL235:
 1557 0034 FFF7FEFF 		bl	memmove
 1558              	.LVL236:
 674:..\..\..\liblc3\src/ltpf.c **** 
 1559              		.loc 1 674 0
 1560 0038 019A     		ldr	r2, [sp, #4]
 1561 003a C74B     		ldr	r3, .L178
 1562 003c 03EB8203 		add	r3, r3, r2, lsl #2
 672:..\..\..\liblc3\src/ltpf.c **** 
 1563              		.loc 1 672 0
 1564 0040 00EB0804 		add	r4, r0, r8
 1565              	.LVL237:
 674:..\..\..\liblc3\src/ltpf.c **** 
 1566              		.loc 1 674 0
 1567 0044 D3F82058 		ldr	r5, [r3, #2080]
 1568 0048 2246     		mov	r2, r4
 1569 004a 5146     		mov	r1, r10
 1570 004c 3B46     		mov	r3, r7
 1571 004e 06F11000 		add	r0, r6, #16
 1572 0052 A847     		blx	r5
 1573              	.LVL238:
 676:..\..\..\liblc3\src/ltpf.c **** 
 1574              		.loc 1 676 0
 1575 0054 009B     		ldr	r3, [sp]
 1576 0056 022B     		cmp	r3, #2
 1577 0058 0CBF     		ite	eq
 1578 005a 6FF05708 		mvneq	r8, #87
 1579 005e 6FF02F08 		mvnne	r8, #47
 681:..\..\..\liblc3\src/ltpf.c **** 
 1580              		.loc 1 681 0
 1581 0062 7D10     		asrs	r5, r7, #1
 676:..\..\..\liblc3\src/ltpf.c **** 
 1582              		.loc 1 676 0
 1583 0064 A044     		add	r8, r8, r4
 1584              	.LVL239:
 683:..\..\..\liblc3\src/ltpf.c ****         (z_6k4 - n_6k4) * sizeof(*ltpf->x_6k4));
 1585              		.loc 1 683 0
 1586 0066 C5F1B204 		rsb	r4, r5, #178
 1587 006a 06F54873 		add	r3, r6, #800
 1588 006e 4FEA450A 		lsl	r10, r5, #1
 1589              	.LVL240:
 1590 0072 6400     		lsls	r4, r4, #1
 1591 0074 03EB0A01 		add	r1, r3, r10
 1592 0078 2246     		mov	r2, r4
 1593 007a 1846     		mov	r0, r3
 1594 007c FFF7FEFF 		bl	memmove
 1595              	.LVL241:
 686:..\..\..\liblc3\src/ltpf.c **** 
 1596              		.loc 1 686 0
 1597 0080 0444     		add	r4, r4, r0
 1598              	.LVL242:
 1599              	.LBB91:
 1600              	.LBB92:
 401:..\..\..\liblc3\src/ltpf.c **** 
ARM GAS  C:\Users\rdn\AppData\Local\Temp\ccIOjLNc.s 			page 46


 1601              		.loc 1 401 0
 1602 0082 04EB0A0E 		add	lr, r4, r10
 1603              	.LVL243:
 1604 0086 08F10203 		add	r3, r8, #2
 1605 008a A446     		mov	ip, r4
 404:..\..\..\liblc3\src/ltpf.c ****                               + (x[-2] + x[2]) * h[2]) >> 16;
 1606              		.loc 1 404 0
 1607 008c 41F6A97A 		movw	r10, #8105
 1608              	.LVL244:
 1609              	.L93:
 403:..\..\..\liblc3\src/ltpf.c ****         *(y++) = (x[0] * h[0] + (x[-1] + x[1]) * h[1]
 1610              		.loc 1 403 0
 1611 0090 E645     		cmp	lr, ip
 1612 0092 03F10403 		add	r3, r3, #4
 1613              	.LVL245:
 1614 0096 18D9     		bls	.L174
 1615              	.LVL246:
 404:..\..\..\liblc3\src/ltpf.c ****                               + (x[-2] + x[2]) * h[2]) >> 16;
 1616              		.loc 1 404 0
 1617 0098 33F9060C 		ldrsh	r0, [r3, #-6]
 1618 009c 33F90A1C 		ldrsh	r1, [r3, #-10]
 1619 00a0 33F908BC 		ldrsh	fp, [r3, #-8]
 1620 00a4 0144     		add	r1, r1, r0
 1621 00a6 4FF47152 		mov	r2, #15424
 1622 00aa 5143     		muls	r1, r2, r1
 1623 00ac 44F62D02 		movw	r2, #18477
 1624 00b0 1BFB0211 		smlabb	r1, fp, r2, r1
 1625 00b4 33F90C0C 		ldrsh	r0, [r3, #-12]
 1626 00b8 33F9042C 		ldrsh	r2, [r3, #-4]
 1627 00bc 0244     		add	r2, r2, r0
 1628 00be 0AFB0212 		mla	r2, r10, r2, r1
 1629 00c2 1214     		asrs	r2, r2, #16
 1630 00c4 2CF8022B 		strh	r2, [ip], #2	@ movhi
 1631              	.LVL247:
 1632 00c8 E2E7     		b	.L93
 1633              	.LVL248:
 1634              	.L174:
 1635              	.LBE92:
 1636              	.LBE91:
 692:..\..\..\liblc3\src/ltpf.c ****         x_12k8 -= n_12k8, x_6k4 -= n_6k4;
 1637              		.loc 1 692 0 discriminator 4
 1638 00ca 009B     		ldr	r3, [sp]
 1639 00cc 2BB9     		cbnz	r3, .L95
 693:..\..\..\liblc3\src/ltpf.c ****         n_12k8 += n_12k8; n_6k4 += n_6k4;
 1640              		.loc 1 693 0
 1641 00ce AEEB8504 		sub	r4, lr, r5, lsl #2
 1642              	.LVL249:
 1643 00d2 C9EB0808 		rsb	r8, r9, r8
 1644              	.LVL250:
 694:..\..\..\liblc3\src/ltpf.c ****     }
 1645              		.loc 1 694 0
 1646 00d6 7F00     		lsls	r7, r7, #1
 1647              	.LVL251:
 1648 00d8 6D00     		lsls	r5, r5, #1
 1649              	.LVL252:
 1650              	.L95:
 1651              	.LBB93:
ARM GAS  C:\Users\rdn\AppData\Local\Temp\ccIOjLNc.s 			page 47


 1652              	.LBB94:
 589:..\..\..\liblc3\src/ltpf.c ****     int nk = LC3_MIN(nr-1, ltpf->tc+4) - k0 + 1;
 1653              		.loc 1 589 0
 1654 00da D6F88434 		ldr	r3, [r6, #1156]
 1655 00de 032B     		cmp	r3, #3
 1656 00e0 04DD     		ble	.L138
 590:..\..\..\liblc3\src/ltpf.c **** 
 1657              		.loc 1 590 0
 1658 00e2 5D2B     		cmp	r3, #93
 589:..\..\..\liblc3\src/ltpf.c ****     int nk = LC3_MIN(nr-1, ltpf->tc+4) - k0 + 1;
 1659              		.loc 1 589 0
 1660 00e4 A3F10409 		sub	r9, r3, #4
 1661              	.LVL253:
 590:..\..\..\liblc3\src/ltpf.c **** 
 1662              		.loc 1 590 0
 1663 00e8 04DC     		bgt	.L139
 1664 00ea 01E0     		b	.L96
 1665              	.LVL254:
 1666              	.L138:
 589:..\..\..\liblc3\src/ltpf.c ****     int nk = LC3_MIN(nr-1, ltpf->tc+4) - k0 + 1;
 1667              		.loc 1 589 0
 1668 00ec 4FF00009 		mov	r9, #0
 1669              	.L96:
 1670              	.LVL255:
 590:..\..\..\liblc3\src/ltpf.c **** 
 1671              		.loc 1 590 0
 1672 00f0 0433     		adds	r3, r3, #4
 1673 00f2 00E0     		b	.L97
 1674              	.L139:
 1675 00f4 6123     		movs	r3, #97
 1676              	.L97:
 1677 00f6 C9EB0303 		rsb	r3, r9, r3
 1678 00fa 0293     		str	r3, [sp, #8]
 1679              	.LVL256:
 592:..\..\..\liblc3\src/ltpf.c **** 
 1680              		.loc 1 592 0
 1681 00fc A4F12201 		sub	r1, r4, #34
 1682              	.LVL257:
 1683 0100 A4F1E60B 		sub	fp, r4, #230
 1684 0104 0DF5887A 		add	r10, sp, #272
 1685              	.LVL258:
 1686              	.L98:
 1687              	.LBB95:
 1688              	.LBB96:
 464:..\..\..\liblc3\src/ltpf.c **** }
 1689              		.loc 1 464 0
 1690 0108 8B1E     		subs	r3, r1, #2
 1691 010a 2A46     		mov	r2, r5
 1692 010c 2046     		mov	r0, r4
 1693 010e 0393     		str	r3, [sp, #12]
 1694              	.LVL259:
 1695 0110 FFF7FEFF 		bl	dot
 1696              	.LVL260:
 1697 0114 039B     		ldr	r3, [sp, #12]
 1698 0116 AAEC010A 		vstmia.32	r10!, {s0}
 1699              	.LVL261:
 463:..\..\..\liblc3\src/ltpf.c ****         *(y++) = dot(a, b--, n);
ARM GAS  C:\Users\rdn\AppData\Local\Temp\ccIOjLNc.s 			page 48


 1700              		.loc 1 463 0
 1701 011a 9B45     		cmp	fp, r3
 1702 011c 1946     		mov	r1, r3
 1703 011e F3D1     		bne	.L98
 1704              	.LVL262:
 1705              	.LBE96:
 1706              	.LBE95:
 1707              	.LBB97:
 1708              	.LBB98:
 498:..\..\..\liblc3\src/ltpf.c ****     float w = 1 + w_incr;
 1709              		.loc 1 498 0
 1710 0120 9DED447A 		vldr.32	s14, [sp, #272]
 1711              	.LVL263:
 499:..\..\..\liblc3\src/ltpf.c **** 
 1712              		.loc 1 499 0
 1713 0124 DFED8D7A 		vldr.32	s15, .L178+4
 1714              	.LBB99:
 501:..\..\..\liblc3\src/ltpf.c ****         if (xw_max < x[i] * w)
 1715              		.loc 1 501 0
 1716 0128 DFED8D5A 		vldr.32	s11, .L178+8
 1717 012c 45AA     		add	r2, sp, #276
 1718              	.LBE99:
 498:..\..\..\liblc3\src/ltpf.c ****     float w = 1 + w_incr;
 1719              		.loc 1 498 0
 1720 012e B0EE479A 		vmov.f32	s18, s14
 1721 0132 4FF0000A 		mov	r10, #0
 1722              	.LBB100:
 501:..\..\..\liblc3\src/ltpf.c ****         if (xw_max < x[i] * w)
 1723              		.loc 1 501 0
 1724 0136 0123     		movs	r3, #1
 1725              	.LVL264:
 1726              	.L101:
 502:..\..\..\liblc3\src/ltpf.c ****             xw_max = (*x_max = x[arg = i]) * w;
 1727              		.loc 1 502 0
 1728 0138 B2EC016A 		vldmia.32	r2!, {s12}
 1729 013c 66EE276A 		vmul.f32	s13, s12, s15
 501:..\..\..\liblc3\src/ltpf.c ****         if (xw_max < x[i] * w)
 1730              		.loc 1 501 0
 1731 0140 77EEE57A 		vsub.f32	s15, s15, s11
 1732              	.LVL265:
 502:..\..\..\liblc3\src/ltpf.c ****             xw_max = (*x_max = x[arg = i]) * w;
 1733              		.loc 1 502 0
 1734 0144 B4EEE67A 		vcmpe.f32	s14, s13
 1735 0148 F1EE10FA 		vmrs	APSR_nzcv, FPSCR
 1736 014c 48BF     		it	mi
 1737 014e 9A46     		movmi	r10, r3
 501:..\..\..\liblc3\src/ltpf.c ****         if (xw_max < x[i] * w)
 1738              		.loc 1 501 0
 1739 0150 03F10103 		add	r3, r3, #1
 1740              	.LVL266:
 503:..\..\..\liblc3\src/ltpf.c **** 
 1741              		.loc 1 503 0
 1742 0154 44BF     		itt	mi
 1743 0156 B0EE469A 		vmovmi.f32	s18, s12
 1744 015a B0EE667A 		vmovmi.f32	s14, s13
 1745              	.LVL267:
 501:..\..\..\liblc3\src/ltpf.c ****         if (xw_max < x[i] * w)
ARM GAS  C:\Users\rdn\AppData\Local\Temp\ccIOjLNc.s 			page 49


 1746              		.loc 1 501 0
 1747 015e 622B     		cmp	r3, #98
 1748 0160 EAD1     		bne	.L101
 1749              	.LVL268:
 1750              	.LBE100:
 1751              	.LBE98:
 1752              	.LBE97:
 1753              	.LBB101:
 1754              	.LBB102:
 478:..\..\..\liblc3\src/ltpf.c ****     for (int i = 1; i < n; i++)
 1755              		.loc 1 478 0
 1756 0162 44AB     		add	r3, sp, #272
 1757              	.LVL269:
 1758 0164 03EB8903 		add	r3, r3, r9, lsl #2
 1759 0168 B3EC018A 		vldmia.32	r3!, {s16}
 1760              	.LVL270:
 1761              	.LBB103:
 479:..\..\..\liblc3\src/ltpf.c ****         if (*x_max < x[i])
 1762              		.loc 1 479 0
 1763 016c 0122     		movs	r2, #1
 1764              	.LBE103:
 478:..\..\..\liblc3\src/ltpf.c ****     for (int i = 1; i < n; i++)
 1765              		.loc 1 478 0
 1766 016e 0021     		movs	r1, #0
 1767              	.LVL271:
 1768              	.L102:
 1769              	.LBB104:
 479:..\..\..\liblc3\src/ltpf.c ****         if (*x_max < x[i])
 1770              		.loc 1 479 0
 1771 0170 0298     		ldr	r0, [sp, #8]
 1772 0172 9042     		cmp	r0, r2
 1773 0174 0BDB     		blt	.L175
 480:..\..\..\liblc3\src/ltpf.c ****             *x_max = x[arg = i];
 1774              		.loc 1 480 0
 1775 0176 F3EC017A 		vldmia.32	r3!, {s15}
 1776 017a F4EEC87A 		vcmpe.f32	s15, s16
 1777 017e F1EE10FA 		vmrs	APSR_nzcv, FPSCR
 1778 0182 C4BF     		itt	gt
 1779 0184 1146     		movgt	r1, r2
 481:..\..\..\liblc3\src/ltpf.c **** 
 1780              		.loc 1 481 0
 1781 0186 B0EE678A 		vmovgt.f32	s16, s15
 1782              	.LVL272:
 479:..\..\..\liblc3\src/ltpf.c ****         if (*x_max < x[i])
 1783              		.loc 1 479 0
 1784 018a 0132     		adds	r2, r2, #1
 1785              	.LVL273:
 1786 018c F0E7     		b	.L102
 1787              	.L175:
 1788              	.LVL274:
 1789              	.LBE104:
 1790              	.LBE102:
 1791              	.LBE101:
 600:..\..\..\liblc3\src/ltpf.c ****         rm1 / sqrtf(dot(x, x, n) * dot(x1, x1, n));
 1792              		.loc 1 600 0
 1793 018e B5EEC09A 		vcmpe.f32	s18, #0
 1794 0192 F1EE10FA 		vmrs	APSR_nzcv, FPSCR
ARM GAS  C:\Users\rdn\AppData\Local\Temp\ccIOjLNc.s 			page 50


 595:..\..\..\liblc3\src/ltpf.c **** 
 1795              		.loc 1 595 0
 1796 0196 8944     		add	r9, r9, r1
 1797              	.LVL275:
 600:..\..\..\liblc3\src/ltpf.c ****         rm1 / sqrtf(dot(x, x, n) * dot(x1, x1, n));
 1798              		.loc 1 600 0
 1799 0198 19D9     		bls	.L140
 601:..\..\..\liblc3\src/ltpf.c **** 
 1800              		.loc 1 601 0
 1801 019a 2A46     		mov	r2, r5
 1802              	.LVL276:
 1803 019c 2146     		mov	r1, r4
 1804 019e 2046     		mov	r0, r4
 1805 01a0 FFF7FEFF 		bl	dot
 1806              	.LVL277:
 597:..\..\..\liblc3\src/ltpf.c ****     const int16_t *x2 = x - (r0 + t2);
 1807              		.loc 1 597 0
 1808 01a4 0AF11101 		add	r1, r10, #17
 1809              	.LVL278:
 1810 01a8 A4EB4101 		sub	r1, r4, r1, lsl #1
 1811              	.LVL279:
 601:..\..\..\liblc3\src/ltpf.c **** 
 1812              		.loc 1 601 0
 1813 01ac 0846     		mov	r0, r1
 1814 01ae 2A46     		mov	r2, r5
 1815 01b0 B0EE407A 		vmov.f32	s14, s0
 1816 01b4 FFF7FEFF 		bl	dot
 1817              	.LVL280:
 1818 01b8 67EE007A 		vmul.f32	s15, s14, s0
 1819 01bc 17EE900A 		vmov	r0, s15
 1820 01c0 FFF7FEFF 		bl	sqrtf
 1821              	.LVL281:
 600:..\..\..\liblc3\src/ltpf.c ****         rm1 / sqrtf(dot(x, x, n) * dot(x1, x1, n));
 1822              		.loc 1 600 0
 1823 01c4 07EE900A 		vmov	s15, r0
 1824 01c8 C9EE278A 		vdiv.f32	s17, s18, s15
 1825 01cc 01E0     		b	.L106
 1826              	.LVL282:
 1827              	.L140:
 1828 01ce DFED678A 		vldr.32	s17, .L178+20
 1829              	.LVL283:
 1830              	.L106:
 603:..\..\..\liblc3\src/ltpf.c ****         rm2 / sqrtf(dot(x, x, n) * dot(x2, x2, n));
 1831              		.loc 1 603 0
 1832 01d2 B5EEC08A 		vcmpe.f32	s16, #0
 1833 01d6 F1EE10FA 		vmrs	APSR_nzcv, FPSCR
 1834 01da 19D9     		bls	.L141
 604:..\..\..\liblc3\src/ltpf.c **** 
 1835              		.loc 1 604 0
 1836 01dc 2A46     		mov	r2, r5
 1837 01de 2146     		mov	r1, r4
 1838 01e0 2046     		mov	r0, r4
 1839 01e2 FFF7FEFF 		bl	dot
 1840              	.LVL284:
 598:..\..\..\liblc3\src/ltpf.c **** 
 1841              		.loc 1 598 0
 1842 01e6 09F11101 		add	r1, r9, #17
ARM GAS  C:\Users\rdn\AppData\Local\Temp\ccIOjLNc.s 			page 51


 1843 01ea A4EB4101 		sub	r1, r4, r1, lsl #1
 604:..\..\..\liblc3\src/ltpf.c **** 
 1844              		.loc 1 604 0
 1845 01ee 0846     		mov	r0, r1
 1846 01f0 2A46     		mov	r2, r5
 1847 01f2 B0EE407A 		vmov.f32	s14, s0
 1848 01f6 FFF7FEFF 		bl	dot
 1849              	.LVL285:
 1850 01fa 67EE007A 		vmul.f32	s15, s14, s0
 1851 01fe 17EE900A 		vmov	r0, s15
 1852 0202 FFF7FEFF 		bl	sqrtf
 1853              	.LVL286:
 603:..\..\..\liblc3\src/ltpf.c ****         rm2 / sqrtf(dot(x, x, n) * dot(x2, x2, n));
 1854              		.loc 1 603 0
 1855 0206 07EE100A 		vmov	s14, r0
 1856 020a C8EE077A 		vdiv.f32	s15, s16, s14
 1857 020e 01E0     		b	.L107
 1858              	.L141:
 1859 0210 DFED567A 		vldr.32	s15, .L178+20
 1860              	.L107:
 1861              	.LVL287:
 606:..\..\..\liblc3\src/ltpf.c ****     ltpf->tc = (t1sel ? t1 : t2);
 1862              		.loc 1 606 0
 1863 0214 9FED537A 		vldr.32	s14, .L178+12
 1864 0218 28EE877A 		vmul.f32	s14, s17, s14
 1865              	.LVL288:
 607:..\..\..\liblc3\src/ltpf.c **** 
 1866              		.loc 1 607 0
 1867 021c B4EEE77A 		vcmpe.f32	s14, s15
 1868 0220 9FED517A 		vldr.32	s14, .L178+16
 1869              	.LVL289:
 1870 0224 F1EE10FA 		vmrs	APSR_nzcv, FPSCR
 610:..\..\..\liblc3\src/ltpf.c **** }
 1871              		.loc 1 610 0
 1872 0228 ADBF     		iteet	ge
 1873 022a F4EEC78A 		vcmpege.f32	s17, s14
 1874 022e F4EEC77A 		vcmpelt.f32	s15, s14
 607:..\..\..\liblc3\src/ltpf.c **** 
 1875              		.loc 1 607 0
 1876 0232 4D46     		movlt	r5, r9
 1877              	.LVL290:
 1878 0234 5546     		movge	r5, r10
 610:..\..\..\liblc3\src/ltpf.c **** }
 1879              		.loc 1 610 0
 1880 0236 F1EE10FA 		vmrs	APSR_nzcv, FPSCR
 1881 023a CCBF     		ite	gt
 1882 023c 4FF00109 		movgt	r9, #1
 1883              	.LVL291:
 1884 0240 4FF00009 		movle	r9, #0
 607:..\..\..\liblc3\src/ltpf.c **** 
 1885              		.loc 1 607 0
 1886 0244 C6F88454 		str	r5, [r6, #1156]
 1887              	.LVL292:
 1888              	.LBE94:
 1889              	.LBE93:
 704:..\..\..\liblc3\src/ltpf.c ****         int16_t u[128], v[128];
 1890              		.loc 1 704 0
ARM GAS  C:\Users\rdn\AppData\Local\Temp\ccIOjLNc.s 			page 52


 1891 0248 B9F1000F 		cmp	r9, #0
 1892 024c 00F0CF80 		beq	.L143
 1893              	.LVL293:
 1894              	.LBB105:
 1895              	.LBB106:
 1896              	.LBB107:
 627:..\..\..\liblc3\src/ltpf.c ****     int nr = LC3_MIN(228, 2*tc + 4) - r0 + 1;
 1897              		.loc 1 627 0
 1898 0250 0F35     		adds	r5, r5, #15
 1899              	.LVL294:
 1900 0252 6D00     		lsls	r5, r5, #1
 1901 0254 202D     		cmp	r5, #32
 1902 0256 2C46     		mov	r4, r5
 1903              	.LVL295:
 1904 0258 B8BF     		it	lt
 1905 025a 2024     		movlt	r4, #32
 1906              	.LVL296:
 628:..\..\..\liblc3\src/ltpf.c **** 
 1907              		.loc 1 628 0
 1908 025c 0835     		adds	r5, r5, #8
 1909 025e E42D     		cmp	r5, #228
 1910 0260 D4BF     		ite	le
 1911 0262 C4EB0505 		rsble	r5, r4, r5
 1912 0266 C4F1E405 		rsbgt	r5, r4, #228
 1913              	.LVL297:
 630:..\..\..\liblc3\src/ltpf.c **** 
 1914              		.loc 1 630 0
 1915 026a 6100     		lsls	r1, r4, #1
 1916              	.LBB108:
 1917              	.LBB109:
 463:..\..\..\liblc3\src/ltpf.c ****         *(y++) = dot(a, b--, n);
 1918              		.loc 1 463 0
 1919 026c 44AB     		add	r3, sp, #272
 1920              	.LBE109:
 1921              	.LBE108:
 630:..\..\..\liblc3\src/ltpf.c **** 
 1922              		.loc 1 630 0
 1923 026e C1F10801 		rsb	r1, r1, #8
 1924              	.LBB112:
 1925              	.LBB110:
 463:..\..\..\liblc3\src/ltpf.c ****         *(y++) = dot(a, b--, n);
 1926              		.loc 1 463 0
 1927 0272 05F1090B 		add	fp, r5, #9
 1928              	.LVL298:
 1929              	.LBE110:
 1930              	.LBE112:
 630:..\..\..\liblc3\src/ltpf.c **** 
 1931              		.loc 1 630 0
 1932 0276 4144     		add	r1, r1, r8
 1933              	.LVL299:
 1934              	.LBB113:
 1935              	.LBB111:
 463:..\..\..\liblc3\src/ltpf.c ****         *(y++) = dot(a, b--, n);
 1936              		.loc 1 463 0
 1937 0278 03EB8B0B 		add	fp, r3, fp, lsl #2
 1938              	.LVL300:
 1939 027c 9A46     		mov	r10, r3
ARM GAS  C:\Users\rdn\AppData\Local\Temp\ccIOjLNc.s 			page 53


 1940              	.LVL301:
 1941              	.L113:
 1942 027e D345     		cmp	fp, r10
 1943 0280 0AD9     		bls	.L176
 464:..\..\..\liblc3\src/ltpf.c **** }
 1944              		.loc 1 464 0
 1945 0282 8B1E     		subs	r3, r1, #2
 1946 0284 3A46     		mov	r2, r7
 1947 0286 4046     		mov	r0, r8
 1948 0288 0293     		str	r3, [sp, #8]
 1949              	.LVL302:
 1950 028a FFF7FEFF 		bl	dot
 1951              	.LVL303:
 1952 028e 029B     		ldr	r3, [sp, #8]
 1953 0290 AAEC010A 		vstmia.32	r10!, {s0}
 1954              	.LVL304:
 1955 0294 1946     		mov	r1, r3
 1956 0296 F2E7     		b	.L113
 1957              	.LVL305:
 1958              	.L176:
 1959              	.LBE111:
 1960              	.LBE113:
 1961              	.LBB114:
 1962              	.LBB115:
 478:..\..\..\liblc3\src/ltpf.c ****     for (int i = 1; i < n; i++)
 1963              		.loc 1 478 0
 1964 0298 DDED487A 		vldr.32	s15, [sp, #288]
 1965              	.LVL306:
 1966 029c 49AA     		add	r2, sp, #292
 1967              	.LBB116:
 479:..\..\..\liblc3\src/ltpf.c ****         if (*x_max < x[i])
 1968              		.loc 1 479 0
 1969 029e 0123     		movs	r3, #1
 1970              	.LBE116:
 478:..\..\..\liblc3\src/ltpf.c ****     for (int i = 1; i < n; i++)
 1971              		.loc 1 478 0
 1972 02a0 4FF0000A 		mov	r10, #0
 1973              	.LVL307:
 1974              	.L115:
 1975              	.LBB117:
 479:..\..\..\liblc3\src/ltpf.c ****         if (*x_max < x[i])
 1976              		.loc 1 479 0
 1977 02a4 9D42     		cmp	r5, r3
 1978 02a6 0BDB     		blt	.L177
 480:..\..\..\liblc3\src/ltpf.c ****             *x_max = x[arg = i];
 1979              		.loc 1 480 0
 1980 02a8 B2EC017A 		vldmia.32	r2!, {s14}
 1981 02ac B4EEE77A 		vcmpe.f32	s14, s15
 1982 02b0 F1EE10FA 		vmrs	APSR_nzcv, FPSCR
 1983 02b4 C4BF     		itt	gt
 1984 02b6 9A46     		movgt	r10, r3
 481:..\..\..\liblc3\src/ltpf.c **** 
 1985              		.loc 1 481 0
 1986 02b8 F0EE477A 		vmovgt.f32	s15, s14
 1987              	.LVL308:
 479:..\..\..\liblc3\src/ltpf.c ****         if (*x_max < x[i])
 1988              		.loc 1 479 0
ARM GAS  C:\Users\rdn\AppData\Local\Temp\ccIOjLNc.s 			page 54


 1989 02bc 0133     		adds	r3, r3, #1
 1990              	.LVL309:
 1991 02be F1E7     		b	.L115
 1992              	.L177:
 1993              	.LVL310:
 1994              	.LBE117:
 1995              	.LBE115:
 1996              	.LBE114:
 633:..\..\..\liblc3\src/ltpf.c **** 
 1997              		.loc 1 633 0
 1998 02c0 44AB     		add	r3, sp, #272
 1999              	.LVL311:
 2000 02c2 5444     		add	r4, r4, r10
 2001              	.LVL312:
 2002 02c4 0AF1040A 		add	r10, r10, #4
 2003 02c8 03EB8A0A 		add	r10, r3, r10, lsl #2
 2004              	.LVL313:
 635:..\..\..\liblc3\src/ltpf.c ****     for (int i = 1; i <= 3; i++) {
 2005              		.loc 1 635 0
 2006 02cc 0021     		movs	r1, #0
 2007 02ce 5046     		mov	r0, r10
 2008 02d0 FFF7FEFF 		bl	interpolate_corr
 2009              	.LVL314:
 2010 02d4 4FF0000B 		mov	fp, #0
 2011 02d8 B0EE406A 		vmov.f32	s12, s0
 2012              	.LVL315:
 2013 02dc 5D46     		mov	r5, fp
 2014              	.LVL316:
 2015              	.L124:
 2016              	.LBB118:
 2017              	.LBB119:
 639:..\..\..\liblc3\src/ltpf.c ****             continue;
 2018              		.loc 1 639 0
 2019 02de 7E2C     		cmp	r4, #126
 2020 02e0 0BF10103 		add	r3, fp, #1
 2021              	.LVL317:
 2022 02e4 07DD     		ble	.L119
 2023 02e6 9C2C     		cmp	r4, #156
 2024 02e8 0BF00102 		and	r2, fp, #1
 2025 02ec D4BF     		ite	le
 2026 02ee 0021     		movle	r1, #0
 2027 02f0 0121     		movgt	r1, #1
 2028 02f2 9142     		cmp	r1, r2
 2029 02f4 1FD2     		bcs	.L120
 2030              	.L119:
 642:..\..\..\liblc3\src/ltpf.c ****             dm = d, f = i;
 2031              		.loc 1 642 0
 2032 02f6 1946     		mov	r1, r3
 2033 02f8 5046     		mov	r0, r10
 2034 02fa 0293     		str	r3, [sp, #8]
 2035 02fc FFF7FEFF 		bl	interpolate_corr
 2036              	.LVL318:
 2037 0300 029B     		ldr	r3, [sp, #8]
 2038 0302 B4EEC60A 		vcmpe.f32	s0, s12
 2039 0306 F1EE10FA 		vmrs	APSR_nzcv, FPSCR
 643:..\..\..\liblc3\src/ltpf.c **** 
 2040              		.loc 1 643 0
ARM GAS  C:\Users\rdn\AppData\Local\Temp\ccIOjLNc.s 			page 55


 2041 030a C4BF     		itt	gt
 2042 030c B0EE406A 		vmovgt.f32	s12, s0
 642:..\..\..\liblc3\src/ltpf.c ****             dm = d, f = i;
 2043              		.loc 1 642 0
 2044 0310 1D46     		movgt	r5, r3
 2045              	.LVL319:
 645:..\..\..\liblc3\src/ltpf.c ****             dm = d, f = -i;
 2046              		.loc 1 645 0
 2047 0312 202C     		cmp	r4, #32
 2048 0314 0FDD     		ble	.L120
 2049              	.LVL320:
 2050 0316 6FEA0B0B 		mvn	fp, fp
 2051 031a 5946     		mov	r1, fp
 2052 031c 5046     		mov	r0, r10
 2053 031e 0293     		str	r3, [sp, #8]
 2054 0320 FFF7FEFF 		bl	interpolate_corr
 2055              	.LVL321:
 2056 0324 B4EEC60A 		vcmpe.f32	s0, s12
 2057 0328 F1EE10FA 		vmrs	APSR_nzcv, FPSCR
 2058 032c 029B     		ldr	r3, [sp, #8]
 646:..\..\..\liblc3\src/ltpf.c ****     }
 2059              		.loc 1 646 0
 2060 032e C4BF     		itt	gt
 2061 0330 B0EE406A 		vmovgt.f32	s12, s0
 2062 0334 5D46     		movgt	r5, fp
 2063              	.LVL322:
 2064              	.L120:
 2065              	.LBE119:
 636:..\..\..\liblc3\src/ltpf.c ****         float d;
 2066              		.loc 1 636 0
 2067 0336 032B     		cmp	r3, #3
 2068 0338 9B46     		mov	fp, r3
 2069 033a D0D1     		bne	.L124
 2070              	.LBE118:
 650:..\..\..\liblc3\src/ltpf.c **** 
 2071              		.loc 1 650 0
 2072 033c 002D     		cmp	r5, #0
 649:..\..\..\liblc3\src/ltpf.c ****     f += 4*(f < 0);
 2073              		.loc 1 649 0
 2074 033e A4EBD574 		sub	r4, r4, r5, lsr #31
 2075              	.LVL323:
 650:..\..\..\liblc3\src/ltpf.c **** 
 2076              		.loc 1 650 0
 2077 0342 ACBF     		ite	ge
 2078 0344 0023     		movge	r3, #0
 2079              	.LVL324:
 2080 0346 0423     		movlt	r3, #4
 2081 0348 2B44     		add	r3, r3, r5
 2082              	.LVL325:
 653:..\..\..\liblc3\src/ltpf.c ****            e < 157 ? 2*e + (f >> 1) + 126 : e + 283;
 2083              		.loc 1 653 0
 2084 034a 7E2C     		cmp	r4, #126
 652:..\..\..\liblc3\src/ltpf.c ****     return e < 127 ? 4*e +  f       - 128 :
 2085              		.loc 1 652 0
 2086 034c 03EB8405 		add	r5, r3, r4, lsl #2
 2087              	.LVL326:
 653:..\..\..\liblc3\src/ltpf.c ****            e < 157 ? 2*e + (f >> 1) + 126 : e + 283;
ARM GAS  C:\Users\rdn\AppData\Local\Temp\ccIOjLNc.s 			page 56


 2088              		.loc 1 653 0
 2089 0350 16DC     		bgt	.L126
 2090 0352 A5F18004 		sub	r4, r5, #128
 2091              	.LVL327:
 2092 0356 1BE0     		b	.L127
 2093              	.L179:
 2094              		.align	2
 2095              	.L178:
 2096 0358 00000000 		.word	.LANCHOR0
 2097 035c 30AE7E3F 		.word	1065266736
 2098 0360 3FE8A83B 		.word	1000925247
 2099 0364 9A99593F 		.word	1062836634
 2100 0368 9A99193F 		.word	1058642330
 2101 036c 00000000 		.word	0
 2102 0370 6666663F 		.word	1063675494
 2103 0374 3D0A573F 		.word	1062668861
 2104 0378 CDCCCCBD 		.word	-1110651699
 2105 037c D7A3703F 		.word	1064346583
 2106              	.LVL328:
 2107              	.L126:
 654:..\..\..\liblc3\src/ltpf.c **** }
 2108              		.loc 1 654 0
 2109 0380 9C2C     		cmp	r4, #156
 2110 0382 DDBF     		ittte	le
 2111 0384 5B10     		asrle	r3, r3, #1
 2112              	.LVL329:
 2113 0386 03EB4404 		addle	r4, r3, r4, lsl #1
 2114              	.LVL330:
 2115 038a 7E34     		addle	r4, r4, #126
 2116 038c 04F21B14 		addwgt	r4, r4, #283
 2117              	.L127:
 2118              	.LVL331:
 2119              	.LBE107:
 2120              	.LBE106:
 707:..\..\..\liblc3\src/ltpf.c **** 
 2121              		.loc 1 707 0
 2122 0390 B49B     		ldr	r3, [sp, #720]
 709:..\..\..\liblc3\src/ltpf.c ****         interpolate(x_12k8 - (pitch >> 2), n_12k8, pitch & 3, v);
 2123              		.loc 1 709 0
 2124 0392 0022     		movs	r2, #0
 707:..\..\..\liblc3\src/ltpf.c **** 
 2125              		.loc 1 707 0
 2126 0394 5C60     		str	r4, [r3, #4]
 709:..\..\..\liblc3\src/ltpf.c ****         interpolate(x_12k8 - (pitch >> 2), n_12k8, pitch & 3, v);
 2127              		.loc 1 709 0
 2128 0396 3946     		mov	r1, r7
 2129 0398 04AB     		add	r3, sp, #16
 2130 039a 4046     		mov	r0, r8
 2131 039c FFF7FEFF 		bl	interpolate
 2132              	.LVL332:
 710:..\..\..\liblc3\src/ltpf.c **** 
 2133              		.loc 1 710 0
 2134 03a0 A810     		asrs	r0, r5, #2
 2135 03a2 44AB     		add	r3, sp, #272
 2136 03a4 05F00302 		and	r2, r5, #3
 2137 03a8 3946     		mov	r1, r7
 2138 03aa A8EB4000 		sub	r0, r8, r0, lsl #1
ARM GAS  C:\Users\rdn\AppData\Local\Temp\ccIOjLNc.s 			page 57


 2139 03ae FFF7FEFF 		bl	interpolate
 2140              	.LVL333:
 712:..\..\..\liblc3\src/ltpf.c ****     }
 2141              		.loc 1 712 0
 2142 03b2 3A46     		mov	r2, r7
 2143 03b4 44A9     		add	r1, sp, #272
 2144 03b6 04A8     		add	r0, sp, #16
 2145 03b8 FFF7FEFF 		bl	dot
 2146              	.LVL334:
 2147 03bc 04A9     		add	r1, sp, #16
 2148 03be 0846     		mov	r0, r1
 2149 03c0 3A46     		mov	r2, r7
 2150 03c2 B0EE408A 		vmov.f32	s16, s0
 2151 03c6 FFF7FEFF 		bl	dot
 2152              	.LVL335:
 2153 03ca 44A9     		add	r1, sp, #272
 2154 03cc 0846     		mov	r0, r1
 2155 03ce 3A46     		mov	r2, r7
 2156 03d0 B0EE407A 		vmov.f32	s14, s0
 2157 03d4 FFF7FEFF 		bl	dot
 2158              	.LVL336:
 2159 03d8 67EE007A 		vmul.f32	s15, s14, s0
 2160 03dc 17EE900A 		vmov	r0, s15
 2161 03e0 FFF7FEFF 		bl	sqrtf
 2162              	.LVL337:
 2163 03e4 07EE100A 		vmov	s14, r0
 2164 03e8 C8EE077A 		vdiv.f32	s15, s16, s14
 2165              	.LVL338:
 2166 03ec 02E0     		b	.L112
 2167              	.LVL339:
 2168              	.L143:
 2169              	.LBE105:
 700:..\..\..\liblc3\src/ltpf.c **** 
 2170              		.loc 1 700 0
 2171 03ee 5FED217A 		vldr.32	s15, .L178+20
 2172              	.LVL340:
 699:..\..\..\liblc3\src/ltpf.c ****     float nc = 0;
 2173              		.loc 1 699 0
 2174 03f2 4D46     		mov	r5, r9
 2175              	.LVL341:
 2176              	.L112:
 717:..\..\..\liblc3\src/ltpf.c ****         int pitch_diff =
 2177              		.loc 1 717 0
 2178 03f4 3378     		ldrb	r3, [r6]	@ zero_extendqisi2
 2179 03f6 96ED027A 		vldr.32	s14, [r6, #8]
 2180 03fa 4BB3     		cbz	r3, .L129
 2181              	.LBB120:
 722:..\..\..\liblc3\src/ltpf.c ****             ((nc > 0.9f) || (nc > 0.84f && pitch_diff < 8 && nc_diff > -0.1f));
 2182              		.loc 1 722 0
 2183 03fc 019B     		ldr	r3, [sp, #4]
 719:..\..\..\liblc3\src/ltpf.c ****         float nc_diff = nc - ltpf->nc[0];
 2184              		.loc 1 719 0
 2185 03fe 7268     		ldr	r2, [r6, #4]
 2186              	.LVL342:
 722:..\..\..\liblc3\src/ltpf.c ****             ((nc > 0.9f) || (nc > 0.84f && pitch_diff < 8 && nc_diff > -0.1f));
 2187              		.loc 1 722 0
 2188 0400 042B     		cmp	r3, #4
ARM GAS  C:\Users\rdn\AppData\Local\Temp\ccIOjLNc.s 			page 58


 2189 0402 48D8     		bhi	.L171
 722:..\..\..\liblc3\src/ltpf.c ****             ((nc > 0.9f) || (nc > 0.84f && pitch_diff < 8 && nc_diff > -0.1f));
 2190              		.loc 1 722 0 is_stmt 0 discriminator 1
 2191 0404 B9F1000F 		cmp	r9, #0
 2192 0408 43D0     		beq	.L151
 722:..\..\..\liblc3\src/ltpf.c ****             ((nc > 0.9f) || (nc > 0.84f && pitch_diff < 8 && nc_diff > -0.1f));
 2193              		.loc 1 722 0 discriminator 3
 2194 040a 5FED276A 		vldr.32	s13, .L178+24
 2195 040e F4EEE67A 		vcmpe.f32	s15, s13
 2196 0412 F1EE10FA 		vmrs	APSR_nzcv, FPSCR
 2197 0416 19DC     		bgt	.L147
 723:..\..\..\liblc3\src/ltpf.c **** 
 2198              		.loc 1 723 0 is_stmt 1
 2199 0418 5FED2A6A 		vldr.32	s13, .L178+28
 2200 041c F4EEE67A 		vcmpe.f32	s15, s13
 2201 0420 F1EE10FA 		vmrs	APSR_nzcv, FPSCR
 2202 0424 37DD     		ble	.L171
 723:..\..\..\liblc3\src/ltpf.c **** 
 2203              		.loc 1 723 0 is_stmt 0 discriminator 1
 2204 0426 AA42     		cmp	r2, r5
 2205 0428 1346     		mov	r3, r2
 2206 042a A8BF     		it	ge
 2207 042c 2B46     		movge	r3, r5
 2208 042e AA42     		cmp	r2, r5
 2209 0430 ACBF     		ite	ge
 2210 0432 C3EB0203 		rsbge	r3, r3, r2
 2211 0436 C3EB0503 		rsblt	r3, r3, r5
 2212 043a 072B     		cmp	r3, #7
 2213 043c 2BDC     		bgt	.L171
 722:..\..\..\liblc3\src/ltpf.c ****             ((nc > 0.9f) || (nc > 0.84f && pitch_diff < 8 && nc_diff > -0.1f));
 2214              		.loc 1 722 0 is_stmt 1 discriminator 2
 2215 043e 77EEC76A 		vsub.f32	s13, s15, s14
 2216              	.LVL343:
 2217 0442 1FED336A 		vldr.32	s12, .L178+32
 2218 0446 F4EEC66A 		vcmpe.f32	s13, s12
 2219 044a 1CE0     		b	.L173
 2220              	.LVL344:
 2221              	.L147:
 722:..\..\..\liblc3\src/ltpf.c ****             ((nc > 0.9f) || (nc > 0.84f && pitch_diff < 8 && nc_diff > -0.1f));
 2222              		.loc 1 722 0 is_stmt 0
 2223 044c 0123     		movs	r3, #1
 2224 044e 23E0     		b	.L133
 2225              	.LVL345:
 2226              	.L129:
 2227              	.LBE120:
 726:..\..\..\liblc3\src/ltpf.c ****             ( (dt == LC3_DT_10M || ltpf->nc[1] > 0.94f) &&
 2228              		.loc 1 726 0 is_stmt 1
 2229 0450 019A     		ldr	r2, [sp, #4]
 2230 0452 042A     		cmp	r2, #4
 2231 0454 20D8     		bhi	.L133
 726:..\..\..\liblc3\src/ltpf.c ****             ( (dt == LC3_DT_10M || ltpf->nc[1] > 0.94f) &&
 2232              		.loc 1 726 0 is_stmt 0 discriminator 1
 2233 0456 B9F1000F 		cmp	r9, #0
 2234 045a 1AD0     		beq	.L151
 726:..\..\..\liblc3\src/ltpf.c ****             ( (dt == LC3_DT_10M || ltpf->nc[1] > 0.94f) &&
 2235              		.loc 1 726 0 discriminator 3
 2236 045c 009A     		ldr	r2, [sp]
ARM GAS  C:\Users\rdn\AppData\Local\Temp\ccIOjLNc.s 			page 59


 2237 045e 5FED396A 		vldr.32	s13, .L178+36
 2238 0462 032A     		cmp	r2, #3
 2239 0464 06D0     		beq	.L134
 727:..\..\..\liblc3\src/ltpf.c ****               (ltpf->nc[0] > 0.94f && nc > 0.94f) );
 2240              		.loc 1 727 0 is_stmt 1
 2241 0466 96ED036A 		vldr.32	s12, [r6, #12]
 2242 046a B4EEE66A 		vcmpe.f32	s12, s13
 2243 046e F1EE10FA 		vmrs	APSR_nzcv, FPSCR
 2244 0472 11DD     		ble	.L133
 2245              	.L134:
 727:..\..\..\liblc3\src/ltpf.c ****               (ltpf->nc[0] > 0.94f && nc > 0.94f) );
 2246              		.loc 1 727 0 is_stmt 0 discriminator 1
 2247 0474 B4EEE67A 		vcmpe.f32	s14, s13
 2248 0478 F1EE10FA 		vmrs	APSR_nzcv, FPSCR
 2249 047c 0BDD     		ble	.L171
 726:..\..\..\liblc3\src/ltpf.c ****             ( (dt == LC3_DT_10M || ltpf->nc[1] > 0.94f) &&
 2250              		.loc 1 726 0 is_stmt 1
 2251 047e 5FED416A 		vldr.32	s13, .L178+36
 2252 0482 F4EEE67A 		vcmpe.f32	s15, s13
 2253              	.L173:
 2254 0486 F1EE10FA 		vmrs	APSR_nzcv, FPSCR
 2255 048a CCBF     		ite	gt
 2256 048c 0123     		movgt	r3, #1
 2257 048e 0023     		movle	r3, #0
 2258 0490 02E0     		b	.L133
 2259              	.L151:
 2260 0492 4B46     		mov	r3, r9
 2261 0494 00E0     		b	.L133
 2262              	.L171:
 2263 0496 0023     		movs	r3, #0
 2264              	.L133:
 726:..\..\..\liblc3\src/ltpf.c ****             ( (dt == LC3_DT_10M || ltpf->nc[1] > 0.94f) &&
 2265              		.loc 1 726 0 is_stmt 0 discriminator 6
 2266 0498 B49A     		ldr	r2, [sp, #720]
 2267 049a 03F00103 		and	r3, r3, #1
 2268 049e 1370     		strb	r3, [r2]
 731:..\..\..\liblc3\src/ltpf.c ****      ltpf->pitch = pitch;
 2269              		.loc 1 731 0 is_stmt 1 discriminator 6
 2270 04a0 B49B     		ldr	r3, [sp, #720]
 2271 04a2 1B78     		ldrb	r3, [r3]	@ zero_extendqisi2
 2272 04a4 3370     		strb	r3, [r6]
 737:..\..\..\liblc3\src/ltpf.c **** 
 2273              		.loc 1 737 0 discriminator 6
 2274 04a6 4846     		mov	r0, r9
 732:..\..\..\liblc3\src/ltpf.c ****      ltpf->nc[1] = ltpf->nc[0];
 2275              		.loc 1 732 0 discriminator 6
 2276 04a8 7560     		str	r5, [r6, #4]
 733:..\..\..\liblc3\src/ltpf.c ****      ltpf->nc[0] = nc;
 2277              		.loc 1 733 0 discriminator 6
 2278 04aa 86ED037A 		vstr.32	s14, [r6, #12]
 734:..\..\..\liblc3\src/ltpf.c **** 
 2279              		.loc 1 734 0 discriminator 6
 2280 04ae C6ED027A 		vstr.32	s15, [r6, #8]
 2281              	.LVL346:
 737:..\..\..\liblc3\src/ltpf.c **** 
 2282              		.loc 1 737 0 discriminator 6
 2283 04b2 0DF5277D 		add	sp, sp, #668
ARM GAS  C:\Users\rdn\AppData\Local\Temp\ccIOjLNc.s 			page 60


 2284              		.cfi_def_cfa_offset 52
 2285              		@ sp needed
 2286 04b6 BDEC048B 		vldm	sp!, {d8-d9}
 2287              		.cfi_restore 82
 2288              		.cfi_restore 83
 2289              		.cfi_restore 80
 2290              		.cfi_restore 81
 2291              		.cfi_def_cfa_offset 36
 2292 04ba BDE8F08F 		pop	{r4, r5, r6, r7, r8, r9, r10, fp, pc}
 2293              		.cfi_endproc
 2294              	.LFE38:
 2295              		.size	lc3_ltpf_analyse, .-lc3_ltpf_analyse
 2296 04be 00BF     		.section	.text.lc3_ltpf_synthesize,"ax",%progbits
 2297              		.align	1
 2298              		.global	lc3_ltpf_synthesize
 2299              		.thumb
 2300              		.thumb_func
 2301              		.type	lc3_ltpf_synthesize, %function
 2302              	lc3_ltpf_synthesize:
 2303              	.LFB44:
 840:..\..\..\liblc3\src/ltpf.c **** 
 841:..\..\..\liblc3\src/ltpf.c **** static void (* const synthesize[])(const float *, int, int,
 842:..\..\..\liblc3\src/ltpf.c ****     const float *, float *, int, const float *, int) =
 843:..\..\..\liblc3\src/ltpf.c **** {
 844:..\..\..\liblc3\src/ltpf.c ****     [LC3_SRATE_8K ] = synthesize_4,
 845:..\..\..\liblc3\src/ltpf.c ****     [LC3_SRATE_16K] = synthesize_4,
 846:..\..\..\liblc3\src/ltpf.c ****     [LC3_SRATE_24K] = synthesize_6,
 847:..\..\..\liblc3\src/ltpf.c ****     [LC3_SRATE_32K] = synthesize_8,
 848:..\..\..\liblc3\src/ltpf.c ****     [LC3_SRATE_48K] = synthesize_12,
 849:..\..\..\liblc3\src/ltpf.c **** };
 850:..\..\..\liblc3\src/ltpf.c **** 
 851:..\..\..\liblc3\src/ltpf.c **** 
 852:..\..\..\liblc3\src/ltpf.c **** /**
 853:..\..\..\liblc3\src/ltpf.c ****  * LTPF Synthesis
 854:..\..\..\liblc3\src/ltpf.c ****  */
 855:..\..\..\liblc3\src/ltpf.c **** void lc3_ltpf_synthesize(enum lc3_dt dt, enum lc3_srate sr, int nbytes,
 856:..\..\..\liblc3\src/ltpf.c ****     lc3_ltpf_synthesis_t *ltpf, const lc3_ltpf_data_t *data,
 857:..\..\..\liblc3\src/ltpf.c ****     const float *xh, float *x)
 858:..\..\..\liblc3\src/ltpf.c **** {
 2304              		.loc 1 858 0
 2305              		.cfi_startproc
 2306              		@ args = 12, pretend = 0, frame = 408
 2307              		@ frame_needed = 0, uses_anonymous_args = 0
 2308              	.LVL347:
 2309 0000 2DE9F04F 		push	{r4, r5, r6, r7, r8, r9, r10, fp, lr}
 2310              		.cfi_def_cfa_offset 36
 2311              		.cfi_offset 4, -36
 2312              		.cfi_offset 5, -32
 2313              		.cfi_offset 6, -28
 2314              		.cfi_offset 7, -24
 2315              		.cfi_offset 8, -20
 2316              		.cfi_offset 9, -16
 2317              		.cfi_offset 10, -12
 2318              		.cfi_offset 11, -8
 2319              		.cfi_offset 14, -4
 2320 0004 9946     		mov	r9, r3
 2321              	.LBB129:
ARM GAS  C:\Users\rdn\AppData\Local\Temp\ccIOjLNc.s 			page 61


 2322              	.LBB130:
 2323              		.file 2 "..\\..\\..\\liblc3\\src\\tables.h"
   1:..\..\..\liblc3\src/tables.h **** /******************************************************************************
   2:..\..\..\liblc3\src/tables.h ****  *
   3:..\..\..\liblc3\src/tables.h ****  *  Copyright 2022 Google LLC
   4:..\..\..\liblc3\src/tables.h ****  *
   5:..\..\..\liblc3\src/tables.h ****  *  Licensed under the Apache License, Version 2.0 (the "License");
   6:..\..\..\liblc3\src/tables.h ****  *  you may not use this file except in compliance with the License.
   7:..\..\..\liblc3\src/tables.h ****  *  You may obtain a copy of the License at:
   8:..\..\..\liblc3\src/tables.h ****  *
   9:..\..\..\liblc3\src/tables.h ****  *  http://www.apache.org/licenses/LICENSE-2.0
  10:..\..\..\liblc3\src/tables.h ****  *
  11:..\..\..\liblc3\src/tables.h ****  *  Unless required by applicable law or agreed to in writing, software
  12:..\..\..\liblc3\src/tables.h ****  *  distributed under the License is distributed on an "AS IS" BASIS,
  13:..\..\..\liblc3\src/tables.h ****  *  WITHOUT WARRANTIES OR CONDITIONS OF ANY KIND, either express or implied.
  14:..\..\..\liblc3\src/tables.h ****  *  See the License for the specific language governing permissions and
  15:..\..\..\liblc3\src/tables.h ****  *  limitations under the License.
  16:..\..\..\liblc3\src/tables.h ****  *
  17:..\..\..\liblc3\src/tables.h ****  ******************************************************************************/
  18:..\..\..\liblc3\src/tables.h **** 
  19:..\..\..\liblc3\src/tables.h **** #ifndef __LC3_TABLES_H
  20:..\..\..\liblc3\src/tables.h **** #define __LC3_TABLES_H
  21:..\..\..\liblc3\src/tables.h **** 
  22:..\..\..\liblc3\src/tables.h **** #include "common.h"
  23:..\..\..\liblc3\src/tables.h **** #include "bits.h"
  24:..\..\..\liblc3\src/tables.h **** 
  25:..\..\..\liblc3\src/tables.h **** 
  26:..\..\..\liblc3\src/tables.h **** /**
  27:..\..\..\liblc3\src/tables.h ****  * Characteristics
  28:..\..\..\liblc3\src/tables.h ****  *
  29:..\..\..\liblc3\src/tables.h ****  *   ns   Number of temporal samples / frequency coefficients within a frame
  30:..\..\..\liblc3\src/tables.h ****  *
  31:..\..\..\liblc3\src/tables.h ****  *   ne   Number of encoded frequency coefficients
  32:..\..\..\liblc3\src/tables.h ****  *
  33:..\..\..\liblc3\src/tables.h ****  *   nd   Number of MDCT delayed samples, sum of half a frame and an ovelap
  34:..\..\..\liblc3\src/tables.h ****  *        of future by 1.25 ms (2.5ms, 5ms and 10ms frame durations),
  35:..\..\..\liblc3\src/tables.h ****  *        or 2 ms (7.5ms frame duration).
  36:..\..\..\liblc3\src/tables.h ****  *
  37:..\..\..\liblc3\src/tables.h ****  *   nh   Number of 18 ms samples of the history buffer, aligned on a frame
  38:..\..\..\liblc3\src/tables.h ****  *
  39:..\..\..\liblc3\src/tables.h ****  *   nt   Number of 1.25 ms previous samples
  40:..\..\..\liblc3\src/tables.h ****  */
  41:..\..\..\liblc3\src/tables.h **** 
  42:..\..\..\liblc3\src/tables.h **** extern const int lc3_ns_2m5[LC3_NUM_SRATE];
  43:..\..\..\liblc3\src/tables.h **** extern const int lc3_ne_2m5[LC3_NUM_SRATE];
  44:..\..\..\liblc3\src/tables.h **** extern const int lc3_ns_4m [LC3_NUM_SRATE];
  45:..\..\..\liblc3\src/tables.h **** 
  46:..\..\..\liblc3\src/tables.h **** static inline int lc3_ns(enum lc3_dt dt, enum lc3_srate sr) {
  47:..\..\..\liblc3\src/tables.h ****     return lc3_ns_2m5[sr] * (1 + dt);
 2324              		.loc 2 47 0
 2325 0006 AC4B     		ldr	r3, .L218
 2326              	.LVL348:
 2327              	.LBE130:
 2328              	.LBE129:
 2329              		.loc 1 858 0
 2330 0008 8846     		mov	r8, r1
 2331              	.LBB134:
ARM GAS  C:\Users\rdn\AppData\Local\Temp\ccIOjLNc.s 			page 62


 2332              	.LBB131:
 2333              		.loc 2 47 0
 2334 000a 53F82110 		ldr	r1, [r3, r1, lsl #2]
 2335              	.LVL349:
 2336              	.LBE131:
 2337              	.LBE134:
 2338              		.loc 1 858 0
 2339 000e EBB0     		sub	sp, sp, #428
 2340              		.cfi_def_cfa_offset 464
 2341              	.LBB135:
 2342              	.LBB132:
 2343              		.loc 2 47 0
 2344 0010 451C     		adds	r5, r0, #1
 2345 0012 01FB05F3 		mul	r3, r1, r5
 2346              	.LBE132:
 2347              	.LBE135:
 2348              	.LBB136:
 2349              	.LBB137:
  48:..\..\..\liblc3\src/tables.h **** }
  49:..\..\..\liblc3\src/tables.h **** 
  50:..\..\..\liblc3\src/tables.h **** static inline int lc3_ne(enum lc3_dt dt, enum lc3_srate sr) {
  51:..\..\..\liblc3\src/tables.h ****     return lc3_ne_2m5[sr] * (1 + dt);
  52:..\..\..\liblc3\src/tables.h **** }
  53:..\..\..\liblc3\src/tables.h **** 
  54:..\..\..\liblc3\src/tables.h **** static inline int lc3_nd(enum lc3_dt dt, enum lc3_srate sr) {
  55:..\..\..\liblc3\src/tables.h ****     return ( lc3_ns(dt, sr) +
  56:..\..\..\liblc3\src/tables.h ****         (dt == LC3_DT_7M5 ? lc3_ns_4m[sr] : lc3_ns_2m5[sr]) ) >> 1;
  57:..\..\..\liblc3\src/tables.h **** }
  58:..\..\..\liblc3\src/tables.h **** 
  59:..\..\..\liblc3\src/tables.h **** static inline int lc3_nh(enum lc3_dt dt, enum lc3_srate sr) {
  60:..\..\..\liblc3\src/tables.h ****     return sr > LC3_SRATE_48K_HR ? 0 :
 2350              		.loc 2 60 0
 2351 0016 B8F1050F 		cmp	r8, #5
 2352              	.LBE137:
 2353              	.LBE136:
 2354              		.loc 1 858 0
 2355 001a 749C     		ldr	r4, [sp, #464]
 2356 001c 769F     		ldr	r7, [sp, #472]
 2357              	.LBB139:
 2358              	.LBB133:
  47:..\..\..\liblc3\src/tables.h **** }
 2359              		.loc 2 47 0
 2360 001e 0493     		str	r3, [sp, #16]
 2361              	.LVL350:
 2362              	.LBE133:
 2363              	.LBE139:
 2364              	.LBB140:
 2365              	.LBB138:
 2366              		.loc 2 60 0
 2367 0020 05D8     		bhi	.L201
  61:..\..\..\liblc3\src/tables.h ****         (8 + (dt == LC3_DT_7M5)) * lc3_ns_2m5[sr];
 2368              		.loc 2 61 0
 2369 0022 0228     		cmp	r0, #2
 2370 0024 14BF     		ite	ne
 2371 0026 0826     		movne	r6, #8
 2372 0028 0926     		moveq	r6, #9
  60:..\..\..\liblc3\src/tables.h ****         (8 + (dt == LC3_DT_7M5)) * lc3_ns_2m5[sr];
ARM GAS  C:\Users\rdn\AppData\Local\Temp\ccIOjLNc.s 			page 63


 2373              		.loc 2 60 0
 2374 002a 4E43     		muls	r6, r1, r6
 2375 002c 00E0     		b	.L181
 2376              	.L201:
 2377 002e 0026     		movs	r6, #0
 2378              	.L181:
 2379              	.LVL351:
 2380              	.LBE138:
 2381              	.LBE140:
 859:..\..\..\liblc3\src/ltpf.c ****     int nh = lc3_ns(dt, sr) + lc3_nh(dt, sr);
 2382              		.loc 1 859 0
 2383 0030 049B     		ldr	r3, [sp, #16]
 2384 0032 1E44     		add	r6, r6, r3
 2385              	.LVL352:
 860:..\..\..\liblc3\src/ltpf.c **** 
 861:..\..\..\liblc3\src/ltpf.c ****     /* --- Filter parameters --- */
 862:..\..\..\liblc3\src/ltpf.c **** 
 863:..\..\..\liblc3\src/ltpf.c ****     int p_idx = data ? data->pitch_index : 0;
 2386              		.loc 1 863 0
 2387 0034 ACB1     		cbz	r4, .L203
 2388              		.loc 1 863 0 is_stmt 0 discriminator 1
 2389 0036 6368     		ldr	r3, [r4, #4]
 2390              	.LVL353:
 864:..\..\..\liblc3\src/ltpf.c ****     int pitch =
 865:..\..\..\liblc3\src/ltpf.c ****         p_idx >= 440 ? (((p_idx     ) - 283) << 2)  :
 2391              		.loc 1 865 0 is_stmt 1 discriminator 1
 2392 0038 B3F5DC7F 		cmp	r3, #440
 2393 003c 04DB     		blt	.L184
 2394 003e 6FF48D7E 		mvn	lr, #282
 2395 0042 7344     		add	r3, r3, lr
 2396              	.LVL354:
 2397 0044 9B00     		lsls	r3, r3, #2
 2398 0046 14E0     		b	.L185
 2399              	.LVL355:
 2400              	.L184:
 866:..\..\..\liblc3\src/ltpf.c ****         p_idx >= 380 ? (((p_idx >> 1) -  63) << 2) + (((p_idx & 1)) << 1) :
 2401              		.loc 1 866 0
 2402 0048 B3F5BE7F 		cmp	r3, #380
 2403 004c 0ADB     		blt	.L183
 2404              		.loc 1 866 0 is_stmt 0 discriminator 1
 2405 004e 4FEA630E 		asr	lr, r3, #1
 2406 0052 5B00     		lsls	r3, r3, #1
 2407              	.LVL356:
 2408 0054 AEF13F0E 		sub	lr, lr, #63
 2409 0058 03F00203 		and	r3, r3, #2
 2410 005c 03EB8E03 		add	r3, r3, lr, lsl #2
 2411 0060 07E0     		b	.L185
 2412              	.LVL357:
 2413              	.L203:
 863:..\..\..\liblc3\src/ltpf.c ****     int pitch =
 2414              		.loc 1 863 0 is_stmt 1
 2415 0062 2346     		mov	r3, r4
 2416              	.L183:
 2417              	.LVL358:
 2418              		.loc 1 866 0 discriminator 2
 2419 0064 23F0030E 		bic	lr, r3, #3
 2420 0068 0EF1800E 		add	lr, lr, #128
ARM GAS  C:\Users\rdn\AppData\Local\Temp\ccIOjLNc.s 			page 64


 2421 006c 03F00303 		and	r3, r3, #3
 2422              	.LVL359:
 2423 0070 7344     		add	r3, r3, lr
 2424              	.L185:
 2425              	.LVL360:
 867:..\..\..\liblc3\src/ltpf.c ****                        (((p_idx >> 2) +  32) << 2) + (((p_idx & 3)) << 0)  ;
 868:..\..\..\liblc3\src/ltpf.c **** 
 869:..\..\..\liblc3\src/ltpf.c ****     pitch = (pitch * lc3_ns(LC3_DT_10M, sr) + 64) / 128;
 2426              		.loc 1 869 0
 2427 0072 8900     		lsls	r1, r1, #2
 2428 0074 4B43     		muls	r3, r1, r3
 2429              	.LVL361:
 2430 0076 03F1400B 		add	fp, r3, #64
 870:..\..\..\liblc3\src/ltpf.c **** 
 871:..\..\..\liblc3\src/ltpf.c ****     int nbits = (nbytes*8 * (1 + LC3_DT_10M)) / (1 + dt);
 2431              		.loc 1 871 0
 2432 007a 5201     		lsls	r2, r2, #5
 2433              	.LVL362:
 869:..\..\..\liblc3\src/ltpf.c **** 
 2434              		.loc 1 869 0
 2435 007c 8023     		movs	r3, #128
 2436              		.loc 1 871 0
 2437 007e 92FBF5F2 		sdiv	r2, r2, r5
 869:..\..\..\liblc3\src/ltpf.c **** 
 2438              		.loc 1 869 0
 2439 0082 9BFBF3F3 		sdiv	r3, fp, r3
 2440 0086 0693     		str	r3, [sp, #24]
 2441              	.LVL363:
 872:..\..\..\liblc3\src/ltpf.c ****     if (dt == LC3_DT_2M5)
 2442              		.loc 1 872 0
 2443 0088 48B9     		cbnz	r0, .L186
 873:..\..\..\liblc3\src/ltpf.c ****       nbits = (6 * nbits + 5) / 10;
 2444              		.loc 1 873 0
 2445 008a 4FF0060C 		mov	ip, #6
 2446 008e 0CFB02F2 		mul	r2, ip, r2
 2447              	.LVL364:
 2448 0092 0532     		adds	r2, r2, #5
 2449 0094 4FF00A0C 		mov	ip, #10
 2450 0098 92FBFCF2 		sdiv	r2, r2, ip
 2451              	.LVL365:
 2452 009c 02E0     		b	.L187
 2453              	.L186:
 874:..\..\..\liblc3\src/ltpf.c ****     if (dt == LC3_DT_5M)
 2454              		.loc 1 874 0
 2455 009e 0128     		cmp	r0, #1
 875:..\..\..\liblc3\src/ltpf.c ****       nbits -= 160;
 2456              		.loc 1 875 0
 2457 00a0 08BF     		it	eq
 2458 00a2 A03A     		subeq	r2, r2, #160
 2459              	.LVL366:
 2460              	.L187:
 876:..\..\..\liblc3\src/ltpf.c **** 
 877:..\..\..\liblc3\src/ltpf.c ****     int g_idx = LC3_MAX(nbits / 80, (int)(3 + sr)) - (3 + sr);
 2461              		.loc 1 877 0
 2462 00a4 08F1030C 		add	ip, r8, #3
 2463 00a8 5023     		movs	r3, #80
 2464              	.LVL367:
ARM GAS  C:\Users\rdn\AppData\Local\Temp\ccIOjLNc.s 			page 65


 2465 00aa 92FBF3F2 		sdiv	r2, r2, r3
 2466              	.LVL368:
 2467 00ae 6245     		cmp	r2, ip
 2468 00b0 ACBF     		ite	ge
 2469 00b2 CCEB020C 		rsbge	ip, ip, r2
 2470 00b6 CCEB0C0C 		rsblt	ip, ip, ip
 2471              	.LVL369:
 878:..\..\..\liblc3\src/ltpf.c ****     bool active = data && data->active && g_idx < 4;
 2472              		.loc 1 878 0
 2473 00ba 34B1     		cbz	r4, .L188
 2474              		.loc 1 878 0 is_stmt 0 discriminator 1
 2475 00bc 2478     		ldrb	r4, [r4]	@ zero_extendqisi2
 2476 00be 24B1     		cbz	r4, .L188
 2477              		.loc 1 878 0 discriminator 3
 2478 00c0 BCF1030F 		cmp	ip, #3
 2479 00c4 CCBF     		ite	gt
 2480 00c6 0024     		movgt	r4, #0
 2481 00c8 0124     		movle	r4, #1
 2482              	.L188:
 2483              		.loc 1 878 0 discriminator 8
 2484 00ca 04F00103 		and	r3, r4, #1
 2485 00ce 0893     		str	r3, [sp, #32]
 2486              	.LVL370:
 2487              	.LBB141:
 2488              	.LBB142:
 879:..\..\..\liblc3\src/ltpf.c **** 
 880:..\..\..\liblc3\src/ltpf.c ****     int w = LC3_MAX(4, lc3_ns_4m[sr] >> 4);
 881:..\..\..\liblc3\src/ltpf.c ****     float c[2 * MAX_FILTER_WIDTH];
 882:..\..\..\liblc3\src/ltpf.c **** 
 883:..\..\..\liblc3\src/ltpf.c ****     for (int i = 0; i < w; i++) {
 884:..\..\..\liblc3\src/ltpf.c ****         float g = active ? 0.4f - 0.05f * g_idx : 0;
 885:..\..\..\liblc3\src/ltpf.c ****         c[  i] = g * lc3_ltpf_cden[sr][pitch & 3][(w-1)-i];
 2489              		.loc 1 885 0 is_stmt 1 discriminator 8
 2490 00d0 069B     		ldr	r3, [sp, #24]
 2491 00d2 7A49     		ldr	r1, .L218+4
 2492 00d4 DFF800E2 		ldr	lr, .L218+32
 884:..\..\..\liblc3\src/ltpf.c ****         c[  i] = g * lc3_ltpf_cden[sr][pitch & 3][(w-1)-i];
 2493              		.loc 1 884 0 discriminator 8
 2494 00d8 9FED796A 		vldr.32	s12, .L218+8
 2495 00dc DFED795A 		vldr.32	s11, .L218+12
 886:..\..\..\liblc3\src/ltpf.c ****         c[w+i] = 0.85f * g * lc3_ltpf_cnum[sr][LC3_MIN(g_idx, 3)][(w-1)-i];
 2496              		.loc 1 886 0 discriminator 8
 2497 00e0 DFED796A 		vldr.32	s13, .L218+16
 885:..\..\..\liblc3\src/ltpf.c ****         c[w+i] = 0.85f * g * lc3_ltpf_cnum[sr][LC3_MIN(g_idx, 3)][(w-1)-i];
 2498              		.loc 1 885 0 discriminator 8
 2499 00e4 03F00302 		and	r2, r3, #3
 2500 00e8 4FEA8803 		lsl	r3, r8, #2
 2501              	.LVL371:
 2502 00ec 1A44     		add	r2, r2, r3
 2503 00ee 51F82200 		ldr	r0, [r1, r2, lsl #2]
 2504              	.LVL372:
 2505              	.LBE142:
 2506              	.LBE141:
 880:..\..\..\liblc3\src/ltpf.c ****     float c[2 * MAX_FILTER_WIDTH];
 2507              		.loc 1 880 0 discriminator 8
 2508 00f2 764A     		ldr	r2, .L218+20
 2509 00f4 52F82820 		ldr	r2, [r2, r8, lsl #2]
ARM GAS  C:\Users\rdn\AppData\Local\Temp\ccIOjLNc.s 			page 66


 2510 00f8 4FEA221A 		asr	r10, r2, #4
 2511 00fc BAF1040F 		cmp	r10, #4
 2512 0100 B8BF     		it	lt
 2513 0102 4FF0040A 		movlt	r10, #4
 2514 0106 4FEA8A02 		lsl	r2, r10, #2
 2515              	.LBB145:
 2516              	.LBB143:
 2517              		.loc 1 886 0 discriminator 8
 2518 010a BCF1030F 		cmp	ip, #3
 2519 010e D4BF     		ite	le
 2520 0110 6344     		addle	r3, r3, ip
 2521 0112 0333     		addgt	r3, r3, #3
 2522              	.LVL373:
 2523 0114 0592     		str	r2, [sp, #20]
 2524 0116 8218     		adds	r2, r0, r2
 2525 0118 5EF82330 		ldr	r3, [lr, r3, lsl #2]
 2526 011c 0792     		str	r2, [sp, #28]
 2527 011e 059A     		ldr	r2, [sp, #20]
 2528 0120 0AA9     		add	r1, sp, #40
 2529 0122 1344     		add	r3, r3, r2
 2530 0124 01EB020E 		add	lr, r1, r2
 2531              	.LVL374:
 2532              	.L190:
 884:..\..\..\liblc3\src/ltpf.c ****         c[  i] = g * lc3_ltpf_cden[sr][pitch & 3][(w-1)-i];
 2533              		.loc 1 884 0
 2534 0128 54B1     		cbz	r4, .L206
 884:..\..\..\liblc3\src/ltpf.c ****         c[  i] = g * lc3_ltpf_cden[sr][pitch & 3][(w-1)-i];
 2535              		.loc 1 884 0 is_stmt 0 discriminator 1
 2536 012a 07EE90CA 		vmov	s15, ip	@ int
 2537 012e F8EEE77A 		vcvt.f32.s32	s15, s15
 2538 0132 B0EE657A 		vmov.f32	s14, s11
 2539 0136 A7EEC67A 		vfms.f32	s14, s15, s12
 2540 013a F0EE477A 		vmov.f32	s15, s14
 2541 013e 01E0     		b	.L189
 2542              	.L206:
 884:..\..\..\liblc3\src/ltpf.c ****         c[  i] = g * lc3_ltpf_cden[sr][pitch & 3][(w-1)-i];
 2543              		.loc 1 884 0
 2544 0140 DFED637A 		vldr.32	s15, .L218+24
 2545              	.L189:
 2546              	.LVL375:
 885:..\..\..\liblc3\src/ltpf.c ****         c[w+i] = 0.85f * g * lc3_ltpf_cnum[sr][LC3_MIN(g_idx, 3)][(w-1)-i];
 2547              		.loc 1 885 0 is_stmt 1 discriminator 4
 2548 0144 079A     		ldr	r2, [sp, #28]
 2549 0146 32ED017A 		vldmdb.32	r2!, {s14}
 2550 014a 27EE277A 		vmul.f32	s14, s14, s15
 2551              		.loc 1 886 0 discriminator 4
 2552 014e 67EEA67A 		vmul.f32	s15, s15, s13
 2553              	.LVL376:
 885:..\..\..\liblc3\src/ltpf.c ****         c[w+i] = 0.85f * g * lc3_ltpf_cnum[sr][LC3_MIN(g_idx, 3)][(w-1)-i];
 2554              		.loc 1 885 0 discriminator 4
 2555 0152 A1EC017A 		vstmia.32	r1!, {s14}
 2556              		.loc 1 886 0 discriminator 4
 2557 0156 33ED017A 		vldmdb.32	r3!, {s14}
 885:..\..\..\liblc3\src/ltpf.c ****         c[w+i] = 0.85f * g * lc3_ltpf_cnum[sr][LC3_MIN(g_idx, 3)][(w-1)-i];
 2558              		.loc 1 885 0 discriminator 4
 2559 015a 0792     		str	r2, [sp, #28]
 2560              		.loc 1 886 0 discriminator 4
ARM GAS  C:\Users\rdn\AppData\Local\Temp\ccIOjLNc.s 			page 67


 2561 015c 67EE877A 		vmul.f32	s15, s15, s14
 2562              	.LBE143:
 883:..\..\..\liblc3\src/ltpf.c ****         float g = active ? 0.4f - 0.05f * g_idx : 0;
 2563              		.loc 1 883 0 discriminator 4
 2564 0160 9042     		cmp	r0, r2
 2565              	.LBB144:
 2566              		.loc 1 886 0 discriminator 4
 2567 0162 EEEC017A 		vstmia.32	lr!, {s15}
 2568              	.LBE144:
 883:..\..\..\liblc3\src/ltpf.c ****         float g = active ? 0.4f - 0.05f * g_idx : 0;
 2569              		.loc 1 883 0 discriminator 4
 2570 0166 DFD1     		bne	.L190
 2571              	.LBE145:
 887:..\..\..\liblc3\src/ltpf.c ****     }
 888:..\..\..\liblc3\src/ltpf.c **** 
 889:..\..\..\liblc3\src/ltpf.c ****     /* --- Transition handling --- */
 890:..\..\..\liblc3\src/ltpf.c **** 
 891:..\..\..\liblc3\src/ltpf.c ****     int ns = lc3_ns(dt, sr);
 892:..\..\..\liblc3\src/ltpf.c ****     int nt = ns / (1 + dt);
 893:..\..\..\liblc3\src/ltpf.c ****     float x0[2][MAX_FILTER_WIDTH];
 894:..\..\..\liblc3\src/ltpf.c **** 
 895:..\..\..\liblc3\src/ltpf.c ****     memcpy(x0[0], ltpf->x, (w-1) * sizeof(float));
 2572              		.loc 1 895 0
 2573 0168 059A     		ldr	r2, [sp, #20]
 892:..\..\..\liblc3\src/ltpf.c ****     float x0[2][MAX_FILTER_WIDTH];
 2574              		.loc 1 892 0
 2575 016a 049B     		ldr	r3, [sp, #16]
 2576 016c 93FBF5F5 		sdiv	r5, r3, r5
 2577              	.LVL377:
 2578              		.loc 1 895 0
 2579 0170 09F16803 		add	r3, r9, #104
 2580 0174 043A     		subs	r2, r2, #4
 2581 0176 1946     		mov	r1, r3
 2582 0178 3AA8     		add	r0, sp, #232
 2583 017a 0792     		str	r2, [sp, #28]
 2584 017c 0993     		str	r3, [sp, #36]
 2585 017e FFF7FEFF 		bl	memcpy
 2586              	.LVL378:
 896:..\..\..\liblc3\src/ltpf.c ****     memcpy(ltpf->x, x + ns - (w-1), (w-1) * sizeof(float));
 2587              		.loc 1 896 0
 2588 0182 049B     		ldr	r3, [sp, #16]
 2589 0184 079A     		ldr	r2, [sp, #28]
 2590 0186 591C     		adds	r1, r3, #1
 2591 0188 099B     		ldr	r3, [sp, #36]
 2592 018a CAEB0101 		rsb	r1, r10, r1
 2593 018e 07EB8101 		add	r1, r7, r1, lsl #2
 2594 0192 1846     		mov	r0, r3
 2595 0194 FFF7FEFF 		bl	memcpy
 2596              	.LVL379:
 897:..\..\..\liblc3\src/ltpf.c **** 
 898:..\..\..\liblc3\src/ltpf.c ****     if (active)
 2597              		.loc 1 898 0
 2598 0198 44B1     		cbz	r4, .L191
 899:..\..\..\liblc3\src/ltpf.c ****         memcpy(x0[1], x + nt-(w-1), (w-1) * sizeof(float));
 2599              		.loc 1 899 0
 2600 019a CAEB0501 		rsb	r1, r10, r5
 2601 019e 0131     		adds	r1, r1, #1
ARM GAS  C:\Users\rdn\AppData\Local\Temp\ccIOjLNc.s 			page 68


 2602 01a0 079A     		ldr	r2, [sp, #28]
 2603 01a2 07EB8101 		add	r1, r7, r1, lsl #2
 2604 01a6 52A8     		add	r0, sp, #328
 2605 01a8 FFF7FEFF 		bl	memcpy
 2606              	.LVL380:
 2607              	.L191:
 900:..\..\..\liblc3\src/ltpf.c **** 
 901:..\..\..\liblc3\src/ltpf.c ****     if (!ltpf->active && active)
 2608              		.loc 1 901 0
 2609 01ac 99F80030 		ldrb	r3, [r9]	@ zero_extendqisi2
 2610 01b0 0AA9     		add	r1, sp, #40
 2611 01b2 33B9     		cbnz	r3, .L192
 2612              		.loc 1 901 0 is_stmt 0 discriminator 1
 2613 01b4 002C     		cmp	r4, #0
 2614 01b6 6DD0     		beq	.L200
 902:..\..\..\liblc3\src/ltpf.c ****         synthesize[sr](xh, nh, pitch/4, x0[0], x, nt, c, 1);
 2615              		.loc 1 902 0 is_stmt 1
 2616 01b8 464B     		ldr	r3, .L218+28
 2617 01ba 0122     		movs	r2, #1
 2618 01bc 03EB8803 		add	r3, r3, r8, lsl #2
 2619 01c0 1AE0     		b	.L217
 2620              	.L192:
 2621 01c2 4FEA8803 		lsl	r3, r8, #2
 2622 01c6 4348     		ldr	r0, .L218+28
 2623 01c8 D9F80420 		ldr	r2, [r9, #4]
 903:..\..\..\liblc3\src/ltpf.c ****     else if (ltpf->active && !active)
 2624              		.loc 1 903 0 discriminator 1
 2625 01cc 7CB9     		cbnz	r4, .L195
 904:..\..\..\liblc3\src/ltpf.c ****         synthesize[sr](xh, nh, ltpf->pitch/4, x0[0], x, nt, ltpf->c, -1);
 2626              		.loc 1 904 0
 2627 01ce 0344     		add	r3, r3, r0
 2628 01d0 4FF0FF31 		mov	r1, #-1
 2629 01d4 0391     		str	r1, [sp, #12]
 2630 01d6 09F10801 		add	r1, r9, #8
 2631 01da 0291     		str	r1, [sp, #8]
 2632 01dc D3F83C48 		ldr	r4, [r3, #2108]
 2633 01e0 0195     		str	r5, [sp, #4]
 2634 01e2 0421     		movs	r1, #4
 2635 01e4 0097     		str	r7, [sp]
 2636 01e6 3AAB     		add	r3, sp, #232
 2637 01e8 92FBF1F2 		sdiv	r2, r2, r1
 2638 01ec 4FE0     		b	.L215
 2639              	.L195:
 905:..\..\..\liblc3\src/ltpf.c ****     else if (ltpf->active && active && ltpf->pitch == pitch)
 2640              		.loc 1 905 0 discriminator 2
 2641 01ee 069C     		ldr	r4, [sp, #24]
 2642 01f0 9442     		cmp	r4, r2
 906:..\..\..\liblc3\src/ltpf.c ****         synthesize[sr](xh, nh, pitch/4, x0[0], x, nt, c, 0);
 2643              		.loc 1 906 0 discriminator 2
 2644 01f2 0344     		add	r3, r3, r0
 905:..\..\..\liblc3\src/ltpf.c ****     else if (ltpf->active && active && ltpf->pitch == pitch)
 2645              		.loc 1 905 0 discriminator 2
 2646 01f4 0CD1     		bne	.L196
 2647              		.loc 1 906 0
 2648 01f6 0022     		movs	r2, #0
 2649              	.L217:
 2650 01f8 0392     		str	r2, [sp, #12]
ARM GAS  C:\Users\rdn\AppData\Local\Temp\ccIOjLNc.s 			page 69


 2651 01fa D3F83C48 		ldr	r4, [r3, #2108]
 2652 01fe 0291     		str	r1, [sp, #8]
 2653 0200 4FF40072 		mov	r2, #512
 2654 0204 0195     		str	r5, [sp, #4]
 2655 0206 0097     		str	r7, [sp]
 2656 0208 3AAB     		add	r3, sp, #232
 2657 020a 9BFBF2F2 		sdiv	r2, fp, r2
 2658 020e 24E0     		b	.L216
 2659              	.L196:
 907:..\..\..\liblc3\src/ltpf.c ****     else if (ltpf->active && active) {
 908:..\..\..\liblc3\src/ltpf.c ****         synthesize[sr](xh, nh, ltpf->pitch/4, x0[0], x, nt, ltpf->c, -1);
 2660              		.loc 1 908 0
 2661 0210 D3F83C48 		ldr	r4, [r3, #2108]
 2662 0214 0195     		str	r5, [sp, #4]
 2663 0216 4FF0FF33 		mov	r3, #-1
 2664 021a 0393     		str	r3, [sp, #12]
 2665 021c 09F10803 		add	r3, r9, #8
 2666 0220 0293     		str	r3, [sp, #8]
 2667 0222 0421     		movs	r1, #4
 2668 0224 3AAB     		add	r3, sp, #232
 2669 0226 92FBF1F2 		sdiv	r2, r2, r1
 2670 022a 0097     		str	r7, [sp]
 2671 022c 3146     		mov	r1, r6
 2672 022e 7598     		ldr	r0, [sp, #468]
 2673 0230 A047     		blx	r4
 2674              	.LVL381:
 909:..\..\..\liblc3\src/ltpf.c ****         synthesize[sr](xh, nh, pitch/4,
 910:..\..\..\liblc3\src/ltpf.c ****             (x <= xh ? x + nh : x) - (w-1), x, nt, c, 1);
 2675              		.loc 1 910 0
 2676 0232 759B     		ldr	r3, [sp, #468]
 909:..\..\..\liblc3\src/ltpf.c ****         synthesize[sr](xh, nh, pitch/4,
 2677              		.loc 1 909 0
 2678 0234 0195     		str	r5, [sp, #4]
 2679 0236 0121     		movs	r1, #1
 2680              		.loc 1 910 0
 2681 0238 9F42     		cmp	r7, r3
 909:..\..\..\liblc3\src/ltpf.c ****         synthesize[sr](xh, nh, pitch/4,
 2682              		.loc 1 909 0
 2683 023a 0391     		str	r1, [sp, #12]
 2684 023c 0AA9     		add	r1, sp, #40
 2685              		.loc 1 910 0
 2686 023e 98BF     		it	ls
 2687 0240 731C     		addls	r3, r6, #1
 909:..\..\..\liblc3\src/ltpf.c ****         synthesize[sr](xh, nh, pitch/4,
 2688              		.loc 1 909 0
 2689 0242 0291     		str	r1, [sp, #8]
 2690 0244 0599     		ldr	r1, [sp, #20]
 2691 0246 0097     		str	r7, [sp]
 2692              		.loc 1 910 0
 2693 0248 94BF     		ite	ls
 2694 024a 07EB8303 		addls	r3, r7, r3, lsl #2
 2695 024e 3B1D     		addhi	r3, r7, #4
 909:..\..\..\liblc3\src/ltpf.c ****         synthesize[sr](xh, nh, pitch/4,
 2696              		.loc 1 909 0
 2697 0250 5B1A     		subs	r3, r3, r1
 2698 0252 4FF40072 		mov	r2, #512
 2699 0256 9BFBF2F2 		sdiv	r2, fp, r2
ARM GAS  C:\Users\rdn\AppData\Local\Temp\ccIOjLNc.s 			page 70


 2700              	.L216:
 909:..\..\..\liblc3\src/ltpf.c ****         synthesize[sr](xh, nh, pitch/4,
 2701              		.loc 1 909 0 is_stmt 0 discriminator 4
 2702 025a 3146     		mov	r1, r6
 2703 025c 7598     		ldr	r0, [sp, #468]
 2704 025e A047     		blx	r4
 2705              	.LVL382:
 911:..\..\..\liblc3\src/ltpf.c ****     }
 912:..\..\..\liblc3\src/ltpf.c **** 
 913:..\..\..\liblc3\src/ltpf.c ****     /* --- Remainder --- */
 914:..\..\..\liblc3\src/ltpf.c **** 
 915:..\..\..\liblc3\src/ltpf.c ****     if (active && ns > nt)
 2706              		.loc 1 915 0 is_stmt 1 discriminator 4
 2707 0260 049B     		ldr	r3, [sp, #16]
 2708 0262 9D42     		cmp	r5, r3
 2709 0264 16DA     		bge	.L200
 916:..\..\..\liblc3\src/ltpf.c ****         synthesize[sr](xh, nh, pitch/4, x0[1], x + nt, ns-nt, c, 0);
 2710              		.loc 1 916 0
 2711 0266 1B4B     		ldr	r3, .L218+28
 2712 0268 03EB8808 		add	r8, r3, r8, lsl #2
 2713              	.LVL383:
 2714 026c 0023     		movs	r3, #0
 2715 026e 0393     		str	r3, [sp, #12]
 2716 0270 0AAB     		add	r3, sp, #40
 2717 0272 0293     		str	r3, [sp, #8]
 2718 0274 049B     		ldr	r3, [sp, #16]
 2719 0276 D8F83C48 		ldr	r4, [r8, #2108]
 2720 027a 5B1B     		subs	r3, r3, r5
 2721 027c 07EB8505 		add	r5, r7, r5, lsl #2
 2722              	.LVL384:
 2723 0280 0193     		str	r3, [sp, #4]
 2724 0282 0095     		str	r5, [sp]
 2725 0284 52AB     		add	r3, sp, #328
 2726 0286 4FF40072 		mov	r2, #512
 2727 028a 9BFBF2F2 		sdiv	r2, fp, r2
 2728              	.L215:
 2729 028e 3146     		mov	r1, r6
 2730 0290 7598     		ldr	r0, [sp, #468]
 2731 0292 A047     		blx	r4
 2732              	.LVL385:
 2733              	.L200:
 917:..\..\..\liblc3\src/ltpf.c **** 
 918:..\..\..\liblc3\src/ltpf.c ****     /* --- Update state --- */
 919:..\..\..\liblc3\src/ltpf.c **** 
 920:..\..\..\liblc3\src/ltpf.c ****     ltpf->active = active;
 2734              		.loc 1 920 0
 2735 0294 9DF82030 		ldrb	r3, [sp, #32]	@ zero_extendqisi2
 2736 0298 89F80030 		strb	r3, [r9]
 921:..\..\..\liblc3\src/ltpf.c ****     ltpf->pitch = pitch;
 2737              		.loc 1 921 0
 2738 029c 069B     		ldr	r3, [sp, #24]
 2739 029e C9F80430 		str	r3, [r9, #4]
 922:..\..\..\liblc3\src/ltpf.c ****     memcpy(ltpf->c, c, 2*w * sizeof(*ltpf->c));
 2740              		.loc 1 922 0
 2741 02a2 4FEACA02 		lsl	r2, r10, #3
 2742 02a6 0AA9     		add	r1, sp, #40
 2743 02a8 09F10800 		add	r0, r9, #8
ARM GAS  C:\Users\rdn\AppData\Local\Temp\ccIOjLNc.s 			page 71


 2744 02ac FFF7FEFF 		bl	memcpy
 2745              	.LVL386:
 923:..\..\..\liblc3\src/ltpf.c **** }
 2746              		.loc 1 923 0
 2747 02b0 6BB0     		add	sp, sp, #428
 2748              		.cfi_def_cfa_offset 36
 2749              		@ sp needed
 2750 02b2 BDE8F08F 		pop	{r4, r5, r6, r7, r8, r9, r10, fp, pc}
 2751              	.LVL387:
 2752              	.L219:
 2753 02b6 00BF     		.align	2
 2754              	.L218:
 2755 02b8 00000000 		.word	lc3_ns_2m5
 2756 02bc 00000000 		.word	lc3_ltpf_cden
 2757 02c0 CDCC4C3D 		.word	1028443341
 2758 02c4 CDCCCC3E 		.word	1053609165
 2759 02c8 9A99593F 		.word	1062836634
 2760 02cc 00000000 		.word	lc3_ns_4m
 2761 02d0 00000000 		.word	0
 2762 02d4 00000000 		.word	.LANCHOR0
 2763 02d8 00000000 		.word	lc3_ltpf_cnum
 2764              		.cfi_endproc
 2765              	.LFE44:
 2766              		.size	lc3_ltpf_synthesize, .-lc3_ltpf_synthesize
 2767              		.section	.text.lc3_ltpf_disable,"ax",%progbits
 2768              		.align	1
 2769              		.global	lc3_ltpf_disable
 2770              		.thumb
 2771              		.thumb_func
 2772              		.type	lc3_ltpf_disable, %function
 2773              	lc3_ltpf_disable:
 2774              	.LFB45:
 924:..\..\..\liblc3\src/ltpf.c **** 
 925:..\..\..\liblc3\src/ltpf.c **** 
 926:..\..\..\liblc3\src/ltpf.c **** /* ----------------------------------------------------------------------------
 927:..\..\..\liblc3\src/ltpf.c ****  *  Bitstream data
 928:..\..\..\liblc3\src/ltpf.c ****  * -------------------------------------------------------------------------- */
 929:..\..\..\liblc3\src/ltpf.c **** 
 930:..\..\..\liblc3\src/ltpf.c **** /**
 931:..\..\..\liblc3\src/ltpf.c ****  * LTPF disable
 932:..\..\..\liblc3\src/ltpf.c ****  */
 933:..\..\..\liblc3\src/ltpf.c **** void lc3_ltpf_disable(struct lc3_ltpf_data *data)
 934:..\..\..\liblc3\src/ltpf.c **** {
 2775              		.loc 1 934 0
 2776              		.cfi_startproc
 2777              		@ args = 0, pretend = 0, frame = 0
 2778              		@ frame_needed = 0, uses_anonymous_args = 0
 2779              		@ link register save eliminated.
 2780              	.LVL388:
 935:..\..\..\liblc3\src/ltpf.c ****     data->active = false;
 2781              		.loc 1 935 0
 2782 0000 0023     		movs	r3, #0
 2783 0002 0370     		strb	r3, [r0]
 2784 0004 7047     		bx	lr
 2785              		.cfi_endproc
 2786              	.LFE45:
 2787              		.size	lc3_ltpf_disable, .-lc3_ltpf_disable
ARM GAS  C:\Users\rdn\AppData\Local\Temp\ccIOjLNc.s 			page 72


 2788              		.section	.text.lc3_ltpf_get_nbits,"ax",%progbits
 2789              		.align	1
 2790              		.global	lc3_ltpf_get_nbits
 2791              		.thumb
 2792              		.thumb_func
 2793              		.type	lc3_ltpf_get_nbits, %function
 2794              	lc3_ltpf_get_nbits:
 2795              	.LFB46:
 936:..\..\..\liblc3\src/ltpf.c **** }
 937:..\..\..\liblc3\src/ltpf.c **** 
 938:..\..\..\liblc3\src/ltpf.c **** /**
 939:..\..\..\liblc3\src/ltpf.c ****  * Return number of bits coding the bitstream data
 940:..\..\..\liblc3\src/ltpf.c ****  */
 941:..\..\..\liblc3\src/ltpf.c **** int lc3_ltpf_get_nbits(bool pitch)
 942:..\..\..\liblc3\src/ltpf.c **** {
 2796              		.loc 1 942 0
 2797              		.cfi_startproc
 2798              		@ args = 0, pretend = 0, frame = 0
 2799              		@ frame_needed = 0, uses_anonymous_args = 0
 2800              		@ link register save eliminated.
 2801              	.LVL389:
 943:..\..\..\liblc3\src/ltpf.c ****     return 1 + 10 * pitch;
 2802              		.loc 1 943 0
 2803 0000 0A23     		movs	r3, #10
 2804 0002 5843     		muls	r0, r3, r0
 2805              	.LVL390:
 944:..\..\..\liblc3\src/ltpf.c **** }
 2806              		.loc 1 944 0
 2807 0004 0130     		adds	r0, r0, #1
 2808 0006 7047     		bx	lr
 2809              		.cfi_endproc
 2810              	.LFE46:
 2811              		.size	lc3_ltpf_get_nbits, .-lc3_ltpf_get_nbits
 2812              		.section	.text.lc3_ltpf_put_data,"ax",%progbits
 2813              		.align	1
 2814              		.global	lc3_ltpf_put_data
 2815              		.thumb
 2816              		.thumb_func
 2817              		.type	lc3_ltpf_put_data, %function
 2818              	lc3_ltpf_put_data:
 2819              	.LFB47:
 945:..\..\..\liblc3\src/ltpf.c **** 
 946:..\..\..\liblc3\src/ltpf.c **** /**
 947:..\..\..\liblc3\src/ltpf.c ****  * Put bitstream data
 948:..\..\..\liblc3\src/ltpf.c ****  */
 949:..\..\..\liblc3\src/ltpf.c **** void lc3_ltpf_put_data(lc3_bits_t *bits,
 950:..\..\..\liblc3\src/ltpf.c ****     const struct lc3_ltpf_data *data)
 951:..\..\..\liblc3\src/ltpf.c **** {
 2820              		.loc 1 951 0
 2821              		.cfi_startproc
 2822              		@ args = 0, pretend = 0, frame = 0
 2823              		@ frame_needed = 0, uses_anonymous_args = 0
 2824              	.LVL391:
 2825              	.LBB152:
 2826              	.LBB153:
 2827              	.LBB154:
 2828              	.LBB155:
ARM GAS  C:\Users\rdn\AppData\Local\Temp\ccIOjLNc.s 			page 73


 2829              		.file 3 "..\\..\\..\\liblc3\\src\\bits.h"
   1:..\..\..\liblc3\src/bits.h **** /******************************************************************************
   2:..\..\..\liblc3\src/bits.h ****  *
   3:..\..\..\liblc3\src/bits.h ****  *  Copyright 2022 Google LLC
   4:..\..\..\liblc3\src/bits.h ****  *
   5:..\..\..\liblc3\src/bits.h ****  *  Licensed under the Apache License, Version 2.0 (the "License");
   6:..\..\..\liblc3\src/bits.h ****  *  you may not use this file except in compliance with the License.
   7:..\..\..\liblc3\src/bits.h ****  *  You may obtain a copy of the License at:
   8:..\..\..\liblc3\src/bits.h ****  *
   9:..\..\..\liblc3\src/bits.h ****  *  http://www.apache.org/licenses/LICENSE-2.0
  10:..\..\..\liblc3\src/bits.h ****  *
  11:..\..\..\liblc3\src/bits.h ****  *  Unless required by applicable law or agreed to in writing, software
  12:..\..\..\liblc3\src/bits.h ****  *  distributed under the License is distributed on an "AS IS" BASIS,
  13:..\..\..\liblc3\src/bits.h ****  *  WITHOUT WARRANTIES OR CONDITIONS OF ANY KIND, either express or implied.
  14:..\..\..\liblc3\src/bits.h ****  *  See the License for the specific language governing permissions and
  15:..\..\..\liblc3\src/bits.h ****  *  limitations under the License.
  16:..\..\..\liblc3\src/bits.h ****  *
  17:..\..\..\liblc3\src/bits.h ****  ******************************************************************************/
  18:..\..\..\liblc3\src/bits.h **** 
  19:..\..\..\liblc3\src/bits.h **** /**
  20:..\..\..\liblc3\src/bits.h ****  * The bitstream is written by the 2 ends of the buffer :
  21:..\..\..\liblc3\src/bits.h ****  *
  22:..\..\..\liblc3\src/bits.h ****  * - Arthmetic coder put bits while increasing memory addresses
  23:..\..\..\liblc3\src/bits.h ****  *   in the buffer (forward)
  24:..\..\..\liblc3\src/bits.h ****  *
  25:..\..\..\liblc3\src/bits.h ****  * - Plain bits are puts starting the end of the buffer, with memeory
  26:..\..\..\liblc3\src/bits.h ****  *   addresses decreasing (backward)
  27:..\..\..\liblc3\src/bits.h ****  *
  28:..\..\..\liblc3\src/bits.h ****  *       .---------------------------------------------------.
  29:..\..\..\liblc3\src/bits.h ****  *       | > > > > > > > > > > :         : < < < < < < < < < |
  30:..\..\..\liblc3\src/bits.h ****  *       '---------------------------------------------------'
  31:..\..\..\liblc3\src/bits.h ****  *       |---------------------> - - - - - - - - - - - - - ->|
  32:..\..\..\liblc3\src/bits.h ****  *                              |< - - - <-------------------|
  33:..\..\..\liblc3\src/bits.h ****  *          Arithmetic coding                  Plain bits
  34:..\..\..\liblc3\src/bits.h ****  *          `lc3_put_symbol()`               `lc3_put_bits()`
  35:..\..\..\liblc3\src/bits.h ****  *
  36:..\..\..\liblc3\src/bits.h ****  * - The forward writing is protected against buffer overflow, it cannot
  37:..\..\..\liblc3\src/bits.h ****  *   write after the buffer, but can overwrite plain bits previously
  38:..\..\..\liblc3\src/bits.h ****  *   written in the buffer.
  39:..\..\..\liblc3\src/bits.h ****  *
  40:..\..\..\liblc3\src/bits.h ****  * - The backward writing is protected against overwrite of the arithmetic
  41:..\..\..\liblc3\src/bits.h ****  *   coder bitstream. In such way, the backward bitstream is always limited
  42:..\..\..\liblc3\src/bits.h ****  *   by the aritmetic coder bitstream, and can be overwritten by him.
  43:..\..\..\liblc3\src/bits.h ****  *
  44:..\..\..\liblc3\src/bits.h ****  *       .---------------------------------------------------.
  45:..\..\..\liblc3\src/bits.h ****  *       | > > > > > > > > > > :         : < < < < < < < < < |
  46:..\..\..\liblc3\src/bits.h ****  *       '---------------------------------------------------'
  47:..\..\..\liblc3\src/bits.h ****  *       |---------------------> - - - - - - - - - - - - - ->|
  48:..\..\..\liblc3\src/bits.h ****  *       |< - - - - - - - - - - -  - - - <-------------------|
  49:..\..\..\liblc3\src/bits.h ****  *          Arithmetic coding                  Plain bits
  50:..\..\..\liblc3\src/bits.h ****  *          `lc3_get_symbol()`               `lc3_get_bits()`
  51:..\..\..\liblc3\src/bits.h ****  *
  52:..\..\..\liblc3\src/bits.h ****  * - Reading is limited to read of the complementary end of the buffer.
  53:..\..\..\liblc3\src/bits.h ****  *
  54:..\..\..\liblc3\src/bits.h ****  * - The procedure `lc3_check_bits()` returns indication that read has been
  55:..\..\..\liblc3\src/bits.h ****  *   made crossing the other bit plane.
  56:..\..\..\liblc3\src/bits.h ****  *
ARM GAS  C:\Users\rdn\AppData\Local\Temp\ccIOjLNc.s 			page 74


  57:..\..\..\liblc3\src/bits.h ****  */
  58:..\..\..\liblc3\src/bits.h **** 
  59:..\..\..\liblc3\src/bits.h **** #ifndef __LC3_BITS_H
  60:..\..\..\liblc3\src/bits.h **** #define __LC3_BITS_H
  61:..\..\..\liblc3\src/bits.h **** 
  62:..\..\..\liblc3\src/bits.h **** #include "common.h"
  63:..\..\..\liblc3\src/bits.h **** 
  64:..\..\..\liblc3\src/bits.h **** 
  65:..\..\..\liblc3\src/bits.h **** /**
  66:..\..\..\liblc3\src/bits.h ****  * Bitstream mode
  67:..\..\..\liblc3\src/bits.h ****  */
  68:..\..\..\liblc3\src/bits.h **** 
  69:..\..\..\liblc3\src/bits.h **** enum lc3_bits_mode {
  70:..\..\..\liblc3\src/bits.h ****     LC3_BITS_MODE_READ,
  71:..\..\..\liblc3\src/bits.h ****     LC3_BITS_MODE_WRITE,
  72:..\..\..\liblc3\src/bits.h **** };
  73:..\..\..\liblc3\src/bits.h **** 
  74:..\..\..\liblc3\src/bits.h **** /**
  75:..\..\..\liblc3\src/bits.h ****  * Arithmetic coder symbol interval
  76:..\..\..\liblc3\src/bits.h ****  * The model split the interval in 17 symbols
  77:..\..\..\liblc3\src/bits.h ****  */
  78:..\..\..\liblc3\src/bits.h **** 
  79:..\..\..\liblc3\src/bits.h **** struct lc3_ac_symbol {
  80:..\..\..\liblc3\src/bits.h ****     uint16_t low   : 16;
  81:..\..\..\liblc3\src/bits.h ****     uint16_t range : 16;
  82:..\..\..\liblc3\src/bits.h **** };
  83:..\..\..\liblc3\src/bits.h **** 
  84:..\..\..\liblc3\src/bits.h **** struct lc3_ac_model {
  85:..\..\..\liblc3\src/bits.h ****     struct lc3_ac_symbol s[17];
  86:..\..\..\liblc3\src/bits.h **** };
  87:..\..\..\liblc3\src/bits.h **** 
  88:..\..\..\liblc3\src/bits.h **** /**
  89:..\..\..\liblc3\src/bits.h ****  * Bitstream context
  90:..\..\..\liblc3\src/bits.h ****  */
  91:..\..\..\liblc3\src/bits.h **** 
  92:..\..\..\liblc3\src/bits.h **** #define LC3_ACCU_BITS (int)(8 * sizeof(unsigned))
  93:..\..\..\liblc3\src/bits.h **** 
  94:..\..\..\liblc3\src/bits.h **** struct lc3_bits_accu {
  95:..\..\..\liblc3\src/bits.h ****     unsigned v;
  96:..\..\..\liblc3\src/bits.h ****     int n, nover;
  97:..\..\..\liblc3\src/bits.h **** };
  98:..\..\..\liblc3\src/bits.h **** 
  99:..\..\..\liblc3\src/bits.h **** #define LC3_AC_BITS (int)(24)
 100:..\..\..\liblc3\src/bits.h **** 
 101:..\..\..\liblc3\src/bits.h **** struct lc3_bits_ac {
 102:..\..\..\liblc3\src/bits.h ****     unsigned low, range;
 103:..\..\..\liblc3\src/bits.h ****     int cache, carry, carry_count;
 104:..\..\..\liblc3\src/bits.h ****     bool error;
 105:..\..\..\liblc3\src/bits.h **** };
 106:..\..\..\liblc3\src/bits.h **** 
 107:..\..\..\liblc3\src/bits.h **** struct lc3_bits_buffer {
 108:..\..\..\liblc3\src/bits.h ****     const uint8_t *start, *end;
 109:..\..\..\liblc3\src/bits.h ****     uint8_t *p_fw, *p_bw;
 110:..\..\..\liblc3\src/bits.h **** };
 111:..\..\..\liblc3\src/bits.h **** 
 112:..\..\..\liblc3\src/bits.h **** typedef struct lc3_bits {
 113:..\..\..\liblc3\src/bits.h ****     enum lc3_bits_mode mode;
ARM GAS  C:\Users\rdn\AppData\Local\Temp\ccIOjLNc.s 			page 75


 114:..\..\..\liblc3\src/bits.h ****     struct lc3_bits_ac ac;
 115:..\..\..\liblc3\src/bits.h ****     struct lc3_bits_accu accu;
 116:..\..\..\liblc3\src/bits.h ****     struct lc3_bits_buffer buffer;
 117:..\..\..\liblc3\src/bits.h **** } lc3_bits_t;
 118:..\..\..\liblc3\src/bits.h **** 
 119:..\..\..\liblc3\src/bits.h **** 
 120:..\..\..\liblc3\src/bits.h **** /**
 121:..\..\..\liblc3\src/bits.h ****  * Setup bitstream reading/writing
 122:..\..\..\liblc3\src/bits.h ****  * bits            Bitstream context
 123:..\..\..\liblc3\src/bits.h ****  * mode            Either READ or WRITE mode
 124:..\..\..\liblc3\src/bits.h ****  * buffer, len     Output buffer and length (in bytes)
 125:..\..\..\liblc3\src/bits.h ****  */
 126:..\..\..\liblc3\src/bits.h **** void lc3_setup_bits(lc3_bits_t *bits,
 127:..\..\..\liblc3\src/bits.h ****     enum lc3_bits_mode mode, void *buffer, int len);
 128:..\..\..\liblc3\src/bits.h **** 
 129:..\..\..\liblc3\src/bits.h **** /**
 130:..\..\..\liblc3\src/bits.h ****  * Return number of bits left in the bitstream
 131:..\..\..\liblc3\src/bits.h ****  * bits            Bitstream context
 132:..\..\..\liblc3\src/bits.h ****  * return          Number of bits left
 133:..\..\..\liblc3\src/bits.h ****  */
 134:..\..\..\liblc3\src/bits.h **** int lc3_get_bits_left(const lc3_bits_t *bits);
 135:..\..\..\liblc3\src/bits.h **** 
 136:..\..\..\liblc3\src/bits.h **** /**
 137:..\..\..\liblc3\src/bits.h ****  * Check if error occured on bitstream reading/writing
 138:..\..\..\liblc3\src/bits.h ****  * bits            Bitstream context
 139:..\..\..\liblc3\src/bits.h ****  * return          0: Ok  -1: Bitstream overflow or AC reading error
 140:..\..\..\liblc3\src/bits.h ****  */
 141:..\..\..\liblc3\src/bits.h **** int lc3_check_bits(const lc3_bits_t *bits);
 142:..\..\..\liblc3\src/bits.h **** 
 143:..\..\..\liblc3\src/bits.h **** /**
 144:..\..\..\liblc3\src/bits.h ****  * Put a bit
 145:..\..\..\liblc3\src/bits.h ****  * bits            Bitstream context
 146:..\..\..\liblc3\src/bits.h ****  * v               Bit value, 0 or 1
 147:..\..\..\liblc3\src/bits.h ****  */
 148:..\..\..\liblc3\src/bits.h **** static inline void lc3_put_bit(lc3_bits_t *bits, int v);
 149:..\..\..\liblc3\src/bits.h **** 
 150:..\..\..\liblc3\src/bits.h **** /**
 151:..\..\..\liblc3\src/bits.h ****  * Put from 1 to 32 bits
 152:..\..\..\liblc3\src/bits.h ****  * bits            Bitstream context
 153:..\..\..\liblc3\src/bits.h ****  * v, n            Value, in range 0 to 2^n - 1, and bits count (1 to 32)
 154:..\..\..\liblc3\src/bits.h ****  */
 155:..\..\..\liblc3\src/bits.h **** static inline void lc3_put_bits(lc3_bits_t *bits, unsigned v, int n);
 156:..\..\..\liblc3\src/bits.h **** 
 157:..\..\..\liblc3\src/bits.h **** /**
 158:..\..\..\liblc3\src/bits.h ****  * Put arithmetic coder symbol
 159:..\..\..\liblc3\src/bits.h ****  * bits            Bitstream context
 160:..\..\..\liblc3\src/bits.h ****  * model, s        Model distribution and symbol value
 161:..\..\..\liblc3\src/bits.h ****  */
 162:..\..\..\liblc3\src/bits.h **** static inline void lc3_put_symbol(lc3_bits_t *bits,
 163:..\..\..\liblc3\src/bits.h ****     const struct lc3_ac_model *model, unsigned s);
 164:..\..\..\liblc3\src/bits.h **** 
 165:..\..\..\liblc3\src/bits.h **** /**
 166:..\..\..\liblc3\src/bits.h ****  * Flush and terminate bitstream writing
 167:..\..\..\liblc3\src/bits.h ****  * bits            Bitstream context
 168:..\..\..\liblc3\src/bits.h ****  */
 169:..\..\..\liblc3\src/bits.h **** void lc3_flush_bits(lc3_bits_t *bits);
 170:..\..\..\liblc3\src/bits.h **** 
ARM GAS  C:\Users\rdn\AppData\Local\Temp\ccIOjLNc.s 			page 76


 171:..\..\..\liblc3\src/bits.h **** /**
 172:..\..\..\liblc3\src/bits.h ****  * Get a bit
 173:..\..\..\liblc3\src/bits.h ****  * bits            Bitstream context
 174:..\..\..\liblc3\src/bits.h ****  */
 175:..\..\..\liblc3\src/bits.h **** static inline int lc3_get_bit(lc3_bits_t *bits);
 176:..\..\..\liblc3\src/bits.h **** 
 177:..\..\..\liblc3\src/bits.h **** /**
 178:..\..\..\liblc3\src/bits.h ****  * Get from 1 to 32 bits
 179:..\..\..\liblc3\src/bits.h ****  * bits            Bitstream context
 180:..\..\..\liblc3\src/bits.h ****  * n               Number of bits to read (1 to 32)
 181:..\..\..\liblc3\src/bits.h ****  * return          The value read
 182:..\..\..\liblc3\src/bits.h ****  */
 183:..\..\..\liblc3\src/bits.h **** static inline unsigned lc3_get_bits(lc3_bits_t *bits,  int n);
 184:..\..\..\liblc3\src/bits.h **** 
 185:..\..\..\liblc3\src/bits.h **** /**
 186:..\..\..\liblc3\src/bits.h ****  * Get arithmetic coder symbol
 187:..\..\..\liblc3\src/bits.h ****  * bits            Bitstream context
 188:..\..\..\liblc3\src/bits.h ****  * model           Model distribution
 189:..\..\..\liblc3\src/bits.h ****  * return          The value read
 190:..\..\..\liblc3\src/bits.h ****  */
 191:..\..\..\liblc3\src/bits.h **** static inline unsigned lc3_get_symbol(lc3_bits_t *bits,
 192:..\..\..\liblc3\src/bits.h ****     const struct lc3_ac_model *model);
 193:..\..\..\liblc3\src/bits.h **** 
 194:..\..\..\liblc3\src/bits.h **** 
 195:..\..\..\liblc3\src/bits.h **** 
 196:..\..\..\liblc3\src/bits.h **** /* ----------------------------------------------------------------------------
 197:..\..\..\liblc3\src/bits.h ****  *  Inline implementations
 198:..\..\..\liblc3\src/bits.h ****  * -------------------------------------------------------------------------- */
 199:..\..\..\liblc3\src/bits.h **** 
 200:..\..\..\liblc3\src/bits.h **** void lc3_put_bits_generic(lc3_bits_t *bits, unsigned v, int n);
 201:..\..\..\liblc3\src/bits.h **** unsigned lc3_get_bits_generic(struct lc3_bits *bits, int n);
 202:..\..\..\liblc3\src/bits.h **** 
 203:..\..\..\liblc3\src/bits.h **** void lc3_ac_read_renorm(lc3_bits_t *bits);
 204:..\..\..\liblc3\src/bits.h **** void lc3_ac_write_renorm(lc3_bits_t *bits);
 205:..\..\..\liblc3\src/bits.h **** 
 206:..\..\..\liblc3\src/bits.h **** 
 207:..\..\..\liblc3\src/bits.h **** /**
 208:..\..\..\liblc3\src/bits.h ****  * Put a bit
 209:..\..\..\liblc3\src/bits.h ****  */
 210:..\..\..\liblc3\src/bits.h **** LC3_HOT static inline void lc3_put_bit(lc3_bits_t *bits, int v)
 211:..\..\..\liblc3\src/bits.h **** {
 212:..\..\..\liblc3\src/bits.h ****     lc3_put_bits(bits, v, 1);
 213:..\..\..\liblc3\src/bits.h **** }
 214:..\..\..\liblc3\src/bits.h **** 
 215:..\..\..\liblc3\src/bits.h **** /**
 216:..\..\..\liblc3\src/bits.h ****  * Put from 1 to 32 bits
 217:..\..\..\liblc3\src/bits.h ****  */
 218:..\..\..\liblc3\src/bits.h **** LC3_HOT static inline void lc3_put_bits(
 219:..\..\..\liblc3\src/bits.h ****     struct lc3_bits *bits, unsigned v, int n)
 220:..\..\..\liblc3\src/bits.h **** {
 221:..\..\..\liblc3\src/bits.h ****     struct lc3_bits_accu *accu = &bits->accu;
 222:..\..\..\liblc3\src/bits.h **** 
 223:..\..\..\liblc3\src/bits.h ****     if (accu->n + n <= LC3_ACCU_BITS) {
 2830              		.loc 3 223 0
 2831 0000 026A     		ldr	r2, [r0, #32]
 2832              	.LBE155:
 2833              	.LBE154:
ARM GAS  C:\Users\rdn\AppData\Local\Temp\ccIOjLNc.s 			page 77


 2834              	.LBE153:
 2835              	.LBE152:
 2836              		.loc 1 951 0
 2837 0002 38B5     		push	{r3, r4, r5, lr}
 2838              		.cfi_def_cfa_offset 16
 2839              		.cfi_offset 3, -16
 2840              		.cfi_offset 4, -12
 2841              		.cfi_offset 5, -8
 2842              		.cfi_offset 14, -4
 2843              	.LBB162:
 2844              	.LBB160:
 2845              	.LBB158:
 2846              	.LBB156:
 2847              		.loc 3 223 0
 2848 0004 531C     		adds	r3, r2, #1
 2849 0006 202B     		cmp	r3, #32
 2850              	.LBE156:
 2851              	.LBE158:
 2852              	.LBE160:
 2853              	.LBE162:
 2854              		.loc 1 951 0
 2855 0008 0D46     		mov	r5, r1
 2856 000a 0446     		mov	r4, r0
 2857              	.LBB163:
 2858              	.LBB161:
 212:..\..\..\liblc3\src/bits.h **** }
 2859              		.loc 3 212 0
 2860 000c 0978     		ldrb	r1, [r1]	@ zero_extendqisi2
 2861              	.LVL392:
 2862              	.LBB159:
 2863              	.LBB157:
 2864              		.loc 3 223 0
 2865 000e 05DC     		bgt	.L223
 224:..\..\..\liblc3\src/bits.h ****         accu->v |= v << accu->n;
 2866              		.loc 3 224 0
 2867 0010 9140     		lsls	r1, r1, r2
 2868              	.LVL393:
 2869 0012 C269     		ldr	r2, [r0, #28]
 225:..\..\..\liblc3\src/bits.h ****         accu->n += n;
 2870              		.loc 3 225 0
 2871 0014 0362     		str	r3, [r0, #32]
 2872              	.LVL394:
 224:..\..\..\liblc3\src/bits.h ****         accu->v |= v << accu->n;
 2873              		.loc 3 224 0
 2874 0016 1143     		orrs	r1, r1, r2
 2875 0018 C161     		str	r1, [r0, #28]
 2876 001a 02E0     		b	.L224
 2877              	.LVL395:
 2878              	.L223:
 226:..\..\..\liblc3\src/bits.h ****     } else {
 227:..\..\..\liblc3\src/bits.h ****         lc3_put_bits_generic(bits, v, n);
 2879              		.loc 3 227 0
 2880 001c 0122     		movs	r2, #1
 2881 001e FFF7FEFF 		bl	lc3_put_bits_generic
 2882              	.LVL396:
 2883              	.L224:
 2884              	.LBE157:
ARM GAS  C:\Users\rdn\AppData\Local\Temp\ccIOjLNc.s 			page 78


 2885              	.LBE159:
 2886              	.LBE161:
 2887              	.LBE163:
 2888              	.LBB164:
 2889              	.LBB165:
 223:..\..\..\liblc3\src/bits.h ****         accu->v |= v << accu->n;
 2890              		.loc 3 223 0
 2891 0022 226A     		ldr	r2, [r4, #32]
 2892              	.LBE165:
 2893              	.LBE164:
 952:..\..\..\liblc3\src/ltpf.c ****     lc3_put_bit(bits, data->active);
 953:..\..\..\liblc3\src/ltpf.c ****     lc3_put_bits(bits, data->pitch_index, 9);
 2894              		.loc 1 953 0
 2895 0024 6968     		ldr	r1, [r5, #4]
 2896              	.LVL397:
 2897              	.LBB168:
 2898              	.LBB166:
 223:..\..\..\liblc3\src/bits.h ****         accu->v |= v << accu->n;
 2899              		.loc 3 223 0
 2900 0026 02F10903 		add	r3, r2, #9
 2901 002a 202B     		cmp	r3, #32
 2902 002c 05DC     		bgt	.L225
 224:..\..\..\liblc3\src/bits.h ****         accu->n += n;
 2903              		.loc 3 224 0
 2904 002e 9140     		lsls	r1, r1, r2
 2905              	.LVL398:
 2906 0030 E269     		ldr	r2, [r4, #28]
 225:..\..\..\liblc3\src/bits.h ****     } else {
 2907              		.loc 3 225 0
 2908 0032 2362     		str	r3, [r4, #32]
 224:..\..\..\liblc3\src/bits.h ****         accu->n += n;
 2909              		.loc 3 224 0
 2910 0034 1143     		orrs	r1, r1, r2
 2911 0036 E161     		str	r1, [r4, #28]
 2912 0038 38BD     		pop	{r3, r4, r5, pc}
 2913              	.LVL399:
 2914              	.L225:
 2915              		.loc 3 227 0
 2916 003a 2046     		mov	r0, r4
 2917 003c 0922     		movs	r2, #9
 2918              	.LBE166:
 2919              	.LBE168:
 954:..\..\..\liblc3\src/ltpf.c **** }
 2920              		.loc 1 954 0
 2921 003e BDE83840 		pop	{r3, r4, r5, lr}
 2922              		.cfi_restore 14
 2923              		.cfi_restore 5
 2924              		.cfi_restore 4
 2925              		.cfi_restore 3
 2926              		.cfi_def_cfa_offset 0
 2927              	.LVL400:
 2928              	.LBB169:
 2929              	.LBB167:
 2930              		.loc 3 227 0
 2931 0042 FFF7FEBF 		b	lc3_put_bits_generic
 2932              	.LVL401:
 2933              	.LBE167:
ARM GAS  C:\Users\rdn\AppData\Local\Temp\ccIOjLNc.s 			page 79


 2934              	.LBE169:
 2935              		.cfi_endproc
 2936              	.LFE47:
 2937              		.size	lc3_ltpf_put_data, .-lc3_ltpf_put_data
 2938              		.section	.text.lc3_ltpf_get_data,"ax",%progbits
 2939              		.align	1
 2940              		.global	lc3_ltpf_get_data
 2941              		.thumb
 2942              		.thumb_func
 2943              		.type	lc3_ltpf_get_data, %function
 2944              	lc3_ltpf_get_data:
 2945              	.LFB48:
 955:..\..\..\liblc3\src/ltpf.c **** 
 956:..\..\..\liblc3\src/ltpf.c **** /**
 957:..\..\..\liblc3\src/ltpf.c ****  * Get bitstream data
 958:..\..\..\liblc3\src/ltpf.c ****  */
 959:..\..\..\liblc3\src/ltpf.c **** void lc3_ltpf_get_data(lc3_bits_t *bits,
 960:..\..\..\liblc3\src/ltpf.c ****     struct lc3_ltpf_data *data)
 961:..\..\..\liblc3\src/ltpf.c **** {
 2946              		.loc 1 961 0
 2947              		.cfi_startproc
 2948              		@ args = 0, pretend = 0, frame = 0
 2949              		@ frame_needed = 0, uses_anonymous_args = 0
 2950              	.LVL402:
 2951              	.LBB178:
 2952              	.LBB179:
 2953              	.LBB180:
 228:..\..\..\liblc3\src/bits.h ****     }
 229:..\..\..\liblc3\src/bits.h **** }
 230:..\..\..\liblc3\src/bits.h **** 
 231:..\..\..\liblc3\src/bits.h **** /**
 232:..\..\..\liblc3\src/bits.h ****  * Get a bit
 233:..\..\..\liblc3\src/bits.h ****  */
 234:..\..\..\liblc3\src/bits.h **** LC3_HOT static inline int lc3_get_bit(lc3_bits_t *bits)
 235:..\..\..\liblc3\src/bits.h **** {
 236:..\..\..\liblc3\src/bits.h ****     return lc3_get_bits(bits, 1);
 237:..\..\..\liblc3\src/bits.h **** }
 238:..\..\..\liblc3\src/bits.h **** 
 239:..\..\..\liblc3\src/bits.h **** /**
 240:..\..\..\liblc3\src/bits.h ****  * Get from 1 to 32 bits
 241:..\..\..\liblc3\src/bits.h ****  */
 242:..\..\..\liblc3\src/bits.h **** LC3_HOT static inline unsigned lc3_get_bits(struct lc3_bits *bits, int n)
 243:..\..\..\liblc3\src/bits.h **** {
 244:..\..\..\liblc3\src/bits.h ****     struct lc3_bits_accu *accu = &bits->accu;
 245:..\..\..\liblc3\src/bits.h **** 
 246:..\..\..\liblc3\src/bits.h ****     if (accu->n + n <= LC3_ACCU_BITS) {
 2954              		.loc 3 246 0
 2955 0000 026A     		ldr	r2, [r0, #32]
 2956              	.LBE180:
 2957              	.LBE179:
 2958              	.LBE178:
 2959              		.loc 1 961 0
 2960 0002 38B5     		push	{r3, r4, r5, lr}
 2961              		.cfi_def_cfa_offset 16
 2962              		.cfi_offset 3, -16
 2963              		.cfi_offset 4, -12
 2964              		.cfi_offset 5, -8
ARM GAS  C:\Users\rdn\AppData\Local\Temp\ccIOjLNc.s 			page 80


 2965              		.cfi_offset 14, -4
 2966              	.LBB186:
 2967              	.LBB184:
 2968              	.LBB182:
 2969              		.loc 3 246 0
 2970 0004 531C     		adds	r3, r2, #1
 2971 0006 202B     		cmp	r3, #32
 2972              	.LBE182:
 2973              	.LBE184:
 2974              	.LBE186:
 2975              		.loc 1 961 0
 2976 0008 0446     		mov	r4, r0
 2977 000a 0D46     		mov	r5, r1
 2978              	.LBB187:
 2979              	.LBB185:
 2980              	.LBB183:
 2981              		.loc 3 246 0
 2982 000c 05DC     		bgt	.L229
 2983              	.LBB181:
 247:..\..\..\liblc3\src/bits.h ****         int v = (accu->v >> accu->n) & ((1u << n) - 1);
 2984              		.loc 3 247 0
 2985 000e C069     		ldr	r0, [r0, #28]
 2986              	.LVL403:
 248:..\..\..\liblc3\src/bits.h ****         return (accu->n += n), v;
 2987              		.loc 3 248 0
 2988 0010 2362     		str	r3, [r4, #32]
 247:..\..\..\liblc3\src/bits.h ****         int v = (accu->v >> accu->n) & ((1u << n) - 1);
 2989              		.loc 3 247 0
 2990 0012 D040     		lsrs	r0, r0, r2
 2991 0014 00F00100 		and	r0, r0, #1
 2992              	.LVL404:
 2993 0018 02E0     		b	.L230
 2994              	.LVL405:
 2995              	.L229:
 2996              	.LBE181:
 249:..\..\..\liblc3\src/bits.h ****     }
 250:..\..\..\liblc3\src/bits.h ****     else {
 251:..\..\..\liblc3\src/bits.h ****         return lc3_get_bits_generic(bits, n);
 2997              		.loc 3 251 0
 2998 001a 0121     		movs	r1, #1
 2999              	.LVL406:
 3000 001c FFF7FEFF 		bl	lc3_get_bits_generic
 3001              	.LVL407:
 3002              	.L230:
 3003              	.LBE183:
 3004              	.LBE185:
 3005              	.LBE187:
 962:..\..\..\liblc3\src/ltpf.c ****     data->active = lc3_get_bit(bits);
 3006              		.loc 1 962 0
 3007 0020 0030     		adds	r0, r0, #0
 3008 0022 18BF     		it	ne
 3009 0024 0120     		movne	r0, #1
 3010 0026 2870     		strb	r0, [r5]
 3011              	.LVL408:
 3012              	.LBB188:
 3013              	.LBB189:
 246:..\..\..\liblc3\src/bits.h ****         int v = (accu->v >> accu->n) & ((1u << n) - 1);
ARM GAS  C:\Users\rdn\AppData\Local\Temp\ccIOjLNc.s 			page 81


 3014              		.loc 3 246 0
 3015 0028 206A     		ldr	r0, [r4, #32]
 3016 002a 00F10902 		add	r2, r0, #9
 3017 002e 202A     		cmp	r2, #32
 3018 0030 06DC     		bgt	.L231
 3019              	.LBB190:
 247:..\..\..\liblc3\src/bits.h ****         return (accu->n += n), v;
 3020              		.loc 3 247 0
 3021 0032 E369     		ldr	r3, [r4, #28]
 248:..\..\..\liblc3\src/bits.h ****     }
 3022              		.loc 3 248 0
 3023 0034 2262     		str	r2, [r4, #32]
 247:..\..\..\liblc3\src/bits.h ****         return (accu->n += n), v;
 3024              		.loc 3 247 0
 3025 0036 23FA00F0 		lsr	r0, r3, r0
 3026 003a C0F30800 		ubfx	r0, r0, #0, #9
 3027              	.LVL409:
 3028 003e 03E0     		b	.L232
 3029              	.LVL410:
 3030              	.L231:
 3031              	.LBE190:
 3032              		.loc 3 251 0
 3033 0040 0921     		movs	r1, #9
 3034 0042 2046     		mov	r0, r4
 3035 0044 FFF7FEFF 		bl	lc3_get_bits_generic
 3036              	.LVL411:
 3037              	.L232:
 3038              	.LBE189:
 3039              	.LBE188:
 963:..\..\..\liblc3\src/ltpf.c ****     data->pitch_index = lc3_get_bits(bits, 9);
 3040              		.loc 1 963 0
 3041 0048 6860     		str	r0, [r5, #4]
 3042 004a 38BD     		pop	{r3, r4, r5, pc}
 3043              		.cfi_endproc
 3044              	.LFE48:
 3045              		.size	lc3_ltpf_get_data, .-lc3_ltpf_get_data
 3046              		.section	.rodata
 3047              		.align	2
 3048              		.set	.LANCHOR0,. + 0
 3049              		.type	h_24k_12k8_q15, %object
 3050              		.size	h_24k_12k8_q15, 480
 3051              	h_24k_12k8_q15:
 3052 0000 CEFF     		.short	-50
 3053 0002 1300     		.short	19
 3054 0004 8F00     		.short	143
 3055 0006 A3FF     		.short	-93
 3056 0008 DEFE     		.short	-290
 3057 000a 1601     		.short	278
 3058 000c E501     		.short	485
 3059 000e 6EFD     		.short	-658
 3060 0010 43FD     		.short	-701
 3061 0012 7405     		.short	1396
 3062 0014 8503     		.short	901
 3063 0016 35F4     		.short	-3019
 3064 0018 EEFB     		.short	-1042
 3065 001a 2428     		.short	10276
 3066 001c 5044     		.short	17488
ARM GAS  C:\Users\rdn\AppData\Local\Temp\ccIOjLNc.s 			page 82


 3067 001e 2428     		.short	10276
 3068 0020 EEFB     		.short	-1042
 3069 0022 35F4     		.short	-3019
 3070 0024 8503     		.short	901
 3071 0026 7405     		.short	1396
 3072 0028 43FD     		.short	-701
 3073 002a 6EFD     		.short	-658
 3074 002c E501     		.short	485
 3075 002e 1601     		.short	278
 3076 0030 DEFE     		.short	-290
 3077 0032 A3FF     		.short	-93
 3078 0034 8F00     		.short	143
 3079 0036 1300     		.short	19
 3080 0038 CEFF     		.short	-50
 3081 003a 0000     		.short	0
 3082 003c D2FF     		.short	-46
 3083 003e 0000     		.short	0
 3084 0040 8D00     		.short	141
 3085 0042 D3FF     		.short	-45
 3086 0044 CFFE     		.short	-305
 3087 0046 B900     		.short	185
 3088 0048 1F02     		.short	543
 3089 004a 0BFE     		.short	-501
 3090 004c AAFC     		.short	-854
 3091 004e 8104     		.short	1153
 3092 0050 E104     		.short	1249
 3093 0052 C5F5     		.short	-2619
 3094 0054 8CF8     		.short	-1908
 3095 0056 0822     		.short	8712
 3096 0058 CE43     		.short	17358
 3097 005a FC2D     		.short	11772
 3098 005c 0000     		.short	0
 3099 005e 09F3     		.short	-3319
 3100 0060 E001     		.short	480
 3101 0062 3906     		.short	1593
 3102 0064 08FE     		.short	-504
 3103 0066 E4FC     		.short	-796
 3104 0068 8F01     		.short	399
 3105 006a 6F01     		.short	367
 3106 006c FBFE     		.short	-261
 3107 006e 72FF     		.short	-142
 3108 0070 8A00     		.short	138
 3109 0072 2800     		.short	40
 3110 0074 CCFF     		.short	-52
 3111 0076 FBFF     		.short	-5
 3112 0078 D7FF     		.short	-41
 3113 007a EFFF     		.short	-17
 3114 007c 8500     		.short	133
 3115 007e 0000     		.short	0
 3116 0080 D0FE     		.short	-304
 3117 0082 5B00     		.short	91
 3118 0084 3E02     		.short	574
 3119 0086 B2FE     		.short	-334
 3120 0088 41FC     		.short	-959
 3121 008a 6E03     		.short	878
 3122 008c EC05     		.short	1516
 3123 008e A1F7     		.short	-2143
ARM GAS  C:\Users\rdn\AppData\Local\Temp\ccIOjLNc.s 			page 83


 3124 0090 E2F5     		.short	-2590
 3125 0092 CE1B     		.short	7118
 3126 0094 4B42     		.short	16971
 3127 0096 6933     		.short	13161
 3128 0098 B204     		.short	1202
 3129 009a 59F2     		.short	-3495
 3130 009c 0000     		.short	0
 3131 009e C306     		.short	1731
 3132 00a0 F5FE     		.short	-267
 3133 00a2 74FC     		.short	-908
 3134 00a4 1F01     		.short	287
 3135 00a6 BD01     		.short	445
 3136 00a8 29FF     		.short	-215
 3137 00aa 44FF     		.short	-188
 3138 00ac 7D00     		.short	125
 3139 00ae 3E00     		.short	62
 3140 00b0 CCFF     		.short	-52
 3141 00b2 F4FF     		.short	-12
 3142 00b4 DEFF     		.short	-34
 3143 00b6 E2FF     		.short	-30
 3144 00b8 7800     		.short	120
 3145 00ba 2900     		.short	41
 3146 00bc DDFE     		.short	-291
 3147 00be 0000     		.short	0
 3148 00c0 4102     		.short	577
 3149 00c2 5CFF     		.short	-164
 3150 00c4 09FC     		.short	-1015
 3151 00c6 4902     		.short	585
 3152 00c8 A106     		.short	1697
 3153 00ca AEF9     		.short	-1618
 3154 00cc F4F3     		.short	-3084
 3155 00ce 9E15     		.short	5534
 3156 00d0 D13F     		.short	16337
 3157 00d2 4638     		.short	14406
 3158 00d4 F009     		.short	2544
 3159 00d6 3AF2     		.short	-3526
 3160 00d8 F5FD     		.short	-523
 3161 00da 0807     		.short	1800
 3162 00dc 0000     		.short	0
 3163 00de 27FC     		.short	-985
 3164 00e0 9800     		.short	152
 3165 00e2 FD01     		.short	509
 3166 00e4 64FF     		.short	-156
 3167 00e6 1AFF     		.short	-230
 3168 00e8 6800     		.short	104
 3169 00ea 5300     		.short	83
 3170 00ec D0FF     		.short	-48
 3171 00ee EDFF     		.short	-19
 3172 00f0 E6FF     		.short	-26
 3173 00f2 D7FF     		.short	-41
 3174 00f4 6700     		.short	103
 3175 00f6 4C00     		.short	76
 3176 00f8 F7FE     		.short	-265
 3177 00fa ADFF     		.short	-83
 3178 00fc 2A02     		.short	554
 3179 00fe 0000     		.short	0
 3180 0100 01FC     		.short	-1023
ARM GAS  C:\Users\rdn\AppData\Local\Temp\ccIOjLNc.s 			page 84


 3181 0102 2001     		.short	288
 3182 0104 FF06     		.short	1791
 3183 0106 D2FB     		.short	-1070
 3184 0108 BFF2     		.short	-3393
 3185 010a 9E0F     		.short	3998
 3186 010c 723C     		.short	15474
 3187 010e 723C     		.short	15474
 3188 0110 9E0F     		.short	3998
 3189 0112 BFF2     		.short	-3393
 3190 0114 D2FB     		.short	-1070
 3191 0116 FF06     		.short	1791
 3192 0118 2001     		.short	288
 3193 011a 01FC     		.short	-1023
 3194 011c 0000     		.short	0
 3195 011e 2A02     		.short	554
 3196 0120 ADFF     		.short	-83
 3197 0122 F7FE     		.short	-265
 3198 0124 4C00     		.short	76
 3199 0126 6700     		.short	103
 3200 0128 D7FF     		.short	-41
 3201 012a E6FF     		.short	-26
 3202 012c EDFF     		.short	-19
 3203 012e D0FF     		.short	-48
 3204 0130 5300     		.short	83
 3205 0132 6800     		.short	104
 3206 0134 1AFF     		.short	-230
 3207 0136 64FF     		.short	-156
 3208 0138 FD01     		.short	509
 3209 013a 9800     		.short	152
 3210 013c 27FC     		.short	-985
 3211 013e 0000     		.short	0
 3212 0140 0807     		.short	1800
 3213 0142 F5FD     		.short	-523
 3214 0144 3AF2     		.short	-3526
 3215 0146 F009     		.short	2544
 3216 0148 4638     		.short	14406
 3217 014a D13F     		.short	16337
 3218 014c 9E15     		.short	5534
 3219 014e F4F3     		.short	-3084
 3220 0150 AEF9     		.short	-1618
 3221 0152 A106     		.short	1697
 3222 0154 4902     		.short	585
 3223 0156 09FC     		.short	-1015
 3224 0158 5CFF     		.short	-164
 3225 015a 4102     		.short	577
 3226 015c 0000     		.short	0
 3227 015e DDFE     		.short	-291
 3228 0160 2900     		.short	41
 3229 0162 7800     		.short	120
 3230 0164 E2FF     		.short	-30
 3231 0166 DEFF     		.short	-34
 3232 0168 F4FF     		.short	-12
 3233 016a CCFF     		.short	-52
 3234 016c 3E00     		.short	62
 3235 016e 7D00     		.short	125
 3236 0170 44FF     		.short	-188
 3237 0172 29FF     		.short	-215
ARM GAS  C:\Users\rdn\AppData\Local\Temp\ccIOjLNc.s 			page 85


 3238 0174 BD01     		.short	445
 3239 0176 1F01     		.short	287
 3240 0178 74FC     		.short	-908
 3241 017a F5FE     		.short	-267
 3242 017c C306     		.short	1731
 3243 017e 0000     		.short	0
 3244 0180 59F2     		.short	-3495
 3245 0182 B204     		.short	1202
 3246 0184 6933     		.short	13161
 3247 0186 4B42     		.short	16971
 3248 0188 CE1B     		.short	7118
 3249 018a E2F5     		.short	-2590
 3250 018c A1F7     		.short	-2143
 3251 018e EC05     		.short	1516
 3252 0190 6E03     		.short	878
 3253 0192 41FC     		.short	-959
 3254 0194 B2FE     		.short	-334
 3255 0196 3E02     		.short	574
 3256 0198 5B00     		.short	91
 3257 019a D0FE     		.short	-304
 3258 019c 0000     		.short	0
 3259 019e 8500     		.short	133
 3260 01a0 EFFF     		.short	-17
 3261 01a2 D7FF     		.short	-41
 3262 01a4 FBFF     		.short	-5
 3263 01a6 CCFF     		.short	-52
 3264 01a8 2800     		.short	40
 3265 01aa 8A00     		.short	138
 3266 01ac 72FF     		.short	-142
 3267 01ae FBFE     		.short	-261
 3268 01b0 6F01     		.short	367
 3269 01b2 8F01     		.short	399
 3270 01b4 E4FC     		.short	-796
 3271 01b6 08FE     		.short	-504
 3272 01b8 3906     		.short	1593
 3273 01ba E001     		.short	480
 3274 01bc 09F3     		.short	-3319
 3275 01be 0000     		.short	0
 3276 01c0 FC2D     		.short	11772
 3277 01c2 CE43     		.short	17358
 3278 01c4 0822     		.short	8712
 3279 01c6 8CF8     		.short	-1908
 3280 01c8 C5F5     		.short	-2619
 3281 01ca E104     		.short	1249
 3282 01cc 8104     		.short	1153
 3283 01ce AAFC     		.short	-854
 3284 01d0 0BFE     		.short	-501
 3285 01d2 1F02     		.short	543
 3286 01d4 B900     		.short	185
 3287 01d6 CFFE     		.short	-305
 3288 01d8 D3FF     		.short	-45
 3289 01da 8D00     		.short	141
 3290 01dc 0000     		.short	0
 3291 01de D2FF     		.short	-46
 3292              		.type	h_48k_12k8_q15, %object
 3293              		.size	h_48k_12k8_q15, 480
 3294              	h_48k_12k8_q15:
ARM GAS  C:\Users\rdn\AppData\Local\Temp\ccIOjLNc.s 			page 86


 3295 01e0 F3FF     		.short	-13
 3296 01e2 E7FF     		.short	-25
 3297 01e4 ECFF     		.short	-20
 3298 01e6 0A00     		.short	10
 3299 01e8 3300     		.short	51
 3300 01ea 4700     		.short	71
 3301 01ec 2600     		.short	38
 3302 01ee D1FF     		.short	-47
 3303 01f0 7BFF     		.short	-133
 3304 01f2 6FFF     		.short	-145
 3305 01f4 D6FF     		.short	-42
 3306 01f6 8B00     		.short	139
 3307 01f8 1501     		.short	277
 3308 01fa F200     		.short	242
 3309 01fc 0000     		.short	0
 3310 01fe B7FE     		.short	-329
 3311 0200 01FE     		.short	-511
 3312 0202 A1FE     		.short	-351
 3313 0204 9000     		.short	144
 3314 0206 BA02     		.short	698
 3315 0208 7F03     		.short	895
 3316 020a C201     		.short	450
 3317 020c E9FD     		.short	-535
 3318 020e 1AFA     		.short	-1510
 3319 0210 5FF9     		.short	-1697
 3320 0212 F7FD     		.short	-521
 3321 0214 CF07     		.short	1999
 3322 0216 1214     		.short	5138
 3323 0218 391E     		.short	7737
 3324 021a 2822     		.short	8744
 3325 021c 391E     		.short	7737
 3326 021e 1214     		.short	5138
 3327 0220 CF07     		.short	1999
 3328 0222 F7FD     		.short	-521
 3329 0224 5FF9     		.short	-1697
 3330 0226 1AFA     		.short	-1510
 3331 0228 E9FD     		.short	-535
 3332 022a C201     		.short	450
 3333 022c 7F03     		.short	895
 3334 022e BA02     		.short	698
 3335 0230 9000     		.short	144
 3336 0232 A1FE     		.short	-351
 3337 0234 01FE     		.short	-511
 3338 0236 B7FE     		.short	-329
 3339 0238 0000     		.short	0
 3340 023a F200     		.short	242
 3341 023c 1501     		.short	277
 3342 023e 8B00     		.short	139
 3343 0240 D6FF     		.short	-42
 3344 0242 6FFF     		.short	-145
 3345 0244 7BFF     		.short	-133
 3346 0246 D1FF     		.short	-47
 3347 0248 2600     		.short	38
 3348 024a 4700     		.short	71
 3349 024c 3300     		.short	51
 3350 024e 0A00     		.short	10
 3351 0250 ECFF     		.short	-20
ARM GAS  C:\Users\rdn\AppData\Local\Temp\ccIOjLNc.s 			page 87


 3352 0252 E7FF     		.short	-25
 3353 0254 F3FF     		.short	-13
 3354 0256 0000     		.short	0
 3355 0258 F7FF     		.short	-9
 3356 025a E9FF     		.short	-23
 3357 025c E8FF     		.short	-24
 3358 025e 0000     		.short	0
 3359 0260 2900     		.short	41
 3360 0262 4700     		.short	71
 3361 0264 3400     		.short	52
 3362 0266 E9FF     		.short	-23
 3363 0268 8DFF     		.short	-115
 3364 026a 68FF     		.short	-152
 3365 026c B2FF     		.short	-78
 3366 026e 5C00     		.short	92
 3367 0270 FE00     		.short	254
 3368 0272 1001     		.short	272
 3369 0274 4C00     		.short	76
 3370 0276 05FF     		.short	-251
 3371 0278 13FE     		.short	-493
 3372 027a 55FE     		.short	-427
 3373 027c 0000     		.short	0
 3374 027e 4002     		.short	576
 3375 0280 8403     		.short	900
 3376 0282 7002     		.short	624
 3377 0284 FAFE     		.short	-262
 3378 0286 E3FA     		.short	-1309
 3379 0288 1DF9     		.short	-1763
 3380 028a 46FC     		.short	-954
 3381 028c F804     		.short	1272
 3382 028e 0411     		.short	4356
 3383 0290 231C     		.short	7203
 3384 0292 E721     		.short	8679
 3385 0294 E91F     		.short	8169
 3386 0296 FE16     		.short	5886
 3387 0298 CF0A     		.short	2767
 3388 029a 0000     		.short	0
 3389 029c FAF9     		.short	-1542
 3390 029e 84F9     		.short	-1660
 3391 02a0 D7FC     		.short	-809
 3392 02a2 F000     		.short	240
 3393 02a4 5003     		.short	848
 3394 02a6 1C03     		.short	796
 3395 02a8 2401     		.short	292
 3396 02aa 04FF     		.short	-252
 3397 02ac 05FE     		.short	-507
 3398 02ae 72FE     		.short	-398
 3399 02b0 AEFF     		.short	-82
 3400 02b2 C700     		.short	199
 3401 02b4 2001     		.short	288
 3402 02b6 B700     		.short	183
 3403 02b8 0000     		.short	0
 3404 02ba 7EFF     		.short	-130
 3405 02bc 6FFF     		.short	-145
 3406 02be B9FF     		.short	-71
 3407 02c0 1400     		.short	20
 3408 02c2 4500     		.short	69
ARM GAS  C:\Users\rdn\AppData\Local\Temp\ccIOjLNc.s 			page 88


 3409 02c4 3C00     		.short	60
 3410 02c6 1400     		.short	20
 3411 02c8 F1FF     		.short	-15
 3412 02ca E6FF     		.short	-26
 3413 02cc EFFF     		.short	-17
 3414 02ce FDFF     		.short	-3
 3415 02d0 FAFF     		.short	-6
 3416 02d2 ECFF     		.short	-20
 3417 02d4 E6FF     		.short	-26
 3418 02d6 F8FF     		.short	-8
 3419 02d8 1F00     		.short	31
 3420 02da 4300     		.short	67
 3421 02dc 3E00     		.short	62
 3422 02de 0000     		.short	0
 3423 02e0 A2FF     		.short	-94
 3424 02e2 68FF     		.short	-152
 3425 02e4 94FF     		.short	-108
 3426 02e6 2D00     		.short	45
 3427 02e8 DF00     		.short	223
 3428 02ea 1F01     		.short	287
 3429 02ec 8F00     		.short	143
 3430 02ee 59FF     		.short	-167
 3431 02f0 3AFE     		.short	-454
 3432 02f2 20FE     		.short	-480
 3433 02f4 7AFF     		.short	-134
 3434 02f6 B701     		.short	439
 3435 02f8 6203     		.short	866
 3436 02fa F602     		.short	758
 3437 02fc 0000     		.short	0
 3438 02fe D1FB     		.short	-1071
 3439 0300 2CF9     		.short	-1748
 3440 0302 F1FA     		.short	-1295
 3441 0304 5902     		.short	601
 3442 0306 E70D     		.short	3559
 3443 0308 B419     		.short	6580
 3444 030a 2521     		.short	8485
 3445 030c 2521     		.short	8485
 3446 030e B419     		.short	6580
 3447 0310 E70D     		.short	3559
 3448 0312 5902     		.short	601
 3449 0314 F1FA     		.short	-1295
 3450 0316 2CF9     		.short	-1748
 3451 0318 D1FB     		.short	-1071
 3452 031a 0000     		.short	0
 3453 031c F602     		.short	758
 3454 031e 6203     		.short	866
 3455 0320 B701     		.short	439
 3456 0322 7AFF     		.short	-134
 3457 0324 20FE     		.short	-480
 3458 0326 3AFE     		.short	-454
 3459 0328 59FF     		.short	-167
 3460 032a 8F00     		.short	143
 3461 032c 1F01     		.short	287
 3462 032e DF00     		.short	223
 3463 0330 2D00     		.short	45
 3464 0332 94FF     		.short	-108
 3465 0334 68FF     		.short	-152
ARM GAS  C:\Users\rdn\AppData\Local\Temp\ccIOjLNc.s 			page 89


 3466 0336 A2FF     		.short	-94
 3467 0338 0000     		.short	0
 3468 033a 3E00     		.short	62
 3469 033c 4300     		.short	67
 3470 033e 1F00     		.short	31
 3471 0340 F8FF     		.short	-8
 3472 0342 E6FF     		.short	-26
 3473 0344 ECFF     		.short	-20
 3474 0346 FAFF     		.short	-6
 3475 0348 FDFF     		.short	-3
 3476 034a EFFF     		.short	-17
 3477 034c E6FF     		.short	-26
 3478 034e F1FF     		.short	-15
 3479 0350 1400     		.short	20
 3480 0352 3C00     		.short	60
 3481 0354 4500     		.short	69
 3482 0356 1400     		.short	20
 3483 0358 B9FF     		.short	-71
 3484 035a 6FFF     		.short	-145
 3485 035c 7EFF     		.short	-130
 3486 035e 0000     		.short	0
 3487 0360 B700     		.short	183
 3488 0362 2001     		.short	288
 3489 0364 C700     		.short	199
 3490 0366 AEFF     		.short	-82
 3491 0368 72FE     		.short	-398
 3492 036a 05FE     		.short	-507
 3493 036c 04FF     		.short	-252
 3494 036e 2401     		.short	292
 3495 0370 1C03     		.short	796
 3496 0372 5003     		.short	848
 3497 0374 F000     		.short	240
 3498 0376 D7FC     		.short	-809
 3499 0378 84F9     		.short	-1660
 3500 037a FAF9     		.short	-1542
 3501 037c 0000     		.short	0
 3502 037e CF0A     		.short	2767
 3503 0380 FE16     		.short	5886
 3504 0382 E91F     		.short	8169
 3505 0384 E721     		.short	8679
 3506 0386 231C     		.short	7203
 3507 0388 0411     		.short	4356
 3508 038a F804     		.short	1272
 3509 038c 46FC     		.short	-954
 3510 038e 1DF9     		.short	-1763
 3511 0390 E3FA     		.short	-1309
 3512 0392 FAFE     		.short	-262
 3513 0394 7002     		.short	624
 3514 0396 8403     		.short	900
 3515 0398 4002     		.short	576
 3516 039a 0000     		.short	0
 3517 039c 55FE     		.short	-427
 3518 039e 13FE     		.short	-493
 3519 03a0 05FF     		.short	-251
 3520 03a2 4C00     		.short	76
 3521 03a4 1001     		.short	272
 3522 03a6 FE00     		.short	254
ARM GAS  C:\Users\rdn\AppData\Local\Temp\ccIOjLNc.s 			page 90


 3523 03a8 5C00     		.short	92
 3524 03aa B2FF     		.short	-78
 3525 03ac 68FF     		.short	-152
 3526 03ae 8DFF     		.short	-115
 3527 03b0 E9FF     		.short	-23
 3528 03b2 3400     		.short	52
 3529 03b4 4700     		.short	71
 3530 03b6 2900     		.short	41
 3531 03b8 0000     		.short	0
 3532 03ba E8FF     		.short	-24
 3533 03bc E9FF     		.short	-23
 3534 03be F7FF     		.short	-9
 3535              		.type	h_96k_12k8_q15, %object
 3536              		.size	h_96k_12k8_q15, 480
 3537              	h_96k_12k8_q15:
 3538 03c0 FDFF     		.short	-3
 3539 03c2 F9FF     		.short	-7
 3540 03c4 F6FF     		.short	-10
 3541 03c6 F3FF     		.short	-13
 3542 03c8 F3FF     		.short	-13
 3543 03ca F6FF     		.short	-10
 3544 03cc FCFF     		.short	-4
 3545 03ce 0500     		.short	5
 3546 03d0 0F00     		.short	15
 3547 03d2 1A00     		.short	26
 3548 03d4 2100     		.short	33
 3549 03d6 2400     		.short	36
 3550 03d8 1F00     		.short	31
 3551 03da 1300     		.short	19
 3552 03dc 0000     		.short	0
 3553 03de E9FF     		.short	-23
 3554 03e0 D1FF     		.short	-47
 3555 03e2 BEFF     		.short	-66
 3556 03e4 B4FF     		.short	-76
 3557 03e6 B7FF     		.short	-73
 3558 03e8 CAFF     		.short	-54
 3559 03ea EBFF     		.short	-21
 3560 03ec 1700     		.short	23
 3561 03ee 4600     		.short	70
 3562 03f0 6F00     		.short	111
 3563 03f2 8B00     		.short	139
 3564 03f4 8F00     		.short	143
 3565 03f6 7900     		.short	121
 3566 03f8 4800     		.short	72
 3567 03fa 0000     		.short	0
 3568 03fc ACFF     		.short	-84
 3569 03fe 5BFF     		.short	-165
 3570 0400 1DFF     		.short	-227
 3571 0402 00FF     		.short	-256
 3572 0404 10FF     		.short	-240
 3573 0406 51FF     		.short	-175
 3574 0408 BDFF     		.short	-67
 3575 040a 4800     		.short	72
 3576 040c DB00     		.short	219
 3577 040e 5D01     		.short	349
 3578 0410 B101     		.short	433
 3579 0412 C001     		.short	448
ARM GAS  C:\Users\rdn\AppData\Local\Temp\ccIOjLNc.s 			page 91


 3580 0414 7B01     		.short	379
 3581 0416 E100     		.short	225
 3582 0418 0000     		.short	0
 3583 041a F4FE     		.short	-268
 3584 041c E8FD     		.short	-536
 3585 041e 0DFD     		.short	-755
 3586 0420 96FC     		.short	-874
 3587 0422 B0FC     		.short	-848
 3588 0424 78FD     		.short	-648
 3589 0426 FCFE     		.short	-260
 3590 0428 2D01     		.short	301
 3591 042a E803     		.short	1000
 3592 042c F406     		.short	1780
 3593 042e 090A     		.short	2569
 3594 0430 DA0C     		.short	3290
 3595 0432 1D0F     		.short	3869
 3596 0434 9310     		.short	4243
 3597 0436 1411     		.short	4372
 3598 0438 9310     		.short	4243
 3599 043a 1D0F     		.short	3869
 3600 043c DA0C     		.short	3290
 3601 043e 090A     		.short	2569
 3602 0440 F406     		.short	1780
 3603 0442 E803     		.short	1000
 3604 0444 2D01     		.short	301
 3605 0446 FCFE     		.short	-260
 3606 0448 78FD     		.short	-648
 3607 044a B0FC     		.short	-848
 3608 044c 96FC     		.short	-874
 3609 044e 0DFD     		.short	-755
 3610 0450 E8FD     		.short	-536
 3611 0452 F4FE     		.short	-268
 3612 0454 0000     		.short	0
 3613 0456 E100     		.short	225
 3614 0458 7B01     		.short	379
 3615 045a C001     		.short	448
 3616 045c B101     		.short	433
 3617 045e 5D01     		.short	349
 3618 0460 DB00     		.short	219
 3619 0462 4800     		.short	72
 3620 0464 BDFF     		.short	-67
 3621 0466 51FF     		.short	-175
 3622 0468 10FF     		.short	-240
 3623 046a 00FF     		.short	-256
 3624 046c 1DFF     		.short	-227
 3625 046e 5BFF     		.short	-165
 3626 0470 ACFF     		.short	-84
 3627 0472 0000     		.short	0
 3628 0474 4800     		.short	72
 3629 0476 7900     		.short	121
 3630 0478 8F00     		.short	143
 3631 047a 8B00     		.short	139
 3632 047c 6F00     		.short	111
 3633 047e 4600     		.short	70
 3634 0480 1700     		.short	23
 3635 0482 EBFF     		.short	-21
 3636 0484 CAFF     		.short	-54
ARM GAS  C:\Users\rdn\AppData\Local\Temp\ccIOjLNc.s 			page 92


 3637 0486 B7FF     		.short	-73
 3638 0488 B4FF     		.short	-76
 3639 048a BEFF     		.short	-66
 3640 048c D1FF     		.short	-47
 3641 048e E9FF     		.short	-23
 3642 0490 0000     		.short	0
 3643 0492 1300     		.short	19
 3644 0494 1F00     		.short	31
 3645 0496 2400     		.short	36
 3646 0498 2100     		.short	33
 3647 049a 1A00     		.short	26
 3648 049c 0F00     		.short	15
 3649 049e 0500     		.short	5
 3650 04a0 FCFF     		.short	-4
 3651 04a2 F6FF     		.short	-10
 3652 04a4 F3FF     		.short	-13
 3653 04a6 F3FF     		.short	-13
 3654 04a8 F6FF     		.short	-10
 3655 04aa F9FF     		.short	-7
 3656 04ac FDFF     		.short	-3
 3657 04ae 0000     		.short	0
 3658 04b0 FFFF     		.short	-1
 3659 04b2 FBFF     		.short	-5
 3660 04b4 F8FF     		.short	-8
 3661 04b6 F4FF     		.short	-12
 3662 04b8 F3FF     		.short	-13
 3663 04ba F4FF     		.short	-12
 3664 04bc F8FF     		.short	-8
 3665 04be 0000     		.short	0
 3666 04c0 0A00     		.short	10
 3667 04c2 1500     		.short	21
 3668 04c4 1E00     		.short	30
 3669 04c6 2300     		.short	35
 3670 04c8 2200     		.short	34
 3671 04ca 1A00     		.short	26
 3672 04cc 0A00     		.short	10
 3673 04ce F5FF     		.short	-11
 3674 04d0 DDFF     		.short	-35
 3675 04d2 C6FF     		.short	-58
 3676 04d4 B7FF     		.short	-73
 3677 04d6 B4FF     		.short	-76
 3678 04d8 BFFF     		.short	-65
 3679 04da D9FF     		.short	-39
 3680 04dc 0000     		.short	0
 3681 04de 2E00     		.short	46
 3682 04e0 5C00     		.short	92
 3683 04e2 7F00     		.short	127
 3684 04e4 9000     		.short	144
 3685 04e6 8800     		.short	136
 3686 04e8 6400     		.short	100
 3687 04ea 2600     		.short	38
 3688 04ec D7FF     		.short	-41
 3689 04ee 83FF     		.short	-125
 3690 04f0 39FF     		.short	-199
 3691 04f2 0AFF     		.short	-246
 3692 04f4 02FF     		.short	-254
 3693 04f6 2AFF     		.short	-214
ARM GAS  C:\Users\rdn\AppData\Local\Temp\ccIOjLNc.s 			page 93


 3694 04f8 82FF     		.short	-126
 3695 04fa 0000     		.short	0
 3696 04fc 9200     		.short	146
 3697 04fe 2001     		.short	288
 3698 0500 8E01     		.short	398
 3699 0502 C201     		.short	450
 3700 0504 A801     		.short	424
 3701 0506 3801     		.short	312
 3702 0508 7800     		.short	120
 3703 050a 7DFF     		.short	-131
 3704 050c 6BFE     		.short	-405
 3705 050e 71FD     		.short	-655
 3706 0510 C2FC     		.short	-830
 3707 0512 8FFC     		.short	-881
 3708 0514 FDFC     		.short	-771
 3709 0516 23FE     		.short	-477
 3710 0518 0000     		.short	0
 3711 051a 7C02     		.short	636
 3712 051c 6805     		.short	1384
 3713 051e 8208     		.short	2178
 3714 0520 7F0B     		.short	2943
 3715 0522 110E     		.short	3601
 3716 0524 F40F     		.short	4084
 3717 0526 F410     		.short	4340
 3718 0528 F410     		.short	4340
 3719 052a F40F     		.short	4084
 3720 052c 110E     		.short	3601
 3721 052e 7F0B     		.short	2943
 3722 0530 8208     		.short	2178
 3723 0532 6805     		.short	1384
 3724 0534 7C02     		.short	636
 3725 0536 0000     		.short	0
 3726 0538 23FE     		.short	-477
 3727 053a FDFC     		.short	-771
 3728 053c 8FFC     		.short	-881
 3729 053e C2FC     		.short	-830
 3730 0540 71FD     		.short	-655
 3731 0542 6BFE     		.short	-405
 3732 0544 7DFF     		.short	-131
 3733 0546 7800     		.short	120
 3734 0548 3801     		.short	312
 3735 054a A801     		.short	424
 3736 054c C201     		.short	450
 3737 054e 8E01     		.short	398
 3738 0550 2001     		.short	288
 3739 0552 9200     		.short	146
 3740 0554 0000     		.short	0
 3741 0556 82FF     		.short	-126
 3742 0558 2AFF     		.short	-214
 3743 055a 02FF     		.short	-254
 3744 055c 0AFF     		.short	-246
 3745 055e 39FF     		.short	-199
 3746 0560 83FF     		.short	-125
 3747 0562 D7FF     		.short	-41
 3748 0564 2600     		.short	38
 3749 0566 6400     		.short	100
 3750 0568 8800     		.short	136
ARM GAS  C:\Users\rdn\AppData\Local\Temp\ccIOjLNc.s 			page 94


 3751 056a 9000     		.short	144
 3752 056c 7F00     		.short	127
 3753 056e 5C00     		.short	92
 3754 0570 2E00     		.short	46
 3755 0572 0000     		.short	0
 3756 0574 D9FF     		.short	-39
 3757 0576 BFFF     		.short	-65
 3758 0578 B4FF     		.short	-76
 3759 057a B7FF     		.short	-73
 3760 057c C6FF     		.short	-58
 3761 057e DDFF     		.short	-35
 3762 0580 F5FF     		.short	-11
 3763 0582 0A00     		.short	10
 3764 0584 1A00     		.short	26
 3765 0586 2200     		.short	34
 3766 0588 2300     		.short	35
 3767 058a 1E00     		.short	30
 3768 058c 1500     		.short	21
 3769 058e 0A00     		.short	10
 3770 0590 0000     		.short	0
 3771 0592 F8FF     		.short	-8
 3772 0594 F4FF     		.short	-12
 3773 0596 F3FF     		.short	-13
 3774 0598 F4FF     		.short	-12
 3775 059a F8FF     		.short	-8
 3776 059c FBFF     		.short	-5
 3777 059e FFFF     		.short	-1
 3778              		.type	h4_q15.5684, %object
 3779              		.size	h4_q15.5684, 32
 3780              	h4_q15.5684:
 3781 05a0 DD1A     		.short	6877
 3782 05a2 B14A     		.short	19121
 3783 05a4 DD1A     		.short	6877
 3784 05a6 0000     		.short	0
 3785 05a8 B20D     		.short	3506
 3786 05aa 6946     		.short	18025
 3787 05ac F82A     		.short	11000
 3788 05ae DC00     		.short	220
 3789 05b0 1405     		.short	1300
 3790 05b2 C83A     		.short	15048
 3791 05b4 C83A     		.short	15048
 3792 05b6 1405     		.short	1300
 3793 05b8 DC00     		.short	220
 3794 05ba F82A     		.short	11000
 3795 05bc 6946     		.short	18025
 3796 05be B20D     		.short	3506
 3797              		.type	h4.5699, %object
 3798              		.size	h4.5699, 128
 3799              	h4.5699:
 3800 05c0 179D7B3C 		.word	1014734103
 3801 05c4 CAB941BD 		.word	-1119766070
 3802 05c8 642BAB3D 		.word	1034627940
 3803 05cc 290D663F 		.word	1063652649
 3804 05d0 642BAB3D 		.word	1034627940
 3805 05d4 CAB941BD 		.word	-1119766070
 3806 05d8 179D7B3C 		.word	1014734103
 3807 05dc 00000000 		.space	4
ARM GAS  C:\Users\rdn\AppData\Local\Temp\ccIOjLNc.s 			page 95


 3808 05e0 5FED333B 		.word	993258847
 3809 05e4 A0AD963B 		.word	999730592
 3810 05e8 88809ABD 		.word	-1113948024
 3811 05ec F046513F 		.word	1062291184
 3812 05f0 B10DA93E 		.word	1051266481
 3813 05f4 80C0D8BD 		.word	-1109868416
 3814 05f8 3AF7EA3C 		.word	1022031674
 3815 05fc 22633CBB 		.word	-1153670366
 3816 0600 A3B044BB 		.word	-1153126237
 3817 0604 0FB2F13C 		.word	1022472719
 3818 0608 AE6E05BE 		.word	-1106940242
 3819 060c AC711A3F 		.word	1058697644
 3820 0610 AC711A3F 		.word	1058697644
 3821 0614 AE6E05BE 		.word	-1106940242
 3822 0618 0FB2F13C 		.word	1022472719
 3823 061c A3B044BB 		.word	-1153126237
 3824 0620 22633CBB 		.word	-1153670366
 3825 0624 3AF7EA3C 		.word	1022031674
 3826 0628 80C0D8BD 		.word	-1109868416
 3827 062c B10DA93E 		.word	1051266481
 3828 0630 F046513F 		.word	1062291184
 3829 0634 88809ABD 		.word	-1113948024
 3830 0638 A0AD963B 		.word	999730592
 3831 063c 5FED333B 		.word	993258847
 3832              		.type	h_8k_12k8_q15, %object
 3833              		.size	h_8k_12k8_q15, 160
 3834              	h_8k_12k8_q15:
 3835 0640 D600     		.short	214
 3836 0642 A101     		.short	417
 3837 0644 E4FB     		.short	-1052
 3838 0646 4FEE     		.short	-4529
 3839 0648 7966     		.short	26233
 3840 064a 4FEE     		.short	-4529
 3841 064c E4FB     		.short	-1052
 3842 064e A101     		.short	417
 3843 0650 D600     		.short	214
 3844 0652 0000     		.short	0
 3845 0654 B400     		.short	180
 3846 0656 0000     		.short	0
 3847 0658 0EFA     		.short	-1522
 3848 065a 85F6     		.short	-2427
 3849 065c BA5F     		.short	24506
 3850 065e 57EB     		.short	-5289
 3851 0660 0000     		.short	0
 3852 0662 FB02     		.short	763
 3853 0664 9C00     		.short	156
 3854 0666 E4FF     		.short	-28
 3855 0668 5C00     		.short	92
 3856 066a BDFE     		.short	-323
 3857 066c AFFA     		.short	-1361
 3858 066e 0000     		.short	0
 3859 0670 1D4D     		.short	19741
 3860 0672 D3F0     		.short	-3885
 3861 0674 2505     		.short	1317
 3862 0676 5D03     		.short	861
 3863 0678 0000     		.short	0
 3864 067a C3FF     		.short	-61
ARM GAS  C:\Users\rdn\AppData\Local\Temp\ccIOjLNc.s 			page 96


 3865 067c 0000     		.short	0
 3866 067e 37FE     		.short	-457
 3867 0680 10FD     		.short	-752
 3868 0682 5107     		.short	1873
 3869 0684 0C33     		.short	13068
 3870 0686 0000     		.short	0
 3871 0688 5509     		.short	2389
 3872 068a 5602     		.short	598
 3873 068c 2BFF     		.short	-213
 3874 068e B1FF     		.short	-79
 3875 0690 C3FF     		.short	-61
 3876 0692 72FE     		.short	-398
 3877 0694 0000     		.short	0
 3878 0696 7E0A     		.short	2686
 3879 0698 6D17     		.short	5997
 3880 069a 6D17     		.short	5997
 3881 069c 7E0A     		.short	2686
 3882 069e 0000     		.short	0
 3883 06a0 72FE     		.short	-398
 3884 06a2 C3FF     		.short	-61
 3885 06a4 B1FF     		.short	-79
 3886 06a6 2BFF     		.short	-213
 3887 06a8 5602     		.short	598
 3888 06aa 5509     		.short	2389
 3889 06ac 0000     		.short	0
 3890 06ae 0C33     		.short	13068
 3891 06b0 5107     		.short	1873
 3892 06b2 10FD     		.short	-752
 3893 06b4 37FE     		.short	-457
 3894 06b6 0000     		.short	0
 3895 06b8 C3FF     		.short	-61
 3896 06ba 0000     		.short	0
 3897 06bc 5D03     		.short	861
 3898 06be 2505     		.short	1317
 3899 06c0 D3F0     		.short	-3885
 3900 06c2 1D4D     		.short	19741
 3901 06c4 0000     		.short	0
 3902 06c6 AFFA     		.short	-1361
 3903 06c8 BDFE     		.short	-323
 3904 06ca 5C00     		.short	92
 3905 06cc E4FF     		.short	-28
 3906 06ce 9C00     		.short	156
 3907 06d0 FB02     		.short	763
 3908 06d2 0000     		.short	0
 3909 06d4 57EB     		.short	-5289
 3910 06d6 BA5F     		.short	24506
 3911 06d8 85F6     		.short	-2427
 3912 06da 0EFA     		.short	-1522
 3913 06dc 0000     		.short	0
 3914 06de B400     		.short	180
 3915              		.type	h_16k_12k8_q15, %object
 3916              		.size	h_16k_12k8_q15, 160
 3917              	h_16k_12k8_q15:
 3918 06e0 C3FF     		.short	-61
 3919 06e2 D600     		.short	214
 3920 06e4 72FE     		.short	-398
 3921 06e6 A101     		.short	417
ARM GAS  C:\Users\rdn\AppData\Local\Temp\ccIOjLNc.s 			page 97


 3922 06e8 0000     		.short	0
 3923 06ea E4FB     		.short	-1052
 3924 06ec 7E0A     		.short	2686
 3925 06ee 4FEE     		.short	-4529
 3926 06f0 6D17     		.short	5997
 3927 06f2 7966     		.short	26233
 3928 06f4 6D17     		.short	5997
 3929 06f6 4FEE     		.short	-4529
 3930 06f8 7E0A     		.short	2686
 3931 06fa E4FB     		.short	-1052
 3932 06fc 0000     		.short	0
 3933 06fe A101     		.short	417
 3934 0700 72FE     		.short	-398
 3935 0702 D600     		.short	214
 3936 0704 C3FF     		.short	-61
 3937 0706 0000     		.short	0
 3938 0708 B1FF     		.short	-79
 3939 070a B400     		.short	180
 3940 070c 2BFF     		.short	-213
 3941 070e 0000     		.short	0
 3942 0710 5602     		.short	598
 3943 0712 0EFA     		.short	-1522
 3944 0714 5509     		.short	2389
 3945 0716 85F6     		.short	-2427
 3946 0718 0000     		.short	0
 3947 071a BA5F     		.short	24506
 3948 071c 0C33     		.short	13068
 3949 071e 57EB     		.short	-5289
 3950 0720 5107     		.short	1873
 3951 0722 0000     		.short	0
 3952 0724 10FD     		.short	-752
 3953 0726 FB02     		.short	763
 3954 0728 37FE     		.short	-457
 3955 072a 9C00     		.short	156
 3956 072c 0000     		.short	0
 3957 072e E4FF     		.short	-28
 3958 0730 C3FF     		.short	-61
 3959 0732 5C00     		.short	92
 3960 0734 0000     		.short	0
 3961 0736 BDFE     		.short	-323
 3962 0738 5D03     		.short	861
 3963 073a AFFA     		.short	-1361
 3964 073c 2505     		.short	1317
 3965 073e 0000     		.short	0
 3966 0740 D3F0     		.short	-3885
 3967 0742 1D4D     		.short	19741
 3968 0744 1D4D     		.short	19741
 3969 0746 D3F0     		.short	-3885
 3970 0748 0000     		.short	0
 3971 074a 2505     		.short	1317
 3972 074c AFFA     		.short	-1361
 3973 074e 5D03     		.short	861
 3974 0750 BDFE     		.short	-323
 3975 0752 0000     		.short	0
 3976 0754 5C00     		.short	92
 3977 0756 C3FF     		.short	-61
 3978 0758 E4FF     		.short	-28
ARM GAS  C:\Users\rdn\AppData\Local\Temp\ccIOjLNc.s 			page 98


 3979 075a 0000     		.short	0
 3980 075c 9C00     		.short	156
 3981 075e 37FE     		.short	-457
 3982 0760 FB02     		.short	763
 3983 0762 10FD     		.short	-752
 3984 0764 0000     		.short	0
 3985 0766 5107     		.short	1873
 3986 0768 57EB     		.short	-5289
 3987 076a 0C33     		.short	13068
 3988 076c BA5F     		.short	24506
 3989 076e 0000     		.short	0
 3990 0770 85F6     		.short	-2427
 3991 0772 5509     		.short	2389
 3992 0774 0EFA     		.short	-1522
 3993 0776 5602     		.short	598
 3994 0778 0000     		.short	0
 3995 077a 2BFF     		.short	-213
 3996 077c B400     		.short	180
 3997 077e B1FF     		.short	-79
 3998              		.type	h_32k_12k8_q15, %object
 3999              		.size	h_32k_12k8_q15, 160
 4000              	h_32k_12k8_q15:
 4001 0780 E2FF     		.short	-30
 4002 0782 E1FF     		.short	-31
 4003 0784 2E00     		.short	46
 4004 0786 6B00     		.short	107
 4005 0788 0000     		.short	0
 4006 078a 39FF     		.short	-199
 4007 078c 5EFF     		.short	-162
 4008 078e D100     		.short	209
 4009 0790 AE01     		.short	430
 4010 0792 0000     		.short	0
 4011 0794 57FD     		.short	-681
 4012 0796 F2FD     		.short	-526
 4013 0798 9202     		.short	658
 4014 079a 3F05     		.short	1343
 4015 079c 0000     		.short	0
 4016 079e 28F7     		.short	-2264
 4017 07a0 69F8     		.short	-1943
 4018 07a2 B70B     		.short	2999
 4019 07a4 8F26     		.short	9871
 4020 07a6 3C33     		.short	13116
 4021 07a8 8F26     		.short	9871
 4022 07aa B70B     		.short	2999
 4023 07ac 69F8     		.short	-1943
 4024 07ae 28F7     		.short	-2264
 4025 07b0 0000     		.short	0
 4026 07b2 3F05     		.short	1343
 4027 07b4 9202     		.short	658
 4028 07b6 F2FD     		.short	-526
 4029 07b8 57FD     		.short	-681
 4030 07ba 0000     		.short	0
 4031 07bc AE01     		.short	430
 4032 07be D100     		.short	209
 4033 07c0 5EFF     		.short	-162
 4034 07c2 39FF     		.short	-199
 4035 07c4 0000     		.short	0
ARM GAS  C:\Users\rdn\AppData\Local\Temp\ccIOjLNc.s 			page 99


 4036 07c6 6B00     		.short	107
 4037 07c8 2E00     		.short	46
 4038 07ca E1FF     		.short	-31
 4039 07cc E2FF     		.short	-30
 4040 07ce 0000     		.short	0
 4041 07d0 F2FF     		.short	-14
 4042 07d2 D9FF     		.short	-39
 4043 07d4 0000     		.short	0
 4044 07d6 5A00     		.short	90
 4045 07d8 4E00     		.short	78
 4046 07da 96FF     		.short	-106
 4047 07dc 1BFF     		.short	-229
 4048 07de 0000     		.short	0
 4049 07e0 7E01     		.short	382
 4050 07e2 2B01     		.short	299
 4051 07e4 88FE     		.short	-376
 4052 07e6 07FD     		.short	-761
 4053 07e8 0000     		.short	0
 4054 07ea AA04     		.short	1194
 4055 07ec A903     		.short	937
 4056 07ee 42FB     		.short	-1214
 4057 07f0 ACF5     		.short	-2644
 4058 07f2 0000     		.short	0
 4059 07f4 8619     		.short	6534
 4060 07f6 DD2F     		.short	12253
 4061 07f8 DD2F     		.short	12253
 4062 07fa 8619     		.short	6534
 4063 07fc 0000     		.short	0
 4064 07fe ACF5     		.short	-2644
 4065 0800 42FB     		.short	-1214
 4066 0802 A903     		.short	937
 4067 0804 AA04     		.short	1194
 4068 0806 0000     		.short	0
 4069 0808 07FD     		.short	-761
 4070 080a 88FE     		.short	-376
 4071 080c 2B01     		.short	299
 4072 080e 7E01     		.short	382
 4073 0810 0000     		.short	0
 4074 0812 1BFF     		.short	-229
 4075 0814 96FF     		.short	-106
 4076 0816 4E00     		.short	78
 4077 0818 5A00     		.short	90
 4078 081a 0000     		.short	0
 4079 081c D9FF     		.short	-39
 4080 081e F2FF     		.short	-14
 4081              		.type	resample_12k8, %object
 4082              		.size	resample_12k8, 28
 4083              	resample_12k8:
 4084 0820 00000000 		.word	resample_8k_12k8
 4085 0824 00000000 		.word	resample_16k_12k8
 4086 0828 00000000 		.word	resample_24k_12k8
 4087 082c 00000000 		.word	resample_32k_12k8
 4088 0830 00000000 		.word	resample_48k_12k8
 4089 0834 00000000 		.word	resample_48k_12k8
 4090 0838 00000000 		.word	resample_96k_12k8
 4091              		.type	synthesize, %object
 4092              		.size	synthesize, 20
ARM GAS  C:\Users\rdn\AppData\Local\Temp\ccIOjLNc.s 			page 100


 4093              	synthesize:
 4094 083c 00000000 		.word	synthesize_4
 4095 0840 00000000 		.word	synthesize_4
 4096 0844 00000000 		.word	synthesize_6
 4097 0848 00000000 		.word	synthesize_8
 4098 084c 00000000 		.word	synthesize_12
 4099              		.text
 4100              	.Letext0:
 4101              		.file 4 "c:\\program files (x86)\\cypress\\psoc creator\\4.4\\psoc creator\\import\\gnu\\arm\\5.4.
 4102              		.file 5 "c:\\program files (x86)\\cypress\\psoc creator\\4.4\\psoc creator\\import\\gnu\\arm\\5.4.
 4103              		.file 6 "./liblc3/include/lc3_private.h"
 4104              		.file 7 "..\\..\\..\\liblc3\\src\\ltpf.h"
 4105              		.file 8 "..\\..\\..\\liblc3\\src\\common.h"
 4106              		.file 9 "c:\\program files (x86)\\cypress\\psoc creator\\4.4\\psoc creator\\import\\gnu\\arm\\5.4.
 4107              		.file 10 "c:\\program files (x86)\\cypress\\psoc creator\\4.4\\psoc creator\\import\\gnu\\arm\\5.4
 4108              		.section	.debug_info,"",%progbits
 4109              	.Ldebug_info0:
 4110 0000 C7230000 		.4byte	0x23c7
 4111 0004 0400     		.2byte	0x4
 4112 0006 00000000 		.4byte	.Ldebug_abbrev0
 4113 000a 04       		.byte	0x4
 4114 000b 01       		.uleb128 0x1
 4115 000c CE040000 		.4byte	.LASF145
 4116 0010 0C       		.byte	0xc
 4117 0011 DA010000 		.4byte	.LASF146
 4118 0015 01030000 		.4byte	.LASF147
 4119 0019 A0020000 		.4byte	.Ldebug_ranges0+0x2a0
 4120 001d 00000000 		.4byte	0
 4121 0021 00000000 		.4byte	.Ldebug_line0
 4122 0025 02       		.uleb128 0x2
 4123 0026 04       		.byte	0x4
 4124 0027 04       		.byte	0x4
 4125 0028 51010000 		.4byte	.LASF0
 4126 002c 02       		.uleb128 0x2
 4127 002d 08       		.byte	0x8
 4128 002e 07       		.byte	0x7
 4129 002f 7B010000 		.4byte	.LASF1
 4130 0033 02       		.uleb128 0x2
 4131 0034 04       		.byte	0x4
 4132 0035 07       		.byte	0x7
 4133 0036 60000000 		.4byte	.LASF2
 4134 003a 02       		.uleb128 0x2
 4135 003b 01       		.byte	0x1
 4136 003c 06       		.byte	0x6
 4137 003d F8060000 		.4byte	.LASF3
 4138 0041 03       		.uleb128 0x3
 4139 0042 E2050000 		.4byte	.LASF5
 4140 0046 04       		.byte	0x4
 4141 0047 1D       		.byte	0x1d
 4142 0048 4C000000 		.4byte	0x4c
 4143 004c 02       		.uleb128 0x2
 4144 004d 01       		.byte	0x1
 4145 004e 08       		.byte	0x8
 4146 004f 7B060000 		.4byte	.LASF4
 4147 0053 03       		.uleb128 0x3
 4148 0054 A0030000 		.4byte	.LASF6
 4149 0058 04       		.byte	0x4
ARM GAS  C:\Users\rdn\AppData\Local\Temp\ccIOjLNc.s 			page 101


 4150 0059 29       		.byte	0x29
 4151 005a 5E000000 		.4byte	0x5e
 4152 005e 02       		.uleb128 0x2
 4153 005f 02       		.byte	0x2
 4154 0060 05       		.byte	0x5
 4155 0061 90040000 		.4byte	.LASF7
 4156 0065 02       		.uleb128 0x2
 4157 0066 02       		.byte	0x2
 4158 0067 07       		.byte	0x7
 4159 0068 1D070000 		.4byte	.LASF8
 4160 006c 03       		.uleb128 0x3
 4161 006d 86000000 		.4byte	.LASF9
 4162 0071 04       		.byte	0x4
 4163 0072 3F       		.byte	0x3f
 4164 0073 77000000 		.4byte	0x77
 4165 0077 02       		.uleb128 0x2
 4166 0078 04       		.byte	0x4
 4167 0079 05       		.byte	0x5
 4168 007a B1040000 		.4byte	.LASF10
 4169 007e 02       		.uleb128 0x2
 4170 007f 04       		.byte	0x4
 4171 0080 07       		.byte	0x7
 4172 0081 22060000 		.4byte	.LASF11
 4173 0085 03       		.uleb128 0x3
 4174 0086 25040000 		.4byte	.LASF12
 4175 008a 04       		.byte	0x4
 4176 008b 59       		.byte	0x59
 4177 008c 90000000 		.4byte	0x90
 4178 0090 02       		.uleb128 0x2
 4179 0091 08       		.byte	0x8
 4180 0092 05       		.byte	0x5
 4181 0093 63030000 		.4byte	.LASF13
 4182 0097 04       		.uleb128 0x4
 4183 0098 04       		.byte	0x4
 4184 0099 05       		.byte	0x5
 4185 009a 696E7400 		.ascii	"int\000"
 4186 009e 03       		.uleb128 0x3
 4187 009f 3F030000 		.4byte	.LASF14
 4188 00a3 05       		.byte	0x5
 4189 00a4 18       		.byte	0x18
 4190 00a5 41000000 		.4byte	0x41
 4191 00a9 03       		.uleb128 0x3
 4192 00aa 73010000 		.4byte	.LASF15
 4193 00ae 05       		.byte	0x5
 4194 00af 20       		.byte	0x20
 4195 00b0 53000000 		.4byte	0x53
 4196 00b4 03       		.uleb128 0x3
 4197 00b5 3B060000 		.4byte	.LASF16
 4198 00b9 05       		.byte	0x5
 4199 00ba 2C       		.byte	0x2c
 4200 00bb 6C000000 		.4byte	0x6c
 4201 00bf 03       		.uleb128 0x3
 4202 00c0 55020000 		.4byte	.LASF17
 4203 00c4 05       		.byte	0x5
 4204 00c5 38       		.byte	0x38
 4205 00c6 85000000 		.4byte	0x85
 4206 00ca 05       		.uleb128 0x5
ARM GAS  C:\Users\rdn\AppData\Local\Temp\ccIOjLNc.s 			page 102


 4207 00cb D4000000 		.4byte	.LASF23
 4208 00cf 01       		.byte	0x1
 4209 00d0 4C000000 		.4byte	0x4c
 4210 00d4 06       		.byte	0x6
 4211 00d5 3B       		.byte	0x3b
 4212 00d6 F9000000 		.4byte	0xf9
 4213 00da 06       		.uleb128 0x6
 4214 00db 9A040000 		.4byte	.LASF18
 4215 00df 00       		.byte	0
 4216 00e0 06       		.uleb128 0x6
 4217 00e1 2F010000 		.4byte	.LASF19
 4218 00e5 01       		.byte	0x1
 4219 00e6 06       		.uleb128 0x6
 4220 00e7 73040000 		.4byte	.LASF20
 4221 00eb 02       		.byte	0x2
 4222 00ec 06       		.uleb128 0x6
 4223 00ed BF020000 		.4byte	.LASF21
 4224 00f1 03       		.byte	0x3
 4225 00f2 06       		.uleb128 0x6
 4226 00f3 0F020000 		.4byte	.LASF22
 4227 00f7 04       		.byte	0x4
 4228 00f8 00       		.byte	0
 4229 00f9 05       		.uleb128 0x5
 4230 00fa 71060000 		.4byte	.LASF24
 4231 00fe 01       		.byte	0x1
 4232 00ff 4C000000 		.4byte	0x4c
 4233 0103 06       		.byte	0x6
 4234 0104 49       		.byte	0x49
 4235 0105 3A010000 		.4byte	0x13a
 4236 0109 06       		.uleb128 0x6
 4237 010a EB060000 		.4byte	.LASF25
 4238 010e 00       		.byte	0
 4239 010f 06       		.uleb128 0x6
 4240 0110 F2050000 		.4byte	.LASF26
 4241 0114 01       		.byte	0x1
 4242 0115 06       		.uleb128 0x6
 4243 0116 11000000 		.4byte	.LASF27
 4244 011a 02       		.byte	0x2
 4245 011b 06       		.uleb128 0x6
 4246 011c F5010000 		.4byte	.LASF28
 4247 0120 03       		.byte	0x3
 4248 0121 06       		.uleb128 0x6
 4249 0122 6D000000 		.4byte	.LASF29
 4250 0126 04       		.byte	0x4
 4251 0127 06       		.uleb128 0x6
 4252 0128 E2000000 		.4byte	.LASF30
 4253 012c 05       		.byte	0x5
 4254 012d 06       		.uleb128 0x6
 4255 012e 51070000 		.4byte	.LASF31
 4256 0132 06       		.byte	0x6
 4257 0133 06       		.uleb128 0x6
 4258 0134 56040000 		.4byte	.LASF32
 4259 0138 07       		.byte	0x7
 4260 0139 00       		.byte	0
 4261 013a 07       		.uleb128 0x7
 4262 013b A3000000 		.4byte	.LASF33
 4263 013f 10       		.byte	0x10
ARM GAS  C:\Users\rdn\AppData\Local\Temp\ccIOjLNc.s 			page 103


 4264 0140 06       		.byte	0x6
 4265 0141 5F       		.byte	0x5f
 4266 0142 5D010000 		.4byte	0x15d
 4267 0146 08       		.uleb128 0x8
 4268 0147 733100   		.ascii	"s1\000"
 4269 014a 06       		.byte	0x6
 4270 014b 60       		.byte	0x60
 4271 014c BF000000 		.4byte	0xbf
 4272 0150 00       		.byte	0
 4273 0151 08       		.uleb128 0x8
 4274 0152 733200   		.ascii	"s2\000"
 4275 0155 06       		.byte	0x6
 4276 0156 60       		.byte	0x60
 4277 0157 BF000000 		.4byte	0xbf
 4278 015b 08       		.byte	0x8
 4279 015c 00       		.byte	0
 4280 015d 09       		.uleb128 0x9
 4281 015e 93070000 		.4byte	.LASF34
 4282 0162 8804     		.2byte	0x488
 4283 0164 06       		.byte	0x6
 4284 0165 63       		.byte	0x63
 4285 0166 BF010000 		.4byte	0x1bf
 4286 016a 0A       		.uleb128 0xa
 4287 016b 0B010000 		.4byte	.LASF35
 4288 016f 06       		.byte	0x6
 4289 0170 64       		.byte	0x64
 4290 0171 BF010000 		.4byte	0x1bf
 4291 0175 00       		.byte	0
 4292 0176 0A       		.uleb128 0xa
 4293 0177 90000000 		.4byte	.LASF36
 4294 017b 06       		.byte	0x6
 4295 017c 65       		.byte	0x65
 4296 017d 97000000 		.4byte	0x97
 4297 0181 04       		.byte	0x4
 4298 0182 08       		.uleb128 0x8
 4299 0183 6E6300   		.ascii	"nc\000"
 4300 0186 06       		.byte	0x6
 4301 0187 66       		.byte	0x66
 4302 0188 C6010000 		.4byte	0x1c6
 4303 018c 08       		.byte	0x8
 4304 018d 0A       		.uleb128 0xa
 4305 018e 83030000 		.4byte	.LASF37
 4306 0192 06       		.byte	0x6
 4307 0193 68       		.byte	0x68
 4308 0194 3A010000 		.4byte	0x13a
 4309 0198 10       		.byte	0x10
 4310 0199 0A       		.uleb128 0xa
 4311 019a 12010000 		.4byte	.LASF38
 4312 019e 06       		.byte	0x6
 4313 019f 69       		.byte	0x69
 4314 01a0 DD010000 		.4byte	0x1dd
 4315 01a4 20       		.byte	0x20
 4316 01a5 0B       		.uleb128 0xb
 4317 01a6 4F020000 		.4byte	.LASF39
 4318 01aa 06       		.byte	0x6
 4319 01ab 6A       		.byte	0x6a
 4320 01ac EE010000 		.4byte	0x1ee
ARM GAS  C:\Users\rdn\AppData\Local\Temp\ccIOjLNc.s 			page 104


 4321 01b0 2003     		.2byte	0x320
 4322 01b2 0C       		.uleb128 0xc
 4323 01b3 746300   		.ascii	"tc\000"
 4324 01b6 06       		.byte	0x6
 4325 01b7 6B       		.byte	0x6b
 4326 01b8 97000000 		.4byte	0x97
 4327 01bc 8404     		.2byte	0x484
 4328 01be 00       		.byte	0
 4329 01bf 02       		.uleb128 0x2
 4330 01c0 01       		.byte	0x1
 4331 01c1 02       		.byte	0x2
 4332 01c2 95020000 		.4byte	.LASF40
 4333 01c6 0D       		.uleb128 0xd
 4334 01c7 25000000 		.4byte	0x25
 4335 01cb D6010000 		.4byte	0x1d6
 4336 01cf 0E       		.uleb128 0xe
 4337 01d0 D6010000 		.4byte	0x1d6
 4338 01d4 01       		.byte	0x1
 4339 01d5 00       		.byte	0
 4340 01d6 02       		.uleb128 0x2
 4341 01d7 04       		.byte	0x4
 4342 01d8 07       		.byte	0x7
 4343 01d9 19060000 		.4byte	.LASF41
 4344 01dd 0D       		.uleb128 0xd
 4345 01de A9000000 		.4byte	0xa9
 4346 01e2 EE010000 		.4byte	0x1ee
 4347 01e6 0F       		.uleb128 0xf
 4348 01e7 D6010000 		.4byte	0x1d6
 4349 01eb 7F01     		.2byte	0x17f
 4350 01ed 00       		.byte	0
 4351 01ee 0D       		.uleb128 0xd
 4352 01ef A9000000 		.4byte	0xa9
 4353 01f3 FE010000 		.4byte	0x1fe
 4354 01f7 0E       		.uleb128 0xe
 4355 01f8 D6010000 		.4byte	0x1d6
 4356 01fc B1       		.byte	0xb1
 4357 01fd 00       		.byte	0
 4358 01fe 07       		.uleb128 0x7
 4359 01ff DB020000 		.4byte	.LASF42
 4360 0203 98       		.byte	0x98
 4361 0204 06       		.byte	0x6
 4362 0205 8E       		.byte	0x8e
 4363 0206 37020000 		.4byte	0x237
 4364 020a 0A       		.uleb128 0xa
 4365 020b 0B010000 		.4byte	.LASF35
 4366 020f 06       		.byte	0x6
 4367 0210 8F       		.byte	0x8f
 4368 0211 BF010000 		.4byte	0x1bf
 4369 0215 00       		.byte	0
 4370 0216 0A       		.uleb128 0xa
 4371 0217 90000000 		.4byte	.LASF36
 4372 021b 06       		.byte	0x6
 4373 021c 90       		.byte	0x90
 4374 021d 97000000 		.4byte	0x97
 4375 0221 04       		.byte	0x4
 4376 0222 08       		.uleb128 0x8
 4377 0223 6300     		.ascii	"c\000"
ARM GAS  C:\Users\rdn\AppData\Local\Temp\ccIOjLNc.s 			page 105


 4378 0225 06       		.byte	0x6
 4379 0226 91       		.byte	0x91
 4380 0227 37020000 		.4byte	0x237
 4381 022b 08       		.byte	0x8
 4382 022c 08       		.uleb128 0x8
 4383 022d 7800     		.ascii	"x\000"
 4384 022f 06       		.byte	0x6
 4385 0230 91       		.byte	0x91
 4386 0231 47020000 		.4byte	0x247
 4387 0235 68       		.byte	0x68
 4388 0236 00       		.byte	0
 4389 0237 0D       		.uleb128 0xd
 4390 0238 25000000 		.4byte	0x25
 4391 023c 47020000 		.4byte	0x247
 4392 0240 0E       		.uleb128 0xe
 4393 0241 D6010000 		.4byte	0x1d6
 4394 0245 17       		.byte	0x17
 4395 0246 00       		.byte	0
 4396 0247 0D       		.uleb128 0xd
 4397 0248 25000000 		.4byte	0x25
 4398 024c 57020000 		.4byte	0x257
 4399 0250 0E       		.uleb128 0xe
 4400 0251 D6010000 		.4byte	0x1d6
 4401 0255 0B       		.byte	0xb
 4402 0256 00       		.byte	0
 4403 0257 03       		.uleb128 0x3
 4404 0258 2F040000 		.4byte	.LASF43
 4405 025c 06       		.byte	0x6
 4406 025d 92       		.byte	0x92
 4407 025e FE010000 		.4byte	0x1fe
 4408 0262 02       		.uleb128 0x2
 4409 0263 08       		.byte	0x8
 4410 0264 04       		.byte	0x4
 4411 0265 4A040000 		.4byte	.LASF44
 4412 0269 02       		.uleb128 0x2
 4413 026a 01       		.byte	0x1
 4414 026b 08       		.byte	0x8
 4415 026c D6020000 		.4byte	.LASF45
 4416 0270 02       		.uleb128 0x2
 4417 0271 08       		.byte	0x8
 4418 0272 04       		.byte	0x4
 4419 0273 4A070000 		.4byte	.LASF46
 4420 0277 05       		.uleb128 0x5
 4421 0278 FD000000 		.4byte	.LASF47
 4422 027c 01       		.byte	0x1
 4423 027d 4C000000 		.4byte	0x4c
 4424 0281 03       		.byte	0x3
 4425 0282 45       		.byte	0x45
 4426 0283 94020000 		.4byte	0x294
 4427 0287 06       		.uleb128 0x6
 4428 0288 37070000 		.4byte	.LASF48
 4429 028c 00       		.byte	0
 4430 028d 06       		.uleb128 0x6
 4431 028e A8050000 		.4byte	.LASF49
 4432 0292 01       		.byte	0x1
 4433 0293 00       		.byte	0
 4434 0294 07       		.uleb128 0x7
ARM GAS  C:\Users\rdn\AppData\Local\Temp\ccIOjLNc.s 			page 106


 4435 0295 EE020000 		.4byte	.LASF50
 4436 0299 0C       		.byte	0xc
 4437 029a 03       		.byte	0x3
 4438 029b 5E       		.byte	0x5e
 4439 029c C1020000 		.4byte	0x2c1
 4440 02a0 08       		.uleb128 0x8
 4441 02a1 7600     		.ascii	"v\000"
 4442 02a3 03       		.byte	0x3
 4443 02a4 5F       		.byte	0x5f
 4444 02a5 33000000 		.4byte	0x33
 4445 02a9 00       		.byte	0
 4446 02aa 08       		.uleb128 0x8
 4447 02ab 6E00     		.ascii	"n\000"
 4448 02ad 03       		.byte	0x3
 4449 02ae 60       		.byte	0x60
 4450 02af 97000000 		.4byte	0x97
 4451 02b3 04       		.byte	0x4
 4452 02b4 0A       		.uleb128 0xa
 4453 02b5 39030000 		.4byte	.LASF51
 4454 02b9 03       		.byte	0x3
 4455 02ba 60       		.byte	0x60
 4456 02bb 97000000 		.4byte	0x97
 4457 02bf 08       		.byte	0x8
 4458 02c0 00       		.byte	0
 4459 02c1 07       		.uleb128 0x7
 4460 02c2 62070000 		.4byte	.LASF52
 4461 02c6 18       		.byte	0x18
 4462 02c7 03       		.byte	0x3
 4463 02c8 65       		.byte	0x65
 4464 02c9 16030000 		.4byte	0x316
 4465 02cd 08       		.uleb128 0x8
 4466 02ce 6C6F7700 		.ascii	"low\000"
 4467 02d2 03       		.byte	0x3
 4468 02d3 66       		.byte	0x66
 4469 02d4 33000000 		.4byte	0x33
 4470 02d8 00       		.byte	0
 4471 02d9 0A       		.uleb128 0xa
 4472 02da DC030000 		.4byte	.LASF53
 4473 02de 03       		.byte	0x3
 4474 02df 66       		.byte	0x66
 4475 02e0 33000000 		.4byte	0x33
 4476 02e4 04       		.byte	0x4
 4477 02e5 0A       		.uleb128 0xa
 4478 02e6 16040000 		.4byte	.LASF54
 4479 02ea 03       		.byte	0x3
 4480 02eb 67       		.byte	0x67
 4481 02ec 97000000 		.4byte	0x97
 4482 02f0 08       		.byte	0x8
 4483 02f1 0A       		.uleb128 0xa
 4484 02f2 6D010000 		.4byte	.LASF55
 4485 02f6 03       		.byte	0x3
 4486 02f7 67       		.byte	0x67
 4487 02f8 97000000 		.4byte	0x97
 4488 02fc 0C       		.byte	0xc
 4489 02fd 0A       		.uleb128 0xa
 4490 02fe AF010000 		.4byte	.LASF56
 4491 0302 03       		.byte	0x3
ARM GAS  C:\Users\rdn\AppData\Local\Temp\ccIOjLNc.s 			page 107


 4492 0303 67       		.byte	0x67
 4493 0304 97000000 		.4byte	0x97
 4494 0308 10       		.byte	0x10
 4495 0309 0A       		.uleb128 0xa
 4496 030a B7000000 		.4byte	.LASF57
 4497 030e 03       		.byte	0x3
 4498 030f 68       		.byte	0x68
 4499 0310 BF010000 		.4byte	0x1bf
 4500 0314 14       		.byte	0x14
 4501 0315 00       		.byte	0
 4502 0316 07       		.uleb128 0x7
 4503 0317 3E000000 		.4byte	.LASF58
 4504 031b 10       		.byte	0x10
 4505 031c 03       		.byte	0x3
 4506 031d 6B       		.byte	0x6b
 4507 031e 53030000 		.4byte	0x353
 4508 0322 0A       		.uleb128 0xa
 4509 0323 EC050000 		.4byte	.LASF59
 4510 0327 03       		.byte	0x3
 4511 0328 6C       		.byte	0x6c
 4512 0329 53030000 		.4byte	0x353
 4513 032d 00       		.byte	0
 4514 032e 08       		.uleb128 0x8
 4515 032f 656E6400 		.ascii	"end\000"
 4516 0333 03       		.byte	0x3
 4517 0334 6C       		.byte	0x6c
 4518 0335 53030000 		.4byte	0x353
 4519 0339 04       		.byte	0x4
 4520 033a 0A       		.uleb128 0xa
 4521 033b A5070000 		.4byte	.LASF60
 4522 033f 03       		.byte	0x3
 4523 0340 6D       		.byte	0x6d
 4524 0341 5E030000 		.4byte	0x35e
 4525 0345 08       		.byte	0x8
 4526 0346 0A       		.uleb128 0xa
 4527 0347 47030000 		.4byte	.LASF61
 4528 034b 03       		.byte	0x3
 4529 034c 6D       		.byte	0x6d
 4530 034d 5E030000 		.4byte	0x35e
 4531 0351 0C       		.byte	0xc
 4532 0352 00       		.byte	0
 4533 0353 10       		.uleb128 0x10
 4534 0354 04       		.byte	0x4
 4535 0355 59030000 		.4byte	0x359
 4536 0359 11       		.uleb128 0x11
 4537 035a 9E000000 		.4byte	0x9e
 4538 035e 10       		.uleb128 0x10
 4539 035f 04       		.byte	0x4
 4540 0360 9E000000 		.4byte	0x9e
 4541 0364 07       		.uleb128 0x7
 4542 0365 1C040000 		.4byte	.LASF62
 4543 0369 38       		.byte	0x38
 4544 036a 03       		.byte	0x3
 4545 036b 70       		.byte	0x70
 4546 036c A0030000 		.4byte	0x3a0
 4547 0370 0A       		.uleb128 0xa
 4548 0371 CF000000 		.4byte	.LASF63
ARM GAS  C:\Users\rdn\AppData\Local\Temp\ccIOjLNc.s 			page 108


 4549 0375 03       		.byte	0x3
 4550 0376 71       		.byte	0x71
 4551 0377 77020000 		.4byte	0x277
 4552 037b 00       		.byte	0
 4553 037c 08       		.uleb128 0x8
 4554 037d 616300   		.ascii	"ac\000"
 4555 0380 03       		.byte	0x3
 4556 0381 72       		.byte	0x72
 4557 0382 C1020000 		.4byte	0x2c1
 4558 0386 04       		.byte	0x4
 4559 0387 0A       		.uleb128 0xa
 4560 0388 D1020000 		.4byte	.LASF64
 4561 038c 03       		.byte	0x3
 4562 038d 73       		.byte	0x73
 4563 038e 94020000 		.4byte	0x294
 4564 0392 1C       		.byte	0x1c
 4565 0393 0A       		.uleb128 0xa
 4566 0394 4E000000 		.4byte	.LASF65
 4567 0398 03       		.byte	0x3
 4568 0399 74       		.byte	0x74
 4569 039a 16030000 		.4byte	0x316
 4570 039e 28       		.byte	0x28
 4571 039f 00       		.byte	0
 4572 03a0 03       		.uleb128 0x3
 4573 03a1 A2020000 		.4byte	.LASF66
 4574 03a5 03       		.byte	0x3
 4575 03a6 75       		.byte	0x75
 4576 03a7 64030000 		.4byte	0x364
 4577 03ab 07       		.uleb128 0x7
 4578 03ac 5F010000 		.4byte	.LASF67
 4579 03b0 08       		.byte	0x8
 4580 03b1 07       		.byte	0x7
 4581 03b2 1E       		.byte	0x1e
 4582 03b3 D0030000 		.4byte	0x3d0
 4583 03b7 0A       		.uleb128 0xa
 4584 03b8 0B010000 		.4byte	.LASF35
 4585 03bc 07       		.byte	0x7
 4586 03bd 1F       		.byte	0x1f
 4587 03be BF010000 		.4byte	0x1bf
 4588 03c2 00       		.byte	0
 4589 03c3 0A       		.uleb128 0xa
 4590 03c4 6F020000 		.4byte	.LASF68
 4591 03c8 07       		.byte	0x7
 4592 03c9 20       		.byte	0x20
 4593 03ca 97000000 		.4byte	0x97
 4594 03ce 04       		.byte	0x4
 4595 03cf 00       		.byte	0
 4596 03d0 03       		.uleb128 0x3
 4597 03d1 8F060000 		.4byte	.LASF69
 4598 03d5 07       		.byte	0x7
 4599 03d6 21       		.byte	0x21
 4600 03d7 AB030000 		.4byte	0x3ab
 4601 03db 10       		.uleb128 0x10
 4602 03dc 04       		.byte	0x4
 4603 03dd E1030000 		.4byte	0x3e1
 4604 03e1 11       		.uleb128 0x11
 4605 03e2 25000000 		.4byte	0x25
ARM GAS  C:\Users\rdn\AppData\Local\Temp\ccIOjLNc.s 			page 109


 4606 03e6 12       		.uleb128 0x12
 4607 03e7 CA030000 		.4byte	.LASF72
 4608 03eb 01       		.byte	0x1
 4609 03ec 4602     		.2byte	0x246
 4610 03ee BF010000 		.4byte	0x1bf
 4611 03f2 01       		.byte	0x1
 4612 03f3 C1040000 		.4byte	0x4c1
 4613 03f7 13       		.uleb128 0x13
 4614 03f8 7B020000 		.4byte	.LASF70
 4615 03fc 01       		.byte	0x1
 4616 03fd 4602     		.2byte	0x246
 4617 03ff C1040000 		.4byte	0x4c1
 4618 0403 14       		.uleb128 0x14
 4619 0404 7800     		.ascii	"x\000"
 4620 0406 01       		.byte	0x1
 4621 0407 4702     		.2byte	0x247
 4622 0409 C7040000 		.4byte	0x4c7
 4623 040d 14       		.uleb128 0x14
 4624 040e 6E00     		.ascii	"n\000"
 4625 0410 01       		.byte	0x1
 4626 0411 4702     		.2byte	0x247
 4627 0413 97000000 		.4byte	0x97
 4628 0417 14       		.uleb128 0x14
 4629 0418 746300   		.ascii	"tc\000"
 4630 041b 01       		.byte	0x1
 4631 041c 4702     		.2byte	0x247
 4632 041e D2040000 		.4byte	0x4d2
 4633 0422 15       		.uleb128 0x15
 4634 0423 726D3100 		.ascii	"rm1\000"
 4635 0427 01       		.byte	0x1
 4636 0428 4902     		.2byte	0x249
 4637 042a 25000000 		.4byte	0x25
 4638 042e 15       		.uleb128 0x15
 4639 042f 726D3200 		.ascii	"rm2\000"
 4640 0433 01       		.byte	0x1
 4641 0434 4902     		.2byte	0x249
 4642 0436 25000000 		.4byte	0x25
 4643 043a 15       		.uleb128 0x15
 4644 043b 7200     		.ascii	"r\000"
 4645 043d 01       		.byte	0x1
 4646 043e 4A02     		.2byte	0x24a
 4647 0440 D8040000 		.4byte	0x4d8
 4648 0444 15       		.uleb128 0x15
 4649 0445 723000   		.ascii	"r0\000"
 4650 0448 01       		.byte	0x1
 4651 0449 4C02     		.2byte	0x24c
 4652 044b E8040000 		.4byte	0x4e8
 4653 044f 15       		.uleb128 0x15
 4654 0450 6E7200   		.ascii	"nr\000"
 4655 0453 01       		.byte	0x1
 4656 0454 4C02     		.2byte	0x24c
 4657 0456 E8040000 		.4byte	0x4e8
 4658 045a 15       		.uleb128 0x15
 4659 045b 6B3000   		.ascii	"k0\000"
 4660 045e 01       		.byte	0x1
 4661 045f 4D02     		.2byte	0x24d
 4662 0461 97000000 		.4byte	0x97
ARM GAS  C:\Users\rdn\AppData\Local\Temp\ccIOjLNc.s 			page 110


 4663 0465 15       		.uleb128 0x15
 4664 0466 6E6B00   		.ascii	"nk\000"
 4665 0469 01       		.byte	0x1
 4666 046a 4E02     		.2byte	0x24e
 4667 046c 97000000 		.4byte	0x97
 4668 0470 15       		.uleb128 0x15
 4669 0471 743100   		.ascii	"t1\000"
 4670 0474 01       		.byte	0x1
 4671 0475 5202     		.2byte	0x252
 4672 0477 97000000 		.4byte	0x97
 4673 047b 15       		.uleb128 0x15
 4674 047c 743200   		.ascii	"t2\000"
 4675 047f 01       		.byte	0x1
 4676 0480 5302     		.2byte	0x253
 4677 0482 97000000 		.4byte	0x97
 4678 0486 15       		.uleb128 0x15
 4679 0487 783100   		.ascii	"x1\000"
 4680 048a 01       		.byte	0x1
 4681 048b 5502     		.2byte	0x255
 4682 048d C7040000 		.4byte	0x4c7
 4683 0491 15       		.uleb128 0x15
 4684 0492 783200   		.ascii	"x2\000"
 4685 0495 01       		.byte	0x1
 4686 0496 5602     		.2byte	0x256
 4687 0498 C7040000 		.4byte	0x4c7
 4688 049c 15       		.uleb128 0x15
 4689 049d 6E633100 		.ascii	"nc1\000"
 4690 04a1 01       		.byte	0x1
 4691 04a2 5802     		.2byte	0x258
 4692 04a4 25000000 		.4byte	0x25
 4693 04a8 15       		.uleb128 0x15
 4694 04a9 6E633200 		.ascii	"nc2\000"
 4695 04ad 01       		.byte	0x1
 4696 04ae 5B02     		.2byte	0x25b
 4697 04b0 25000000 		.4byte	0x25
 4698 04b4 16       		.uleb128 0x16
 4699 04b5 32000000 		.4byte	.LASF71
 4700 04b9 01       		.byte	0x1
 4701 04ba 5E02     		.2byte	0x25e
 4702 04bc 97000000 		.4byte	0x97
 4703 04c0 00       		.byte	0
 4704 04c1 10       		.uleb128 0x10
 4705 04c2 04       		.byte	0x4
 4706 04c3 5D010000 		.4byte	0x15d
 4707 04c7 10       		.uleb128 0x10
 4708 04c8 04       		.byte	0x4
 4709 04c9 CD040000 		.4byte	0x4cd
 4710 04cd 11       		.uleb128 0x11
 4711 04ce A9000000 		.4byte	0xa9
 4712 04d2 10       		.uleb128 0x10
 4713 04d3 04       		.byte	0x4
 4714 04d4 97000000 		.4byte	0x97
 4715 04d8 0D       		.uleb128 0xd
 4716 04d9 25000000 		.4byte	0x25
 4717 04dd E8040000 		.4byte	0x4e8
 4718 04e1 0E       		.uleb128 0xe
 4719 04e2 D6010000 		.4byte	0x1d6
ARM GAS  C:\Users\rdn\AppData\Local\Temp\ccIOjLNc.s 			page 111


 4720 04e6 61       		.byte	0x61
 4721 04e7 00       		.byte	0
 4722 04e8 11       		.uleb128 0x11
 4723 04e9 97000000 		.4byte	0x97
 4724 04ed 17       		.uleb128 0x17
 4725 04ee CA020000 		.4byte	.LASF73
 4726 04f2 08       		.byte	0x8
 4727 04f3 6D       		.byte	0x6d
 4728 04f4 BF010000 		.4byte	0x1bf
 4729 04f8 03       		.byte	0x3
 4730 04f9 08050000 		.4byte	0x508
 4731 04fd 18       		.uleb128 0x18
 4732 04fe 737200   		.ascii	"sr\000"
 4733 0501 08       		.byte	0x8
 4734 0502 6D       		.byte	0x6d
 4735 0503 F9000000 		.4byte	0xf9
 4736 0507 00       		.byte	0
 4737 0508 17       		.uleb128 0x17
 4738 0509 34060000 		.4byte	.LASF74
 4739 050d 02       		.byte	0x2
 4740 050e 2E       		.byte	0x2e
 4741 050f 97000000 		.4byte	0x97
 4742 0513 03       		.byte	0x3
 4743 0514 2D050000 		.4byte	0x52d
 4744 0518 18       		.uleb128 0x18
 4745 0519 647400   		.ascii	"dt\000"
 4746 051c 02       		.byte	0x2
 4747 051d 2E       		.byte	0x2e
 4748 051e CA000000 		.4byte	0xca
 4749 0522 18       		.uleb128 0x18
 4750 0523 737200   		.ascii	"sr\000"
 4751 0526 02       		.byte	0x2
 4752 0527 2E       		.byte	0x2e
 4753 0528 F9000000 		.4byte	0xf9
 4754 052c 00       		.byte	0
 4755 052d 12       		.uleb128 0x12
 4756 052e 1F010000 		.4byte	.LASF75
 4757 0532 01       		.byte	0x1
 4758 0533 ED01     		.2byte	0x1ed
 4759 0535 97000000 		.4byte	0x97
 4760 0539 01       		.byte	0x1
 4761 053a 99050000 		.4byte	0x599
 4762 053e 14       		.uleb128 0x14
 4763 053f 7800     		.ascii	"x\000"
 4764 0541 01       		.byte	0x1
 4765 0542 EE01     		.2byte	0x1ee
 4766 0544 DB030000 		.4byte	0x3db
 4767 0548 14       		.uleb128 0x14
 4768 0549 6E00     		.ascii	"n\000"
 4769 054b 01       		.byte	0x1
 4770 054c EE01     		.2byte	0x1ee
 4771 054e 97000000 		.4byte	0x97
 4772 0552 13       		.uleb128 0x13
 4773 0553 D3010000 		.4byte	.LASF76
 4774 0557 01       		.byte	0x1
 4775 0558 EE01     		.2byte	0x1ee
 4776 055a 25000000 		.4byte	0x25
ARM GAS  C:\Users\rdn\AppData\Local\Temp\ccIOjLNc.s 			page 112


 4777 055e 13       		.uleb128 0x13
 4778 055f C4030000 		.4byte	.LASF77
 4779 0563 01       		.byte	0x1
 4780 0564 EE01     		.2byte	0x1ee
 4781 0566 99050000 		.4byte	0x599
 4782 056a 15       		.uleb128 0x15
 4783 056b 61726700 		.ascii	"arg\000"
 4784 056f 01       		.byte	0x1
 4785 0570 F001     		.2byte	0x1f0
 4786 0572 97000000 		.4byte	0x97
 4787 0576 16       		.uleb128 0x16
 4788 0577 DB000000 		.4byte	.LASF78
 4789 057b 01       		.byte	0x1
 4790 057c F201     		.2byte	0x1f2
 4791 057e 25000000 		.4byte	0x25
 4792 0582 15       		.uleb128 0x15
 4793 0583 7700     		.ascii	"w\000"
 4794 0585 01       		.byte	0x1
 4795 0586 F301     		.2byte	0x1f3
 4796 0588 25000000 		.4byte	0x25
 4797 058c 19       		.uleb128 0x19
 4798 058d 15       		.uleb128 0x15
 4799 058e 6900     		.ascii	"i\000"
 4800 0590 01       		.byte	0x1
 4801 0591 F501     		.2byte	0x1f5
 4802 0593 97000000 		.4byte	0x97
 4803 0597 00       		.byte	0
 4804 0598 00       		.byte	0
 4805 0599 10       		.uleb128 0x10
 4806 059a 04       		.byte	0x4
 4807 059b 25000000 		.4byte	0x25
 4808 059f 17       		.uleb128 0x17
 4809 05a0 03020000 		.4byte	.LASF79
 4810 05a4 01       		.byte	0x1
 4811 05a5 B8       		.byte	0xb8
 4812 05a6 B4000000 		.4byte	0xb4
 4813 05aa 03       		.byte	0x3
 4814 05ab F7050000 		.4byte	0x5f7
 4815 05af 1A       		.uleb128 0x1a
 4816 05b0 83030000 		.4byte	.LASF37
 4817 05b4 01       		.byte	0x1
 4818 05b5 B9       		.byte	0xb9
 4819 05b6 F7050000 		.4byte	0x5f7
 4820 05ba 18       		.uleb128 0x18
 4821 05bb 786E00   		.ascii	"xn\000"
 4822 05be 01       		.byte	0x1
 4823 05bf B9       		.byte	0xb9
 4824 05c0 B4000000 		.4byte	0xb4
 4825 05c4 1B       		.uleb128 0x1b
 4826 05c5 796E00   		.ascii	"yn\000"
 4827 05c8 01       		.byte	0x1
 4828 05c9 BB       		.byte	0xbb
 4829 05ca B4000000 		.4byte	0xb4
 4830 05ce 1B       		.uleb128 0x1b
 4831 05cf 613100   		.ascii	"a1\000"
 4832 05d2 01       		.byte	0x1
 4833 05d3 BD       		.byte	0xbd
ARM GAS  C:\Users\rdn\AppData\Local\Temp\ccIOjLNc.s 			page 113


 4834 05d4 FD050000 		.4byte	0x5fd
 4835 05d8 1B       		.uleb128 0x1b
 4836 05d9 613200   		.ascii	"a2\000"
 4837 05dc 01       		.byte	0x1
 4838 05dd BD       		.byte	0xbd
 4839 05de FD050000 		.4byte	0x5fd
 4840 05e2 1B       		.uleb128 0x1b
 4841 05e3 623100   		.ascii	"b1\000"
 4842 05e6 01       		.byte	0x1
 4843 05e7 BE       		.byte	0xbe
 4844 05e8 FD050000 		.4byte	0x5fd
 4845 05ec 1B       		.uleb128 0x1b
 4846 05ed 623200   		.ascii	"b2\000"
 4847 05f0 01       		.byte	0x1
 4848 05f1 BE       		.byte	0xbe
 4849 05f2 FD050000 		.4byte	0x5fd
 4850 05f6 00       		.byte	0
 4851 05f7 10       		.uleb128 0x10
 4852 05f8 04       		.byte	0x4
 4853 05f9 3A010000 		.4byte	0x13a
 4854 05fd 11       		.uleb128 0x11
 4855 05fe B4000000 		.4byte	0xb4
 4856 0602 1C       		.uleb128 0x1c
 4857 0603 BA040000 		.4byte	.LASF80
 4858 0607 01       		.byte	0x1
 4859 0608 0201     		.2byte	0x102
 4860 060a 00000000 		.4byte	.LFB22
 4861 060e 74010000 		.4byte	.LFE22-.LFB22
 4862 0612 01       		.uleb128 0x1
 4863 0613 9C       		.byte	0x9c
 4864 0614 37070000 		.4byte	0x737
 4865 0618 1D       		.uleb128 0x1d
 4866 0619 7000     		.ascii	"p\000"
 4867 061b 01       		.byte	0x1
 4868 061c 0201     		.2byte	0x102
 4869 061e E8040000 		.4byte	0x4e8
 4870 0622 01       		.uleb128 0x1
 4871 0623 50       		.byte	0x50
 4872 0624 1E       		.uleb128 0x1e
 4873 0625 6800     		.ascii	"h\000"
 4874 0627 01       		.byte	0x1
 4875 0628 0201     		.2byte	0x102
 4876 062a C7040000 		.4byte	0x4c7
 4877 062e 00000000 		.4byte	.LLST0
 4878 0632 1F       		.uleb128 0x1f
 4879 0633 83030000 		.4byte	.LASF37
 4880 0637 01       		.byte	0x1
 4881 0638 0301     		.2byte	0x103
 4882 063a F7050000 		.4byte	0x5f7
 4883 063e 01       		.uleb128 0x1
 4884 063f 52       		.byte	0x52
 4885 0640 1E       		.uleb128 0x1e
 4886 0641 7800     		.ascii	"x\000"
 4887 0643 01       		.byte	0x1
 4888 0644 0301     		.2byte	0x103
 4889 0646 C7040000 		.4byte	0x4c7
 4890 064a 2C000000 		.4byte	.LLST1
ARM GAS  C:\Users\rdn\AppData\Local\Temp\ccIOjLNc.s 			page 114


 4891 064e 1E       		.uleb128 0x1e
 4892 064f 7900     		.ascii	"y\000"
 4893 0651 01       		.byte	0x1
 4894 0652 0301     		.2byte	0x103
 4895 0654 37070000 		.4byte	0x737
 4896 0658 6F000000 		.4byte	.LLST2
 4897 065c 1E       		.uleb128 0x1e
 4898 065d 6E00     		.ascii	"n\000"
 4899 065f 01       		.byte	0x1
 4900 0660 0301     		.2byte	0x103
 4901 0662 97000000 		.4byte	0x97
 4902 0666 CB000000 		.4byte	.LLST3
 4903 066a 20       		.uleb128 0x20
 4904 066b 7700     		.ascii	"w\000"
 4905 066d 01       		.byte	0x1
 4906 066e 0501     		.2byte	0x105
 4907 0670 E8040000 		.4byte	0x4e8
 4908 0674 01       		.uleb128 0x1
 4909 0675 53       		.byte	0x53
 4910 0676 21       		.uleb128 0x21
 4911 0677 00000000 		.4byte	.Ldebug_ranges0+0
 4912 067b 22       		.uleb128 0x22
 4913 067c 6900     		.ascii	"i\000"
 4914 067e 01       		.byte	0x1
 4915 067f 0901     		.2byte	0x109
 4916 0681 97000000 		.4byte	0x97
 4917 0685 EB000000 		.4byte	.LLST4
 4918 0689 21       		.uleb128 0x21
 4919 068a 18000000 		.4byte	.Ldebug_ranges0+0x18
 4920 068e 22       		.uleb128 0x22
 4921 068f 686E00   		.ascii	"hn\000"
 4922 0692 01       		.byte	0x1
 4923 0693 0A01     		.2byte	0x10a
 4924 0695 C7040000 		.4byte	0x4c7
 4925 0699 0A010000 		.4byte	.LLST5
 4926 069d 22       		.uleb128 0x22
 4927 069e 786E00   		.ascii	"xn\000"
 4928 06a1 01       		.byte	0x1
 4929 06a2 0B01     		.2byte	0x10b
 4930 06a4 C7040000 		.4byte	0x4c7
 4931 06a8 78040000 		.4byte	.LLST6
 4932 06ac 22       		.uleb128 0x22
 4933 06ad 756E00   		.ascii	"un\000"
 4934 06b0 01       		.byte	0x1
 4935 06b1 0C01     		.2byte	0x10c
 4936 06b3 B4000000 		.4byte	0xb4
 4937 06b7 7E050000 		.4byte	.LLST7
 4938 06bb 15       		.uleb128 0x15
 4939 06bc 796E00   		.ascii	"yn\000"
 4940 06bf 01       		.byte	0x1
 4941 06c0 2001     		.2byte	0x120
 4942 06c2 B4000000 		.4byte	0xb4
 4943 06c6 23       		.uleb128 0x23
 4944 06c7 30000000 		.4byte	.Ldebug_ranges0+0x30
 4945 06cb DE060000 		.4byte	0x6de
 4946 06cf 22       		.uleb128 0x22
 4947 06d0 6B00     		.ascii	"k\000"
ARM GAS  C:\Users\rdn\AppData\Local\Temp\ccIOjLNc.s 			page 115


 4948 06d2 01       		.byte	0x1
 4949 06d3 0E01     		.2byte	0x10e
 4950 06d5 97000000 		.4byte	0x97
 4951 06d9 42060000 		.4byte	.LLST8
 4952 06dd 00       		.byte	0
 4953 06de 24       		.uleb128 0x24
 4954 06df 9F050000 		.4byte	0x59f
 4955 06e3 04010000 		.4byte	.LBB26
 4956 06e7 48000000 		.4byte	.Ldebug_ranges0+0x48
 4957 06eb 01       		.byte	0x1
 4958 06ec 2001     		.2byte	0x120
 4959 06ee 25       		.uleb128 0x25
 4960 06ef BA050000 		.4byte	0x5ba
 4961 06f3 79060000 		.4byte	.LLST9
 4962 06f7 25       		.uleb128 0x25
 4963 06f8 AF050000 		.4byte	0x5af
 4964 06fc 8C060000 		.4byte	.LLST10
 4965 0700 21       		.uleb128 0x21
 4966 0701 48000000 		.4byte	.Ldebug_ranges0+0x48
 4967 0705 26       		.uleb128 0x26
 4968 0706 C4050000 		.4byte	0x5c4
 4969 070a 9F060000 		.4byte	.LLST11
 4970 070e 26       		.uleb128 0x26
 4971 070f CE050000 		.4byte	0x5ce
 4972 0713 C1060000 		.4byte	.LLST12
 4973 0717 26       		.uleb128 0x26
 4974 0718 D8050000 		.4byte	0x5d8
 4975 071c D9060000 		.4byte	.LLST13
 4976 0720 26       		.uleb128 0x26
 4977 0721 E2050000 		.4byte	0x5e2
 4978 0725 F1060000 		.4byte	.LLST14
 4979 0729 26       		.uleb128 0x26
 4980 072a EC050000 		.4byte	0x5ec
 4981 072e 09070000 		.4byte	.LLST15
 4982 0732 00       		.byte	0
 4983 0733 00       		.byte	0
 4984 0734 00       		.byte	0
 4985 0735 00       		.byte	0
 4986 0736 00       		.byte	0
 4987 0737 10       		.uleb128 0x10
 4988 0738 04       		.byte	0x4
 4989 0739 A9000000 		.4byte	0xa9
 4990 073d 1C       		.uleb128 0x1c
 4991 073e 51030000 		.4byte	.LASF81
 4992 0742 01       		.byte	0x1
 4993 0743 5F01     		.2byte	0x15f
 4994 0745 00000000 		.4byte	.LFB26
 4995 0749 1C000000 		.4byte	.LFE26-.LFB26
 4996 074d 01       		.uleb128 0x1
 4997 074e 9C       		.byte	0x9c
 4998 074f C4070000 		.4byte	0x7c4
 4999 0753 27       		.uleb128 0x27
 5000 0754 83030000 		.4byte	.LASF37
 5001 0758 01       		.byte	0x1
 5002 0759 6001     		.2byte	0x160
 5003 075b F7050000 		.4byte	0x5f7
 5004 075f 21070000 		.4byte	.LLST16
ARM GAS  C:\Users\rdn\AppData\Local\Temp\ccIOjLNc.s 			page 116


 5005 0763 1E       		.uleb128 0x1e
 5006 0764 7800     		.ascii	"x\000"
 5007 0766 01       		.byte	0x1
 5008 0767 6001     		.2byte	0x160
 5009 0769 C7040000 		.4byte	0x4c7
 5010 076d 4D070000 		.4byte	.LLST17
 5011 0771 1E       		.uleb128 0x1e
 5012 0772 7900     		.ascii	"y\000"
 5013 0774 01       		.byte	0x1
 5014 0775 6001     		.2byte	0x160
 5015 0777 37070000 		.4byte	0x737
 5016 077b 79070000 		.4byte	.LLST18
 5017 077f 1E       		.uleb128 0x1e
 5018 0780 6E00     		.ascii	"n\000"
 5019 0782 01       		.byte	0x1
 5020 0783 6001     		.2byte	0x160
 5021 0785 97000000 		.4byte	0x97
 5022 0789 A6070000 		.4byte	.LLST19
 5023 078d 28       		.uleb128 0x28
 5024 078e 12000000 		.4byte	.LVL58
 5025 0792 02060000 		.4byte	0x602
 5026 0796 29       		.uleb128 0x29
 5027 0797 01       		.uleb128 0x1
 5028 0798 50       		.byte	0x50
 5029 0799 01       		.uleb128 0x1
 5030 079a 38       		.byte	0x38
 5031 079b 29       		.uleb128 0x29
 5032 079c 01       		.uleb128 0x1
 5033 079d 51       		.byte	0x51
 5034 079e 05       		.uleb128 0x5
 5035 079f 03       		.byte	0x3
 5036 07a0 00000000 		.4byte	.LANCHOR0
 5037 07a4 29       		.uleb128 0x29
 5038 07a5 01       		.uleb128 0x1
 5039 07a6 52       		.byte	0x52
 5040 07a7 03       		.uleb128 0x3
 5041 07a8 F3       		.byte	0xf3
 5042 07a9 01       		.uleb128 0x1
 5043 07aa 50       		.byte	0x50
 5044 07ab 29       		.uleb128 0x29
 5045 07ac 01       		.uleb128 0x1
 5046 07ad 53       		.byte	0x53
 5047 07ae 03       		.uleb128 0x3
 5048 07af F3       		.byte	0xf3
 5049 07b0 01       		.uleb128 0x1
 5050 07b1 51       		.byte	0x51
 5051 07b2 29       		.uleb128 0x29
 5052 07b3 02       		.uleb128 0x2
 5053 07b4 7D       		.byte	0x7d
 5054 07b5 00       		.sleb128 0
 5055 07b6 03       		.uleb128 0x3
 5056 07b7 F3       		.byte	0xf3
 5057 07b8 01       		.uleb128 0x1
 5058 07b9 52       		.byte	0x52
 5059 07ba 29       		.uleb128 0x29
 5060 07bb 02       		.uleb128 0x2
 5061 07bc 7D       		.byte	0x7d
ARM GAS  C:\Users\rdn\AppData\Local\Temp\ccIOjLNc.s 			page 117


 5062 07bd 04       		.sleb128 4
 5063 07be 03       		.uleb128 0x3
 5064 07bf F3       		.byte	0xf3
 5065 07c0 01       		.uleb128 0x1
 5066 07c1 53       		.byte	0x53
 5067 07c2 00       		.byte	0
 5068 07c3 00       		.byte	0
 5069 07c4 1C       		.uleb128 0x1c
 5070 07c5 71030000 		.4byte	.LASF82
 5071 07c9 01       		.byte	0x1
 5072 07ca 6F01     		.2byte	0x16f
 5073 07cc 00000000 		.4byte	.LFB27
 5074 07d0 1C000000 		.4byte	.LFE27-.LFB27
 5075 07d4 01       		.uleb128 0x1
 5076 07d5 9C       		.byte	0x9c
 5077 07d6 4B080000 		.4byte	0x84b
 5078 07da 27       		.uleb128 0x27
 5079 07db 83030000 		.4byte	.LASF37
 5080 07df 01       		.byte	0x1
 5081 07e0 7001     		.2byte	0x170
 5082 07e2 F7050000 		.4byte	0x5f7
 5083 07e6 D3070000 		.4byte	.LLST20
 5084 07ea 1E       		.uleb128 0x1e
 5085 07eb 7800     		.ascii	"x\000"
 5086 07ed 01       		.byte	0x1
 5087 07ee 7001     		.2byte	0x170
 5088 07f0 C7040000 		.4byte	0x4c7
 5089 07f4 FF070000 		.4byte	.LLST21
 5090 07f8 1E       		.uleb128 0x1e
 5091 07f9 7900     		.ascii	"y\000"
 5092 07fb 01       		.byte	0x1
 5093 07fc 7001     		.2byte	0x170
 5094 07fe 37070000 		.4byte	0x737
 5095 0802 2B080000 		.4byte	.LLST22
 5096 0806 1E       		.uleb128 0x1e
 5097 0807 6E00     		.ascii	"n\000"
 5098 0809 01       		.byte	0x1
 5099 080a 7001     		.2byte	0x170
 5100 080c 97000000 		.4byte	0x97
 5101 0810 58080000 		.4byte	.LLST23
 5102 0814 28       		.uleb128 0x28
 5103 0815 12000000 		.4byte	.LVL64
 5104 0819 02060000 		.4byte	0x602
 5105 081d 29       		.uleb128 0x29
 5106 081e 01       		.uleb128 0x1
 5107 081f 50       		.byte	0x50
 5108 0820 01       		.uleb128 0x1
 5109 0821 34       		.byte	0x34
 5110 0822 29       		.uleb128 0x29
 5111 0823 01       		.uleb128 0x1
 5112 0824 51       		.byte	0x51
 5113 0825 05       		.uleb128 0x5
 5114 0826 03       		.byte	0x3
 5115 0827 E0010000 		.4byte	.LANCHOR0+480
 5116 082b 29       		.uleb128 0x29
 5117 082c 01       		.uleb128 0x1
 5118 082d 52       		.byte	0x52
ARM GAS  C:\Users\rdn\AppData\Local\Temp\ccIOjLNc.s 			page 118


 5119 082e 03       		.uleb128 0x3
 5120 082f F3       		.byte	0xf3
 5121 0830 01       		.uleb128 0x1
 5122 0831 50       		.byte	0x50
 5123 0832 29       		.uleb128 0x29
 5124 0833 01       		.uleb128 0x1
 5125 0834 53       		.byte	0x53
 5126 0835 03       		.uleb128 0x3
 5127 0836 F3       		.byte	0xf3
 5128 0837 01       		.uleb128 0x1
 5129 0838 51       		.byte	0x51
 5130 0839 29       		.uleb128 0x29
 5131 083a 02       		.uleb128 0x2
 5132 083b 7D       		.byte	0x7d
 5133 083c 00       		.sleb128 0
 5134 083d 03       		.uleb128 0x3
 5135 083e F3       		.byte	0xf3
 5136 083f 01       		.uleb128 0x1
 5137 0840 52       		.byte	0x52
 5138 0841 29       		.uleb128 0x29
 5139 0842 02       		.uleb128 0x2
 5140 0843 7D       		.byte	0x7d
 5141 0844 04       		.sleb128 4
 5142 0845 03       		.uleb128 0x3
 5143 0846 F3       		.byte	0xf3
 5144 0847 01       		.uleb128 0x1
 5145 0848 53       		.byte	0x53
 5146 0849 00       		.byte	0
 5147 084a 00       		.byte	0
 5148 084b 1C       		.uleb128 0x1c
 5149 084c BD000000 		.4byte	.LASF83
 5150 0850 01       		.byte	0x1
 5151 0851 7F01     		.2byte	0x17f
 5152 0853 00000000 		.4byte	.LFB28
 5153 0857 1C000000 		.4byte	.LFE28-.LFB28
 5154 085b 01       		.uleb128 0x1
 5155 085c 9C       		.byte	0x9c
 5156 085d D2080000 		.4byte	0x8d2
 5157 0861 27       		.uleb128 0x27
 5158 0862 83030000 		.4byte	.LASF37
 5159 0866 01       		.byte	0x1
 5160 0867 8001     		.2byte	0x180
 5161 0869 F7050000 		.4byte	0x5f7
 5162 086d 85080000 		.4byte	.LLST24
 5163 0871 1E       		.uleb128 0x1e
 5164 0872 7800     		.ascii	"x\000"
 5165 0874 01       		.byte	0x1
 5166 0875 8001     		.2byte	0x180
 5167 0877 C7040000 		.4byte	0x4c7
 5168 087b B1080000 		.4byte	.LLST25
 5169 087f 1E       		.uleb128 0x1e
 5170 0880 7900     		.ascii	"y\000"
 5171 0882 01       		.byte	0x1
 5172 0883 8001     		.2byte	0x180
 5173 0885 37070000 		.4byte	0x737
 5174 0889 DD080000 		.4byte	.LLST26
 5175 088d 1E       		.uleb128 0x1e
ARM GAS  C:\Users\rdn\AppData\Local\Temp\ccIOjLNc.s 			page 119


 5176 088e 6E00     		.ascii	"n\000"
 5177 0890 01       		.byte	0x1
 5178 0891 8001     		.2byte	0x180
 5179 0893 97000000 		.4byte	0x97
 5180 0897 0A090000 		.4byte	.LLST27
 5181 089b 28       		.uleb128 0x28
 5182 089c 12000000 		.4byte	.LVL70
 5183 08a0 02060000 		.4byte	0x602
 5184 08a4 29       		.uleb128 0x29
 5185 08a5 01       		.uleb128 0x1
 5186 08a6 50       		.byte	0x50
 5187 08a7 01       		.uleb128 0x1
 5188 08a8 32       		.byte	0x32
 5189 08a9 29       		.uleb128 0x29
 5190 08aa 01       		.uleb128 0x1
 5191 08ab 51       		.byte	0x51
 5192 08ac 05       		.uleb128 0x5
 5193 08ad 03       		.byte	0x3
 5194 08ae C0030000 		.4byte	.LANCHOR0+960
 5195 08b2 29       		.uleb128 0x29
 5196 08b3 01       		.uleb128 0x1
 5197 08b4 52       		.byte	0x52
 5198 08b5 03       		.uleb128 0x3
 5199 08b6 F3       		.byte	0xf3
 5200 08b7 01       		.uleb128 0x1
 5201 08b8 50       		.byte	0x50
 5202 08b9 29       		.uleb128 0x29
 5203 08ba 01       		.uleb128 0x1
 5204 08bb 53       		.byte	0x53
 5205 08bc 03       		.uleb128 0x3
 5206 08bd F3       		.byte	0xf3
 5207 08be 01       		.uleb128 0x1
 5208 08bf 51       		.byte	0x51
 5209 08c0 29       		.uleb128 0x29
 5210 08c1 02       		.uleb128 0x2
 5211 08c2 7D       		.byte	0x7d
 5212 08c3 00       		.sleb128 0
 5213 08c4 03       		.uleb128 0x3
 5214 08c5 F3       		.byte	0xf3
 5215 08c6 01       		.uleb128 0x1
 5216 08c7 52       		.byte	0x52
 5217 08c8 29       		.uleb128 0x29
 5218 08c9 02       		.uleb128 0x2
 5219 08ca 7D       		.byte	0x7d
 5220 08cb 04       		.sleb128 4
 5221 08cc 03       		.uleb128 0x3
 5222 08cd F3       		.byte	0xf3
 5223 08ce 01       		.uleb128 0x1
 5224 08cf 53       		.byte	0x53
 5225 08d0 00       		.byte	0
 5226 08d1 00       		.byte	0
 5227 08d2 2A       		.uleb128 0x2a
 5228 08d3 646F7400 		.ascii	"dot\000"
 5229 08d7 01       		.byte	0x1
 5230 08d8 B601     		.2byte	0x1b6
 5231 08da 25000000 		.4byte	0x25
 5232 08de 00000000 		.4byte	.LFB30
ARM GAS  C:\Users\rdn\AppData\Local\Temp\ccIOjLNc.s 			page 120


 5233 08e2 40000000 		.4byte	.LFE30-.LFB30
 5234 08e6 01       		.uleb128 0x1
 5235 08e7 9C       		.byte	0x9c
 5236 08e8 5D090000 		.4byte	0x95d
 5237 08ec 1E       		.uleb128 0x1e
 5238 08ed 6100     		.ascii	"a\000"
 5239 08ef 01       		.byte	0x1
 5240 08f0 B601     		.2byte	0x1b6
 5241 08f2 C7040000 		.4byte	0x4c7
 5242 08f6 37090000 		.4byte	.LLST28
 5243 08fa 1E       		.uleb128 0x1e
 5244 08fb 6200     		.ascii	"b\000"
 5245 08fd 01       		.byte	0x1
 5246 08fe B601     		.2byte	0x1b6
 5247 0900 C7040000 		.4byte	0x4c7
 5248 0904 62090000 		.4byte	.LLST29
 5249 0908 1E       		.uleb128 0x1e
 5250 0909 6E00     		.ascii	"n\000"
 5251 090b 01       		.byte	0x1
 5252 090c B601     		.2byte	0x1b6
 5253 090e 97000000 		.4byte	0x97
 5254 0912 98090000 		.4byte	.LLST30
 5255 0916 22       		.uleb128 0x22
 5256 0917 7600     		.ascii	"v\000"
 5257 0919 01       		.byte	0x1
 5258 091a B801     		.2byte	0x1b8
 5259 091c BF000000 		.4byte	0xbf
 5260 0920 B9090000 		.4byte	.LLST31
 5261 0924 22       		.uleb128 0x22
 5262 0925 76333200 		.ascii	"v32\000"
 5263 0929 01       		.byte	0x1
 5264 092a BE01     		.2byte	0x1be
 5265 092c B4000000 		.4byte	0xb4
 5266 0930 E5090000 		.4byte	.LLST32
 5267 0934 21       		.uleb128 0x21
 5268 0935 60000000 		.4byte	.Ldebug_ranges0+0x60
 5269 0939 22       		.uleb128 0x22
 5270 093a 6900     		.ascii	"i\000"
 5271 093c 01       		.byte	0x1
 5272 093d BA01     		.2byte	0x1ba
 5273 093f 97000000 		.4byte	0x97
 5274 0943 060A0000 		.4byte	.LLST33
 5275 0947 2B       		.uleb128 0x2b
 5276 0948 16000000 		.4byte	.LBB33
 5277 094c 10000000 		.4byte	.LBE33-.LBB33
 5278 0950 15       		.uleb128 0x15
 5279 0951 6A00     		.ascii	"j\000"
 5280 0953 01       		.byte	0x1
 5281 0954 BB01     		.2byte	0x1bb
 5282 0956 97000000 		.4byte	0x97
 5283 095a 00       		.byte	0
 5284 095b 00       		.byte	0
 5285 095c 00       		.byte	0
 5286 095d 1C       		.uleb128 0x1c
 5287 095e 43060000 		.4byte	.LASF84
 5288 0962 01       		.byte	0x1
 5289 0963 0402     		.2byte	0x204
ARM GAS  C:\Users\rdn\AppData\Local\Temp\ccIOjLNc.s 			page 121


 5290 0965 00000000 		.4byte	.LFB34
 5291 0969 CC000000 		.4byte	.LFE34-.LFB34
 5292 096d 01       		.uleb128 0x1
 5293 096e 9C       		.byte	0x9c
 5294 096f 360A0000 		.4byte	0xa36
 5295 0973 1E       		.uleb128 0x1e
 5296 0974 7800     		.ascii	"x\000"
 5297 0976 01       		.byte	0x1
 5298 0977 0402     		.2byte	0x204
 5299 0979 C7040000 		.4byte	0x4c7
 5300 097d 250A0000 		.4byte	.LLST34
 5301 0981 1E       		.uleb128 0x1e
 5302 0982 6E00     		.ascii	"n\000"
 5303 0984 01       		.byte	0x1
 5304 0985 0402     		.2byte	0x204
 5305 0987 97000000 		.4byte	0x97
 5306 098b B00A0000 		.4byte	.LLST35
 5307 098f 1E       		.uleb128 0x1e
 5308 0990 6400     		.ascii	"d\000"
 5309 0992 01       		.byte	0x1
 5310 0993 0402     		.2byte	0x204
 5311 0995 97000000 		.4byte	0x97
 5312 0999 D10A0000 		.4byte	.LLST36
 5313 099d 1E       		.uleb128 0x1e
 5314 099e 7900     		.ascii	"y\000"
 5315 09a0 01       		.byte	0x1
 5316 09a1 0402     		.2byte	0x204
 5317 09a3 37070000 		.4byte	0x737
 5318 09a7 F20A0000 		.4byte	.LLST37
 5319 09ab 2C       		.uleb128 0x2c
 5320 09ac 1A020000 		.4byte	.LASF85
 5321 09b0 01       		.byte	0x1
 5322 09b1 0602     		.2byte	0x206
 5323 09b3 4C0A0000 		.4byte	0xa4c
 5324 09b7 05       		.uleb128 0x5
 5325 09b8 03       		.byte	0x3
 5326 09b9 A0050000 		.4byte	h4_q15.5684
 5327 09bd 20       		.uleb128 0x20
 5328 09be 6800     		.ascii	"h\000"
 5329 09c0 01       		.byte	0x1
 5330 09c1 0A02     		.2byte	0x20a
 5331 09c3 C7040000 		.4byte	0x4c7
 5332 09c7 01       		.uleb128 0x1
 5333 09c8 52       		.byte	0x52
 5334 09c9 22       		.uleb128 0x22
 5335 09ca 783300   		.ascii	"x3\000"
 5336 09cd 01       		.byte	0x1
 5337 09ce 0B02     		.2byte	0x20b
 5338 09d0 A9000000 		.4byte	0xa9
 5339 09d4 370B0000 		.4byte	.LLST38
 5340 09d8 22       		.uleb128 0x22
 5341 09d9 783200   		.ascii	"x2\000"
 5342 09dc 01       		.byte	0x1
 5343 09dd 0B02     		.2byte	0x20b
 5344 09df A9000000 		.4byte	0xa9
 5345 09e3 550B0000 		.4byte	.LLST39
 5346 09e7 22       		.uleb128 0x22
ARM GAS  C:\Users\rdn\AppData\Local\Temp\ccIOjLNc.s 			page 122


 5347 09e8 783100   		.ascii	"x1\000"
 5348 09eb 01       		.byte	0x1
 5349 09ec 0B02     		.2byte	0x20b
 5350 09ee A9000000 		.4byte	0xa9
 5351 09f2 730B0000 		.4byte	.LLST40
 5352 09f6 22       		.uleb128 0x22
 5353 09f7 783000   		.ascii	"x0\000"
 5354 09fa 01       		.byte	0x1
 5355 09fb 0B02     		.2byte	0x20b
 5356 09fd A9000000 		.4byte	0xa9
 5357 0a01 910B0000 		.4byte	.LLST41
 5358 0a05 2B       		.uleb128 0x2b
 5359 0a06 16000000 		.4byte	.LBB35
 5360 0a0a AE000000 		.4byte	.LBE35-.LBB35
 5361 0a0e 20       		.uleb128 0x20
 5362 0a0f 796500   		.ascii	"ye\000"
 5363 0a12 01       		.byte	0x1
 5364 0a13 0E02     		.2byte	0x20e
 5365 0a15 C7040000 		.4byte	0x4c7
 5366 0a19 01       		.uleb128 0x1
 5367 0a1a 51       		.byte	0x51
 5368 0a1b 2B       		.uleb128 0x2b
 5369 0a1c 22000000 		.4byte	.LBB36
 5370 0a20 A2000000 		.4byte	.LBE36-.LBB36
 5371 0a24 22       		.uleb128 0x22
 5372 0a25 796E00   		.ascii	"yn\000"
 5373 0a28 01       		.byte	0x1
 5374 0a29 0F02     		.2byte	0x20f
 5375 0a2b B4000000 		.4byte	0xb4
 5376 0a2f A40B0000 		.4byte	.LLST42
 5377 0a33 00       		.byte	0
 5378 0a34 00       		.byte	0
 5379 0a35 00       		.byte	0
 5380 0a36 0D       		.uleb128 0xd
 5381 0a37 CD040000 		.4byte	0x4cd
 5382 0a3b 4C0A0000 		.4byte	0xa4c
 5383 0a3f 0E       		.uleb128 0xe
 5384 0a40 D6010000 		.4byte	0x1d6
 5385 0a44 03       		.byte	0x3
 5386 0a45 0E       		.uleb128 0xe
 5387 0a46 D6010000 		.4byte	0x1d6
 5388 0a4a 03       		.byte	0x3
 5389 0a4b 00       		.byte	0
 5390 0a4c 11       		.uleb128 0x11
 5391 0a4d 360A0000 		.4byte	0xa36
 5392 0a51 2D       		.uleb128 0x2d
 5393 0a52 00000000 		.4byte	.LASF86
 5394 0a56 01       		.byte	0x1
 5395 0a57 2502     		.2byte	0x225
 5396 0a59 25000000 		.4byte	0x25
 5397 0a5d 00000000 		.4byte	.LFB35
 5398 0a61 A8000000 		.4byte	.LFE35-.LFB35
 5399 0a65 01       		.uleb128 0x1
 5400 0a66 9C       		.byte	0x9c
 5401 0a67 AD0A0000 		.4byte	0xaad
 5402 0a6b 1D       		.uleb128 0x1d
 5403 0a6c 7800     		.ascii	"x\000"
ARM GAS  C:\Users\rdn\AppData\Local\Temp\ccIOjLNc.s 			page 123


 5404 0a6e 01       		.byte	0x1
 5405 0a6f 2502     		.2byte	0x225
 5406 0a71 DB030000 		.4byte	0x3db
 5407 0a75 01       		.uleb128 0x1
 5408 0a76 50       		.byte	0x50
 5409 0a77 1D       		.uleb128 0x1d
 5410 0a78 6400     		.ascii	"d\000"
 5411 0a7a 01       		.byte	0x1
 5412 0a7b 2502     		.2byte	0x225
 5413 0a7d 97000000 		.4byte	0x97
 5414 0a81 01       		.uleb128 0x1
 5415 0a82 51       		.byte	0x51
 5416 0a83 20       		.uleb128 0x20
 5417 0a84 683400   		.ascii	"h4\000"
 5418 0a87 01       		.byte	0x1
 5419 0a88 2702     		.2byte	0x227
 5420 0a8a C30A0000 		.4byte	0xac3
 5421 0a8e 05       		.uleb128 0x5
 5422 0a8f 03       		.byte	0x3
 5423 0a90 C0050000 		.4byte	h4.5699
 5424 0a94 22       		.uleb128 0x22
 5425 0a95 6800     		.ascii	"h\000"
 5426 0a97 01       		.byte	0x1
 5427 0a98 3202     		.2byte	0x232
 5428 0a9a DB030000 		.4byte	0x3db
 5429 0a9e C40D0000 		.4byte	.LLST43
 5430 0aa2 15       		.uleb128 0x15
 5431 0aa3 7900     		.ascii	"y\000"
 5432 0aa5 01       		.byte	0x1
 5433 0aa6 3402     		.2byte	0x234
 5434 0aa8 25000000 		.4byte	0x25
 5435 0aac 00       		.byte	0
 5436 0aad 0D       		.uleb128 0xd
 5437 0aae E1030000 		.4byte	0x3e1
 5438 0ab2 C30A0000 		.4byte	0xac3
 5439 0ab6 0E       		.uleb128 0xe
 5440 0ab7 D6010000 		.4byte	0x1d6
 5441 0abb 03       		.byte	0x3
 5442 0abc 0E       		.uleb128 0xe
 5443 0abd D6010000 		.4byte	0x1d6
 5444 0ac1 07       		.byte	0x7
 5445 0ac2 00       		.byte	0
 5446 0ac3 11       		.uleb128 0x11
 5447 0ac4 AD0A0000 		.4byte	0xaad
 5448 0ac8 1C       		.uleb128 0x1c
 5449 0ac9 CE050000 		.4byte	.LASF87
 5450 0acd 01       		.byte	0x1
 5451 0ace F902     		.2byte	0x2f9
 5452 0ad0 00000000 		.4byte	.LFB39
 5453 0ad4 B4010000 		.4byte	.LFE39-.LFB39
 5454 0ad8 01       		.uleb128 0x1
 5455 0ad9 9C       		.byte	0x9c
 5456 0ada 9E0C0000 		.4byte	0xc9e
 5457 0ade 1D       		.uleb128 0x1d
 5458 0adf 786800   		.ascii	"xh\000"
 5459 0ae2 01       		.byte	0x1
 5460 0ae3 FA02     		.2byte	0x2fa
ARM GAS  C:\Users\rdn\AppData\Local\Temp\ccIOjLNc.s 			page 124


 5461 0ae5 DB030000 		.4byte	0x3db
 5462 0ae9 01       		.uleb128 0x1
 5463 0aea 50       		.byte	0x50
 5464 0aeb 1E       		.uleb128 0x1e
 5465 0aec 6E6800   		.ascii	"nh\000"
 5466 0aef 01       		.byte	0x1
 5467 0af0 FA02     		.2byte	0x2fa
 5468 0af2 97000000 		.4byte	0x97
 5469 0af6 EF0D0000 		.4byte	.LLST44
 5470 0afa 1E       		.uleb128 0x1e
 5471 0afb 6C616700 		.ascii	"lag\000"
 5472 0aff 01       		.byte	0x1
 5473 0b00 FA02     		.2byte	0x2fa
 5474 0b02 97000000 		.4byte	0x97
 5475 0b06 320E0000 		.4byte	.LLST45
 5476 0b0a 1E       		.uleb128 0x1e
 5477 0b0b 783000   		.ascii	"x0\000"
 5478 0b0e 01       		.byte	0x1
 5479 0b0f FB02     		.2byte	0x2fb
 5480 0b11 DB030000 		.4byte	0x3db
 5481 0b15 850E0000 		.4byte	.LLST46
 5482 0b19 1E       		.uleb128 0x1e
 5483 0b1a 7800     		.ascii	"x\000"
 5484 0b1c 01       		.byte	0x1
 5485 0b1d FB02     		.2byte	0x2fb
 5486 0b1f 99050000 		.4byte	0x599
 5487 0b23 BB0E0000 		.4byte	.LLST47
 5488 0b27 1E       		.uleb128 0x1e
 5489 0b28 6E00     		.ascii	"n\000"
 5490 0b2a 01       		.byte	0x1
 5491 0b2b FB02     		.2byte	0x2fb
 5492 0b2d 97000000 		.4byte	0x97
 5493 0b31 E50E0000 		.4byte	.LLST48
 5494 0b35 1E       		.uleb128 0x1e
 5495 0b36 6300     		.ascii	"c\000"
 5496 0b38 01       		.byte	0x1
 5497 0b39 FC02     		.2byte	0x2fc
 5498 0b3b DB030000 		.4byte	0x3db
 5499 0b3f 050F0000 		.4byte	.LLST49
 5500 0b43 1E       		.uleb128 0x1e
 5501 0b44 7700     		.ascii	"w\000"
 5502 0b46 01       		.byte	0x1
 5503 0b47 FC02     		.2byte	0x2fc
 5504 0b49 E8040000 		.4byte	0x4e8
 5505 0b4d 250F0000 		.4byte	.LLST50
 5506 0b51 27       		.uleb128 0x27
 5507 0b52 D7030000 		.4byte	.LASF88
 5508 0b56 01       		.byte	0x1
 5509 0b57 FC02     		.2byte	0x2fc
 5510 0b59 97000000 		.4byte	0x97
 5511 0b5d 450F0000 		.4byte	.LLST51
 5512 0b61 20       		.uleb128 0x20
 5513 0b62 6700     		.ascii	"g\000"
 5514 0b64 01       		.byte	0x1
 5515 0b65 FE02     		.2byte	0x2fe
 5516 0b67 25000000 		.4byte	0x25
 5517 0b6b 02       		.uleb128 0x2
ARM GAS  C:\Users\rdn\AppData\Local\Temp\ccIOjLNc.s 			page 125


 5518 0b6c 90       		.byte	0x90
 5519 0b6d 4F       		.uleb128 0x4f
 5520 0b6e 2C       		.uleb128 0x2c
 5521 0b6f 0F040000 		.4byte	.LASF89
 5522 0b73 01       		.byte	0x1
 5523 0b74 FF02     		.2byte	0x2ff
 5524 0b76 25000000 		.4byte	0x25
 5525 0b7a 02       		.uleb128 0x2
 5526 0b7b 90       		.byte	0x90
 5527 0b7c 4A       		.uleb128 0x4a
 5528 0b7d 20       		.uleb128 0x20
 5529 0b7e 7500     		.ascii	"u\000"
 5530 0b80 01       		.byte	0x1
 5531 0b81 0003     		.2byte	0x300
 5532 0b83 37020000 		.4byte	0x237
 5533 0b87 03       		.uleb128 0x3
 5534 0b88 91       		.byte	0x91
 5535 0b89 F87E     		.sleb128 -136
 5536 0b8b 22       		.uleb128 0x22
 5537 0b8c 7900     		.ascii	"y\000"
 5538 0b8e 01       		.byte	0x1
 5539 0b8f 0603     		.2byte	0x306
 5540 0b91 DB030000 		.4byte	0x3db
 5541 0b95 650F0000 		.4byte	.LLST52
 5542 0b99 2E       		.uleb128 0x2e
 5543 0b9a 89060000 		.4byte	.LASF90
 5544 0b9e 01       		.byte	0x1
 5545 0b9f 0703     		.2byte	0x307
 5546 0ba1 DB030000 		.4byte	0x3db
 5547 0ba5 8E0F0000 		.4byte	.LLST53
 5548 0ba9 23       		.uleb128 0x23
 5549 0baa 78000000 		.4byte	.Ldebug_ranges0+0x78
 5550 0bae 1D0C0000 		.4byte	0xc1d
 5551 0bb2 22       		.uleb128 0x22
 5552 0bb3 6A00     		.ascii	"j\000"
 5553 0bb5 01       		.byte	0x1
 5554 0bb6 0903     		.2byte	0x309
 5555 0bb8 97000000 		.4byte	0x97
 5556 0bbc BC0F0000 		.4byte	.LLST54
 5557 0bc0 2B       		.uleb128 0x2b
 5558 0bc1 76000000 		.4byte	.LBB38
 5559 0bc5 60000000 		.4byte	.LBE38-.LBB38
 5560 0bc9 22       		.uleb128 0x22
 5561 0bca 796900   		.ascii	"yi\000"
 5562 0bcd 01       		.byte	0x1
 5563 0bce 0D03     		.2byte	0x30d
 5564 0bd0 25000000 		.4byte	0x25
 5565 0bd4 DB0F0000 		.4byte	.LLST55
 5566 0bd8 22       		.uleb128 0x22
 5567 0bd9 786900   		.ascii	"xi\000"
 5568 0bdc 01       		.byte	0x1
 5569 0bdd 0D03     		.2byte	0x30d
 5570 0bdf 25000000 		.4byte	0x25
 5571 0be3 EF0F0000 		.4byte	.LLST56
 5572 0be7 2F       		.uleb128 0x2f
 5573 0be8 90000000 		.4byte	.LBB39
 5574 0bec 2C000000 		.4byte	.LBE39-.LBB39
ARM GAS  C:\Users\rdn\AppData\Local\Temp\ccIOjLNc.s 			page 126


 5575 0bf0 030C0000 		.4byte	0xc03
 5576 0bf4 22       		.uleb128 0x22
 5577 0bf5 6B00     		.ascii	"k\000"
 5578 0bf7 01       		.byte	0x1
 5579 0bf8 1003     		.2byte	0x310
 5580 0bfa 97000000 		.4byte	0x97
 5581 0bfe 03100000 		.4byte	.LLST57
 5582 0c02 00       		.byte	0
 5583 0c03 2B       		.uleb128 0x2b
 5584 0c04 BC000000 		.4byte	.LBB40
 5585 0c08 1A000000 		.4byte	.LBE40-.LBB40
 5586 0c0c 22       		.uleb128 0x22
 5587 0c0d 6B00     		.ascii	"k\000"
 5588 0c0f 01       		.byte	0x1
 5589 0c10 1303     		.2byte	0x313
 5590 0c12 97000000 		.4byte	0x97
 5591 0c16 22100000 		.4byte	.LLST58
 5592 0c1a 00       		.byte	0
 5593 0c1b 00       		.byte	0
 5594 0c1c 00       		.byte	0
 5595 0c1d 21       		.uleb128 0x21
 5596 0c1e 90000000 		.4byte	.Ldebug_ranges0+0x90
 5597 0c22 22       		.uleb128 0x22
 5598 0c23 6900     		.ascii	"i\000"
 5599 0c25 01       		.byte	0x1
 5600 0c26 1B03     		.2byte	0x31b
 5601 0c28 97000000 		.4byte	0x97
 5602 0c2c 35100000 		.4byte	.LLST59
 5603 0c30 21       		.uleb128 0x21
 5604 0c31 A8000000 		.4byte	.Ldebug_ranges0+0xa8
 5605 0c35 22       		.uleb128 0x22
 5606 0c36 6A00     		.ascii	"j\000"
 5607 0c38 01       		.byte	0x1
 5608 0c39 1C03     		.2byte	0x31c
 5609 0c3b 97000000 		.4byte	0x97
 5610 0c3f 54100000 		.4byte	.LLST60
 5611 0c43 21       		.uleb128 0x21
 5612 0c44 C0000000 		.4byte	.Ldebug_ranges0+0xc0
 5613 0c48 22       		.uleb128 0x22
 5614 0c49 796900   		.ascii	"yi\000"
 5615 0c4c 01       		.byte	0x1
 5616 0c4d 1E03     		.2byte	0x31e
 5617 0c4f 25000000 		.4byte	0x25
 5618 0c53 A2100000 		.4byte	.LLST61
 5619 0c57 22       		.uleb128 0x22
 5620 0c58 786900   		.ascii	"xi\000"
 5621 0c5b 01       		.byte	0x1
 5622 0c5c 1E03     		.2byte	0x31e
 5623 0c5e 25000000 		.4byte	0x25
 5624 0c62 B6100000 		.4byte	.LLST62
 5625 0c66 2F       		.uleb128 0x2f
 5626 0c67 1E010000 		.4byte	.LBB45
 5627 0c6b 3A000000 		.4byte	.LBE45-.LBB45
 5628 0c6f 820C0000 		.4byte	0xc82
 5629 0c73 22       		.uleb128 0x22
 5630 0c74 6B00     		.ascii	"k\000"
 5631 0c76 01       		.byte	0x1
ARM GAS  C:\Users\rdn\AppData\Local\Temp\ccIOjLNc.s 			page 127


 5632 0c77 2103     		.2byte	0x321
 5633 0c79 97000000 		.4byte	0x97
 5634 0c7d D6100000 		.4byte	.LLST63
 5635 0c81 00       		.byte	0
 5636 0c82 2B       		.uleb128 0x2b
 5637 0c83 58010000 		.4byte	.LBB46
 5638 0c87 30000000 		.4byte	.LBE46-.LBB46
 5639 0c8b 22       		.uleb128 0x22
 5640 0c8c 6B00     		.ascii	"k\000"
 5641 0c8e 01       		.byte	0x1
 5642 0c8f 2403     		.2byte	0x324
 5643 0c91 97000000 		.4byte	0x97
 5644 0c95 F5100000 		.4byte	.LLST64
 5645 0c99 00       		.byte	0
 5646 0c9a 00       		.byte	0
 5647 0c9b 00       		.byte	0
 5648 0c9c 00       		.byte	0
 5649 0c9d 00       		.byte	0
 5650 0c9e 1C       		.uleb128 0x1c
 5651 0c9f 81050000 		.4byte	.LASF91
 5652 0ca3 01       		.byte	0x1
 5653 0ca4 3103     		.2byte	0x331
 5654 0ca6 00000000 		.4byte	.LFB40
 5655 0caa 20000000 		.4byte	.LFE40-.LFB40
 5656 0cae 01       		.uleb128 0x1
 5657 0caf 9C       		.byte	0x9c
 5658 0cb0 730D0000 		.4byte	0xd73
 5659 0cb4 1E       		.uleb128 0x1e
 5660 0cb5 786800   		.ascii	"xh\000"
 5661 0cb8 01       		.byte	0x1
 5662 0cb9 3103     		.2byte	0x331
 5663 0cbb DB030000 		.4byte	0x3db
 5664 0cbf 08110000 		.4byte	.LLST65
 5665 0cc3 1E       		.uleb128 0x1e
 5666 0cc4 6E6800   		.ascii	"nh\000"
 5667 0cc7 01       		.byte	0x1
 5668 0cc8 3103     		.2byte	0x331
 5669 0cca 97000000 		.4byte	0x97
 5670 0cce 29110000 		.4byte	.LLST66
 5671 0cd2 1E       		.uleb128 0x1e
 5672 0cd3 6C616700 		.ascii	"lag\000"
 5673 0cd7 01       		.byte	0x1
 5674 0cd8 3103     		.2byte	0x331
 5675 0cda 97000000 		.4byte	0x97
 5676 0cde 4A110000 		.4byte	.LLST67
 5677 0ce2 1E       		.uleb128 0x1e
 5678 0ce3 783000   		.ascii	"x0\000"
 5679 0ce6 01       		.byte	0x1
 5680 0ce7 3203     		.2byte	0x332
 5681 0ce9 DB030000 		.4byte	0x3db
 5682 0ced 6B110000 		.4byte	.LLST68
 5683 0cf1 1D       		.uleb128 0x1d
 5684 0cf2 7800     		.ascii	"x\000"
 5685 0cf4 01       		.byte	0x1
 5686 0cf5 3203     		.2byte	0x332
 5687 0cf7 99050000 		.4byte	0x599
 5688 0cfb 02       		.uleb128 0x2
ARM GAS  C:\Users\rdn\AppData\Local\Temp\ccIOjLNc.s 			page 128


 5689 0cfc 91       		.byte	0x91
 5690 0cfd 00       		.sleb128 0
 5691 0cfe 1D       		.uleb128 0x1d
 5692 0cff 6E00     		.ascii	"n\000"
 5693 0d01 01       		.byte	0x1
 5694 0d02 3203     		.2byte	0x332
 5695 0d04 97000000 		.4byte	0x97
 5696 0d08 02       		.uleb128 0x2
 5697 0d09 91       		.byte	0x91
 5698 0d0a 04       		.sleb128 4
 5699 0d0b 1D       		.uleb128 0x1d
 5700 0d0c 6300     		.ascii	"c\000"
 5701 0d0e 01       		.byte	0x1
 5702 0d0f 3203     		.2byte	0x332
 5703 0d11 DB030000 		.4byte	0x3db
 5704 0d15 02       		.uleb128 0x2
 5705 0d16 91       		.byte	0x91
 5706 0d17 08       		.sleb128 8
 5707 0d18 1F       		.uleb128 0x1f
 5708 0d19 D7030000 		.4byte	.LASF88
 5709 0d1d 01       		.byte	0x1
 5710 0d1e 3203     		.2byte	0x332
 5711 0d20 97000000 		.4byte	0x97
 5712 0d24 02       		.uleb128 0x2
 5713 0d25 91       		.byte	0x91
 5714 0d26 0C       		.sleb128 12
 5715 0d27 28       		.uleb128 0x28
 5716 0d28 1C000000 		.4byte	.LVL162
 5717 0d2c C80A0000 		.4byte	0xac8
 5718 0d30 29       		.uleb128 0x29
 5719 0d31 01       		.uleb128 0x1
 5720 0d32 50       		.byte	0x50
 5721 0d33 03       		.uleb128 0x3
 5722 0d34 F3       		.byte	0xf3
 5723 0d35 01       		.uleb128 0x1
 5724 0d36 50       		.byte	0x50
 5725 0d37 29       		.uleb128 0x29
 5726 0d38 01       		.uleb128 0x1
 5727 0d39 51       		.byte	0x51
 5728 0d3a 03       		.uleb128 0x3
 5729 0d3b F3       		.byte	0xf3
 5730 0d3c 01       		.uleb128 0x1
 5731 0d3d 51       		.byte	0x51
 5732 0d3e 29       		.uleb128 0x29
 5733 0d3f 01       		.uleb128 0x1
 5734 0d40 52       		.byte	0x52
 5735 0d41 03       		.uleb128 0x3
 5736 0d42 F3       		.byte	0xf3
 5737 0d43 01       		.uleb128 0x1
 5738 0d44 52       		.byte	0x52
 5739 0d45 29       		.uleb128 0x29
 5740 0d46 01       		.uleb128 0x1
 5741 0d47 53       		.byte	0x53
 5742 0d48 03       		.uleb128 0x3
 5743 0d49 F3       		.byte	0xf3
 5744 0d4a 01       		.uleb128 0x1
 5745 0d4b 53       		.byte	0x53
ARM GAS  C:\Users\rdn\AppData\Local\Temp\ccIOjLNc.s 			page 129


 5746 0d4c 29       		.uleb128 0x29
 5747 0d4d 02       		.uleb128 0x2
 5748 0d4e 7D       		.byte	0x7d
 5749 0d4f 00       		.sleb128 0
 5750 0d50 02       		.uleb128 0x2
 5751 0d51 74       		.byte	0x74
 5752 0d52 00       		.sleb128 0
 5753 0d53 29       		.uleb128 0x29
 5754 0d54 02       		.uleb128 0x2
 5755 0d55 7D       		.byte	0x7d
 5756 0d56 04       		.sleb128 4
 5757 0d57 03       		.uleb128 0x3
 5758 0d58 91       		.byte	0x91
 5759 0d59 04       		.sleb128 4
 5760 0d5a 06       		.byte	0x6
 5761 0d5b 29       		.uleb128 0x29
 5762 0d5c 02       		.uleb128 0x2
 5763 0d5d 7D       		.byte	0x7d
 5764 0d5e 08       		.sleb128 8
 5765 0d5f 03       		.uleb128 0x3
 5766 0d60 91       		.byte	0x91
 5767 0d61 08       		.sleb128 8
 5768 0d62 06       		.byte	0x6
 5769 0d63 29       		.uleb128 0x29
 5770 0d64 02       		.uleb128 0x2
 5771 0d65 7D       		.byte	0x7d
 5772 0d66 0C       		.sleb128 12
 5773 0d67 01       		.uleb128 0x1
 5774 0d68 34       		.byte	0x34
 5775 0d69 29       		.uleb128 0x29
 5776 0d6a 02       		.uleb128 0x2
 5777 0d6b 7D       		.byte	0x7d
 5778 0d6c 10       		.sleb128 16
 5779 0d6d 03       		.uleb128 0x3
 5780 0d6e 91       		.byte	0x91
 5781 0d6f 0C       		.sleb128 12
 5782 0d70 06       		.byte	0x6
 5783 0d71 00       		.byte	0
 5784 0d72 00       		.byte	0
 5785 0d73 1C       		.uleb128 0x1c
 5786 0d74 8E050000 		.4byte	.LASF92
 5787 0d78 01       		.byte	0x1
 5788 0d79 3703     		.2byte	0x337
 5789 0d7b 00000000 		.4byte	.LFB41
 5790 0d7f 20000000 		.4byte	.LFE41-.LFB41
 5791 0d83 01       		.uleb128 0x1
 5792 0d84 9C       		.byte	0x9c
 5793 0d85 480E0000 		.4byte	0xe48
 5794 0d89 1E       		.uleb128 0x1e
 5795 0d8a 786800   		.ascii	"xh\000"
 5796 0d8d 01       		.byte	0x1
 5797 0d8e 3703     		.2byte	0x337
 5798 0d90 DB030000 		.4byte	0x3db
 5799 0d94 8C110000 		.4byte	.LLST69
 5800 0d98 1E       		.uleb128 0x1e
 5801 0d99 6E6800   		.ascii	"nh\000"
 5802 0d9c 01       		.byte	0x1
ARM GAS  C:\Users\rdn\AppData\Local\Temp\ccIOjLNc.s 			page 130


 5803 0d9d 3703     		.2byte	0x337
 5804 0d9f 97000000 		.4byte	0x97
 5805 0da3 AD110000 		.4byte	.LLST70
 5806 0da7 1E       		.uleb128 0x1e
 5807 0da8 6C616700 		.ascii	"lag\000"
 5808 0dac 01       		.byte	0x1
 5809 0dad 3703     		.2byte	0x337
 5810 0daf 97000000 		.4byte	0x97
 5811 0db3 CE110000 		.4byte	.LLST71
 5812 0db7 1E       		.uleb128 0x1e
 5813 0db8 783000   		.ascii	"x0\000"
 5814 0dbb 01       		.byte	0x1
 5815 0dbc 3803     		.2byte	0x338
 5816 0dbe DB030000 		.4byte	0x3db
 5817 0dc2 EF110000 		.4byte	.LLST72
 5818 0dc6 1D       		.uleb128 0x1d
 5819 0dc7 7800     		.ascii	"x\000"
 5820 0dc9 01       		.byte	0x1
 5821 0dca 3803     		.2byte	0x338
 5822 0dcc 99050000 		.4byte	0x599
 5823 0dd0 02       		.uleb128 0x2
 5824 0dd1 91       		.byte	0x91
 5825 0dd2 00       		.sleb128 0
 5826 0dd3 1D       		.uleb128 0x1d
 5827 0dd4 6E00     		.ascii	"n\000"
 5828 0dd6 01       		.byte	0x1
 5829 0dd7 3803     		.2byte	0x338
 5830 0dd9 97000000 		.4byte	0x97
 5831 0ddd 02       		.uleb128 0x2
 5832 0dde 91       		.byte	0x91
 5833 0ddf 04       		.sleb128 4
 5834 0de0 1D       		.uleb128 0x1d
 5835 0de1 6300     		.ascii	"c\000"
 5836 0de3 01       		.byte	0x1
 5837 0de4 3803     		.2byte	0x338
 5838 0de6 DB030000 		.4byte	0x3db
 5839 0dea 02       		.uleb128 0x2
 5840 0deb 91       		.byte	0x91
 5841 0dec 08       		.sleb128 8
 5842 0ded 1F       		.uleb128 0x1f
 5843 0dee D7030000 		.4byte	.LASF88
 5844 0df2 01       		.byte	0x1
 5845 0df3 3803     		.2byte	0x338
 5846 0df5 97000000 		.4byte	0x97
 5847 0df9 02       		.uleb128 0x2
 5848 0dfa 91       		.byte	0x91
 5849 0dfb 0C       		.sleb128 12
 5850 0dfc 28       		.uleb128 0x28
 5851 0dfd 1C000000 		.4byte	.LVL164
 5852 0e01 C80A0000 		.4byte	0xac8
 5853 0e05 29       		.uleb128 0x29
 5854 0e06 01       		.uleb128 0x1
 5855 0e07 50       		.byte	0x50
 5856 0e08 03       		.uleb128 0x3
 5857 0e09 F3       		.byte	0xf3
 5858 0e0a 01       		.uleb128 0x1
 5859 0e0b 50       		.byte	0x50
ARM GAS  C:\Users\rdn\AppData\Local\Temp\ccIOjLNc.s 			page 131


 5860 0e0c 29       		.uleb128 0x29
 5861 0e0d 01       		.uleb128 0x1
 5862 0e0e 51       		.byte	0x51
 5863 0e0f 03       		.uleb128 0x3
 5864 0e10 F3       		.byte	0xf3
 5865 0e11 01       		.uleb128 0x1
 5866 0e12 51       		.byte	0x51
 5867 0e13 29       		.uleb128 0x29
 5868 0e14 01       		.uleb128 0x1
 5869 0e15 52       		.byte	0x52
 5870 0e16 03       		.uleb128 0x3
 5871 0e17 F3       		.byte	0xf3
 5872 0e18 01       		.uleb128 0x1
 5873 0e19 52       		.byte	0x52
 5874 0e1a 29       		.uleb128 0x29
 5875 0e1b 01       		.uleb128 0x1
 5876 0e1c 53       		.byte	0x53
 5877 0e1d 03       		.uleb128 0x3
 5878 0e1e F3       		.byte	0xf3
 5879 0e1f 01       		.uleb128 0x1
 5880 0e20 53       		.byte	0x53
 5881 0e21 29       		.uleb128 0x29
 5882 0e22 02       		.uleb128 0x2
 5883 0e23 7D       		.byte	0x7d
 5884 0e24 00       		.sleb128 0
 5885 0e25 02       		.uleb128 0x2
 5886 0e26 74       		.byte	0x74
 5887 0e27 00       		.sleb128 0
 5888 0e28 29       		.uleb128 0x29
 5889 0e29 02       		.uleb128 0x2
 5890 0e2a 7D       		.byte	0x7d
 5891 0e2b 04       		.sleb128 4
 5892 0e2c 03       		.uleb128 0x3
 5893 0e2d 91       		.byte	0x91
 5894 0e2e 04       		.sleb128 4
 5895 0e2f 06       		.byte	0x6
 5896 0e30 29       		.uleb128 0x29
 5897 0e31 02       		.uleb128 0x2
 5898 0e32 7D       		.byte	0x7d
 5899 0e33 08       		.sleb128 8
 5900 0e34 03       		.uleb128 0x3
 5901 0e35 91       		.byte	0x91
 5902 0e36 08       		.sleb128 8
 5903 0e37 06       		.byte	0x6
 5904 0e38 29       		.uleb128 0x29
 5905 0e39 02       		.uleb128 0x2
 5906 0e3a 7D       		.byte	0x7d
 5907 0e3b 0C       		.sleb128 12
 5908 0e3c 01       		.uleb128 0x1
 5909 0e3d 36       		.byte	0x36
 5910 0e3e 29       		.uleb128 0x29
 5911 0e3f 02       		.uleb128 0x2
 5912 0e40 7D       		.byte	0x7d
 5913 0e41 10       		.sleb128 16
 5914 0e42 03       		.uleb128 0x3
 5915 0e43 91       		.byte	0x91
 5916 0e44 0C       		.sleb128 12
ARM GAS  C:\Users\rdn\AppData\Local\Temp\ccIOjLNc.s 			page 132


 5917 0e45 06       		.byte	0x6
 5918 0e46 00       		.byte	0
 5919 0e47 00       		.byte	0
 5920 0e48 1C       		.uleb128 0x1c
 5921 0e49 9B050000 		.4byte	.LASF93
 5922 0e4d 01       		.byte	0x1
 5923 0e4e 3D03     		.2byte	0x33d
 5924 0e50 00000000 		.4byte	.LFB42
 5925 0e54 20000000 		.4byte	.LFE42-.LFB42
 5926 0e58 01       		.uleb128 0x1
 5927 0e59 9C       		.byte	0x9c
 5928 0e5a 1D0F0000 		.4byte	0xf1d
 5929 0e5e 1E       		.uleb128 0x1e
 5930 0e5f 786800   		.ascii	"xh\000"
 5931 0e62 01       		.byte	0x1
 5932 0e63 3D03     		.2byte	0x33d
 5933 0e65 DB030000 		.4byte	0x3db
 5934 0e69 10120000 		.4byte	.LLST73
 5935 0e6d 1E       		.uleb128 0x1e
 5936 0e6e 6E6800   		.ascii	"nh\000"
 5937 0e71 01       		.byte	0x1
 5938 0e72 3D03     		.2byte	0x33d
 5939 0e74 97000000 		.4byte	0x97
 5940 0e78 31120000 		.4byte	.LLST74
 5941 0e7c 1E       		.uleb128 0x1e
 5942 0e7d 6C616700 		.ascii	"lag\000"
 5943 0e81 01       		.byte	0x1
 5944 0e82 3D03     		.2byte	0x33d
 5945 0e84 97000000 		.4byte	0x97
 5946 0e88 52120000 		.4byte	.LLST75
 5947 0e8c 1E       		.uleb128 0x1e
 5948 0e8d 783000   		.ascii	"x0\000"
 5949 0e90 01       		.byte	0x1
 5950 0e91 3E03     		.2byte	0x33e
 5951 0e93 DB030000 		.4byte	0x3db
 5952 0e97 73120000 		.4byte	.LLST76
 5953 0e9b 1D       		.uleb128 0x1d
 5954 0e9c 7800     		.ascii	"x\000"
 5955 0e9e 01       		.byte	0x1
 5956 0e9f 3E03     		.2byte	0x33e
 5957 0ea1 99050000 		.4byte	0x599
 5958 0ea5 02       		.uleb128 0x2
 5959 0ea6 91       		.byte	0x91
 5960 0ea7 00       		.sleb128 0
 5961 0ea8 1D       		.uleb128 0x1d
 5962 0ea9 6E00     		.ascii	"n\000"
 5963 0eab 01       		.byte	0x1
 5964 0eac 3E03     		.2byte	0x33e
 5965 0eae 97000000 		.4byte	0x97
 5966 0eb2 02       		.uleb128 0x2
 5967 0eb3 91       		.byte	0x91
 5968 0eb4 04       		.sleb128 4
 5969 0eb5 1D       		.uleb128 0x1d
 5970 0eb6 6300     		.ascii	"c\000"
 5971 0eb8 01       		.byte	0x1
 5972 0eb9 3E03     		.2byte	0x33e
 5973 0ebb DB030000 		.4byte	0x3db
ARM GAS  C:\Users\rdn\AppData\Local\Temp\ccIOjLNc.s 			page 133


 5974 0ebf 02       		.uleb128 0x2
 5975 0ec0 91       		.byte	0x91
 5976 0ec1 08       		.sleb128 8
 5977 0ec2 1F       		.uleb128 0x1f
 5978 0ec3 D7030000 		.4byte	.LASF88
 5979 0ec7 01       		.byte	0x1
 5980 0ec8 3E03     		.2byte	0x33e
 5981 0eca 97000000 		.4byte	0x97
 5982 0ece 02       		.uleb128 0x2
 5983 0ecf 91       		.byte	0x91
 5984 0ed0 0C       		.sleb128 12
 5985 0ed1 28       		.uleb128 0x28
 5986 0ed2 1C000000 		.4byte	.LVL166
 5987 0ed6 C80A0000 		.4byte	0xac8
 5988 0eda 29       		.uleb128 0x29
 5989 0edb 01       		.uleb128 0x1
 5990 0edc 50       		.byte	0x50
 5991 0edd 03       		.uleb128 0x3
 5992 0ede F3       		.byte	0xf3
 5993 0edf 01       		.uleb128 0x1
 5994 0ee0 50       		.byte	0x50
 5995 0ee1 29       		.uleb128 0x29
 5996 0ee2 01       		.uleb128 0x1
 5997 0ee3 51       		.byte	0x51
 5998 0ee4 03       		.uleb128 0x3
 5999 0ee5 F3       		.byte	0xf3
 6000 0ee6 01       		.uleb128 0x1
 6001 0ee7 51       		.byte	0x51
 6002 0ee8 29       		.uleb128 0x29
 6003 0ee9 01       		.uleb128 0x1
 6004 0eea 52       		.byte	0x52
 6005 0eeb 03       		.uleb128 0x3
 6006 0eec F3       		.byte	0xf3
 6007 0eed 01       		.uleb128 0x1
 6008 0eee 52       		.byte	0x52
 6009 0eef 29       		.uleb128 0x29
 6010 0ef0 01       		.uleb128 0x1
 6011 0ef1 53       		.byte	0x53
 6012 0ef2 03       		.uleb128 0x3
 6013 0ef3 F3       		.byte	0xf3
 6014 0ef4 01       		.uleb128 0x1
 6015 0ef5 53       		.byte	0x53
 6016 0ef6 29       		.uleb128 0x29
 6017 0ef7 02       		.uleb128 0x2
 6018 0ef8 7D       		.byte	0x7d
 6019 0ef9 00       		.sleb128 0
 6020 0efa 02       		.uleb128 0x2
 6021 0efb 74       		.byte	0x74
 6022 0efc 00       		.sleb128 0
 6023 0efd 29       		.uleb128 0x29
 6024 0efe 02       		.uleb128 0x2
 6025 0eff 7D       		.byte	0x7d
 6026 0f00 04       		.sleb128 4
 6027 0f01 03       		.uleb128 0x3
 6028 0f02 91       		.byte	0x91
 6029 0f03 04       		.sleb128 4
 6030 0f04 06       		.byte	0x6
ARM GAS  C:\Users\rdn\AppData\Local\Temp\ccIOjLNc.s 			page 134


 6031 0f05 29       		.uleb128 0x29
 6032 0f06 02       		.uleb128 0x2
 6033 0f07 7D       		.byte	0x7d
 6034 0f08 08       		.sleb128 8
 6035 0f09 03       		.uleb128 0x3
 6036 0f0a 91       		.byte	0x91
 6037 0f0b 08       		.sleb128 8
 6038 0f0c 06       		.byte	0x6
 6039 0f0d 29       		.uleb128 0x29
 6040 0f0e 02       		.uleb128 0x2
 6041 0f0f 7D       		.byte	0x7d
 6042 0f10 0C       		.sleb128 12
 6043 0f11 01       		.uleb128 0x1
 6044 0f12 38       		.byte	0x38
 6045 0f13 29       		.uleb128 0x29
 6046 0f14 02       		.uleb128 0x2
 6047 0f15 7D       		.byte	0x7d
 6048 0f16 10       		.sleb128 16
 6049 0f17 03       		.uleb128 0x3
 6050 0f18 91       		.byte	0x91
 6051 0f19 0C       		.sleb128 12
 6052 0f1a 06       		.byte	0x6
 6053 0f1b 00       		.byte	0
 6054 0f1c 00       		.byte	0
 6055 0f1d 1C       		.uleb128 0x1c
 6056 0f1e DD060000 		.4byte	.LASF94
 6057 0f22 01       		.byte	0x1
 6058 0f23 4303     		.2byte	0x343
 6059 0f25 00000000 		.4byte	.LFB43
 6060 0f29 20000000 		.4byte	.LFE43-.LFB43
 6061 0f2d 01       		.uleb128 0x1
 6062 0f2e 9C       		.byte	0x9c
 6063 0f2f F20F0000 		.4byte	0xff2
 6064 0f33 1E       		.uleb128 0x1e
 6065 0f34 786800   		.ascii	"xh\000"
 6066 0f37 01       		.byte	0x1
 6067 0f38 4303     		.2byte	0x343
 6068 0f3a DB030000 		.4byte	0x3db
 6069 0f3e 94120000 		.4byte	.LLST77
 6070 0f42 1E       		.uleb128 0x1e
 6071 0f43 6E6800   		.ascii	"nh\000"
 6072 0f46 01       		.byte	0x1
 6073 0f47 4303     		.2byte	0x343
 6074 0f49 97000000 		.4byte	0x97
 6075 0f4d B5120000 		.4byte	.LLST78
 6076 0f51 1E       		.uleb128 0x1e
 6077 0f52 6C616700 		.ascii	"lag\000"
 6078 0f56 01       		.byte	0x1
 6079 0f57 4303     		.2byte	0x343
 6080 0f59 97000000 		.4byte	0x97
 6081 0f5d D6120000 		.4byte	.LLST79
 6082 0f61 1E       		.uleb128 0x1e
 6083 0f62 783000   		.ascii	"x0\000"
 6084 0f65 01       		.byte	0x1
 6085 0f66 4403     		.2byte	0x344
 6086 0f68 DB030000 		.4byte	0x3db
 6087 0f6c F7120000 		.4byte	.LLST80
ARM GAS  C:\Users\rdn\AppData\Local\Temp\ccIOjLNc.s 			page 135


 6088 0f70 1D       		.uleb128 0x1d
 6089 0f71 7800     		.ascii	"x\000"
 6090 0f73 01       		.byte	0x1
 6091 0f74 4403     		.2byte	0x344
 6092 0f76 99050000 		.4byte	0x599
 6093 0f7a 02       		.uleb128 0x2
 6094 0f7b 91       		.byte	0x91
 6095 0f7c 00       		.sleb128 0
 6096 0f7d 1D       		.uleb128 0x1d
 6097 0f7e 6E00     		.ascii	"n\000"
 6098 0f80 01       		.byte	0x1
 6099 0f81 4403     		.2byte	0x344
 6100 0f83 97000000 		.4byte	0x97
 6101 0f87 02       		.uleb128 0x2
 6102 0f88 91       		.byte	0x91
 6103 0f89 04       		.sleb128 4
 6104 0f8a 1D       		.uleb128 0x1d
 6105 0f8b 6300     		.ascii	"c\000"
 6106 0f8d 01       		.byte	0x1
 6107 0f8e 4403     		.2byte	0x344
 6108 0f90 DB030000 		.4byte	0x3db
 6109 0f94 02       		.uleb128 0x2
 6110 0f95 91       		.byte	0x91
 6111 0f96 08       		.sleb128 8
 6112 0f97 1F       		.uleb128 0x1f
 6113 0f98 D7030000 		.4byte	.LASF88
 6114 0f9c 01       		.byte	0x1
 6115 0f9d 4403     		.2byte	0x344
 6116 0f9f 97000000 		.4byte	0x97
 6117 0fa3 02       		.uleb128 0x2
 6118 0fa4 91       		.byte	0x91
 6119 0fa5 0C       		.sleb128 12
 6120 0fa6 28       		.uleb128 0x28
 6121 0fa7 1C000000 		.4byte	.LVL168
 6122 0fab C80A0000 		.4byte	0xac8
 6123 0faf 29       		.uleb128 0x29
 6124 0fb0 01       		.uleb128 0x1
 6125 0fb1 50       		.byte	0x50
 6126 0fb2 03       		.uleb128 0x3
 6127 0fb3 F3       		.byte	0xf3
 6128 0fb4 01       		.uleb128 0x1
 6129 0fb5 50       		.byte	0x50
 6130 0fb6 29       		.uleb128 0x29
 6131 0fb7 01       		.uleb128 0x1
 6132 0fb8 51       		.byte	0x51
 6133 0fb9 03       		.uleb128 0x3
 6134 0fba F3       		.byte	0xf3
 6135 0fbb 01       		.uleb128 0x1
 6136 0fbc 51       		.byte	0x51
 6137 0fbd 29       		.uleb128 0x29
 6138 0fbe 01       		.uleb128 0x1
 6139 0fbf 52       		.byte	0x52
 6140 0fc0 03       		.uleb128 0x3
 6141 0fc1 F3       		.byte	0xf3
 6142 0fc2 01       		.uleb128 0x1
 6143 0fc3 52       		.byte	0x52
 6144 0fc4 29       		.uleb128 0x29
ARM GAS  C:\Users\rdn\AppData\Local\Temp\ccIOjLNc.s 			page 136


 6145 0fc5 01       		.uleb128 0x1
 6146 0fc6 53       		.byte	0x53
 6147 0fc7 03       		.uleb128 0x3
 6148 0fc8 F3       		.byte	0xf3
 6149 0fc9 01       		.uleb128 0x1
 6150 0fca 53       		.byte	0x53
 6151 0fcb 29       		.uleb128 0x29
 6152 0fcc 02       		.uleb128 0x2
 6153 0fcd 7D       		.byte	0x7d
 6154 0fce 00       		.sleb128 0
 6155 0fcf 02       		.uleb128 0x2
 6156 0fd0 74       		.byte	0x74
 6157 0fd1 00       		.sleb128 0
 6158 0fd2 29       		.uleb128 0x29
 6159 0fd3 02       		.uleb128 0x2
 6160 0fd4 7D       		.byte	0x7d
 6161 0fd5 04       		.sleb128 4
 6162 0fd6 03       		.uleb128 0x3
 6163 0fd7 91       		.byte	0x91
 6164 0fd8 04       		.sleb128 4
 6165 0fd9 06       		.byte	0x6
 6166 0fda 29       		.uleb128 0x29
 6167 0fdb 02       		.uleb128 0x2
 6168 0fdc 7D       		.byte	0x7d
 6169 0fdd 08       		.sleb128 8
 6170 0fde 03       		.uleb128 0x3
 6171 0fdf 91       		.byte	0x91
 6172 0fe0 08       		.sleb128 8
 6173 0fe1 06       		.byte	0x6
 6174 0fe2 29       		.uleb128 0x29
 6175 0fe3 02       		.uleb128 0x2
 6176 0fe4 7D       		.byte	0x7d
 6177 0fe5 0C       		.sleb128 12
 6178 0fe6 01       		.uleb128 0x1
 6179 0fe7 3C       		.byte	0x3c
 6180 0fe8 29       		.uleb128 0x29
 6181 0fe9 02       		.uleb128 0x2
 6182 0fea 7D       		.byte	0x7d
 6183 0feb 10       		.sleb128 16
 6184 0fec 03       		.uleb128 0x3
 6185 0fed 91       		.byte	0x91
 6186 0fee 0C       		.sleb128 12
 6187 0fef 06       		.byte	0x6
 6188 0ff0 00       		.byte	0
 6189 0ff1 00       		.byte	0
 6190 0ff2 30       		.uleb128 0x30
 6191 0ff3 5E060000 		.4byte	.LASF95
 6192 0ff7 01       		.byte	0x1
 6193 0ff8 D5       		.byte	0xd5
 6194 0ff9 00000000 		.4byte	.LFB21
 6195 0ffd 38010000 		.4byte	.LFE21-.LFB21
 6196 1001 01       		.uleb128 0x1
 6197 1002 9C       		.byte	0x9c
 6198 1003 18110000 		.4byte	0x1118
 6199 1007 31       		.uleb128 0x31
 6200 1008 7000     		.ascii	"p\000"
 6201 100a 01       		.byte	0x1
ARM GAS  C:\Users\rdn\AppData\Local\Temp\ccIOjLNc.s 			page 137


 6202 100b D5       		.byte	0xd5
 6203 100c E8040000 		.4byte	0x4e8
 6204 1010 01       		.uleb128 0x1
 6205 1011 50       		.byte	0x50
 6206 1012 32       		.uleb128 0x32
 6207 1013 6800     		.ascii	"h\000"
 6208 1015 01       		.byte	0x1
 6209 1016 D5       		.byte	0xd5
 6210 1017 C7040000 		.4byte	0x4c7
 6211 101b 18130000 		.4byte	.LLST81
 6212 101f 33       		.uleb128 0x33
 6213 1020 83030000 		.4byte	.LASF37
 6214 1024 01       		.byte	0x1
 6215 1025 D6       		.byte	0xd6
 6216 1026 F7050000 		.4byte	0x5f7
 6217 102a 01       		.uleb128 0x1
 6218 102b 52       		.byte	0x52
 6219 102c 32       		.uleb128 0x32
 6220 102d 7800     		.ascii	"x\000"
 6221 102f 01       		.byte	0x1
 6222 1030 D6       		.byte	0xd6
 6223 1031 C7040000 		.4byte	0x4c7
 6224 1035 44130000 		.4byte	.LLST82
 6225 1039 32       		.uleb128 0x32
 6226 103a 7900     		.ascii	"y\000"
 6227 103c 01       		.byte	0x1
 6228 103d D6       		.byte	0xd6
 6229 103e 37070000 		.4byte	0x737
 6230 1042 87130000 		.4byte	.LLST83
 6231 1046 32       		.uleb128 0x32
 6232 1047 6E00     		.ascii	"n\000"
 6233 1049 01       		.byte	0x1
 6234 104a D6       		.byte	0xd6
 6235 104b 97000000 		.4byte	0x97
 6236 104f E3130000 		.4byte	.LLST84
 6237 1053 34       		.uleb128 0x34
 6238 1054 7700     		.ascii	"w\000"
 6239 1056 01       		.byte	0x1
 6240 1057 D8       		.byte	0xd8
 6241 1058 E8040000 		.4byte	0x4e8
 6242 105c 01       		.uleb128 0x1
 6243 105d 53       		.byte	0x53
 6244 105e 21       		.uleb128 0x21
 6245 105f E0000000 		.4byte	.Ldebug_ranges0+0xe0
 6246 1063 35       		.uleb128 0x35
 6247 1064 6900     		.ascii	"i\000"
 6248 1066 01       		.byte	0x1
 6249 1067 DC       		.byte	0xdc
 6250 1068 97000000 		.4byte	0x97
 6251 106c 03140000 		.4byte	.LLST85
 6252 1070 21       		.uleb128 0x21
 6253 1071 F8000000 		.4byte	.Ldebug_ranges0+0xf8
 6254 1075 35       		.uleb128 0x35
 6255 1076 686E00   		.ascii	"hn\000"
 6256 1079 01       		.byte	0x1
 6257 107a DD       		.byte	0xdd
 6258 107b C7040000 		.4byte	0x4c7
ARM GAS  C:\Users\rdn\AppData\Local\Temp\ccIOjLNc.s 			page 138


 6259 107f 22140000 		.4byte	.LLST86
 6260 1083 35       		.uleb128 0x35
 6261 1084 786E00   		.ascii	"xn\000"
 6262 1087 01       		.byte	0x1
 6263 1088 DE       		.byte	0xde
 6264 1089 C7040000 		.4byte	0x4c7
 6265 108d A5160000 		.4byte	.LLST87
 6266 1091 35       		.uleb128 0x35
 6267 1092 756E00   		.ascii	"un\000"
 6268 1095 01       		.byte	0x1
 6269 1096 DF       		.byte	0xdf
 6270 1097 B4000000 		.4byte	0xb4
 6271 109b 6A170000 		.4byte	.LLST88
 6272 109f 1B       		.uleb128 0x1b
 6273 10a0 796E00   		.ascii	"yn\000"
 6274 10a3 01       		.byte	0x1
 6275 10a4 EE       		.byte	0xee
 6276 10a5 B4000000 		.4byte	0xb4
 6277 10a9 23       		.uleb128 0x23
 6278 10aa 10010000 		.4byte	.Ldebug_ranges0+0x110
 6279 10ae C0100000 		.4byte	0x10c0
 6280 10b2 35       		.uleb128 0x35
 6281 10b3 6B00     		.ascii	"k\000"
 6282 10b5 01       		.byte	0x1
 6283 10b6 E1       		.byte	0xe1
 6284 10b7 97000000 		.4byte	0x97
 6285 10bb EC170000 		.4byte	.LLST89
 6286 10bf 00       		.byte	0
 6287 10c0 36       		.uleb128 0x36
 6288 10c1 9F050000 		.4byte	0x59f
 6289 10c5 C8000000 		.4byte	.LBB60
 6290 10c9 28010000 		.4byte	.Ldebug_ranges0+0x128
 6291 10cd 01       		.byte	0x1
 6292 10ce EE       		.byte	0xee
 6293 10cf 25       		.uleb128 0x25
 6294 10d0 BA050000 		.4byte	0x5ba
 6295 10d4 23180000 		.4byte	.LLST90
 6296 10d8 25       		.uleb128 0x25
 6297 10d9 AF050000 		.4byte	0x5af
 6298 10dd 36180000 		.4byte	.LLST91
 6299 10e1 21       		.uleb128 0x21
 6300 10e2 28010000 		.4byte	.Ldebug_ranges0+0x128
 6301 10e6 26       		.uleb128 0x26
 6302 10e7 C4050000 		.4byte	0x5c4
 6303 10eb 49180000 		.4byte	.LLST92
 6304 10ef 26       		.uleb128 0x26
 6305 10f0 CE050000 		.4byte	0x5ce
 6306 10f4 6B180000 		.4byte	.LLST93
 6307 10f8 26       		.uleb128 0x26
 6308 10f9 D8050000 		.4byte	0x5d8
 6309 10fd 83180000 		.4byte	.LLST94
 6310 1101 26       		.uleb128 0x26
 6311 1102 E2050000 		.4byte	0x5e2
 6312 1106 9B180000 		.4byte	.LLST95
 6313 110a 26       		.uleb128 0x26
 6314 110b EC050000 		.4byte	0x5ec
 6315 110f B3180000 		.4byte	.LLST96
ARM GAS  C:\Users\rdn\AppData\Local\Temp\ccIOjLNc.s 			page 139


 6316 1113 00       		.byte	0
 6317 1114 00       		.byte	0
 6318 1115 00       		.byte	0
 6319 1116 00       		.byte	0
 6320 1117 00       		.byte	0
 6321 1118 1C       		.uleb128 0x1c
 6322 1119 40010000 		.4byte	.LASF96
 6323 111d 01       		.byte	0x1
 6324 111e 2F01     		.2byte	0x12f
 6325 1120 00000000 		.4byte	.LFB23
 6326 1124 1C000000 		.4byte	.LFE23-.LFB23
 6327 1128 01       		.uleb128 0x1
 6328 1129 9C       		.byte	0x9c
 6329 112a 9F110000 		.4byte	0x119f
 6330 112e 27       		.uleb128 0x27
 6331 112f 83030000 		.4byte	.LASF37
 6332 1133 01       		.byte	0x1
 6333 1134 3001     		.2byte	0x130
 6334 1136 F7050000 		.4byte	0x5f7
 6335 113a CB180000 		.4byte	.LLST97
 6336 113e 1E       		.uleb128 0x1e
 6337 113f 7800     		.ascii	"x\000"
 6338 1141 01       		.byte	0x1
 6339 1142 3001     		.2byte	0x130
 6340 1144 C7040000 		.4byte	0x4c7
 6341 1148 F7180000 		.4byte	.LLST98
 6342 114c 1E       		.uleb128 0x1e
 6343 114d 7900     		.ascii	"y\000"
 6344 114f 01       		.byte	0x1
 6345 1150 3001     		.2byte	0x130
 6346 1152 37070000 		.4byte	0x737
 6347 1156 23190000 		.4byte	.LLST99
 6348 115a 1E       		.uleb128 0x1e
 6349 115b 6E00     		.ascii	"n\000"
 6350 115d 01       		.byte	0x1
 6351 115e 3001     		.2byte	0x130
 6352 1160 97000000 		.4byte	0x97
 6353 1164 50190000 		.4byte	.LLST100
 6354 1168 28       		.uleb128 0x28
 6355 1169 12000000 		.4byte	.LVL217
 6356 116d F20F0000 		.4byte	0xff2
 6357 1171 29       		.uleb128 0x29
 6358 1172 01       		.uleb128 0x1
 6359 1173 50       		.byte	0x50
 6360 1174 01       		.uleb128 0x1
 6361 1175 38       		.byte	0x38
 6362 1176 29       		.uleb128 0x29
 6363 1177 01       		.uleb128 0x1
 6364 1178 51       		.byte	0x51
 6365 1179 05       		.uleb128 0x5
 6366 117a 03       		.byte	0x3
 6367 117b 40060000 		.4byte	.LANCHOR0+1600
 6368 117f 29       		.uleb128 0x29
 6369 1180 01       		.uleb128 0x1
 6370 1181 52       		.byte	0x52
 6371 1182 03       		.uleb128 0x3
 6372 1183 F3       		.byte	0xf3
ARM GAS  C:\Users\rdn\AppData\Local\Temp\ccIOjLNc.s 			page 140


 6373 1184 01       		.uleb128 0x1
 6374 1185 50       		.byte	0x50
 6375 1186 29       		.uleb128 0x29
 6376 1187 01       		.uleb128 0x1
 6377 1188 53       		.byte	0x53
 6378 1189 03       		.uleb128 0x3
 6379 118a F3       		.byte	0xf3
 6380 118b 01       		.uleb128 0x1
 6381 118c 51       		.byte	0x51
 6382 118d 29       		.uleb128 0x29
 6383 118e 02       		.uleb128 0x2
 6384 118f 7D       		.byte	0x7d
 6385 1190 00       		.sleb128 0
 6386 1191 03       		.uleb128 0x3
 6387 1192 F3       		.byte	0xf3
 6388 1193 01       		.uleb128 0x1
 6389 1194 52       		.byte	0x52
 6390 1195 29       		.uleb128 0x29
 6391 1196 02       		.uleb128 0x2
 6392 1197 7D       		.byte	0x7d
 6393 1198 04       		.sleb128 4
 6394 1199 03       		.uleb128 0x3
 6395 119a F3       		.byte	0xf3
 6396 119b 01       		.uleb128 0x1
 6397 119c 53       		.byte	0x53
 6398 119d 00       		.byte	0
 6399 119e 00       		.byte	0
 6400 119f 1C       		.uleb128 0x1c
 6401 11a0 AD020000 		.4byte	.LASF97
 6402 11a4 01       		.byte	0x1
 6403 11a5 3F01     		.2byte	0x13f
 6404 11a7 00000000 		.4byte	.LFB24
 6405 11ab 1C000000 		.4byte	.LFE24-.LFB24
 6406 11af 01       		.uleb128 0x1
 6407 11b0 9C       		.byte	0x9c
 6408 11b1 26120000 		.4byte	0x1226
 6409 11b5 27       		.uleb128 0x27
 6410 11b6 83030000 		.4byte	.LASF37
 6411 11ba 01       		.byte	0x1
 6412 11bb 4001     		.2byte	0x140
 6413 11bd F7050000 		.4byte	0x5f7
 6414 11c1 7D190000 		.4byte	.LLST101
 6415 11c5 1E       		.uleb128 0x1e
 6416 11c6 7800     		.ascii	"x\000"
 6417 11c8 01       		.byte	0x1
 6418 11c9 4001     		.2byte	0x140
 6419 11cb C7040000 		.4byte	0x4c7
 6420 11cf A9190000 		.4byte	.LLST102
 6421 11d3 1E       		.uleb128 0x1e
 6422 11d4 7900     		.ascii	"y\000"
 6423 11d6 01       		.byte	0x1
 6424 11d7 4001     		.2byte	0x140
 6425 11d9 37070000 		.4byte	0x737
 6426 11dd D5190000 		.4byte	.LLST103
 6427 11e1 1E       		.uleb128 0x1e
 6428 11e2 6E00     		.ascii	"n\000"
 6429 11e4 01       		.byte	0x1
ARM GAS  C:\Users\rdn\AppData\Local\Temp\ccIOjLNc.s 			page 141


 6430 11e5 4001     		.2byte	0x140
 6431 11e7 97000000 		.4byte	0x97
 6432 11eb 021A0000 		.4byte	.LLST104
 6433 11ef 28       		.uleb128 0x28
 6434 11f0 12000000 		.4byte	.LVL223
 6435 11f4 F20F0000 		.4byte	0xff2
 6436 11f8 29       		.uleb128 0x29
 6437 11f9 01       		.uleb128 0x1
 6438 11fa 50       		.byte	0x50
 6439 11fb 01       		.uleb128 0x1
 6440 11fc 34       		.byte	0x34
 6441 11fd 29       		.uleb128 0x29
 6442 11fe 01       		.uleb128 0x1
 6443 11ff 51       		.byte	0x51
 6444 1200 05       		.uleb128 0x5
 6445 1201 03       		.byte	0x3
 6446 1202 E0060000 		.4byte	.LANCHOR0+1760
 6447 1206 29       		.uleb128 0x29
 6448 1207 01       		.uleb128 0x1
 6449 1208 52       		.byte	0x52
 6450 1209 03       		.uleb128 0x3
 6451 120a F3       		.byte	0xf3
 6452 120b 01       		.uleb128 0x1
 6453 120c 50       		.byte	0x50
 6454 120d 29       		.uleb128 0x29
 6455 120e 01       		.uleb128 0x1
 6456 120f 53       		.byte	0x53
 6457 1210 03       		.uleb128 0x3
 6458 1211 F3       		.byte	0xf3
 6459 1212 01       		.uleb128 0x1
 6460 1213 51       		.byte	0x51
 6461 1214 29       		.uleb128 0x29
 6462 1215 02       		.uleb128 0x2
 6463 1216 7D       		.byte	0x7d
 6464 1217 00       		.sleb128 0
 6465 1218 03       		.uleb128 0x3
 6466 1219 F3       		.byte	0xf3
 6467 121a 01       		.uleb128 0x1
 6468 121b 52       		.byte	0x52
 6469 121c 29       		.uleb128 0x29
 6470 121d 02       		.uleb128 0x2
 6471 121e 7D       		.byte	0x7d
 6472 121f 04       		.sleb128 4
 6473 1220 03       		.uleb128 0x3
 6474 1221 F3       		.byte	0xf3
 6475 1222 01       		.uleb128 0x1
 6476 1223 53       		.byte	0x53
 6477 1224 00       		.byte	0
 6478 1225 00       		.byte	0
 6479 1226 1C       		.uleb128 0x1c
 6480 1227 BC050000 		.4byte	.LASF98
 6481 122b 01       		.byte	0x1
 6482 122c 4F01     		.2byte	0x14f
 6483 122e 00000000 		.4byte	.LFB25
 6484 1232 1C000000 		.4byte	.LFE25-.LFB25
 6485 1236 01       		.uleb128 0x1
 6486 1237 9C       		.byte	0x9c
ARM GAS  C:\Users\rdn\AppData\Local\Temp\ccIOjLNc.s 			page 142


 6487 1238 AD120000 		.4byte	0x12ad
 6488 123c 27       		.uleb128 0x27
 6489 123d 83030000 		.4byte	.LASF37
 6490 1241 01       		.byte	0x1
 6491 1242 5001     		.2byte	0x150
 6492 1244 F7050000 		.4byte	0x5f7
 6493 1248 2F1A0000 		.4byte	.LLST105
 6494 124c 1E       		.uleb128 0x1e
 6495 124d 7800     		.ascii	"x\000"
 6496 124f 01       		.byte	0x1
 6497 1250 5001     		.2byte	0x150
 6498 1252 C7040000 		.4byte	0x4c7
 6499 1256 5B1A0000 		.4byte	.LLST106
 6500 125a 1E       		.uleb128 0x1e
 6501 125b 7900     		.ascii	"y\000"
 6502 125d 01       		.byte	0x1
 6503 125e 5001     		.2byte	0x150
 6504 1260 37070000 		.4byte	0x737
 6505 1264 871A0000 		.4byte	.LLST107
 6506 1268 1E       		.uleb128 0x1e
 6507 1269 6E00     		.ascii	"n\000"
 6508 126b 01       		.byte	0x1
 6509 126c 5001     		.2byte	0x150
 6510 126e 97000000 		.4byte	0x97
 6511 1272 B41A0000 		.4byte	.LLST108
 6512 1276 28       		.uleb128 0x28
 6513 1277 12000000 		.4byte	.LVL229
 6514 127b F20F0000 		.4byte	0xff2
 6515 127f 29       		.uleb128 0x29
 6516 1280 01       		.uleb128 0x1
 6517 1281 50       		.byte	0x50
 6518 1282 01       		.uleb128 0x1
 6519 1283 32       		.byte	0x32
 6520 1284 29       		.uleb128 0x29
 6521 1285 01       		.uleb128 0x1
 6522 1286 51       		.byte	0x51
 6523 1287 05       		.uleb128 0x5
 6524 1288 03       		.byte	0x3
 6525 1289 80070000 		.4byte	.LANCHOR0+1920
 6526 128d 29       		.uleb128 0x29
 6527 128e 01       		.uleb128 0x1
 6528 128f 52       		.byte	0x52
 6529 1290 03       		.uleb128 0x3
 6530 1291 F3       		.byte	0xf3
 6531 1292 01       		.uleb128 0x1
 6532 1293 50       		.byte	0x50
 6533 1294 29       		.uleb128 0x29
 6534 1295 01       		.uleb128 0x1
 6535 1296 53       		.byte	0x53
 6536 1297 03       		.uleb128 0x3
 6537 1298 F3       		.byte	0xf3
 6538 1299 01       		.uleb128 0x1
 6539 129a 51       		.byte	0x51
 6540 129b 29       		.uleb128 0x29
 6541 129c 02       		.uleb128 0x2
 6542 129d 7D       		.byte	0x7d
 6543 129e 00       		.sleb128 0
ARM GAS  C:\Users\rdn\AppData\Local\Temp\ccIOjLNc.s 			page 143


 6544 129f 03       		.uleb128 0x3
 6545 12a0 F3       		.byte	0xf3
 6546 12a1 01       		.uleb128 0x1
 6547 12a2 52       		.byte	0x52
 6548 12a3 29       		.uleb128 0x29
 6549 12a4 02       		.uleb128 0x2
 6550 12a5 7D       		.byte	0x7d
 6551 12a6 04       		.sleb128 4
 6552 12a7 03       		.uleb128 0x3
 6553 12a8 F3       		.byte	0xf3
 6554 12a9 01       		.uleb128 0x1
 6555 12aa 53       		.byte	0x53
 6556 12ab 00       		.byte	0
 6557 12ac 00       		.byte	0
 6558 12ad 37       		.uleb128 0x37
 6559 12ae 42020000 		.4byte	.LASF100
 6560 12b2 01       		.byte	0x1
 6561 12b3 8E01     		.2byte	0x18e
 6562 12b5 01       		.byte	0x1
 6563 12b6 F5120000 		.4byte	0x12f5
 6564 12ba 14       		.uleb128 0x14
 6565 12bb 7800     		.ascii	"x\000"
 6566 12bd 01       		.byte	0x1
 6567 12be 8E01     		.2byte	0x18e
 6568 12c0 C7040000 		.4byte	0x4c7
 6569 12c4 14       		.uleb128 0x14
 6570 12c5 7900     		.ascii	"y\000"
 6571 12c7 01       		.byte	0x1
 6572 12c8 8E01     		.2byte	0x18e
 6573 12ca 37070000 		.4byte	0x737
 6574 12ce 14       		.uleb128 0x14
 6575 12cf 6E00     		.ascii	"n\000"
 6576 12d1 01       		.byte	0x1
 6577 12d2 8E01     		.2byte	0x18e
 6578 12d4 97000000 		.4byte	0x97
 6579 12d8 38       		.uleb128 0x38
 6580 12d9 6800     		.ascii	"h\000"
 6581 12db 01       		.byte	0x1
 6582 12dc 9001     		.2byte	0x190
 6583 12de 05130000 		.4byte	0x1305
 6584 12e2 06       		.byte	0x6
 6585 12e3 2D       		.byte	0x2d
 6586 12e4 48       		.byte	0x48
 6587 12e5 40       		.byte	0x40
 6588 12e6 3C       		.byte	0x3c
 6589 12e7 A9       		.byte	0xa9
 6590 12e8 1F       		.byte	0x1f
 6591 12e9 15       		.uleb128 0x15
 6592 12ea 796500   		.ascii	"ye\000"
 6593 12ed 01       		.byte	0x1
 6594 12ee 9101     		.2byte	0x191
 6595 12f0 C7040000 		.4byte	0x4c7
 6596 12f4 00       		.byte	0
 6597 12f5 0D       		.uleb128 0xd
 6598 12f6 CD040000 		.4byte	0x4cd
 6599 12fa 05130000 		.4byte	0x1305
 6600 12fe 0E       		.uleb128 0xe
ARM GAS  C:\Users\rdn\AppData\Local\Temp\ccIOjLNc.s 			page 144


 6601 12ff D6010000 		.4byte	0x1d6
 6602 1303 02       		.byte	0x2
 6603 1304 00       		.byte	0
 6604 1305 11       		.uleb128 0x11
 6605 1306 F5120000 		.4byte	0x12f5
 6606 130a 12       		.uleb128 0x12
 6607 130b 89040000 		.4byte	.LASF99
 6608 130f 01       		.byte	0x1
 6609 1310 DA01     		.2byte	0x1da
 6610 1312 97000000 		.4byte	0x97
 6611 1316 01       		.byte	0x1
 6612 1317 54130000 		.4byte	0x1354
 6613 131b 14       		.uleb128 0x14
 6614 131c 7800     		.ascii	"x\000"
 6615 131e 01       		.byte	0x1
 6616 131f DA01     		.2byte	0x1da
 6617 1321 DB030000 		.4byte	0x3db
 6618 1325 14       		.uleb128 0x14
 6619 1326 6E00     		.ascii	"n\000"
 6620 1328 01       		.byte	0x1
 6621 1329 DA01     		.2byte	0x1da
 6622 132b 97000000 		.4byte	0x97
 6623 132f 13       		.uleb128 0x13
 6624 1330 C4030000 		.4byte	.LASF77
 6625 1334 01       		.byte	0x1
 6626 1335 DA01     		.2byte	0x1da
 6627 1337 99050000 		.4byte	0x599
 6628 133b 15       		.uleb128 0x15
 6629 133c 61726700 		.ascii	"arg\000"
 6630 1340 01       		.byte	0x1
 6631 1341 DC01     		.2byte	0x1dc
 6632 1343 97000000 		.4byte	0x97
 6633 1347 19       		.uleb128 0x19
 6634 1348 15       		.uleb128 0x15
 6635 1349 6900     		.ascii	"i\000"
 6636 134b 01       		.byte	0x1
 6637 134c DF01     		.2byte	0x1df
 6638 134e 97000000 		.4byte	0x97
 6639 1352 00       		.byte	0
 6640 1353 00       		.byte	0
 6641 1354 37       		.uleb128 0x37
 6642 1355 F0030000 		.4byte	.LASF101
 6643 1359 01       		.byte	0x1
 6644 135a CC01     		.2byte	0x1cc
 6645 135c 01       		.byte	0x1
 6646 135d A2130000 		.4byte	0x13a2
 6647 1361 14       		.uleb128 0x14
 6648 1362 6100     		.ascii	"a\000"
 6649 1364 01       		.byte	0x1
 6650 1365 CD01     		.2byte	0x1cd
 6651 1367 C7040000 		.4byte	0x4c7
 6652 136b 14       		.uleb128 0x14
 6653 136c 6200     		.ascii	"b\000"
 6654 136e 01       		.byte	0x1
 6655 136f CD01     		.2byte	0x1cd
 6656 1371 C7040000 		.4byte	0x4c7
 6657 1375 14       		.uleb128 0x14
ARM GAS  C:\Users\rdn\AppData\Local\Temp\ccIOjLNc.s 			page 145


 6658 1376 6E00     		.ascii	"n\000"
 6659 1378 01       		.byte	0x1
 6660 1379 CD01     		.2byte	0x1cd
 6661 137b 97000000 		.4byte	0x97
 6662 137f 14       		.uleb128 0x14
 6663 1380 7900     		.ascii	"y\000"
 6664 1382 01       		.byte	0x1
 6665 1383 CD01     		.2byte	0x1cd
 6666 1385 99050000 		.4byte	0x599
 6667 1389 14       		.uleb128 0x14
 6668 138a 6E6300   		.ascii	"nc\000"
 6669 138d 01       		.byte	0x1
 6670 138e CD01     		.2byte	0x1cd
 6671 1390 97000000 		.4byte	0x97
 6672 1394 19       		.uleb128 0x19
 6673 1395 15       		.uleb128 0x15
 6674 1396 796500   		.ascii	"ye\000"
 6675 1399 01       		.byte	0x1
 6676 139a CF01     		.2byte	0x1cf
 6677 139c DB030000 		.4byte	0x3db
 6678 13a0 00       		.byte	0
 6679 13a1 00       		.byte	0
 6680 13a2 12       		.uleb128 0x12
 6681 13a3 D0060000 		.4byte	.LASF102
 6682 13a7 01       		.byte	0x1
 6683 13a8 6E02     		.2byte	0x26e
 6684 13aa 97000000 		.4byte	0x97
 6685 13ae 01       		.byte	0x1
 6686 13af 4C140000 		.4byte	0x144c
 6687 13b3 14       		.uleb128 0x14
 6688 13b4 7800     		.ascii	"x\000"
 6689 13b6 01       		.byte	0x1
 6690 13b7 6E02     		.2byte	0x26e
 6691 13b9 C7040000 		.4byte	0x4c7
 6692 13bd 14       		.uleb128 0x14
 6693 13be 6E00     		.ascii	"n\000"
 6694 13c0 01       		.byte	0x1
 6695 13c1 6E02     		.2byte	0x26e
 6696 13c3 97000000 		.4byte	0x97
 6697 13c7 14       		.uleb128 0x14
 6698 13c8 746300   		.ascii	"tc\000"
 6699 13cb 01       		.byte	0x1
 6700 13cc 6E02     		.2byte	0x26e
 6701 13ce 97000000 		.4byte	0x97
 6702 13d2 13       		.uleb128 0x13
 6703 13d3 90000000 		.4byte	.LASF36
 6704 13d7 01       		.byte	0x1
 6705 13d8 6E02     		.2byte	0x26e
 6706 13da D2040000 		.4byte	0x4d2
 6707 13de 15       		.uleb128 0x15
 6708 13df 7200     		.ascii	"r\000"
 6709 13e1 01       		.byte	0x1
 6710 13e2 7002     		.2byte	0x270
 6711 13e4 4C140000 		.4byte	0x144c
 6712 13e8 15       		.uleb128 0x15
 6713 13e9 726D00   		.ascii	"rm\000"
 6714 13ec 01       		.byte	0x1
ARM GAS  C:\Users\rdn\AppData\Local\Temp\ccIOjLNc.s 			page 146


 6715 13ed 7002     		.2byte	0x270
 6716 13ef 25000000 		.4byte	0x25
 6717 13f3 15       		.uleb128 0x15
 6718 13f4 6500     		.ascii	"e\000"
 6719 13f6 01       		.byte	0x1
 6720 13f7 7102     		.2byte	0x271
 6721 13f9 97000000 		.4byte	0x97
 6722 13fd 15       		.uleb128 0x15
 6723 13fe 6600     		.ascii	"f\000"
 6724 1400 01       		.byte	0x1
 6725 1401 7102     		.2byte	0x271
 6726 1403 97000000 		.4byte	0x97
 6727 1407 15       		.uleb128 0x15
 6728 1408 723000   		.ascii	"r0\000"
 6729 140b 01       		.byte	0x1
 6730 140c 7302     		.2byte	0x273
 6731 140e 97000000 		.4byte	0x97
 6732 1412 15       		.uleb128 0x15
 6733 1413 6E7200   		.ascii	"nr\000"
 6734 1416 01       		.byte	0x1
 6735 1417 7402     		.2byte	0x274
 6736 1419 97000000 		.4byte	0x97
 6737 141d 15       		.uleb128 0x15
 6738 141e 726500   		.ascii	"re\000"
 6739 1421 01       		.byte	0x1
 6740 1422 7902     		.2byte	0x279
 6741 1424 DB030000 		.4byte	0x3db
 6742 1428 15       		.uleb128 0x15
 6743 1429 646D00   		.ascii	"dm\000"
 6744 142c 01       		.byte	0x1
 6745 142d 7B02     		.2byte	0x27b
 6746 142f 25000000 		.4byte	0x25
 6747 1433 19       		.uleb128 0x19
 6748 1434 15       		.uleb128 0x15
 6749 1435 6900     		.ascii	"i\000"
 6750 1437 01       		.byte	0x1
 6751 1438 7C02     		.2byte	0x27c
 6752 143a 97000000 		.4byte	0x97
 6753 143e 19       		.uleb128 0x19
 6754 143f 15       		.uleb128 0x15
 6755 1440 6400     		.ascii	"d\000"
 6756 1442 01       		.byte	0x1
 6757 1443 7D02     		.2byte	0x27d
 6758 1445 25000000 		.4byte	0x25
 6759 1449 00       		.byte	0
 6760 144a 00       		.byte	0
 6761 144b 00       		.byte	0
 6762 144c 0D       		.uleb128 0xd
 6763 144d 25000000 		.4byte	0x25
 6764 1451 5C140000 		.4byte	0x145c
 6765 1455 0E       		.uleb128 0xe
 6766 1456 D6010000 		.4byte	0x1d6
 6767 145a 10       		.byte	0x10
 6768 145b 00       		.byte	0
 6769 145c 39       		.uleb128 0x39
 6770 145d 00060000 		.4byte	.LASF118
 6771 1461 01       		.byte	0x1
ARM GAS  C:\Users\rdn\AppData\Local\Temp\ccIOjLNc.s 			page 147


 6772 1462 9402     		.2byte	0x294
 6773 1464 BF010000 		.4byte	0x1bf
 6774 1468 00000000 		.4byte	.LFB38
 6775 146c BE040000 		.4byte	.LFE38-.LFB38
 6776 1470 01       		.uleb128 0x1
 6777 1471 9C       		.byte	0x9c
 6778 1472 751B0000 		.4byte	0x1b75
 6779 1476 1E       		.uleb128 0x1e
 6780 1477 647400   		.ascii	"dt\000"
 6781 147a 01       		.byte	0x1
 6782 147b 9502     		.2byte	0x295
 6783 147d CA000000 		.4byte	0xca
 6784 1481 E11A0000 		.4byte	.LLST109
 6785 1485 1E       		.uleb128 0x1e
 6786 1486 737200   		.ascii	"sr\000"
 6787 1489 01       		.byte	0x1
 6788 148a 9502     		.2byte	0x295
 6789 148c F9000000 		.4byte	0xf9
 6790 1490 021B0000 		.4byte	.LLST110
 6791 1494 27       		.uleb128 0x27
 6792 1495 7B020000 		.4byte	.LASF70
 6793 1499 01       		.byte	0x1
 6794 149a 9502     		.2byte	0x295
 6795 149c C1040000 		.4byte	0x4c1
 6796 14a0 231B0000 		.4byte	.LLST111
 6797 14a4 1E       		.uleb128 0x1e
 6798 14a5 7800     		.ascii	"x\000"
 6799 14a7 01       		.byte	0x1
 6800 14a8 9602     		.2byte	0x296
 6801 14aa C7040000 		.4byte	0x4c7
 6802 14ae 411B0000 		.4byte	.LLST112
 6803 14b2 1F       		.uleb128 0x1f
 6804 14b3 FC020000 		.4byte	.LASF103
 6805 14b7 01       		.byte	0x1
 6806 14b8 9602     		.2byte	0x296
 6807 14ba 751B0000 		.4byte	0x1b75
 6808 14be 02       		.uleb128 0x2
 6809 14bf 91       		.byte	0x91
 6810 14c0 00       		.sleb128 0
 6811 14c1 3A       		.uleb128 0x3a
 6812 14c2 9B020000 		.4byte	.LASF104
 6813 14c6 01       		.byte	0x1
 6814 14c7 9A02     		.2byte	0x29a
 6815 14c9 97000000 		.4byte	0x97
 6816 14cd 8001     		.2byte	0x180
 6817 14cf 2C       		.uleb128 0x2c
 6818 14d0 39010000 		.4byte	.LASF105
 6819 14d4 01       		.byte	0x1
 6820 14d5 9B02     		.2byte	0x29b
 6821 14d7 97000000 		.4byte	0x97
 6822 14db 01       		.uleb128 0x1
 6823 14dc 57       		.byte	0x57
 6824 14dd 2E       		.uleb128 0x2e
 6825 14de 12010000 		.4byte	.LASF38
 6826 14e2 01       		.byte	0x1
 6827 14e3 A002     		.2byte	0x2a0
 6828 14e5 37070000 		.4byte	0x737
ARM GAS  C:\Users\rdn\AppData\Local\Temp\ccIOjLNc.s 			page 148


 6829 14e9 6D1B0000 		.4byte	.LLST113
 6830 14ed 3B       		.uleb128 0x3b
 6831 14ee 44040000 		.4byte	.LASF106
 6832 14f2 01       		.byte	0x1
 6833 14f3 A802     		.2byte	0x2a8
 6834 14f5 97000000 		.4byte	0x97
 6835 14f9 B2       		.byte	0xb2
 6836 14fa 2E       		.uleb128 0x2e
 6837 14fb 04070000 		.4byte	.LASF107
 6838 14ff 01       		.byte	0x1
 6839 1500 A902     		.2byte	0x2a9
 6840 1502 97000000 		.4byte	0x97
 6841 1506 8B1B0000 		.4byte	.LLST114
 6842 150a 2E       		.uleb128 0x2e
 6843 150b 4F020000 		.4byte	.LASF39
 6844 150f 01       		.byte	0x1
 6845 1510 AE02     		.2byte	0x2ae
 6846 1512 37070000 		.4byte	0x737
 6847 1516 9E1B0000 		.4byte	.LLST115
 6848 151a 22       		.uleb128 0x22
 6849 151b 746300   		.ascii	"tc\000"
 6850 151e 01       		.byte	0x1
 6851 151f BB02     		.2byte	0x2bb
 6852 1521 97000000 		.4byte	0x97
 6853 1525 D51B0000 		.4byte	.LLST116
 6854 1529 2E       		.uleb128 0x2e
 6855 152a 90000000 		.4byte	.LASF36
 6856 152e 01       		.byte	0x1
 6857 152f BB02     		.2byte	0x2bb
 6858 1531 97000000 		.4byte	0x97
 6859 1535 081C0000 		.4byte	.LLST117
 6860 1539 22       		.uleb128 0x22
 6861 153a 6E6300   		.ascii	"nc\000"
 6862 153d 01       		.byte	0x1
 6863 153e BC02     		.2byte	0x2bc
 6864 1540 25000000 		.4byte	0x25
 6865 1544 3E1C0000 		.4byte	.LLST118
 6866 1548 16       		.uleb128 0x16
 6867 1549 A1010000 		.4byte	.LASF108
 6868 154d 01       		.byte	0x1
 6869 154e BE02     		.2byte	0x2be
 6870 1550 BF010000 		.4byte	0x1bf
 6871 1554 3C       		.uleb128 0x3c
 6872 1555 AD120000 		.4byte	0x12ad
 6873 1559 82000000 		.4byte	.LBB91
 6874 155d 48000000 		.4byte	.LBE91-.LBB91
 6875 1561 01       		.byte	0x1
 6876 1562 B002     		.2byte	0x2b0
 6877 1564 9C150000 		.4byte	0x159c
 6878 1568 25       		.uleb128 0x25
 6879 1569 CE120000 		.4byte	0x12ce
 6880 156d 7E1C0000 		.4byte	.LLST119
 6881 1571 25       		.uleb128 0x25
 6882 1572 C4120000 		.4byte	0x12c4
 6883 1576 911C0000 		.4byte	.LLST120
 6884 157a 25       		.uleb128 0x25
 6885 157b BA120000 		.4byte	0x12ba
ARM GAS  C:\Users\rdn\AppData\Local\Temp\ccIOjLNc.s 			page 149


 6886 157f C71C0000 		.4byte	.LLST121
 6887 1583 2B       		.uleb128 0x2b
 6888 1584 82000000 		.4byte	.LBB92
 6889 1588 48000000 		.4byte	.LBE92-.LBB92
 6890 158c 26       		.uleb128 0x26
 6891 158d E9120000 		.4byte	0x12e9
 6892 1591 0E1D0000 		.4byte	.LLST122
 6893 1595 3D       		.uleb128 0x3d
 6894 1596 D8120000 		.4byte	0x12d8
 6895 159a 00       		.byte	0
 6896 159b 00       		.byte	0
 6897 159c 3C       		.uleb128 0x3c
 6898 159d E6030000 		.4byte	0x3e6
 6899 15a1 DA000000 		.4byte	.LBB93
 6900 15a5 6E010000 		.4byte	.LBE93-.LBB93
 6901 15a9 01       		.byte	0x1
 6902 15aa BE02     		.2byte	0x2be
 6903 15ac 2B180000 		.4byte	0x182b
 6904 15b0 3E       		.uleb128 0x3e
 6905 15b1 F7030000 		.4byte	0x3f7
 6906 15b5 01       		.uleb128 0x1
 6907 15b6 56       		.byte	0x56
 6908 15b7 25       		.uleb128 0x25
 6909 15b8 17040000 		.4byte	0x417
 6910 15bc 211D0000 		.4byte	.LLST123
 6911 15c0 25       		.uleb128 0x25
 6912 15c1 0D040000 		.4byte	0x40d
 6913 15c5 391D0000 		.4byte	.LLST124
 6914 15c9 25       		.uleb128 0x25
 6915 15ca 03040000 		.4byte	0x403
 6916 15ce 4C1D0000 		.4byte	.LLST125
 6917 15d2 2B       		.uleb128 0x2b
 6918 15d3 DA000000 		.4byte	.LBB94
 6919 15d7 6E010000 		.4byte	.LBE94-.LBB94
 6920 15db 26       		.uleb128 0x26
 6921 15dc 22040000 		.4byte	0x422
 6922 15e0 5F1D0000 		.4byte	.LLST126
 6923 15e4 26       		.uleb128 0x26
 6924 15e5 2E040000 		.4byte	0x42e
 6925 15e9 731D0000 		.4byte	.LLST127
 6926 15ed 3F       		.uleb128 0x3f
 6927 15ee 3A040000 		.4byte	0x43a
 6928 15f2 03       		.uleb128 0x3
 6929 15f3 91       		.byte	0x91
 6930 15f4 C07C     		.sleb128 -448
 6931 15f6 40       		.uleb128 0x40
 6932 15f7 44040000 		.4byte	0x444
 6933 15fb 11       		.byte	0x11
 6934 15fc 40       		.uleb128 0x40
 6935 15fd 4F040000 		.4byte	0x44f
 6936 1601 62       		.byte	0x62
 6937 1602 26       		.uleb128 0x26
 6938 1603 5A040000 		.4byte	0x45a
 6939 1607 871D0000 		.4byte	.LLST128
 6940 160b 26       		.uleb128 0x26
 6941 160c 65040000 		.4byte	0x465
 6942 1610 A51D0000 		.4byte	.LLST129
ARM GAS  C:\Users\rdn\AppData\Local\Temp\ccIOjLNc.s 			page 150


 6943 1614 3D       		.uleb128 0x3d
 6944 1615 70040000 		.4byte	0x470
 6945 1619 26       		.uleb128 0x26
 6946 161a 7B040000 		.4byte	0x47b
 6947 161e CB1D0000 		.4byte	.LLST130
 6948 1622 26       		.uleb128 0x26
 6949 1623 86040000 		.4byte	0x486
 6950 1627 DE1D0000 		.4byte	.LLST131
 6951 162b 26       		.uleb128 0x26
 6952 162c 91040000 		.4byte	0x491
 6953 1630 221E0000 		.4byte	.LLST132
 6954 1634 26       		.uleb128 0x26
 6955 1635 9C040000 		.4byte	0x49c
 6956 1639 3F1E0000 		.4byte	.LLST133
 6957 163d 26       		.uleb128 0x26
 6958 163e A8040000 		.4byte	0x4a8
 6959 1642 531E0000 		.4byte	.LLST134
 6960 1646 26       		.uleb128 0x26
 6961 1647 B4040000 		.4byte	0x4b4
 6962 164b 671E0000 		.4byte	.LLST135
 6963 164f 3C       		.uleb128 0x3c
 6964 1650 54130000 		.4byte	0x1354
 6965 1654 08010000 		.4byte	.LBB95
 6966 1658 18000000 		.4byte	.LBE95-.LBB95
 6967 165c 01       		.byte	0x1
 6968 165d 5002     		.2byte	0x250
 6969 165f C4160000 		.4byte	0x16c4
 6970 1663 25       		.uleb128 0x25
 6971 1664 89130000 		.4byte	0x1389
 6972 1668 BE1E0000 		.4byte	.LLST136
 6973 166c 25       		.uleb128 0x25
 6974 166d 7F130000 		.4byte	0x137f
 6975 1671 D31E0000 		.4byte	.LLST137
 6976 1675 25       		.uleb128 0x25
 6977 1676 75130000 		.4byte	0x1375
 6978 167a F41E0000 		.4byte	.LLST138
 6979 167e 25       		.uleb128 0x25
 6980 167f 6B130000 		.4byte	0x136b
 6981 1683 071F0000 		.4byte	.LLST139
 6982 1687 25       		.uleb128 0x25
 6983 1688 61130000 		.4byte	0x1361
 6984 168c 321F0000 		.4byte	.LLST140
 6985 1690 2B       		.uleb128 0x2b
 6986 1691 08010000 		.4byte	.LBB96
 6987 1695 18000000 		.4byte	.LBE96-.LBB96
 6988 1699 26       		.uleb128 0x26
 6989 169a 95130000 		.4byte	0x1395
 6990 169e 451F0000 		.4byte	.LLST141
 6991 16a2 28       		.uleb128 0x28
 6992 16a3 14010000 		.4byte	.LVL260
 6993 16a7 D2080000 		.4byte	0x8d2
 6994 16ab 29       		.uleb128 0x29
 6995 16ac 01       		.uleb128 0x1
 6996 16ad 50       		.byte	0x50
 6997 16ae 02       		.uleb128 0x2
 6998 16af 74       		.byte	0x74
 6999 16b0 00       		.sleb128 0
ARM GAS  C:\Users\rdn\AppData\Local\Temp\ccIOjLNc.s 			page 151


 7000 16b1 29       		.uleb128 0x29
 7001 16b2 01       		.uleb128 0x1
 7002 16b3 51       		.byte	0x51
 7003 16b4 06       		.uleb128 0x6
 7004 16b5 91       		.byte	0x91
 7005 16b6 BC7A     		.sleb128 -708
 7006 16b8 06       		.byte	0x6
 7007 16b9 23       		.byte	0x23
 7008 16ba 02       		.uleb128 0x2
 7009 16bb 29       		.uleb128 0x29
 7010 16bc 01       		.uleb128 0x1
 7011 16bd 52       		.byte	0x52
 7012 16be 02       		.uleb128 0x2
 7013 16bf 75       		.byte	0x75
 7014 16c0 00       		.sleb128 0
 7015 16c1 00       		.byte	0
 7016 16c2 00       		.byte	0
 7017 16c3 00       		.byte	0
 7018 16c4 3C       		.uleb128 0x3c
 7019 16c5 2D050000 		.4byte	0x52d
 7020 16c9 20010000 		.4byte	.LBB97
 7021 16cd 42000000 		.4byte	.LBE97-.LBB97
 7022 16d1 01       		.byte	0x1
 7023 16d2 5202     		.2byte	0x252
 7024 16d4 31170000 		.4byte	0x1731
 7025 16d8 25       		.uleb128 0x25
 7026 16d9 48050000 		.4byte	0x548
 7027 16dd 5A1F0000 		.4byte	.LLST142
 7028 16e1 25       		.uleb128 0x25
 7029 16e2 52050000 		.4byte	0x552
 7030 16e6 6F1F0000 		.4byte	.LLST143
 7031 16ea 25       		.uleb128 0x25
 7032 16eb 5E050000 		.4byte	0x55e
 7033 16ef 871F0000 		.4byte	.LLST144
 7034 16f3 25       		.uleb128 0x25
 7035 16f4 3E050000 		.4byte	0x53e
 7036 16f8 9F1F0000 		.4byte	.LLST145
 7037 16fc 2B       		.uleb128 0x2b
 7038 16fd 20010000 		.4byte	.LBB98
 7039 1701 42000000 		.4byte	.LBE98-.LBB98
 7040 1705 26       		.uleb128 0x26
 7041 1706 6A050000 		.4byte	0x56a
 7042 170a B51F0000 		.4byte	.LLST146
 7043 170e 26       		.uleb128 0x26
 7044 170f 76050000 		.4byte	0x576
 7045 1713 C91F0000 		.4byte	.LLST147
 7046 1717 26       		.uleb128 0x26
 7047 1718 82050000 		.4byte	0x582
 7048 171c DD1F0000 		.4byte	.LLST148
 7049 1720 21       		.uleb128 0x21
 7050 1721 40010000 		.4byte	.Ldebug_ranges0+0x140
 7051 1725 26       		.uleb128 0x26
 7052 1726 8D050000 		.4byte	0x58d
 7053 172a 0D200000 		.4byte	.LLST149
 7054 172e 00       		.byte	0
 7055 172f 00       		.byte	0
 7056 1730 00       		.byte	0
ARM GAS  C:\Users\rdn\AppData\Local\Temp\ccIOjLNc.s 			page 152


 7057 1731 3C       		.uleb128 0x3c
 7058 1732 0A130000 		.4byte	0x130a
 7059 1736 62010000 		.4byte	.LBB101
 7060 173a 2C000000 		.4byte	.LBE101-.LBB101
 7061 173e 01       		.byte	0x1
 7062 173f 5302     		.2byte	0x253
 7063 1741 83170000 		.4byte	0x1783
 7064 1745 25       		.uleb128 0x25
 7065 1746 2F130000 		.4byte	0x132f
 7066 174a 44200000 		.4byte	.LLST150
 7067 174e 25       		.uleb128 0x25
 7068 174f 25130000 		.4byte	0x1325
 7069 1753 5C200000 		.4byte	.LLST151
 7070 1757 25       		.uleb128 0x25
 7071 1758 1B130000 		.4byte	0x131b
 7072 175c 75200000 		.4byte	.LLST152
 7073 1760 2B       		.uleb128 0x2b
 7074 1761 62010000 		.4byte	.LBB102
 7075 1765 2C000000 		.4byte	.LBE102-.LBB102
 7076 1769 26       		.uleb128 0x26
 7077 176a 3B130000 		.4byte	0x133b
 7078 176e 93200000 		.4byte	.LLST153
 7079 1772 21       		.uleb128 0x21
 7080 1773 58010000 		.4byte	.Ldebug_ranges0+0x158
 7081 1777 26       		.uleb128 0x26
 7082 1778 48130000 		.4byte	0x1348
 7083 177c A7200000 		.4byte	.LLST154
 7084 1780 00       		.byte	0
 7085 1781 00       		.byte	0
 7086 1782 00       		.byte	0
 7087 1783 41       		.uleb128 0x41
 7088 1784 A4010000 		.4byte	.LVL277
 7089 1788 D2080000 		.4byte	0x8d2
 7090 178c A3170000 		.4byte	0x17a3
 7091 1790 29       		.uleb128 0x29
 7092 1791 01       		.uleb128 0x1
 7093 1792 50       		.byte	0x50
 7094 1793 02       		.uleb128 0x2
 7095 1794 74       		.byte	0x74
 7096 1795 00       		.sleb128 0
 7097 1796 29       		.uleb128 0x29
 7098 1797 01       		.uleb128 0x1
 7099 1798 51       		.byte	0x51
 7100 1799 02       		.uleb128 0x2
 7101 179a 74       		.byte	0x74
 7102 179b 00       		.sleb128 0
 7103 179c 29       		.uleb128 0x29
 7104 179d 01       		.uleb128 0x1
 7105 179e 52       		.byte	0x52
 7106 179f 02       		.uleb128 0x2
 7107 17a0 75       		.byte	0x75
 7108 17a1 00       		.sleb128 0
 7109 17a2 00       		.byte	0
 7110 17a3 41       		.uleb128 0x41
 7111 17a4 B8010000 		.4byte	.LVL280
 7112 17a8 D2080000 		.4byte	0x8d2
 7113 17ac CD170000 		.4byte	0x17cd
ARM GAS  C:\Users\rdn\AppData\Local\Temp\ccIOjLNc.s 			page 153


 7114 17b0 29       		.uleb128 0x29
 7115 17b1 01       		.uleb128 0x1
 7116 17b2 50       		.byte	0x50
 7117 17b3 07       		.uleb128 0x7
 7118 17b4 74       		.byte	0x74
 7119 17b5 00       		.sleb128 0
 7120 17b6 7A       		.byte	0x7a
 7121 17b7 11       		.sleb128 17
 7122 17b8 31       		.byte	0x31
 7123 17b9 24       		.byte	0x24
 7124 17ba 1C       		.byte	0x1c
 7125 17bb 29       		.uleb128 0x29
 7126 17bc 01       		.uleb128 0x1
 7127 17bd 51       		.byte	0x51
 7128 17be 07       		.uleb128 0x7
 7129 17bf 74       		.byte	0x74
 7130 17c0 00       		.sleb128 0
 7131 17c1 7A       		.byte	0x7a
 7132 17c2 11       		.sleb128 17
 7133 17c3 31       		.byte	0x31
 7134 17c4 24       		.byte	0x24
 7135 17c5 1C       		.byte	0x1c
 7136 17c6 29       		.uleb128 0x29
 7137 17c7 01       		.uleb128 0x1
 7138 17c8 52       		.byte	0x52
 7139 17c9 02       		.uleb128 0x2
 7140 17ca 75       		.byte	0x75
 7141 17cb 00       		.sleb128 0
 7142 17cc 00       		.byte	0
 7143 17cd 42       		.uleb128 0x42
 7144 17ce C4010000 		.4byte	.LVL281
 7145 17d2 94230000 		.4byte	0x2394
 7146 17d6 41       		.uleb128 0x41
 7147 17d7 E6010000 		.4byte	.LVL284
 7148 17db D2080000 		.4byte	0x8d2
 7149 17df F6170000 		.4byte	0x17f6
 7150 17e3 29       		.uleb128 0x29
 7151 17e4 01       		.uleb128 0x1
 7152 17e5 50       		.byte	0x50
 7153 17e6 02       		.uleb128 0x2
 7154 17e7 74       		.byte	0x74
 7155 17e8 00       		.sleb128 0
 7156 17e9 29       		.uleb128 0x29
 7157 17ea 01       		.uleb128 0x1
 7158 17eb 51       		.byte	0x51
 7159 17ec 02       		.uleb128 0x2
 7160 17ed 74       		.byte	0x74
 7161 17ee 00       		.sleb128 0
 7162 17ef 29       		.uleb128 0x29
 7163 17f0 01       		.uleb128 0x1
 7164 17f1 52       		.byte	0x52
 7165 17f2 02       		.uleb128 0x2
 7166 17f3 75       		.byte	0x75
 7167 17f4 00       		.sleb128 0
 7168 17f5 00       		.byte	0
 7169 17f6 41       		.uleb128 0x41
 7170 17f7 FA010000 		.4byte	.LVL285
ARM GAS  C:\Users\rdn\AppData\Local\Temp\ccIOjLNc.s 			page 154


 7171 17fb D2080000 		.4byte	0x8d2
 7172 17ff 20180000 		.4byte	0x1820
 7173 1803 29       		.uleb128 0x29
 7174 1804 01       		.uleb128 0x1
 7175 1805 50       		.byte	0x50
 7176 1806 07       		.uleb128 0x7
 7177 1807 74       		.byte	0x74
 7178 1808 00       		.sleb128 0
 7179 1809 79       		.byte	0x79
 7180 180a 11       		.sleb128 17
 7181 180b 31       		.byte	0x31
 7182 180c 24       		.byte	0x24
 7183 180d 1C       		.byte	0x1c
 7184 180e 29       		.uleb128 0x29
 7185 180f 01       		.uleb128 0x1
 7186 1810 51       		.byte	0x51
 7187 1811 07       		.uleb128 0x7
 7188 1812 74       		.byte	0x74
 7189 1813 00       		.sleb128 0
 7190 1814 79       		.byte	0x79
 7191 1815 11       		.sleb128 17
 7192 1816 31       		.byte	0x31
 7193 1817 24       		.byte	0x24
 7194 1818 1C       		.byte	0x1c
 7195 1819 29       		.uleb128 0x29
 7196 181a 01       		.uleb128 0x1
 7197 181b 52       		.byte	0x52
 7198 181c 02       		.uleb128 0x2
 7199 181d 75       		.byte	0x75
 7200 181e 00       		.sleb128 0
 7201 181f 00       		.byte	0
 7202 1820 42       		.uleb128 0x42
 7203 1821 06020000 		.4byte	.LVL286
 7204 1825 94230000 		.4byte	0x2394
 7205 1829 00       		.byte	0
 7206 182a 00       		.byte	0
 7207 182b 2F       		.uleb128 0x2f
 7208 182c 50020000 		.4byte	.LBB105
 7209 1830 9E010000 		.4byte	.LBE105-.LBB105
 7210 1834 D91A0000 		.4byte	0x1ad9
 7211 1838 20       		.uleb128 0x20
 7212 1839 7500     		.ascii	"u\000"
 7213 183b 01       		.byte	0x1
 7214 183c C102     		.2byte	0x2c1
 7215 183e 7B1B0000 		.4byte	0x1b7b
 7216 1842 03       		.uleb128 0x3
 7217 1843 91       		.byte	0x91
 7218 1844 C07A     		.sleb128 -704
 7219 1846 20       		.uleb128 0x20
 7220 1847 7600     		.ascii	"v\000"
 7221 1849 01       		.byte	0x1
 7222 184a C102     		.2byte	0x2c1
 7223 184c 7B1B0000 		.4byte	0x1b7b
 7224 1850 03       		.uleb128 0x3
 7225 1851 91       		.byte	0x91
 7226 1852 C07C     		.sleb128 -448
 7227 1854 3C       		.uleb128 0x3c
ARM GAS  C:\Users\rdn\AppData\Local\Temp\ccIOjLNc.s 			page 155


 7228 1855 A2130000 		.4byte	0x13a2
 7229 1859 50020000 		.4byte	.LBB106
 7230 185d 40010000 		.4byte	.LBE106-.LBB106
 7231 1861 01       		.byte	0x1
 7232 1862 C302     		.2byte	0x2c3
 7233 1864 131A0000 		.4byte	0x1a13
 7234 1868 25       		.uleb128 0x25
 7235 1869 D2130000 		.4byte	0x13d2
 7236 186d D1200000 		.4byte	.LLST155
 7237 1871 25       		.uleb128 0x25
 7238 1872 C7130000 		.4byte	0x13c7
 7239 1876 E9200000 		.4byte	.LLST156
 7240 187a 25       		.uleb128 0x25
 7241 187b BD130000 		.4byte	0x13bd
 7242 187f 0F210000 		.4byte	.LLST157
 7243 1883 25       		.uleb128 0x25
 7244 1884 B3130000 		.4byte	0x13b3
 7245 1888 22210000 		.4byte	.LLST158
 7246 188c 2B       		.uleb128 0x2b
 7247 188d 50020000 		.4byte	.LBB107
 7248 1891 40010000 		.4byte	.LBE107-.LBB107
 7249 1895 3F       		.uleb128 0x3f
 7250 1896 DE130000 		.4byte	0x13de
 7251 189a 03       		.uleb128 0x3
 7252 189b 91       		.byte	0x91
 7253 189c C07C     		.sleb128 -448
 7254 189e 26       		.uleb128 0x26
 7255 189f E8130000 		.4byte	0x13e8
 7256 18a3 35210000 		.4byte	.LLST159
 7257 18a7 26       		.uleb128 0x26
 7258 18a8 F3130000 		.4byte	0x13f3
 7259 18ac 49210000 		.4byte	.LLST160
 7260 18b0 26       		.uleb128 0x26
 7261 18b1 FD130000 		.4byte	0x13fd
 7262 18b5 77210000 		.4byte	.LLST161
 7263 18b9 26       		.uleb128 0x26
 7264 18ba 07140000 		.4byte	0x1407
 7265 18be 96210000 		.4byte	.LLST162
 7266 18c2 26       		.uleb128 0x26
 7267 18c3 12140000 		.4byte	0x1412
 7268 18c7 A9210000 		.4byte	.LLST163
 7269 18cb 26       		.uleb128 0x26
 7270 18cc 1D140000 		.4byte	0x141d
 7271 18d0 BE210000 		.4byte	.LLST164
 7272 18d4 26       		.uleb128 0x26
 7273 18d5 28140000 		.4byte	0x1428
 7274 18d9 D1210000 		.4byte	.LLST165
 7275 18dd 43       		.uleb128 0x43
 7276 18de 54130000 		.4byte	0x1354
 7277 18e2 6C020000 		.4byte	.LBB108
 7278 18e6 70010000 		.4byte	.Ldebug_ranges0+0x170
 7279 18ea 01       		.byte	0x1
 7280 18eb 7602     		.2byte	0x276
 7281 18ed 4E190000 		.4byte	0x194e
 7282 18f1 25       		.uleb128 0x25
 7283 18f2 89130000 		.4byte	0x1389
 7284 18f6 09220000 		.4byte	.LLST166
ARM GAS  C:\Users\rdn\AppData\Local\Temp\ccIOjLNc.s 			page 156


 7285 18fa 25       		.uleb128 0x25
 7286 18fb 7F130000 		.4byte	0x137f
 7287 18ff 29220000 		.4byte	.LLST167
 7288 1903 25       		.uleb128 0x25
 7289 1904 75130000 		.4byte	0x1375
 7290 1908 54220000 		.4byte	.LLST168
 7291 190c 25       		.uleb128 0x25
 7292 190d 6B130000 		.4byte	0x136b
 7293 1911 67220000 		.4byte	.LLST169
 7294 1915 25       		.uleb128 0x25
 7295 1916 61130000 		.4byte	0x1361
 7296 191a 92220000 		.4byte	.LLST170
 7297 191e 21       		.uleb128 0x21
 7298 191f 70010000 		.4byte	.Ldebug_ranges0+0x170
 7299 1923 26       		.uleb128 0x26
 7300 1924 95130000 		.4byte	0x1395
 7301 1928 A5220000 		.4byte	.LLST171
 7302 192c 28       		.uleb128 0x28
 7303 192d 8E020000 		.4byte	.LVL303
 7304 1931 D2080000 		.4byte	0x8d2
 7305 1935 29       		.uleb128 0x29
 7306 1936 01       		.uleb128 0x1
 7307 1937 50       		.byte	0x50
 7308 1938 02       		.uleb128 0x2
 7309 1939 78       		.byte	0x78
 7310 193a 00       		.sleb128 0
 7311 193b 29       		.uleb128 0x29
 7312 193c 01       		.uleb128 0x1
 7313 193d 51       		.byte	0x51
 7314 193e 06       		.uleb128 0x6
 7315 193f 91       		.byte	0x91
 7316 1940 B87A     		.sleb128 -712
 7317 1942 06       		.byte	0x6
 7318 1943 23       		.byte	0x23
 7319 1944 02       		.uleb128 0x2
 7320 1945 29       		.uleb128 0x29
 7321 1946 01       		.uleb128 0x1
 7322 1947 52       		.byte	0x52
 7323 1948 02       		.uleb128 0x2
 7324 1949 77       		.byte	0x77
 7325 194a 00       		.sleb128 0
 7326 194b 00       		.byte	0
 7327 194c 00       		.byte	0
 7328 194d 00       		.byte	0
 7329 194e 3C       		.uleb128 0x3c
 7330 194f 0A130000 		.4byte	0x130a
 7331 1953 98020000 		.4byte	.LBB114
 7332 1957 28000000 		.4byte	.LBE114-.LBB114
 7333 195b 01       		.byte	0x1
 7334 195c 7802     		.2byte	0x278
 7335 195e A0190000 		.4byte	0x19a0
 7336 1962 25       		.uleb128 0x25
 7337 1963 2F130000 		.4byte	0x132f
 7338 1967 B8220000 		.4byte	.LLST172
 7339 196b 25       		.uleb128 0x25
 7340 196c 25130000 		.4byte	0x1325
 7341 1970 D0220000 		.4byte	.LLST173
ARM GAS  C:\Users\rdn\AppData\Local\Temp\ccIOjLNc.s 			page 157


 7342 1974 25       		.uleb128 0x25
 7343 1975 1B130000 		.4byte	0x131b
 7344 1979 E5220000 		.4byte	.LLST174
 7345 197d 2B       		.uleb128 0x2b
 7346 197e 98020000 		.4byte	.LBB115
 7347 1982 28000000 		.4byte	.LBE115-.LBB115
 7348 1986 26       		.uleb128 0x26
 7349 1987 3B130000 		.4byte	0x133b
 7350 198b FB220000 		.4byte	.LLST175
 7351 198f 21       		.uleb128 0x21
 7352 1990 90010000 		.4byte	.Ldebug_ranges0+0x190
 7353 1994 26       		.uleb128 0x26
 7354 1995 48130000 		.4byte	0x1348
 7355 1999 0F230000 		.4byte	.LLST176
 7356 199d 00       		.byte	0
 7357 199e 00       		.byte	0
 7358 199f 00       		.byte	0
 7359 19a0 2F       		.uleb128 0x2f
 7360 19a1 DE020000 		.4byte	.LBB118
 7361 19a5 5E000000 		.4byte	.LBE118-.LBB118
 7362 19a9 FC190000 		.4byte	0x19fc
 7363 19ad 26       		.uleb128 0x26
 7364 19ae 34140000 		.4byte	0x1434
 7365 19b2 2E230000 		.4byte	.LLST177
 7366 19b6 2B       		.uleb128 0x2b
 7367 19b7 DE020000 		.4byte	.LBB119
 7368 19bb 58000000 		.4byte	.LBE119-.LBB119
 7369 19bf 26       		.uleb128 0x26
 7370 19c0 3F140000 		.4byte	0x143f
 7371 19c4 8C230000 		.4byte	.LLST178
 7372 19c8 41       		.uleb128 0x41
 7373 19c9 00030000 		.4byte	.LVL318
 7374 19cd 510A0000 		.4byte	0xa51
 7375 19d1 E4190000 		.4byte	0x19e4
 7376 19d5 29       		.uleb128 0x29
 7377 19d6 01       		.uleb128 0x1
 7378 19d7 50       		.byte	0x50
 7379 19d8 02       		.uleb128 0x2
 7380 19d9 7A       		.byte	0x7a
 7381 19da 00       		.sleb128 0
 7382 19db 29       		.uleb128 0x29
 7383 19dc 01       		.uleb128 0x1
 7384 19dd 51       		.byte	0x51
 7385 19de 04       		.uleb128 0x4
 7386 19df 91       		.byte	0x91
 7387 19e0 B87A     		.sleb128 -712
 7388 19e2 06       		.byte	0x6
 7389 19e3 00       		.byte	0
 7390 19e4 28       		.uleb128 0x28
 7391 19e5 24030000 		.4byte	.LVL321
 7392 19e9 510A0000 		.4byte	0xa51
 7393 19ed 29       		.uleb128 0x29
 7394 19ee 01       		.uleb128 0x1
 7395 19ef 50       		.byte	0x50
 7396 19f0 02       		.uleb128 0x2
 7397 19f1 7A       		.byte	0x7a
 7398 19f2 00       		.sleb128 0
ARM GAS  C:\Users\rdn\AppData\Local\Temp\ccIOjLNc.s 			page 158


 7399 19f3 29       		.uleb128 0x29
 7400 19f4 01       		.uleb128 0x1
 7401 19f5 51       		.byte	0x51
 7402 19f6 02       		.uleb128 0x2
 7403 19f7 7B       		.byte	0x7b
 7404 19f8 00       		.sleb128 0
 7405 19f9 00       		.byte	0
 7406 19fa 00       		.byte	0
 7407 19fb 00       		.byte	0
 7408 19fc 28       		.uleb128 0x28
 7409 19fd D4020000 		.4byte	.LVL314
 7410 1a01 510A0000 		.4byte	0xa51
 7411 1a05 29       		.uleb128 0x29
 7412 1a06 01       		.uleb128 0x1
 7413 1a07 50       		.byte	0x50
 7414 1a08 02       		.uleb128 0x2
 7415 1a09 7A       		.byte	0x7a
 7416 1a0a 00       		.sleb128 0
 7417 1a0b 29       		.uleb128 0x29
 7418 1a0c 01       		.uleb128 0x1
 7419 1a0d 51       		.byte	0x51
 7420 1a0e 01       		.uleb128 0x1
 7421 1a0f 30       		.byte	0x30
 7422 1a10 00       		.byte	0
 7423 1a11 00       		.byte	0
 7424 1a12 00       		.byte	0
 7425 1a13 41       		.uleb128 0x41
 7426 1a14 A0030000 		.4byte	.LVL332
 7427 1a18 5D090000 		.4byte	0x95d
 7428 1a1c 391A0000 		.4byte	0x1a39
 7429 1a20 29       		.uleb128 0x29
 7430 1a21 01       		.uleb128 0x1
 7431 1a22 50       		.byte	0x50
 7432 1a23 02       		.uleb128 0x2
 7433 1a24 78       		.byte	0x78
 7434 1a25 00       		.sleb128 0
 7435 1a26 29       		.uleb128 0x29
 7436 1a27 01       		.uleb128 0x1
 7437 1a28 51       		.byte	0x51
 7438 1a29 02       		.uleb128 0x2
 7439 1a2a 77       		.byte	0x77
 7440 1a2b 00       		.sleb128 0
 7441 1a2c 29       		.uleb128 0x29
 7442 1a2d 01       		.uleb128 0x1
 7443 1a2e 52       		.byte	0x52
 7444 1a2f 01       		.uleb128 0x1
 7445 1a30 30       		.byte	0x30
 7446 1a31 29       		.uleb128 0x29
 7447 1a32 01       		.uleb128 0x1
 7448 1a33 53       		.byte	0x53
 7449 1a34 03       		.uleb128 0x3
 7450 1a35 91       		.byte	0x91
 7451 1a36 C07A     		.sleb128 -704
 7452 1a38 00       		.byte	0
 7453 1a39 41       		.uleb128 0x41
 7454 1a3a B2030000 		.4byte	.LVL333
 7455 1a3e 5D090000 		.4byte	0x95d
ARM GAS  C:\Users\rdn\AppData\Local\Temp\ccIOjLNc.s 			page 159


 7456 1a42 691A0000 		.4byte	0x1a69
 7457 1a46 29       		.uleb128 0x29
 7458 1a47 01       		.uleb128 0x1
 7459 1a48 50       		.byte	0x50
 7460 1a49 09       		.uleb128 0x9
 7461 1a4a 78       		.byte	0x78
 7462 1a4b 00       		.sleb128 0
 7463 1a4c 75       		.byte	0x75
 7464 1a4d 00       		.sleb128 0
 7465 1a4e 32       		.byte	0x32
 7466 1a4f 26       		.byte	0x26
 7467 1a50 31       		.byte	0x31
 7468 1a51 24       		.byte	0x24
 7469 1a52 1C       		.byte	0x1c
 7470 1a53 29       		.uleb128 0x29
 7471 1a54 01       		.uleb128 0x1
 7472 1a55 51       		.byte	0x51
 7473 1a56 02       		.uleb128 0x2
 7474 1a57 77       		.byte	0x77
 7475 1a58 00       		.sleb128 0
 7476 1a59 29       		.uleb128 0x29
 7477 1a5a 01       		.uleb128 0x1
 7478 1a5b 52       		.byte	0x52
 7479 1a5c 04       		.uleb128 0x4
 7480 1a5d 75       		.byte	0x75
 7481 1a5e 00       		.sleb128 0
 7482 1a5f 33       		.byte	0x33
 7483 1a60 1A       		.byte	0x1a
 7484 1a61 29       		.uleb128 0x29
 7485 1a62 01       		.uleb128 0x1
 7486 1a63 53       		.byte	0x53
 7487 1a64 03       		.uleb128 0x3
 7488 1a65 91       		.byte	0x91
 7489 1a66 C07C     		.sleb128 -448
 7490 1a68 00       		.byte	0
 7491 1a69 41       		.uleb128 0x41
 7492 1a6a BC030000 		.4byte	.LVL334
 7493 1a6e D2080000 		.4byte	0x8d2
 7494 1a72 8B1A0000 		.4byte	0x1a8b
 7495 1a76 29       		.uleb128 0x29
 7496 1a77 01       		.uleb128 0x1
 7497 1a78 50       		.byte	0x50
 7498 1a79 03       		.uleb128 0x3
 7499 1a7a 91       		.byte	0x91
 7500 1a7b C07A     		.sleb128 -704
 7501 1a7d 29       		.uleb128 0x29
 7502 1a7e 01       		.uleb128 0x1
 7503 1a7f 51       		.byte	0x51
 7504 1a80 03       		.uleb128 0x3
 7505 1a81 91       		.byte	0x91
 7506 1a82 C07C     		.sleb128 -448
 7507 1a84 29       		.uleb128 0x29
 7508 1a85 01       		.uleb128 0x1
 7509 1a86 52       		.byte	0x52
 7510 1a87 02       		.uleb128 0x2
 7511 1a88 77       		.byte	0x77
 7512 1a89 00       		.sleb128 0
ARM GAS  C:\Users\rdn\AppData\Local\Temp\ccIOjLNc.s 			page 160


 7513 1a8a 00       		.byte	0
 7514 1a8b 41       		.uleb128 0x41
 7515 1a8c CA030000 		.4byte	.LVL335
 7516 1a90 D2080000 		.4byte	0x8d2
 7517 1a94 AD1A0000 		.4byte	0x1aad
 7518 1a98 29       		.uleb128 0x29
 7519 1a99 01       		.uleb128 0x1
 7520 1a9a 50       		.byte	0x50
 7521 1a9b 03       		.uleb128 0x3
 7522 1a9c 91       		.byte	0x91
 7523 1a9d C07A     		.sleb128 -704
 7524 1a9f 29       		.uleb128 0x29
 7525 1aa0 01       		.uleb128 0x1
 7526 1aa1 51       		.byte	0x51
 7527 1aa2 03       		.uleb128 0x3
 7528 1aa3 91       		.byte	0x91
 7529 1aa4 C07A     		.sleb128 -704
 7530 1aa6 29       		.uleb128 0x29
 7531 1aa7 01       		.uleb128 0x1
 7532 1aa8 52       		.byte	0x52
 7533 1aa9 02       		.uleb128 0x2
 7534 1aaa 77       		.byte	0x77
 7535 1aab 00       		.sleb128 0
 7536 1aac 00       		.byte	0
 7537 1aad 41       		.uleb128 0x41
 7538 1aae D8030000 		.4byte	.LVL336
 7539 1ab2 D2080000 		.4byte	0x8d2
 7540 1ab6 CF1A0000 		.4byte	0x1acf
 7541 1aba 29       		.uleb128 0x29
 7542 1abb 01       		.uleb128 0x1
 7543 1abc 50       		.byte	0x50
 7544 1abd 03       		.uleb128 0x3
 7545 1abe 91       		.byte	0x91
 7546 1abf C07C     		.sleb128 -448
 7547 1ac1 29       		.uleb128 0x29
 7548 1ac2 01       		.uleb128 0x1
 7549 1ac3 51       		.byte	0x51
 7550 1ac4 03       		.uleb128 0x3
 7551 1ac5 91       		.byte	0x91
 7552 1ac6 C07C     		.sleb128 -448
 7553 1ac8 29       		.uleb128 0x29
 7554 1ac9 01       		.uleb128 0x1
 7555 1aca 52       		.byte	0x52
 7556 1acb 02       		.uleb128 0x2
 7557 1acc 77       		.byte	0x77
 7558 1acd 00       		.sleb128 0
 7559 1ace 00       		.byte	0
 7560 1acf 42       		.uleb128 0x42
 7561 1ad0 E4030000 		.4byte	.LVL337
 7562 1ad4 94230000 		.4byte	0x2394
 7563 1ad8 00       		.byte	0
 7564 1ad9 2F       		.uleb128 0x2f
 7565 1ada FC030000 		.4byte	.LBB120
 7566 1ade 54000000 		.4byte	.LBE120-.LBB120
 7567 1ae2 071B0000 		.4byte	0x1b07
 7568 1ae6 2E       		.uleb128 0x2e
 7569 1ae7 7E040000 		.4byte	.LASF109
ARM GAS  C:\Users\rdn\AppData\Local\Temp\ccIOjLNc.s 			page 161


 7570 1aeb 01       		.byte	0x1
 7571 1aec CE02     		.2byte	0x2ce
 7572 1aee 97000000 		.4byte	0x97
 7573 1af2 AC230000 		.4byte	.LLST179
 7574 1af6 2E       		.uleb128 0x2e
 7575 1af7 11060000 		.4byte	.LASF110
 7576 1afb 01       		.byte	0x1
 7577 1afc D002     		.2byte	0x2d0
 7578 1afe 25000000 		.4byte	0x25
 7579 1b02 DA230000 		.4byte	.LLST180
 7580 1b06 00       		.byte	0
 7581 1b07 41       		.uleb128 0x41
 7582 1b08 38000000 		.4byte	.LVL236
 7583 1b0c A0230000 		.4byte	0x23a0
 7584 1b10 2C1B0000 		.4byte	0x1b2c
 7585 1b14 29       		.uleb128 0x29
 7586 1b15 01       		.uleb128 0x1
 7587 1b16 50       		.byte	0x50
 7588 1b17 02       		.uleb128 0x2
 7589 1b18 76       		.byte	0x76
 7590 1b19 20       		.sleb128 32
 7591 1b1a 29       		.uleb128 0x29
 7592 1b1b 01       		.uleb128 0x1
 7593 1b1c 51       		.byte	0x51
 7594 1b1d 07       		.uleb128 0x7
 7595 1b1e 76       		.byte	0x76
 7596 1b1f 00       		.sleb128 0
 7597 1b20 79       		.byte	0x79
 7598 1b21 00       		.sleb128 0
 7599 1b22 22       		.byte	0x22
 7600 1b23 23       		.byte	0x23
 7601 1b24 20       		.uleb128 0x20
 7602 1b25 29       		.uleb128 0x29
 7603 1b26 01       		.uleb128 0x1
 7604 1b27 52       		.byte	0x52
 7605 1b28 02       		.uleb128 0x2
 7606 1b29 78       		.byte	0x78
 7607 1b2a 00       		.sleb128 0
 7608 1b2b 00       		.byte	0
 7609 1b2c 44       		.uleb128 0x44
 7610 1b2d 54000000 		.4byte	.LVL238
 7611 1b31 02       		.uleb128 0x2
 7612 1b32 75       		.byte	0x75
 7613 1b33 00       		.sleb128 0
 7614 1b34 511B0000 		.4byte	0x1b51
 7615 1b38 29       		.uleb128 0x29
 7616 1b39 01       		.uleb128 0x1
 7617 1b3a 50       		.byte	0x50
 7618 1b3b 02       		.uleb128 0x2
 7619 1b3c 76       		.byte	0x76
 7620 1b3d 10       		.sleb128 16
 7621 1b3e 29       		.uleb128 0x29
 7622 1b3f 01       		.uleb128 0x1
 7623 1b40 51       		.byte	0x51
 7624 1b41 02       		.uleb128 0x2
 7625 1b42 7A       		.byte	0x7a
 7626 1b43 00       		.sleb128 0
ARM GAS  C:\Users\rdn\AppData\Local\Temp\ccIOjLNc.s 			page 162


 7627 1b44 29       		.uleb128 0x29
 7628 1b45 01       		.uleb128 0x1
 7629 1b46 52       		.byte	0x52
 7630 1b47 02       		.uleb128 0x2
 7631 1b48 74       		.byte	0x74
 7632 1b49 00       		.sleb128 0
 7633 1b4a 29       		.uleb128 0x29
 7634 1b4b 01       		.uleb128 0x1
 7635 1b4c 53       		.byte	0x53
 7636 1b4d 02       		.uleb128 0x2
 7637 1b4e 77       		.byte	0x77
 7638 1b4f 00       		.sleb128 0
 7639 1b50 00       		.byte	0
 7640 1b51 28       		.uleb128 0x28
 7641 1b52 80000000 		.4byte	.LVL241
 7642 1b56 A0230000 		.4byte	0x23a0
 7643 1b5a 29       		.uleb128 0x29
 7644 1b5b 01       		.uleb128 0x1
 7645 1b5c 50       		.byte	0x50
 7646 1b5d 03       		.uleb128 0x3
 7647 1b5e 76       		.byte	0x76
 7648 1b5f A006     		.sleb128 800
 7649 1b61 29       		.uleb128 0x29
 7650 1b62 01       		.uleb128 0x1
 7651 1b63 51       		.byte	0x51
 7652 1b64 08       		.uleb128 0x8
 7653 1b65 76       		.byte	0x76
 7654 1b66 00       		.sleb128 0
 7655 1b67 7A       		.byte	0x7a
 7656 1b68 00       		.sleb128 0
 7657 1b69 22       		.byte	0x22
 7658 1b6a 23       		.byte	0x23
 7659 1b6b A006     		.uleb128 0x320
 7660 1b6d 29       		.uleb128 0x29
 7661 1b6e 01       		.uleb128 0x1
 7662 1b6f 52       		.byte	0x52
 7663 1b70 02       		.uleb128 0x2
 7664 1b71 74       		.byte	0x74
 7665 1b72 00       		.sleb128 0
 7666 1b73 00       		.byte	0
 7667 1b74 00       		.byte	0
 7668 1b75 10       		.uleb128 0x10
 7669 1b76 04       		.byte	0x4
 7670 1b77 AB030000 		.4byte	0x3ab
 7671 1b7b 0D       		.uleb128 0xd
 7672 1b7c A9000000 		.4byte	0xa9
 7673 1b80 8B1B0000 		.4byte	0x1b8b
 7674 1b84 0E       		.uleb128 0xe
 7675 1b85 D6010000 		.4byte	0x1d6
 7676 1b89 7F       		.byte	0x7f
 7677 1b8a 00       		.byte	0
 7678 1b8b 17       		.uleb128 0x17
 7679 1b8c 2B000000 		.4byte	.LASF111
 7680 1b90 02       		.byte	0x2
 7681 1b91 3B       		.byte	0x3b
 7682 1b92 97000000 		.4byte	0x97
 7683 1b96 03       		.byte	0x3
ARM GAS  C:\Users\rdn\AppData\Local\Temp\ccIOjLNc.s 			page 163


 7684 1b97 B01B0000 		.4byte	0x1bb0
 7685 1b9b 18       		.uleb128 0x18
 7686 1b9c 647400   		.ascii	"dt\000"
 7687 1b9f 02       		.byte	0x2
 7688 1ba0 3B       		.byte	0x3b
 7689 1ba1 CA000000 		.4byte	0xca
 7690 1ba5 18       		.uleb128 0x18
 7691 1ba6 737200   		.ascii	"sr\000"
 7692 1ba9 02       		.byte	0x2
 7693 1baa 3B       		.byte	0x3b
 7694 1bab F9000000 		.4byte	0xf9
 7695 1baf 00       		.byte	0
 7696 1bb0 45       		.uleb128 0x45
 7697 1bb1 21020000 		.4byte	.LASF116
 7698 1bb5 01       		.byte	0x1
 7699 1bb6 5703     		.2byte	0x357
 7700 1bb8 00000000 		.4byte	.LFB44
 7701 1bbc DC020000 		.4byte	.LFE44-.LFB44
 7702 1bc0 01       		.uleb128 0x1
 7703 1bc1 9C       		.byte	0x9c
 7704 1bc2 581E0000 		.4byte	0x1e58
 7705 1bc6 1E       		.uleb128 0x1e
 7706 1bc7 647400   		.ascii	"dt\000"
 7707 1bca 01       		.byte	0x1
 7708 1bcb 5703     		.2byte	0x357
 7709 1bcd CA000000 		.4byte	0xca
 7710 1bd1 12240000 		.4byte	.LLST181
 7711 1bd5 1E       		.uleb128 0x1e
 7712 1bd6 737200   		.ascii	"sr\000"
 7713 1bd9 01       		.byte	0x1
 7714 1bda 5703     		.2byte	0x357
 7715 1bdc F9000000 		.4byte	0xf9
 7716 1be0 33240000 		.4byte	.LLST182
 7717 1be4 27       		.uleb128 0x27
 7718 1be5 BB010000 		.4byte	.LASF112
 7719 1be9 01       		.byte	0x1
 7720 1bea 5703     		.2byte	0x357
 7721 1bec 97000000 		.4byte	0x97
 7722 1bf0 54240000 		.4byte	.LLST183
 7723 1bf4 27       		.uleb128 0x27
 7724 1bf5 7B020000 		.4byte	.LASF70
 7725 1bf9 01       		.byte	0x1
 7726 1bfa 5803     		.2byte	0x358
 7727 1bfc 581E0000 		.4byte	0x1e58
 7728 1c00 75240000 		.4byte	.LLST184
 7729 1c04 27       		.uleb128 0x27
 7730 1c05 FC020000 		.4byte	.LASF103
 7731 1c09 01       		.byte	0x1
 7732 1c0a 5803     		.2byte	0x358
 7733 1c0c 5E1E0000 		.4byte	0x1e5e
 7734 1c10 A5240000 		.4byte	.LLST185
 7735 1c14 1E       		.uleb128 0x1e
 7736 1c15 786800   		.ascii	"xh\000"
 7737 1c18 01       		.byte	0x1
 7738 1c19 5903     		.2byte	0x359
 7739 1c1b DB030000 		.4byte	0x3db
 7740 1c1f C5240000 		.4byte	.LLST186
ARM GAS  C:\Users\rdn\AppData\Local\Temp\ccIOjLNc.s 			page 164


 7741 1c23 1E       		.uleb128 0x1e
 7742 1c24 7800     		.ascii	"x\000"
 7743 1c26 01       		.byte	0x1
 7744 1c27 5903     		.2byte	0x359
 7745 1c29 99050000 		.4byte	0x599
 7746 1c2d E5240000 		.4byte	.LLST187
 7747 1c31 22       		.uleb128 0x22
 7748 1c32 6E6800   		.ascii	"nh\000"
 7749 1c35 01       		.byte	0x1
 7750 1c36 5B03     		.2byte	0x35b
 7751 1c38 97000000 		.4byte	0x97
 7752 1c3c 05250000 		.4byte	.LLST188
 7753 1c40 2E       		.uleb128 0x2e
 7754 1c41 38000000 		.4byte	.LASF113
 7755 1c45 01       		.byte	0x1
 7756 1c46 5F03     		.2byte	0x35f
 7757 1c48 97000000 		.4byte	0x97
 7758 1c4c 18250000 		.4byte	.LLST189
 7759 1c50 2E       		.uleb128 0x2e
 7760 1c51 90000000 		.4byte	.LASF36
 7761 1c55 01       		.byte	0x1
 7762 1c56 6003     		.2byte	0x360
 7763 1c58 97000000 		.4byte	0x97
 7764 1c5c 59250000 		.4byte	.LLST190
 7765 1c60 2E       		.uleb128 0x2e
 7766 1c61 9A030000 		.4byte	.LASF114
 7767 1c65 01       		.byte	0x1
 7768 1c66 6703     		.2byte	0x367
 7769 1c68 97000000 		.4byte	0x97
 7770 1c6c 91250000 		.4byte	.LLST191
 7771 1c70 2E       		.uleb128 0x2e
 7772 1c71 19010000 		.4byte	.LASF115
 7773 1c75 01       		.byte	0x1
 7774 1c76 6D03     		.2byte	0x36d
 7775 1c78 97000000 		.4byte	0x97
 7776 1c7c C2250000 		.4byte	.LLST192
 7777 1c80 2E       		.uleb128 0x2e
 7778 1c81 0B010000 		.4byte	.LASF35
 7779 1c85 01       		.byte	0x1
 7780 1c86 6E03     		.2byte	0x36e
 7781 1c88 BF010000 		.4byte	0x1bf
 7782 1c8c D5250000 		.4byte	.LLST193
 7783 1c90 15       		.uleb128 0x15
 7784 1c91 7700     		.ascii	"w\000"
 7785 1c93 01       		.byte	0x1
 7786 1c94 7003     		.2byte	0x370
 7787 1c96 97000000 		.4byte	0x97
 7788 1c9a 20       		.uleb128 0x20
 7789 1c9b 6300     		.ascii	"c\000"
 7790 1c9d 01       		.byte	0x1
 7791 1c9e 7103     		.2byte	0x371
 7792 1ca0 691E0000 		.4byte	0x1e69
 7793 1ca4 03       		.uleb128 0x3
 7794 1ca5 91       		.byte	0x91
 7795 1ca6 D87C     		.sleb128 -424
 7796 1ca8 15       		.uleb128 0x15
 7797 1ca9 6E7300   		.ascii	"ns\000"
ARM GAS  C:\Users\rdn\AppData\Local\Temp\ccIOjLNc.s 			page 165


 7798 1cac 01       		.byte	0x1
 7799 1cad 7B03     		.2byte	0x37b
 7800 1caf 97000000 		.4byte	0x97
 7801 1cb3 22       		.uleb128 0x22
 7802 1cb4 6E7400   		.ascii	"nt\000"
 7803 1cb7 01       		.byte	0x1
 7804 1cb8 7C03     		.2byte	0x37c
 7805 1cba 97000000 		.4byte	0x97
 7806 1cbe F7250000 		.4byte	.LLST194
 7807 1cc2 20       		.uleb128 0x20
 7808 1cc3 783000   		.ascii	"x0\000"
 7809 1cc6 01       		.byte	0x1
 7810 1cc7 7D03     		.2byte	0x37d
 7811 1cc9 791E0000 		.4byte	0x1e79
 7812 1ccd 03       		.uleb128 0x3
 7813 1cce 91       		.byte	0x91
 7814 1ccf 987E     		.sleb128 -232
 7815 1cd1 43       		.uleb128 0x43
 7816 1cd2 08050000 		.4byte	0x508
 7817 1cd6 06000000 		.4byte	.LBB129
 7818 1cda A8010000 		.4byte	.Ldebug_ranges0+0x1a8
 7819 1cde 01       		.byte	0x1
 7820 1cdf 5B03     		.2byte	0x35b
 7821 1ce1 F81C0000 		.4byte	0x1cf8
 7822 1ce5 25       		.uleb128 0x25
 7823 1ce6 22050000 		.4byte	0x522
 7824 1cea 0A260000 		.4byte	.LLST195
 7825 1cee 25       		.uleb128 0x25
 7826 1cef 18050000 		.4byte	0x518
 7827 1cf3 2B260000 		.4byte	.LLST196
 7828 1cf7 00       		.byte	0
 7829 1cf8 43       		.uleb128 0x43
 7830 1cf9 8B1B0000 		.4byte	0x1b8b
 7831 1cfd 16000000 		.4byte	.LBB136
 7832 1d01 D0010000 		.4byte	.Ldebug_ranges0+0x1d0
 7833 1d05 01       		.byte	0x1
 7834 1d06 5B03     		.2byte	0x35b
 7835 1d08 1F1D0000 		.4byte	0x1d1f
 7836 1d0c 25       		.uleb128 0x25
 7837 1d0d A51B0000 		.4byte	0x1ba5
 7838 1d11 3E260000 		.4byte	.LLST197
 7839 1d15 25       		.uleb128 0x25
 7840 1d16 9B1B0000 		.4byte	0x1b9b
 7841 1d1a 51260000 		.4byte	.LLST198
 7842 1d1e 00       		.byte	0
 7843 1d1f 23       		.uleb128 0x23
 7844 1d20 E8010000 		.4byte	.Ldebug_ranges0+0x1e8
 7845 1d24 4B1D0000 		.4byte	0x1d4b
 7846 1d28 22       		.uleb128 0x22
 7847 1d29 6900     		.ascii	"i\000"
 7848 1d2b 01       		.byte	0x1
 7849 1d2c 7303     		.2byte	0x373
 7850 1d2e 97000000 		.4byte	0x97
 7851 1d32 64260000 		.4byte	.LLST199
 7852 1d36 21       		.uleb128 0x21
 7853 1d37 00020000 		.4byte	.Ldebug_ranges0+0x200
 7854 1d3b 22       		.uleb128 0x22
ARM GAS  C:\Users\rdn\AppData\Local\Temp\ccIOjLNc.s 			page 166


 7855 1d3c 6700     		.ascii	"g\000"
 7856 1d3e 01       		.byte	0x1
 7857 1d3f 7403     		.2byte	0x374
 7858 1d41 25000000 		.4byte	0x25
 7859 1d45 78260000 		.4byte	.LLST200
 7860 1d49 00       		.byte	0
 7861 1d4a 00       		.byte	0
 7862 1d4b 41       		.uleb128 0x41
 7863 1d4c 82010000 		.4byte	.LVL378
 7864 1d50 AB230000 		.4byte	0x23ab
 7865 1d54 701D0000 		.4byte	0x1d70
 7866 1d58 29       		.uleb128 0x29
 7867 1d59 01       		.uleb128 0x1
 7868 1d5a 50       		.byte	0x50
 7869 1d5b 03       		.uleb128 0x3
 7870 1d5c 91       		.byte	0x91
 7871 1d5d 987E     		.sleb128 -232
 7872 1d5f 29       		.uleb128 0x29
 7873 1d60 01       		.uleb128 0x1
 7874 1d61 51       		.byte	0x51
 7875 1d62 04       		.uleb128 0x4
 7876 1d63 91       		.byte	0x91
 7877 1d64 D47C     		.sleb128 -428
 7878 1d66 06       		.byte	0x6
 7879 1d67 29       		.uleb128 0x29
 7880 1d68 01       		.uleb128 0x1
 7881 1d69 52       		.byte	0x52
 7882 1d6a 04       		.uleb128 0x4
 7883 1d6b 91       		.byte	0x91
 7884 1d6c CC7C     		.sleb128 -436
 7885 1d6e 06       		.byte	0x6
 7886 1d6f 00       		.byte	0
 7887 1d70 41       		.uleb128 0x41
 7888 1d71 98010000 		.4byte	.LVL379
 7889 1d75 AB230000 		.4byte	0x23ab
 7890 1d79 A01D0000 		.4byte	0x1da0
 7891 1d7d 29       		.uleb128 0x29
 7892 1d7e 01       		.uleb128 0x1
 7893 1d7f 50       		.byte	0x50
 7894 1d80 04       		.uleb128 0x4
 7895 1d81 91       		.byte	0x91
 7896 1d82 D47C     		.sleb128 -428
 7897 1d84 06       		.byte	0x6
 7898 1d85 29       		.uleb128 0x29
 7899 1d86 01       		.uleb128 0x1
 7900 1d87 51       		.byte	0x51
 7901 1d88 0E       		.uleb128 0xe
 7902 1d89 91       		.byte	0x91
 7903 1d8a C07C     		.sleb128 -448
 7904 1d8c 06       		.byte	0x6
 7905 1d8d 7A       		.byte	0x7a
 7906 1d8e 00       		.sleb128 0
 7907 1d8f 1C       		.byte	0x1c
 7908 1d90 23       		.byte	0x23
 7909 1d91 01       		.uleb128 0x1
 7910 1d92 32       		.byte	0x32
 7911 1d93 24       		.byte	0x24
ARM GAS  C:\Users\rdn\AppData\Local\Temp\ccIOjLNc.s 			page 167


 7912 1d94 77       		.byte	0x77
 7913 1d95 00       		.sleb128 0
 7914 1d96 22       		.byte	0x22
 7915 1d97 29       		.uleb128 0x29
 7916 1d98 01       		.uleb128 0x1
 7917 1d99 52       		.byte	0x52
 7918 1d9a 04       		.uleb128 0x4
 7919 1d9b 91       		.byte	0x91
 7920 1d9c CC7C     		.sleb128 -436
 7921 1d9e 06       		.byte	0x6
 7922 1d9f 00       		.byte	0
 7923 1da0 41       		.uleb128 0x41
 7924 1da1 AC010000 		.4byte	.LVL380
 7925 1da5 AB230000 		.4byte	0x23ab
 7926 1da9 CD1D0000 		.4byte	0x1dcd
 7927 1dad 29       		.uleb128 0x29
 7928 1dae 01       		.uleb128 0x1
 7929 1daf 50       		.byte	0x50
 7930 1db0 03       		.uleb128 0x3
 7931 1db1 91       		.byte	0x91
 7932 1db2 F87E     		.sleb128 -136
 7933 1db4 29       		.uleb128 0x29
 7934 1db5 01       		.uleb128 0x1
 7935 1db6 51       		.byte	0x51
 7936 1db7 0C       		.uleb128 0xc
 7937 1db8 75       		.byte	0x75
 7938 1db9 00       		.sleb128 0
 7939 1dba 7A       		.byte	0x7a
 7940 1dbb 00       		.sleb128 0
 7941 1dbc 1C       		.byte	0x1c
 7942 1dbd 23       		.byte	0x23
 7943 1dbe 01       		.uleb128 0x1
 7944 1dbf 32       		.byte	0x32
 7945 1dc0 24       		.byte	0x24
 7946 1dc1 77       		.byte	0x77
 7947 1dc2 00       		.sleb128 0
 7948 1dc3 22       		.byte	0x22
 7949 1dc4 29       		.uleb128 0x29
 7950 1dc5 01       		.uleb128 0x1
 7951 1dc6 52       		.byte	0x52
 7952 1dc7 04       		.uleb128 0x4
 7953 1dc8 91       		.byte	0x91
 7954 1dc9 CC7C     		.sleb128 -436
 7955 1dcb 06       		.byte	0x6
 7956 1dcc 00       		.byte	0
 7957 1dcd 44       		.uleb128 0x44
 7958 1dce 32020000 		.4byte	.LVL381
 7959 1dd2 02       		.uleb128 0x2
 7960 1dd3 74       		.byte	0x74
 7961 1dd4 00       		.sleb128 0
 7962 1dd5 0A1E0000 		.4byte	0x1e0a
 7963 1dd9 29       		.uleb128 0x29
 7964 1dda 01       		.uleb128 0x1
 7965 1ddb 50       		.byte	0x50
 7966 1ddc 03       		.uleb128 0x3
 7967 1ddd 91       		.byte	0x91
 7968 1dde 04       		.sleb128 4
ARM GAS  C:\Users\rdn\AppData\Local\Temp\ccIOjLNc.s 			page 168


 7969 1ddf 06       		.byte	0x6
 7970 1de0 29       		.uleb128 0x29
 7971 1de1 01       		.uleb128 0x1
 7972 1de2 51       		.byte	0x51
 7973 1de3 02       		.uleb128 0x2
 7974 1de4 76       		.byte	0x76
 7975 1de5 00       		.sleb128 0
 7976 1de6 29       		.uleb128 0x29
 7977 1de7 01       		.uleb128 0x1
 7978 1de8 53       		.byte	0x53
 7979 1de9 03       		.uleb128 0x3
 7980 1dea 91       		.byte	0x91
 7981 1deb 987E     		.sleb128 -232
 7982 1ded 29       		.uleb128 0x29
 7983 1dee 02       		.uleb128 0x2
 7984 1def 7D       		.byte	0x7d
 7985 1df0 00       		.sleb128 0
 7986 1df1 02       		.uleb128 0x2
 7987 1df2 77       		.byte	0x77
 7988 1df3 00       		.sleb128 0
 7989 1df4 29       		.uleb128 0x29
 7990 1df5 02       		.uleb128 0x2
 7991 1df6 7D       		.byte	0x7d
 7992 1df7 04       		.sleb128 4
 7993 1df8 02       		.uleb128 0x2
 7994 1df9 75       		.byte	0x75
 7995 1dfa 00       		.sleb128 0
 7996 1dfb 29       		.uleb128 0x29
 7997 1dfc 02       		.uleb128 0x2
 7998 1dfd 7D       		.byte	0x7d
 7999 1dfe 08       		.sleb128 8
 8000 1dff 02       		.uleb128 0x2
 8001 1e00 79       		.byte	0x79
 8002 1e01 08       		.sleb128 8
 8003 1e02 29       		.uleb128 0x29
 8004 1e03 02       		.uleb128 0x2
 8005 1e04 7D       		.byte	0x7d
 8006 1e05 0C       		.sleb128 12
 8007 1e06 02       		.uleb128 0x2
 8008 1e07 09       		.byte	0x9
 8009 1e08 FF       		.byte	0xff
 8010 1e09 00       		.byte	0
 8011 1e0a 46       		.uleb128 0x46
 8012 1e0b 60020000 		.4byte	.LVL382
 8013 1e0f 211E0000 		.4byte	0x1e21
 8014 1e13 29       		.uleb128 0x29
 8015 1e14 01       		.uleb128 0x1
 8016 1e15 50       		.byte	0x50
 8017 1e16 03       		.uleb128 0x3
 8018 1e17 91       		.byte	0x91
 8019 1e18 04       		.sleb128 4
 8020 1e19 06       		.byte	0x6
 8021 1e1a 29       		.uleb128 0x29
 8022 1e1b 01       		.uleb128 0x1
 8023 1e1c 51       		.byte	0x51
 8024 1e1d 02       		.uleb128 0x2
 8025 1e1e 76       		.byte	0x76
ARM GAS  C:\Users\rdn\AppData\Local\Temp\ccIOjLNc.s 			page 169


 8026 1e1f 00       		.sleb128 0
 8027 1e20 00       		.byte	0
 8028 1e21 46       		.uleb128 0x46
 8029 1e22 94020000 		.4byte	.LVL385
 8030 1e26 381E0000 		.4byte	0x1e38
 8031 1e2a 29       		.uleb128 0x29
 8032 1e2b 01       		.uleb128 0x1
 8033 1e2c 50       		.byte	0x50
 8034 1e2d 03       		.uleb128 0x3
 8035 1e2e 91       		.byte	0x91
 8036 1e2f 04       		.sleb128 4
 8037 1e30 06       		.byte	0x6
 8038 1e31 29       		.uleb128 0x29
 8039 1e32 01       		.uleb128 0x1
 8040 1e33 51       		.byte	0x51
 8041 1e34 02       		.uleb128 0x2
 8042 1e35 76       		.byte	0x76
 8043 1e36 00       		.sleb128 0
 8044 1e37 00       		.byte	0
 8045 1e38 28       		.uleb128 0x28
 8046 1e39 B0020000 		.4byte	.LVL386
 8047 1e3d AB230000 		.4byte	0x23ab
 8048 1e41 29       		.uleb128 0x29
 8049 1e42 01       		.uleb128 0x1
 8050 1e43 50       		.byte	0x50
 8051 1e44 02       		.uleb128 0x2
 8052 1e45 79       		.byte	0x79
 8053 1e46 08       		.sleb128 8
 8054 1e47 29       		.uleb128 0x29
 8055 1e48 01       		.uleb128 0x1
 8056 1e49 51       		.byte	0x51
 8057 1e4a 03       		.uleb128 0x3
 8058 1e4b 91       		.byte	0x91
 8059 1e4c D87C     		.sleb128 -424
 8060 1e4e 29       		.uleb128 0x29
 8061 1e4f 01       		.uleb128 0x1
 8062 1e50 52       		.byte	0x52
 8063 1e51 04       		.uleb128 0x4
 8064 1e52 7A       		.byte	0x7a
 8065 1e53 00       		.sleb128 0
 8066 1e54 33       		.byte	0x33
 8067 1e55 24       		.byte	0x24
 8068 1e56 00       		.byte	0
 8069 1e57 00       		.byte	0
 8070 1e58 10       		.uleb128 0x10
 8071 1e59 04       		.byte	0x4
 8072 1e5a 57020000 		.4byte	0x257
 8073 1e5e 10       		.uleb128 0x10
 8074 1e5f 04       		.byte	0x4
 8075 1e60 641E0000 		.4byte	0x1e64
 8076 1e64 11       		.uleb128 0x11
 8077 1e65 D0030000 		.4byte	0x3d0
 8078 1e69 0D       		.uleb128 0xd
 8079 1e6a 25000000 		.4byte	0x25
 8080 1e6e 791E0000 		.4byte	0x1e79
 8081 1e72 0E       		.uleb128 0xe
 8082 1e73 D6010000 		.4byte	0x1d6
ARM GAS  C:\Users\rdn\AppData\Local\Temp\ccIOjLNc.s 			page 170


 8083 1e77 2F       		.byte	0x2f
 8084 1e78 00       		.byte	0
 8085 1e79 0D       		.uleb128 0xd
 8086 1e7a 25000000 		.4byte	0x25
 8087 1e7e 8F1E0000 		.4byte	0x1e8f
 8088 1e82 0E       		.uleb128 0xe
 8089 1e83 D6010000 		.4byte	0x1d6
 8090 1e87 01       		.byte	0x1
 8091 1e88 0E       		.uleb128 0xe
 8092 1e89 D6010000 		.4byte	0x1d6
 8093 1e8d 17       		.byte	0x17
 8094 1e8e 00       		.byte	0
 8095 1e8f 45       		.uleb128 0x45
 8096 1e90 C2010000 		.4byte	.LASF117
 8097 1e94 01       		.byte	0x1
 8098 1e95 A503     		.2byte	0x3a5
 8099 1e97 00000000 		.4byte	.LFB45
 8100 1e9b 06000000 		.4byte	.LFE45-.LFB45
 8101 1e9f 01       		.uleb128 0x1
 8102 1ea0 9C       		.byte	0x9c
 8103 1ea1 B41E0000 		.4byte	0x1eb4
 8104 1ea5 1F       		.uleb128 0x1f
 8105 1ea6 FC020000 		.4byte	.LASF103
 8106 1eaa 01       		.byte	0x1
 8107 1eab A503     		.2byte	0x3a5
 8108 1ead 751B0000 		.4byte	0x1b75
 8109 1eb1 01       		.uleb128 0x1
 8110 1eb2 50       		.byte	0x50
 8111 1eb3 00       		.byte	0
 8112 1eb4 39       		.uleb128 0x39
 8113 1eb5 0A070000 		.4byte	.LASF119
 8114 1eb9 01       		.byte	0x1
 8115 1eba AD03     		.2byte	0x3ad
 8116 1ebc 97000000 		.4byte	0x97
 8117 1ec0 00000000 		.4byte	.LFB46
 8118 1ec4 08000000 		.4byte	.LFE46-.LFB46
 8119 1ec8 01       		.uleb128 0x1
 8120 1ec9 9C       		.byte	0x9c
 8121 1eca DF1E0000 		.4byte	0x1edf
 8122 1ece 27       		.uleb128 0x27
 8123 1ecf 90000000 		.4byte	.LASF36
 8124 1ed3 01       		.byte	0x1
 8125 1ed4 AD03     		.2byte	0x3ad
 8126 1ed6 BF010000 		.4byte	0x1bf
 8127 1eda 8C260000 		.4byte	.LLST201
 8128 1ede 00       		.byte	0
 8129 1edf 47       		.uleb128 0x47
 8130 1ee0 35020000 		.4byte	.LASF120
 8131 1ee4 03       		.byte	0x3
 8132 1ee5 DA       		.byte	0xda
 8133 1ee6 03       		.byte	0x3
 8134 1ee7 141F0000 		.4byte	0x1f14
 8135 1eeb 1A       		.uleb128 0x1a
 8136 1eec 4C030000 		.4byte	.LASF121
 8137 1ef0 03       		.byte	0x3
 8138 1ef1 DB       		.byte	0xdb
 8139 1ef2 141F0000 		.4byte	0x1f14
ARM GAS  C:\Users\rdn\AppData\Local\Temp\ccIOjLNc.s 			page 171


 8140 1ef6 18       		.uleb128 0x18
 8141 1ef7 7600     		.ascii	"v\000"
 8142 1ef9 03       		.byte	0x3
 8143 1efa DB       		.byte	0xdb
 8144 1efb 33000000 		.4byte	0x33
 8145 1eff 18       		.uleb128 0x18
 8146 1f00 6E00     		.ascii	"n\000"
 8147 1f02 03       		.byte	0x3
 8148 1f03 DB       		.byte	0xdb
 8149 1f04 97000000 		.4byte	0x97
 8150 1f08 48       		.uleb128 0x48
 8151 1f09 D1020000 		.4byte	.LASF64
 8152 1f0d 03       		.byte	0x3
 8153 1f0e DD       		.byte	0xdd
 8154 1f0f 1A1F0000 		.4byte	0x1f1a
 8155 1f13 00       		.byte	0
 8156 1f14 10       		.uleb128 0x10
 8157 1f15 04       		.byte	0x4
 8158 1f16 64030000 		.4byte	0x364
 8159 1f1a 10       		.uleb128 0x10
 8160 1f1b 04       		.byte	0x4
 8161 1f1c 94020000 		.4byte	0x294
 8162 1f20 47       		.uleb128 0x47
 8163 1f21 A5040000 		.4byte	.LASF122
 8164 1f25 03       		.byte	0x3
 8165 1f26 D2       		.byte	0xd2
 8166 1f27 03       		.byte	0x3
 8167 1f28 411F0000 		.4byte	0x1f41
 8168 1f2c 1A       		.uleb128 0x1a
 8169 1f2d 4C030000 		.4byte	.LASF121
 8170 1f31 03       		.byte	0x3
 8171 1f32 D2       		.byte	0xd2
 8172 1f33 411F0000 		.4byte	0x1f41
 8173 1f37 18       		.uleb128 0x18
 8174 1f38 7600     		.ascii	"v\000"
 8175 1f3a 03       		.byte	0x3
 8176 1f3b D2       		.byte	0xd2
 8177 1f3c 97000000 		.4byte	0x97
 8178 1f40 00       		.byte	0
 8179 1f41 10       		.uleb128 0x10
 8180 1f42 04       		.byte	0x4
 8181 1f43 A0030000 		.4byte	0x3a0
 8182 1f47 45       		.uleb128 0x45
 8183 1f48 88030000 		.4byte	.LASF123
 8184 1f4c 01       		.byte	0x1
 8185 1f4d B503     		.2byte	0x3b5
 8186 1f4f 00000000 		.4byte	.LFB47
 8187 1f53 46000000 		.4byte	.LFE47-.LFB47
 8188 1f57 01       		.uleb128 0x1
 8189 1f58 9C       		.byte	0x9c
 8190 1f59 3C200000 		.4byte	0x203c
 8191 1f5d 27       		.uleb128 0x27
 8192 1f5e 4C030000 		.4byte	.LASF121
 8193 1f62 01       		.byte	0x1
 8194 1f63 B503     		.2byte	0x3b5
 8195 1f65 411F0000 		.4byte	0x1f41
 8196 1f69 AD260000 		.4byte	.LLST202
ARM GAS  C:\Users\rdn\AppData\Local\Temp\ccIOjLNc.s 			page 172


 8197 1f6d 27       		.uleb128 0x27
 8198 1f6e FC020000 		.4byte	.LASF103
 8199 1f72 01       		.byte	0x1
 8200 1f73 B603     		.2byte	0x3b6
 8201 1f75 3C200000 		.4byte	0x203c
 8202 1f79 E4260000 		.4byte	.LLST203
 8203 1f7d 43       		.uleb128 0x43
 8204 1f7e 201F0000 		.4byte	0x1f20
 8205 1f82 00000000 		.4byte	.LBB152
 8206 1f86 20020000 		.4byte	.Ldebug_ranges0+0x220
 8207 1f8a 01       		.byte	0x1
 8208 1f8b B803     		.2byte	0x3b8
 8209 1f8d ED1F0000 		.4byte	0x1fed
 8210 1f91 25       		.uleb128 0x25
 8211 1f92 371F0000 		.4byte	0x1f37
 8212 1f96 10270000 		.4byte	.LLST204
 8213 1f9a 25       		.uleb128 0x25
 8214 1f9b 2C1F0000 		.4byte	0x1f2c
 8215 1f9f 4E270000 		.4byte	.LLST205
 8216 1fa3 36       		.uleb128 0x36
 8217 1fa4 DF1E0000 		.4byte	0x1edf
 8218 1fa8 00000000 		.4byte	.LBB154
 8219 1fac 40020000 		.4byte	.Ldebug_ranges0+0x240
 8220 1fb0 03       		.byte	0x3
 8221 1fb1 D4       		.byte	0xd4
 8222 1fb2 25       		.uleb128 0x25
 8223 1fb3 FF1E0000 		.4byte	0x1eff
 8224 1fb7 6C270000 		.4byte	.LLST206
 8225 1fbb 25       		.uleb128 0x25
 8226 1fbc F61E0000 		.4byte	0x1ef6
 8227 1fc0 80270000 		.4byte	.LLST207
 8228 1fc4 25       		.uleb128 0x25
 8229 1fc5 EB1E0000 		.4byte	0x1eeb
 8230 1fc9 B0270000 		.4byte	.LLST208
 8231 1fcd 21       		.uleb128 0x21
 8232 1fce 40020000 		.4byte	.Ldebug_ranges0+0x240
 8233 1fd2 26       		.uleb128 0x26
 8234 1fd3 081F0000 		.4byte	0x1f08
 8235 1fd7 CE270000 		.4byte	.LLST209
 8236 1fdb 28       		.uleb128 0x28
 8237 1fdc 22000000 		.4byte	.LVL396
 8238 1fe0 B4230000 		.4byte	0x23b4
 8239 1fe4 29       		.uleb128 0x29
 8240 1fe5 01       		.uleb128 0x1
 8241 1fe6 52       		.byte	0x52
 8242 1fe7 01       		.uleb128 0x1
 8243 1fe8 31       		.byte	0x31
 8244 1fe9 00       		.byte	0
 8245 1fea 00       		.byte	0
 8246 1feb 00       		.byte	0
 8247 1fec 00       		.byte	0
 8248 1fed 24       		.uleb128 0x24
 8249 1fee DF1E0000 		.4byte	0x1edf
 8250 1ff2 22000000 		.4byte	.LBB164
 8251 1ff6 60020000 		.4byte	.Ldebug_ranges0+0x260
 8252 1ffa 01       		.byte	0x1
 8253 1ffb B903     		.2byte	0x3b9
ARM GAS  C:\Users\rdn\AppData\Local\Temp\ccIOjLNc.s 			page 173


 8254 1ffd 49       		.uleb128 0x49
 8255 1ffe FF1E0000 		.4byte	0x1eff
 8256 2002 09       		.byte	0x9
 8257 2003 25       		.uleb128 0x25
 8258 2004 F61E0000 		.4byte	0x1ef6
 8259 2008 0D280000 		.4byte	.LLST210
 8260 200c 25       		.uleb128 0x25
 8261 200d EB1E0000 		.4byte	0x1eeb
 8262 2011 37280000 		.4byte	.LLST211
 8263 2015 21       		.uleb128 0x21
 8264 2016 60020000 		.4byte	.Ldebug_ranges0+0x260
 8265 201a 26       		.uleb128 0x26
 8266 201b 081F0000 		.4byte	0x1f08
 8267 201f 63280000 		.4byte	.LLST212
 8268 2023 4A       		.uleb128 0x4a
 8269 2024 46000000 		.4byte	.LVL401
 8270 2028 B4230000 		.4byte	0x23b4
 8271 202c 29       		.uleb128 0x29
 8272 202d 01       		.uleb128 0x1
 8273 202e 50       		.byte	0x50
 8274 202f 03       		.uleb128 0x3
 8275 2030 F3       		.byte	0xf3
 8276 2031 01       		.uleb128 0x1
 8277 2032 50       		.byte	0x50
 8278 2033 29       		.uleb128 0x29
 8279 2034 01       		.uleb128 0x1
 8280 2035 52       		.byte	0x52
 8281 2036 01       		.uleb128 0x1
 8282 2037 39       		.byte	0x39
 8283 2038 00       		.byte	0
 8284 2039 00       		.byte	0
 8285 203a 00       		.byte	0
 8286 203b 00       		.byte	0
 8287 203c 10       		.uleb128 0x10
 8288 203d 04       		.byte	0x4
 8289 203e 42200000 		.4byte	0x2042
 8290 2042 11       		.uleb128 0x11
 8291 2043 AB030000 		.4byte	0x3ab
 8292 2047 17       		.uleb128 0x17
 8293 2048 96000000 		.4byte	.LASF124
 8294 204c 03       		.byte	0x3
 8295 204d F2       		.byte	0xf2
 8296 204e 33000000 		.4byte	0x33
 8297 2052 03       		.byte	0x3
 8298 2053 82200000 		.4byte	0x2082
 8299 2057 1A       		.uleb128 0x1a
 8300 2058 4C030000 		.4byte	.LASF121
 8301 205c 03       		.byte	0x3
 8302 205d F2       		.byte	0xf2
 8303 205e 141F0000 		.4byte	0x1f14
 8304 2062 18       		.uleb128 0x18
 8305 2063 6E00     		.ascii	"n\000"
 8306 2065 03       		.byte	0x3
 8307 2066 F2       		.byte	0xf2
 8308 2067 97000000 		.4byte	0x97
 8309 206b 48       		.uleb128 0x48
 8310 206c D1020000 		.4byte	.LASF64
ARM GAS  C:\Users\rdn\AppData\Local\Temp\ccIOjLNc.s 			page 174


 8311 2070 03       		.byte	0x3
 8312 2071 F4       		.byte	0xf4
 8313 2072 1A1F0000 		.4byte	0x1f1a
 8314 2076 19       		.uleb128 0x19
 8315 2077 1B       		.uleb128 0x1b
 8316 2078 7600     		.ascii	"v\000"
 8317 207a 03       		.byte	0x3
 8318 207b F7       		.byte	0xf7
 8319 207c 97000000 		.4byte	0x97
 8320 2080 00       		.byte	0
 8321 2081 00       		.byte	0
 8322 2082 17       		.uleb128 0x17
 8323 2083 1F000000 		.4byte	.LASF125
 8324 2087 03       		.byte	0x3
 8325 2088 EA       		.byte	0xea
 8326 2089 97000000 		.4byte	0x97
 8327 208d 03       		.byte	0x3
 8328 208e 9E200000 		.4byte	0x209e
 8329 2092 1A       		.uleb128 0x1a
 8330 2093 4C030000 		.4byte	.LASF121
 8331 2097 03       		.byte	0x3
 8332 2098 EA       		.byte	0xea
 8333 2099 411F0000 		.4byte	0x1f41
 8334 209d 00       		.byte	0
 8335 209e 45       		.uleb128 0x45
 8336 209f 5D020000 		.4byte	.LASF126
 8337 20a3 01       		.byte	0x1
 8338 20a4 BF03     		.2byte	0x3bf
 8339 20a6 00000000 		.4byte	.LFB48
 8340 20aa 4C000000 		.4byte	.LFE48-.LFB48
 8341 20ae 01       		.uleb128 0x1
 8342 20af 9C       		.byte	0x9c
 8343 20b0 AC210000 		.4byte	0x21ac
 8344 20b4 27       		.uleb128 0x27
 8345 20b5 4C030000 		.4byte	.LASF121
 8346 20b9 01       		.byte	0x1
 8347 20ba BF03     		.2byte	0x3bf
 8348 20bc 411F0000 		.4byte	0x1f41
 8349 20c0 95280000 		.4byte	.LLST213
 8350 20c4 27       		.uleb128 0x27
 8351 20c5 FC020000 		.4byte	.LASF103
 8352 20c9 01       		.byte	0x1
 8353 20ca C003     		.2byte	0x3c0
 8354 20cc 751B0000 		.4byte	0x1b75
 8355 20d0 C9280000 		.4byte	.LLST214
 8356 20d4 43       		.uleb128 0x43
 8357 20d5 82200000 		.4byte	0x2082
 8358 20d9 00000000 		.4byte	.LBB178
 8359 20dd 80020000 		.4byte	.Ldebug_ranges0+0x280
 8360 20e1 01       		.byte	0x1
 8361 20e2 C203     		.2byte	0x3c2
 8362 20e4 49210000 		.4byte	0x2149
 8363 20e8 25       		.uleb128 0x25
 8364 20e9 92200000 		.4byte	0x2092
 8365 20ed E7280000 		.4byte	.LLST215
 8366 20f1 36       		.uleb128 0x36
 8367 20f2 47200000 		.4byte	0x2047
ARM GAS  C:\Users\rdn\AppData\Local\Temp\ccIOjLNc.s 			page 175


 8368 20f6 00000000 		.4byte	.LBB179
 8369 20fa 80020000 		.4byte	.Ldebug_ranges0+0x280
 8370 20fe 03       		.byte	0x3
 8371 20ff EC       		.byte	0xec
 8372 2100 25       		.uleb128 0x25
 8373 2101 62200000 		.4byte	0x2062
 8374 2105 1B290000 		.4byte	.LLST216
 8375 2109 25       		.uleb128 0x25
 8376 210a 57200000 		.4byte	0x2057
 8377 210e E7280000 		.4byte	.LLST215
 8378 2112 21       		.uleb128 0x21
 8379 2113 80020000 		.4byte	.Ldebug_ranges0+0x280
 8380 2117 26       		.uleb128 0x26
 8381 2118 6B200000 		.4byte	0x206b
 8382 211c 2F290000 		.4byte	.LLST218
 8383 2120 2F       		.uleb128 0x2f
 8384 2121 0E000000 		.4byte	.LBB181
 8385 2125 0C000000 		.4byte	.LBE181-.LBB181
 8386 2129 37210000 		.4byte	0x2137
 8387 212d 26       		.uleb128 0x26
 8388 212e 77200000 		.4byte	0x2077
 8389 2132 6B290000 		.4byte	.LLST219
 8390 2136 00       		.byte	0
 8391 2137 28       		.uleb128 0x28
 8392 2138 20000000 		.4byte	.LVL407
 8393 213c BF230000 		.4byte	0x23bf
 8394 2140 29       		.uleb128 0x29
 8395 2141 01       		.uleb128 0x1
 8396 2142 51       		.byte	0x51
 8397 2143 01       		.uleb128 0x1
 8398 2144 31       		.byte	0x31
 8399 2145 00       		.byte	0
 8400 2146 00       		.byte	0
 8401 2147 00       		.byte	0
 8402 2148 00       		.byte	0
 8403 2149 4B       		.uleb128 0x4b
 8404 214a 47200000 		.4byte	0x2047
 8405 214e 28000000 		.4byte	.LBB188
 8406 2152 20000000 		.4byte	.LBE188-.LBB188
 8407 2156 01       		.byte	0x1
 8408 2157 C303     		.2byte	0x3c3
 8409 2159 25       		.uleb128 0x25
 8410 215a 62200000 		.4byte	0x2062
 8411 215e 7E290000 		.4byte	.LLST220
 8412 2162 25       		.uleb128 0x25
 8413 2163 57200000 		.4byte	0x2057
 8414 2167 92290000 		.4byte	.LLST221
 8415 216b 2B       		.uleb128 0x2b
 8416 216c 28000000 		.4byte	.LBB189
 8417 2170 20000000 		.4byte	.LBE189-.LBB189
 8418 2174 3F       		.uleb128 0x3f
 8419 2175 6B200000 		.4byte	0x206b
 8420 2179 03       		.uleb128 0x3
 8421 217a 74       		.byte	0x74
 8422 217b 1C       		.sleb128 28
 8423 217c 9F       		.byte	0x9f
 8424 217d 2F       		.uleb128 0x2f
ARM GAS  C:\Users\rdn\AppData\Local\Temp\ccIOjLNc.s 			page 176


 8425 217e 32000000 		.4byte	.LBB190
 8426 2182 0E000000 		.4byte	.LBE190-.LBB190
 8427 2186 94210000 		.4byte	0x2194
 8428 218a 26       		.uleb128 0x26
 8429 218b 77200000 		.4byte	0x2077
 8430 218f A5290000 		.4byte	.LLST222
 8431 2193 00       		.byte	0
 8432 2194 28       		.uleb128 0x28
 8433 2195 48000000 		.4byte	.LVL411
 8434 2199 BF230000 		.4byte	0x23bf
 8435 219d 29       		.uleb128 0x29
 8436 219e 01       		.uleb128 0x1
 8437 219f 50       		.byte	0x50
 8438 21a0 02       		.uleb128 0x2
 8439 21a1 74       		.byte	0x74
 8440 21a2 00       		.sleb128 0
 8441 21a3 29       		.uleb128 0x29
 8442 21a4 01       		.uleb128 0x1
 8443 21a5 51       		.byte	0x51
 8444 21a6 01       		.uleb128 0x1
 8445 21a7 39       		.byte	0x39
 8446 21a8 00       		.byte	0
 8447 21a9 00       		.byte	0
 8448 21aa 00       		.byte	0
 8449 21ab 00       		.byte	0
 8450 21ac 0D       		.uleb128 0xd
 8451 21ad CD040000 		.4byte	0x4cd
 8452 21b1 BC210000 		.4byte	0x21bc
 8453 21b5 0E       		.uleb128 0xe
 8454 21b6 D6010000 		.4byte	0x1d6
 8455 21ba 4F       		.byte	0x4f
 8456 21bb 00       		.byte	0
 8457 21bc 4C       		.uleb128 0x4c
 8458 21bd 6E070000 		.4byte	.LASF127
 8459 21c1 01       		.byte	0x1
 8460 21c2 25       		.byte	0x25
 8461 21c3 CD210000 		.4byte	0x21cd
 8462 21c7 05       		.uleb128 0x5
 8463 21c8 03       		.byte	0x3
 8464 21c9 40060000 		.4byte	h_8k_12k8_q15
 8465 21cd 11       		.uleb128 0x11
 8466 21ce AC210000 		.4byte	0x21ac
 8467 21d2 4C       		.uleb128 0x4c
 8468 21d3 4F060000 		.4byte	.LASF128
 8469 21d7 01       		.byte	0x1
 8470 21d8 32       		.byte	0x32
 8471 21d9 E3210000 		.4byte	0x21e3
 8472 21dd 05       		.uleb128 0x5
 8473 21de 03       		.byte	0x3
 8474 21df E0060000 		.4byte	h_16k_12k8_q15
 8475 21e3 11       		.uleb128 0x11
 8476 21e4 AC210000 		.4byte	0x21ac
 8477 21e8 4C       		.uleb128 0x4c
 8478 21e9 92010000 		.4byte	.LASF129
 8479 21ed 01       		.byte	0x1
 8480 21ee 42       		.byte	0x42
 8481 21ef F9210000 		.4byte	0x21f9
ARM GAS  C:\Users\rdn\AppData\Local\Temp\ccIOjLNc.s 			page 177


 8482 21f3 05       		.uleb128 0x5
 8483 21f4 03       		.byte	0x3
 8484 21f5 80070000 		.4byte	h_32k_12k8_q15
 8485 21f9 11       		.uleb128 0x11
 8486 21fa AC210000 		.4byte	0x21ac
 8487 21fe 0D       		.uleb128 0xd
 8488 21ff CD040000 		.4byte	0x4cd
 8489 2203 0E220000 		.4byte	0x220e
 8490 2207 0E       		.uleb128 0xe
 8491 2208 D6010000 		.4byte	0x1d6
 8492 220c EF       		.byte	0xef
 8493 220d 00       		.byte	0
 8494 220e 4C       		.uleb128 0x4c
 8495 220f AA030000 		.4byte	.LASF130
 8496 2213 01       		.byte	0x1
 8497 2214 50       		.byte	0x50
 8498 2215 1F220000 		.4byte	0x221f
 8499 2219 05       		.uleb128 0x5
 8500 221a 03       		.byte	0x3
 8501 221b 00000000 		.4byte	h_24k_12k8_q15
 8502 221f 11       		.uleb128 0x11
 8503 2220 FE210000 		.4byte	0x21fe
 8504 2224 4C       		.uleb128 0x4c
 8505 2225 C1060000 		.4byte	.LASF131
 8506 2229 01       		.byte	0x1
 8507 222a 74       		.byte	0x74
 8508 222b 35220000 		.4byte	0x2235
 8509 222f 05       		.uleb128 0x5
 8510 2230 03       		.byte	0x3
 8511 2231 E0010000 		.4byte	h_48k_12k8_q15
 8512 2235 11       		.uleb128 0x11
 8513 2236 FE210000 		.4byte	0x21fe
 8514 223a 4C       		.uleb128 0x4c
 8515 223b 64040000 		.4byte	.LASF132
 8516 223f 01       		.byte	0x1
 8517 2240 94       		.byte	0x94
 8518 2241 4B220000 		.4byte	0x224b
 8519 2245 05       		.uleb128 0x5
 8520 2246 03       		.byte	0x3
 8521 2247 C0030000 		.4byte	h_96k_12k8_q15
 8522 224b 11       		.uleb128 0x11
 8523 224c FE210000 		.4byte	0x21fe
 8524 2250 0D       		.uleb128 0xd
 8525 2251 80220000 		.4byte	0x2280
 8526 2255 60220000 		.4byte	0x2260
 8527 2259 0E       		.uleb128 0xe
 8528 225a D6010000 		.4byte	0x1d6
 8529 225e 06       		.byte	0x6
 8530 225f 00       		.byte	0
 8531 2260 10       		.uleb128 0x10
 8532 2261 04       		.byte	0x4
 8533 2262 66220000 		.4byte	0x2266
 8534 2266 4D       		.uleb128 0x4d
 8535 2267 80220000 		.4byte	0x2280
 8536 226b 4E       		.uleb128 0x4e
 8537 226c F7050000 		.4byte	0x5f7
 8538 2270 4E       		.uleb128 0x4e
ARM GAS  C:\Users\rdn\AppData\Local\Temp\ccIOjLNc.s 			page 178


 8539 2271 C7040000 		.4byte	0x4c7
 8540 2275 4E       		.uleb128 0x4e
 8541 2276 37070000 		.4byte	0x737
 8542 227a 4E       		.uleb128 0x4e
 8543 227b 97000000 		.4byte	0x97
 8544 227f 00       		.byte	0
 8545 2280 11       		.uleb128 0x11
 8546 2281 60220000 		.4byte	0x2260
 8547 2285 2C       		.uleb128 0x2c
 8548 2286 E2030000 		.4byte	.LASF133
 8549 228a 01       		.byte	0x1
 8550 228b 9D01     		.2byte	0x19d
 8551 228d 97220000 		.4byte	0x2297
 8552 2291 05       		.uleb128 0x5
 8553 2292 03       		.byte	0x3
 8554 2293 20080000 		.4byte	resample_12k8
 8555 2297 11       		.uleb128 0x11
 8556 2298 50220000 		.4byte	0x2250
 8557 229c 0D       		.uleb128 0xd
 8558 229d E0220000 		.4byte	0x22e0
 8559 22a1 AC220000 		.4byte	0x22ac
 8560 22a5 0E       		.uleb128 0xe
 8561 22a6 D6010000 		.4byte	0x1d6
 8562 22aa 04       		.byte	0x4
 8563 22ab 00       		.byte	0
 8564 22ac 10       		.uleb128 0x10
 8565 22ad 04       		.byte	0x4
 8566 22ae B2220000 		.4byte	0x22b2
 8567 22b2 4D       		.uleb128 0x4d
 8568 22b3 E0220000 		.4byte	0x22e0
 8569 22b7 4E       		.uleb128 0x4e
 8570 22b8 DB030000 		.4byte	0x3db
 8571 22bc 4E       		.uleb128 0x4e
 8572 22bd 97000000 		.4byte	0x97
 8573 22c1 4E       		.uleb128 0x4e
 8574 22c2 97000000 		.4byte	0x97
 8575 22c6 4E       		.uleb128 0x4e
 8576 22c7 DB030000 		.4byte	0x3db
 8577 22cb 4E       		.uleb128 0x4e
 8578 22cc 99050000 		.4byte	0x599
 8579 22d0 4E       		.uleb128 0x4e
 8580 22d1 97000000 		.4byte	0x97
 8581 22d5 4E       		.uleb128 0x4e
 8582 22d6 DB030000 		.4byte	0x3db
 8583 22da 4E       		.uleb128 0x4e
 8584 22db 97000000 		.4byte	0x97
 8585 22df 00       		.byte	0
 8586 22e0 11       		.uleb128 0x11
 8587 22e1 AC220000 		.4byte	0x22ac
 8588 22e5 2C       		.uleb128 0x2c
 8589 22e6 B9030000 		.4byte	.LASF134
 8590 22ea 01       		.byte	0x1
 8591 22eb 4903     		.2byte	0x349
 8592 22ed F7220000 		.4byte	0x22f7
 8593 22f1 05       		.uleb128 0x5
 8594 22f2 03       		.byte	0x3
 8595 22f3 3C080000 		.4byte	synthesize
ARM GAS  C:\Users\rdn\AppData\Local\Temp\ccIOjLNc.s 			page 179


 8596 22f7 11       		.uleb128 0x11
 8597 22f8 9C220000 		.4byte	0x229c
 8598 22fc 0D       		.uleb128 0xd
 8599 22fd E8040000 		.4byte	0x4e8
 8600 2301 0C230000 		.4byte	0x230c
 8601 2305 0E       		.uleb128 0xe
 8602 2306 D6010000 		.4byte	0x1d6
 8603 230a 06       		.byte	0x6
 8604 230b 00       		.byte	0
 8605 230c 4F       		.uleb128 0x4f
 8606 230d 7B000000 		.4byte	.LASF135
 8607 2311 02       		.byte	0x2
 8608 2312 2A       		.byte	0x2a
 8609 2313 17230000 		.4byte	0x2317
 8610 2317 11       		.uleb128 0x11
 8611 2318 FC220000 		.4byte	0x22fc
 8612 231c 4F       		.uleb128 0x4f
 8613 231d 55000000 		.4byte	.LASF136
 8614 2321 02       		.byte	0x2
 8615 2322 2B       		.byte	0x2b
 8616 2323 27230000 		.4byte	0x2327
 8617 2327 11       		.uleb128 0x11
 8618 2328 FC220000 		.4byte	0x22fc
 8619 232c 4F       		.uleb128 0x4f
 8620 232d F3000000 		.4byte	.LASF137
 8621 2331 02       		.byte	0x2
 8622 2332 2C       		.byte	0x2c
 8623 2333 37230000 		.4byte	0x2337
 8624 2337 11       		.uleb128 0x11
 8625 2338 FC220000 		.4byte	0x22fc
 8626 233c 0D       		.uleb128 0xd
 8627 233d E8040000 		.4byte	0x4e8
 8628 2341 58230000 		.4byte	0x2358
 8629 2345 0E       		.uleb128 0xe
 8630 2346 D6010000 		.4byte	0x1d6
 8631 234a 03       		.byte	0x3
 8632 234b 0E       		.uleb128 0xe
 8633 234c D6010000 		.4byte	0x1d6
 8634 2350 01       		.byte	0x1
 8635 2351 0E       		.uleb128 0xe
 8636 2352 D6010000 		.4byte	0x1d6
 8637 2356 01       		.byte	0x1
 8638 2357 00       		.byte	0
 8639 2358 4F       		.uleb128 0x4f
 8640 2359 7C070000 		.4byte	.LASF138
 8641 235d 02       		.byte	0x2
 8642 235e 4E       		.byte	0x4e
 8643 235f 63230000 		.4byte	0x2363
 8644 2363 11       		.uleb128 0x11
 8645 2364 3C230000 		.4byte	0x233c
 8646 2368 0D       		.uleb128 0xd
 8647 2369 DB030000 		.4byte	0x3db
 8648 236d 7E230000 		.4byte	0x237e
 8649 2371 0E       		.uleb128 0xe
 8650 2372 D6010000 		.4byte	0x1d6
 8651 2376 06       		.byte	0x6
 8652 2377 0E       		.uleb128 0xe
ARM GAS  C:\Users\rdn\AppData\Local\Temp\ccIOjLNc.s 			page 180


 8653 2378 D6010000 		.4byte	0x1d6
 8654 237c 03       		.byte	0x3
 8655 237d 00       		.byte	0
 8656 237e 4F       		.uleb128 0x4f
 8657 237f AD060000 		.4byte	.LASF139
 8658 2383 02       		.byte	0x2
 8659 2384 94       		.byte	0x94
 8660 2385 68230000 		.4byte	0x2368
 8661 2389 4F       		.uleb128 0x4f
 8662 238a 9F060000 		.4byte	.LASF140
 8663 238e 02       		.byte	0x2
 8664 238f 95       		.byte	0x95
 8665 2390 68230000 		.4byte	0x2368
 8666 2394 50       		.uleb128 0x50
 8667 2395 BB060000 		.4byte	.LASF141
 8668 2399 BB060000 		.4byte	.LASF141
 8669 239d 09       		.byte	0x9
 8670 239e 8501     		.2byte	0x185
 8671 23a0 51       		.uleb128 0x51
 8672 23a1 57010000 		.4byte	.LASF142
 8673 23a5 57010000 		.4byte	.LASF142
 8674 23a9 0A       		.byte	0xa
 8675 23aa 18       		.byte	0x18
 8676 23ab 52       		.uleb128 0x52
 8677 23ac 30070000 		.4byte	.LASF148
 8678 23b0 30070000 		.4byte	.LASF148
 8679 23b4 51       		.uleb128 0x51
 8680 23b5 FA030000 		.4byte	.LASF143
 8681 23b9 FA030000 		.4byte	.LASF143
 8682 23bd 03       		.byte	0x3
 8683 23be C8       		.byte	0xc8
 8684 23bf 51       		.uleb128 0x51
 8685 23c0 80020000 		.4byte	.LASF144
 8686 23c4 80020000 		.4byte	.LASF144
 8687 23c8 03       		.byte	0x3
 8688 23c9 C9       		.byte	0xc9
 8689 23ca 00       		.byte	0
 8690              		.section	.debug_abbrev,"",%progbits
 8691              	.Ldebug_abbrev0:
 8692 0000 01       		.uleb128 0x1
 8693 0001 11       		.uleb128 0x11
 8694 0002 01       		.byte	0x1
 8695 0003 25       		.uleb128 0x25
 8696 0004 0E       		.uleb128 0xe
 8697 0005 13       		.uleb128 0x13
 8698 0006 0B       		.uleb128 0xb
 8699 0007 03       		.uleb128 0x3
 8700 0008 0E       		.uleb128 0xe
 8701 0009 1B       		.uleb128 0x1b
 8702 000a 0E       		.uleb128 0xe
 8703 000b 55       		.uleb128 0x55
 8704 000c 17       		.uleb128 0x17
 8705 000d 11       		.uleb128 0x11
 8706 000e 01       		.uleb128 0x1
 8707 000f 10       		.uleb128 0x10
 8708 0010 17       		.uleb128 0x17
 8709 0011 00       		.byte	0
ARM GAS  C:\Users\rdn\AppData\Local\Temp\ccIOjLNc.s 			page 181


 8710 0012 00       		.byte	0
 8711 0013 02       		.uleb128 0x2
 8712 0014 24       		.uleb128 0x24
 8713 0015 00       		.byte	0
 8714 0016 0B       		.uleb128 0xb
 8715 0017 0B       		.uleb128 0xb
 8716 0018 3E       		.uleb128 0x3e
 8717 0019 0B       		.uleb128 0xb
 8718 001a 03       		.uleb128 0x3
 8719 001b 0E       		.uleb128 0xe
 8720 001c 00       		.byte	0
 8721 001d 00       		.byte	0
 8722 001e 03       		.uleb128 0x3
 8723 001f 16       		.uleb128 0x16
 8724 0020 00       		.byte	0
 8725 0021 03       		.uleb128 0x3
 8726 0022 0E       		.uleb128 0xe
 8727 0023 3A       		.uleb128 0x3a
 8728 0024 0B       		.uleb128 0xb
 8729 0025 3B       		.uleb128 0x3b
 8730 0026 0B       		.uleb128 0xb
 8731 0027 49       		.uleb128 0x49
 8732 0028 13       		.uleb128 0x13
 8733 0029 00       		.byte	0
 8734 002a 00       		.byte	0
 8735 002b 04       		.uleb128 0x4
 8736 002c 24       		.uleb128 0x24
 8737 002d 00       		.byte	0
 8738 002e 0B       		.uleb128 0xb
 8739 002f 0B       		.uleb128 0xb
 8740 0030 3E       		.uleb128 0x3e
 8741 0031 0B       		.uleb128 0xb
 8742 0032 03       		.uleb128 0x3
 8743 0033 08       		.uleb128 0x8
 8744 0034 00       		.byte	0
 8745 0035 00       		.byte	0
 8746 0036 05       		.uleb128 0x5
 8747 0037 04       		.uleb128 0x4
 8748 0038 01       		.byte	0x1
 8749 0039 03       		.uleb128 0x3
 8750 003a 0E       		.uleb128 0xe
 8751 003b 0B       		.uleb128 0xb
 8752 003c 0B       		.uleb128 0xb
 8753 003d 49       		.uleb128 0x49
 8754 003e 13       		.uleb128 0x13
 8755 003f 3A       		.uleb128 0x3a
 8756 0040 0B       		.uleb128 0xb
 8757 0041 3B       		.uleb128 0x3b
 8758 0042 0B       		.uleb128 0xb
 8759 0043 01       		.uleb128 0x1
 8760 0044 13       		.uleb128 0x13
 8761 0045 00       		.byte	0
 8762 0046 00       		.byte	0
 8763 0047 06       		.uleb128 0x6
 8764 0048 28       		.uleb128 0x28
 8765 0049 00       		.byte	0
 8766 004a 03       		.uleb128 0x3
ARM GAS  C:\Users\rdn\AppData\Local\Temp\ccIOjLNc.s 			page 182


 8767 004b 0E       		.uleb128 0xe
 8768 004c 1C       		.uleb128 0x1c
 8769 004d 0B       		.uleb128 0xb
 8770 004e 00       		.byte	0
 8771 004f 00       		.byte	0
 8772 0050 07       		.uleb128 0x7
 8773 0051 13       		.uleb128 0x13
 8774 0052 01       		.byte	0x1
 8775 0053 03       		.uleb128 0x3
 8776 0054 0E       		.uleb128 0xe
 8777 0055 0B       		.uleb128 0xb
 8778 0056 0B       		.uleb128 0xb
 8779 0057 3A       		.uleb128 0x3a
 8780 0058 0B       		.uleb128 0xb
 8781 0059 3B       		.uleb128 0x3b
 8782 005a 0B       		.uleb128 0xb
 8783 005b 01       		.uleb128 0x1
 8784 005c 13       		.uleb128 0x13
 8785 005d 00       		.byte	0
 8786 005e 00       		.byte	0
 8787 005f 08       		.uleb128 0x8
 8788 0060 0D       		.uleb128 0xd
 8789 0061 00       		.byte	0
 8790 0062 03       		.uleb128 0x3
 8791 0063 08       		.uleb128 0x8
 8792 0064 3A       		.uleb128 0x3a
 8793 0065 0B       		.uleb128 0xb
 8794 0066 3B       		.uleb128 0x3b
 8795 0067 0B       		.uleb128 0xb
 8796 0068 49       		.uleb128 0x49
 8797 0069 13       		.uleb128 0x13
 8798 006a 38       		.uleb128 0x38
 8799 006b 0B       		.uleb128 0xb
 8800 006c 00       		.byte	0
 8801 006d 00       		.byte	0
 8802 006e 09       		.uleb128 0x9
 8803 006f 13       		.uleb128 0x13
 8804 0070 01       		.byte	0x1
 8805 0071 03       		.uleb128 0x3
 8806 0072 0E       		.uleb128 0xe
 8807 0073 0B       		.uleb128 0xb
 8808 0074 05       		.uleb128 0x5
 8809 0075 3A       		.uleb128 0x3a
 8810 0076 0B       		.uleb128 0xb
 8811 0077 3B       		.uleb128 0x3b
 8812 0078 0B       		.uleb128 0xb
 8813 0079 01       		.uleb128 0x1
 8814 007a 13       		.uleb128 0x13
 8815 007b 00       		.byte	0
 8816 007c 00       		.byte	0
 8817 007d 0A       		.uleb128 0xa
 8818 007e 0D       		.uleb128 0xd
 8819 007f 00       		.byte	0
 8820 0080 03       		.uleb128 0x3
 8821 0081 0E       		.uleb128 0xe
 8822 0082 3A       		.uleb128 0x3a
 8823 0083 0B       		.uleb128 0xb
ARM GAS  C:\Users\rdn\AppData\Local\Temp\ccIOjLNc.s 			page 183


 8824 0084 3B       		.uleb128 0x3b
 8825 0085 0B       		.uleb128 0xb
 8826 0086 49       		.uleb128 0x49
 8827 0087 13       		.uleb128 0x13
 8828 0088 38       		.uleb128 0x38
 8829 0089 0B       		.uleb128 0xb
 8830 008a 00       		.byte	0
 8831 008b 00       		.byte	0
 8832 008c 0B       		.uleb128 0xb
 8833 008d 0D       		.uleb128 0xd
 8834 008e 00       		.byte	0
 8835 008f 03       		.uleb128 0x3
 8836 0090 0E       		.uleb128 0xe
 8837 0091 3A       		.uleb128 0x3a
 8838 0092 0B       		.uleb128 0xb
 8839 0093 3B       		.uleb128 0x3b
 8840 0094 0B       		.uleb128 0xb
 8841 0095 49       		.uleb128 0x49
 8842 0096 13       		.uleb128 0x13
 8843 0097 38       		.uleb128 0x38
 8844 0098 05       		.uleb128 0x5
 8845 0099 00       		.byte	0
 8846 009a 00       		.byte	0
 8847 009b 0C       		.uleb128 0xc
 8848 009c 0D       		.uleb128 0xd
 8849 009d 00       		.byte	0
 8850 009e 03       		.uleb128 0x3
 8851 009f 08       		.uleb128 0x8
 8852 00a0 3A       		.uleb128 0x3a
 8853 00a1 0B       		.uleb128 0xb
 8854 00a2 3B       		.uleb128 0x3b
 8855 00a3 0B       		.uleb128 0xb
 8856 00a4 49       		.uleb128 0x49
 8857 00a5 13       		.uleb128 0x13
 8858 00a6 38       		.uleb128 0x38
 8859 00a7 05       		.uleb128 0x5
 8860 00a8 00       		.byte	0
 8861 00a9 00       		.byte	0
 8862 00aa 0D       		.uleb128 0xd
 8863 00ab 01       		.uleb128 0x1
 8864 00ac 01       		.byte	0x1
 8865 00ad 49       		.uleb128 0x49
 8866 00ae 13       		.uleb128 0x13
 8867 00af 01       		.uleb128 0x1
 8868 00b0 13       		.uleb128 0x13
 8869 00b1 00       		.byte	0
 8870 00b2 00       		.byte	0
 8871 00b3 0E       		.uleb128 0xe
 8872 00b4 21       		.uleb128 0x21
 8873 00b5 00       		.byte	0
 8874 00b6 49       		.uleb128 0x49
 8875 00b7 13       		.uleb128 0x13
 8876 00b8 2F       		.uleb128 0x2f
 8877 00b9 0B       		.uleb128 0xb
 8878 00ba 00       		.byte	0
 8879 00bb 00       		.byte	0
 8880 00bc 0F       		.uleb128 0xf
ARM GAS  C:\Users\rdn\AppData\Local\Temp\ccIOjLNc.s 			page 184


 8881 00bd 21       		.uleb128 0x21
 8882 00be 00       		.byte	0
 8883 00bf 49       		.uleb128 0x49
 8884 00c0 13       		.uleb128 0x13
 8885 00c1 2F       		.uleb128 0x2f
 8886 00c2 05       		.uleb128 0x5
 8887 00c3 00       		.byte	0
 8888 00c4 00       		.byte	0
 8889 00c5 10       		.uleb128 0x10
 8890 00c6 0F       		.uleb128 0xf
 8891 00c7 00       		.byte	0
 8892 00c8 0B       		.uleb128 0xb
 8893 00c9 0B       		.uleb128 0xb
 8894 00ca 49       		.uleb128 0x49
 8895 00cb 13       		.uleb128 0x13
 8896 00cc 00       		.byte	0
 8897 00cd 00       		.byte	0
 8898 00ce 11       		.uleb128 0x11
 8899 00cf 26       		.uleb128 0x26
 8900 00d0 00       		.byte	0
 8901 00d1 49       		.uleb128 0x49
 8902 00d2 13       		.uleb128 0x13
 8903 00d3 00       		.byte	0
 8904 00d4 00       		.byte	0
 8905 00d5 12       		.uleb128 0x12
 8906 00d6 2E       		.uleb128 0x2e
 8907 00d7 01       		.byte	0x1
 8908 00d8 03       		.uleb128 0x3
 8909 00d9 0E       		.uleb128 0xe
 8910 00da 3A       		.uleb128 0x3a
 8911 00db 0B       		.uleb128 0xb
 8912 00dc 3B       		.uleb128 0x3b
 8913 00dd 05       		.uleb128 0x5
 8914 00de 27       		.uleb128 0x27
 8915 00df 19       		.uleb128 0x19
 8916 00e0 49       		.uleb128 0x49
 8917 00e1 13       		.uleb128 0x13
 8918 00e2 20       		.uleb128 0x20
 8919 00e3 0B       		.uleb128 0xb
 8920 00e4 01       		.uleb128 0x1
 8921 00e5 13       		.uleb128 0x13
 8922 00e6 00       		.byte	0
 8923 00e7 00       		.byte	0
 8924 00e8 13       		.uleb128 0x13
 8925 00e9 05       		.uleb128 0x5
 8926 00ea 00       		.byte	0
 8927 00eb 03       		.uleb128 0x3
 8928 00ec 0E       		.uleb128 0xe
 8929 00ed 3A       		.uleb128 0x3a
 8930 00ee 0B       		.uleb128 0xb
 8931 00ef 3B       		.uleb128 0x3b
 8932 00f0 05       		.uleb128 0x5
 8933 00f1 49       		.uleb128 0x49
 8934 00f2 13       		.uleb128 0x13
 8935 00f3 00       		.byte	0
 8936 00f4 00       		.byte	0
 8937 00f5 14       		.uleb128 0x14
ARM GAS  C:\Users\rdn\AppData\Local\Temp\ccIOjLNc.s 			page 185


 8938 00f6 05       		.uleb128 0x5
 8939 00f7 00       		.byte	0
 8940 00f8 03       		.uleb128 0x3
 8941 00f9 08       		.uleb128 0x8
 8942 00fa 3A       		.uleb128 0x3a
 8943 00fb 0B       		.uleb128 0xb
 8944 00fc 3B       		.uleb128 0x3b
 8945 00fd 05       		.uleb128 0x5
 8946 00fe 49       		.uleb128 0x49
 8947 00ff 13       		.uleb128 0x13
 8948 0100 00       		.byte	0
 8949 0101 00       		.byte	0
 8950 0102 15       		.uleb128 0x15
 8951 0103 34       		.uleb128 0x34
 8952 0104 00       		.byte	0
 8953 0105 03       		.uleb128 0x3
 8954 0106 08       		.uleb128 0x8
 8955 0107 3A       		.uleb128 0x3a
 8956 0108 0B       		.uleb128 0xb
 8957 0109 3B       		.uleb128 0x3b
 8958 010a 05       		.uleb128 0x5
 8959 010b 49       		.uleb128 0x49
 8960 010c 13       		.uleb128 0x13
 8961 010d 00       		.byte	0
 8962 010e 00       		.byte	0
 8963 010f 16       		.uleb128 0x16
 8964 0110 34       		.uleb128 0x34
 8965 0111 00       		.byte	0
 8966 0112 03       		.uleb128 0x3
 8967 0113 0E       		.uleb128 0xe
 8968 0114 3A       		.uleb128 0x3a
 8969 0115 0B       		.uleb128 0xb
 8970 0116 3B       		.uleb128 0x3b
 8971 0117 05       		.uleb128 0x5
 8972 0118 49       		.uleb128 0x49
 8973 0119 13       		.uleb128 0x13
 8974 011a 00       		.byte	0
 8975 011b 00       		.byte	0
 8976 011c 17       		.uleb128 0x17
 8977 011d 2E       		.uleb128 0x2e
 8978 011e 01       		.byte	0x1
 8979 011f 03       		.uleb128 0x3
 8980 0120 0E       		.uleb128 0xe
 8981 0121 3A       		.uleb128 0x3a
 8982 0122 0B       		.uleb128 0xb
 8983 0123 3B       		.uleb128 0x3b
 8984 0124 0B       		.uleb128 0xb
 8985 0125 27       		.uleb128 0x27
 8986 0126 19       		.uleb128 0x19
 8987 0127 49       		.uleb128 0x49
 8988 0128 13       		.uleb128 0x13
 8989 0129 20       		.uleb128 0x20
 8990 012a 0B       		.uleb128 0xb
 8991 012b 01       		.uleb128 0x1
 8992 012c 13       		.uleb128 0x13
 8993 012d 00       		.byte	0
 8994 012e 00       		.byte	0
ARM GAS  C:\Users\rdn\AppData\Local\Temp\ccIOjLNc.s 			page 186


 8995 012f 18       		.uleb128 0x18
 8996 0130 05       		.uleb128 0x5
 8997 0131 00       		.byte	0
 8998 0132 03       		.uleb128 0x3
 8999 0133 08       		.uleb128 0x8
 9000 0134 3A       		.uleb128 0x3a
 9001 0135 0B       		.uleb128 0xb
 9002 0136 3B       		.uleb128 0x3b
 9003 0137 0B       		.uleb128 0xb
 9004 0138 49       		.uleb128 0x49
 9005 0139 13       		.uleb128 0x13
 9006 013a 00       		.byte	0
 9007 013b 00       		.byte	0
 9008 013c 19       		.uleb128 0x19
 9009 013d 0B       		.uleb128 0xb
 9010 013e 01       		.byte	0x1
 9011 013f 00       		.byte	0
 9012 0140 00       		.byte	0
 9013 0141 1A       		.uleb128 0x1a
 9014 0142 05       		.uleb128 0x5
 9015 0143 00       		.byte	0
 9016 0144 03       		.uleb128 0x3
 9017 0145 0E       		.uleb128 0xe
 9018 0146 3A       		.uleb128 0x3a
 9019 0147 0B       		.uleb128 0xb
 9020 0148 3B       		.uleb128 0x3b
 9021 0149 0B       		.uleb128 0xb
 9022 014a 49       		.uleb128 0x49
 9023 014b 13       		.uleb128 0x13
 9024 014c 00       		.byte	0
 9025 014d 00       		.byte	0
 9026 014e 1B       		.uleb128 0x1b
 9027 014f 34       		.uleb128 0x34
 9028 0150 00       		.byte	0
 9029 0151 03       		.uleb128 0x3
 9030 0152 08       		.uleb128 0x8
 9031 0153 3A       		.uleb128 0x3a
 9032 0154 0B       		.uleb128 0xb
 9033 0155 3B       		.uleb128 0x3b
 9034 0156 0B       		.uleb128 0xb
 9035 0157 49       		.uleb128 0x49
 9036 0158 13       		.uleb128 0x13
 9037 0159 00       		.byte	0
 9038 015a 00       		.byte	0
 9039 015b 1C       		.uleb128 0x1c
 9040 015c 2E       		.uleb128 0x2e
 9041 015d 01       		.byte	0x1
 9042 015e 03       		.uleb128 0x3
 9043 015f 0E       		.uleb128 0xe
 9044 0160 3A       		.uleb128 0x3a
 9045 0161 0B       		.uleb128 0xb
 9046 0162 3B       		.uleb128 0x3b
 9047 0163 05       		.uleb128 0x5
 9048 0164 27       		.uleb128 0x27
 9049 0165 19       		.uleb128 0x19
 9050 0166 11       		.uleb128 0x11
 9051 0167 01       		.uleb128 0x1
ARM GAS  C:\Users\rdn\AppData\Local\Temp\ccIOjLNc.s 			page 187


 9052 0168 12       		.uleb128 0x12
 9053 0169 06       		.uleb128 0x6
 9054 016a 40       		.uleb128 0x40
 9055 016b 18       		.uleb128 0x18
 9056 016c 9742     		.uleb128 0x2117
 9057 016e 19       		.uleb128 0x19
 9058 016f 01       		.uleb128 0x1
 9059 0170 13       		.uleb128 0x13
 9060 0171 00       		.byte	0
 9061 0172 00       		.byte	0
 9062 0173 1D       		.uleb128 0x1d
 9063 0174 05       		.uleb128 0x5
 9064 0175 00       		.byte	0
 9065 0176 03       		.uleb128 0x3
 9066 0177 08       		.uleb128 0x8
 9067 0178 3A       		.uleb128 0x3a
 9068 0179 0B       		.uleb128 0xb
 9069 017a 3B       		.uleb128 0x3b
 9070 017b 05       		.uleb128 0x5
 9071 017c 49       		.uleb128 0x49
 9072 017d 13       		.uleb128 0x13
 9073 017e 02       		.uleb128 0x2
 9074 017f 18       		.uleb128 0x18
 9075 0180 00       		.byte	0
 9076 0181 00       		.byte	0
 9077 0182 1E       		.uleb128 0x1e
 9078 0183 05       		.uleb128 0x5
 9079 0184 00       		.byte	0
 9080 0185 03       		.uleb128 0x3
 9081 0186 08       		.uleb128 0x8
 9082 0187 3A       		.uleb128 0x3a
 9083 0188 0B       		.uleb128 0xb
 9084 0189 3B       		.uleb128 0x3b
 9085 018a 05       		.uleb128 0x5
 9086 018b 49       		.uleb128 0x49
 9087 018c 13       		.uleb128 0x13
 9088 018d 02       		.uleb128 0x2
 9089 018e 17       		.uleb128 0x17
 9090 018f 00       		.byte	0
 9091 0190 00       		.byte	0
 9092 0191 1F       		.uleb128 0x1f
 9093 0192 05       		.uleb128 0x5
 9094 0193 00       		.byte	0
 9095 0194 03       		.uleb128 0x3
 9096 0195 0E       		.uleb128 0xe
 9097 0196 3A       		.uleb128 0x3a
 9098 0197 0B       		.uleb128 0xb
 9099 0198 3B       		.uleb128 0x3b
 9100 0199 05       		.uleb128 0x5
 9101 019a 49       		.uleb128 0x49
 9102 019b 13       		.uleb128 0x13
 9103 019c 02       		.uleb128 0x2
 9104 019d 18       		.uleb128 0x18
 9105 019e 00       		.byte	0
 9106 019f 00       		.byte	0
 9107 01a0 20       		.uleb128 0x20
 9108 01a1 34       		.uleb128 0x34
ARM GAS  C:\Users\rdn\AppData\Local\Temp\ccIOjLNc.s 			page 188


 9109 01a2 00       		.byte	0
 9110 01a3 03       		.uleb128 0x3
 9111 01a4 08       		.uleb128 0x8
 9112 01a5 3A       		.uleb128 0x3a
 9113 01a6 0B       		.uleb128 0xb
 9114 01a7 3B       		.uleb128 0x3b
 9115 01a8 05       		.uleb128 0x5
 9116 01a9 49       		.uleb128 0x49
 9117 01aa 13       		.uleb128 0x13
 9118 01ab 02       		.uleb128 0x2
 9119 01ac 18       		.uleb128 0x18
 9120 01ad 00       		.byte	0
 9121 01ae 00       		.byte	0
 9122 01af 21       		.uleb128 0x21
 9123 01b0 0B       		.uleb128 0xb
 9124 01b1 01       		.byte	0x1
 9125 01b2 55       		.uleb128 0x55
 9126 01b3 17       		.uleb128 0x17
 9127 01b4 00       		.byte	0
 9128 01b5 00       		.byte	0
 9129 01b6 22       		.uleb128 0x22
 9130 01b7 34       		.uleb128 0x34
 9131 01b8 00       		.byte	0
 9132 01b9 03       		.uleb128 0x3
 9133 01ba 08       		.uleb128 0x8
 9134 01bb 3A       		.uleb128 0x3a
 9135 01bc 0B       		.uleb128 0xb
 9136 01bd 3B       		.uleb128 0x3b
 9137 01be 05       		.uleb128 0x5
 9138 01bf 49       		.uleb128 0x49
 9139 01c0 13       		.uleb128 0x13
 9140 01c1 02       		.uleb128 0x2
 9141 01c2 17       		.uleb128 0x17
 9142 01c3 00       		.byte	0
 9143 01c4 00       		.byte	0
 9144 01c5 23       		.uleb128 0x23
 9145 01c6 0B       		.uleb128 0xb
 9146 01c7 01       		.byte	0x1
 9147 01c8 55       		.uleb128 0x55
 9148 01c9 17       		.uleb128 0x17
 9149 01ca 01       		.uleb128 0x1
 9150 01cb 13       		.uleb128 0x13
 9151 01cc 00       		.byte	0
 9152 01cd 00       		.byte	0
 9153 01ce 24       		.uleb128 0x24
 9154 01cf 1D       		.uleb128 0x1d
 9155 01d0 01       		.byte	0x1
 9156 01d1 31       		.uleb128 0x31
 9157 01d2 13       		.uleb128 0x13
 9158 01d3 52       		.uleb128 0x52
 9159 01d4 01       		.uleb128 0x1
 9160 01d5 55       		.uleb128 0x55
 9161 01d6 17       		.uleb128 0x17
 9162 01d7 58       		.uleb128 0x58
 9163 01d8 0B       		.uleb128 0xb
 9164 01d9 59       		.uleb128 0x59
 9165 01da 05       		.uleb128 0x5
ARM GAS  C:\Users\rdn\AppData\Local\Temp\ccIOjLNc.s 			page 189


 9166 01db 00       		.byte	0
 9167 01dc 00       		.byte	0
 9168 01dd 25       		.uleb128 0x25
 9169 01de 05       		.uleb128 0x5
 9170 01df 00       		.byte	0
 9171 01e0 31       		.uleb128 0x31
 9172 01e1 13       		.uleb128 0x13
 9173 01e2 02       		.uleb128 0x2
 9174 01e3 17       		.uleb128 0x17
 9175 01e4 00       		.byte	0
 9176 01e5 00       		.byte	0
 9177 01e6 26       		.uleb128 0x26
 9178 01e7 34       		.uleb128 0x34
 9179 01e8 00       		.byte	0
 9180 01e9 31       		.uleb128 0x31
 9181 01ea 13       		.uleb128 0x13
 9182 01eb 02       		.uleb128 0x2
 9183 01ec 17       		.uleb128 0x17
 9184 01ed 00       		.byte	0
 9185 01ee 00       		.byte	0
 9186 01ef 27       		.uleb128 0x27
 9187 01f0 05       		.uleb128 0x5
 9188 01f1 00       		.byte	0
 9189 01f2 03       		.uleb128 0x3
 9190 01f3 0E       		.uleb128 0xe
 9191 01f4 3A       		.uleb128 0x3a
 9192 01f5 0B       		.uleb128 0xb
 9193 01f6 3B       		.uleb128 0x3b
 9194 01f7 05       		.uleb128 0x5
 9195 01f8 49       		.uleb128 0x49
 9196 01f9 13       		.uleb128 0x13
 9197 01fa 02       		.uleb128 0x2
 9198 01fb 17       		.uleb128 0x17
 9199 01fc 00       		.byte	0
 9200 01fd 00       		.byte	0
 9201 01fe 28       		.uleb128 0x28
 9202 01ff 898201   		.uleb128 0x4109
 9203 0202 01       		.byte	0x1
 9204 0203 11       		.uleb128 0x11
 9205 0204 01       		.uleb128 0x1
 9206 0205 31       		.uleb128 0x31
 9207 0206 13       		.uleb128 0x13
 9208 0207 00       		.byte	0
 9209 0208 00       		.byte	0
 9210 0209 29       		.uleb128 0x29
 9211 020a 8A8201   		.uleb128 0x410a
 9212 020d 00       		.byte	0
 9213 020e 02       		.uleb128 0x2
 9214 020f 18       		.uleb128 0x18
 9215 0210 9142     		.uleb128 0x2111
 9216 0212 18       		.uleb128 0x18
 9217 0213 00       		.byte	0
 9218 0214 00       		.byte	0
 9219 0215 2A       		.uleb128 0x2a
 9220 0216 2E       		.uleb128 0x2e
 9221 0217 01       		.byte	0x1
 9222 0218 03       		.uleb128 0x3
ARM GAS  C:\Users\rdn\AppData\Local\Temp\ccIOjLNc.s 			page 190


 9223 0219 08       		.uleb128 0x8
 9224 021a 3A       		.uleb128 0x3a
 9225 021b 0B       		.uleb128 0xb
 9226 021c 3B       		.uleb128 0x3b
 9227 021d 05       		.uleb128 0x5
 9228 021e 27       		.uleb128 0x27
 9229 021f 19       		.uleb128 0x19
 9230 0220 49       		.uleb128 0x49
 9231 0221 13       		.uleb128 0x13
 9232 0222 11       		.uleb128 0x11
 9233 0223 01       		.uleb128 0x1
 9234 0224 12       		.uleb128 0x12
 9235 0225 06       		.uleb128 0x6
 9236 0226 40       		.uleb128 0x40
 9237 0227 18       		.uleb128 0x18
 9238 0228 9742     		.uleb128 0x2117
 9239 022a 19       		.uleb128 0x19
 9240 022b 01       		.uleb128 0x1
 9241 022c 13       		.uleb128 0x13
 9242 022d 00       		.byte	0
 9243 022e 00       		.byte	0
 9244 022f 2B       		.uleb128 0x2b
 9245 0230 0B       		.uleb128 0xb
 9246 0231 01       		.byte	0x1
 9247 0232 11       		.uleb128 0x11
 9248 0233 01       		.uleb128 0x1
 9249 0234 12       		.uleb128 0x12
 9250 0235 06       		.uleb128 0x6
 9251 0236 00       		.byte	0
 9252 0237 00       		.byte	0
 9253 0238 2C       		.uleb128 0x2c
 9254 0239 34       		.uleb128 0x34
 9255 023a 00       		.byte	0
 9256 023b 03       		.uleb128 0x3
 9257 023c 0E       		.uleb128 0xe
 9258 023d 3A       		.uleb128 0x3a
 9259 023e 0B       		.uleb128 0xb
 9260 023f 3B       		.uleb128 0x3b
 9261 0240 05       		.uleb128 0x5
 9262 0241 49       		.uleb128 0x49
 9263 0242 13       		.uleb128 0x13
 9264 0243 02       		.uleb128 0x2
 9265 0244 18       		.uleb128 0x18
 9266 0245 00       		.byte	0
 9267 0246 00       		.byte	0
 9268 0247 2D       		.uleb128 0x2d
 9269 0248 2E       		.uleb128 0x2e
 9270 0249 01       		.byte	0x1
 9271 024a 03       		.uleb128 0x3
 9272 024b 0E       		.uleb128 0xe
 9273 024c 3A       		.uleb128 0x3a
 9274 024d 0B       		.uleb128 0xb
 9275 024e 3B       		.uleb128 0x3b
 9276 024f 05       		.uleb128 0x5
 9277 0250 27       		.uleb128 0x27
 9278 0251 19       		.uleb128 0x19
 9279 0252 49       		.uleb128 0x49
ARM GAS  C:\Users\rdn\AppData\Local\Temp\ccIOjLNc.s 			page 191


 9280 0253 13       		.uleb128 0x13
 9281 0254 11       		.uleb128 0x11
 9282 0255 01       		.uleb128 0x1
 9283 0256 12       		.uleb128 0x12
 9284 0257 06       		.uleb128 0x6
 9285 0258 40       		.uleb128 0x40
 9286 0259 18       		.uleb128 0x18
 9287 025a 9742     		.uleb128 0x2117
 9288 025c 19       		.uleb128 0x19
 9289 025d 01       		.uleb128 0x1
 9290 025e 13       		.uleb128 0x13
 9291 025f 00       		.byte	0
 9292 0260 00       		.byte	0
 9293 0261 2E       		.uleb128 0x2e
 9294 0262 34       		.uleb128 0x34
 9295 0263 00       		.byte	0
 9296 0264 03       		.uleb128 0x3
 9297 0265 0E       		.uleb128 0xe
 9298 0266 3A       		.uleb128 0x3a
 9299 0267 0B       		.uleb128 0xb
 9300 0268 3B       		.uleb128 0x3b
 9301 0269 05       		.uleb128 0x5
 9302 026a 49       		.uleb128 0x49
 9303 026b 13       		.uleb128 0x13
 9304 026c 02       		.uleb128 0x2
 9305 026d 17       		.uleb128 0x17
 9306 026e 00       		.byte	0
 9307 026f 00       		.byte	0
 9308 0270 2F       		.uleb128 0x2f
 9309 0271 0B       		.uleb128 0xb
 9310 0272 01       		.byte	0x1
 9311 0273 11       		.uleb128 0x11
 9312 0274 01       		.uleb128 0x1
 9313 0275 12       		.uleb128 0x12
 9314 0276 06       		.uleb128 0x6
 9315 0277 01       		.uleb128 0x1
 9316 0278 13       		.uleb128 0x13
 9317 0279 00       		.byte	0
 9318 027a 00       		.byte	0
 9319 027b 30       		.uleb128 0x30
 9320 027c 2E       		.uleb128 0x2e
 9321 027d 01       		.byte	0x1
 9322 027e 03       		.uleb128 0x3
 9323 027f 0E       		.uleb128 0xe
 9324 0280 3A       		.uleb128 0x3a
 9325 0281 0B       		.uleb128 0xb
 9326 0282 3B       		.uleb128 0x3b
 9327 0283 0B       		.uleb128 0xb
 9328 0284 27       		.uleb128 0x27
 9329 0285 19       		.uleb128 0x19
 9330 0286 11       		.uleb128 0x11
 9331 0287 01       		.uleb128 0x1
 9332 0288 12       		.uleb128 0x12
 9333 0289 06       		.uleb128 0x6
 9334 028a 40       		.uleb128 0x40
 9335 028b 18       		.uleb128 0x18
 9336 028c 9742     		.uleb128 0x2117
ARM GAS  C:\Users\rdn\AppData\Local\Temp\ccIOjLNc.s 			page 192


 9337 028e 19       		.uleb128 0x19
 9338 028f 01       		.uleb128 0x1
 9339 0290 13       		.uleb128 0x13
 9340 0291 00       		.byte	0
 9341 0292 00       		.byte	0
 9342 0293 31       		.uleb128 0x31
 9343 0294 05       		.uleb128 0x5
 9344 0295 00       		.byte	0
 9345 0296 03       		.uleb128 0x3
 9346 0297 08       		.uleb128 0x8
 9347 0298 3A       		.uleb128 0x3a
 9348 0299 0B       		.uleb128 0xb
 9349 029a 3B       		.uleb128 0x3b
 9350 029b 0B       		.uleb128 0xb
 9351 029c 49       		.uleb128 0x49
 9352 029d 13       		.uleb128 0x13
 9353 029e 02       		.uleb128 0x2
 9354 029f 18       		.uleb128 0x18
 9355 02a0 00       		.byte	0
 9356 02a1 00       		.byte	0
 9357 02a2 32       		.uleb128 0x32
 9358 02a3 05       		.uleb128 0x5
 9359 02a4 00       		.byte	0
 9360 02a5 03       		.uleb128 0x3
 9361 02a6 08       		.uleb128 0x8
 9362 02a7 3A       		.uleb128 0x3a
 9363 02a8 0B       		.uleb128 0xb
 9364 02a9 3B       		.uleb128 0x3b
 9365 02aa 0B       		.uleb128 0xb
 9366 02ab 49       		.uleb128 0x49
 9367 02ac 13       		.uleb128 0x13
 9368 02ad 02       		.uleb128 0x2
 9369 02ae 17       		.uleb128 0x17
 9370 02af 00       		.byte	0
 9371 02b0 00       		.byte	0
 9372 02b1 33       		.uleb128 0x33
 9373 02b2 05       		.uleb128 0x5
 9374 02b3 00       		.byte	0
 9375 02b4 03       		.uleb128 0x3
 9376 02b5 0E       		.uleb128 0xe
 9377 02b6 3A       		.uleb128 0x3a
 9378 02b7 0B       		.uleb128 0xb
 9379 02b8 3B       		.uleb128 0x3b
 9380 02b9 0B       		.uleb128 0xb
 9381 02ba 49       		.uleb128 0x49
 9382 02bb 13       		.uleb128 0x13
 9383 02bc 02       		.uleb128 0x2
 9384 02bd 18       		.uleb128 0x18
 9385 02be 00       		.byte	0
 9386 02bf 00       		.byte	0
 9387 02c0 34       		.uleb128 0x34
 9388 02c1 34       		.uleb128 0x34
 9389 02c2 00       		.byte	0
 9390 02c3 03       		.uleb128 0x3
 9391 02c4 08       		.uleb128 0x8
 9392 02c5 3A       		.uleb128 0x3a
 9393 02c6 0B       		.uleb128 0xb
ARM GAS  C:\Users\rdn\AppData\Local\Temp\ccIOjLNc.s 			page 193


 9394 02c7 3B       		.uleb128 0x3b
 9395 02c8 0B       		.uleb128 0xb
 9396 02c9 49       		.uleb128 0x49
 9397 02ca 13       		.uleb128 0x13
 9398 02cb 02       		.uleb128 0x2
 9399 02cc 18       		.uleb128 0x18
 9400 02cd 00       		.byte	0
 9401 02ce 00       		.byte	0
 9402 02cf 35       		.uleb128 0x35
 9403 02d0 34       		.uleb128 0x34
 9404 02d1 00       		.byte	0
 9405 02d2 03       		.uleb128 0x3
 9406 02d3 08       		.uleb128 0x8
 9407 02d4 3A       		.uleb128 0x3a
 9408 02d5 0B       		.uleb128 0xb
 9409 02d6 3B       		.uleb128 0x3b
 9410 02d7 0B       		.uleb128 0xb
 9411 02d8 49       		.uleb128 0x49
 9412 02d9 13       		.uleb128 0x13
 9413 02da 02       		.uleb128 0x2
 9414 02db 17       		.uleb128 0x17
 9415 02dc 00       		.byte	0
 9416 02dd 00       		.byte	0
 9417 02de 36       		.uleb128 0x36
 9418 02df 1D       		.uleb128 0x1d
 9419 02e0 01       		.byte	0x1
 9420 02e1 31       		.uleb128 0x31
 9421 02e2 13       		.uleb128 0x13
 9422 02e3 52       		.uleb128 0x52
 9423 02e4 01       		.uleb128 0x1
 9424 02e5 55       		.uleb128 0x55
 9425 02e6 17       		.uleb128 0x17
 9426 02e7 58       		.uleb128 0x58
 9427 02e8 0B       		.uleb128 0xb
 9428 02e9 59       		.uleb128 0x59
 9429 02ea 0B       		.uleb128 0xb
 9430 02eb 00       		.byte	0
 9431 02ec 00       		.byte	0
 9432 02ed 37       		.uleb128 0x37
 9433 02ee 2E       		.uleb128 0x2e
 9434 02ef 01       		.byte	0x1
 9435 02f0 03       		.uleb128 0x3
 9436 02f1 0E       		.uleb128 0xe
 9437 02f2 3A       		.uleb128 0x3a
 9438 02f3 0B       		.uleb128 0xb
 9439 02f4 3B       		.uleb128 0x3b
 9440 02f5 05       		.uleb128 0x5
 9441 02f6 27       		.uleb128 0x27
 9442 02f7 19       		.uleb128 0x19
 9443 02f8 20       		.uleb128 0x20
 9444 02f9 0B       		.uleb128 0xb
 9445 02fa 01       		.uleb128 0x1
 9446 02fb 13       		.uleb128 0x13
 9447 02fc 00       		.byte	0
 9448 02fd 00       		.byte	0
 9449 02fe 38       		.uleb128 0x38
 9450 02ff 34       		.uleb128 0x34
ARM GAS  C:\Users\rdn\AppData\Local\Temp\ccIOjLNc.s 			page 194


 9451 0300 00       		.byte	0
 9452 0301 03       		.uleb128 0x3
 9453 0302 08       		.uleb128 0x8
 9454 0303 3A       		.uleb128 0x3a
 9455 0304 0B       		.uleb128 0xb
 9456 0305 3B       		.uleb128 0x3b
 9457 0306 05       		.uleb128 0x5
 9458 0307 49       		.uleb128 0x49
 9459 0308 13       		.uleb128 0x13
 9460 0309 1C       		.uleb128 0x1c
 9461 030a 0A       		.uleb128 0xa
 9462 030b 00       		.byte	0
 9463 030c 00       		.byte	0
 9464 030d 39       		.uleb128 0x39
 9465 030e 2E       		.uleb128 0x2e
 9466 030f 01       		.byte	0x1
 9467 0310 3F       		.uleb128 0x3f
 9468 0311 19       		.uleb128 0x19
 9469 0312 03       		.uleb128 0x3
 9470 0313 0E       		.uleb128 0xe
 9471 0314 3A       		.uleb128 0x3a
 9472 0315 0B       		.uleb128 0xb
 9473 0316 3B       		.uleb128 0x3b
 9474 0317 05       		.uleb128 0x5
 9475 0318 27       		.uleb128 0x27
 9476 0319 19       		.uleb128 0x19
 9477 031a 49       		.uleb128 0x49
 9478 031b 13       		.uleb128 0x13
 9479 031c 11       		.uleb128 0x11
 9480 031d 01       		.uleb128 0x1
 9481 031e 12       		.uleb128 0x12
 9482 031f 06       		.uleb128 0x6
 9483 0320 40       		.uleb128 0x40
 9484 0321 18       		.uleb128 0x18
 9485 0322 9742     		.uleb128 0x2117
 9486 0324 19       		.uleb128 0x19
 9487 0325 01       		.uleb128 0x1
 9488 0326 13       		.uleb128 0x13
 9489 0327 00       		.byte	0
 9490 0328 00       		.byte	0
 9491 0329 3A       		.uleb128 0x3a
 9492 032a 34       		.uleb128 0x34
 9493 032b 00       		.byte	0
 9494 032c 03       		.uleb128 0x3
 9495 032d 0E       		.uleb128 0xe
 9496 032e 3A       		.uleb128 0x3a
 9497 032f 0B       		.uleb128 0xb
 9498 0330 3B       		.uleb128 0x3b
 9499 0331 05       		.uleb128 0x5
 9500 0332 49       		.uleb128 0x49
 9501 0333 13       		.uleb128 0x13
 9502 0334 1C       		.uleb128 0x1c
 9503 0335 05       		.uleb128 0x5
 9504 0336 00       		.byte	0
 9505 0337 00       		.byte	0
 9506 0338 3B       		.uleb128 0x3b
 9507 0339 34       		.uleb128 0x34
ARM GAS  C:\Users\rdn\AppData\Local\Temp\ccIOjLNc.s 			page 195


 9508 033a 00       		.byte	0
 9509 033b 03       		.uleb128 0x3
 9510 033c 0E       		.uleb128 0xe
 9511 033d 3A       		.uleb128 0x3a
 9512 033e 0B       		.uleb128 0xb
 9513 033f 3B       		.uleb128 0x3b
 9514 0340 05       		.uleb128 0x5
 9515 0341 49       		.uleb128 0x49
 9516 0342 13       		.uleb128 0x13
 9517 0343 1C       		.uleb128 0x1c
 9518 0344 0B       		.uleb128 0xb
 9519 0345 00       		.byte	0
 9520 0346 00       		.byte	0
 9521 0347 3C       		.uleb128 0x3c
 9522 0348 1D       		.uleb128 0x1d
 9523 0349 01       		.byte	0x1
 9524 034a 31       		.uleb128 0x31
 9525 034b 13       		.uleb128 0x13
 9526 034c 11       		.uleb128 0x11
 9527 034d 01       		.uleb128 0x1
 9528 034e 12       		.uleb128 0x12
 9529 034f 06       		.uleb128 0x6
 9530 0350 58       		.uleb128 0x58
 9531 0351 0B       		.uleb128 0xb
 9532 0352 59       		.uleb128 0x59
 9533 0353 05       		.uleb128 0x5
 9534 0354 01       		.uleb128 0x1
 9535 0355 13       		.uleb128 0x13
 9536 0356 00       		.byte	0
 9537 0357 00       		.byte	0
 9538 0358 3D       		.uleb128 0x3d
 9539 0359 34       		.uleb128 0x34
 9540 035a 00       		.byte	0
 9541 035b 31       		.uleb128 0x31
 9542 035c 13       		.uleb128 0x13
 9543 035d 00       		.byte	0
 9544 035e 00       		.byte	0
 9545 035f 3E       		.uleb128 0x3e
 9546 0360 05       		.uleb128 0x5
 9547 0361 00       		.byte	0
 9548 0362 31       		.uleb128 0x31
 9549 0363 13       		.uleb128 0x13
 9550 0364 02       		.uleb128 0x2
 9551 0365 18       		.uleb128 0x18
 9552 0366 00       		.byte	0
 9553 0367 00       		.byte	0
 9554 0368 3F       		.uleb128 0x3f
 9555 0369 34       		.uleb128 0x34
 9556 036a 00       		.byte	0
 9557 036b 31       		.uleb128 0x31
 9558 036c 13       		.uleb128 0x13
 9559 036d 02       		.uleb128 0x2
 9560 036e 18       		.uleb128 0x18
 9561 036f 00       		.byte	0
 9562 0370 00       		.byte	0
 9563 0371 40       		.uleb128 0x40
 9564 0372 34       		.uleb128 0x34
ARM GAS  C:\Users\rdn\AppData\Local\Temp\ccIOjLNc.s 			page 196


 9565 0373 00       		.byte	0
 9566 0374 31       		.uleb128 0x31
 9567 0375 13       		.uleb128 0x13
 9568 0376 1C       		.uleb128 0x1c
 9569 0377 0B       		.uleb128 0xb
 9570 0378 00       		.byte	0
 9571 0379 00       		.byte	0
 9572 037a 41       		.uleb128 0x41
 9573 037b 898201   		.uleb128 0x4109
 9574 037e 01       		.byte	0x1
 9575 037f 11       		.uleb128 0x11
 9576 0380 01       		.uleb128 0x1
 9577 0381 31       		.uleb128 0x31
 9578 0382 13       		.uleb128 0x13
 9579 0383 01       		.uleb128 0x1
 9580 0384 13       		.uleb128 0x13
 9581 0385 00       		.byte	0
 9582 0386 00       		.byte	0
 9583 0387 42       		.uleb128 0x42
 9584 0388 898201   		.uleb128 0x4109
 9585 038b 00       		.byte	0
 9586 038c 11       		.uleb128 0x11
 9587 038d 01       		.uleb128 0x1
 9588 038e 31       		.uleb128 0x31
 9589 038f 13       		.uleb128 0x13
 9590 0390 00       		.byte	0
 9591 0391 00       		.byte	0
 9592 0392 43       		.uleb128 0x43
 9593 0393 1D       		.uleb128 0x1d
 9594 0394 01       		.byte	0x1
 9595 0395 31       		.uleb128 0x31
 9596 0396 13       		.uleb128 0x13
 9597 0397 52       		.uleb128 0x52
 9598 0398 01       		.uleb128 0x1
 9599 0399 55       		.uleb128 0x55
 9600 039a 17       		.uleb128 0x17
 9601 039b 58       		.uleb128 0x58
 9602 039c 0B       		.uleb128 0xb
 9603 039d 59       		.uleb128 0x59
 9604 039e 05       		.uleb128 0x5
 9605 039f 01       		.uleb128 0x1
 9606 03a0 13       		.uleb128 0x13
 9607 03a1 00       		.byte	0
 9608 03a2 00       		.byte	0
 9609 03a3 44       		.uleb128 0x44
 9610 03a4 898201   		.uleb128 0x4109
 9611 03a7 01       		.byte	0x1
 9612 03a8 11       		.uleb128 0x11
 9613 03a9 01       		.uleb128 0x1
 9614 03aa 9342     		.uleb128 0x2113
 9615 03ac 18       		.uleb128 0x18
 9616 03ad 01       		.uleb128 0x1
 9617 03ae 13       		.uleb128 0x13
 9618 03af 00       		.byte	0
 9619 03b0 00       		.byte	0
 9620 03b1 45       		.uleb128 0x45
 9621 03b2 2E       		.uleb128 0x2e
ARM GAS  C:\Users\rdn\AppData\Local\Temp\ccIOjLNc.s 			page 197


 9622 03b3 01       		.byte	0x1
 9623 03b4 3F       		.uleb128 0x3f
 9624 03b5 19       		.uleb128 0x19
 9625 03b6 03       		.uleb128 0x3
 9626 03b7 0E       		.uleb128 0xe
 9627 03b8 3A       		.uleb128 0x3a
 9628 03b9 0B       		.uleb128 0xb
 9629 03ba 3B       		.uleb128 0x3b
 9630 03bb 05       		.uleb128 0x5
 9631 03bc 27       		.uleb128 0x27
 9632 03bd 19       		.uleb128 0x19
 9633 03be 11       		.uleb128 0x11
 9634 03bf 01       		.uleb128 0x1
 9635 03c0 12       		.uleb128 0x12
 9636 03c1 06       		.uleb128 0x6
 9637 03c2 40       		.uleb128 0x40
 9638 03c3 18       		.uleb128 0x18
 9639 03c4 9742     		.uleb128 0x2117
 9640 03c6 19       		.uleb128 0x19
 9641 03c7 01       		.uleb128 0x1
 9642 03c8 13       		.uleb128 0x13
 9643 03c9 00       		.byte	0
 9644 03ca 00       		.byte	0
 9645 03cb 46       		.uleb128 0x46
 9646 03cc 898201   		.uleb128 0x4109
 9647 03cf 01       		.byte	0x1
 9648 03d0 11       		.uleb128 0x11
 9649 03d1 01       		.uleb128 0x1
 9650 03d2 01       		.uleb128 0x1
 9651 03d3 13       		.uleb128 0x13
 9652 03d4 00       		.byte	0
 9653 03d5 00       		.byte	0
 9654 03d6 47       		.uleb128 0x47
 9655 03d7 2E       		.uleb128 0x2e
 9656 03d8 01       		.byte	0x1
 9657 03d9 03       		.uleb128 0x3
 9658 03da 0E       		.uleb128 0xe
 9659 03db 3A       		.uleb128 0x3a
 9660 03dc 0B       		.uleb128 0xb
 9661 03dd 3B       		.uleb128 0x3b
 9662 03de 0B       		.uleb128 0xb
 9663 03df 27       		.uleb128 0x27
 9664 03e0 19       		.uleb128 0x19
 9665 03e1 20       		.uleb128 0x20
 9666 03e2 0B       		.uleb128 0xb
 9667 03e3 01       		.uleb128 0x1
 9668 03e4 13       		.uleb128 0x13
 9669 03e5 00       		.byte	0
 9670 03e6 00       		.byte	0
 9671 03e7 48       		.uleb128 0x48
 9672 03e8 34       		.uleb128 0x34
 9673 03e9 00       		.byte	0
 9674 03ea 03       		.uleb128 0x3
 9675 03eb 0E       		.uleb128 0xe
 9676 03ec 3A       		.uleb128 0x3a
 9677 03ed 0B       		.uleb128 0xb
 9678 03ee 3B       		.uleb128 0x3b
ARM GAS  C:\Users\rdn\AppData\Local\Temp\ccIOjLNc.s 			page 198


 9679 03ef 0B       		.uleb128 0xb
 9680 03f0 49       		.uleb128 0x49
 9681 03f1 13       		.uleb128 0x13
 9682 03f2 00       		.byte	0
 9683 03f3 00       		.byte	0
 9684 03f4 49       		.uleb128 0x49
 9685 03f5 05       		.uleb128 0x5
 9686 03f6 00       		.byte	0
 9687 03f7 31       		.uleb128 0x31
 9688 03f8 13       		.uleb128 0x13
 9689 03f9 1C       		.uleb128 0x1c
 9690 03fa 0B       		.uleb128 0xb
 9691 03fb 00       		.byte	0
 9692 03fc 00       		.byte	0
 9693 03fd 4A       		.uleb128 0x4a
 9694 03fe 898201   		.uleb128 0x4109
 9695 0401 01       		.byte	0x1
 9696 0402 11       		.uleb128 0x11
 9697 0403 01       		.uleb128 0x1
 9698 0404 9542     		.uleb128 0x2115
 9699 0406 19       		.uleb128 0x19
 9700 0407 31       		.uleb128 0x31
 9701 0408 13       		.uleb128 0x13
 9702 0409 00       		.byte	0
 9703 040a 00       		.byte	0
 9704 040b 4B       		.uleb128 0x4b
 9705 040c 1D       		.uleb128 0x1d
 9706 040d 01       		.byte	0x1
 9707 040e 31       		.uleb128 0x31
 9708 040f 13       		.uleb128 0x13
 9709 0410 11       		.uleb128 0x11
 9710 0411 01       		.uleb128 0x1
 9711 0412 12       		.uleb128 0x12
 9712 0413 06       		.uleb128 0x6
 9713 0414 58       		.uleb128 0x58
 9714 0415 0B       		.uleb128 0xb
 9715 0416 59       		.uleb128 0x59
 9716 0417 05       		.uleb128 0x5
 9717 0418 00       		.byte	0
 9718 0419 00       		.byte	0
 9719 041a 4C       		.uleb128 0x4c
 9720 041b 34       		.uleb128 0x34
 9721 041c 00       		.byte	0
 9722 041d 03       		.uleb128 0x3
 9723 041e 0E       		.uleb128 0xe
 9724 041f 3A       		.uleb128 0x3a
 9725 0420 0B       		.uleb128 0xb
 9726 0421 3B       		.uleb128 0x3b
 9727 0422 0B       		.uleb128 0xb
 9728 0423 49       		.uleb128 0x49
 9729 0424 13       		.uleb128 0x13
 9730 0425 02       		.uleb128 0x2
 9731 0426 18       		.uleb128 0x18
 9732 0427 00       		.byte	0
 9733 0428 00       		.byte	0
 9734 0429 4D       		.uleb128 0x4d
 9735 042a 15       		.uleb128 0x15
ARM GAS  C:\Users\rdn\AppData\Local\Temp\ccIOjLNc.s 			page 199


 9736 042b 01       		.byte	0x1
 9737 042c 27       		.uleb128 0x27
 9738 042d 19       		.uleb128 0x19
 9739 042e 01       		.uleb128 0x1
 9740 042f 13       		.uleb128 0x13
 9741 0430 00       		.byte	0
 9742 0431 00       		.byte	0
 9743 0432 4E       		.uleb128 0x4e
 9744 0433 05       		.uleb128 0x5
 9745 0434 00       		.byte	0
 9746 0435 49       		.uleb128 0x49
 9747 0436 13       		.uleb128 0x13
 9748 0437 00       		.byte	0
 9749 0438 00       		.byte	0
 9750 0439 4F       		.uleb128 0x4f
 9751 043a 34       		.uleb128 0x34
 9752 043b 00       		.byte	0
 9753 043c 03       		.uleb128 0x3
 9754 043d 0E       		.uleb128 0xe
 9755 043e 3A       		.uleb128 0x3a
 9756 043f 0B       		.uleb128 0xb
 9757 0440 3B       		.uleb128 0x3b
 9758 0441 0B       		.uleb128 0xb
 9759 0442 49       		.uleb128 0x49
 9760 0443 13       		.uleb128 0x13
 9761 0444 3F       		.uleb128 0x3f
 9762 0445 19       		.uleb128 0x19
 9763 0446 3C       		.uleb128 0x3c
 9764 0447 19       		.uleb128 0x19
 9765 0448 00       		.byte	0
 9766 0449 00       		.byte	0
 9767 044a 50       		.uleb128 0x50
 9768 044b 2E       		.uleb128 0x2e
 9769 044c 00       		.byte	0
 9770 044d 3F       		.uleb128 0x3f
 9771 044e 19       		.uleb128 0x19
 9772 044f 3C       		.uleb128 0x3c
 9773 0450 19       		.uleb128 0x19
 9774 0451 6E       		.uleb128 0x6e
 9775 0452 0E       		.uleb128 0xe
 9776 0453 03       		.uleb128 0x3
 9777 0454 0E       		.uleb128 0xe
 9778 0455 3A       		.uleb128 0x3a
 9779 0456 0B       		.uleb128 0xb
 9780 0457 3B       		.uleb128 0x3b
 9781 0458 05       		.uleb128 0x5
 9782 0459 00       		.byte	0
 9783 045a 00       		.byte	0
 9784 045b 51       		.uleb128 0x51
 9785 045c 2E       		.uleb128 0x2e
 9786 045d 00       		.byte	0
 9787 045e 3F       		.uleb128 0x3f
 9788 045f 19       		.uleb128 0x19
 9789 0460 3C       		.uleb128 0x3c
 9790 0461 19       		.uleb128 0x19
 9791 0462 6E       		.uleb128 0x6e
 9792 0463 0E       		.uleb128 0xe
ARM GAS  C:\Users\rdn\AppData\Local\Temp\ccIOjLNc.s 			page 200


 9793 0464 03       		.uleb128 0x3
 9794 0465 0E       		.uleb128 0xe
 9795 0466 3A       		.uleb128 0x3a
 9796 0467 0B       		.uleb128 0xb
 9797 0468 3B       		.uleb128 0x3b
 9798 0469 0B       		.uleb128 0xb
 9799 046a 00       		.byte	0
 9800 046b 00       		.byte	0
 9801 046c 52       		.uleb128 0x52
 9802 046d 2E       		.uleb128 0x2e
 9803 046e 00       		.byte	0
 9804 046f 3F       		.uleb128 0x3f
 9805 0470 19       		.uleb128 0x19
 9806 0471 3C       		.uleb128 0x3c
 9807 0472 19       		.uleb128 0x19
 9808 0473 6E       		.uleb128 0x6e
 9809 0474 0E       		.uleb128 0xe
 9810 0475 03       		.uleb128 0x3
 9811 0476 0E       		.uleb128 0xe
 9812 0477 00       		.byte	0
 9813 0478 00       		.byte	0
 9814 0479 00       		.byte	0
 9815              		.section	.debug_loc,"",%progbits
 9816              	.Ldebug_loc0:
 9817              	.LLST0:
 9818 0000 00000000 		.4byte	.LVL0
 9819 0004 0A000000 		.4byte	.LVL1
 9820 0008 0100     		.2byte	0x1
 9821 000a 51       		.byte	0x51
 9822 000b 0A000000 		.4byte	.LVL1
 9823 000f 68010000 		.4byte	.LVL52
 9824 0013 0100     		.2byte	0x1
 9825 0015 59       		.byte	0x59
 9826 0016 68010000 		.4byte	.LVL52
 9827 001a 74010000 		.4byte	.LFE22
 9828 001e 0400     		.2byte	0x4
 9829 0020 F3       		.byte	0xf3
 9830 0021 01       		.uleb128 0x1
 9831 0022 51       		.byte	0x51
 9832 0023 9F       		.byte	0x9f
 9833 0024 00000000 		.4byte	0
 9834 0028 00000000 		.4byte	0
 9835              	.LLST1:
 9836 002c 00000000 		.4byte	.LVL0
 9837 0030 0C000000 		.4byte	.LVL2
 9838 0034 0100     		.2byte	0x1
 9839 0036 53       		.byte	0x53
 9840 0037 0C000000 		.4byte	.LVL2
 9841 003b 1C000000 		.4byte	.LVL4
 9842 003f 0100     		.2byte	0x1
 9843 0041 58       		.byte	0x58
 9844 0042 1C000000 		.4byte	.LVL4
 9845 0046 68010000 		.4byte	.LVL52
 9846 004a 0600     		.2byte	0x6
 9847 004c 78       		.byte	0x78
 9848 004d 00       		.sleb128 0
 9849 004e 7B       		.byte	0x7b
ARM GAS  C:\Users\rdn\AppData\Local\Temp\ccIOjLNc.s 			page 201


 9850 004f 00       		.sleb128 0
 9851 0050 22       		.byte	0x22
 9852 0051 9F       		.byte	0x9f
 9853 0052 68010000 		.4byte	.LVL52
 9854 0056 74010000 		.4byte	.LFE22
 9855 005a 0B00     		.2byte	0xb
 9856 005c F3       		.byte	0xf3
 9857 005d 01       		.uleb128 0x1
 9858 005e 53       		.byte	0x53
 9859 005f 73       		.byte	0x73
 9860 0060 00       		.sleb128 0
 9861 0061 31       		.byte	0x31
 9862 0062 24       		.byte	0x24
 9863 0063 1C       		.byte	0x1c
 9864 0064 23       		.byte	0x23
 9865 0065 02       		.uleb128 0x2
 9866 0066 9F       		.byte	0x9f
 9867 0067 00000000 		.4byte	0
 9868 006b 00000000 		.4byte	0
 9869              	.LLST2:
 9870 006f 00000000 		.4byte	.LVL0
 9871 0073 1E000000 		.4byte	.LVL5
 9872 0077 0200     		.2byte	0x2
 9873 0079 91       		.byte	0x91
 9874 007a 00       		.sleb128 0
 9875 007b 1E000000 		.4byte	.LVL5
 9876 007f 58010000 		.4byte	.LVL47
 9877 0083 0200     		.2byte	0x2
 9878 0085 91       		.byte	0x91
 9879 0086 00       		.sleb128 0
 9880 0087 58010000 		.4byte	.LVL47
 9881 008b 5C010000 		.4byte	.LVL48
 9882 008f 0100     		.2byte	0x1
 9883 0091 54       		.byte	0x54
 9884 0092 5C010000 		.4byte	.LVL48
 9885 0096 60010000 		.4byte	.LVL50
 9886 009a 0200     		.2byte	0x2
 9887 009c 91       		.byte	0x91
 9888 009d 00       		.sleb128 0
 9889 009e 60010000 		.4byte	.LVL50
 9890 00a2 62010000 		.4byte	.LVL51
 9891 00a6 0300     		.2byte	0x3
 9892 00a8 74       		.byte	0x74
 9893 00a9 7E       		.sleb128 -2
 9894 00aa 9F       		.byte	0x9f
 9895 00ab 62010000 		.4byte	.LVL51
 9896 00af 68010000 		.4byte	.LVL52
 9897 00b3 0200     		.2byte	0x2
 9898 00b5 91       		.byte	0x91
 9899 00b6 00       		.sleb128 0
 9900 00b7 68010000 		.4byte	.LVL52
 9901 00bb 74010000 		.4byte	.LFE22
 9902 00bf 0200     		.2byte	0x2
 9903 00c1 7D       		.byte	0x7d
 9904 00c2 00       		.sleb128 0
 9905 00c3 00000000 		.4byte	0
 9906 00c7 00000000 		.4byte	0
ARM GAS  C:\Users\rdn\AppData\Local\Temp\ccIOjLNc.s 			page 202


 9907              	.LLST3:
 9908 00cb 00000000 		.4byte	.LVL0
 9909 00cf 68010000 		.4byte	.LVL52
 9910 00d3 0200     		.2byte	0x2
 9911 00d5 91       		.byte	0x91
 9912 00d6 04       		.sleb128 4
 9913 00d7 68010000 		.4byte	.LVL52
 9914 00db 74010000 		.4byte	.LFE22
 9915 00df 0200     		.2byte	0x2
 9916 00e1 7D       		.byte	0x7d
 9917 00e2 04       		.sleb128 4
 9918 00e3 00000000 		.4byte	0
 9919 00e7 00000000 		.4byte	0
 9920              	.LLST4:
 9921 00eb 1C000000 		.4byte	.LVL4
 9922 00ef 1E000000 		.4byte	.LVL5
 9923 00f3 0200     		.2byte	0x2
 9924 00f5 30       		.byte	0x30
 9925 00f6 9F       		.byte	0x9f
 9926 00f7 1E000000 		.4byte	.LVL5
 9927 00fb 74010000 		.4byte	.LFE22
 9928 00ff 0100     		.2byte	0x1
 9929 0101 51       		.byte	0x51
 9930 0102 00000000 		.4byte	0
 9931 0106 00000000 		.4byte	0
 9932              	.LLST5:
 9933 010a 24000000 		.4byte	.LVL6
 9934 010e 3E000000 		.4byte	.LVL7
 9935 0112 1200     		.2byte	0x12
 9936 0114 71       		.byte	0x71
 9937 0115 00       		.sleb128 0
 9938 0116 70       		.byte	0x70
 9939 0117 00       		.sleb128 0
 9940 0118 14       		.byte	0x14
 9941 0119 14       		.byte	0x14
 9942 011a 1B       		.byte	0x1b
 9943 011b 1E       		.byte	0x1e
 9944 011c 1C       		.byte	0x1c
 9945 011d 73       		.byte	0x73
 9946 011e 00       		.sleb128 0
 9947 011f 1E       		.byte	0x1e
 9948 0120 31       		.byte	0x31
 9949 0121 24       		.byte	0x24
 9950 0122 79       		.byte	0x79
 9951 0123 00       		.sleb128 0
 9952 0124 22       		.byte	0x22
 9953 0125 9F       		.byte	0x9f
 9954 0126 3E000000 		.4byte	.LVL7
 9955 012a 48000000 		.4byte	.LVL8
 9956 012e 2300     		.2byte	0x23
 9957 0130 71       		.byte	0x71
 9958 0131 00       		.sleb128 0
 9959 0132 70       		.byte	0x70
 9960 0133 00       		.sleb128 0
 9961 0134 14       		.byte	0x14
 9962 0135 14       		.byte	0x14
 9963 0136 1B       		.byte	0x1b
ARM GAS  C:\Users\rdn\AppData\Local\Temp\ccIOjLNc.s 			page 203


 9964 0137 1E       		.byte	0x1e
 9965 0138 1C       		.byte	0x1c
 9966 0139 73       		.byte	0x73
 9967 013a 00       		.sleb128 0
 9968 013b 1E       		.byte	0x1e
 9969 013c 31       		.byte	0x31
 9970 013d 24       		.byte	0x24
 9971 013e 71       		.byte	0x71
 9972 013f 00       		.sleb128 0
 9973 0140 70       		.byte	0x70
 9974 0141 00       		.sleb128 0
 9975 0142 1B       		.byte	0x1b
 9976 0143 31       		.byte	0x31
 9977 0144 24       		.byte	0x24
 9978 0145 1C       		.byte	0x1c
 9979 0146 78       		.byte	0x78
 9980 0147 00       		.sleb128 0
 9981 0148 1C       		.byte	0x1c
 9982 0149 79       		.byte	0x79
 9983 014a 00       		.sleb128 0
 9984 014b 22       		.byte	0x22
 9985 014c 76       		.byte	0x76
 9986 014d 00       		.sleb128 0
 9987 014e 22       		.byte	0x22
 9988 014f 7B       		.byte	0x7b
 9989 0150 00       		.sleb128 0
 9990 0151 1C       		.byte	0x1c
 9991 0152 9F       		.byte	0x9f
 9992 0153 48000000 		.4byte	.LVL8
 9993 0157 52000000 		.4byte	.LVL10
 9994 015b 2500     		.2byte	0x25
 9995 015d 71       		.byte	0x71
 9996 015e 00       		.sleb128 0
 9997 015f 70       		.byte	0x70
 9998 0160 00       		.sleb128 0
 9999 0161 14       		.byte	0x14
 10000 0162 14       		.byte	0x14
 10001 0163 1B       		.byte	0x1b
 10002 0164 1E       		.byte	0x1e
 10003 0165 1C       		.byte	0x1c
 10004 0166 73       		.byte	0x73
 10005 0167 00       		.sleb128 0
 10006 0168 1E       		.byte	0x1e
 10007 0169 31       		.byte	0x31
 10008 016a 24       		.byte	0x24
 10009 016b 71       		.byte	0x71
 10010 016c 00       		.sleb128 0
 10011 016d 70       		.byte	0x70
 10012 016e 00       		.sleb128 0
 10013 016f 1B       		.byte	0x1b
 10014 0170 31       		.byte	0x31
 10015 0171 24       		.byte	0x24
 10016 0172 1C       		.byte	0x1c
 10017 0173 78       		.byte	0x78
 10018 0174 00       		.sleb128 0
 10019 0175 1C       		.byte	0x1c
 10020 0176 79       		.byte	0x79
ARM GAS  C:\Users\rdn\AppData\Local\Temp\ccIOjLNc.s 			page 204


 10021 0177 00       		.sleb128 0
 10022 0178 22       		.byte	0x22
 10023 0179 76       		.byte	0x76
 10024 017a 00       		.sleb128 0
 10025 017b 22       		.byte	0x22
 10026 017c 7B       		.byte	0x7b
 10027 017d 00       		.sleb128 0
 10028 017e 1C       		.byte	0x1c
 10029 017f 4E       		.byte	0x4e
 10030 0180 1C       		.byte	0x1c
 10031 0181 9F       		.byte	0x9f
 10032 0182 52000000 		.4byte	.LVL10
 10033 0186 5A000000 		.4byte	.LVL12
 10034 018a 2500     		.2byte	0x25
 10035 018c 71       		.byte	0x71
 10036 018d 00       		.sleb128 0
 10037 018e 70       		.byte	0x70
 10038 018f 00       		.sleb128 0
 10039 0190 14       		.byte	0x14
 10040 0191 14       		.byte	0x14
 10041 0192 1B       		.byte	0x1b
 10042 0193 1E       		.byte	0x1e
 10043 0194 1C       		.byte	0x1c
 10044 0195 73       		.byte	0x73
 10045 0196 00       		.sleb128 0
 10046 0197 1E       		.byte	0x1e
 10047 0198 31       		.byte	0x31
 10048 0199 24       		.byte	0x24
 10049 019a 71       		.byte	0x71
 10050 019b 00       		.sleb128 0
 10051 019c 70       		.byte	0x70
 10052 019d 00       		.sleb128 0
 10053 019e 1B       		.byte	0x1b
 10054 019f 31       		.byte	0x31
 10055 01a0 24       		.byte	0x24
 10056 01a1 1C       		.byte	0x1c
 10057 01a2 78       		.byte	0x78
 10058 01a3 00       		.sleb128 0
 10059 01a4 1C       		.byte	0x1c
 10060 01a5 79       		.byte	0x79
 10061 01a6 00       		.sleb128 0
 10062 01a7 22       		.byte	0x22
 10063 01a8 76       		.byte	0x76
 10064 01a9 00       		.sleb128 0
 10065 01aa 22       		.byte	0x22
 10066 01ab 7B       		.byte	0x7b
 10067 01ac 00       		.sleb128 0
 10068 01ad 1C       		.byte	0x1c
 10069 01ae 4C       		.byte	0x4c
 10070 01af 1C       		.byte	0x1c
 10071 01b0 9F       		.byte	0x9f
 10072 01b1 5A000000 		.4byte	.LVL12
 10073 01b5 6A000000 		.4byte	.LVL14
 10074 01b9 2500     		.2byte	0x25
 10075 01bb 71       		.byte	0x71
 10076 01bc 00       		.sleb128 0
 10077 01bd 70       		.byte	0x70
ARM GAS  C:\Users\rdn\AppData\Local\Temp\ccIOjLNc.s 			page 205


 10078 01be 00       		.sleb128 0
 10079 01bf 14       		.byte	0x14
 10080 01c0 14       		.byte	0x14
 10081 01c1 1B       		.byte	0x1b
 10082 01c2 1E       		.byte	0x1e
 10083 01c3 1C       		.byte	0x1c
 10084 01c4 73       		.byte	0x73
 10085 01c5 00       		.sleb128 0
 10086 01c6 1E       		.byte	0x1e
 10087 01c7 31       		.byte	0x31
 10088 01c8 24       		.byte	0x24
 10089 01c9 71       		.byte	0x71
 10090 01ca 00       		.sleb128 0
 10091 01cb 70       		.byte	0x70
 10092 01cc 00       		.sleb128 0
 10093 01cd 1B       		.byte	0x1b
 10094 01ce 31       		.byte	0x31
 10095 01cf 24       		.byte	0x24
 10096 01d0 1C       		.byte	0x1c
 10097 01d1 78       		.byte	0x78
 10098 01d2 00       		.sleb128 0
 10099 01d3 1C       		.byte	0x1c
 10100 01d4 79       		.byte	0x79
 10101 01d5 00       		.sleb128 0
 10102 01d6 22       		.byte	0x22
 10103 01d7 76       		.byte	0x76
 10104 01d8 00       		.sleb128 0
 10105 01d9 22       		.byte	0x22
 10106 01da 7B       		.byte	0x7b
 10107 01db 00       		.sleb128 0
 10108 01dc 1C       		.byte	0x1c
 10109 01dd 4A       		.byte	0x4a
 10110 01de 1C       		.byte	0x1c
 10111 01df 9F       		.byte	0x9f
 10112 01e0 6A000000 		.4byte	.LVL14
 10113 01e4 76000000 		.4byte	.LVL16
 10114 01e8 2500     		.2byte	0x25
 10115 01ea 71       		.byte	0x71
 10116 01eb 00       		.sleb128 0
 10117 01ec 70       		.byte	0x70
 10118 01ed 00       		.sleb128 0
 10119 01ee 14       		.byte	0x14
 10120 01ef 14       		.byte	0x14
 10121 01f0 1B       		.byte	0x1b
 10122 01f1 1E       		.byte	0x1e
 10123 01f2 1C       		.byte	0x1c
 10124 01f3 73       		.byte	0x73
 10125 01f4 00       		.sleb128 0
 10126 01f5 1E       		.byte	0x1e
 10127 01f6 31       		.byte	0x31
 10128 01f7 24       		.byte	0x24
 10129 01f8 71       		.byte	0x71
 10130 01f9 00       		.sleb128 0
 10131 01fa 70       		.byte	0x70
 10132 01fb 00       		.sleb128 0
 10133 01fc 1B       		.byte	0x1b
 10134 01fd 31       		.byte	0x31
ARM GAS  C:\Users\rdn\AppData\Local\Temp\ccIOjLNc.s 			page 206


 10135 01fe 24       		.byte	0x24
 10136 01ff 1C       		.byte	0x1c
 10137 0200 78       		.byte	0x78
 10138 0201 00       		.sleb128 0
 10139 0202 1C       		.byte	0x1c
 10140 0203 79       		.byte	0x79
 10141 0204 00       		.sleb128 0
 10142 0205 22       		.byte	0x22
 10143 0206 76       		.byte	0x76
 10144 0207 00       		.sleb128 0
 10145 0208 22       		.byte	0x22
 10146 0209 7B       		.byte	0x7b
 10147 020a 00       		.sleb128 0
 10148 020b 1C       		.byte	0x1c
 10149 020c 48       		.byte	0x48
 10150 020d 1C       		.byte	0x1c
 10151 020e 9F       		.byte	0x9f
 10152 020f 76000000 		.4byte	.LVL16
 10153 0213 7E000000 		.4byte	.LVL18
 10154 0217 2500     		.2byte	0x25
 10155 0219 71       		.byte	0x71
 10156 021a 00       		.sleb128 0
 10157 021b 70       		.byte	0x70
 10158 021c 00       		.sleb128 0
 10159 021d 14       		.byte	0x14
 10160 021e 14       		.byte	0x14
 10161 021f 1B       		.byte	0x1b
 10162 0220 1E       		.byte	0x1e
 10163 0221 1C       		.byte	0x1c
 10164 0222 73       		.byte	0x73
 10165 0223 00       		.sleb128 0
 10166 0224 1E       		.byte	0x1e
 10167 0225 31       		.byte	0x31
 10168 0226 24       		.byte	0x24
 10169 0227 71       		.byte	0x71
 10170 0228 00       		.sleb128 0
 10171 0229 70       		.byte	0x70
 10172 022a 00       		.sleb128 0
 10173 022b 1B       		.byte	0x1b
 10174 022c 31       		.byte	0x31
 10175 022d 24       		.byte	0x24
 10176 022e 1C       		.byte	0x1c
 10177 022f 78       		.byte	0x78
 10178 0230 00       		.sleb128 0
 10179 0231 1C       		.byte	0x1c
 10180 0232 79       		.byte	0x79
 10181 0233 00       		.sleb128 0
 10182 0234 22       		.byte	0x22
 10183 0235 76       		.byte	0x76
 10184 0236 00       		.sleb128 0
 10185 0237 22       		.byte	0x22
 10186 0238 7B       		.byte	0x7b
 10187 0239 00       		.sleb128 0
 10188 023a 1C       		.byte	0x1c
 10189 023b 46       		.byte	0x46
 10190 023c 1C       		.byte	0x1c
 10191 023d 9F       		.byte	0x9f
ARM GAS  C:\Users\rdn\AppData\Local\Temp\ccIOjLNc.s 			page 207


 10192 023e 7E000000 		.4byte	.LVL18
 10193 0242 8E000000 		.4byte	.LVL20
 10194 0246 2500     		.2byte	0x25
 10195 0248 71       		.byte	0x71
 10196 0249 00       		.sleb128 0
 10197 024a 70       		.byte	0x70
 10198 024b 00       		.sleb128 0
 10199 024c 14       		.byte	0x14
 10200 024d 14       		.byte	0x14
 10201 024e 1B       		.byte	0x1b
 10202 024f 1E       		.byte	0x1e
 10203 0250 1C       		.byte	0x1c
 10204 0251 73       		.byte	0x73
 10205 0252 00       		.sleb128 0
 10206 0253 1E       		.byte	0x1e
 10207 0254 31       		.byte	0x31
 10208 0255 24       		.byte	0x24
 10209 0256 71       		.byte	0x71
 10210 0257 00       		.sleb128 0
 10211 0258 70       		.byte	0x70
 10212 0259 00       		.sleb128 0
 10213 025a 1B       		.byte	0x1b
 10214 025b 31       		.byte	0x31
 10215 025c 24       		.byte	0x24
 10216 025d 1C       		.byte	0x1c
 10217 025e 78       		.byte	0x78
 10218 025f 00       		.sleb128 0
 10219 0260 1C       		.byte	0x1c
 10220 0261 79       		.byte	0x79
 10221 0262 00       		.sleb128 0
 10222 0263 22       		.byte	0x22
 10223 0264 76       		.byte	0x76
 10224 0265 00       		.sleb128 0
 10225 0266 22       		.byte	0x22
 10226 0267 7B       		.byte	0x7b
 10227 0268 00       		.sleb128 0
 10228 0269 1C       		.byte	0x1c
 10229 026a 44       		.byte	0x44
 10230 026b 1C       		.byte	0x1c
 10231 026c 9F       		.byte	0x9f
 10232 026d 8E000000 		.4byte	.LVL20
 10233 0271 9A000000 		.4byte	.LVL22
 10234 0275 2500     		.2byte	0x25
 10235 0277 71       		.byte	0x71
 10236 0278 00       		.sleb128 0
 10237 0279 70       		.byte	0x70
 10238 027a 00       		.sleb128 0
 10239 027b 14       		.byte	0x14
 10240 027c 14       		.byte	0x14
 10241 027d 1B       		.byte	0x1b
 10242 027e 1E       		.byte	0x1e
 10243 027f 1C       		.byte	0x1c
 10244 0280 73       		.byte	0x73
 10245 0281 00       		.sleb128 0
 10246 0282 1E       		.byte	0x1e
 10247 0283 31       		.byte	0x31
 10248 0284 24       		.byte	0x24
ARM GAS  C:\Users\rdn\AppData\Local\Temp\ccIOjLNc.s 			page 208


 10249 0285 71       		.byte	0x71
 10250 0286 00       		.sleb128 0
 10251 0287 70       		.byte	0x70
 10252 0288 00       		.sleb128 0
 10253 0289 1B       		.byte	0x1b
 10254 028a 31       		.byte	0x31
 10255 028b 24       		.byte	0x24
 10256 028c 1C       		.byte	0x1c
 10257 028d 78       		.byte	0x78
 10258 028e 00       		.sleb128 0
 10259 028f 1C       		.byte	0x1c
 10260 0290 79       		.byte	0x79
 10261 0291 00       		.sleb128 0
 10262 0292 22       		.byte	0x22
 10263 0293 76       		.byte	0x76
 10264 0294 00       		.sleb128 0
 10265 0295 22       		.byte	0x22
 10266 0296 7B       		.byte	0x7b
 10267 0297 00       		.sleb128 0
 10268 0298 1C       		.byte	0x1c
 10269 0299 42       		.byte	0x42
 10270 029a 1C       		.byte	0x1c
 10271 029b 9F       		.byte	0x9f
 10272 029c 9A000000 		.4byte	.LVL22
 10273 02a0 A2000000 		.4byte	.LVL24
 10274 02a4 2500     		.2byte	0x25
 10275 02a6 71       		.byte	0x71
 10276 02a7 00       		.sleb128 0
 10277 02a8 70       		.byte	0x70
 10278 02a9 00       		.sleb128 0
 10279 02aa 14       		.byte	0x14
 10280 02ab 14       		.byte	0x14
 10281 02ac 1B       		.byte	0x1b
 10282 02ad 1E       		.byte	0x1e
 10283 02ae 1C       		.byte	0x1c
 10284 02af 73       		.byte	0x73
 10285 02b0 00       		.sleb128 0
 10286 02b1 1E       		.byte	0x1e
 10287 02b2 31       		.byte	0x31
 10288 02b3 24       		.byte	0x24
 10289 02b4 71       		.byte	0x71
 10290 02b5 00       		.sleb128 0
 10291 02b6 70       		.byte	0x70
 10292 02b7 00       		.sleb128 0
 10293 02b8 1B       		.byte	0x1b
 10294 02b9 31       		.byte	0x31
 10295 02ba 24       		.byte	0x24
 10296 02bb 1C       		.byte	0x1c
 10297 02bc 78       		.byte	0x78
 10298 02bd 00       		.sleb128 0
 10299 02be 1C       		.byte	0x1c
 10300 02bf 79       		.byte	0x79
 10301 02c0 00       		.sleb128 0
 10302 02c1 22       		.byte	0x22
 10303 02c2 76       		.byte	0x76
 10304 02c3 00       		.sleb128 0
 10305 02c4 22       		.byte	0x22
ARM GAS  C:\Users\rdn\AppData\Local\Temp\ccIOjLNc.s 			page 209


 10306 02c5 7B       		.byte	0x7b
 10307 02c6 00       		.sleb128 0
 10308 02c7 1C       		.byte	0x1c
 10309 02c8 40       		.byte	0x40
 10310 02c9 1C       		.byte	0x1c
 10311 02ca 9F       		.byte	0x9f
 10312 02cb A2000000 		.4byte	.LVL24
 10313 02cf B2000000 		.4byte	.LVL26
 10314 02d3 2500     		.2byte	0x25
 10315 02d5 71       		.byte	0x71
 10316 02d6 00       		.sleb128 0
 10317 02d7 70       		.byte	0x70
 10318 02d8 00       		.sleb128 0
 10319 02d9 14       		.byte	0x14
 10320 02da 14       		.byte	0x14
 10321 02db 1B       		.byte	0x1b
 10322 02dc 1E       		.byte	0x1e
 10323 02dd 1C       		.byte	0x1c
 10324 02de 73       		.byte	0x73
 10325 02df 00       		.sleb128 0
 10326 02e0 1E       		.byte	0x1e
 10327 02e1 31       		.byte	0x31
 10328 02e2 24       		.byte	0x24
 10329 02e3 71       		.byte	0x71
 10330 02e4 00       		.sleb128 0
 10331 02e5 70       		.byte	0x70
 10332 02e6 00       		.sleb128 0
 10333 02e7 1B       		.byte	0x1b
 10334 02e8 31       		.byte	0x31
 10335 02e9 24       		.byte	0x24
 10336 02ea 1C       		.byte	0x1c
 10337 02eb 78       		.byte	0x78
 10338 02ec 00       		.sleb128 0
 10339 02ed 1C       		.byte	0x1c
 10340 02ee 79       		.byte	0x79
 10341 02ef 00       		.sleb128 0
 10342 02f0 22       		.byte	0x22
 10343 02f1 76       		.byte	0x76
 10344 02f2 00       		.sleb128 0
 10345 02f3 22       		.byte	0x22
 10346 02f4 7B       		.byte	0x7b
 10347 02f5 00       		.sleb128 0
 10348 02f6 1C       		.byte	0x1c
 10349 02f7 3E       		.byte	0x3e
 10350 02f8 1C       		.byte	0x1c
 10351 02f9 9F       		.byte	0x9f
 10352 02fa B2000000 		.4byte	.LVL26
 10353 02fe BE000000 		.4byte	.LVL28
 10354 0302 2500     		.2byte	0x25
 10355 0304 71       		.byte	0x71
 10356 0305 00       		.sleb128 0
 10357 0306 70       		.byte	0x70
 10358 0307 00       		.sleb128 0
 10359 0308 14       		.byte	0x14
 10360 0309 14       		.byte	0x14
 10361 030a 1B       		.byte	0x1b
 10362 030b 1E       		.byte	0x1e
ARM GAS  C:\Users\rdn\AppData\Local\Temp\ccIOjLNc.s 			page 210


 10363 030c 1C       		.byte	0x1c
 10364 030d 73       		.byte	0x73
 10365 030e 00       		.sleb128 0
 10366 030f 1E       		.byte	0x1e
 10367 0310 31       		.byte	0x31
 10368 0311 24       		.byte	0x24
 10369 0312 71       		.byte	0x71
 10370 0313 00       		.sleb128 0
 10371 0314 70       		.byte	0x70
 10372 0315 00       		.sleb128 0
 10373 0316 1B       		.byte	0x1b
 10374 0317 31       		.byte	0x31
 10375 0318 24       		.byte	0x24
 10376 0319 1C       		.byte	0x1c
 10377 031a 78       		.byte	0x78
 10378 031b 00       		.sleb128 0
 10379 031c 1C       		.byte	0x1c
 10380 031d 79       		.byte	0x79
 10381 031e 00       		.sleb128 0
 10382 031f 22       		.byte	0x22
 10383 0320 76       		.byte	0x76
 10384 0321 00       		.sleb128 0
 10385 0322 22       		.byte	0x22
 10386 0323 7B       		.byte	0x7b
 10387 0324 00       		.sleb128 0
 10388 0325 1C       		.byte	0x1c
 10389 0326 3C       		.byte	0x3c
 10390 0327 1C       		.byte	0x1c
 10391 0328 9F       		.byte	0x9f
 10392 0329 BE000000 		.4byte	.LVL28
 10393 032d C6000000 		.4byte	.LVL30
 10394 0331 2500     		.2byte	0x25
 10395 0333 71       		.byte	0x71
 10396 0334 00       		.sleb128 0
 10397 0335 70       		.byte	0x70
 10398 0336 00       		.sleb128 0
 10399 0337 14       		.byte	0x14
 10400 0338 14       		.byte	0x14
 10401 0339 1B       		.byte	0x1b
 10402 033a 1E       		.byte	0x1e
 10403 033b 1C       		.byte	0x1c
 10404 033c 73       		.byte	0x73
 10405 033d 00       		.sleb128 0
 10406 033e 1E       		.byte	0x1e
 10407 033f 31       		.byte	0x31
 10408 0340 24       		.byte	0x24
 10409 0341 71       		.byte	0x71
 10410 0342 00       		.sleb128 0
 10411 0343 70       		.byte	0x70
 10412 0344 00       		.sleb128 0
 10413 0345 1B       		.byte	0x1b
 10414 0346 31       		.byte	0x31
 10415 0347 24       		.byte	0x24
 10416 0348 1C       		.byte	0x1c
 10417 0349 78       		.byte	0x78
 10418 034a 00       		.sleb128 0
 10419 034b 1C       		.byte	0x1c
ARM GAS  C:\Users\rdn\AppData\Local\Temp\ccIOjLNc.s 			page 211


 10420 034c 79       		.byte	0x79
 10421 034d 00       		.sleb128 0
 10422 034e 22       		.byte	0x22
 10423 034f 76       		.byte	0x76
 10424 0350 00       		.sleb128 0
 10425 0351 22       		.byte	0x22
 10426 0352 7B       		.byte	0x7b
 10427 0353 00       		.sleb128 0
 10428 0354 1C       		.byte	0x1c
 10429 0355 3A       		.byte	0x3a
 10430 0356 1C       		.byte	0x1c
 10431 0357 9F       		.byte	0x9f
 10432 0358 C6000000 		.4byte	.LVL30
 10433 035c D6000000 		.4byte	.LVL32
 10434 0360 2500     		.2byte	0x25
 10435 0362 71       		.byte	0x71
 10436 0363 00       		.sleb128 0
 10437 0364 70       		.byte	0x70
 10438 0365 00       		.sleb128 0
 10439 0366 14       		.byte	0x14
 10440 0367 14       		.byte	0x14
 10441 0368 1B       		.byte	0x1b
 10442 0369 1E       		.byte	0x1e
 10443 036a 1C       		.byte	0x1c
 10444 036b 73       		.byte	0x73
 10445 036c 00       		.sleb128 0
 10446 036d 1E       		.byte	0x1e
 10447 036e 31       		.byte	0x31
 10448 036f 24       		.byte	0x24
 10449 0370 71       		.byte	0x71
 10450 0371 00       		.sleb128 0
 10451 0372 70       		.byte	0x70
 10452 0373 00       		.sleb128 0
 10453 0374 1B       		.byte	0x1b
 10454 0375 31       		.byte	0x31
 10455 0376 24       		.byte	0x24
 10456 0377 1C       		.byte	0x1c
 10457 0378 78       		.byte	0x78
 10458 0379 00       		.sleb128 0
 10459 037a 1C       		.byte	0x1c
 10460 037b 79       		.byte	0x79
 10461 037c 00       		.sleb128 0
 10462 037d 22       		.byte	0x22
 10463 037e 76       		.byte	0x76
 10464 037f 00       		.sleb128 0
 10465 0380 22       		.byte	0x22
 10466 0381 7B       		.byte	0x7b
 10467 0382 00       		.sleb128 0
 10468 0383 1C       		.byte	0x1c
 10469 0384 38       		.byte	0x38
 10470 0385 1C       		.byte	0x1c
 10471 0386 9F       		.byte	0x9f
 10472 0387 D6000000 		.4byte	.LVL32
 10473 038b E2000000 		.4byte	.LVL34
 10474 038f 2500     		.2byte	0x25
 10475 0391 71       		.byte	0x71
 10476 0392 00       		.sleb128 0
ARM GAS  C:\Users\rdn\AppData\Local\Temp\ccIOjLNc.s 			page 212


 10477 0393 70       		.byte	0x70
 10478 0394 00       		.sleb128 0
 10479 0395 14       		.byte	0x14
 10480 0396 14       		.byte	0x14
 10481 0397 1B       		.byte	0x1b
 10482 0398 1E       		.byte	0x1e
 10483 0399 1C       		.byte	0x1c
 10484 039a 73       		.byte	0x73
 10485 039b 00       		.sleb128 0
 10486 039c 1E       		.byte	0x1e
 10487 039d 31       		.byte	0x31
 10488 039e 24       		.byte	0x24
 10489 039f 71       		.byte	0x71
 10490 03a0 00       		.sleb128 0
 10491 03a1 70       		.byte	0x70
 10492 03a2 00       		.sleb128 0
 10493 03a3 1B       		.byte	0x1b
 10494 03a4 31       		.byte	0x31
 10495 03a5 24       		.byte	0x24
 10496 03a6 1C       		.byte	0x1c
 10497 03a7 78       		.byte	0x78
 10498 03a8 00       		.sleb128 0
 10499 03a9 1C       		.byte	0x1c
 10500 03aa 79       		.byte	0x79
 10501 03ab 00       		.sleb128 0
 10502 03ac 22       		.byte	0x22
 10503 03ad 76       		.byte	0x76
 10504 03ae 00       		.sleb128 0
 10505 03af 22       		.byte	0x22
 10506 03b0 7B       		.byte	0x7b
 10507 03b1 00       		.sleb128 0
 10508 03b2 1C       		.byte	0x1c
 10509 03b3 36       		.byte	0x36
 10510 03b4 1C       		.byte	0x1c
 10511 03b5 9F       		.byte	0x9f
 10512 03b6 E2000000 		.4byte	.LVL34
 10513 03ba EA000000 		.4byte	.LVL36
 10514 03be 2500     		.2byte	0x25
 10515 03c0 71       		.byte	0x71
 10516 03c1 00       		.sleb128 0
 10517 03c2 70       		.byte	0x70
 10518 03c3 00       		.sleb128 0
 10519 03c4 14       		.byte	0x14
 10520 03c5 14       		.byte	0x14
 10521 03c6 1B       		.byte	0x1b
 10522 03c7 1E       		.byte	0x1e
 10523 03c8 1C       		.byte	0x1c
 10524 03c9 73       		.byte	0x73
 10525 03ca 00       		.sleb128 0
 10526 03cb 1E       		.byte	0x1e
 10527 03cc 31       		.byte	0x31
 10528 03cd 24       		.byte	0x24
 10529 03ce 71       		.byte	0x71
 10530 03cf 00       		.sleb128 0
 10531 03d0 70       		.byte	0x70
 10532 03d1 00       		.sleb128 0
 10533 03d2 1B       		.byte	0x1b
ARM GAS  C:\Users\rdn\AppData\Local\Temp\ccIOjLNc.s 			page 213


 10534 03d3 31       		.byte	0x31
 10535 03d4 24       		.byte	0x24
 10536 03d5 1C       		.byte	0x1c
 10537 03d6 78       		.byte	0x78
 10538 03d7 00       		.sleb128 0
 10539 03d8 1C       		.byte	0x1c
 10540 03d9 79       		.byte	0x79
 10541 03da 00       		.sleb128 0
 10542 03db 22       		.byte	0x22
 10543 03dc 76       		.byte	0x76
 10544 03dd 00       		.sleb128 0
 10545 03de 22       		.byte	0x22
 10546 03df 7B       		.byte	0x7b
 10547 03e0 00       		.sleb128 0
 10548 03e1 1C       		.byte	0x1c
 10549 03e2 34       		.byte	0x34
 10550 03e3 1C       		.byte	0x1c
 10551 03e4 9F       		.byte	0x9f
 10552 03e5 EA000000 		.4byte	.LVL36
 10553 03e9 F6000000 		.4byte	.LVL38
 10554 03ed 2500     		.2byte	0x25
 10555 03ef 71       		.byte	0x71
 10556 03f0 00       		.sleb128 0
 10557 03f1 70       		.byte	0x70
 10558 03f2 00       		.sleb128 0
 10559 03f3 14       		.byte	0x14
 10560 03f4 14       		.byte	0x14
 10561 03f5 1B       		.byte	0x1b
 10562 03f6 1E       		.byte	0x1e
 10563 03f7 1C       		.byte	0x1c
 10564 03f8 73       		.byte	0x73
 10565 03f9 00       		.sleb128 0
 10566 03fa 1E       		.byte	0x1e
 10567 03fb 31       		.byte	0x31
 10568 03fc 24       		.byte	0x24
 10569 03fd 71       		.byte	0x71
 10570 03fe 00       		.sleb128 0
 10571 03ff 70       		.byte	0x70
 10572 0400 00       		.sleb128 0
 10573 0401 1B       		.byte	0x1b
 10574 0402 31       		.byte	0x31
 10575 0403 24       		.byte	0x24
 10576 0404 1C       		.byte	0x1c
 10577 0405 78       		.byte	0x78
 10578 0406 00       		.sleb128 0
 10579 0407 1C       		.byte	0x1c
 10580 0408 79       		.byte	0x79
 10581 0409 00       		.sleb128 0
 10582 040a 22       		.byte	0x22
 10583 040b 76       		.byte	0x76
 10584 040c 00       		.sleb128 0
 10585 040d 22       		.byte	0x22
 10586 040e 7B       		.byte	0x7b
 10587 040f 00       		.sleb128 0
 10588 0410 1C       		.byte	0x1c
 10589 0411 32       		.byte	0x32
 10590 0412 1C       		.byte	0x1c
ARM GAS  C:\Users\rdn\AppData\Local\Temp\ccIOjLNc.s 			page 214


 10591 0413 9F       		.byte	0x9f
 10592 0414 F6000000 		.4byte	.LVL38
 10593 0418 04010000 		.4byte	.LVL41
 10594 041c 2300     		.2byte	0x23
 10595 041e 71       		.byte	0x71
 10596 041f 00       		.sleb128 0
 10597 0420 70       		.byte	0x70
 10598 0421 00       		.sleb128 0
 10599 0422 14       		.byte	0x14
 10600 0423 14       		.byte	0x14
 10601 0424 1B       		.byte	0x1b
 10602 0425 1E       		.byte	0x1e
 10603 0426 1C       		.byte	0x1c
 10604 0427 73       		.byte	0x73
 10605 0428 00       		.sleb128 0
 10606 0429 1E       		.byte	0x1e
 10607 042a 31       		.byte	0x31
 10608 042b 24       		.byte	0x24
 10609 042c 71       		.byte	0x71
 10610 042d 00       		.sleb128 0
 10611 042e 70       		.byte	0x70
 10612 042f 00       		.sleb128 0
 10613 0430 1B       		.byte	0x1b
 10614 0431 31       		.byte	0x31
 10615 0432 24       		.byte	0x24
 10616 0433 1C       		.byte	0x1c
 10617 0434 78       		.byte	0x78
 10618 0435 00       		.sleb128 0
 10619 0436 1C       		.byte	0x1c
 10620 0437 79       		.byte	0x79
 10621 0438 00       		.sleb128 0
 10622 0439 22       		.byte	0x22
 10623 043a 76       		.byte	0x76
 10624 043b 00       		.sleb128 0
 10625 043c 22       		.byte	0x22
 10626 043d 7B       		.byte	0x7b
 10627 043e 00       		.sleb128 0
 10628 043f 1C       		.byte	0x1c
 10629 0440 9F       		.byte	0x9f
 10630 0441 04010000 		.4byte	.LVL41
 10631 0445 12010000 		.4byte	.LVL42
 10632 0449 2500     		.2byte	0x25
 10633 044b 71       		.byte	0x71
 10634 044c 00       		.sleb128 0
 10635 044d 70       		.byte	0x70
 10636 044e 00       		.sleb128 0
 10637 044f 14       		.byte	0x14
 10638 0450 14       		.byte	0x14
 10639 0451 1B       		.byte	0x1b
 10640 0452 1E       		.byte	0x1e
 10641 0453 1C       		.byte	0x1c
 10642 0454 73       		.byte	0x73
 10643 0455 00       		.sleb128 0
 10644 0456 1E       		.byte	0x1e
 10645 0457 31       		.byte	0x31
 10646 0458 24       		.byte	0x24
 10647 0459 71       		.byte	0x71
ARM GAS  C:\Users\rdn\AppData\Local\Temp\ccIOjLNc.s 			page 215


 10648 045a 00       		.sleb128 0
 10649 045b 70       		.byte	0x70
 10650 045c 00       		.sleb128 0
 10651 045d 1B       		.byte	0x1b
 10652 045e 31       		.byte	0x31
 10653 045f 24       		.byte	0x24
 10654 0460 1C       		.byte	0x1c
 10655 0461 78       		.byte	0x78
 10656 0462 00       		.sleb128 0
 10657 0463 1C       		.byte	0x1c
 10658 0464 79       		.byte	0x79
 10659 0465 00       		.sleb128 0
 10660 0466 22       		.byte	0x22
 10661 0467 76       		.byte	0x76
 10662 0468 00       		.sleb128 0
 10663 0469 22       		.byte	0x22
 10664 046a 7B       		.byte	0x7b
 10665 046b 00       		.sleb128 0
 10666 046c 1C       		.byte	0x1c
 10667 046d 4E       		.byte	0x4e
 10668 046e 1C       		.byte	0x1c
 10669 046f 9F       		.byte	0x9f
 10670 0470 00000000 		.4byte	0
 10671 0474 00000000 		.4byte	0
 10672              	.LLST6:
 10673 0478 24000000 		.4byte	.LVL6
 10674 047c 3E000000 		.4byte	.LVL7
 10675 0480 0E00     		.2byte	0xe
 10676 0482 71       		.byte	0x71
 10677 0483 00       		.sleb128 0
 10678 0484 70       		.byte	0x70
 10679 0485 00       		.sleb128 0
 10680 0486 1B       		.byte	0x1b
 10681 0487 31       		.byte	0x31
 10682 0488 24       		.byte	0x24
 10683 0489 78       		.byte	0x78
 10684 048a 00       		.sleb128 0
 10685 048b 22       		.byte	0x22
 10686 048c 7B       		.byte	0x7b
 10687 048d 00       		.sleb128 0
 10688 048e 22       		.byte	0x22
 10689 048f 9F       		.byte	0x9f
 10690 0490 3E000000 		.4byte	.LVL7
 10691 0494 48000000 		.4byte	.LVL8
 10692 0498 0100     		.2byte	0x1
 10693 049a 56       		.byte	0x56
 10694 049b 48000000 		.4byte	.LVL8
 10695 049f 4A000000 		.4byte	.LVL9
 10696 04a3 0300     		.2byte	0x3
 10697 04a5 76       		.byte	0x76
 10698 04a6 62       		.sleb128 -30
 10699 04a7 9F       		.byte	0x9f
 10700 04a8 4A000000 		.4byte	.LVL9
 10701 04ac 56000000 		.4byte	.LVL11
 10702 04b0 0300     		.2byte	0x3
 10703 04b2 76       		.byte	0x76
 10704 04b3 64       		.sleb128 -28
ARM GAS  C:\Users\rdn\AppData\Local\Temp\ccIOjLNc.s 			page 216


 10705 04b4 9F       		.byte	0x9f
 10706 04b5 56000000 		.4byte	.LVL11
 10707 04b9 62000000 		.4byte	.LVL13
 10708 04bd 0300     		.2byte	0x3
 10709 04bf 76       		.byte	0x76
 10710 04c0 66       		.sleb128 -26
 10711 04c1 9F       		.byte	0x9f
 10712 04c2 62000000 		.4byte	.LVL13
 10713 04c6 6E000000 		.4byte	.LVL15
 10714 04ca 0300     		.2byte	0x3
 10715 04cc 76       		.byte	0x76
 10716 04cd 68       		.sleb128 -24
 10717 04ce 9F       		.byte	0x9f
 10718 04cf 6E000000 		.4byte	.LVL15
 10719 04d3 7A000000 		.4byte	.LVL17
 10720 04d7 0300     		.2byte	0x3
 10721 04d9 76       		.byte	0x76
 10722 04da 6A       		.sleb128 -22
 10723 04db 9F       		.byte	0x9f
 10724 04dc 7A000000 		.4byte	.LVL17
 10725 04e0 86000000 		.4byte	.LVL19
 10726 04e4 0300     		.2byte	0x3
 10727 04e6 76       		.byte	0x76
 10728 04e7 6C       		.sleb128 -20
 10729 04e8 9F       		.byte	0x9f
 10730 04e9 86000000 		.4byte	.LVL19
 10731 04ed 92000000 		.4byte	.LVL21
 10732 04f1 0300     		.2byte	0x3
 10733 04f3 76       		.byte	0x76
 10734 04f4 6E       		.sleb128 -18
 10735 04f5 9F       		.byte	0x9f
 10736 04f6 92000000 		.4byte	.LVL21
 10737 04fa 9E000000 		.4byte	.LVL23
 10738 04fe 0300     		.2byte	0x3
 10739 0500 76       		.byte	0x76
 10740 0501 70       		.sleb128 -16
 10741 0502 9F       		.byte	0x9f
 10742 0503 9E000000 		.4byte	.LVL23
 10743 0507 AA000000 		.4byte	.LVL25
 10744 050b 0300     		.2byte	0x3
 10745 050d 76       		.byte	0x76
 10746 050e 72       		.sleb128 -14
 10747 050f 9F       		.byte	0x9f
 10748 0510 AA000000 		.4byte	.LVL25
 10749 0514 B6000000 		.4byte	.LVL27
 10750 0518 0300     		.2byte	0x3
 10751 051a 76       		.byte	0x76
 10752 051b 74       		.sleb128 -12
 10753 051c 9F       		.byte	0x9f
 10754 051d B6000000 		.4byte	.LVL27
 10755 0521 C2000000 		.4byte	.LVL29
 10756 0525 0300     		.2byte	0x3
 10757 0527 76       		.byte	0x76
 10758 0528 76       		.sleb128 -10
 10759 0529 9F       		.byte	0x9f
 10760 052a C2000000 		.4byte	.LVL29
 10761 052e CE000000 		.4byte	.LVL31
ARM GAS  C:\Users\rdn\AppData\Local\Temp\ccIOjLNc.s 			page 217


 10762 0532 0300     		.2byte	0x3
 10763 0534 76       		.byte	0x76
 10764 0535 78       		.sleb128 -8
 10765 0536 9F       		.byte	0x9f
 10766 0537 CE000000 		.4byte	.LVL31
 10767 053b DA000000 		.4byte	.LVL33
 10768 053f 0300     		.2byte	0x3
 10769 0541 76       		.byte	0x76
 10770 0542 7A       		.sleb128 -6
 10771 0543 9F       		.byte	0x9f
 10772 0544 DA000000 		.4byte	.LVL33
 10773 0548 E6000000 		.4byte	.LVL35
 10774 054c 0300     		.2byte	0x3
 10775 054e 76       		.byte	0x76
 10776 054f 7C       		.sleb128 -4
 10777 0550 9F       		.byte	0x9f
 10778 0551 E6000000 		.4byte	.LVL35
 10779 0555 F2000000 		.4byte	.LVL37
 10780 0559 0300     		.2byte	0x3
 10781 055b 76       		.byte	0x76
 10782 055c 7E       		.sleb128 -2
 10783 055d 9F       		.byte	0x9f
 10784 055e F2000000 		.4byte	.LVL37
 10785 0562 04010000 		.4byte	.LVL41
 10786 0566 0100     		.2byte	0x1
 10787 0568 56       		.byte	0x56
 10788 0569 04010000 		.4byte	.LVL41
 10789 056d 12010000 		.4byte	.LVL42
 10790 0571 0300     		.2byte	0x3
 10791 0573 76       		.byte	0x76
 10792 0574 62       		.sleb128 -30
 10793 0575 9F       		.byte	0x9f
 10794 0576 00000000 		.4byte	0
 10795 057a 00000000 		.4byte	0
 10796              	.LLST7:
 10797 057e 24000000 		.4byte	.LVL6
 10798 0582 3E000000 		.4byte	.LVL7
 10799 0586 0200     		.2byte	0x2
 10800 0588 30       		.byte	0x30
 10801 0589 9F       		.byte	0x9f
 10802 058a 3E000000 		.4byte	.LVL7
 10803 058e 56000000 		.4byte	.LVL11
 10804 0592 0100     		.2byte	0x1
 10805 0594 5C       		.byte	0x5c
 10806 0595 56000000 		.4byte	.LVL11
 10807 0599 62000000 		.4byte	.LVL13
 10808 059d 0100     		.2byte	0x1
 10809 059f 55       		.byte	0x55
 10810 05a0 62000000 		.4byte	.LVL13
 10811 05a4 6E000000 		.4byte	.LVL15
 10812 05a8 0100     		.2byte	0x1
 10813 05aa 54       		.byte	0x54
 10814 05ab 6E000000 		.4byte	.LVL15
 10815 05af 7A000000 		.4byte	.LVL17
 10816 05b3 0100     		.2byte	0x1
 10817 05b5 5C       		.byte	0x5c
 10818 05b6 7A000000 		.4byte	.LVL17
ARM GAS  C:\Users\rdn\AppData\Local\Temp\ccIOjLNc.s 			page 218


 10819 05ba 86000000 		.4byte	.LVL19
 10820 05be 0100     		.2byte	0x1
 10821 05c0 55       		.byte	0x55
 10822 05c1 86000000 		.4byte	.LVL19
 10823 05c5 92000000 		.4byte	.LVL21
 10824 05c9 0100     		.2byte	0x1
 10825 05cb 54       		.byte	0x54
 10826 05cc 92000000 		.4byte	.LVL21
 10827 05d0 9E000000 		.4byte	.LVL23
 10828 05d4 0100     		.2byte	0x1
 10829 05d6 5C       		.byte	0x5c
 10830 05d7 9E000000 		.4byte	.LVL23
 10831 05db AA000000 		.4byte	.LVL25
 10832 05df 0100     		.2byte	0x1
 10833 05e1 55       		.byte	0x55
 10834 05e2 AA000000 		.4byte	.LVL25
 10835 05e6 B6000000 		.4byte	.LVL27
 10836 05ea 0100     		.2byte	0x1
 10837 05ec 54       		.byte	0x54
 10838 05ed B6000000 		.4byte	.LVL27
 10839 05f1 C2000000 		.4byte	.LVL29
 10840 05f5 0100     		.2byte	0x1
 10841 05f7 5C       		.byte	0x5c
 10842 05f8 C2000000 		.4byte	.LVL29
 10843 05fc CE000000 		.4byte	.LVL31
 10844 0600 0100     		.2byte	0x1
 10845 0602 55       		.byte	0x55
 10846 0603 CE000000 		.4byte	.LVL31
 10847 0607 DA000000 		.4byte	.LVL33
 10848 060b 0100     		.2byte	0x1
 10849 060d 54       		.byte	0x54
 10850 060e DA000000 		.4byte	.LVL33
 10851 0612 E6000000 		.4byte	.LVL35
 10852 0616 0100     		.2byte	0x1
 10853 0618 5C       		.byte	0x5c
 10854 0619 E6000000 		.4byte	.LVL35
 10855 061d F2000000 		.4byte	.LVL37
 10856 0621 0100     		.2byte	0x1
 10857 0623 55       		.byte	0x55
 10858 0624 F2000000 		.4byte	.LVL37
 10859 0628 02010000 		.4byte	.LVL40
 10860 062c 0100     		.2byte	0x1
 10861 062e 54       		.byte	0x54
 10862 062f 02010000 		.4byte	.LVL40
 10863 0633 62010000 		.4byte	.LVL51
 10864 0637 0100     		.2byte	0x1
 10865 0639 5C       		.byte	0x5c
 10866 063a 00000000 		.4byte	0
 10867 063e 00000000 		.4byte	0
 10868              	.LLST8:
 10869 0642 24000000 		.4byte	.LVL6
 10870 0646 3E000000 		.4byte	.LVL7
 10871 064a 0200     		.2byte	0x2
 10872 064c 30       		.byte	0x30
 10873 064d 9F       		.byte	0x9f
 10874 064e 3E000000 		.4byte	.LVL7
 10875 0652 FE000000 		.4byte	.LVL39
ARM GAS  C:\Users\rdn\AppData\Local\Temp\ccIOjLNc.s 			page 219


 10876 0656 0100     		.2byte	0x1
 10877 0658 5E       		.byte	0x5e
 10878 0659 FE000000 		.4byte	.LVL39
 10879 065d 02010000 		.4byte	.LVL40
 10880 0661 0300     		.2byte	0x3
 10881 0663 7E       		.byte	0x7e
 10882 0664 71       		.sleb128 -15
 10883 0665 9F       		.byte	0x9f
 10884 0666 02010000 		.4byte	.LVL40
 10885 066a 22010000 		.4byte	.LVL43
 10886 066e 0100     		.2byte	0x1
 10887 0670 5E       		.byte	0x5e
 10888 0671 00000000 		.4byte	0
 10889 0675 00000000 		.4byte	0
 10890              	.LLST9:
 10891 0679 04010000 		.4byte	.LVL41
 10892 067d 58010000 		.4byte	.LVL47
 10893 0681 0100     		.2byte	0x1
 10894 0683 5C       		.byte	0x5c
 10895 0684 00000000 		.4byte	0
 10896 0688 00000000 		.4byte	0
 10897              	.LLST10:
 10898 068c 04010000 		.4byte	.LVL41
 10899 0690 58010000 		.4byte	.LVL47
 10900 0694 0100     		.2byte	0x1
 10901 0696 52       		.byte	0x52
 10902 0697 00000000 		.4byte	0
 10903 069b 00000000 		.4byte	0
 10904              	.LLST11:
 10905 069f 34010000 		.4byte	.LVL44
 10906 06a3 50010000 		.4byte	.LVL45
 10907 06a7 0100     		.2byte	0x1
 10908 06a9 5E       		.byte	0x5e
 10909 06aa 50010000 		.4byte	.LVL45
 10910 06ae 54010000 		.4byte	.LVL46
 10911 06b2 0500     		.2byte	0x5
 10912 06b4 7E       		.byte	0x7e
 10913 06b5 80807E   		.sleb128 -32768
 10914 06b8 9F       		.byte	0x9f
 10915 06b9 00000000 		.4byte	0
 10916 06bd 00000000 		.4byte	0
 10917              	.LLST12:
 10918 06c1 04010000 		.4byte	.LVL41
 10919 06c5 62010000 		.4byte	.LVL51
 10920 06c9 0600     		.2byte	0x6
 10921 06cb 9E       		.byte	0x9e
 10922 06cc 04       		.uleb128 0x4
 10923 06cd 25A23882 		.4byte	0x8238a225
 10924 06d1 00000000 		.4byte	0
 10925 06d5 00000000 		.4byte	0
 10926              	.LLST13:
 10927 06d9 04010000 		.4byte	.LVL41
 10928 06dd 62010000 		.4byte	.LVL51
 10929 06e1 0600     		.2byte	0x6
 10930 06e3 0C       		.byte	0xc
 10931 06e4 4111D13D 		.4byte	0x3dd11141
 10932 06e8 9F       		.byte	0x9f
ARM GAS  C:\Users\rdn\AppData\Local\Temp\ccIOjLNc.s 			page 220


 10933 06e9 00000000 		.4byte	0
 10934 06ed 00000000 		.4byte	0
 10935              	.LLST14:
 10936 06f1 04010000 		.4byte	.LVL41
 10937 06f5 62010000 		.4byte	.LVL51
 10938 06f9 0600     		.2byte	0x6
 10939 06fb 9E       		.byte	0x9e
 10940 06fc 04       		.uleb128 0x4
 10941 06fd 72C83382 		.4byte	0x8233c872
 10942 0701 00000000 		.4byte	0
 10943 0705 00000000 		.4byte	0
 10944              	.LLST15:
 10945 0709 04010000 		.4byte	.LVL41
 10946 070d 62010000 		.4byte	.LVL51
 10947 0711 0600     		.2byte	0x6
 10948 0713 0C       		.byte	0xc
 10949 0714 C61BE63E 		.4byte	0x3ee61bc6
 10950 0718 9F       		.byte	0x9f
 10951 0719 00000000 		.4byte	0
 10952 071d 00000000 		.4byte	0
 10953              	.LLST16:
 10954 0721 00000000 		.4byte	.LVL53
 10955 0725 0E000000 		.4byte	.LVL57
 10956 0729 0100     		.2byte	0x1
 10957 072b 50       		.byte	0x50
 10958 072c 0E000000 		.4byte	.LVL57
 10959 0730 11000000 		.4byte	.LVL58-1
 10960 0734 0100     		.2byte	0x1
 10961 0736 52       		.byte	0x52
 10962 0737 11000000 		.4byte	.LVL58-1
 10963 073b 1C000000 		.4byte	.LFE26
 10964 073f 0400     		.2byte	0x4
 10965 0741 F3       		.byte	0xf3
 10966 0742 01       		.uleb128 0x1
 10967 0743 50       		.byte	0x50
 10968 0744 9F       		.byte	0x9f
 10969 0745 00000000 		.4byte	0
 10970 0749 00000000 		.4byte	0
 10971              	.LLST17:
 10972 074d 00000000 		.4byte	.LVL53
 10973 0751 0C000000 		.4byte	.LVL56
 10974 0755 0100     		.2byte	0x1
 10975 0757 51       		.byte	0x51
 10976 0758 0C000000 		.4byte	.LVL56
 10977 075c 11000000 		.4byte	.LVL58-1
 10978 0760 0100     		.2byte	0x1
 10979 0762 53       		.byte	0x53
 10980 0763 11000000 		.4byte	.LVL58-1
 10981 0767 1C000000 		.4byte	.LFE26
 10982 076b 0400     		.2byte	0x4
 10983 076d F3       		.byte	0xf3
 10984 076e 01       		.uleb128 0x1
 10985 076f 51       		.byte	0x51
 10986 0770 9F       		.byte	0x9f
 10987 0771 00000000 		.4byte	0
 10988 0775 00000000 		.4byte	0
 10989              	.LLST18:
ARM GAS  C:\Users\rdn\AppData\Local\Temp\ccIOjLNc.s 			page 221


 10990 0779 00000000 		.4byte	.LVL53
 10991 077d 0A000000 		.4byte	.LVL55
 10992 0781 0100     		.2byte	0x1
 10993 0783 52       		.byte	0x52
 10994 0784 0A000000 		.4byte	.LVL55
 10995 0788 11000000 		.4byte	.LVL58-1
 10996 078c 0200     		.2byte	0x2
 10997 078e 7D       		.byte	0x7d
 10998 078f 00       		.sleb128 0
 10999 0790 11000000 		.4byte	.LVL58-1
 11000 0794 1C000000 		.4byte	.LFE26
 11001 0798 0400     		.2byte	0x4
 11002 079a F3       		.byte	0xf3
 11003 079b 01       		.uleb128 0x1
 11004 079c 52       		.byte	0x52
 11005 079d 9F       		.byte	0x9f
 11006 079e 00000000 		.4byte	0
 11007 07a2 00000000 		.4byte	0
 11008              	.LLST19:
 11009 07a6 00000000 		.4byte	.LVL53
 11010 07aa 08000000 		.4byte	.LVL54
 11011 07ae 0100     		.2byte	0x1
 11012 07b0 53       		.byte	0x53
 11013 07b1 08000000 		.4byte	.LVL54
 11014 07b5 11000000 		.4byte	.LVL58-1
 11015 07b9 0200     		.2byte	0x2
 11016 07bb 91       		.byte	0x91
 11017 07bc 74       		.sleb128 -12
 11018 07bd 11000000 		.4byte	.LVL58-1
 11019 07c1 1C000000 		.4byte	.LFE26
 11020 07c5 0400     		.2byte	0x4
 11021 07c7 F3       		.byte	0xf3
 11022 07c8 01       		.uleb128 0x1
 11023 07c9 53       		.byte	0x53
 11024 07ca 9F       		.byte	0x9f
 11025 07cb 00000000 		.4byte	0
 11026 07cf 00000000 		.4byte	0
 11027              	.LLST20:
 11028 07d3 00000000 		.4byte	.LVL59
 11029 07d7 0E000000 		.4byte	.LVL63
 11030 07db 0100     		.2byte	0x1
 11031 07dd 50       		.byte	0x50
 11032 07de 0E000000 		.4byte	.LVL63
 11033 07e2 11000000 		.4byte	.LVL64-1
 11034 07e6 0100     		.2byte	0x1
 11035 07e8 52       		.byte	0x52
 11036 07e9 11000000 		.4byte	.LVL64-1
 11037 07ed 1C000000 		.4byte	.LFE27
 11038 07f1 0400     		.2byte	0x4
 11039 07f3 F3       		.byte	0xf3
 11040 07f4 01       		.uleb128 0x1
 11041 07f5 50       		.byte	0x50
 11042 07f6 9F       		.byte	0x9f
 11043 07f7 00000000 		.4byte	0
 11044 07fb 00000000 		.4byte	0
 11045              	.LLST21:
 11046 07ff 00000000 		.4byte	.LVL59
ARM GAS  C:\Users\rdn\AppData\Local\Temp\ccIOjLNc.s 			page 222


 11047 0803 0C000000 		.4byte	.LVL62
 11048 0807 0100     		.2byte	0x1
 11049 0809 51       		.byte	0x51
 11050 080a 0C000000 		.4byte	.LVL62
 11051 080e 11000000 		.4byte	.LVL64-1
 11052 0812 0100     		.2byte	0x1
 11053 0814 53       		.byte	0x53
 11054 0815 11000000 		.4byte	.LVL64-1
 11055 0819 1C000000 		.4byte	.LFE27
 11056 081d 0400     		.2byte	0x4
 11057 081f F3       		.byte	0xf3
 11058 0820 01       		.uleb128 0x1
 11059 0821 51       		.byte	0x51
 11060 0822 9F       		.byte	0x9f
 11061 0823 00000000 		.4byte	0
 11062 0827 00000000 		.4byte	0
 11063              	.LLST22:
 11064 082b 00000000 		.4byte	.LVL59
 11065 082f 0A000000 		.4byte	.LVL61
 11066 0833 0100     		.2byte	0x1
 11067 0835 52       		.byte	0x52
 11068 0836 0A000000 		.4byte	.LVL61
 11069 083a 11000000 		.4byte	.LVL64-1
 11070 083e 0200     		.2byte	0x2
 11071 0840 7D       		.byte	0x7d
 11072 0841 00       		.sleb128 0
 11073 0842 11000000 		.4byte	.LVL64-1
 11074 0846 1C000000 		.4byte	.LFE27
 11075 084a 0400     		.2byte	0x4
 11076 084c F3       		.byte	0xf3
 11077 084d 01       		.uleb128 0x1
 11078 084e 52       		.byte	0x52
 11079 084f 9F       		.byte	0x9f
 11080 0850 00000000 		.4byte	0
 11081 0854 00000000 		.4byte	0
 11082              	.LLST23:
 11083 0858 00000000 		.4byte	.LVL59
 11084 085c 08000000 		.4byte	.LVL60
 11085 0860 0100     		.2byte	0x1
 11086 0862 53       		.byte	0x53
 11087 0863 08000000 		.4byte	.LVL60
 11088 0867 11000000 		.4byte	.LVL64-1
 11089 086b 0200     		.2byte	0x2
 11090 086d 91       		.byte	0x91
 11091 086e 74       		.sleb128 -12
 11092 086f 11000000 		.4byte	.LVL64-1
 11093 0873 1C000000 		.4byte	.LFE27
 11094 0877 0400     		.2byte	0x4
 11095 0879 F3       		.byte	0xf3
 11096 087a 01       		.uleb128 0x1
 11097 087b 53       		.byte	0x53
 11098 087c 9F       		.byte	0x9f
 11099 087d 00000000 		.4byte	0
 11100 0881 00000000 		.4byte	0
 11101              	.LLST24:
 11102 0885 00000000 		.4byte	.LVL65
 11103 0889 0E000000 		.4byte	.LVL69
ARM GAS  C:\Users\rdn\AppData\Local\Temp\ccIOjLNc.s 			page 223


 11104 088d 0100     		.2byte	0x1
 11105 088f 50       		.byte	0x50
 11106 0890 0E000000 		.4byte	.LVL69
 11107 0894 11000000 		.4byte	.LVL70-1
 11108 0898 0100     		.2byte	0x1
 11109 089a 52       		.byte	0x52
 11110 089b 11000000 		.4byte	.LVL70-1
 11111 089f 1C000000 		.4byte	.LFE28
 11112 08a3 0400     		.2byte	0x4
 11113 08a5 F3       		.byte	0xf3
 11114 08a6 01       		.uleb128 0x1
 11115 08a7 50       		.byte	0x50
 11116 08a8 9F       		.byte	0x9f
 11117 08a9 00000000 		.4byte	0
 11118 08ad 00000000 		.4byte	0
 11119              	.LLST25:
 11120 08b1 00000000 		.4byte	.LVL65
 11121 08b5 0C000000 		.4byte	.LVL68
 11122 08b9 0100     		.2byte	0x1
 11123 08bb 51       		.byte	0x51
 11124 08bc 0C000000 		.4byte	.LVL68
 11125 08c0 11000000 		.4byte	.LVL70-1
 11126 08c4 0100     		.2byte	0x1
 11127 08c6 53       		.byte	0x53
 11128 08c7 11000000 		.4byte	.LVL70-1
 11129 08cb 1C000000 		.4byte	.LFE28
 11130 08cf 0400     		.2byte	0x4
 11131 08d1 F3       		.byte	0xf3
 11132 08d2 01       		.uleb128 0x1
 11133 08d3 51       		.byte	0x51
 11134 08d4 9F       		.byte	0x9f
 11135 08d5 00000000 		.4byte	0
 11136 08d9 00000000 		.4byte	0
 11137              	.LLST26:
 11138 08dd 00000000 		.4byte	.LVL65
 11139 08e1 0A000000 		.4byte	.LVL67
 11140 08e5 0100     		.2byte	0x1
 11141 08e7 52       		.byte	0x52
 11142 08e8 0A000000 		.4byte	.LVL67
 11143 08ec 11000000 		.4byte	.LVL70-1
 11144 08f0 0200     		.2byte	0x2
 11145 08f2 7D       		.byte	0x7d
 11146 08f3 00       		.sleb128 0
 11147 08f4 11000000 		.4byte	.LVL70-1
 11148 08f8 1C000000 		.4byte	.LFE28
 11149 08fc 0400     		.2byte	0x4
 11150 08fe F3       		.byte	0xf3
 11151 08ff 01       		.uleb128 0x1
 11152 0900 52       		.byte	0x52
 11153 0901 9F       		.byte	0x9f
 11154 0902 00000000 		.4byte	0
 11155 0906 00000000 		.4byte	0
 11156              	.LLST27:
 11157 090a 00000000 		.4byte	.LVL65
 11158 090e 08000000 		.4byte	.LVL66
 11159 0912 0100     		.2byte	0x1
 11160 0914 53       		.byte	0x53
ARM GAS  C:\Users\rdn\AppData\Local\Temp\ccIOjLNc.s 			page 224


 11161 0915 08000000 		.4byte	.LVL66
 11162 0919 11000000 		.4byte	.LVL70-1
 11163 091d 0200     		.2byte	0x2
 11164 091f 91       		.byte	0x91
 11165 0920 74       		.sleb128 -12
 11166 0921 11000000 		.4byte	.LVL70-1
 11167 0925 1C000000 		.4byte	.LFE28
 11168 0929 0400     		.2byte	0x4
 11169 092b F3       		.byte	0xf3
 11170 092c 01       		.uleb128 0x1
 11171 092d 53       		.byte	0x53
 11172 092e 9F       		.byte	0x9f
 11173 092f 00000000 		.4byte	0
 11174 0933 00000000 		.4byte	0
 11175              	.LLST28:
 11176 0937 00000000 		.4byte	.LVL71
 11177 093b 1A000000 		.4byte	.LVL75
 11178 093f 0100     		.2byte	0x1
 11179 0941 50       		.byte	0x50
 11180 0942 1A000000 		.4byte	.LVL75
 11181 0946 24000000 		.4byte	.LVL77
 11182 094a 0300     		.2byte	0x3
 11183 094c 70       		.byte	0x70
 11184 094d 7E       		.sleb128 -2
 11185 094e 9F       		.byte	0x9f
 11186 094f 24000000 		.4byte	.LVL77
 11187 0953 40000000 		.4byte	.LFE30
 11188 0957 0100     		.2byte	0x1
 11189 0959 50       		.byte	0x50
 11190 095a 00000000 		.4byte	0
 11191 095e 00000000 		.4byte	0
 11192              	.LLST29:
 11193 0962 00000000 		.4byte	.LVL71
 11194 0966 0A000000 		.4byte	.LVL73
 11195 096a 0100     		.2byte	0x1
 11196 096c 51       		.byte	0x51
 11197 096d 10000000 		.4byte	.LVL74
 11198 0971 1E000000 		.4byte	.LVL76
 11199 0975 0100     		.2byte	0x1
 11200 0977 56       		.byte	0x56
 11201 0978 1E000000 		.4byte	.LVL76
 11202 097c 24000000 		.4byte	.LVL77
 11203 0980 0300     		.2byte	0x3
 11204 0982 76       		.byte	0x76
 11205 0983 7E       		.sleb128 -2
 11206 0984 9F       		.byte	0x9f
 11207 0985 24000000 		.4byte	.LVL77
 11208 0989 40000000 		.4byte	.LFE30
 11209 098d 0100     		.2byte	0x1
 11210 098f 56       		.byte	0x56
 11211 0990 00000000 		.4byte	0
 11212 0994 00000000 		.4byte	0
 11213              	.LLST30:
 11214 0998 00000000 		.4byte	.LVL71
 11215 099c 04000000 		.4byte	.LVL72
 11216 09a0 0100     		.2byte	0x1
 11217 09a2 52       		.byte	0x52
ARM GAS  C:\Users\rdn\AppData\Local\Temp\ccIOjLNc.s 			page 225


 11218 09a3 04000000 		.4byte	.LVL72
 11219 09a7 40000000 		.4byte	.LFE30
 11220 09ab 0400     		.2byte	0x4
 11221 09ad F3       		.byte	0xf3
 11222 09ae 01       		.uleb128 0x1
 11223 09af 52       		.byte	0x52
 11224 09b0 9F       		.byte	0x9f
 11225 09b1 00000000 		.4byte	0
 11226 09b5 00000000 		.4byte	0
 11227              	.LLST31:
 11228 09b9 00000000 		.4byte	.LVL71
 11229 09bd 0A000000 		.4byte	.LVL73
 11230 09c1 0A00     		.2byte	0xa
 11231 09c3 9E       		.byte	0x9e
 11232 09c4 08       		.uleb128 0x8
 11233 09c5 00000000 		.8byte	0
 11233      00000000 
 11234 09cd 10000000 		.4byte	.LVL74
 11235 09d1 2C000000 		.4byte	.LVL80
 11236 09d5 0600     		.2byte	0x6
 11237 09d7 54       		.byte	0x54
 11238 09d8 93       		.byte	0x93
 11239 09d9 04       		.uleb128 0x4
 11240 09da 55       		.byte	0x55
 11241 09db 93       		.byte	0x93
 11242 09dc 04       		.uleb128 0x4
 11243 09dd 00000000 		.4byte	0
 11244 09e1 00000000 		.4byte	0
 11245              	.LLST32:
 11246 09e5 2A000000 		.4byte	.LVL79
 11247 09e9 2C000000 		.4byte	.LVL80
 11248 09ed 0F00     		.2byte	0xf
 11249 09ef F5       		.byte	0xf5
 11250 09f0 04       		.uleb128 0x4
 11251 09f1 2C       		.uleb128 0x2c
 11252 09f2 08       		.byte	0x8
 11253 09f3 20       		.byte	0x20
 11254 09f4 F7       		.byte	0xf7
 11255 09f5 2C       		.uleb128 0x2c
 11256 09f6 22       		.byte	0x22
 11257 09f7 36       		.byte	0x36
 11258 09f8 F7       		.byte	0xf7
 11259 09f9 2C       		.uleb128 0x2c
 11260 09fa 26       		.byte	0x26
 11261 09fb F7       		.byte	0xf7
 11262 09fc 33       		.uleb128 0x33
 11263 09fd 9F       		.byte	0x9f
 11264 09fe 00000000 		.4byte	0
 11265 0a02 00000000 		.4byte	0
 11266              	.LLST33:
 11267 0a06 00000000 		.4byte	.LVL71
 11268 0a0a 0A000000 		.4byte	.LVL73
 11269 0a0e 0200     		.2byte	0x2
 11270 0a10 30       		.byte	0x30
 11271 0a11 9F       		.byte	0x9f
 11272 0a12 10000000 		.4byte	.LVL74
 11273 0a16 32000000 		.4byte	.LVL81
ARM GAS  C:\Users\rdn\AppData\Local\Temp\ccIOjLNc.s 			page 226


 11274 0a1a 0100     		.2byte	0x1
 11275 0a1c 53       		.byte	0x53
 11276 0a1d 00000000 		.4byte	0
 11277 0a21 00000000 		.4byte	0
 11278              	.LLST34:
 11279 0a25 00000000 		.4byte	.LVL82
 11280 0a29 12000000 		.4byte	.LVL84
 11281 0a2d 0100     		.2byte	0x1
 11282 0a2f 50       		.byte	0x50
 11283 0a30 12000000 		.4byte	.LVL84
 11284 0a34 16000000 		.4byte	.LVL85
 11285 0a38 0300     		.2byte	0x3
 11286 0a3a 70       		.byte	0x70
 11287 0a3b 02       		.sleb128 2
 11288 0a3c 9F       		.byte	0x9f
 11289 0a3d 16000000 		.4byte	.LVL85
 11290 0a41 1A000000 		.4byte	.LVL86
 11291 0a45 0100     		.2byte	0x1
 11292 0a47 50       		.byte	0x50
 11293 0a48 1A000000 		.4byte	.LVL86
 11294 0a4c 22000000 		.4byte	.LVL87
 11295 0a50 0600     		.2byte	0x6
 11296 0a52 F3       		.byte	0xf3
 11297 0a53 01       		.uleb128 0x1
 11298 0a54 50       		.byte	0x50
 11299 0a55 23       		.byte	0x23
 11300 0a56 02       		.uleb128 0x2
 11301 0a57 9F       		.byte	0x9f
 11302 0a58 22000000 		.4byte	.LVL87
 11303 0a5c 4A000000 		.4byte	.LVL92
 11304 0a60 0600     		.2byte	0x6
 11305 0a62 F3       		.byte	0xf3
 11306 0a63 01       		.uleb128 0x1
 11307 0a64 50       		.byte	0x50
 11308 0a65 23       		.byte	0x23
 11309 0a66 04       		.uleb128 0x4
 11310 0a67 9F       		.byte	0x9f
 11311 0a68 4A000000 		.4byte	.LVL92
 11312 0a6c 72000000 		.4byte	.LVL97
 11313 0a70 0600     		.2byte	0x6
 11314 0a72 F3       		.byte	0xf3
 11315 0a73 01       		.uleb128 0x1
 11316 0a74 50       		.byte	0x50
 11317 0a75 23       		.byte	0x23
 11318 0a76 06       		.uleb128 0x6
 11319 0a77 9F       		.byte	0x9f
 11320 0a78 72000000 		.4byte	.LVL97
 11321 0a7c 98000000 		.4byte	.LVL102
 11322 0a80 0600     		.2byte	0x6
 11323 0a82 F3       		.byte	0xf3
 11324 0a83 01       		.uleb128 0x1
 11325 0a84 50       		.byte	0x50
 11326 0a85 23       		.byte	0x23
 11327 0a86 08       		.uleb128 0x8
 11328 0a87 9F       		.byte	0x9f
 11329 0a88 98000000 		.4byte	.LVL102
 11330 0a8c C4000000 		.4byte	.LVL108
ARM GAS  C:\Users\rdn\AppData\Local\Temp\ccIOjLNc.s 			page 227


 11331 0a90 0600     		.2byte	0x6
 11332 0a92 F3       		.byte	0xf3
 11333 0a93 01       		.uleb128 0x1
 11334 0a94 50       		.byte	0x50
 11335 0a95 23       		.byte	0x23
 11336 0a96 0A       		.uleb128 0xa
 11337 0a97 9F       		.byte	0x9f
 11338 0a98 C4000000 		.4byte	.LVL108
 11339 0a9c CC000000 		.4byte	.LFE34
 11340 0aa0 0600     		.2byte	0x6
 11341 0aa2 F3       		.byte	0xf3
 11342 0aa3 01       		.uleb128 0x1
 11343 0aa4 50       		.byte	0x50
 11344 0aa5 23       		.byte	0x23
 11345 0aa6 02       		.uleb128 0x2
 11346 0aa7 9F       		.byte	0x9f
 11347 0aa8 00000000 		.4byte	0
 11348 0aac 00000000 		.4byte	0
 11349              	.LLST35:
 11350 0ab0 00000000 		.4byte	.LVL82
 11351 0ab4 1A000000 		.4byte	.LVL86
 11352 0ab8 0100     		.2byte	0x1
 11353 0aba 51       		.byte	0x51
 11354 0abb 1A000000 		.4byte	.LVL86
 11355 0abf CC000000 		.4byte	.LFE34
 11356 0ac3 0400     		.2byte	0x4
 11357 0ac5 F3       		.byte	0xf3
 11358 0ac6 01       		.uleb128 0x1
 11359 0ac7 51       		.byte	0x51
 11360 0ac8 9F       		.byte	0x9f
 11361 0ac9 00000000 		.4byte	0
 11362 0acd 00000000 		.4byte	0
 11363              	.LLST36:
 11364 0ad1 00000000 		.4byte	.LVL82
 11365 0ad5 0E000000 		.4byte	.LVL83
 11366 0ad9 0100     		.2byte	0x1
 11367 0adb 52       		.byte	0x52
 11368 0adc 0E000000 		.4byte	.LVL83
 11369 0ae0 CC000000 		.4byte	.LFE34
 11370 0ae4 0400     		.2byte	0x4
 11371 0ae6 F3       		.byte	0xf3
 11372 0ae7 01       		.uleb128 0x1
 11373 0ae8 52       		.byte	0x52
 11374 0ae9 9F       		.byte	0x9f
 11375 0aea 00000000 		.4byte	0
 11376 0aee 00000000 		.4byte	0
 11377              	.LLST37:
 11378 0af2 00000000 		.4byte	.LVL82
 11379 0af6 36000000 		.4byte	.LVL89
 11380 0afa 0100     		.2byte	0x1
 11381 0afc 53       		.byte	0x53
 11382 0afd 36000000 		.4byte	.LVL89
 11383 0b01 5E000000 		.4byte	.LVL94
 11384 0b05 0300     		.2byte	0x3
 11385 0b07 73       		.byte	0x73
 11386 0b08 02       		.sleb128 2
 11387 0b09 9F       		.byte	0x9f
ARM GAS  C:\Users\rdn\AppData\Local\Temp\ccIOjLNc.s 			page 228


 11388 0b0a 5E000000 		.4byte	.LVL94
 11389 0b0e 86000000 		.4byte	.LVL99
 11390 0b12 0300     		.2byte	0x3
 11391 0b14 73       		.byte	0x73
 11392 0b15 04       		.sleb128 4
 11393 0b16 9F       		.byte	0x9f
 11394 0b17 86000000 		.4byte	.LVL99
 11395 0b1b B8000000 		.4byte	.LVL106
 11396 0b1f 0300     		.2byte	0x3
 11397 0b21 73       		.byte	0x73
 11398 0b22 06       		.sleb128 6
 11399 0b23 9F       		.byte	0x9f
 11400 0b24 B8000000 		.4byte	.LVL106
 11401 0b28 CC000000 		.4byte	.LFE34
 11402 0b2c 0100     		.2byte	0x1
 11403 0b2e 53       		.byte	0x53
 11404 0b2f 00000000 		.4byte	0
 11405 0b33 00000000 		.4byte	0
 11406              	.LLST38:
 11407 0b37 12000000 		.4byte	.LVL84
 11408 0b3b 46000000 		.4byte	.LVL91
 11409 0b3f 0100     		.2byte	0x1
 11410 0b41 54       		.byte	0x54
 11411 0b42 52000000 		.4byte	.LVL93
 11412 0b46 C8000000 		.4byte	.LVL109
 11413 0b4a 0100     		.2byte	0x1
 11414 0b4c 54       		.byte	0x54
 11415 0b4d 00000000 		.4byte	0
 11416 0b51 00000000 		.4byte	0
 11417              	.LLST39:
 11418 0b55 12000000 		.4byte	.LVL84
 11419 0b59 6E000000 		.4byte	.LVL96
 11420 0b5d 0100     		.2byte	0x1
 11421 0b5f 55       		.byte	0x55
 11422 0b60 7A000000 		.4byte	.LVL98
 11423 0b64 C8000000 		.4byte	.LVL109
 11424 0b68 0100     		.2byte	0x1
 11425 0b6a 55       		.byte	0x55
 11426 0b6b 00000000 		.4byte	0
 11427 0b6f 00000000 		.4byte	0
 11428              	.LLST40:
 11429 0b73 16000000 		.4byte	.LVL85
 11430 0b77 94000000 		.4byte	.LVL101
 11431 0b7b 0100     		.2byte	0x1
 11432 0b7d 56       		.byte	0x56
 11433 0b7e A0000000 		.4byte	.LVL103
 11434 0b82 C8000000 		.4byte	.LVL109
 11435 0b86 0100     		.2byte	0x1
 11436 0b88 56       		.byte	0x56
 11437 0b89 00000000 		.4byte	0
 11438 0b8d 00000000 		.4byte	0
 11439              	.LLST41:
 11440 0b91 2A000000 		.4byte	.LVL88
 11441 0b95 C4000000 		.4byte	.LVL108
 11442 0b99 0100     		.2byte	0x1
 11443 0b9b 5C       		.byte	0x5c
 11444 0b9c 00000000 		.4byte	0
ARM GAS  C:\Users\rdn\AppData\Local\Temp\ccIOjLNc.s 			page 229


 11445 0ba0 00000000 		.4byte	0
 11446              	.LLST42:
 11447 0ba4 36000000 		.4byte	.LVL89
 11448 0ba8 3A000000 		.4byte	.LVL90
 11449 0bac 3800     		.2byte	0x38
 11450 0bae 74       		.byte	0x74
 11451 0baf 00       		.sleb128 0
 11452 0bb0 40       		.byte	0x40
 11453 0bb1 24       		.byte	0x24
 11454 0bb2 40       		.byte	0x40
 11455 0bb3 26       		.byte	0x26
 11456 0bb4 77       		.byte	0x77
 11457 0bb5 00       		.sleb128 0
 11458 0bb6 40       		.byte	0x40
 11459 0bb7 24       		.byte	0x24
 11460 0bb8 40       		.byte	0x40
 11461 0bb9 26       		.byte	0x26
 11462 0bba 1E       		.byte	0x1e
 11463 0bbb 75       		.byte	0x75
 11464 0bbc 00       		.sleb128 0
 11465 0bbd 40       		.byte	0x40
 11466 0bbe 24       		.byte	0x24
 11467 0bbf 40       		.byte	0x40
 11468 0bc0 26       		.byte	0x26
 11469 0bc1 78       		.byte	0x78
 11470 0bc2 00       		.sleb128 0
 11471 0bc3 40       		.byte	0x40
 11472 0bc4 24       		.byte	0x24
 11473 0bc5 40       		.byte	0x40
 11474 0bc6 26       		.byte	0x26
 11475 0bc7 1E       		.byte	0x1e
 11476 0bc8 7C       		.byte	0x7c
 11477 0bc9 00       		.sleb128 0
 11478 0bca 40       		.byte	0x40
 11479 0bcb 24       		.byte	0x24
 11480 0bcc 40       		.byte	0x40
 11481 0bcd 26       		.byte	0x26
 11482 0bce 79       		.byte	0x79
 11483 0bcf 00       		.sleb128 0
 11484 0bd0 40       		.byte	0x40
 11485 0bd1 24       		.byte	0x24
 11486 0bd2 40       		.byte	0x40
 11487 0bd3 26       		.byte	0x26
 11488 0bd4 1E       		.byte	0x1e
 11489 0bd5 76       		.byte	0x76
 11490 0bd6 00       		.sleb128 0
 11491 0bd7 40       		.byte	0x40
 11492 0bd8 24       		.byte	0x24
 11493 0bd9 40       		.byte	0x40
 11494 0bda 26       		.byte	0x26
 11495 0bdb 7E       		.byte	0x7e
 11496 0bdc 00       		.sleb128 0
 11497 0bdd 40       		.byte	0x40
 11498 0bde 24       		.byte	0x24
 11499 0bdf 40       		.byte	0x40
 11500 0be0 26       		.byte	0x26
 11501 0be1 1E       		.byte	0x1e
ARM GAS  C:\Users\rdn\AppData\Local\Temp\ccIOjLNc.s 			page 230


 11502 0be2 22       		.byte	0x22
 11503 0be3 22       		.byte	0x22
 11504 0be4 22       		.byte	0x22
 11505 0be5 9F       		.byte	0x9f
 11506 0be6 3A000000 		.4byte	.LVL90
 11507 0bea 46000000 		.4byte	.LVL91
 11508 0bee 3A00     		.2byte	0x3a
 11509 0bf0 74       		.byte	0x74
 11510 0bf1 00       		.sleb128 0
 11511 0bf2 40       		.byte	0x40
 11512 0bf3 24       		.byte	0x24
 11513 0bf4 40       		.byte	0x40
 11514 0bf5 26       		.byte	0x26
 11515 0bf6 77       		.byte	0x77
 11516 0bf7 00       		.sleb128 0
 11517 0bf8 40       		.byte	0x40
 11518 0bf9 24       		.byte	0x24
 11519 0bfa 40       		.byte	0x40
 11520 0bfb 26       		.byte	0x26
 11521 0bfc 1E       		.byte	0x1e
 11522 0bfd 75       		.byte	0x75
 11523 0bfe 00       		.sleb128 0
 11524 0bff 40       		.byte	0x40
 11525 0c00 24       		.byte	0x24
 11526 0c01 40       		.byte	0x40
 11527 0c02 26       		.byte	0x26
 11528 0c03 78       		.byte	0x78
 11529 0c04 00       		.sleb128 0
 11530 0c05 40       		.byte	0x40
 11531 0c06 24       		.byte	0x24
 11532 0c07 40       		.byte	0x40
 11533 0c08 26       		.byte	0x26
 11534 0c09 1E       		.byte	0x1e
 11535 0c0a 7C       		.byte	0x7c
 11536 0c0b 00       		.sleb128 0
 11537 0c0c 40       		.byte	0x40
 11538 0c0d 24       		.byte	0x24
 11539 0c0e 40       		.byte	0x40
 11540 0c0f 26       		.byte	0x26
 11541 0c10 79       		.byte	0x79
 11542 0c11 00       		.sleb128 0
 11543 0c12 40       		.byte	0x40
 11544 0c13 24       		.byte	0x24
 11545 0c14 40       		.byte	0x40
 11546 0c15 26       		.byte	0x26
 11547 0c16 1E       		.byte	0x1e
 11548 0c17 76       		.byte	0x76
 11549 0c18 00       		.sleb128 0
 11550 0c19 40       		.byte	0x40
 11551 0c1a 24       		.byte	0x24
 11552 0c1b 40       		.byte	0x40
 11553 0c1c 26       		.byte	0x26
 11554 0c1d 72       		.byte	0x72
 11555 0c1e 02       		.sleb128 2
 11556 0c1f 94       		.byte	0x94
 11557 0c20 02       		.byte	0x2
 11558 0c21 40       		.byte	0x40
ARM GAS  C:\Users\rdn\AppData\Local\Temp\ccIOjLNc.s 			page 231


 11559 0c22 24       		.byte	0x24
 11560 0c23 40       		.byte	0x40
 11561 0c24 26       		.byte	0x26
 11562 0c25 1E       		.byte	0x1e
 11563 0c26 22       		.byte	0x22
 11564 0c27 22       		.byte	0x22
 11565 0c28 22       		.byte	0x22
 11566 0c29 9F       		.byte	0x9f
 11567 0c2a 5E000000 		.4byte	.LVL94
 11568 0c2e 62000000 		.4byte	.LVL95
 11569 0c32 3800     		.2byte	0x38
 11570 0c34 75       		.byte	0x75
 11571 0c35 00       		.sleb128 0
 11572 0c36 40       		.byte	0x40
 11573 0c37 24       		.byte	0x24
 11574 0c38 40       		.byte	0x40
 11575 0c39 26       		.byte	0x26
 11576 0c3a 77       		.byte	0x77
 11577 0c3b 00       		.sleb128 0
 11578 0c3c 40       		.byte	0x40
 11579 0c3d 24       		.byte	0x24
 11580 0c3e 40       		.byte	0x40
 11581 0c3f 26       		.byte	0x26
 11582 0c40 1E       		.byte	0x1e
 11583 0c41 76       		.byte	0x76
 11584 0c42 00       		.sleb128 0
 11585 0c43 40       		.byte	0x40
 11586 0c44 24       		.byte	0x24
 11587 0c45 40       		.byte	0x40
 11588 0c46 26       		.byte	0x26
 11589 0c47 78       		.byte	0x78
 11590 0c48 00       		.sleb128 0
 11591 0c49 40       		.byte	0x40
 11592 0c4a 24       		.byte	0x24
 11593 0c4b 40       		.byte	0x40
 11594 0c4c 26       		.byte	0x26
 11595 0c4d 1E       		.byte	0x1e
 11596 0c4e 74       		.byte	0x74
 11597 0c4f 00       		.sleb128 0
 11598 0c50 40       		.byte	0x40
 11599 0c51 24       		.byte	0x24
 11600 0c52 40       		.byte	0x40
 11601 0c53 26       		.byte	0x26
 11602 0c54 79       		.byte	0x79
 11603 0c55 00       		.sleb128 0
 11604 0c56 40       		.byte	0x40
 11605 0c57 24       		.byte	0x24
 11606 0c58 40       		.byte	0x40
 11607 0c59 26       		.byte	0x26
 11608 0c5a 1E       		.byte	0x1e
 11609 0c5b 7C       		.byte	0x7c
 11610 0c5c 00       		.sleb128 0
 11611 0c5d 40       		.byte	0x40
 11612 0c5e 24       		.byte	0x24
 11613 0c5f 40       		.byte	0x40
 11614 0c60 26       		.byte	0x26
 11615 0c61 7E       		.byte	0x7e
ARM GAS  C:\Users\rdn\AppData\Local\Temp\ccIOjLNc.s 			page 232


 11616 0c62 00       		.sleb128 0
 11617 0c63 40       		.byte	0x40
 11618 0c64 24       		.byte	0x24
 11619 0c65 40       		.byte	0x40
 11620 0c66 26       		.byte	0x26
 11621 0c67 1E       		.byte	0x1e
 11622 0c68 22       		.byte	0x22
 11623 0c69 22       		.byte	0x22
 11624 0c6a 22       		.byte	0x22
 11625 0c6b 9F       		.byte	0x9f
 11626 0c6c 62000000 		.4byte	.LVL95
 11627 0c70 6E000000 		.4byte	.LVL96
 11628 0c74 3A00     		.2byte	0x3a
 11629 0c76 75       		.byte	0x75
 11630 0c77 00       		.sleb128 0
 11631 0c78 40       		.byte	0x40
 11632 0c79 24       		.byte	0x24
 11633 0c7a 40       		.byte	0x40
 11634 0c7b 26       		.byte	0x26
 11635 0c7c 77       		.byte	0x77
 11636 0c7d 00       		.sleb128 0
 11637 0c7e 40       		.byte	0x40
 11638 0c7f 24       		.byte	0x24
 11639 0c80 40       		.byte	0x40
 11640 0c81 26       		.byte	0x26
 11641 0c82 1E       		.byte	0x1e
 11642 0c83 76       		.byte	0x76
 11643 0c84 00       		.sleb128 0
 11644 0c85 40       		.byte	0x40
 11645 0c86 24       		.byte	0x24
 11646 0c87 40       		.byte	0x40
 11647 0c88 26       		.byte	0x26
 11648 0c89 78       		.byte	0x78
 11649 0c8a 00       		.sleb128 0
 11650 0c8b 40       		.byte	0x40
 11651 0c8c 24       		.byte	0x24
 11652 0c8d 40       		.byte	0x40
 11653 0c8e 26       		.byte	0x26
 11654 0c8f 1E       		.byte	0x1e
 11655 0c90 74       		.byte	0x74
 11656 0c91 00       		.sleb128 0
 11657 0c92 40       		.byte	0x40
 11658 0c93 24       		.byte	0x24
 11659 0c94 40       		.byte	0x40
 11660 0c95 26       		.byte	0x26
 11661 0c96 79       		.byte	0x79
 11662 0c97 00       		.sleb128 0
 11663 0c98 40       		.byte	0x40
 11664 0c99 24       		.byte	0x24
 11665 0c9a 40       		.byte	0x40
 11666 0c9b 26       		.byte	0x26
 11667 0c9c 1E       		.byte	0x1e
 11668 0c9d 7C       		.byte	0x7c
 11669 0c9e 00       		.sleb128 0
 11670 0c9f 40       		.byte	0x40
 11671 0ca0 24       		.byte	0x24
 11672 0ca1 40       		.byte	0x40
ARM GAS  C:\Users\rdn\AppData\Local\Temp\ccIOjLNc.s 			page 233


 11673 0ca2 26       		.byte	0x26
 11674 0ca3 72       		.byte	0x72
 11675 0ca4 02       		.sleb128 2
 11676 0ca5 94       		.byte	0x94
 11677 0ca6 02       		.byte	0x2
 11678 0ca7 40       		.byte	0x40
 11679 0ca8 24       		.byte	0x24
 11680 0ca9 40       		.byte	0x40
 11681 0caa 26       		.byte	0x26
 11682 0cab 1E       		.byte	0x1e
 11683 0cac 22       		.byte	0x22
 11684 0cad 22       		.byte	0x22
 11685 0cae 22       		.byte	0x22
 11686 0caf 9F       		.byte	0x9f
 11687 0cb0 86000000 		.4byte	.LVL99
 11688 0cb4 88000000 		.4byte	.LVL100
 11689 0cb8 3800     		.2byte	0x38
 11690 0cba 76       		.byte	0x76
 11691 0cbb 00       		.sleb128 0
 11692 0cbc 40       		.byte	0x40
 11693 0cbd 24       		.byte	0x24
 11694 0cbe 40       		.byte	0x40
 11695 0cbf 26       		.byte	0x26
 11696 0cc0 7E       		.byte	0x7e
 11697 0cc1 00       		.sleb128 0
 11698 0cc2 40       		.byte	0x40
 11699 0cc3 24       		.byte	0x24
 11700 0cc4 40       		.byte	0x40
 11701 0cc5 26       		.byte	0x26
 11702 0cc6 1E       		.byte	0x1e
 11703 0cc7 7C       		.byte	0x7c
 11704 0cc8 00       		.sleb128 0
 11705 0cc9 40       		.byte	0x40
 11706 0cca 24       		.byte	0x24
 11707 0ccb 40       		.byte	0x40
 11708 0ccc 26       		.byte	0x26
 11709 0ccd 78       		.byte	0x78
 11710 0cce 00       		.sleb128 0
 11711 0ccf 40       		.byte	0x40
 11712 0cd0 24       		.byte	0x24
 11713 0cd1 40       		.byte	0x40
 11714 0cd2 26       		.byte	0x26
 11715 0cd3 1E       		.byte	0x1e
 11716 0cd4 75       		.byte	0x75
 11717 0cd5 00       		.sleb128 0
 11718 0cd6 40       		.byte	0x40
 11719 0cd7 24       		.byte	0x24
 11720 0cd8 40       		.byte	0x40
 11721 0cd9 26       		.byte	0x26
 11722 0cda 79       		.byte	0x79
 11723 0cdb 00       		.sleb128 0
 11724 0cdc 40       		.byte	0x40
 11725 0cdd 24       		.byte	0x24
 11726 0cde 40       		.byte	0x40
 11727 0cdf 26       		.byte	0x26
 11728 0ce0 1E       		.byte	0x1e
 11729 0ce1 74       		.byte	0x74
ARM GAS  C:\Users\rdn\AppData\Local\Temp\ccIOjLNc.s 			page 234


 11730 0ce2 00       		.sleb128 0
 11731 0ce3 40       		.byte	0x40
 11732 0ce4 24       		.byte	0x24
 11733 0ce5 40       		.byte	0x40
 11734 0ce6 26       		.byte	0x26
 11735 0ce7 77       		.byte	0x77
 11736 0ce8 00       		.sleb128 0
 11737 0ce9 40       		.byte	0x40
 11738 0cea 24       		.byte	0x24
 11739 0ceb 40       		.byte	0x40
 11740 0cec 26       		.byte	0x26
 11741 0ced 1E       		.byte	0x1e
 11742 0cee 22       		.byte	0x22
 11743 0cef 22       		.byte	0x22
 11744 0cf0 22       		.byte	0x22
 11745 0cf1 9F       		.byte	0x9f
 11746 0cf2 88000000 		.4byte	.LVL100
 11747 0cf6 94000000 		.4byte	.LVL101
 11748 0cfa 3A00     		.2byte	0x3a
 11749 0cfc 76       		.byte	0x76
 11750 0cfd 00       		.sleb128 0
 11751 0cfe 40       		.byte	0x40
 11752 0cff 24       		.byte	0x24
 11753 0d00 40       		.byte	0x40
 11754 0d01 26       		.byte	0x26
 11755 0d02 7E       		.byte	0x7e
 11756 0d03 00       		.sleb128 0
 11757 0d04 40       		.byte	0x40
 11758 0d05 24       		.byte	0x24
 11759 0d06 40       		.byte	0x40
 11760 0d07 26       		.byte	0x26
 11761 0d08 1E       		.byte	0x1e
 11762 0d09 7C       		.byte	0x7c
 11763 0d0a 00       		.sleb128 0
 11764 0d0b 40       		.byte	0x40
 11765 0d0c 24       		.byte	0x24
 11766 0d0d 40       		.byte	0x40
 11767 0d0e 26       		.byte	0x26
 11768 0d0f 78       		.byte	0x78
 11769 0d10 00       		.sleb128 0
 11770 0d11 40       		.byte	0x40
 11771 0d12 24       		.byte	0x24
 11772 0d13 40       		.byte	0x40
 11773 0d14 26       		.byte	0x26
 11774 0d15 1E       		.byte	0x1e
 11775 0d16 75       		.byte	0x75
 11776 0d17 00       		.sleb128 0
 11777 0d18 40       		.byte	0x40
 11778 0d19 24       		.byte	0x24
 11779 0d1a 40       		.byte	0x40
 11780 0d1b 26       		.byte	0x26
 11781 0d1c 79       		.byte	0x79
 11782 0d1d 00       		.sleb128 0
 11783 0d1e 40       		.byte	0x40
 11784 0d1f 24       		.byte	0x24
 11785 0d20 40       		.byte	0x40
 11786 0d21 26       		.byte	0x26
ARM GAS  C:\Users\rdn\AppData\Local\Temp\ccIOjLNc.s 			page 235


 11787 0d22 1E       		.byte	0x1e
 11788 0d23 74       		.byte	0x74
 11789 0d24 00       		.sleb128 0
 11790 0d25 40       		.byte	0x40
 11791 0d26 24       		.byte	0x24
 11792 0d27 40       		.byte	0x40
 11793 0d28 26       		.byte	0x26
 11794 0d29 72       		.byte	0x72
 11795 0d2a 02       		.sleb128 2
 11796 0d2b 94       		.byte	0x94
 11797 0d2c 02       		.byte	0x2
 11798 0d2d 40       		.byte	0x40
 11799 0d2e 24       		.byte	0x24
 11800 0d2f 40       		.byte	0x40
 11801 0d30 26       		.byte	0x26
 11802 0d31 1E       		.byte	0x1e
 11803 0d32 22       		.byte	0x22
 11804 0d33 22       		.byte	0x22
 11805 0d34 22       		.byte	0x22
 11806 0d35 9F       		.byte	0x9f
 11807 0d36 AC000000 		.4byte	.LVL104
 11808 0d3a AE000000 		.4byte	.LVL105
 11809 0d3e 3800     		.2byte	0x38
 11810 0d40 7C       		.byte	0x7c
 11811 0d41 00       		.sleb128 0
 11812 0d42 40       		.byte	0x40
 11813 0d43 24       		.byte	0x24
 11814 0d44 40       		.byte	0x40
 11815 0d45 26       		.byte	0x26
 11816 0d46 7E       		.byte	0x7e
 11817 0d47 00       		.sleb128 0
 11818 0d48 40       		.byte	0x40
 11819 0d49 24       		.byte	0x24
 11820 0d4a 40       		.byte	0x40
 11821 0d4b 26       		.byte	0x26
 11822 0d4c 1E       		.byte	0x1e
 11823 0d4d 74       		.byte	0x74
 11824 0d4e 00       		.sleb128 0
 11825 0d4f 40       		.byte	0x40
 11826 0d50 24       		.byte	0x24
 11827 0d51 40       		.byte	0x40
 11828 0d52 26       		.byte	0x26
 11829 0d53 78       		.byte	0x78
 11830 0d54 00       		.sleb128 0
 11831 0d55 40       		.byte	0x40
 11832 0d56 24       		.byte	0x24
 11833 0d57 40       		.byte	0x40
 11834 0d58 26       		.byte	0x26
 11835 0d59 1E       		.byte	0x1e
 11836 0d5a 76       		.byte	0x76
 11837 0d5b 00       		.sleb128 0
 11838 0d5c 40       		.byte	0x40
 11839 0d5d 24       		.byte	0x24
 11840 0d5e 40       		.byte	0x40
 11841 0d5f 26       		.byte	0x26
 11842 0d60 79       		.byte	0x79
 11843 0d61 00       		.sleb128 0
ARM GAS  C:\Users\rdn\AppData\Local\Temp\ccIOjLNc.s 			page 236


 11844 0d62 40       		.byte	0x40
 11845 0d63 24       		.byte	0x24
 11846 0d64 40       		.byte	0x40
 11847 0d65 26       		.byte	0x26
 11848 0d66 1E       		.byte	0x1e
 11849 0d67 75       		.byte	0x75
 11850 0d68 00       		.sleb128 0
 11851 0d69 40       		.byte	0x40
 11852 0d6a 24       		.byte	0x24
 11853 0d6b 40       		.byte	0x40
 11854 0d6c 26       		.byte	0x26
 11855 0d6d 77       		.byte	0x77
 11856 0d6e 00       		.sleb128 0
 11857 0d6f 40       		.byte	0x40
 11858 0d70 24       		.byte	0x24
 11859 0d71 40       		.byte	0x40
 11860 0d72 26       		.byte	0x26
 11861 0d73 1E       		.byte	0x1e
 11862 0d74 22       		.byte	0x22
 11863 0d75 22       		.byte	0x22
 11864 0d76 22       		.byte	0x22
 11865 0d77 9F       		.byte	0x9f
 11866 0d78 AE000000 		.4byte	.LVL105
 11867 0d7c C2000000 		.4byte	.LVL107
 11868 0d80 3A00     		.2byte	0x3a
 11869 0d82 7C       		.byte	0x7c
 11870 0d83 00       		.sleb128 0
 11871 0d84 40       		.byte	0x40
 11872 0d85 24       		.byte	0x24
 11873 0d86 40       		.byte	0x40
 11874 0d87 26       		.byte	0x26
 11875 0d88 7E       		.byte	0x7e
 11876 0d89 00       		.sleb128 0
 11877 0d8a 40       		.byte	0x40
 11878 0d8b 24       		.byte	0x24
 11879 0d8c 40       		.byte	0x40
 11880 0d8d 26       		.byte	0x26
 11881 0d8e 1E       		.byte	0x1e
 11882 0d8f 74       		.byte	0x74
 11883 0d90 00       		.sleb128 0
 11884 0d91 40       		.byte	0x40
 11885 0d92 24       		.byte	0x24
 11886 0d93 40       		.byte	0x40
 11887 0d94 26       		.byte	0x26
 11888 0d95 78       		.byte	0x78
 11889 0d96 00       		.sleb128 0
 11890 0d97 40       		.byte	0x40
 11891 0d98 24       		.byte	0x24
 11892 0d99 40       		.byte	0x40
 11893 0d9a 26       		.byte	0x26
 11894 0d9b 1E       		.byte	0x1e
 11895 0d9c 76       		.byte	0x76
 11896 0d9d 00       		.sleb128 0
 11897 0d9e 40       		.byte	0x40
 11898 0d9f 24       		.byte	0x24
 11899 0da0 40       		.byte	0x40
 11900 0da1 26       		.byte	0x26
ARM GAS  C:\Users\rdn\AppData\Local\Temp\ccIOjLNc.s 			page 237


 11901 0da2 79       		.byte	0x79
 11902 0da3 00       		.sleb128 0
 11903 0da4 40       		.byte	0x40
 11904 0da5 24       		.byte	0x24
 11905 0da6 40       		.byte	0x40
 11906 0da7 26       		.byte	0x26
 11907 0da8 1E       		.byte	0x1e
 11908 0da9 75       		.byte	0x75
 11909 0daa 00       		.sleb128 0
 11910 0dab 40       		.byte	0x40
 11911 0dac 24       		.byte	0x24
 11912 0dad 40       		.byte	0x40
 11913 0dae 26       		.byte	0x26
 11914 0daf 72       		.byte	0x72
 11915 0db0 02       		.sleb128 2
 11916 0db1 94       		.byte	0x94
 11917 0db2 02       		.byte	0x2
 11918 0db3 40       		.byte	0x40
 11919 0db4 24       		.byte	0x24
 11920 0db5 40       		.byte	0x40
 11921 0db6 26       		.byte	0x26
 11922 0db7 1E       		.byte	0x1e
 11923 0db8 22       		.byte	0x22
 11924 0db9 22       		.byte	0x22
 11925 0dba 22       		.byte	0x22
 11926 0dbb 9F       		.byte	0x9f
 11927 0dbc 00000000 		.4byte	0
 11928 0dc0 00000000 		.4byte	0
 11929              	.LLST43:
 11930 0dc4 1E000000 		.4byte	.LVL111
 11931 0dc8 20000000 		.4byte	.LVL112
 11932 0dcc 0100     		.2byte	0x1
 11933 0dce 53       		.byte	0x53
 11934 0dcf 20000000 		.4byte	.LVL112
 11935 0dd3 2A000000 		.4byte	.LVL113
 11936 0dd7 0300     		.2byte	0x3
 11937 0dd9 73       		.byte	0x73
 11938 0dda 04       		.sleb128 4
 11939 0ddb 9F       		.byte	0x9f
 11940 0ddc 2A000000 		.4byte	.LVL113
 11941 0de0 A8000000 		.4byte	.LFE35
 11942 0de4 0100     		.2byte	0x1
 11943 0de6 53       		.byte	0x53
 11944 0de7 00000000 		.4byte	0
 11945 0deb 00000000 		.4byte	0
 11946              	.LLST44:
 11947 0def 00000000 		.4byte	.LVL117
 11948 0df3 52000000 		.4byte	.LVL121
 11949 0df7 0100     		.2byte	0x1
 11950 0df9 51       		.byte	0x51
 11951 0dfa 52000000 		.4byte	.LVL121
 11952 0dfe 56000000 		.4byte	.LVL122
 11953 0e02 0700     		.2byte	0x7
 11954 0e04 71       		.byte	0x71
 11955 0e05 80808080 		.sleb128 -1073741824
 11955      7C
 11956 0e0a 9F       		.byte	0x9f
ARM GAS  C:\Users\rdn\AppData\Local\Temp\ccIOjLNc.s 			page 238


 11957 0e0b 56000000 		.4byte	.LVL122
 11958 0e0f 5A000000 		.4byte	.LVL123
 11959 0e13 0700     		.2byte	0x7
 11960 0e15 71       		.byte	0x71
 11961 0e16 81808080 		.sleb128 -1073741823
 11961      7C
 11962 0e1b 9F       		.byte	0x9f
 11963 0e1c 5A000000 		.4byte	.LVL123
 11964 0e20 B4010000 		.4byte	.LFE39
 11965 0e24 0400     		.2byte	0x4
 11966 0e26 F3       		.byte	0xf3
 11967 0e27 01       		.uleb128 0x1
 11968 0e28 51       		.byte	0x51
 11969 0e29 9F       		.byte	0x9f
 11970 0e2a 00000000 		.4byte	0
 11971 0e2e 00000000 		.4byte	0
 11972              	.LLST45:
 11973 0e32 00000000 		.4byte	.LVL117
 11974 0e36 30000000 		.4byte	.LVL118
 11975 0e3a 0100     		.2byte	0x1
 11976 0e3c 52       		.byte	0x52
 11977 0e3d 30000000 		.4byte	.LVL118
 11978 0e41 46000000 		.4byte	.LVL119
 11979 0e45 0400     		.2byte	0x4
 11980 0e47 F3       		.byte	0xf3
 11981 0e48 01       		.uleb128 0x1
 11982 0e49 52       		.byte	0x52
 11983 0e4a 9F       		.byte	0x9f
 11984 0e4b 46000000 		.4byte	.LVL119
 11985 0e4f 4E000000 		.4byte	.LVL120
 11986 0e53 0100     		.2byte	0x1
 11987 0e55 52       		.byte	0x52
 11988 0e56 4E000000 		.4byte	.LVL120
 11989 0e5a AE010000 		.4byte	.LVL160
 11990 0e5e 0900     		.2byte	0x9
 11991 0e60 74       		.byte	0x74
 11992 0e61 00       		.sleb128 0
 11993 0e62 31       		.byte	0x31
 11994 0e63 26       		.byte	0x26
 11995 0e64 F3       		.byte	0xf3
 11996 0e65 01       		.uleb128 0x1
 11997 0e66 52       		.byte	0x52
 11998 0e67 22       		.byte	0x22
 11999 0e68 9F       		.byte	0x9f
 12000 0e69 AE010000 		.4byte	.LVL160
 12001 0e6d B4010000 		.4byte	.LFE39
 12002 0e71 0A00     		.2byte	0xa
 12003 0e73 7D       		.byte	0x7d
 12004 0e74 0C       		.sleb128 12
 12005 0e75 06       		.byte	0x6
 12006 0e76 31       		.byte	0x31
 12007 0e77 26       		.byte	0x26
 12008 0e78 F3       		.byte	0xf3
 12009 0e79 01       		.uleb128 0x1
 12010 0e7a 52       		.byte	0x52
 12011 0e7b 22       		.byte	0x22
 12012 0e7c 9F       		.byte	0x9f
ARM GAS  C:\Users\rdn\AppData\Local\Temp\ccIOjLNc.s 			page 239


 12013 0e7d 00000000 		.4byte	0
 12014 0e81 00000000 		.4byte	0
 12015              	.LLST46:
 12016 0e85 00000000 		.4byte	.LVL117
 12017 0e89 72000000 		.4byte	.LVL125
 12018 0e8d 0100     		.2byte	0x1
 12019 0e8f 53       		.byte	0x53
 12020 0e90 72000000 		.4byte	.LVL125
 12021 0e94 86000000 		.4byte	.LVL127
 12022 0e98 0100     		.2byte	0x1
 12023 0e9a 5A       		.byte	0x5a
 12024 0e9b 86000000 		.4byte	.LVL127
 12025 0e9f DA000000 		.4byte	.LVL135
 12026 0ea3 0300     		.2byte	0x3
 12027 0ea5 7A       		.byte	0x7a
 12028 0ea6 7C       		.sleb128 -4
 12029 0ea7 9F       		.byte	0x9f
 12030 0ea8 DA000000 		.4byte	.LVL135
 12031 0eac F6000000 		.4byte	.LVL138
 12032 0eb0 0100     		.2byte	0x1
 12033 0eb2 5A       		.byte	0x5a
 12034 0eb3 00000000 		.4byte	0
 12035 0eb7 00000000 		.4byte	0
 12036              	.LLST47:
 12037 0ebb 00000000 		.4byte	.LVL117
 12038 0ebf F6000000 		.4byte	.LVL138
 12039 0ec3 0200     		.2byte	0x2
 12040 0ec5 91       		.byte	0x91
 12041 0ec6 00       		.sleb128 0
 12042 0ec7 F6000000 		.4byte	.LVL138
 12043 0ecb 02010000 		.4byte	.LVL139
 12044 0ecf 0100     		.2byte	0x1
 12045 0ed1 55       		.byte	0x55
 12046 0ed2 A8010000 		.4byte	.LVL158
 12047 0ed6 AE010000 		.4byte	.LVL160
 12048 0eda 0100     		.2byte	0x1
 12049 0edc 55       		.byte	0x55
 12050 0edd 00000000 		.4byte	0
 12051 0ee1 00000000 		.4byte	0
 12052              	.LLST48:
 12053 0ee5 00000000 		.4byte	.LVL117
 12054 0ee9 AE010000 		.4byte	.LVL160
 12055 0eed 0200     		.2byte	0x2
 12056 0eef 91       		.byte	0x91
 12057 0ef0 04       		.sleb128 4
 12058 0ef1 AE010000 		.4byte	.LVL160
 12059 0ef5 B4010000 		.4byte	.LFE39
 12060 0ef9 0200     		.2byte	0x2
 12061 0efb 7D       		.byte	0x7d
 12062 0efc 04       		.sleb128 4
 12063 0efd 00000000 		.4byte	0
 12064 0f01 00000000 		.4byte	0
 12065              	.LLST49:
 12066 0f05 00000000 		.4byte	.LVL117
 12067 0f09 AE010000 		.4byte	.LVL160
 12068 0f0d 0200     		.2byte	0x2
 12069 0f0f 91       		.byte	0x91
ARM GAS  C:\Users\rdn\AppData\Local\Temp\ccIOjLNc.s 			page 240


 12070 0f10 08       		.sleb128 8
 12071 0f11 AE010000 		.4byte	.LVL160
 12072 0f15 B4010000 		.4byte	.LFE39
 12073 0f19 0200     		.2byte	0x2
 12074 0f1b 7D       		.byte	0x7d
 12075 0f1c 08       		.sleb128 8
 12076 0f1d 00000000 		.4byte	0
 12077 0f21 00000000 		.4byte	0
 12078              	.LLST50:
 12079 0f25 00000000 		.4byte	.LVL117
 12080 0f29 AE010000 		.4byte	.LVL160
 12081 0f2d 0200     		.2byte	0x2
 12082 0f2f 91       		.byte	0x91
 12083 0f30 0C       		.sleb128 12
 12084 0f31 AE010000 		.4byte	.LVL160
 12085 0f35 B4010000 		.4byte	.LFE39
 12086 0f39 0200     		.2byte	0x2
 12087 0f3b 7D       		.byte	0x7d
 12088 0f3c 0C       		.sleb128 12
 12089 0f3d 00000000 		.4byte	0
 12090 0f41 00000000 		.4byte	0
 12091              	.LLST51:
 12092 0f45 00000000 		.4byte	.LVL117
 12093 0f49 AE010000 		.4byte	.LVL160
 12094 0f4d 0200     		.2byte	0x2
 12095 0f4f 91       		.byte	0x91
 12096 0f50 10       		.sleb128 16
 12097 0f51 AE010000 		.4byte	.LVL160
 12098 0f55 B4010000 		.4byte	.LFE39
 12099 0f59 0200     		.2byte	0x2
 12100 0f5b 7D       		.byte	0x7d
 12101 0f5c 10       		.sleb128 16
 12102 0f5d 00000000 		.4byte	0
 12103 0f61 00000000 		.4byte	0
 12104              	.LLST52:
 12105 0f65 6E000000 		.4byte	.LVL124
 12106 0f69 8E000000 		.4byte	.LVL128
 12107 0f6d 0100     		.2byte	0x1
 12108 0f6f 52       		.byte	0x52
 12109 0f70 90000000 		.4byte	.LVL129
 12110 0f74 1C010000 		.4byte	.LVL144
 12111 0f78 0100     		.2byte	0x1
 12112 0f7a 52       		.byte	0x52
 12113 0f7b 1E010000 		.4byte	.LVL145
 12114 0f7f B4010000 		.4byte	.LFE39
 12115 0f83 0100     		.2byte	0x1
 12116 0f85 52       		.byte	0x52
 12117 0f86 00000000 		.4byte	0
 12118 0f8a 00000000 		.4byte	0
 12119              	.LLST53:
 12120 0f8e 6E000000 		.4byte	.LVL124
 12121 0f92 AA010000 		.4byte	.LVL159
 12122 0f96 0200     		.2byte	0x2
 12123 0f98 7D       		.byte	0x7d
 12124 0f99 00       		.sleb128 0
 12125 0f9a AA010000 		.4byte	.LVL159
 12126 0f9e AE010000 		.4byte	.LVL160
ARM GAS  C:\Users\rdn\AppData\Local\Temp\ccIOjLNc.s 			page 241


 12127 0fa2 0300     		.2byte	0x3
 12128 0fa4 91       		.byte	0x91
 12129 0fa5 F07E     		.sleb128 -144
 12130 0fa7 AE010000 		.4byte	.LVL160
 12131 0fab B4010000 		.4byte	.LFE39
 12132 0faf 0300     		.2byte	0x3
 12133 0fb1 7D       		.byte	0x7d
 12134 0fb2 F07E     		.sleb128 -144
 12135 0fb4 00000000 		.4byte	0
 12136 0fb8 00000000 		.4byte	0
 12137              	.LLST54:
 12138 0fbc 6E000000 		.4byte	.LVL124
 12139 0fc0 72000000 		.4byte	.LVL125
 12140 0fc4 0200     		.2byte	0x2
 12141 0fc6 30       		.byte	0x30
 12142 0fc7 9F       		.byte	0x9f
 12143 0fc8 72000000 		.4byte	.LVL125
 12144 0fcc E4000000 		.4byte	.LVL136
 12145 0fd0 0100     		.2byte	0x1
 12146 0fd2 51       		.byte	0x51
 12147 0fd3 00000000 		.4byte	0
 12148 0fd7 00000000 		.4byte	0
 12149              	.LLST55:
 12150 0fdb 7C000000 		.4byte	.LVL126
 12151 0fdf 9A000000 		.4byte	.LVL130
 12152 0fe3 0200     		.2byte	0x2
 12153 0fe5 90       		.byte	0x90
 12154 0fe6 4E       		.uleb128 0x4e
 12155 0fe7 00000000 		.4byte	0
 12156 0feb 00000000 		.4byte	0
 12157              	.LLST56:
 12158 0fef 86000000 		.4byte	.LVL127
 12159 0ff3 DA000000 		.4byte	.LVL135
 12160 0ff7 0200     		.2byte	0x2
 12161 0ff9 90       		.byte	0x90
 12162 0ffa 4B       		.uleb128 0x4b
 12163 0ffb 00000000 		.4byte	0
 12164 0fff 00000000 		.4byte	0
 12165              	.LLST57:
 12166 1003 90000000 		.4byte	.LVL129
 12167 1007 9A000000 		.4byte	.LVL130
 12168 100b 0200     		.2byte	0x2
 12169 100d 30       		.byte	0x30
 12170 100e 9F       		.byte	0x9f
 12171 100f 9A000000 		.4byte	.LVL130
 12172 1013 BC000000 		.4byte	.LVL132
 12173 1017 0100     		.2byte	0x1
 12174 1019 5E       		.byte	0x5e
 12175 101a 00000000 		.4byte	0
 12176 101e 00000000 		.4byte	0
 12177              	.LLST58:
 12178 1022 BC000000 		.4byte	.LVL132
 12179 1026 DA000000 		.4byte	.LVL135
 12180 102a 0100     		.2byte	0x1
 12181 102c 5E       		.byte	0x5e
 12182 102d 00000000 		.4byte	0
 12183 1031 00000000 		.4byte	0
ARM GAS  C:\Users\rdn\AppData\Local\Temp\ccIOjLNc.s 			page 242


 12184              	.LLST59:
 12185 1035 F0000000 		.4byte	.LVL137
 12186 1039 F6000000 		.4byte	.LVL138
 12187 103d 0200     		.2byte	0x2
 12188 103f 30       		.byte	0x30
 12189 1040 9F       		.byte	0x9f
 12190 1041 F6000000 		.4byte	.LVL138
 12191 1045 B4010000 		.4byte	.LFE39
 12192 1049 0100     		.2byte	0x1
 12193 104b 5C       		.byte	0x5c
 12194 104c 00000000 		.4byte	0
 12195 1050 00000000 		.4byte	0
 12196              	.LLST60:
 12197 1054 02010000 		.4byte	.LVL139
 12198 1058 04010000 		.4byte	.LVL140
 12199 105c 0600     		.2byte	0x6
 12200 105e 71       		.byte	0x71
 12201 105f 00       		.sleb128 0
 12202 1060 74       		.byte	0x74
 12203 1061 00       		.sleb128 0
 12204 1062 1C       		.byte	0x1c
 12205 1063 9F       		.byte	0x9f
 12206 1064 04010000 		.4byte	.LVL140
 12207 1068 0A010000 		.4byte	.LVL141
 12208 106c 0100     		.2byte	0x1
 12209 106e 53       		.byte	0x53
 12210 106f 0A010000 		.4byte	.LVL141
 12211 1073 90010000 		.4byte	.LVL151
 12212 1077 0600     		.2byte	0x6
 12213 1079 71       		.byte	0x71
 12214 107a 00       		.sleb128 0
 12215 107b 74       		.byte	0x74
 12216 107c 00       		.sleb128 0
 12217 107d 1C       		.byte	0x1c
 12218 107e 9F       		.byte	0x9f
 12219 107f A0010000 		.4byte	.LVL155
 12220 1083 A2010000 		.4byte	.LVL156
 12221 1087 0100     		.2byte	0x1
 12222 1089 53       		.byte	0x53
 12223 108a A2010000 		.4byte	.LVL156
 12224 108e A8010000 		.4byte	.LVL158
 12225 1092 0600     		.2byte	0x6
 12226 1094 71       		.byte	0x71
 12227 1095 00       		.sleb128 0
 12228 1096 74       		.byte	0x74
 12229 1097 00       		.sleb128 0
 12230 1098 1C       		.byte	0x1c
 12231 1099 9F       		.byte	0x9f
 12232 109a 00000000 		.4byte	0
 12233 109e 00000000 		.4byte	0
 12234              	.LLST61:
 12235 10a2 0E010000 		.4byte	.LVL142
 12236 10a6 28010000 		.4byte	.LVL146
 12237 10aa 0200     		.2byte	0x2
 12238 10ac 90       		.byte	0x90
 12239 10ad 4C       		.uleb128 0x4c
 12240 10ae 00000000 		.4byte	0
ARM GAS  C:\Users\rdn\AppData\Local\Temp\ccIOjLNc.s 			page 243


 12241 10b2 00000000 		.4byte	0
 12242              	.LLST62:
 12243 10b6 12010000 		.4byte	.LVL143
 12244 10ba 94010000 		.4byte	.LVL152
 12245 10be 0200     		.2byte	0x2
 12246 10c0 90       		.byte	0x90
 12247 10c1 4D       		.uleb128 0x4d
 12248 10c2 94010000 		.4byte	.LVL152
 12249 10c6 9E010000 		.4byte	.LVL154
 12250 10ca 0200     		.2byte	0x2
 12251 10cc 7E       		.byte	0x7e
 12252 10cd 00       		.sleb128 0
 12253 10ce 00000000 		.4byte	0
 12254 10d2 00000000 		.4byte	0
 12255              	.LLST63:
 12256 10d6 1E010000 		.4byte	.LVL145
 12257 10da 28010000 		.4byte	.LVL146
 12258 10de 0200     		.2byte	0x2
 12259 10e0 30       		.byte	0x30
 12260 10e1 9F       		.byte	0x9f
 12261 10e2 28010000 		.4byte	.LVL146
 12262 10e6 58010000 		.4byte	.LVL148
 12263 10ea 0100     		.2byte	0x1
 12264 10ec 56       		.byte	0x56
 12265 10ed 00000000 		.4byte	0
 12266 10f1 00000000 		.4byte	0
 12267              	.LLST64:
 12268 10f5 5C010000 		.4byte	.LVL149
 12269 10f9 A0010000 		.4byte	.LVL155
 12270 10fd 0100     		.2byte	0x1
 12271 10ff 56       		.byte	0x56
 12272 1100 00000000 		.4byte	0
 12273 1104 00000000 		.4byte	0
 12274              	.LLST65:
 12275 1108 00000000 		.4byte	.LVL161
 12276 110c 1B000000 		.4byte	.LVL162-1
 12277 1110 0100     		.2byte	0x1
 12278 1112 50       		.byte	0x50
 12279 1113 1B000000 		.4byte	.LVL162-1
 12280 1117 20000000 		.4byte	.LFE40
 12281 111b 0400     		.2byte	0x4
 12282 111d F3       		.byte	0xf3
 12283 111e 01       		.uleb128 0x1
 12284 111f 50       		.byte	0x50
 12285 1120 9F       		.byte	0x9f
 12286 1121 00000000 		.4byte	0
 12287 1125 00000000 		.4byte	0
 12288              	.LLST66:
 12289 1129 00000000 		.4byte	.LVL161
 12290 112d 1B000000 		.4byte	.LVL162-1
 12291 1131 0100     		.2byte	0x1
 12292 1133 51       		.byte	0x51
 12293 1134 1B000000 		.4byte	.LVL162-1
 12294 1138 20000000 		.4byte	.LFE40
 12295 113c 0400     		.2byte	0x4
 12296 113e F3       		.byte	0xf3
 12297 113f 01       		.uleb128 0x1
ARM GAS  C:\Users\rdn\AppData\Local\Temp\ccIOjLNc.s 			page 244


 12298 1140 51       		.byte	0x51
 12299 1141 9F       		.byte	0x9f
 12300 1142 00000000 		.4byte	0
 12301 1146 00000000 		.4byte	0
 12302              	.LLST67:
 12303 114a 00000000 		.4byte	.LVL161
 12304 114e 1B000000 		.4byte	.LVL162-1
 12305 1152 0100     		.2byte	0x1
 12306 1154 52       		.byte	0x52
 12307 1155 1B000000 		.4byte	.LVL162-1
 12308 1159 20000000 		.4byte	.LFE40
 12309 115d 0400     		.2byte	0x4
 12310 115f F3       		.byte	0xf3
 12311 1160 01       		.uleb128 0x1
 12312 1161 52       		.byte	0x52
 12313 1162 9F       		.byte	0x9f
 12314 1163 00000000 		.4byte	0
 12315 1167 00000000 		.4byte	0
 12316              	.LLST68:
 12317 116b 00000000 		.4byte	.LVL161
 12318 116f 1B000000 		.4byte	.LVL162-1
 12319 1173 0100     		.2byte	0x1
 12320 1175 53       		.byte	0x53
 12321 1176 1B000000 		.4byte	.LVL162-1
 12322 117a 20000000 		.4byte	.LFE40
 12323 117e 0400     		.2byte	0x4
 12324 1180 F3       		.byte	0xf3
 12325 1181 01       		.uleb128 0x1
 12326 1182 53       		.byte	0x53
 12327 1183 9F       		.byte	0x9f
 12328 1184 00000000 		.4byte	0
 12329 1188 00000000 		.4byte	0
 12330              	.LLST69:
 12331 118c 00000000 		.4byte	.LVL163
 12332 1190 1B000000 		.4byte	.LVL164-1
 12333 1194 0100     		.2byte	0x1
 12334 1196 50       		.byte	0x50
 12335 1197 1B000000 		.4byte	.LVL164-1
 12336 119b 20000000 		.4byte	.LFE41
 12337 119f 0400     		.2byte	0x4
 12338 11a1 F3       		.byte	0xf3
 12339 11a2 01       		.uleb128 0x1
 12340 11a3 50       		.byte	0x50
 12341 11a4 9F       		.byte	0x9f
 12342 11a5 00000000 		.4byte	0
 12343 11a9 00000000 		.4byte	0
 12344              	.LLST70:
 12345 11ad 00000000 		.4byte	.LVL163
 12346 11b1 1B000000 		.4byte	.LVL164-1
 12347 11b5 0100     		.2byte	0x1
 12348 11b7 51       		.byte	0x51
 12349 11b8 1B000000 		.4byte	.LVL164-1
 12350 11bc 20000000 		.4byte	.LFE41
 12351 11c0 0400     		.2byte	0x4
 12352 11c2 F3       		.byte	0xf3
 12353 11c3 01       		.uleb128 0x1
 12354 11c4 51       		.byte	0x51
ARM GAS  C:\Users\rdn\AppData\Local\Temp\ccIOjLNc.s 			page 245


 12355 11c5 9F       		.byte	0x9f
 12356 11c6 00000000 		.4byte	0
 12357 11ca 00000000 		.4byte	0
 12358              	.LLST71:
 12359 11ce 00000000 		.4byte	.LVL163
 12360 11d2 1B000000 		.4byte	.LVL164-1
 12361 11d6 0100     		.2byte	0x1
 12362 11d8 52       		.byte	0x52
 12363 11d9 1B000000 		.4byte	.LVL164-1
 12364 11dd 20000000 		.4byte	.LFE41
 12365 11e1 0400     		.2byte	0x4
 12366 11e3 F3       		.byte	0xf3
 12367 11e4 01       		.uleb128 0x1
 12368 11e5 52       		.byte	0x52
 12369 11e6 9F       		.byte	0x9f
 12370 11e7 00000000 		.4byte	0
 12371 11eb 00000000 		.4byte	0
 12372              	.LLST72:
 12373 11ef 00000000 		.4byte	.LVL163
 12374 11f3 1B000000 		.4byte	.LVL164-1
 12375 11f7 0100     		.2byte	0x1
 12376 11f9 53       		.byte	0x53
 12377 11fa 1B000000 		.4byte	.LVL164-1
 12378 11fe 20000000 		.4byte	.LFE41
 12379 1202 0400     		.2byte	0x4
 12380 1204 F3       		.byte	0xf3
 12381 1205 01       		.uleb128 0x1
 12382 1206 53       		.byte	0x53
 12383 1207 9F       		.byte	0x9f
 12384 1208 00000000 		.4byte	0
 12385 120c 00000000 		.4byte	0
 12386              	.LLST73:
 12387 1210 00000000 		.4byte	.LVL165
 12388 1214 1B000000 		.4byte	.LVL166-1
 12389 1218 0100     		.2byte	0x1
 12390 121a 50       		.byte	0x50
 12391 121b 1B000000 		.4byte	.LVL166-1
 12392 121f 20000000 		.4byte	.LFE42
 12393 1223 0400     		.2byte	0x4
 12394 1225 F3       		.byte	0xf3
 12395 1226 01       		.uleb128 0x1
 12396 1227 50       		.byte	0x50
 12397 1228 9F       		.byte	0x9f
 12398 1229 00000000 		.4byte	0
 12399 122d 00000000 		.4byte	0
 12400              	.LLST74:
 12401 1231 00000000 		.4byte	.LVL165
 12402 1235 1B000000 		.4byte	.LVL166-1
 12403 1239 0100     		.2byte	0x1
 12404 123b 51       		.byte	0x51
 12405 123c 1B000000 		.4byte	.LVL166-1
 12406 1240 20000000 		.4byte	.LFE42
 12407 1244 0400     		.2byte	0x4
 12408 1246 F3       		.byte	0xf3
 12409 1247 01       		.uleb128 0x1
 12410 1248 51       		.byte	0x51
 12411 1249 9F       		.byte	0x9f
ARM GAS  C:\Users\rdn\AppData\Local\Temp\ccIOjLNc.s 			page 246


 12412 124a 00000000 		.4byte	0
 12413 124e 00000000 		.4byte	0
 12414              	.LLST75:
 12415 1252 00000000 		.4byte	.LVL165
 12416 1256 1B000000 		.4byte	.LVL166-1
 12417 125a 0100     		.2byte	0x1
 12418 125c 52       		.byte	0x52
 12419 125d 1B000000 		.4byte	.LVL166-1
 12420 1261 20000000 		.4byte	.LFE42
 12421 1265 0400     		.2byte	0x4
 12422 1267 F3       		.byte	0xf3
 12423 1268 01       		.uleb128 0x1
 12424 1269 52       		.byte	0x52
 12425 126a 9F       		.byte	0x9f
 12426 126b 00000000 		.4byte	0
 12427 126f 00000000 		.4byte	0
 12428              	.LLST76:
 12429 1273 00000000 		.4byte	.LVL165
 12430 1277 1B000000 		.4byte	.LVL166-1
 12431 127b 0100     		.2byte	0x1
 12432 127d 53       		.byte	0x53
 12433 127e 1B000000 		.4byte	.LVL166-1
 12434 1282 20000000 		.4byte	.LFE42
 12435 1286 0400     		.2byte	0x4
 12436 1288 F3       		.byte	0xf3
 12437 1289 01       		.uleb128 0x1
 12438 128a 53       		.byte	0x53
 12439 128b 9F       		.byte	0x9f
 12440 128c 00000000 		.4byte	0
 12441 1290 00000000 		.4byte	0
 12442              	.LLST77:
 12443 1294 00000000 		.4byte	.LVL167
 12444 1298 1B000000 		.4byte	.LVL168-1
 12445 129c 0100     		.2byte	0x1
 12446 129e 50       		.byte	0x50
 12447 129f 1B000000 		.4byte	.LVL168-1
 12448 12a3 20000000 		.4byte	.LFE43
 12449 12a7 0400     		.2byte	0x4
 12450 12a9 F3       		.byte	0xf3
 12451 12aa 01       		.uleb128 0x1
 12452 12ab 50       		.byte	0x50
 12453 12ac 9F       		.byte	0x9f
 12454 12ad 00000000 		.4byte	0
 12455 12b1 00000000 		.4byte	0
 12456              	.LLST78:
 12457 12b5 00000000 		.4byte	.LVL167
 12458 12b9 1B000000 		.4byte	.LVL168-1
 12459 12bd 0100     		.2byte	0x1
 12460 12bf 51       		.byte	0x51
 12461 12c0 1B000000 		.4byte	.LVL168-1
 12462 12c4 20000000 		.4byte	.LFE43
 12463 12c8 0400     		.2byte	0x4
 12464 12ca F3       		.byte	0xf3
 12465 12cb 01       		.uleb128 0x1
 12466 12cc 51       		.byte	0x51
 12467 12cd 9F       		.byte	0x9f
 12468 12ce 00000000 		.4byte	0
ARM GAS  C:\Users\rdn\AppData\Local\Temp\ccIOjLNc.s 			page 247


 12469 12d2 00000000 		.4byte	0
 12470              	.LLST79:
 12471 12d6 00000000 		.4byte	.LVL167
 12472 12da 1B000000 		.4byte	.LVL168-1
 12473 12de 0100     		.2byte	0x1
 12474 12e0 52       		.byte	0x52
 12475 12e1 1B000000 		.4byte	.LVL168-1
 12476 12e5 20000000 		.4byte	.LFE43
 12477 12e9 0400     		.2byte	0x4
 12478 12eb F3       		.byte	0xf3
 12479 12ec 01       		.uleb128 0x1
 12480 12ed 52       		.byte	0x52
 12481 12ee 9F       		.byte	0x9f
 12482 12ef 00000000 		.4byte	0
 12483 12f3 00000000 		.4byte	0
 12484              	.LLST80:
 12485 12f7 00000000 		.4byte	.LVL167
 12486 12fb 1B000000 		.4byte	.LVL168-1
 12487 12ff 0100     		.2byte	0x1
 12488 1301 53       		.byte	0x53
 12489 1302 1B000000 		.4byte	.LVL168-1
 12490 1306 20000000 		.4byte	.LFE43
 12491 130a 0400     		.2byte	0x4
 12492 130c F3       		.byte	0xf3
 12493 130d 01       		.uleb128 0x1
 12494 130e 53       		.byte	0x53
 12495 130f 9F       		.byte	0x9f
 12496 1310 00000000 		.4byte	0
 12497 1314 00000000 		.4byte	0
 12498              	.LLST81:
 12499 1318 00000000 		.4byte	.LVL169
 12500 131c 0A000000 		.4byte	.LVL170
 12501 1320 0100     		.2byte	0x1
 12502 1322 51       		.byte	0x51
 12503 1323 0A000000 		.4byte	.LVL170
 12504 1327 2C010000 		.4byte	.LVL211
 12505 132b 0100     		.2byte	0x1
 12506 132d 59       		.byte	0x59
 12507 132e 2C010000 		.4byte	.LVL211
 12508 1332 38010000 		.4byte	.LFE21
 12509 1336 0400     		.2byte	0x4
 12510 1338 F3       		.byte	0xf3
 12511 1339 01       		.uleb128 0x1
 12512 133a 51       		.byte	0x51
 12513 133b 9F       		.byte	0x9f
 12514 133c 00000000 		.4byte	0
 12515 1340 00000000 		.4byte	0
 12516              	.LLST82:
 12517 1344 00000000 		.4byte	.LVL169
 12518 1348 0C000000 		.4byte	.LVL171
 12519 134c 0100     		.2byte	0x1
 12520 134e 53       		.byte	0x53
 12521 134f 0C000000 		.4byte	.LVL171
 12522 1353 1C000000 		.4byte	.LVL173
 12523 1357 0100     		.2byte	0x1
 12524 1359 58       		.byte	0x58
 12525 135a 1C000000 		.4byte	.LVL173
ARM GAS  C:\Users\rdn\AppData\Local\Temp\ccIOjLNc.s 			page 248


 12526 135e 2C010000 		.4byte	.LVL211
 12527 1362 0600     		.2byte	0x6
 12528 1364 78       		.byte	0x78
 12529 1365 00       		.sleb128 0
 12530 1366 7B       		.byte	0x7b
 12531 1367 00       		.sleb128 0
 12532 1368 22       		.byte	0x22
 12533 1369 9F       		.byte	0x9f
 12534 136a 2C010000 		.4byte	.LVL211
 12535 136e 38010000 		.4byte	.LFE21
 12536 1372 0B00     		.2byte	0xb
 12537 1374 F3       		.byte	0xf3
 12538 1375 01       		.uleb128 0x1
 12539 1376 53       		.byte	0x53
 12540 1377 73       		.byte	0x73
 12541 1378 00       		.sleb128 0
 12542 1379 31       		.byte	0x31
 12543 137a 24       		.byte	0x24
 12544 137b 1C       		.byte	0x1c
 12545 137c 23       		.byte	0x23
 12546 137d 02       		.uleb128 0x2
 12547 137e 9F       		.byte	0x9f
 12548 137f 00000000 		.4byte	0
 12549 1383 00000000 		.4byte	0
 12550              	.LLST83:
 12551 1387 00000000 		.4byte	.LVL169
 12552 138b 1E000000 		.4byte	.LVL174
 12553 138f 0200     		.2byte	0x2
 12554 1391 91       		.byte	0x91
 12555 1392 00       		.sleb128 0
 12556 1393 1E000000 		.4byte	.LVL174
 12557 1397 1C010000 		.4byte	.LVL206
 12558 139b 0200     		.2byte	0x2
 12559 139d 91       		.byte	0x91
 12560 139e 00       		.sleb128 0
 12561 139f 1C010000 		.4byte	.LVL206
 12562 13a3 20010000 		.4byte	.LVL207
 12563 13a7 0100     		.2byte	0x1
 12564 13a9 54       		.byte	0x54
 12565 13aa 20010000 		.4byte	.LVL207
 12566 13ae 24010000 		.4byte	.LVL209
 12567 13b2 0200     		.2byte	0x2
 12568 13b4 91       		.byte	0x91
 12569 13b5 00       		.sleb128 0
 12570 13b6 24010000 		.4byte	.LVL209
 12571 13ba 26010000 		.4byte	.LVL210
 12572 13be 0300     		.2byte	0x3
 12573 13c0 74       		.byte	0x74
 12574 13c1 7E       		.sleb128 -2
 12575 13c2 9F       		.byte	0x9f
 12576 13c3 26010000 		.4byte	.LVL210
 12577 13c7 2C010000 		.4byte	.LVL211
 12578 13cb 0200     		.2byte	0x2
 12579 13cd 91       		.byte	0x91
 12580 13ce 00       		.sleb128 0
 12581 13cf 2C010000 		.4byte	.LVL211
 12582 13d3 38010000 		.4byte	.LFE21
ARM GAS  C:\Users\rdn\AppData\Local\Temp\ccIOjLNc.s 			page 249


 12583 13d7 0200     		.2byte	0x2
 12584 13d9 7D       		.byte	0x7d
 12585 13da 00       		.sleb128 0
 12586 13db 00000000 		.4byte	0
 12587 13df 00000000 		.4byte	0
 12588              	.LLST84:
 12589 13e3 00000000 		.4byte	.LVL169
 12590 13e7 2C010000 		.4byte	.LVL211
 12591 13eb 0200     		.2byte	0x2
 12592 13ed 91       		.byte	0x91
 12593 13ee 04       		.sleb128 4
 12594 13ef 2C010000 		.4byte	.LVL211
 12595 13f3 38010000 		.4byte	.LFE21
 12596 13f7 0200     		.2byte	0x2
 12597 13f9 7D       		.byte	0x7d
 12598 13fa 04       		.sleb128 4
 12599 13fb 00000000 		.4byte	0
 12600 13ff 00000000 		.4byte	0
 12601              	.LLST85:
 12602 1403 1C000000 		.4byte	.LVL173
 12603 1407 1E000000 		.4byte	.LVL174
 12604 140b 0200     		.2byte	0x2
 12605 140d 30       		.byte	0x30
 12606 140e 9F       		.byte	0x9f
 12607 140f 1E000000 		.4byte	.LVL174
 12608 1413 38010000 		.4byte	.LFE21
 12609 1417 0100     		.2byte	0x1
 12610 1419 51       		.byte	0x51
 12611 141a 00000000 		.4byte	0
 12612 141e 00000000 		.4byte	0
 12613              	.LLST86:
 12614 1422 24000000 		.4byte	.LVL175
 12615 1426 3E000000 		.4byte	.LVL176
 12616 142a 1200     		.2byte	0x12
 12617 142c 71       		.byte	0x71
 12618 142d 00       		.sleb128 0
 12619 142e 70       		.byte	0x70
 12620 142f 00       		.sleb128 0
 12621 1430 14       		.byte	0x14
 12622 1431 14       		.byte	0x14
 12623 1432 1B       		.byte	0x1b
 12624 1433 1E       		.byte	0x1e
 12625 1434 1C       		.byte	0x1c
 12626 1435 73       		.byte	0x73
 12627 1436 00       		.sleb128 0
 12628 1437 1E       		.byte	0x1e
 12629 1438 31       		.byte	0x31
 12630 1439 24       		.byte	0x24
 12631 143a 79       		.byte	0x79
 12632 143b 00       		.sleb128 0
 12633 143c 22       		.byte	0x22
 12634 143d 9F       		.byte	0x9f
 12635 143e 3E000000 		.4byte	.LVL176
 12636 1442 48000000 		.4byte	.LVL177
 12637 1446 2300     		.2byte	0x23
 12638 1448 71       		.byte	0x71
 12639 1449 00       		.sleb128 0
ARM GAS  C:\Users\rdn\AppData\Local\Temp\ccIOjLNc.s 			page 250


 12640 144a 70       		.byte	0x70
 12641 144b 00       		.sleb128 0
 12642 144c 14       		.byte	0x14
 12643 144d 14       		.byte	0x14
 12644 144e 1B       		.byte	0x1b
 12645 144f 1E       		.byte	0x1e
 12646 1450 1C       		.byte	0x1c
 12647 1451 73       		.byte	0x73
 12648 1452 00       		.sleb128 0
 12649 1453 1E       		.byte	0x1e
 12650 1454 31       		.byte	0x31
 12651 1455 24       		.byte	0x24
 12652 1456 71       		.byte	0x71
 12653 1457 00       		.sleb128 0
 12654 1458 70       		.byte	0x70
 12655 1459 00       		.sleb128 0
 12656 145a 1B       		.byte	0x1b
 12657 145b 31       		.byte	0x31
 12658 145c 24       		.byte	0x24
 12659 145d 1C       		.byte	0x1c
 12660 145e 78       		.byte	0x78
 12661 145f 00       		.sleb128 0
 12662 1460 1C       		.byte	0x1c
 12663 1461 79       		.byte	0x79
 12664 1462 00       		.sleb128 0
 12665 1463 22       		.byte	0x22
 12666 1464 76       		.byte	0x76
 12667 1465 00       		.sleb128 0
 12668 1466 22       		.byte	0x22
 12669 1467 7B       		.byte	0x7b
 12670 1468 00       		.sleb128 0
 12671 1469 1C       		.byte	0x1c
 12672 146a 9F       		.byte	0x9f
 12673 146b 48000000 		.4byte	.LVL177
 12674 146f 4E000000 		.4byte	.LVL179
 12675 1473 2500     		.2byte	0x25
 12676 1475 71       		.byte	0x71
 12677 1476 00       		.sleb128 0
 12678 1477 70       		.byte	0x70
 12679 1478 00       		.sleb128 0
 12680 1479 14       		.byte	0x14
 12681 147a 14       		.byte	0x14
 12682 147b 1B       		.byte	0x1b
 12683 147c 1E       		.byte	0x1e
 12684 147d 1C       		.byte	0x1c
 12685 147e 73       		.byte	0x73
 12686 147f 00       		.sleb128 0
 12687 1480 1E       		.byte	0x1e
 12688 1481 31       		.byte	0x31
 12689 1482 24       		.byte	0x24
 12690 1483 71       		.byte	0x71
 12691 1484 00       		.sleb128 0
 12692 1485 70       		.byte	0x70
 12693 1486 00       		.sleb128 0
 12694 1487 1B       		.byte	0x1b
 12695 1488 31       		.byte	0x31
 12696 1489 24       		.byte	0x24
ARM GAS  C:\Users\rdn\AppData\Local\Temp\ccIOjLNc.s 			page 251


 12697 148a 1C       		.byte	0x1c
 12698 148b 78       		.byte	0x78
 12699 148c 00       		.sleb128 0
 12700 148d 1C       		.byte	0x1c
 12701 148e 79       		.byte	0x79
 12702 148f 00       		.sleb128 0
 12703 1490 22       		.byte	0x22
 12704 1491 76       		.byte	0x76
 12705 1492 00       		.sleb128 0
 12706 1493 22       		.byte	0x22
 12707 1494 7B       		.byte	0x7b
 12708 1495 00       		.sleb128 0
 12709 1496 1C       		.byte	0x1c
 12710 1497 44       		.byte	0x44
 12711 1498 1C       		.byte	0x1c
 12712 1499 9F       		.byte	0x9f
 12713 149a 4E000000 		.4byte	.LVL179
 12714 149e 5E000000 		.4byte	.LVL181
 12715 14a2 2500     		.2byte	0x25
 12716 14a4 71       		.byte	0x71
 12717 14a5 00       		.sleb128 0
 12718 14a6 70       		.byte	0x70
 12719 14a7 00       		.sleb128 0
 12720 14a8 14       		.byte	0x14
 12721 14a9 14       		.byte	0x14
 12722 14aa 1B       		.byte	0x1b
 12723 14ab 1E       		.byte	0x1e
 12724 14ac 1C       		.byte	0x1c
 12725 14ad 73       		.byte	0x73
 12726 14ae 00       		.sleb128 0
 12727 14af 1E       		.byte	0x1e
 12728 14b0 31       		.byte	0x31
 12729 14b1 24       		.byte	0x24
 12730 14b2 71       		.byte	0x71
 12731 14b3 00       		.sleb128 0
 12732 14b4 70       		.byte	0x70
 12733 14b5 00       		.sleb128 0
 12734 14b6 1B       		.byte	0x1b
 12735 14b7 31       		.byte	0x31
 12736 14b8 24       		.byte	0x24
 12737 14b9 1C       		.byte	0x1c
 12738 14ba 78       		.byte	0x78
 12739 14bb 00       		.sleb128 0
 12740 14bc 1C       		.byte	0x1c
 12741 14bd 79       		.byte	0x79
 12742 14be 00       		.sleb128 0
 12743 14bf 22       		.byte	0x22
 12744 14c0 76       		.byte	0x76
 12745 14c1 00       		.sleb128 0
 12746 14c2 22       		.byte	0x22
 12747 14c3 7B       		.byte	0x7b
 12748 14c4 00       		.sleb128 0
 12749 14c5 1C       		.byte	0x1c
 12750 14c6 42       		.byte	0x42
 12751 14c7 1C       		.byte	0x1c
 12752 14c8 9F       		.byte	0x9f
 12753 14c9 5E000000 		.4byte	.LVL181
ARM GAS  C:\Users\rdn\AppData\Local\Temp\ccIOjLNc.s 			page 252


 12754 14cd 66000000 		.4byte	.LVL183
 12755 14d1 2500     		.2byte	0x25
 12756 14d3 71       		.byte	0x71
 12757 14d4 00       		.sleb128 0
 12758 14d5 70       		.byte	0x70
 12759 14d6 00       		.sleb128 0
 12760 14d7 14       		.byte	0x14
 12761 14d8 14       		.byte	0x14
 12762 14d9 1B       		.byte	0x1b
 12763 14da 1E       		.byte	0x1e
 12764 14db 1C       		.byte	0x1c
 12765 14dc 73       		.byte	0x73
 12766 14dd 00       		.sleb128 0
 12767 14de 1E       		.byte	0x1e
 12768 14df 31       		.byte	0x31
 12769 14e0 24       		.byte	0x24
 12770 14e1 71       		.byte	0x71
 12771 14e2 00       		.sleb128 0
 12772 14e3 70       		.byte	0x70
 12773 14e4 00       		.sleb128 0
 12774 14e5 1B       		.byte	0x1b
 12775 14e6 31       		.byte	0x31
 12776 14e7 24       		.byte	0x24
 12777 14e8 1C       		.byte	0x1c
 12778 14e9 78       		.byte	0x78
 12779 14ea 00       		.sleb128 0
 12780 14eb 1C       		.byte	0x1c
 12781 14ec 79       		.byte	0x79
 12782 14ed 00       		.sleb128 0
 12783 14ee 22       		.byte	0x22
 12784 14ef 76       		.byte	0x76
 12785 14f0 00       		.sleb128 0
 12786 14f1 22       		.byte	0x22
 12787 14f2 7B       		.byte	0x7b
 12788 14f3 00       		.sleb128 0
 12789 14f4 1C       		.byte	0x1c
 12790 14f5 40       		.byte	0x40
 12791 14f6 1C       		.byte	0x1c
 12792 14f7 9F       		.byte	0x9f
 12793 14f8 66000000 		.4byte	.LVL183
 12794 14fc 76000000 		.4byte	.LVL185
 12795 1500 2500     		.2byte	0x25
 12796 1502 71       		.byte	0x71
 12797 1503 00       		.sleb128 0
 12798 1504 70       		.byte	0x70
 12799 1505 00       		.sleb128 0
 12800 1506 14       		.byte	0x14
 12801 1507 14       		.byte	0x14
 12802 1508 1B       		.byte	0x1b
 12803 1509 1E       		.byte	0x1e
 12804 150a 1C       		.byte	0x1c
 12805 150b 73       		.byte	0x73
 12806 150c 00       		.sleb128 0
 12807 150d 1E       		.byte	0x1e
 12808 150e 31       		.byte	0x31
 12809 150f 24       		.byte	0x24
 12810 1510 71       		.byte	0x71
ARM GAS  C:\Users\rdn\AppData\Local\Temp\ccIOjLNc.s 			page 253


 12811 1511 00       		.sleb128 0
 12812 1512 70       		.byte	0x70
 12813 1513 00       		.sleb128 0
 12814 1514 1B       		.byte	0x1b
 12815 1515 31       		.byte	0x31
 12816 1516 24       		.byte	0x24
 12817 1517 1C       		.byte	0x1c
 12818 1518 78       		.byte	0x78
 12819 1519 00       		.sleb128 0
 12820 151a 1C       		.byte	0x1c
 12821 151b 79       		.byte	0x79
 12822 151c 00       		.sleb128 0
 12823 151d 22       		.byte	0x22
 12824 151e 76       		.byte	0x76
 12825 151f 00       		.sleb128 0
 12826 1520 22       		.byte	0x22
 12827 1521 7B       		.byte	0x7b
 12828 1522 00       		.sleb128 0
 12829 1523 1C       		.byte	0x1c
 12830 1524 3E       		.byte	0x3e
 12831 1525 1C       		.byte	0x1c
 12832 1526 9F       		.byte	0x9f
 12833 1527 76000000 		.4byte	.LVL185
 12834 152b 82000000 		.4byte	.LVL187
 12835 152f 2500     		.2byte	0x25
 12836 1531 71       		.byte	0x71
 12837 1532 00       		.sleb128 0
 12838 1533 70       		.byte	0x70
 12839 1534 00       		.sleb128 0
 12840 1535 14       		.byte	0x14
 12841 1536 14       		.byte	0x14
 12842 1537 1B       		.byte	0x1b
 12843 1538 1E       		.byte	0x1e
 12844 1539 1C       		.byte	0x1c
 12845 153a 73       		.byte	0x73
 12846 153b 00       		.sleb128 0
 12847 153c 1E       		.byte	0x1e
 12848 153d 31       		.byte	0x31
 12849 153e 24       		.byte	0x24
 12850 153f 71       		.byte	0x71
 12851 1540 00       		.sleb128 0
 12852 1541 70       		.byte	0x70
 12853 1542 00       		.sleb128 0
 12854 1543 1B       		.byte	0x1b
 12855 1544 31       		.byte	0x31
 12856 1545 24       		.byte	0x24
 12857 1546 1C       		.byte	0x1c
 12858 1547 78       		.byte	0x78
 12859 1548 00       		.sleb128 0
 12860 1549 1C       		.byte	0x1c
 12861 154a 79       		.byte	0x79
 12862 154b 00       		.sleb128 0
 12863 154c 22       		.byte	0x22
 12864 154d 76       		.byte	0x76
 12865 154e 00       		.sleb128 0
 12866 154f 22       		.byte	0x22
 12867 1550 7B       		.byte	0x7b
ARM GAS  C:\Users\rdn\AppData\Local\Temp\ccIOjLNc.s 			page 254


 12868 1551 00       		.sleb128 0
 12869 1552 1C       		.byte	0x1c
 12870 1553 3C       		.byte	0x3c
 12871 1554 1C       		.byte	0x1c
 12872 1555 9F       		.byte	0x9f
 12873 1556 82000000 		.4byte	.LVL187
 12874 155a 8A000000 		.4byte	.LVL189
 12875 155e 2500     		.2byte	0x25
 12876 1560 71       		.byte	0x71
 12877 1561 00       		.sleb128 0
 12878 1562 70       		.byte	0x70
 12879 1563 00       		.sleb128 0
 12880 1564 14       		.byte	0x14
 12881 1565 14       		.byte	0x14
 12882 1566 1B       		.byte	0x1b
 12883 1567 1E       		.byte	0x1e
 12884 1568 1C       		.byte	0x1c
 12885 1569 73       		.byte	0x73
 12886 156a 00       		.sleb128 0
 12887 156b 1E       		.byte	0x1e
 12888 156c 31       		.byte	0x31
 12889 156d 24       		.byte	0x24
 12890 156e 71       		.byte	0x71
 12891 156f 00       		.sleb128 0
 12892 1570 70       		.byte	0x70
 12893 1571 00       		.sleb128 0
 12894 1572 1B       		.byte	0x1b
 12895 1573 31       		.byte	0x31
 12896 1574 24       		.byte	0x24
 12897 1575 1C       		.byte	0x1c
 12898 1576 78       		.byte	0x78
 12899 1577 00       		.sleb128 0
 12900 1578 1C       		.byte	0x1c
 12901 1579 79       		.byte	0x79
 12902 157a 00       		.sleb128 0
 12903 157b 22       		.byte	0x22
 12904 157c 76       		.byte	0x76
 12905 157d 00       		.sleb128 0
 12906 157e 22       		.byte	0x22
 12907 157f 7B       		.byte	0x7b
 12908 1580 00       		.sleb128 0
 12909 1581 1C       		.byte	0x1c
 12910 1582 3A       		.byte	0x3a
 12911 1583 1C       		.byte	0x1c
 12912 1584 9F       		.byte	0x9f
 12913 1585 8A000000 		.4byte	.LVL189
 12914 1589 9A000000 		.4byte	.LVL191
 12915 158d 2500     		.2byte	0x25
 12916 158f 71       		.byte	0x71
 12917 1590 00       		.sleb128 0
 12918 1591 70       		.byte	0x70
 12919 1592 00       		.sleb128 0
 12920 1593 14       		.byte	0x14
 12921 1594 14       		.byte	0x14
 12922 1595 1B       		.byte	0x1b
 12923 1596 1E       		.byte	0x1e
 12924 1597 1C       		.byte	0x1c
ARM GAS  C:\Users\rdn\AppData\Local\Temp\ccIOjLNc.s 			page 255


 12925 1598 73       		.byte	0x73
 12926 1599 00       		.sleb128 0
 12927 159a 1E       		.byte	0x1e
 12928 159b 31       		.byte	0x31
 12929 159c 24       		.byte	0x24
 12930 159d 71       		.byte	0x71
 12931 159e 00       		.sleb128 0
 12932 159f 70       		.byte	0x70
 12933 15a0 00       		.sleb128 0
 12934 15a1 1B       		.byte	0x1b
 12935 15a2 31       		.byte	0x31
 12936 15a3 24       		.byte	0x24
 12937 15a4 1C       		.byte	0x1c
 12938 15a5 78       		.byte	0x78
 12939 15a6 00       		.sleb128 0
 12940 15a7 1C       		.byte	0x1c
 12941 15a8 79       		.byte	0x79
 12942 15a9 00       		.sleb128 0
 12943 15aa 22       		.byte	0x22
 12944 15ab 76       		.byte	0x76
 12945 15ac 00       		.sleb128 0
 12946 15ad 22       		.byte	0x22
 12947 15ae 7B       		.byte	0x7b
 12948 15af 00       		.sleb128 0
 12949 15b0 1C       		.byte	0x1c
 12950 15b1 38       		.byte	0x38
 12951 15b2 1C       		.byte	0x1c
 12952 15b3 9F       		.byte	0x9f
 12953 15b4 9A000000 		.4byte	.LVL191
 12954 15b8 A6000000 		.4byte	.LVL193
 12955 15bc 2500     		.2byte	0x25
 12956 15be 71       		.byte	0x71
 12957 15bf 00       		.sleb128 0
 12958 15c0 70       		.byte	0x70
 12959 15c1 00       		.sleb128 0
 12960 15c2 14       		.byte	0x14
 12961 15c3 14       		.byte	0x14
 12962 15c4 1B       		.byte	0x1b
 12963 15c5 1E       		.byte	0x1e
 12964 15c6 1C       		.byte	0x1c
 12965 15c7 73       		.byte	0x73
 12966 15c8 00       		.sleb128 0
 12967 15c9 1E       		.byte	0x1e
 12968 15ca 31       		.byte	0x31
 12969 15cb 24       		.byte	0x24
 12970 15cc 71       		.byte	0x71
 12971 15cd 00       		.sleb128 0
 12972 15ce 70       		.byte	0x70
 12973 15cf 00       		.sleb128 0
 12974 15d0 1B       		.byte	0x1b
 12975 15d1 31       		.byte	0x31
 12976 15d2 24       		.byte	0x24
 12977 15d3 1C       		.byte	0x1c
 12978 15d4 78       		.byte	0x78
 12979 15d5 00       		.sleb128 0
 12980 15d6 1C       		.byte	0x1c
 12981 15d7 79       		.byte	0x79
ARM GAS  C:\Users\rdn\AppData\Local\Temp\ccIOjLNc.s 			page 256


 12982 15d8 00       		.sleb128 0
 12983 15d9 22       		.byte	0x22
 12984 15da 76       		.byte	0x76
 12985 15db 00       		.sleb128 0
 12986 15dc 22       		.byte	0x22
 12987 15dd 7B       		.byte	0x7b
 12988 15de 00       		.sleb128 0
 12989 15df 1C       		.byte	0x1c
 12990 15e0 36       		.byte	0x36
 12991 15e1 1C       		.byte	0x1c
 12992 15e2 9F       		.byte	0x9f
 12993 15e3 A6000000 		.4byte	.LVL193
 12994 15e7 AE000000 		.4byte	.LVL195
 12995 15eb 2500     		.2byte	0x25
 12996 15ed 71       		.byte	0x71
 12997 15ee 00       		.sleb128 0
 12998 15ef 70       		.byte	0x70
 12999 15f0 00       		.sleb128 0
 13000 15f1 14       		.byte	0x14
 13001 15f2 14       		.byte	0x14
 13002 15f3 1B       		.byte	0x1b
 13003 15f4 1E       		.byte	0x1e
 13004 15f5 1C       		.byte	0x1c
 13005 15f6 73       		.byte	0x73
 13006 15f7 00       		.sleb128 0
 13007 15f8 1E       		.byte	0x1e
 13008 15f9 31       		.byte	0x31
 13009 15fa 24       		.byte	0x24
 13010 15fb 71       		.byte	0x71
 13011 15fc 00       		.sleb128 0
 13012 15fd 70       		.byte	0x70
 13013 15fe 00       		.sleb128 0
 13014 15ff 1B       		.byte	0x1b
 13015 1600 31       		.byte	0x31
 13016 1601 24       		.byte	0x24
 13017 1602 1C       		.byte	0x1c
 13018 1603 78       		.byte	0x78
 13019 1604 00       		.sleb128 0
 13020 1605 1C       		.byte	0x1c
 13021 1606 79       		.byte	0x79
 13022 1607 00       		.sleb128 0
 13023 1608 22       		.byte	0x22
 13024 1609 76       		.byte	0x76
 13025 160a 00       		.sleb128 0
 13026 160b 22       		.byte	0x22
 13027 160c 7B       		.byte	0x7b
 13028 160d 00       		.sleb128 0
 13029 160e 1C       		.byte	0x1c
 13030 160f 34       		.byte	0x34
 13031 1610 1C       		.byte	0x1c
 13032 1611 9F       		.byte	0x9f
 13033 1612 AE000000 		.4byte	.LVL195
 13034 1616 BA000000 		.4byte	.LVL197
 13035 161a 2500     		.2byte	0x25
 13036 161c 71       		.byte	0x71
 13037 161d 00       		.sleb128 0
 13038 161e 70       		.byte	0x70
ARM GAS  C:\Users\rdn\AppData\Local\Temp\ccIOjLNc.s 			page 257


 13039 161f 00       		.sleb128 0
 13040 1620 14       		.byte	0x14
 13041 1621 14       		.byte	0x14
 13042 1622 1B       		.byte	0x1b
 13043 1623 1E       		.byte	0x1e
 13044 1624 1C       		.byte	0x1c
 13045 1625 73       		.byte	0x73
 13046 1626 00       		.sleb128 0
 13047 1627 1E       		.byte	0x1e
 13048 1628 31       		.byte	0x31
 13049 1629 24       		.byte	0x24
 13050 162a 71       		.byte	0x71
 13051 162b 00       		.sleb128 0
 13052 162c 70       		.byte	0x70
 13053 162d 00       		.sleb128 0
 13054 162e 1B       		.byte	0x1b
 13055 162f 31       		.byte	0x31
 13056 1630 24       		.byte	0x24
 13057 1631 1C       		.byte	0x1c
 13058 1632 78       		.byte	0x78
 13059 1633 00       		.sleb128 0
 13060 1634 1C       		.byte	0x1c
 13061 1635 79       		.byte	0x79
 13062 1636 00       		.sleb128 0
 13063 1637 22       		.byte	0x22
 13064 1638 76       		.byte	0x76
 13065 1639 00       		.sleb128 0
 13066 163a 22       		.byte	0x22
 13067 163b 7B       		.byte	0x7b
 13068 163c 00       		.sleb128 0
 13069 163d 1C       		.byte	0x1c
 13070 163e 32       		.byte	0x32
 13071 163f 1C       		.byte	0x1c
 13072 1640 9F       		.byte	0x9f
 13073 1641 BA000000 		.4byte	.LVL197
 13074 1645 C8000000 		.4byte	.LVL200
 13075 1649 2300     		.2byte	0x23
 13076 164b 71       		.byte	0x71
 13077 164c 00       		.sleb128 0
 13078 164d 70       		.byte	0x70
 13079 164e 00       		.sleb128 0
 13080 164f 14       		.byte	0x14
 13081 1650 14       		.byte	0x14
 13082 1651 1B       		.byte	0x1b
 13083 1652 1E       		.byte	0x1e
 13084 1653 1C       		.byte	0x1c
 13085 1654 73       		.byte	0x73
 13086 1655 00       		.sleb128 0
 13087 1656 1E       		.byte	0x1e
 13088 1657 31       		.byte	0x31
 13089 1658 24       		.byte	0x24
 13090 1659 71       		.byte	0x71
 13091 165a 00       		.sleb128 0
 13092 165b 70       		.byte	0x70
 13093 165c 00       		.sleb128 0
 13094 165d 1B       		.byte	0x1b
 13095 165e 31       		.byte	0x31
ARM GAS  C:\Users\rdn\AppData\Local\Temp\ccIOjLNc.s 			page 258


 13096 165f 24       		.byte	0x24
 13097 1660 1C       		.byte	0x1c
 13098 1661 78       		.byte	0x78
 13099 1662 00       		.sleb128 0
 13100 1663 1C       		.byte	0x1c
 13101 1664 79       		.byte	0x79
 13102 1665 00       		.sleb128 0
 13103 1666 22       		.byte	0x22
 13104 1667 76       		.byte	0x76
 13105 1668 00       		.sleb128 0
 13106 1669 22       		.byte	0x22
 13107 166a 7B       		.byte	0x7b
 13108 166b 00       		.sleb128 0
 13109 166c 1C       		.byte	0x1c
 13110 166d 9F       		.byte	0x9f
 13111 166e C8000000 		.4byte	.LVL200
 13112 1672 D6000000 		.4byte	.LVL201
 13113 1676 2500     		.2byte	0x25
 13114 1678 71       		.byte	0x71
 13115 1679 00       		.sleb128 0
 13116 167a 70       		.byte	0x70
 13117 167b 00       		.sleb128 0
 13118 167c 14       		.byte	0x14
 13119 167d 14       		.byte	0x14
 13120 167e 1B       		.byte	0x1b
 13121 167f 1E       		.byte	0x1e
 13122 1680 1C       		.byte	0x1c
 13123 1681 73       		.byte	0x73
 13124 1682 00       		.sleb128 0
 13125 1683 1E       		.byte	0x1e
 13126 1684 31       		.byte	0x31
 13127 1685 24       		.byte	0x24
 13128 1686 71       		.byte	0x71
 13129 1687 00       		.sleb128 0
 13130 1688 70       		.byte	0x70
 13131 1689 00       		.sleb128 0
 13132 168a 1B       		.byte	0x1b
 13133 168b 31       		.byte	0x31
 13134 168c 24       		.byte	0x24
 13135 168d 1C       		.byte	0x1c
 13136 168e 78       		.byte	0x78
 13137 168f 00       		.sleb128 0
 13138 1690 1C       		.byte	0x1c
 13139 1691 79       		.byte	0x79
 13140 1692 00       		.sleb128 0
 13141 1693 22       		.byte	0x22
 13142 1694 76       		.byte	0x76
 13143 1695 00       		.sleb128 0
 13144 1696 22       		.byte	0x22
 13145 1697 7B       		.byte	0x7b
 13146 1698 00       		.sleb128 0
 13147 1699 1C       		.byte	0x1c
 13148 169a 44       		.byte	0x44
 13149 169b 1C       		.byte	0x1c
 13150 169c 9F       		.byte	0x9f
 13151 169d 00000000 		.4byte	0
 13152 16a1 00000000 		.4byte	0
ARM GAS  C:\Users\rdn\AppData\Local\Temp\ccIOjLNc.s 			page 259


 13153              	.LLST87:
 13154 16a5 24000000 		.4byte	.LVL175
 13155 16a9 3E000000 		.4byte	.LVL176
 13156 16ad 0E00     		.2byte	0xe
 13157 16af 71       		.byte	0x71
 13158 16b0 00       		.sleb128 0
 13159 16b1 70       		.byte	0x70
 13160 16b2 00       		.sleb128 0
 13161 16b3 1B       		.byte	0x1b
 13162 16b4 31       		.byte	0x31
 13163 16b5 24       		.byte	0x24
 13164 16b6 78       		.byte	0x78
 13165 16b7 00       		.sleb128 0
 13166 16b8 22       		.byte	0x22
 13167 16b9 7B       		.byte	0x7b
 13168 16ba 00       		.sleb128 0
 13169 16bb 22       		.byte	0x22
 13170 16bc 9F       		.byte	0x9f
 13171 16bd 3E000000 		.4byte	.LVL176
 13172 16c1 48000000 		.4byte	.LVL177
 13173 16c5 0100     		.2byte	0x1
 13174 16c7 56       		.byte	0x56
 13175 16c8 48000000 		.4byte	.LVL177
 13176 16cc 4A000000 		.4byte	.LVL178
 13177 16d0 0300     		.2byte	0x3
 13178 16d2 76       		.byte	0x76
 13179 16d3 6C       		.sleb128 -20
 13180 16d4 9F       		.byte	0x9f
 13181 16d5 4A000000 		.4byte	.LVL178
 13182 16d9 56000000 		.4byte	.LVL180
 13183 16dd 0300     		.2byte	0x3
 13184 16df 76       		.byte	0x76
 13185 16e0 6E       		.sleb128 -18
 13186 16e1 9F       		.byte	0x9f
 13187 16e2 56000000 		.4byte	.LVL180
 13188 16e6 62000000 		.4byte	.LVL182
 13189 16ea 0300     		.2byte	0x3
 13190 16ec 76       		.byte	0x76
 13191 16ed 70       		.sleb128 -16
 13192 16ee 9F       		.byte	0x9f
 13193 16ef 62000000 		.4byte	.LVL182
 13194 16f3 6E000000 		.4byte	.LVL184
 13195 16f7 0300     		.2byte	0x3
 13196 16f9 76       		.byte	0x76
 13197 16fa 72       		.sleb128 -14
 13198 16fb 9F       		.byte	0x9f
 13199 16fc 6E000000 		.4byte	.LVL184
 13200 1700 7A000000 		.4byte	.LVL186
 13201 1704 0300     		.2byte	0x3
 13202 1706 76       		.byte	0x76
 13203 1707 74       		.sleb128 -12
 13204 1708 9F       		.byte	0x9f
 13205 1709 7A000000 		.4byte	.LVL186
 13206 170d 86000000 		.4byte	.LVL188
 13207 1711 0300     		.2byte	0x3
 13208 1713 76       		.byte	0x76
 13209 1714 76       		.sleb128 -10
ARM GAS  C:\Users\rdn\AppData\Local\Temp\ccIOjLNc.s 			page 260


 13210 1715 9F       		.byte	0x9f
 13211 1716 86000000 		.4byte	.LVL188
 13212 171a 92000000 		.4byte	.LVL190
 13213 171e 0300     		.2byte	0x3
 13214 1720 76       		.byte	0x76
 13215 1721 78       		.sleb128 -8
 13216 1722 9F       		.byte	0x9f
 13217 1723 92000000 		.4byte	.LVL190
 13218 1727 9E000000 		.4byte	.LVL192
 13219 172b 0300     		.2byte	0x3
 13220 172d 76       		.byte	0x76
 13221 172e 7A       		.sleb128 -6
 13222 172f 9F       		.byte	0x9f
 13223 1730 9E000000 		.4byte	.LVL192
 13224 1734 AA000000 		.4byte	.LVL194
 13225 1738 0300     		.2byte	0x3
 13226 173a 76       		.byte	0x76
 13227 173b 7C       		.sleb128 -4
 13228 173c 9F       		.byte	0x9f
 13229 173d AA000000 		.4byte	.LVL194
 13230 1741 B6000000 		.4byte	.LVL196
 13231 1745 0300     		.2byte	0x3
 13232 1747 76       		.byte	0x76
 13233 1748 7E       		.sleb128 -2
 13234 1749 9F       		.byte	0x9f
 13235 174a B6000000 		.4byte	.LVL196
 13236 174e C8000000 		.4byte	.LVL200
 13237 1752 0100     		.2byte	0x1
 13238 1754 56       		.byte	0x56
 13239 1755 C8000000 		.4byte	.LVL200
 13240 1759 D6000000 		.4byte	.LVL201
 13241 175d 0300     		.2byte	0x3
 13242 175f 76       		.byte	0x76
 13243 1760 6C       		.sleb128 -20
 13244 1761 9F       		.byte	0x9f
 13245 1762 00000000 		.4byte	0
 13246 1766 00000000 		.4byte	0
 13247              	.LLST88:
 13248 176a 24000000 		.4byte	.LVL175
 13249 176e 3E000000 		.4byte	.LVL176
 13250 1772 0200     		.2byte	0x2
 13251 1774 30       		.byte	0x30
 13252 1775 9F       		.byte	0x9f
 13253 1776 3E000000 		.4byte	.LVL176
 13254 177a 62000000 		.4byte	.LVL182
 13255 177e 0100     		.2byte	0x1
 13256 1780 5C       		.byte	0x5c
 13257 1781 62000000 		.4byte	.LVL182
 13258 1785 6E000000 		.4byte	.LVL184
 13259 1789 0100     		.2byte	0x1
 13260 178b 55       		.byte	0x55
 13261 178c 6E000000 		.4byte	.LVL184
 13262 1790 7A000000 		.4byte	.LVL186
 13263 1794 0100     		.2byte	0x1
 13264 1796 54       		.byte	0x54
 13265 1797 7A000000 		.4byte	.LVL186
 13266 179b 86000000 		.4byte	.LVL188
ARM GAS  C:\Users\rdn\AppData\Local\Temp\ccIOjLNc.s 			page 261


 13267 179f 0100     		.2byte	0x1
 13268 17a1 5C       		.byte	0x5c
 13269 17a2 86000000 		.4byte	.LVL188
 13270 17a6 92000000 		.4byte	.LVL190
 13271 17aa 0100     		.2byte	0x1
 13272 17ac 55       		.byte	0x55
 13273 17ad 92000000 		.4byte	.LVL190
 13274 17b1 9E000000 		.4byte	.LVL192
 13275 17b5 0100     		.2byte	0x1
 13276 17b7 54       		.byte	0x54
 13277 17b8 9E000000 		.4byte	.LVL192
 13278 17bc AA000000 		.4byte	.LVL194
 13279 17c0 0100     		.2byte	0x1
 13280 17c2 5C       		.byte	0x5c
 13281 17c3 AA000000 		.4byte	.LVL194
 13282 17c7 B6000000 		.4byte	.LVL196
 13283 17cb 0100     		.2byte	0x1
 13284 17cd 55       		.byte	0x55
 13285 17ce B6000000 		.4byte	.LVL196
 13286 17d2 C6000000 		.4byte	.LVL199
 13287 17d6 0100     		.2byte	0x1
 13288 17d8 54       		.byte	0x54
 13289 17d9 C6000000 		.4byte	.LVL199
 13290 17dd 26010000 		.4byte	.LVL210
 13291 17e1 0100     		.2byte	0x1
 13292 17e3 5C       		.byte	0x5c
 13293 17e4 00000000 		.4byte	0
 13294 17e8 00000000 		.4byte	0
 13295              	.LLST89:
 13296 17ec 24000000 		.4byte	.LVL175
 13297 17f0 3E000000 		.4byte	.LVL176
 13298 17f4 0200     		.2byte	0x2
 13299 17f6 30       		.byte	0x30
 13300 17f7 9F       		.byte	0x9f
 13301 17f8 3E000000 		.4byte	.LVL176
 13302 17fc C2000000 		.4byte	.LVL198
 13303 1800 0100     		.2byte	0x1
 13304 1802 5E       		.byte	0x5e
 13305 1803 C2000000 		.4byte	.LVL198
 13306 1807 C6000000 		.4byte	.LVL199
 13307 180b 0300     		.2byte	0x3
 13308 180d 7E       		.byte	0x7e
 13309 180e 76       		.sleb128 -10
 13310 180f 9F       		.byte	0x9f
 13311 1810 C6000000 		.4byte	.LVL199
 13312 1814 E6000000 		.4byte	.LVL202
 13313 1818 0100     		.2byte	0x1
 13314 181a 5E       		.byte	0x5e
 13315 181b 00000000 		.4byte	0
 13316 181f 00000000 		.4byte	0
 13317              	.LLST90:
 13318 1823 C8000000 		.4byte	.LVL200
 13319 1827 1C010000 		.4byte	.LVL206
 13320 182b 0100     		.2byte	0x1
 13321 182d 5C       		.byte	0x5c
 13322 182e 00000000 		.4byte	0
 13323 1832 00000000 		.4byte	0
ARM GAS  C:\Users\rdn\AppData\Local\Temp\ccIOjLNc.s 			page 262


 13324              	.LLST91:
 13325 1836 C8000000 		.4byte	.LVL200
 13326 183a 1C010000 		.4byte	.LVL206
 13327 183e 0100     		.2byte	0x1
 13328 1840 52       		.byte	0x52
 13329 1841 00000000 		.4byte	0
 13330 1845 00000000 		.4byte	0
 13331              	.LLST92:
 13332 1849 F8000000 		.4byte	.LVL203
 13333 184d 14010000 		.4byte	.LVL204
 13334 1851 0100     		.2byte	0x1
 13335 1853 5E       		.byte	0x5e
 13336 1854 14010000 		.4byte	.LVL204
 13337 1858 18010000 		.4byte	.LVL205
 13338 185c 0500     		.2byte	0x5
 13339 185e 7E       		.byte	0x7e
 13340 185f 80807E   		.sleb128 -32768
 13341 1862 9F       		.byte	0x9f
 13342 1863 00000000 		.4byte	0
 13343 1867 00000000 		.4byte	0
 13344              	.LLST93:
 13345 186b C8000000 		.4byte	.LVL200
 13346 186f 26010000 		.4byte	.LVL210
 13347 1873 0600     		.2byte	0x6
 13348 1875 9E       		.byte	0x9e
 13349 1876 04       		.uleb128 0x4
 13350 1877 25A23882 		.4byte	0x8238a225
 13351 187b 00000000 		.4byte	0
 13352 187f 00000000 		.4byte	0
 13353              	.LLST94:
 13354 1883 C8000000 		.4byte	.LVL200
 13355 1887 26010000 		.4byte	.LVL210
 13356 188b 0600     		.2byte	0x6
 13357 188d 0C       		.byte	0xc
 13358 188e 4111D13D 		.4byte	0x3dd11141
 13359 1892 9F       		.byte	0x9f
 13360 1893 00000000 		.4byte	0
 13361 1897 00000000 		.4byte	0
 13362              	.LLST95:
 13363 189b C8000000 		.4byte	.LVL200
 13364 189f 26010000 		.4byte	.LVL210
 13365 18a3 0600     		.2byte	0x6
 13366 18a5 9E       		.byte	0x9e
 13367 18a6 04       		.uleb128 0x4
 13368 18a7 72C83382 		.4byte	0x8233c872
 13369 18ab 00000000 		.4byte	0
 13370 18af 00000000 		.4byte	0
 13371              	.LLST96:
 13372 18b3 C8000000 		.4byte	.LVL200
 13373 18b7 26010000 		.4byte	.LVL210
 13374 18bb 0600     		.2byte	0x6
 13375 18bd 0C       		.byte	0xc
 13376 18be C61BE63E 		.4byte	0x3ee61bc6
 13377 18c2 9F       		.byte	0x9f
 13378 18c3 00000000 		.4byte	0
 13379 18c7 00000000 		.4byte	0
 13380              	.LLST97:
ARM GAS  C:\Users\rdn\AppData\Local\Temp\ccIOjLNc.s 			page 263


 13381 18cb 00000000 		.4byte	.LVL212
 13382 18cf 0E000000 		.4byte	.LVL216
 13383 18d3 0100     		.2byte	0x1
 13384 18d5 50       		.byte	0x50
 13385 18d6 0E000000 		.4byte	.LVL216
 13386 18da 11000000 		.4byte	.LVL217-1
 13387 18de 0100     		.2byte	0x1
 13388 18e0 52       		.byte	0x52
 13389 18e1 11000000 		.4byte	.LVL217-1
 13390 18e5 1C000000 		.4byte	.LFE23
 13391 18e9 0400     		.2byte	0x4
 13392 18eb F3       		.byte	0xf3
 13393 18ec 01       		.uleb128 0x1
 13394 18ed 50       		.byte	0x50
 13395 18ee 9F       		.byte	0x9f
 13396 18ef 00000000 		.4byte	0
 13397 18f3 00000000 		.4byte	0
 13398              	.LLST98:
 13399 18f7 00000000 		.4byte	.LVL212
 13400 18fb 0C000000 		.4byte	.LVL215
 13401 18ff 0100     		.2byte	0x1
 13402 1901 51       		.byte	0x51
 13403 1902 0C000000 		.4byte	.LVL215
 13404 1906 11000000 		.4byte	.LVL217-1
 13405 190a 0100     		.2byte	0x1
 13406 190c 53       		.byte	0x53
 13407 190d 11000000 		.4byte	.LVL217-1
 13408 1911 1C000000 		.4byte	.LFE23
 13409 1915 0400     		.2byte	0x4
 13410 1917 F3       		.byte	0xf3
 13411 1918 01       		.uleb128 0x1
 13412 1919 51       		.byte	0x51
 13413 191a 9F       		.byte	0x9f
 13414 191b 00000000 		.4byte	0
 13415 191f 00000000 		.4byte	0
 13416              	.LLST99:
 13417 1923 00000000 		.4byte	.LVL212
 13418 1927 0A000000 		.4byte	.LVL214
 13419 192b 0100     		.2byte	0x1
 13420 192d 52       		.byte	0x52
 13421 192e 0A000000 		.4byte	.LVL214
 13422 1932 11000000 		.4byte	.LVL217-1
 13423 1936 0200     		.2byte	0x2
 13424 1938 7D       		.byte	0x7d
 13425 1939 00       		.sleb128 0
 13426 193a 11000000 		.4byte	.LVL217-1
 13427 193e 1C000000 		.4byte	.LFE23
 13428 1942 0400     		.2byte	0x4
 13429 1944 F3       		.byte	0xf3
 13430 1945 01       		.uleb128 0x1
 13431 1946 52       		.byte	0x52
 13432 1947 9F       		.byte	0x9f
 13433 1948 00000000 		.4byte	0
 13434 194c 00000000 		.4byte	0
 13435              	.LLST100:
 13436 1950 00000000 		.4byte	.LVL212
 13437 1954 08000000 		.4byte	.LVL213
ARM GAS  C:\Users\rdn\AppData\Local\Temp\ccIOjLNc.s 			page 264


 13438 1958 0100     		.2byte	0x1
 13439 195a 53       		.byte	0x53
 13440 195b 08000000 		.4byte	.LVL213
 13441 195f 11000000 		.4byte	.LVL217-1
 13442 1963 0200     		.2byte	0x2
 13443 1965 91       		.byte	0x91
 13444 1966 74       		.sleb128 -12
 13445 1967 11000000 		.4byte	.LVL217-1
 13446 196b 1C000000 		.4byte	.LFE23
 13447 196f 0400     		.2byte	0x4
 13448 1971 F3       		.byte	0xf3
 13449 1972 01       		.uleb128 0x1
 13450 1973 53       		.byte	0x53
 13451 1974 9F       		.byte	0x9f
 13452 1975 00000000 		.4byte	0
 13453 1979 00000000 		.4byte	0
 13454              	.LLST101:
 13455 197d 00000000 		.4byte	.LVL218
 13456 1981 0E000000 		.4byte	.LVL222
 13457 1985 0100     		.2byte	0x1
 13458 1987 50       		.byte	0x50
 13459 1988 0E000000 		.4byte	.LVL222
 13460 198c 11000000 		.4byte	.LVL223-1
 13461 1990 0100     		.2byte	0x1
 13462 1992 52       		.byte	0x52
 13463 1993 11000000 		.4byte	.LVL223-1
 13464 1997 1C000000 		.4byte	.LFE24
 13465 199b 0400     		.2byte	0x4
 13466 199d F3       		.byte	0xf3
 13467 199e 01       		.uleb128 0x1
 13468 199f 50       		.byte	0x50
 13469 19a0 9F       		.byte	0x9f
 13470 19a1 00000000 		.4byte	0
 13471 19a5 00000000 		.4byte	0
 13472              	.LLST102:
 13473 19a9 00000000 		.4byte	.LVL218
 13474 19ad 0C000000 		.4byte	.LVL221
 13475 19b1 0100     		.2byte	0x1
 13476 19b3 51       		.byte	0x51
 13477 19b4 0C000000 		.4byte	.LVL221
 13478 19b8 11000000 		.4byte	.LVL223-1
 13479 19bc 0100     		.2byte	0x1
 13480 19be 53       		.byte	0x53
 13481 19bf 11000000 		.4byte	.LVL223-1
 13482 19c3 1C000000 		.4byte	.LFE24
 13483 19c7 0400     		.2byte	0x4
 13484 19c9 F3       		.byte	0xf3
 13485 19ca 01       		.uleb128 0x1
 13486 19cb 51       		.byte	0x51
 13487 19cc 9F       		.byte	0x9f
 13488 19cd 00000000 		.4byte	0
 13489 19d1 00000000 		.4byte	0
 13490              	.LLST103:
 13491 19d5 00000000 		.4byte	.LVL218
 13492 19d9 0A000000 		.4byte	.LVL220
 13493 19dd 0100     		.2byte	0x1
 13494 19df 52       		.byte	0x52
ARM GAS  C:\Users\rdn\AppData\Local\Temp\ccIOjLNc.s 			page 265


 13495 19e0 0A000000 		.4byte	.LVL220
 13496 19e4 11000000 		.4byte	.LVL223-1
 13497 19e8 0200     		.2byte	0x2
 13498 19ea 7D       		.byte	0x7d
 13499 19eb 00       		.sleb128 0
 13500 19ec 11000000 		.4byte	.LVL223-1
 13501 19f0 1C000000 		.4byte	.LFE24
 13502 19f4 0400     		.2byte	0x4
 13503 19f6 F3       		.byte	0xf3
 13504 19f7 01       		.uleb128 0x1
 13505 19f8 52       		.byte	0x52
 13506 19f9 9F       		.byte	0x9f
 13507 19fa 00000000 		.4byte	0
 13508 19fe 00000000 		.4byte	0
 13509              	.LLST104:
 13510 1a02 00000000 		.4byte	.LVL218
 13511 1a06 08000000 		.4byte	.LVL219
 13512 1a0a 0100     		.2byte	0x1
 13513 1a0c 53       		.byte	0x53
 13514 1a0d 08000000 		.4byte	.LVL219
 13515 1a11 11000000 		.4byte	.LVL223-1
 13516 1a15 0200     		.2byte	0x2
 13517 1a17 91       		.byte	0x91
 13518 1a18 74       		.sleb128 -12
 13519 1a19 11000000 		.4byte	.LVL223-1
 13520 1a1d 1C000000 		.4byte	.LFE24
 13521 1a21 0400     		.2byte	0x4
 13522 1a23 F3       		.byte	0xf3
 13523 1a24 01       		.uleb128 0x1
 13524 1a25 53       		.byte	0x53
 13525 1a26 9F       		.byte	0x9f
 13526 1a27 00000000 		.4byte	0
 13527 1a2b 00000000 		.4byte	0
 13528              	.LLST105:
 13529 1a2f 00000000 		.4byte	.LVL224
 13530 1a33 0E000000 		.4byte	.LVL228
 13531 1a37 0100     		.2byte	0x1
 13532 1a39 50       		.byte	0x50
 13533 1a3a 0E000000 		.4byte	.LVL228
 13534 1a3e 11000000 		.4byte	.LVL229-1
 13535 1a42 0100     		.2byte	0x1
 13536 1a44 52       		.byte	0x52
 13537 1a45 11000000 		.4byte	.LVL229-1
 13538 1a49 1C000000 		.4byte	.LFE25
 13539 1a4d 0400     		.2byte	0x4
 13540 1a4f F3       		.byte	0xf3
 13541 1a50 01       		.uleb128 0x1
 13542 1a51 50       		.byte	0x50
 13543 1a52 9F       		.byte	0x9f
 13544 1a53 00000000 		.4byte	0
 13545 1a57 00000000 		.4byte	0
 13546              	.LLST106:
 13547 1a5b 00000000 		.4byte	.LVL224
 13548 1a5f 0C000000 		.4byte	.LVL227
 13549 1a63 0100     		.2byte	0x1
 13550 1a65 51       		.byte	0x51
 13551 1a66 0C000000 		.4byte	.LVL227
ARM GAS  C:\Users\rdn\AppData\Local\Temp\ccIOjLNc.s 			page 266


 13552 1a6a 11000000 		.4byte	.LVL229-1
 13553 1a6e 0100     		.2byte	0x1
 13554 1a70 53       		.byte	0x53
 13555 1a71 11000000 		.4byte	.LVL229-1
 13556 1a75 1C000000 		.4byte	.LFE25
 13557 1a79 0400     		.2byte	0x4
 13558 1a7b F3       		.byte	0xf3
 13559 1a7c 01       		.uleb128 0x1
 13560 1a7d 51       		.byte	0x51
 13561 1a7e 9F       		.byte	0x9f
 13562 1a7f 00000000 		.4byte	0
 13563 1a83 00000000 		.4byte	0
 13564              	.LLST107:
 13565 1a87 00000000 		.4byte	.LVL224
 13566 1a8b 0A000000 		.4byte	.LVL226
 13567 1a8f 0100     		.2byte	0x1
 13568 1a91 52       		.byte	0x52
 13569 1a92 0A000000 		.4byte	.LVL226
 13570 1a96 11000000 		.4byte	.LVL229-1
 13571 1a9a 0200     		.2byte	0x2
 13572 1a9c 7D       		.byte	0x7d
 13573 1a9d 00       		.sleb128 0
 13574 1a9e 11000000 		.4byte	.LVL229-1
 13575 1aa2 1C000000 		.4byte	.LFE25
 13576 1aa6 0400     		.2byte	0x4
 13577 1aa8 F3       		.byte	0xf3
 13578 1aa9 01       		.uleb128 0x1
 13579 1aaa 52       		.byte	0x52
 13580 1aab 9F       		.byte	0x9f
 13581 1aac 00000000 		.4byte	0
 13582 1ab0 00000000 		.4byte	0
 13583              	.LLST108:
 13584 1ab4 00000000 		.4byte	.LVL224
 13585 1ab8 08000000 		.4byte	.LVL225
 13586 1abc 0100     		.2byte	0x1
 13587 1abe 53       		.byte	0x53
 13588 1abf 08000000 		.4byte	.LVL225
 13589 1ac3 11000000 		.4byte	.LVL229-1
 13590 1ac7 0200     		.2byte	0x2
 13591 1ac9 91       		.byte	0x91
 13592 1aca 74       		.sleb128 -12
 13593 1acb 11000000 		.4byte	.LVL229-1
 13594 1acf 1C000000 		.4byte	.LFE25
 13595 1ad3 0400     		.2byte	0x4
 13596 1ad5 F3       		.byte	0xf3
 13597 1ad6 01       		.uleb128 0x1
 13598 1ad7 53       		.byte	0x53
 13599 1ad8 9F       		.byte	0x9f
 13600 1ad9 00000000 		.4byte	0
 13601 1add 00000000 		.4byte	0
 13602              	.LLST109:
 13603 1ae1 00000000 		.4byte	.LVL230
 13604 1ae5 34000000 		.4byte	.LVL235
 13605 1ae9 0100     		.2byte	0x1
 13606 1aeb 50       		.byte	0x50
 13607 1aec 34000000 		.4byte	.LVL235
 13608 1af0 BE040000 		.4byte	.LFE38
ARM GAS  C:\Users\rdn\AppData\Local\Temp\ccIOjLNc.s 			page 267


 13609 1af4 0400     		.2byte	0x4
 13610 1af6 F3       		.byte	0xf3
 13611 1af7 01       		.uleb128 0x1
 13612 1af8 50       		.byte	0x50
 13613 1af9 9F       		.byte	0x9f
 13614 1afa 00000000 		.4byte	0
 13615 1afe 00000000 		.4byte	0
 13616              	.LLST110:
 13617 1b02 00000000 		.4byte	.LVL230
 13618 1b06 30000000 		.4byte	.LVL233
 13619 1b0a 0100     		.2byte	0x1
 13620 1b0c 51       		.byte	0x51
 13621 1b0d 30000000 		.4byte	.LVL233
 13622 1b11 BE040000 		.4byte	.LFE38
 13623 1b15 0400     		.2byte	0x4
 13624 1b17 F3       		.byte	0xf3
 13625 1b18 01       		.uleb128 0x1
 13626 1b19 51       		.byte	0x51
 13627 1b1a 9F       		.byte	0x9f
 13628 1b1b 00000000 		.4byte	0
 13629 1b1f 00000000 		.4byte	0
 13630              	.LLST111:
 13631 1b23 00000000 		.4byte	.LVL230
 13632 1b27 32000000 		.4byte	.LVL234
 13633 1b2b 0100     		.2byte	0x1
 13634 1b2d 52       		.byte	0x52
 13635 1b2e 32000000 		.4byte	.LVL234
 13636 1b32 BE040000 		.4byte	.LFE38
 13637 1b36 0100     		.2byte	0x1
 13638 1b38 56       		.byte	0x56
 13639 1b39 00000000 		.4byte	0
 13640 1b3d 00000000 		.4byte	0
 13641              	.LLST112:
 13642 1b41 00000000 		.4byte	.LVL230
 13643 1b45 26000000 		.4byte	.LVL232
 13644 1b49 0100     		.2byte	0x1
 13645 1b4b 53       		.byte	0x53
 13646 1b4c 26000000 		.4byte	.LVL232
 13647 1b50 72000000 		.4byte	.LVL240
 13648 1b54 0100     		.2byte	0x1
 13649 1b56 5A       		.byte	0x5a
 13650 1b57 72000000 		.4byte	.LVL240
 13651 1b5b BE040000 		.4byte	.LFE38
 13652 1b5f 0400     		.2byte	0x4
 13653 1b61 F3       		.byte	0xf3
 13654 1b62 01       		.uleb128 0x1
 13655 1b63 53       		.byte	0x53
 13656 1b64 9F       		.byte	0x9f
 13657 1b65 00000000 		.4byte	0
 13658 1b69 00000000 		.4byte	0
 13659              	.LLST113:
 13660 1b6d 44000000 		.4byte	.LVL237
 13661 1b71 66000000 		.4byte	.LVL239
 13662 1b75 0100     		.2byte	0x1
 13663 1b77 54       		.byte	0x54
 13664 1b78 66000000 		.4byte	.LVL239
 13665 1b7c BE040000 		.4byte	.LFE38
ARM GAS  C:\Users\rdn\AppData\Local\Temp\ccIOjLNc.s 			page 268


 13666 1b80 0100     		.2byte	0x1
 13667 1b82 58       		.byte	0x58
 13668 1b83 00000000 		.4byte	0
 13669 1b87 00000000 		.4byte	0
 13670              	.LLST114:
 13671 1b8b 66000000 		.4byte	.LVL239
 13672 1b8f 34020000 		.4byte	.LVL290
 13673 1b93 0100     		.2byte	0x1
 13674 1b95 55       		.byte	0x55
 13675 1b96 00000000 		.4byte	0
 13676 1b9a 00000000 		.4byte	0
 13677              	.LLST115:
 13678 1b9e 82000000 		.4byte	.LVL242
 13679 1ba2 D2000000 		.4byte	.LVL249
 13680 1ba6 0100     		.2byte	0x1
 13681 1ba8 54       		.byte	0x54
 13682 1ba9 D6000000 		.4byte	.LVL250
 13683 1bad 58020000 		.4byte	.LVL295
 13684 1bb1 0100     		.2byte	0x1
 13685 1bb3 54       		.byte	0x54
 13686 1bb4 58020000 		.4byte	.LVL295
 13687 1bb8 76020000 		.4byte	.LVL298
 13688 1bbc 0400     		.2byte	0x4
 13689 1bbe 7B       		.byte	0x7b
 13690 1bbf E601     		.sleb128 230
 13691 1bc1 9F       		.byte	0x9f
 13692 1bc2 EE030000 		.4byte	.LVL339
 13693 1bc6 F4030000 		.4byte	.LVL341
 13694 1bca 0100     		.2byte	0x1
 13695 1bcc 54       		.byte	0x54
 13696 1bcd 00000000 		.4byte	0
 13697 1bd1 00000000 		.4byte	0
 13698              	.LLST116:
 13699 1bd5 48020000 		.4byte	.LVL292
 13700 1bd9 52020000 		.4byte	.LVL294
 13701 1bdd 0300     		.2byte	0x3
 13702 1bdf 75       		.byte	0x75
 13703 1be0 11       		.sleb128 17
 13704 1be1 9F       		.byte	0x9f
 13705 1be2 52020000 		.4byte	.LVL294
 13706 1be6 7E020000 		.4byte	.LVL301
 13707 1bea 0700     		.2byte	0x7
 13708 1bec 76       		.byte	0x76
 13709 1bed 8409     		.sleb128 1156
 13710 1bef 06       		.byte	0x6
 13711 1bf0 23       		.byte	0x23
 13712 1bf1 11       		.uleb128 0x11
 13713 1bf2 9F       		.byte	0x9f
 13714 1bf3 EE030000 		.4byte	.LVL339
 13715 1bf7 F4030000 		.4byte	.LVL341
 13716 1bfb 0300     		.2byte	0x3
 13717 1bfd 75       		.byte	0x75
 13718 1bfe 11       		.sleb128 17
 13719 1bff 9F       		.byte	0x9f
 13720 1c00 00000000 		.4byte	0
 13721 1c04 00000000 		.4byte	0
 13722              	.LLST117:
ARM GAS  C:\Users\rdn\AppData\Local\Temp\ccIOjLNc.s 			page 269


 13723 1c08 DA000000 		.4byte	.LVL252
 13724 1c0c 50030000 		.4byte	.LVL326
 13725 1c10 0200     		.2byte	0x2
 13726 1c12 30       		.byte	0x30
 13727 1c13 9F       		.byte	0x9f
 13728 1c14 50030000 		.4byte	.LVL326
 13729 1c18 EE030000 		.4byte	.LVL339
 13730 1c1c 0100     		.2byte	0x1
 13731 1c1e 55       		.byte	0x55
 13732 1c1f EE030000 		.4byte	.LVL339
 13733 1c23 F4030000 		.4byte	.LVL341
 13734 1c27 0200     		.2byte	0x2
 13735 1c29 30       		.byte	0x30
 13736 1c2a 9F       		.byte	0x9f
 13737 1c2b F4030000 		.4byte	.LVL341
 13738 1c2f B2040000 		.4byte	.LVL346
 13739 1c33 0100     		.2byte	0x1
 13740 1c35 55       		.byte	0x55
 13741 1c36 00000000 		.4byte	0
 13742 1c3a 00000000 		.4byte	0
 13743              	.LLST118:
 13744 1c3e DA000000 		.4byte	.LVL252
 13745 1c42 EC030000 		.4byte	.LVL338
 13746 1c46 0600     		.2byte	0x6
 13747 1c48 9E       		.byte	0x9e
 13748 1c49 04       		.uleb128 0x4
 13749 1c4a 00000000 		.4byte	0
 13750 1c4e EC030000 		.4byte	.LVL338
 13751 1c52 EE030000 		.4byte	.LVL339
 13752 1c56 0200     		.2byte	0x2
 13753 1c58 90       		.byte	0x90
 13754 1c59 4F       		.uleb128 0x4f
 13755 1c5a EE030000 		.4byte	.LVL339
 13756 1c5e F4030000 		.4byte	.LVL341
 13757 1c62 0600     		.2byte	0x6
 13758 1c64 9E       		.byte	0x9e
 13759 1c65 04       		.uleb128 0x4
 13760 1c66 00000000 		.4byte	0
 13761 1c6a F4030000 		.4byte	.LVL341
 13762 1c6e BE040000 		.4byte	.LFE38
 13763 1c72 0200     		.2byte	0x2
 13764 1c74 90       		.byte	0x90
 13765 1c75 4F       		.uleb128 0x4f
 13766 1c76 00000000 		.4byte	0
 13767 1c7a 00000000 		.4byte	0
 13768              	.LLST119:
 13769 1c7e 82000000 		.4byte	.LVL242
 13770 1c82 CA000000 		.4byte	.LVL248
 13771 1c86 0100     		.2byte	0x1
 13772 1c88 55       		.byte	0x55
 13773 1c89 00000000 		.4byte	0
 13774 1c8d 00000000 		.4byte	0
 13775              	.LLST120:
 13776 1c91 82000000 		.4byte	.LVL242
 13777 1c95 90000000 		.4byte	.LVL244
 13778 1c99 0100     		.2byte	0x1
 13779 1c9b 54       		.byte	0x54
ARM GAS  C:\Users\rdn\AppData\Local\Temp\ccIOjLNc.s 			page 270


 13780 1c9c 90000000 		.4byte	.LVL244
 13781 1ca0 98000000 		.4byte	.LVL246
 13782 1ca4 0100     		.2byte	0x1
 13783 1ca6 5C       		.byte	0x5c
 13784 1ca7 98000000 		.4byte	.LVL246
 13785 1cab C8000000 		.4byte	.LVL247
 13786 1caf 0300     		.2byte	0x3
 13787 1cb1 7C       		.byte	0x7c
 13788 1cb2 02       		.sleb128 2
 13789 1cb3 9F       		.byte	0x9f
 13790 1cb4 C8000000 		.4byte	.LVL247
 13791 1cb8 CA000000 		.4byte	.LVL248
 13792 1cbc 0100     		.2byte	0x1
 13793 1cbe 5C       		.byte	0x5c
 13794 1cbf 00000000 		.4byte	0
 13795 1cc3 00000000 		.4byte	0
 13796              	.LLST121:
 13797 1cc7 82000000 		.4byte	.LVL242
 13798 1ccb 86000000 		.4byte	.LVL243
 13799 1ccf 0100     		.2byte	0x1
 13800 1cd1 58       		.byte	0x58
 13801 1cd2 86000000 		.4byte	.LVL243
 13802 1cd6 90000000 		.4byte	.LVL244
 13803 1cda 0300     		.2byte	0x3
 13804 1cdc 78       		.byte	0x78
 13805 1cdd 7E       		.sleb128 -2
 13806 1cde 9F       		.byte	0x9f
 13807 1cdf 90000000 		.4byte	.LVL244
 13808 1ce3 96000000 		.4byte	.LVL245
 13809 1ce7 0300     		.2byte	0x3
 13810 1ce9 73       		.byte	0x73
 13811 1cea 7C       		.sleb128 -4
 13812 1ceb 9F       		.byte	0x9f
 13813 1cec 96000000 		.4byte	.LVL245
 13814 1cf0 C8000000 		.4byte	.LVL247
 13815 1cf4 0300     		.2byte	0x3
 13816 1cf6 73       		.byte	0x73
 13817 1cf7 78       		.sleb128 -8
 13818 1cf8 9F       		.byte	0x9f
 13819 1cf9 C8000000 		.4byte	.LVL247
 13820 1cfd CA000000 		.4byte	.LVL248
 13821 1d01 0300     		.2byte	0x3
 13822 1d03 73       		.byte	0x73
 13823 1d04 7C       		.sleb128 -4
 13824 1d05 9F       		.byte	0x9f
 13825 1d06 00000000 		.4byte	0
 13826 1d0a 00000000 		.4byte	0
 13827              	.LLST122:
 13828 1d0e 86000000 		.4byte	.LVL243
 13829 1d12 CA000000 		.4byte	.LVL248
 13830 1d16 0100     		.2byte	0x1
 13831 1d18 5E       		.byte	0x5e
 13832 1d19 00000000 		.4byte	0
 13833 1d1d 00000000 		.4byte	0
 13834              	.LLST123:
 13835 1d21 DA000000 		.4byte	.LVL252
 13836 1d25 48020000 		.4byte	.LVL292
ARM GAS  C:\Users\rdn\AppData\Local\Temp\ccIOjLNc.s 			page 271


 13837 1d29 0600     		.2byte	0x6
 13838 1d2b F2       		.byte	0xf2
 13839 1d2c 1A150000 		.4byte	.Ldebug_info0+5402
 13840 1d30 00       		.sleb128 0
 13841 1d31 00000000 		.4byte	0
 13842 1d35 00000000 		.4byte	0
 13843              	.LLST124:
 13844 1d39 DA000000 		.4byte	.LVL252
 13845 1d3d 34020000 		.4byte	.LVL290
 13846 1d41 0100     		.2byte	0x1
 13847 1d43 55       		.byte	0x55
 13848 1d44 00000000 		.4byte	0
 13849 1d48 00000000 		.4byte	0
 13850              	.LLST125:
 13851 1d4c DA000000 		.4byte	.LVL252
 13852 1d50 48020000 		.4byte	.LVL292
 13853 1d54 0100     		.2byte	0x1
 13854 1d56 54       		.byte	0x54
 13855 1d57 00000000 		.4byte	0
 13856 1d5b 00000000 		.4byte	0
 13857              	.LLST126:
 13858 1d5f 24010000 		.4byte	.LVL263
 13859 1d63 38010000 		.4byte	.LVL264
 13860 1d67 0200     		.2byte	0x2
 13861 1d69 90       		.byte	0x90
 13862 1d6a 4E       		.uleb128 0x4e
 13863 1d6b 00000000 		.4byte	0
 13864 1d6f 00000000 		.4byte	0
 13865              	.LLST127:
 13866 1d73 6C010000 		.4byte	.LVL270
 13867 1d77 48020000 		.4byte	.LVL292
 13868 1d7b 0200     		.2byte	0x2
 13869 1d7d 90       		.byte	0x90
 13870 1d7e 50       		.uleb128 0x50
 13871 1d7f 00000000 		.4byte	0
 13872 1d83 00000000 		.4byte	0
 13873              	.LLST128:
 13874 1d87 E8000000 		.4byte	.LVL253
 13875 1d8b EC000000 		.4byte	.LVL254
 13876 1d8f 0100     		.2byte	0x1
 13877 1d91 59       		.byte	0x59
 13878 1d92 F0000000 		.4byte	.LVL255
 13879 1d96 98010000 		.4byte	.LVL275
 13880 1d9a 0100     		.2byte	0x1
 13881 1d9c 59       		.byte	0x59
 13882 1d9d 00000000 		.4byte	0
 13883 1da1 00000000 		.4byte	0
 13884              	.LLST129:
 13885 1da5 FC000000 		.4byte	.LVL256
 13886 1da9 08010000 		.4byte	.LVL258
 13887 1dad 0300     		.2byte	0x3
 13888 1daf 73       		.byte	0x73
 13889 1db0 01       		.sleb128 1
 13890 1db1 9F       		.byte	0x9f
 13891 1db2 08010000 		.4byte	.LVL258
 13892 1db6 48020000 		.4byte	.LVL292
 13893 1dba 0700     		.2byte	0x7
ARM GAS  C:\Users\rdn\AppData\Local\Temp\ccIOjLNc.s 			page 272


 13894 1dbc 91       		.byte	0x91
 13895 1dbd B87A     		.sleb128 -712
 13896 1dbf 06       		.byte	0x6
 13897 1dc0 23       		.byte	0x23
 13898 1dc1 01       		.uleb128 0x1
 13899 1dc2 9F       		.byte	0x9f
 13900 1dc3 00000000 		.4byte	0
 13901 1dc7 00000000 		.4byte	0
 13902              	.LLST130:
 13903 1dcb 98010000 		.4byte	.LVL275
 13904 1dcf 40020000 		.4byte	.LVL291
 13905 1dd3 0100     		.2byte	0x1
 13906 1dd5 59       		.byte	0x59
 13907 1dd6 00000000 		.4byte	0
 13908 1dda 00000000 		.4byte	0
 13909              	.LLST131:
 13910 1dde 98010000 		.4byte	.LVL275
 13911 1de2 A8010000 		.4byte	.LVL278
 13912 1de6 0B00     		.2byte	0xb
 13913 1de8 09       		.byte	0x9
 13914 1de9 EF       		.byte	0xef
 13915 1dea 7A       		.byte	0x7a
 13916 1deb 00       		.sleb128 0
 13917 1dec 1C       		.byte	0x1c
 13918 1ded 31       		.byte	0x31
 13919 1dee 24       		.byte	0x24
 13920 1def 74       		.byte	0x74
 13921 1df0 00       		.sleb128 0
 13922 1df1 22       		.byte	0x22
 13923 1df2 9F       		.byte	0x9f
 13924 1df3 A8010000 		.4byte	.LVL278
 13925 1df7 AC010000 		.4byte	.LVL279
 13926 1dfb 0800     		.2byte	0x8
 13927 1dfd 74       		.byte	0x74
 13928 1dfe 00       		.sleb128 0
 13929 1dff 71       		.byte	0x71
 13930 1e00 00       		.sleb128 0
 13931 1e01 31       		.byte	0x31
 13932 1e02 24       		.byte	0x24
 13933 1e03 1C       		.byte	0x1c
 13934 1e04 9F       		.byte	0x9f
 13935 1e05 AC010000 		.4byte	.LVL279
 13936 1e09 48020000 		.4byte	.LVL292
 13937 1e0d 0B00     		.2byte	0xb
 13938 1e0f 09       		.byte	0x9
 13939 1e10 EF       		.byte	0xef
 13940 1e11 7A       		.byte	0x7a
 13941 1e12 00       		.sleb128 0
 13942 1e13 1C       		.byte	0x1c
 13943 1e14 31       		.byte	0x31
 13944 1e15 24       		.byte	0x24
 13945 1e16 74       		.byte	0x74
 13946 1e17 00       		.sleb128 0
 13947 1e18 22       		.byte	0x22
 13948 1e19 9F       		.byte	0x9f
 13949 1e1a 00000000 		.4byte	0
 13950 1e1e 00000000 		.4byte	0
ARM GAS  C:\Users\rdn\AppData\Local\Temp\ccIOjLNc.s 			page 273


 13951              	.LLST132:
 13952 1e22 98010000 		.4byte	.LVL275
 13953 1e26 40020000 		.4byte	.LVL291
 13954 1e2a 0B00     		.2byte	0xb
 13955 1e2c 09       		.byte	0x9
 13956 1e2d EF       		.byte	0xef
 13957 1e2e 79       		.byte	0x79
 13958 1e2f 00       		.sleb128 0
 13959 1e30 1C       		.byte	0x1c
 13960 1e31 31       		.byte	0x31
 13961 1e32 24       		.byte	0x24
 13962 1e33 74       		.byte	0x74
 13963 1e34 00       		.sleb128 0
 13964 1e35 22       		.byte	0x22
 13965 1e36 9F       		.byte	0x9f
 13966 1e37 00000000 		.4byte	0
 13967 1e3b 00000000 		.4byte	0
 13968              	.LLST133:
 13969 1e3f D2010000 		.4byte	.LVL283
 13970 1e43 48020000 		.4byte	.LVL292
 13971 1e47 0200     		.2byte	0x2
 13972 1e49 90       		.byte	0x90
 13973 1e4a 51       		.uleb128 0x51
 13974 1e4b 00000000 		.4byte	0
 13975 1e4f 00000000 		.4byte	0
 13976              	.LLST134:
 13977 1e53 14020000 		.4byte	.LVL287
 13978 1e57 48020000 		.4byte	.LVL292
 13979 1e5b 0200     		.2byte	0x2
 13980 1e5d 90       		.byte	0x90
 13981 1e5e 4F       		.uleb128 0x4f
 13982 1e5f 00000000 		.4byte	0
 13983 1e63 00000000 		.4byte	0
 13984              	.LLST135:
 13985 1e67 1C020000 		.4byte	.LVL288
 13986 1e6b 24020000 		.4byte	.LVL289
 13987 1e6f 0B00     		.2byte	0xb
 13988 1e71 F5       		.byte	0xf5
 13989 1e72 4F       		.uleb128 0x4f
 13990 1e73 25       		.uleb128 0x25
 13991 1e74 F5       		.byte	0xf5
 13992 1e75 4E       		.uleb128 0x4e
 13993 1e76 25       		.uleb128 0x25
 13994 1e77 2C       		.byte	0x2c
 13995 1e78 08       		.byte	0x8
 13996 1e79 FF       		.byte	0xff
 13997 1e7a 1A       		.byte	0x1a
 13998 1e7b 9F       		.byte	0x9f
 13999 1e7c 24020000 		.4byte	.LVL289
 14000 1e80 7E020000 		.4byte	.LVL301
 14001 1e84 1300     		.2byte	0x13
 14002 1e86 F5       		.byte	0xf5
 14003 1e87 4F       		.uleb128 0x4f
 14004 1e88 25       		.uleb128 0x25
 14005 1e89 F5       		.byte	0xf5
 14006 1e8a 51       		.uleb128 0x51
 14007 1e8b 25       		.uleb128 0x25
ARM GAS  C:\Users\rdn\AppData\Local\Temp\ccIOjLNc.s 			page 274


 14008 1e8c F4       		.byte	0xf4
 14009 1e8d 25       		.uleb128 0x25
 14010 1e8e 04       		.byte	0x4
 14011 1e8f 9A99593F 		.4byte	0x3f59999a
 14012 1e93 1E       		.byte	0x1e
 14013 1e94 2C       		.byte	0x2c
 14014 1e95 08       		.byte	0x8
 14015 1e96 FF       		.byte	0xff
 14016 1e97 1A       		.byte	0x1a
 14017 1e98 9F       		.byte	0x9f
 14018 1e99 EE030000 		.4byte	.LVL339
 14019 1e9d F2030000 		.4byte	.LVL340
 14020 1ea1 1300     		.2byte	0x13
 14021 1ea3 F5       		.byte	0xf5
 14022 1ea4 4F       		.uleb128 0x4f
 14023 1ea5 25       		.uleb128 0x25
 14024 1ea6 F5       		.byte	0xf5
 14025 1ea7 51       		.uleb128 0x51
 14026 1ea8 25       		.uleb128 0x25
 14027 1ea9 F4       		.byte	0xf4
 14028 1eaa 25       		.uleb128 0x25
 14029 1eab 04       		.byte	0x4
 14030 1eac 9A99593F 		.4byte	0x3f59999a
 14031 1eb0 1E       		.byte	0x1e
 14032 1eb1 2C       		.byte	0x2c
 14033 1eb2 08       		.byte	0x8
 14034 1eb3 FF       		.byte	0xff
 14035 1eb4 1A       		.byte	0x1a
 14036 1eb5 9F       		.byte	0x9f
 14037 1eb6 00000000 		.4byte	0
 14038 1eba 00000000 		.4byte	0
 14039              	.LLST136:
 14040 1ebe 00010000 		.4byte	.LVL257
 14041 1ec2 20010000 		.4byte	.LVL262
 14042 1ec6 0300     		.2byte	0x3
 14043 1ec8 08       		.byte	0x8
 14044 1ec9 62       		.byte	0x62
 14045 1eca 9F       		.byte	0x9f
 14046 1ecb 00000000 		.4byte	0
 14047 1ecf 00000000 		.4byte	0
 14048              	.LLST137:
 14049 1ed3 00010000 		.4byte	.LVL257
 14050 1ed7 08010000 		.4byte	.LVL258
 14051 1edb 0400     		.2byte	0x4
 14052 1edd 91       		.byte	0x91
 14053 1ede C07C     		.sleb128 -448
 14054 1ee0 9F       		.byte	0x9f
 14055 1ee1 08010000 		.4byte	.LVL258
 14056 1ee5 20010000 		.4byte	.LVL262
 14057 1ee9 0100     		.2byte	0x1
 14058 1eeb 5A       		.byte	0x5a
 14059 1eec 00000000 		.4byte	0
 14060 1ef0 00000000 		.4byte	0
 14061              	.LLST138:
 14062 1ef4 00010000 		.4byte	.LVL257
 14063 1ef8 20010000 		.4byte	.LVL262
 14064 1efc 0100     		.2byte	0x1
ARM GAS  C:\Users\rdn\AppData\Local\Temp\ccIOjLNc.s 			page 275


 14065 1efe 55       		.byte	0x55
 14066 1eff 00000000 		.4byte	0
 14067 1f03 00000000 		.4byte	0
 14068              	.LLST139:
 14069 1f07 00010000 		.4byte	.LVL257
 14070 1f0b 10010000 		.4byte	.LVL259
 14071 1f0f 0100     		.2byte	0x1
 14072 1f11 51       		.byte	0x51
 14073 1f12 10010000 		.4byte	.LVL259
 14074 1f16 13010000 		.4byte	.LVL260-1
 14075 1f1a 0100     		.2byte	0x1
 14076 1f1c 53       		.byte	0x53
 14077 1f1d 13010000 		.4byte	.LVL260-1
 14078 1f21 20010000 		.4byte	.LVL262
 14079 1f25 0300     		.2byte	0x3
 14080 1f27 91       		.byte	0x91
 14081 1f28 BC7A     		.sleb128 -708
 14082 1f2a 00000000 		.4byte	0
 14083 1f2e 00000000 		.4byte	0
 14084              	.LLST140:
 14085 1f32 00010000 		.4byte	.LVL257
 14086 1f36 20010000 		.4byte	.LVL262
 14087 1f3a 0100     		.2byte	0x1
 14088 1f3c 54       		.byte	0x54
 14089 1f3d 00000000 		.4byte	0
 14090 1f41 00000000 		.4byte	0
 14091              	.LLST141:
 14092 1f45 00010000 		.4byte	.LVL257
 14093 1f49 20010000 		.4byte	.LVL262
 14094 1f4d 0300     		.2byte	0x3
 14095 1f4f 91       		.byte	0x91
 14096 1f50 48       		.sleb128 -56
 14097 1f51 9F       		.byte	0x9f
 14098 1f52 00000000 		.4byte	0
 14099 1f56 00000000 		.4byte	0
 14100              	.LLST142:
 14101 1f5a 20010000 		.4byte	.LVL262
 14102 1f5e 62010000 		.4byte	.LVL268
 14103 1f62 0300     		.2byte	0x3
 14104 1f64 08       		.byte	0x8
 14105 1f65 62       		.byte	0x62
 14106 1f66 9F       		.byte	0x9f
 14107 1f67 00000000 		.4byte	0
 14108 1f6b 00000000 		.4byte	0
 14109              	.LLST143:
 14110 1f6f 20010000 		.4byte	.LVL262
 14111 1f73 62010000 		.4byte	.LVL268
 14112 1f77 0600     		.2byte	0x6
 14113 1f79 9E       		.byte	0x9e
 14114 1f7a 04       		.uleb128 0x4
 14115 1f7b 3FE8A8BB 		.4byte	0xbba8e83f
 14116 1f7f 00000000 		.4byte	0
 14117 1f83 00000000 		.4byte	0
 14118              	.LLST144:
 14119 1f87 20010000 		.4byte	.LVL262
 14120 1f8b 62010000 		.4byte	.LVL268
 14121 1f8f 0600     		.2byte	0x6
ARM GAS  C:\Users\rdn\AppData\Local\Temp\ccIOjLNc.s 			page 276


 14122 1f91 F2       		.byte	0xf2
 14123 1f92 DB150000 		.4byte	.Ldebug_info0+5595
 14124 1f96 00       		.sleb128 0
 14125 1f97 00000000 		.4byte	0
 14126 1f9b 00000000 		.4byte	0
 14127              	.LLST145:
 14128 1f9f 20010000 		.4byte	.LVL262
 14129 1fa3 62010000 		.4byte	.LVL268
 14130 1fa7 0400     		.2byte	0x4
 14131 1fa9 91       		.byte	0x91
 14132 1faa C07C     		.sleb128 -448
 14133 1fac 9F       		.byte	0x9f
 14134 1fad 00000000 		.4byte	0
 14135 1fb1 00000000 		.4byte	0
 14136              	.LLST146:
 14137 1fb5 20010000 		.4byte	.LVL262
 14138 1fb9 38010000 		.4byte	.LVL264
 14139 1fbd 0200     		.2byte	0x2
 14140 1fbf 30       		.byte	0x30
 14141 1fc0 9F       		.byte	0x9f
 14142 1fc1 00000000 		.4byte	0
 14143 1fc5 00000000 		.4byte	0
 14144              	.LLST147:
 14145 1fc9 24010000 		.4byte	.LVL263
 14146 1fcd 62010000 		.4byte	.LVL268
 14147 1fd1 0200     		.2byte	0x2
 14148 1fd3 90       		.byte	0x90
 14149 1fd4 4E       		.uleb128 0x4e
 14150 1fd5 00000000 		.4byte	0
 14151 1fd9 00000000 		.4byte	0
 14152              	.LLST148:
 14153 1fdd 24010000 		.4byte	.LVL263
 14154 1fe1 38010000 		.4byte	.LVL264
 14155 1fe5 0600     		.2byte	0x6
 14156 1fe7 9E       		.byte	0x9e
 14157 1fe8 04       		.uleb128 0x4
 14158 1fe9 30AE7E3F 		.4byte	0x3f7eae30
 14159 1fed 38010000 		.4byte	.LVL264
 14160 1ff1 44010000 		.4byte	.LVL265
 14161 1ff5 0200     		.2byte	0x2
 14162 1ff7 90       		.byte	0x90
 14163 1ff8 4F       		.uleb128 0x4f
 14164 1ff9 5E010000 		.4byte	.LVL267
 14165 1ffd 62010000 		.4byte	.LVL268
 14166 2001 0200     		.2byte	0x2
 14167 2003 90       		.byte	0x90
 14168 2004 4F       		.uleb128 0x4f
 14169 2005 00000000 		.4byte	0
 14170 2009 00000000 		.4byte	0
 14171              	.LLST149:
 14172 200d 24010000 		.4byte	.LVL263
 14173 2011 38010000 		.4byte	.LVL264
 14174 2015 0200     		.2byte	0x2
 14175 2017 31       		.byte	0x31
 14176 2018 9F       		.byte	0x9f
 14177 2019 38010000 		.4byte	.LVL264
 14178 201d 54010000 		.4byte	.LVL266
ARM GAS  C:\Users\rdn\AppData\Local\Temp\ccIOjLNc.s 			page 277


 14179 2021 0100     		.2byte	0x1
 14180 2023 53       		.byte	0x53
 14181 2024 54010000 		.4byte	.LVL266
 14182 2028 5E010000 		.4byte	.LVL267
 14183 202c 0300     		.2byte	0x3
 14184 202e 73       		.byte	0x73
 14185 202f 7F       		.sleb128 -1
 14186 2030 9F       		.byte	0x9f
 14187 2031 5E010000 		.4byte	.LVL267
 14188 2035 64010000 		.4byte	.LVL269
 14189 2039 0100     		.2byte	0x1
 14190 203b 53       		.byte	0x53
 14191 203c 00000000 		.4byte	0
 14192 2040 00000000 		.4byte	0
 14193              	.LLST150:
 14194 2044 62010000 		.4byte	.LVL268
 14195 2048 8E010000 		.4byte	.LVL274
 14196 204c 0600     		.2byte	0x6
 14197 204e F2       		.byte	0xf2
 14198 204f E4150000 		.4byte	.Ldebug_info0+5604
 14199 2053 00       		.sleb128 0
 14200 2054 00000000 		.4byte	0
 14201 2058 00000000 		.4byte	0
 14202              	.LLST151:
 14203 205c 62010000 		.4byte	.LVL268
 14204 2060 8E010000 		.4byte	.LVL274
 14205 2064 0700     		.2byte	0x7
 14206 2066 91       		.byte	0x91
 14207 2067 B87A     		.sleb128 -712
 14208 2069 06       		.byte	0x6
 14209 206a 23       		.byte	0x23
 14210 206b 01       		.uleb128 0x1
 14211 206c 9F       		.byte	0x9f
 14212 206d 00000000 		.4byte	0
 14213 2071 00000000 		.4byte	0
 14214              	.LLST152:
 14215 2075 62010000 		.4byte	.LVL268
 14216 2079 8E010000 		.4byte	.LVL274
 14217 207d 0C00     		.2byte	0xc
 14218 207f 79       		.byte	0x79
 14219 2080 00       		.sleb128 0
 14220 2081 32       		.byte	0x32
 14221 2082 24       		.byte	0x24
 14222 2083 91       		.byte	0x91
 14223 2084 00       		.sleb128 0
 14224 2085 22       		.byte	0x22
 14225 2086 0A       		.byte	0xa
 14226 2087 C001     		.2byte	0x1c0
 14227 2089 1C       		.byte	0x1c
 14228 208a 9F       		.byte	0x9f
 14229 208b 00000000 		.4byte	0
 14230 208f 00000000 		.4byte	0
 14231              	.LLST153:
 14232 2093 62010000 		.4byte	.LVL268
 14233 2097 70010000 		.4byte	.LVL271
 14234 209b 0200     		.2byte	0x2
 14235 209d 30       		.byte	0x30
ARM GAS  C:\Users\rdn\AppData\Local\Temp\ccIOjLNc.s 			page 278


 14236 209e 9F       		.byte	0x9f
 14237 209f 00000000 		.4byte	0
 14238 20a3 00000000 		.4byte	0
 14239              	.LLST154:
 14240 20a7 6C010000 		.4byte	.LVL270
 14241 20ab 70010000 		.4byte	.LVL271
 14242 20af 0200     		.2byte	0x2
 14243 20b1 31       		.byte	0x31
 14244 20b2 9F       		.byte	0x9f
 14245 20b3 70010000 		.4byte	.LVL271
 14246 20b7 9C010000 		.4byte	.LVL276
 14247 20bb 0100     		.2byte	0x1
 14248 20bd 52       		.byte	0x52
 14249 20be CE010000 		.4byte	.LVL282
 14250 20c2 D2010000 		.4byte	.LVL283
 14251 20c6 0100     		.2byte	0x1
 14252 20c8 52       		.byte	0x52
 14253 20c9 00000000 		.4byte	0
 14254 20cd 00000000 		.4byte	0
 14255              	.LLST155:
 14256 20d1 50020000 		.4byte	.LVL293
 14257 20d5 90030000 		.4byte	.LVL331
 14258 20d9 0600     		.2byte	0x6
 14259 20db F2       		.byte	0xf2
 14260 20dc 29150000 		.4byte	.Ldebug_info0+5417
 14261 20e0 00       		.sleb128 0
 14262 20e1 00000000 		.4byte	0
 14263 20e5 00000000 		.4byte	0
 14264              	.LLST156:
 14265 20e9 50020000 		.4byte	.LVL293
 14266 20ed 52020000 		.4byte	.LVL294
 14267 20f1 0300     		.2byte	0x3
 14268 20f3 75       		.byte	0x75
 14269 20f4 11       		.sleb128 17
 14270 20f5 9F       		.byte	0x9f
 14271 20f6 52020000 		.4byte	.LVL294
 14272 20fa 7E020000 		.4byte	.LVL301
 14273 20fe 0700     		.2byte	0x7
 14274 2100 76       		.byte	0x76
 14275 2101 8409     		.sleb128 1156
 14276 2103 06       		.byte	0x6
 14277 2104 23       		.byte	0x23
 14278 2105 11       		.uleb128 0x11
 14279 2106 9F       		.byte	0x9f
 14280 2107 00000000 		.4byte	0
 14281 210b 00000000 		.4byte	0
 14282              	.LLST157:
 14283 210f 50020000 		.4byte	.LVL293
 14284 2113 90030000 		.4byte	.LVL331
 14285 2117 0100     		.2byte	0x1
 14286 2119 57       		.byte	0x57
 14287 211a 00000000 		.4byte	0
 14288 211e 00000000 		.4byte	0
 14289              	.LLST158:
 14290 2122 50020000 		.4byte	.LVL293
 14291 2126 90030000 		.4byte	.LVL331
 14292 212a 0100     		.2byte	0x1
ARM GAS  C:\Users\rdn\AppData\Local\Temp\ccIOjLNc.s 			page 279


 14293 212c 58       		.byte	0x58
 14294 212d 00000000 		.4byte	0
 14295 2131 00000000 		.4byte	0
 14296              	.LLST159:
 14297 2135 9C020000 		.4byte	.LVL306
 14298 2139 D3020000 		.4byte	.LVL314-1
 14299 213d 0200     		.2byte	0x2
 14300 213f 90       		.byte	0x90
 14301 2140 4F       		.uleb128 0x4f
 14302 2141 00000000 		.4byte	0
 14303 2145 00000000 		.4byte	0
 14304              	.LLST160:
 14305 2149 C0020000 		.4byte	.LVL310
 14306 214d C4020000 		.4byte	.LVL312
 14307 2151 0600     		.2byte	0x6
 14308 2153 74       		.byte	0x74
 14309 2154 00       		.sleb128 0
 14310 2155 7A       		.byte	0x7a
 14311 2156 00       		.sleb128 0
 14312 2157 22       		.byte	0x22
 14313 2158 9F       		.byte	0x9f
 14314 2159 C4020000 		.4byte	.LVL312
 14315 215d 56030000 		.4byte	.LVL327
 14316 2161 0100     		.2byte	0x1
 14317 2163 54       		.byte	0x54
 14318 2164 80030000 		.4byte	.LVL328
 14319 2168 8A030000 		.4byte	.LVL330
 14320 216c 0100     		.2byte	0x1
 14321 216e 54       		.byte	0x54
 14322 216f 00000000 		.4byte	0
 14323 2173 00000000 		.4byte	0
 14324              	.LLST161:
 14325 2177 CC020000 		.4byte	.LVL313
 14326 217b DE020000 		.4byte	.LVL316
 14327 217f 0200     		.2byte	0x2
 14328 2181 30       		.byte	0x30
 14329 2182 9F       		.byte	0x9f
 14330 2183 4A030000 		.4byte	.LVL325
 14331 2187 86030000 		.4byte	.LVL329
 14332 218b 0100     		.2byte	0x1
 14333 218d 53       		.byte	0x53
 14334 218e 00000000 		.4byte	0
 14335 2192 00000000 		.4byte	0
 14336              	.LLST162:
 14337 2196 5C020000 		.4byte	.LVL296
 14338 219a C4020000 		.4byte	.LVL312
 14339 219e 0100     		.2byte	0x1
 14340 21a0 54       		.byte	0x54
 14341 21a1 00000000 		.4byte	0
 14342 21a5 00000000 		.4byte	0
 14343              	.LLST163:
 14344 21a9 6A020000 		.4byte	.LVL297
 14345 21ad DE020000 		.4byte	.LVL316
 14346 21b1 0300     		.2byte	0x3
 14347 21b3 75       		.byte	0x75
 14348 21b4 01       		.sleb128 1
 14349 21b5 9F       		.byte	0x9f
ARM GAS  C:\Users\rdn\AppData\Local\Temp\ccIOjLNc.s 			page 280


 14350 21b6 00000000 		.4byte	0
 14351 21ba 00000000 		.4byte	0
 14352              	.LLST164:
 14353 21be CC020000 		.4byte	.LVL313
 14354 21c2 90030000 		.4byte	.LVL331
 14355 21c6 0100     		.2byte	0x1
 14356 21c8 5A       		.byte	0x5a
 14357 21c9 00000000 		.4byte	0
 14358 21cd 00000000 		.4byte	0
 14359              	.LLST165:
 14360 21d1 DC020000 		.4byte	.LVL315
 14361 21d5 DE020000 		.4byte	.LVL316
 14362 21d9 0200     		.2byte	0x2
 14363 21db 90       		.byte	0x90
 14364 21dc 40       		.uleb128 0x40
 14365 21dd DE020000 		.4byte	.LVL316
 14366 21e1 FF020000 		.4byte	.LVL318-1
 14367 21e5 0200     		.2byte	0x2
 14368 21e7 90       		.byte	0x90
 14369 21e8 4C       		.uleb128 0x4c
 14370 21e9 12030000 		.4byte	.LVL319
 14371 21ed 23030000 		.4byte	.LVL321-1
 14372 21f1 0200     		.2byte	0x2
 14373 21f3 90       		.byte	0x90
 14374 21f4 4C       		.uleb128 0x4c
 14375 21f5 36030000 		.4byte	.LVL322
 14376 21f9 90030000 		.4byte	.LVL331
 14377 21fd 0200     		.2byte	0x2
 14378 21ff 90       		.byte	0x90
 14379 2200 4C       		.uleb128 0x4c
 14380 2201 00000000 		.4byte	0
 14381 2205 00000000 		.4byte	0
 14382              	.LLST166:
 14383 2209 78020000 		.4byte	.LVL299
 14384 220d 7C020000 		.4byte	.LVL300
 14385 2211 0100     		.2byte	0x1
 14386 2213 5B       		.byte	0x5b
 14387 2214 7C020000 		.4byte	.LVL300
 14388 2218 98020000 		.4byte	.LVL305
 14389 221c 0300     		.2byte	0x3
 14390 221e 75       		.byte	0x75
 14391 221f 09       		.sleb128 9
 14392 2220 9F       		.byte	0x9f
 14393 2221 00000000 		.4byte	0
 14394 2225 00000000 		.4byte	0
 14395              	.LLST167:
 14396 2229 78020000 		.4byte	.LVL299
 14397 222d 7E020000 		.4byte	.LVL301
 14398 2231 0100     		.2byte	0x1
 14399 2233 53       		.byte	0x53
 14400 2234 7E020000 		.4byte	.LVL301
 14401 2238 94020000 		.4byte	.LVL304
 14402 223c 0100     		.2byte	0x1
 14403 223e 5A       		.byte	0x5a
 14404 223f 94020000 		.4byte	.LVL304
 14405 2243 98020000 		.4byte	.LVL305
 14406 2247 0300     		.2byte	0x3
ARM GAS  C:\Users\rdn\AppData\Local\Temp\ccIOjLNc.s 			page 281


 14407 2249 7A       		.byte	0x7a
 14408 224a 7C       		.sleb128 -4
 14409 224b 9F       		.byte	0x9f
 14410 224c 00000000 		.4byte	0
 14411 2250 00000000 		.4byte	0
 14412              	.LLST168:
 14413 2254 78020000 		.4byte	.LVL299
 14414 2258 98020000 		.4byte	.LVL305
 14415 225c 0100     		.2byte	0x1
 14416 225e 57       		.byte	0x57
 14417 225f 00000000 		.4byte	0
 14418 2263 00000000 		.4byte	0
 14419              	.LLST169:
 14420 2267 78020000 		.4byte	.LVL299
 14421 226b 8A020000 		.4byte	.LVL302
 14422 226f 0100     		.2byte	0x1
 14423 2271 51       		.byte	0x51
 14424 2272 8A020000 		.4byte	.LVL302
 14425 2276 8D020000 		.4byte	.LVL303-1
 14426 227a 0100     		.2byte	0x1
 14427 227c 53       		.byte	0x53
 14428 227d 8D020000 		.4byte	.LVL303-1
 14429 2281 98020000 		.4byte	.LVL305
 14430 2285 0300     		.2byte	0x3
 14431 2287 91       		.byte	0x91
 14432 2288 B87A     		.sleb128 -712
 14433 228a 00000000 		.4byte	0
 14434 228e 00000000 		.4byte	0
 14435              	.LLST170:
 14436 2292 78020000 		.4byte	.LVL299
 14437 2296 98020000 		.4byte	.LVL305
 14438 229a 0100     		.2byte	0x1
 14439 229c 58       		.byte	0x58
 14440 229d 00000000 		.4byte	0
 14441 22a1 00000000 		.4byte	0
 14442              	.LLST171:
 14443 22a5 7C020000 		.4byte	.LVL300
 14444 22a9 98020000 		.4byte	.LVL305
 14445 22ad 0100     		.2byte	0x1
 14446 22af 5B       		.byte	0x5b
 14447 22b0 00000000 		.4byte	0
 14448 22b4 00000000 		.4byte	0
 14449              	.LLST172:
 14450 22b8 98020000 		.4byte	.LVL305
 14451 22bc C0020000 		.4byte	.LVL310
 14452 22c0 0600     		.2byte	0x6
 14453 22c2 F2       		.byte	0xf2
 14454 22c3 9E180000 		.4byte	.Ldebug_info0+6302
 14455 22c7 00       		.sleb128 0
 14456 22c8 00000000 		.4byte	0
 14457 22cc 00000000 		.4byte	0
 14458              	.LLST173:
 14459 22d0 98020000 		.4byte	.LVL305
 14460 22d4 C0020000 		.4byte	.LVL310
 14461 22d8 0300     		.2byte	0x3
 14462 22da 75       		.byte	0x75
 14463 22db 01       		.sleb128 1
ARM GAS  C:\Users\rdn\AppData\Local\Temp\ccIOjLNc.s 			page 282


 14464 22dc 9F       		.byte	0x9f
 14465 22dd 00000000 		.4byte	0
 14466 22e1 00000000 		.4byte	0
 14467              	.LLST174:
 14468 22e5 98020000 		.4byte	.LVL305
 14469 22e9 C0020000 		.4byte	.LVL310
 14470 22ed 0400     		.2byte	0x4
 14471 22ef 91       		.byte	0x91
 14472 22f0 D07C     		.sleb128 -432
 14473 22f2 9F       		.byte	0x9f
 14474 22f3 00000000 		.4byte	0
 14475 22f7 00000000 		.4byte	0
 14476              	.LLST175:
 14477 22fb 98020000 		.4byte	.LVL305
 14478 22ff A4020000 		.4byte	.LVL307
 14479 2303 0200     		.2byte	0x2
 14480 2305 30       		.byte	0x30
 14481 2306 9F       		.byte	0x9f
 14482 2307 00000000 		.4byte	0
 14483 230b 00000000 		.4byte	0
 14484              	.LLST176:
 14485 230f 9C020000 		.4byte	.LVL306
 14486 2313 A4020000 		.4byte	.LVL307
 14487 2317 0200     		.2byte	0x2
 14488 2319 31       		.byte	0x31
 14489 231a 9F       		.byte	0x9f
 14490 231b A4020000 		.4byte	.LVL307
 14491 231f C2020000 		.4byte	.LVL311
 14492 2323 0100     		.2byte	0x1
 14493 2325 53       		.byte	0x53
 14494 2326 00000000 		.4byte	0
 14495 232a 00000000 		.4byte	0
 14496              	.LLST177:
 14497 232e DC020000 		.4byte	.LVL315
 14498 2332 DE020000 		.4byte	.LVL316
 14499 2336 0200     		.2byte	0x2
 14500 2338 31       		.byte	0x31
 14501 2339 9F       		.byte	0x9f
 14502 233a E4020000 		.4byte	.LVL317
 14503 233e FF020000 		.4byte	.LVL318-1
 14504 2342 0100     		.2byte	0x1
 14505 2344 53       		.byte	0x53
 14506 2345 FF020000 		.4byte	.LVL318-1
 14507 2349 16030000 		.4byte	.LVL320
 14508 234d 0300     		.2byte	0x3
 14509 234f 91       		.byte	0x91
 14510 2350 B87A     		.sleb128 -712
 14511 2352 16030000 		.4byte	.LVL320
 14512 2356 23030000 		.4byte	.LVL321-1
 14513 235a 0100     		.2byte	0x1
 14514 235c 53       		.byte	0x53
 14515 235d 23030000 		.4byte	.LVL321-1
 14516 2361 36030000 		.4byte	.LVL322
 14517 2365 0300     		.2byte	0x3
 14518 2367 91       		.byte	0x91
 14519 2368 B87A     		.sleb128 -712
 14520 236a 36030000 		.4byte	.LVL322
ARM GAS  C:\Users\rdn\AppData\Local\Temp\ccIOjLNc.s 			page 283


 14521 236e 46030000 		.4byte	.LVL324
 14522 2372 0300     		.2byte	0x3
 14523 2374 73       		.byte	0x73
 14524 2375 02       		.sleb128 2
 14525 2376 9F       		.byte	0x9f
 14526 2377 46030000 		.4byte	.LVL324
 14527 237b EE030000 		.4byte	.LVL339
 14528 237f 0300     		.2byte	0x3
 14529 2381 7B       		.byte	0x7b
 14530 2382 02       		.sleb128 2
 14531 2383 9F       		.byte	0x9f
 14532 2384 00000000 		.4byte	0
 14533 2388 00000000 		.4byte	0
 14534              	.LLST178:
 14535 238c 00030000 		.4byte	.LVL318
 14536 2390 23030000 		.4byte	.LVL321-1
 14537 2394 0200     		.2byte	0x2
 14538 2396 90       		.byte	0x90
 14539 2397 40       		.uleb128 0x40
 14540 2398 24030000 		.4byte	.LVL321
 14541 239c 36030000 		.4byte	.LVL322
 14542 23a0 0200     		.2byte	0x2
 14543 23a2 90       		.byte	0x90
 14544 23a3 40       		.uleb128 0x40
 14545 23a4 00000000 		.4byte	0
 14546 23a8 00000000 		.4byte	0
 14547              	.LLST179:
 14548 23ac 00040000 		.4byte	.LVL342
 14549 23b0 50040000 		.4byte	.LVL345
 14550 23b4 1C00     		.2byte	0x1c
 14551 23b6 72       		.byte	0x72
 14552 23b7 00       		.sleb128 0
 14553 23b8 12       		.byte	0x12
 14554 23b9 75       		.byte	0x75
 14555 23ba 00       		.sleb128 0
 14556 23bb 16       		.byte	0x16
 14557 23bc 14       		.byte	0x14
 14558 23bd 2B       		.byte	0x2b
 14559 23be 28       		.byte	0x28
 14560 23bf 0100     		.2byte	0x1
 14561 23c1 16       		.byte	0x16
 14562 23c2 13       		.byte	0x13
 14563 23c3 72       		.byte	0x72
 14564 23c4 00       		.sleb128 0
 14565 23c5 12       		.byte	0x12
 14566 23c6 75       		.byte	0x75
 14567 23c7 00       		.sleb128 0
 14568 23c8 16       		.byte	0x16
 14569 23c9 14       		.byte	0x14
 14570 23ca 2D       		.byte	0x2d
 14571 23cb 28       		.byte	0x28
 14572 23cc 0100     		.2byte	0x1
 14573 23ce 16       		.byte	0x16
 14574 23cf 13       		.byte	0x13
 14575 23d0 1C       		.byte	0x1c
 14576 23d1 9F       		.byte	0x9f
 14577 23d2 00000000 		.4byte	0
ARM GAS  C:\Users\rdn\AppData\Local\Temp\ccIOjLNc.s 			page 284


 14578 23d6 00000000 		.4byte	0
 14579              	.LLST180:
 14580 23da 00040000 		.4byte	.LVL342
 14581 23de 42040000 		.4byte	.LVL343
 14582 23e2 0800     		.2byte	0x8
 14583 23e4 F5       		.byte	0xf5
 14584 23e5 4F       		.uleb128 0x4f
 14585 23e6 25       		.uleb128 0x25
 14586 23e7 F5       		.byte	0xf5
 14587 23e8 4E       		.uleb128 0x4e
 14588 23e9 25       		.uleb128 0x25
 14589 23ea 1C       		.byte	0x1c
 14590 23eb 9F       		.byte	0x9f
 14591 23ec 42040000 		.4byte	.LVL343
 14592 23f0 4C040000 		.4byte	.LVL344
 14593 23f4 0200     		.2byte	0x2
 14594 23f6 90       		.byte	0x90
 14595 23f7 4D       		.uleb128 0x4d
 14596 23f8 4C040000 		.4byte	.LVL344
 14597 23fc 50040000 		.4byte	.LVL345
 14598 2400 0800     		.2byte	0x8
 14599 2402 F5       		.byte	0xf5
 14600 2403 4F       		.uleb128 0x4f
 14601 2404 25       		.uleb128 0x25
 14602 2405 F5       		.byte	0xf5
 14603 2406 4E       		.uleb128 0x4e
 14604 2407 25       		.uleb128 0x25
 14605 2408 1C       		.byte	0x1c
 14606 2409 9F       		.byte	0x9f
 14607 240a 00000000 		.4byte	0
 14608 240e 00000000 		.4byte	0
 14609              	.LLST181:
 14610 2412 00000000 		.4byte	.LVL347
 14611 2416 F2000000 		.4byte	.LVL372
 14612 241a 0100     		.2byte	0x1
 14613 241c 50       		.byte	0x50
 14614 241d F2000000 		.4byte	.LVL372
 14615 2421 DC020000 		.4byte	.LFE44
 14616 2425 0400     		.2byte	0x4
 14617 2427 F3       		.byte	0xf3
 14618 2428 01       		.uleb128 0x1
 14619 2429 50       		.byte	0x50
 14620 242a 9F       		.byte	0x9f
 14621 242b 00000000 		.4byte	0
 14622 242f 00000000 		.4byte	0
 14623              	.LLST182:
 14624 2433 00000000 		.4byte	.LVL347
 14625 2437 0E000000 		.4byte	.LVL349
 14626 243b 0100     		.2byte	0x1
 14627 243d 51       		.byte	0x51
 14628 243e 0E000000 		.4byte	.LVL349
 14629 2442 DC020000 		.4byte	.LFE44
 14630 2446 0400     		.2byte	0x4
 14631 2448 F3       		.byte	0xf3
 14632 2449 01       		.uleb128 0x1
 14633 244a 51       		.byte	0x51
 14634 244b 9F       		.byte	0x9f
ARM GAS  C:\Users\rdn\AppData\Local\Temp\ccIOjLNc.s 			page 285


 14635 244c 00000000 		.4byte	0
 14636 2450 00000000 		.4byte	0
 14637              	.LLST183:
 14638 2454 00000000 		.4byte	.LVL347
 14639 2458 7C000000 		.4byte	.LVL362
 14640 245c 0100     		.2byte	0x1
 14641 245e 52       		.byte	0x52
 14642 245f 7C000000 		.4byte	.LVL362
 14643 2463 DC020000 		.4byte	.LFE44
 14644 2467 0400     		.2byte	0x4
 14645 2469 F3       		.byte	0xf3
 14646 246a 01       		.uleb128 0x1
 14647 246b 52       		.byte	0x52
 14648 246c 9F       		.byte	0x9f
 14649 246d 00000000 		.4byte	0
 14650 2471 00000000 		.4byte	0
 14651              	.LLST184:
 14652 2475 00000000 		.4byte	.LVL347
 14653 2479 08000000 		.4byte	.LVL348
 14654 247d 0100     		.2byte	0x1
 14655 247f 53       		.byte	0x53
 14656 2480 08000000 		.4byte	.LVL348
 14657 2484 B6020000 		.4byte	.LVL387
 14658 2488 0100     		.2byte	0x1
 14659 248a 59       		.byte	0x59
 14660 248b B6020000 		.4byte	.LVL387
 14661 248f DC020000 		.4byte	.LFE44
 14662 2493 0800     		.2byte	0x8
 14663 2495 7D       		.byte	0x7d
 14664 2496 D47C     		.sleb128 -428
 14665 2498 06       		.byte	0x6
 14666 2499 08       		.byte	0x8
 14667 249a 68       		.byte	0x68
 14668 249b 1C       		.byte	0x1c
 14669 249c 9F       		.byte	0x9f
 14670 249d 00000000 		.4byte	0
 14671 24a1 00000000 		.4byte	0
 14672              	.LLST185:
 14673 24a5 00000000 		.4byte	.LVL347
 14674 24a9 B6020000 		.4byte	.LVL387
 14675 24ad 0200     		.2byte	0x2
 14676 24af 91       		.byte	0x91
 14677 24b0 00       		.sleb128 0
 14678 24b1 B6020000 		.4byte	.LVL387
 14679 24b5 DC020000 		.4byte	.LFE44
 14680 24b9 0200     		.2byte	0x2
 14681 24bb 7D       		.byte	0x7d
 14682 24bc 00       		.sleb128 0
 14683 24bd 00000000 		.4byte	0
 14684 24c1 00000000 		.4byte	0
 14685              	.LLST186:
 14686 24c5 00000000 		.4byte	.LVL347
 14687 24c9 B6020000 		.4byte	.LVL387
 14688 24cd 0200     		.2byte	0x2
 14689 24cf 91       		.byte	0x91
 14690 24d0 04       		.sleb128 4
 14691 24d1 B6020000 		.4byte	.LVL387
ARM GAS  C:\Users\rdn\AppData\Local\Temp\ccIOjLNc.s 			page 286


 14692 24d5 DC020000 		.4byte	.LFE44
 14693 24d9 0200     		.2byte	0x2
 14694 24db 7D       		.byte	0x7d
 14695 24dc 04       		.sleb128 4
 14696 24dd 00000000 		.4byte	0
 14697 24e1 00000000 		.4byte	0
 14698              	.LLST187:
 14699 24e5 00000000 		.4byte	.LVL347
 14700 24e9 B6020000 		.4byte	.LVL387
 14701 24ed 0200     		.2byte	0x2
 14702 24ef 91       		.byte	0x91
 14703 24f0 08       		.sleb128 8
 14704 24f1 B6020000 		.4byte	.LVL387
 14705 24f5 DC020000 		.4byte	.LFE44
 14706 24f9 0200     		.2byte	0x2
 14707 24fb 7D       		.byte	0x7d
 14708 24fc 08       		.sleb128 8
 14709 24fd 00000000 		.4byte	0
 14710 2501 00000000 		.4byte	0
 14711              	.LLST188:
 14712 2505 34000000 		.4byte	.LVL352
 14713 2509 B6020000 		.4byte	.LVL387
 14714 250d 0100     		.2byte	0x1
 14715 250f 56       		.byte	0x56
 14716 2510 00000000 		.4byte	0
 14717 2514 00000000 		.4byte	0
 14718              	.LLST189:
 14719 2518 38000000 		.4byte	.LVL353
 14720 251c 44000000 		.4byte	.LVL354
 14721 2520 0100     		.2byte	0x1
 14722 2522 53       		.byte	0x53
 14723 2523 44000000 		.4byte	.LVL354
 14724 2527 48000000 		.4byte	.LVL355
 14725 252b 0200     		.2byte	0x2
 14726 252d 74       		.byte	0x74
 14727 252e 04       		.sleb128 4
 14728 252f 48000000 		.4byte	.LVL355
 14729 2533 54000000 		.4byte	.LVL356
 14730 2537 0100     		.2byte	0x1
 14731 2539 53       		.byte	0x53
 14732 253a 54000000 		.4byte	.LVL356
 14733 253e 62000000 		.4byte	.LVL357
 14734 2542 0200     		.2byte	0x2
 14735 2544 74       		.byte	0x74
 14736 2545 04       		.sleb128 4
 14737 2546 64000000 		.4byte	.LVL358
 14738 254a 70000000 		.4byte	.LVL359
 14739 254e 0100     		.2byte	0x1
 14740 2550 53       		.byte	0x53
 14741 2551 00000000 		.4byte	0
 14742 2555 00000000 		.4byte	0
 14743              	.LLST190:
 14744 2559 72000000 		.4byte	.LVL360
 14745 255d 76000000 		.4byte	.LVL361
 14746 2561 0100     		.2byte	0x1
 14747 2563 53       		.byte	0x53
 14748 2564 88000000 		.4byte	.LVL363
ARM GAS  C:\Users\rdn\AppData\Local\Temp\ccIOjLNc.s 			page 287


 14749 2568 AA000000 		.4byte	.LVL367
 14750 256c 0100     		.2byte	0x1
 14751 256e 53       		.byte	0x53
 14752 256f AA000000 		.4byte	.LVL367
 14753 2573 B6020000 		.4byte	.LVL387
 14754 2577 0300     		.2byte	0x3
 14755 2579 91       		.byte	0x91
 14756 257a C87C     		.sleb128 -440
 14757 257c B6020000 		.4byte	.LVL387
 14758 2580 DC020000 		.4byte	.LFE44
 14759 2584 0300     		.2byte	0x3
 14760 2586 7D       		.byte	0x7d
 14761 2587 C87C     		.sleb128 -440
 14762 2589 00000000 		.4byte	0
 14763 258d 00000000 		.4byte	0
 14764              	.LLST191:
 14765 2591 88000000 		.4byte	.LVL363
 14766 2595 92000000 		.4byte	.LVL364
 14767 2599 0100     		.2byte	0x1
 14768 259b 52       		.byte	0x52
 14769 259c 92000000 		.4byte	.LVL364
 14770 25a0 9C000000 		.4byte	.LVL365
 14771 25a4 0900     		.2byte	0x9
 14772 25a6 F3       		.byte	0xf3
 14773 25a7 01       		.uleb128 0x1
 14774 25a8 52       		.byte	0x52
 14775 25a9 35       		.byte	0x35
 14776 25aa 24       		.byte	0x24
 14777 25ab 75       		.byte	0x75
 14778 25ac 00       		.sleb128 0
 14779 25ad 1B       		.byte	0x1b
 14780 25ae 9F       		.byte	0x9f
 14781 25af 9C000000 		.4byte	.LVL365
 14782 25b3 AE000000 		.4byte	.LVL368
 14783 25b7 0100     		.2byte	0x1
 14784 25b9 52       		.byte	0x52
 14785 25ba 00000000 		.4byte	0
 14786 25be 00000000 		.4byte	0
 14787              	.LLST192:
 14788 25c2 BA000000 		.4byte	.LVL369
 14789 25c6 81010000 		.4byte	.LVL378-1
 14790 25ca 0100     		.2byte	0x1
 14791 25cc 5C       		.byte	0x5c
 14792 25cd 00000000 		.4byte	0
 14793 25d1 00000000 		.4byte	0
 14794              	.LLST193:
 14795 25d5 D0000000 		.4byte	.LVL370
 14796 25d9 B6020000 		.4byte	.LVL387
 14797 25dd 0300     		.2byte	0x3
 14798 25df 91       		.byte	0x91
 14799 25e0 D07C     		.sleb128 -432
 14800 25e2 B6020000 		.4byte	.LVL387
 14801 25e6 DC020000 		.4byte	.LFE44
 14802 25ea 0300     		.2byte	0x3
 14803 25ec 7D       		.byte	0x7d
 14804 25ed D07C     		.sleb128 -432
 14805 25ef 00000000 		.4byte	0
ARM GAS  C:\Users\rdn\AppData\Local\Temp\ccIOjLNc.s 			page 288


 14806 25f3 00000000 		.4byte	0
 14807              	.LLST194:
 14808 25f7 70010000 		.4byte	.LVL377
 14809 25fb 80020000 		.4byte	.LVL384
 14810 25ff 0100     		.2byte	0x1
 14811 2601 55       		.byte	0x55
 14812 2602 00000000 		.4byte	0
 14813 2606 00000000 		.4byte	0
 14814              	.LLST195:
 14815 260a 00000000 		.4byte	.LVL347
 14816 260e 0E000000 		.4byte	.LVL349
 14817 2612 0100     		.2byte	0x1
 14818 2614 51       		.byte	0x51
 14819 2615 0E000000 		.4byte	.LVL349
 14820 2619 20000000 		.4byte	.LVL350
 14821 261d 0400     		.2byte	0x4
 14822 261f F3       		.byte	0xf3
 14823 2620 01       		.uleb128 0x1
 14824 2621 51       		.byte	0x51
 14825 2622 9F       		.byte	0x9f
 14826 2623 00000000 		.4byte	0
 14827 2627 00000000 		.4byte	0
 14828              	.LLST196:
 14829 262b 00000000 		.4byte	.LVL347
 14830 262f 20000000 		.4byte	.LVL350
 14831 2633 0100     		.2byte	0x1
 14832 2635 50       		.byte	0x50
 14833 2636 00000000 		.4byte	0
 14834 263a 00000000 		.4byte	0
 14835              	.LLST197:
 14836 263e 20000000 		.4byte	.LVL350
 14837 2642 30000000 		.4byte	.LVL351
 14838 2646 0100     		.2byte	0x1
 14839 2648 58       		.byte	0x58
 14840 2649 00000000 		.4byte	0
 14841 264d 00000000 		.4byte	0
 14842              	.LLST198:
 14843 2651 20000000 		.4byte	.LVL350
 14844 2655 30000000 		.4byte	.LVL351
 14845 2659 0100     		.2byte	0x1
 14846 265b 50       		.byte	0x50
 14847 265c 00000000 		.4byte	0
 14848 2660 00000000 		.4byte	0
 14849              	.LLST199:
 14850 2664 D0000000 		.4byte	.LVL370
 14851 2668 28010000 		.4byte	.LVL374
 14852 266c 0200     		.2byte	0x2
 14853 266e 30       		.byte	0x30
 14854 266f 9F       		.byte	0x9f
 14855 2670 00000000 		.4byte	0
 14856 2674 00000000 		.4byte	0
 14857              	.LLST200:
 14858 2678 44010000 		.4byte	.LVL375
 14859 267c 52010000 		.4byte	.LVL376
 14860 2680 0200     		.2byte	0x2
 14861 2682 90       		.byte	0x90
 14862 2683 4F       		.uleb128 0x4f
ARM GAS  C:\Users\rdn\AppData\Local\Temp\ccIOjLNc.s 			page 289


 14863 2684 00000000 		.4byte	0
 14864 2688 00000000 		.4byte	0
 14865              	.LLST201:
 14866 268c 00000000 		.4byte	.LVL389
 14867 2690 04000000 		.4byte	.LVL390
 14868 2694 0100     		.2byte	0x1
 14869 2696 50       		.byte	0x50
 14870 2697 04000000 		.4byte	.LVL390
 14871 269b 08000000 		.4byte	.LFE46
 14872 269f 0400     		.2byte	0x4
 14873 26a1 F3       		.byte	0xf3
 14874 26a2 01       		.uleb128 0x1
 14875 26a3 50       		.byte	0x50
 14876 26a4 9F       		.byte	0x9f
 14877 26a5 00000000 		.4byte	0
 14878 26a9 00000000 		.4byte	0
 14879              	.LLST202:
 14880 26ad 00000000 		.4byte	.LVL391
 14881 26b1 21000000 		.4byte	.LVL396-1
 14882 26b5 0100     		.2byte	0x1
 14883 26b7 50       		.byte	0x50
 14884 26b8 21000000 		.4byte	.LVL396-1
 14885 26bc 42000000 		.4byte	.LVL400
 14886 26c0 0100     		.2byte	0x1
 14887 26c2 54       		.byte	0x54
 14888 26c3 42000000 		.4byte	.LVL400
 14889 26c7 45000000 		.4byte	.LVL401-1
 14890 26cb 0100     		.2byte	0x1
 14891 26cd 50       		.byte	0x50
 14892 26ce 45000000 		.4byte	.LVL401-1
 14893 26d2 46000000 		.4byte	.LFE47
 14894 26d6 0400     		.2byte	0x4
 14895 26d8 F3       		.byte	0xf3
 14896 26d9 01       		.uleb128 0x1
 14897 26da 50       		.byte	0x50
 14898 26db 9F       		.byte	0x9f
 14899 26dc 00000000 		.4byte	0
 14900 26e0 00000000 		.4byte	0
 14901              	.LLST203:
 14902 26e4 00000000 		.4byte	.LVL391
 14903 26e8 0E000000 		.4byte	.LVL392
 14904 26ec 0100     		.2byte	0x1
 14905 26ee 51       		.byte	0x51
 14906 26ef 0E000000 		.4byte	.LVL392
 14907 26f3 42000000 		.4byte	.LVL400
 14908 26f7 0100     		.2byte	0x1
 14909 26f9 55       		.byte	0x55
 14910 26fa 42000000 		.4byte	.LVL400
 14911 26fe 46000000 		.4byte	.LFE47
 14912 2702 0400     		.2byte	0x4
 14913 2704 F3       		.byte	0xf3
 14914 2705 01       		.uleb128 0x1
 14915 2706 51       		.byte	0x51
 14916 2707 9F       		.byte	0x9f
 14917 2708 00000000 		.4byte	0
 14918 270c 00000000 		.4byte	0
 14919              	.LLST204:
ARM GAS  C:\Users\rdn\AppData\Local\Temp\ccIOjLNc.s 			page 290


 14920 2710 00000000 		.4byte	.LVL391
 14921 2714 0E000000 		.4byte	.LVL392
 14922 2718 0800     		.2byte	0x8
 14923 271a 71       		.byte	0x71
 14924 271b 00       		.sleb128 0
 14925 271c 94       		.byte	0x94
 14926 271d 01       		.byte	0x1
 14927 271e 08       		.byte	0x8
 14928 271f FF       		.byte	0xff
 14929 2720 1A       		.byte	0x1a
 14930 2721 9F       		.byte	0x9f
 14931 2722 0E000000 		.4byte	.LVL392
 14932 2726 16000000 		.4byte	.LVL394
 14933 272a 0800     		.2byte	0x8
 14934 272c 75       		.byte	0x75
 14935 272d 00       		.sleb128 0
 14936 272e 94       		.byte	0x94
 14937 272f 01       		.byte	0x1
 14938 2730 08       		.byte	0x8
 14939 2731 FF       		.byte	0xff
 14940 2732 1A       		.byte	0x1a
 14941 2733 9F       		.byte	0x9f
 14942 2734 1C000000 		.4byte	.LVL395
 14943 2738 21000000 		.4byte	.LVL396-1
 14944 273c 0800     		.2byte	0x8
 14945 273e 75       		.byte	0x75
 14946 273f 00       		.sleb128 0
 14947 2740 94       		.byte	0x94
 14948 2741 01       		.byte	0x1
 14949 2742 08       		.byte	0x8
 14950 2743 FF       		.byte	0xff
 14951 2744 1A       		.byte	0x1a
 14952 2745 9F       		.byte	0x9f
 14953 2746 00000000 		.4byte	0
 14954 274a 00000000 		.4byte	0
 14955              	.LLST205:
 14956 274e 00000000 		.4byte	.LVL391
 14957 2752 21000000 		.4byte	.LVL396-1
 14958 2756 0100     		.2byte	0x1
 14959 2758 50       		.byte	0x50
 14960 2759 21000000 		.4byte	.LVL396-1
 14961 275d 22000000 		.4byte	.LVL396
 14962 2761 0100     		.2byte	0x1
 14963 2763 54       		.byte	0x54
 14964 2764 00000000 		.4byte	0
 14965 2768 00000000 		.4byte	0
 14966              	.LLST206:
 14967 276c 0E000000 		.4byte	.LVL392
 14968 2770 22000000 		.4byte	.LVL396
 14969 2774 0200     		.2byte	0x2
 14970 2776 31       		.byte	0x31
 14971 2777 9F       		.byte	0x9f
 14972 2778 00000000 		.4byte	0
 14973 277c 00000000 		.4byte	0
 14974              	.LLST207:
 14975 2780 0E000000 		.4byte	.LVL392
 14976 2784 12000000 		.4byte	.LVL393
ARM GAS  C:\Users\rdn\AppData\Local\Temp\ccIOjLNc.s 			page 291


 14977 2788 0100     		.2byte	0x1
 14978 278a 51       		.byte	0x51
 14979 278b 12000000 		.4byte	.LVL393
 14980 278f 1C000000 		.4byte	.LVL395
 14981 2793 0800     		.2byte	0x8
 14982 2795 75       		.byte	0x75
 14983 2796 00       		.sleb128 0
 14984 2797 94       		.byte	0x94
 14985 2798 01       		.byte	0x1
 14986 2799 08       		.byte	0x8
 14987 279a FF       		.byte	0xff
 14988 279b 1A       		.byte	0x1a
 14989 279c 9F       		.byte	0x9f
 14990 279d 1C000000 		.4byte	.LVL395
 14991 27a1 21000000 		.4byte	.LVL396-1
 14992 27a5 0100     		.2byte	0x1
 14993 27a7 51       		.byte	0x51
 14994 27a8 00000000 		.4byte	0
 14995 27ac 00000000 		.4byte	0
 14996              	.LLST208:
 14997 27b0 0E000000 		.4byte	.LVL392
 14998 27b4 21000000 		.4byte	.LVL396-1
 14999 27b8 0100     		.2byte	0x1
 15000 27ba 50       		.byte	0x50
 15001 27bb 21000000 		.4byte	.LVL396-1
 15002 27bf 22000000 		.4byte	.LVL396
 15003 27c3 0100     		.2byte	0x1
 15004 27c5 54       		.byte	0x54
 15005 27c6 00000000 		.4byte	0
 15006 27ca 00000000 		.4byte	0
 15007              	.LLST209:
 15008 27ce 0E000000 		.4byte	.LVL392
 15009 27d2 21000000 		.4byte	.LVL396-1
 15010 27d6 0300     		.2byte	0x3
 15011 27d8 70       		.byte	0x70
 15012 27d9 1C       		.sleb128 28
 15013 27da 9F       		.byte	0x9f
 15014 27db 21000000 		.4byte	.LVL396-1
 15015 27df 42000000 		.4byte	.LVL400
 15016 27e3 0300     		.2byte	0x3
 15017 27e5 74       		.byte	0x74
 15018 27e6 1C       		.sleb128 28
 15019 27e7 9F       		.byte	0x9f
 15020 27e8 42000000 		.4byte	.LVL400
 15021 27ec 45000000 		.4byte	.LVL401-1
 15022 27f0 0300     		.2byte	0x3
 15023 27f2 70       		.byte	0x70
 15024 27f3 1C       		.sleb128 28
 15025 27f4 9F       		.byte	0x9f
 15026 27f5 45000000 		.4byte	.LVL401-1
 15027 27f9 46000000 		.4byte	.LFE47
 15028 27fd 0600     		.2byte	0x6
 15029 27ff F3       		.byte	0xf3
 15030 2800 01       		.uleb128 0x1
 15031 2801 50       		.byte	0x50
 15032 2802 23       		.byte	0x23
 15033 2803 1C       		.uleb128 0x1c
ARM GAS  C:\Users\rdn\AppData\Local\Temp\ccIOjLNc.s 			page 292


 15034 2804 9F       		.byte	0x9f
 15035 2805 00000000 		.4byte	0
 15036 2809 00000000 		.4byte	0
 15037              	.LLST210:
 15038 280d 26000000 		.4byte	.LVL397
 15039 2811 30000000 		.4byte	.LVL398
 15040 2815 0100     		.2byte	0x1
 15041 2817 51       		.byte	0x51
 15042 2818 30000000 		.4byte	.LVL398
 15043 281c 3A000000 		.4byte	.LVL399
 15044 2820 0200     		.2byte	0x2
 15045 2822 75       		.byte	0x75
 15046 2823 04       		.sleb128 4
 15047 2824 3A000000 		.4byte	.LVL399
 15048 2828 45000000 		.4byte	.LVL401-1
 15049 282c 0100     		.2byte	0x1
 15050 282e 51       		.byte	0x51
 15051 282f 00000000 		.4byte	0
 15052 2833 00000000 		.4byte	0
 15053              	.LLST211:
 15054 2837 26000000 		.4byte	.LVL397
 15055 283b 42000000 		.4byte	.LVL400
 15056 283f 0100     		.2byte	0x1
 15057 2841 54       		.byte	0x54
 15058 2842 42000000 		.4byte	.LVL400
 15059 2846 45000000 		.4byte	.LVL401-1
 15060 284a 0100     		.2byte	0x1
 15061 284c 50       		.byte	0x50
 15062 284d 45000000 		.4byte	.LVL401-1
 15063 2851 46000000 		.4byte	.LFE47
 15064 2855 0400     		.2byte	0x4
 15065 2857 F3       		.byte	0xf3
 15066 2858 01       		.uleb128 0x1
 15067 2859 50       		.byte	0x50
 15068 285a 9F       		.byte	0x9f
 15069 285b 00000000 		.4byte	0
 15070 285f 00000000 		.4byte	0
 15071              	.LLST212:
 15072 2863 26000000 		.4byte	.LVL397
 15073 2867 42000000 		.4byte	.LVL400
 15074 286b 0300     		.2byte	0x3
 15075 286d 74       		.byte	0x74
 15076 286e 1C       		.sleb128 28
 15077 286f 9F       		.byte	0x9f
 15078 2870 42000000 		.4byte	.LVL400
 15079 2874 45000000 		.4byte	.LVL401-1
 15080 2878 0300     		.2byte	0x3
 15081 287a 70       		.byte	0x70
 15082 287b 1C       		.sleb128 28
 15083 287c 9F       		.byte	0x9f
 15084 287d 45000000 		.4byte	.LVL401-1
 15085 2881 46000000 		.4byte	.LFE47
 15086 2885 0600     		.2byte	0x6
 15087 2887 F3       		.byte	0xf3
 15088 2888 01       		.uleb128 0x1
 15089 2889 50       		.byte	0x50
 15090 288a 23       		.byte	0x23
ARM GAS  C:\Users\rdn\AppData\Local\Temp\ccIOjLNc.s 			page 293


 15091 288b 1C       		.uleb128 0x1c
 15092 288c 9F       		.byte	0x9f
 15093 288d 00000000 		.4byte	0
 15094 2891 00000000 		.4byte	0
 15095              	.LLST213:
 15096 2895 00000000 		.4byte	.LVL402
 15097 2899 10000000 		.4byte	.LVL403
 15098 289d 0100     		.2byte	0x1
 15099 289f 50       		.byte	0x50
 15100 28a0 10000000 		.4byte	.LVL403
 15101 28a4 1A000000 		.4byte	.LVL405
 15102 28a8 0100     		.2byte	0x1
 15103 28aa 54       		.byte	0x54
 15104 28ab 1A000000 		.4byte	.LVL405
 15105 28af 1F000000 		.4byte	.LVL407-1
 15106 28b3 0100     		.2byte	0x1
 15107 28b5 50       		.byte	0x50
 15108 28b6 1F000000 		.4byte	.LVL407-1
 15109 28ba 4C000000 		.4byte	.LFE48
 15110 28be 0100     		.2byte	0x1
 15111 28c0 54       		.byte	0x54
 15112 28c1 00000000 		.4byte	0
 15113 28c5 00000000 		.4byte	0
 15114              	.LLST214:
 15115 28c9 00000000 		.4byte	.LVL402
 15116 28cd 1C000000 		.4byte	.LVL406
 15117 28d1 0100     		.2byte	0x1
 15118 28d3 51       		.byte	0x51
 15119 28d4 1C000000 		.4byte	.LVL406
 15120 28d8 4C000000 		.4byte	.LFE48
 15121 28dc 0100     		.2byte	0x1
 15122 28de 55       		.byte	0x55
 15123 28df 00000000 		.4byte	0
 15124 28e3 00000000 		.4byte	0
 15125              	.LLST215:
 15126 28e7 00000000 		.4byte	.LVL402
 15127 28eb 10000000 		.4byte	.LVL403
 15128 28ef 0100     		.2byte	0x1
 15129 28f1 50       		.byte	0x50
 15130 28f2 10000000 		.4byte	.LVL403
 15131 28f6 1A000000 		.4byte	.LVL405
 15132 28fa 0100     		.2byte	0x1
 15133 28fc 54       		.byte	0x54
 15134 28fd 1A000000 		.4byte	.LVL405
 15135 2901 1F000000 		.4byte	.LVL407-1
 15136 2905 0100     		.2byte	0x1
 15137 2907 50       		.byte	0x50
 15138 2908 1F000000 		.4byte	.LVL407-1
 15139 290c 20000000 		.4byte	.LVL407
 15140 2910 0100     		.2byte	0x1
 15141 2912 54       		.byte	0x54
 15142 2913 00000000 		.4byte	0
 15143 2917 00000000 		.4byte	0
 15144              	.LLST216:
 15145 291b 00000000 		.4byte	.LVL402
 15146 291f 20000000 		.4byte	.LVL407
 15147 2923 0200     		.2byte	0x2
ARM GAS  C:\Users\rdn\AppData\Local\Temp\ccIOjLNc.s 			page 294


 15148 2925 31       		.byte	0x31
 15149 2926 9F       		.byte	0x9f
 15150 2927 00000000 		.4byte	0
 15151 292b 00000000 		.4byte	0
 15152              	.LLST218:
 15153 292f 00000000 		.4byte	.LVL402
 15154 2933 10000000 		.4byte	.LVL403
 15155 2937 0300     		.2byte	0x3
 15156 2939 70       		.byte	0x70
 15157 293a 1C       		.sleb128 28
 15158 293b 9F       		.byte	0x9f
 15159 293c 10000000 		.4byte	.LVL403
 15160 2940 1A000000 		.4byte	.LVL405
 15161 2944 0300     		.2byte	0x3
 15162 2946 74       		.byte	0x74
 15163 2947 1C       		.sleb128 28
 15164 2948 9F       		.byte	0x9f
 15165 2949 1A000000 		.4byte	.LVL405
 15166 294d 1F000000 		.4byte	.LVL407-1
 15167 2951 0300     		.2byte	0x3
 15168 2953 70       		.byte	0x70
 15169 2954 1C       		.sleb128 28
 15170 2955 9F       		.byte	0x9f
 15171 2956 1F000000 		.4byte	.LVL407-1
 15172 295a 4C000000 		.4byte	.LFE48
 15173 295e 0300     		.2byte	0x3
 15174 2960 74       		.byte	0x74
 15175 2961 1C       		.sleb128 28
 15176 2962 9F       		.byte	0x9f
 15177 2963 00000000 		.4byte	0
 15178 2967 00000000 		.4byte	0
 15179              	.LLST219:
 15180 296b 18000000 		.4byte	.LVL404
 15181 296f 1A000000 		.4byte	.LVL405
 15182 2973 0100     		.2byte	0x1
 15183 2975 50       		.byte	0x50
 15184 2976 00000000 		.4byte	0
 15185 297a 00000000 		.4byte	0
 15186              	.LLST220:
 15187 297e 28000000 		.4byte	.LVL408
 15188 2982 48000000 		.4byte	.LVL411
 15189 2986 0200     		.2byte	0x2
 15190 2988 39       		.byte	0x39
 15191 2989 9F       		.byte	0x9f
 15192 298a 00000000 		.4byte	0
 15193 298e 00000000 		.4byte	0
 15194              	.LLST221:
 15195 2992 28000000 		.4byte	.LVL408
 15196 2996 48000000 		.4byte	.LVL411
 15197 299a 0100     		.2byte	0x1
 15198 299c 54       		.byte	0x54
 15199 299d 00000000 		.4byte	0
 15200 29a1 00000000 		.4byte	0
 15201              	.LLST222:
 15202 29a5 3E000000 		.4byte	.LVL409
 15203 29a9 40000000 		.4byte	.LVL410
 15204 29ad 0100     		.2byte	0x1
ARM GAS  C:\Users\rdn\AppData\Local\Temp\ccIOjLNc.s 			page 295


 15205 29af 50       		.byte	0x50
 15206 29b0 00000000 		.4byte	0
 15207 29b4 00000000 		.4byte	0
 15208              		.section	.debug_aranges,"",%progbits
 15209 0000 C4000000 		.4byte	0xc4
 15210 0004 0200     		.2byte	0x2
 15211 0006 00000000 		.4byte	.Ldebug_info0
 15212 000a 04       		.byte	0x4
 15213 000b 00       		.byte	0
 15214 000c 0000     		.2byte	0
 15215 000e 0000     		.2byte	0
 15216 0010 00000000 		.4byte	.LFB22
 15217 0014 74010000 		.4byte	.LFE22-.LFB22
 15218 0018 00000000 		.4byte	.LFB26
 15219 001c 1C000000 		.4byte	.LFE26-.LFB26
 15220 0020 00000000 		.4byte	.LFB27
 15221 0024 1C000000 		.4byte	.LFE27-.LFB27
 15222 0028 00000000 		.4byte	.LFB28
 15223 002c 1C000000 		.4byte	.LFE28-.LFB28
 15224 0030 00000000 		.4byte	.LFB30
 15225 0034 40000000 		.4byte	.LFE30-.LFB30
 15226 0038 00000000 		.4byte	.LFB34
 15227 003c CC000000 		.4byte	.LFE34-.LFB34
 15228 0040 00000000 		.4byte	.LFB35
 15229 0044 A8000000 		.4byte	.LFE35-.LFB35
 15230 0048 00000000 		.4byte	.LFB39
 15231 004c B4010000 		.4byte	.LFE39-.LFB39
 15232 0050 00000000 		.4byte	.LFB40
 15233 0054 20000000 		.4byte	.LFE40-.LFB40
 15234 0058 00000000 		.4byte	.LFB41
 15235 005c 20000000 		.4byte	.LFE41-.LFB41
 15236 0060 00000000 		.4byte	.LFB42
 15237 0064 20000000 		.4byte	.LFE42-.LFB42
 15238 0068 00000000 		.4byte	.LFB43
 15239 006c 20000000 		.4byte	.LFE43-.LFB43
 15240 0070 00000000 		.4byte	.LFB21
 15241 0074 38010000 		.4byte	.LFE21-.LFB21
 15242 0078 00000000 		.4byte	.LFB23
 15243 007c 1C000000 		.4byte	.LFE23-.LFB23
 15244 0080 00000000 		.4byte	.LFB24
 15245 0084 1C000000 		.4byte	.LFE24-.LFB24
 15246 0088 00000000 		.4byte	.LFB25
 15247 008c 1C000000 		.4byte	.LFE25-.LFB25
 15248 0090 00000000 		.4byte	.LFB38
 15249 0094 BE040000 		.4byte	.LFE38-.LFB38
 15250 0098 00000000 		.4byte	.LFB44
 15251 009c DC020000 		.4byte	.LFE44-.LFB44
 15252 00a0 00000000 		.4byte	.LFB45
 15253 00a4 06000000 		.4byte	.LFE45-.LFB45
 15254 00a8 00000000 		.4byte	.LFB46
 15255 00ac 08000000 		.4byte	.LFE46-.LFB46
 15256 00b0 00000000 		.4byte	.LFB47
 15257 00b4 46000000 		.4byte	.LFE47-.LFB47
 15258 00b8 00000000 		.4byte	.LFB48
 15259 00bc 4C000000 		.4byte	.LFE48-.LFB48
 15260 00c0 00000000 		.4byte	0
 15261 00c4 00000000 		.4byte	0
ARM GAS  C:\Users\rdn\AppData\Local\Temp\ccIOjLNc.s 			page 296


 15262              		.section	.debug_ranges,"",%progbits
 15263              	.Ldebug_ranges0:
 15264 0000 14000000 		.4byte	.LBB22
 15265 0004 18000000 		.4byte	.LBE22
 15266 0008 1C000000 		.4byte	.LBB31
 15267 000c 62010000 		.4byte	.LBE31
 15268 0010 00000000 		.4byte	0
 15269 0014 00000000 		.4byte	0
 15270 0018 32000000 		.4byte	.LBB23
 15271 001c 5C010000 		.4byte	.LBE23
 15272 0020 5E010000 		.4byte	.LBB30
 15273 0024 62010000 		.4byte	.LBE30
 15274 0028 00000000 		.4byte	0
 15275 002c 00000000 		.4byte	0
 15276 0030 32000000 		.4byte	.LBB24
 15277 0034 3C000000 		.4byte	.LBE24
 15278 0038 3E000000 		.4byte	.LBB25
 15279 003c 04010000 		.4byte	.LBE25
 15280 0040 00000000 		.4byte	0
 15281 0044 00000000 		.4byte	0
 15282 0048 04010000 		.4byte	.LBB26
 15283 004c 4A010000 		.4byte	.LBE26
 15284 0050 54010000 		.4byte	.LBB29
 15285 0054 58010000 		.4byte	.LBE29
 15286 0058 00000000 		.4byte	0
 15287 005c 00000000 		.4byte	0
 15288 0060 02000000 		.4byte	.LBB32
 15289 0064 06000000 		.4byte	.LBE32
 15290 0068 0A000000 		.4byte	.LBB34
 15291 006c 2A000000 		.4byte	.LBE34
 15292 0070 00000000 		.4byte	0
 15293 0074 00000000 		.4byte	0
 15294 0078 3A000000 		.4byte	.LBB37
 15295 007c 3C000000 		.4byte	.LBE37
 15296 0080 6E000000 		.4byte	.LBB41
 15297 0084 DA000000 		.4byte	.LBE41
 15298 0088 00000000 		.4byte	0
 15299 008c 00000000 		.4byte	0
 15300 0090 E8000000 		.4byte	.LBB42
 15301 0094 EC000000 		.4byte	.LBE42
 15302 0098 F2000000 		.4byte	.LBB50
 15303 009c A8010000 		.4byte	.LBE50
 15304 00a0 00000000 		.4byte	0
 15305 00a4 00000000 		.4byte	0
 15306 00a8 E8000000 		.4byte	.LBB43
 15307 00ac EC000000 		.4byte	.LBE43
 15308 00b0 02010000 		.4byte	.LBB49
 15309 00b4 A2010000 		.4byte	.LBE49
 15310 00b8 00000000 		.4byte	0
 15311 00bc 00000000 		.4byte	0
 15312 00c0 E8000000 		.4byte	.LBB44
 15313 00c4 EC000000 		.4byte	.LBE44
 15314 00c8 08010000 		.4byte	.LBB47
 15315 00cc 96010000 		.4byte	.LBE47
 15316 00d0 9A010000 		.4byte	.LBB48
 15317 00d4 A2010000 		.4byte	.LBE48
 15318 00d8 00000000 		.4byte	0
ARM GAS  C:\Users\rdn\AppData\Local\Temp\ccIOjLNc.s 			page 297


 15319 00dc 00000000 		.4byte	0
 15320 00e0 14000000 		.4byte	.LBB56
 15321 00e4 18000000 		.4byte	.LBE56
 15322 00e8 1C000000 		.4byte	.LBB65
 15323 00ec 26010000 		.4byte	.LBE65
 15324 00f0 00000000 		.4byte	0
 15325 00f4 00000000 		.4byte	0
 15326 00f8 32000000 		.4byte	.LBB57
 15327 00fc 20010000 		.4byte	.LBE57
 15328 0100 22010000 		.4byte	.LBB64
 15329 0104 26010000 		.4byte	.LBE64
 15330 0108 00000000 		.4byte	0
 15331 010c 00000000 		.4byte	0
 15332 0110 32000000 		.4byte	.LBB58
 15333 0114 3C000000 		.4byte	.LBE58
 15334 0118 3E000000 		.4byte	.LBB59
 15335 011c C8000000 		.4byte	.LBE59
 15336 0120 00000000 		.4byte	0
 15337 0124 00000000 		.4byte	0
 15338 0128 C8000000 		.4byte	.LBB60
 15339 012c 0E010000 		.4byte	.LBE60
 15340 0130 18010000 		.4byte	.LBB63
 15341 0134 1C010000 		.4byte	.LBE63
 15342 0138 00000000 		.4byte	0
 15343 013c 00000000 		.4byte	0
 15344 0140 28010000 		.4byte	.LBB99
 15345 0144 2E010000 		.4byte	.LBE99
 15346 0148 36010000 		.4byte	.LBB100
 15347 014c 62010000 		.4byte	.LBE100
 15348 0150 00000000 		.4byte	0
 15349 0154 00000000 		.4byte	0
 15350 0158 6C010000 		.4byte	.LBB103
 15351 015c 6E010000 		.4byte	.LBE103
 15352 0160 70010000 		.4byte	.LBB104
 15353 0164 8E010000 		.4byte	.LBE104
 15354 0168 00000000 		.4byte	0
 15355 016c 00000000 		.4byte	0
 15356 0170 6C020000 		.4byte	.LBB108
 15357 0174 6E020000 		.4byte	.LBE108
 15358 0178 72020000 		.4byte	.LBB112
 15359 017c 76020000 		.4byte	.LBE112
 15360 0180 78020000 		.4byte	.LBB113
 15361 0184 98020000 		.4byte	.LBE113
 15362 0188 00000000 		.4byte	0
 15363 018c 00000000 		.4byte	0
 15364 0190 9E020000 		.4byte	.LBB116
 15365 0194 A0020000 		.4byte	.LBE116
 15366 0198 A4020000 		.4byte	.LBB117
 15367 019c C0020000 		.4byte	.LBE117
 15368 01a0 00000000 		.4byte	0
 15369 01a4 00000000 		.4byte	0
 15370 01a8 06000000 		.4byte	.LBB129
 15371 01ac 08000000 		.4byte	.LBE129
 15372 01b0 0A000000 		.4byte	.LBB134
 15373 01b4 0E000000 		.4byte	.LBE134
 15374 01b8 10000000 		.4byte	.LBB135
 15375 01bc 16000000 		.4byte	.LBE135
ARM GAS  C:\Users\rdn\AppData\Local\Temp\ccIOjLNc.s 			page 298


 15376 01c0 1E000000 		.4byte	.LBB139
 15377 01c4 20000000 		.4byte	.LBE139
 15378 01c8 00000000 		.4byte	0
 15379 01cc 00000000 		.4byte	0
 15380 01d0 16000000 		.4byte	.LBB136
 15381 01d4 1A000000 		.4byte	.LBE136
 15382 01d8 20000000 		.4byte	.LBB140
 15383 01dc 30000000 		.4byte	.LBE140
 15384 01e0 00000000 		.4byte	0
 15385 01e4 00000000 		.4byte	0
 15386 01e8 D0000000 		.4byte	.LBB141
 15387 01ec F2000000 		.4byte	.LBE141
 15388 01f0 0A010000 		.4byte	.LBB145
 15389 01f4 68010000 		.4byte	.LBE145
 15390 01f8 00000000 		.4byte	0
 15391 01fc 00000000 		.4byte	0
 15392 0200 D0000000 		.4byte	.LBB142
 15393 0204 F2000000 		.4byte	.LBE142
 15394 0208 0A010000 		.4byte	.LBB143
 15395 020c 60010000 		.4byte	.LBE143
 15396 0210 62010000 		.4byte	.LBB144
 15397 0214 66010000 		.4byte	.LBE144
 15398 0218 00000000 		.4byte	0
 15399 021c 00000000 		.4byte	0
 15400 0220 00000000 		.4byte	.LBB152
 15401 0224 02000000 		.4byte	.LBE152
 15402 0228 04000000 		.4byte	.LBB162
 15403 022c 08000000 		.4byte	.LBE162
 15404 0230 0C000000 		.4byte	.LBB163
 15405 0234 22000000 		.4byte	.LBE163
 15406 0238 00000000 		.4byte	0
 15407 023c 00000000 		.4byte	0
 15408 0240 00000000 		.4byte	.LBB154
 15409 0244 02000000 		.4byte	.LBE154
 15410 0248 04000000 		.4byte	.LBB158
 15411 024c 08000000 		.4byte	.LBE158
 15412 0250 0E000000 		.4byte	.LBB159
 15413 0254 22000000 		.4byte	.LBE159
 15414 0258 00000000 		.4byte	0
 15415 025c 00000000 		.4byte	0
 15416 0260 22000000 		.4byte	.LBB164
 15417 0264 24000000 		.4byte	.LBE164
 15418 0268 26000000 		.4byte	.LBB168
 15419 026c 3E000000 		.4byte	.LBE168
 15420 0270 42000000 		.4byte	.LBB169
 15421 0274 46000000 		.4byte	.LBE169
 15422 0278 00000000 		.4byte	0
 15423 027c 00000000 		.4byte	0
 15424 0280 00000000 		.4byte	.LBB178
 15425 0284 02000000 		.4byte	.LBE178
 15426 0288 04000000 		.4byte	.LBB186
 15427 028c 08000000 		.4byte	.LBE186
 15428 0290 0C000000 		.4byte	.LBB187
 15429 0294 20000000 		.4byte	.LBE187
 15430 0298 00000000 		.4byte	0
 15431 029c 00000000 		.4byte	0
 15432 02a0 00000000 		.4byte	.LFB22
ARM GAS  C:\Users\rdn\AppData\Local\Temp\ccIOjLNc.s 			page 299


 15433 02a4 74010000 		.4byte	.LFE22
 15434 02a8 00000000 		.4byte	.LFB26
 15435 02ac 1C000000 		.4byte	.LFE26
 15436 02b0 00000000 		.4byte	.LFB27
 15437 02b4 1C000000 		.4byte	.LFE27
 15438 02b8 00000000 		.4byte	.LFB28
 15439 02bc 1C000000 		.4byte	.LFE28
 15440 02c0 00000000 		.4byte	.LFB30
 15441 02c4 40000000 		.4byte	.LFE30
 15442 02c8 00000000 		.4byte	.LFB34
 15443 02cc CC000000 		.4byte	.LFE34
 15444 02d0 00000000 		.4byte	.LFB35
 15445 02d4 A8000000 		.4byte	.LFE35
 15446 02d8 00000000 		.4byte	.LFB39
 15447 02dc B4010000 		.4byte	.LFE39
 15448 02e0 00000000 		.4byte	.LFB40
 15449 02e4 20000000 		.4byte	.LFE40
 15450 02e8 00000000 		.4byte	.LFB41
 15451 02ec 20000000 		.4byte	.LFE41
 15452 02f0 00000000 		.4byte	.LFB42
 15453 02f4 20000000 		.4byte	.LFE42
 15454 02f8 00000000 		.4byte	.LFB43
 15455 02fc 20000000 		.4byte	.LFE43
 15456 0300 00000000 		.4byte	.LFB21
 15457 0304 38010000 		.4byte	.LFE21
 15458 0308 00000000 		.4byte	.LFB23
 15459 030c 1C000000 		.4byte	.LFE23
 15460 0310 00000000 		.4byte	.LFB24
 15461 0314 1C000000 		.4byte	.LFE24
 15462 0318 00000000 		.4byte	.LFB25
 15463 031c 1C000000 		.4byte	.LFE25
 15464 0320 00000000 		.4byte	.LFB38
 15465 0324 BE040000 		.4byte	.LFE38
 15466 0328 00000000 		.4byte	.LFB44
 15467 032c DC020000 		.4byte	.LFE44
 15468 0330 00000000 		.4byte	.LFB45
 15469 0334 06000000 		.4byte	.LFE45
 15470 0338 00000000 		.4byte	.LFB46
 15471 033c 08000000 		.4byte	.LFE46
 15472 0340 00000000 		.4byte	.LFB47
 15473 0344 46000000 		.4byte	.LFE47
 15474 0348 00000000 		.4byte	.LFB48
 15475 034c 4C000000 		.4byte	.LFE48
 15476 0350 00000000 		.4byte	0
 15477 0354 00000000 		.4byte	0
 15478              		.section	.debug_line,"",%progbits
 15479              	.Ldebug_line0:
 15480 0000 16080000 		.section	.debug_str,"MS",%progbits,1
 15480      0200FA01 
 15480      00000201 
 15480      FB0E0D00 
 15480      01010101 
 15481              	.LASF86:
 15482 0000 696E7465 		.ascii	"interpolate_corr\000"
 15482      72706F6C 
 15482      6174655F 
 15482      636F7272 
ARM GAS  C:\Users\rdn\AppData\Local\Temp\ccIOjLNc.s 			page 300


 15482      00
 15483              	.LASF27:
 15484 0011 4C43335F 		.ascii	"LC3_SRATE_24K\000"
 15484      53524154 
 15484      455F3234 
 15484      4B00
 15485              	.LASF125:
 15486 001f 6C63335F 		.ascii	"lc3_get_bit\000"
 15486      6765745F 
 15486      62697400 
 15487              	.LASF111:
 15488 002b 6C63335F 		.ascii	"lc3_nh\000"
 15488      6E6800
 15489              	.LASF71:
 15490 0032 74317365 		.ascii	"t1sel\000"
 15490      6C00
 15491              	.LASF113:
 15492 0038 705F6964 		.ascii	"p_idx\000"
 15492      7800
 15493              	.LASF58:
 15494 003e 6C63335F 		.ascii	"lc3_bits_buffer\000"
 15494      62697473 
 15494      5F627566 
 15494      66657200 
 15495              	.LASF65:
 15496 004e 62756666 		.ascii	"buffer\000"
 15496      657200
 15497              	.LASF136:
 15498 0055 6C63335F 		.ascii	"lc3_ne_2m5\000"
 15498      6E655F32 
 15498      6D3500
 15499              	.LASF2:
 15500 0060 756E7369 		.ascii	"unsigned int\000"
 15500      676E6564 
 15500      20696E74 
 15500      00
 15501              	.LASF29:
 15502 006d 4C43335F 		.ascii	"LC3_SRATE_48K\000"
 15502      53524154 
 15502      455F3438 
 15502      4B00
 15503              	.LASF135:
 15504 007b 6C63335F 		.ascii	"lc3_ns_2m5\000"
 15504      6E735F32 
 15504      6D3500
 15505              	.LASF9:
 15506 0086 5F5F696E 		.ascii	"__int32_t\000"
 15506      7433325F 
 15506      7400
 15507              	.LASF36:
 15508 0090 70697463 		.ascii	"pitch\000"
 15508      6800
 15509              	.LASF124:
 15510 0096 6C63335F 		.ascii	"lc3_get_bits\000"
 15510      6765745F 
 15510      62697473 
 15510      00
ARM GAS  C:\Users\rdn\AppData\Local\Temp\ccIOjLNc.s 			page 301


 15511              	.LASF33:
 15512 00a3 6C63335F 		.ascii	"lc3_ltpf_hp50_state\000"
 15512      6C747066 
 15512      5F687035 
 15512      305F7374 
 15512      61746500 
 15513              	.LASF57:
 15514 00b7 6572726F 		.ascii	"error\000"
 15514      7200
 15515              	.LASF83:
 15516 00bd 72657361 		.ascii	"resample_96k_12k8\000"
 15516      6D706C65 
 15516      5F39366B 
 15516      5F31326B 
 15516      3800
 15517              	.LASF63:
 15518 00cf 6D6F6465 		.ascii	"mode\000"
 15518      00
 15519              	.LASF23:
 15520 00d4 6C63335F 		.ascii	"lc3_dt\000"
 15520      647400
 15521              	.LASF78:
 15522 00db 78775F6D 		.ascii	"xw_max\000"
 15522      617800
 15523              	.LASF30:
 15524 00e2 4C43335F 		.ascii	"LC3_SRATE_48K_HR\000"
 15524      53524154 
 15524      455F3438 
 15524      4B5F4852 
 15524      00
 15525              	.LASF137:
 15526 00f3 6C63335F 		.ascii	"lc3_ns_4m\000"
 15526      6E735F34 
 15526      6D00
 15527              	.LASF47:
 15528 00fd 6C63335F 		.ascii	"lc3_bits_mode\000"
 15528      62697473 
 15528      5F6D6F64 
 15528      6500
 15529              	.LASF35:
 15530 010b 61637469 		.ascii	"active\000"
 15530      766500
 15531              	.LASF38:
 15532 0112 785F3132 		.ascii	"x_12k8\000"
 15532      6B3800
 15533              	.LASF115:
 15534 0119 675F6964 		.ascii	"g_idx\000"
 15534      7800
 15535              	.LASF75:
 15536 011f 6172676D 		.ascii	"argmax_weighted\000"
 15536      61785F77 
 15536      65696768 
 15536      74656400 
 15537              	.LASF19:
 15538 012f 4C43335F 		.ascii	"LC3_DT_5M\000"
 15538      44545F35 
 15538      4D00
ARM GAS  C:\Users\rdn\AppData\Local\Temp\ccIOjLNc.s 			page 302


 15539              	.LASF105:
 15540 0139 6E5F3132 		.ascii	"n_12k8\000"
 15540      6B3800
 15541              	.LASF96:
 15542 0140 72657361 		.ascii	"resample_8k_12k8\000"
 15542      6D706C65 
 15542      5F386B5F 
 15542      31326B38 
 15542      00
 15543              	.LASF0:
 15544 0151 666C6F61 		.ascii	"float\000"
 15544      7400
 15545              	.LASF142:
 15546 0157 6D656D6D 		.ascii	"memmove\000"
 15546      6F766500 
 15547              	.LASF67:
 15548 015f 6C63335F 		.ascii	"lc3_ltpf_data\000"
 15548      6C747066 
 15548      5F646174 
 15548      6100
 15549              	.LASF55:
 15550 016d 63617272 		.ascii	"carry\000"
 15550      7900
 15551              	.LASF15:
 15552 0173 696E7431 		.ascii	"int16_t\000"
 15552      365F7400 
 15553              	.LASF1:
 15554 017b 6C6F6E67 		.ascii	"long long unsigned int\000"
 15554      206C6F6E 
 15554      6720756E 
 15554      7369676E 
 15554      65642069 
 15555              	.LASF129:
 15556 0192 685F3332 		.ascii	"h_32k_12k8_q15\000"
 15556      6B5F3132 
 15556      6B385F71 
 15556      313500
 15557              	.LASF108:
 15558 01a1 70697463 		.ascii	"pitch_present\000"
 15558      685F7072 
 15558      6573656E 
 15558      7400
 15559              	.LASF56:
 15560 01af 63617272 		.ascii	"carry_count\000"
 15560      795F636F 
 15560      756E7400 
 15561              	.LASF112:
 15562 01bb 6E627974 		.ascii	"nbytes\000"
 15562      657300
 15563              	.LASF117:
 15564 01c2 6C63335F 		.ascii	"lc3_ltpf_disable\000"
 15564      6C747066 
 15564      5F646973 
 15564      61626C65 
 15564      00
 15565              	.LASF76:
 15566 01d3 775F696E 		.ascii	"w_incr\000"
ARM GAS  C:\Users\rdn\AppData\Local\Temp\ccIOjLNc.s 			page 303


 15566      637200
 15567              	.LASF146:
 15568 01da 2E2E5C2E 		.ascii	"..\\..\\..\\liblc3\\src\\ltpf.c\000"
 15568      2E5C2E2E 
 15568      5C6C6962 
 15568      6C63335C 
 15568      7372635C 
 15569              	.LASF28:
 15570 01f5 4C43335F 		.ascii	"LC3_SRATE_32K\000"
 15570      53524154 
 15570      455F3332 
 15570      4B00
 15571              	.LASF79:
 15572 0203 66696C74 		.ascii	"filter_hp50\000"
 15572      65725F68 
 15572      70353000 
 15573              	.LASF22:
 15574 020f 4C43335F 		.ascii	"LC3_NUM_DT\000"
 15574      4E554D5F 
 15574      445400
 15575              	.LASF85:
 15576 021a 68345F71 		.ascii	"h4_q15\000"
 15576      313500
 15577              	.LASF116:
 15578 0221 6C63335F 		.ascii	"lc3_ltpf_synthesize\000"
 15578      6C747066 
 15578      5F73796E 
 15578      74686573 
 15578      697A6500 
 15579              	.LASF120:
 15580 0235 6C63335F 		.ascii	"lc3_put_bits\000"
 15580      7075745F 
 15580      62697473 
 15580      00
 15581              	.LASF100:
 15582 0242 72657361 		.ascii	"resample_6k4\000"
 15582      6D706C65 
 15582      5F366B34 
 15582      00
 15583              	.LASF39:
 15584 024f 785F366B 		.ascii	"x_6k4\000"
 15584      3400
 15585              	.LASF17:
 15586 0255 696E7436 		.ascii	"int64_t\000"
 15586      345F7400 
 15587              	.LASF126:
 15588 025d 6C63335F 		.ascii	"lc3_ltpf_get_data\000"
 15588      6C747066 
 15588      5F676574 
 15588      5F646174 
 15588      6100
 15589              	.LASF68:
 15590 026f 70697463 		.ascii	"pitch_index\000"
 15590      685F696E 
 15590      64657800 
 15591              	.LASF70:
 15592 027b 6C747066 		.ascii	"ltpf\000"
ARM GAS  C:\Users\rdn\AppData\Local\Temp\ccIOjLNc.s 			page 304


 15592      00
 15593              	.LASF144:
 15594 0280 6C63335F 		.ascii	"lc3_get_bits_generic\000"
 15594      6765745F 
 15594      62697473 
 15594      5F67656E 
 15594      65726963 
 15595              	.LASF40:
 15596 0295 5F426F6F 		.ascii	"_Bool\000"
 15596      6C00
 15597              	.LASF104:
 15598 029b 7A5F3132 		.ascii	"z_12k8\000"
 15598      6B3800
 15599              	.LASF66:
 15600 02a2 6C63335F 		.ascii	"lc3_bits_t\000"
 15600      62697473 
 15600      5F7400
 15601              	.LASF97:
 15602 02ad 72657361 		.ascii	"resample_16k_12k8\000"
 15602      6D706C65 
 15602      5F31366B 
 15602      5F31326B 
 15602      3800
 15603              	.LASF21:
 15604 02bf 4C43335F 		.ascii	"LC3_DT_10M\000"
 15604      44545F31 
 15604      304D00
 15605              	.LASF73:
 15606 02ca 6C63335F 		.ascii	"lc3_hr\000"
 15606      687200
 15607              	.LASF64:
 15608 02d1 61636375 		.ascii	"accu\000"
 15608      00
 15609              	.LASF45:
 15610 02d6 63686172 		.ascii	"char\000"
 15610      00
 15611              	.LASF42:
 15612 02db 6C63335F 		.ascii	"lc3_ltpf_synthesis\000"
 15612      6C747066 
 15612      5F73796E 
 15612      74686573 
 15612      697300
 15613              	.LASF50:
 15614 02ee 6C63335F 		.ascii	"lc3_bits_accu\000"
 15614      62697473 
 15614      5F616363 
 15614      7500
 15615              	.LASF103:
 15616 02fc 64617461 		.ascii	"data\000"
 15616      00
 15617              	.LASF147:
 15618 0301 433A5C55 		.ascii	"C:\\Users\\rdn\\Documents\\PSoC Creator\\SEES\\ble_"
 15618      73657273 
 15618      5C72646E 
 15618      5C446F63 
 15618      756D656E 
 15619 032e 74657374 		.ascii	"test.cydsn\000"
ARM GAS  C:\Users\rdn\AppData\Local\Temp\ccIOjLNc.s 			page 305


 15619      2E637964 
 15619      736E00
 15620              	.LASF51:
 15621 0339 6E6F7665 		.ascii	"nover\000"
 15621      7200
 15622              	.LASF14:
 15623 033f 75696E74 		.ascii	"uint8_t\000"
 15623      385F7400 
 15624              	.LASF61:
 15625 0347 705F6277 		.ascii	"p_bw\000"
 15625      00
 15626              	.LASF121:
 15627 034c 62697473 		.ascii	"bits\000"
 15627      00
 15628              	.LASF81:
 15629 0351 72657361 		.ascii	"resample_24k_12k8\000"
 15629      6D706C65 
 15629      5F32346B 
 15629      5F31326B 
 15629      3800
 15630              	.LASF13:
 15631 0363 6C6F6E67 		.ascii	"long long int\000"
 15631      206C6F6E 
 15631      6720696E 
 15631      7400
 15632              	.LASF82:
 15633 0371 72657361 		.ascii	"resample_48k_12k8\000"
 15633      6D706C65 
 15633      5F34386B 
 15633      5F31326B 
 15633      3800
 15634              	.LASF37:
 15635 0383 68703530 		.ascii	"hp50\000"
 15635      00
 15636              	.LASF123:
 15637 0388 6C63335F 		.ascii	"lc3_ltpf_put_data\000"
 15637      6C747066 
 15637      5F707574 
 15637      5F646174 
 15637      6100
 15638              	.LASF114:
 15639 039a 6E626974 		.ascii	"nbits\000"
 15639      7300
 15640              	.LASF6:
 15641 03a0 5F5F696E 		.ascii	"__int16_t\000"
 15641      7431365F 
 15641      7400
 15642              	.LASF130:
 15643 03aa 685F3234 		.ascii	"h_24k_12k8_q15\000"
 15643      6B5F3132 
 15643      6B385F71 
 15643      313500
 15644              	.LASF134:
 15645 03b9 73796E74 		.ascii	"synthesize\000"
 15645      68657369 
 15645      7A6500
 15646              	.LASF77:
ARM GAS  C:\Users\rdn\AppData\Local\Temp\ccIOjLNc.s 			page 306


 15647 03c4 785F6D61 		.ascii	"x_max\000"
 15647      7800
 15648              	.LASF72:
 15649 03ca 64657465 		.ascii	"detect_pitch\000"
 15649      63745F70 
 15649      69746368 
 15649      00
 15650              	.LASF88:
 15651 03d7 66616465 		.ascii	"fade\000"
 15651      00
 15652              	.LASF53:
 15653 03dc 72616E67 		.ascii	"range\000"
 15653      6500
 15654              	.LASF133:
 15655 03e2 72657361 		.ascii	"resample_12k8\000"
 15655      6D706C65 
 15655      5F31326B 
 15655      3800
 15656              	.LASF101:
 15657 03f0 636F7272 		.ascii	"correlate\000"
 15657      656C6174 
 15657      6500
 15658              	.LASF143:
 15659 03fa 6C63335F 		.ascii	"lc3_put_bits_generic\000"
 15659      7075745F 
 15659      62697473 
 15659      5F67656E 
 15659      65726963 
 15660              	.LASF89:
 15661 040f 675F696E 		.ascii	"g_incr\000"
 15661      637200
 15662              	.LASF54:
 15663 0416 63616368 		.ascii	"cache\000"
 15663      6500
 15664              	.LASF62:
 15665 041c 6C63335F 		.ascii	"lc3_bits\000"
 15665      62697473 
 15665      00
 15666              	.LASF12:
 15667 0425 5F5F696E 		.ascii	"__int64_t\000"
 15667      7436345F 
 15667      7400
 15668              	.LASF43:
 15669 042f 6C63335F 		.ascii	"lc3_ltpf_synthesis_t\000"
 15669      6C747066 
 15669      5F73796E 
 15669      74686573 
 15669      69735F74 
 15670              	.LASF106:
 15671 0444 7A5F366B 		.ascii	"z_6k4\000"
 15671      3400
 15672              	.LASF44:
 15673 044a 6C6F6E67 		.ascii	"long double\000"
 15673      20646F75 
 15673      626C6500 
 15674              	.LASF32:
 15675 0456 4C43335F 		.ascii	"LC3_NUM_SRATE\000"
ARM GAS  C:\Users\rdn\AppData\Local\Temp\ccIOjLNc.s 			page 307


 15675      4E554D5F 
 15675      53524154 
 15675      4500
 15676              	.LASF132:
 15677 0464 685F3936 		.ascii	"h_96k_12k8_q15\000"
 15677      6B5F3132 
 15677      6B385F71 
 15677      313500
 15678              	.LASF20:
 15679 0473 4C43335F 		.ascii	"LC3_DT_7M5\000"
 15679      44545F37 
 15679      4D3500
 15680              	.LASF109:
 15681 047e 70697463 		.ascii	"pitch_diff\000"
 15681      685F6469 
 15681      666600
 15682              	.LASF99:
 15683 0489 6172676D 		.ascii	"argmax\000"
 15683      617800
 15684              	.LASF7:
 15685 0490 73686F72 		.ascii	"short int\000"
 15685      7420696E 
 15685      7400
 15686              	.LASF18:
 15687 049a 4C43335F 		.ascii	"LC3_DT_2M5\000"
 15687      44545F32 
 15687      4D3500
 15688              	.LASF122:
 15689 04a5 6C63335F 		.ascii	"lc3_put_bit\000"
 15689      7075745F 
 15689      62697400 
 15690              	.LASF10:
 15691 04b1 6C6F6E67 		.ascii	"long int\000"
 15691      20696E74 
 15691      00
 15692              	.LASF80:
 15693 04ba 72657361 		.ascii	"resample_x192k_12k8\000"
 15693      6D706C65 
 15693      5F783139 
 15693      326B5F31 
 15693      326B3800 
 15694              	.LASF145:
 15695 04ce 474E5520 		.ascii	"GNU C11 5.4.1 20160609 (release) [ARM/embedded-5-br"
 15695      43313120 
 15695      352E342E 
 15695      31203230 
 15695      31363036 
 15696 0501 616E6368 		.ascii	"anch revision 237715] -mcpu=cortex-m4 -mfloat-abi=s"
 15696      20726576 
 15696      6973696F 
 15696      6E203233 
 15696      37373135 
 15697 0534 6F667466 		.ascii	"oftfp -mfpu=fpv4-sp-d16 -mthumb -g -Os -ffunction-s"
 15697      70202D6D 
 15697      6670753D 
 15697      66707634 
 15697      2D73702D 
ARM GAS  C:\Users\rdn\AppData\Local\Temp\ccIOjLNc.s 			page 308


 15698 0567 65637469 		.ascii	"ections -ffat-lto-objects\000"
 15698      6F6E7320 
 15698      2D666661 
 15698      742D6C74 
 15698      6F2D6F62 
 15699              	.LASF91:
 15700 0581 73796E74 		.ascii	"synthesize_4\000"
 15700      68657369 
 15700      7A655F34 
 15700      00
 15701              	.LASF92:
 15702 058e 73796E74 		.ascii	"synthesize_6\000"
 15702      68657369 
 15702      7A655F36 
 15702      00
 15703              	.LASF93:
 15704 059b 73796E74 		.ascii	"synthesize_8\000"
 15704      68657369 
 15704      7A655F38 
 15704      00
 15705              	.LASF49:
 15706 05a8 4C43335F 		.ascii	"LC3_BITS_MODE_WRITE\000"
 15706      42495453 
 15706      5F4D4F44 
 15706      455F5752 
 15706      49544500 
 15707              	.LASF98:
 15708 05bc 72657361 		.ascii	"resample_32k_12k8\000"
 15708      6D706C65 
 15708      5F33326B 
 15708      5F31326B 
 15708      3800
 15709              	.LASF87:
 15710 05ce 73796E74 		.ascii	"synthesize_template\000"
 15710      68657369 
 15710      7A655F74 
 15710      656D706C 
 15710      61746500 
 15711              	.LASF5:
 15712 05e2 5F5F7569 		.ascii	"__uint8_t\000"
 15712      6E74385F 
 15712      7400
 15713              	.LASF59:
 15714 05ec 73746172 		.ascii	"start\000"
 15714      7400
 15715              	.LASF26:
 15716 05f2 4C43335F 		.ascii	"LC3_SRATE_16K\000"
 15716      53524154 
 15716      455F3136 
 15716      4B00
 15717              	.LASF118:
 15718 0600 6C63335F 		.ascii	"lc3_ltpf_analyse\000"
 15718      6C747066 
 15718      5F616E61 
 15718      6C797365 
 15718      00
 15719              	.LASF110:
ARM GAS  C:\Users\rdn\AppData\Local\Temp\ccIOjLNc.s 			page 309


 15720 0611 6E635F64 		.ascii	"nc_diff\000"
 15720      69666600 
 15721              	.LASF41:
 15722 0619 73697A65 		.ascii	"sizetype\000"
 15722      74797065 
 15722      00
 15723              	.LASF11:
 15724 0622 6C6F6E67 		.ascii	"long unsigned int\000"
 15724      20756E73 
 15724      69676E65 
 15724      6420696E 
 15724      7400
 15725              	.LASF74:
 15726 0634 6C63335F 		.ascii	"lc3_ns\000"
 15726      6E7300
 15727              	.LASF16:
 15728 063b 696E7433 		.ascii	"int32_t\000"
 15728      325F7400 
 15729              	.LASF84:
 15730 0643 696E7465 		.ascii	"interpolate\000"
 15730      72706F6C 
 15730      61746500 
 15731              	.LASF128:
 15732 064f 685F3136 		.ascii	"h_16k_12k8_q15\000"
 15732      6B5F3132 
 15732      6B385F71 
 15732      313500
 15733              	.LASF95:
 15734 065e 72657361 		.ascii	"resample_x64k_12k8\000"
 15734      6D706C65 
 15734      5F783634 
 15734      6B5F3132 
 15734      6B3800
 15735              	.LASF24:
 15736 0671 6C63335F 		.ascii	"lc3_srate\000"
 15736      73726174 
 15736      6500
 15737              	.LASF4:
 15738 067b 756E7369 		.ascii	"unsigned char\000"
 15738      676E6564 
 15738      20636861 
 15738      7200
 15739              	.LASF90:
 15740 0689 795F656E 		.ascii	"y_end\000"
 15740      6400
 15741              	.LASF69:
 15742 068f 6C63335F 		.ascii	"lc3_ltpf_data_t\000"
 15742      6C747066 
 15742      5F646174 
 15742      615F7400 
 15743              	.LASF140:
 15744 069f 6C63335F 		.ascii	"lc3_ltpf_cden\000"
 15744      6C747066 
 15744      5F636465 
 15744      6E00
 15745              	.LASF139:
 15746 06ad 6C63335F 		.ascii	"lc3_ltpf_cnum\000"
ARM GAS  C:\Users\rdn\AppData\Local\Temp\ccIOjLNc.s 			page 310


 15746      6C747066 
 15746      5F636E75 
 15746      6D00
 15747              	.LASF141:
 15748 06bb 73717274 		.ascii	"sqrtf\000"
 15748      6600
 15749              	.LASF131:
 15750 06c1 685F3438 		.ascii	"h_48k_12k8_q15\000"
 15750      6B5F3132 
 15750      6B385F71 
 15750      313500
 15751              	.LASF102:
 15752 06d0 72656669 		.ascii	"refine_pitch\000"
 15752      6E655F70 
 15752      69746368 
 15752      00
 15753              	.LASF94:
 15754 06dd 73796E74 		.ascii	"synthesize_12\000"
 15754      68657369 
 15754      7A655F31 
 15754      3200
 15755              	.LASF25:
 15756 06eb 4C43335F 		.ascii	"LC3_SRATE_8K\000"
 15756      53524154 
 15756      455F384B 
 15756      00
 15757              	.LASF3:
 15758 06f8 7369676E 		.ascii	"signed char\000"
 15758      65642063 
 15758      68617200 
 15759              	.LASF107:
 15760 0704 6E5F366B 		.ascii	"n_6k4\000"
 15760      3400
 15761              	.LASF119:
 15762 070a 6C63335F 		.ascii	"lc3_ltpf_get_nbits\000"
 15762      6C747066 
 15762      5F676574 
 15762      5F6E6269 
 15762      747300
 15763              	.LASF8:
 15764 071d 73686F72 		.ascii	"short unsigned int\000"
 15764      7420756E 
 15764      7369676E 
 15764      65642069 
 15764      6E7400
 15765              	.LASF148:
 15766 0730 6D656D63 		.ascii	"memcpy\000"
 15766      707900
 15767              	.LASF48:
 15768 0737 4C43335F 		.ascii	"LC3_BITS_MODE_READ\000"
 15768      42495453 
 15768      5F4D4F44 
 15768      455F5245 
 15768      414400
 15769              	.LASF46:
 15770 074a 646F7562 		.ascii	"double\000"
 15770      6C6500
ARM GAS  C:\Users\rdn\AppData\Local\Temp\ccIOjLNc.s 			page 311


 15771              	.LASF31:
 15772 0751 4C43335F 		.ascii	"LC3_SRATE_96K_HR\000"
 15772      53524154 
 15772      455F3936 
 15772      4B5F4852 
 15772      00
 15773              	.LASF52:
 15774 0762 6C63335F 		.ascii	"lc3_bits_ac\000"
 15774      62697473 
 15774      5F616300 
 15775              	.LASF127:
 15776 076e 685F386B 		.ascii	"h_8k_12k8_q15\000"
 15776      5F31326B 
 15776      385F7131 
 15776      3500
 15777              	.LASF138:
 15778 077c 6C63335F 		.ascii	"lc3_frame_bytes_hr_lim\000"
 15778      6672616D 
 15778      655F6279 
 15778      7465735F 
 15778      68725F6C 
 15779              	.LASF34:
 15780 0793 6C63335F 		.ascii	"lc3_ltpf_analysis\000"
 15780      6C747066 
 15780      5F616E61 
 15780      6C797369 
 15780      7300
 15781              	.LASF60:
 15782 07a5 705F6677 		.ascii	"p_fw\000"
 15782      00
 15783              		.ident	"GCC: (GNU Tools for ARM Embedded Processors) 5.4.1 20160609 (release) [ARM/embedded-5-bran
