ARM GAS  C:\Users\rdn\AppData\Local\Temp\ccNOUFME.s 			page 1


   1              		.syntax unified
   2              		.cpu cortex-m4
   3              		.eabi_attribute 27, 1
   4              		.fpu fpv4-sp-d16
   5              		.eabi_attribute 20, 1
   6              		.eabi_attribute 21, 1
   7              		.eabi_attribute 23, 3
   8              		.eabi_attribute 24, 1
   9              		.eabi_attribute 25, 1
  10              		.eabi_attribute 26, 1
  11              		.eabi_attribute 30, 4
  12              		.eabi_attribute 34, 1
  13              		.eabi_attribute 18, 4
  14              		.thumb
  15              		.syntax unified
  16              		.file	"mdct.c"
  17              		.text
  18              	.Ltext0:
  19              		.cfi_sections	.debug_frame
  20              		.section	.text.fft,"ax",%progbits
  21              		.align	1
  22              		.thumb
  23              		.thumb_func
  24              		.type	fft, %function
  25              	fft:
  26              	.LFB23:
  27              		.file 1 "..\\..\\..\\liblc3\\src\\mdct.c"
   1:..\..\..\liblc3\src/mdct.c **** /******************************************************************************
   2:..\..\..\liblc3\src/mdct.c ****  *
   3:..\..\..\liblc3\src/mdct.c ****  *  Copyright 2022 Google LLC
   4:..\..\..\liblc3\src/mdct.c ****  *
   5:..\..\..\liblc3\src/mdct.c ****  *  Licensed under the Apache License, Version 2.0 (the "License");
   6:..\..\..\liblc3\src/mdct.c ****  *  you may not use this file except in compliance with the License.
   7:..\..\..\liblc3\src/mdct.c ****  *  You may obtain a copy of the License at:
   8:..\..\..\liblc3\src/mdct.c ****  *
   9:..\..\..\liblc3\src/mdct.c ****  *  http://www.apache.org/licenses/LICENSE-2.0
  10:..\..\..\liblc3\src/mdct.c ****  *
  11:..\..\..\liblc3\src/mdct.c ****  *  Unless required by applicable law or agreed to in writing, software
  12:..\..\..\liblc3\src/mdct.c ****  *  distributed under the License is distributed on an "AS IS" BASIS,
  13:..\..\..\liblc3\src/mdct.c ****  *  WITHOUT WARRANTIES OR CONDITIONS OF ANY KIND, either express or implied.
  14:..\..\..\liblc3\src/mdct.c ****  *  See the License for the specific language governing permissions and
  15:..\..\..\liblc3\src/mdct.c ****  *  limitations under the License.
  16:..\..\..\liblc3\src/mdct.c ****  *
  17:..\..\..\liblc3\src/mdct.c ****  ******************************************************************************/
  18:..\..\..\liblc3\src/mdct.c **** 
  19:..\..\..\liblc3\src/mdct.c **** #include "mdct.h"
  20:..\..\..\liblc3\src/mdct.c **** #include "tables.h"
  21:..\..\..\liblc3\src/mdct.c **** 
  22:..\..\..\liblc3\src/mdct.c **** #include "mdct_neon.h"
  23:..\..\..\liblc3\src/mdct.c **** 
  24:..\..\..\liblc3\src/mdct.c **** 
  25:..\..\..\liblc3\src/mdct.c **** /* ----------------------------------------------------------------------------
  26:..\..\..\liblc3\src/mdct.c ****  *  FFT processing
  27:..\..\..\liblc3\src/mdct.c ****  * -------------------------------------------------------------------------- */
  28:..\..\..\liblc3\src/mdct.c **** 
  29:..\..\..\liblc3\src/mdct.c **** /**
  30:..\..\..\liblc3\src/mdct.c ****  * FFT 5 Points
ARM GAS  C:\Users\rdn\AppData\Local\Temp\ccNOUFME.s 			page 2


  31:..\..\..\liblc3\src/mdct.c ****  * x, y            Input and output coefficients, of size 5xn
  32:..\..\..\liblc3\src/mdct.c ****  * n               Number of interleaved transform to perform (n % 2 = 0)
  33:..\..\..\liblc3\src/mdct.c ****  */
  34:..\..\..\liblc3\src/mdct.c **** #ifndef fft_5
  35:..\..\..\liblc3\src/mdct.c **** LC3_HOT static inline void fft_5(
  36:..\..\..\liblc3\src/mdct.c ****     const struct lc3_complex *x, struct lc3_complex *y, int n)
  37:..\..\..\liblc3\src/mdct.c **** {
  38:..\..\..\liblc3\src/mdct.c ****     static const float cos1 =  0.3090169944;  /* cos(-2Pi 1/5) */
  39:..\..\..\liblc3\src/mdct.c ****     static const float cos2 = -0.8090169944;  /* cos(-2Pi 2/5) */
  40:..\..\..\liblc3\src/mdct.c **** 
  41:..\..\..\liblc3\src/mdct.c ****     static const float sin1 = -0.9510565163;  /* sin(-2Pi 1/5) */
  42:..\..\..\liblc3\src/mdct.c ****     static const float sin2 = -0.5877852523;  /* sin(-2Pi 2/5) */
  43:..\..\..\liblc3\src/mdct.c **** 
  44:..\..\..\liblc3\src/mdct.c ****     for (int i = 0; i < n; i++, x++, y+= 5) {
  45:..\..\..\liblc3\src/mdct.c **** 
  46:..\..\..\liblc3\src/mdct.c ****         struct lc3_complex s14 =
  47:..\..\..\liblc3\src/mdct.c ****             { x[1*n].re + x[4*n].re, x[1*n].im + x[4*n].im };
  48:..\..\..\liblc3\src/mdct.c ****         struct lc3_complex d14 =
  49:..\..\..\liblc3\src/mdct.c ****             { x[1*n].re - x[4*n].re, x[1*n].im - x[4*n].im };
  50:..\..\..\liblc3\src/mdct.c **** 
  51:..\..\..\liblc3\src/mdct.c ****         struct lc3_complex s23 =
  52:..\..\..\liblc3\src/mdct.c ****             { x[2*n].re + x[3*n].re, x[2*n].im + x[3*n].im };
  53:..\..\..\liblc3\src/mdct.c ****         struct lc3_complex d23 =
  54:..\..\..\liblc3\src/mdct.c ****             { x[2*n].re - x[3*n].re, x[2*n].im - x[3*n].im };
  55:..\..\..\liblc3\src/mdct.c **** 
  56:..\..\..\liblc3\src/mdct.c ****         y[0].re = x[0].re + s14.re + s23.re;
  57:..\..\..\liblc3\src/mdct.c **** 
  58:..\..\..\liblc3\src/mdct.c ****         y[0].im = x[0].im + s14.im + s23.im;
  59:..\..\..\liblc3\src/mdct.c **** 
  60:..\..\..\liblc3\src/mdct.c ****         y[1].re = x[0].re + s14.re * cos1 - d14.im * sin1
  61:..\..\..\liblc3\src/mdct.c ****                           + s23.re * cos2 - d23.im * sin2;
  62:..\..\..\liblc3\src/mdct.c **** 
  63:..\..\..\liblc3\src/mdct.c ****         y[1].im = x[0].im + s14.im * cos1 + d14.re * sin1
  64:..\..\..\liblc3\src/mdct.c ****                           + s23.im * cos2 + d23.re * sin2;
  65:..\..\..\liblc3\src/mdct.c **** 
  66:..\..\..\liblc3\src/mdct.c ****         y[2].re = x[0].re + s14.re * cos2 - d14.im * sin2
  67:..\..\..\liblc3\src/mdct.c ****                           + s23.re * cos1 + d23.im * sin1;
  68:..\..\..\liblc3\src/mdct.c **** 
  69:..\..\..\liblc3\src/mdct.c ****         y[2].im = x[0].im + s14.im * cos2 + d14.re * sin2
  70:..\..\..\liblc3\src/mdct.c ****                           + s23.im * cos1 - d23.re * sin1;
  71:..\..\..\liblc3\src/mdct.c **** 
  72:..\..\..\liblc3\src/mdct.c ****         y[3].re = x[0].re + s14.re * cos2 + d14.im * sin2
  73:..\..\..\liblc3\src/mdct.c ****                           + s23.re * cos1 - d23.im * sin1;
  74:..\..\..\liblc3\src/mdct.c **** 
  75:..\..\..\liblc3\src/mdct.c ****         y[3].im = x[0].im + s14.im * cos2 - d14.re * sin2
  76:..\..\..\liblc3\src/mdct.c ****                           + s23.im * cos1 + d23.re * sin1;
  77:..\..\..\liblc3\src/mdct.c **** 
  78:..\..\..\liblc3\src/mdct.c ****         y[4].re = x[0].re + s14.re * cos1 + d14.im * sin1
  79:..\..\..\liblc3\src/mdct.c ****                           + s23.re * cos2 + d23.im * sin2;
  80:..\..\..\liblc3\src/mdct.c **** 
  81:..\..\..\liblc3\src/mdct.c ****         y[4].im = x[0].im + s14.im * cos1 - d14.re * sin1
  82:..\..\..\liblc3\src/mdct.c ****                           + s23.im * cos2 - d23.re * sin2;
  83:..\..\..\liblc3\src/mdct.c ****     }
  84:..\..\..\liblc3\src/mdct.c **** }
  85:..\..\..\liblc3\src/mdct.c **** #endif /* fft_5 */
  86:..\..\..\liblc3\src/mdct.c **** 
  87:..\..\..\liblc3\src/mdct.c **** /**
ARM GAS  C:\Users\rdn\AppData\Local\Temp\ccNOUFME.s 			page 3


  88:..\..\..\liblc3\src/mdct.c ****  * FFT Butterfly 3 Points
  89:..\..\..\liblc3\src/mdct.c ****  * x, y            Input and output coefficients
  90:..\..\..\liblc3\src/mdct.c ****  * twiddles        Twiddles factors, determine size of transform
  91:..\..\..\liblc3\src/mdct.c ****  * n               Number of interleaved transforms
  92:..\..\..\liblc3\src/mdct.c ****  */
  93:..\..\..\liblc3\src/mdct.c **** #ifndef fft_bf3
  94:..\..\..\liblc3\src/mdct.c **** LC3_HOT static inline void fft_bf3(
  95:..\..\..\liblc3\src/mdct.c ****     const struct lc3_fft_bf3_twiddles *twiddles,
  96:..\..\..\liblc3\src/mdct.c ****     const struct lc3_complex *x, struct lc3_complex *y, int n)
  97:..\..\..\liblc3\src/mdct.c **** {
  98:..\..\..\liblc3\src/mdct.c ****     int n3 = twiddles->n3;
  99:..\..\..\liblc3\src/mdct.c ****     const struct lc3_complex (*w0)[2] = twiddles->t;
 100:..\..\..\liblc3\src/mdct.c ****     const struct lc3_complex (*w1)[2] = w0 + n3, (*w2)[2] = w1 + n3;
 101:..\..\..\liblc3\src/mdct.c **** 
 102:..\..\..\liblc3\src/mdct.c ****     const struct lc3_complex *x0 = x, *x1 = x0 + n*n3, *x2 = x1 + n*n3;
 103:..\..\..\liblc3\src/mdct.c ****     struct lc3_complex *y0 = y, *y1 = y0 + n3, *y2 = y1 + n3;
 104:..\..\..\liblc3\src/mdct.c **** 
 105:..\..\..\liblc3\src/mdct.c ****     for (int i = 0; i < n; i++, y0 += 3*n3, y1 += 3*n3, y2 += 3*n3)
 106:..\..\..\liblc3\src/mdct.c ****         for (int j = 0; j < n3; j++, x0++, x1++, x2++) {
 107:..\..\..\liblc3\src/mdct.c **** 
 108:..\..\..\liblc3\src/mdct.c ****             y0[j].re = x0->re + x1->re * w0[j][0].re - x1->im * w0[j][0].im
 109:..\..\..\liblc3\src/mdct.c ****                               + x2->re * w0[j][1].re - x2->im * w0[j][1].im;
 110:..\..\..\liblc3\src/mdct.c **** 
 111:..\..\..\liblc3\src/mdct.c ****             y0[j].im = x0->im + x1->im * w0[j][0].re + x1->re * w0[j][0].im
 112:..\..\..\liblc3\src/mdct.c ****                               + x2->im * w0[j][1].re + x2->re * w0[j][1].im;
 113:..\..\..\liblc3\src/mdct.c **** 
 114:..\..\..\liblc3\src/mdct.c ****             y1[j].re = x0->re + x1->re * w1[j][0].re - x1->im * w1[j][0].im
 115:..\..\..\liblc3\src/mdct.c ****                               + x2->re * w1[j][1].re - x2->im * w1[j][1].im;
 116:..\..\..\liblc3\src/mdct.c **** 
 117:..\..\..\liblc3\src/mdct.c ****             y1[j].im = x0->im + x1->im * w1[j][0].re + x1->re * w1[j][0].im
 118:..\..\..\liblc3\src/mdct.c ****                               + x2->im * w1[j][1].re + x2->re * w1[j][1].im;
 119:..\..\..\liblc3\src/mdct.c **** 
 120:..\..\..\liblc3\src/mdct.c ****             y2[j].re = x0->re + x1->re * w2[j][0].re - x1->im * w2[j][0].im
 121:..\..\..\liblc3\src/mdct.c ****                               + x2->re * w2[j][1].re - x2->im * w2[j][1].im;
 122:..\..\..\liblc3\src/mdct.c **** 
 123:..\..\..\liblc3\src/mdct.c ****             y2[j].im = x0->im + x1->im * w2[j][0].re + x1->re * w2[j][0].im
 124:..\..\..\liblc3\src/mdct.c ****                               + x2->im * w2[j][1].re + x2->re * w2[j][1].im;
 125:..\..\..\liblc3\src/mdct.c ****         }
 126:..\..\..\liblc3\src/mdct.c **** }
 127:..\..\..\liblc3\src/mdct.c **** #endif /* fft_bf3 */
 128:..\..\..\liblc3\src/mdct.c **** 
 129:..\..\..\liblc3\src/mdct.c **** /**
 130:..\..\..\liblc3\src/mdct.c ****  * FFT Butterfly 2 Points
 131:..\..\..\liblc3\src/mdct.c ****  * twiddles        Twiddles factors, determine size of transform
 132:..\..\..\liblc3\src/mdct.c ****  * x, y            Input and output coefficients
 133:..\..\..\liblc3\src/mdct.c ****  * n               Number of interleaved transforms
 134:..\..\..\liblc3\src/mdct.c ****  */
 135:..\..\..\liblc3\src/mdct.c **** #ifndef fft_bf2
 136:..\..\..\liblc3\src/mdct.c **** LC3_HOT static inline void fft_bf2(
 137:..\..\..\liblc3\src/mdct.c ****     const struct lc3_fft_bf2_twiddles *twiddles,
 138:..\..\..\liblc3\src/mdct.c ****     const struct lc3_complex *x, struct lc3_complex *y, int n)
 139:..\..\..\liblc3\src/mdct.c **** {
 140:..\..\..\liblc3\src/mdct.c ****     int n2 = twiddles->n2;
 141:..\..\..\liblc3\src/mdct.c ****     const struct lc3_complex *w = twiddles->t;
 142:..\..\..\liblc3\src/mdct.c **** 
 143:..\..\..\liblc3\src/mdct.c ****     const struct lc3_complex *x0 = x, *x1 = x0 + n*n2;
 144:..\..\..\liblc3\src/mdct.c ****     struct lc3_complex *y0 = y, *y1 = y0 + n2;
ARM GAS  C:\Users\rdn\AppData\Local\Temp\ccNOUFME.s 			page 4


 145:..\..\..\liblc3\src/mdct.c **** 
 146:..\..\..\liblc3\src/mdct.c ****     for (int i = 0; i < n; i++, y0 += 2*n2, y1 += 2*n2) {
 147:..\..\..\liblc3\src/mdct.c **** 
 148:..\..\..\liblc3\src/mdct.c ****         for (int j = 0; j < n2; j++, x0++, x1++) {
 149:..\..\..\liblc3\src/mdct.c **** 
 150:..\..\..\liblc3\src/mdct.c ****             y0[j].re = x0->re + x1->re * w[j].re - x1->im * w[j].im;
 151:..\..\..\liblc3\src/mdct.c ****             y0[j].im = x0->im + x1->im * w[j].re + x1->re * w[j].im;
 152:..\..\..\liblc3\src/mdct.c **** 
 153:..\..\..\liblc3\src/mdct.c ****             y1[j].re = x0->re - x1->re * w[j].re + x1->im * w[j].im;
 154:..\..\..\liblc3\src/mdct.c ****             y1[j].im = x0->im - x1->im * w[j].re - x1->re * w[j].im;
 155:..\..\..\liblc3\src/mdct.c ****         }
 156:..\..\..\liblc3\src/mdct.c ****     }
 157:..\..\..\liblc3\src/mdct.c **** }
 158:..\..\..\liblc3\src/mdct.c **** #endif /* fft_bf2 */
 159:..\..\..\liblc3\src/mdct.c **** 
 160:..\..\..\liblc3\src/mdct.c **** /**
 161:..\..\..\liblc3\src/mdct.c ****  * Perform FFT
 162:..\..\..\liblc3\src/mdct.c ****  * x, y0, y1       Input, and 2 scratch buffers of size `n`
 163:..\..\..\liblc3\src/mdct.c ****  * n               Number of points 30, 40, 60, 80, 90, 120, 160, 180, 240, 480
 164:..\..\..\liblc3\src/mdct.c ****  * return          The buffer `y0` or `y1` that hold the result
 165:..\..\..\liblc3\src/mdct.c ****  *
 166:..\..\..\liblc3\src/mdct.c ****  * Input `x` can be the same as the `y0` second scratch buffer
 167:..\..\..\liblc3\src/mdct.c ****  */
 168:..\..\..\liblc3\src/mdct.c **** static struct lc3_complex *fft(const struct lc3_complex *x, int n,
 169:..\..\..\liblc3\src/mdct.c ****     struct lc3_complex *y0, struct lc3_complex *y1)
 170:..\..\..\liblc3\src/mdct.c **** {
  28              		.loc 1 170 0
  29              		.cfi_startproc
  30              		@ args = 0, pretend = 0, frame = 64
  31              		@ frame_needed = 0, uses_anonymous_args = 0
  32              	.LVL0:
  33 0000 2DE9F04F 		push	{r4, r5, r6, r7, r8, r9, r10, fp, lr}
  34              		.cfi_def_cfa_offset 36
  35              		.cfi_offset 4, -36
  36              		.cfi_offset 5, -32
  37              		.cfi_offset 6, -28
  38              		.cfi_offset 7, -24
  39              		.cfi_offset 8, -20
  40              		.cfi_offset 9, -16
  41              		.cfi_offset 10, -12
  42              		.cfi_offset 11, -8
  43              		.cfi_offset 14, -4
  44 0004 91B0     		sub	sp, sp, #68
  45              		.cfi_def_cfa_offset 104
  46 0006 1824     		movs	r4, #24
 171:..\..\..\liblc3\src/mdct.c ****     struct lc3_complex *y[2] = { y1, y0 };
  47              		.loc 1 171 0
  48 0008 0F92     		str	r2, [sp, #60]
  49              	.LVL1:
 172:..\..\..\liblc3\src/mdct.c ****     int i2, i3, is = 0;
 173:..\..\..\liblc3\src/mdct.c **** 
 174:..\..\..\liblc3\src/mdct.c ****     /* The number of points `n` can be decomposed as :
 175:..\..\..\liblc3\src/mdct.c ****      *
 176:..\..\..\liblc3\src/mdct.c ****      *   n = 5^1 * 3^n3 * 2^n2
 177:..\..\..\liblc3\src/mdct.c ****      *
 178:..\..\..\liblc3\src/mdct.c ****      *   for n = 10, 20, 40, 80, 160    n3 = 0, n2 = [1..5]
 179:..\..\..\liblc3\src/mdct.c ****      *       n = 30, 60, 120, 240, 480  n3 = 1, n2 = [1..5]
ARM GAS  C:\Users\rdn\AppData\Local\Temp\ccNOUFME.s 			page 5


 180:..\..\..\liblc3\src/mdct.c ****      *       n = 90, 180                n3 = 2, n2 = [1..2]
 181:..\..\..\liblc3\src/mdct.c ****      *
 182:..\..\..\liblc3\src/mdct.c ****      * Note that the expression `n & (n-1) == 0` is equivalent
 183:..\..\..\liblc3\src/mdct.c ****      * to the check that `n` is a power of 2. */
 184:..\..\..\liblc3\src/mdct.c **** 
 185:..\..\..\liblc3\src/mdct.c ****     fft_5(x, y[is], n /= 5);
  50              		.loc 1 185 0
  51 000a 0522     		movs	r2, #5
  52              	.LVL2:
  53 000c 91FBF2F1 		sdiv	r1, r1, r2
  54              	.LVL3:
  55              	.LBB28:
  56              	.LBB29:
  57              	.LBB30:
  58              	.LBB31:
  47:..\..\..\liblc3\src/mdct.c ****         struct lc3_complex d14 =
  59              		.loc 1 47 0
  60 0010 CA00     		lsls	r2, r1, #3
  61 0012 8618     		adds	r6, r0, r2
  62 0014 04FB0164 		mla	r4, r4, r1, r6
  63 0018 A4EB0115 		sub	r5, r4, r1, lsl #4
  60:..\..\..\liblc3\src/mdct.c ****                           + s23.re * cos2 - d23.im * sin2;
  64              		.loc 1 60 0
  65 001c 9FEDDF7A 		vldr.32	s14, .L23
  66 0020 9FEDDF6A 		vldr.32	s12, .L23+4
  67 0024 DFEDDF6A 		vldr.32	s13, .L23+8
  68 0028 DFEDDF5A 		vldr.32	s11, .L23+12
  63:..\..\..\liblc3\src/mdct.c ****                           + s23.im * cos2 + d23.re * sin2;
  69              		.loc 1 63 0
  70 002c 9FEDDF5A 		vldr.32	s10, .L23+16
  71 0030 DFEDDF4A 		vldr.32	s9, .L23+20
  72              	.LBE31:
  73              	.LBE30:
  74              	.LBE29:
  75              	.LBE28:
 171:..\..\..\liblc3\src/mdct.c ****     int i2, i3, is = 0;
  76              		.loc 1 171 0
  77 0034 0E93     		str	r3, [sp, #56]
  78 0036 2A44     		add	r2, r2, r5
  79              	.LBB36:
  80              	.LBB35:
  81              	.LBB34:
  44:..\..\..\liblc3\src/mdct.c **** 
  82              		.loc 1 44 0
  83 0038 0027     		movs	r7, #0
  84              	.LVL4:
  85              	.L2:
  86 003a B942     		cmp	r1, r7
  87 003c 00F10800 		add	r0, r0, #8
  88 0040 03F12803 		add	r3, r3, #40
  89              	.LVL5:
  90 0044 06F10806 		add	r6, r6, #8
  91              	.LVL6:
  92 0048 04F10804 		add	r4, r4, #8
  93 004c 05F10805 		add	r5, r5, #8
  94 0050 02F10802 		add	r2, r2, #8
  95 0054 40F39280 		ble	.L19
ARM GAS  C:\Users\rdn\AppData\Local\Temp\ccNOUFME.s 			page 6


  96              	.LBB32:
  47:..\..\..\liblc3\src/mdct.c ****         struct lc3_complex d14 =
  97              		.loc 1 47 0
  98 0058 54ED017A 		vldr.32	s15, [r4, #-4]
  99 005c 16ED011A 		vldr.32	s2, [r6, #-4]
 100 0060 14ED024A 		vldr.32	s8, [r4, #-8]
 101 0064 16ED023A 		vldr.32	s6, [r6, #-8]
  52:..\..\..\liblc3\src/mdct.c ****         struct lc3_complex d23 =
 102              		.loc 1 52 0
 103 0068 15ED012A 		vldr.32	s4, [r5, #-4]
 104 006c 15ED020A 		vldr.32	s0, [r5, #-8]
  47:..\..\..\liblc3\src/mdct.c ****         struct lc3_complex d14 =
 105              		.loc 1 47 0
 106 0070 71EE272A 		vadd.f32	s5, s2, s15
  49:..\..\..\liblc3\src/mdct.c **** 
 107              		.loc 1 49 0
 108 0074 31EE671A 		vsub.f32	s2, s2, s15
  52:..\..\..\liblc3\src/mdct.c ****         struct lc3_complex d23 =
 109              		.loc 1 52 0
 110 0078 52ED017A 		vldr.32	s15, [r2, #-4]
  47:..\..\..\liblc3\src/mdct.c ****         struct lc3_complex d14 =
 111              		.loc 1 47 0
 112 007c 73EE040A 		vadd.f32	s1, s6, s8
 113              	.LVL7:
  52:..\..\..\liblc3\src/mdct.c ****         struct lc3_complex d23 =
 114              		.loc 1 52 0
 115 0080 72EE273A 		vadd.f32	s7, s4, s15
  49:..\..\..\liblc3\src/mdct.c **** 
 116              		.loc 1 49 0
 117 0084 33EE443A 		vsub.f32	s6, s6, s8
 118              	.LVL8:
  54:..\..\..\liblc3\src/mdct.c **** 
 119              		.loc 1 54 0
 120 0088 32EE672A 		vsub.f32	s4, s4, s15
  52:..\..\..\liblc3\src/mdct.c ****         struct lc3_complex d23 =
 121              		.loc 1 52 0
 122 008c 12ED024A 		vldr.32	s8, [r2, #-8]
  56:..\..\..\liblc3\src/mdct.c **** 
 123              		.loc 1 56 0
 124 0090 50ED027A 		vldr.32	s15, [r0, #-8]
  52:..\..\..\liblc3\src/mdct.c ****         struct lc3_complex d23 =
 125              		.loc 1 52 0
 126 0094 70EE041A 		vadd.f32	s3, s0, s8
 127              	.LVL9:
  56:..\..\..\liblc3\src/mdct.c **** 
 128              		.loc 1 56 0
 129 0098 70EEA77A 		vadd.f32	s15, s1, s15
  54:..\..\..\liblc3\src/mdct.c **** 
 130              		.loc 1 54 0
 131 009c 30EE444A 		vsub.f32	s8, s0, s8
 132              	.LVL10:
  56:..\..\..\liblc3\src/mdct.c **** 
 133              		.loc 1 56 0
 134 00a0 77EEA17A 		vadd.f32	s15, s15, s3
 135              	.LBE32:
  44:..\..\..\liblc3\src/mdct.c **** 
 136              		.loc 1 44 0
ARM GAS  C:\Users\rdn\AppData\Local\Temp\ccNOUFME.s 			page 7


 137 00a4 0137     		adds	r7, r7, #1
 138              	.LVL11:
 139              	.LBB33:
  56:..\..\..\liblc3\src/mdct.c **** 
 140              		.loc 1 56 0
 141 00a6 43ED0A7A 		vstr.32	s15, [r3, #-40]
  58:..\..\..\liblc3\src/mdct.c **** 
 142              		.loc 1 58 0
 143 00aa 50ED017A 		vldr.32	s15, [r0, #-4]
 144 00ae 72EEA77A 		vadd.f32	s15, s5, s15
 145 00b2 77EEA37A 		vadd.f32	s15, s15, s7
 146 00b6 43ED097A 		vstr.32	s15, [r3, #-36]
  60:..\..\..\liblc3\src/mdct.c ****                           + s23.re * cos2 - d23.im * sin2;
 147              		.loc 1 60 0
 148 00ba 50ED027A 		vldr.32	s15, [r0, #-8]
 149 00be E0EE877A 		vfma.f32	s15, s1, s14
 150 00c2 E1EE067A 		vfma.f32	s15, s2, s12
 151 00c6 E1EEA67A 		vfma.f32	s15, s3, s13
 152 00ca E2EE257A 		vfma.f32	s15, s4, s11
 153 00ce 43ED087A 		vstr.32	s15, [r3, #-32]
  63:..\..\..\liblc3\src/mdct.c ****                           + s23.im * cos2 + d23.re * sin2;
 154              		.loc 1 63 0
 155 00d2 50ED017A 		vldr.32	s15, [r0, #-4]
 156 00d6 E2EE877A 		vfma.f32	s15, s5, s14
 157 00da E3EE057A 		vfma.f32	s15, s6, s10
 158 00de E3EEA67A 		vfma.f32	s15, s7, s13
 159 00e2 E4EE247A 		vfma.f32	s15, s8, s9
 160 00e6 43ED077A 		vstr.32	s15, [r3, #-28]
  66:..\..\..\liblc3\src/mdct.c ****                           + s23.re * cos1 + d23.im * sin1;
 161              		.loc 1 66 0
 162 00ea 50ED027A 		vldr.32	s15, [r0, #-8]
 163 00ee E0EEA67A 		vfma.f32	s15, s1, s13
 164 00f2 E1EE257A 		vfma.f32	s15, s2, s11
 165 00f6 E1EE877A 		vfma.f32	s15, s3, s14
 166 00fa E2EE057A 		vfma.f32	s15, s4, s10
 167 00fe 43ED067A 		vstr.32	s15, [r3, #-24]
  69:..\..\..\liblc3\src/mdct.c ****                           + s23.im * cos1 - d23.re * sin1;
 168              		.loc 1 69 0
 169 0102 50ED017A 		vldr.32	s15, [r0, #-4]
 170 0106 E2EEA67A 		vfma.f32	s15, s5, s13
 171 010a E3EE247A 		vfma.f32	s15, s6, s9
 172 010e E3EE877A 		vfma.f32	s15, s7, s14
 173 0112 E4EE067A 		vfma.f32	s15, s8, s12
 174 0116 43ED057A 		vstr.32	s15, [r3, #-20]
  72:..\..\..\liblc3\src/mdct.c ****                           + s23.re * cos1 - d23.im * sin1;
 175              		.loc 1 72 0
 176 011a 50ED027A 		vldr.32	s15, [r0, #-8]
 177 011e E0EEA67A 		vfma.f32	s15, s1, s13
 178 0122 E1EE247A 		vfma.f32	s15, s2, s9
 179 0126 E1EE877A 		vfma.f32	s15, s3, s14
 180 012a E2EE067A 		vfma.f32	s15, s4, s12
 181 012e 43ED047A 		vstr.32	s15, [r3, #-16]
  75:..\..\..\liblc3\src/mdct.c ****                           + s23.im * cos1 + d23.re * sin1;
 182              		.loc 1 75 0
 183 0132 50ED017A 		vldr.32	s15, [r0, #-4]
 184 0136 E2EEA67A 		vfma.f32	s15, s5, s13
 185 013a E3EE257A 		vfma.f32	s15, s6, s11
ARM GAS  C:\Users\rdn\AppData\Local\Temp\ccNOUFME.s 			page 8


 186 013e E3EE877A 		vfma.f32	s15, s7, s14
 187 0142 E4EE057A 		vfma.f32	s15, s8, s10
 188 0146 43ED037A 		vstr.32	s15, [r3, #-12]
  78:..\..\..\liblc3\src/mdct.c ****                           + s23.re * cos2 + d23.im * sin2;
 189              		.loc 1 78 0
 190 014a 50ED027A 		vldr.32	s15, [r0, #-8]
 191 014e E0EE877A 		vfma.f32	s15, s1, s14
 192 0152 E1EE057A 		vfma.f32	s15, s2, s10
 193 0156 E1EEA67A 		vfma.f32	s15, s3, s13
 194 015a E2EE247A 		vfma.f32	s15, s4, s9
 195 015e 43ED027A 		vstr.32	s15, [r3, #-8]
  81:..\..\..\liblc3\src/mdct.c ****                           + s23.im * cos2 - d23.re * sin2;
 196              		.loc 1 81 0
 197 0162 50ED017A 		vldr.32	s15, [r0, #-4]
 198 0166 E2EE877A 		vfma.f32	s15, s5, s14
 199 016a E3EE067A 		vfma.f32	s15, s6, s12
 200 016e E3EEA67A 		vfma.f32	s15, s7, s13
 201 0172 E4EE257A 		vfma.f32	s15, s8, s11
 202 0176 43ED017A 		vstr.32	s15, [r3, #-4]
 203 017a 5EE7     		b	.L2
 204              	.LVL12:
 205              	.L19:
 206              	.LBE33:
  44:..\..\..\liblc3\src/mdct.c **** 
 207              		.loc 1 44 0 discriminator 1
 208 017c 4FF0000A 		mov	r10, #0
 209 0180 D346     		mov	fp, r10
 210              	.LVL13:
 211              	.L4:
 212              	.LBE34:
 213              	.LBE35:
 214              	.LBE36:
 186:..\..\..\liblc3\src/mdct.c **** 
 187:..\..\..\liblc3\src/mdct.c ****     for (i3 = 0; n & (n-1); i3++, is ^= 1)
 215              		.loc 1 187 0 discriminator 1
 216 0182 4B1E     		subs	r3, r1, #1
 217 0184 4FEA8B02 		lsl	r2, fp, #2
 218 0188 0B40     		ands	r3, r3, r1
 219 018a 0592     		str	r2, [sp, #20]
 220 018c 00F02281 		beq	.L17
 188:..\..\..\liblc3\src/mdct.c ****         fft_bf3(lc3_fft_twiddles_bf3[i3], y[is], y[is ^ 1], n /= 3);
 221              		.loc 1 188 0 discriminator 3
 222 0190 884B     		ldr	r3, .L23+24
 223 0192 10AA     		add	r2, sp, #64
 224 0194 53F82B30 		ldr	r3, [r3, fp, lsl #2]
 225 0198 02EB8A02 		add	r2, r2, r10, lsl #2
 226              	.LBB37:
 227              	.LBB38:
  98:..\..\..\liblc3\src/mdct.c ****     const struct lc3_complex (*w0)[2] = twiddles->t;
 228              		.loc 1 98 0 discriminator 3
 229 019c 1F68     		ldr	r7, [r3]
 230              	.LBE38:
 231              	.LBE37:
 232              		.loc 1 188 0 discriminator 3
 233 019e 52F8088C 		ldr	r8, [r2, #-8]
 234              	.LBB47:
 235              	.LBB43:
ARM GAS  C:\Users\rdn\AppData\Local\Temp\ccNOUFME.s 			page 9


  99:..\..\..\liblc3\src/mdct.c ****     const struct lc3_complex (*w1)[2] = w0 + n3, (*w2)[2] = w1 + n3;
 236              		.loc 1 99 0 discriminator 3
 237 01a2 5B68     		ldr	r3, [r3, #4]
 238 01a4 0B93     		str	r3, [sp, #44]
 239              	.LBE43:
 240              	.LBE47:
 241              		.loc 1 188 0 discriminator 3
 242 01a6 8AF0010A 		eor	r10, r10, #1
 243              	.LVL14:
 244 01aa 10AA     		add	r2, sp, #64
 245 01ac 02EB8A02 		add	r2, r2, r10, lsl #2
 246              	.LBB48:
 247              	.LBB44:
 100:..\..\..\liblc3\src/mdct.c **** 
 248              		.loc 1 100 0 discriminator 3
 249 01b0 3B01     		lsls	r3, r7, #4
 250 01b2 0D93     		str	r3, [sp, #52]
 251 01b4 0B9B     		ldr	r3, [sp, #44]
 252              	.LBE44:
 253              	.LBE48:
 254              		.loc 1 188 0 discriminator 3
 255 01b6 52F808CC 		ldr	ip, [r2, #-8]
 256 01ba 0322     		movs	r2, #3
 257 01bc 91FBF2F1 		sdiv	r1, r1, r2
 258              	.LVL15:
 259              	.LBB49:
 260              	.LBB45:
 100:..\..\..\liblc3\src/mdct.c **** 
 261              		.loc 1 100 0 discriminator 3
 262 01c0 3A01     		lsls	r2, r7, #4
 263 01c2 1344     		add	r3, r3, r2
 264              	.LVL16:
 265 01c4 0C93     		str	r3, [sp, #48]
 266              	.LVL17:
 102:..\..\..\liblc3\src/mdct.c ****     struct lc3_complex *y0 = y, *y1 = y0 + n3, *y2 = y1 + n3;
 267              		.loc 1 102 0 discriminator 3
 268 01c6 01FB07F3 		mul	r3, r1, r7
 269              	.LVL18:
 270 01ca 08EBC302 		add	r2, r8, r3, lsl #3
 271              	.LVL19:
 272 01ce 08EB0313 		add	r3, r8, r3, lsl #4
 273 01d2 0A93     		str	r3, [sp, #40]
 103:..\..\..\liblc3\src/mdct.c **** 
 274              		.loc 1 103 0 discriminator 3
 275 01d4 0CEBC703 		add	r3, ip, r7, lsl #3
 276 01d8 0593     		str	r3, [sp, #20]
 277 01da 0CEB0713 		add	r3, ip, r7, lsl #4
 278 01de 0793     		str	r3, [sp, #28]
 279              	.LBB39:
 105:..\..\..\liblc3\src/mdct.c ****         for (int j = 0; j < n3; j++, x0++, x1++, x2++) {
 280              		.loc 1 105 0 discriminator 3
 281 01e0 1823     		movs	r3, #24
 282 01e2 7B43     		muls	r3, r7, r3
 283 01e4 0993     		str	r3, [sp, #36]
 284 01e6 27EAE77E 		bic	lr, r7, r7, asr #31
 285 01ea 0023     		movs	r3, #0
 286              	.LBE39:
ARM GAS  C:\Users\rdn\AppData\Local\Temp\ccNOUFME.s 			page 10


 102:..\..\..\liblc3\src/mdct.c ****     struct lc3_complex *y0 = y, *y1 = y0 + n3, *y2 = y1 + n3;
 287              		.loc 1 102 0 discriminator 3
 288 01ec 0492     		str	r2, [sp, #16]
 289              	.LVL20:
 290 01ee 4FEACE0E 		lsl	lr, lr, #3
 291              	.LBB41:
 105:..\..\..\liblc3\src/mdct.c ****         for (int j = 0; j < n3; j++, x0++, x1++, x2++) {
 292              		.loc 1 105 0 discriminator 3
 293 01f2 0893     		str	r3, [sp, #32]
 294              	.LVL21:
 295              	.L5:
 105:..\..\..\liblc3\src/mdct.c ****         for (int j = 0; j < n3; j++, x0++, x1++, x2++) {
 296              		.loc 1 105 0 is_stmt 0
 297 01f4 089B     		ldr	r3, [sp, #32]
 298 01f6 9942     		cmp	r1, r3
 299 01f8 40F3CD80 		ble	.L7
 300 01fc 0C98     		ldr	r0, [sp, #48]
 301 01fe 0190     		str	r0, [sp, #4]
 302 0200 0598     		ldr	r0, [sp, #20]
 303 0202 0290     		str	r0, [sp, #8]
 304 0204 0D9C     		ldr	r4, [sp, #52]
 305 0206 0C98     		ldr	r0, [sp, #48]
 306 0208 049A     		ldr	r2, [sp, #16]
 307 020a 0A9B     		ldr	r3, [sp, #40]
 308 020c 0B9D     		ldr	r5, [sp, #44]
 309 020e 0444     		add	r4, r4, r0
 310 0210 0798     		ldr	r0, [sp, #28]
 311 0212 0390     		str	r0, [sp, #12]
 312 0214 4646     		mov	r6, r8
 313 0216 E146     		mov	r9, ip
 314 0218 0020     		movs	r0, #0
 315              	.LVL22:
 316              	.L16:
 317              	.LBB40:
 106:..\..\..\liblc3\src/mdct.c **** 
 318              		.loc 1 106 0 is_stmt 1
 319 021a 0690     		str	r0, [sp, #24]
 320              	.LVL23:
 321 021c 0198     		ldr	r0, [sp, #4]
 322              	.LVL24:
 323 021e 1030     		adds	r0, r0, #16
 324 0220 0190     		str	r0, [sp, #4]
 325 0222 0298     		ldr	r0, [sp, #8]
 326 0224 0830     		adds	r0, r0, #8
 327 0226 0290     		str	r0, [sp, #8]
 328 0228 0398     		ldr	r0, [sp, #12]
 329 022a 0830     		adds	r0, r0, #8
 330 022c 0390     		str	r0, [sp, #12]
 331 022e 0698     		ldr	r0, [sp, #24]
 332 0230 8742     		cmp	r7, r0
 333 0232 06F10806 		add	r6, r6, #8
 334              	.LVL25:
 335 0236 02F10802 		add	r2, r2, #8
 336 023a 03F10803 		add	r3, r3, #8
 337 023e 05F11005 		add	r5, r5, #16
 338 0242 09F10809 		add	r9, r9, #8
 339 0246 04F11004 		add	r4, r4, #16
ARM GAS  C:\Users\rdn\AppData\Local\Temp\ccNOUFME.s 			page 11


 340 024a 40F39080 		ble	.L20
 108:..\..\..\liblc3\src/mdct.c ****                               + x2->re * w0[j][1].re - x2->im * w0[j][1].im;
 341              		.loc 1 108 0
 342 024e 52ED024A 		vldr.32	s9, [r2, #-8]
 343 0252 15ED045A 		vldr.32	s10, [r5, #-16]
 344 0256 56ED027A 		vldr.32	s15, [r6, #-8]
 345 025a 52ED015A 		vldr.32	s11, [r2, #-4]
 346 025e 15ED036A 		vldr.32	s12, [r5, #-12]
 109:..\..\..\liblc3\src/mdct.c **** 
 347              		.loc 1 109 0
 348 0262 53ED016A 		vldr.32	s13, [r3, #-4]
 349 0266 15ED017A 		vldr.32	s14, [r5, #-4]
 114:..\..\..\liblc3\src/mdct.c ****                               + x2->re * w1[j][1].re - x2->im * w1[j][1].im;
 350              		.loc 1 114 0
 351 026a 0198     		ldr	r0, [sp, #4]
 108:..\..\..\liblc3\src/mdct.c ****                               + x2->re * w0[j][1].re - x2->im * w0[j][1].im;
 352              		.loc 1 108 0
 353 026c E4EE857A 		vfma.f32	s15, s9, s10
 354 0270 53ED024A 		vldr.32	s9, [r3, #-8]
 355 0274 15ED025A 		vldr.32	s10, [r5, #-8]
 356 0278 E5EEC67A 		vfms.f32	s15, s11, s12
 357 027c E4EE857A 		vfma.f32	s15, s9, s10
 358 0280 E6EEC77A 		vfms.f32	s15, s13, s14
 359 0284 49ED027A 		vstr.32	s15, [r9, #-8]
 111:..\..\..\liblc3\src/mdct.c ****                               + x2->im * w0[j][1].re + x2->re * w0[j][1].im;
 360              		.loc 1 111 0
 361 0288 15ED044A 		vldr.32	s8, [r5, #-16]
 362 028c 56ED017A 		vldr.32	s15, [r6, #-4]
 363 0290 52ED024A 		vldr.32	s9, [r2, #-8]
 112:..\..\..\liblc3\src/mdct.c **** 
 364              		.loc 1 112 0
 365 0294 13ED025A 		vldr.32	s10, [r3, #-8]
 111:..\..\..\liblc3\src/mdct.c ****                               + x2->im * w0[j][1].re + x2->re * w0[j][1].im;
 366              		.loc 1 111 0
 367 0298 E5EE847A 		vfma.f32	s15, s11, s8
 368 029c E6EE247A 		vfma.f32	s15, s12, s9
 369 02a0 15ED026A 		vldr.32	s12, [r5, #-8]
 370 02a4 E6EE867A 		vfma.f32	s15, s13, s12
 371 02a8 E7EE057A 		vfma.f32	s15, s14, s10
 372 02ac 49ED017A 		vstr.32	s15, [r9, #-4]
 114:..\..\..\liblc3\src/mdct.c ****                               + x2->re * w1[j][1].re - x2->im * w1[j][1].im;
 373              		.loc 1 114 0
 374 02b0 10ED044A 		vldr.32	s8, [r0, #-16]
 375 02b4 56ED027A 		vldr.32	s15, [r6, #-8]
 376 02b8 52ED015A 		vldr.32	s11, [r2, #-4]
 377 02bc 10ED036A 		vldr.32	s12, [r0, #-12]
 115:..\..\..\liblc3\src/mdct.c **** 
 378              		.loc 1 115 0
 379 02c0 53ED016A 		vldr.32	s13, [r3, #-4]
 380 02c4 10ED017A 		vldr.32	s14, [r0, #-4]
 114:..\..\..\liblc3\src/mdct.c ****                               + x2->re * w1[j][1].re - x2->im * w1[j][1].im;
 381              		.loc 1 114 0
 382 02c8 E4EE847A 		vfma.f32	s15, s9, s8
 383 02cc 50ED024A 		vldr.32	s9, [r0, #-8]
 384 02d0 0298     		ldr	r0, [sp, #8]
 385 02d2 E5EEC67A 		vfms.f32	s15, s11, s12
 386 02d6 E5EE247A 		vfma.f32	s15, s10, s9
ARM GAS  C:\Users\rdn\AppData\Local\Temp\ccNOUFME.s 			page 12


 387 02da E6EEC77A 		vfms.f32	s15, s13, s14
 388 02de 40ED027A 		vstr.32	s15, [r0, #-8]
 117:..\..\..\liblc3\src/mdct.c ****                               + x2->im * w1[j][1].re + x2->re * w1[j][1].im;
 389              		.loc 1 117 0
 390 02e2 0198     		ldr	r0, [sp, #4]
 391 02e4 56ED017A 		vldr.32	s15, [r6, #-4]
 392 02e8 10ED044A 		vldr.32	s8, [r0, #-16]
 393 02ec 52ED024A 		vldr.32	s9, [r2, #-8]
 118:..\..\..\liblc3\src/mdct.c **** 
 394              		.loc 1 118 0
 395 02f0 13ED025A 		vldr.32	s10, [r3, #-8]
 117:..\..\..\liblc3\src/mdct.c ****                               + x2->im * w1[j][1].re + x2->re * w1[j][1].im;
 396              		.loc 1 117 0
 397 02f4 E5EE847A 		vfma.f32	s15, s11, s8
 398 02f8 E6EE247A 		vfma.f32	s15, s12, s9
 399 02fc 10ED026A 		vldr.32	s12, [r0, #-8]
 400 0300 0298     		ldr	r0, [sp, #8]
 401 0302 E6EE867A 		vfma.f32	s15, s13, s12
 402 0306 E7EE057A 		vfma.f32	s15, s14, s10
 403 030a 40ED017A 		vstr.32	s15, [r0, #-4]
 120:..\..\..\liblc3\src/mdct.c ****                               + x2->re * w2[j][1].re - x2->im * w2[j][1].im;
 404              		.loc 1 120 0
 405 030e 14ED044A 		vldr.32	s8, [r4, #-16]
 406 0312 56ED027A 		vldr.32	s15, [r6, #-8]
 407 0316 52ED015A 		vldr.32	s11, [r2, #-4]
 408 031a 14ED036A 		vldr.32	s12, [r4, #-12]
 121:..\..\..\liblc3\src/mdct.c **** 
 409              		.loc 1 121 0
 410 031e 53ED016A 		vldr.32	s13, [r3, #-4]
 411 0322 14ED017A 		vldr.32	s14, [r4, #-4]
 120:..\..\..\liblc3\src/mdct.c ****                               + x2->re * w2[j][1].re - x2->im * w2[j][1].im;
 412              		.loc 1 120 0
 413 0326 0398     		ldr	r0, [sp, #12]
 414 0328 E4EE847A 		vfma.f32	s15, s9, s8
 415 032c 54ED024A 		vldr.32	s9, [r4, #-8]
 416 0330 E5EEC67A 		vfms.f32	s15, s11, s12
 417 0334 E5EE247A 		vfma.f32	s15, s10, s9
 418 0338 E6EEC77A 		vfms.f32	s15, s13, s14
 419 033c 40ED027A 		vstr.32	s15, [r0, #-8]
 123:..\..\..\liblc3\src/mdct.c ****                               + x2->im * w2[j][1].re + x2->re * w2[j][1].im;
 420              		.loc 1 123 0
 421 0340 14ED045A 		vldr.32	s10, [r4, #-16]
 422 0344 56ED017A 		vldr.32	s15, [r6, #-4]
 423 0348 E5EE857A 		vfma.f32	s15, s11, s10
 424 034c 52ED025A 		vldr.32	s11, [r2, #-8]
 425 0350 E6EE257A 		vfma.f32	s15, s12, s11
 426 0354 14ED026A 		vldr.32	s12, [r4, #-8]
 427 0358 E6EE867A 		vfma.f32	s15, s13, s12
 428 035c 53ED026A 		vldr.32	s13, [r3, #-8]
 429 0360 E7EE267A 		vfma.f32	s15, s14, s13
 430 0364 40ED017A 		vstr.32	s15, [r0, #-4]
 106:..\..\..\liblc3\src/mdct.c **** 
 431              		.loc 1 106 0
 432 0368 0698     		ldr	r0, [sp, #24]
 433 036a 0130     		adds	r0, r0, #1
 434 036c 55E7     		b	.L16
 435              	.LVL26:
ARM GAS  C:\Users\rdn\AppData\Local\Temp\ccNOUFME.s 			page 13


 436              	.L20:
 437 036e 049B     		ldr	r3, [sp, #16]
 438              	.LBE40:
 105:..\..\..\liblc3\src/mdct.c ****         for (int j = 0; j < n3; j++, x0++, x1++, x2++) {
 439              		.loc 1 105 0
 440 0370 099A     		ldr	r2, [sp, #36]
 441 0372 7344     		add	r3, r3, lr
 442 0374 0493     		str	r3, [sp, #16]
 443 0376 0A9B     		ldr	r3, [sp, #40]
 444 0378 7344     		add	r3, r3, lr
 445 037a 0A93     		str	r3, [sp, #40]
 446 037c 089B     		ldr	r3, [sp, #32]
 447 037e 0133     		adds	r3, r3, #1
 448 0380 0893     		str	r3, [sp, #32]
 449              	.LVL27:
 450 0382 099B     		ldr	r3, [sp, #36]
 451              	.LVL28:
 452 0384 9C44     		add	ip, ip, r3
 453              	.LVL29:
 454 0386 059B     		ldr	r3, [sp, #20]
 455 0388 1344     		add	r3, r3, r2
 456 038a 0593     		str	r3, [sp, #20]
 457              	.LVL30:
 458 038c 079B     		ldr	r3, [sp, #28]
 459              	.LVL31:
 460 038e 1344     		add	r3, r3, r2
 461 0390 F044     		add	r8, r8, lr
 462 0392 0793     		str	r3, [sp, #28]
 463              	.LVL32:
 464 0394 2EE7     		b	.L5
 465              	.LVL33:
 466              	.L7:
 467              	.LBE41:
 468              	.LBE45:
 469              	.LBE49:
 187:..\..\..\liblc3\src/mdct.c ****         fft_bf3(lc3_fft_twiddles_bf3[i3], y[is], y[is ^ 1], n /= 3);
 470              		.loc 1 187 0 discriminator 3
 471 0396 0BF1010B 		add	fp, fp, #1
 472              	.LVL34:
 473 039a F2E6     		b	.L4
 474              	.L24:
 475              		.align	2
 476              	.L23:
 477 039c 7A379E3E 		.word	1050556282
 478 03a0 7178733F 		.word	1064532081
 479 03a4 BD1B4FBF 		.word	-1085334595
 480 03a8 1879163F 		.word	1058437400
 481 03ac 717873BF 		.word	-1082951567
 482 03b0 187916BF 		.word	-1089046248
 483 03b4 00000000 		.word	lc3_fft_twiddles_bf3
 484              	.LVL35:
 485              	.L22:
 486              	.LBB50:
 487              	.LBB51:
 488              	.LBB52:
 146:..\..\..\liblc3\src/mdct.c **** 
 489              		.loc 1 146 0
ARM GAS  C:\Users\rdn\AppData\Local\Temp\ccNOUFME.s 			page 14


 490 03b8 039B     		ldr	r3, [sp, #12]
 491 03ba 039A     		ldr	r2, [sp, #12]
 492 03bc 9E44     		add	lr, lr, r3
 493              	.LVL36:
 494 03be 029B     		ldr	r3, [sp, #8]
 495 03c0 0BF1010B 		add	fp, fp, #1
 496              	.LVL37:
 497 03c4 1344     		add	r3, r3, r2
 498 03c6 5945     		cmp	r1, fp
 499 03c8 C444     		add	ip, ip, r8
 500 03ca 4444     		add	r4, r4, r8
 501 03cc 0293     		str	r3, [sp, #8]
 502              	.LVL38:
 503 03ce 28D1     		bne	.L11
 504              	.LVL39:
 505 03d0 019B     		ldr	r3, [sp, #4]
 506 03d2 0C33     		adds	r3, r3, #12
 507              	.LVL40:
 508              	.L17:
 509              	.LBE52:
 510              	.LBE51:
 511              	.LBE50:
 189:..\..\..\liblc3\src/mdct.c **** 
 190:..\..\..\liblc3\src/mdct.c ****     for (i2 = 0; n > 1; i2++, is ^= 1)
 512              		.loc 1 190 0 discriminator 3
 513 03d4 0129     		cmp	r1, #1
 514 03d6 0193     		str	r3, [sp, #4]
 515 03d8 4FEA8A03 		lsl	r3, r10, #2
 516 03dc 6BDD     		ble	.L21
 191:..\..\..\liblc3\src/mdct.c ****         fft_bf2(lc3_fft_twiddles_bf2[i2][i3], y[is], y[is ^ 1], n >>= 1);
 517              		.loc 1 191 0 discriminator 3
 518 03de 3948     		ldr	r0, .L25
 519 03e0 019A     		ldr	r2, [sp, #4]
 520 03e2 0244     		add	r2, r2, r0
 521 03e4 0598     		ldr	r0, [sp, #20]
 522 03e6 1258     		ldr	r2, [r2, r0]
 523 03e8 10A8     		add	r0, sp, #64
 524 03ea 0344     		add	r3, r3, r0
 525 03ec 8AF0010A 		eor	r10, r10, #1
 526              	.LVL41:
 527 03f0 53F808CC 		ldr	ip, [r3, #-8]
 528              	.LBB60:
 529              	.LBB57:
 140:..\..\..\liblc3\src/mdct.c ****     const struct lc3_complex *w = twiddles->t;
 530              		.loc 1 140 0 discriminator 3
 531 03f4 1568     		ldr	r5, [r2]
 532              	.LBE57:
 533              	.LBE60:
 534              		.loc 1 191 0 discriminator 3
 535 03f6 00EB8A03 		add	r3, r0, r10, lsl #2
 536 03fa 4910     		asrs	r1, r1, #1
 537              	.LVL42:
 538 03fc 53F808EC 		ldr	lr, [r3, #-8]
 539              	.LVL43:
 540              	.LBB61:
 541              	.LBB58:
 141:..\..\..\liblc3\src/mdct.c **** 
ARM GAS  C:\Users\rdn\AppData\Local\Temp\ccNOUFME.s 			page 15


 542              		.loc 1 141 0 discriminator 3
 543 0400 5368     		ldr	r3, [r2, #4]
 544 0402 0493     		str	r3, [sp, #16]
 545              	.LVL44:
 144:..\..\..\liblc3\src/mdct.c **** 
 546              		.loc 1 144 0 discriminator 3
 547 0404 0EEBC503 		add	r3, lr, r5, lsl #3
 548              	.LVL45:
 143:..\..\..\liblc3\src/mdct.c ****     struct lc3_complex *y0 = y, *y1 = y0 + n2;
 549              		.loc 1 143 0 discriminator 3
 550 0408 01FB05F4 		mul	r4, r1, r5
 144:..\..\..\liblc3\src/mdct.c **** 
 551              		.loc 1 144 0 discriminator 3
 552 040c 0293     		str	r3, [sp, #8]
 553 040e 25EAE578 		bic	r8, r5, r5, asr #31
 554              	.LBB54:
 146:..\..\..\liblc3\src/mdct.c **** 
 555              		.loc 1 146 0 discriminator 3
 556 0412 2B01     		lsls	r3, r5, #4
 557              	.LBE54:
 143:..\..\..\liblc3\src/mdct.c ****     struct lc3_complex *y0 = y, *y1 = y0 + n2;
 558              		.loc 1 143 0 discriminator 3
 559 0414 0CEBC404 		add	r4, ip, r4, lsl #3
 560              	.LVL46:
 561              	.LBB55:
 146:..\..\..\liblc3\src/mdct.c **** 
 562              		.loc 1 146 0 discriminator 3
 563 0418 0393     		str	r3, [sp, #12]
 564 041a 4FEAC808 		lsl	r8, r8, #3
 565 041e 4FF0000B 		mov	fp, #0
 566              	.LVL47:
 567              	.L11:
 568 0422 049B     		ldr	r3, [sp, #16]
 569 0424 029E     		ldr	r6, [sp, #8]
 570 0426 6046     		mov	r0, ip
 571 0428 2246     		mov	r2, r4
 572 042a 7746     		mov	r7, lr
 573              	.LBE55:
 574              	.LBE58:
 575              	.LBE61:
 576              	.LBB62:
 577              	.LBB46:
 578              	.LBB42:
 105:..\..\..\liblc3\src/mdct.c ****         for (int j = 0; j < n3; j++, x0++, x1++, x2++) {
 579              		.loc 1 105 0
 580 042c 4FF00009 		mov	r9, #0
 581              	.LVL48:
 582              	.L14:
 583              	.LBE42:
 584              	.LBE46:
 585              	.LBE62:
 586              	.LBB63:
 587              	.LBB59:
 588              	.LBB56:
 589              	.LBB53:
 148:..\..\..\liblc3\src/mdct.c **** 
 590              		.loc 1 148 0
ARM GAS  C:\Users\rdn\AppData\Local\Temp\ccNOUFME.s 			page 16


 591 0430 4D45     		cmp	r5, r9
 592 0432 00F10800 		add	r0, r0, #8
 593              	.LVL49:
 594 0436 02F10802 		add	r2, r2, #8
 595 043a 03F10803 		add	r3, r3, #8
 596 043e 07F10807 		add	r7, r7, #8
 597 0442 06F10806 		add	r6, r6, #8
 598 0446 B7DD     		ble	.L22
 150:..\..\..\liblc3\src/mdct.c ****             y0[j].im = x0->im + x1->im * w[j].re + x1->re * w[j].im;
 599              		.loc 1 150 0
 600 0448 52ED025A 		vldr.32	s11, [r2, #-8]
 601 044c 13ED026A 		vldr.32	s12, [r3, #-8]
 602 0450 50ED027A 		vldr.32	s15, [r0, #-8]
 603 0454 52ED016A 		vldr.32	s13, [r2, #-4]
 604 0458 13ED017A 		vldr.32	s14, [r3, #-4]
 605 045c E5EE867A 		vfma.f32	s15, s11, s12
 148:..\..\..\liblc3\src/mdct.c **** 
 606              		.loc 1 148 0
 607 0460 09F10109 		add	r9, r9, #1
 608              	.LVL50:
 150:..\..\..\liblc3\src/mdct.c ****             y0[j].im = x0->im + x1->im * w[j].re + x1->re * w[j].im;
 609              		.loc 1 150 0
 610 0464 E6EEC77A 		vfms.f32	s15, s13, s14
 611 0468 47ED027A 		vstr.32	s15, [r7, #-8]
 151:..\..\..\liblc3\src/mdct.c **** 
 612              		.loc 1 151 0
 613 046c 53ED025A 		vldr.32	s11, [r3, #-8]
 614 0470 50ED017A 		vldr.32	s15, [r0, #-4]
 615 0474 12ED026A 		vldr.32	s12, [r2, #-8]
 616 0478 E6EEA57A 		vfma.f32	s15, s13, s11
 617 047c E7EE067A 		vfma.f32	s15, s14, s12
 618 0480 47ED017A 		vstr.32	s15, [r7, #-4]
 153:..\..\..\liblc3\src/mdct.c ****             y1[j].im = x0->im - x1->im * w[j].re - x1->re * w[j].im;
 619              		.loc 1 153 0
 620 0484 50ED027A 		vldr.32	s15, [r0, #-8]
 621 0488 52ED016A 		vldr.32	s13, [r2, #-4]
 622 048c 13ED017A 		vldr.32	s14, [r3, #-4]
 623 0490 E5EEC67A 		vfms.f32	s15, s11, s12
 624 0494 E6EE877A 		vfma.f32	s15, s13, s14
 625 0498 46ED027A 		vstr.32	s15, [r6, #-8]
 154:..\..\..\liblc3\src/mdct.c ****         }
 626              		.loc 1 154 0
 627 049c 13ED026A 		vldr.32	s12, [r3, #-8]
 628 04a0 50ED017A 		vldr.32	s15, [r0, #-4]
 629 04a4 E6EEC67A 		vfms.f32	s15, s13, s12
 630 04a8 52ED026A 		vldr.32	s13, [r2, #-8]
 631 04ac E7EE667A 		vfms.f32	s15, s14, s13
 632 04b0 46ED017A 		vstr.32	s15, [r6, #-4]
 633 04b4 BCE7     		b	.L14
 634              	.LVL51:
 635              	.L21:
 636              	.LBE53:
 637              	.LBE56:
 638              	.LBE59:
 639              	.LBE63:
 192:..\..\..\liblc3\src/mdct.c **** 
 193:..\..\..\liblc3\src/mdct.c ****     return y[is];
ARM GAS  C:\Users\rdn\AppData\Local\Temp\ccNOUFME.s 			page 17


 640              		.loc 1 193 0
 641 04b6 10AA     		add	r2, sp, #64
 642 04b8 1344     		add	r3, r3, r2
 194:..\..\..\liblc3\src/mdct.c **** }
 643              		.loc 1 194 0
 644 04ba 53F8080C 		ldr	r0, [r3, #-8]
 645 04be 11B0     		add	sp, sp, #68
 646              		.cfi_def_cfa_offset 36
 647              		@ sp needed
 648 04c0 BDE8F08F 		pop	{r4, r5, r6, r7, r8, r9, r10, fp, pc}
 649              	.LVL52:
 650              	.L26:
 651              		.align	2
 652              	.L25:
 653 04c4 00000000 		.word	lc3_fft_twiddles_bf2
 654              		.cfi_endproc
 655              	.LFE23:
 656              		.size	fft, .-fft
 657              		.section	.text.rescale,"ax",%progbits
 658              		.align	1
 659              		.thumb
 660              		.thumb_func
 661              		.type	rescale, %function
 662              	rescale:
 663              	.LFB30:
 195:..\..\..\liblc3\src/mdct.c **** 
 196:..\..\..\liblc3\src/mdct.c **** 
 197:..\..\..\liblc3\src/mdct.c **** /* ----------------------------------------------------------------------------
 198:..\..\..\liblc3\src/mdct.c ****  *  MDCT processing
 199:..\..\..\liblc3\src/mdct.c ****  * -------------------------------------------------------------------------- */
 200:..\..\..\liblc3\src/mdct.c **** 
 201:..\..\..\liblc3\src/mdct.c **** /**
 202:..\..\..\liblc3\src/mdct.c ****  * Windowing of samples before MDCT
 203:..\..\..\liblc3\src/mdct.c ****  * dt, sr          Duration and samplerate
 204:..\..\..\liblc3\src/mdct.c ****  * x, y            Input current and delayed samples
 205:..\..\..\liblc3\src/mdct.c ****  * y, d            Output windowed samples, and delayed ones
 206:..\..\..\liblc3\src/mdct.c ****  */
 207:..\..\..\liblc3\src/mdct.c **** LC3_HOT static void mdct_window(
 208:..\..\..\liblc3\src/mdct.c ****     enum lc3_dt dt, enum lc3_srate sr,
 209:..\..\..\liblc3\src/mdct.c ****     const float *x, float *d, float *y)
 210:..\..\..\liblc3\src/mdct.c **** {
 211:..\..\..\liblc3\src/mdct.c ****     const float *win = lc3_mdct_win[dt][sr];
 212:..\..\..\liblc3\src/mdct.c ****     int ns = lc3_ns(dt, sr), nd = lc3_nd(dt, sr);
 213:..\..\..\liblc3\src/mdct.c **** 
 214:..\..\..\liblc3\src/mdct.c ****     const float *w0 = win, *w1 = w0 + ns;
 215:..\..\..\liblc3\src/mdct.c ****     const float *w2 = w1, *w3 = w2 + nd;
 216:..\..\..\liblc3\src/mdct.c **** 
 217:..\..\..\liblc3\src/mdct.c ****     const float *x0 = x + ns-nd, *x1 = x0;
 218:..\..\..\liblc3\src/mdct.c ****     float *y0 = y + ns/2, *y1 = y0;
 219:..\..\..\liblc3\src/mdct.c ****     float *d0 = d, *d1 = d + nd;
 220:..\..\..\liblc3\src/mdct.c **** 
 221:..\..\..\liblc3\src/mdct.c ****     while (x1 > x) {
 222:..\..\..\liblc3\src/mdct.c ****         *(--y0) = *d0 * *(w0++) - *(--x1) * *(--w1);
 223:..\..\..\liblc3\src/mdct.c ****         *(y1++) = (*(d0++) = *(x0++)) * *(w2++);
 224:..\..\..\liblc3\src/mdct.c **** 
 225:..\..\..\liblc3\src/mdct.c ****         *(--y0) = *d0 * *(w0++) - *(--x1) * *(--w1);
 226:..\..\..\liblc3\src/mdct.c ****         *(y1++) = (*(d0++) = *(x0++)) * *(w2++);
ARM GAS  C:\Users\rdn\AppData\Local\Temp\ccNOUFME.s 			page 18


 227:..\..\..\liblc3\src/mdct.c ****     }
 228:..\..\..\liblc3\src/mdct.c **** 
 229:..\..\..\liblc3\src/mdct.c ****     for (x1 += ns; x0 < x1; ) {
 230:..\..\..\liblc3\src/mdct.c ****         *(--y0) = *d0 * *(w0++) - *(--d1) * *(--w1);
 231:..\..\..\liblc3\src/mdct.c ****         *(y1++) = (*(d0++) = *(x0++)) * *(w2++) + (*d1 = *(--x1)) * *(--w3);
 232:..\..\..\liblc3\src/mdct.c **** 
 233:..\..\..\liblc3\src/mdct.c ****         *(--y0) = *d0 * *(w0++) - *(--d1) * *(--w1);
 234:..\..\..\liblc3\src/mdct.c ****         *(y1++) = (*(d0++) = *(x0++)) * *(w2++) + (*d1 = *(--x1)) * *(--w3);
 235:..\..\..\liblc3\src/mdct.c ****     }
 236:..\..\..\liblc3\src/mdct.c **** }
 237:..\..\..\liblc3\src/mdct.c **** 
 238:..\..\..\liblc3\src/mdct.c **** /**
 239:..\..\..\liblc3\src/mdct.c ****  * Pre-rotate MDCT coefficients of N/2 points, before FFT N/4 points FFT
 240:..\..\..\liblc3\src/mdct.c ****  * def             Size and twiddles factors
 241:..\..\..\liblc3\src/mdct.c ****  * x, y            Input and output coefficients
 242:..\..\..\liblc3\src/mdct.c ****  *
 243:..\..\..\liblc3\src/mdct.c ****  * `x` and y` can be the same buffer
 244:..\..\..\liblc3\src/mdct.c ****  */
 245:..\..\..\liblc3\src/mdct.c **** LC3_HOT static void mdct_pre_fft(const struct lc3_mdct_rot_def *def,
 246:..\..\..\liblc3\src/mdct.c ****     const float *x, struct lc3_complex *y)
 247:..\..\..\liblc3\src/mdct.c **** {
 248:..\..\..\liblc3\src/mdct.c ****     int n4 = def->n4;
 249:..\..\..\liblc3\src/mdct.c **** 
 250:..\..\..\liblc3\src/mdct.c ****     const float *x0 = x, *x1 = x0 + 2*n4;
 251:..\..\..\liblc3\src/mdct.c ****     const struct lc3_complex *w0 = def->w, *w1 = w0 + n4;
 252:..\..\..\liblc3\src/mdct.c ****     struct lc3_complex *y0 = y, *y1 = y0 + n4;
 253:..\..\..\liblc3\src/mdct.c **** 
 254:..\..\..\liblc3\src/mdct.c ****     while (x0 < x1) {
 255:..\..\..\liblc3\src/mdct.c ****         struct lc3_complex u, uw = *(w0++);
 256:..\..\..\liblc3\src/mdct.c ****         u.re = - *(--x1) * uw.re + *x0 * uw.im;
 257:..\..\..\liblc3\src/mdct.c ****         u.im =   *(x0++) * uw.re + *x1 * uw.im;
 258:..\..\..\liblc3\src/mdct.c **** 
 259:..\..\..\liblc3\src/mdct.c ****         struct lc3_complex v, vw = *(--w1);
 260:..\..\..\liblc3\src/mdct.c ****         v.re = - *(--x1) * vw.im + *x0 * vw.re;
 261:..\..\..\liblc3\src/mdct.c ****         v.im = - *(x0++) * vw.im - *x1 * vw.re;
 262:..\..\..\liblc3\src/mdct.c **** 
 263:..\..\..\liblc3\src/mdct.c ****         *(y0++) = u;
 264:..\..\..\liblc3\src/mdct.c ****         *(--y1) = v;
 265:..\..\..\liblc3\src/mdct.c ****     }
 266:..\..\..\liblc3\src/mdct.c **** }
 267:..\..\..\liblc3\src/mdct.c **** 
 268:..\..\..\liblc3\src/mdct.c **** /**
 269:..\..\..\liblc3\src/mdct.c ****  * Post-rotate FFT N/4 points coefficients, resulting MDCT N points
 270:..\..\..\liblc3\src/mdct.c ****  * def             Size and twiddles factors
 271:..\..\..\liblc3\src/mdct.c ****  * x, y            Input and output coefficients
 272:..\..\..\liblc3\src/mdct.c ****  *
 273:..\..\..\liblc3\src/mdct.c ****  * `x` and y` can be the same buffer
 274:..\..\..\liblc3\src/mdct.c ****  */
 275:..\..\..\liblc3\src/mdct.c **** LC3_HOT static void mdct_post_fft(const struct lc3_mdct_rot_def *def,
 276:..\..\..\liblc3\src/mdct.c ****     const struct lc3_complex *x, float *y)
 277:..\..\..\liblc3\src/mdct.c **** {
 278:..\..\..\liblc3\src/mdct.c ****     int n4 = def->n4, n8 = n4 >> 1;
 279:..\..\..\liblc3\src/mdct.c **** 
 280:..\..\..\liblc3\src/mdct.c ****     const struct lc3_complex *w0 = def->w + n8, *w1 = w0 - 1;
 281:..\..\..\liblc3\src/mdct.c ****     const struct lc3_complex *x0 = x + n8, *x1 = x0 - 1;
 282:..\..\..\liblc3\src/mdct.c **** 
 283:..\..\..\liblc3\src/mdct.c ****     float *y0 = y + n4, *y1 = y0;
ARM GAS  C:\Users\rdn\AppData\Local\Temp\ccNOUFME.s 			page 19


 284:..\..\..\liblc3\src/mdct.c **** 
 285:..\..\..\liblc3\src/mdct.c ****     for ( ; y1 > y; x0++, x1--, w0++, w1--) {
 286:..\..\..\liblc3\src/mdct.c **** 
 287:..\..\..\liblc3\src/mdct.c ****         float u0 = x0->im * w0->im + x0->re * w0->re;
 288:..\..\..\liblc3\src/mdct.c ****         float u1 = x1->re * w1->im - x1->im * w1->re;
 289:..\..\..\liblc3\src/mdct.c **** 
 290:..\..\..\liblc3\src/mdct.c ****         float v0 = x0->re * w0->im - x0->im * w0->re;
 291:..\..\..\liblc3\src/mdct.c ****         float v1 = x1->im * w1->im + x1->re * w1->re;
 292:..\..\..\liblc3\src/mdct.c **** 
 293:..\..\..\liblc3\src/mdct.c ****         *(y0++) = u0;  *(y0++) = u1;
 294:..\..\..\liblc3\src/mdct.c ****         *(--y1) = v0;  *(--y1) = v1;
 295:..\..\..\liblc3\src/mdct.c ****     }
 296:..\..\..\liblc3\src/mdct.c **** }
 297:..\..\..\liblc3\src/mdct.c **** 
 298:..\..\..\liblc3\src/mdct.c **** /**
 299:..\..\..\liblc3\src/mdct.c ****  * Pre-rotate IMDCT coefficients of N points, before FFT N/4 points FFT
 300:..\..\..\liblc3\src/mdct.c ****  * def             Size and twiddles factors
 301:..\..\..\liblc3\src/mdct.c ****  * x, y            Input and output coefficients
 302:..\..\..\liblc3\src/mdct.c ****  *
 303:..\..\..\liblc3\src/mdct.c ****  * `x` and `y` can be the same buffer
 304:..\..\..\liblc3\src/mdct.c ****  * The real and imaginary parts of `y` are swapped,
 305:..\..\..\liblc3\src/mdct.c ****  * to operate on FFT instead of IFFT
 306:..\..\..\liblc3\src/mdct.c ****  */
 307:..\..\..\liblc3\src/mdct.c **** LC3_HOT static void imdct_pre_fft(const struct lc3_mdct_rot_def *def,
 308:..\..\..\liblc3\src/mdct.c ****     const float *x, struct lc3_complex *y)
 309:..\..\..\liblc3\src/mdct.c **** {
 310:..\..\..\liblc3\src/mdct.c ****     int n4 = def->n4;
 311:..\..\..\liblc3\src/mdct.c **** 
 312:..\..\..\liblc3\src/mdct.c ****     const float *x0 = x, *x1 = x0 + 2*n4;
 313:..\..\..\liblc3\src/mdct.c **** 
 314:..\..\..\liblc3\src/mdct.c ****     const struct lc3_complex *w0 = def->w, *w1 = w0 + n4;
 315:..\..\..\liblc3\src/mdct.c ****     struct lc3_complex *y0 = y, *y1 = y0 + n4;
 316:..\..\..\liblc3\src/mdct.c **** 
 317:..\..\..\liblc3\src/mdct.c ****     while (x0 < x1) {
 318:..\..\..\liblc3\src/mdct.c ****         float u0 = *(x0++), u1 = *(--x1);
 319:..\..\..\liblc3\src/mdct.c ****         float v0 = *(x0++), v1 = *(--x1);
 320:..\..\..\liblc3\src/mdct.c ****         struct lc3_complex uw = *(w0++), vw = *(--w1);
 321:..\..\..\liblc3\src/mdct.c **** 
 322:..\..\..\liblc3\src/mdct.c ****         (y0  )->re = - u0 * uw.re - u1 * uw.im;
 323:..\..\..\liblc3\src/mdct.c ****         (y0++)->im = - u1 * uw.re + u0 * uw.im;
 324:..\..\..\liblc3\src/mdct.c **** 
 325:..\..\..\liblc3\src/mdct.c ****         (--y1)->re = - v1 * vw.re - v0 * vw.im;
 326:..\..\..\liblc3\src/mdct.c ****         (  y1)->im = - v0 * vw.re + v1 * vw.im;
 327:..\..\..\liblc3\src/mdct.c ****     }
 328:..\..\..\liblc3\src/mdct.c **** }
 329:..\..\..\liblc3\src/mdct.c **** 
 330:..\..\..\liblc3\src/mdct.c **** /**
 331:..\..\..\liblc3\src/mdct.c ****  * Post-rotate FFT N/4 points coefficients, resulting IMDCT N points
 332:..\..\..\liblc3\src/mdct.c ****  * def             Size and twiddles factors
 333:..\..\..\liblc3\src/mdct.c ****  * x, y            Input and output coefficients
 334:..\..\..\liblc3\src/mdct.c ****  *
 335:..\..\..\liblc3\src/mdct.c ****  * `x` and y` can be the same buffer
 336:..\..\..\liblc3\src/mdct.c ****  * The real and imaginary parts of `x` are swapped,
 337:..\..\..\liblc3\src/mdct.c ****  * to operate on FFT instead of IFFT
 338:..\..\..\liblc3\src/mdct.c ****  */
 339:..\..\..\liblc3\src/mdct.c **** LC3_HOT static void imdct_post_fft(const struct lc3_mdct_rot_def *def,
 340:..\..\..\liblc3\src/mdct.c ****     const struct lc3_complex *x, float *y)
ARM GAS  C:\Users\rdn\AppData\Local\Temp\ccNOUFME.s 			page 20


 341:..\..\..\liblc3\src/mdct.c **** {
 342:..\..\..\liblc3\src/mdct.c ****     int n4 = def->n4;
 343:..\..\..\liblc3\src/mdct.c **** 
 344:..\..\..\liblc3\src/mdct.c ****     const struct lc3_complex *w0 = def->w, *w1 = w0 + n4;
 345:..\..\..\liblc3\src/mdct.c ****     const struct lc3_complex *x0 = x, *x1 = x0 + n4;
 346:..\..\..\liblc3\src/mdct.c **** 
 347:..\..\..\liblc3\src/mdct.c ****     float *y0 = y, *y1 = y0 + 2*n4;
 348:..\..\..\liblc3\src/mdct.c **** 
 349:..\..\..\liblc3\src/mdct.c ****     while (x0 < x1) {
 350:..\..\..\liblc3\src/mdct.c ****         struct lc3_complex uz = *(x0++), vz = *(--x1);
 351:..\..\..\liblc3\src/mdct.c ****         struct lc3_complex uw = *(w0++), vw = *(--w1);
 352:..\..\..\liblc3\src/mdct.c **** 
 353:..\..\..\liblc3\src/mdct.c ****         *(y0++) = uz.re * uw.im - uz.im * uw.re;
 354:..\..\..\liblc3\src/mdct.c ****         *(--y1) = uz.re * uw.re + uz.im * uw.im;
 355:..\..\..\liblc3\src/mdct.c **** 
 356:..\..\..\liblc3\src/mdct.c ****         *(--y1) = vz.re * vw.im - vz.im * vw.re;
 357:..\..\..\liblc3\src/mdct.c ****         *(y0++) = vz.re * vw.re + vz.im * vw.im;
 358:..\..\..\liblc3\src/mdct.c ****     }
 359:..\..\..\liblc3\src/mdct.c **** }
 360:..\..\..\liblc3\src/mdct.c **** 
 361:..\..\..\liblc3\src/mdct.c **** /**
 362:..\..\..\liblc3\src/mdct.c ****  * Apply windowing of samples
 363:..\..\..\liblc3\src/mdct.c ****  * dt, sr          Duration and samplerate
 364:..\..\..\liblc3\src/mdct.c ****  * x, d            Middle half of IMDCT coefficients and delayed samples
 365:..\..\..\liblc3\src/mdct.c ****  * y, d            Output samples and delayed ones
 366:..\..\..\liblc3\src/mdct.c ****  */
 367:..\..\..\liblc3\src/mdct.c **** LC3_HOT static void imdct_window(
 368:..\..\..\liblc3\src/mdct.c ****     enum lc3_dt dt, enum lc3_srate sr,
 369:..\..\..\liblc3\src/mdct.c ****     const float *x, float *d, float *y)
 370:..\..\..\liblc3\src/mdct.c **** {
 371:..\..\..\liblc3\src/mdct.c ****     /* The full MDCT coefficients is given by symmetry :
 372:..\..\..\liblc3\src/mdct.c ****      *   T[   0 ..  n/4-1] = -half[n/4-1 .. 0    ]
 373:..\..\..\liblc3\src/mdct.c ****      *   T[ n/4 ..  n/2-1] =  half[0     .. n/4-1]
 374:..\..\..\liblc3\src/mdct.c ****      *   T[ n/2 .. 3n/4-1] =  half[n/4   .. n/2-1]
 375:..\..\..\liblc3\src/mdct.c ****      *   T[3n/4 ..    n-1] =  half[n/2-1 .. n/4  ]  */
 376:..\..\..\liblc3\src/mdct.c **** 
 377:..\..\..\liblc3\src/mdct.c ****     const float *win = lc3_mdct_win[dt][sr];
 378:..\..\..\liblc3\src/mdct.c ****     int n4 = lc3_ns(dt, sr) >> 1, nd = lc3_nd(dt, sr);
 379:..\..\..\liblc3\src/mdct.c ****     const float *w2 = win, *w0 = w2 + 3*n4, *w1 = w0;
 380:..\..\..\liblc3\src/mdct.c **** 
 381:..\..\..\liblc3\src/mdct.c ****     const float *x0 = d + nd-n4, *x1 = x0;
 382:..\..\..\liblc3\src/mdct.c ****     float *y0 = y + nd-n4, *y1 = y0, *y2 = d + nd, *y3 = d;
 383:..\..\..\liblc3\src/mdct.c **** 
 384:..\..\..\liblc3\src/mdct.c ****     while (y0 > y) {
 385:..\..\..\liblc3\src/mdct.c ****         *(--y0) = *(--x0) - *(x  ) * *(w1++);
 386:..\..\..\liblc3\src/mdct.c ****         *(y1++) = *(x1++) + *(x++) * *(--w0);
 387:..\..\..\liblc3\src/mdct.c **** 
 388:..\..\..\liblc3\src/mdct.c ****         *(--y0) = *(--x0) - *(x  ) * *(w1++);
 389:..\..\..\liblc3\src/mdct.c ****         *(y1++) = *(x1++) + *(x++) * *(--w0);
 390:..\..\..\liblc3\src/mdct.c ****     }
 391:..\..\..\liblc3\src/mdct.c **** 
 392:..\..\..\liblc3\src/mdct.c ****     while (y1 < y + nd) {
 393:..\..\..\liblc3\src/mdct.c ****         *(y1++) = *(x1++) + *(x++) * *(--w0);
 394:..\..\..\liblc3\src/mdct.c ****         *(y1++) = *(x1++) + *(x++) * *(--w0);
 395:..\..\..\liblc3\src/mdct.c ****     }
 396:..\..\..\liblc3\src/mdct.c **** 
 397:..\..\..\liblc3\src/mdct.c ****     while (y1 < y + 2*n4) {
ARM GAS  C:\Users\rdn\AppData\Local\Temp\ccNOUFME.s 			page 21


 398:..\..\..\liblc3\src/mdct.c ****         *(y1++) = *(x  ) * *(--w0);
 399:..\..\..\liblc3\src/mdct.c ****         *(--y2) = *(x++) * *(w2++);
 400:..\..\..\liblc3\src/mdct.c **** 
 401:..\..\..\liblc3\src/mdct.c ****         *(y1++) = *(x  ) * *(--w0);
 402:..\..\..\liblc3\src/mdct.c ****         *(--y2) = *(x++) * *(w2++);
 403:..\..\..\liblc3\src/mdct.c ****     }
 404:..\..\..\liblc3\src/mdct.c **** 
 405:..\..\..\liblc3\src/mdct.c ****     while (y2 > y3) {
 406:..\..\..\liblc3\src/mdct.c ****         *(y3++) = *(x  ) * *(--w0);
 407:..\..\..\liblc3\src/mdct.c ****         *(--y2) = *(x++) * *(w2++);
 408:..\..\..\liblc3\src/mdct.c **** 
 409:..\..\..\liblc3\src/mdct.c ****         *(y3++) = *(x  ) * *(--w0);
 410:..\..\..\liblc3\src/mdct.c ****         *(--y2) = *(x++) * *(w2++);
 411:..\..\..\liblc3\src/mdct.c ****     }
 412:..\..\..\liblc3\src/mdct.c **** }
 413:..\..\..\liblc3\src/mdct.c **** 
 414:..\..\..\liblc3\src/mdct.c **** /**
 415:..\..\..\liblc3\src/mdct.c ****  * Rescale samples
 416:..\..\..\liblc3\src/mdct.c ****  * x, n            Input and count of samples, scaled as output
 417:..\..\..\liblc3\src/mdct.c ****  * scale           Scale factor
 418:..\..\..\liblc3\src/mdct.c ****  */
 419:..\..\..\liblc3\src/mdct.c **** LC3_HOT static void rescale(float *x, int n, float f)
 420:..\..\..\liblc3\src/mdct.c **** {
 664              		.loc 1 420 0
 665              		.cfi_startproc
 666              		@ args = 0, pretend = 0, frame = 0
 667              		@ frame_needed = 0, uses_anonymous_args = 0
 668              		@ link register save eliminated.
 669              	.LVL53:
 670              	.LBB64:
 421:..\..\..\liblc3\src/mdct.c ****     for (int i = 0; i < (n >> 2); i++) {
 671              		.loc 1 421 0
 672 0000 8910     		asrs	r1, r1, #2
 673              	.LVL54:
 674 0002 0023     		movs	r3, #0
 675              	.LVL55:
 676              	.L28:
 677              		.loc 1 421 0 is_stmt 0 discriminator 1
 678 0004 8B42     		cmp	r3, r1
 679 0006 00F11000 		add	r0, r0, #16
 680              	.LVL56:
 681 000a 19DA     		bge	.L30
 682              	.LVL57:
 422:..\..\..\liblc3\src/mdct.c ****         *(x++) *= f; *(x++) *= f;
 683              		.loc 1 422 0 is_stmt 1 discriminator 3
 684 000c 50ED047A 		vldr.32	s15, [r0, #-16]
 685 0010 67EE807A 		vmul.f32	s15, s15, s0
 421:..\..\..\liblc3\src/mdct.c ****     for (int i = 0; i < (n >> 2); i++) {
 686              		.loc 1 421 0 discriminator 3
 687 0014 0133     		adds	r3, r3, #1
 688              	.LVL58:
 689              		.loc 1 422 0 discriminator 3
 690 0016 40ED047A 		vstr.32	s15, [r0, #-16]
 691              	.LVL59:
 692 001a 50ED037A 		vldr.32	s15, [r0, #-12]
 693 001e 67EE807A 		vmul.f32	s15, s15, s0
 694 0022 40ED037A 		vstr.32	s15, [r0, #-12]
ARM GAS  C:\Users\rdn\AppData\Local\Temp\ccNOUFME.s 			page 22


 695              	.LVL60:
 423:..\..\..\liblc3\src/mdct.c ****         *(x++) *= f; *(x++) *= f;
 696              		.loc 1 423 0 discriminator 3
 697 0026 50ED027A 		vldr.32	s15, [r0, #-8]
 698 002a 67EE807A 		vmul.f32	s15, s15, s0
 699 002e 40ED027A 		vstr.32	s15, [r0, #-8]
 700              	.LVL61:
 701 0032 50ED017A 		vldr.32	s15, [r0, #-4]
 702 0036 67EE807A 		vmul.f32	s15, s15, s0
 703 003a 40ED017A 		vstr.32	s15, [r0, #-4]
 704 003e E1E7     		b	.L28
 705              	.LVL62:
 706              	.L30:
 707              	.LBE64:
 424:..\..\..\liblc3\src/mdct.c ****     }
 425:..\..\..\liblc3\src/mdct.c **** }
 708              		.loc 1 425 0
 709 0040 7047     		bx	lr
 710              		.cfi_endproc
 711              	.LFE30:
 712              		.size	rescale, .-rescale
 713              		.section	.text.lc3_mdct_forward,"ax",%progbits
 714              		.align	1
 715              		.global	lc3_mdct_forward
 716              		.thumb
 717              		.thumb_func
 718              		.type	lc3_mdct_forward, %function
 719              	lc3_mdct_forward:
 720              	.LFB31:
 426:..\..\..\liblc3\src/mdct.c **** 
 427:..\..\..\liblc3\src/mdct.c **** /**
 428:..\..\..\liblc3\src/mdct.c ****  * Forward MDCT transformation
 429:..\..\..\liblc3\src/mdct.c ****  */
 430:..\..\..\liblc3\src/mdct.c **** void lc3_mdct_forward(
 431:..\..\..\liblc3\src/mdct.c ****     enum lc3_dt dt, enum lc3_srate sr, enum lc3_srate sr_dst,
 432:..\..\..\liblc3\src/mdct.c ****     const float *x, float *d, float *y)
 433:..\..\..\liblc3\src/mdct.c **** {
 721              		.loc 1 433 0
 722              		.cfi_startproc
 723              		@ args = 8, pretend = 0, frame = 3880
 724              		@ frame_needed = 0, uses_anonymous_args = 0
 725              	.LVL63:
 726 0000 2DE9F04F 		push	{r4, r5, r6, r7, r8, r9, r10, fp, lr}
 727              		.cfi_def_cfa_offset 36
 728              		.cfi_offset 4, -36
 729              		.cfi_offset 5, -32
 730              		.cfi_offset 6, -28
 731              		.cfi_offset 7, -24
 732              		.cfi_offset 8, -20
 733              		.cfi_offset 9, -16
 734              		.cfi_offset 10, -12
 735              		.cfi_offset 11, -8
 736              		.cfi_offset 14, -4
 737 0004 ADF62C7D 		subw	sp, sp, #3884
 738              		.cfi_def_cfa_offset 3920
 434:..\..\..\liblc3\src/mdct.c ****     const struct lc3_mdct_rot_def *rot = lc3_mdct_rot[dt][sr];
 739              		.loc 1 434 0
ARM GAS  C:\Users\rdn\AppData\Local\Temp\ccNOUFME.s 			page 23


 740 0008 C0EBC004 		rsb	r4, r0, r0, lsl #3
 741 000c 0C44     		add	r4, r4, r1
 433:..\..\..\liblc3\src/mdct.c ****     const struct lc3_mdct_rot_def *rot = lc3_mdct_rot[dt][sr];
 742              		.loc 1 433 0
 743 000e 0993     		str	r3, [sp, #36]
 744              		.loc 1 434 0
 745 0010 C54B     		ldr	r3, .L46
 746              	.LVL64:
 433:..\..\..\liblc3\src/mdct.c ****     const struct lc3_mdct_rot_def *rot = lc3_mdct_rot[dt][sr];
 747              		.loc 1 433 0
 748 0012 DDF8506F 		ldr	r6, [sp, #3920]
 749              		.loc 1 434 0
 750 0016 53F82480 		ldr	r8, [r3, r4, lsl #2]
 751              	.LVL65:
 752              	.LBB83:
 753              	.LBB84:
 754              		.file 2 "..\\..\\..\\liblc3\\src\\tables.h"
   1:..\..\..\liblc3\src/tables.h **** /******************************************************************************
   2:..\..\..\liblc3\src/tables.h ****  *
   3:..\..\..\liblc3\src/tables.h ****  *  Copyright 2022 Google LLC
   4:..\..\..\liblc3\src/tables.h ****  *
   5:..\..\..\liblc3\src/tables.h ****  *  Licensed under the Apache License, Version 2.0 (the "License");
   6:..\..\..\liblc3\src/tables.h ****  *  you may not use this file except in compliance with the License.
   7:..\..\..\liblc3\src/tables.h ****  *  You may obtain a copy of the License at:
   8:..\..\..\liblc3\src/tables.h ****  *
   9:..\..\..\liblc3\src/tables.h ****  *  http://www.apache.org/licenses/LICENSE-2.0
  10:..\..\..\liblc3\src/tables.h ****  *
  11:..\..\..\liblc3\src/tables.h ****  *  Unless required by applicable law or agreed to in writing, software
  12:..\..\..\liblc3\src/tables.h ****  *  distributed under the License is distributed on an "AS IS" BASIS,
  13:..\..\..\liblc3\src/tables.h ****  *  WITHOUT WARRANTIES OR CONDITIONS OF ANY KIND, either express or implied.
  14:..\..\..\liblc3\src/tables.h ****  *  See the License for the specific language governing permissions and
  15:..\..\..\liblc3\src/tables.h ****  *  limitations under the License.
  16:..\..\..\liblc3\src/tables.h ****  *
  17:..\..\..\liblc3\src/tables.h ****  ******************************************************************************/
  18:..\..\..\liblc3\src/tables.h **** 
  19:..\..\..\liblc3\src/tables.h **** #ifndef __LC3_TABLES_H
  20:..\..\..\liblc3\src/tables.h **** #define __LC3_TABLES_H
  21:..\..\..\liblc3\src/tables.h **** 
  22:..\..\..\liblc3\src/tables.h **** #include "common.h"
  23:..\..\..\liblc3\src/tables.h **** #include "bits.h"
  24:..\..\..\liblc3\src/tables.h **** 
  25:..\..\..\liblc3\src/tables.h **** 
  26:..\..\..\liblc3\src/tables.h **** /**
  27:..\..\..\liblc3\src/tables.h ****  * Characteristics
  28:..\..\..\liblc3\src/tables.h ****  *
  29:..\..\..\liblc3\src/tables.h ****  *   ns   Number of temporal samples / frequency coefficients within a frame
  30:..\..\..\liblc3\src/tables.h ****  *
  31:..\..\..\liblc3\src/tables.h ****  *   ne   Number of encoded frequency coefficients
  32:..\..\..\liblc3\src/tables.h ****  *
  33:..\..\..\liblc3\src/tables.h ****  *   nd   Number of MDCT delayed samples, sum of half a frame and an ovelap
  34:..\..\..\liblc3\src/tables.h ****  *        of future by 1.25 ms (2.5ms, 5ms and 10ms frame durations),
  35:..\..\..\liblc3\src/tables.h ****  *        or 2 ms (7.5ms frame duration).
  36:..\..\..\liblc3\src/tables.h ****  *
  37:..\..\..\liblc3\src/tables.h ****  *   nh   Number of 18 ms samples of the history buffer, aligned on a frame
  38:..\..\..\liblc3\src/tables.h ****  *
  39:..\..\..\liblc3\src/tables.h ****  *   nt   Number of 1.25 ms previous samples
  40:..\..\..\liblc3\src/tables.h ****  */
ARM GAS  C:\Users\rdn\AppData\Local\Temp\ccNOUFME.s 			page 24


  41:..\..\..\liblc3\src/tables.h **** 
  42:..\..\..\liblc3\src/tables.h **** extern const int lc3_ns_2m5[LC3_NUM_SRATE];
  43:..\..\..\liblc3\src/tables.h **** extern const int lc3_ne_2m5[LC3_NUM_SRATE];
  44:..\..\..\liblc3\src/tables.h **** extern const int lc3_ns_4m [LC3_NUM_SRATE];
  45:..\..\..\liblc3\src/tables.h **** 
  46:..\..\..\liblc3\src/tables.h **** static inline int lc3_ns(enum lc3_dt dt, enum lc3_srate sr) {
  47:..\..\..\liblc3\src/tables.h ****     return lc3_ns_2m5[sr] * (1 + dt);
 755              		.loc 2 47 0
 756 001a C44B     		ldr	r3, .L46+4
 757 001c 53F82220 		ldr	r2, [r3, r2, lsl #2]
 758              	.LVL66:
 759              	.LBE84:
 760              	.LBE83:
 761              	.LBB88:
 762              	.LBB89:
 763 0020 53F82130 		ldr	r3, [r3, r1, lsl #2]
 764              	.LBE89:
 765              	.LBE88:
 766              	.LBB91:
 767              	.LBB85:
 768 0024 451C     		adds	r5, r0, #1
 769              	.LBE85:
 770              	.LBE91:
 771              	.LBB92:
 772              	.LBB93:
 773              	.LBB94:
 774              	.LBB95:
  48:..\..\..\liblc3\src/tables.h **** }
  49:..\..\..\liblc3\src/tables.h **** 
  50:..\..\..\liblc3\src/tables.h **** static inline int lc3_ne(enum lc3_dt dt, enum lc3_srate sr) {
  51:..\..\..\liblc3\src/tables.h ****     return lc3_ne_2m5[sr] * (1 + dt);
  52:..\..\..\liblc3\src/tables.h **** }
  53:..\..\..\liblc3\src/tables.h **** 
  54:..\..\..\liblc3\src/tables.h **** static inline int lc3_nd(enum lc3_dt dt, enum lc3_srate sr) {
  55:..\..\..\liblc3\src/tables.h ****     return ( lc3_ns(dt, sr) +
  56:..\..\..\liblc3\src/tables.h ****         (dt == LC3_DT_7M5 ? lc3_ns_4m[sr] : lc3_ns_2m5[sr]) ) >> 1;
 775              		.loc 2 56 0
 776 0026 0228     		cmp	r0, #2
 777              	.LBE95:
 778              	.LBE94:
 779              	.LBE93:
 780              	.LBE92:
 781              	.LBB103:
 782              	.LBB90:
  47:..\..\..\liblc3\src/tables.h **** }
 783              		.loc 2 47 0
 784 0028 05FB03F9 		mul	r9, r5, r3
 785              	.LBE90:
 786              	.LBE103:
 787              	.LBB104:
 788              	.LBB100:
 789              	.LBB98:
 790              	.LBB96:
 791              		.loc 2 56 0
 792 002c 08BF     		it	eq
 793 002e C04B     		ldreq	r3, .L46+8
 794              	.LBE96:
ARM GAS  C:\Users\rdn\AppData\Local\Temp\ccNOUFME.s 			page 25


 795              	.LBE98:
 796              	.LBE100:
 797              	.LBE104:
 798              	.LBB105:
 799              	.LBB86:
  47:..\..\..\liblc3\src/tables.h **** }
 800              		.loc 2 47 0
 801 0030 02FB05F2 		mul	r2, r2, r5
 802              	.LBE86:
 803              	.LBE105:
 804              	.LBB106:
 805              	.LBB101:
 806              	.LBB99:
 807              	.LBB97:
 808              		.loc 2 56 0
 809 0034 08BF     		it	eq
 810 0036 53F82130 		ldreq	r3, [r3, r1, lsl #2]
 811              	.LBE97:
 812              	.LBE99:
 813              	.LBE101:
 814              	.LBE106:
 815              	.LBB107:
 816              	.LBB87:
  47:..\..\..\liblc3\src/tables.h **** }
 817              		.loc 2 47 0
 818 003a 0392     		str	r2, [sp, #12]
 819              	.LVL67:
 820              	.LBE87:
 821              	.LBE107:
 822              	.LBB108:
 823              	.LBB102:
 211:..\..\..\liblc3\src/mdct.c ****     int ns = lc3_ns(dt, sr), nd = lc3_nd(dt, sr);
 824              		.loc 1 211 0
 825 003c BD4A     		ldr	r2, .L46+12
 215:..\..\..\liblc3\src/mdct.c **** 
 826              		.loc 1 215 0
 827 003e 4B44     		add	r3, r3, r9
 211:..\..\..\liblc3\src/mdct.c ****     int ns = lc3_ns(dt, sr), nd = lc3_nd(dt, sr);
 828              		.loc 1 211 0
 829 0040 52F82450 		ldr	r5, [r2, r4, lsl #2]
 830              	.LVL68:
 215:..\..\..\liblc3\src/mdct.c **** 
 831              		.loc 1 215 0
 832 0044 5B10     		asrs	r3, r3, #1
 214:..\..\..\liblc3\src/mdct.c ****     const float *w2 = w1, *w3 = w2 + nd;
 833              		.loc 1 214 0
 834 0046 4FEA8902 		lsl	r2, r9, #2
 835 004a A918     		adds	r1, r5, r2
 836              	.LVL69:
 215:..\..\..\liblc3\src/mdct.c **** 
 837              		.loc 1 215 0
 838 004c 9C00     		lsls	r4, r3, #2
 214:..\..\..\liblc3\src/mdct.c ****     const float *w2 = w1, *w3 = w2 + nd;
 839              		.loc 1 214 0
 840 004e 0792     		str	r2, [sp, #28]
 841              	.LVL70:
 842 0050 2846     		mov	r0, r5
ARM GAS  C:\Users\rdn\AppData\Local\Temp\ccNOUFME.s 			page 26


 843              	.LVL71:
 215:..\..\..\liblc3\src/mdct.c **** 
 844              		.loc 1 215 0
 845 0052 0A19     		adds	r2, r1, r4
 846 0054 099D     		ldr	r5, [sp, #36]
 847              	.LVL72:
 848 0056 0692     		str	r2, [sp, #24]
 849              	.LVL73:
 850 0058 C3EB0903 		rsb	r3, r3, r9
 851              	.LVL74:
 218:..\..\..\liblc3\src/mdct.c ****     float *d0 = d, *d1 = d + nd;
 852              		.loc 1 218 0
 853 005c 0222     		movs	r2, #2
 854              	.LVL75:
 855 005e 99FBF2F2 		sdiv	r2, r9, r2
 856 0062 0892     		str	r2, [sp, #32]
 857              	.LVL76:
 858 0064 05EB8303 		add	r3, r5, r3, lsl #2
 859 0068 089D     		ldr	r5, [sp, #32]
 219:..\..\..\liblc3\src/mdct.c **** 
 860              		.loc 1 219 0
 861 006a 0293     		str	r3, [sp, #8]
 862 006c 3444     		add	r4, r4, r6
 863              	.LVL77:
 864 006e 3246     		mov	r2, r6
 865              	.LVL78:
 866 0070 0AAE     		add	r6, sp, #40
 867              	.LVL79:
 868 0072 06EB8505 		add	r5, r6, r5, lsl #2
 869              	.LVL80:
 870 0076 0195     		str	r5, [sp, #4]
 871 0078 2E46     		mov	r6, r5
 872              	.LVL81:
 873 007a 0F46     		mov	r7, r1
 874              	.LVL82:
 875              	.L33:
 876 007c DDF808E0 		ldr	lr, [sp, #8]
 877 0080 019D     		ldr	r5, [sp, #4]
 878 0082 0595     		str	r5, [sp, #20]
 879              	.LVL83:
 880 0084 0EF10805 		add	r5, lr, #8
 881              	.LVL84:
 882 0088 0295     		str	r5, [sp, #8]
 883 008a 06F10805 		add	r5, r6, #8
 884 008e 0495     		str	r5, [sp, #16]
 221:..\..\..\liblc3\src/mdct.c ****         *(--y0) = *d0 * *(w0++) - *(--x1) * *(--w1);
 885              		.loc 1 221 0
 886 0090 099D     		ldr	r5, [sp, #36]
 887 0092 9D42     		cmp	r5, r3
 888 0094 02F1080C 		add	ip, r2, #8
 889 0098 00F1080B 		add	fp, r0, #8
 890 009c 07F1080A 		add	r10, r7, #8
 891 00a0 3FD2     		bcs	.L42
 892              	.LVL85:
 222:..\..\..\liblc3\src/mdct.c ****         *(y1++) = (*(d0++) = *(x0++)) * *(w2++);
 893              		.loc 1 222 0
 894 00a2 51ED017A 		vldr.32	s15, [r1, #-4]
ARM GAS  C:\Users\rdn\AppData\Local\Temp\ccNOUFME.s 			page 27


 895 00a6 13ED017A 		vldr.32	s14, [r3, #-4]
 896 00aa 5CED026A 		vldr.32	s13, [ip, #-8]
 897 00ae 019A     		ldr	r2, [sp, #4]
 898              	.LVL86:
 225:..\..\..\liblc3\src/mdct.c ****         *(y1++) = (*(d0++) = *(x0++)) * *(w2++);
 899              		.loc 1 225 0
 900 00b0 0198     		ldr	r0, [sp, #4]
 901              	.LVL87:
 222:..\..\..\liblc3\src/mdct.c ****         *(y1++) = (*(d0++) = *(x0++)) * *(w2++);
 902              		.loc 1 222 0
 903 00b2 67EEC77A 		vnmul.f32	s15, s15, s14
 904 00b6 1BED027A 		vldr.32	s14, [fp, #-8]
 905 00ba E6EE877A 		vfma.f32	s15, s13, s14
 225:..\..\..\liblc3\src/mdct.c ****         *(y1++) = (*(d0++) = *(x0++)) * *(w2++);
 906              		.loc 1 225 0
 907 00be 083B     		subs	r3, r3, #8
 908              	.LVL88:
 909 00c0 0839     		subs	r1, r1, #8
 910              	.LVL89:
 911 00c2 5CED016A 		vldr.32	s13, [ip, #-4]
 222:..\..\..\liblc3\src/mdct.c ****         *(y1++) = (*(d0++) = *(x0++)) * *(w2++);
 912              		.loc 1 222 0
 913 00c6 42ED017A 		vstr.32	s15, [r2, #-4]
 914              	.LVL90:
 223:..\..\..\liblc3\src/mdct.c **** 
 915              		.loc 1 223 0
 916 00ca 029A     		ldr	r2, [sp, #8]
 917 00cc 12ED027A 		vldr.32	s14, [r2, #-8]
 918 00d0 049A     		ldr	r2, [sp, #16]
 919 00d2 0CED027A 		vstr.32	s14, [ip, #-8]
 920              	.LVL91:
 921 00d6 5AED027A 		vldr.32	s15, [r10, #-8]
 922 00da 67EE877A 		vmul.f32	s15, s15, s14
 225:..\..\..\liblc3\src/mdct.c ****         *(y1++) = (*(d0++) = *(x0++)) * *(w2++);
 923              		.loc 1 225 0
 924 00de 93ED007A 		vldr.32	s14, [r3]
 223:..\..\..\liblc3\src/mdct.c **** 
 925              		.loc 1 223 0
 926 00e2 42ED027A 		vstr.32	s15, [r2, #-8]
 927              	.LVL92:
 225:..\..\..\liblc3\src/mdct.c ****         *(y1++) = (*(d0++) = *(x0++)) * *(w2++);
 928              		.loc 1 225 0
 929 00e6 D1ED007A 		vldr.32	s15, [r1]
 930 00ea 67EEC77A 		vnmul.f32	s15, s15, s14
 931 00ee 1BED017A 		vldr.32	s14, [fp, #-4]
 932 00f2 E6EE877A 		vfma.f32	s15, s13, s14
 226:..\..\..\liblc3\src/mdct.c ****     }
 933              		.loc 1 226 0
 934 00f6 5746     		mov	r7, r10
 935              	.LVL93:
 225:..\..\..\liblc3\src/mdct.c ****         *(y1++) = (*(d0++) = *(x0++)) * *(w2++);
 936              		.loc 1 225 0
 937 00f8 17EE902A 		vmov	r2, s15
 938 00fc 40F8082D 		str	r2, [r0, #-8]!	@ float
 226:..\..\..\liblc3\src/mdct.c ****     }
 939              		.loc 1 226 0
 940 0100 029A     		ldr	r2, [sp, #8]
ARM GAS  C:\Users\rdn\AppData\Local\Temp\ccNOUFME.s 			page 28


 225:..\..\..\liblc3\src/mdct.c ****         *(y1++) = (*(d0++) = *(x0++)) * *(w2++);
 941              		.loc 1 225 0
 942 0102 0190     		str	r0, [sp, #4]
 943              	.LVL94:
 226:..\..\..\liblc3\src/mdct.c ****     }
 944              		.loc 1 226 0
 945 0104 12ED017A 		vldr.32	s14, [r2, #-4]
 946 0108 049A     		ldr	r2, [sp, #16]
 947 010a 0CED017A 		vstr.32	s14, [ip, #-4]
 948              	.LVL95:
 949 010e 5AED017A 		vldr.32	s15, [r10, #-4]
 950 0112 67EE877A 		vmul.f32	s15, s15, s14
 951 0116 1646     		mov	r6, r2
 952 0118 42ED017A 		vstr.32	s15, [r2, #-4]
 953 011c 5846     		mov	r0, fp
 954 011e 6246     		mov	r2, ip
 955 0120 ACE7     		b	.L33
 956              	.LVL96:
 957              	.L42:
 229:..\..\..\liblc3\src/mdct.c ****         *(--y0) = *d0 * *(w0++) - *(--d1) * *(--w1);
 958              		.loc 1 229 0
 959 0122 079D     		ldr	r5, [sp, #28]
 960 0124 2B44     		add	r3, r3, r5
 961              	.LVL97:
 962              	.L35:
 963 0126 9E45     		cmp	lr, r3
 964 0128 02F10802 		add	r2, r2, #8
 965 012c 00F10800 		add	r0, r0, #8
 966 0130 07F10807 		add	r7, r7, #8
 967 0134 06F10806 		add	r6, r6, #8
 968 0138 4FD2     		bcs	.L43
 969              	.LVL98:
 230:..\..\..\liblc3\src/mdct.c ****         *(y1++) = (*(d0++) = *(x0++)) * *(w2++) + (*d1 = *(--x1)) * *(--w3);
 970              		.loc 1 230 0
 971 013a 51ED017A 		vldr.32	s15, [r1, #-4]
 972 013e 14ED017A 		vldr.32	s14, [r4, #-4]
 973 0142 52ED026A 		vldr.32	s13, [r2, #-8]
 974 0146 059D     		ldr	r5, [sp, #20]
 975 0148 67EEC77A 		vnmul.f32	s15, s15, s14
 976 014c 10ED027A 		vldr.32	s14, [r0, #-8]
 977 0150 E6EE877A 		vfma.f32	s15, s13, s14
 233:..\..\..\liblc3\src/mdct.c ****         *(y1++) = (*(d0++) = *(x0++)) * *(w2++) + (*d1 = *(--x1)) * *(--w3);
 978              		.loc 1 233 0
 979 0154 083C     		subs	r4, r4, #8
 980              	.LVL99:
 981 0156 0839     		subs	r1, r1, #8
 234:..\..\..\liblc3\src/mdct.c ****     }
 982              		.loc 1 234 0
 983 0158 083B     		subs	r3, r3, #8
 984              	.LVL100:
 230:..\..\..\liblc3\src/mdct.c ****         *(y1++) = (*(d0++) = *(x0++)) * *(w2++) + (*d1 = *(--x1)) * *(--w3);
 985              		.loc 1 230 0
 986 015a 45ED017A 		vstr.32	s15, [r5, #-4]
 987              	.LVL101:
 231:..\..\..\liblc3\src/mdct.c **** 
 988              		.loc 1 231 0
 989 015e 7546     		mov	r5, lr
ARM GAS  C:\Users\rdn\AppData\Local\Temp\ccNOUFME.s 			page 29


 990 0160 95ED007A 		vldr.32	s14, [r5]
 991 0164 069D     		ldr	r5, [sp, #24]
 992 0166 02ED027A 		vstr.32	s14, [r2, #-8]
 993              	.LVL102:
 994 016a D3ED017A 		vldr.32	s15, [r3, #4]
 995 016e 57ED026A 		vldr.32	s13, [r7, #-8]
 996              	.LVL103:
 997 0172 C4ED017A 		vstr.32	s15, [r4, #4]
 998              	.LVL104:
 999 0176 15ED016A 		vldr.32	s12, [r5, #-4]
 233:..\..\..\liblc3\src/mdct.c ****         *(y1++) = (*(d0++) = *(x0++)) * *(w2++) + (*d1 = *(--x1)) * *(--w3);
 1000              		.loc 1 233 0
 1001 017a 059D     		ldr	r5, [sp, #20]
 231:..\..\..\liblc3\src/mdct.c **** 
 1002              		.loc 1 231 0
 1003 017c 67EE867A 		vmul.f32	s15, s15, s12
 1004 0180 0EF1080E 		add	lr, lr, #8
 1005 0184 E7EE267A 		vfma.f32	s15, s14, s13
 233:..\..\..\liblc3\src/mdct.c ****         *(y1++) = (*(d0++) = *(x0++)) * *(w2++) + (*d1 = *(--x1)) * *(--w3);
 1006              		.loc 1 233 0
 1007 0188 94ED007A 		vldr.32	s14, [r4]
 231:..\..\..\liblc3\src/mdct.c **** 
 1008              		.loc 1 231 0
 1009 018c 46ED027A 		vstr.32	s15, [r6, #-8]
 1010              	.LVL105:
 233:..\..\..\liblc3\src/mdct.c ****         *(y1++) = (*(d0++) = *(x0++)) * *(w2++) + (*d1 = *(--x1)) * *(--w3);
 1011              		.loc 1 233 0
 1012 0190 D1ED007A 		vldr.32	s15, [r1]
 1013 0194 52ED016A 		vldr.32	s13, [r2, #-4]
 1014 0198 67EEC77A 		vnmul.f32	s15, s15, s14
 1015 019c 10ED017A 		vldr.32	s14, [r0, #-4]
 1016 01a0 E6EE877A 		vfma.f32	s15, s13, s14
 234:..\..\..\liblc3\src/mdct.c ****     }
 1017              		.loc 1 234 0
 1018 01a4 1EED017A 		vldr.32	s14, [lr, #-4]
 233:..\..\..\liblc3\src/mdct.c ****         *(y1++) = (*(d0++) = *(x0++)) * *(w2++) + (*d1 = *(--x1)) * *(--w3);
 1019              		.loc 1 233 0
 1020 01a8 17EE90CA 		vmov	ip, s15
 234:..\..\..\liblc3\src/mdct.c ****     }
 1021              		.loc 1 234 0
 1022 01ac 02ED017A 		vstr.32	s14, [r2, #-4]
 233:..\..\..\liblc3\src/mdct.c ****         *(y1++) = (*(d0++) = *(x0++)) * *(w2++) + (*d1 = *(--x1)) * *(--w3);
 1023              		.loc 1 233 0
 1024 01b0 45F808CD 		str	ip, [r5, #-8]!	@ float
 234:..\..\..\liblc3\src/mdct.c ****     }
 1025              		.loc 1 234 0
 1026 01b4 D3ED007A 		vldr.32	s15, [r3]
 233:..\..\..\liblc3\src/mdct.c ****         *(y1++) = (*(d0++) = *(x0++)) * *(w2++) + (*d1 = *(--x1)) * *(--w3);
 1027              		.loc 1 233 0
 1028 01b8 0595     		str	r5, [sp, #20]
 1029              	.LVL106:
 234:..\..\..\liblc3\src/mdct.c ****     }
 1030              		.loc 1 234 0
 1031 01ba 069D     		ldr	r5, [sp, #24]
 1032              	.LVL107:
 1033 01bc 57ED016A 		vldr.32	s13, [r7, #-4]
 1034 01c0 C4ED007A 		vstr.32	s15, [r4]
ARM GAS  C:\Users\rdn\AppData\Local\Temp\ccNOUFME.s 			page 30


 1035              	.LVL108:
 1036 01c4 15ED026A 		vldr.32	s12, [r5, #-8]
 1037 01c8 67EE867A 		vmul.f32	s15, s15, s12
 1038 01cc 083D     		subs	r5, r5, #8
 1039 01ce E7EE267A 		vfma.f32	s15, s14, s13
 1040 01d2 0695     		str	r5, [sp, #24]
 1041              	.LVL109:
 1042 01d4 46ED017A 		vstr.32	s15, [r6, #-4]
 1043 01d8 A5E7     		b	.L35
 1044              	.LVL110:
 1045              	.L43:
 1046              	.LBE102:
 1047              	.LBE108:
 1048              	.LBB109:
 1049              	.LBB110:
 250:..\..\..\liblc3\src/mdct.c ****     const struct lc3_complex *w0 = def->w, *w1 = w0 + n4;
 1050              		.loc 1 250 0
 1051 01da D8F80030 		ldr	r3, [r8]
 251:..\..\..\liblc3\src/mdct.c ****     struct lc3_complex *y0 = y, *y1 = y0 + n4;
 1052              		.loc 1 251 0
 1053 01de D8F80400 		ldr	r0, [r8, #4]
 250:..\..\..\liblc3\src/mdct.c ****     const struct lc3_complex *w0 = def->w, *w1 = w0 + n4;
 1054              		.loc 1 250 0
 1055 01e2 DB00     		lsls	r3, r3, #3
 1056              	.LVL111:
 1057 01e4 0AAA     		add	r2, sp, #40
 1058              	.LVL112:
 1059 01e6 D118     		adds	r1, r2, r3
 1060 01e8 0344     		add	r3, r3, r0
 1061              	.LVL113:
 1062              	.L37:
 254:..\..\..\liblc3\src/mdct.c ****         struct lc3_complex u, uw = *(w0++);
 1063              		.loc 1 254 0
 1064 01ea 9142     		cmp	r1, r2
 1065 01ec 02F10802 		add	r2, r2, #8
 1066              	.LVL114:
 1067 01f0 2CD9     		bls	.L44
 1068              	.LBB111:
 255:..\..\..\liblc3\src/mdct.c ****         u.re = - *(--x1) * uw.re + *x0 * uw.im;
 1069              		.loc 1 255 0
 1070 01f2 0446     		mov	r4, r0
 1071 01f4 0830     		adds	r0, r0, #8
 1072              	.LVL115:
 1073 01f6 10ED017A 		vldr.32	s14, [r0, #-4]
 256:..\..\..\liblc3\src/mdct.c ****         u.im =   *(x0++) * uw.re + *x1 * uw.im;
 1074              		.loc 1 256 0
 1075 01fa 51ED013A 		vldr.32	s7, [r1, #-4]
 1076 01fe 52ED024A 		vldr.32	s9, [r2, #-8]
 255:..\..\..\liblc3\src/mdct.c ****         u.re = - *(--x1) * uw.re + *x0 * uw.im;
 1077              		.loc 1 255 0
 1078 0202 94ED004A 		vldr.32	s8, [r4]
 1079              	.LVL116:
 259:..\..\..\liblc3\src/mdct.c ****         v.re = - *(--x1) * vw.im + *x0 * vw.re;
 1080              		.loc 1 259 0
 1081 0206 13ED025A 		vldr.32	s10, [r3, #-8]
 1082              	.LVL117:
 260:..\..\..\liblc3\src/mdct.c ****         v.im = - *(x0++) * vw.im - *x1 * vw.re;
ARM GAS  C:\Users\rdn\AppData\Local\Temp\ccNOUFME.s 			page 31


 1083              		.loc 1 260 0
 1084 020a 52ED015A 		vldr.32	s11, [r2, #-4]
 259:..\..\..\liblc3\src/mdct.c ****         v.re = - *(--x1) * vw.im + *x0 * vw.re;
 1085              		.loc 1 259 0
 1086 020e 13ED016A 		vldr.32	s12, [r3, #-4]
 1087              	.LVL118:
 260:..\..\..\liblc3\src/mdct.c ****         v.im = - *(x0++) * vw.im - *x1 * vw.re;
 1088              		.loc 1 260 0
 1089 0212 51ED027A 		vldr.32	s15, [r1, #-8]
 1090              	.LVL119:
 263:..\..\..\liblc3\src/mdct.c ****         *(--y1) = v;
 1091              		.loc 1 263 0
 1092 0216 67EE246A 		vmul.f32	s13, s14, s9
 1093 021a 27EE237A 		vmul.f32	s14, s14, s7
 1094              	.LVL120:
 1095 021e E3EEC46A 		vfms.f32	s13, s7, s8
 1096              	.LVL121:
 1097 0222 0839     		subs	r1, r1, #8
 1098              	.LVL122:
 1099 0224 083B     		subs	r3, r3, #8
 1100 0226 A4EE247A 		vfma.f32	s14, s8, s9
 1101              	.LVL123:
 1102 022a 42ED026A 		vstr.32	s13, [r2, #-8]
 1103              	.LVL124:
 1104 022e 02ED017A 		vstr.32	s14, [r2, #-4]
 1105              	.LVL125:
 264:..\..\..\liblc3\src/mdct.c ****     }
 1106              		.loc 1 264 0
 1107 0232 25EE257A 		vmul.f32	s14, s10, s11
 1108              	.LVL126:
 1109 0236 A7EEC67A 		vfms.f32	s14, s15, s12
 1110              	.LVL127:
 1111 023a 67EEC57A 		vnmul.f32	s15, s15, s10
 1112              	.LVL128:
 1113 023e 81ED007A 		vstr.32	s14, [r1]
 1114              	.LVL129:
 1115 0242 E5EEC67A 		vfms.f32	s15, s11, s12
 1116              	.LVL130:
 1117 0246 C1ED017A 		vstr.32	s15, [r1, #4]
 1118              	.LVL131:
 1119 024a CEE7     		b	.L37
 1120              	.LVL132:
 1121              	.L44:
 1122              	.LBE111:
 1123              	.LBE110:
 1124              	.LBE109:
 435:..\..\..\liblc3\src/mdct.c ****     int ns_dst = lc3_ns(dt, sr_dst);
 436:..\..\..\liblc3\src/mdct.c ****     int ns = lc3_ns(dt, sr);
 437:..\..\..\liblc3\src/mdct.c **** 
 438:..\..\..\liblc3\src/mdct.c ****     struct lc3_complex buffer[LC3_MAX_NS / 2];
 439:..\..\..\liblc3\src/mdct.c ****     struct lc3_complex *z = (struct lc3_complex *)y;
 440:..\..\..\liblc3\src/mdct.c ****     union { float *f; struct lc3_complex *z; } u = { .z = buffer };
 441:..\..\..\liblc3\src/mdct.c **** 
 442:..\..\..\liblc3\src/mdct.c ****     mdct_window(dt, sr, x, d, u.f);
 443:..\..\..\liblc3\src/mdct.c **** 
 444:..\..\..\liblc3\src/mdct.c ****     mdct_pre_fft(rot, u.f, u.z);
 445:..\..\..\liblc3\src/mdct.c ****     u.z = fft(u.z, ns/2, u.z, z);
ARM GAS  C:\Users\rdn\AppData\Local\Temp\ccNOUFME.s 			page 32


 1125              		.loc 1 445 0
 1126 024c 0AAA     		add	r2, sp, #40
 1127              	.LVL133:
 1128 024e DDF8543F 		ldr	r3, [sp, #3924]
 1129 0252 0899     		ldr	r1, [sp, #32]
 1130 0254 1046     		mov	r0, r2
 1131 0256 FFF7FEFF 		bl	fft
 1132              	.LVL134:
 1133              	.LBB112:
 1134              	.LBB113:
 278:..\..\..\liblc3\src/mdct.c **** 
 1135              		.loc 1 278 0
 1136 025a D8F80020 		ldr	r2, [r8]
 1137              	.LVL135:
 280:..\..\..\liblc3\src/mdct.c ****     const struct lc3_complex *x0 = x + n8, *x1 = x0 - 1;
 1138              		.loc 1 280 0
 1139 025e D8F80410 		ldr	r1, [r8, #4]
 1140 0262 5310     		asrs	r3, r2, #1
 1141              	.LVL136:
 1142 0264 DB00     		lsls	r3, r3, #3
 1143              	.LVL137:
 281:..\..\..\liblc3\src/mdct.c **** 
 1144              		.loc 1 281 0
 1145 0266 1844     		add	r0, r0, r3
 1146              	.LVL138:
 1147 0268 0B44     		add	r3, r3, r1
 1148              	.LVL139:
 1149 026a DDF8541F 		ldr	r1, [sp, #3924]
 1150 026e 01EB8202 		add	r2, r1, r2, lsl #2
 1151              	.LVL140:
 1152 0272 A0F10805 		sub	r5, r0, #8
 1153 0276 A3F10804 		sub	r4, r3, #8
 283:..\..\..\liblc3\src/mdct.c **** 
 1154              		.loc 1 283 0
 1155 027a 1146     		mov	r1, r2
 1156              	.LVL141:
 1157              	.L39:
 285:..\..\..\liblc3\src/mdct.c **** 
 1158              		.loc 1 285 0
 1159 027c DDF8546F 		ldr	r6, [sp, #3924]
 1160 0280 8E42     		cmp	r6, r1
 1161 0282 00F10800 		add	r0, r0, #8
 1162              	.LVL142:
 1163 0286 03F10803 		add	r3, r3, #8
 1164 028a A5F10805 		sub	r5, r5, #8
 1165 028e A4F10804 		sub	r4, r4, #8
 1166 0292 02F10802 		add	r2, r2, #8
 1167 0296 2AD2     		bcs	.L45
 1168              	.LBB114:
 287:..\..\..\liblc3\src/mdct.c ****         float u1 = x1->re * w1->im - x1->im * w1->re;
 1169              		.loc 1 287 0
 1170 0298 50ED024A 		vldr.32	s9, [r0, #-8]
 1171 029c 13ED027A 		vldr.32	s14, [r3, #-8]
 1172 02a0 50ED013A 		vldr.32	s7, [r0, #-4]
 1173 02a4 13ED014A 		vldr.32	s8, [r3, #-4]
 1174              	.LVL143:
 288:..\..\..\liblc3\src/mdct.c **** 
ARM GAS  C:\Users\rdn\AppData\Local\Temp\ccNOUFME.s 			page 33


 1175              		.loc 1 288 0
 1176 02a8 95ED036A 		vldr.32	s12, [r5, #12]
 1177 02ac 94ED025A 		vldr.32	s10, [r4, #8]
 1178 02b0 D5ED027A 		vldr.32	s15, [r5, #8]
 1179 02b4 D4ED035A 		vldr.32	s11, [r4, #12]
 1180              	.LVL144:
 293:..\..\..\liblc3\src/mdct.c ****         *(--y1) = v0;  *(--y1) = v1;
 1181              		.loc 1 293 0
 1182 02b8 64EE876A 		vmul.f32	s13, s9, s14
 294:..\..\..\liblc3\src/mdct.c ****     }
 1183              		.loc 1 294 0
 1184 02bc 27EE637A 		vnmul.f32	s14, s14, s7
 1185              	.LVL145:
 293:..\..\..\liblc3\src/mdct.c ****         *(--y1) = v0;  *(--y1) = v1;
 1186              		.loc 1 293 0
 1187 02c0 E3EE846A 		vfma.f32	s13, s7, s8
 1188              	.LVL146:
 294:..\..\..\liblc3\src/mdct.c ****     }
 1189              		.loc 1 294 0
 1190 02c4 A4EE247A 		vfma.f32	s14, s8, s9
 1191              	.LVL147:
 293:..\..\..\liblc3\src/mdct.c ****         *(--y1) = v0;  *(--y1) = v1;
 1192              		.loc 1 293 0
 1193 02c8 42ED026A 		vstr.32	s13, [r2, #-8]
 1194 02cc 65EE466A 		vnmul.f32	s13, s10, s12
 1195              	.LVL148:
 1196 02d0 E7EEA56A 		vfma.f32	s13, s15, s11
 1197              	.LVL149:
 294:..\..\..\liblc3\src/mdct.c ****     }
 1198              		.loc 1 294 0
 1199 02d4 67EE857A 		vmul.f32	s15, s15, s10
 1200              	.LVL150:
 293:..\..\..\liblc3\src/mdct.c ****         *(--y1) = v0;  *(--y1) = v1;
 1201              		.loc 1 293 0
 1202 02d8 42ED016A 		vstr.32	s13, [r2, #-4]
 1203              	.LVL151:
 294:..\..\..\liblc3\src/mdct.c ****     }
 1204              		.loc 1 294 0
 1205 02dc E5EE867A 		vfma.f32	s15, s11, s12
 1206              	.LVL152:
 1207 02e0 01ED017A 		vstr.32	s14, [r1, #-4]
 1208              	.LVL153:
 1209 02e4 17EE906A 		vmov	r6, s15
 1210 02e8 41F8086D 		str	r6, [r1, #-8]!	@ float
 1211              	.LVL154:
 1212 02ec C6E7     		b	.L39
 1213              	.LVL155:
 1214              	.L45:
 1215              	.LBE114:
 1216              	.LBE113:
 1217              	.LBE112:
 446:..\..\..\liblc3\src/mdct.c ****     mdct_post_fft(rot, u.z, y);
 447:..\..\..\liblc3\src/mdct.c **** 
 448:..\..\..\liblc3\src/mdct.c ****     if (ns != ns_dst)
 1218              		.loc 1 448 0
 1219 02ee 039B     		ldr	r3, [sp, #12]
 1220 02f0 9945     		cmp	r9, r3
ARM GAS  C:\Users\rdn\AppData\Local\Temp\ccNOUFME.s 			page 34


 1221 02f2 14D0     		beq	.L31
 449:..\..\..\liblc3\src/mdct.c ****         rescale(y, ns_dst, sqrtf((float)ns_dst / ns));
 1222              		.loc 1 449 0
 1223 02f4 07EE903A 		vmov	s15, r3	@ int
 1224 02f8 B8EEE77A 		vcvt.f32.s32	s14, s15
 1225 02fc 07EE909A 		vmov	s15, r9	@ int
 1226 0300 F8EEE77A 		vcvt.f32.s32	s15, s15
 1227 0304 C7EE276A 		vdiv.f32	s13, s14, s15
 1228 0308 16EE900A 		vmov	r0, s13
 1229 030c FFF7FEFF 		bl	sqrtf
 1230              	.LVL156:
 1231 0310 0399     		ldr	r1, [sp, #12]
 1232 0312 00EE100A 		vmov	s0, r0
 1233 0316 DDF8540F 		ldr	r0, [sp, #3924]
 1234 031a FFF7FEFF 		bl	rescale
 1235              	.LVL157:
 1236              	.L31:
 450:..\..\..\liblc3\src/mdct.c **** }
 1237              		.loc 1 450 0
 1238 031e 0DF62C7D 		addw	sp, sp, #3884
 1239              		.cfi_def_cfa_offset 36
 1240              		@ sp needed
 1241 0322 BDE8F08F 		pop	{r4, r5, r6, r7, r8, r9, r10, fp, pc}
 1242              	.LVL158:
 1243              	.L47:
 1244 0326 00BF     		.align	2
 1245              	.L46:
 1246 0328 00000000 		.word	lc3_mdct_rot
 1247 032c 00000000 		.word	lc3_ns_2m5
 1248 0330 00000000 		.word	lc3_ns_4m
 1249 0334 00000000 		.word	lc3_mdct_win
 1250              		.cfi_endproc
 1251              	.LFE31:
 1252              		.size	lc3_mdct_forward, .-lc3_mdct_forward
 1253              		.section	.text.lc3_mdct_inverse,"ax",%progbits
 1254              		.align	1
 1255              		.global	lc3_mdct_inverse
 1256              		.thumb
 1257              		.thumb_func
 1258              		.type	lc3_mdct_inverse, %function
 1259              	lc3_mdct_inverse:
 1260              	.LFB32:
 451:..\..\..\liblc3\src/mdct.c **** 
 452:..\..\..\liblc3\src/mdct.c **** /**
 453:..\..\..\liblc3\src/mdct.c ****  * Inverse MDCT transformation
 454:..\..\..\liblc3\src/mdct.c ****  */
 455:..\..\..\liblc3\src/mdct.c **** void lc3_mdct_inverse(
 456:..\..\..\liblc3\src/mdct.c ****     enum lc3_dt dt, enum lc3_srate sr, enum lc3_srate sr_src,
 457:..\..\..\liblc3\src/mdct.c ****     const float *x, float *d, float *y)
 458:..\..\..\liblc3\src/mdct.c **** {
 1261              		.loc 1 458 0
 1262              		.cfi_startproc
 1263              		@ args = 8, pretend = 0, frame = 3848
 1264              		@ frame_needed = 0, uses_anonymous_args = 0
 1265              	.LVL159:
 1266 0000 2DE9F04F 		push	{r4, r5, r6, r7, r8, r9, r10, fp, lr}
 1267              		.cfi_def_cfa_offset 36
ARM GAS  C:\Users\rdn\AppData\Local\Temp\ccNOUFME.s 			page 35


 1268              		.cfi_offset 4, -36
 1269              		.cfi_offset 5, -32
 1270              		.cfi_offset 6, -28
 1271              		.cfi_offset 7, -24
 1272              		.cfi_offset 8, -20
 1273              		.cfi_offset 9, -16
 1274              		.cfi_offset 10, -12
 1275              		.cfi_offset 11, -8
 1276              		.cfi_offset 14, -4
 1277 0004 8846     		mov	r8, r1
 459:..\..\..\liblc3\src/mdct.c ****     const struct lc3_mdct_rot_def *rot = lc3_mdct_rot[dt][sr];
 1278              		.loc 1 459 0
 1279 0006 C0EBC001 		rsb	r1, r0, r0, lsl #3
 1280              	.LVL160:
 458:..\..\..\liblc3\src/mdct.c ****     const struct lc3_mdct_rot_def *rot = lc3_mdct_rot[dt][sr];
 1281              		.loc 1 458 0
 1282 000a 0746     		mov	r7, r0
 1283              		.loc 1 459 0
 1284 000c 4144     		add	r1, r1, r8
 1285 000e C348     		ldr	r0, .L69
 1286              	.LVL161:
 1287 0010 50F82190 		ldr	r9, [r0, r1, lsl #2]
 1288              	.LBB133:
 1289              	.LBB134:
  47:..\..\..\liblc3\src/tables.h **** }
 1290              		.loc 2 47 0
 1291 0014 C249     		ldr	r1, .L69+4
 1292              	.LBE134:
 1293              	.LBE133:
 1294              	.LBB138:
 1295              	.LBB139:
 314:..\..\..\liblc3\src/mdct.c ****     struct lc3_complex *y0 = y, *y1 = y0 + n4;
 1296              		.loc 1 314 0
 1297 0016 D9F804E0 		ldr	lr, [r9, #4]
 1298              	.LBE139:
 1299              	.LBE138:
 1300              	.LBB144:
 1301              	.LBB135:
  47:..\..\..\liblc3\src/tables.h **** }
 1302              		.loc 2 47 0
 1303 001a 51F82220 		ldr	r2, [r1, r2, lsl #2]
 1304              	.LVL162:
 1305              	.LBE135:
 1306              	.LBE144:
 1307              	.LBB145:
 1308              	.LBB146:
 1309 001e 51F82860 		ldr	r6, [r1, r8, lsl #2]
 1310              	.LBE146:
 1311              	.LBE145:
 1312              	.LBB148:
 1313              	.LBB136:
 1314 0022 7C1C     		adds	r4, r7, #1
 1315              	.LBE136:
 1316              	.LBE148:
 458:..\..\..\liblc3\src/mdct.c ****     const struct lc3_mdct_rot_def *rot = lc3_mdct_rot[dt][sr];
 1317              		.loc 1 458 0
 1318 0024 ADF60C7D 		subw	sp, sp, #3852
ARM GAS  C:\Users\rdn\AppData\Local\Temp\ccNOUFME.s 			page 36


 1319              		.cfi_def_cfa_offset 3888
 1320              	.LVL163:
 1321              	.LBB149:
 1322              	.LBB137:
  47:..\..\..\liblc3\src/tables.h **** }
 1323              		.loc 2 47 0
 1324 0028 02FB04FB 		mul	fp, r2, r4
 1325              	.LVL164:
 1326              	.LBE137:
 1327              	.LBE149:
 1328              	.LBB150:
 1329              	.LBB141:
 312:..\..\..\liblc3\src/mdct.c **** 
 1330              		.loc 1 312 0
 1331 002c D9F80020 		ldr	r2, [r9]
 1332              	.LBE141:
 1333              	.LBE150:
 458:..\..\..\liblc3\src/mdct.c ****     const struct lc3_mdct_rot_def *rot = lc3_mdct_rot[dt][sr];
 1334              		.loc 1 458 0
 1335 0030 DDF8345F 		ldr	r5, [sp, #3892]
 1336              	.LBB151:
 1337              	.LBB142:
 312:..\..\..\liblc3\src/mdct.c **** 
 1338              		.loc 1 312 0
 1339 0034 D200     		lsls	r2, r2, #3
 1340 0036 9918     		adds	r1, r3, r2
 1341 0038 0EEB020C 		add	ip, lr, r2
 1342              	.LBE142:
 1343              	.LBE151:
 1344              	.LBB152:
 1345              	.LBB147:
  47:..\..\..\liblc3\src/tables.h **** }
 1346              		.loc 2 47 0
 1347 003c 7443     		muls	r4, r6, r4
 1348              	.LVL165:
 1349 003e 2846     		mov	r0, r5
 1350 0040 2A44     		add	r2, r2, r5
 1351              	.LVL166:
 1352              	.L49:
 1353              	.LBE147:
 1354              	.LBE152:
 1355              	.LBB153:
 1356              	.LBB143:
 317:..\..\..\liblc3\src/mdct.c ****         float u0 = *(x0++), u1 = *(--x1);
 1357              		.loc 1 317 0
 1358 0042 8B42     		cmp	r3, r1
 1359 0044 00F10800 		add	r0, r0, #8
 1360 0048 03F10803 		add	r3, r3, #8
 1361              	.LVL167:
 1362 004c 2FD2     		bcs	.L63
 1363              	.LVL168:
 1364              	.LBB140:
 320:..\..\..\liblc3\src/mdct.c **** 
 1365              		.loc 1 320 0
 1366 004e F246     		mov	r10, lr
 1367 0050 0EF1080E 		add	lr, lr, #8
 1368              	.LVL169:
ARM GAS  C:\Users\rdn\AppData\Local\Temp\ccNOUFME.s 			page 37


 318:..\..\..\liblc3\src/mdct.c ****         float v0 = *(x0++), v1 = *(--x1);
 1369              		.loc 1 318 0
 1370 0054 11ED014A 		vldr.32	s8, [r1, #-4]
 320:..\..\..\liblc3\src/mdct.c **** 
 1371              		.loc 1 320 0
 1372 0058 5EED013A 		vldr.32	s7, [lr, #-4]
 318:..\..\..\liblc3\src/mdct.c ****         float v0 = *(x0++), v1 = *(--x1);
 1373              		.loc 1 318 0
 1374 005c 13ED027A 		vldr.32	s14, [r3, #-8]
 1375              	.LVL170:
 320:..\..\..\liblc3\src/mdct.c **** 
 1376              		.loc 1 320 0
 1377 0060 DAED004A 		vldr.32	s9, [r10]
 1378 0064 1CED015A 		vldr.32	s10, [ip, #-4]
 319:..\..\..\liblc3\src/mdct.c ****         struct lc3_complex uw = *(w0++), vw = *(--w1);
 1379              		.loc 1 319 0
 1380 0068 53ED015A 		vldr.32	s11, [r3, #-4]
 1381              	.LVL171:
 320:..\..\..\liblc3\src/mdct.c **** 
 1382              		.loc 1 320 0
 1383 006c 1CED026A 		vldr.32	s12, [ip, #-8]
 319:..\..\..\liblc3\src/mdct.c ****         struct lc3_complex uw = *(w0++), vw = *(--w1);
 1384              		.loc 1 319 0
 1385 0070 51ED027A 		vldr.32	s15, [r1, #-8]
 1386              	.LVL172:
 322:..\..\..\liblc3\src/mdct.c ****         (y0++)->im = - u1 * uw.re + u0 * uw.im;
 1387              		.loc 1 322 0
 1388 0074 63EEC46A 		vnmul.f32	s13, s7, s8
 319:..\..\..\liblc3\src/mdct.c ****         struct lc3_complex uw = *(w0++), vw = *(--w1);
 1389              		.loc 1 319 0
 1390 0078 0839     		subs	r1, r1, #8
 1391              	.LVL173:
 322:..\..\..\liblc3\src/mdct.c ****         (y0++)->im = - u1 * uw.re + u0 * uw.im;
 1392              		.loc 1 322 0
 1393 007a E7EE646A 		vfms.f32	s13, s14, s9
 1394 007e ACF1080C 		sub	ip, ip, #8
 1395 0082 083A     		subs	r2, r2, #8
 323:..\..\..\liblc3\src/mdct.c **** 
 1396              		.loc 1 323 0
 1397 0084 27EE237A 		vmul.f32	s14, s14, s7
 1398              	.LVL174:
 322:..\..\..\liblc3\src/mdct.c ****         (y0++)->im = - u1 * uw.re + u0 * uw.im;
 1399              		.loc 1 322 0
 1400 0088 40ED026A 		vstr.32	s13, [r0, #-8]
 1401              	.LVL175:
 323:..\..\..\liblc3\src/mdct.c **** 
 1402              		.loc 1 323 0
 1403 008c A4EE647A 		vfms.f32	s14, s8, s9
 1404 0090 00ED017A 		vstr.32	s14, [r0, #-4]
 1405              	.LVL176:
 325:..\..\..\liblc3\src/mdct.c ****         (  y1)->im = - v0 * vw.re + v1 * vw.im;
 1406              		.loc 1 325 0
 1407 0094 25EE657A 		vnmul.f32	s14, s10, s11
 1408 0098 A7EEC67A 		vfms.f32	s14, s15, s12
 326:..\..\..\liblc3\src/mdct.c ****     }
 1409              		.loc 1 326 0
 1410 009c 67EE857A 		vmul.f32	s15, s15, s10
ARM GAS  C:\Users\rdn\AppData\Local\Temp\ccNOUFME.s 			page 38


 1411              	.LVL177:
 325:..\..\..\liblc3\src/mdct.c ****         (  y1)->im = - v0 * vw.re + v1 * vw.im;
 1412              		.loc 1 325 0
 1413 00a0 82ED007A 		vstr.32	s14, [r2]
 326:..\..\..\liblc3\src/mdct.c ****     }
 1414              		.loc 1 326 0
 1415 00a4 E5EEC67A 		vfms.f32	s15, s11, s12
 1416 00a8 C2ED017A 		vstr.32	s15, [r2, #4]
 1417              	.LVL178:
 1418 00ac C9E7     		b	.L49
 1419              	.LVL179:
 1420              	.L63:
 1421              	.LBE140:
 1422              	.LBE143:
 1423              	.LBE153:
 460:..\..\..\liblc3\src/mdct.c ****     int ns_src = lc3_ns(dt, sr_src);
 461:..\..\..\liblc3\src/mdct.c ****     int ns = lc3_ns(dt, sr);
 462:..\..\..\liblc3\src/mdct.c **** 
 463:..\..\..\liblc3\src/mdct.c ****     struct lc3_complex buffer[LC3_MAX_NS / 2];
 464:..\..\..\liblc3\src/mdct.c ****     struct lc3_complex *z = (struct lc3_complex *)y;
 465:..\..\..\liblc3\src/mdct.c ****     union { float *f; struct lc3_complex *z; } u = { .z = buffer };
 466:..\..\..\liblc3\src/mdct.c **** 
 467:..\..\..\liblc3\src/mdct.c ****     imdct_pre_fft(rot, x, z);
 468:..\..\..\liblc3\src/mdct.c ****     z = fft(z, ns/2, z, u.z);
 1424              		.loc 1 468 0
 1425 00ae 02AB     		add	r3, sp, #8
 1426              	.LVL180:
 1427 00b0 2A46     		mov	r2, r5
 1428 00b2 0221     		movs	r1, #2
 1429 00b4 2846     		mov	r0, r5
 1430 00b6 94FBF1F1 		sdiv	r1, r4, r1
 1431 00ba FFF7FEFF 		bl	fft
 1432              	.LVL181:
 1433              	.LBB154:
 1434              	.LBB155:
 344:..\..\..\liblc3\src/mdct.c ****     const struct lc3_complex *x0 = x, *x1 = x0 + n4;
 1435              		.loc 1 344 0
 1436 00be D9F80030 		ldr	r3, [r9]
 1437 00c2 D9F80410 		ldr	r1, [r9, #4]
 1438              	.LVL182:
 1439 00c6 DB00     		lsls	r3, r3, #3
 1440              	.LVL183:
 1441 00c8 0DF1080E 		add	lr, sp, #8
 1442              	.LVL184:
 1443 00cc C218     		adds	r2, r0, r3
 1444              	.LVL185:
 1445 00ce 01EB030C 		add	ip, r1, r3
 1446              	.LVL186:
 1447 00d2 7344     		add	r3, r3, lr
 1448              	.LVL187:
 1449 00d4 0DF1100E 		add	lr, sp, #16
 1450              	.LVL188:
 1451              	.L51:
 349:..\..\..\liblc3\src/mdct.c ****         struct lc3_complex uz = *(x0++), vz = *(--x1);
 1452              		.loc 1 349 0
 1453 00d8 9042     		cmp	r0, r2
 1454 00da 0EF1080E 		add	lr, lr, #8
ARM GAS  C:\Users\rdn\AppData\Local\Temp\ccNOUFME.s 			page 39


 1455 00de 31D2     		bcs	.L64
 1456              	.LBB156:
 350:..\..\..\liblc3\src/mdct.c ****         struct lc3_complex uw = *(w0++), vw = *(--w1);
 1457              		.loc 1 350 0
 1458 00e0 8146     		mov	r9, r0
 1459 00e2 99ED004A 		vldr.32	s8, [r9]
 1460              	.LVL189:
 1461 00e6 90ED017A 		vldr.32	s14, [r0, #4]
 1462              	.LVL190:
 1463 00ea 52ED017A 		vldr.32	s15, [r2, #-4]
 351:..\..\..\liblc3\src/mdct.c **** 
 1464              		.loc 1 351 0
 1465 00ee 1CED026A 		vldr.32	s12, [ip, #-8]
 350:..\..\..\liblc3\src/mdct.c ****         struct lc3_complex uw = *(w0++), vw = *(--w1);
 1466              		.loc 1 350 0
 1467 00f2 52ED025A 		vldr.32	s11, [r2, #-8]
 1468              	.LVL191:
 351:..\..\..\liblc3\src/mdct.c **** 
 1469              		.loc 1 351 0
 1470 00f6 1CED015A 		vldr.32	s10, [ip, #-4]
 1471 00fa 8946     		mov	r9, r1
 350:..\..\..\liblc3\src/mdct.c ****         struct lc3_complex uw = *(w0++), vw = *(--w1);
 1472              		.loc 1 350 0
 1473 00fc 0830     		adds	r0, r0, #8
 1474              	.LVL192:
 351:..\..\..\liblc3\src/mdct.c **** 
 1475              		.loc 1 351 0
 1476 00fe 0831     		adds	r1, r1, #8
 1477              	.LVL193:
 1478 0100 D9ED004A 		vldr.32	s9, [r9]
 1479              	.LVL194:
 1480 0104 51ED013A 		vldr.32	s7, [r1, #-4]
 1481              	.LVL195:
 353:..\..\..\liblc3\src/mdct.c ****         *(--y1) = uz.re * uw.re + uz.im * uw.im;
 1482              		.loc 1 353 0
 1483 0108 64EEC76A 		vnmul.f32	s13, s9, s14
 354:..\..\..\liblc3\src/mdct.c **** 
 1484              		.loc 1 354 0
 1485 010c 27EE237A 		vmul.f32	s14, s14, s7
 1486              	.LVL196:
 353:..\..\..\liblc3\src/mdct.c ****         *(--y1) = uz.re * uw.re + uz.im * uw.im;
 1487              		.loc 1 353 0
 1488 0110 E4EE236A 		vfma.f32	s13, s8, s7
 1489 0114 083A     		subs	r2, r2, #8
 1490              	.LVL197:
 1491 0116 ACF1080C 		sub	ip, ip, #8
 354:..\..\..\liblc3\src/mdct.c **** 
 1492              		.loc 1 354 0
 1493 011a A4EE247A 		vfma.f32	s14, s8, s9
 353:..\..\..\liblc3\src/mdct.c ****         *(--y1) = uz.re * uw.re + uz.im * uw.im;
 1494              		.loc 1 353 0
 1495 011e 4EED046A 		vstr.32	s13, [lr, #-16]
 1496              	.LVL198:
 354:..\..\..\liblc3\src/mdct.c **** 
 1497              		.loc 1 354 0
 1498 0122 03ED017A 		vstr.32	s14, [r3, #-4]
 356:..\..\..\liblc3\src/mdct.c ****         *(y0++) = vz.re * vw.re + vz.im * vw.im;
ARM GAS  C:\Users\rdn\AppData\Local\Temp\ccNOUFME.s 			page 40


 1499              		.loc 1 356 0
 1500 0126 26EE677A 		vnmul.f32	s14, s12, s15
 357:..\..\..\liblc3\src/mdct.c ****     }
 1501              		.loc 1 357 0
 1502 012a 67EE857A 		vmul.f32	s15, s15, s10
 1503              	.LVL199:
 356:..\..\..\liblc3\src/mdct.c ****         *(y0++) = vz.re * vw.re + vz.im * vw.im;
 1504              		.loc 1 356 0
 1505 012e A5EE857A 		vfma.f32	s14, s11, s10
 357:..\..\..\liblc3\src/mdct.c ****     }
 1506              		.loc 1 357 0
 1507 0132 E5EE867A 		vfma.f32	s15, s11, s12
 356:..\..\..\liblc3\src/mdct.c ****         *(y0++) = vz.re * vw.re + vz.im * vw.im;
 1508              		.loc 1 356 0
 1509 0136 17EE109A 		vmov	r9, s14
 1510              	.LVL200:
 1511 013a 43F8089D 		str	r9, [r3, #-8]!	@ float
 1512              	.LVL201:
 357:..\..\..\liblc3\src/mdct.c ****     }
 1513              		.loc 1 357 0
 1514 013e 4EED037A 		vstr.32	s15, [lr, #-12]
 1515              	.LVL202:
 1516 0142 C9E7     		b	.L51
 1517              	.LVL203:
 1518              	.L64:
 1519              	.LBE156:
 1520              	.LBE155:
 1521              	.LBE154:
 469:..\..\..\liblc3\src/mdct.c ****     imdct_post_fft(rot, z, u.f);
 470:..\..\..\liblc3\src/mdct.c **** 
 471:..\..\..\liblc3\src/mdct.c ****     if (ns != ns_src)
 1522              		.loc 1 471 0
 1523 0144 5C45     		cmp	r4, fp
 1524 0146 13D0     		beq	.L53
 472:..\..\..\liblc3\src/mdct.c ****         rescale(u.f, ns, sqrtf((float)ns / ns_src));
 1525              		.loc 1 472 0
 1526 0148 07EE90BA 		vmov	s15, fp	@ int
 1527 014c 07EE104A 		vmov	s14, r4	@ int
 1528 0150 F8EEE77A 		vcvt.f32.s32	s15, s15
 1529 0154 B8EEC77A 		vcvt.f32.s32	s14, s14
 1530 0158 C7EE276A 		vdiv.f32	s13, s14, s15
 1531 015c 16EE900A 		vmov	r0, s13
 1532              	.LVL204:
 1533 0160 FFF7FEFF 		bl	sqrtf
 1534              	.LVL205:
 1535 0164 2146     		mov	r1, r4
 1536 0166 00EE100A 		vmov	s0, r0
 1537 016a 02A8     		add	r0, sp, #8
 1538              	.LVL206:
 1539 016c FFF7FEFF 		bl	rescale
 1540              	.LVL207:
 1541              	.L53:
 1542              	.LBB157:
 1543              	.LBB158:
 377:..\..\..\liblc3\src/mdct.c ****     int n4 = lc3_ns(dt, sr) >> 1, nd = lc3_nd(dt, sr);
 1544              		.loc 1 377 0
 1545 0170 C7EBC703 		rsb	r3, r7, r7, lsl #3
ARM GAS  C:\Users\rdn\AppData\Local\Temp\ccNOUFME.s 			page 41


 1546 0174 4344     		add	r3, r3, r8
 1547 0176 6B4A     		ldr	r2, .L69+8
 1548              	.LBB159:
 1549              	.LBB160:
 1550              		.loc 2 56 0
 1551 0178 022F     		cmp	r7, #2
 1552              	.LBE160:
 1553              	.LBE159:
 377:..\..\..\liblc3\src/mdct.c ****     int n4 = lc3_ns(dt, sr) >> 1, nd = lc3_nd(dt, sr);
 1554              		.loc 1 377 0
 1555 017a 52F82300 		ldr	r0, [r2, r3, lsl #2]
 1556              	.LVL208:
 1557              	.LBB162:
 1558              	.LBB161:
 1559              		.loc 2 56 0
 1560 017e 04BF     		itt	eq
 1561 0180 694B     		ldreq	r3, .L69+12
 1562 0182 53F82860 		ldreq	r6, [r3, r8, lsl #2]
 1563              	.LBE161:
 1564              	.LBE162:
 382:..\..\..\liblc3\src/mdct.c **** 
 1565              		.loc 1 382 0
 1566 0186 DDF8303F 		ldr	r3, [sp, #3888]
 381:..\..\..\liblc3\src/mdct.c ****     float *y0 = y + nd-n4, *y1 = y0, *y2 = d + nd, *y3 = d;
 1567              		.loc 1 381 0
 1568 018a A119     		adds	r1, r4, r6
 378:..\..\..\liblc3\src/mdct.c ****     const float *w2 = win, *w0 = w2 + 3*n4, *w1 = w0;
 1569              		.loc 1 378 0
 1570 018c 4FEA6409 		asr	r9, r4, #1
 1571              	.LVL209:
 381:..\..\..\liblc3\src/mdct.c ****     float *y0 = y + nd-n4, *y1 = y0, *y2 = d + nd, *y3 = d;
 1572              		.loc 1 381 0
 1573 0190 4910     		asrs	r1, r1, #1
 1574 0192 C9EB0102 		rsb	r2, r9, r1
 382:..\..\..\liblc3\src/mdct.c **** 
 1575              		.loc 1 382 0
 1576 0196 8900     		lsls	r1, r1, #2
 1577 0198 0B44     		add	r3, r3, r1
 1578 019a 0193     		str	r3, [sp, #4]
 1579 019c DDF8303F 		ldr	r3, [sp, #3888]
 381:..\..\..\liblc3\src/mdct.c ****     float *y0 = y + nd-n4, *y1 = y0, *y2 = d + nd, *y3 = d;
 1580              		.loc 1 381 0
 1581 01a0 9200     		lsls	r2, r2, #2
 1582              	.LVL210:
 1583 01a2 0C27     		movs	r7, #12
 1584              	.LVL211:
 1585 01a4 03EB0208 		add	r8, r3, r2
 1586 01a8 07FB0907 		mla	r7, r7, r9, r0
 1587 01ac 2A44     		add	r2, r2, r5
 1588              	.LVL212:
 1589 01ae 02AB     		add	r3, sp, #8
 1590              	.LVL213:
 382:..\..\..\liblc3\src/mdct.c **** 
 1591              		.loc 1 382 0
 1592 01b0 9446     		mov	ip, r2
 1593 01b2 3C46     		mov	r4, r7
 1594              	.LVL214:
ARM GAS  C:\Users\rdn\AppData\Local\Temp\ccNOUFME.s 			page 42


 1595 01b4 C646     		mov	lr, r8
 1596              	.LVL215:
 1597              	.L55:
 384:..\..\..\liblc3\src/mdct.c ****         *(--y0) = *(--x0) - *(x  ) * *(w1++);
 1598              		.loc 1 384 0
 1599 01b6 9542     		cmp	r5, r2
 1600 01b8 6646     		mov	r6, ip
 1601              	.LVL216:
 1602 01ba 03F1080B 		add	fp, r3, #8
 1603 01be 07F10807 		add	r7, r7, #8
 1604 01c2 0EF1080A 		add	r10, lr, #8
 1605 01c6 0CF1080C 		add	ip, ip, #8
 1606 01ca 2BD2     		bcs	.L65
 385:..\..\..\liblc3\src/mdct.c ****         *(y1++) = *(x1++) + *(x++) * *(--w0);
 1607              		.loc 1 385 0
 1608 01cc 58ED017A 		vldr.32	s15, [r8, #-4]
 1609 01d0 57ED026A 		vldr.32	s13, [r7, #-8]
 1610 01d4 1BED027A 		vldr.32	s14, [fp, #-8]
 1611              	.LVL217:
 1612 01d8 E7EE667A 		vfms.f32	s15, s14, s13
 388:..\..\..\liblc3\src/mdct.c ****         *(y1++) = *(x1++) + *(x++) * *(--w0);
 1613              		.loc 1 388 0
 1614 01dc A8F10808 		sub	r8, r8, #8
 389:..\..\..\liblc3\src/mdct.c ****     }
 1615              		.loc 1 389 0
 1616 01e0 083C     		subs	r4, r4, #8
 1617              	.LVL218:
 1618 01e2 D646     		mov	lr, r10
 1619              	.LVL219:
 385:..\..\..\liblc3\src/mdct.c ****         *(y1++) = *(x1++) + *(x++) * *(--w0);
 1620              		.loc 1 385 0
 1621 01e4 42ED017A 		vstr.32	s15, [r2, #-4]
 1622              	.LVL220:
 386:..\..\..\liblc3\src/mdct.c **** 
 1623              		.loc 1 386 0
 1624 01e8 D4ED016A 		vldr.32	s13, [r4, #4]
 1625 01ec 5AED027A 		vldr.32	s15, [r10, #-8]
 1626 01f0 E7EE267A 		vfma.f32	s15, s14, s13
 388:..\..\..\liblc3\src/mdct.c ****         *(y1++) = *(x1++) + *(x++) * *(--w0);
 1627              		.loc 1 388 0
 1628 01f4 1BED017A 		vldr.32	s14, [fp, #-4]
 386:..\..\..\liblc3\src/mdct.c **** 
 1629              		.loc 1 386 0
 1630 01f8 4CED027A 		vstr.32	s15, [ip, #-8]
 1631              	.LVL221:
 388:..\..\..\liblc3\src/mdct.c ****         *(y1++) = *(x1++) + *(x++) * *(--w0);
 1632              		.loc 1 388 0
 1633 01fc 57ED016A 		vldr.32	s13, [r7, #-4]
 1634 0200 D8ED007A 		vldr.32	s15, [r8]
 1635 0204 E7EE667A 		vfms.f32	s15, s14, s13
 1636 0208 17EE903A 		vmov	r3, s15
 1637              	.LVL222:
 1638 020c 42F8083D 		str	r3, [r2, #-8]!	@ float
 1639              	.LVL223:
 389:..\..\..\liblc3\src/mdct.c ****     }
 1640              		.loc 1 389 0
 1641 0210 D4ED006A 		vldr.32	s13, [r4]
ARM GAS  C:\Users\rdn\AppData\Local\Temp\ccNOUFME.s 			page 43


 1642 0214 5AED017A 		vldr.32	s15, [r10, #-4]
 1643 0218 E7EE267A 		vfma.f32	s15, s14, s13
 1644 021c 5B46     		mov	r3, fp
 1645 021e 4CED017A 		vstr.32	s15, [ip, #-4]
 1646 0222 C8E7     		b	.L55
 1647              	.LVL224:
 1648              	.L65:
 392:..\..\..\liblc3\src/mdct.c ****         *(y1++) = *(x1++) + *(x++) * *(--w0);
 1649              		.loc 1 392 0
 1650 0224 2944     		add	r1, r1, r5
 1651              	.LVL225:
 1652              	.L57:
 1653 0226 8E42     		cmp	r6, r1
 1654 0228 0EF1080E 		add	lr, lr, #8
 1655 022c 03F10802 		add	r2, r3, #8
 1656 0230 18D2     		bcs	.L66
 1657              	.LVL226:
 393:..\..\..\liblc3\src/mdct.c ****         *(y1++) = *(x1++) + *(x++) * *(--w0);
 1658              		.loc 1 393 0
 1659 0232 14ED017A 		vldr.32	s14, [r4, #-4]
 1660 0236 5EED027A 		vldr.32	s15, [lr, #-8]
 1661 023a 52ED026A 		vldr.32	s13, [r2, #-8]
 1662 023e E6EE877A 		vfma.f32	s15, s13, s14
 394:..\..\..\liblc3\src/mdct.c ****     }
 1663              		.loc 1 394 0
 1664 0242 083C     		subs	r4, r4, #8
 1665              	.LVL227:
 1666 0244 52ED016A 		vldr.32	s13, [r2, #-4]
 393:..\..\..\liblc3\src/mdct.c ****         *(y1++) = *(x1++) + *(x++) * *(--w0);
 1667              		.loc 1 393 0
 1668 0248 17EE903A 		vmov	r3, s15
 1669              	.LVL228:
 1670 024c 46F8083B 		str	r3, [r6], #8	@ float
 1671              	.LVL229:
 394:..\..\..\liblc3\src/mdct.c ****     }
 1672              		.loc 1 394 0
 1673 0250 94ED007A 		vldr.32	s14, [r4]
 1674 0254 5EED017A 		vldr.32	s15, [lr, #-4]
 1675 0258 E6EE877A 		vfma.f32	s15, s13, s14
 1676 025c 1346     		mov	r3, r2
 1677 025e 46ED017A 		vstr.32	s15, [r6, #-4]
 1678 0262 E0E7     		b	.L57
 1679              	.LVL230:
 1680              	.L66:
 1681 0264 0199     		ldr	r1, [sp, #4]
 397:..\..\..\liblc3\src/mdct.c ****         *(y1++) = *(x  ) * *(--w0);
 1682              		.loc 1 397 0
 1683 0266 05EBC905 		add	r5, r5, r9, lsl #3
 1684              	.LVL231:
 1685              	.L59:
 1686 026a AE42     		cmp	r6, r5
 1687 026c 03F10807 		add	r7, r3, #8
 1688 0270 00F10802 		add	r2, r0, #8
 1689 0274 23D2     		bcs	.L67
 398:..\..\..\liblc3\src/mdct.c ****         *(--y2) = *(x++) * *(w2++);
 1690              		.loc 1 398 0
 1691 0276 14ED017A 		vldr.32	s14, [r4, #-4]
ARM GAS  C:\Users\rdn\AppData\Local\Temp\ccNOUFME.s 			page 44


 1692 027a 57ED026A 		vldr.32	s13, [r7, #-8]
 1693              	.LVL232:
 1694 027e 27EE267A 		vmul.f32	s14, s14, s13
 401:..\..\..\liblc3\src/mdct.c ****         *(--y2) = *(x++) * *(w2++);
 1695              		.loc 1 401 0
 1696 0282 083C     		subs	r4, r4, #8
 1697              	.LVL233:
 398:..\..\..\liblc3\src/mdct.c ****         *(--y2) = *(x++) * *(w2++);
 1698              		.loc 1 398 0
 1699 0284 17EE103A 		vmov	r3, s14
 1700              	.LVL234:
 1701 0288 46F8083B 		str	r3, [r6], #8	@ float
 1702              	.LVL235:
 399:..\..\..\liblc3\src/mdct.c **** 
 1703              		.loc 1 399 0
 1704 028c 52ED027A 		vldr.32	s15, [r2, #-8]
 1705 0290 67EEA67A 		vmul.f32	s15, s15, s13
 401:..\..\..\liblc3\src/mdct.c ****         *(--y2) = *(x++) * *(w2++);
 1706              		.loc 1 401 0
 1707 0294 57ED016A 		vldr.32	s13, [r7, #-4]
 399:..\..\..\liblc3\src/mdct.c **** 
 1708              		.loc 1 399 0
 1709 0298 41ED017A 		vstr.32	s15, [r1, #-4]
 1710              	.LVL236:
 401:..\..\..\liblc3\src/mdct.c ****         *(--y2) = *(x++) * *(w2++);
 1711              		.loc 1 401 0
 1712 029c 94ED007A 		vldr.32	s14, [r4]
 1713 02a0 27EE267A 		vmul.f32	s14, s14, s13
 402:..\..\..\liblc3\src/mdct.c ****     }
 1714              		.loc 1 402 0
 1715 02a4 1046     		mov	r0, r2
 1716              	.LVL237:
 401:..\..\..\liblc3\src/mdct.c ****         *(--y2) = *(x++) * *(w2++);
 1717              		.loc 1 401 0
 1718 02a6 06ED017A 		vstr.32	s14, [r6, #-4]
 1719              	.LVL238:
 402:..\..\..\liblc3\src/mdct.c ****     }
 1720              		.loc 1 402 0
 1721 02aa 52ED017A 		vldr.32	s15, [r2, #-4]
 1722 02ae 67EEA67A 		vmul.f32	s15, s15, s13
 1723 02b2 17EE903A 		vmov	r3, s15
 1724 02b6 41F8083D 		str	r3, [r1, #-8]!	@ float
 1725 02ba 3B46     		mov	r3, r7
 1726 02bc D5E7     		b	.L59
 1727              	.LVL239:
 1728              	.L67:
 1729 02be DDF8302F 		ldr	r2, [sp, #3888]
 1730              	.LVL240:
 1731              	.L61:
 405:..\..\..\liblc3\src/mdct.c ****         *(y3++) = *(x  ) * *(--w0);
 1732              		.loc 1 405 0
 1733 02c2 8A42     		cmp	r2, r1
 1734 02c4 03F10803 		add	r3, r3, #8
 1735 02c8 00F10800 		add	r0, r0, #8
 1736 02cc 02F10802 		add	r2, r2, #8
 1737              	.LVL241:
 1738 02d0 1FD2     		bcs	.L68
ARM GAS  C:\Users\rdn\AppData\Local\Temp\ccNOUFME.s 			page 45


 1739              	.LVL242:
 406:..\..\..\liblc3\src/mdct.c ****         *(--y2) = *(x++) * *(w2++);
 1740              		.loc 1 406 0
 1741 02d2 14ED017A 		vldr.32	s14, [r4, #-4]
 1742 02d6 53ED026A 		vldr.32	s13, [r3, #-8]
 1743 02da 27EE267A 		vmul.f32	s14, s14, s13
 409:..\..\..\liblc3\src/mdct.c ****         *(--y2) = *(x++) * *(w2++);
 1744              		.loc 1 409 0
 1745 02de 083C     		subs	r4, r4, #8
 406:..\..\..\liblc3\src/mdct.c ****         *(--y2) = *(x++) * *(w2++);
 1746              		.loc 1 406 0
 1747 02e0 02ED027A 		vstr.32	s14, [r2, #-8]
 1748              	.LVL243:
 407:..\..\..\liblc3\src/mdct.c **** 
 1749              		.loc 1 407 0
 1750 02e4 50ED027A 		vldr.32	s15, [r0, #-8]
 1751 02e8 67EEA67A 		vmul.f32	s15, s15, s13
 409:..\..\..\liblc3\src/mdct.c ****         *(--y2) = *(x++) * *(w2++);
 1752              		.loc 1 409 0
 1753 02ec 53ED016A 		vldr.32	s13, [r3, #-4]
 407:..\..\..\liblc3\src/mdct.c **** 
 1754              		.loc 1 407 0
 1755 02f0 41ED017A 		vstr.32	s15, [r1, #-4]
 1756              	.LVL244:
 409:..\..\..\liblc3\src/mdct.c ****         *(--y2) = *(x++) * *(w2++);
 1757              		.loc 1 409 0
 1758 02f4 94ED007A 		vldr.32	s14, [r4]
 1759 02f8 27EE267A 		vmul.f32	s14, s14, s13
 1760 02fc 02ED017A 		vstr.32	s14, [r2, #-4]
 1761              	.LVL245:
 410:..\..\..\liblc3\src/mdct.c ****     }
 1762              		.loc 1 410 0
 1763 0300 50ED017A 		vldr.32	s15, [r0, #-4]
 1764 0304 67EEA67A 		vmul.f32	s15, s15, s13
 1765 0308 17EE905A 		vmov	r5, s15
 1766 030c 41F8085D 		str	r5, [r1, #-8]!	@ float
 1767              	.LVL246:
 1768 0310 D7E7     		b	.L61
 1769              	.LVL247:
 1770              	.L68:
 1771              	.LBE158:
 1772              	.LBE157:
 473:..\..\..\liblc3\src/mdct.c **** 
 474:..\..\..\liblc3\src/mdct.c ****     imdct_window(dt, sr, u.f, d, y);
 475:..\..\..\liblc3\src/mdct.c **** }
 1773              		.loc 1 475 0
 1774 0312 0DF60C7D 		addw	sp, sp, #3852
 1775              		.cfi_def_cfa_offset 36
 1776              		@ sp needed
 1777 0316 BDE8F08F 		pop	{r4, r5, r6, r7, r8, r9, r10, fp, pc}
 1778              	.LVL248:
 1779              	.L70:
 1780 031a 00BF     		.align	2
 1781              	.L69:
 1782 031c 00000000 		.word	lc3_mdct_rot
 1783 0320 00000000 		.word	lc3_ns_2m5
 1784 0324 00000000 		.word	lc3_mdct_win
ARM GAS  C:\Users\rdn\AppData\Local\Temp\ccNOUFME.s 			page 46


 1785 0328 00000000 		.word	lc3_ns_4m
 1786              		.cfi_endproc
 1787              	.LFE32:
 1788              		.size	lc3_mdct_inverse, .-lc3_mdct_inverse
 1789              		.text
 1790              	.Letext0:
 1791              		.file 3 "./liblc3/include/lc3_private.h"
 1792              		.file 4 "..\\..\\..\\liblc3\\src\\common.h"
 1793              		.file 5 "c:\\program files (x86)\\cypress\\psoc creator\\4.4\\psoc creator\\import\\gnu\\arm\\5.4.