ARM GAS  C:\Users\rdn\AppData\Local\Temp\ccl2ZEAm.s 			page 1


   1              		.syntax unified
   2              		.cpu cortex-m4
   3              		.eabi_attribute 27, 1
   4              		.fpu fpv4-sp-d16
   5              		.eabi_attribute 20, 1
   6              		.eabi_attribute 21, 1
   7              		.eabi_attribute 23, 3
   8              		.eabi_attribute 24, 1
   9              		.eabi_attribute 25, 1
  10              		.eabi_attribute 26, 1
  11              		.eabi_attribute 30, 2
  12              		.eabi_attribute 34, 1
  13              		.eabi_attribute 18, 4
  14              		.thumb
  15              		.syntax unified
  16              		.file	"pitch_shift.c"
  17              		.text
  18              	.Ltext0:
  19              		.section	.gnu.lto_.profile.d874c76d,"",%progbits
  20 0000 789C6361 		.ascii	"x\234ca`d`e`\000\222\357\030\223\000\003\254\001]"
  20      60646065 
  20      600092EF 
  20      18930003 
  20      AC015D
  21              		.text
  22              		.section	.gnu.lto_.icf.d874c76d,"",%progbits
  23 0000 789C6361 		.ascii	"x\234ca`d\000\001\005\006\004`e\230:w\306w&\306\207"
  23      60640001 
  23      05060460 
  23      65983A77 
  23      C67726C6 
  24 0015 67769F63 		.ascii	"gv\237cg\332rg\3011N\346e\023\366\256\343`\371\275\251"
  24      67DA7267 
  24      C1314EE6 
  24      6513F6AE 
  24      E360F9BD 
  25 002a F32E2303 		.ascii	"\363.#\003\000\372\025\016\361"
  25      00FA150E 
  25      F1
  26              		.text
  27              		.section	.gnu.lto_.jmpfuncs.d874c76d,"",%progbits
  28 0000 789C6361 		.ascii	"x\234ca`d\000\201\030\006\004`e`bdd\256\257\347`\252"
  28      60640081 
  28      18060460 
  28      65606264 
  28      64AEAFE7 
  29 0016 44126564 		.ascii	"D\022edd\370\313\3048\255\365\320y\366/L\255\314@}\214"
  29      64F8CBC4 
  29      38ADF5D0 
  29      79F62F4C 
  29      ADCC407D 
  30 002b CB196518 		.ascii	"\313\031e\0309\200\022\214\214\365L@\025`\214\314a\206"
  30      3980128C 
  30      8CF54C40 
  30      15608CCC 
  30      6186
  31 003d 7158600C 		.ascii	"qX`\014\006\000Fz\012\017"
ARM GAS  C:\Users\rdn\AppData\Local\Temp\ccl2ZEAm.s 			page 2


  31      0600467A 
  31      0A0F
  32              		.text
  33              		.section	.gnu.lto_.inline.d874c76d,"",%progbits
  34 0000 789C6361 		.ascii	"x\234ca`d\000\201s\014\010\300\312\300a\262\201\205"
  34      60640081 
  34      730C08C0 
  34      CAC061B2 
  34      8185
  35 0012 91915101 		.ascii	"\221\221Q\001(\307\024\261\342\220:\003\333\002y&\006"
  35      28C714B1 
  35      E2903A03 
  35      DB027926 
  35      06
  36 0023 16901C1F 		.ascii	"\026\220\034\037#\003\313U\226\011~\023\374\200:\005"
  36      2303CB55 
  36      96097E13 
  36      FC803A05 
  37 0033 4D181919 		.ascii	"M\030\031\031@\252\230\331\016\354f\204\250bZ0\207\221"
  37      40AA98D9 
  37      0EEC6684 
  37      A8625A30 
  37      8791
  38 0045 056C0C1F 		.ascii	"\005l\014\037\003\003\343\004?(\305D\212bf\006n\031"
  38      0303E304 
  38      3F28C544 
  38      8A626606 
  38      6E19
  39 0057 9862A60B 		.ascii	"\230b\246\013\374P\353?\254FQ\313\302\300\255\012W\004"
  39      FC50EB3F 
  39      AC4651CB 
  39      C2C0AD0A 
  39      5704
  40 0069 3407BB2A 		.ascii	"4\007\273*\006\000(\252\034\215"
  40      060028AA 
  40      1C8D
  41              		.text
  42              		.section	.gnu.lto_.pureconst.d874c76d,"",%progbits
  43 0000 789C6361 		.ascii	"x\234ca`d\340f```e\220`\224`\222`\226`\221\000\000\003"
  43      6064E066 
  43      60606065 
  43      90609460 
  43      92609660 
  44 0018 CC0098   		.ascii	"\314\000\230"
  45              		.text
  46              		.section	.gnu.lto_detect_period.d874c76d,"",%progbits
  47 0000 789C6D56 		.ascii	"x\234mVkLTW\020>s\317}\355\262\273\342\203\252<\024"
  47      6B4C5457 
  47      103E73CF 
  47      7DEDB2BB 
  47      E283AA3C 
  48 0015 15C4476D 		.ascii	"\025\304Gm\2324Ml\1775\375a\374\341\217\246\277\233"
  48      9A344D6C 
  48      7F35FD61 
  48      FCE18FA6 
  48      BF9B
  49 0027 1823B490 		.ascii	"\030#\264\220\240\022X\232\364\027W\227\245\324b\353"
ARM GAS  C:\Users\rdn\AppData\Local\Temp\ccl2ZEAm.s 			page 3


  49      A012589A 
  49      F4175797 
  49      A5D462EB 
  50 0037 A3A22229 		.ascii	"\243\242\")5\015\202\005+H\001Q\212+\"\276\321>\264"
  50      350D8205 
  50      2B480151 
  50      8A2B22BE 
  50      D13EB4
  51 004a 44A951DB 		.ascii	"D\251Q\333X\245\306\302\212Z\353c;3\347BW\312M\356\271"
  51      58A5C6C2 
  51      8A5AEB63 
  51      3B33E742 
  51      57CA4DEE 
  52 005f 7BBEFB7D 		.ascii	"{\276\373}3sf\346\234\273\272\000A\327L\257\020\357"
  52      337366E6 
  52      9CBBBA00 
  52      41D74CAF 
  52      10EF
  53 0071 E1F314DE 		.ascii	"\341\363\024\3360I\200\266\271O\210\365\266\006~\365"
  53      304980B6 
  53      B94F88F5 
  53      B6067EF5 
  54 0081 436AFA50 		.ascii	"Cj\372P\222p\274\346WK\205\343\3235\243[\322\254\357"
  54      9270BCE6 
  54      574B85E3 
  54      D335A35B 
  54      D2ACEF
  55 0094 8CC0A901 		.ascii	"\214\300\251\001\001\30525\213Y^fY\232]\236E3\032}\266"
  55      01C53235 
  55      8B595E66 
  55      599A5D9E 
  55      45331A7D 
  56 00a9 E6297D83 		.ascii	"\346)}\203f\025\310\360y\300\253$^-AG\324W\321G\226"
  56      6615C8F0 
  56      79C0AB24 
  56      5E2D4147 
  56      D457D147 
  57 00be 12C0A760 		.ascii	"\022\300\247`\237r|\314\366k\222\235x\003\344\321\027"
  57      9F727CCC 
  57      F66B929D 
  57      7803E4D1 
  57      17
  58 00cf 0020DCB1 		.ascii	"\000 \334\261A\224hR7L\313\366x\023|\376\000\224h~\001"
  58      41946852 
  58      374CCBF6 
  58      78137CFE 
  58      0094687E 
  59 00e4 111D2EC4 		.ascii	"\021\035.\304b1\213\327\364@{\246\301\017\245M\325r"
  59      62318BD7 
  59      F4407BA6 
  59      C10FA54D 
  59      D572
  60 00f6 440B4B01 		.ascii	"D\013K\001:N\207\317W\375\026\240)@:NK\273\216^\321"
  60      3A4E87CF 
  60      57FD16A0 
  60      29403A4E 
  60      4BBB8E5E 
ARM GAS  C:\Users\rdn\AppData\Local\Temp\ccl2ZEAm.s 			page 4


  61 010b 17D63978 		.ascii	"\027\3269x]\257=+[\352#zXj\"\246\011\250\207T\250\203"
  61      5DAF3D2B 
  61      5BEA237A 
  61      586A22A6 
  61      09A88754 
  62 0121 54CAC73E 		.ascii	"T\312\307>X\210\334\206\207';AN\006\201\277\377\371"
  62      5888DC86 
  62      87273B41 
  62      4E0681BF 
  62      FFF9
  63 0133 F479C8CC 		.ascii	"\364y\310\314\252u\234\015\216\363$\333\361\204\245"
  63      AA759C0D 
  63      8EF324DB 
  63      F184A5
  64 0142 846F40C6 		.ascii	"\204o@\306\353\020\022\320\000Y\310\036\250\270\217"
  64      EB1012D0 
  64      0059C81E 
  64      A8B88F
  65 0151 CA9794F2 		.ascii	"\312\227\224\362q\367n\235\224x\265\344\220R\207\306"
  65      71F76E9D 
  65      9478B5E4 
  65      905287C6 
  66 0161 F14A5DC0 		.ascii	"\361J]\300~\310\"z\377\375{\237\371e\032K\177\012oz"
  66      7EC8227A 
  66      FFFD7B9F 
  66      F9651A4B 
  66      7F0A6F7A 
  67 0175 2833BF26 		.ascii	"(3\277&e\344Q\277\317\331\274\336&\365\267/\252\351"
  67      65E451BF 
  67      CFD9BCDE 
  67      26F5B72F 
  67      AAE9
  68 0187 4272D591 		.ascii	"Br\325\221\2213\206Z\267\215\323\366{\015\355~\265\356"
  68      9133865A 
  68      B78DD3F6 
  68      7B0DED7E 
  68      B5EE
  69 0199 08BDFEF2 		.ascii	"\010\275\376\362\361\345\317m9\237\355\2067\365o1\\"
  69      F1E5CF6D 
  69      399FED86 
  69      37F56F31 
  69      5C
  70 01aa BB0F72AB 		.ascii	"\273\017r\253\234\310N\007\263`\300Ae\270\031\0157\375"
  70      9CC84E07 
  70      B360C041 
  70      65B8190D 
  70      37FD
  71 01bc 67B8E5F7 		.ascii	"g\270\345\367?\245\\\302\302\203\373\367m\364\272\302"
  71      3FA55CC2 
  71      C283FBF7 
  71      6DF4BAC2 
  72 01cc 68AED3EC 		.ascii	"h\256\323\354\330$\373nB\331\271C\225\313\345\233,k"
  72      D824FB6E 
  72      42D9B943 
  72      95CBE59B 
  72      2C6B
  73 01de BB7D7485 		.ascii	"\273}t\205\253\032\032S\265M\250\352\037\334}P\223o"
ARM GAS  C:\Users\rdn\AppData\Local\Temp\ccl2ZEAm.s 			page 5


  73      AB1A1A53 
  73      B54DA8EA 
  73      1FDC7D50 
  73      936F
  74 01f0 B3ACA6A6 		.ascii	"\263\254\246\246\277\201\274EPwmLwhB\335\315\346\347"
  74      BF81BC45 
  74      50776D4C 
  74      776842DD 
  74      CDE6E7
  75 0203 DBFD6629 		.ascii	"\333\375f)\371H\207\016\310\204v\274[\361n\301\373\000"
  75      F948870E 
  75      C88476BC 
  75      5BF16EC1 
  75      FB00
  76 0215 645285B1 		.ascii	"dR\205\261\260\207\301\304\366\267\231\021\367\026\015"
  76      B087C1C4 
  76      F6B79911 
  76      F7160D
  77 0224 D49E3DDE 		.ascii	"\324\236=\336\025\220\313\330\361`_\363U\333\015x\333"
  77      1590CBD8 
  77      F1605FF3 
  77      55DB0D78 
  77      DB
  78 0235 9A5D4EA4 		.ascii	"\232]N\2444\235\362~\344\377y\207N\026_\253?\265\331"
  78      349DF27E 
  78      E4FF7987 
  78      4E165FAB 
  78      3FB5D9
  79 0248 2B97B3F8 		.ascii	"+\227\263\370bC\315~\335\025\377\232\327\242\304\032"
  79      6243CD7E 
  79      DD15FF9A 
  79      D7A2C41A 
  80 0258 7C3F81B8 		.ascii	"|?\201\270\213\305M{+w\350r\005\213[\267l\374q4\301"
  80      8BC54D7B 
  80      2B77E872 
  80      058B5BB7 
  80      6CFC7134 
  81 026d D7CE83F3 		.ascii	"\327\316\203\363\311[\244=:\2016\302\332\306o\327\267"
  81      C95BA43D 
  81      3A8136C2 
  81      DAC66FD7 
  81      B7
  82 027e 4AF90E6B 		.ascii	"J\371\016k/\355\334qb\264\252Cc\332c\023h\273!\363\300"
  82      2FEDDC71 
  82      62B4AA43 
  82      63DA6313 
  82      68BB21F3 
  83 0293 BB112716 		.ascii	"\273\021'\026\0139\221\253\031\2755\313\026\201\240"
  83      0B3991AB 
  83      19BD35CB 
  83      1681A0
  84 02a2 74200F13 		.ascii	"t \017\023\"y\304\216\304\304\030<\232<Z\274Z\033\273"
  84      2279C48E 
  84      C4C4183C 
  84      9A3C5ABC 
  84      5A1BBB
  85 02b5 55F303B5 		.ascii	"U\363\003\265k\200E\211\010\230\223i\230\002\324\376"
ARM GAS  C:\Users\rdn\AppData\Local\Temp\ccl2ZEAm.s 			page 6


  85      6B804589 
  85      08989369 
  85      9802D4FE 
  86 02c5 53F1A735 		.ascii	"S\361\2475\215z:\011\007{:\016\236\0314\314\244!\231"
  86      8D7A3A09 
  86      077B3A0E 
  86      9E1934CC 
  86      A42199
  87 02d8 8DA7B029 		.ascii	"\215\247\260)j|O\032\015\263h\230\315\011I\247\237s"
  87      6A7C4F1A 
  87      0DB36898 
  87      CD0949A7 
  87      9F73
  88 02ea 68984BC3 		.ascii	"h\230K\303<\0322x\271\231\034\370|\262\234EA,\240A\210"
  88      3C1A3278 
  88      B9991CF8 
  88      7CB29C45 
  88      412CA041 
  89 02ff 21BC0FEB 		.ascii	"!\274\017\353bX\323\360!o\301\206\221\241\035\311\\"
  89      6258D3F0 
  89      216FC186 
  89      91A11DC9 
  89      5C
  90 0310 E80E4E51 		.ascii	"\350\016NQe\270\373\202E\033\301\300E\036\307\024\334"
  90      65B8FB82 
  90      451BC1C0 
  90      451EC714 
  90      DC
  91 0321 840D9102 		.ascii	"\204\015\221\002&P\217\214\"\205\214\264\306!AFZ\342"
  91      26508F8C 
  91      22858CB4 
  91      C6214146 
  91      5AE2
  92 0333 90473318 		.ascii	"\220G3\030\302\\\300\"\205<\311\037\217l\205\361\335"
  92      C25CC022 
  92      853CC91F 
  92      8F6C85F1 
  92      DD
  93 0344 882BE5C6 		.ascii	"\210+\345\306\303\304\367 Wu\314\221\366\316^\336\255"
  93      C3C4F720 
  93      5775CC91 
  93      F6CE5EDE 
  93      AD
  94 0355 3ABC0A27 		.ascii	":\274\012'\2700\303\232\024x\362I\262\262}\0170\031"
  94      B830C39A 
  94      1478F249 
  94      B2B27D0F 
  94      3019
  95 0367 E3094910 		.ascii	"\343\011I\020\270\252\312\341\332\024\202B2@\013C_\032"
  95      B8AACAE1 
  95      DA148242 
  95      32400B43 
  95      5F1A
  96 0379 33DA8911 		.ascii	"3\332\211\021 \306H\323^\213\241\0167d\304\242\037\337"
  96      20C648D3 
  96      5E8BA10E 
  96      3764C4A2 
ARM GAS  C:\Users\rdn\AppData\Local\Temp\ccl2ZEAm.s 			page 7


  96      1FDF
  97 038b 7B5DA912 		.ascii	"{]\251\022C\322B$TU6\240+d2\202\030\311\211\330\243"
  97      43D24224 
  97      545536A0 
  97      2B643282 
  97      18C989D8 
  98 03a0 C8248AC4 		.ascii	"\310$\212\304D\213\275,\013U\227\245*\316\324\220\234"
  98      448BBD2C 
  98      0B5597A5 
  98      2ACED490 
  98      9C
  99 03b1 824CC276 		.ascii	"\202L\302v\226\215\030\012\234\026\222~e\015\355\273"
  99      968D180A 
  99      9C16927E 
  99      650DEDBB 
 100 03c1 C42484C5 		.ascii	"\304$\204\305m\340\000\250\031;:\356^\265J\2369\345"
 100      6DE000A8 
 100      193B3AEE 
 100      5EB54A9E 
 100      39E5
 101 03d3 8E931896 		.ascii	"\216\223\030\226\336\230\206\333\016NB\211`\203h6\011"
 101      DE9886DB 
 101      0E4E4289 
 101      60836836 
 101      09
 102 03e4 49B7EA06 		.ascii	"I\267\352\006\217MB\022]\227 ,\0238t\262\000\247\240"
 102      8F4D4212 
 102      5D97202C 
 102      133874B2 
 102      00A7A0
 103 03f7 242C7DE2 		.ascii	"$,}\342\006\224^\011\325\275\246|\230\361\321\352\030"
 103      06945E09 
 103      D5BDA67C 
 103      98F1D1EA 
 103      18
 104 0408 ED69B7A1 		.ascii	"\355i\267\241\2075]D\247Q\355+\367\314R\334TN\022\205"
 104      87355D44 
 104      A751ED2B 
 104      F7CC52DC 
 104      544E1285 
 105 041c 6D2A200D 		.ascii	"m* \0151J\024Z\274\020j\003\027\344<)\023\206\370[\345"
 105      314A145A 
 105      BC106A03 
 105      17E43C29 
 105      1386F85B 
 106 0431 FE52F1F8 		.ascii	"\376R\361\370\012b[R\003R\373q\015q)g\334\252\277\234"
 106      0A625B52 
 106      0352FB71 
 106      0D712967 
 106      DCAABF9C 
 107 0445 AA72F3F0 		.ascii	"\252r\363\360\226\207\260\220\234\205\365BW\224\234"
 107      9687B090 
 107      9C85F542 
 107      57949C
 108 0454 CB653F83 		.ascii	"\313e?\203\002g#\316\025#Y\027Ul6\311\242e\317\367\372"
 108      026723CE 
 108      15235917 
ARM GAS  C:\Users\rdn\AppData\Local\Temp\ccl2ZEAm.s 			page 8


 108      556C36C9 
 108      A265CFF7 
 109 0469 15239DEA 		.ascii	"\025#\235\352\272\3305\366TW\340\034\266\225N`eY\217"
 109      BAD835F6 
 109      5457E01C 
 109      B6954E60 
 109      65598F
 110 047c A5C0B9BC 		.ascii	"\245\300\271\274\2209J\377\324\005\347!\256\344q^3\020"
 110      90394AFF 
 110      D405E721 
 110      AEE4715E 
 110      3310
 111 048e 1FF31A21 		.ascii	"\037\363\032!\257\031\244\272X\326\355\25229\262\214"
 111      AF19A4BA 
 111      58D6EDAA 
 111      3239B28C 
 112 049e 314E3771 		.ascii	"1N7q2\225\273\276_\014E\232\217\245\206%\256\351\001"
 112      3295BBBE 
 112      5F0C459A 
 112      8FA58625 
 112      AEE901
 113 04b1 D77416E2 		.ascii	"\327t\026\342\3143\325|\001\033\313\342D\232\342\362"
 113      CC33D57C 
 113      011BCBE2 
 113      449AE2F2 
 114 04c1 6921B972 		.ascii	"i!\271r\367G+G\261\2514[\342\242\252\324\015\267R\323"
 114      F7472B47 
 114      B1A9345B 
 114      E2A2AAD4 
 114      0DB752D3 
 115 04d5 B95248EF 		.ascii	"\271RH\357\033+\213D\324\245\333\242\336+_\350\276\031"
 115      1B2B8B44 
 115      D4A5DBA2 
 115      DE2B5FE8 
 115      BE19
 116 04e7 F8D22D64 		.ascii	"\370\322-d\177\250Ks\301\270BzD\217\305\205|R\314\333"
 116      7FA84B73 
 116      C1B8427A 
 116      448FC585 
 116      7C52CCDB 
 117 04fb 81CA74DA 		.ascii	"\201\312t\332\335a^\216\015_&\362\221\026\302\017/\007"
 117      DD615E8E 
 117      0D5F26F2 
 117      9116C20F 
 117      2F07
 118 050d 1A7303B5 		.ascii	"\032s\003\265h\033\343\025\005\035\24361\373\246E\203"
 118      681BE315 
 118      051DA336 
 118      31FBA645 
 118      83
 119 051e 0D64C233 		.ascii	"\015d\3023p\300B#\011\202\317\231\312\346\236-nL3G\273"
 119      70C04223 
 119      0982CF99 
 119      CAE69E2D 
 119      6E4C3347 
 120 0533 2D4A1962 		.ascii	"-J\031b(\231\320\305\251c\373\264\205\274%\363\021\261"
 120      2899D0C5 
ARM GAS  C:\Users\rdn\AppData\Local\Temp\ccl2ZEAm.s 			page 9


 120      A963FBB4 
 120      85BC25F3 
 120      11B1
 121 0545 AD373016 		.ascii	"\25570\026\330b\025\227o|\\\206P\023\226inIJ=\312v\012"
 121      D8621597 
 121      6F7C5C86 
 121      50139669 
 121      6E494A3D 
 122 055c 051A67BB 		.ascii	"\005\032g\273\223H)\024\265\206\311\363b\300\311\011"
 122      93482914 
 122      B586C9F3 
 122      62C0C909 
 123 056c 15CDF951 		.ascii	"\025\315\371Q0p\201^@jBus\020\335\370\005\376\227r\335"
 123      3070815E 
 123      406A4275 
 123      7310DDF8 
 123      05FE9772 
 124 0581 B0C81271 		.ascii	"\260\310\022q>\315x\237\322\235\264\253\023\210\353"
 124      3ECD789F 
 124      D29DB4AB 
 124      1388EB
 125 0590 5337C5CD 		.ascii	"S7\305\315\022\036\000*K@y\327*N\322\261\344\353\274"
 125      121E002A 
 125      4B4079D7 
 125      2A4ED2B1 
 125      E4EBBC
 126 05a3 63464132 		.ascii	"cFA2\322H\210\346\203(F\267(U\033\370\003\247\006M-"
 126      D24888E6 
 126      832846B7 
 126      28551BF8 
 126      03A7064D 
 127 05b8 3AECB42F 		.ascii	":\354\264/<\030\257\257\334\203!\005\324\251\335=`\304"
 127      3C18AFAF 
 127      DC832105 
 127      D4A9DD3D 
 127      60C4
 128 05ca 9DD9BBAE 		.ascii	"\235\331\273\256G\266\032K\333\234r<\024\360\023t\026"
 128      47B61A4B 
 128      DB9C723C 
 128      14F01374 
 128      16
 129 05db 968A418A 		.ascii	"\226\212A\212&$mvkc\307\031\325\177\321\201\320Xv\247"
 129      26246D76 
 129      6B63C719 
 129      D57FD181 
 129      D05876A7 
 130 05ef C74EDB4D 		.ascii	"\307N\333M\007M\223\216/\351\233\000\347 \315\177\267"
 130      074D938E 
 130      2FE99B00 
 130      E720CD7F 
 130      B7
 131 0600 391BBF0D 		.ascii	"9\033\277\015\200\346\361\003\021(\310\013\256\316]"
 131      80E6F103 
 131      1128C80B 
 131      AECE5D
 132 060f 59949BF7 		.ascii	"Y\224\233\367~\360\225\325B\317^\025\\e\346\347\254"
 132      7EF095D5 
ARM GAS  C:\Users\rdn\AppData\Local\Temp\ccl2ZEAm.s 			page 10


 132      42CF5E15 
 132      5C65E6E7 
 132      AC
 133 0620 FD20986B 		.ascii	"\375 \230k\027d\257,\012\256\012\346\230\301\334\302"
 133      1764AF2C 
 133      0AAE0AE6 
 133      98C1DCC2 
 134 0630 9CA25C5F 		.ascii	"\234\242\\_Q\361\232\225\037\346\024~\264r]~\266E\023"
 134      51F19A95 
 134      1FE6147E 
 134      B4725D7E 
 134      B64513
 135 0643 7C4A7C42 		.ascii	"|J|B\236\\[\274Ff\347\254\365\025\344\024\346\255\313"
 135      9E5C5BBC 
 135      4666E7AC 
 135      F515E414 
 135      E6ADCB
 136 0656 56E6FE05 		.ascii	"V\346\376\005\270\33011"
 136      B8D83131 
 137              		.text
 138              		.section	.gnu.lto_approx_semitones_f.d874c76d,"",%progbits
 139 0000 789C6D92 		.ascii	"x\234m\222\317k\023A\024\307\337\233\331\356\217d\023"
 139      CF6B1341 
 139      14C7DF9B 
 139      D9EE8F64 
 139      13
 140 0011 F4586C25 		.ascii	"\364Xl%\010\241\366\"\342\237\"\336s(\226\344\"\332"
 140      08A1F622 
 140      E29F22DE 
 140      732896E4 
 140      22DA
 141 0023 F6E42553 		.ascii	"\366\344%S7\033{Q\212?jS\305K)\255\326\264IS\013\021"
 141      371B7B51 
 141      8A3F6A53 
 141      C54B29AD 
 141      D6B44953 
 142 0039 4A57104F 		.ascii	"JW\020O\361\027UA\024\221\026bQ\221\264Q+J\032\337\333"
 142      F1175541 
 142      14911662 
 142      5191B451 
 142      2B4A1ADF 
 143 004e DD060507 		.ascii	"\335\006\005\007\366\355\314\344\373\231\371~\337F\003"
 143      F6EDCCE4 
 143      FB99F97E 
 143      DF4603
 144 005d 041E4D01 		.ascii	"\004\036M\001p\204\336\207\350A\011(\306\237\002\214"
 144      7084DE87 
 144      E8410928 
 144      C69F028C 
 145 006d 9A029127 		.ascii	"\232\002\221'\312D\310\012\314\342w\321\022\370\"W\272"
 145      CA44C80A 
 145      CCE277D1 
 145      12F82257 
 145      BA
 146 007e 25BF0997 		.ascii	"%\277\011\227d\032-\267\237Lm\306y\211\230\240\345\253"
 146      641A2DB7 
 146      9F4C6DC6 
ARM GAS  C:\Users\rdn\AppData\Local\Temp\ccl2ZEAm.s 			page 11


 146      798998A0 
 146      E5AB
 147 0090 6B0BF376 		.ascii	"k\013\363v\377\254\242\361a\246~\2640\347i\256\024\320"
 147      FFACA2F1 
 147      61A67EB4 
 147      30E769AE 
 147      14D0
 148 00a2 168073D8 		.ascii	"\026\200s\330\203\263\330\303W\334\301~\322\266n\\\271"
 148      83B3D8C3 
 148      57DCC17E 
 148      D2B66E5C 
 148      B9
 149 00b3 DA250F22 		.ascii	"\332%\017\"\320|z\375\301\216\3217\303\234j\325PY\256"
 149      D07C7AFD 
 149      C18ED137 
 149      C39C6AD5 
 149      5059AE
 150 00c6 947817E5 		.ascii	"\224x\027\345\337 m\001\316c\037\353kKk\237\243\262"
 150      DF206D01 
 150      CE631FEB 
 150      6B4B6B9F 
 150      A3B2
 151 00d8 DB67B71E 		.ascii	"\333g\267\036\276n\306\222\323\214z\325\274]Q^.\301"
 151      BE6EC692 
 151      D38C7AD5 
 151      BC5D515E 
 151      2EC1
 152 00ea F8BD7F71 		.ascii	"\370\275\177q\036\244\316\215\025w\205<\354\223\245"
 152      1EA4CE8D 
 152      1577853C 
 152      EC93A5
 153 00f9 DBAB6D3B 		.ascii	"\333\253m;$W\036w\253\361Q\223\301\205\377\202\033\345"
 153      24571E77 
 153      ABF15193 
 153      C185FF82 
 153      1BE5
 154 010b BDEB313D 		.ascii	"\275\3531=\307\342\004.b\022\213\230\344`\224\247\204"
 154      C7E2042E 
 154      62128B98 
 154      E46094A7 
 154      84
 155 011c 3A3552EC 		.ascii	":5R\354\357.\236\364T\273\355(\257\242?\373\371\321"
 155      EF2E9EF4 
 155      54BBED28 
 155      AFA23FFB 
 155      F9D1
 156 012e 8C21B26D 		.ascii	"\214!\262m:\221~\227\024C\323\271\030\\L.\0260\025\341"
 156      3A917E97 
 156      1443D3B9 
 156      185C4C2E 
 156      163015E1 
 157 0142 69948B0D 		.ascii	"i\224\213\015\3343h\320\303\375\337\026\202\337\262"
 157      DC3368D0 
 157      C3FDDF16 
 157      82DFB2
 158 0151 8ECEF3FC 		.ascii	"\216\316\363\374\373\302q\276\316\221\302\221H\256&"
 158      FBC271BE 
ARM GAS  C:\Users\rdn\AppData\Local\Temp\ccl2ZEAm.s 			page 12


 158      CE91C291 
 158      48AE26
 159 0160 2FFD4EF7 		.ascii	"/\375N\367\336TcJ\035\260@\205\343\035\372\275*c/l\240"
 159      DE54634A 
 159      1DB04085 
 159      E31DFABD 
 159      2A632F6C 
 160 0175 F0EDD1D5 		.ascii	"\360\355\321\325\304@\035/\354\\\254\027N\005gH\336"
 160      C4401D2F 
 160      EC5CAC17 
 160      4E056748 
 160      DE
 161 0186 DA422D58 		.ascii	"\332B-X\351t\\\265\372\345\255\221m\371\347\271\262"
 161      E9745CB5 
 161      FAE5AD91 
 161      6DF9E7B9 
 161      B2
 162 0197 AB2D2817 		.ascii	"\253-(\027.a\026H\354J\035\330\203\036\310\215\200\330"
 162      2E611648 
 162      EC4A1DD8 
 162      831EC88D 
 162      80D8
 163 01a9 5CDFFD6A 		.ascii	"\\\337\375j\207\016\350\277\322X\275\334\332s\253er"
 163      870EE8BF 
 163      D258BDDC 
 163      DA73AB65 
 163      72
 164 01ba A00156C8 		.ascii	"\240\001V\310\001!S\371\232\010 \2238\202\336L,\257"
 164      012153F9 
 164      9A082093 
 164      3882DE4C 
 164      2CAF
 165 01cc 5821A475 		.ascii	"X!\244ul{\001\264\354C\344\363\021\006\220E\\'H\221"
 165      6C7B01B4 
 165      EC43E4F3 
 165      11069045 
 165      5C274891 
 166 01e0 835881E0 		.ascii	"\203X\201\340G\341D\240\210\360V'H\224np~\2555\343\024"
 166      47E144A0 
 166      88F05627 
 166      48946E70 
 166      7EAD35E3 
 167 01f5 64723F08 		.ascii	"dr?\0105\023\357\373A\"\2564\230\177\031\006\261\211"
 167      3513EFFB 
 167      4122AE34 
 167      987F1906 
 167      B189
 168 0207 804F183A 		.ascii	"\200O\030:\264\371s7(7\265\234\230\370\331\314\310@"
 168      B4F97337 
 168      2837B59C 
 168      98F8D9CC 
 168      C840
 169 0219 3A359CCE 		.ascii	":5\234\316\014\216\034\033\000cp\350\364\271T\372\274"
 169      0C8E1C1B 
 169      006370E8 
 169      F4B954FA 
 169      BC
ARM GAS  C:\Users\rdn\AppData\Local\Temp\ccl2ZEAm.s 			page 13


 170 022a 369CCA9C 		.ascii	"6\234\312\234\321\206\250\374\001`S\373\324"
 170      D186A8FC 
 170      016053FB 
 170      D4
 171              		.text
 172              		.section	.gnu.lto_approx_semitones_p.d874c76d,"",%progbits
 173 0000 789C6D92 		.ascii	"x\234m\222\301k\023Q\020\306g\336\333l6\315f\2537\305"
 173      C16B1351 
 173      10C667DE 
 173      DB6C36CD 
 173      66AB37C5 
 174 0014 06E221D4 		.ascii	"\006\342!\324^<\370\247\210\367\036\252\322\\4\264\275"
 174      5E3CF8A7 
 174      88F71EAA 
 174      D25C34B4 
 174      BD
 175 0025 E7D5646B 		.ascii	"\347\325dk/J\016\332\326(\036\224\322jM\2324U\010X\272"
 175      2F4A0EDA 
 175      D6281E94 
 175      D26A4D9A 
 175      34550858 
 176 003a 820A420C 		.ascii	"\202\012B\014Jm\241\012\245\264\020j+\222\330jEH\343"
 176      4A6DA10A 
 176      A5B4106A 
 176      2B92D86A 
 176      4548E3
 177 004d CC6E5222 		.ascii	"\314nR\"\370`g\337\014\337og\276\267O\003\004^\021\011"
 177      F86067DF 
 177      0CDF6F67 
 177      BEB74F03 
 177      045E1109 
 178 0061 7096DE67 		.ascii	"p\226\336g\350A\011(\322\025\200QC \362F\031\010\011"
 178      E8410928 
 178      D2158051 
 178      4320F246 
 178      190809
 179 0074 8109FC29 		.ascii	"\201\011\374)\032\002?\246\362\017\344\201\260I\246"
 179      1A023FA6 
 179      F20FE481 
 179      B049A6
 180 0083 515A7F9F 		.ascii	"QZ\177\237\331\2668E\214P\272z'7g\366\315(Z\233\323"
 180      D9B63845 
 180      8C50BA7A 
 180      273767F6 
 180      CD285A9B 
 181 0098 BBE7EECD 		.ascii	"\273\347\356\315:\232-\0054\005\340,\366\340\014\366"
 181      3A9A2D05 
 181      3405E02C 
 181      F6E00CF6 
 182 00a8 708B27D8 		.ascii	"p\213'\330G\332\342\304\352\244_\236D\240}\272\362\362"
 182      47DAE2C4 
 182      EAA45F9E 
 182      44A07DBA 
 182      F2F2
 183 00ba 6B77EF34 		.ascii	"kw\3574s\252QF\025\260\245\304\247(;A*\001\316a/\353"
 183      73AA5146 
 183      15B0A5C4 
ARM GAS  C:\Users\rdn\AppData\Local\Temp\ccl2ZEAm.s 			page 14


 183      A7283B41 
 183      2A01CE61 
 184 00d0 CB0BCB7B 		.ascii	"\313\013\313{Ay\312ew^\255\355\207\242\217\031u\326"
 184      4179CA65 
 184      775EADED 
 184      87A28F19 
 184      75D6
 185 00e2 C7CCA272 		.ascii	"\307\314\242rR\021\306\237\375\213\363\"uj<{(d\330%"
 185      5211C69F 
 185      FD8BF322 
 185      756A3C7B 
 185      2864D825 
 186 00f6 F30F979A 		.ascii	"\363\017\227\232f\213\\{{Z\245G\015\006s\377\005\267"
 186      668B5C7B 
 186      7B5AA547 
 186      0D0673FF 
 186      05B7
 187 0108 0A477743 		.ascii	"\012GwCz\212\305\021\234\307(f1\312\306\310O\036u:H"
 187      7A8AC511 
 187      9CC72866 
 187      31CAC6C8 
 187      4F1E753A 
 188 011d D1AECE5F 		.ascii	"\321\256\316_tT\263\231T\316\212^\371\275gt#\362\330"
 188      7454B399 
 188      54CE8A5E 
 188      F9BD6774 
 188      23F2D8
 189 0130 820C6892 		.ascii	"\202\014h\222\203\006\254\364\361\326\340\020\340\320"
 189      8306ACF4 
 189      F1D6E010 
 189      E0D0
 190 013e C52108CC 		.ascii	"\305!\010\314\233\274\015q\260\200O\017j\364\360\237"
 190      9BBC0D71 
 190      B0804F0F 
 190      6AF4F09F 
 191 014e A80BC16F 		.ascii	"\250\013\301oY\305\033?nnd\342\3348)ER\"T1\371A\367"
 191      59C51B3F 
 191      6E6E64E2 
 191      DC382945 
 191      52225431 
 192 0165 7249C3BE 		.ascii	"rI\303\276\273U\3370\303\367\325\270R'\374\2406w\336"
 192      BB55DF30 
 192      C3F7D5B8 
 192      5227FCA0 
 192      3677DE
 193 0178 E40E1E4D 		.ascii	"\344\016\036M~F\372&`\001\303D\201\373\225\327\350A"
 193      7E46FA26 
 193      6001C344 
 193      81FB95D7 
 193      E841
 194 018a 1A71B085 		.ascii	"\032q\260\205\302\365B\323Q\305\023T3\227<\205\217K"
 194      C2F542D3 
 194      51C51354 
 194      33973C85 
 194      8F4B
 195 019c 3BA87999 		.ascii	";\250y\231AMJ\245o_\374\211\206\333\304\226\276\246"
 195      414D4AA5 
ARM GAS  C:\Users\rdn\AppData\Local\Temp\ccl2ZEAm.s 			page 15


 195      6F5FFC89 
 195      86DBC496 
 195      BEA6
 196 01ae A043C005 		.ascii	"\240C\300\005L\000\211m\251w\316\024\360\210\355\225"
 196      4C00896D 
 196      A977CE14 
 196      F088ED95 
 197 01be C3EFEDB1 		.ascii	"\303\357\355\261\350b\325\226n7\216\354R\301\033\253"
 197      E862D596 
 197      6E378EEC 
 197      52C11BAB 
 198 01ce 88614632 		.ascii	"\210aF2ce\341A]\304\021\264>\261\370\"\320\2024P\255"
 198      6365E141 
 198      5DC411B4 
 198      3EB1F822 
 198      D0823450 
 199 01e3 E578D0A2 		.ascii	"\345x\320\242\013u\030\011\022wl$\313F\202\236\340W"
 199      0B751809 
 199      12776C24 
 199      CB46829E 
 199      E057
 200 01f5 E682A730 		.ascii	"\346\202\2470\271tl$D\035\222\177\226\367-22\3256B\347"
 200      B9746C24 
 200      441D927F 
 200      96F72D32 
 200      32D53642 
 201 020a 8DCF5D23 		.ascii	"\215\317]#\246-\375\314\177j\031\261\210\200]lMh\361"
 201      A62DFDCC 
 201      7F6A19B1 
 201      88805D6C 
 201      4D68F1
 202 021d DDA8916F 		.ascii	"\335\250\221o\372+\304X\361\330\310\300`\377\360`\354"
 202      FA2BC458 
 202      F1D8C8C0 
 202      60FFF060 
 202      EC
 203 022e EAC8F901 		.ascii	"\352\310\371\001\320\343W\206b\327/k\303\375\261k\332"
 203      D0E35786 
 203      62D72F6B 
 203      C3FDB16B 
 203      DA
 204 023f 1085BFA8 		.ascii	"\020\205\277\250\225\010\264"
 204      9508B4
 205              		.text
 206              		.section	.gnu.lto_freq_hz.d874c76d,"",%progbits
 207 0000 789C5550 		.ascii	"x\234UPAK[A\020\236ow}yOlh\317*\244\240\210\027\017"
 207      414B5B41 
 207      109E6F77 
 207      7D794F6C 
 207      68CF2AA4 
 208 0018 9EFC1DFE 		.ascii	"\236\374\035\376\001\017&%9TK\222\236\263\232\274\264"
 208      010F2625 
 208      39544B92 
 208      9EB39ABC 
 208      B4
 209 0029 08420F2A 		.ascii	"\010B\017*b\274\025\321j\332h-\205\\\322w(\364\324\322"
 209      62BC15D1 
ARM GAS  C:\Users\rdn\AppData\Local\Temp\ccl2ZEAm.s 			page 16


 209      6ADA682D 
 209      855CD277 
 209      28F4D4D2 
 210 003d 8258AAA5 		.ascii	"\202X\252\245\024+*E\252\326z\222\030g\362\202\330\201"
 210      142B2A45 
 210      AAD67A92 
 210      1867F282 
 210      D881
 211 004f 9DDDF9F8 		.ascii	"\235\335\371\370\276\231o\307\020H\342\276\"\352\341"
 211      BE996FC7 
 211      1048E2BE 
 211      22EAE1
 212 005e BB930F34 		.ascii	"\273\223\0174A=\373D4\341*@\036\326\005\345\024r\270"
 212      413DFB44 
 212      34E12A40 
 212      1ED605E5 
 212      1472B8
 213 0071 5075852F 		.ascii	"Pu\205/\205\365E\375O\371L3\\\236}\\\370\025\225\022"
 213      85F545FD 
 213      4FF94C33 
 213      5C9E7D5C 
 213      F8159512 
 214 0085 887159A8 		.ascii	"\210qY\250\275\3331\375\313\226\343\347\322\237\241"
 214      BDDB31FD 
 214      CB96E3E7 
 214      D29FA1
 215 0094 CD95C0F8 		.ascii	"\315\225\300\370ZQC\021V\320\205et\311\210\027\350g"
 215      5A514311 
 215      56D08565 
 215      74C98817 
 215      E867
 216 00a6 EEE1CC87 		.ascii	"\356\341\314\207rT\337\003\361\27327Ur\372\226Dg\277"
 216      7254DF03 
 216      F1BB3237 
 216      5572FA96 
 216      4467BF
 217 00b9 C6ADE76B 		.ascii	"\306\255\347k\215U\350\333:\206\010k\350\023z\271:3"
 217      8D55E8DB 
 217      3A86086B 
 217      E8137AB9 
 217      3A33
 218 00cb E5E8CEA6 		.ascii	"\345\350\316\246\364\265_\257Ez\237\2132\270(vl\332"
 218      F4B55FAF 
 218      457A9F8B 
 218      32B82876 
 218      6CDA
 219 00dd A010E399 		.ascii	"\240\020\343\231(\377/\227`\366\336\306\325\354\035"
 219      28FF2F97 
 219      60F6DEC6 
 219      D5EC1D
 220 00ec A720EC18 		.ascii	"\247 \354\030^\242W\254\261\243Wpx\025\020\2442\034"
 220      5EA257AC 
 220      B1A35770 
 220      781510A4 
 220      321C
 221 00fe D846236F 		.ascii	"\330F#o\203s\2476\177\342\266\0032U\361|\245%\031N&"
 221      8373A736 
ARM GAS  C:\Users\rdn\AppData\Local\Temp\ccl2ZEAm.s 			page 17


 221      7FE2B603 
 221      3255F17C 
 221      A525194E 
 222 0113 22C925E1 		.ascii	"\"\311%\341{\002\022\235\362\221m\235)%\267>\300\344"
 222      7B02129D 
 222      F2916D9D 
 222      2925B73E 
 222      C0E4
 223 0125 7671BB94 		.ascii	"vq\273\224\226\326y\255\362\032t\200\374\347\342V[\210"
 223      96D679AD 
 223      F21A7480 
 223      FCE7E256 
 223      5B88
 224 0137 6806D9CF 		.ascii	"h\006\331\317\267\2717o\275\356\222}j\355]C\266\025"
 224      B7B9376F 
 224      BDEE927D 
 224      6AED5D43 
 224      B615
 225 0149 01A4272A 		.ascii	"\001\244'*\350f\321\344\337'\373*\024\031\326\321\021"
 225      E866D1E4 
 225      DF27FB2A 
 225      1419D6D1 
 225      11
 226 015a 4C584558 		.ascii	"LXEX_\255\036\357Fr\365\246\336\327m\015%\337XG\216"
 226      5FAD1EEF 
 226      4672F5A6 
 226      DED76D0D 
 226      25DF5847 
 227 016f 98EC6B27 		.ascii	"\230\354k'\224\277G(pYC{h6\023\353\214\210\251\205\342"
 227      94BF4728 
 227      7059437B 
 227      683613EB 
 227      8C88A985 
 228 0184 8FD260C8 		.ascii	"\217\322`\310\360\030\342\256\363\323\227\311\226)\357"
 228      F018E2AE 
 228      F3D397C9 
 228      9629EF
 229 0193 C6D4F7D0 		.ascii	"\306\324\367\320\324\006\233\372\215\226!O\326z\312"
 229      D4069BFA 
 229      8D96214F 
 229      D67ACA
 230 01a2 43F9CBBC 		.ascii	"C\371\313\274\200\350\243Tv49\222I\246\036d\007F\311"
 230      80E8A354 
 230      76343992 
 230      49A61E64 
 230      0746C9
 231 01b5 CB241EA6 		.ascii	"\313$\036\246\262\343c\211\214\227\036I\217?\036\213"
 231      B2E36389 
 231      8C971E49 
 231      8F3F1E8B 
 232 01c5 27E2D726 		.ascii	"'\342\327&4\272\252"
 232      34BAAA
 233              		.text
 234              		.section	.gnu.lto_period.d874c76d,"",%progbits
 235 0000 789C5591 		.ascii	"x\234U\221\317kSA\020\307\347\273\273}?\232\030\364"
 235      CF6B5341 
 235      10C7E7BB 
ARM GAS  C:\Users\rdn\AppData\Local\Temp\ccl2ZEAm.s 			page 18


 235      BB7D3F9A 
 235      18F4
 236 0012 DC0672B0 		.ascii	"\334\006r\260\224^<\373Wx\020\357=4\221\346`+I<g\355"
 236      945E3CFB 
 236      577810EF 
 236      3D3491E6 
 236      602B493C 
 237 0028 CB8B5210 		.ascii	"\313\213R\020<\324\012\246'EZ56\255\0251\007\353;XE"
 237      3CD40AA6 
 237      27455A35 
 237      36AD1531 
 237      07EB3B58 
 238 003d 50A9A082 		.ascii	"P\251\240\202\025\244T\251E\004\233R\217\351s&/\007"
 238      15A454A9 
 238      45049B52 
 238      8FE97326 
 238      2F07
 239 004f 1DD8D99D 		.ascii	"\035\330\331\235y\337\317\316\354<C \2613\212\350$\357"
 239      79DFCFCE 
 239      EC3C4320 
 239      B1338AE8 
 239      24EF
 240 0061 43BCA009 		.ascii	"C\274\240\011\352\372;\242\313\236\002\344`=PU\241\212"
 240      EAFA3BA2 
 240      CB9E02E4 
 240      603D5055 
 240      A18A
 241 0073 3FAAABF0 		.ascii	"?\252\253\360\276\266\262\240\017U\3102\303a\347\355"
 241      BEB6B2A0 
 241      0F55C832 
 241      C361E7ED 
 242 0083 AD6F1909 		.ascii	"\255o\031\011\201\034\207\265\365\347[fl\321\262mo\374"
 242      811C87B5 
 242      F5E75B66 
 242      6CD1B26D 
 242      6FFC
 243 0095 3EBDB614 		.ascii	">\275\266\024\231P+\212\025a\011\303X\304\260\224\270"
 243      99502B8A 
 243      156109C3 
 243      58C4B094 
 243      B8
 244 00a6 8731D6FE 		.ascii	"\2071\326\376\230{\325\314\350\023 >\267\346g\033\316"
 244      987BD5CC 
 244      E813203E 
 244      B7E6671B 
 244      CE
 245 00b7 E85DE1EC 		.ascii	"\350]\341\354\307\274\365C\255q\037\372_\216S\204\007"
 245      C7BCF543 
 245      AD711FFA 
 245      5F8E5384 
 245      07
 246 00c8 181579B3 		.ascii	"\030\025y\263=7\353\350\241\036\372(\354\256\273#w\204"
 246      3D37EBE8 
 246      A11EFA28 
 246      ECAEBB23 
 246      7784
 247 00da 8CE27A7A 		.ascii	"\214\342zz\315F\265\034\327D\363\177\\\214\325;\253"
ARM GAS  C:\Users\rdn\AppData\Local\Temp\ccl2ZEAm.s 			page 19


 247      CD46B51C 
 247      D744F37F 
 247      5C8CD53B 
 247      AB
 248 00eb 47378E39 		.ascii	"G7\21695Q\347\360\020#\322\032w\264\014\207G\001\311"
 248      3551E7F0 
 248      1023D21A 
 248      77B40C87 
 248      4701C9
 249 00fe B4CE4636 		.ascii	"\264\316F6\216\003\033u\235gO\017\2744 U\025\327WZ\234"
 249      8E031B75 
 249      9D674F0F 
 249      BC342055 
 249      15D7575A 
 250 0113 61675C71 		.ascii	"ag\\q\036\211\336\227\343\240\270\224|&\332\347%s\353"
 250      1E89DE97 
 250      E3A0B894 
 250      7C26DAE7 
 250      2573EB
 251 0126 2825BBDE 		.ascii	"(%\273\336\305\314\247\372Q\243$E\002\255\002\015\332"
 251      C5CCA7FA 
 251      51A32445 
 251      02AD020D 
 251      DA
 252 0137 45B059FF 		.ascii	"E\260Y\3770\220d4'\271\263\317\363\217\237\370\331\206"
 252      30906434 
 252      27B9B3CF 
 252      F38F9FF8 
 252      D986
 253 0149 BD6AED71 		.ascii	"\275j\355qC\266o\021\344N\264\220eh\346\340\312w\225"
 253      43B66F11 
 253      E44EB490 
 253      6568E6E0 
 253      CA7795
 254 015c 408639DA 		.ascii	"@\2069\332\203I\"\227\371v\373\327\027\267\332\355\361"
 254      83492297 
 254      F976FBD7 
 254      17B7DAED 
 254      F1
 255 016d A11E8895 		.ascii	"\241\036\210\225<h\005Ubq\250\235\004\177\201\004\360"
 255      3C680555 
 255      6271A89D 
 255      047F8104 
 255      F0
 256 017e 98A11DF4 		.ascii	"\230\241\035\364.\223Gp&\021\274\\8\227(\374$\025l:"
 256      2E934770 
 256      2611BC5C 
 256      389728FC 
 256      24156C3A 
 257 0192 493CC825 		.ascii	"I<\310%^_\353|M\367[t\311n\357m,\037\336\276\271\305"
 257      5E5FEB7C 
 257      4DF75B74 
 257      C96EEF6D 
 257      2C1FDEBE 
 258 01a8 2D1AC22A 		.ascii	"-\032\302*\262L%\267\274\351\227I1G?\321\3579%\377`"
 258      B24C25B7 
 258      BCE99749 
ARM GAS  C:\Users\rdn\AppData\Local\Temp\ccl2ZEAm.s 			page 20


 258      31473FD1 
 258      EF3925FF 
 259 01bd 9FFBE2A9 		.ascii	"\237\373\342\251\360\2142\027\213\225\211\311\361\362"
 259      F08C3217 
 259      8B9589C9 
 259      F1F2
 260 01cb 64F17CE5 		.ascii	"d\361|\345\324\004\371\345\302\205bez\252P\366K\343"
 260      D404F9E5 
 260      C2856265 
 260      7AAA50F6 
 260      4BE3
 261 01dd A5E94B53 		.ascii	"\245\351KS\371B\376/\274\376\311\022"
 261      F942FE2F 
 261      BCFEC912 
 262              		.text
 263              		.section	.gnu.lto_.symbol_nodes.d874c76d,"",%progbits
 264 0000 789C55C9 		.ascii	"x\234U\311;\016\3020\020\004\320Y\257\307\016\247\000"
 264      3B0EC230 
 264      1004D059 
 264      AFC70EA7 
 264      00
 265 0011 4EBA2EA2 		.ascii	"N\272.\242 !\001\341{\002NA\235\232\2362=--\302\220"
 265      202101E1 
 265      7B024E41 
 265      9D9A9E32 
 265      3D2D2DC2 
 266 0026 869D6634 		.ascii	"\206\235f4o\"\004\017\324\204-\015\350\357@\255[YV\331"
 266      6F22040F 
 266      D4842D0D 
 266      E8EF40AD 
 266      5B5956D9 
 267 003a D1C44B4F 		.ascii	"\321\304KO\013^\3664\365r\240E'r\244\361'@)\213\012"
 267      0B5EF634 
 267      F572A045 
 267      2772A4F1 
 267      2740298B 
 268 004f 675A7270 		.ascii	"gZrp\242e\007\027Z\363\017\012\342\272~mf*\031\355\370"
 268      A2650717 
 268      5AF30F0A 
 268      E2BA7E6D 
 268      662A19ED 
 269 0064 169584A1 		.ascii	"\026\225\204\241{\3165d\014\337\035\022\332U\335\332"
 269      7BCE3564 
 269      0CDF1D12 
 269      DA55DDDA 
 270 0074 4C7F9C1A 		.ascii	"L\177\234\032\037qM6,"
 270      1F714D36 
 270      2C
 271              		.text
 272              		.section	.gnu.lto_.refs.d874c76d,"",%progbits
 273 0000 789C6361 		.ascii	"x\234ca`\004B \000\000\0009\000\007"
 273      60044220 
 273      00000039 
 273      0007
 274              		.text
 275              		.section	.gnu.lto_.decls.d874c76d,"",%progbits
 276 0000 789CBD55 		.ascii	"x\234\275UmLSW\030\276\347\336\226Bi\3018c\210\361\007"
ARM GAS  C:\Users\rdn\AppData\Local\Temp\ccl2ZEAm.s 			page 21


 276      6D4C5357 
 276      18BEE7DE 
 276      964269C1 
 276      386388F1 
 277 0015 314B744B 		.ascii	"1KtKd\3031\263,\373\261\314\271\305\037\333H\314\314"
 277      64C331B3 
 277      2CFBB1CC 
 277      B9C51FDB 
 277      48CCCC
 278 0028 7E74B9A9 		.ascii	"~t\271\251m\221&\320\326\366\262\351~lG\352\007\331"
 278      6D9126D0 
 278      D6F6B2E9 
 278      7E6C47EA 
 278      07D9
 279 003a 5CEC3408 		.ascii	"\\\3544\010\350\374\230\272\011\202R-\233\237hq\212"
 279      E8FC98BA 
 279      0982522D 
 279      9B9F6871 
 279      8A
 280 004b ACA84314 		.ascii	"\254\250C\024EAa\302\370\030\016\345c2\345k\3579\347"
 280      454161C2 
 280      F8180EE5 
 280      6332E56B 
 280      EF39E7
 281 005e DEDE16C1 		.ascii	"\336\336\026\301\270?\336\360\266\367\274}\337\347y"
 281      B83FDEF0 
 281      B6F7BC7D 
 281      DFE779
 282 006d DEF3BEE7 		.ascii	"\336\363\276\347\240\341\020G\236\324x\216\333\301s"
 282      A0E11047 
 282      9ED4788E 
 282      DBC173
 283 007c 5C0D2CC7 		.ascii	"\\\015,\307\341\211\001\33720\362\253\237cO\034\330"
 283      E18901DF 
 283      3230F2AB 
 283      9F634F1C 
 283      D8
 284 008d 39B01AB0 		.ascii	"9\260\032\260\020\330e\260:\260.\260~\260\207`\217\271"
 284      10D865B0 
 284      3AB02EB0 
 284      7EB08760 
 284      8FB9
 285 009f 271F9263 		.ascii	"'\037\222c\004\233\0166\003l\021X\025X\272\214\375\021"
 285      049B0E36 
 285      036C1158 
 285      1558BA8C 
 285      FD11
 286 00b1 583BD85C 		.ascii	"X;\330\\\260Y`\303`#`\235r>/ctM\202M\264\304F`\247\313"
 286      B05960C3 
 286      6023609D 
 286      723E2F63 
 286      744D824D 
 287 00cb F88BC146 		.ascii	"\370\213\301F\301\372\300\306\344XA\216\177(\353\235"
 287      C1FAC0C6 
 287      E458418E 
 287      7F28EB9D 
 288 00db F884FE27 		.ascii	"\370\204\376'V\350)Xdot\023jN\237\200\245\324Fb'\333"
ARM GAS  C:\Users\rdn\AppData\Local\Temp\ccl2ZEAm.s 			page 22


 288      56E82958 
 288      646F7413 
 288      6A4E9F80 
 288      A5D44662 
 289 00f1 B7BAFF81 		.ascii	"\267\272\377\201Q7\005\306(\217r\207\367ca\220G\263"
 289      513705C6 
 289      288F7287 
 289      F7636190 
 289      47B3
 290 0103 F4685C79 		.ascii	"\364h\\y\210\177\375\310\231\362\004\346\307\312\363"
 290      887FFDC8 
 290      99F204E6 
 290      C7CAF3
 291 0112 15F85B1E 		.ascii	"\025\370[\036\025\277\227RFV>\214y^\005\272\\\033\250"
 291      15BF9752 
 291      46563E8C 
 291      795E05BA 
 291      5C1BA8
 292 0125 8A13E211 		.ascii	"\212\023\342\021y\337vr0\244\205\344\351z\024\013\313"
 292      79DF7672 
 292      30A485E4 
 292      E97A140B 
 292      CB
 293 0136 A3BDA547 		.ascii	"\243\275\245G\215\260\234\241GA\370\231?u\254\"?\006"
 293      8DB09CA1 
 293      4741F899 
 293      3F75AC22 
 293      3F06
 294 0148 E9E7E511 		.ascii	"\351\347\345\021\230\335^<g\315\341\331\034*C\263Q)"
 294      98DD5E3C 
 294      67CDE1D9 
 294      1C2A43B3 
 294      5129
 295 015a 82974368 		.ascii	"\202\227Ch\036\241-A)\034*\006\347~p\376DB[\233\332"
 295      1EA12D41 
 295      291C2A06 
 295      E77E70FE 
 295      44425B9B 
 296 016f 8DC7309E 		.ascii	"\215\3070\236\206\016\"=:\200\004\032\002S8K\317$\354"
 296      860E223D 
 296      3A80041A 
 296      0253384B 
 296      CF24EC
 297 0182 1B3DE7E3 		.ascii	"\033=\347\343\205BD4\360\371Uw\2777NMrxJ\222\357\276"
 297      85424434 
 297      F0F95577 
 297      BF374E4D 
 297      72784A92 
 298 0198 79AB9490 		.ascii	"y\253\224\220\370\201\244\\%\001N\362\005^`\032\337"
 298      F881A45C 
 298      25014EF2 
 298      055E601A 
 298      DF
 299 01a9 55B129B6 		.ascii	"U\261)\266\011\335D\002'\037\021\016!\366\211\250q\314"
 299      09DD4402 
 299      271F110E 
 299      21F689A8 
ARM GAS  C:\Users\rdn\AppData\Local\Temp\ccl2ZEAm.s 			page 23


 299      71CC
 300 01bb E8125E78 		.ascii	"\350\022^x\216\275(\256\360\303\311!\274\362\252\202"
 300      8EBD28AE 
 300      F0C3C921 
 300      BCF2AA82 
 301 01cb D13F395F 		.ascii	"\321?9_\355\015\005Q\321\221\234\304\326r2''!^%@l\251"
 301      ED0D0551 
 301      D1919CC4 
 301      D6723227 
 301      27215E25 
 302 01e2 6444E04D 		.ascii	"dD\340MP\244hVh8^\351\360\203\235U\267\014B\001O[|\250"
 302      50A46856 
 302      68385EE9 
 302      F0839D55 
 302      B70C4201 
 303 01fa 6CD8AFD7 		.ascii	"l\330\257\327\300o(]\217\226k\210\353\312Z\377\367\002"
 303      C06F285D 
 303      8F966B88 
 303      EBCA5AFF 
 303      F702
 304 020c EBBA0696 		.ascii	"\353\272\006\226}\227\266\265%\260\256'\303\262m\317"
 304      7D97B6B5 
 304      25B0AE27 
 304      C3B26DCF 
 305 021c E5BD3C2C 		.ascii	"\345\275<,\223\310\240!2$\301\272O\331\032\343/a\035"
 305      93C8A021 
 305      3224C1BA 
 305      4FD91AE3 
 305      2F611D
 306 022f 681A2CE1 		.ascii	"h\032,\341\205\037\031\374\371\361\241`\"\303\342aY"
 306      851F19FC 
 306      F9F1A160 
 306      22C3E261 
 306      59
 307 0240 FFE0E28E 		.ascii	"\377\340\342\216x\2065\015z{\377\360\246\255\211Jo\261"
 307      7886350D 
 307      7A7BFFF0 
 307      A6AD894A 
 307      6FB1
 308 0252 17EB8B13 		.ascii	"\027\353\213\0238t\022\272x\202\264\266\022Z\233$\267"
 308      387412BA 
 308      7882B4B6 
 308      125A9B24 
 308      B7
 309 0263 F618388F 		.ascii	"\366\0308\217F\314\317;^\214\021:\005\255=\256\2666"
 309      46CCCF3B 
 309      5E8C113A 
 309      05AD3DAE 
 309      B636
 310 0275 499E9F9F 		.ascii	"I\236\237\237\013/mI\020\312\251\002\376P\307\370\325"
 310      0B2F6D49 
 310      10CAA902 
 310      FE50C7F8 
 310      D5
 311 0286 38344FAF 		.ascii	"84O\257\014\305\213t(\202\220yZ\315<E\207br\031g&\221"
 311      0CC58B74 
 311      28829079 
ARM GAS  C:\Users\rdn\AppData\Local\Temp\ccl2ZEAm.s 			page 24


 311      5ACD3C45 
 311      87627219 
 312 029d 01245B6E 		.ascii	"\001$[nt\337\022\014_c\234\213}^<\275&\201b\376\002"
 312      74DF120C 
 312      5F639C8B 
 312      7D5E3CBD 
 312      268162FE 
 313 02b2 013F4300 		.ascii	"\001?C\000\207\252\220A\336\357\336\356\256\263\002"
 313      87AA9041 
 313      DEEFDEEE 
 313      AEB302
 314 02c1 DD62F0A1 		.ascii	"\335b\360\241\012D7\371R{\311\220.i+=\200^\234\254A"
 314      0A4437F9 
 314      527BC990 
 314      2E692B3D 
 314      805E9CAC 
 315 02d6 8BE22392 		.ascii	"\213\342#\222\177EI\360y\026B)\202\267\262\274H3g7\336"
 315      7F4549F0 
 315      79164229 
 315      82B7B2BC 
 315      48336737 
 316 02eb EDC7AD2D 		.ascii	"\355\307\255-Wg\026xq\015\344%\2230\024P\253\010\220"
 316      57671678 
 316      710DE425 
 316      93301450 
 316      AB0890
 317 02fe 31E6D011 		.ascii	"1\346\320\021\324\004-?\207\346@f\250\247\243\316(T"
 317      D4042D3F 
 317      87E64066 
 317      A8A7A3CE 
 317      2854
 318 0310 4FEC3590 		.ascii	"O\3545\220\261^7\256\273\266\223\217\224\221\036Y\303"
 318      B15E37AE 
 318      BBB6938F 
 318      94911E59 
 318      C3
 319 0321 052AA35A 		.ascii	"\005*\243Z\2211\334\322{\321\300d\004\003\325|\021\016"
 319      9131DCD2 
 319      7BD1C064 
 319      0403D57C 
 319      110E
 320 0333 AE853C9E 		.ascii	"\256\205<\236\204\241\363\252\214\363\2212j\250\214"
 320      84A1F3AA 
 320      8CF39132 
 320      6AA88C
 321 0342 DD5BEBFB 		.ascii	"\335[\353\373\220p\223\311\330\236\177x\203 \303\324"
 321      907093C9 
 321      D89E7F78 
 321      8320C3D4 
 322 0352 571BB06F 		.ascii	"W\033\260o\015\306oS\220\337T\220\337\"AB\024d\264`"
 322      0DC66F53 
 322      90DF5490 
 322      DF224142 
 322      1464B460 
 323 0366 F316AD70 		.ascii	"\363\026\255po\312\271}\242\226\250-\275Dk\271\250\324"
 323      6FCAB97D 
 323      A296A82D 
ARM GAS  C:\Users\rdn\AppData\Local\Temp\ccl2ZEAm.s 			page 25


 323      BD446BB9 
 323      A8D4
 324 0378 929B7B62 		.ascii	"\222\233{bL\251e\240Z\010\327\002a\250V\225Q\033)\343"
 324      4CA965A0 
 324      5A08D702 
 324      61A85695 
 324      511B29E3 
 325 038c 329511D8 		.ascii	"2\225\021\330\332P\240#\347\203r\356\274Pe\224aF\302"
 325      DA50A023 
 325      E78372EE 
 325      BC506594 
 325      6146C2
 326 039f B51090DF 		.ascii	"\265\020\220\337U\220\337#A\352(\310\201\300\215\322"
 326      5590DF23 
 326      41EA28C8 
 326      81C08DD2 
 327 03af 18619881 		.ascii	"\030a\230\201\024\344\335n4\012\033\005:\257\276\037"
 327      14E4DD6E 
 327      340A1B05 
 327      3AAFBE1F 
 328 03bf 2EACD586 		.ascii	".\254\325\206\347\265a\333g\025\353\210\256k0\\\365"
 328      E7B561DB 
 328      6715EB88 
 328      AE6B305C 
 328      F5
 329 03d0 2AA45F1D 		.ascii	"*\244_\035\330'\357\304\253\223\334\211\344\334{\003"
 329      D827EFC4 
 329      AB93DC89 
 329      E4DC7B03 
 330 03e0 DE84A889 		.ascii	"\336\204\250\211\275\0265\261\015\341\211\27558\334"
 330      BD1635B1 
 330      0DE189BD 
 330      3538DC
 331 03ef 88E8E682 		.ascii	"\210\350\346\202O\336\335\3335%\245\244\352\271\354"
 331      4FDEDDDB 
 331      3525A5A4 
 331      EAB9EC
 332 03fe 1F4C22B8 		.ascii	"\037L\"\270\312\357\035\177dd.\022Q\277\251\177\237"
 332      CAEF1D7F 
 332      64642E12 
 332      51BFA97F 
 332      9F
 333 040f 4EA86465 		.ascii	"N\250deT\177\0338\022\037.\243i\237\34189vM@xS\255b"
 333      547F1B38 
 333      121F2EA3 
 333      699FE138 
 333      39764D40 
 334 0427 AE5C8422 		.ascii	"\256\\\204\"\210\013\253A\267\240\206\271r\015\215\340"
 334      880BAB41 
 334      B7A086B9 
 334      720D8DE0 
 335 0437 BCC16A28 		.ascii	"\274\301j(\331\367\335\236\030\241\206q\024U\034\030"
 335      D9F7DD9E 
 335      18A18671 
 335      14551C18 
 336 0447 D2471CED 		.ascii	"\322G\034\355\2642\302q\0078\232U\216&45\311\355\311"
 336      B432C271 
ARM GAS  C:\Users\rdn\AppData\Local\Temp\ccl2ZEAm.s 			page 26


 336      07389A55 
 336      8E263435 
 336      C9EDC9
 337 045a 494EE755 		.ascii	"IN\347U\016hi\371\004\353:;\260\255{\216\0345\010W\030"
 337      0E6869F9 
 337      04EB3A3B 
 337      B0AD7B8E 
 337      1C350857 
 338 046f 73CFEDE2 		.ascii	"s\317\355\342\016>\242I\331\254Iw!\274U\245\016>\345"
 338      0E3EA249 
 338      D9AC4977 
 338      21BC55A5 
 338      0E3EE5
 339 0482 56F963F2 		.ascii	"V\371c\362[\345q^m\177\234^N\361=S\312\306\302\277\306"
 339      5BE5715E 
 339      6D7F9C5E 
 339      4EF13D53 
 339      CAC6C2BF 
 340 0497 12A3DADA 		.ascii	"\022\243\332\332\026\325\326\366p[C]\271]<\255\013|"
 340      16D5D6F6 
 340      705B435D 
 340      B95D3CAD 
 340      0B7C
 341 04a9 A885D5D5 		.ascii	"\250\205\325\325\336\360o\263!\354\374\2239\003\275"
 341      DEF06FB3 
 341      21ECFC93 
 341      3903BD
 342 04b8 B8C71079 		.ascii	"\270\307\020y\224\226\315\214@\354\244G\251C9J#\315"
 342      9496CD8C 
 342      40ECA447 
 342      A943394A 
 342      23CD
 343 04ca 25D5E40C 		.ascii	"%\325\344\014\264\302V\264\334yo\303\336\365A\037\242"
 343      B4C256B4 
 343      DC796FC3 
 343      DEF5411F 
 343      A2
 344 04db 51E88ABA 		.ascii	"Q\350\212\272\031W\350!\200\227.z\000\032r\257\256K"
 344      1957E821 
 344      80972E7A 
 344      001A72AF 
 344      AE4B
 345 04ed 10366AE8 		.ascii	"\0206j\350\344\034\314\035>\037+lf\213\376;\315\305"
 345      E41CCC1D 
 345      3E1F2B6C 
 345      668BFE3B 
 345      CDC5
 346 04ff 4410FA8B 		.ascii	"D\020\372\213f\220\273\262\274\373\233\030\241\220\375"
 346      6690BBB2 
 346      BCFB9B18 
 346      A190FD
 347 050e 5CD1B365 		.ascii	"\\\321\263e;i\016\272\007?\243\036\246\327\277&\270"
 347      3B690EBA 
 347      073FA31E 
 347      A6D7BF26 
 347      B8
 348 051f DF28EC60 		.ascii	"\337(\354`\021g\233\376\354\324\221\210^\022\3617\213"
ARM GAS  C:\Users\rdn\AppData\Local\Temp\ccl2ZEAm.s 			page 27


 348      11679BFE 
 348      ECD49188 
 348      5E12F137 
 348      8B
 349 0530 50EF8BC5 		.ascii	"P\357\213\305S\336}\213#\357\213>Z\344\003\245\310\306"
 349      53DE7D8B 
 349      23EF8B3E 
 349      5AE403A5 
 349      C8C6
 350 0542 8B03BFC6 		.ascii	"\213\003\277\306@\221\017|\270u{\333'7O\267\343\274"
 350      40910F7C 
 350      B8757BDB 
 350      27374FB7 
 350      E3BC
 351 0554 CDF8557C 		.ascii	"\315\370U|\003\221H\324\255\024\212\356#\015Y\261Z\373"
 351      039148D4 
 351      AD148AEE 
 351      230D59B1 
 351      5AFB
 352 0566 69AD47FA 		.ascii	"i\255G\372\272\2734B\276\226\252\363o\357\010\351\024"
 352      BABB3442 
 352      BE96AAF3 
 352      6FEF08E9 
 352      14
 353 0577 FD147ACF 		.ascii	"\375\024z\317\217;\353\343\302z\007\345q;4xGK6\325\207"
 353      8F3BEBE3 
 353      C27A07E5 
 353      713B3478 
 353      474B36D5 
 354 058c 83852143 		.ascii	"\203\205!C\020.\026/\366\277@\311\006\302d\377\000\331"
 354      102E162F 
 354      F6BF40C9 
 354      06C264FF 
 354      00D9
 355 059e 8042F690 		.ascii	"\200B\366\220\222\345\216\365\345\307\013E\317F\366"
 355      92E58EF5 
 355      E5C70B45 
 355      CF46F6
 356 05ad 2F236BEE 		.ascii	"/#k\356\254lK\224\311\266]W\310b(\331P\230\354\021\220"
 356      AC6C4B94 
 356      C9B65D57 
 356      C86228D9 
 356      5098EC11 
 357 05c2 0D29648F 		.ascii	"\015)d\217\331\275^4Z\030\375O\220t]\335\304a6{\344"
 357      D9BD5E34 
 357      5A18FD4F 
 357      90745DDD 
 357      C461367B 
 358 05d7 1BA28B70 		.ascii	"\033\242\213p\240\221\217\212\366GM\352\210\034=B\243"
 358      A0918F8A 
 358      F6474DEA 
 358      881C3D42 
 358      A3
 359 05e8 F12EBC29 		.ascii	"\361.\274):\272/\012{T\216\036\245\321\265\235g\037"
 359      3ABA2F0A 
 359      7B548E1E 
 359      A5D1B59D 
ARM GAS  C:\Users\rdn\AppData\Local\Temp\ccl2ZEAm.s 			page 28


 359      671F
 360 05fa 21A599BE 		.ascii	"!\245\231\276\2475\023\215\301\"\366\375\017?N^\224"
 360      A735138D 
 360      C122F6FD 
 360      0F3F4E5E 
 360      94
 361 060b 9ACAC589 		.ascii	"\232\312\305\211\242\335!-L\023\2455\310\362\246\311"
 361      A2DD212D 
 361      4C13A535 
 361      C8F2A6C9 
 362 061b E576AE70 		.ascii	"\345v\256p\233\263\2233\354Y6O\362\274Uo,|\311dY\355"
 362      9BB39333 
 362      EC59364F 
 362      F2BC556F 
 362      2C7CC964 
 363 0631 72DB3C1E 		.ascii	"r\333<\036\223\313\343\264$[\3346\263\344t\233\322R"
 363      93CBE3B4 
 363      245BDC36 
 363      B3E4749B 
 363      D252
 364 0643 D2A21DF6 		.ascii	"\322\242\035\366l\227\323-\231V8rLfw\266\351\365\224"
 364      6C97D32D 
 364      99563872 
 364      4C6677B6 
 364      E9F594
 365 0656 B49454F2 		.ascii	"\264\224T\3626\337\341t\330\346\333\314\313\355&\273"
 365      36DFE174 
 365      D8E6DBCC 
 365      CBED26BB 
 366 0666 C3929563 		.ascii	"\303\222\225c\265\231\262\315\226L\273\303f\022\255"
 366      B599B2CD 
 366      964CBBC3 
 366      6612AD
 367 0675 B60C734E 		.ascii	"\266\014sN\226$J\253]6OJ&\247\223\245|\366\274\224x"
 367      96244AAB 
 367      5D364F4A 
 367      26A793A5 
 367      7CF6BC94 
 368 068a 567B4CA2 		.ascii	"V{L\242G\262\002/\320\033\2556\311f\221D\227\315mwZ"
 368      47B2022F 
 368      D01BAD36 
 368      C9669144 
 368      97CD6D77 
 369 069f D9CEA42E 		.ascii	"\331\316\244.\024%\235\374\235\340\262K\226L\321\223"
 369      14259DFC 
 369      9DE0B24B 
 369      964CD193 
 370 06af 69CF9052 		.ascii	"i\317\220R,\334t\263\013D\256\022=\266l\273\004\320"
 370      2CDC74B3 
 370      0B44AE12 
 370      3DB66CBB 
 370      04D0
 371 06c1 1E31E349 		.ascii	"\0361\343I\227K\227\341\266\255\0243\277\210a\250\323"
 371      974B97E1 
 371      B6AD1433 
 371      BF8861A8 
 371      D3
ARM GAS  C:\Users\rdn\AppData\Local\Temp\ccl2ZEAm.s 			page 29


 372 06d2 40886875 		.ascii	"@\210hu\002\211\333i\025W\246\276\256]\271\3605Qz9\305"
 372      0289DB69 
 372      1557A6BE 
 372      AE5DB9F0 
 372      35517A39 
 373 06e7 B4E883A5 		.ascii	"\264\350\203\245K\226\316\177wi\372\374l\263\335aZ\302"
 373      4B96CE7F 
 373      7769FAFC 
 373      6CB3DD61 
 373      5AC2
 374 06f9 24BE42E2 		.ascii	"$\276B\342\263\315Rfx\223\364\242\230\003\202^[ J\261"
 374      B3CD5266 
 374      7893F4A2 
 374      9803825E 
 374      5B204AB1 
 375 070d CA8B1680 		.ascii	"\312\213\026\200D)mJ\020\253\307\365\312r\263\307na"
 375      44296D4A 
 375      10ABC7F5 
 375      CA72B3C7 
 375      6E61
 376 071f 5019390E 		.ascii	"P\0319\016\213dw:\010\234\326\355\314qX\265\026XI\232"
 376      8B64773A 
 376      089CD6ED 
 376      CC7158B5 
 376      1658499A 
 377 0733 2C9B3943 		.ascii	",\2339C\347pJ\231n\347\347\316\3477\016R&\010\021\262"
 377      E7704A99 
 377      6EE7E7CE 
 377      E7370E52 
 377      260811B2 
 378 0747 9C2B34B6 		.ascii	"\234+4\266U\256\005\377\001\330\274eX"
 378      55AE05FF 
 378      01D8BC65 
 378      58
 379              		.text
 380              		.section	.gnu.lto_.symtab.d874c76d,"",%progbits
 381 0000 64657465 		.ascii	"detect_period\000"
 381      63745F70 
 381      6572696F 
 381      6400
 382 000e 00       		.ascii	"\000"
 383 000f 00       		.ascii	"\000"
 384 0010 00       		.ascii	"\000"
 385 0011 00000000 		.ascii	"\000\000\000\000\000\000\000\000"
 385      00000000 
 386 0019 C4000000 		.ascii	"\304\000\000\000"
 387 001d 61707072 		.ascii	"approx_semitones_f\000"
 387      6F785F73 
 387      656D6974 
 387      6F6E6573 
 387      5F6600
 388 0030 00       		.ascii	"\000"
 389 0031 00       		.ascii	"\000"
 390 0032 00       		.ascii	"\000"
 391 0033 00000000 		.ascii	"\000\000\000\000\000\000\000\000"
 391      00000000 
 392 003b C8000000 		.ascii	"\310\000\000\000"
ARM GAS  C:\Users\rdn\AppData\Local\Temp\ccl2ZEAm.s 			page 30


 393 003f 61707072 		.ascii	"approx_semitones_p\000"
 393      6F785F73 
 393      656D6974 
 393      6F6E6573 
 393      5F7000
 394 0052 00       		.ascii	"\000"
 395 0053 00       		.ascii	"\000"
 396 0054 00       		.ascii	"\000"
 397 0055 00000000 		.ascii	"\000\000\000\000\000\000\000\000"
 397      00000000 
 398 005d CA000000 		.ascii	"\312\000\000\000"
 399 0061 66726571 		.ascii	"freq_hz\000"
 399      5F687A00 
 400 0069 00       		.ascii	"\000"
 401 006a 00       		.ascii	"\000"
 402 006b 00       		.ascii	"\000"
 403 006c 00000000 		.ascii	"\000\000\000\000\000\000\000\000"
 403      00000000 
 404 0074 CE000000 		.ascii	"\316\000\000\000"
 405 0078 70657269 		.ascii	"period\000"
 405      6F6400
 406 007f 00       		.ascii	"\000"
 407 0080 00       		.ascii	"\000"
 408 0081 00       		.ascii	"\000"
 409 0082 00000000 		.ascii	"\000\000\000\000\000\000\000\000"
 409      00000000 
 410 008a D0000000 		.ascii	"\320\000\000\000"
 411 008e 61726D5F 		.ascii	"arm_dot_prod_q15\000"
 411      646F745F 
 411      70726F64 
 411      5F713135 
 411      00
 412 009f 00       		.ascii	"\000"
 413 00a0 02       		.ascii	"\002"
 414 00a1 00       		.ascii	"\000"
 415 00a2 00000000 		.ascii	"\000\000\000\000\000\000\000\000"
 415      00000000 
 416 00aa E8000000 		.ascii	"\350\000\000\000"
 417              		.text
 418              		.section	.gnu.lto_.opts,"",%progbits
 419 0000 272D666D 		.ascii	"'-fmath-errno' '-fsigned-zeros' '-ftrapping-math' '"
 419      6174682D 
 419      6572726E 
 419      6F272027 
 419      2D667369 
 420 0033 2D666E6F 		.ascii	"-fno-trapv' '-fno-openmp' '-fno-openacc' '-mcpu=cor"
 420      2D747261 
 420      70762720 
 420      272D666E 
 420      6F2D6F70 
 421 0066 7465782D 		.ascii	"tex-m4' '-mfloat-abi=softfp' '-mfpu=fpv4-sp-d16' '-"
 421      6D342720 
 421      272D6D66 
 421      6C6F6174 
 421      2D616269 
 422 0099 6D746875 		.ascii	"mthumb' '-g' '-O3' '-ffunction-sections' '-ffat-lto"
 422      6D622720 
ARM GAS  C:\Users\rdn\AppData\Local\Temp\ccl2ZEAm.s 			page 31


 422      272D6727 
 422      20272D4F 
 422      33272027 
 423 00cc 2D6F626A 		.ascii	"-objects' '-finline-functions' '-flto'\000"
 423      65637473 
 423      2720272D 
 423      66696E6C 
 423      696E652D 
 424              		.text
 425              		.cfi_sections	.debug_frame
 426              		.section	.text.detect_period,"ax",%progbits
 427              		.align	2
 428              		.global	detect_period
 429              		.thumb
 430              		.thumb_func
 431              		.type	detect_period, %function
 432              	detect_period:
 433              	.LFB653:
 434              		.file 1 "pitch_shift.c"
   1:pitch_shift.c **** /* ========================================
   2:pitch_shift.c ****  *
   3:pitch_shift.c ****  * Copyright YOUR COMPANY, THE YEAR
   4:pitch_shift.c ****  * All Rights Reserved
   5:pitch_shift.c ****  * UNPUBLISHED, LICENSED SOFTWARE.
   6:pitch_shift.c ****  *
   7:pitch_shift.c ****  * CONFIDENTIAL AND PROPRIETARY INFORMATION
   8:pitch_shift.c ****  * WHICH IS THE PROPERTY OF your company.
   9:pitch_shift.c ****  *
  10:pitch_shift.c ****  * ========================================
  11:pitch_shift.c **** */
  12:pitch_shift.c **** 
  13:pitch_shift.c **** #include <math.h>
  14:pitch_shift.c **** #include "pitch_shift.h"
  15:pitch_shift.c **** //#include "project.h"
  16:pitch_shift.c **** 
  17:pitch_shift.c **** #define ARM_MATH_LOOPUNROLL
  18:pitch_shift.c **** 
  19:pitch_shift.c **** #include <arm_math.h>
  20:pitch_shift.c **** 
  21:pitch_shift.c **** float detect_period(int16_t data[], int length) {
 435              		.loc 1 21 0
 436              		.cfi_startproc
 437              		@ args = 0, pretend = 0, frame = 8
 438              		@ frame_needed = 0, uses_anonymous_args = 0
 439              	.LVL0:
 440              	.LBB2:
  22:pitch_shift.c **** 	// source: https://github.com/akellyirl/AutoCorr_Freq_detect
  23:pitch_shift.c **** 	int64_t sum = 0;
  24:pitch_shift.c **** 	int64_t sum_old = 0;
  25:pitch_shift.c **** 	int64_t sum_very_old = 0;
  26:pitch_shift.c **** 	int64_t thresh = 0;
  27:pitch_shift.c **** 	int pd_state = 0;
  28:pitch_shift.c **** 	
  29:pitch_shift.c **** 	pd_state = 0;
  30:pitch_shift.c **** 	
  31:pitch_shift.c **** 	// skip the first few values of autocorr
  32:pitch_shift.c **** 	// this removes false positives & speeds up the pitch detection
ARM GAS  C:\Users\rdn\AppData\Local\Temp\ccl2ZEAm.s 			page 32


  33:pitch_shift.c **** 	for (int i = 48; i < length; i++) {
 441              		.loc 1 33 0
 442 0000 3029     		cmp	r1, #48
 443 0002 1BDD     		ble	.L7
 444              	.LBE2:
  21:pitch_shift.c **** 	// source: https://github.com/akellyirl/AutoCorr_Freq_detect
 445              		.loc 1 21 0
 446 0004 2DE9F041 		push	{r4, r5, r6, r7, r8, lr}
 447              		.cfi_def_cfa_offset 24
 448              		.cfi_offset 4, -24
 449              		.cfi_offset 5, -20
 450              		.cfi_offset 6, -16
 451              		.cfi_offset 7, -12
 452              		.cfi_offset 8, -8
 453              		.cfi_offset 14, -4
 454 0008 4FF00008 		mov	r8, #0
 455 000c 82B0     		sub	sp, sp, #8
 456              		.cfi_def_cfa_offset 32
 457 000e 4746     		mov	r7, r8
 458 0010 0646     		mov	r6, r0
 459 0012 A1F13004 		sub	r4, r1, #48
 460 0016 00F16005 		add	r5, r0, #96
 461              	.LVL1:
 462              	.L3:
 463              	.LBB3:
  34:pitch_shift.c **** 		sum_very_old = sum_old;
  35:pitch_shift.c **** 		sum_old = sum;
  36:pitch_shift.c **** 		sum = 0;
  37:pitch_shift.c **** 		
  38:pitch_shift.c **** 		// inefficient method
  39:pitch_shift.c **** //		for (int k=0; k < length-i; k++) {
  40:pitch_shift.c **** //			sum += (data[k])*(data[(k+i)]);
  41:pitch_shift.c **** //		}
  42:pitch_shift.c **** 		
  43:pitch_shift.c **** 		// a lot faster
  44:pitch_shift.c **** 		// q15_t is just int16_t in disguise
  45:pitch_shift.c **** 		arm_dot_prod_q15(&data[0], &data[i], length-i, &sum);
 464              		.loc 1 45 0
 465 001a 2246     		mov	r2, r4
 466 001c 2946     		mov	r1, r5
 467 001e 6B46     		mov	r3, sp
 468 0020 3046     		mov	r0, r6
  36:pitch_shift.c **** 		
 469              		.loc 1 36 0
 470 0022 CDF80080 		str	r8, [sp]
 471              	.LVL2:
 472 0026 0197     		str	r7, [sp, #4]
 473              		.loc 1 45 0
 474 0028 FFF7FEFF 		bl	arm_dot_prod_q15
 475              	.LVL3:
  33:pitch_shift.c **** 		sum_very_old = sum_old;
 476              		.loc 1 33 0
 477 002c 013C     		subs	r4, r4, #1
 478 002e 05F10205 		add	r5, r5, #2
 479 0032 F2D1     		bne	.L3
 480              	.LBE3:
  46:pitch_shift.c **** 		
ARM GAS  C:\Users\rdn\AppData\Local\Temp\ccl2ZEAm.s 			page 33


  47:pitch_shift.c **** 		
  48:pitch_shift.c **** 		// Peak Detect State Machine
  49:pitch_shift.c **** 		if (pd_state == 2 && (sum-sum_old) <=0) {
  50:pitch_shift.c **** 			pd_state = 3;
  51:pitch_shift.c **** 			
  52:pitch_shift.c **** 			// quadratic interpolation
  53:pitch_shift.c **** 			// https://ccrma.stanford.edu/~jos/sasp/Quadratic_Interpolation_Spectral_Peaks.html
  54:pitch_shift.c **** 			float num = (float) (sum_very_old - sum);
  55:pitch_shift.c **** 			float den = (float) ((sum_very_old - (sum_old >> 1) + sum) >> 1);
  56:pitch_shift.c **** 			float period_shift = num/den;
  57:pitch_shift.c **** 			return (float) (i-1) + period_shift;
  58:pitch_shift.c **** 			break;
  59:pitch_shift.c **** 		}
  60:pitch_shift.c **** 		if (pd_state == 1 && (sum > thresh) && (sum-sum_old) > 0) {
  61:pitch_shift.c **** 			pd_state = 2;
  62:pitch_shift.c **** 		}
  63:pitch_shift.c **** 		if (!i) {
  64:pitch_shift.c **** 			thresh = sum >> 1;
  65:pitch_shift.c **** 			pd_state = 1;
  66:pitch_shift.c **** 		}
  67:pitch_shift.c **** 	}
  68:pitch_shift.c **** 	
  69:pitch_shift.c **** 	//no period found
  70:pitch_shift.c **** 	return NAN;
  71:pitch_shift.c **** }
 481              		.loc 1 71 0
 482 0034 0248     		ldr	r0, .L9
 483 0036 02B0     		add	sp, sp, #8
 484              		.cfi_def_cfa_offset 24
 485              		@ sp needed
 486 0038 BDE8F081 		pop	{r4, r5, r6, r7, r8, pc}
 487              	.LVL4:
 488              	.L7:
 489              		.cfi_def_cfa_offset 0
 490              		.cfi_restore 4
 491              		.cfi_restore 5
 492              		.cfi_restore 6
 493              		.cfi_restore 7
 494              		.cfi_restore 8
 495              		.cfi_restore 14
 496 003c 0048     		ldr	r0, .L9
 497              	.LVL5:
 498 003e 7047     		bx	lr
 499              	.L10:
 500              		.align	2
 501              	.L9:
 502 0040 0000C07F 		.word	2143289344
 503              		.cfi_endproc
 504              	.LFE653:
 505              		.size	detect_period, .-detect_period
 506              		.global	__aeabi_f2d
 507              		.global	__aeabi_ddiv
 508              		.global	__aeabi_dmul
 509              		.global	__aeabi_d2f
 510              		.global	__aeabi_d2iz
 511              		.section	.text.approx_semitones_f,"ax",%progbits
 512              		.align	2
ARM GAS  C:\Users\rdn\AppData\Local\Temp\ccl2ZEAm.s 			page 34


 513              		.global	approx_semitones_f
 514              		.thumb
 515              		.thumb_func
 516              		.type	approx_semitones_f, %function
 517              	approx_semitones_f:
 518              	.LFB654:
  72:pitch_shift.c **** 
  73:pitch_shift.c **** int approx_semitones_f(float freq_hz) {
 519              		.loc 1 73 0
 520              		.cfi_startproc
 521              		@ args = 0, pretend = 0, frame = 0
 522              		@ frame_needed = 0, uses_anonymous_args = 0
 523              	.LVL6:
  74:pitch_shift.c **** 	// a pitch s semitones away from a4 has frequency 440*2^(s/12) Hz
  75:pitch_shift.c **** 	float r_in = freq_hz/440;
  76:pitch_shift.c **** 	float s_in = 12*log2(r_in);
 524              		.loc 1 76 0
 525 0000 06EE900A 		vmov	s13, r0
 526 0004 DFED107A 		vldr.32	s15, .L13+8
 527 0008 86EEA77A 		vdiv.f32	s14, s13, s15
 528              	.LVL7:
  73:pitch_shift.c **** 	// a pitch s semitones away from a4 has frequency 440*2^(s/12) Hz
 529              		.loc 1 73 0
 530 000c 08B5     		push	{r3, lr}
 531              		.cfi_def_cfa_offset 8
 532              		.cfi_offset 3, -8
 533              		.cfi_offset 14, -4
 534              		.loc 1 76 0
 535 000e 17EE100A 		vmov	r0, s14
 536              	.LVL8:
 537 0012 FFF7FEFF 		bl	__aeabi_f2d
 538              	.LVL9:
 539 0016 FFF7FEFF 		bl	log
 540              	.LVL10:
  77:pitch_shift.c **** 	
  78:pitch_shift.c **** 	return round(s_in);
 541              		.loc 1 78 0
 542 001a 09A3     		adr	r3, .L13
 543 001c D3E90023 		ldrd	r2, [r3]
 544 0020 FFF7FEFF 		bl	__aeabi_ddiv
 545              	.LVL11:
 546 0024 0022     		movs	r2, #0
 547 0026 094B     		ldr	r3, .L13+12
 548 0028 FFF7FEFF 		bl	__aeabi_dmul
 549              	.LVL12:
 550 002c FFF7FEFF 		bl	__aeabi_d2f
 551              	.LVL13:
 552 0030 FFF7FEFF 		bl	__aeabi_f2d
 553              	.LVL14:
 554 0034 FFF7FEFF 		bl	round
 555              	.LVL15:
 556 0038 FFF7FEFF 		bl	__aeabi_d2iz
 557              	.LVL16:
  79:pitch_shift.c **** }
 558              		.loc 1 79 0
 559 003c 08BD     		pop	{r3, pc}
 560              	.L14:
ARM GAS  C:\Users\rdn\AppData\Local\Temp\ccl2ZEAm.s 			page 35


 561 003e 00BF     		.align	3
 562              	.L13:
 563 0040 EF39FAFE 		.word	-17155601
 564 0044 422EE63F 		.word	1072049730
 565 0048 0000DC43 		.word	1138491392
 566 004c 00002840 		.word	1076363264
 567              		.cfi_endproc
 568              	.LFE654:
 569              		.size	approx_semitones_f, .-approx_semitones_f
 570              		.section	.text.approx_semitones_p,"ax",%progbits
 571              		.align	2
 572              		.global	approx_semitones_p
 573              		.thumb
 574              		.thumb_func
 575              		.type	approx_semitones_p, %function
 576              	approx_semitones_p:
 577              	.LFB655:
  80:pitch_shift.c **** 
  81:pitch_shift.c **** int approx_semitones_p(float period) {
 578              		.loc 1 81 0
 579              		.cfi_startproc
 580              		@ args = 0, pretend = 0, frame = 0
 581              		@ frame_needed = 0, uses_anonymous_args = 0
 582              	.LVL17:
 583 0000 08B5     		push	{r3, lr}
 584              		.cfi_def_cfa_offset 8
 585              		.cfi_offset 3, -8
 586              		.cfi_offset 14, -4
  82:pitch_shift.c **** 	// a pitch s semitones away from a4 has frequency 440*2^(s/12) Hz
  83:pitch_shift.c **** 	float r_in = PERIOD_A4/period;
  84:pitch_shift.c **** 	float s_in = 12*log2(r_in);
 587              		.loc 1 84 0
 588 0002 FFF7FEFF 		bl	__aeabi_f2d
 589              	.LVL18:
 590 0006 0246     		mov	r2, r0
 591 0008 0B46     		mov	r3, r1
 592 000a 10A1     		adr	r1, .L17+4
 593 000c D1E90001 		ldrd	r0, [r1]
 594 0010 FFF7FEFF 		bl	__aeabi_ddiv
 595              	.LVL19:
 596 0014 FFF7FEFF 		bl	__aeabi_d2f
 597              	.LVL20:
 598 0018 FFF7FEFF 		bl	__aeabi_f2d
 599              	.LVL21:
 600 001c FFF7FEFF 		bl	log
 601              	.LVL22:
  85:pitch_shift.c **** 	
  86:pitch_shift.c **** 	return round(s_in);
 602              		.loc 1 86 0
 603 0020 0CA3     		adr	r3, .L17+12
 604 0022 D3E90023 		ldrd	r2, [r3]
 605 0026 FFF7FEFF 		bl	__aeabi_ddiv
 606              	.LVL23:
 607 002a 0022     		movs	r2, #0
 608 002c 064B     		ldr	r3, .L17
 609 002e FFF7FEFF 		bl	__aeabi_dmul
 610              	.LVL24:
ARM GAS  C:\Users\rdn\AppData\Local\Temp\ccl2ZEAm.s 			page 36


 611 0032 FFF7FEFF 		bl	__aeabi_d2f
 612              	.LVL25:
 613 0036 FFF7FEFF 		bl	__aeabi_f2d
 614              	.LVL26:
 615 003a FFF7FEFF 		bl	round
 616              	.LVL27:
 617 003e FFF7FEFF 		bl	__aeabi_d2iz
 618              	.LVL28:
  87:pitch_shift.c **** }
 619              		.loc 1 87 0
 620 0042 08BD     		pop	{r3, pc}
 621              	.L18:
 622 0044 AFF30080 		.align	3
 623              	.L17:
 624 0048 00002840 		.word	1076363264
 625 004c 46175D74 		.word	1952257862
 626 0050 D1455B40 		.word	1079723473
 627 0054 EF39FAFE 		.word	-17155601
 628 0058 422EE63F 		.word	1072049730
 629              		.cfi_endproc
 630              	.LFE655:
 631              		.size	approx_semitones_p, .-approx_semitones_p
 632              		.section	.text.freq_hz,"ax",%progbits
 633              		.align	2
 634              		.global	freq_hz
 635              		.thumb
 636              		.thumb_func
 637              		.type	freq_hz, %function
 638              	freq_hz:
 639              	.LFB656:
  88:pitch_shift.c **** 
  89:pitch_shift.c **** float freq_hz(int semitones) {
 640              		.loc 1 89 0
 641              		.cfi_startproc
 642              		@ args = 0, pretend = 0, frame = 0
 643              		@ frame_needed = 0, uses_anonymous_args = 0
 644              	.LVL29:
  90:pitch_shift.c **** 	float r_rounded = exp2((float) semitones/12);
 645              		.loc 1 90 0
 646 0000 07EE900A 		vmov	s15, r0	@ int
 647 0004 B8EEE77A 		vcvt.f32.s32	s14, s15
 648 0008 F2EE087A 		vmov.f32	s15, #1.2e+1
 649 000c C7EE276A 		vdiv.f32	s13, s14, s15
  89:pitch_shift.c **** 	float r_rounded = exp2((float) semitones/12);
 650              		.loc 1 89 0
 651 0010 08B5     		push	{r3, lr}
 652              		.cfi_def_cfa_offset 8
 653              		.cfi_offset 3, -8
 654              		.cfi_offset 14, -4
 655              		.loc 1 90 0
 656 0012 16EE900A 		vmov	r0, s13
 657              	.LVL30:
 658 0016 FFF7FEFF 		bl	__aeabi_f2d
 659              	.LVL31:
 660 001a FFF7FEFF 		bl	exp2
 661              	.LVL32:
  91:pitch_shift.c **** 	return 440*r_rounded;
ARM GAS  C:\Users\rdn\AppData\Local\Temp\ccl2ZEAm.s 			page 37


 662              		.loc 1 91 0
 663 001e FFF7FEFF 		bl	__aeabi_d2f
 664              	.LVL33:
 665 0022 DFED047A 		vldr.32	s15, .L21
  92:pitch_shift.c **** }
 666              		.loc 1 92 0
 667 0026 07EE100A 		vmov	s14, r0
 668 002a 67EE277A 		vmul.f32	s15, s14, s15
 669 002e 17EE900A 		vmov	r0, s15
 670 0032 08BD     		pop	{r3, pc}
 671              	.L22:
 672              		.align	2
 673              	.L21:
 674 0034 0000DC43 		.word	1138491392
 675              		.cfi_endproc
 676              	.LFE656:
 677              		.size	freq_hz, .-freq_hz
 678              		.section	.text.period,"ax",%progbits
 679              		.align	2
 680              		.global	period
 681              		.thumb
 682              		.thumb_func
 683              		.type	period, %function
 684              	period:
 685              	.LFB657:
  93:pitch_shift.c **** 
  94:pitch_shift.c **** float period(int semitones) {
 686              		.loc 1 94 0
 687              		.cfi_startproc
 688              		@ args = 0, pretend = 0, frame = 0
 689              		@ frame_needed = 0, uses_anonymous_args = 0
 690              	.LVL34:
  95:pitch_shift.c **** 	float r_rounded = exp2((float) semitones/12);
 691              		.loc 1 95 0
 692 0000 07EE900A 		vmov	s15, r0	@ int
 693 0004 B8EEE77A 		vcvt.f32.s32	s14, s15
 694 0008 F2EE087A 		vmov.f32	s15, #1.2e+1
 695 000c C7EE276A 		vdiv.f32	s13, s14, s15
  94:pitch_shift.c **** 	float r_rounded = exp2((float) semitones/12);
 696              		.loc 1 94 0
 697 0010 08B5     		push	{r3, lr}
 698              		.cfi_def_cfa_offset 8
 699              		.cfi_offset 3, -8
 700              		.cfi_offset 14, -4
 701              		.loc 1 95 0
 702 0012 16EE900A 		vmov	r0, s13
 703              	.LVL35:
 704 0016 FFF7FEFF 		bl	__aeabi_f2d
 705              	.LVL36:
 706 001a FFF7FEFF 		bl	exp2
 707              	.LVL37:
  96:pitch_shift.c **** 	return PERIOD_A4/r_rounded;
 708              		.loc 1 96 0
 709 001e FFF7FEFF 		bl	__aeabi_d2f
 710              	.LVL38:
 711 0022 FFF7FEFF 		bl	__aeabi_f2d
 712              	.LVL39:
ARM GAS  C:\Users\rdn\AppData\Local\Temp\ccl2ZEAm.s 			page 38


 713 0026 0246     		mov	r2, r0
 714 0028 0B46     		mov	r3, r1
 715 002a 05A1     		adr	r1, .L25
 716 002c D1E90001 		ldrd	r0, [r1]
 717 0030 FFF7FEFF 		bl	__aeabi_ddiv
 718              	.LVL40:
 719 0034 FFF7FEFF 		bl	__aeabi_d2f
 720              	.LVL41:
  97:pitch_shift.c **** }
 721              		.loc 1 97 0
 722 0038 08BD     		pop	{r3, pc}
 723              	.L26:
 724 003a 00BFAFF3 		.align	3
 724      0080
 725              	.L25:
 726 0040 46175D74 		.word	1952257862
 727 0044 D1455B40 		.word	1079723473
 728              		.cfi_endproc
 729              	.LFE657:
 730              		.size	period, .-period
 731              		.text
 732              	.Letext0:
 733              		.file 2 "c:\\program files (x86)\\cypress\\psoc creator\\4.4\\psoc creator\\import\\gnu\\arm\\5.4.
 734              		.file 3 "c:\\program files (x86)\\cypress\\psoc creator\\4.4\\psoc creator\\import\\gnu\\arm\\5.4.
 735              		.file 4 "Generated_Source\\PSoC6\\pdl\\drivers/peripheral/device/cy_device.h"
 736              		.file 5 "Generated_Source\\PSoC6\\pdl\\drivers/peripheral/syslib/cy_syslib.h"
 737              		.file 6 "Generated_Source\\PSoC6\\pdl\\drivers/peripheral/pdm_pcm/cy_pdm_pcm.h"
 738              		.file 7 "Generated_Source\\PSoC6\\pdl\\drivers/peripheral/scb/cy_scb_uart.h"
 739              		.file 8 "Generated_Source\\PSoC6\\pdl\\cmsis/include/core_cm4.h"
 740              		.file 9 "Generated_Source\\PSoC6/UART_DEBUG.h"
 741              		.file 10 "Generated_Source\\PSoC6/PDM_PCM.h"
 742              		.file 11 ".\\CMSIS-DSP-main\\Include/dsp/basic_math_functions.h"
 743              		.file 12 "c:\\program files (x86)\\cypress\\psoc creator\\4.4\\psoc creator\\import\\gnu\\arm\\5.4