ARM GAS  C:\Users\rdn\AppData\Local\Temp\cc5ypsbL.s 			page 1


   1              		.syntax unified
   2              		.cpu cortex-m4
   3              		.eabi_attribute 27, 1
   4              		.fpu fpv4-sp-d16
   5              		.eabi_attribute 20, 1
   6              		.eabi_attribute 21, 1
   7              		.eabi_attribute 23, 3
   8              		.eabi_attribute 24, 1
   9              		.eabi_attribute 25, 1
  10              		.eabi_attribute 26, 1
  11              		.eabi_attribute 30, 2
  12              		.eabi_attribute 34, 1
  13              		.eabi_attribute 18, 4
  14              		.thumb
  15              		.syntax unified
  16              		.file	"plc.c"
  17              		.text
  18              	.Ltext0:
  19              		.section	.gnu.lto_.profile.d618cdd6,"",%progbits
  20 0000 789C6361 		.ascii	"x\234ca`d`a`\000\222Z\352\000\000\345\000\\"
  20      60646061 
  20      6000925A 
  20      EA0000E5 
  20      005C
  21              		.text
  22              		.section	.gnu.lto_.icf.d618cdd6,"",%progbits
  23 0000 789C6361 		.ascii	"x\234ca`d\000\001\021\006\004`f\2307k\361\026\026\306"
  23      60640001 
  23      11060460 
  23      6698376B 
  23      F11616C6 
  24 0014 55AB37BE 		.ascii	"U\2537\276eaz\364\346\376\035n\006\000\\\315\011>"
  24      65617AF4 
  24      E6FE1D6E 
  24      06005CCD 
  24      093E
  25              		.text
  26              		.section	.gnu.lto_.jmpfuncs.d618cdd6,"",%progbits
  27 0000 789C6361 		.ascii	"x\234ca`d\000\001I\006\004`f`dd\254g\004\021L\254 \212"
  27      60640001 
  27      49060460 
  27      66606464 
  27      AC670411 
  28 0018 51BE1E04 		.ascii	"Q\276\036\004\030\000\"-\003\315"
  28      1800222D 
  28      03CD
  29              		.text
  30              		.section	.gnu.lto_.inline.d618cdd6,"",%progbits
  31 0000 789C6361 		.ascii	"x\234ca`d\000\201}\014\010\300\314\300\300\306\312\310"
  31      60640081 
  31      7D0C08C0 
  31      CCC0C0C6 
  31      CAC8
  32 0012 C0C4BC43 		.ascii	"\300\304\274C\234\201\363\206\031\023H\214\221\201\225"
  32      9C81F386 
  32      1913488C 
  32      918195
ARM GAS  C:\Users\rdn\AppData\Local\Temp\cc5ypsbL.s 			page 2


  33 0021 0528C474 		.ascii	"\005(\304t\201\237\201\343\203\036X\210\211Ai\006##"
  33      819F81E3 
  33      831E5888 
  33      89416906 
  33      2323
  34 0033 27934206 		.ascii	"'\223B\006\243\216\014\263\002\223B:\214\376\313\304"
  34      A38E0CB3 
  34      0293423A 
  34      8CFECBC4 
  35 0043 F8A5ABF5 		.ascii	"\370\245\253\365;\363\027\246Vf\006Fv\306\345\214`\361"
  35      3BF317A6 
  35      56660646 
  35      76C6E58C 
  35      60F1
  36 0055 0C284380 		.ascii	"\014(C\200\021h\005\223\002\220t`\344\000Y\017\"\300"
  36      11680593 
  36      02907460 
  36      E400590F 
  36      22C0
  37 0067 7C052ECD 		.ascii	"|\005.\315\246i\202\020K\031_\260;@H\020\321\300\310"
  37      A6698210 
  37      4B195FB0 
  37      3B404810 
  37      D1C0C8
  38 007a 04A11880 		.ascii	"\004\241\030\200Nh`\001\2639\230\030\330o\2305p0\260"
  38      4E686001 
  38      B3399818 
  38      D86F9835 
  38      7030B0
  39 008d 00853858 		.ascii	"\000\2058X\200\0065\000\035\006\000\327\332\036\353"
  39      80063500 
  39      1D0600D7 
  39      DA1EEB
  40              		.text
  41              		.section	.gnu.lto_.pureconst.d618cdd6,"",%progbits
  42 0000 789C6361 		.ascii	"x\234ca`d`g```f\220b\224b\222\002\000\001\254\000a"
  42      60646067 
  42      60606066 
  42      90629462 
  42      92020001 
  43              		.text
  44              		.section	.gnu.lto_lc3_plc_reset.d618cdd6,"",%progbits
  45 0000 789C9552 		.ascii	"x\234\225RMOSQ\020\235s\357\343\2756\001u\301J\333\320"
  45      4D4F5351 
  45      109D73EF 
  45      E3BD3601 
  45      75C14ADB 
  46 0015 0D81C6D8 		.ascii	"\015\201\306\330\206\370\003\374\017\256\273\321\306"
  46      86F803FC 
  46      0FAEBBD1 
  46      C6
  47 0022 85491706 		.ascii	"\205I\027\006~\000\267\205\027qC\330h\"\2505\021,*\037"
  47      7E00B785 
  47      177143D8 
  47      6822A835 
  47      112C2A1F 
  48 0036 453E8445 		.ascii	"E>\204E\223\027\210\232\230(a\007\013\320\024\302B7"
ARM GAS  C:\Users\rdn\AppData\Local\Temp\cc5ypsbL.s 			page 3


  48      9317889A 
  48      98286107 
  48      0BD014C2 
  48      4237
  49 0048 6D0234C6 		.ascii	"m\0024\306\264u\346\026\023Q7N\336\313\334y3s\346\234"
  49      B475E616 
  49      1351374E 
  49      DECBDC79 
  49      3373E69C 
  50 005c B9CF2190 		.ascii	"\271\317!\220\330=E\024c\177\211_h\202\032\373D\224"
  50      D83D4514 
  50      637F895F 
  50      68821AFB 
  50      4494
  51 006e 0D29400E 		.ascii	"\015)@\016&\004\032T\030\304\261\252+\254\337=\\S\361"
  51      26041A54 
  51      18C4B1AA 
  51      2BACDF3D 
  51      5C53F1
  52 0081 8261FBF2 		.ascii	"\202a\373\362vT\233\351\000\276&j*\213D( \316U[\303"
  52      76549BE9 
  52      00BE266A 
  52      2A8B4428 
  52      20CE555B 
  53 0096 C547FA48 		.ascii	"\305G\372H\371\032p8\254~\034\337?'\241B\214\303o\017"
  53      F91A7038 
  53      AC7E1CDF 
  53      3F27A142 
  53      8CC36F0F 
  54 00aa 4FEA9E8E 		.ascii	"O\352\236\216\202\370\2749\263\363\024=S\306\344\214"
  54      82F8BC39 
  54      B3F3143D 
  54      53C6E48C 
  55 00ba 59BE65C2 		.ascii	"Y\276e\302\276\326x\011\315xx\201\010\246\021!\376D"
  55      BED67809 
  55      CD787881 
  55      08A61121 
  55      FE44
  56 00cc 78851E29 		.ascii	"x\205\036)//4\356w\270\3032>\326\032\212\031\270\"c"
  56      2F2F34EE 
  56      77B8C332 
  56      3ED61A8A 
  56      19B82263 
  57 00e0 FE7A609A 		.ascii	"\376z`\232\315!\023\324\234\357p\231\273tP\205KDDU)"
  57      CD2113D4 
  57      9CEF7099 
  57      BB745085 
  57      4B444455 
  58 00f5 F1FA10B9 		.ascii	"\361\372\020\271\243\342\223.ib\264\007\376\372\246"
  58      A3E2932E 
  58      6962B407 
  58      FEFAA6
  59 0104 27BCB4E5 		.ascii	"'\274\264\345R{\377a\244=\217\307Y\201\357\343\271\316"
  59      527BFF61 
  59      A43D8FC7 
  59      5981EFE3 
  59      B9CE
ARM GAS  C:\Users\rdn\AppData\Local\Temp\cc5ypsbL.s 			page 4


  60 0116 10339E65 		.ascii	"\0203\236e\012\222\235:\310\315y\311+\276n\303\034\362"
  60      0A929D3A 
  60      C8CD79C9 
  60      2BBE6EC3 
  60      1CF2
  61 0128 6858C598 		.ascii	"hX\305\230G\222s{\345\215\317a\001jC>\000\212\334RF"
  61      4792737B 
  61      E58DCF61 
  61      016A433E 
  61      008ADC52 
  62 013d CE5C3B9D 		.ascii	"\316\\;\235\263;\331x\027\356~&\"\203\343\355v3\226"
  62      B33BD978 
  62      17EE7E26 
  62      2283E3ED 
  62      763396
  63 0150 0DFD43A7 		.ascii	"\015\375C\247\305[@7\017%\341Yy\336{V\261\251\305%o"
  63      C55B4037 
  63      0F25E159 
  63      79DE7B56 
  63      B1A9C525 
  64 0165 253715FE 		.ascii	"%7\025\376\332\007^\303e\210E;\363w1\027\376\220\262"
  64      DA075EC3 
  64      6588453B 
  64      F3773117 
  64      FE90B2
  65 0178 5BDA5FD1 		.ascii	"[\332_\321\311Y\351\012&n\370\332\305\222U\204\026\004"
  65      C959E90A 
  65      266EF8DA 
  65      C5925584 
  65      1604
  66 018a 9691C4E5 		.ascii	"\226\221\304\345\210\2208)\026z\377\017\320\364\371"
  66      88903829 
  66      167AFF0F 
  66      D0F4F9
  67 0199 DAC38AC5 		.ascii	"\332\303\212\305S\247xo\354\222\252\245\322\366\371"
  67      53A7786F 
  67      EC92AAA5 
  67      D2F6F9
  68 01a8 E88419E1 		.ascii	"\350\204\031\341~\220\371e\374\377x\204UDee\301\217"
  68      7E90F965 
  68      FCFF7884 
  68      55446565 
  68      C18F
  69 01ba 4E7BA122 		.ascii	"N{\241\"\223\276r\\w$\266\273\2510?\276C\336\373\305"
  69      93BE725C 
  69      7724B6BB 
  69      A9303FBE 
  69      43DEFBC5 
  70 01ce 4422D57A 		.ascii	"D\"\325z2\267of\322WS\003\375\351\324\235L:\221&\315"
  70      32B76F66 
  70      D2575303 
  70      FDE9D49D 
  70      4C3A9126 
  71 01e3 EE27CDB0 		.ascii	"\356'\315\260\350r"
  71      E872
  72              		.text
  73              		.section	.gnu.lto_lc3_plc_suspend.d618cdd6,"",%progbits
ARM GAS  C:\Users\rdn\AppData\Local\Temp\cc5ypsbL.s 			page 5


  74 0000 789C8D50 		.ascii	"x\234\215PKKBQ\020\236\357\034_A\257u)\2703\211\224"
  74      4B4B4251 
  74      109EEF1C 
  74      5F41AF75 
  74      29B83389 
  75 0015 E89FB476 		.ascii	"\350\237\264v\325\245E\340\"\352\007x|\\r\031A\201\225"
  75      D5A545E0 
  75      22EA0778 
  75      7C5C7219 
  75      418195
  76 0028 D8A6EC61 		.ascii	"\330\246\354a\251-\002\027\027.n\202\240\244]-\202H"
  76      A92D0217 
  76      172E6E82 
  76      A0A45D2D 
  76      8248
  77 003a 72511B05 		.ascii	"rQ\033\005\263\225\332\234+\356\033\316\341\2339g\346"
  77      B395DA9C 
  77      2BEE1BCE 
  77      E19B3967 
  77      E6
  78 004b 9B6FC645 		.ascii	"\233o\306E my\206 \343<_H\202\330}\"J\372\004\240\035"
  78      206D7986 
  78      20E33C5F 
  78      4882D87D 
  78      224AFA04 
  79 0061 E5032504 		.ascii	"\345\003%\004\022\370\021}\201\372N\253&\302E\305\366"
  79      12F8117D 
  79      81FA4EAB 
  79      26C245C5 
  79      F6
  80 0072 FEB927D5 		.ascii	"\376\271'\325\271\015S\022\015\205\303D(\"\314Y\317"
  80      B90D5312 
  80      0D85C344 
  80      2822CC59 
  80      CF
  81 0083 99CAB1EC 		.ascii	"\231\312\261\354\012S\002.\016;\217\207\315i\035\012"
  81      0A53022E 
  81      0E3B8F87 
  81      CD691D0A 
  82 0093 0439FCCE 		.ascii	"\0049\374\316\365\372^\031\000\261\337(\275\236 t\252"
  82      F5FA5E19 
  82      00B1DF28 
  82      BD9E2074 
  82      AA
  83 00a4 544AA9DA 		.ascii	"TJ\251\332\272\2320\245\304%$\363\341\002~\234\303O"
  83      BA9A30A5 
  83      C42524F3 
  83      E1027E9C 
  83      C34F
  84 00b6 FC44B842 		.ascii	"\374D\270BH\247\177T\007\373S\236\214n\037\0345E\011"
  84      48A77F54 
  84      07FB539E 
  84      8C6E1F1C 
  84      354509
  85 00c9 1E3D4679 		.ascii	"\036=Fy\325V\303aZ\3319\267%\334\254]WP\233S\364\020"
  85      D556C361 
  85      5AD939B7 
ARM GAS  C:\Users\rdn\AppData\Local\Temp\cc5ypsbL.s 			page 6


  85      25DCAC5D 
  85      57509B53 
  86 00df 1D2134CA 		.ascii	"\035!4\312\026R\335\366\331\202.b\266\003\263\336\360"
  86      1652DDF6 
  86      D9822E62 
  86      B603B3DE 
  86      F0
  87 00f0 6A5DD2D1 		.ascii	"j]\322\321\362{\377\220\235, \237\324\364\313\334\327"
  87      F27BFF90 
  87      9D2C209F 
  87      D4F4CBDC 
  87      D7
  88 0101 9566C5D7 		.ascii	"\225f\305\327,A\377\276Y\315;\031]2\245\0337(`\340L"
  88      2C41FFBE 
  88      59CD3B19 
  88      5D32A51B 
  88      372860E0 
  89 0116 8C32A258 		.ascii	"\2142\242X\364\023\363\366*\3051\357?\211<\2508DZ>\252"
  89      F413F3F6 
  89      2AC531EF 
  89      3F893CA8 
  89      38445A3E 
  90 012b 88EA4D59 		.ascii	"\210\352MY\326\313L\340He\225\232\005\251\261\361\216"
  90      D6CB4CE0 
  90      4865959A 
  90      05A9B1F1 
  90      8E
  91 013c 3D845B04 		.ascii	"=\204[\004\350\013)\273\340\326}\234}\267\271\230\347"
  91      E80B29BB 
  91      E0D67D9C 
  91      7DB7B998 
  91      E7
  92 014d 622D7391 		.ascii	"b-s\221Hlt\342\033kqc%\266\275e\3046\343F\304 \311\360"
  92      486C74E2 
  92      1B6B7163 
  92      25B6BD65 
  92      C436E346 
  93 0165 0738A296 		.ascii	"\0078\242\226\375"
  93      FD
  94              		.text
  95              		.section	.gnu.lto_lc3_plc_synthesize.d618cdd6,"",%progbits
  96 0000 789C9556 		.ascii	"x\234\225V\353OTG\024\237s\347\356\336{\367\005\212"
  96      EB4F5447 
  96      149F73E7 
  96      EEDE7BF7 
  96      058A
  97 0012 2F9E6214 		.ascii	"/\236b\024\251\332b\215m\032?4\351\337\320O\375\200"
  97      A9DA628D 
  97      6D1A3F34 
  97      E9DFD04F 
  97      FD80
  98 0024 1F144934 		.ascii	"\037\024I4\245\215\025?\324O\\\270,\250\261\211I#\012"
  98      A58D153F 
  98      D44F5CB8 
  98      2CA8B189 
  98      49230A
  99 0037 62AC2504 		.ascii	"b\254%\004Z\037HA\020\221e\301W\025\204\342\023\024"
ARM GAS  C:\Users\rdn\AppData\Local\Temp\cc5ypsbL.s 			page 7


  99      5A1F4841 
  99      109165C1 
  99      571584E2 
  99      1314
 100 0049 7CE2C668 		.ascii	"|\342\306hmY\244\022\015\217\2363s7,\253m\332\033v\356"
 100      6D59A412 
 100      0D8F9E33 
 100      73372CAB 
 100      6DDA1B76 
 101 005e 9D99F3FB 		.ascii	"\235\231\363\373\235\231\363;s\006\225\001\243\247\305"
 101      9D99F33B 
 101      73069501 
 101      A3A7C5
 102 006d C5D817F8 		.ascii	"\305\330\027\370\256\300\037x\030({{\030+\324\025\205"
 102      AEC01F78 
 102      18287B7B 
 102      182BD415 
 102      85
 103 007e EFCC64A6 		.ascii	"\357\314d\246\313A\255\207+\342\355REO\005\2074r\200"
 103      CB41AD87 
 103      2BE2ED52 
 103      454F0587 
 103      347280
 104 0091 4B7E3815 		.ascii	"K~8\025m\317|\234\327\213\327\341\274\006\206\034\326"
 104      6DCF7C9C 
 104      D78BD7E1 
 104      BC06861C 
 104      D6
 105 00a2 231F8634 		.ascii	"#\037\2064\354\320]\212s\317%\206\226\356b\015-\335"
 105      ECD05D8A 
 105      73CF2586 
 105      96EE620D 
 105      2DDD
 106 00b4 00346EEA 		.ascii	"\0004n\352\300\012\024\256:\234\232n\270\334P\240\270"
 106      C00A14AE 
 106      3A9C9A6E 
 106      B8DC50A0 
 106      B8
 107 00c5 18045598 		.ascii	"\030\004U\230\306\207\213U\376\245L*\320Y\032jQV\324"
 107      C6878B55 
 107      FEA54C2A 
 107      D0591A6A 
 107      5156D4
 108 00d8 98F83CF0 		.ascii	"\230\370<\360\357\347fm\020\3748=\255\010\023\0065\260"
 108      EFE7666D 
 108      10FC383D 
 108      AD081306 
 108      35B0
 109 00ea 02AD0A4B 		.ascii	"\002\255\012K\246J\201\247\002\303\357\206]\345U\216"
 109      A64A81A7 
 109      02C3EF86 
 109      5DE5558E 
 110 00fa CC6AD32C 		.ascii	"\314j\323,2\315\203\353M\356\347\000\265\300\021\001"
 110      32CD83EB 
 110      4DEEE700 
 110      B5C01101 
 111 010a 6B53E0C3 		.ascii	"kS\340\303\024\206\003\014~\202L\264=m\006\037\251<"
ARM GAS  C:\Users\rdn\AppData\Local\Temp\cc5ypsbL.s 			page 8


 111      1486030C 
 111      7E824CB4 
 111      3D6D061F 
 111      A93C
 112 011c 5DE00283 		.ascii	"]\340\002\203\376[n\033\027\0268\005~\236\215\303\317"
 112      FE5B6E1B 
 112      17163805 
 112      7E9E8DC3 
 112      CF
 113 012d A302D757 		.ascii	"\243\002\327W|\262\222\217)~\316A\305n\370j\305c\037"
 113      7CB2928F 
 113      297ECE41 
 113      C56EF86A 
 113      C5631F
 114 0140 755548C7 		.ascii	"uUH\307\356\363\362W\223\032_*X{\217\015\374\000\222"
 114      EEF3F257 
 114      931A5F2A 
 114      587B8F0D 
 114      FC0092
 115 0153 35D8FA02 		.ascii	"5\330\372\002\312\315\240\352\347\0168!\211\217C\012"
 115      CACDA0EA 
 115      E70E3821 
 115      898F430A 
 116 0163 1C03A276 		.ascii	"\034\003\242v0\250\023\324\025gJ\213\\<S\200\177\274"
 116      30A813D4 
 116      15674A8B 
 116      5C3C5380 
 116      7FBC
 117 0175 3C7DCB67 		.ascii	"<}\313g/\2515\3274\374\334\011'c\221N\006\365\002yv"
 117      2FA935D7 
 117      34FCDC09 
 117      2763914E 
 117      06F50279 
 118 018a 77D784CE 		.ascii	"w\327\204\316W\010du\273y\321c#\357\013\244\006\277"
 118      57086475 
 118      BB79D163 
 118      23EF0BA4 
 118      06BF
 119 019c C4223506 		.ascii	"\304\"5\006\015\220I\3465#\023\235\032_%\240\207\217"
 119      0D9049E6 
 119      3523139D 
 119      1A5F25A0 
 119      878F
 120 01ae 5B55DE8C 		.ascii	"[U\336\214*\212x\360z..\2708\335\317uh\234\215\246\007"
 120      2A8A78F0 
 120      7A2E2EB8 
 120      38DDCF75 
 120      689C8DA6 
 121 01c3 8D2F3CBE 		.ascii	"\215/<\276\362\034x\226\000\326<}\362\306g\003\373\276"
 121      F21C7896 
 121      00D63C7D 
 121      F2C66703 
 121      FBBE
 122 01d5 6A904003 		.ascii	"j\220@\003\232\336\015\234\036\017\306\311\010\222\314"
 122      9ADE0D9C 
 122      1E0FC6C9 
 122      0892CC
ARM GAS  C:\Users\rdn\AppData\Local\Temp\cc5ypsbL.s 			page 9


 123 01e4 D746BA0F 		.ascii	"\327F\272\017\271e\004\343\261\333q\375E\267\213\177"
 123      B96504E3 
 123      B1DB71FD 
 123      45B78B7F 
 124 01f4 24688F0C 		.ascii	"$h\217\014\355\357\322\211\026#\330\276\343\200\031"
 124      EDEFD289 
 124      1623D8BE 
 124      E38019
 125 0203 2C425A17 		.ascii	",BZ\027\234\221\264-H{z\206\366Q\375\324>\257\263\230"
 125      9C91B42D 
 125      487B7A86 
 125      F651FDD4 
 125      3EAFB398 
 126 0217 D6900EAD 		.ascii	"\326\220\016\255\220\001\315\370;\005\0312a\340,8\361"
 126      9001CDF8 
 126      3B051932 
 126      61E02C38 
 126      F1
 127 0228 04F0C80C 		.ascii	"\004\360\310\014\005\252\353\\\300\307\327\011O\317"
 127      05AAEB5C 
 127      C0C7D709 
 127      4FCF
 128 0236 7AEAEFEA 		.ascii	"z\352\357\352\366\006\006s\315]\237\321\276\333\336"
 128      F6060673 
 128      CD5D9FD1 
 128      BEDBDE
 129 0245 5E3E0420 		.ascii	"^>\004 \243\356\363\2409=m\231\3016\307kR\213(\0251"
 129      A3EEF3A0 
 129      393D6D99 
 129      C136C76B 
 129      528B2815 
 130 025a C331B286 		.ascii	"\3031\262\206\212\215[\003\322T\027s\006#\207.\240\304"
 130      8A8D5B03 
 130      D2541773 
 130      0623872E 
 130      A0C4
 131 026c C3138069 		.ascii	"\303\023\200i\344A\023\335K\215O\314\305\341\247'^\030"
 131      E44113DD 
 131      4B8D4FCC 
 131      C5E1A727 
 131      5E18
 132 027e CFC14FEF 		.ascii	"\317\301O\357\\j\022\200$\232Gb\315\307\306\267\000"
 132      5C6A1280 
 132      249A4762 
 132      CDC7C6B7 
 132      00
 133 028f 48EC8524 		.ascii	"H\354\205$\373\"\362\223H~\222\250\233L_\244\252\221"
 133      FB22F293 
 133      487E92A8 
 133      9B4C5FA4 
 133      AA91
 134 02a1 2696B184 		.ascii	"&\226\261\204\230\227R\263\214\232\014j\226S\303\330"
 134      989752B3 
 134      8C9A0C6A 
 134      9653C3D8 
 135 02b1 08C6028F 		.ascii	"\010\306\002\217bXQ\360\305CPt&\\\227F\261\261\270\216"
 135      625851F0 
ARM GAS  C:\Users\rdn\AppData\Local\Temp\cc5ypsbL.s 			page 10


 135      C5435074 
 135      265C9746 
 135      B1B1B88E 
 136 02c5 6128F377 		.ascii	"a(\363w\366j\244\205CDe\374\322\225\235\236\303p\250"
 136      F66AA485 
 136      434465FC 
 136      D2959D9E 
 136      C370A8
 137 02d8 90E2F20D 		.ascii	"\220\342\362\0152\304Y\230L\355\024\013\212\337p\321"
 137      32C45998 
 137      4CED140B 
 137      8ADF70D1 
 138 02e8 096DF507 		.ascii	"\011m\365\007\244H\020\016\303\2248\227\320\001\253"
 138      A448100E 
 138      C3943897 
 138      D001AB
 139 02f7 D9232832 		.ascii	"\331#(2?\025\021\307\035!3#G\365\215\311\322\221\021"
 139      3F1511C7 
 139      1D213323 
 139      47F58DC9 
 139      D29111
 140 030a CBBC3E96 		.ascii	"\313\274>\226y\250\355q\023'f\003:\0053\325.8g3\177"
 140      79A8ED71 
 140      13276603 
 140      3A0533D5 
 140      2E386733 
 141 031f 22989B89 		.ascii	"\"\230\233\211\331\300\001\205\272\010\252\014}\337"
 141      D9C00185 
 141      BA08AA0C 
 141      7DDF
 142 032d A8D9C9D2 		.ascii	"\250\331\311\3222\3406O\232\372[\347_\254\360<!]D\205"
 142      32E0364F 
 142      9AFA5BE7 
 142      5FACF03C 
 142      215D4485 
 143 0341 B96A839F 		.ascii	"\271j\203\237|W{\332\210\005\307\024\001\001\276@`7"
 143      7C577BDA 
 143      8805C714 
 143      0101BE40 
 143      6037
 144 0353 6D68B4F4 		.ascii	"mh\264\364~\363U\367\354\304\013v5&\222\011\371\020"
 144      7EF355F7 
 144      ECC40B76 
 144      35269209 
 144      F910
 145 0365 2937AD40 		.ascii	")7\255@ln2\270\010Nd\272D\261\360\330d\201\327m\317"
 145      6C6E32B8 
 145      084E64BA 
 145      44B1F0D8 
 145      6481D76D 
 146 037a B3E5D0D2 		.ascii	"\263\345\320\322h\035\342\005\334z\323\376\322W0i\036"
 146      681DE205 
 146      DC7AD3FE 
 146      D2573069 
 146      1E
 147 038b 30CD781C 		.ascii	"0\315x\034\333\305e\306_\2568\372%\305p\257\030\236"
 147      DBC565C6 
ARM GAS  C:\Users\rdn\AppData\Local\Temp\cc5ypsbL.s 			page 11


 147      5FAE38FA 
 147      25C570AF 
 147      189E
 148 039d 0397A100 		.ascii	"\003\227\241\000~\265C\370p\242#\240\257\251\243\211"
 148      7EB543F8 
 148      70A223A0 
 148      AFA9A389 
 149 03ad B9700583 		.ascii	"\271p\005\203\210\276\230t\015]\260Fn\340\274*].\243"
 149      88BE9874 
 149      0D5DB046 
 149      6EE0BC2A 
 149      5D2EA3
 150 03c0 7884C02A 		.ascii	"x\204\300*s\312>nq\031\254J\241\241\212\222a\220\203"
 150      73CA3E6E 
 150      7119AC4A 
 150      A1A18A92 
 150      619083
 151 03d3 CB716938 		.ascii	"\313qi8Eq{P}\307#D\240mF$\240}\317t\350\340\011\331"
 151      45717B50 
 151      7DC72344 
 151      A06D4624 
 151      A07DCF74 
 152 03eb C3A7564A 		.ascii	"\303\247VJ\331\275Q\262\303?\011\256C\267\020\\\034"
 152      D9BD51B2 
 152      C33F09AE 
 152      43B7105C 
 152      1C
 153 03fc D9AB28F8 		.ascii	"\331\253(\370C(\356\267\232\024\233\002\336\2272\204"
 153      4328EEB7 
 153      9A149B02 
 153      DE973284 
 154 040c 15CE3A39 		.ascii	"\025\316:9\307\311^\253\236\317\360\217\355\366\217"
 154      C7C95EAB 
 154      9ECFF08F 
 154      EDF68F
 155 041b 8BE2AC83 		.ascii	"\213\342\254\203\006=\366\231\035QT\244\341a\305!s\036"
 155      063DF699 
 155      1D5154A4 
 155      E161C521 
 155      731E
 156 042d F774AFC9 		.ascii	"\367t\257\311\006\371,\316\243\322Hf\225O\344\306\320"
 156      06F92CCE 
 156      A3D24866 
 156      954FE4C6 
 156      D0
 157 043e 8ED8A212 		.ascii	"\216\330\242\022\260E\305\245\365\242-va%\272\030\005"
 157      B045C5A5 
 157      F5A22D76 
 157      6125BA18 
 157      05
 158 044f 4E5BAB9B 		.ascii	"N[\253\233*\344\251\007\315\235(\006^q\"\033B\335\003"
 158      2AE4A907 
 158      CD9D2806 
 158      5E71221B 
 158      42DD03
 159 0462 B8533CFF 		.ascii	"\270S<\377\277A\252\332}<\201\356\213\266\266\3768\333"
 159      BF41AADA 
ARM GAS  C:\Users\rdn\AppData\Local\Temp\cc5ypsbL.s 			page 12


 159      7D3C81EE 
 159      8BB6B6FE 
 159      38DB
 160 0474 0CA4193D 		.ascii	"\014\244\031=\322\254\017R\225F\332G\325\321\212\333"
 160      D2AC0F52 
 160      9546DA47 
 160      D5D18ADB 
 161 0484 7A0C5979 		.ascii	"z\014YyCHZ]\203T~\336\2131p2\274\\\345\206\246B\234"
 161      43485A5D 
 161      83547EDE 
 161      8B317032 
 161      BC5CE586 
 162 049b D6645158 		.ascii	"\326dQX\001\011\246F\253\323(\016\036\3307\314\340:"
 162      0109A646 
 162      ABD3280E 
 162      1ED837CC 
 162      E03A
 163 04ad A4D8F20A 		.ascii	"\244\330\362\012\233x4C\233\332\301\276\032.\215\332"
 163      9B783443 
 163      9BDAC1BE 
 163      1A2E8DDA 
 164 04bd 2D801B68 		.ascii	"-\200\033hDa\350\215\034\333x\231$\027kl\3529\026\336"
 164      4461E88D 
 164      1CDB7899 
 164      24176B6C 
 164      EA3916DE 
 165 04d1 82E4CDA6 		.ascii	"\202\344\315\246\231\213C\321\027\242\027T\270)=U\332"
 165      998B43D1 
 165      17A21754 
 165      B8293D55 
 165      DA
 166 04e2 26F32C9E 		.ascii	"&\363,\236\200\206\222hB\225\203\363\211\032\245\353"
 166      80869268 
 166      429583F3 
 166      891AA5EB 
 167 04f2 B1A6147B 		.ascii	"\261\246\024{$:\345}XQoADg\215\225'\320\026+K\006\035"
 167      243AE57D 
 167      58516F41 
 167      44678D95 
 167      27D0162B 
 168 0509 D278A1C5 		.ascii	"\322x\241\305\027\330\234o\\rhQ4\3369\253ta\310\334"
 168      17D89C6F 
 168      5C726851 
 168      34DE39AB 
 168      7461C8DC 
 169 051d 8881DBC4 		.ascii	"\210\201\333\304\010\375\230\\\004\354/\231\260\331"
 169      08FD985C 
 169      04EC2F99 
 169      B0D9
 170 052b 12112D1C 		.ascii	"\022\021-\034\351\354\345Z\351\350\206\275\370\244("
 170      E9ECE55A 
 170      E9E886BD 
 170      F8A428
 171 053a 47BB23F6 		.ascii	"G\273#\366\311\261\305\353&0\341\"\311v1@.\210\320\230"
 171      C9B1C5EB 
 171      2630E122 
 171      C9763140 
ARM GAS  C:\Users\rdn\AppData\Local\Temp\cc5ypsbL.s 			page 13


 171      2E88D098 
 172 054e 5167CCDE 		.ascii	"Qg\314\336g\212\305UJ/d,;\022Gc\310V\367{\313k/-\\\023"
 172      678AC555 
 172      4A2F642C 
 172      3B124763 
 172      C856F77B 
 173 0568 0B6F2E3E 		.ascii	"\013o.>;\246F\310?\246\242\216a\204;\202\373\2568\307"
 173      3BA646C8 
 173      3FA6A28E 
 173      61843B82 
 173      FBAE38C7 
 174 057c 52CB9257 		.ascii	"R\313\222W!M\262\246\241.tZ#\342\005H\2744\312Kt\226"
 174      214DB2A6 
 174      A12E745A 
 174      23E20548 
 174      BC34CA4B 
 175 0592 A8EDF913 		.ascii	"\250\355\371\023#\226\254\323\222\\\014\377\375\342"
 175      2396ACD3 
 175      925C0CFF 
 175      FDE2
 176 05a0 98DCF14C 		.ascii	"\230\334\361LZ)Lv\204\336 Ei]%i\025<\362\244\301(\240"
 176      5A294C76 
 176      84DE2045 
 176      695D2569 
 176      153CF2A4 
 177 05b7 4FDD31D1 		.ascii	"O\3351\321\245\241n\306\230w\024\335\254Lq\014{\321"
 177      A5A16EC6 
 177      987714DD 
 177      AC4C710C 
 177      7BD1
 178 05c9 89F194EE 		.ascii	"\211\361\224\356\022\267}\227\224\205\333\026\333\365"
 178      12B77D97 
 178      9485DB16 
 178      DBF5
 179 05d7 745688D6 		.ascii	"tV\210\326\374\313\31518ss\014\301jZ\004\021\325\007"
 179      FCCBCD31 
 179      3873730C 
 179      C16A5A04 
 179      11D507
 180 05ea DEFB4F44 		.ascii	"\336\373ODQ\027\305\275\231\213\342>\021\371d\224\376"
 180      5117C5BD 
 180      998BE23E 
 180      11F96494 
 180      FE
 181 05fb 18B74FFA 		.ascii	"\030\267O\372\022*\037\242\246\025\225\301\377#\327"
 181      122A1FA2 
 181      A61595C1 
 181      FF23D7
 182 060a E1C14C51 		.ascii	"\341\301LQzH\344K\3303\254\020\223\016Y\015D\215\001"
 182      7A48E44B 
 182      D833AC10 
 182      930E590D 
 182      448D01
 183 061d 0C021A24 		.ascii	"\014\002\032$eee\313\277\274-\033\363r\326f\347o\313"
 183      656565CB 
 183      BFBC2D1B 
 183      F372D666 
ARM GAS  C:\Users\rdn\AppData\Local\Temp\cc5ypsbL.s 			page 14


 183      E76FCB
 184 0630 C9DE9A97 		.ascii	"\311\336\232\227\223\225\303\224M\333\225\374m\034;"
 184      9395C394 
 184      4DDB95FC 
 184      6D1C3B
 185 063f F02DEC50 		.ascii	"\360-\354P\276\316ul\310\333\272y\203\232\237\233\273"
 185      BECE756C 
 185      C8DBBA79 
 185      839A9F9B 
 185      BB
 186 0650 09B6A4BE 		.ascii	"\011\266\244\276\013\270}\303\306\274\334\374\254\315"
 186      0BB87DC3 
 186      C6BCDCFC 
 186      ACCD
 187 065e EC6F8FB1 		.ascii	"\354o\217\261}\330"
 187      7DD8
 188              		.text
 189              		.section	.gnu.lto_.symbol_nodes.d618cdd6,"",%progbits
 190 0000 789C6361 		.ascii	"x\234ca`d\260a\000\002&\221z\006\206\011\347\030\030"
 190      6064B061 
 190      00022691 
 190      7A068609 
 190      E71818
 191 0013 80D4AE06 		.ascii	"\200\324\256\006E\240\200h=#\252\200X=\023\212\000\253"
 191      45A08068 
 191      3D23AA80 
 191      583D138A 
 191      00AB
 192 0025 38830248 		.ascii	"8\203\002H+\000\227\007\013\353"
 192      2B009707 
 192      0BEB
 193              		.text
 194              		.section	.gnu.lto_.refs.d618cdd6,"",%progbits
 195 0000 789C6361 		.ascii	"x\234ca`d`c```db`\346`\000\000\000\267\000\032"
 195      60646063 
 195      60606064 
 195      6260E660 
 195      000000B7 
 196              		.text
 197              		.section	.gnu.lto_.decls.d618cdd6,"",%progbits
 198 0000 789CBD56 		.ascii	"x\234\275V}PT\327\025\177\347\335]X\036\313\342\240"
 198      7D5054D7 
 198      157FE7DD 
 198      5D581ECB 
 198      E2A0
 199 0012 D3493B64 		.ascii	"\323I;d\3028\350\320\244Y\003\202\265\235N\247\215\366"
 199      C238E8D0 
 199      A4590382 
 199      B59D4EA7 
 199      8DF6
 200 0024 636A4C99 		.ascii	"cjL\231\324|\314tgv\226e\215\314\3605\354\222\211\375"
 200      D47CCC74 
 200      67769665 
 200      8DCCF035 
 200      EC9289FD 
 201 0038 EBB10B28 		.ascii	"\353\261\013($|i\025e0Z\277\002\202J\210A\204 +\021"
 201      247C6915 
ARM GAS  C:\Users\rdn\AppData\Local\Temp\cc5ypsbL.s 			page 15


 201      65305ABF 
 201      02824A88 
 201      4184202B 
 202 004d 0584F8C1 		.ascii	"\005\204\370\301GD$\242P\203\037\304%U\250 \320s\357"
 202      474424A2 
 202      50831FC4 
 202      2555A820 
 202      D073EF
 203 0060 7DBBFBA0 		.ascii	"}\273\373\240\322?\373f\357\276{\356\375\235\3379\367"
 203      D23FFB66 
 203      EFBE7BEE 
 203      FD9DDF39 
 203      F7
 204 0071 DC73CF7D 		.ascii	"\334s\317}\032\001\004\372\\\010\026\204\275\242 \274"
 204      1A0104FA 
 204      5C081684 
 204      BDA220BC 
 205 0081 87E21C3E 		.ascii	"\207\342\034>\032\034{\007\033\235\215\027\370C\260"
 205      1A1C7B07 
 205      1B9D8D17 
 205      F843B0
 206 0090 B562BB88 		.ascii	"\265b\273\210mJ\231\013\004a\336C\347u\212n\030\266"
 206      6D4A990B 
 206      0461DE43 
 206      E7758A6E 
 206      18B6
 207 00a2 65D85AB0 		.ascii	"e\330Z\260\235\305V\257p\255S\270\316ak\306\326\204"
 207      9DC556AF 
 207      70AD53B8 
 207      CE616BC6 
 207      D684
 208 00b4 4D54712F 		.ascii	"MTq/|\350X\340\"\234^>Q\305\005\213\360P\237\227*<\023"
 208      7CE858E0 
 208      229C5E3E 
 208      51C5058B 
 208      F0509F97 
 209 00cb D84617F0 		.ascii	"\330F\027\360ua{]\305I\375\355\304&!\341\237\361\035"
 209      75617B5D 
 209      C549FDED 
 209      C42621E1 
 209      9FF11D
 210 00de 02DCA601 		.ascii	"\002\334\246\001\337\001\330\264\340_G\223b_\364\332"
 210      DF01D8B4 
 210      E05F4793 
 210      625FF4DA 
 211 00ee 81E7C767 		.ascii	"\201\347\307gF\204\271\375\247\212t\003\320\017DP\202"
 211      4684B9FD 
 211      A78A7403 
 211      D00F4450 
 211      82
 212 00ff 2F00F07F 		.ascii	"/\000\360\177`M\340\215\211\330\021\005\336\361\016"
 212      604DE08D 
 212      89D81105 
 212      DEF10E
 213 010e F91E4181 		.ascii	"\371\036A\201\210\336\256\237\214\375\024}\230\363>"
 213      88DEAE9F 
 213      8CFD147D 
ARM GAS  C:\Users\rdn\AppData\Local\Temp\cc5ypsbL.s 			page 16


 213      98F33E
 214 011d 8CC4CF0E 		.ascii	"\214\304\317\016\212\022\227\025eAQ\002\321o\000\270"
 214      8A129715 
 214      65415102 
 214      D16F00B8 
 215 012d E8D550F1 		.ascii	"\350\325P\361-\360\310\353\263\327\014\013\007[\364"
 215      2DF0C8EB 
 215      B3D70C0B 
 215      075BF4
 216 013c F5B2EA1D 		.ascii	"\365\262\352\035\"\021\201\366o=\255\370\275\261Z\306"
 216      221181F6 
 216      6F3DADF8 
 216      BDB15AC6 
 217 014c A75896C5 		.ascii	"\247X\226\305(\177d\256f\327\224\223\307\"\204I\240"
 217      287F64AE 
 217      66D79493 
 217      C7228449 
 217      A0
 218 015d 4171BCAB 		.ascii	"Aq\274\253l\330\200\3422\011\"P,k|\334\241\345\263:"
 218      6CD880E2 
 218      32092250 
 218      2C6B7CDC 
 218      A1E5B33A 
 219 0171 145B873B 		.ascii	"\024[\207;\036\000\3711ct\316\346^\025\311K\254\337"
 219      1E00F931 
 219      6374CEE6 
 219      5E15C94B 
 219      ACDF
 220 0183 3A37E90E 		.ascii	":7\351\016\3450\021\305k\236\316}\301\234d\011\212\347"
 220      E53011C5 
 220      6B9ECE7D 
 220      C19C6409 
 220      8AE7
 221 0195 BAC73A25 		.ascii	"\272\307:%\262\202!\217LM{\250\271\225\022\206\210\340"
 221      B282218F 
 221      4C4D7BA8 
 221      B9951286 
 221      88E0
 222 01a7 C0C98767 		.ascii	"\300\311\207g\236\206\360\001:\337|\251\375\250\236"
 222      9E86F001 
 222      3ADF7CA9 
 222      FDA89E
 223 01b6 BC4CFBE2 		.ascii	"\274L\373\342a\2673\007@\212\332.\313NYv\311R\205A\200"
 223      61B73307 
 223      408ADA2E 
 223      CB4E5976 
 223      C9528541 
 224 01cb 1A088793 		.ascii	"\032\010\207\223\020.@\035DQ\245J0\012\3609\016\326"
 224      102E401D 
 224      4451A54A 
 224      300AF039 
 224      0ED6
 225 01dd E2E051BA 		.ascii	"\342\340Q\272\300\241\201\261?\271d\031\340\013\220"
 225      C0A181B1 
 225      3FB96419 
 225      E00B90
 226 01ec E0141006 		.ascii	"\340\024\020\006\301\350\254\224\370\212\317\226\014"
ARM GAS  C:\Users\rdn\AppData\Local\Temp\cc5ypsbL.s 			page 17


 226      C1E8AC94 
 226      F88ACF96 
 226      0C
 227 01f9 DC95483D 		.ascii	"\334\225H=0\033\225\236\316\352\320Em\234Y\324\306\316"
 227      301B959E 
 227      CEEAD045 
 227      6D9C59D4 
 227      C6CE
 228 020b C29518CD 		.ascii	"\302\225\030\315%P\2176N\373m\240Ind\242\347\240GG\352"
 228      25508F36 
 228      4EFB6DA0 
 228      496E64A2 
 228      E7A04747 
 229 0220 79F0A747 		.ascii	"y\360\247G\377\336\017<<z\032\271\306\376\222P\036\236"
 229      FFDE0F3C 
 229      3C7A1AB9 
 229      C6FE9250 
 229      1E9E
 230 0232 219CD6DE 		.ascii	"!\234\326\3368\327]e\200\310\245\221Q\221\007\031\371"
 230      38D75D65 
 230      80C8A591 
 230      51910719 
 230      F9
 231 0243 BEBE776B 		.ascii	"\276\276wk\207?\226\213-\260.\030\216#\373YX\012Uh\377"
 231      873F968B 
 231      2DB02E18 
 231      8E23FB59 
 231      580A5568 
 232 0258 1875AA1A 		.ascii	"\030u\252\032\377\004\210\306?\241D\331P\031\034\002"
 232      FF0488C6 
 232      3FA144D9 
 232      50191C02 
 233 0268 7C898046 		.ascii	"|\211\200F\012hP4\320'p\343\012\316A$4ck\202H\266\353"
 233      0A685034 
 233      D02770E3 
 233      0ACE4124 
 233      34636B82 
 234 027f CC887BB0 		.ascii	"\314\210{\260C\277Wvg\023\210\227\340\304B\033\253\250"
 234      43BF5776 
 234      67138897 
 234      E0C4421B 
 234      ABA8
 235 0291 892A6A88 		.ascii	"\211*j\210\257\327\335\237\277L\226u\024$(kU\230\234"
 235      AFD7DD9F 
 235      BF4C9675 
 235      1424286B 
 235      55989C
 236 02a4 B27B203F 		.ascii	"\262{ ?t\217\354v\022\026\214\317\024*_\014W\371\274"
 236      748FEC76 
 236      12168CCF 
 236      142A5F0C 
 236      57F9BC
 237 02b7 C5A55FAA 		.ascii	"\305\245_\252\375\346\313\000}>U+v\311am\206yf\005h"
 237      FDE6CB00 
 237      7D3E552B 
 237      76C9616D 
 237      86796605 
ARM GAS  C:\Users\rdn\AppData\Local\Temp\cc5ypsbL.s 			page 18


 238 02cc 01BD9297 		.ascii	"\001\275\222\227\207\345\276\323z\215\310\307 AC\307"
 238      87E5BED3 
 238      7A8DC8C7 
 238      204143C7 
 239 02dc AA9C3D53 		.ascii	"\252\234=S\344\205\335l\321.9B\003\357\374H\245{\036"
 239      E485DD6C 
 239      D12E3942 
 239      03EFFC48 
 239      A57B1E
 240 02ef 5EC0FFAF 		.ascii	"^\300\377\257@\303\011\266\3679\213B\227\037\220\017"
 240      40C309B6 
 240      F7398B42 
 240      971F900F 
 241 02ff D460404B 		.ascii	"\324`@K_\334\355\222\333P/\202\302\240\302\277c\025"
 241      5FDCED92 
 241      DB502F82 
 241      C2A0C2BF 
 241      6315
 242 0311 B42408F0 		.ascii	"\264$\010\360)\014\340\361i\205\345\324\314\266\222"
 242      290CE0F1 
 242      6985E5D4 
 242      CCB692
 243 0320 F1209245 		.ascii	"\361 \222E\330\336\3254\017\227\004\"\315P\215\354\336"
 243      D8DED534 
 243      0F970422 
 243      CD508DEC 
 243      DE
 244 0331 6D93F3D0 		.ascii	"m\223\363\320u\015\343\270\340\347\270\240\346\270\310"
 244      750DE3B8 
 244      E0E7B8A0 
 244      E6B8C8
 245 0340 38B65D6A 		.ascii	"8\266]j8%\221\022\316q\242z\272Fbky\335\273\224\322"
 245      38259112 
 245      CE71A27A 
 245      BA46626B 
 245      79DDBB94 
 246 0355 1BB75CC1 		.ascii	"\033\267\\\301\3440\237\037y\260\377#1\352\250\367t"
 246      E4309F1F 
 246      79B0FF23 
 246      31EAA8F7 
 246      74
 247 0366 0A74DB3B 		.ascii	"\012t\333;\030\247\367\224~:th\204\004\347QDMn1\306"
 247      18A7F794 
 247      7E3A7468 
 247      8404E751 
 247      444D6E31 
 248 037b 4DF0EFD5 		.ascii	"M\360\357\325%\334bTPv\005\301\317\256TN\315\017r'\004"
 248      25DC6254 
 248      507605C1 
 248      CFAE544E 
 248      CD0F7227 
 249 0390 AB02D5E5 		.ascii	"\253\002\325\345\013\362\311\317Jj\265\3141\034\203"
 249      0BF2C9CF 
 249      4A6AB5CC 
 249      311C83
 250 039f 7660AE15 		.ascii	"v`\256\025z\252\276\015\365E\376k>x2g\244R\2079\033"
 250      7AAABE0D 
ARM GAS  C:\Users\rdn\AppData\Local\Temp\cc5ypsbL.s 			page 19


 250      F545FE6B 
 250      3E783267 
 250      A4528739 
 251 03b4 8EE71654 		.ascii	"\216\347\026T\3076\234\037\333\307\3719\223\364Xc.\005"
 251      C7369C1F 
 251      DBC7F939 
 251      93F45863 
 251      2E05
 252 03c6 A238793D 		.ascii	"\2428y=\367b\0009\306W\367\303xK\002\322A7\006\354\032"
 252      F7620039 
 252      C657F7C3 
 252      784B02D2 
 252      413706EC 
 253 03db 7580AE78 		.ascii	"u\200\256x\372x\203\201\343\003P\254>[5c \365\034\337"
 253      FA788381 
 253      E30350AC 
 253      3E5B3563 
 253      20F51CDF 
 254 03ef E0699F0D 		.ascii	"\340i\237\015\246\012}\250\320\213^\367p\027\332\017"
 254      A60A7DA8 
 254      D08B5EF7 
 254      7017DA0F 
 255 03ff 373CD373 		.ascii	"7<\323s\035-\212\303\373o\335\016!\355\\gWI\316h\020"
 255      1D2D8AC3 
 255      FB6FDD0E 
 255      21ED5C67 
 255      5749CE68 
 256 0414 D5C10A0F 		.ascii	"\325\301\012\017\327Q\347\033\256\343\255n\361\274\272"
 256      D751E71B 
 256      AEE3AD6E 
 256      F1BCBA
 257 0423 3574D53E 		.ascii	"5t\325>\325\220\033\\\347Z\263\353\000\3150\270\211"
 257      D5901B5C 
 257      E75AB3EB 
 257      00CD30B8 
 257      89
 258 0434 3A03A873 		.ascii	":\003\250s\203\353\224\216^>\030DF9h\317\3479\030\026"
 258      83EB948E 
 258      5E3E1844 
 258      463968CF 
 258      E7391816 
 259 0448 047D8BA0 		.ascii	"\004}\213\240\237\205\303 \307x\013^</x\275\316\301"
 259      9F85C320 
 259      C7780B5E 
 259      3C2F78BD 
 259      CEC1
 260 045a 433A32C1 		.ascii	"C:2\301U\372\363\272\277\012\240*\267Qe\010yo)q\255"
 260      55FAF3BA 
 260      BF0AA02A 
 260      B7516508 
 260      796F2971 
 261 046f EC3F1642 		.ascii	"\354?\026B\2625\014t\257\341I#M\011\030F\320+\341pG"
 261      B2350C74 
 261      AFE14923 
 261      4D091846 
 261      D02BE170 
 262 0484 09F3BD9B 		.ascii	"\011\363\275\233\353\311\016\016\231\036s5\205P\310"
ARM GAS  C:\Users\rdn\AppData\Local\Temp\cc5ypsbL.s 			page 20


 262      EBC90E0E 
 262      991E7335 
 262      8550C8
 263 0493 3F11F272 		.ascii	"?\021\362r8\214p\310\354\365g{\014d?\303\210=\217\272"
 263      388C70C8 
 263      ECF5677B 
 263      0C643FC3 
 263      883D8FBA 
 264 04a7 27434017 		.ascii	"'C@\027\225K7\333\343t\006\354\301\314X\035\016\257"
 264      954B37DB 
 264      E37406EC 
 264      C1CC581D 
 264      0EAF
 265 04b9 615E7C87 		.ascii	"a^|\207j\243\240ce\340\036\346\310]\320\300Ut\347\212"
 265      6AA3A063 
 265      65E01EE6 
 265      C85DD0C0 
 265      5574E78A 
 266 04cd AF8895F7 		.ascii	"\257\210\225\367\275\221E\013%\242\324\247\232^\035"
 266      BD91450B 
 266      25A2D4A7 
 266      9A5E1D
 267 04dc B7B71F25 		.ascii	"\267\267\037%,\007(\303en\371\213\272\212\021\015\251"
 267      2C0728C3 
 267      656EF98B 
 267      BA8A110D 
 267      A9
 268 04ed E4DEDDFF 		.ascii	"\344\336\335\377\244\274\234E\374\001\217\036S\313\236"
 268      A4BC9C45 
 268      FC018F1E 
 268      53CB9E
 269 04fc EDA816C9 		.ascii	"\355\250\026\311)\2168\343\2729@\223\013\306x\350\036"
 269      298E38E3 
 269      BA394093 
 269      0BC678E8 
 269      1E
 270 050d 72966C4F 		.ascii	"r\226lO\357\234\2364s\314\336\311\274\\\026\336GJ\254"
 270      EF9C9E34 
 270      73CCDEC9 
 270      BC5C16DE 
 270      474AAC
 271 0520 BEE7A089 		.ascii	"\276\347\240\211\351'\263\006\322\301A\263]-\325,!\306"
 271      E927B306 
 271      D2C141B3 
 271      5D2DD52C 
 271      21C6
 272 0532 79AC3C1C 		.ascii	"y\254<\0343s\276-\333@z8\246\351J5\363\346_<V?p\310"
 272      3373BE2D 
 272      DB407A38 
 272      A6E94A35 
 272      F3E65F3C 
 273 054a C11D27B6 		.ascii	"\301\035'\266\351\311-\036\253\262}\333\216\004-\022"
 273      E9C92D1E 
 273      ABB27DDB 
 273      8E042D12 
 274 055a AB27A836 		.ascii	"\253'\2506\241\304j\022c\365xa\254\334\023\260\204\""
 274      A1C46A12 
ARM GAS  C:\Users\rdn\AppData\Local\Temp\cc5ypsbL.s 			page 21


 274      63F57861 
 274      ACDC13B0 
 274      8422
 275 056c 16C4E97E 		.ascii	"\026\304\351~5^\031,NT\373>\267z\344\332\360\315\340"
 275      355E192C 
 275      4E54FB3E 
 275      B77AE4DA 
 275      F0CDE0
 276 057f 45CBD453 		.ascii	"E\313\324SV\246\376\355-S\273\334;\013\265J\231*/5\322"
 276      56A6FEED 
 276      2D53BBDC 
 276      3B0BB54A 
 276      992A2F35 
 277 0594 928C7A22 		.ascii	"\222\214z\"\205A\233\277\304\264\251K\314\024/1m\017"
 277      85419BBF 
 277      C4B4A94B 
 277      CC142F31 
 277      6D0F
 278 05a6 7E4DEEF2 		.ascii	"~M\356\362\345\3277\215\305\360\013&\234\246\371\340"
 278      E5D7378D 
 278      C5F00B26 
 278      9CA6F9E0 
 279 05b6 B85BB97F 		.ascii	"\270[\271\177\207@u\332\302\370i{4<yG'mW\374\243\365"
 279      874075DA 
 279      C2F8697B 
 279      343C7947 
 279      276D57FC 
 280 05cc 0127FC0E 		.ascii	"\001'\374\016\316\321;\014\3136\314\242\210\360\357"
 280      CED13B0C 
 280      CB36CCA2 
 280      88F0EF
 281 05db 1FDE7908 		.ascii	"\037\336y\010a\305Ju\372\215\203&\375\014\242\2371\264"
 281      61C54A75 
 281      FA8D8326 
 281      FD0CA29F 
 281      31B4
 282 05ed 2C867975 		.ascii	",\206yu(8\247\340x\251\304\017\006\375Z\241\305`\304"
 282      2838A7E0 
 282      78A9C40F 
 282      06FD5AA1 
 282      C560C4
 283 0600 3355A7E1 		.ascii	"3U\247\341C\224\343C\3725R\332\342\026\3118\367\275"
 283      4394E343 
 283      FA3552DA 
 283      E216C938 
 283      F7BD
 284 0612 AEE2134C 		.ascii	"\256\342\023LOU\365C\240KTW\277\271\201\262\276 \257"
 284      4F55F543 
 284      A04B5457 
 284      BFB981B2 
 284      BE20AF
 285 0625 C30BAA5F 		.ascii	"\303\013\252_\266\030E\025\330\025\355\024\303!KdN\327"
 285      B6184515 
 285      D815ED14 
 285      C3214B64 
 285      4ED7
 286 0637 C9056381 		.ascii	"\311\005c\201j\247s\304\377\341\365l\326\345]\301+\016"
ARM GAS  C:\Users\rdn\AppData\Local\Temp\cc5ypsbL.s 			page 22


 286      6AA773C4 
 286      FFE1F56C 
 286      D6E55DC1 
 286      2B0E
 287 0649 C91EFAF5 		.ascii	"\311\036\372\365\360\335{G\216\310\356\342,\200\\1\014"
 287      F0DD7B47 
 287      8EC8EEE2 
 287      2C805C31 
 287      0C
 288 065a A6F91EA8 		.ascii	"\246\371\036\250t\247\331G\3446q\305\214H*]-}Z\234\241"
 288      74A7D947 
 288      E43671C5 
 288      8C482A5D 
 288      2D7D5A9C 
 289 066f 3FA94C46 		.ascii	"?\251LF\027=ss\241\220/JB\031^\227\364\375\334/\013"
 289      173D7373 
 289      A1902F4A 
 289      42195E97 
 289      F4FDDC2F 
 290 0684 814D0990 		.ascii	"\201M\011\220\207\036oG\217\251\210tyE\331\005\372\205"
 290      871E6F47 
 290      8FA98874 
 290      7945D905 
 290      FA85
 291 0696 748150C0 		.ascii	"t\201P\300\350\350\372K\016\376\212I,\026\377MZ\300"
 291      E8E8FA4B 
 291      0EFE8A49 
 291      2C16FF4D 
 291      5AC0
 292 06a8 483F46D2 		.ascii	"H?F\322\217(i\001%\205\246\301\211B\303\274\353\200"
 292      8F286901 
 292      2585A6C1 
 292      8942C3BC 
 292      EB80
 293 06ba AECBBFDF 		.ascii	"\256\313\277\337\205\"\273\016\350\233f\325\345\306"
 293      8522BB0E 
 293      E89B66D5 
 293      E5C6
 294 06c8 9C50B253 		.ascii	"\234P\262S\313\266\306}\276\367t\250\257\014\360\233"
 294      CBB6C67D 
 294      BEF774A8 
 294      AF0CF09B 
 295 06d8 EBC9BEB6 		.ascii	"\353\311\276\266{\304\227\362\305\"\033\314o}\372Wu"
 295      7BC497F2 
 295      C5221BCC 
 295      6F7DFA57 
 295      75
 296 06e9 C6C7AB13 		.ascii	"\306\307\253\023j\207H3\276DT2>\273\276\370k\0113\376"
 296      6A874833 
 296      BE445432 
 296      3EBBBEF8 
 296      6B0933FE 
 297 06fd 0ADEA8BD 		.ascii	"\012\336\250\275\307\201g\374?D\012\203\"\321\227\361"
 297      C78167FC 
 297      3F440A83 
 297      22D197F1 
 298 070d 45A22AE3 		.ascii	"E\242*\343w\212\313\205\220d\353jsz\262\325\234a\263"
ARM GAS  C:\Users\rdn\AppData\Local\Temp\cc5ypsbL.s 			page 23


 298      778ACB85 
 298      9064EB6A 
 298      737AB2D5 
 298      9C61B3
 299 0720 DB1CBA3F 		.ascii	"\333\034\272?\274\371v\304\272\350hAkIN\337b\321Z\323"
 299      BCF976C4 
 299      BAE86841 
 299      6B494EDF 
 299      62D15AD3 
 300 0734 32531D1A 		.ascii	"2S\035\032\273\315\226(\231\315\231I\251\216\3505fG"
 300      BBCD9628 
 300      99CD9949 
 300      A98EE835 
 300      6647
 301 0746 16587F69 		.ascii	"\026X\177iJ\317H{?\303\222\022\2619)\331f\217\210\372"
 301      4ACF487B 
 301      3FC39212 
 301      B13929D9 
 301      668F88FA 
 302 075a 70ED9A9F 		.ascii	"p\355\232\237\232\254[\323\221\305nJ\267\247Y#\254\031"
 302      9AAC5BD3 
 302      91C56E4A 
 302      B7A75923 
 302      AC19
 303 076c 368B232D 		.ascii	"6\213#-\303\024k\214\235?\220\224\222\236\226\3410\275"
 303      C3146B8C 
 303      9D3F9094 
 303      929E96E1 
 303      30BD
 304 077e 9F9A69B2 		.ascii	"\237\232i\262d\244\230\342\214\261\306h\332{55-\325"
 304      64A498E2 
 304      8CB1C668 
 304      DA7B3535 
 304      2DD5
 305 0790 F6AACD92 		.ascii	"\366\252\315\222\220dJJ\265&g&\332L)\026\353\226\244"
 305      90644A4A 
 305      B5266726 
 305      DA4C2916 
 305      EB96A4
 306 07a3 549BC99C 		.ascii	"T\233\311\234h\333l\311Lv\230\035[\323mv\343\026A\347"
 306      68DB6CC9 
 306      4C76981D 
 306      5BD36D76 
 306      E31641E7 
 307 07b7 F5E583FF 		.ascii	"\365\345\203\377\227+\366\255v\223\331\356HD\273h\337"
 307      972BF6AD 
 307      7693D9EE 
 307      4844BB68 
 307      DF
 308 07c8 1735BBC3 		.ascii	"\0275\273\303\342\260\275d"
 308      E2B0BD64 
 309 07d0 34252725 		.ascii	"4%'%\340\220\027\275\212Mg$}\200\223\210\376\211\321"
 309      E09017BD 
 309      8A4D6724 
 309      7D809388 
 309      FE89D1
 310 07e3 68E23F05 		.ascii	"h\342?\005f\317\260\232P\333h\025B}D\231\366t[jb\230"
ARM GAS  C:\Users\rdn\AppData\Local\Temp\cc5ypsbL.s 			page 24


 310      66CFB09A 
 310      50DB6815 
 310      427D4499 
 310      F6745B6A 
 311 07f9 4FDE9AEA 		.ascii	"O\336\232\352\330b\263'\375\315\246\335\234\234fq\204"
 311      D862B327 
 311      FDCDA6DD 
 311      9C9C6671 
 311      84
 312 080a BCB16EB5 		.ascii	"\274\261n\265\371\315\2677\232\377\362\326o7\375n\011"
 312      F9CDB737 
 312      9AFFF2D6 
 312      6F37FD6E 
 312      09
 313 081b 9558CFFC 		.ascii	"\225X\317\374\2135\033\314\177|K5\020\273\226\016\204"
 313      8B351BCC 
 313      7F7C4B35 
 313      10BB960E 
 313      84
 314 082c CC1B5049 		.ascii	"\314\033PI\253c\324RL\254Z\212^\263A\357\227\326n\010"
 314      AB63D452 
 314      4CAC5A8A 
 314      5EB341EF 
 314      97D66E08 
 315 0840 A2DED833 		.ascii	"\242\336\3303p\025\222\327\374\372M\254\273~\2239\372"
 315      701592D7 
 315      FCFA4DAC 
 315      BB7E9339 
 315      FA
 316 0851 B58DDEEE 		.ascii	"\265\215\336\356\3177\306\005)\3358\337`\314\306\270"
 316      CF37C605 
 316      29DD38DF 
 316      60CCC6B8 
 317 0861 00AA9FE8 		.ascii	"\000\252\237\350\220\350+\325f\216I\211#\030\277\027"
 317      90E82BD5 
 317      668E4989 
 317      2318BF17 
 318 0871 9F170E87 		.ascii	"\237\027\016\207%!\231mm\000\007\377\007\363\237a\360"
 318      2521996D 
 318      6D0007FF 
 318      07F39F61 
 318      F0
 319              		.text
 320              		.section	.gnu.lto_.symtab.d618cdd6,"",%progbits
 321 0000 6C63335F 		.ascii	"lc3_plc_reset\000"
 321      706C635F 
 321      72657365 
 321      7400
 322 000e 00       		.ascii	"\000"
 323 000f 00       		.ascii	"\000"
 324 0010 00       		.ascii	"\000"
 325 0011 00000000 		.ascii	"\000\000\000\000\000\000\000\000"
 325      00000000 
 326 0019 C5000000 		.ascii	"\305\000\000\000"
 327 001d 6C63335F 		.ascii	"lc3_plc_suspend\000"
 327      706C635F 
 327      73757370 
ARM GAS  C:\Users\rdn\AppData\Local\Temp\cc5ypsbL.s 			page 25


 327      656E6400 
 328 002d 00       		.ascii	"\000"
 329 002e 00       		.ascii	"\000"
 330 002f 00       		.ascii	"\000"
 331 0030 00000000 		.ascii	"\000\000\000\000\000\000\000\000"
 331      00000000 
 332 0038 C7000000 		.ascii	"\307\000\000\000"
 333 003c 6C63335F 		.ascii	"lc3_plc_synthesize\000"
 333      706C635F 
 333      73796E74 
 333      68657369 
 333      7A6500
 334 004f 00       		.ascii	"\000"
 335 0050 00       		.ascii	"\000"
 336 0051 00       		.ascii	"\000"
 337 0052 00000000 		.ascii	"\000\000\000\000\000\000\000\000"
 337      00000000 
 338 005a FA000000 		.ascii	"\372\000\000\000"
 339 005e 6C63335F 		.ascii	"lc3_ne_2m5\000"
 339      6E655F32 
 339      6D3500
 340 0069 00       		.ascii	"\000"
 341 006a 02       		.ascii	"\002"
 342 006b 00       		.ascii	"\000"
 343 006c 00000000 		.ascii	"\000\000\000\000\000\000\000\000"
 343      00000000 
 344 0074 07010000 		.ascii	"\007\001\000\000"
 345              		.text
 346              		.section	.gnu.lto_.opts,"",%progbits
 347 0000 272D666D 		.ascii	"'-fmath-errno' '-fsigned-zeros' '-ftrapping-math' '"
 347      6174682D 
 347      6572726E 
 347      6F272027 
 347      2D667369 
 348 0033 2D666E6F 		.ascii	"-fno-trapv' '-fno-openmp' '-fno-openacc' '-mcpu=cor"
 348      2D747261 
 348      70762720 
 348      272D666E 
 348      6F2D6F70 
 349 0066 7465782D 		.ascii	"tex-m4' '-mfloat-abi=softfp' '-mfpu=fpv4-sp-d16' '-"
 349      6D342720 
 349      272D6D66 
 349      6C6F6174 
 349      2D616269 
 350 0099 6D746875 		.ascii	"mthumb' '-g' '-O3' '-ffunction-sections' '-ffat-lto"
 350      6D622720 
 350      272D6727 
 350      20272D4F 
 350      33272027 
 351 00cc 2D6F626A 		.ascii	"-objects' '-finline-functions' '-flto'\000"
 351      65637473 
 351      2720272D 
 351      66696E6C 
 351      696E652D 
 352              		.text
 353              		.cfi_sections	.debug_frame
 354              		.section	.text.lc3_plc_reset,"ax",%progbits
ARM GAS  C:\Users\rdn\AppData\Local\Temp\cc5ypsbL.s 			page 26


 355              		.align	2
 356              		.global	lc3_plc_reset
 357              		.thumb
 358              		.thumb_func
 359              		.type	lc3_plc_reset, %function
 360              	lc3_plc_reset:
 361              	.LFB20:
 362              		.file 1 "..\\..\\..\\liblc3\\src\\plc.c"
   1:..\..\..\liblc3\src/plc.c **** /******************************************************************************
   2:..\..\..\liblc3\src/plc.c ****  *
   3:..\..\..\liblc3\src/plc.c ****  *  Copyright 2022 Google LLC
   4:..\..\..\liblc3\src/plc.c ****  *
   5:..\..\..\liblc3\src/plc.c ****  *  Licensed under the Apache License, Version 2.0 (the "License");
   6:..\..\..\liblc3\src/plc.c ****  *  you may not use this file except in compliance with the License.
   7:..\..\..\liblc3\src/plc.c ****  *  You may obtain a copy of the License at:
   8:..\..\..\liblc3\src/plc.c ****  *
   9:..\..\..\liblc3\src/plc.c ****  *  http://www.apache.org/licenses/LICENSE-2.0
  10:..\..\..\liblc3\src/plc.c ****  *
  11:..\..\..\liblc3\src/plc.c ****  *  Unless required by applicable law or agreed to in writing, software
  12:..\..\..\liblc3\src/plc.c ****  *  distributed under the License is distributed on an "AS IS" BASIS,
  13:..\..\..\liblc3\src/plc.c ****  *  WITHOUT WARRANTIES OR CONDITIONS OF ANY KIND, either express or implied.
  14:..\..\..\liblc3\src/plc.c ****  *  See the License for the specific language governing permissions and
  15:..\..\..\liblc3\src/plc.c ****  *  limitations under the License.
  16:..\..\..\liblc3\src/plc.c ****  *
  17:..\..\..\liblc3\src/plc.c ****  ******************************************************************************/
  18:..\..\..\liblc3\src/plc.c **** 
  19:..\..\..\liblc3\src/plc.c **** #include "plc.h"
  20:..\..\..\liblc3\src/plc.c **** #include "tables.h"
  21:..\..\..\liblc3\src/plc.c **** 
  22:..\..\..\liblc3\src/plc.c **** 
  23:..\..\..\liblc3\src/plc.c **** /**
  24:..\..\..\liblc3\src/plc.c ****  * Reset Packet Loss Concealment state
  25:..\..\..\liblc3\src/plc.c ****  */
  26:..\..\..\liblc3\src/plc.c **** void lc3_plc_reset(struct lc3_plc_state *plc)
  27:..\..\..\liblc3\src/plc.c **** {
 363              		.loc 1 27 0
 364              		.cfi_startproc
 365              		@ args = 0, pretend = 0, frame = 0
 366              		@ frame_needed = 0, uses_anonymous_args = 0
 367              		@ link register save eliminated.
 368              	.LVL0:
  28:..\..\..\liblc3\src/plc.c ****     plc->seed = 24607;
 369              		.loc 1 28 0
 370 0000 46F21F01 		movw	r1, #24607
 371              	.LBB7:
 372              	.LBB8:
  29:..\..\..\liblc3\src/plc.c ****     lc3_plc_suspend(plc);
  30:..\..\..\liblc3\src/plc.c **** }
  31:..\..\..\liblc3\src/plc.c **** 
  32:..\..\..\liblc3\src/plc.c **** /**
  33:..\..\..\liblc3\src/plc.c ****  * Suspend PLC execution (Good frame received)
  34:..\..\..\liblc3\src/plc.c ****  */
  35:..\..\..\liblc3\src/plc.c **** void lc3_plc_suspend(struct lc3_plc_state *plc)
  36:..\..\..\liblc3\src/plc.c **** {
  37:..\..\..\liblc3\src/plc.c ****     plc->count = 1;
 373              		.loc 1 37 0
 374 0004 0122     		movs	r2, #1
ARM GAS  C:\Users\rdn\AppData\Local\Temp\cc5ypsbL.s 			page 27


  38:..\..\..\liblc3\src/plc.c ****     plc->alpha = 1.0f;
 375              		.loc 1 38 0
 376 0006 4FF07E53 		mov	r3, #1065353216
 377              	.LBE8:
 378              	.LBE7:
  28:..\..\..\liblc3\src/plc.c ****     plc->seed = 24607;
 379              		.loc 1 28 0
 380 000a 0180     		strh	r1, [r0]	@ movhi
 381              	.LVL1:
 382              	.LBB10:
 383              	.LBB9:
  37:..\..\..\liblc3\src/plc.c ****     plc->alpha = 1.0f;
 384              		.loc 1 37 0
 385 000c 4260     		str	r2, [r0, #4]
 386              		.loc 1 38 0
 387 000e 8360     		str	r3, [r0, #8]	@ float
 388              	.LVL2:
 389 0010 7047     		bx	lr
 390              	.LBE9:
 391              	.LBE10:
 392              		.cfi_endproc
 393              	.LFE20:
 394              		.size	lc3_plc_reset, .-lc3_plc_reset
 395 0012 00BF     		.section	.text.lc3_plc_suspend,"ax",%progbits
 396              		.align	2
 397              		.global	lc3_plc_suspend
 398              		.thumb
 399              		.thumb_func
 400              		.type	lc3_plc_suspend, %function
 401              	lc3_plc_suspend:
 402              	.LFB21:
  36:..\..\..\liblc3\src/plc.c ****     plc->count = 1;
 403              		.loc 1 36 0
 404              		.cfi_startproc
 405              		@ args = 0, pretend = 0, frame = 0
 406              		@ frame_needed = 0, uses_anonymous_args = 0
 407              		@ link register save eliminated.
 408              	.LVL3:
  37:..\..\..\liblc3\src/plc.c ****     plc->alpha = 1.0f;
 409              		.loc 1 37 0
 410 0000 0122     		movs	r2, #1
 411              		.loc 1 38 0
 412 0002 4FF07E53 		mov	r3, #1065353216
  37:..\..\..\liblc3\src/plc.c ****     plc->alpha = 1.0f;
 413              		.loc 1 37 0
 414 0006 4260     		str	r2, [r0, #4]
 415              		.loc 1 38 0
 416 0008 8360     		str	r3, [r0, #8]	@ float
 417 000a 7047     		bx	lr
 418              		.cfi_endproc
 419              	.LFE21:
 420              		.size	lc3_plc_suspend, .-lc3_plc_suspend
 421              		.section	.text.lc3_plc_synthesize,"ax",%progbits
 422              		.align	2
 423              		.global	lc3_plc_synthesize
 424              		.thumb
 425              		.thumb_func
ARM GAS  C:\Users\rdn\AppData\Local\Temp\cc5ypsbL.s 			page 28


 426              		.type	lc3_plc_synthesize, %function
 427              	lc3_plc_synthesize:
 428              	.LFB22:
  39:..\..\..\liblc3\src/plc.c **** }
  40:..\..\..\liblc3\src/plc.c **** 
  41:..\..\..\liblc3\src/plc.c **** /**
  42:..\..\..\liblc3\src/plc.c ****  * Synthesis of a PLC frame
  43:..\..\..\liblc3\src/plc.c ****  */
  44:..\..\..\liblc3\src/plc.c **** void lc3_plc_synthesize(enum lc3_dt dt, enum lc3_srate sr,
  45:..\..\..\liblc3\src/plc.c ****     struct lc3_plc_state *plc, const float *x, float *y)
  46:..\..\..\liblc3\src/plc.c **** {
 429              		.loc 1 46 0
 430              		.cfi_startproc
 431              		@ args = 4, pretend = 0, frame = 0
 432              		@ frame_needed = 0, uses_anonymous_args = 0
 433              		@ link register save eliminated.
 434              	.LVL4:
 435 0000 70B4     		push	{r4, r5, r6}
 436              		.cfi_def_cfa_offset 12
 437              		.cfi_offset 4, -12
 438              		.cfi_offset 5, -8
 439              		.cfi_offset 6, -4
 440              	.LBB11:
 441              	.LBB12:
 442              		.file 2 "..\\..\\..\\liblc3\\src\\tables.h"
   1:..\..\..\liblc3\src/tables.h **** /******************************************************************************
   2:..\..\..\liblc3\src/tables.h ****  *
   3:..\..\..\liblc3\src/tables.h ****  *  Copyright 2022 Google LLC
   4:..\..\..\liblc3\src/tables.h ****  *
   5:..\..\..\liblc3\src/tables.h ****  *  Licensed under the Apache License, Version 2.0 (the "License");
   6:..\..\..\liblc3\src/tables.h ****  *  you may not use this file except in compliance with the License.
   7:..\..\..\liblc3\src/tables.h ****  *  You may obtain a copy of the License at:
   8:..\..\..\liblc3\src/tables.h ****  *
   9:..\..\..\liblc3\src/tables.h ****  *  http://www.apache.org/licenses/LICENSE-2.0
  10:..\..\..\liblc3\src/tables.h ****  *
  11:..\..\..\liblc3\src/tables.h ****  *  Unless required by applicable law or agreed to in writing, software
  12:..\..\..\liblc3\src/tables.h ****  *  distributed under the License is distributed on an "AS IS" BASIS,
  13:..\..\..\liblc3\src/tables.h ****  *  WITHOUT WARRANTIES OR CONDITIONS OF ANY KIND, either express or implied.
  14:..\..\..\liblc3\src/tables.h ****  *  See the License for the specific language governing permissions and
  15:..\..\..\liblc3\src/tables.h ****  *  limitations under the License.
  16:..\..\..\liblc3\src/tables.h ****  *
  17:..\..\..\liblc3\src/tables.h ****  ******************************************************************************/
  18:..\..\..\liblc3\src/tables.h **** 
  19:..\..\..\liblc3\src/tables.h **** #ifndef __LC3_TABLES_H
  20:..\..\..\liblc3\src/tables.h **** #define __LC3_TABLES_H
  21:..\..\..\liblc3\src/tables.h **** 
  22:..\..\..\liblc3\src/tables.h **** #include "common.h"
  23:..\..\..\liblc3\src/tables.h **** #include "bits.h"
  24:..\..\..\liblc3\src/tables.h **** 
  25:..\..\..\liblc3\src/tables.h **** 
  26:..\..\..\liblc3\src/tables.h **** /**
  27:..\..\..\liblc3\src/tables.h ****  * Characteristics
  28:..\..\..\liblc3\src/tables.h ****  *
  29:..\..\..\liblc3\src/tables.h ****  *   ns   Number of temporal samples / frequency coefficients within a frame
  30:..\..\..\liblc3\src/tables.h ****  *
  31:..\..\..\liblc3\src/tables.h ****  *   ne   Number of encoded frequency coefficients
  32:..\..\..\liblc3\src/tables.h ****  *
ARM GAS  C:\Users\rdn\AppData\Local\Temp\cc5ypsbL.s 			page 29


  33:..\..\..\liblc3\src/tables.h ****  *   nd   Number of MDCT delayed samples, sum of half a frame and an ovelap
  34:..\..\..\liblc3\src/tables.h ****  *        of future by 1.25 ms (2.5ms, 5ms and 10ms frame durations),
  35:..\..\..\liblc3\src/tables.h ****  *        or 2 ms (7.5ms frame duration).
  36:..\..\..\liblc3\src/tables.h ****  *
  37:..\..\..\liblc3\src/tables.h ****  *   nh   Number of 18 ms samples of the history buffer, aligned on a frame
  38:..\..\..\liblc3\src/tables.h ****  *
  39:..\..\..\liblc3\src/tables.h ****  *   nt   Number of 1.25 ms previous samples
  40:..\..\..\liblc3\src/tables.h ****  */
  41:..\..\..\liblc3\src/tables.h **** 
  42:..\..\..\liblc3\src/tables.h **** extern const int lc3_ns_2m5[LC3_NUM_SRATE];
  43:..\..\..\liblc3\src/tables.h **** extern const int lc3_ne_2m5[LC3_NUM_SRATE];
  44:..\..\..\liblc3\src/tables.h **** extern const int lc3_ns_4m [LC3_NUM_SRATE];
  45:..\..\..\liblc3\src/tables.h **** 
  46:..\..\..\liblc3\src/tables.h **** static inline int lc3_ns(enum lc3_dt dt, enum lc3_srate sr) {
  47:..\..\..\liblc3\src/tables.h ****     return lc3_ns_2m5[sr] * (1 + dt);
  48:..\..\..\liblc3\src/tables.h **** }
  49:..\..\..\liblc3\src/tables.h **** 
  50:..\..\..\liblc3\src/tables.h **** static inline int lc3_ne(enum lc3_dt dt, enum lc3_srate sr) {
  51:..\..\..\liblc3\src/tables.h ****     return lc3_ne_2m5[sr] * (1 + dt);
 443              		.loc 2 51 0
 444 0002 1E4C     		ldr	r4, .L14
 445              	.LBE12:
 446              	.LBE11:
  47:..\..\..\liblc3\src/plc.c ****     uint16_t seed = plc->seed;
  48:..\..\..\liblc3\src/plc.c ****     float alpha = plc->alpha;
  49:..\..\..\liblc3\src/plc.c ****     int ne = lc3_ne(dt, sr);
  50:..\..\..\liblc3\src/plc.c **** 
  51:..\..\..\liblc3\src/plc.c ****     alpha *= (plc->count < 4 ? 1.0f :
 447              		.loc 1 51 0
 448 0004 5668     		ldr	r6, [r2, #4]
 449              	.LBB15:
 450              	.LBB13:
 451              		.loc 2 51 0
 452 0006 54F82140 		ldr	r4, [r4, r1, lsl #2]
 453              	.LBE13:
 454              	.LBE15:
  48:..\..\..\liblc3\src/plc.c ****     int ne = lc3_ne(dt, sr);
 455              		.loc 1 48 0
 456 000a 92ED027A 		vldr.32	s14, [r2, #8]
  47:..\..\..\liblc3\src/plc.c ****     uint16_t seed = plc->seed;
 457              		.loc 1 47 0
 458 000e 1188     		ldrh	r1, [r2]
 459              	.LVL5:
 460              		.loc 1 51 0
 461 0010 032E     		cmp	r6, #3
 462              	.LBB16:
 463              	.LBB14:
 464              		.loc 2 51 0
 465 0012 00FB0440 		mla	r0, r0, r4, r4
 466              	.LVL6:
 467              	.LBE14:
 468              	.LBE16:
 469              		.loc 1 51 0
 470 0016 2EDD     		ble	.L9
  52:..\..\..\liblc3\src/plc.c ****               plc->count < 8 ? 0.9f : 0.85f);
 471              		.loc 1 52 0
 472 0018 DFED197A 		vldr.32	s15, .L14+4
ARM GAS  C:\Users\rdn\AppData\Local\Temp\cc5ypsbL.s 			page 30


 473 001c DFED196A 		vldr.32	s13, .L14+8
 474 0020 082E     		cmp	r6, #8
 475 0022 A8BF     		it	ge
 476 0024 F0EE667A 		vmovge.f32	s15, s13
 477              	.L4:
 478              	.LBB17:
  53:..\..\..\liblc3\src/plc.c **** 
  54:..\..\..\liblc3\src/plc.c ****     for (int i = 0; i < ne; i++) {
 479              		.loc 1 54 0 discriminator 3
 480 0028 0028     		cmp	r0, #0
 481              	.LBE17:
  51:..\..\..\liblc3\src/plc.c ****               plc->count < 8 ? 0.9f : 0.85f);
 482              		.loc 1 51 0 discriminator 3
 483 002a 27EE877A 		vmul.f32	s14, s15, s14
 484              	.LVL7:
 485              	.LBB18:
 486              		.loc 1 54 0 discriminator 3
 487 002e 1BDD     		ble	.L5
 488 0030 039D     		ldr	r5, [sp, #12]
 489 0032 03EB8000 		add	r0, r3, r0, lsl #2
 490              	.LVL8:
 491              	.L8:
  55:..\..\..\liblc3\src/plc.c ****         seed = (16831 + seed * 12821) & 0xffff;
 492              		.loc 1 55 0
 493 0036 01EB8104 		add	r4, r1, r1, lsl #2
 494 003a 01EBC414 		add	r4, r1, r4, lsl #7
 495 003e 04EB8404 		add	r4, r4, r4, lsl #2
 496 0042 01EB8401 		add	r1, r1, r4, lsl #2
 497              	.LVL9:
 498 0046 01F58341 		add	r1, r1, #16768
 499 004a 3F31     		adds	r1, r1, #63
  56:..\..\..\liblc3\src/plc.c ****         y[i] = alpha * (seed & 0x8000 ? -x[i] : x[i]);
 500              		.loc 1 56 0
 501 004c D3ED007A 		vldr.32	s15, [r3]
  55:..\..\..\liblc3\src/plc.c ****         seed = (16831 + seed * 12821) & 0xffff;
 502              		.loc 1 55 0
 503 0050 89B2     		uxth	r1, r1
 504              	.LVL10:
 505              		.loc 1 56 0
 506 0052 0C04     		lsls	r4, r1, #16
 507 0054 48BF     		it	mi
 508 0056 F1EE677A 		vnegmi.f32	s15, s15
 509 005a 67EE877A 		vmul.f32	s15, s15, s14
 510 005e 0433     		adds	r3, r3, #4
  54:..\..\..\liblc3\src/plc.c ****         seed = (16831 + seed * 12821) & 0xffff;
 511              		.loc 1 54 0
 512 0060 8342     		cmp	r3, r0
 513              		.loc 1 56 0
 514 0062 E5EC017A 		vstmia.32	r5!, {s15}
  54:..\..\..\liblc3\src/plc.c ****         seed = (16831 + seed * 12821) & 0xffff;
 515              		.loc 1 54 0
 516 0066 E6D1     		bne	.L8
 517              	.L5:
 518              	.LBE18:
  57:..\..\..\liblc3\src/plc.c ****     }
  58:..\..\..\liblc3\src/plc.c **** 
  59:..\..\..\liblc3\src/plc.c ****     plc->seed = seed;
ARM GAS  C:\Users\rdn\AppData\Local\Temp\cc5ypsbL.s 			page 31


  60:..\..\..\liblc3\src/plc.c ****     plc->alpha = alpha;
  61:..\..\..\liblc3\src/plc.c ****     plc->count++;
 519              		.loc 1 61 0
 520 0068 0136     		adds	r6, r6, #1
 521 006a 5660     		str	r6, [r2, #4]
  59:..\..\..\liblc3\src/plc.c ****     plc->alpha = alpha;
 522              		.loc 1 59 0
 523 006c 1180     		strh	r1, [r2]	@ movhi
  60:..\..\..\liblc3\src/plc.c ****     plc->count++;
 524              		.loc 1 60 0
 525 006e 82ED027A 		vstr.32	s14, [r2, #8]
  62:..\..\..\liblc3\src/plc.c **** }
 526              		.loc 1 62 0
 527 0072 70BC     		pop	{r4, r5, r6}
 528              		.cfi_remember_state
 529              		.cfi_restore 6
 530              		.cfi_restore 5
 531              		.cfi_restore 4
 532              		.cfi_def_cfa_offset 0
 533              	.LVL11:
 534 0074 7047     		bx	lr
 535              	.LVL12:
 536              	.L9:
 537              		.cfi_restore_state
  51:..\..\..\liblc3\src/plc.c ****               plc->count < 8 ? 0.9f : 0.85f);
 538              		.loc 1 51 0
 539 0076 F7EE007A 		vmov.f32	s15, #1.0e+0
 540 007a D5E7     		b	.L4
 541              	.L15:
 542              		.align	2
 543              	.L14:
 544 007c 00000000 		.word	lc3_ne_2m5
 545 0080 6666663F 		.word	1063675494
 546 0084 9A99593F 		.word	1062836634
 547              		.cfi_endproc
 548              	.LFE22:
 549              		.size	lc3_plc_synthesize, .-lc3_plc_synthesize
 550              		.text
 551              	.Letext0:
 552              		.file 3 "c:\\program files (x86)\\cypress\\psoc creator\\4.4\\psoc creator\\import\\gnu\\arm\\5.4.
 553              		.file 4 "c:\\program files (x86)\\cypress\\psoc creator\\4.4\\psoc creator\\import\\gnu\\arm\\5.4.
 554              		.file 5 ".\\liblc3\\include/lc3_private.h"