ARM GAS  C:\Users\rdn\AppData\Local\Temp\cc92LAgm.s 			page 1


   1              		.syntax unified
   2              		.cpu cortex-m4
   3              		.eabi_attribute 27, 1
   4              		.fpu fpv4-sp-d16
   5              		.eabi_attribute 20, 1
   6              		.eabi_attribute 21, 1
   7              		.eabi_attribute 23, 3
   8              		.eabi_attribute 24, 1
   9              		.eabi_attribute 25, 1
  10              		.eabi_attribute 26, 1
  11              		.eabi_attribute 30, 4
  12              		.eabi_attribute 34, 1
  13              		.eabi_attribute 18, 4
  14              		.thumb
  15              		.syntax unified
  16              		.file	"sns.c"
  17              		.text
  18              	.Ltext0:
  19              		.cfi_sections	.debug_frame
  20              		.section	.text.add_pulse,"ax",%progbits
  21              		.align	1
  22              		.thumb
  23              		.thumb_func
  24              		.type	add_pulse, %function
  25              	add_pulse:
  26              	.LFB25:
  27              		.file 1 "..\\..\\..\\liblc3\\src\\sns.c"
   1:..\..\..\liblc3\src/sns.c **** /******************************************************************************
   2:..\..\..\liblc3\src/sns.c ****  *
   3:..\..\..\liblc3\src/sns.c ****  *  Copyright 2022 Google LLC
   4:..\..\..\liblc3\src/sns.c ****  *
   5:..\..\..\liblc3\src/sns.c ****  *  Licensed under the Apache License, Version 2.0 (the "License");
   6:..\..\..\liblc3\src/sns.c ****  *  you may not use this file except in compliance with the License.
   7:..\..\..\liblc3\src/sns.c ****  *  You may obtain a copy of the License at:
   8:..\..\..\liblc3\src/sns.c ****  *
   9:..\..\..\liblc3\src/sns.c ****  *  http://www.apache.org/licenses/LICENSE-2.0
  10:..\..\..\liblc3\src/sns.c ****  *
  11:..\..\..\liblc3\src/sns.c ****  *  Unless required by applicable law or agreed to in writing, software
  12:..\..\..\liblc3\src/sns.c ****  *  distributed under the License is distributed on an "AS IS" BASIS,
  13:..\..\..\liblc3\src/sns.c ****  *  WITHOUT WARRANTIES OR CONDITIONS OF ANY KIND, either express or implied.
  14:..\..\..\liblc3\src/sns.c ****  *  See the License for the specific language governing permissions and
  15:..\..\..\liblc3\src/sns.c ****  *  limitations under the License.
  16:..\..\..\liblc3\src/sns.c ****  *
  17:..\..\..\liblc3\src/sns.c ****  ******************************************************************************/
  18:..\..\..\liblc3\src/sns.c **** 
  19:..\..\..\liblc3\src/sns.c **** #include "sns.h"
  20:..\..\..\liblc3\src/sns.c **** #include "tables.h"
  21:..\..\..\liblc3\src/sns.c **** 
  22:..\..\..\liblc3\src/sns.c **** 
  23:..\..\..\liblc3\src/sns.c **** /* ----------------------------------------------------------------------------
  24:..\..\..\liblc3\src/sns.c ****  *  DCT-16
  25:..\..\..\liblc3\src/sns.c ****  * -------------------------------------------------------------------------- */
  26:..\..\..\liblc3\src/sns.c **** 
  27:..\..\..\liblc3\src/sns.c **** /**
  28:..\..\..\liblc3\src/sns.c ****  * Matrix of DCT-16 coefficients
  29:..\..\..\liblc3\src/sns.c ****  *
  30:..\..\..\liblc3\src/sns.c ****  * M[n][k] = 2f cos( Pi k (2n + 1) / 2N )
ARM GAS  C:\Users\rdn\AppData\Local\Temp\cc92LAgm.s 			page 2


  31:..\..\..\liblc3\src/sns.c ****  *
  32:..\..\..\liblc3\src/sns.c ****  *   k = [0..N-1], n = [0..N-1], N = 16
  33:..\..\..\liblc3\src/sns.c ****  *   f = sqrt(1/4N) for k=0, sqrt(1/2N) otherwise
  34:..\..\..\liblc3\src/sns.c ****  */
  35:..\..\..\liblc3\src/sns.c **** static const float dct16_m[16][16] = {
  36:..\..\..\liblc3\src/sns.c **** 
  37:..\..\..\liblc3\src/sns.c ****     {  2.50000000e-01,  3.51850934e-01,  3.46759961e-01,  3.38329500e-01,
  38:..\..\..\liblc3\src/sns.c ****        3.26640741e-01,  3.11806253e-01,  2.93968901e-01,  2.73300467e-01,
  39:..\..\..\liblc3\src/sns.c ****        2.50000000e-01,  2.24291897e-01,  1.96423740e-01,  1.66663915e-01,
  40:..\..\..\liblc3\src/sns.c ****        1.35299025e-01,  1.02631132e-01,  6.89748448e-02,  3.46542923e-02 },
  41:..\..\..\liblc3\src/sns.c **** 
  42:..\..\..\liblc3\src/sns.c ****     {  2.50000000e-01,  3.38329500e-01,  2.93968901e-01,  2.24291897e-01,
  43:..\..\..\liblc3\src/sns.c ****        1.35299025e-01,  3.46542923e-02, -6.89748448e-02, -1.66663915e-01,
  44:..\..\..\liblc3\src/sns.c ****       -2.50000000e-01, -3.11806253e-01, -3.46759961e-01, -3.51850934e-01,
  45:..\..\..\liblc3\src/sns.c ****       -3.26640741e-01, -2.73300467e-01, -1.96423740e-01, -1.02631132e-01 },
  46:..\..\..\liblc3\src/sns.c **** 
  47:..\..\..\liblc3\src/sns.c ****      { 2.50000000e-01,  3.11806253e-01,  1.96423740e-01,  3.46542923e-02,
  48:..\..\..\liblc3\src/sns.c ****       -1.35299025e-01, -2.73300467e-01, -3.46759961e-01, -3.38329500e-01,
  49:..\..\..\liblc3\src/sns.c ****       -2.50000000e-01, -1.02631132e-01,  6.89748448e-02,  2.24291897e-01,
  50:..\..\..\liblc3\src/sns.c ****        3.26640741e-01,  3.51850934e-01,  2.93968901e-01,  1.66663915e-01 },
  51:..\..\..\liblc3\src/sns.c **** 
  52:..\..\..\liblc3\src/sns.c ****      { 2.50000000e-01,  2.73300467e-01,  6.89748448e-02, -1.66663915e-01,
  53:..\..\..\liblc3\src/sns.c ****       -3.26640741e-01, -3.38329500e-01, -1.96423740e-01,  3.46542923e-02,
  54:..\..\..\liblc3\src/sns.c ****        2.50000000e-01,  3.51850934e-01,  2.93968901e-01,  1.02631132e-01,
  55:..\..\..\liblc3\src/sns.c ****       -1.35299025e-01, -3.11806253e-01, -3.46759961e-01, -2.24291897e-01 },
  56:..\..\..\liblc3\src/sns.c **** 
  57:..\..\..\liblc3\src/sns.c ****     {  2.50000000e-01,  2.24291897e-01, -6.89748448e-02, -3.11806253e-01,
  58:..\..\..\liblc3\src/sns.c ****       -3.26640741e-01, -1.02631132e-01,  1.96423740e-01,  3.51850934e-01,
  59:..\..\..\liblc3\src/sns.c ****        2.50000000e-01, -3.46542923e-02, -2.93968901e-01, -3.38329500e-01,
  60:..\..\..\liblc3\src/sns.c ****       -1.35299025e-01,  1.66663915e-01,  3.46759961e-01,  2.73300467e-01 },
  61:..\..\..\liblc3\src/sns.c **** 
  62:..\..\..\liblc3\src/sns.c ****     {  2.50000000e-01,  1.66663915e-01, -1.96423740e-01, -3.51850934e-01,
  63:..\..\..\liblc3\src/sns.c ****       -1.35299025e-01,  2.24291897e-01,  3.46759961e-01,  1.02631132e-01,
  64:..\..\..\liblc3\src/sns.c ****       -2.50000000e-01, -3.38329500e-01, -6.89748448e-02,  2.73300467e-01,
  65:..\..\..\liblc3\src/sns.c ****        3.26640741e-01,  3.46542923e-02, -2.93968901e-01, -3.11806253e-01 },
  66:..\..\..\liblc3\src/sns.c **** 
  67:..\..\..\liblc3\src/sns.c ****     {  2.50000000e-01,  1.02631132e-01, -2.93968901e-01, -2.73300467e-01,
  68:..\..\..\liblc3\src/sns.c ****        1.35299025e-01,  3.51850934e-01,  6.89748448e-02, -3.11806253e-01,
  69:..\..\..\liblc3\src/sns.c ****       -2.50000000e-01,  1.66663915e-01,  3.46759961e-01,  3.46542923e-02,
  70:..\..\..\liblc3\src/sns.c ****       -3.26640741e-01, -2.24291897e-01,  1.96423740e-01,  3.38329500e-01 },
  71:..\..\..\liblc3\src/sns.c **** 
  72:..\..\..\liblc3\src/sns.c ****     {  2.50000000e-01,  3.46542923e-02, -3.46759961e-01, -1.02631132e-01,
  73:..\..\..\liblc3\src/sns.c ****        3.26640741e-01,  1.66663915e-01, -2.93968901e-01, -2.24291897e-01,
  74:..\..\..\liblc3\src/sns.c ****        2.50000000e-01,  2.73300467e-01, -1.96423740e-01, -3.11806253e-01,
  75:..\..\..\liblc3\src/sns.c ****        1.35299025e-01,  3.38329500e-01, -6.89748448e-02, -3.51850934e-01 },
  76:..\..\..\liblc3\src/sns.c **** 
  77:..\..\..\liblc3\src/sns.c ****     {  2.50000000e-01, -3.46542923e-02, -3.46759961e-01,  1.02631132e-01,
  78:..\..\..\liblc3\src/sns.c ****        3.26640741e-01, -1.66663915e-01, -2.93968901e-01,  2.24291897e-01,
  79:..\..\..\liblc3\src/sns.c ****        2.50000000e-01, -2.73300467e-01, -1.96423740e-01,  3.11806253e-01,
  80:..\..\..\liblc3\src/sns.c ****        1.35299025e-01, -3.38329500e-01, -6.89748448e-02,  3.51850934e-01 },
  81:..\..\..\liblc3\src/sns.c **** 
  82:..\..\..\liblc3\src/sns.c ****     {  2.50000000e-01, -1.02631132e-01, -2.93968901e-01,  2.73300467e-01,
  83:..\..\..\liblc3\src/sns.c ****        1.35299025e-01, -3.51850934e-01,  6.89748448e-02,  3.11806253e-01,
  84:..\..\..\liblc3\src/sns.c ****       -2.50000000e-01, -1.66663915e-01,  3.46759961e-01, -3.46542923e-02,
  85:..\..\..\liblc3\src/sns.c ****       -3.26640741e-01,  2.24291897e-01,  1.96423740e-01, -3.38329500e-01 },
  86:..\..\..\liblc3\src/sns.c **** 
  87:..\..\..\liblc3\src/sns.c ****     {  2.50000000e-01, -1.66663915e-01, -1.96423740e-01,  3.51850934e-01,
ARM GAS  C:\Users\rdn\AppData\Local\Temp\cc92LAgm.s 			page 3


  88:..\..\..\liblc3\src/sns.c ****       -1.35299025e-01, -2.24291897e-01,  3.46759961e-01, -1.02631132e-01,
  89:..\..\..\liblc3\src/sns.c ****       -2.50000000e-01,  3.38329500e-01, -6.89748448e-02, -2.73300467e-01,
  90:..\..\..\liblc3\src/sns.c ****        3.26640741e-01, -3.46542923e-02, -2.93968901e-01,  3.11806253e-01 },
  91:..\..\..\liblc3\src/sns.c **** 
  92:..\..\..\liblc3\src/sns.c ****     {  2.50000000e-01, -2.24291897e-01, -6.89748448e-02,  3.11806253e-01,
  93:..\..\..\liblc3\src/sns.c ****       -3.26640741e-01,  1.02631132e-01,  1.96423740e-01, -3.51850934e-01,
  94:..\..\..\liblc3\src/sns.c ****        2.50000000e-01,  3.46542923e-02, -2.93968901e-01,  3.38329500e-01,
  95:..\..\..\liblc3\src/sns.c ****       -1.35299025e-01, -1.66663915e-01,  3.46759961e-01, -2.73300467e-01 },
  96:..\..\..\liblc3\src/sns.c **** 
  97:..\..\..\liblc3\src/sns.c ****     {  2.50000000e-01, -2.73300467e-01,  6.89748448e-02,  1.66663915e-01,
  98:..\..\..\liblc3\src/sns.c ****       -3.26640741e-01,  3.38329500e-01, -1.96423740e-01, -3.46542923e-02,
  99:..\..\..\liblc3\src/sns.c ****        2.50000000e-01, -3.51850934e-01,  2.93968901e-01, -1.02631132e-01,
 100:..\..\..\liblc3\src/sns.c ****       -1.35299025e-01,  3.11806253e-01, -3.46759961e-01,  2.24291897e-01 },
 101:..\..\..\liblc3\src/sns.c **** 
 102:..\..\..\liblc3\src/sns.c ****     {  2.50000000e-01, -3.11806253e-01,  1.96423740e-01, -3.46542923e-02,
 103:..\..\..\liblc3\src/sns.c ****       -1.35299025e-01,  2.73300467e-01, -3.46759961e-01,  3.38329500e-01,
 104:..\..\..\liblc3\src/sns.c ****       -2.50000000e-01,  1.02631132e-01,  6.89748448e-02, -2.24291897e-01,
 105:..\..\..\liblc3\src/sns.c ****        3.26640741e-01, -3.51850934e-01,  2.93968901e-01, -1.66663915e-01 },
 106:..\..\..\liblc3\src/sns.c **** 
 107:..\..\..\liblc3\src/sns.c ****     {  2.50000000e-01, -3.38329500e-01,  2.93968901e-01, -2.24291897e-01,
 108:..\..\..\liblc3\src/sns.c ****        1.35299025e-01, -3.46542923e-02, -6.89748448e-02,  1.66663915e-01,
 109:..\..\..\liblc3\src/sns.c ****       -2.50000000e-01,  3.11806253e-01, -3.46759961e-01,  3.51850934e-01,
 110:..\..\..\liblc3\src/sns.c ****       -3.26640741e-01,  2.73300467e-01, -1.96423740e-01,  1.02631132e-01 },
 111:..\..\..\liblc3\src/sns.c **** 
 112:..\..\..\liblc3\src/sns.c ****     {  2.50000000e-01, -3.51850934e-01,  3.46759961e-01, -3.38329500e-01,
 113:..\..\..\liblc3\src/sns.c ****        3.26640741e-01, -3.11806253e-01,  2.93968901e-01, -2.73300467e-01,
 114:..\..\..\liblc3\src/sns.c ****        2.50000000e-01, -2.24291897e-01,  1.96423740e-01, -1.66663915e-01,
 115:..\..\..\liblc3\src/sns.c ****        1.35299025e-01, -1.02631132e-01,  6.89748448e-02, -3.46542923e-02 },
 116:..\..\..\liblc3\src/sns.c **** 
 117:..\..\..\liblc3\src/sns.c **** };
 118:..\..\..\liblc3\src/sns.c **** 
 119:..\..\..\liblc3\src/sns.c **** /**
 120:..\..\..\liblc3\src/sns.c ****  * Forward DCT-16 transformation
 121:..\..\..\liblc3\src/sns.c ****  * x, y            Input and output 16 values
 122:..\..\..\liblc3\src/sns.c ****  */
 123:..\..\..\liblc3\src/sns.c **** LC3_HOT static void dct16_forward(const float *x, float *y)
 124:..\..\..\liblc3\src/sns.c **** {
 125:..\..\..\liblc3\src/sns.c ****     for (int i = 0, j; i < 16; i++)
 126:..\..\..\liblc3\src/sns.c ****         for (y[i] = 0, j = 0; j < 16; j++)
 127:..\..\..\liblc3\src/sns.c ****             y[i] += x[j] * dct16_m[j][i];
 128:..\..\..\liblc3\src/sns.c **** }
 129:..\..\..\liblc3\src/sns.c **** 
 130:..\..\..\liblc3\src/sns.c **** /**
 131:..\..\..\liblc3\src/sns.c ****  * Inverse DCT-16 transformation
 132:..\..\..\liblc3\src/sns.c ****  * x, y            Input and output 16 values
 133:..\..\..\liblc3\src/sns.c ****  */
 134:..\..\..\liblc3\src/sns.c **** LC3_HOT static void dct16_inverse(const float *x, float *y)
 135:..\..\..\liblc3\src/sns.c **** {
 136:..\..\..\liblc3\src/sns.c ****     for (int i = 0, j; i < 16; i++)
 137:..\..\..\liblc3\src/sns.c ****         for (y[i] = 0, j = 0; j < 16; j++)
 138:..\..\..\liblc3\src/sns.c ****             y[i] += x[j] * dct16_m[i][j];
 139:..\..\..\liblc3\src/sns.c **** }
 140:..\..\..\liblc3\src/sns.c **** 
 141:..\..\..\liblc3\src/sns.c **** 
 142:..\..\..\liblc3\src/sns.c **** /* ----------------------------------------------------------------------------
 143:..\..\..\liblc3\src/sns.c ****  *  Scale factors
 144:..\..\..\liblc3\src/sns.c ****  * -------------------------------------------------------------------------- */
ARM GAS  C:\Users\rdn\AppData\Local\Temp\cc92LAgm.s 			page 4


 145:..\..\..\liblc3\src/sns.c **** 
 146:..\..\..\liblc3\src/sns.c **** /**
 147:..\..\..\liblc3\src/sns.c ****  * Scale factors
 148:..\..\..\liblc3\src/sns.c ****  * dt, sr          Duration and samplerate of the frame
 149:..\..\..\liblc3\src/sns.c ****  * nbytes          Size in bytes of the frame
 150:..\..\..\liblc3\src/sns.c ****  * eb              Energy estimation per bands
 151:..\..\..\liblc3\src/sns.c ****  * att             1: Attack detected  0: Otherwise
 152:..\..\..\liblc3\src/sns.c ****  * scf             Output 16 scale factors
 153:..\..\..\liblc3\src/sns.c ****  */
 154:..\..\..\liblc3\src/sns.c **** LC3_HOT static void compute_scale_factors(
 155:..\..\..\liblc3\src/sns.c ****     enum lc3_dt dt, enum lc3_srate sr, int nbytes,
 156:..\..\..\liblc3\src/sns.c ****     const float *eb, bool att, float *scf)
 157:..\..\..\liblc3\src/sns.c **** {
 158:..\..\..\liblc3\src/sns.c ****     /* Pre-emphasis gain table :
 159:..\..\..\liblc3\src/sns.c ****      * Ge[b] = 10 ^ (b * g_tilt) / 630 , b = [0..63] */
 160:..\..\..\liblc3\src/sns.c **** 
 161:..\..\..\liblc3\src/sns.c ****     static const float ge_14[LC3_MAX_BANDS] = { /* g_tilt = 14 */
 162:..\..\..\liblc3\src/sns.c ****         1.00000000e+00, 1.05250029e+00, 1.10775685e+00, 1.16591440e+00,
 163:..\..\..\liblc3\src/sns.c ****         1.22712524e+00, 1.29154967e+00, 1.35935639e+00, 1.43072299e+00,
 164:..\..\..\liblc3\src/sns.c ****         1.50583635e+00, 1.58489319e+00, 1.66810054e+00, 1.75567629e+00,
 165:..\..\..\liblc3\src/sns.c ****         1.84784980e+00, 1.94486244e+00, 2.04696827e+00, 2.15443469e+00,
 166:..\..\..\liblc3\src/sns.c ****         2.26754313e+00, 2.38658979e+00, 2.51188643e+00, 2.64376119e+00,
 167:..\..\..\liblc3\src/sns.c ****         2.78255940e+00, 2.92864456e+00, 3.08239924e+00, 3.24422608e+00,
 168:..\..\..\liblc3\src/sns.c ****         3.41454887e+00, 3.59381366e+00, 3.78248991e+00, 3.98107171e+00,
 169:..\..\..\liblc3\src/sns.c ****         4.19007911e+00, 4.41005945e+00, 4.64158883e+00, 4.88527357e+00,
 170:..\..\..\liblc3\src/sns.c ****         5.14175183e+00, 5.41169527e+00, 5.69581081e+00, 5.99484250e+00,
 171:..\..\..\liblc3\src/sns.c ****         6.30957344e+00, 6.64082785e+00, 6.98947321e+00, 7.35642254e+00,
 172:..\..\..\liblc3\src/sns.c ****         7.74263683e+00, 8.14912747e+00, 8.57695899e+00, 9.02725178e+00,
 173:..\..\..\liblc3\src/sns.c ****         9.50118507e+00, 1.00000000e+01, 1.05250029e+01, 1.10775685e+01,
 174:..\..\..\liblc3\src/sns.c ****         1.16591440e+01, 1.22712524e+01, 1.29154967e+01, 1.35935639e+01,
 175:..\..\..\liblc3\src/sns.c ****         1.43072299e+01, 1.50583635e+01, 1.58489319e+01, 1.66810054e+01,
 176:..\..\..\liblc3\src/sns.c ****         1.75567629e+01, 1.84784980e+01, 1.94486244e+01, 2.04696827e+01,
 177:..\..\..\liblc3\src/sns.c ****         2.15443469e+01, 2.26754313e+01, 2.38658979e+01, 2.51188643e+01 };
 178:..\..\..\liblc3\src/sns.c **** 
 179:..\..\..\liblc3\src/sns.c ****     static const float ge_18[LC3_MAX_BANDS] = { /* g_tilt = 18 */
 180:..\..\..\liblc3\src/sns.c ****         1.00000000e+00, 1.06800043e+00, 1.14062492e+00, 1.21818791e+00,
 181:..\..\..\liblc3\src/sns.c ****         1.30102522e+00, 1.38949549e+00, 1.48398179e+00, 1.58489319e+00,
 182:..\..\..\liblc3\src/sns.c ****         1.69266662e+00, 1.80776868e+00, 1.93069773e+00, 2.06198601e+00,
 183:..\..\..\liblc3\src/sns.c ****         2.20220195e+00, 2.35195264e+00, 2.51188643e+00, 2.68269580e+00,
 184:..\..\..\liblc3\src/sns.c ****         2.86512027e+00, 3.05994969e+00, 3.26802759e+00, 3.49025488e+00,
 185:..\..\..\liblc3\src/sns.c ****         3.72759372e+00, 3.98107171e+00, 4.25178630e+00, 4.54090961e+00,
 186:..\..\..\liblc3\src/sns.c ****         4.84969343e+00, 5.17947468e+00, 5.53168120e+00, 5.90783791e+00,
 187:..\..\..\liblc3\src/sns.c ****         6.30957344e+00, 6.73862717e+00, 7.19685673e+00, 7.68624610e+00,
 188:..\..\..\liblc3\src/sns.c ****         8.20891416e+00, 8.76712387e+00, 9.36329209e+00, 1.00000000e+01,
 189:..\..\..\liblc3\src/sns.c ****         1.06800043e+01, 1.14062492e+01, 1.21818791e+01, 1.30102522e+01,
 190:..\..\..\liblc3\src/sns.c ****         1.38949549e+01, 1.48398179e+01, 1.58489319e+01, 1.69266662e+01,
 191:..\..\..\liblc3\src/sns.c ****         1.80776868e+01, 1.93069773e+01, 2.06198601e+01, 2.20220195e+01,
 192:..\..\..\liblc3\src/sns.c ****         2.35195264e+01, 2.51188643e+01, 2.68269580e+01, 2.86512027e+01,
 193:..\..\..\liblc3\src/sns.c ****         3.05994969e+01, 3.26802759e+01, 3.49025488e+01, 3.72759372e+01,
 194:..\..\..\liblc3\src/sns.c ****         3.98107171e+01, 4.25178630e+01, 4.54090961e+01, 4.84969343e+01,
 195:..\..\..\liblc3\src/sns.c ****         5.17947468e+01, 5.53168120e+01, 5.90783791e+01, 6.30957344e+01 };
 196:..\..\..\liblc3\src/sns.c **** 
 197:..\..\..\liblc3\src/sns.c ****     static const float ge_22[LC3_MAX_BANDS] = { /* g_tilt = 22 */
 198:..\..\..\liblc3\src/sns.c ****         1.00000000e+00, 1.08372885e+00, 1.17446822e+00, 1.27280509e+00,
 199:..\..\..\liblc3\src/sns.c ****         1.37937560e+00, 1.49486913e+00, 1.62003281e+00, 1.75567629e+00,
 200:..\..\..\liblc3\src/sns.c ****         1.90267705e+00, 2.06198601e+00, 2.23463373e+00, 2.42173704e+00,
 201:..\..\..\liblc3\src/sns.c ****         2.62450630e+00, 2.84425319e+00, 3.08239924e+00, 3.34048498e+00,
ARM GAS  C:\Users\rdn\AppData\Local\Temp\cc92LAgm.s 			page 5


 202:..\..\..\liblc3\src/sns.c ****         3.62017995e+00, 3.92329345e+00, 4.25178630e+00, 4.60778348e+00,
 203:..\..\..\liblc3\src/sns.c ****         4.99358789e+00, 5.41169527e+00, 5.86481029e+00, 6.35586411e+00,
 204:..\..\..\liblc3\src/sns.c ****         6.88803330e+00, 7.46476041e+00, 8.08977621e+00, 8.76712387e+00,
 205:..\..\..\liblc3\src/sns.c ****         9.50118507e+00, 1.02967084e+01, 1.11588399e+01, 1.20931568e+01,
 206:..\..\..\liblc3\src/sns.c ****         1.31057029e+01, 1.42030283e+01, 1.53922315e+01, 1.66810054e+01,
 207:..\..\..\liblc3\src/sns.c ****         1.80776868e+01, 1.95913107e+01, 2.12316686e+01, 2.30093718e+01,
 208:..\..\..\liblc3\src/sns.c ****         2.49359200e+01, 2.70237760e+01, 2.92864456e+01, 3.17385661e+01,
 209:..\..\..\liblc3\src/sns.c ****         3.43959997e+01, 3.72759372e+01, 4.03970086e+01, 4.37794036e+01,
 210:..\..\..\liblc3\src/sns.c ****         4.74450028e+01, 5.14175183e+01, 5.57226480e+01, 6.03882412e+01,
 211:..\..\..\liblc3\src/sns.c ****         6.54444792e+01, 7.09240702e+01, 7.68624610e+01, 8.32980665e+01,
 212:..\..\..\liblc3\src/sns.c ****         9.02725178e+01, 9.78309319e+01, 1.06022203e+02, 1.14899320e+02,
 213:..\..\..\liblc3\src/sns.c ****         1.24519708e+02, 1.34945600e+02, 1.46244440e+02, 1.58489319e+02 };
 214:..\..\..\liblc3\src/sns.c **** 
 215:..\..\..\liblc3\src/sns.c ****     static const float ge_26[LC3_MAX_BANDS] = { /* g_tilt = 26 */
 216:..\..\..\liblc3\src/sns.c ****         1.00000000e+00, 1.09968890e+00, 1.20931568e+00, 1.32987103e+00,
 217:..\..\..\liblc3\src/sns.c ****         1.46244440e+00, 1.60823388e+00, 1.76855694e+00, 1.94486244e+00,
 218:..\..\..\liblc3\src/sns.c ****         2.13874364e+00, 2.35195264e+00, 2.58641621e+00, 2.84425319e+00,
 219:..\..\..\liblc3\src/sns.c ****         3.12779366e+00, 3.43959997e+00, 3.78248991e+00, 4.15956216e+00,
 220:..\..\..\liblc3\src/sns.c ****         4.57422434e+00, 5.03022373e+00, 5.53168120e+00, 6.08312841e+00,
 221:..\..\..\liblc3\src/sns.c ****         6.68954879e+00, 7.35642254e+00, 8.08977621e+00, 8.89623710e+00,
 222:..\..\..\liblc3\src/sns.c ****         9.78309319e+00, 1.07583590e+01, 1.18308480e+01, 1.30102522e+01,
 223:..\..\..\liblc3\src/sns.c ****         1.43072299e+01, 1.57335019e+01, 1.73019574e+01, 1.90267705e+01,
 224:..\..\..\liblc3\src/sns.c ****         2.09235283e+01, 2.30093718e+01, 2.53031508e+01, 2.78255940e+01,
 225:..\..\..\liblc3\src/sns.c ****         3.05994969e+01, 3.36499270e+01, 3.70044512e+01, 4.06933843e+01,
 226:..\..\..\liblc3\src/sns.c ****         4.47500630e+01, 4.92111475e+01, 5.41169527e+01, 5.95118121e+01,
 227:..\..\..\liblc3\src/sns.c ****         6.54444792e+01, 7.19685673e+01, 7.91430346e+01, 8.70327166e+01,
 228:..\..\..\liblc3\src/sns.c ****         9.57089124e+01, 1.05250029e+02, 1.15742288e+02, 1.27280509e+02,
 229:..\..\..\liblc3\src/sns.c ****         1.39968963e+02, 1.53922315e+02, 1.69266662e+02, 1.86140669e+02,
 230:..\..\..\liblc3\src/sns.c ****         2.04696827e+02, 2.25102829e+02, 2.47543082e+02, 2.72220379e+02,
 231:..\..\..\liblc3\src/sns.c ****         2.99357729e+02, 3.29200372e+02, 3.62017995e+02, 3.98107171e+02 };
 232:..\..\..\liblc3\src/sns.c **** 
 233:..\..\..\liblc3\src/sns.c ****     static const float ge_30[LC3_MAX_BANDS] = { /* g_tilt = 30 */
 234:..\..\..\liblc3\src/sns.c ****         1.00000000e+00, 1.11588399e+00, 1.24519708e+00, 1.38949549e+00,
 235:..\..\..\liblc3\src/sns.c ****         1.55051578e+00, 1.73019574e+00, 1.93069773e+00, 2.15443469e+00,
 236:..\..\..\liblc3\src/sns.c ****         2.40409918e+00, 2.68269580e+00, 2.99357729e+00, 3.34048498e+00,
 237:..\..\..\liblc3\src/sns.c ****         3.72759372e+00, 4.15956216e+00, 4.64158883e+00, 5.17947468e+00,
 238:..\..\..\liblc3\src/sns.c ****         5.77969288e+00, 6.44946677e+00, 7.19685673e+00, 8.03085722e+00,
 239:..\..\..\liblc3\src/sns.c ****         8.96150502e+00, 1.00000000e+01, 1.11588399e+01, 1.24519708e+01,
 240:..\..\..\liblc3\src/sns.c ****         1.38949549e+01, 1.55051578e+01, 1.73019574e+01, 1.93069773e+01,
 241:..\..\..\liblc3\src/sns.c ****         2.15443469e+01, 2.40409918e+01, 2.68269580e+01, 2.99357729e+01,
 242:..\..\..\liblc3\src/sns.c ****         3.34048498e+01, 3.72759372e+01, 4.15956216e+01, 4.64158883e+01,
 243:..\..\..\liblc3\src/sns.c ****         5.17947468e+01, 5.77969288e+01, 6.44946677e+01, 7.19685673e+01,
 244:..\..\..\liblc3\src/sns.c ****         8.03085722e+01, 8.96150502e+01, 1.00000000e+02, 1.11588399e+02,
 245:..\..\..\liblc3\src/sns.c ****         1.24519708e+02, 1.38949549e+02, 1.55051578e+02, 1.73019574e+02,
 246:..\..\..\liblc3\src/sns.c ****         1.93069773e+02, 2.15443469e+02, 2.40409918e+02, 2.68269580e+02,
 247:..\..\..\liblc3\src/sns.c ****         2.99357729e+02, 3.34048498e+02, 3.72759372e+02, 4.15956216e+02,
 248:..\..\..\liblc3\src/sns.c ****         4.64158883e+02, 5.17947468e+02, 5.77969288e+02, 6.44946677e+02,
 249:..\..\..\liblc3\src/sns.c ****         7.19685673e+02, 8.03085722e+02, 8.96150502e+02, 1.00000000e+03 };
 250:..\..\..\liblc3\src/sns.c **** 
 251:..\..\..\liblc3\src/sns.c **** #if LC3_PLUS_HR
 252:..\..\..\liblc3\src/sns.c **** 
 253:..\..\..\liblc3\src/sns.c ****     static const float ge_34[LC3_MAX_BANDS] = { /* g_tilt = 34 */
 254:..\..\..\liblc3\src/sns.c ****         1.00000000e+00, 1.13231759e+00, 1.28214312e+00, 1.45179321e+00,
 255:..\..\..\liblc3\src/sns.c ****         1.64389099e+00, 1.86140669e+00, 2.10770353e+00, 2.38658979e+00,
 256:..\..\..\liblc3\src/sns.c ****         2.70237760e+00, 3.05994969e+00, 3.46483486e+00, 3.92329345e+00,
 257:..\..\..\liblc3\src/sns.c ****         4.44241419e+00, 5.03022373e+00, 5.69581081e+00, 6.44946677e+00,
 258:..\..\..\liblc3\src/sns.c ****         7.30284467e+00, 8.26913948e+00, 9.36329209e+00, 1.06022203e+01,
ARM GAS  C:\Users\rdn\AppData\Local\Temp\cc92LAgm.s 			page 6


 259:..\..\..\liblc3\src/sns.c ****         1.20050806e+01, 1.35935639e+01, 1.53922315e+01, 1.74288945e+01,
 260:..\..\..\liblc3\src/sns.c ****         1.97350438e+01, 2.23463373e+01, 2.53031508e+01, 2.86512027e+01,
 261:..\..\..\liblc3\src/sns.c ****         3.24422608e+01, 3.67349426e+01, 4.15956216e+01, 4.70994540e+01,
 262:..\..\..\liblc3\src/sns.c ****         5.33315403e+01, 6.03882412e+01, 6.83786677e+01, 7.74263683e+01,
 263:..\..\..\liblc3\src/sns.c ****         8.76712387e+01, 9.92716858e+01, 1.12407076e+02, 1.27280509e+02,
 264:..\..\..\liblc3\src/sns.c ****         1.44121960e+02, 1.63191830e+02, 1.84784980e+02, 2.09235283e+02,
 265:..\..\..\liblc3\src/sns.c ****         2.36920791e+02, 2.68269580e+02, 3.03766364e+02, 3.43959997e+02,
 266:..\..\..\liblc3\src/sns.c ****         3.89471955e+02, 4.41005945e+02, 4.99358789e+02, 5.65432741e+02,
 267:..\..\..\liblc3\src/sns.c ****         6.40249439e+02, 7.24965701e+02, 8.20891416e+02, 9.29509790e+02,
 268:..\..\..\liblc3\src/sns.c ****         1.05250029e+03, 1.19176459e+03, 1.34945600e+03, 1.52801277e+03,
 269:..\..\..\liblc3\src/sns.c ****         1.73019574e+03, 1.95913107e+03, 2.21835857e+03, 2.51188643e+03 };
 270:..\..\..\liblc3\src/sns.c **** 
 271:..\..\..\liblc3\src/sns.c **** #endif /* LC3_PLUS_HR */
 272:..\..\..\liblc3\src/sns.c **** 
 273:..\..\..\liblc3\src/sns.c ****     static const float *ge_table[LC3_NUM_SRATE] = {
 274:..\..\..\liblc3\src/sns.c ****         [LC3_SRATE_8K    ] = ge_14, [LC3_SRATE_16K   ] = ge_18,
 275:..\..\..\liblc3\src/sns.c ****         [LC3_SRATE_24K   ] = ge_22, [LC3_SRATE_32K   ] = ge_26,
 276:..\..\..\liblc3\src/sns.c ****         [LC3_SRATE_48K   ] = ge_30,
 277:..\..\..\liblc3\src/sns.c **** 
 278:..\..\..\liblc3\src/sns.c **** #if LC3_PLUS_HR
 279:..\..\..\liblc3\src/sns.c ****         [LC3_SRATE_48K_HR] = ge_30, [LC3_SRATE_96K_HR] = ge_34,
 280:..\..\..\liblc3\src/sns.c **** #endif /* LC3_PLUS_HR */
 281:..\..\..\liblc3\src/sns.c **** 
 282:..\..\..\liblc3\src/sns.c ****     };
 283:..\..\..\liblc3\src/sns.c **** 
 284:..\..\..\liblc3\src/sns.c ****     float e[LC3_MAX_BANDS];
 285:..\..\..\liblc3\src/sns.c **** 
 286:..\..\..\liblc3\src/sns.c ****     /* --- Copy and padding --- */
 287:..\..\..\liblc3\src/sns.c **** 
 288:..\..\..\liblc3\src/sns.c ****     int nb = lc3_num_bands[dt][sr];
 289:..\..\..\liblc3\src/sns.c ****     int n4 = nb < 32 ? 32 % nb : 0;
 290:..\..\..\liblc3\src/sns.c ****     int n2 = nb < 32 ? nb - n4 : LC3_MAX_BANDS - nb;
 291:..\..\..\liblc3\src/sns.c **** 
 292:..\..\..\liblc3\src/sns.c ****     for (int i4 = 0; i4 < n4; i4++)
 293:..\..\..\liblc3\src/sns.c ****         e[4*i4 + 0] = e[4*i4 + 1] =
 294:..\..\..\liblc3\src/sns.c ****         e[4*i4 + 2] = e[4*i4 + 3] = eb[i4];
 295:..\..\..\liblc3\src/sns.c **** 
 296:..\..\..\liblc3\src/sns.c ****     for (int i2 = n4; i2 < n4+n2; i2++)
 297:..\..\..\liblc3\src/sns.c ****         e[2*(n4+i2) + 0] = e[2*(n4+i2) + 1] = eb[i2];
 298:..\..\..\liblc3\src/sns.c **** 
 299:..\..\..\liblc3\src/sns.c ****     memcpy(e + 4*n4 + 2*n2, eb + n4 + n2, (nb - n4 - n2) * sizeof(float));
 300:..\..\..\liblc3\src/sns.c **** 
 301:..\..\..\liblc3\src/sns.c ****     /* --- Smoothing, pre-emphasis and logarithm --- */
 302:..\..\..\liblc3\src/sns.c **** 
 303:..\..\..\liblc3\src/sns.c ****     const float *ge = ge_table[sr];
 304:..\..\..\liblc3\src/sns.c **** 
 305:..\..\..\liblc3\src/sns.c ****     float e0 = e[0], e1 = e[0], e2;
 306:..\..\..\liblc3\src/sns.c ****     float e_sum = 0;
 307:..\..\..\liblc3\src/sns.c **** 
 308:..\..\..\liblc3\src/sns.c ****     for (int i = 0; i < LC3_MAX_BANDS-1; ) {
 309:..\..\..\liblc3\src/sns.c ****         e[i] = (e0 * 0.25f + e1 * 0.5f + (e2 = e[i+1]) * 0.25f) * ge[i];
 310:..\..\..\liblc3\src/sns.c ****         e_sum += e[i++];
 311:..\..\..\liblc3\src/sns.c **** 
 312:..\..\..\liblc3\src/sns.c ****         e[i] = (e1 * 0.25f + e2 * 0.5f + (e0 = e[i+1]) * 0.25f) * ge[i];
 313:..\..\..\liblc3\src/sns.c ****         e_sum += e[i++];
 314:..\..\..\liblc3\src/sns.c **** 
 315:..\..\..\liblc3\src/sns.c ****         e[i] = (e2 * 0.25f + e0 * 0.5f + (e1 = e[i+1]) * 0.25f) * ge[i];
ARM GAS  C:\Users\rdn\AppData\Local\Temp\cc92LAgm.s 			page 7


 316:..\..\..\liblc3\src/sns.c ****         e_sum += e[i++];
 317:..\..\..\liblc3\src/sns.c ****     }
 318:..\..\..\liblc3\src/sns.c **** 
 319:..\..\..\liblc3\src/sns.c ****     e[LC3_MAX_BANDS-1] = (e0 * 0.25f + e1 * 0.75f) * ge[LC3_MAX_BANDS-1];
 320:..\..\..\liblc3\src/sns.c ****     e_sum += e[LC3_MAX_BANDS-1];
 321:..\..\..\liblc3\src/sns.c **** 
 322:..\..\..\liblc3\src/sns.c ****     float noise_floor = fmaxf(e_sum * (1e-4f / 64), 0x1p-32f);
 323:..\..\..\liblc3\src/sns.c **** 
 324:..\..\..\liblc3\src/sns.c ****     for (int i = 0; i < LC3_MAX_BANDS; i++)
 325:..\..\..\liblc3\src/sns.c ****         e[i] = lc3_log2f(fmaxf(e[i], noise_floor)) * 0.5f;
 326:..\..\..\liblc3\src/sns.c **** 
 327:..\..\..\liblc3\src/sns.c ****     /* --- Grouping & scaling --- */
 328:..\..\..\liblc3\src/sns.c **** 
 329:..\..\..\liblc3\src/sns.c ****     float scf_sum;
 330:..\..\..\liblc3\src/sns.c **** 
 331:..\..\..\liblc3\src/sns.c ****     scf[0] = (e[0] + e[4]) * 1.f/12 +
 332:..\..\..\liblc3\src/sns.c ****              (e[0] + e[3]) * 2.f/12 +
 333:..\..\..\liblc3\src/sns.c ****              (e[1] + e[2]) * 3.f/12  ;
 334:..\..\..\liblc3\src/sns.c ****     scf_sum = scf[0];
 335:..\..\..\liblc3\src/sns.c **** 
 336:..\..\..\liblc3\src/sns.c ****     for (int i = 1; i < 15; i++) {
 337:..\..\..\liblc3\src/sns.c ****         scf[i] = (e[4*i-1] + e[4*i+4]) * 1.f/12 +
 338:..\..\..\liblc3\src/sns.c ****                  (e[4*i  ] + e[4*i+3]) * 2.f/12 +
 339:..\..\..\liblc3\src/sns.c ****                  (e[4*i+1] + e[4*i+2]) * 3.f/12  ;
 340:..\..\..\liblc3\src/sns.c ****         scf_sum += scf[i];
 341:..\..\..\liblc3\src/sns.c ****     }
 342:..\..\..\liblc3\src/sns.c **** 
 343:..\..\..\liblc3\src/sns.c ****     scf[15] = (e[59] + e[63]) * 1.f/12 +
 344:..\..\..\liblc3\src/sns.c ****               (e[60] + e[63]) * 2.f/12 +
 345:..\..\..\liblc3\src/sns.c ****               (e[61] + e[62]) * 3.f/12  ;
 346:..\..\..\liblc3\src/sns.c ****     scf_sum += scf[15];
 347:..\..\..\liblc3\src/sns.c **** 
 348:..\..\..\liblc3\src/sns.c ****     float cf = lc3_hr(sr) ? 0.6f : 0.85f;
 349:..\..\..\liblc3\src/sns.c ****     if (lc3_hr(sr) && 8 * nbytes >
 350:..\..\..\liblc3\src/sns.c ****             (dt < LC3_DT_10M ? 1150 * (int)(1 + dt) : 4400))
 351:..\..\..\liblc3\src/sns.c ****         cf *= dt < LC3_DT_10M ? 0.25f : 0.35f;
 352:..\..\..\liblc3\src/sns.c **** 
 353:..\..\..\liblc3\src/sns.c ****     for (int i = 0; i < 16; i++)
 354:..\..\..\liblc3\src/sns.c ****         scf[i] = cf * (scf[i] - scf_sum * 1.f/16);
 355:..\..\..\liblc3\src/sns.c **** 
 356:..\..\..\liblc3\src/sns.c ****     /* --- Attack handling --- */
 357:..\..\..\liblc3\src/sns.c **** 
 358:..\..\..\liblc3\src/sns.c ****     if (!att)
 359:..\..\..\liblc3\src/sns.c ****         return;
 360:..\..\..\liblc3\src/sns.c **** 
 361:..\..\..\liblc3\src/sns.c ****     float s0, s1 = scf[0], s2 = scf[1], s3 = scf[2], s4 = scf[3];
 362:..\..\..\liblc3\src/sns.c ****     float sn = s1 + s2;
 363:..\..\..\liblc3\src/sns.c **** 
 364:..\..\..\liblc3\src/sns.c ****     scf[0] = (sn += s3) * 1.f/3;
 365:..\..\..\liblc3\src/sns.c ****     scf[1] = (sn += s4) * 1.f/4;
 366:..\..\..\liblc3\src/sns.c ****     scf_sum = scf[0] + scf[1];
 367:..\..\..\liblc3\src/sns.c **** 
 368:..\..\..\liblc3\src/sns.c ****     for (int i = 2; i < 14; i++, sn -= s0) {
 369:..\..\..\liblc3\src/sns.c ****         s0 = s1, s1 = s2, s2 = s3, s3 = s4, s4 = scf[i+2];
 370:..\..\..\liblc3\src/sns.c ****         scf[i] = (sn += s4) * 1.f/5;
 371:..\..\..\liblc3\src/sns.c ****         scf_sum += scf[i];
 372:..\..\..\liblc3\src/sns.c ****     }
ARM GAS  C:\Users\rdn\AppData\Local\Temp\cc92LAgm.s 			page 8


 373:..\..\..\liblc3\src/sns.c **** 
 374:..\..\..\liblc3\src/sns.c ****     scf[14] = (sn      ) * 1.f/4;
 375:..\..\..\liblc3\src/sns.c ****     scf[15] = (sn -= s1) * 1.f/3;
 376:..\..\..\liblc3\src/sns.c ****     scf_sum += scf[14] + scf[15];
 377:..\..\..\liblc3\src/sns.c **** 
 378:..\..\..\liblc3\src/sns.c ****     for (int i = 0; i < 16; i++)
 379:..\..\..\liblc3\src/sns.c ****         scf[i] = (dt == LC3_DT_7M5 ? 0.3f : 0.5f) *
 380:..\..\..\liblc3\src/sns.c ****                  (scf[i] - scf_sum * 1.f/16);
 381:..\..\..\liblc3\src/sns.c **** }
 382:..\..\..\liblc3\src/sns.c **** 
 383:..\..\..\liblc3\src/sns.c **** /**
 384:..\..\..\liblc3\src/sns.c ****  * Codebooks
 385:..\..\..\liblc3\src/sns.c ****  * scf             Input 16 scale factors
 386:..\..\..\liblc3\src/sns.c ****  * lf/hfcb_idx     Output the low and high frequency codebooks index
 387:..\..\..\liblc3\src/sns.c ****  */
 388:..\..\..\liblc3\src/sns.c **** LC3_HOT static void resolve_codebooks(
 389:..\..\..\liblc3\src/sns.c ****     const float *scf, int *lfcb_idx, int *hfcb_idx)
 390:..\..\..\liblc3\src/sns.c **** {
 391:..\..\..\liblc3\src/sns.c ****     float dlfcb_max = 0, dhfcb_max = 0;
 392:..\..\..\liblc3\src/sns.c ****     *lfcb_idx = *hfcb_idx = 0;
 393:..\..\..\liblc3\src/sns.c **** 
 394:..\..\..\liblc3\src/sns.c ****     for (int icb = 0; icb < 32; icb++) {
 395:..\..\..\liblc3\src/sns.c ****         const float *lfcb = lc3_sns_lfcb[icb];
 396:..\..\..\liblc3\src/sns.c ****         const float *hfcb = lc3_sns_hfcb[icb];
 397:..\..\..\liblc3\src/sns.c ****         float dlfcb = 0, dhfcb = 0;
 398:..\..\..\liblc3\src/sns.c **** 
 399:..\..\..\liblc3\src/sns.c ****         for (int i = 0; i < 8; i++) {
 400:..\..\..\liblc3\src/sns.c ****             dlfcb += (scf[  i] - lfcb[i]) * (scf[  i] - lfcb[i]);
 401:..\..\..\liblc3\src/sns.c ****             dhfcb += (scf[8+i] - hfcb[i]) * (scf[8+i] - hfcb[i]);
 402:..\..\..\liblc3\src/sns.c ****         }
 403:..\..\..\liblc3\src/sns.c **** 
 404:..\..\..\liblc3\src/sns.c ****         if (icb == 0 || dlfcb < dlfcb_max)
 405:..\..\..\liblc3\src/sns.c ****             *lfcb_idx = icb, dlfcb_max = dlfcb;
 406:..\..\..\liblc3\src/sns.c **** 
 407:..\..\..\liblc3\src/sns.c ****         if (icb == 0 || dhfcb < dhfcb_max)
 408:..\..\..\liblc3\src/sns.c ****             *hfcb_idx = icb, dhfcb_max = dhfcb;
 409:..\..\..\liblc3\src/sns.c ****     }
 410:..\..\..\liblc3\src/sns.c **** }
 411:..\..\..\liblc3\src/sns.c **** 
 412:..\..\..\liblc3\src/sns.c **** /**
 413:..\..\..\liblc3\src/sns.c ****  * Unit energy normalize pulse configuration
 414:..\..\..\liblc3\src/sns.c ****  * c               Pulse configuration
 415:..\..\..\liblc3\src/sns.c ****  * cn              Normalized pulse configuration
 416:..\..\..\liblc3\src/sns.c ****  */
 417:..\..\..\liblc3\src/sns.c **** LC3_HOT static void normalize(const int *c, float *cn)
 418:..\..\..\liblc3\src/sns.c **** {
 419:..\..\..\liblc3\src/sns.c ****     int c2_sum = 0;
 420:..\..\..\liblc3\src/sns.c ****     for (int i = 0; i < 16; i++)
 421:..\..\..\liblc3\src/sns.c ****         c2_sum += c[i] * c[i];
 422:..\..\..\liblc3\src/sns.c **** 
 423:..\..\..\liblc3\src/sns.c ****     float c_norm = 1.f / sqrtf(c2_sum);
 424:..\..\..\liblc3\src/sns.c **** 
 425:..\..\..\liblc3\src/sns.c ****     for (int i = 0; i < 16; i++)
 426:..\..\..\liblc3\src/sns.c ****         cn[i] = c[i] * c_norm;
 427:..\..\..\liblc3\src/sns.c **** }
 428:..\..\..\liblc3\src/sns.c **** 
 429:..\..\..\liblc3\src/sns.c **** /**
ARM GAS  C:\Users\rdn\AppData\Local\Temp\cc92LAgm.s 			page 9


 430:..\..\..\liblc3\src/sns.c ****  * Sub-procedure of `quantize()`, add unit pulse
 431:..\..\..\liblc3\src/sns.c ****  * x, y, n         Transformed residual, and vector of pulses with length
 432:..\..\..\liblc3\src/sns.c ****  * start, end      Current number of pulses, limit to reach
 433:..\..\..\liblc3\src/sns.c ****  * corr, energy    Correlation (x,y) and y energy, updated at output
 434:..\..\..\liblc3\src/sns.c ****  */
 435:..\..\..\liblc3\src/sns.c **** LC3_HOT static void add_pulse(const float *x, int *y, int n,
 436:..\..\..\liblc3\src/sns.c ****     int start, int end, float *corr, float *energy)
 437:..\..\..\liblc3\src/sns.c **** {
  28              		.loc 1 437 0
  29              		.cfi_startproc
  30              		@ args = 12, pretend = 0, frame = 0
  31              		@ frame_needed = 0, uses_anonymous_args = 0
  32              	.LVL0:
  33 0000 2DE9F041 		push	{r4, r5, r6, r7, r8, lr}
  34              		.cfi_def_cfa_offset 24
  35              		.cfi_offset 4, -24
  36              		.cfi_offset 5, -20
  37              		.cfi_offset 6, -16
  38              		.cfi_offset 7, -12
  39              		.cfi_offset 8, -8
  40              		.cfi_offset 14, -4
  41              	.LBB14:
  42              	.LBB15:
 438:..\..\..\liblc3\src/sns.c ****     for (int k = start; k < end; k++) {
 439:..\..\..\liblc3\src/sns.c ****         float best_c2 = (*corr + x[0]) * (*corr + x[0]);
 440:..\..\..\liblc3\src/sns.c ****         float best_e = *energy + 2*y[0] + 1;
  43              		.loc 1 440 0
  44 0004 B7EE005A 		vmov.f32	s10, #1.0e+0
  45              	.LBE15:
  46              	.LBE14:
 437:..\..\..\liblc3\src/sns.c ****     for (int k = start; k < end; k++) {
  47              		.loc 1 437 0
  48 0008 079E     		ldr	r6, [sp, #28]
  49 000a 089F     		ldr	r7, [sp, #32]
  50 000c B0EE454A 		vmov.f32	s8, s10
  51              	.LVL1:
  52              	.L2:
  53              	.LBB21:
 438:..\..\..\liblc3\src/sns.c ****     for (int k = start; k < end; k++) {
  54              		.loc 1 438 0 discriminator 1
  55 0010 069C     		ldr	r4, [sp, #24]
  56 0012 A342     		cmp	r3, r4
  57 0014 5ADA     		bge	.L10
  58              	.LBB19:
  59              		.loc 1 440 0
  60 0016 0C68     		ldr	r4, [r1]
 439:..\..\..\liblc3\src/sns.c ****         float best_e = *energy + 2*y[0] + 1;
  61              		.loc 1 439 0
  62 0018 D6ED005A 		vldr.32	s11, [r6]
  63              		.loc 1 440 0
  64 001c D7ED004A 		vldr.32	s9, [r7]
  65 0020 6400     		lsls	r4, r4, #1
  66 0022 07EE904A 		vmov	s15, r4	@ int
 439:..\..\..\liblc3\src/sns.c ****         float best_e = *energy + 2*y[0] + 1;
  67              		.loc 1 439 0
  68 0026 8046     		mov	r8, r0
  69 0028 F8EC016A 		vldmia.32	r8!, {s13}
ARM GAS  C:\Users\rdn\AppData\Local\Temp\cc92LAgm.s 			page 10


  70              		.loc 1 440 0
  71 002c F8EEE77A 		vcvt.f32.s32	s15, s15
 439:..\..\..\liblc3\src/sns.c ****         float best_e = *energy + 2*y[0] + 1;
  72              		.loc 1 439 0
  73 0030 75EEA66A 		vadd.f32	s13, s11, s13
  74              		.loc 1 440 0
  75 0034 77EEA47A 		vadd.f32	s15, s15, s9
 439:..\..\..\liblc3\src/sns.c ****         float best_e = *energy + 2*y[0] + 1;
  76              		.loc 1 439 0
  77 0038 66EEA66A 		vmul.f32	s13, s13, s13
  78              	.LVL2:
  79              		.loc 1 440 0
  80 003c 77EE857A 		vadd.f32	s15, s15, s10
  81              	.LVL3:
  82              	.LBB16:
 441:..\..\..\liblc3\src/sns.c ****         int nbest = 0;
 442:..\..\..\liblc3\src/sns.c **** 
 443:..\..\..\liblc3\src/sns.c ****         for (int i = 1; i < n; i++) {
  83              		.loc 1 443 0
  84 0040 4FF0010C 		mov	ip, #1
  85              	.LBE16:
 441:..\..\..\liblc3\src/sns.c ****         int nbest = 0;
  86              		.loc 1 441 0
  87 0044 0025     		movs	r5, #0
  88              	.LVL4:
  89              	.L3:
  90              	.LBB18:
  91              		.loc 1 443 0 discriminator 1
  92 0046 9445     		cmp	ip, r2
  93 0048 23DA     		bge	.L11
  94              	.LBB17:
 444:..\..\..\liblc3\src/sns.c ****             float c2 = (*corr + x[i]) * (*corr + x[i]);
 445:..\..\..\liblc3\src/sns.c ****             float e  = *energy + 2*y[i] + 1;
  95              		.loc 1 445 0
  96 004a 51F82C40 		ldr	r4, [r1, ip, lsl #2]
 444:..\..\..\liblc3\src/sns.c ****             float c2 = (*corr + x[i]) * (*corr + x[i]);
  97              		.loc 1 444 0
  98 004e B8EC016A 		vldmia.32	r8!, {s12}
  99              		.loc 1 445 0
 100 0052 6400     		lsls	r4, r4, #1
 101 0054 07EE104A 		vmov	s14, r4	@ int
 102 0058 B8EEC77A 		vcvt.f32.s32	s14, s14
 444:..\..\..\liblc3\src/sns.c ****             float c2 = (*corr + x[i]) * (*corr + x[i]);
 103              		.loc 1 444 0
 104 005c 35EE866A 		vadd.f32	s12, s11, s12
 105              		.loc 1 445 0
 106 0060 37EE247A 		vadd.f32	s14, s14, s9
 444:..\..\..\liblc3\src/sns.c ****             float c2 = (*corr + x[i]) * (*corr + x[i]);
 107              		.loc 1 444 0
 108 0064 26EE066A 		vmul.f32	s12, s12, s12
 109              	.LVL5:
 110              		.loc 1 445 0
 111 0068 37EE047A 		vadd.f32	s14, s14, s8
 112              	.LVL6:
 446:..\..\..\liblc3\src/sns.c **** 
 447:..\..\..\liblc3\src/sns.c ****             if (c2 * best_e > e * best_c2)
 113              		.loc 1 447 0
ARM GAS  C:\Users\rdn\AppData\Local\Temp\cc92LAgm.s 			page 11


 114 006c 27EE863A 		vmul.f32	s6, s15, s12
 115 0070 66EE873A 		vmul.f32	s7, s13, s14
 116 0074 B4EE633A 		vcmp.f32	s6, s7
 117 0078 F1EE10FA 		vmrs	APSR_nzcv, FPSCR
 118 007c C8BF     		it	gt
 119 007e 6546     		movgt	r5, ip
 120              	.LVL7:
 121 0080 C8BF     		it	gt
 122 0082 F0EE477A 		vmovgt.f32	s15, s14
 123              	.LVL8:
 124 0086 C8BF     		it	gt
 125 0088 F0EE466A 		vmovgt.f32	s13, s12
 126              	.LVL9:
 127              	.LBE17:
 443:..\..\..\liblc3\src/sns.c ****             float c2 = (*corr + x[i]) * (*corr + x[i]);
 128              		.loc 1 443 0
 129 008c 0CF1010C 		add	ip, ip, #1
 130              	.LVL10:
 131 0090 D9E7     		b	.L3
 132              	.LVL11:
 133              	.L11:
 134              	.LBE18:
 448:..\..\..\liblc3\src/sns.c ****                 best_c2 = c2, best_e = e, nbest = i;
 449:..\..\..\liblc3\src/sns.c ****         }
 450:..\..\..\liblc3\src/sns.c **** 
 451:..\..\..\liblc3\src/sns.c ****         *corr += x[nbest];
 135              		.loc 1 451 0 discriminator 2
 136 0092 00EB8504 		add	r4, r0, r5, lsl #2
 137 0096 D4ED007A 		vldr.32	s15, [r4]
 138              	.LVL12:
 452:..\..\..\liblc3\src/sns.c ****         *energy += 2*y[nbest] + 1;
 139              		.loc 1 452 0 discriminator 2
 140 009a 51F825C0 		ldr	ip, [r1, r5, lsl #2]
 141              	.LVL13:
 451:..\..\..\liblc3\src/sns.c ****         *energy += 2*y[nbest] + 1;
 142              		.loc 1 451 0 discriminator 2
 143 009e 77EEA57A 		vadd.f32	s15, s15, s11
 144              		.loc 1 452 0 discriminator 2
 145 00a2 4FEA4C04 		lsl	r4, ip, #1
 146 00a6 0134     		adds	r4, r4, #1
 451:..\..\..\liblc3\src/sns.c ****         *energy += 2*y[nbest] + 1;
 147              		.loc 1 451 0 discriminator 2
 148 00a8 C6ED007A 		vstr.32	s15, [r6]
 149              		.loc 1 452 0 discriminator 2
 150 00ac 07EE904A 		vmov	s15, r4	@ int
 151 00b0 97ED007A 		vldr.32	s14, [r7]
 152 00b4 F8EEE77A 		vcvt.f32.s32	s15, s15
 453:..\..\..\liblc3\src/sns.c ****         y[nbest]++;
 153              		.loc 1 453 0 discriminator 2
 154 00b8 0CF10104 		add	r4, ip, #1
 452:..\..\..\liblc3\src/sns.c ****         *energy += 2*y[nbest] + 1;
 155              		.loc 1 452 0 discriminator 2
 156 00bc 77EE277A 		vadd.f32	s15, s14, s15
 157              	.LBE19:
 438:..\..\..\liblc3\src/sns.c ****         float best_c2 = (*corr + x[0]) * (*corr + x[0]);
 158              		.loc 1 438 0 discriminator 2
 159 00c0 0133     		adds	r3, r3, #1
ARM GAS  C:\Users\rdn\AppData\Local\Temp\cc92LAgm.s 			page 12


 160              	.LVL14:
 161              	.LBB20:
 452:..\..\..\liblc3\src/sns.c ****         y[nbest]++;
 162              		.loc 1 452 0 discriminator 2
 163 00c2 C7ED007A 		vstr.32	s15, [r7]
 164              		.loc 1 453 0 discriminator 2
 165 00c6 41F82540 		str	r4, [r1, r5, lsl #2]
 166 00ca A1E7     		b	.L2
 167              	.LVL15:
 168              	.L10:
 169              	.LBE20:
 170              	.LBE21:
 454:..\..\..\liblc3\src/sns.c ****     }
 455:..\..\..\liblc3\src/sns.c **** }
 171              		.loc 1 455 0
 172 00cc BDE8F081 		pop	{r4, r5, r6, r7, r8, pc}
 173              		.cfi_endproc
 174              	.LFE25:
 175              		.size	add_pulse, .-add_pulse
 176              		.section	.text.unquantize,"ax",%progbits
 177              		.align	1
 178              		.thumb
 179              		.thumb_func
 180              		.type	unquantize, %function
 181              	unquantize:
 182              	.LFB27:
 456:..\..\..\liblc3\src/sns.c **** 
 457:..\..\..\liblc3\src/sns.c **** /**
 458:..\..\..\liblc3\src/sns.c ****  * Quantization of codebooks residual
 459:..\..\..\liblc3\src/sns.c ****  * scf             Input 16 scale factors, output quantized version
 460:..\..\..\liblc3\src/sns.c ****  * lf/hfcb_idx     Codebooks index
 461:..\..\..\liblc3\src/sns.c ****  * c, cn           Output 4 pulse configurations candidates, normalized
 462:..\..\..\liblc3\src/sns.c ****  * shape/gain_idx  Output selected shape/gain indexes
 463:..\..\..\liblc3\src/sns.c ****  */
 464:..\..\..\liblc3\src/sns.c **** LC3_HOT static void quantize(const float *scf, int lfcb_idx, int hfcb_idx,
 465:..\..\..\liblc3\src/sns.c ****     int (*c)[16], float (*cn)[16], int *shape_idx, int *gain_idx)
 466:..\..\..\liblc3\src/sns.c **** {
 467:..\..\..\liblc3\src/sns.c ****     /* --- Residual --- */
 468:..\..\..\liblc3\src/sns.c **** 
 469:..\..\..\liblc3\src/sns.c ****     const float *lfcb = lc3_sns_lfcb[lfcb_idx];
 470:..\..\..\liblc3\src/sns.c ****     const float *hfcb = lc3_sns_hfcb[hfcb_idx];
 471:..\..\..\liblc3\src/sns.c ****     float r[16], x[16];
 472:..\..\..\liblc3\src/sns.c **** 
 473:..\..\..\liblc3\src/sns.c ****     for (int i = 0; i < 8; i++) {
 474:..\..\..\liblc3\src/sns.c ****         r[  i] = scf[  i] - lfcb[i];
 475:..\..\..\liblc3\src/sns.c ****         r[8+i] = scf[8+i] - hfcb[i];
 476:..\..\..\liblc3\src/sns.c ****     }
 477:..\..\..\liblc3\src/sns.c **** 
 478:..\..\..\liblc3\src/sns.c ****     dct16_forward(r, x);
 479:..\..\..\liblc3\src/sns.c **** 
 480:..\..\..\liblc3\src/sns.c ****     /* --- Shape 3 candidate ---
 481:..\..\..\liblc3\src/sns.c ****      * Project to or below pyramid N = 16, K = 6,
 482:..\..\..\liblc3\src/sns.c ****      * then add unit pulses until you reach K = 6, over N = 16 */
 483:..\..\..\liblc3\src/sns.c **** 
 484:..\..\..\liblc3\src/sns.c ****     float xm[16];
 485:..\..\..\liblc3\src/sns.c ****     float xm_sum = 0;
 486:..\..\..\liblc3\src/sns.c **** 
ARM GAS  C:\Users\rdn\AppData\Local\Temp\cc92LAgm.s 			page 13


 487:..\..\..\liblc3\src/sns.c ****     for (int i = 0; i < 16; i++) {
 488:..\..\..\liblc3\src/sns.c ****         xm[i] = fabsf(x[i]);
 489:..\..\..\liblc3\src/sns.c ****         xm_sum += xm[i];
 490:..\..\..\liblc3\src/sns.c ****     }
 491:..\..\..\liblc3\src/sns.c **** 
 492:..\..\..\liblc3\src/sns.c ****     float proj_factor = (6 - 1) / fmaxf(xm_sum, 1e-31f);
 493:..\..\..\liblc3\src/sns.c ****     float corr = 0, energy = 0;
 494:..\..\..\liblc3\src/sns.c ****     int npulses = 0;
 495:..\..\..\liblc3\src/sns.c **** 
 496:..\..\..\liblc3\src/sns.c ****     for (int i = 0; i < 16; i++) {
 497:..\..\..\liblc3\src/sns.c ****         c[3][i] = floorf(xm[i] * proj_factor);
 498:..\..\..\liblc3\src/sns.c ****         npulses += c[3][i];
 499:..\..\..\liblc3\src/sns.c ****         corr    += c[3][i] * xm[i];
 500:..\..\..\liblc3\src/sns.c ****         energy  += c[3][i] * c[3][i];
 501:..\..\..\liblc3\src/sns.c ****     }
 502:..\..\..\liblc3\src/sns.c **** 
 503:..\..\..\liblc3\src/sns.c ****     add_pulse(xm, c[3], 16, npulses, 6, &corr, &energy);
 504:..\..\..\liblc3\src/sns.c ****     npulses = 6;
 505:..\..\..\liblc3\src/sns.c **** 
 506:..\..\..\liblc3\src/sns.c ****     /* --- Shape 2 candidate ---
 507:..\..\..\liblc3\src/sns.c ****      * Add unit pulses until you reach K = 8 on shape 3 */
 508:..\..\..\liblc3\src/sns.c **** 
 509:..\..\..\liblc3\src/sns.c ****     memcpy(c[2], c[3], sizeof(c[2]));
 510:..\..\..\liblc3\src/sns.c **** 
 511:..\..\..\liblc3\src/sns.c ****     add_pulse(xm, c[2], 16, npulses, 8, &corr, &energy);
 512:..\..\..\liblc3\src/sns.c ****     npulses = 8;
 513:..\..\..\liblc3\src/sns.c **** 
 514:..\..\..\liblc3\src/sns.c ****     /* --- Shape 1 candidate ---
 515:..\..\..\liblc3\src/sns.c ****      * Remove any unit pulses from shape 2 that are not part of 0 to 9
 516:..\..\..\liblc3\src/sns.c ****      * Update energy and correlation terms accordingly
 517:..\..\..\liblc3\src/sns.c ****      * Add unit pulses until you reach K = 10, over N = 10 */
 518:..\..\..\liblc3\src/sns.c **** 
 519:..\..\..\liblc3\src/sns.c ****     memcpy(c[1], c[2], sizeof(c[1]));
 520:..\..\..\liblc3\src/sns.c **** 
 521:..\..\..\liblc3\src/sns.c ****     for (int i = 10; i < 16; i++) {
 522:..\..\..\liblc3\src/sns.c ****         c[1][i] = 0;
 523:..\..\..\liblc3\src/sns.c ****         npulses -= c[2][i];
 524:..\..\..\liblc3\src/sns.c ****         corr    -= c[2][i] * xm[i];
 525:..\..\..\liblc3\src/sns.c ****         energy  -= c[2][i] * c[2][i];
 526:..\..\..\liblc3\src/sns.c ****     }
 527:..\..\..\liblc3\src/sns.c **** 
 528:..\..\..\liblc3\src/sns.c ****     add_pulse(xm, c[1], 10, npulses, 10, &corr, &energy);
 529:..\..\..\liblc3\src/sns.c ****     npulses = 10;
 530:..\..\..\liblc3\src/sns.c **** 
 531:..\..\..\liblc3\src/sns.c ****     /* --- Shape 0 candidate ---
 532:..\..\..\liblc3\src/sns.c ****      * Add unit pulses until you reach K = 1, on shape 1 */
 533:..\..\..\liblc3\src/sns.c **** 
 534:..\..\..\liblc3\src/sns.c ****     memcpy(c[0], c[1], sizeof(c[0]));
 535:..\..\..\liblc3\src/sns.c **** 
 536:..\..\..\liblc3\src/sns.c ****     add_pulse(xm + 10, c[0] + 10, 6, 0, 1, &corr, &energy);
 537:..\..\..\liblc3\src/sns.c **** 
 538:..\..\..\liblc3\src/sns.c ****     /* --- Add sign and unit energy normalize --- */
 539:..\..\..\liblc3\src/sns.c **** 
 540:..\..\..\liblc3\src/sns.c ****     for (int j = 0; j < 16; j++)
 541:..\..\..\liblc3\src/sns.c ****         for (int i = 0; i < 4; i++)
 542:..\..\..\liblc3\src/sns.c ****             c[i][j] = x[j] < 0 ? -c[i][j] : c[i][j];
 543:..\..\..\liblc3\src/sns.c **** 
ARM GAS  C:\Users\rdn\AppData\Local\Temp\cc92LAgm.s 			page 14


 544:..\..\..\liblc3\src/sns.c ****     for (int i = 0; i < 4; i++)
 545:..\..\..\liblc3\src/sns.c ****         normalize(c[i], cn[i]);
 546:..\..\..\liblc3\src/sns.c **** 
 547:..\..\..\liblc3\src/sns.c ****     /* --- Determe shape & gain index ---
 548:..\..\..\liblc3\src/sns.c ****      * Search the Mean Square Error, within (shape, gain) combinations */
 549:..\..\..\liblc3\src/sns.c **** 
 550:..\..\..\liblc3\src/sns.c ****     float mse_min = INFINITY;
 551:..\..\..\liblc3\src/sns.c ****     *shape_idx = *gain_idx = 0;
 552:..\..\..\liblc3\src/sns.c **** 
 553:..\..\..\liblc3\src/sns.c ****     for (int ic = 0; ic < 4; ic++) {
 554:..\..\..\liblc3\src/sns.c ****         const struct lc3_sns_vq_gains *cgains = lc3_sns_vq_gains + ic;
 555:..\..\..\liblc3\src/sns.c ****         float cmse_min = INFINITY;
 556:..\..\..\liblc3\src/sns.c ****         int cgain_idx = 0;
 557:..\..\..\liblc3\src/sns.c **** 
 558:..\..\..\liblc3\src/sns.c ****         for (int ig = 0; ig < cgains->count; ig++) {
 559:..\..\..\liblc3\src/sns.c ****             float g = cgains->v[ig];
 560:..\..\..\liblc3\src/sns.c **** 
 561:..\..\..\liblc3\src/sns.c ****             float mse = 0;
 562:..\..\..\liblc3\src/sns.c ****             for (int i = 0; i < 16; i++)
 563:..\..\..\liblc3\src/sns.c ****                 mse += (x[i] - g * cn[ic][i]) * (x[i] - g * cn[ic][i]);
 564:..\..\..\liblc3\src/sns.c **** 
 565:..\..\..\liblc3\src/sns.c ****             if (mse < cmse_min) {
 566:..\..\..\liblc3\src/sns.c ****                 cgain_idx = ig,
 567:..\..\..\liblc3\src/sns.c ****                 cmse_min = mse;
 568:..\..\..\liblc3\src/sns.c ****             }
 569:..\..\..\liblc3\src/sns.c ****         }
 570:..\..\..\liblc3\src/sns.c **** 
 571:..\..\..\liblc3\src/sns.c ****         if (cmse_min < mse_min) {
 572:..\..\..\liblc3\src/sns.c ****             *shape_idx = ic, *gain_idx = cgain_idx;
 573:..\..\..\liblc3\src/sns.c ****             mse_min = cmse_min;
 574:..\..\..\liblc3\src/sns.c ****         }
 575:..\..\..\liblc3\src/sns.c ****     }
 576:..\..\..\liblc3\src/sns.c **** }
 577:..\..\..\liblc3\src/sns.c **** 
 578:..\..\..\liblc3\src/sns.c **** /**
 579:..\..\..\liblc3\src/sns.c ****  * Unquantization of codebooks residual
 580:..\..\..\liblc3\src/sns.c ****  * lf/hfcb_idx     Low and high frequency codebooks index
 581:..\..\..\liblc3\src/sns.c ****  * c               Table of normalized pulse configuration
 582:..\..\..\liblc3\src/sns.c ****  * shape/gain      Selected shape/gain indexes
 583:..\..\..\liblc3\src/sns.c ****  * scf             Return unquantized scale factors
 584:..\..\..\liblc3\src/sns.c ****  */
 585:..\..\..\liblc3\src/sns.c **** LC3_HOT static void unquantize(int lfcb_idx, int hfcb_idx,
 586:..\..\..\liblc3\src/sns.c ****     const float *c, int shape, int gain, float *scf)
 587:..\..\..\liblc3\src/sns.c **** {
 183              		.loc 1 587 0
 184              		.cfi_startproc
 185              		@ args = 8, pretend = 0, frame = 0
 186              		@ frame_needed = 0, uses_anonymous_args = 0
 187              	.LVL16:
 188 0000 2DE9F043 		push	{r4, r5, r6, r7, r8, r9, lr}
 189              		.cfi_def_cfa_offset 28
 190              		.cfi_offset 4, -28
 191              		.cfi_offset 5, -24
 192              		.cfi_offset 6, -20
 193              		.cfi_offset 7, -16
 194              		.cfi_offset 8, -12
 195              		.cfi_offset 9, -8
ARM GAS  C:\Users\rdn\AppData\Local\Temp\cc92LAgm.s 			page 15


 196              		.cfi_offset 14, -4
 588:..\..\..\liblc3\src/sns.c ****     const float *lfcb = lc3_sns_lfcb[lfcb_idx];
 197              		.loc 1 588 0
 198 0004 224D     		ldr	r5, .L21
 587:..\..\..\liblc3\src/sns.c ****     const float *lfcb = lc3_sns_lfcb[lfcb_idx];
 199              		.loc 1 587 0
 200 0006 089C     		ldr	r4, [sp, #32]
 201 0008 DFF89080 		ldr	r8, .L21+12
 202              		.loc 1 588 0
 203 000c 05EB4010 		add	r0, r5, r0, lsl #5
 204              	.LVL17:
 589:..\..\..\liblc3\src/sns.c ****     const float *hfcb = lc3_sns_hfcb[hfcb_idx];
 205              		.loc 1 589 0
 206 0010 204D     		ldr	r5, .L21+4
 207 0012 05EB4111 		add	r1, r5, r1, lsl #5
 208              	.LVL18:
 590:..\..\..\liblc3\src/sns.c ****     float g = lc3_sns_vq_gains[shape].v[gain];
 209              		.loc 1 590 0
 210 0016 204D     		ldr	r5, .L21+8
 211 0018 05EBC303 		add	r3, r5, r3, lsl #3
 212              	.LVL19:
 213 001c 079D     		ldr	r5, [sp, #28]
 214 001e 5B68     		ldr	r3, [r3, #4]
 215 0020 03EB8503 		add	r3, r3, r5, lsl #2
 216 0024 93ED007A 		vldr.32	s14, [r3]
 217              	.LVL20:
 218 0028 2546     		mov	r5, r4
 219 002a 2646     		mov	r6, r4
 220              	.LBB27:
 221              	.LBB28:
 136:..\..\..\liblc3\src/sns.c ****         for (y[i] = 0, j = 0; j < 16; j++)
 222              		.loc 1 136 0
 223 002c 0023     		movs	r3, #0
 137:..\..\..\liblc3\src/sns.c ****             y[i] += x[j] * dct16_m[i][j];
 224              		.loc 1 137 0
 225 002e 4FF0000C 		mov	ip, #0
 226 0032 02F14009 		add	r9, r2, #64
 227              	.LVL21:
 228              	.L14:
 229 0036 46F804CB 		str	ip, [r6], #4	@ float
 230              	.LVL22:
 231 003a 1746     		mov	r7, r2
 232 003c 08EB831E 		add	lr, r8, r3, lsl #6
 233              	.LVL23:
 234              	.L13:
 138:..\..\..\liblc3\src/sns.c **** }
 235              		.loc 1 138 0
 236 0040 B7EC016A 		vldmia.32	r7!, {s12}
 237 0044 FEEC016A 		vldmia.32	lr!, {s13}
 238 0048 56ED017A 		vldr.32	s15, [r6, #-4]
 239 004c E6EE267A 		vfma.f32	s15, s12, s13
 137:..\..\..\liblc3\src/sns.c ****             y[i] += x[j] * dct16_m[i][j];
 240              		.loc 1 137 0
 241 0050 4F45     		cmp	r7, r9
 138:..\..\..\liblc3\src/sns.c **** }
 242              		.loc 1 138 0
 243 0052 46ED017A 		vstr.32	s15, [r6, #-4]
ARM GAS  C:\Users\rdn\AppData\Local\Temp\cc92LAgm.s 			page 16


 137:..\..\..\liblc3\src/sns.c ****             y[i] += x[j] * dct16_m[i][j];
 244              		.loc 1 137 0
 245 0056 F3D1     		bne	.L13
 136:..\..\..\liblc3\src/sns.c ****         for (y[i] = 0, j = 0; j < 16; j++)
 246              		.loc 1 136 0
 247 0058 0133     		adds	r3, r3, #1
 248              	.LVL24:
 249 005a 102B     		cmp	r3, #16
 250 005c EBD1     		bne	.L14
 251 005e 04F12003 		add	r3, r4, #32
 252              	.LVL25:
 253              	.L15:
 254              	.LBE28:
 255              	.LBE27:
 256              	.LBB29:
 591:..\..\..\liblc3\src/sns.c **** 
 592:..\..\..\liblc3\src/sns.c ****     dct16_inverse(c, scf);
 593:..\..\..\liblc3\src/sns.c **** 
 594:..\..\..\liblc3\src/sns.c ****     for (int i = 0; i < 8; i++)
 595:..\..\..\liblc3\src/sns.c ****         scf[i] = lfcb[i] + g * scf[i];
 257              		.loc 1 595 0 discriminator 3
 258 0062 F0EC017A 		vldmia.32	r0!, {s15}
 259 0066 D5ED006A 		vldr.32	s13, [r5]
 260 006a E7EE267A 		vfma.f32	s15, s14, s13
 261 006e E5EC017A 		vstmia.32	r5!, {s15}
 262              	.LVL26:
 594:..\..\..\liblc3\src/sns.c ****         scf[i] = lfcb[i] + g * scf[i];
 263              		.loc 1 594 0 discriminator 3
 264 0072 9D42     		cmp	r5, r3
 265 0074 F5D1     		bne	.L15
 266 0076 4034     		adds	r4, r4, #64
 267              	.LVL27:
 268              	.L16:
 269              	.LBE29:
 270              	.LBB30:
 596:..\..\..\liblc3\src/sns.c **** 
 597:..\..\..\liblc3\src/sns.c ****     for (int i = 8; i < 16; i++)
 598:..\..\..\liblc3\src/sns.c ****         scf[i] = hfcb[i-8] + g * scf[i];
 271              		.loc 1 598 0 discriminator 3
 272 0078 F1EC017A 		vldmia.32	r1!, {s15}
 273 007c D3ED006A 		vldr.32	s13, [r3]
 274 0080 E7EE267A 		vfma.f32	s15, s14, s13
 275 0084 E3EC017A 		vstmia.32	r3!, {s15}
 276              	.LVL28:
 597:..\..\..\liblc3\src/sns.c ****         scf[i] = hfcb[i-8] + g * scf[i];
 277              		.loc 1 597 0 discriminator 3
 278 0088 9C42     		cmp	r4, r3
 279 008a F5D1     		bne	.L16
 280              	.LBE30:
 599:..\..\..\liblc3\src/sns.c **** }
 281              		.loc 1 599 0
 282 008c BDE8F083 		pop	{r4, r5, r6, r7, r8, r9, pc}
 283              	.LVL29:
 284              	.L22:
 285              		.align	2
 286              	.L21:
 287 0090 00000000 		.word	lc3_sns_lfcb
ARM GAS  C:\Users\rdn\AppData\Local\Temp\cc92LAgm.s 			page 17


 288 0094 00000000 		.word	lc3_sns_hfcb
 289 0098 00000000 		.word	lc3_sns_vq_gains
 290 009c 00000000 		.word	.LANCHOR0
 291              		.cfi_endproc
 292              	.LFE27:
 293              		.size	unquantize, .-unquantize
 294              		.section	.text.enum_mvpq,"ax",%progbits
 295              		.align	1
 296              		.thumb
 297              		.thumb_func
 298              		.type	enum_mvpq, %function
 299              	enum_mvpq:
 300              	.LFB28:
 600:..\..\..\liblc3\src/sns.c **** 
 601:..\..\..\liblc3\src/sns.c **** /**
 602:..\..\..\liblc3\src/sns.c ****  * Sub-procedure of `sns_enumerate()`, enumeration of a vector
 603:..\..\..\liblc3\src/sns.c ****  * c, n            Table of pulse configuration, and length
 604:..\..\..\liblc3\src/sns.c ****  * idx, ls         Return enumeration set
 605:..\..\..\liblc3\src/sns.c ****  */
 606:..\..\..\liblc3\src/sns.c **** static void enum_mvpq(const int *c, int n, int *idx, bool *ls)
 607:..\..\..\liblc3\src/sns.c **** {
 301              		.loc 1 607 0
 302              		.cfi_startproc
 303              		@ args = 0, pretend = 0, frame = 0
 304              		@ frame_needed = 0, uses_anonymous_args = 0
 305              	.LVL30:
 306 0000 2DE9F043 		push	{r4, r5, r6, r7, r8, r9, lr}
 307              		.cfi_def_cfa_offset 28
 308              		.cfi_offset 4, -28
 309              		.cfi_offset 5, -24
 310              		.cfi_offset 6, -20
 311              		.cfi_offset 7, -16
 312              		.cfi_offset 8, -12
 313              		.cfi_offset 9, -8
 314              		.cfi_offset 14, -4
 608:..\..\..\liblc3\src/sns.c ****     int ci, i;
 609:..\..\..\liblc3\src/sns.c **** 
 610:..\..\..\liblc3\src/sns.c ****     /* --- Scan for 1st significant coeff --- */
 611:..\..\..\liblc3\src/sns.c **** 
 612:..\..\..\liblc3\src/sns.c ****     for (i = 0, c += n; (ci = *(--c)) == 0 && i < 15; i++);
 315              		.loc 1 612 0
 316 0004 00EB8100 		add	r0, r0, r1, lsl #2
 317              	.LVL31:
 318 0008 0026     		movs	r6, #0
 319              	.LVL32:
 320              	.L24:
 321              		.loc 1 612 0 is_stmt 0 discriminator 1
 322 000a 50F8047D 		ldr	r7, [r0, #-4]!
 323              	.LVL33:
 324 000e 741C     		adds	r4, r6, #1
 325 0010 1FB9     		cbnz	r7, .L25
 326              		.loc 1 612 0 discriminator 3
 327 0012 0F2E     		cmp	r6, #15
 328 0014 01D0     		beq	.L25
 329              		.loc 1 612 0 discriminator 4
 330 0016 2646     		mov	r6, r4
 331              	.LVL34:
ARM GAS  C:\Users\rdn\AppData\Local\Temp\cc92LAgm.s 			page 18


 332 0018 F7E7     		b	.L24
 333              	.LVL35:
 334              	.L25:
 613:..\..\..\liblc3\src/sns.c **** 
 614:..\..\..\liblc3\src/sns.c ****     *idx = 0;
 335              		.loc 1 614 0 is_stmt 1
 336 001a 0026     		movs	r6, #0
 337              	.LVL36:
 338 001c 1660     		str	r6, [r2]
 615:..\..\..\liblc3\src/sns.c ****     *ls = ci < 0;
 616:..\..\..\liblc3\src/sns.c **** 
 617:..\..\..\liblc3\src/sns.c ****     /* --- Scan remaining coefficients --- */
 618:..\..\..\liblc3\src/sns.c **** 
 619:..\..\..\liblc3\src/sns.c ****     unsigned j = LC3_ABS(ci);
 339              		.loc 1 619 0
 340 001e 87EAE775 		eor	r5, r7, r7, asr #31
 615:..\..\..\liblc3\src/sns.c ****     *ls = ci < 0;
 341              		.loc 1 615 0
 342 0022 FE0F     		lsrs	r6, r7, #31
 620:..\..\..\liblc3\src/sns.c **** 
 621:..\..\..\liblc3\src/sns.c ****     for (i++; i < n; i++, j += LC3_ABS(ci)) {
 622:..\..\..\liblc3\src/sns.c **** 
 623:..\..\..\liblc3\src/sns.c ****         if ((ci = *(--c)) != 0) {
 624:..\..\..\liblc3\src/sns.c ****             *idx = (*idx << 1) | *ls;
 625:..\..\..\liblc3\src/sns.c ****             *ls = ci < 0;
 626:..\..\..\liblc3\src/sns.c ****         }
 627:..\..\..\liblc3\src/sns.c **** 
 628:..\..\..\liblc3\src/sns.c ****         *idx += lc3_sns_mpvq_offsets[i][LC3_MIN(j, 10)];
 343              		.loc 1 628 0
 344 0024 DFF854E0 		ldr	lr, .L34
 615:..\..\..\liblc3\src/sns.c ****     *ls = ci < 0;
 345              		.loc 1 615 0
 346 0028 1E70     		strb	r6, [r3]
 619:..\..\..\liblc3\src/sns.c **** 
 347              		.loc 1 619 0
 348 002a A5EBE775 		sub	r5, r5, r7, asr #31
 349              	.LVL37:
 350              		.loc 1 628 0
 351 002e 4FF00B0C 		mov	ip, #11
 352              	.LVL38:
 353              	.L27:
 621:..\..\..\liblc3\src/sns.c **** 
 354              		.loc 1 621 0 discriminator 1
 355 0032 8C42     		cmp	r4, r1
 356 0034 1FDA     		bge	.L33
 623:..\..\..\liblc3\src/sns.c ****             *idx = (*idx << 1) | *ls;
 357              		.loc 1 623 0
 358 0036 50F8049D 		ldr	r9, [r0, #-4]!
 359              	.LVL39:
 360 003a B9F1000F 		cmp	r9, #0
 361 003e 08D0     		beq	.L28
 624:..\..\..\liblc3\src/sns.c ****             *ls = ci < 0;
 362              		.loc 1 624 0
 363 0040 1768     		ldr	r7, [r2]
 364 0042 93F80080 		ldrb	r8, [r3]	@ zero_extendqisi2
 365 0046 48EA4707 		orr	r7, r8, r7, lsl #1
 366 004a 1760     		str	r7, [r2]
ARM GAS  C:\Users\rdn\AppData\Local\Temp\cc92LAgm.s 			page 19


 625:..\..\..\liblc3\src/sns.c ****         }
 367              		.loc 1 625 0
 368 004c 4FEAD977 		lsr	r7, r9, #31
 369 0050 1F70     		strb	r7, [r3]
 370              	.L28:
 371              		.loc 1 628 0 discriminator 2
 372 0052 0CFB04F7 		mul	r7, ip, r4
 373 0056 0A2D     		cmp	r5, #10
 374 0058 94BF     		ite	ls
 375 005a 7F19     		addls	r7, r7, r5
 376 005c 0A37     		addhi	r7, r7, #10
 377 005e 1668     		ldr	r6, [r2]
 378 0060 5EF82770 		ldr	r7, [lr, r7, lsl #2]
 379 0064 3744     		add	r7, r7, r6
 621:..\..\..\liblc3\src/sns.c **** 
 380              		.loc 1 621 0 discriminator 2
 381 0066 89EAE976 		eor	r6, r9, r9, asr #31
 382 006a A6EBE976 		sub	r6, r6, r9, asr #31
 383              		.loc 1 628 0 discriminator 2
 384 006e 1760     		str	r7, [r2]
 621:..\..\..\liblc3\src/sns.c **** 
 385              		.loc 1 621 0 discriminator 2
 386 0070 0134     		adds	r4, r4, #1
 387              	.LVL40:
 388 0072 3544     		add	r5, r5, r6
 389              	.LVL41:
 390 0074 DDE7     		b	.L27
 391              	.LVL42:
 392              	.L33:
 629:..\..\..\liblc3\src/sns.c ****     }
 630:..\..\..\liblc3\src/sns.c **** }
 393              		.loc 1 630 0
 394 0076 BDE8F083 		pop	{r4, r5, r6, r7, r8, r9, pc}
 395              	.LVL43:
 396              	.L35:
 397 007a 00BF     		.align	2
 398              	.L34:
 399 007c 00000000 		.word	lc3_sns_mpvq_offsets
 400              		.cfi_endproc
 401              	.LFE28:
 402              		.size	enum_mvpq, .-enum_mvpq
 403              		.section	.text.deenum_mvpq,"ax",%progbits
 404              		.align	1
 405              		.thumb
 406              		.thumb_func
 407              		.type	deenum_mvpq, %function
 408              	deenum_mvpq:
 409              	.LFB29:
 631:..\..\..\liblc3\src/sns.c **** 
 632:..\..\..\liblc3\src/sns.c **** /**
 633:..\..\..\liblc3\src/sns.c ****  * Sub-procedure of `sns_deenumerate()`, deenumeration of a vector
 634:..\..\..\liblc3\src/sns.c ****  * idx, ls         Enumeration set
 635:..\..\..\liblc3\src/sns.c ****  * npulses         Number of pulses in the set
 636:..\..\..\liblc3\src/sns.c ****  * c, n            Table of pulses configuration, and length
 637:..\..\..\liblc3\src/sns.c ****  */
 638:..\..\..\liblc3\src/sns.c **** static void deenum_mvpq(int idx, bool ls, int npulses, int *c, int n)
 639:..\..\..\liblc3\src/sns.c **** {
ARM GAS  C:\Users\rdn\AppData\Local\Temp\cc92LAgm.s 			page 20


 410              		.loc 1 639 0
 411              		.cfi_startproc
 412              		@ args = 4, pretend = 0, frame = 0
 413              		@ frame_needed = 0, uses_anonymous_args = 0
 414              	.LVL44:
 415 0000 F0B5     		push	{r4, r5, r6, r7, lr}
 416              		.cfi_def_cfa_offset 20
 417              		.cfi_offset 4, -20
 418              		.cfi_offset 5, -16
 419              		.cfi_offset 6, -12
 420              		.cfi_offset 7, -8
 421              		.cfi_offset 14, -4
 640:..\..\..\liblc3\src/sns.c ****     int i;
 641:..\..\..\liblc3\src/sns.c **** 
 642:..\..\..\liblc3\src/sns.c ****     /* --- Scan for coefficients --- */
 643:..\..\..\liblc3\src/sns.c **** 
 644:..\..\..\liblc3\src/sns.c ****     for (i = n-1; i >= 0 && idx; i--) {
 422              		.loc 1 644 0
 423 0002 059C     		ldr	r4, [sp, #20]
 424 0004 1A4E     		ldr	r6, .L59
 425 0006 013C     		subs	r4, r4, #1
 426              	.LVL45:
 427 0008 2C25     		movs	r5, #44
 428 000a 05FB0466 		mla	r6, r5, r4, r6
 429              	.LVL46:
 430              	.L37:
 431              		.loc 1 644 0 is_stmt 0 discriminator 1
 432 000e 002C     		cmp	r4, #0
 433 0010 1D46     		mov	r5, r3
 434              	.LVL47:
 435 0012 04DA     		bge	.L41
 436              	.L44:
 437              	.LVL48:
 645:..\..\..\liblc3\src/sns.c **** 
 646:..\..\..\liblc3\src/sns.c ****         int ci = 0;
 647:..\..\..\liblc3\src/sns.c **** 
 648:..\..\..\liblc3\src/sns.c ****         for (ci = 0; idx < lc3_sns_mpvq_offsets[i][npulses - ci]; ci++);
 649:..\..\..\liblc3\src/sns.c ****         idx -= lc3_sns_mpvq_offsets[i][npulses - ci];
 650:..\..\..\liblc3\src/sns.c **** 
 651:..\..\..\liblc3\src/sns.c ****         *(c++) = ls ? -ci : ci;
 652:..\..\..\liblc3\src/sns.c ****         npulses -= ci;
 653:..\..\..\liblc3\src/sns.c ****         if (ci > 0) {
 654:..\..\..\liblc3\src/sns.c ****             ls = idx & 1;
 655:..\..\..\liblc3\src/sns.c ****             idx >>= 1;
 656:..\..\..\liblc3\src/sns.c ****         }
 657:..\..\..\liblc3\src/sns.c ****     }
 658:..\..\..\liblc3\src/sns.c **** 
 659:..\..\..\liblc3\src/sns.c ****     /* --- Set last significant --- */
 660:..\..\..\liblc3\src/sns.c **** 
 661:..\..\..\liblc3\src/sns.c ****     int ci = npulses;
 662:..\..\..\liblc3\src/sns.c **** 
 663:..\..\..\liblc3\src/sns.c ****     if (i-- >= 0)
 438              		.loc 1 663 0 is_stmt 1
 439 0014 002C     		cmp	r4, #0
 440 0016 04F1FF30 		add	r0, r4, #-1
 441              	.LVL49:
 442 001a 1BDA     		bge	.L42
ARM GAS  C:\Users\rdn\AppData\Local\Temp\cc92LAgm.s 			page 21


 443 001c 1EE0     		b	.L43
 444              	.LVL50:
 445              	.L41:
 644:..\..\..\liblc3\src/sns.c **** 
 446              		.loc 1 644 0 discriminator 3
 447 001e 0028     		cmp	r0, #0
 448 0020 F8D0     		beq	.L44
 449 0022 1746     		mov	r7, r2
 644:..\..\..\liblc3\src/sns.c **** 
 450              		.loc 1 644 0 is_stmt 0
 451 0024 0025     		movs	r5, #0
 452              	.LVL51:
 453              	.L45:
 454              	.LBB31:
 648:..\..\..\liblc3\src/sns.c ****         idx -= lc3_sns_mpvq_offsets[i][npulses - ci];
 455              		.loc 1 648 0 is_stmt 1 discriminator 1
 456 0026 3A46     		mov	r2, r7
 457 0028 013F     		subs	r7, r7, #1
 458 002a 56F822E0 		ldr	lr, [r6, r2, lsl #2]
 459 002e 7045     		cmp	r0, lr
 460 0030 01DA     		bge	.L57
 648:..\..\..\liblc3\src/sns.c ****         idx -= lc3_sns_mpvq_offsets[i][npulses - ci];
 461              		.loc 1 648 0 is_stmt 0 discriminator 3
 462 0032 0135     		adds	r5, r5, #1
 463              	.LVL52:
 464 0034 F7E7     		b	.L45
 465              	.L57:
 649:..\..\..\liblc3\src/sns.c **** 
 466              		.loc 1 649 0 is_stmt 1
 467 0036 CEEB0000 		rsb	r0, lr, r0
 468              	.LVL53:
 651:..\..\..\liblc3\src/sns.c ****         npulses -= ci;
 469              		.loc 1 651 0
 470 003a 09B1     		cbz	r1, .L49
 651:..\..\..\liblc3\src/sns.c ****         npulses -= ci;
 471              		.loc 1 651 0 is_stmt 0 discriminator 1
 472 003c 6F42     		negs	r7, r5
 473 003e 00E0     		b	.L39
 474              	.L49:
 475 0040 2F46     		mov	r7, r5
 476              	.L39:
 651:..\..\..\liblc3\src/sns.c ****         npulses -= ci;
 477              		.loc 1 651 0 discriminator 4
 478 0042 43F8047B 		str	r7, [r3], #4
 479              	.LVL54:
 653:..\..\..\liblc3\src/sns.c ****             ls = idx & 1;
 480              		.loc 1 653 0 is_stmt 1 discriminator 4
 481 0046 15B1     		cbz	r5, .L40
 654:..\..\..\liblc3\src/sns.c ****             idx >>= 1;
 482              		.loc 1 654 0
 483 0048 00F00101 		and	r1, r0, #1
 484              	.LVL55:
 655:..\..\..\liblc3\src/sns.c ****         }
 485              		.loc 1 655 0
 486 004c 4010     		asrs	r0, r0, #1
 487              	.LVL56:
 488              	.L40:
ARM GAS  C:\Users\rdn\AppData\Local\Temp\cc92LAgm.s 			page 22


 489              	.LBE31:
 644:..\..\..\liblc3\src/sns.c **** 
 490              		.loc 1 644 0 discriminator 2
 491 004e 013C     		subs	r4, r4, #1
 492              	.LVL57:
 493 0050 2C3E     		subs	r6, r6, #44
 494 0052 DCE7     		b	.L37
 495              	.LVL58:
 496              	.L42:
 664:..\..\..\liblc3\src/sns.c ****         *(c++) = ls ? -ci : ci;
 497              		.loc 1 664 0
 498 0054 1D1D     		adds	r5, r3, #4
 499              	.LVL59:
 500 0056 01B1     		cbz	r1, .L46
 501              		.loc 1 664 0 is_stmt 0 discriminator 1
 502 0058 5242     		negs	r2, r2
 503              	.LVL60:
 504              	.L46:
 505              		.loc 1 664 0 discriminator 4
 506 005a 1A60     		str	r2, [r3]
 507              	.L43:
 508 005c 0346     		mov	r3, r0
 665:..\..\..\liblc3\src/sns.c **** 
 666:..\..\..\liblc3\src/sns.c ****     while (i-- >= 0)
 667:..\..\..\liblc3\src/sns.c ****         *(c++) = 0;
 509              		.loc 1 667 0 is_stmt 1
 510 005e 0022     		movs	r2, #0
 511              	.LVL61:
 512              	.L47:
 666:..\..\..\liblc3\src/sns.c ****         *(c++) = 0;
 513              		.loc 1 666 0
 514 0060 002B     		cmp	r3, #0
 515 0062 03DB     		blt	.L58
 516              		.loc 1 667 0
 517 0064 45F8042B 		str	r2, [r5], #4
 518              	.LVL62:
 519 0068 013B     		subs	r3, r3, #1
 520              	.LVL63:
 521 006a F9E7     		b	.L47
 522              	.LVL64:
 523              	.L58:
 668:..\..\..\liblc3\src/sns.c **** }
 524              		.loc 1 668 0
 525 006c F0BD     		pop	{r4, r5, r6, r7, pc}
 526              	.LVL65:
 527              	.L60:
 528 006e 00BF     		.align	2
 529              	.L59:
 530 0070 00000000 		.word	lc3_sns_mpvq_offsets
 531              		.cfi_endproc
 532              	.LFE29:
 533              		.size	deenum_mvpq, .-deenum_mvpq
 534              		.section	.text.normalize,"ax",%progbits
 535              		.align	1
 536              		.thumb
 537              		.thumb_func
 538              		.type	normalize, %function
ARM GAS  C:\Users\rdn\AppData\Local\Temp\cc92LAgm.s 			page 23


 539              	normalize:
 540              	.LFB24:
 418:..\..\..\liblc3\src/sns.c ****     int c2_sum = 0;
 541              		.loc 1 418 0
 542              		.cfi_startproc
 543              		@ args = 0, pretend = 0, frame = 0
 544              		@ frame_needed = 0, uses_anonymous_args = 0
 545              	.LVL66:
 546 0000 38B5     		push	{r3, r4, r5, lr}
 547              		.cfi_def_cfa_offset 16
 548              		.cfi_offset 3, -16
 549              		.cfi_offset 4, -12
 550              		.cfi_offset 5, -8
 551              		.cfi_offset 14, -4
 552 0002 051F     		subs	r5, r0, #4
 418:..\..\..\liblc3\src/sns.c ****     int c2_sum = 0;
 553              		.loc 1 418 0
 554 0004 0C46     		mov	r4, r1
 555 0006 3C30     		adds	r0, r0, #60
 556              	.LVL67:
 557 0008 2A46     		mov	r2, r5
 419:..\..\..\liblc3\src/sns.c ****     for (int i = 0; i < 16; i++)
 558              		.loc 1 419 0
 559 000a 0023     		movs	r3, #0
 560              	.LVL68:
 561              	.L62:
 562              	.LBB32:
 421:..\..\..\liblc3\src/sns.c **** 
 563              		.loc 1 421 0 discriminator 3
 564 000c 52F8041F 		ldr	r1, [r2, #4]!
 420:..\..\..\liblc3\src/sns.c ****         c2_sum += c[i] * c[i];
 565              		.loc 1 420 0 discriminator 3
 566 0010 8242     		cmp	r2, r0
 421:..\..\..\liblc3\src/sns.c **** 
 567              		.loc 1 421 0 discriminator 3
 568 0012 01FB0133 		mla	r3, r1, r1, r3
 569              	.LVL69:
 420:..\..\..\liblc3\src/sns.c ****         c2_sum += c[i] * c[i];
 570              		.loc 1 420 0 discriminator 3
 571 0016 F9D1     		bne	.L62
 572              	.LBE32:
 423:..\..\..\liblc3\src/sns.c **** 
 573              		.loc 1 423 0
 574 0018 07EE903A 		vmov	s15, r3	@ int
 575 001c F8EEE77A 		vcvt.f32.s32	s15, s15
 576 0020 17EE900A 		vmov	r0, s15
 577              	.LVL70:
 578 0024 FFF7FEFF 		bl	sqrtf
 579              	.LVL71:
 580 0028 06EE900A 		vmov	s13, r0
 581 002c F7EE007A 		vmov.f32	s15, #1.0e+0
 582 0030 87EEA67A 		vdiv.f32	s14, s15, s13
 583              	.LVL72:
 584 0034 2146     		mov	r1, r4
 585 0036 04F14003 		add	r3, r4, #64
 586              	.LVL73:
 587              	.L63:
ARM GAS  C:\Users\rdn\AppData\Local\Temp\cc92LAgm.s 			page 24


 588              	.LBB33:
 426:..\..\..\liblc3\src/sns.c **** }
 589              		.loc 1 426 0 discriminator 3
 590 003a 55F8042F 		ldr	r2, [r5, #4]!
 591 003e 07EE902A 		vmov	s15, r2	@ int
 592 0042 F8EEE77A 		vcvt.f32.s32	s15, s15
 593 0046 67EE877A 		vmul.f32	s15, s15, s14
 594 004a E1EC017A 		vstmia.32	r1!, {s15}
 425:..\..\..\liblc3\src/sns.c ****         cn[i] = c[i] * c_norm;
 595              		.loc 1 425 0 discriminator 3
 596 004e 8B42     		cmp	r3, r1
 597 0050 F3D1     		bne	.L63
 598              	.LBE33:
 427:..\..\..\liblc3\src/sns.c **** 
 599              		.loc 1 427 0
 600 0052 38BD     		pop	{r3, r4, r5, pc}
 601              		.cfi_endproc
 602              	.LFE24:
 603              		.size	normalize, .-normalize
 604              		.section	.text.spectral_shaping,"ax",%progbits
 605              		.align	1
 606              		.thumb
 607              		.thumb_func
 608              		.type	spectral_shaping, %function
 609              	spectral_shaping:
 610              	.LFB32:
 669:..\..\..\liblc3\src/sns.c **** 
 670:..\..\..\liblc3\src/sns.c **** /**
 671:..\..\..\liblc3\src/sns.c ****  * SNS Enumeration of PVQ configuration
 672:..\..\..\liblc3\src/sns.c ****  * shape           Selected shape index
 673:..\..\..\liblc3\src/sns.c ****  * c               Selected pulse configuration
 674:..\..\..\liblc3\src/sns.c ****  * idx_a, ls_a     Return enumeration set A
 675:..\..\..\liblc3\src/sns.c ****  * idx_b, ls_b     Return enumeration set B (shape = 0)
 676:..\..\..\liblc3\src/sns.c ****  */
 677:..\..\..\liblc3\src/sns.c **** static void enumerate(int shape, const int *c,
 678:..\..\..\liblc3\src/sns.c ****     int *idx_a, bool *ls_a, int *idx_b, bool *ls_b)
 679:..\..\..\liblc3\src/sns.c **** {
 680:..\..\..\liblc3\src/sns.c ****     enum_mvpq(c, shape < 2 ? 10 : 16, idx_a, ls_a);
 681:..\..\..\liblc3\src/sns.c **** 
 682:..\..\..\liblc3\src/sns.c ****     if (shape == 0)
 683:..\..\..\liblc3\src/sns.c ****         enum_mvpq(c + 10, 6, idx_b, ls_b);
 684:..\..\..\liblc3\src/sns.c **** }
 685:..\..\..\liblc3\src/sns.c **** 
 686:..\..\..\liblc3\src/sns.c **** /**
 687:..\..\..\liblc3\src/sns.c ****  * SNS Deenumeration of PVQ configuration
 688:..\..\..\liblc3\src/sns.c ****  * shape           Selected shape index
 689:..\..\..\liblc3\src/sns.c ****  * idx_a, ls_a     enumeration set A
 690:..\..\..\liblc3\src/sns.c ****  * idx_b, ls_b     enumeration set B (shape = 0)
 691:..\..\..\liblc3\src/sns.c ****  * c               Return pulse configuration
 692:..\..\..\liblc3\src/sns.c ****  */
 693:..\..\..\liblc3\src/sns.c **** static void deenumerate(int shape,
 694:..\..\..\liblc3\src/sns.c ****     int idx_a, bool ls_a, int idx_b, bool ls_b, int *c)
 695:..\..\..\liblc3\src/sns.c **** {
 696:..\..\..\liblc3\src/sns.c ****     int npulses_a = (const int []){ 10, 10, 8, 6 }[shape];
 697:..\..\..\liblc3\src/sns.c **** 
 698:..\..\..\liblc3\src/sns.c ****     deenum_mvpq(idx_a, ls_a, npulses_a, c, shape < 2 ? 10 : 16);
 699:..\..\..\liblc3\src/sns.c **** 
ARM GAS  C:\Users\rdn\AppData\Local\Temp\cc92LAgm.s 			page 25


 700:..\..\..\liblc3\src/sns.c ****     if (shape == 0)
 701:..\..\..\liblc3\src/sns.c ****         deenum_mvpq(idx_b, ls_b, 1, c + 10, 6);
 702:..\..\..\liblc3\src/sns.c ****     else if (shape == 1)
 703:..\..\..\liblc3\src/sns.c ****         memset(c + 10, 0, 6 * sizeof(*c));
 704:..\..\..\liblc3\src/sns.c **** }
 705:..\..\..\liblc3\src/sns.c **** 
 706:..\..\..\liblc3\src/sns.c **** 
 707:..\..\..\liblc3\src/sns.c **** /* ----------------------------------------------------------------------------
 708:..\..\..\liblc3\src/sns.c ****  *  Filtering
 709:..\..\..\liblc3\src/sns.c ****  * -------------------------------------------------------------------------- */
 710:..\..\..\liblc3\src/sns.c **** 
 711:..\..\..\liblc3\src/sns.c **** /**
 712:..\..\..\liblc3\src/sns.c ****  * Spectral shaping
 713:..\..\..\liblc3\src/sns.c ****  * dt, sr          Duration and samplerate of the frame
 714:..\..\..\liblc3\src/sns.c ****  * scf_q           Quantized scale factors
 715:..\..\..\liblc3\src/sns.c ****  * inv             True on inverse shaping, False otherwise
 716:..\..\..\liblc3\src/sns.c ****  * x               Spectral coefficients
 717:..\..\..\liblc3\src/sns.c ****  * y               Return shapped coefficients
 718:..\..\..\liblc3\src/sns.c ****  *
 719:..\..\..\liblc3\src/sns.c ****  * `x` and `y` can be the same buffer
 720:..\..\..\liblc3\src/sns.c ****  */
 721:..\..\..\liblc3\src/sns.c **** LC3_HOT static void spectral_shaping(enum lc3_dt dt, enum lc3_srate sr,
 722:..\..\..\liblc3\src/sns.c ****     const float *scf_q, bool inv, const float *x, float *y)
 723:..\..\..\liblc3\src/sns.c **** {
 611              		.loc 1 723 0
 612              		.cfi_startproc
 613              		@ args = 8, pretend = 0, frame = 272
 614              		@ frame_needed = 0, uses_anonymous_args = 0
 615              	.LVL74:
 616 0000 2DE9F047 		push	{r4, r5, r6, r7, r8, r9, r10, lr}
 617              		.cfi_def_cfa_offset 32
 618              		.cfi_offset 4, -32
 619              		.cfi_offset 5, -28
 620              		.cfi_offset 6, -24
 621              		.cfi_offset 7, -20
 622              		.cfi_offset 8, -16
 623              		.cfi_offset 9, -12
 624              		.cfi_offset 10, -8
 625              		.cfi_offset 14, -4
 626 0004 C4B0     		sub	sp, sp, #272
 627              		.cfi_def_cfa_offset 304
 628              		.loc 1 723 0
 629 0006 8946     		mov	r9, r1
 630 0008 4D99     		ldr	r1, [sp, #308]
 631              	.LVL75:
 632 000a 0191     		str	r1, [sp, #4]
 633 000c 8046     		mov	r8, r0
 634 000e D2ED007A 		vldr.32	s15, [r2]
 724:..\..\..\liblc3\src/sns.c ****     /* --- Interpolate scale factors --- */
 725:..\..\..\liblc3\src/sns.c **** 
 726:..\..\..\liblc3\src/sns.c ****     float scf[LC3_MAX_BANDS];
 727:..\..\..\liblc3\src/sns.c ****     float s0, s1 = inv ? -scf_q[0] : scf_q[0];
 635              		.loc 1 727 0
 636 0012 0BB1     		cbz	r3, .L68
 637              		.loc 1 727 0 is_stmt 0 discriminator 1
 638 0014 F1EE677A 		vneg.f32	s15, s15
 639              	.L68:
ARM GAS  C:\Users\rdn\AppData\Local\Temp\cc92LAgm.s 			page 26


 640              	.LVL76:
 641 0018 0DF1100A 		add	r10, sp, #16
 642 001c 101D     		adds	r0, r2, #4
 643              	.LVL77:
 728:..\..\..\liblc3\src/sns.c **** 
 729:..\..\..\liblc3\src/sns.c ****     scf[0] = scf[1] = s1;
 644              		.loc 1 729 0 is_stmt 1 discriminator 4
 645 001e CDED057A 		vstr.32	s15, [sp, #20]
 646 0022 CDED047A 		vstr.32	s15, [sp, #16]
 647              	.LVL78:
 648 0026 4032     		adds	r2, r2, #64
 649              	.LVL79:
 650 0028 5146     		mov	r1, r10
 651              	.LBB41:
 730:..\..\..\liblc3\src/sns.c ****     for (int i = 0; i < 15; i++) {
 731:..\..\..\liblc3\src/sns.c ****         s0 = s1, s1 = inv ? -scf_q[i+1] : scf_q[i+1];
 732:..\..\..\liblc3\src/sns.c ****         scf[4*i+2] = s0 + 0.125f * (s1 - s0);
 652              		.loc 1 732 0 discriminator 4
 653 002a B4EE003A 		vmov.f32	s6, #1.25e-1
 733:..\..\..\liblc3\src/sns.c ****         scf[4*i+3] = s0 + 0.375f * (s1 - s0);
 654              		.loc 1 733 0 discriminator 4
 655 002e F5EE083A 		vmov.f32	s7, #3.75e-1
 734:..\..\..\liblc3\src/sns.c ****         scf[4*i+4] = s0 + 0.625f * (s1 - s0);
 656              		.loc 1 734 0 discriminator 4
 657 0032 B6EE044A 		vmov.f32	s8, #6.25e-1
 735:..\..\..\liblc3\src/sns.c ****         scf[4*i+5] = s0 + 0.875f * (s1 - s0);
 658              		.loc 1 735 0 discriminator 4
 659 0036 B6EE0C5A 		vmov.f32	s10, #8.75e-1
 660              	.LVL80:
 661              	.L71:
 731:..\..\..\liblc3\src/sns.c ****         scf[4*i+2] = s0 + 0.125f * (s1 - s0);
 662              		.loc 1 731 0
 663 003a 90ED007A 		vldr.32	s14, [r0]
 664 003e 0BB1     		cbz	r3, .L70
 731:..\..\..\liblc3\src/sns.c ****         scf[4*i+2] = s0 + 0.125f * (s1 - s0);
 665              		.loc 1 731 0 is_stmt 0 discriminator 1
 666 0040 B1EE477A 		vneg.f32	s14, s14
 667              	.L70:
 668              	.LVL81:
 732:..\..\..\liblc3\src/sns.c ****         scf[4*i+3] = s0 + 0.375f * (s1 - s0);
 669              		.loc 1 732 0 is_stmt 1 discriminator 4
 670 0044 37EE676A 		vsub.f32	s12, s14, s15
 671 0048 0430     		adds	r0, r0, #4
 672 004a 66EE036A 		vmul.f32	s13, s12, s6
 730:..\..\..\liblc3\src/sns.c ****         s0 = s1, s1 = inv ? -scf_q[i+1] : scf_q[i+1];
 673              		.loc 1 730 0 discriminator 4
 674 004e 9042     		cmp	r0, r2
 732:..\..\..\liblc3\src/sns.c ****         scf[4*i+3] = s0 + 0.375f * (s1 - s0);
 675              		.loc 1 732 0 discriminator 4
 676 0050 76EEA75A 		vadd.f32	s11, s13, s15
 677 0054 01F11001 		add	r1, r1, #16
 678 0058 41ED025A 		vstr.32	s11, [r1, #-8]
 733:..\..\..\liblc3\src/sns.c ****         scf[4*i+4] = s0 + 0.625f * (s1 - s0);
 679              		.loc 1 733 0 discriminator 4
 680 005c 66EE235A 		vmul.f32	s11, s12, s7
 681 0060 75EEA74A 		vadd.f32	s9, s11, s15
 682 0064 41ED014A 		vstr.32	s9, [r1, #-4]
ARM GAS  C:\Users\rdn\AppData\Local\Temp\cc92LAgm.s 			page 27


 734:..\..\..\liblc3\src/sns.c ****         scf[4*i+5] = s0 + 0.875f * (s1 - s0);
 683              		.loc 1 734 0 discriminator 4
 684 0068 F0EE674A 		vmov.f32	s9, s15
 685 006c E6EE044A 		vfma.f32	s9, s12, s8
 686              		.loc 1 735 0 discriminator 4
 687 0070 E6EE057A 		vfma.f32	s15, s12, s10
 734:..\..\..\liblc3\src/sns.c ****         scf[4*i+5] = s0 + 0.875f * (s1 - s0);
 688              		.loc 1 734 0 discriminator 4
 689 0074 C1ED004A 		vstr.32	s9, [r1]
 690              		.loc 1 735 0 discriminator 4
 691 0078 C1ED017A 		vstr.32	s15, [r1, #4]
 730:..\..\..\liblc3\src/sns.c ****         s0 = s1, s1 = inv ? -scf_q[i+1] : scf_q[i+1];
 692              		.loc 1 730 0 discriminator 4
 693 007c 02D0     		beq	.L84
 694              	.LVL82:
 695 007e F0EE477A 		vmov.f32	s15, s14
 696 0082 DAE7     		b	.L71
 697              	.LVL83:
 698              	.L84:
 699              	.LBE41:
 736:..\..\..\liblc3\src/sns.c ****     }
 737:..\..\..\liblc3\src/sns.c ****     scf[62] = s1 + 0.125f * (s1 - s0);
 738:..\..\..\liblc3\src/sns.c ****     scf[63] = s1 + 0.375f * (s1 - s0);
 739:..\..\..\liblc3\src/sns.c **** 
 740:..\..\..\liblc3\src/sns.c ****     int nb = lc3_num_bands[dt][sr];
 700              		.loc 1 740 0
 701 0084 4FEAC807 		lsl	r7, r8, #3
 702 0088 C8EB0703 		rsb	r3, r8, r7
 703              	.LVL84:
 704 008c 4B44     		add	r3, r3, r9
 705 008e 604A     		ldr	r2, .L88
 706              	.LVL85:
 707 0090 52F82340 		ldr	r4, [r2, r3, lsl #2]
 708              	.LVL86:
 737:..\..\..\liblc3\src/sns.c ****     scf[63] = s1 + 0.375f * (s1 - s0);
 709              		.loc 1 737 0
 710 0094 77EE266A 		vadd.f32	s13, s14, s13
 738:..\..\..\liblc3\src/sns.c **** 
 711              		.loc 1 738 0
 712 0098 37EE257A 		vadd.f32	s14, s14, s11
 713              	.LVL87:
 741:..\..\..\liblc3\src/sns.c ****     int n4 = nb < 32 ? 32 % nb : 0;
 714              		.loc 1 741 0
 715 009c 1F2C     		cmp	r4, #31
 737:..\..\..\liblc3\src/sns.c ****     scf[63] = s1 + 0.375f * (s1 - s0);
 716              		.loc 1 737 0
 717 009e CDED426A 		vstr.32	s13, [sp, #264]
 738:..\..\..\liblc3\src/sns.c **** 
 718              		.loc 1 738 0
 719 00a2 8DED437A 		vstr.32	s14, [sp, #268]
 720              		.loc 1 741 0
 721 00a6 25DC     		bgt	.L72
 722              		.loc 1 741 0 is_stmt 0 discriminator 1
 723 00a8 2023     		movs	r3, #32
 724 00aa 93FBF4F3 		sdiv	r3, r3, r4
 725 00ae 6343     		muls	r3, r4, r3
 726 00b0 C3F12003 		rsb	r3, r3, #32
ARM GAS  C:\Users\rdn\AppData\Local\Temp\cc92LAgm.s 			page 28


 727              	.LVL88:
 728 00b4 04A9     		add	r1, sp, #16
 729 00b6 01EB0311 		add	r1, r1, r3, lsl #4
 742:..\..\..\liblc3\src/sns.c ****     int n2 = nb < 32 ? nb - n4 : LC3_MAX_BANDS - nb;
 730              		.loc 1 742 0 is_stmt 1 discriminator 1
 731 00ba E01A     		subs	r0, r4, r3
 732              	.LVL89:
 733 00bc 05AA     		add	r2, sp, #20
 734 00be 1431     		adds	r1, r1, #20
 735              	.LBB42:
 743:..\..\..\liblc3\src/sns.c **** 
 744:..\..\..\liblc3\src/sns.c ****     for (int i4 = 0; i4 < n4; i4++)
 736              		.loc 1 744 0 discriminator 1
 737 00c0 0DF1100E 		add	lr, sp, #16
 745:..\..\..\liblc3\src/sns.c ****         scf[i4] = 0.25f * (scf[4*i4+0] + scf[4*i4+1] +
 738              		.loc 1 745 0 discriminator 1
 739 00c4 B5EE007A 		vmov.f32	s14, #2.5e-1
 740              	.LVL90:
 741              	.L73:
 742 00c8 1032     		adds	r2, r2, #16
 744:..\..\..\liblc3\src/sns.c ****         scf[i4] = 0.25f * (scf[4*i4+0] + scf[4*i4+1] +
 743              		.loc 1 744 0 discriminator 1
 744 00ca 8A42     		cmp	r2, r1
 745 00cc 15D0     		beq	.L81
 746              		.loc 1 745 0 discriminator 3
 747 00ce 52ED046A 		vldr.32	s13, [r2, #-16]
 748 00d2 52ED057A 		vldr.32	s15, [r2, #-20]
 749 00d6 77EEA67A 		vadd.f32	s15, s15, s13
 750 00da 52ED036A 		vldr.32	s13, [r2, #-12]
 751 00de 77EEA67A 		vadd.f32	s15, s15, s13
 752 00e2 52ED026A 		vldr.32	s13, [r2, #-8]
 753 00e6 77EEA67A 		vadd.f32	s15, s15, s13
 754 00ea 67EE877A 		vmul.f32	s15, s15, s14
 755 00ee EEEC017A 		vstmia.32	lr!, {s15}
 756 00f2 E9E7     		b	.L73
 757              	.LVL91:
 758              	.L72:
 759              	.LBE42:
 742:..\..\..\liblc3\src/sns.c **** 
 760              		.loc 1 742 0
 761 00f4 C4F14000 		rsb	r0, r4, #64
 762              	.LVL92:
 741:..\..\..\liblc3\src/sns.c ****     int n2 = nb < 32 ? nb - n4 : LC3_MAX_BANDS - nb;
 763              		.loc 1 741 0
 764 00f8 0023     		movs	r3, #0
 765              	.LVL93:
 766              	.L81:
 767 00fa 04AA     		add	r2, sp, #16
 768 00fc 04A9     		add	r1, sp, #16
 769 00fe 02EB0312 		add	r2, r2, r3, lsl #4
 770 0102 01EB830E 		add	lr, r1, r3, lsl #2
 771 0106 0432     		adds	r2, r2, #4
 741:..\..\..\liblc3\src/sns.c ****     int n2 = nb < 32 ? nb - n4 : LC3_MAX_BANDS - nb;
 772              		.loc 1 741 0 is_stmt 0 discriminator 1
 773 0108 1946     		mov	r1, r3
 774              	.LBB43:
 746:..\..\..\liblc3\src/sns.c ****                            scf[4*i4+2] + scf[4*i4+3]);
ARM GAS  C:\Users\rdn\AppData\Local\Temp\cc92LAgm.s 			page 29


 747:..\..\..\liblc3\src/sns.c **** 
 748:..\..\..\liblc3\src/sns.c ****     for (int i2 = n4; i2 < n4+n2; i2++)
 775              		.loc 1 748 0 is_stmt 1 discriminator 1
 776 010a 03EB000C 		add	ip, r3, r0
 749:..\..\..\liblc3\src/sns.c ****         scf[i2] = 0.5f * (scf[2*(n4+i2)] + scf[2*(n4+i2)+1]);
 777              		.loc 1 749 0 discriminator 1
 778 010e B6EE007A 		vmov.f32	s14, #5.0e-1
 779              	.L75:
 780              	.LVL94:
 748:..\..\..\liblc3\src/sns.c ****         scf[i2] = 0.5f * (scf[2*(n4+i2)] + scf[2*(n4+i2)+1]);
 781              		.loc 1 748 0 discriminator 1
 782 0112 6145     		cmp	r1, ip
 783 0114 02F10802 		add	r2, r2, #8
 784 0118 0BDA     		bge	.L85
 785              		.loc 1 749 0 discriminator 3
 786 011a 52ED037A 		vldr.32	s15, [r2, #-12]
 787 011e 52ED026A 		vldr.32	s13, [r2, #-8]
 788 0122 77EEA67A 		vadd.f32	s15, s15, s13
 748:..\..\..\liblc3\src/sns.c ****         scf[i2] = 0.5f * (scf[2*(n4+i2)] + scf[2*(n4+i2)+1]);
 789              		.loc 1 748 0 discriminator 3
 790 0126 0131     		adds	r1, r1, #1
 791              	.LVL95:
 792              		.loc 1 749 0 discriminator 3
 793 0128 67EE877A 		vmul.f32	s15, s15, s14
 794 012c EEEC017A 		vstmia.32	lr!, {s15}
 795 0130 EFE7     		b	.L75
 796              	.L85:
 797              	.LBE43:
 750:..\..\..\liblc3\src/sns.c **** 
 751:..\..\..\liblc3\src/sns.c ****     memmove(scf + n4 + n2, scf + 4*n4 + 2*n2, (nb - n4 - n2) * sizeof(float));
 798              		.loc 1 751 0
 799 0132 E21A     		subs	r2, r4, r3
 800 0134 4100     		lsls	r1, r0, #1
 801              	.LVL96:
 802 0136 121A     		subs	r2, r2, r0
 803 0138 01EB8301 		add	r1, r1, r3, lsl #2
 804 013c 1844     		add	r0, r0, r3
 805              	.LVL97:
 806 013e 04AB     		add	r3, sp, #16
 807 0140 03EB8101 		add	r1, r3, r1, lsl #2
 808 0144 9200     		lsls	r2, r2, #2
 809 0146 03EB8000 		add	r0, r3, r0, lsl #2
 752:..\..\..\liblc3\src/sns.c **** 
 753:..\..\..\liblc3\src/sns.c ****     /* --- Spectral shaping --- */
 754:..\..\..\liblc3\src/sns.c **** 
 755:..\..\..\liblc3\src/sns.c ****     const int *lim = lc3_band_lim[dt][sr];
 810              		.loc 1 755 0
 811 014a C8EB0707 		rsb	r7, r8, r7
 751:..\..\..\liblc3\src/sns.c **** 
 812              		.loc 1 751 0
 813 014e FFF7FEFF 		bl	memmove
 814              	.LVL98:
 815              		.loc 1 755 0
 816 0152 B944     		add	r9, r9, r7
 817              	.LVL99:
 818 0154 2F4B     		ldr	r3, .L88+4
 819              	.LBB44:
ARM GAS  C:\Users\rdn\AppData\Local\Temp\cc92LAgm.s 			page 30


 820              	.LBB45:
 821              	.LBB46:
 822              	.LBB47:
 823              		.file 2 "..\\..\\..\\liblc3\\src\\fastmath.h"
   1:..\..\..\liblc3\src/fastmath.h **** /******************************************************************************
   2:..\..\..\liblc3\src/fastmath.h ****  *
   3:..\..\..\liblc3\src/fastmath.h ****  *  Copyright 2022 Google LLC
   4:..\..\..\liblc3\src/fastmath.h ****  *
   5:..\..\..\liblc3\src/fastmath.h ****  *  Licensed under the Apache License, Version 2.0 (the "License");
   6:..\..\..\liblc3\src/fastmath.h ****  *  you may not use this file except in compliance with the License.
   7:..\..\..\liblc3\src/fastmath.h ****  *  You may obtain a copy of the License at:
   8:..\..\..\liblc3\src/fastmath.h ****  *
   9:..\..\..\liblc3\src/fastmath.h ****  *  http://www.apache.org/licenses/LICENSE-2.0
  10:..\..\..\liblc3\src/fastmath.h ****  *
  11:..\..\..\liblc3\src/fastmath.h ****  *  Unless required by applicable law or agreed to in writing, software
  12:..\..\..\liblc3\src/fastmath.h ****  *  distributed under the License is distributed on an "AS IS" BASIS,
  13:..\..\..\liblc3\src/fastmath.h ****  *  WITHOUT WARRANTIES OR CONDITIONS OF ANY KIND, either express or implied.
  14:..\..\..\liblc3\src/fastmath.h ****  *  See the License for the specific language governing permissions and
  15:..\..\..\liblc3\src/fastmath.h ****  *  limitations under the License.
  16:..\..\..\liblc3\src/fastmath.h ****  *
  17:..\..\..\liblc3\src/fastmath.h ****  ******************************************************************************/
  18:..\..\..\liblc3\src/fastmath.h **** 
  19:..\..\..\liblc3\src/fastmath.h **** #ifndef __LC3_FASTMATH_H
  20:..\..\..\liblc3\src/fastmath.h **** #define __LC3_FASTMATH_H
  21:..\..\..\liblc3\src/fastmath.h **** 
  22:..\..\..\liblc3\src/fastmath.h **** #include <stdint.h>
  23:..\..\..\liblc3\src/fastmath.h **** #include <math.h>
  24:..\..\..\liblc3\src/fastmath.h **** 
  25:..\..\..\liblc3\src/fastmath.h **** 
  26:..\..\..\liblc3\src/fastmath.h **** /**
  27:..\..\..\liblc3\src/fastmath.h ****  * IEEE 754 Floating point representation
  28:..\..\..\liblc3\src/fastmath.h ****  */
  29:..\..\..\liblc3\src/fastmath.h **** 
  30:..\..\..\liblc3\src/fastmath.h **** #define LC3_IEEE754_SIGN_SHL   (31)
  31:..\..\..\liblc3\src/fastmath.h **** #define LC3_IEEE754_SIGN_MASK  (1 << LC3_IEEE754_SIGN_SHL)
  32:..\..\..\liblc3\src/fastmath.h **** 
  33:..\..\..\liblc3\src/fastmath.h **** #define LC3_IEEE754_EXP_SHL    (23)
  34:..\..\..\liblc3\src/fastmath.h **** #define LC3_IEEE754_EXP_MASK   (0xff << LC3_IEEE754_EXP_SHL)
  35:..\..\..\liblc3\src/fastmath.h **** #define LC3_IEEE754_EXP_BIAS   (127)
  36:..\..\..\liblc3\src/fastmath.h **** 
  37:..\..\..\liblc3\src/fastmath.h **** 
  38:..\..\..\liblc3\src/fastmath.h **** /**
  39:..\..\..\liblc3\src/fastmath.h ****  * Fast multiply floating-point number by integral power of 2
  40:..\..\..\liblc3\src/fastmath.h ****  * x               Operand, finite number
  41:..\..\..\liblc3\src/fastmath.h ****  * exp             Exponent such that 2^x is finite
  42:..\..\..\liblc3\src/fastmath.h ****  * return          2^exp
  43:..\..\..\liblc3\src/fastmath.h ****  */
  44:..\..\..\liblc3\src/fastmath.h **** static inline float lc3_ldexpf(float _x, int exp) {
  45:..\..\..\liblc3\src/fastmath.h ****     union { float f; int32_t s; } x = { .f = _x };
  46:..\..\..\liblc3\src/fastmath.h **** 
  47:..\..\..\liblc3\src/fastmath.h ****     if (x.s & LC3_IEEE754_EXP_MASK)
  48:..\..\..\liblc3\src/fastmath.h ****         x.s += exp << LC3_IEEE754_EXP_SHL;
  49:..\..\..\liblc3\src/fastmath.h **** 
  50:..\..\..\liblc3\src/fastmath.h ****     return x.f;
  51:..\..\..\liblc3\src/fastmath.h **** }
  52:..\..\..\liblc3\src/fastmath.h **** 
  53:..\..\..\liblc3\src/fastmath.h **** /**
ARM GAS  C:\Users\rdn\AppData\Local\Temp\cc92LAgm.s 			page 31


  54:..\..\..\liblc3\src/fastmath.h ****  * Fast convert floating-point number to fractional and integral components
  55:..\..\..\liblc3\src/fastmath.h ****  * x               Operand, finite number
  56:..\..\..\liblc3\src/fastmath.h ****  * exp             Return the exponent part
  57:..\..\..\liblc3\src/fastmath.h ****  * return          The normalized fraction in [0.5:1[
  58:..\..\..\liblc3\src/fastmath.h ****  */
  59:..\..\..\liblc3\src/fastmath.h **** static inline float lc3_frexpf(float _x, int *exp) {
  60:..\..\..\liblc3\src/fastmath.h ****     union { float f; uint32_t u; } x = { .f = _x };
  61:..\..\..\liblc3\src/fastmath.h **** 
  62:..\..\..\liblc3\src/fastmath.h ****     int e = (x.u & LC3_IEEE754_EXP_MASK) >> LC3_IEEE754_EXP_SHL;
  63:..\..\..\liblc3\src/fastmath.h ****     *exp = e - (LC3_IEEE754_EXP_BIAS - 1);
  64:..\..\..\liblc3\src/fastmath.h **** 
  65:..\..\..\liblc3\src/fastmath.h ****     x.u = (x.u & ~LC3_IEEE754_EXP_MASK) |
  66:..\..\..\liblc3\src/fastmath.h ****         ((LC3_IEEE754_EXP_BIAS - 1) << LC3_IEEE754_EXP_SHL);
  67:..\..\..\liblc3\src/fastmath.h **** 
  68:..\..\..\liblc3\src/fastmath.h ****     return x.f;
  69:..\..\..\liblc3\src/fastmath.h **** }
  70:..\..\..\liblc3\src/fastmath.h **** 
  71:..\..\..\liblc3\src/fastmath.h **** /**
  72:..\..\..\liblc3\src/fastmath.h ****  * Fast 2^n approximation
  73:..\..\..\liblc3\src/fastmath.h ****  * x               Operand, range -100 to 100
  74:..\..\..\liblc3\src/fastmath.h ****  * return          2^x approximation (max relative error ~ 4e-7)
  75:..\..\..\liblc3\src/fastmath.h ****  */
  76:..\..\..\liblc3\src/fastmath.h **** static inline float lc3_exp2f(float x)
  77:..\..\..\liblc3\src/fastmath.h **** {
  78:..\..\..\liblc3\src/fastmath.h ****     /* --- 2^(i/8) for i from 0 to 7 --- */
  79:..\..\..\liblc3\src/fastmath.h **** 
  80:..\..\..\liblc3\src/fastmath.h ****     static const float e[] = {
  81:..\..\..\liblc3\src/fastmath.h ****         1.00000000e+00, 1.09050773e+00, 1.18920712e+00, 1.29683955e+00,
  82:..\..\..\liblc3\src/fastmath.h ****         1.41421356e+00, 1.54221083e+00, 1.68179283e+00, 1.83400809e+00 };
  83:..\..\..\liblc3\src/fastmath.h **** 
  84:..\..\..\liblc3\src/fastmath.h ****     /* --- Polynomial approx in range 0 to 1/8 --- */
  85:..\..\..\liblc3\src/fastmath.h **** 
  86:..\..\..\liblc3\src/fastmath.h ****     static const float p[] = {
  87:..\..\..\liblc3\src/fastmath.h ****         1.00448128e-02, 5.54563260e-02, 2.40228756e-01, 6.93147140e-01 };
  88:..\..\..\liblc3\src/fastmath.h **** 
  89:..\..\..\liblc3\src/fastmath.h ****     /* --- Split the operand ---
  90:..\..\..\liblc3\src/fastmath.h ****      *
  91:..\..\..\liblc3\src/fastmath.h ****      * Such as x = k/8 + y, with k an integer, and |y| < 0.5/8
  92:..\..\..\liblc3\src/fastmath.h ****      *
  93:..\..\..\liblc3\src/fastmath.h ****      * Note that `fast-math` compiler option leads to rounding error,
  94:..\..\..\liblc3\src/fastmath.h ****      * disable optimisation with `volatile`. */
  95:..\..\..\liblc3\src/fastmath.h **** 
  96:..\..\..\liblc3\src/fastmath.h ****     volatile union { float f; int32_t s; } v;
  97:..\..\..\liblc3\src/fastmath.h **** 
  98:..\..\..\liblc3\src/fastmath.h ****     v.f = x + 0x1.8p20f;
 824              		.loc 2 98 0
 825 0156 DFED306A 		vldr.32	s13, .L88+8
 826 015a 53F82900 		ldr	r0, [r3, r9, lsl #2]
  99:..\..\..\liblc3\src/fastmath.h ****     int k = v.s;
 100:..\..\..\liblc3\src/fastmath.h ****     x -= v.f - 0x1.8p20f;
 101:..\..\..\liblc3\src/fastmath.h **** 
 102:..\..\..\liblc3\src/fastmath.h ****     /* --- Compute 2^x, with |x| < 1 ---
 103:..\..\..\liblc3\src/fastmath.h ****      * Perform polynomial approximation in range -0.5/8 to 0.5/8,
 104:..\..\..\liblc3\src/fastmath.h ****      * and muplity by precomputed value of 2^(i/8), i in [0:7] */
 105:..\..\..\liblc3\src/fastmath.h **** 
 106:..\..\..\liblc3\src/fastmath.h ****     union { float f; int32_t s; } y;
 107:..\..\..\liblc3\src/fastmath.h **** 
ARM GAS  C:\Users\rdn\AppData\Local\Temp\cc92LAgm.s 			page 32


 108:..\..\..\liblc3\src/fastmath.h ****     y.f = (      p[0]) * x;
 109:..\..\..\liblc3\src/fastmath.h ****     y.f = (y.f + p[1]) * x;
 110:..\..\..\liblc3\src/fastmath.h ****     y.f = (y.f + p[2]) * x;
 111:..\..\..\liblc3\src/fastmath.h ****     y.f = (y.f + p[3]) * x;
 112:..\..\..\liblc3\src/fastmath.h ****     y.f = (y.f +  1.f) * e[k & 7];
 113:..\..\..\liblc3\src/fastmath.h **** 
 114:..\..\..\liblc3\src/fastmath.h ****     /* --- Add the exponent --- */
 115:..\..\..\liblc3\src/fastmath.h **** 
 116:..\..\..\liblc3\src/fastmath.h ****     y.s += (k >> 3) << LC3_IEEE754_EXP_SHL;
 827              		.loc 2 116 0
 828 015e 9FED2F6A 		vldr.32	s12, .L88+12
 829 0162 DFED2F5A 		vldr.32	s11, .L88+16
 830 0166 9FED2F5A 		vldr.32	s10, .L88+20
 831 016a DFED2F4A 		vldr.32	s9, .L88+24
 112:..\..\..\liblc3\src/fastmath.h **** 
 832              		.loc 2 112 0
 833 016e 2F4F     		ldr	r7, .L88+28
 834              	.LBE47:
 835              	.LBE46:
 836              	.LBE45:
 756:..\..\..\liblc3\src/sns.c **** 
 757:..\..\..\liblc3\src/sns.c ****     for (int i = 0, ib = 0; ib < nb; ib++) {
 837              		.loc 1 757 0
 838 0170 0022     		movs	r2, #0
 839 0172 1146     		mov	r1, r2
 840              	.LBB52:
 841              	.LBB50:
 842              	.LBB48:
 843              		.loc 2 116 0
 844 0174 B7EE004A 		vmov.f32	s8, #1.0e+0
 845              	.LVL100:
 846              	.L77:
 847              	.LBE48:
 848              	.LBE50:
 849              	.LBE52:
 850              		.loc 1 757 0 discriminator 1
 851 0178 A242     		cmp	r2, r4
 852 017a 45DA     		bge	.L86
 853              	.LBB53:
 758:..\..\..\liblc3\src/sns.c ****         float g_sns = lc3_exp2f(-scf[ib]);
 854              		.loc 1 758 0
 855 017c FAEC017A 		vldmia.32	r10!, {s15}
 856              	.LVL101:
 857 0180 4C9E     		ldr	r6, [sp, #304]
 858              	.LBB51:
 859              	.LBB49:
  98:..\..\..\liblc3\src/fastmath.h ****     int k = v.s;
 860              		.loc 2 98 0
 861 0182 36EEE77A 		vsub.f32	s14, s13, s15
 100:..\..\..\liblc3\src/fastmath.h **** 
 862              		.loc 2 100 0
 863 0186 F1EE677A 		vneg.f32	s15, s15
 864              	.LVL102:
  98:..\..\..\liblc3\src/fastmath.h ****     int k = v.s;
 865              		.loc 2 98 0
 866 018a 8DED037A 		vstr.32	s14, [sp, #12]
  99:..\..\..\liblc3\src/fastmath.h ****     x -= v.f - 0x1.8p20f;
ARM GAS  C:\Users\rdn\AppData\Local\Temp\cc92LAgm.s 			page 33


 867              		.loc 2 99 0
 868 018e 039B     		ldr	r3, [sp, #12]
 869              	.LVL103:
 100:..\..\..\liblc3\src/fastmath.h **** 
 870              		.loc 2 100 0
 871 0190 9DED037A 		vldr.32	s14, [sp, #12]
 872 0194 37EE667A 		vsub.f32	s14, s14, s13
 873              		.loc 2 116 0
 874 0198 F0EE453A 		vmov.f32	s7, s10
 100:..\..\..\liblc3\src/fastmath.h **** 
 875              		.loc 2 100 0
 876 019c 77EEC77A 		vsub.f32	s15, s15, s14
 877              	.LVL104:
 878              		.loc 2 116 0
 879 01a0 B0EE657A 		vmov.f32	s14, s11
 880 01a4 A7EE867A 		vfma.f32	s14, s15, s12
 112:..\..\..\liblc3\src/fastmath.h **** 
 881              		.loc 2 112 0
 882 01a8 03F0070E 		and	lr, r3, #7
 883              	.LVL105:
 884 01ac 07EB8E0E 		add	lr, r7, lr, lsl #2
 885              	.LVL106:
 886              		.loc 2 116 0
 887 01b0 DB10     		asrs	r3, r3, #3
 888              	.LVL107:
 889 01b2 E7EE873A 		vfma.f32	s7, s15, s14
 890 01b6 B0EE637A 		vmov.f32	s14, s7
 891 01ba F0EE643A 		vmov.f32	s7, s9
 892 01be E7EE873A 		vfma.f32	s7, s15, s14
 893 01c2 B0EE637A 		vmov.f32	s14, s7
 894 01c6 F0EE443A 		vmov.f32	s7, s8
 895 01ca E7EE873A 		vfma.f32	s7, s15, s14
 896 01ce 9EED007A 		vldr.32	s14, [lr]
 897 01d2 63EE877A 		vmul.f32	s15, s7, s14
 898              	.LVL108:
 899 01d6 17EE905A 		vmov	r5, s15	@ int
 900 01da 05EBC353 		add	r3, r5, r3, lsl #23
 901 01de 07EE903A 		vmov	s15, r3	@ int
 902 01e2 8B00     		lsls	r3, r1, #2
 903 01e4 06EB030E 		add	lr, r6, r3
 904 01e8 019E     		ldr	r6, [sp, #4]
 905              	.LBE49:
 906              	.LBE51:
 759:..\..\..\liblc3\src/sns.c **** 
 760:..\..\..\liblc3\src/sns.c ****         for ( ; i < lim[ib+1]; i++)
 907              		.loc 1 760 0
 908 01ea 50F8045F 		ldr	r5, [r0, #4]!
 909 01ee 3344     		add	r3, r3, r6
 910              	.L78:
 911              		.loc 1 760 0 is_stmt 0 discriminator 1
 912 01f0 A942     		cmp	r1, r5
 913 01f2 07DA     		bge	.L87
 761:..\..\..\liblc3\src/sns.c ****             y[i] = x[i] * g_sns;
 914              		.loc 1 761 0 is_stmt 1 discriminator 2
 915 01f4 BEEC017A 		vldmia.32	lr!, {s14}
 916 01f8 27EE277A 		vmul.f32	s14, s14, s15
 760:..\..\..\liblc3\src/sns.c ****             y[i] = x[i] * g_sns;
ARM GAS  C:\Users\rdn\AppData\Local\Temp\cc92LAgm.s 			page 34


 917              		.loc 1 760 0 discriminator 2
 918 01fc 0131     		adds	r1, r1, #1
 919              	.LVL109:
 920              		.loc 1 761 0 discriminator 2
 921 01fe A3EC017A 		vstmia.32	r3!, {s14}
 922 0202 F5E7     		b	.L78
 923              	.L87:
 924              	.LBE53:
 757:..\..\..\liblc3\src/sns.c ****         float g_sns = lc3_exp2f(-scf[ib]);
 925              		.loc 1 757 0 discriminator 2
 926 0204 0132     		adds	r2, r2, #1
 927              	.LVL110:
 928 0206 B7E7     		b	.L77
 929              	.L86:
 930              	.LBE44:
 762:..\..\..\liblc3\src/sns.c ****     }
 763:..\..\..\liblc3\src/sns.c **** }
 931              		.loc 1 763 0
 932 0208 44B0     		add	sp, sp, #272
 933              		.cfi_def_cfa_offset 32
 934              		@ sp needed
 935 020a BDE8F087 		pop	{r4, r5, r6, r7, r8, r9, r10, pc}
 936              	.LVL111:
 937              	.L89:
 938 020e 00BF     		.align	2
 939              	.L88:
 940 0210 00000000 		.word	lc3_num_bands
 941 0214 00000000 		.word	lc3_band_lim
 942 0218 0000C049 		.word	1237319680
 943 021c 0093243C 		.word	1009029888
 944 0220 2C26633D 		.word	1029908012
 945 0224 87FE753E 		.word	1047920263
 946 0228 1772313F 		.word	1060205079
 947 022c 00040000 		.word	.LANCHOR0+1024
 948              		.cfi_endproc
 949              	.LFE32:
 950              		.size	spectral_shaping, .-spectral_shaping
 951              		.section	.text.lc3_put_bits,"ax",%progbits
 952              		.align	1
 953              		.thumb
 954              		.thumb_func
 955              		.type	lc3_put_bits, %function
 956              	lc3_put_bits:
 957              	.LFB8:
 958              		.file 3 "..\\..\\..\\liblc3\\src\\bits.h"
   1:..\..\..\liblc3\src/bits.h **** /******************************************************************************
   2:..\..\..\liblc3\src/bits.h ****  *
   3:..\..\..\liblc3\src/bits.h ****  *  Copyright 2022 Google LLC
   4:..\..\..\liblc3\src/bits.h ****  *
   5:..\..\..\liblc3\src/bits.h ****  *  Licensed under the Apache License, Version 2.0 (the "License");
   6:..\..\..\liblc3\src/bits.h ****  *  you may not use this file except in compliance with the License.
   7:..\..\..\liblc3\src/bits.h ****  *  You may obtain a copy of the License at:
   8:..\..\..\liblc3\src/bits.h ****  *
   9:..\..\..\liblc3\src/bits.h ****  *  http://www.apache.org/licenses/LICENSE-2.0
  10:..\..\..\liblc3\src/bits.h ****  *
  11:..\..\..\liblc3\src/bits.h ****  *  Unless required by applicable law or agreed to in writing, software
  12:..\..\..\liblc3\src/bits.h ****  *  distributed under the License is distributed on an "AS IS" BASIS,
ARM GAS  C:\Users\rdn\AppData\Local\Temp\cc92LAgm.s 			page 35


  13:..\..\..\liblc3\src/bits.h ****  *  WITHOUT WARRANTIES OR CONDITIONS OF ANY KIND, either express or implied.
  14:..\..\..\liblc3\src/bits.h ****  *  See the License for the specific language governing permissions and
  15:..\..\..\liblc3\src/bits.h ****  *  limitations under the License.
  16:..\..\..\liblc3\src/bits.h ****  *
  17:..\..\..\liblc3\src/bits.h ****  ******************************************************************************/
  18:..\..\..\liblc3\src/bits.h **** 
  19:..\..\..\liblc3\src/bits.h **** /**
  20:..\..\..\liblc3\src/bits.h ****  * The bitstream is written by the 2 ends of the buffer :
  21:..\..\..\liblc3\src/bits.h ****  *
  22:..\..\..\liblc3\src/bits.h ****  * - Arthmetic coder put bits while increasing memory addresses
  23:..\..\..\liblc3\src/bits.h ****  *   in the buffer (forward)
  24:..\..\..\liblc3\src/bits.h ****  *
  25:..\..\..\liblc3\src/bits.h ****  * - Plain bits are puts starting the end of the buffer, with memeory
  26:..\..\..\liblc3\src/bits.h ****  *   addresses decreasing (backward)
  27:..\..\..\liblc3\src/bits.h ****  *
  28:..\..\..\liblc3\src/bits.h ****  *       .---------------------------------------------------.
  29:..\..\..\liblc3\src/bits.h ****  *       | > > > > > > > > > > :         : < < < < < < < < < |
  30:..\..\..\liblc3\src/bits.h ****  *       '---------------------------------------------------'
  31:..\..\..\liblc3\src/bits.h ****  *       |---------------------> - - - - - - - - - - - - - ->|
  32:..\..\..\liblc3\src/bits.h ****  *                              |< - - - <-------------------|
  33:..\..\..\liblc3\src/bits.h ****  *          Arithmetic coding                  Plain bits
  34:..\..\..\liblc3\src/bits.h ****  *          `lc3_put_symbol()`               `lc3_put_bits()`
  35:..\..\..\liblc3\src/bits.h ****  *
  36:..\..\..\liblc3\src/bits.h ****  * - The forward writing is protected against buffer overflow, it cannot
  37:..\..\..\liblc3\src/bits.h ****  *   write after the buffer, but can overwrite plain bits previously
  38:..\..\..\liblc3\src/bits.h ****  *   written in the buffer.
  39:..\..\..\liblc3\src/bits.h ****  *
  40:..\..\..\liblc3\src/bits.h ****  * - The backward writing is protected against overwrite of the arithmetic
  41:..\..\..\liblc3\src/bits.h ****  *   coder bitstream. In such way, the backward bitstream is always limited
  42:..\..\..\liblc3\src/bits.h ****  *   by the aritmetic coder bitstream, and can be overwritten by him.
  43:..\..\..\liblc3\src/bits.h ****  *
  44:..\..\..\liblc3\src/bits.h ****  *       .---------------------------------------------------.
  45:..\..\..\liblc3\src/bits.h ****  *       | > > > > > > > > > > :         : < < < < < < < < < |
  46:..\..\..\liblc3\src/bits.h ****  *       '---------------------------------------------------'
  47:..\..\..\liblc3\src/bits.h ****  *       |---------------------> - - - - - - - - - - - - - ->|
  48:..\..\..\liblc3\src/bits.h ****  *       |< - - - - - - - - - - -  - - - <-------------------|
  49:..\..\..\liblc3\src/bits.h ****  *          Arithmetic coding                  Plain bits
  50:..\..\..\liblc3\src/bits.h ****  *          `lc3_get_symbol()`               `lc3_get_bits()`
  51:..\..\..\liblc3\src/bits.h ****  *
  52:..\..\..\liblc3\src/bits.h ****  * - Reading is limited to read of the complementary end of the buffer.
  53:..\..\..\liblc3\src/bits.h ****  *
  54:..\..\..\liblc3\src/bits.h ****  * - The procedure `lc3_check_bits()` returns indication that read has been
  55:..\..\..\liblc3\src/bits.h ****  *   made crossing the other bit plane.
  56:..\..\..\liblc3\src/bits.h ****  *
  57:..\..\..\liblc3\src/bits.h ****  */
  58:..\..\..\liblc3\src/bits.h **** 
  59:..\..\..\liblc3\src/bits.h **** #ifndef __LC3_BITS_H
  60:..\..\..\liblc3\src/bits.h **** #define __LC3_BITS_H
  61:..\..\..\liblc3\src/bits.h **** 
  62:..\..\..\liblc3\src/bits.h **** #include "common.h"
  63:..\..\..\liblc3\src/bits.h **** 
  64:..\..\..\liblc3\src/bits.h **** 
  65:..\..\..\liblc3\src/bits.h **** /**
  66:..\..\..\liblc3\src/bits.h ****  * Bitstream mode
  67:..\..\..\liblc3\src/bits.h ****  */
  68:..\..\..\liblc3\src/bits.h **** 
  69:..\..\..\liblc3\src/bits.h **** enum lc3_bits_mode {
ARM GAS  C:\Users\rdn\AppData\Local\Temp\cc92LAgm.s 			page 36


  70:..\..\..\liblc3\src/bits.h ****     LC3_BITS_MODE_READ,
  71:..\..\..\liblc3\src/bits.h ****     LC3_BITS_MODE_WRITE,
  72:..\..\..\liblc3\src/bits.h **** };
  73:..\..\..\liblc3\src/bits.h **** 
  74:..\..\..\liblc3\src/bits.h **** /**
  75:..\..\..\liblc3\src/bits.h ****  * Arithmetic coder symbol interval
  76:..\..\..\liblc3\src/bits.h ****  * The model split the interval in 17 symbols
  77:..\..\..\liblc3\src/bits.h ****  */
  78:..\..\..\liblc3\src/bits.h **** 
  79:..\..\..\liblc3\src/bits.h **** struct lc3_ac_symbol {
  80:..\..\..\liblc3\src/bits.h ****     uint16_t low   : 16;
  81:..\..\..\liblc3\src/bits.h ****     uint16_t range : 16;
  82:..\..\..\liblc3\src/bits.h **** };
  83:..\..\..\liblc3\src/bits.h **** 
  84:..\..\..\liblc3\src/bits.h **** struct lc3_ac_model {
  85:..\..\..\liblc3\src/bits.h ****     struct lc3_ac_symbol s[17];
  86:..\..\..\liblc3\src/bits.h **** };
  87:..\..\..\liblc3\src/bits.h **** 
  88:..\..\..\liblc3\src/bits.h **** /**
  89:..\..\..\liblc3\src/bits.h ****  * Bitstream context
  90:..\..\..\liblc3\src/bits.h ****  */
  91:..\..\..\liblc3\src/bits.h **** 
  92:..\..\..\liblc3\src/bits.h **** #define LC3_ACCU_BITS (int)(8 * sizeof(unsigned))
  93:..\..\..\liblc3\src/bits.h **** 
  94:..\..\..\liblc3\src/bits.h **** struct lc3_bits_accu {
  95:..\..\..\liblc3\src/bits.h ****     unsigned v;
  96:..\..\..\liblc3\src/bits.h ****     int n, nover;
  97:..\..\..\liblc3\src/bits.h **** };
  98:..\..\..\liblc3\src/bits.h **** 
  99:..\..\..\liblc3\src/bits.h **** #define LC3_AC_BITS (int)(24)
 100:..\..\..\liblc3\src/bits.h **** 
 101:..\..\..\liblc3\src/bits.h **** struct lc3_bits_ac {
 102:..\..\..\liblc3\src/bits.h ****     unsigned low, range;
 103:..\..\..\liblc3\src/bits.h ****     int cache, carry, carry_count;
 104:..\..\..\liblc3\src/bits.h ****     bool error;
 105:..\..\..\liblc3\src/bits.h **** };
 106:..\..\..\liblc3\src/bits.h **** 
 107:..\..\..\liblc3\src/bits.h **** struct lc3_bits_buffer {
 108:..\..\..\liblc3\src/bits.h ****     const uint8_t *start, *end;
 109:..\..\..\liblc3\src/bits.h ****     uint8_t *p_fw, *p_bw;
 110:..\..\..\liblc3\src/bits.h **** };
 111:..\..\..\liblc3\src/bits.h **** 
 112:..\..\..\liblc3\src/bits.h **** typedef struct lc3_bits {
 113:..\..\..\liblc3\src/bits.h ****     enum lc3_bits_mode mode;
 114:..\..\..\liblc3\src/bits.h ****     struct lc3_bits_ac ac;
 115:..\..\..\liblc3\src/bits.h ****     struct lc3_bits_accu accu;
 116:..\..\..\liblc3\src/bits.h ****     struct lc3_bits_buffer buffer;
 117:..\..\..\liblc3\src/bits.h **** } lc3_bits_t;
 118:..\..\..\liblc3\src/bits.h **** 
 119:..\..\..\liblc3\src/bits.h **** 
 120:..\..\..\liblc3\src/bits.h **** /**
 121:..\..\..\liblc3\src/bits.h ****  * Setup bitstream reading/writing
 122:..\..\..\liblc3\src/bits.h ****  * bits            Bitstream context
 123:..\..\..\liblc3\src/bits.h ****  * mode            Either READ or WRITE mode
 124:..\..\..\liblc3\src/bits.h ****  * buffer, len     Output buffer and length (in bytes)
 125:..\..\..\liblc3\src/bits.h ****  */
 126:..\..\..\liblc3\src/bits.h **** void lc3_setup_bits(lc3_bits_t *bits,
ARM GAS  C:\Users\rdn\AppData\Local\Temp\cc92LAgm.s 			page 37


 127:..\..\..\liblc3\src/bits.h ****     enum lc3_bits_mode mode, void *buffer, int len);
 128:..\..\..\liblc3\src/bits.h **** 
 129:..\..\..\liblc3\src/bits.h **** /**
 130:..\..\..\liblc3\src/bits.h ****  * Return number of bits left in the bitstream
 131:..\..\..\liblc3\src/bits.h ****  * bits            Bitstream context
 132:..\..\..\liblc3\src/bits.h ****  * return          Number of bits left
 133:..\..\..\liblc3\src/bits.h ****  */
 134:..\..\..\liblc3\src/bits.h **** int lc3_get_bits_left(const lc3_bits_t *bits);
 135:..\..\..\liblc3\src/bits.h **** 
 136:..\..\..\liblc3\src/bits.h **** /**
 137:..\..\..\liblc3\src/bits.h ****  * Check if error occured on bitstream reading/writing
 138:..\..\..\liblc3\src/bits.h ****  * bits            Bitstream context
 139:..\..\..\liblc3\src/bits.h ****  * return          0: Ok  -1: Bitstream overflow or AC reading error
 140:..\..\..\liblc3\src/bits.h ****  */
 141:..\..\..\liblc3\src/bits.h **** int lc3_check_bits(const lc3_bits_t *bits);
 142:..\..\..\liblc3\src/bits.h **** 
 143:..\..\..\liblc3\src/bits.h **** /**
 144:..\..\..\liblc3\src/bits.h ****  * Put a bit
 145:..\..\..\liblc3\src/bits.h ****  * bits            Bitstream context
 146:..\..\..\liblc3\src/bits.h ****  * v               Bit value, 0 or 1
 147:..\..\..\liblc3\src/bits.h ****  */
 148:..\..\..\liblc3\src/bits.h **** static inline void lc3_put_bit(lc3_bits_t *bits, int v);
 149:..\..\..\liblc3\src/bits.h **** 
 150:..\..\..\liblc3\src/bits.h **** /**
 151:..\..\..\liblc3\src/bits.h ****  * Put from 1 to 32 bits
 152:..\..\..\liblc3\src/bits.h ****  * bits            Bitstream context
 153:..\..\..\liblc3\src/bits.h ****  * v, n            Value, in range 0 to 2^n - 1, and bits count (1 to 32)
 154:..\..\..\liblc3\src/bits.h ****  */
 155:..\..\..\liblc3\src/bits.h **** static inline void lc3_put_bits(lc3_bits_t *bits, unsigned v, int n);
 156:..\..\..\liblc3\src/bits.h **** 
 157:..\..\..\liblc3\src/bits.h **** /**
 158:..\..\..\liblc3\src/bits.h ****  * Put arithmetic coder symbol
 159:..\..\..\liblc3\src/bits.h ****  * bits            Bitstream context
 160:..\..\..\liblc3\src/bits.h ****  * model, s        Model distribution and symbol value
 161:..\..\..\liblc3\src/bits.h ****  */
 162:..\..\..\liblc3\src/bits.h **** static inline void lc3_put_symbol(lc3_bits_t *bits,
 163:..\..\..\liblc3\src/bits.h ****     const struct lc3_ac_model *model, unsigned s);
 164:..\..\..\liblc3\src/bits.h **** 
 165:..\..\..\liblc3\src/bits.h **** /**
 166:..\..\..\liblc3\src/bits.h ****  * Flush and terminate bitstream writing
 167:..\..\..\liblc3\src/bits.h ****  * bits            Bitstream context
 168:..\..\..\liblc3\src/bits.h ****  */
 169:..\..\..\liblc3\src/bits.h **** void lc3_flush_bits(lc3_bits_t *bits);
 170:..\..\..\liblc3\src/bits.h **** 
 171:..\..\..\liblc3\src/bits.h **** /**
 172:..\..\..\liblc3\src/bits.h ****  * Get a bit
 173:..\..\..\liblc3\src/bits.h ****  * bits            Bitstream context
 174:..\..\..\liblc3\src/bits.h ****  */
 175:..\..\..\liblc3\src/bits.h **** static inline int lc3_get_bit(lc3_bits_t *bits);
 176:..\..\..\liblc3\src/bits.h **** 
 177:..\..\..\liblc3\src/bits.h **** /**
 178:..\..\..\liblc3\src/bits.h ****  * Get from 1 to 32 bits
 179:..\..\..\liblc3\src/bits.h ****  * bits            Bitstream context
 180:..\..\..\liblc3\src/bits.h ****  * n               Number of bits to read (1 to 32)
 181:..\..\..\liblc3\src/bits.h ****  * return          The value read
 182:..\..\..\liblc3\src/bits.h ****  */
 183:..\..\..\liblc3\src/bits.h **** static inline unsigned lc3_get_bits(lc3_bits_t *bits,  int n);
ARM GAS  C:\Users\rdn\AppData\Local\Temp\cc92LAgm.s 			page 38


 184:..\..\..\liblc3\src/bits.h **** 
 185:..\..\..\liblc3\src/bits.h **** /**
 186:..\..\..\liblc3\src/bits.h ****  * Get arithmetic coder symbol
 187:..\..\..\liblc3\src/bits.h ****  * bits            Bitstream context
 188:..\..\..\liblc3\src/bits.h ****  * model           Model distribution
 189:..\..\..\liblc3\src/bits.h ****  * return          The value read
 190:..\..\..\liblc3\src/bits.h ****  */
 191:..\..\..\liblc3\src/bits.h **** static inline unsigned lc3_get_symbol(lc3_bits_t *bits,
 192:..\..\..\liblc3\src/bits.h ****     const struct lc3_ac_model *model);
 193:..\..\..\liblc3\src/bits.h **** 
 194:..\..\..\liblc3\src/bits.h **** 
 195:..\..\..\liblc3\src/bits.h **** 
 196:..\..\..\liblc3\src/bits.h **** /* ----------------------------------------------------------------------------
 197:..\..\..\liblc3\src/bits.h ****  *  Inline implementations
 198:..\..\..\liblc3\src/bits.h ****  * -------------------------------------------------------------------------- */
 199:..\..\..\liblc3\src/bits.h **** 
 200:..\..\..\liblc3\src/bits.h **** void lc3_put_bits_generic(lc3_bits_t *bits, unsigned v, int n);
 201:..\..\..\liblc3\src/bits.h **** unsigned lc3_get_bits_generic(struct lc3_bits *bits, int n);
 202:..\..\..\liblc3\src/bits.h **** 
 203:..\..\..\liblc3\src/bits.h **** void lc3_ac_read_renorm(lc3_bits_t *bits);
 204:..\..\..\liblc3\src/bits.h **** void lc3_ac_write_renorm(lc3_bits_t *bits);
 205:..\..\..\liblc3\src/bits.h **** 
 206:..\..\..\liblc3\src/bits.h **** 
 207:..\..\..\liblc3\src/bits.h **** /**
 208:..\..\..\liblc3\src/bits.h ****  * Put a bit
 209:..\..\..\liblc3\src/bits.h ****  */
 210:..\..\..\liblc3\src/bits.h **** LC3_HOT static inline void lc3_put_bit(lc3_bits_t *bits, int v)
 211:..\..\..\liblc3\src/bits.h **** {
 212:..\..\..\liblc3\src/bits.h ****     lc3_put_bits(bits, v, 1);
 213:..\..\..\liblc3\src/bits.h **** }
 214:..\..\..\liblc3\src/bits.h **** 
 215:..\..\..\liblc3\src/bits.h **** /**
 216:..\..\..\liblc3\src/bits.h ****  * Put from 1 to 32 bits
 217:..\..\..\liblc3\src/bits.h ****  */
 218:..\..\..\liblc3\src/bits.h **** LC3_HOT static inline void lc3_put_bits(
 219:..\..\..\liblc3\src/bits.h ****     struct lc3_bits *bits, unsigned v, int n)
 220:..\..\..\liblc3\src/bits.h **** {
 959              		.loc 3 220 0
 960              		.cfi_startproc
 961              		@ args = 0, pretend = 0, frame = 0
 962              		@ frame_needed = 0, uses_anonymous_args = 0
 963              		@ link register save eliminated.
 964              	.LVL112:
 965 0000 70B4     		push	{r4, r5, r6}
 966              		.cfi_def_cfa_offset 12
 967              		.cfi_offset 4, -12
 968              		.cfi_offset 5, -8
 969              		.cfi_offset 6, -4
 221:..\..\..\liblc3\src/bits.h ****     struct lc3_bits_accu *accu = &bits->accu;
 222:..\..\..\liblc3\src/bits.h **** 
 223:..\..\..\liblc3\src/bits.h ****     if (accu->n + n <= LC3_ACCU_BITS) {
 970              		.loc 3 223 0
 971 0002 066A     		ldr	r6, [r0, #32]
 972 0004 B518     		adds	r5, r6, r2
 973 0006 202D     		cmp	r5, #32
 220:..\..\..\liblc3\src/bits.h ****     struct lc3_bits_accu *accu = &bits->accu;
 974              		.loc 3 220 0
ARM GAS  C:\Users\rdn\AppData\Local\Temp\cc92LAgm.s 			page 39


 975 0008 0B46     		mov	r3, r1
 976              		.loc 3 223 0
 977 000a 06DC     		bgt	.L91
 224:..\..\..\liblc3\src/bits.h ****         accu->v |= v << accu->n;
 978              		.loc 3 224 0
 979 000c C269     		ldr	r2, [r0, #28]
 980              	.LVL113:
 225:..\..\..\liblc3\src/bits.h ****         accu->n += n;
 981              		.loc 3 225 0
 982 000e 0562     		str	r5, [r0, #32]
 224:..\..\..\liblc3\src/bits.h ****         accu->v |= v << accu->n;
 983              		.loc 3 224 0
 984 0010 B340     		lsls	r3, r3, r6
 985 0012 1343     		orrs	r3, r3, r2
 986 0014 C361     		str	r3, [r0, #28]
 226:..\..\..\liblc3\src/bits.h ****     } else {
 227:..\..\..\liblc3\src/bits.h ****         lc3_put_bits_generic(bits, v, n);
 228:..\..\..\liblc3\src/bits.h ****     }
 229:..\..\..\liblc3\src/bits.h **** }
 987              		.loc 3 229 0
 988 0016 70BC     		pop	{r4, r5, r6}
 989              		.cfi_remember_state
 990              		.cfi_restore 6
 991              		.cfi_restore 5
 992              		.cfi_restore 4
 993              		.cfi_def_cfa_offset 0
 994 0018 7047     		bx	lr
 995              	.LVL114:
 996              	.L91:
 997              		.cfi_restore_state
 998 001a 70BC     		pop	{r4, r5, r6}
 999              		.cfi_restore 6
 1000              		.cfi_restore 5
 1001              		.cfi_restore 4
 1002              		.cfi_def_cfa_offset 0
 227:..\..\..\liblc3\src/bits.h ****     }
 1003              		.loc 3 227 0
 1004 001c FFF7FEBF 		b	lc3_put_bits_generic
 1005              	.LVL115:
 1006              		.cfi_endproc
 1007              	.LFE8:
 1008              		.size	lc3_put_bits, .-lc3_put_bits
 1009              		.section	.text.lc3_get_bits,"ax",%progbits
 1010              		.align	1
 1011              		.thumb
 1012              		.thumb_func
 1013              		.type	lc3_get_bits, %function
 1014              	lc3_get_bits:
 1015              	.LFB10:
 230:..\..\..\liblc3\src/bits.h **** 
 231:..\..\..\liblc3\src/bits.h **** /**
 232:..\..\..\liblc3\src/bits.h ****  * Get a bit
 233:..\..\..\liblc3\src/bits.h ****  */
 234:..\..\..\liblc3\src/bits.h **** LC3_HOT static inline int lc3_get_bit(lc3_bits_t *bits)
 235:..\..\..\liblc3\src/bits.h **** {
 236:..\..\..\liblc3\src/bits.h ****     return lc3_get_bits(bits, 1);
 237:..\..\..\liblc3\src/bits.h **** }
ARM GAS  C:\Users\rdn\AppData\Local\Temp\cc92LAgm.s 			page 40


 238:..\..\..\liblc3\src/bits.h **** 
 239:..\..\..\liblc3\src/bits.h **** /**
 240:..\..\..\liblc3\src/bits.h ****  * Get from 1 to 32 bits
 241:..\..\..\liblc3\src/bits.h ****  */
 242:..\..\..\liblc3\src/bits.h **** LC3_HOT static inline unsigned lc3_get_bits(struct lc3_bits *bits, int n)
 243:..\..\..\liblc3\src/bits.h **** {
 1016              		.loc 3 243 0
 1017              		.cfi_startproc
 1018              		@ args = 0, pretend = 0, frame = 0
 1019              		@ frame_needed = 0, uses_anonymous_args = 0
 1020              		@ link register save eliminated.
 1021              	.LVL116:
 1022 0000 30B4     		push	{r4, r5}
 1023              		.cfi_def_cfa_offset 8
 1024              		.cfi_offset 4, -8
 1025              		.cfi_offset 5, -4
 244:..\..\..\liblc3\src/bits.h ****     struct lc3_bits_accu *accu = &bits->accu;
 245:..\..\..\liblc3\src/bits.h **** 
 246:..\..\..\liblc3\src/bits.h ****     if (accu->n + n <= LC3_ACCU_BITS) {
 1026              		.loc 3 246 0
 1027 0002 056A     		ldr	r5, [r0, #32]
 1028 0004 6A18     		adds	r2, r5, r1
 1029 0006 202A     		cmp	r2, #32
 243:..\..\..\liblc3\src/bits.h ****     struct lc3_bits_accu *accu = &bits->accu;
 1030              		.loc 3 243 0
 1031 0008 0346     		mov	r3, r0
 1032 000a 0C46     		mov	r4, r1
 1033              		.loc 3 246 0
 1034 000c 02DD     		ble	.L98
 247:..\..\..\liblc3\src/bits.h ****         int v = (accu->v >> accu->n) & ((1u << n) - 1);
 248:..\..\..\liblc3\src/bits.h ****         return (accu->n += n), v;
 249:..\..\..\liblc3\src/bits.h ****     }
 250:..\..\..\liblc3\src/bits.h ****     else {
 251:..\..\..\liblc3\src/bits.h ****         return lc3_get_bits_generic(bits, n);
 252:..\..\..\liblc3\src/bits.h ****     }
 253:..\..\..\liblc3\src/bits.h **** }
 1035              		.loc 3 253 0
 1036 000e 30BC     		pop	{r4, r5}
 1037              		.cfi_remember_state
 1038              		.cfi_restore 5
 1039              		.cfi_restore 4
 1040              		.cfi_def_cfa_offset 0
 251:..\..\..\liblc3\src/bits.h ****     }
 1041              		.loc 3 251 0
 1042 0010 FFF7FEBF 		b	lc3_get_bits_generic
 1043              	.LVL117:
 1044              	.L98:
 1045              		.cfi_restore_state
 1046              	.LBB54:
 247:..\..\..\liblc3\src/bits.h ****         int v = (accu->v >> accu->n) & ((1u << n) - 1);
 1047              		.loc 3 247 0
 1048 0014 C069     		ldr	r0, [r0, #28]
 1049              	.LVL118:
 248:..\..\..\liblc3\src/bits.h ****     }
 1050              		.loc 3 248 0
 1051 0016 1A62     		str	r2, [r3, #32]
 247:..\..\..\liblc3\src/bits.h ****         int v = (accu->v >> accu->n) & ((1u << n) - 1);
ARM GAS  C:\Users\rdn\AppData\Local\Temp\cc92LAgm.s 			page 41


 1052              		.loc 3 247 0
 1053 0018 0121     		movs	r1, #1
 1054              	.LVL119:
 1055 001a A140     		lsls	r1, r1, r4
 1056 001c E840     		lsrs	r0, r0, r5
 1057 001e 0139     		subs	r1, r1, #1
 1058 0020 0840     		ands	r0, r0, r1
 1059              	.LVL120:
 1060              	.LBE54:
 1061              		.loc 3 253 0
 1062 0022 30BC     		pop	{r4, r5}
 1063              		.cfi_restore 5
 1064              		.cfi_restore 4
 1065              		.cfi_def_cfa_offset 0
 1066              	.LVL121:
 1067 0024 7047     		bx	lr
 1068              		.cfi_endproc
 1069              	.LFE10:
 1070              		.size	lc3_get_bits, .-lc3_get_bits
 1071              		.section	.text.lc3_sns_analyze,"ax",%progbits
 1072              		.align	1
 1073              		.global	lc3_sns_analyze
 1074              		.thumb
 1075              		.thumb_func
 1076              		.type	lc3_sns_analyze, %function
 1077              	lc3_sns_analyze:
 1078              	.LFB33:
 764:..\..\..\liblc3\src/sns.c **** 
 765:..\..\..\liblc3\src/sns.c **** 
 766:..\..\..\liblc3\src/sns.c **** /* ----------------------------------------------------------------------------
 767:..\..\..\liblc3\src/sns.c ****  *  Interface
 768:..\..\..\liblc3\src/sns.c ****  * -------------------------------------------------------------------------- */
 769:..\..\..\liblc3\src/sns.c **** 
 770:..\..\..\liblc3\src/sns.c **** /**
 771:..\..\..\liblc3\src/sns.c ****  * SNS analysis
 772:..\..\..\liblc3\src/sns.c ****  */
 773:..\..\..\liblc3\src/sns.c **** void lc3_sns_analyze(
 774:..\..\..\liblc3\src/sns.c ****     enum lc3_dt dt, enum lc3_srate sr, int nbytes,
 775:..\..\..\liblc3\src/sns.c ****     const float *eb, bool att, struct lc3_sns_data *data,
 776:..\..\..\liblc3\src/sns.c ****     const float *x, float *y)
 777:..\..\..\liblc3\src/sns.c **** {
 1079              		.loc 1 777 0
 1080              		.cfi_startproc
 1081              		@ args = 16, pretend = 0, frame = 784
 1082              		@ frame_needed = 0, uses_anonymous_args = 0
 1083              	.LVL122:
 1084 0000 2DE9F04F 		push	{r4, r5, r6, r7, r8, r9, r10, fp, lr}
 1085              		.cfi_def_cfa_offset 36
 1086              		.cfi_offset 4, -36
 1087              		.cfi_offset 5, -32
 1088              		.cfi_offset 6, -28
 1089              		.cfi_offset 7, -24
 1090              		.cfi_offset 8, -20
 1091              		.cfi_offset 9, -16
 1092              		.cfi_offset 10, -12
 1093              		.cfi_offset 11, -8
 1094              		.cfi_offset 14, -4
ARM GAS  C:\Users\rdn\AppData\Local\Temp\cc92LAgm.s 			page 42


 1095 0004 1646     		mov	r6, r2
 1096              	.LVL123:
 1097              	.LBB93:
 1098              	.LBB94:
 288:..\..\..\liblc3\src/sns.c ****     int n4 = nb < 32 ? 32 % nb : 0;
 1099              		.loc 1 288 0
 1100 0006 C0EBC002 		rsb	r2, r0, r0, lsl #3
 1101              	.LVL124:
 1102 000a 0A44     		add	r2, r2, r1
 1103              	.LBE94:
 1104              	.LBE93:
 1105              		.loc 1 777 0
 1106 000c 2DED088B 		vpush.64	{d8, d9, d10, d11}
 1107              		.cfi_def_cfa_offset 68
 1108              		.cfi_offset 80, -68
 1109              		.cfi_offset 81, -64
 1110              		.cfi_offset 82, -60
 1111              		.cfi_offset 83, -56
 1112              		.cfi_offset 84, -52
 1113              		.cfi_offset 85, -48
 1114              		.cfi_offset 86, -44
 1115              		.cfi_offset 87, -40
 1116 0010 8946     		mov	r9, r1
 1117              	.LBB113:
 1118              	.LBB109:
 288:..\..\..\liblc3\src/sns.c ****     int n4 = nb < 32 ? 32 % nb : 0;
 1119              		.loc 1 288 0
 1120 0012 E149     		ldr	r1, .L190
 1121              	.LVL125:
 1122 0014 51F82220 		ldr	r2, [r1, r2, lsl #2]
 1123              	.LBE109:
 1124              	.LBE113:
 1125              		.loc 1 777 0
 1126 0018 ADF5497D 		sub	sp, sp, #804
 1127              		.cfi_def_cfa_offset 872
 1128              	.LBB114:
 1129              	.LBB110:
 289:..\..\..\liblc3\src/sns.c ****     int n2 = nb < 32 ? nb - n4 : LC3_MAX_BANDS - nb;
 1130              		.loc 1 289 0
 1131 001c 1F2A     		cmp	r2, #31
 1132              	.LBE110:
 1133              	.LBE114:
 1134              		.loc 1 777 0
 1135 001e 8046     		mov	r8, r0
 1136 0020 9DF86873 		ldrb	r7, [sp, #872]	@ zero_extendqisi2
 1137              	.LVL126:
 1138 0024 DB9D     		ldr	r5, [sp, #876]
 1139              	.LBB115:
 1140              	.LBB111:
 289:..\..\..\liblc3\src/sns.c ****     int n2 = nb < 32 ? nb - n4 : LC3_MAX_BANDS - nb;
 1141              		.loc 1 289 0
 1142 0026 19DC     		bgt	.L100
 1143 0028 2024     		movs	r4, #32
 1144 002a 94FBF2F4 		sdiv	r4, r4, r2
 1145 002e 5443     		muls	r4, r2, r4
 1146 0030 C4F12004 		rsb	r4, r4, #32
 1147              	.LVL127:
ARM GAS  C:\Users\rdn\AppData\Local\Temp\cc92LAgm.s 			page 43


 290:..\..\..\liblc3\src/sns.c **** 
 1148              		.loc 1 290 0
 1149 0034 111B     		subs	r1, r2, r4
 1150              	.LVL128:
 1151 0036 9C46     		mov	ip, r3
 1152 0038 8BA8     		add	r0, sp, #556
 1153              	.LVL129:
 1154 003a 03EB840A 		add	r10, r3, r4, lsl #2
 1155              	.LVL130:
 1156              	.L101:
 1157              	.LBB95:
 292:..\..\..\liblc3\src/sns.c ****         e[4*i4 + 0] = e[4*i4 + 1] =
 1158              		.loc 1 292 0
 1159 003e D445     		cmp	ip, r10
 1160 0040 00F11000 		add	r0, r0, #16
 1161 0044 0DD0     		beq	.L145
 294:..\..\..\liblc3\src/sns.c **** 
 1162              		.loc 1 294 0
 1163 0046 5CF804EB 		ldr	lr, [ip], #4	@ float
 1164 004a 40F810EC 		str	lr, [r0, #-16]	@ float
 1165 004e 40F814EC 		str	lr, [r0, #-20]	@ float
 293:..\..\..\liblc3\src/sns.c ****         e[4*i4 + 2] = e[4*i4 + 3] = eb[i4];
 1166              		.loc 1 293 0
 1167 0052 40F818EC 		str	lr, [r0, #-24]	@ float
 1168 0056 40F81CEC 		str	lr, [r0, #-28]	@ float
 1169 005a F0E7     		b	.L101
 1170              	.LVL131:
 1171              	.L100:
 1172              	.LBE95:
 290:..\..\..\liblc3\src/sns.c **** 
 1173              		.loc 1 290 0
 1174 005c C2F14001 		rsb	r1, r2, #64
 1175              	.LVL132:
 289:..\..\..\liblc3\src/sns.c ****     int n2 = nb < 32 ? nb - n4 : LC3_MAX_BANDS - nb;
 1176              		.loc 1 289 0
 1177 0060 0024     		movs	r4, #0
 1178              	.LVL133:
 1179              	.L145:
 1180 0062 C8A8     		add	r0, sp, #800
 1181 0064 00EB0410 		add	r0, r0, r4, lsl #4
 1182 0068 03EB840C 		add	ip, r3, r4, lsl #2
 1183 006c FC38     		subs	r0, r0, #252
 1184 006e A646     		mov	lr, r4
 1185              	.LBB96:
 296:..\..\..\liblc3\src/sns.c ****         e[2*(n4+i2) + 0] = e[2*(n4+i2) + 1] = eb[i2];
 1186              		.loc 1 296 0
 1187 0070 01EB040B 		add	fp, r1, r4
 1188              	.L103:
 1189              	.LVL134:
 1190 0074 DE45     		cmp	lr, fp
 1191 0076 00F10800 		add	r0, r0, #8
 1192 007a 08DA     		bge	.L186
 297:..\..\..\liblc3\src/sns.c **** 
 1193              		.loc 1 297 0
 1194 007c 5CF804AB 		ldr	r10, [ip], #4	@ float
 1195 0080 40F808AC 		str	r10, [r0, #-8]	@ float
 1196 0084 40F80CAC 		str	r10, [r0, #-12]	@ float
ARM GAS  C:\Users\rdn\AppData\Local\Temp\cc92LAgm.s 			page 44


 296:..\..\..\liblc3\src/sns.c ****         e[2*(n4+i2) + 0] = e[2*(n4+i2) + 1] = eb[i2];
 1197              		.loc 1 296 0
 1198 0088 0EF1010E 		add	lr, lr, #1
 1199              	.LVL135:
 1200 008c F2E7     		b	.L103
 1201              	.L186:
 1202              	.LBE96:
 299:..\..\..\liblc3\src/sns.c **** 
 1203              		.loc 1 299 0
 1204 008e 121B     		subs	r2, r2, r4
 1205              	.LVL136:
 1206 0090 4800     		lsls	r0, r1, #1
 1207 0092 521A     		subs	r2, r2, r1
 1208 0094 2144     		add	r1, r1, r4
 1209              	.LVL137:
 1210 0096 03EB8101 		add	r1, r3, r1, lsl #2
 1211 009a 00EB8400 		add	r0, r0, r4, lsl #2
 1212 009e 88AB     		add	r3, sp, #544
 1213              	.LVL138:
 1214 00a0 9200     		lsls	r2, r2, #2
 1215 00a2 03EB8000 		add	r0, r3, r0, lsl #2
 1216 00a6 FFF7FEFF 		bl	memcpy
 1217              	.LVL139:
 303:..\..\..\liblc3\src/sns.c **** 
 1218              		.loc 1 303 0
 1219 00aa BC4B     		ldr	r3, .L190+4
 305:..\..\..\liblc3\src/sns.c ****     float e_sum = 0;
 1220              		.loc 1 305 0
 1221 00ac DDED884A 		vldr.32	s9, [sp, #544]
 306:..\..\..\liblc3\src/sns.c **** 
 1222              		.loc 1 306 0
 1223 00b0 DFEDC57A 		vldr.32	s15, .L190+48
 303:..\..\..\liblc3\src/sns.c **** 
 1224              		.loc 1 303 0
 1225 00b4 03EB8903 		add	r3, r3, r9, lsl #2
 305:..\..\..\liblc3\src/sns.c ****     float e_sum = 0;
 1226              		.loc 1 305 0
 1227 00b8 B0EE645A 		vmov.f32	s10, s9
 303:..\..\..\liblc3\src/sns.c **** 
 1228              		.loc 1 303 0
 1229 00bc D3F82014 		ldr	r1, [r3, #1056]
 1230              	.LVL140:
 1231              	.LBB97:
 309:..\..\..\liblc3\src/sns.c ****         e_sum += e[i++];
 1232              		.loc 1 309 0
 1233 00c0 F6EE003A 		vmov.f32	s7, #5.0e-1
 1234 00c4 0A46     		mov	r2, r1
 1235 00c6 8BAB     		add	r3, sp, #556
 1236 00c8 01F1FC00 		add	r0, r1, #252
 1237 00cc F5EE005A 		vmov.f32	s11, #2.5e-1
 1238              	.LVL141:
 1239              	.L105:
 1240 00d0 25EE237A 		vmul.f32	s14, s10, s7
 1241 00d4 13ED024A 		vldr.32	s8, [r3, #-8]
 1242              	.LVL142:
 1243 00d8 D2ED006A 		vldr.32	s13, [r2]
 1244 00dc A4EEA57A 		vfma.f32	s14, s9, s11
ARM GAS  C:\Users\rdn\AppData\Local\Temp\cc92LAgm.s 			page 45


 1245 00e0 0C32     		adds	r2, r2, #12
 1246 00e2 0C33     		adds	r3, r3, #12
 312:..\..\..\liblc3\src/sns.c ****         e_sum += e[i++];
 1247              		.loc 1 312 0
 1248 00e4 53ED044A 		vldr.32	s9, [r3, #-16]
 1249              	.LVL143:
 309:..\..\..\liblc3\src/sns.c ****         e_sum += e[i++];
 1250              		.loc 1 309 0
 1251 00e8 A4EE257A 		vfma.f32	s14, s8, s11
 312:..\..\..\liblc3\src/sns.c ****         e_sum += e[i++];
 1252              		.loc 1 312 0
 1253 00ec 24EEA56A 		vmul.f32	s12, s9, s11
 309:..\..\..\liblc3\src/sns.c ****         e_sum += e[i++];
 1254              		.loc 1 309 0
 1255 00f0 27EE267A 		vmul.f32	s14, s14, s13
 312:..\..\..\liblc3\src/sns.c ****         e_sum += e[i++];
 1256              		.loc 1 312 0
 1257 00f4 64EE236A 		vmul.f32	s13, s8, s7
 309:..\..\..\liblc3\src/sns.c ****         e_sum += e[i++];
 1258              		.loc 1 309 0
 1259 00f8 03ED067A 		vstr.32	s14, [r3, #-24]
 312:..\..\..\liblc3\src/sns.c ****         e_sum += e[i++];
 1260              		.loc 1 312 0
 1261 00fc E5EE256A 		vfma.f32	s13, s10, s11
 310:..\..\..\liblc3\src/sns.c **** 
 1262              		.loc 1 310 0
 1263 0100 37EE277A 		vadd.f32	s14, s14, s15
 1264              	.LVL144:
 312:..\..\..\liblc3\src/sns.c ****         e_sum += e[i++];
 1265              		.loc 1 312 0
 1266 0104 76EE866A 		vadd.f32	s13, s13, s12
 1267 0108 52ED027A 		vldr.32	s15, [r2, #-8]
 315:..\..\..\liblc3\src/sns.c ****         e_sum += e[i++];
 1268              		.loc 1 315 0
 1269 010c 13ED035A 		vldr.32	s10, [r3, #-12]
 1270              	.LVL145:
 312:..\..\..\liblc3\src/sns.c ****         e_sum += e[i++];
 1271              		.loc 1 312 0
 1272 0110 66EEA76A 		vmul.f32	s13, s13, s15
 315:..\..\..\liblc3\src/sns.c ****         e_sum += e[i++];
 1273              		.loc 1 315 0
 1274 0114 52ED017A 		vldr.32	s15, [r2, #-4]
 312:..\..\..\liblc3\src/sns.c ****         e_sum += e[i++];
 1275              		.loc 1 312 0
 1276 0118 43ED056A 		vstr.32	s13, [r3, #-20]
 313:..\..\..\liblc3\src/sns.c **** 
 1277              		.loc 1 313 0
 1278 011c 77EE266A 		vadd.f32	s13, s14, s13
 1279              	.LVL146:
 315:..\..\..\liblc3\src/sns.c ****         e_sum += e[i++];
 1280              		.loc 1 315 0
 1281 0120 24EEA37A 		vmul.f32	s14, s9, s7
 308:..\..\..\liblc3\src/sns.c ****         e[i] = (e0 * 0.25f + e1 * 0.5f + (e2 = e[i+1]) * 0.25f) * ge[i];
 1282              		.loc 1 308 0
 1283 0124 9042     		cmp	r0, r2
 315:..\..\..\liblc3\src/sns.c ****         e_sum += e[i++];
 1284              		.loc 1 315 0
ARM GAS  C:\Users\rdn\AppData\Local\Temp\cc92LAgm.s 			page 46


 1285 0126 A4EE257A 		vfma.f32	s14, s8, s11
 1286 012a F6EE008A 		vmov.f32	s17, #5.0e-1
 1287 012e A5EE257A 		vfma.f32	s14, s10, s11
 1288 0132 B5EE008A 		vmov.f32	s16, #2.5e-1
 1289 0136 27EE277A 		vmul.f32	s14, s14, s15
 1290 013a 03ED047A 		vstr.32	s14, [r3, #-16]
 316:..\..\..\liblc3\src/sns.c ****     }
 1291              		.loc 1 316 0
 1292 013e 76EE877A 		vadd.f32	s15, s13, s14
 1293              	.LVL147:
 308:..\..\..\liblc3\src/sns.c ****         e[i] = (e0 * 0.25f + e1 * 0.5f + (e2 = e[i+1]) * 0.25f) * ge[i];
 1294              		.loc 1 308 0
 1295 0142 C5D1     		bne	.L105
 1296              	.LBE97:
 319:..\..\..\liblc3\src/sns.c ****     e_sum += e[LC3_MAX_BANDS-1];
 1297              		.loc 1 319 0
 1298 0144 B6EE087A 		vmov.f32	s14, #7.5e-1
 1299 0148 A5EE076A 		vfma.f32	s12, s10, s14
 1300 014c 88AC     		add	r4, sp, #544
 1301 014e 0DF5487B 		add	fp, sp, #800
 1302 0152 91ED3F7A 		vldr.32	s14, [r1, #252]
 1303              	.LBB98:
 325:..\..\..\liblc3\src/sns.c **** 
 1304              		.loc 1 325 0
 1305 0156 9FED92BA 		vldr.32	s22, .L190+8
 1306 015a DFED92AA 		vldr.32	s21, .L190+12
 1307 015e 9FED92AA 		vldr.32	s20, .L190+16
 1308 0162 DFED929A 		vldr.32	s19, .L190+20
 1309 0166 9FED929A 		vldr.32	s18, .L190+24
 1310              	.LBE98:
 319:..\..\..\liblc3\src/sns.c ****     e_sum += e[LC3_MAX_BANDS-1];
 1311              		.loc 1 319 0
 1312 016a 26EE077A 		vmul.f32	s14, s12, s14
 322:..\..\..\liblc3\src/sns.c **** 
 1313              		.loc 1 322 0
 1314 016e 4FF03E51 		mov	r1, #796917760
 1315              	.LVL148:
 319:..\..\..\liblc3\src/sns.c ****     e_sum += e[LC3_MAX_BANDS-1];
 1316              		.loc 1 319 0
 1317 0172 8DEDC77A 		vstr.32	s14, [sp, #796]
 1318              	.LVL149:
 322:..\..\..\liblc3\src/sns.c **** 
 1319              		.loc 1 322 0
 1320 0176 77EE877A 		vadd.f32	s15, s15, s14
 1321              	.LVL150:
 1322 017a 9FED8E7A 		vldr.32	s14, .L190+28
 1323 017e 67EE877A 		vmul.f32	s15, s15, s14
 1324              	.LVL151:
 1325 0182 A246     		mov	r10, r4
 1326 0184 17EE900A 		vmov	r0, s15
 1327 0188 FFF7FEFF 		bl	fmaxf
 1328              	.LVL152:
 1329 018c 0346     		mov	r3, r0	@ float
 1330              	.LVL153:
 1331              	.L106:
 1332              	.LBB103:
 325:..\..\..\liblc3\src/sns.c **** 
ARM GAS  C:\Users\rdn\AppData\Local\Temp\cc92LAgm.s 			page 47


 1333              		.loc 1 325 0
 1334 018e 1946     		mov	r1, r3	@ float
 1335 0190 DAF80000 		ldr	r0, [r10]	@ float
 1336 0194 0593     		str	r3, [sp, #20]
 1337 0196 FFF7FEFF 		bl	fmaxf
 1338              	.LVL154:
 1339              	.LBB99:
 1340              	.LBB100:
 1341              	.LBB101:
 1342              	.LBB102:
  65:..\..\..\liblc3\src/fastmath.h ****         ((LC3_IEEE754_EXP_BIAS - 1) << LC3_IEEE754_EXP_SHL);
 1343              		.loc 2 65 0
 1344 019a 20F0FF42 		bic	r2, r0, #2139095040
 1345 019e 42F07C53 		orr	r3, r2, #1056964608
 1346 01a2 07EE903A 		vmov	s15, r3	@ int
 1347              	.LVL155:
 1348              	.LBE102:
 1349              	.LBE101:
 1350              	.LBE100:
 1351              	.LBE99:
 325:..\..\..\liblc3\src/sns.c **** 
 1352              		.loc 1 325 0
 1353 01a6 B0EE6A7A 		vmov.f32	s14, s21
 1354 01aa A7EE8B7A 		vfma.f32	s14, s15, s22
 1355 01ae C0F3C750 		ubfx	r0, r0, #23, #8
 1356 01b2 7E38     		subs	r0, r0, #126
 1357 01b4 F0EE4A6A 		vmov.f32	s13, s20
 1358 01b8 E7EE276A 		vfma.f32	s13, s14, s15
 324:..\..\..\liblc3\src/sns.c ****         e[i] = lc3_log2f(fmaxf(e[i], noise_floor)) * 0.5f;
 1359              		.loc 1 324 0
 1360 01bc 059B     		ldr	r3, [sp, #20]
 325:..\..\..\liblc3\src/sns.c **** 
 1361              		.loc 1 325 0
 1362 01be B0EE667A 		vmov.f32	s14, s13
 1363 01c2 F0EE696A 		vmov.f32	s13, s19
 1364 01c6 E7EE276A 		vfma.f32	s13, s14, s15
 1365 01ca B0EE667A 		vmov.f32	s14, s13
 1366 01ce F0EE496A 		vmov.f32	s13, s18
 1367 01d2 E7EE276A 		vfma.f32	s13, s14, s15
 1368 01d6 07EE900A 		vmov	s15, r0	@ int
 1369 01da F8EEE77A 		vcvt.f32.s32	s15, s15
 1370 01de 76EEA77A 		vadd.f32	s15, s13, s15
 1371 01e2 67EEA87A 		vmul.f32	s15, s15, s17
 1372 01e6 EAEC017A 		vstmia.32	r10!, {s15}
 324:..\..\..\liblc3\src/sns.c ****         e[i] = lc3_log2f(fmaxf(e[i], noise_floor)) * 0.5f;
 1373              		.loc 1 324 0
 1374 01ea DA45     		cmp	r10, fp
 1375 01ec CFD1     		bne	.L106
 1376              	.LBE103:
 331:..\..\..\liblc3\src/sns.c ****              (e[0] + e[3]) * 2.f/12 +
 1377              		.loc 1 331 0
 1378 01ee DDED886A 		vldr.32	s13, [sp, #544]
 332:..\..\..\liblc3\src/sns.c ****              (e[1] + e[2]) * 3.f/12  ;
 1379              		.loc 1 332 0
 1380 01f2 DDED8B7A 		vldr.32	s15, [sp, #556]
 1381 01f6 76EEA77A 		vadd.f32	s15, s13, s15
 1382 01fa B2EE087A 		vmov.f32	s14, #1.2e+1
ARM GAS  C:\Users\rdn\AppData\Local\Temp\cc92LAgm.s 			page 48


 1383 01fe 77EEA77A 		vadd.f32	s15, s15, s15
 1384 0202 09AB     		add	r3, sp, #36
 1385 0204 87EE876A 		vdiv.f32	s12, s15, s14
 1386 0208 C0AA     		add	r2, sp, #768
 1387 020a DDED8C7A 		vldr.32	s15, [sp, #560]
 1388 020e 76EEA76A 		vadd.f32	s13, s13, s15
 1389 0212 C6EE877A 		vdiv.f32	s15, s13, s14
 1390 0216 DDED896A 		vldr.32	s13, [sp, #548]
 1391 021a 76EE277A 		vadd.f32	s15, s12, s15
 1392 021e 9DED8A6A 		vldr.32	s12, [sp, #552]
 1393 0222 36EE866A 		vadd.f32	s12, s13, s12
 1394 0226 F0EE086A 		vmov.f32	s13, #3.0e+0
 1395 022a 26EE266A 		vmul.f32	s12, s12, s13
 1396 022e C6EE075A 		vdiv.f32	s11, s12, s14
 1397 0232 77EEA57A 		vadd.f32	s15, s15, s11
 331:..\..\..\liblc3\src/sns.c ****              (e[0] + e[3]) * 2.f/12 +
 1398              		.loc 1 331 0
 1399 0236 CDED087A 		vstr.32	s15, [sp, #32]
 1400              	.LVL156:
 1401              	.L107:
 1402              	.LBB104:
 338:..\..\..\liblc3\src/sns.c ****                  (e[4*i+1] + e[4*i+2]) * 3.f/12  ;
 1403              		.loc 1 338 0
 1404 023a D4ED075A 		vldr.32	s11, [r4, #28]
 1405 023e 94ED046A 		vldr.32	s12, [r4, #16]
 1406 0242 D4ED084A 		vldr.32	s9, [r4, #32]
 1407 0246 36EE256A 		vadd.f32	s12, s12, s11
 1408 024a 1034     		adds	r4, r4, #16
 1409 024c 76EE065A 		vadd.f32	s11, s12, s12
 1410 0250 B2EE085A 		vmov.f32	s10, #1.2e+1
 1411 0254 85EE876A 		vdiv.f32	s12, s11, s14
 1412 0258 54ED015A 		vldr.32	s11, [r4, #-4]
 1413 025c 75EEA45A 		vadd.f32	s11, s11, s9
 1414 0260 C5EE874A 		vdiv.f32	s9, s11, s14
 1415 0264 D4ED015A 		vldr.32	s11, [r4, #4]
 1416 0268 36EE246A 		vadd.f32	s12, s12, s9
 1417 026c D4ED024A 		vldr.32	s9, [r4, #8]
 1418 0270 75EEA45A 		vadd.f32	s11, s11, s9
 336:..\..\..\liblc3\src/sns.c ****         scf[i] = (e[4*i-1] + e[4*i+4]) * 1.f/12 +
 1419              		.loc 1 336 0
 1420 0274 9442     		cmp	r4, r2
 338:..\..\..\liblc3\src/sns.c ****                  (e[4*i+1] + e[4*i+2]) * 3.f/12  ;
 1421              		.loc 1 338 0
 1422 0276 65EEA65A 		vmul.f32	s11, s11, s13
 1423 027a C5EE874A 		vdiv.f32	s9, s11, s14
 1424 027e 36EE246A 		vadd.f32	s12, s12, s9
 337:..\..\..\liblc3\src/sns.c ****                  (e[4*i  ] + e[4*i+3]) * 2.f/12 +
 1425              		.loc 1 337 0
 1426 0282 A3EC016A 		vstmia.32	r3!, {s12}
 340:..\..\..\liblc3\src/sns.c ****     }
 1427              		.loc 1 340 0
 1428 0286 77EE867A 		vadd.f32	s15, s15, s12
 1429              	.LVL157:
 336:..\..\..\liblc3\src/sns.c ****         scf[i] = (e[4*i-1] + e[4*i+4]) * 1.f/12 +
 1430              		.loc 1 336 0
 1431 028a D6D1     		bne	.L107
 1432              	.LBE104:
ARM GAS  C:\Users\rdn\AppData\Local\Temp\cc92LAgm.s 			page 49


 343:..\..\..\liblc3\src/sns.c ****               (e[60] + e[63]) * 2.f/12 +
 1433              		.loc 1 343 0
 1434 028c DDEDC75A 		vldr.32	s11, [sp, #796]
 344:..\..\..\liblc3\src/sns.c ****               (e[61] + e[62]) * 3.f/12  ;
 1435              		.loc 1 344 0
 1436 0290 9DEDC47A 		vldr.32	s14, [sp, #784]
 1437 0294 35EE877A 		vadd.f32	s14, s11, s14
 348:..\..\..\liblc3\src/sns.c ****     if (lc3_hr(sr) && 8 * nbytes >
 1438              		.loc 1 348 0
 1439 0298 B9F1040F 		cmp	r9, #4
 344:..\..\..\liblc3\src/sns.c ****               (e[61] + e[62]) * 3.f/12  ;
 1440              		.loc 1 344 0
 1441 029c 37EE076A 		vadd.f32	s12, s14, s14
 1442 02a0 86EE057A 		vdiv.f32	s14, s12, s10
 1443 02a4 9DEDC36A 		vldr.32	s12, [sp, #780]
 1444 02a8 75EE865A 		vadd.f32	s11, s11, s12
 1445 02ac 85EE856A 		vdiv.f32	s12, s11, s10
 1446 02b0 DDEDC65A 		vldr.32	s11, [sp, #792]
 1447 02b4 37EE067A 		vadd.f32	s14, s14, s12
 1448 02b8 9DEDC56A 		vldr.32	s12, [sp, #788]
 1449 02bc 36EE256A 		vadd.f32	s12, s12, s11
 1450 02c0 F0EE085A 		vmov.f32	s11, #3.0e+0
 1451 02c4 26EE256A 		vmul.f32	s12, s12, s11
 1452 02c8 C6EE055A 		vdiv.f32	s11, s12, s10
 1453 02cc 37EE257A 		vadd.f32	s14, s14, s11
 343:..\..\..\liblc3\src/sns.c ****               (e[60] + e[63]) * 2.f/12 +
 1454              		.loc 1 343 0
 1455 02d0 8DED177A 		vstr.32	s14, [sp, #92]
 346:..\..\..\liblc3\src/sns.c **** 
 1456              		.loc 1 346 0
 1457 02d4 77EE877A 		vadd.f32	s15, s15, s14
 1458              	.LVL158:
 348:..\..\..\liblc3\src/sns.c ****     if (lc3_hr(sr) && 8 * nbytes >
 1459              		.loc 1 348 0
 1460 02d8 02D8     		bhi	.L108
 1461 02da 9FED377A 		vldr.32	s14, .L190+32
 1462 02de 11E0     		b	.L109
 1463              	.L108:
 1464              	.LVL159:
 350:..\..\..\liblc3\src/sns.c ****         cf *= dt < LC3_DT_10M ? 0.25f : 0.35f;
 1465              		.loc 1 350 0
 1466 02e0 B8F1020F 		cmp	r8, #2
 349:..\..\..\liblc3\src/sns.c ****             (dt < LC3_DT_10M ? 1150 * (int)(1 + dt) : 4400))
 1467              		.loc 1 349 0
 1468 02e4 4FEAC606 		lsl	r6, r6, #3
 1469              	.LVL160:
 1470 02e8 9FED347A 		vldr.32	s14, .L190+36
 350:..\..\..\liblc3\src/sns.c ****         cf *= dt < LC3_DT_10M ? 0.25f : 0.35f;
 1471              		.loc 1 350 0
 1472 02ec 00F28B82 		bhi	.L187
 349:..\..\..\liblc3\src/sns.c ****             (dt < LC3_DT_10M ? 1150 * (int)(1 + dt) : 4400))
 1473              		.loc 1 349 0
 1474 02f0 40F27E43 		movw	r3, #1150
 1475 02f4 08FB0333 		mla	r3, r8, r3, r3
 1476 02f8 9E42     		cmp	r6, r3
 1477 02fa 03DD     		ble	.L109
 351:..\..\..\liblc3\src/sns.c **** 
ARM GAS  C:\Users\rdn\AppData\Local\Temp\cc92LAgm.s 			page 50


 1478              		.loc 1 351 0
 1479 02fc B5EE006A 		vmov.f32	s12, #2.5e-1
 1480              	.L147:
 1481 0300 26EE077A 		vmul.f32	s14, s12, s14
 1482              	.LVL161:
 1483              	.L109:
 1484              	.LBB105:
 354:..\..\..\liblc3\src/sns.c **** 
 1485              		.loc 1 354 0
 1486 0304 9FED2E6A 		vldr.32	s12, .L190+40
 1487 0308 08AB     		add	r3, sp, #32
 1488              	.LVL162:
 1489 030a 67EE867A 		vmul.f32	s15, s15, s12
 1490              	.LVL163:
 1491 030e 18A8     		add	r0, sp, #96
 1492 0310 1A46     		mov	r2, r3
 1493 0312 F0EE465A 		vmov.f32	s11, s12
 1494              	.LVL164:
 1495              	.L110:
 1496 0316 92ED006A 		vldr.32	s12, [r2]
 1497 031a 36EE676A 		vsub.f32	s12, s12, s15
 1498 031e 26EE076A 		vmul.f32	s12, s12, s14
 1499 0322 A2EC016A 		vstmia.32	r2!, {s12}
 353:..\..\..\liblc3\src/sns.c ****         scf[i] = cf * (scf[i] - scf_sum * 1.f/16);
 1500              		.loc 1 353 0
 1501 0326 8242     		cmp	r2, r0
 1502 0328 F5D1     		bne	.L110
 1503              	.LBE105:
 358:..\..\..\liblc3\src/sns.c ****         return;
 1504              		.loc 1 358 0
 1505 032a 002F     		cmp	r7, #0
 1506 032c 6FD0     		beq	.L114
 361:..\..\..\liblc3\src/sns.c ****     float sn = s1 + s2;
 1507              		.loc 1 361 0
 1508 032e 9DED084A 		vldr.32	s8, [sp, #32]
 1509              	.LVL165:
 1510 0332 9DED096A 		vldr.32	s12, [sp, #36]
 1511              	.LVL166:
 1512 0336 9DED0A5A 		vldr.32	s10, [sp, #40]
 1513              	.LVL167:
 1514 033a DDED0B4A 		vldr.32	s9, [sp, #44]
 1515              	.LVL168:
 362:..\..\..\liblc3\src/sns.c **** 
 1516              		.loc 1 362 0
 1517 033e 74EE067A 		vadd.f32	s15, s8, s12
 1518              	.LVL169:
 1519 0342 0CAA     		add	r2, sp, #48
 364:..\..\..\liblc3\src/sns.c ****     scf[1] = (sn += s4) * 1.f/4;
 1520              		.loc 1 364 0
 1521 0344 75EE277A 		vadd.f32	s15, s10, s15
 1522              	.LVL170:
 1523              	.LBB106:
 370:..\..\..\liblc3\src/sns.c ****         scf_sum += scf[i];
 1524              		.loc 1 370 0
 1525 0348 F1EE042A 		vmov.f32	s5, #5.0e+0
 1526              	.LBE106:
 364:..\..\..\liblc3\src/sns.c ****     scf[1] = (sn += s4) * 1.f/4;
ARM GAS  C:\Users\rdn\AppData\Local\Temp\cc92LAgm.s 			page 51


 1527              		.loc 1 364 0
 1528 034c 87EEA67A 		vdiv.f32	s14, s15, s13
 1529              	.LVL171:
 365:..\..\..\liblc3\src/sns.c ****     scf_sum = scf[0] + scf[1];
 1530              		.loc 1 365 0
 1531 0350 74EEA77A 		vadd.f32	s15, s9, s15
 1532              	.LVL172:
 364:..\..\..\liblc3\src/sns.c ****     scf[1] = (sn += s4) * 1.f/4;
 1533              		.loc 1 364 0
 1534 0354 8DED087A 		vstr.32	s14, [sp, #32]
 365:..\..\..\liblc3\src/sns.c ****     scf_sum = scf[0] + scf[1];
 1535              		.loc 1 365 0
 1536 0358 67EE883A 		vmul.f32	s7, s15, s16
 366:..\..\..\liblc3\src/sns.c **** 
 1537              		.loc 1 366 0
 1538 035c 37EE237A 		vadd.f32	s14, s14, s7
 1539              	.LVL173:
 365:..\..\..\liblc3\src/sns.c ****     scf_sum = scf[0] + scf[1];
 1540              		.loc 1 365 0
 1541 0360 CDED093A 		vstr.32	s7, [sp, #36]
 1542              	.LVL174:
 1543              	.L112:
 1544              	.LBB107:
 369:..\..\..\liblc3\src/sns.c ****         scf[i] = (sn += s4) * 1.f/5;
 1545              		.loc 1 369 0
 1546 0364 B2EC013A 		vldmia.32	r2!, {s6}
 1547              	.LVL175:
 370:..\..\..\liblc3\src/sns.c ****         scf_sum += scf[i];
 1548              		.loc 1 370 0
 1549 0368 73EE277A 		vadd.f32	s15, s6, s15
 1550              	.LVL176:
 368:..\..\..\liblc3\src/sns.c ****         s0 = s1, s1 = s2, s2 = s3, s3 = s4, s4 = scf[i+2];
 1551              		.loc 1 368 0
 1552 036c 8242     		cmp	r2, r0
 370:..\..\..\liblc3\src/sns.c ****         scf_sum += scf[i];
 1553              		.loc 1 370 0
 1554 036e C7EEA23A 		vdiv.f32	s7, s15, s5
 368:..\..\..\liblc3\src/sns.c ****         s0 = s1, s1 = s2, s2 = s3, s3 = s4, s4 = scf[i+2];
 1555              		.loc 1 368 0
 1556 0372 77EEC47A 		vsub.f32	s15, s15, s8
 1557              	.LVL177:
 370:..\..\..\liblc3\src/sns.c ****         scf_sum += scf[i];
 1558              		.loc 1 370 0
 1559 0376 42ED033A 		vstr.32	s7, [r2, #-12]
 371:..\..\..\liblc3\src/sns.c ****     }
 1560              		.loc 1 371 0
 1561 037a 37EE237A 		vadd.f32	s14, s14, s7
 1562              	.LVL178:
 1563 037e B0EE464A 		vmov.f32	s8, s12
 1564              	.LVL179:
 1565 0382 F0EE453A 		vmov.f32	s7, s10
 1566 0386 B0EE645A 		vmov.f32	s10, s9
 1567              	.LVL180:
 368:..\..\..\liblc3\src/sns.c ****         s0 = s1, s1 = s2, s2 = s3, s3 = s4, s4 = scf[i+2];
 1568              		.loc 1 368 0
 1569 038a 1FD0     		beq	.L188
 1570              	.LVL181:
ARM GAS  C:\Users\rdn\AppData\Local\Temp\cc92LAgm.s 			page 52


 369:..\..\..\liblc3\src/sns.c ****         scf[i] = (sn += s4) * 1.f/5;
 1571              		.loc 1 369 0
 1572 038c F0EE434A 		vmov.f32	s9, s6
 1573              	.LVL182:
 368:..\..\..\liblc3\src/sns.c ****         s0 = s1, s1 = s2, s2 = s3, s3 = s4, s4 = scf[i+2];
 1574              		.loc 1 368 0
 1575 0390 B0EE636A 		vmov.f32	s12, s7
 1576 0394 E6E7     		b	.L112
 1577              	.L191:
 1578 0396 00BF     		.align	2
 1579              	.L190:
 1580 0398 00000000 		.word	lc3_num_bands
 1581 039c 00000000 		.word	.LANCHOR0
 1582 03a0 E7BBA5BF 		.word	-1079657497
 1583 03a4 1EC4A340 		.word	1084474398
 1584 03a8 6AC406C1 		.word	-1056521110
 1585 03ac 74B00141 		.word	1090629748
 1586 03b0 F55C60C0 		.word	-1067426571
 1587 03b4 17B7D135 		.word	902936343
 1588 03b8 9A99593F 		.word	1062836634
 1589 03bc 9A99193F 		.word	1058642330
 1590 03c0 0000803D 		.word	1031798784
 1591 03c4 9A99993E 		.word	1050253722
 1592 03c8 00000000 		.word	0
 1593              	.LVL183:
 1594              	.L188:
 1595              	.LBE107:
 374:..\..\..\liblc3\src/sns.c ****     scf[15] = (sn -= s1) * 1.f/3;
 1596              		.loc 1 374 0
 1597 03cc 27EE888A 		vmul.f32	s16, s15, s16
 375:..\..\..\liblc3\src/sns.c ****     scf_sum += scf[14] + scf[15];
 1598              		.loc 1 375 0
 1599 03d0 77EEC67A 		vsub.f32	s15, s15, s12
 1600              	.LVL184:
 374:..\..\..\liblc3\src/sns.c ****     scf[15] = (sn -= s1) * 1.f/3;
 1601              		.loc 1 374 0
 1602 03d4 8DED168A 		vstr.32	s16, [sp, #88]
 375:..\..\..\liblc3\src/sns.c ****     scf_sum += scf[14] + scf[15];
 1603              		.loc 1 375 0
 1604 03d8 87EEA66A 		vdiv.f32	s12, s15, s13
 1605 03dc B8F1020F 		cmp	r8, #2
 1606 03e0 5FED087A 		vldr.32	s15, .L190+44
 1607 03e4 8DED176A 		vstr.32	s12, [sp, #92]
 1608              	.LVL185:
 1609              	.LBB108:
 380:..\..\..\liblc3\src/sns.c **** }
 1610              		.loc 1 380 0
 1611 03e8 38EE068A 		vadd.f32	s16, s16, s12
 1612              	.LVL186:
 1613 03ec 08BF     		it	eq
 1614 03ee F0EE678A 		vmoveq.f32	s17, s15
 1615 03f2 38EE078A 		vadd.f32	s16, s16, s14
 1616              	.LVL187:
 1617 03f6 28EE258A 		vmul.f32	s16, s16, s11
 1618              	.LVL188:
 1619              	.L113:
 379:..\..\..\liblc3\src/sns.c ****                  (scf[i] - scf_sum * 1.f/16);
ARM GAS  C:\Users\rdn\AppData\Local\Temp\cc92LAgm.s 			page 53


 1620              		.loc 1 379 0
 1621 03fa D3ED007A 		vldr.32	s15, [r3]
 1622 03fe 77EEC87A 		vsub.f32	s15, s15, s16
 1623 0402 67EEA87A 		vmul.f32	s15, s15, s17
 1624 0406 E3EC017A 		vstmia.32	r3!, {s15}
 378:..\..\..\liblc3\src/sns.c ****         scf[i] = (dt == LC3_DT_7M5 ? 0.3f : 0.5f) *
 1625              		.loc 1 378 0
 1626 040a 9842     		cmp	r0, r3
 1627 040c F5D1     		bne	.L113
 1628              	.LVL189:
 1629              	.L114:
 1630              	.LBE108:
 1631              	.LBE111:
 1632              	.LBE115:
 1633              	.LBB116:
 1634              	.LBB117:
 391:..\..\..\liblc3\src/sns.c ****     *lfcb_idx = *hfcb_idx = 0;
 1635              		.loc 1 391 0
 1636 040e 5FED125A 		vldr.32	s11, .L190+48
 1637 0412 DFF84CE3 		ldr	lr, .L192+4
 1638 0416 DFF84CA3 		ldr	r10, .L192+8
 392:..\..\..\liblc3\src/sns.c **** 
 1639              		.loc 1 392 0
 1640 041a 0023     		movs	r3, #0
 1641 041c 6B60     		str	r3, [r5, #4]
 1642 041e 2B60     		str	r3, [r5]
 1643              	.LVL190:
 391:..\..\..\liblc3\src/sns.c ****     *lfcb_idx = *hfcb_idx = 0;
 1644              		.loc 1 391 0
 1645 0420 F0EE656A 		vmov.f32	s13, s11
 1646              	.LBB118:
 394:..\..\..\liblc3\src/sns.c ****         const float *lfcb = lc3_sns_lfcb[icb];
 1647              		.loc 1 394 0
 1648 0424 1A46     		mov	r2, r3
 1649              	.LVL191:
 1650              	.L122:
 1651              	.LBB119:
 397:..\..\..\liblc3\src/sns.c **** 
 1652              		.loc 1 397 0
 1653 0426 9FEDCD7A 		vldr.32	s14, .L192
 1654 042a 03EB0E06 		add	r6, r3, lr
 1655 042e 10A9     		add	r1, sp, #64
 1656 0430 03EB0A0C 		add	ip, r3, r10
 1657 0434 2033     		adds	r3, r3, #32
 1658              	.LVL192:
 1659 0436 03EB0E0B 		add	fp, r3, lr
 1660              	.LBE119:
 394:..\..\..\liblc3\src/sns.c ****         const float *lfcb = lc3_sns_lfcb[icb];
 1661              		.loc 1 394 0
 1662 043a 0C46     		mov	r4, r1
 1663              	.LBB122:
 397:..\..\..\liblc3\src/sns.c **** 
 1664              		.loc 1 397 0
 1665 043c F0EE477A 		vmov.f32	s15, s14
 1666              	.LVL193:
 1667              	.L115:
 1668              	.LBB120:
ARM GAS  C:\Users\rdn\AppData\Local\Temp\cc92LAgm.s 			page 54


 400:..\..\..\liblc3\src/sns.c ****             dhfcb += (scf[8+i] - hfcb[i]) * (scf[8+i] - hfcb[i]);
 1669              		.loc 1 400 0
 1670 0440 B6EC015A 		vldmia.32	r6!, {s10}
 1671 0444 14ED086A 		vldr.32	s12, [r4, #-32]
 1672 0448 36EE456A 		vsub.f32	s12, s12, s10
 1673              	.LVL194:
 401:..\..\..\liblc3\src/sns.c ****         }
 1674              		.loc 1 401 0
 1675 044c BCEC015A 		vldmia.32	ip!, {s10}
 400:..\..\..\liblc3\src/sns.c ****             dhfcb += (scf[8+i] - hfcb[i]) * (scf[8+i] - hfcb[i]);
 1676              		.loc 1 400 0
 1677 0450 E6EE067A 		vfma.f32	s15, s12, s12
 1678              	.LVL195:
 399:..\..\..\liblc3\src/sns.c ****             dlfcb += (scf[  i] - lfcb[i]) * (scf[  i] - lfcb[i]);
 1679              		.loc 1 399 0
 1680 0454 5E45     		cmp	r6, fp
 401:..\..\..\liblc3\src/sns.c ****         }
 1681              		.loc 1 401 0
 1682 0456 04F10404 		add	r4, r4, #4
 1683 045a 14ED016A 		vldr.32	s12, [r4, #-4]
 1684 045e 36EE456A 		vsub.f32	s12, s12, s10
 1685 0462 A6EE067A 		vfma.f32	s14, s12, s12
 1686              	.LVL196:
 399:..\..\..\liblc3\src/sns.c ****             dlfcb += (scf[  i] - lfcb[i]) * (scf[  i] - lfcb[i]);
 1687              		.loc 1 399 0
 1688 0466 EBD1     		bne	.L115
 1689              	.LBE120:
 404:..\..\..\liblc3\src/sns.c ****             *lfcb_idx = icb, dlfcb_max = dlfcb;
 1690              		.loc 1 404 0
 1691 0468 22B1     		cbz	r2, .L116
 1692 046a F4EEE67A 		vcmpe.f32	s15, s13
 1693 046e F1EE10FA 		vmrs	APSR_nzcv, FPSCR
 1694 0472 02D5     		bpl	.L182
 1695              	.L116:
 405:..\..\..\liblc3\src/sns.c **** 
 1696              		.loc 1 405 0
 1697 0474 2A60     		str	r2, [r5]
 1698              	.LVL197:
 407:..\..\..\liblc3\src/sns.c ****             *hfcb_idx = icb, dhfcb_max = dhfcb;
 1699              		.loc 1 407 0
 1700 0476 12B9     		cbnz	r2, .L117
 1701 0478 06E0     		b	.L119
 1702              	.LVL198:
 1703              	.L182:
 404:..\..\..\liblc3\src/sns.c ****             *lfcb_idx = icb, dlfcb_max = dlfcb;
 1704              		.loc 1 404 0
 1705 047a F0EE667A 		vmov.f32	s15, s13
 1706              	.LVL199:
 1707              	.L117:
 407:..\..\..\liblc3\src/sns.c ****             *hfcb_idx = icb, dhfcb_max = dhfcb;
 1708              		.loc 1 407 0
 1709 047e B4EEE57A 		vcmpe.f32	s14, s11
 1710 0482 F1EE10FA 		vmrs	APSR_nzcv, FPSCR
 1711 0486 05D5     		bpl	.L183
 1712              	.L119:
 408:..\..\..\liblc3\src/sns.c ****     }
 1713              		.loc 1 408 0
ARM GAS  C:\Users\rdn\AppData\Local\Temp\cc92LAgm.s 			page 55


 1714 0488 6A60     		str	r2, [r5, #4]
 1715              	.LVL200:
 1716 048a F0EE676A 		vmov.f32	s13, s15
 1717              	.LBB121:
 401:..\..\..\liblc3\src/sns.c ****         }
 1718              		.loc 1 401 0
 1719 048e F0EE475A 		vmov.f32	s11, s14
 1720 0492 01E0     		b	.L120
 1721              	.LVL201:
 1722              	.L183:
 1723              	.LBE121:
 407:..\..\..\liblc3\src/sns.c ****             *hfcb_idx = icb, dhfcb_max = dhfcb;
 1724              		.loc 1 407 0
 1725 0494 F0EE676A 		vmov.f32	s13, s15
 1726              	.LVL202:
 1727              	.L120:
 1728              	.LBE122:
 394:..\..\..\liblc3\src/sns.c ****         const float *lfcb = lc3_sns_lfcb[icb];
 1729              		.loc 1 394 0
 1730 0498 0132     		adds	r2, r2, #1
 1731              	.LVL203:
 1732 049a 202A     		cmp	r2, #32
 1733 049c C3D1     		bne	.L122
 1734              	.LVL204:
 1735              	.LBE118:
 1736              	.LBE117:
 1737              	.LBE116:
 1738              	.LBB123:
 1739              	.LBB124:
 469:..\..\..\liblc3\src/sns.c ****     const float *hfcb = lc3_sns_hfcb[hfcb_idx];
 1740              		.loc 1 469 0
 1741 049e 2A68     		ldr	r2, [r5]
 1742 04a0 AF4B     		ldr	r3, .L192+4
 470:..\..\..\liblc3\src/sns.c ****     float r[16], x[16];
 1743              		.loc 1 470 0
 1744 04a2 6C68     		ldr	r4, [r5, #4]
 469:..\..\..\liblc3\src/sns.c ****     const float *hfcb = lc3_sns_hfcb[hfcb_idx];
 1745              		.loc 1 469 0
 1746 04a4 03EB4213 		add	r3, r3, r2, lsl #5
 1747              	.LVL205:
 470:..\..\..\liblc3\src/sns.c ****     float r[16], x[16];
 1748              		.loc 1 470 0
 1749 04a8 AE4A     		ldr	r2, .L192+8
 1750 04aa 03F12007 		add	r7, r3, #32
 1751 04ae 02EB4412 		add	r2, r2, r4, lsl #5
 1752 04b2 20AC     		add	r4, sp, #128
 1753              	.LVL206:
 1754              	.L123:
 1755              	.LBB125:
 474:..\..\..\liblc3\src/sns.c ****         r[8+i] = scf[8+i] - hfcb[i];
 1756              		.loc 1 474 0
 1757 04b4 B3EC017A 		vldmia.32	r3!, {s14}
 1758 04b8 51ED087A 		vldr.32	s15, [r1, #-32]
 1759 04bc 77EEC77A 		vsub.f32	s15, s15, s14
 475:..\..\..\liblc3\src/sns.c ****     }
 1760              		.loc 1 475 0
 1761 04c0 B2EC017A 		vldmia.32	r2!, {s14}
ARM GAS  C:\Users\rdn\AppData\Local\Temp\cc92LAgm.s 			page 56


 474:..\..\..\liblc3\src/sns.c ****         r[8+i] = scf[8+i] - hfcb[i];
 1762              		.loc 1 474 0
 1763 04c4 44ED087A 		vstr.32	s15, [r4, #-32]
 475:..\..\..\liblc3\src/sns.c ****     }
 1764              		.loc 1 475 0
 1765 04c8 D1ED007A 		vldr.32	s15, [r1]
 1766 04cc 77EEC77A 		vsub.f32	s15, s15, s14
 473:..\..\..\liblc3\src/sns.c ****         r[  i] = scf[  i] - lfcb[i];
 1767              		.loc 1 473 0
 1768 04d0 BB42     		cmp	r3, r7
 475:..\..\..\liblc3\src/sns.c ****     }
 1769              		.loc 1 475 0
 1770 04d2 01F10401 		add	r1, r1, #4
 1771 04d6 E4EC017A 		vstmia.32	r4!, {s15}
 473:..\..\..\liblc3\src/sns.c ****         r[  i] = scf[  i] - lfcb[i];
 1772              		.loc 1 473 0
 1773 04da EBD1     		bne	.L123
 1774              	.LBE125:
 1775              	.LBB126:
 1776              	.LBB127:
 127:..\..\..\liblc3\src/sns.c **** }
 1777              		.loc 1 127 0
 1778 04dc A24E     		ldr	r6, .L192+12
 1779              	.LBE127:
 1780              	.LBE126:
 1781              	.LBB129:
 473:..\..\..\liblc3\src/sns.c ****         r[  i] = scf[  i] - lfcb[i];
 1782              		.loc 1 473 0
 1783 04de 28AC     		add	r4, sp, #160
 1784 04e0 0022     		movs	r2, #0
 1785              	.LVL207:
 1786              	.L125:
 1787 04e2 DFED9E7A 		vldr.32	s15, .L192
 1788 04e6 0023     		movs	r3, #0
 1789              	.LVL208:
 1790              	.L124:
 1791              	.LBE129:
 1792              	.LBB130:
 1793              	.LBB128:
 127:..\..\..\liblc3\src/sns.c **** }
 1794              		.loc 1 127 0
 1795 04e8 02EB0311 		add	r1, r2, r3, lsl #4
 1796 04ec C718     		adds	r7, r0, r3
 1797 04ee 3144     		add	r1, r1, r6
 1798 04f0 D7ED006A 		vldr.32	s13, [r7]
 1799 04f4 91ED007A 		vldr.32	s14, [r1]
 1800 04f8 0433     		adds	r3, r3, #4
 126:..\..\..\liblc3\src/sns.c ****             y[i] += x[j] * dct16_m[j][i];
 1801              		.loc 1 126 0
 1802 04fa 402B     		cmp	r3, #64
 127:..\..\..\liblc3\src/sns.c **** }
 1803              		.loc 1 127 0
 1804 04fc E6EE877A 		vfma.f32	s15, s13, s14
 126:..\..\..\liblc3\src/sns.c ****             y[i] += x[j] * dct16_m[j][i];
 1805              		.loc 1 126 0
 1806 0500 F2D1     		bne	.L124
 1807 0502 0432     		adds	r2, r2, #4
ARM GAS  C:\Users\rdn\AppData\Local\Temp\cc92LAgm.s 			page 57


 125:..\..\..\liblc3\src/sns.c ****         for (y[i] = 0, j = 0; j < 16; j++)
 1808              		.loc 1 125 0
 1809 0504 402A     		cmp	r2, #64
 1810 0506 E4EC017A 		vstmia.32	r4!, {s15}
 1811              	.LVL209:
 1812 050a EAD1     		bne	.L125
 1813 050c 38AB     		add	r3, sp, #224
 1814 050e 9FED937A 		vldr.32	s14, .L192
 1815 0512 1946     		mov	r1, r3
 1816 0514 28AA     		add	r2, sp, #160
 1817 0516 9A46     		mov	r10, r3
 1818              	.L126:
 1819              	.LVL210:
 1820              	.LBE128:
 1821              	.LBE130:
 1822              	.LBB131:
 488:..\..\..\liblc3\src/sns.c ****         xm_sum += xm[i];
 1823              		.loc 1 488 0
 1824 0518 F2EC017A 		vldmia.32	r2!, {s15}
 1825 051c F0EEE77A 		vabs.f32	s15, s15
 487:..\..\..\liblc3\src/sns.c ****         xm[i] = fabsf(x[i]);
 1826              		.loc 1 487 0
 1827 0520 8A42     		cmp	r2, r1
 488:..\..\..\liblc3\src/sns.c ****         xm_sum += xm[i];
 1828              		.loc 1 488 0
 1829 0522 E3EC017A 		vstmia.32	r3!, {s15}
 489:..\..\..\liblc3\src/sns.c ****     }
 1830              		.loc 1 489 0
 1831 0526 37EE277A 		vadd.f32	s14, s14, s15
 1832              	.LVL211:
 487:..\..\..\liblc3\src/sns.c ****         xm[i] = fabsf(x[i]);
 1833              		.loc 1 487 0
 1834 052a F5D1     		bne	.L126
 1835              	.LBE131:
 492:..\..\..\liblc3\src/sns.c ****     float corr = 0, energy = 0;
 1836              		.loc 1 492 0
 1837 052c 17EE100A 		vmov	r0, s14
 1838 0530 8E49     		ldr	r1, .L192+16
 1839 0532 9FED8A8A 		vldr.32	s16, .L192
 1840 0536 FFF7FEFF 		bl	fmaxf
 1841              	.LVL212:
 1842 053a 07EE100A 		vmov	s14, r0
 1843 053e F1EE047A 		vmov.f32	s15, #5.0e+0
 1844 0542 C7EE879A 		vdiv.f32	s19, s15, s14
 1845              	.LVL213:
 1846 0546 0024     		movs	r4, #0
 494:..\..\..\liblc3\src/sns.c **** 
 1847              		.loc 1 494 0
 1848 0548 2346     		mov	r3, r4
 492:..\..\..\liblc3\src/sns.c ****     float corr = 0, energy = 0;
 1849              		.loc 1 492 0
 1850 054a F0EE488A 		vmov.f32	s17, s16
 1851              	.LVL214:
 1852              	.L127:
 1853              	.LBB132:
 497:..\..\..\liblc3\src/sns.c ****         npulses += c[3][i];
 1854              		.loc 1 497 0
ARM GAS  C:\Users\rdn\AppData\Local\Temp\cc92LAgm.s 			page 58


 1855 054e 0AEB0402 		add	r2, r10, r4
 1856 0552 92ED009A 		vldr.32	s18, [r2]
 1857 0556 0593     		str	r3, [sp, #20]
 1858              	.LVL215:
 1859 0558 69EE897A 		vmul.f32	s15, s19, s18
 1860 055c 17EE900A 		vmov	r0, s15
 1861 0560 FFF7FEFF 		bl	floorf
 1862              	.LVL216:
 1863 0564 07EE900A 		vmov	s15, r0
 1864 0568 FDEEE77A 		vcvt.s32.f32	s15, s15
 1865 056c 88AB     		add	r3, sp, #544
 1866              	.LVL217:
 1867 056e 17EE900A 		vmov	r0, s15	@ int
 1868 0572 1A19     		adds	r2, r3, r4
 498:..\..\..\liblc3\src/sns.c ****         corr    += c[3][i] * xm[i];
 1869              		.loc 1 498 0
 1870 0574 059B     		ldr	r3, [sp, #20]
 1871              	.LVL218:
 497:..\..\..\liblc3\src/sns.c ****         npulses += c[3][i];
 1872              		.loc 1 497 0
 1873 0576 C2ED307A 		vstr.32	s15, [r2, #192]	@ int
 499:..\..\..\liblc3\src/sns.c ****         energy  += c[3][i] * c[3][i];
 1874              		.loc 1 499 0
 1875 057a F8EEE77A 		vcvt.f32.s32	s15, s15
 498:..\..\..\liblc3\src/sns.c ****         corr    += c[3][i] * xm[i];
 1876              		.loc 1 498 0
 1877 057e 0344     		add	r3, r3, r0
 1878              	.LVL219:
 500:..\..\..\liblc3\src/sns.c ****     }
 1879              		.loc 1 500 0
 1880 0580 4043     		muls	r0, r0, r0
 499:..\..\..\liblc3\src/sns.c ****         energy  += c[3][i] * c[3][i];
 1881              		.loc 1 499 0
 1882 0582 E9EE278A 		vfma.f32	s17, s18, s15
 1883 0586 0434     		adds	r4, r4, #4
 496:..\..\..\liblc3\src/sns.c ****         c[3][i] = floorf(xm[i] * proj_factor);
 1884              		.loc 1 496 0
 1885 0588 402C     		cmp	r4, #64
 500:..\..\..\liblc3\src/sns.c ****     }
 1886              		.loc 1 500 0
 1887 058a 07EE900A 		vmov	s15, r0	@ int
 1888 058e F8EEE77A 		vcvt.f32.s32	s15, s15
 1889 0592 38EE278A 		vadd.f32	s16, s16, s15
 496:..\..\..\liblc3\src/sns.c ****         c[3][i] = floorf(xm[i] * proj_factor);
 1890              		.loc 1 496 0
 1891 0596 DAD1     		bne	.L127
 1892 0598 06AE     		add	r6, sp, #24
 1893 059a 07AF     		add	r7, sp, #28
 1894              	.LBE132:
 503:..\..\..\liblc3\src/sns.c ****     npulses = 6;
 1895              		.loc 1 503 0
 1896 059c 4FF0060B 		mov	fp, #6
 1897 05a0 C6ED008A 		vstr.32	s17, [r6]
 1898 05a4 87ED008A 		vstr.32	s16, [r7]
 1899 05a8 1022     		movs	r2, #16
 1900 05aa B8A9     		add	r1, sp, #736
 1901 05ac 5046     		mov	r0, r10
ARM GAS  C:\Users\rdn\AppData\Local\Temp\cc92LAgm.s 			page 59


 1902 05ae 0297     		str	r7, [sp, #8]
 1903 05b0 0196     		str	r6, [sp, #4]
 1904 05b2 CDF800B0 		str	fp, [sp]
 1905 05b6 FFF7FEFF 		bl	add_pulse
 1906              	.LVL220:
 509:..\..\..\liblc3\src/sns.c **** 
 1907              		.loc 1 509 0
 1908 05ba 0DF5387E 		add	lr, sp, #736
 1909 05be BEE80F00 		ldmia	lr!, {r0, r1, r2, r3}
 1910 05c2 A8AC     		add	r4, sp, #672
 1911 05c4 0FC4     		stmia	r4!, {r0, r1, r2, r3}
 1912 05c6 BEE80F00 		ldmia	lr!, {r0, r1, r2, r3}
 1913 05ca 0FC4     		stmia	r4!, {r0, r1, r2, r3}
 1914 05cc BEE80F00 		ldmia	lr!, {r0, r1, r2, r3}
 1915 05d0 0FC4     		stmia	r4!, {r0, r1, r2, r3}
 1916 05d2 9EE80F00 		ldmia	lr, {r0, r1, r2, r3}
 1917 05d6 84E80F00 		stmia	r4, {r0, r1, r2, r3}
 511:..\..\..\liblc3\src/sns.c ****     npulses = 8;
 1918              		.loc 1 511 0
 1919 05da 0823     		movs	r3, #8
 1920 05dc 0297     		str	r7, [sp, #8]
 1921 05de 1022     		movs	r2, #16
 1922 05e0 0093     		str	r3, [sp]
 1923 05e2 A8A9     		add	r1, sp, #672
 1924 05e4 5B46     		mov	r3, fp
 1925 05e6 5046     		mov	r0, r10
 1926 05e8 0196     		str	r6, [sp, #4]
 1927 05ea FFF7FEFF 		bl	add_pulse
 1928              	.LVL221:
 519:..\..\..\liblc3\src/sns.c **** 
 1929              		.loc 1 519 0
 1930 05ee 0DF5287C 		add	ip, sp, #672
 1931 05f2 BCE80F00 		ldmia	ip!, {r0, r1, r2, r3}
 1932 05f6 0DF5187E 		add	lr, sp, #608
 1933 05fa AEE80F00 		stmia	lr!, {r0, r1, r2, r3}
 1934 05fe BCE80F00 		ldmia	ip!, {r0, r1, r2, r3}
 1935 0602 AEE80F00 		stmia	lr!, {r0, r1, r2, r3}
 1936 0606 BCE80F00 		ldmia	ip!, {r0, r1, r2, r3}
 1937 060a AEE80F00 		stmia	lr!, {r0, r1, r2, r3}
 1938 060e 94E80F00 		ldmia	r4, {r0, r1, r2, r3}
 1939 0612 8EE80F00 		stmia	lr, {r0, r1, r2, r3}
 1940              	.LVL222:
 1941 0616 D6ED006A 		vldr.32	s13, [r6]
 1942 061a 97ED007A 		vldr.32	s14, [r7]
 1943 061e A1A8     		add	r0, sp, #644
 1944 0620 42A9     		add	r1, sp, #264
 1945 0622 48AC     		add	r4, sp, #288
 1946              	.LVL223:
 512:..\..\..\liblc3\src/sns.c **** 
 1947              		.loc 1 512 0
 1948 0624 0823     		movs	r3, #8
 1949              	.LBB133:
 522:..\..\..\liblc3\src/sns.c ****         npulses -= c[2][i];
 1950              		.loc 1 522 0
 1951 0626 4FF0000E 		mov	lr, #0
 1952              	.LVL224:
 1953              	.L128:
ARM GAS  C:\Users\rdn\AppData\Local\Temp\cc92LAgm.s 			page 60


 1954 062a 40F804EF 		str	lr, [r0, #4]!
 523:..\..\..\liblc3\src/sns.c ****         corr    -= c[2][i] * xm[i];
 1955              		.loc 1 523 0
 1956 062e 026C     		ldr	r2, [r0, #64]
 524:..\..\..\liblc3\src/sns.c ****         energy  -= c[2][i] * c[2][i];
 1957              		.loc 1 524 0
 1958 0630 F1EC017A 		vldmia.32	r1!, {s15}
 1959 0634 06EE102A 		vmov	s12, r2	@ int
 1960 0638 B8EEC66A 		vcvt.f32.s32	s12, s12
 523:..\..\..\liblc3\src/sns.c ****         corr    -= c[2][i] * xm[i];
 1961              		.loc 1 523 0
 1962 063c 9B1A     		subs	r3, r3, r2
 1963              	.LVL225:
 525:..\..\..\liblc3\src/sns.c ****     }
 1964              		.loc 1 525 0
 1965 063e 5243     		muls	r2, r2, r2
 524:..\..\..\liblc3\src/sns.c ****         energy  -= c[2][i] * c[2][i];
 1966              		.loc 1 524 0
 1967 0640 E6EE676A 		vfms.f32	s13, s12, s15
 521:..\..\..\liblc3\src/sns.c ****         c[1][i] = 0;
 1968              		.loc 1 521 0
 1969 0644 A142     		cmp	r1, r4
 525:..\..\..\liblc3\src/sns.c ****     }
 1970              		.loc 1 525 0
 1971 0646 07EE902A 		vmov	s15, r2	@ int
 1972 064a F8EEE77A 		vcvt.f32.s32	s15, s15
 1973 064e 37EE677A 		vsub.f32	s14, s14, s15
 521:..\..\..\liblc3\src/sns.c ****         c[1][i] = 0;
 1974              		.loc 1 521 0
 1975 0652 EAD1     		bne	.L128
 1976              	.LBE133:
 528:..\..\..\liblc3\src/sns.c ****     npulses = 10;
 1977              		.loc 1 528 0
 1978 0654 0A22     		movs	r2, #10
 1979 0656 C6ED006A 		vstr.32	s13, [r6]
 1980 065a 87ED007A 		vstr.32	s14, [r7]
 1981 065e 98A9     		add	r1, sp, #608
 1982 0660 0092     		str	r2, [sp]
 1983 0662 38A8     		add	r0, sp, #224
 1984 0664 0297     		str	r7, [sp, #8]
 1985 0666 0196     		str	r6, [sp, #4]
 1986 0668 FFF7FEFF 		bl	add_pulse
 1987              	.LVL226:
 534:..\..\..\liblc3\src/sns.c **** 
 1988              		.loc 1 534 0
 1989 066c 0DF5187E 		add	lr, sp, #608
 1990 0670 BEE80F00 		ldmia	lr!, {r0, r1, r2, r3}
 1991 0674 88AC     		add	r4, sp, #544
 1992              	.LVL227:
 1993 0676 0FC4     		stmia	r4!, {r0, r1, r2, r3}
 1994              	.LVL228:
 1995 0678 BEE80F00 		ldmia	lr!, {r0, r1, r2, r3}
 1996 067c 0FC4     		stmia	r4!, {r0, r1, r2, r3}
 1997              	.LVL229:
 1998 067e BEE80F00 		ldmia	lr!, {r0, r1, r2, r3}
 1999 0682 0FC4     		stmia	r4!, {r0, r1, r2, r3}
 2000              	.LVL230:
ARM GAS  C:\Users\rdn\AppData\Local\Temp\cc92LAgm.s 			page 61


 2001 0684 9EE80F00 		ldmia	lr, {r0, r1, r2, r3}
 2002 0688 84E80F00 		stmia	r4, {r0, r1, r2, r3}
 536:..\..\..\liblc3\src/sns.c **** 
 2003              		.loc 1 536 0
 2004 068c 0123     		movs	r3, #1
 2005 068e 0297     		str	r7, [sp, #8]
 2006 0690 0622     		movs	r2, #6
 2007 0692 0093     		str	r3, [sp]
 2008 0694 92A9     		add	r1, sp, #584
 2009 0696 0196     		str	r6, [sp, #4]
 2010 0698 0023     		movs	r3, #0
 2011 069a 42A8     		add	r0, sp, #264
 2012 069c FFF7FEFF 		bl	add_pulse
 2013              	.LVL231:
 2014 06a0 28AC     		add	r4, sp, #160
 2015              	.LVL232:
 2016 06a2 88AA     		add	r2, sp, #544
 2017              	.LVL233:
 2018              	.LBB134:
 540:..\..\..\liblc3\src/sns.c ****         for (int i = 0; i < 4; i++)
 2019              		.loc 1 540 0
 2020 06a4 0021     		movs	r1, #0
 2021              	.LVL234:
 2022              	.L129:
 2023              	.LBB135:
 542:..\..\..\liblc3\src/sns.c **** 
 2024              		.loc 1 542 0
 2025 06a6 F4EC017A 		vldmia.32	r4!, {s15}
 2026 06aa 0023     		movs	r3, #0
 2027              	.LVL235:
 2028              	.L133:
 2029 06ac 88A8     		add	r0, sp, #544
 2030              	.LVL236:
 2031 06ae C618     		adds	r6, r0, r3
 2032 06b0 F5EEC07A 		vcmpe.f32	s15, #0
 2033 06b4 D058     		ldr	r0, [r2, r3]
 2034              	.LVL237:
 2035 06b6 F1EE10FA 		vmrs	APSR_nzcv, FPSCR
 2036 06ba 03F14003 		add	r3, r3, #64
 2037 06be 48BF     		it	mi
 2038 06c0 4042     		rsbmi	r0, r0, #0
 541:..\..\..\liblc3\src/sns.c ****             c[i][j] = x[j] < 0 ? -c[i][j] : c[i][j];
 2039              		.loc 1 541 0
 2040 06c2 B3F5807F 		cmp	r3, #256
 542:..\..\..\liblc3\src/sns.c **** 
 2041              		.loc 1 542 0
 2042 06c6 46F82100 		str	r0, [r6, r1, lsl #2]
 541:..\..\..\liblc3\src/sns.c ****             c[i][j] = x[j] < 0 ? -c[i][j] : c[i][j];
 2043              		.loc 1 541 0
 2044 06ca EFD1     		bne	.L133
 2045              	.LBE135:
 540:..\..\..\liblc3\src/sns.c ****         for (int i = 0; i < 4; i++)
 2046              		.loc 1 540 0
 2047 06cc 0131     		adds	r1, r1, #1
 2048              	.LVL238:
 2049 06ce 1029     		cmp	r1, #16
 2050 06d0 02F10402 		add	r2, r2, #4
ARM GAS  C:\Users\rdn\AppData\Local\Temp\cc92LAgm.s 			page 62


 2051 06d4 E7D1     		bne	.L129
 2052              	.LVL239:
 2053              	.LBE134:
 2054              	.LBB136:
 545:..\..\..\liblc3\src/sns.c **** 
 2055              		.loc 1 545 0
 2056 06d6 48A9     		add	r1, sp, #288
 2057              	.LVL240:
 2058 06d8 88A8     		add	r0, sp, #544
 2059              	.LVL241:
 2060 06da FFF7FEFF 		bl	normalize
 2061              	.LVL242:
 2062 06de 58A9     		add	r1, sp, #352
 2063 06e0 98A8     		add	r0, sp, #608
 2064 06e2 FFF7FEFF 		bl	normalize
 2065              	.LVL243:
 2066 06e6 68A9     		add	r1, sp, #416
 2067 06e8 A8A8     		add	r0, sp, #672
 2068 06ea FFF7FEFF 		bl	normalize
 2069              	.LVL244:
 2070 06ee B8A8     		add	r0, sp, #736
 2071 06f0 78A9     		add	r1, sp, #480
 2072 06f2 FFF7FEFF 		bl	normalize
 2073              	.LVL245:
 2074              	.LBE136:
 2075              	.LBB137:
 2076              	.LBB138:
 2077              	.LBB139:
 558:..\..\..\liblc3\src/sns.c ****             float g = cgains->v[ig];
 2078              		.loc 1 558 0
 2079 06f6 1E4C     		ldr	r4, .L192+20
 2080              	.LBE139:
 2081              	.LBE138:
 2082              	.LBE137:
 550:..\..\..\liblc3\src/sns.c ****     *shape_idx = *gain_idx = 0;
 2083              		.loc 1 550 0
 2084 06f8 DFED1E5A 		vldr.32	s11, .L192+24
 551:..\..\..\liblc3\src/sns.c **** 
 2085              		.loc 1 551 0
 2086 06fc 0023     		movs	r3, #0
 2087 06fe EB60     		str	r3, [r5, #12]
 2088 0700 AB60     		str	r3, [r5, #8]
 2089              	.LVL246:
 2090 0702 58A8     		add	r0, sp, #352
 2091              	.LVL247:
 2092              	.L142:
 2093              	.LBB148:
 2094              	.LBB146:
 2095              	.LBB143:
 558:..\..\..\liblc3\src/sns.c ****             float g = cgains->v[ig];
 2096              		.loc 1 558 0
 2097 0704 0022     		movs	r2, #0
 2098 0706 54F833E0 		ldr	lr, [r4, r3, lsl #3]
 2099              	.LBE143:
 555:..\..\..\liblc3\src/sns.c ****         int cgain_idx = 0;
 2100              		.loc 1 555 0
 2101 070a DFED1A7A 		vldr.32	s15, .L192+24
ARM GAS  C:\Users\rdn\AppData\Local\Temp\cc92LAgm.s 			page 63


 2102              	.LBB144:
 558:..\..\..\liblc3\src/sns.c ****             float g = cgains->v[ig];
 2103              		.loc 1 558 0
 2104 070e 04EBC30C 		add	ip, r4, r3, lsl #3
 2105              	.LBE144:
 556:..\..\..\liblc3\src/sns.c **** 
 2106              		.loc 1 556 0
 2107 0712 1646     		mov	r6, r2
 2108              	.LVL248:
 2109              	.L135:
 2110              	.LBB145:
 558:..\..\..\liblc3\src/sns.c ****             float g = cgains->v[ig];
 2111              		.loc 1 558 0
 2112 0714 7245     		cmp	r2, lr
 2113 0716 31DA     		bge	.L189
 2114              	.LBB140:
 559:..\..\..\liblc3\src/sns.c **** 
 2115              		.loc 1 559 0
 2116 0718 DCF80410 		ldr	r1, [ip, #4]
 561:..\..\..\liblc3\src/sns.c ****             for (int i = 0; i < 16; i++)
 2117              		.loc 1 561 0
 2118 071c 9FED0F7A 		vldr.32	s14, .L192
 559:..\..\..\liblc3\src/sns.c **** 
 2119              		.loc 1 559 0
 2120 0720 01EB8201 		add	r1, r1, r2, lsl #2
 2121 0724 91ED006A 		vldr.32	s12, [r1]
 2122              	.LVL249:
 2123 0728 28AF     		add	r7, sp, #160
 2124 072a A0F14001 		sub	r1, r0, #64
 2125              	.LBB141:
 563:..\..\..\liblc3\src/sns.c **** 
 2126              		.loc 1 563 0
 2127 072e B1EE466A 		vneg.f32	s12, s12
 2128              	.LVL250:
 2129              	.L136:
 2130 0732 B1EC015A 		vldmia.32	r1!, {s10}
 2131 0736 F7EC016A 		vldmia.32	r7!, {s13}
 2132 073a E6EE056A 		vfma.f32	s13, s12, s10
 562:..\..\..\liblc3\src/sns.c ****                 mse += (x[i] - g * cn[ic][i]) * (x[i] - g * cn[ic][i]);
 2133              		.loc 1 562 0
 2134 073e 8842     		cmp	r0, r1
 563:..\..\..\liblc3\src/sns.c **** 
 2135              		.loc 1 563 0
 2136 0740 A6EEA67A 		vfma.f32	s14, s13, s13
 2137              	.LVL251:
 562:..\..\..\liblc3\src/sns.c ****                 mse += (x[i] - g * cn[ic][i]) * (x[i] - g * cn[ic][i]);
 2138              		.loc 1 562 0
 2139 0744 F5D1     		bne	.L136
 2140              	.LBE141:
 565:..\..\..\liblc3\src/sns.c ****                 cgain_idx = ig,
 2141              		.loc 1 565 0
 2142 0746 B4EEE77A 		vcmpe.f32	s14, s15
 2143 074a F1EE10FA 		vmrs	APSR_nzcv, FPSCR
 2144 074e 44BF     		itt	mi
 2145 0750 1646     		movmi	r6, r2
 2146              	.LBB142:
 563:..\..\..\liblc3\src/sns.c **** 
ARM GAS  C:\Users\rdn\AppData\Local\Temp\cc92LAgm.s 			page 64


 2147              		.loc 1 563 0
 2148 0752 F0EE477A 		vmovmi.f32	s15, s14
 2149              	.LVL252:
 2150              	.LBE142:
 2151              	.LBE140:
 558:..\..\..\liblc3\src/sns.c ****             float g = cgains->v[ig];
 2152              		.loc 1 558 0
 2153 0756 0132     		adds	r2, r2, #1
 2154              	.LVL253:
 2155 0758 DCE7     		b	.L135
 2156              	.L193:
 2157 075a 00BF     		.align	2
 2158              	.L192:
 2159 075c 00000000 		.word	0
 2160 0760 00000000 		.word	lc3_sns_lfcb
 2161 0764 00000000 		.word	lc3_sns_hfcb
 2162 0768 00000000 		.word	.LANCHOR0
 2163 076c B3CE010C 		.word	201445043
 2164 0770 00000000 		.word	lc3_sns_vq_gains
 2165 0774 0000807F 		.word	2139095040
 2166 0778 3333B33E 		.word	1051931443
 2167              	.LVL254:
 2168              	.L189:
 2169              	.LBE145:
 571:..\..\..\liblc3\src/sns.c ****             *shape_idx = ic, *gain_idx = cgain_idx;
 2170              		.loc 1 571 0
 2171 077c F4EEE57A 		vcmpe.f32	s15, s11
 2172 0780 F1EE10FA 		vmrs	APSR_nzcv, FPSCR
 572:..\..\..\liblc3\src/sns.c ****             mse_min = cmse_min;
 2173              		.loc 1 572 0
 2174 0784 48BF     		it	mi
 2175 0786 AB60     		strmi	r3, [r5, #8]
 2176              	.LBE146:
 553:..\..\..\liblc3\src/sns.c ****         const struct lc3_sns_vq_gains *cgains = lc3_sns_vq_gains + ic;
 2177              		.loc 1 553 0
 2178 0788 03F10103 		add	r3, r3, #1
 2179              	.LVL255:
 2180              	.LBB147:
 572:..\..\..\liblc3\src/sns.c ****             mse_min = cmse_min;
 2181              		.loc 1 572 0
 2182 078c 44BF     		itt	mi
 2183 078e EE60     		strmi	r6, [r5, #12]
 2184              	.LVL256:
 2185 0790 F0EE675A 		vmovmi.f32	s11, s15
 2186              	.LVL257:
 2187              	.LBE147:
 553:..\..\..\liblc3\src/sns.c ****         const struct lc3_sns_vq_gains *cgains = lc3_sns_vq_gains + ic;
 2188              		.loc 1 553 0
 2189 0794 042B     		cmp	r3, #4
 2190 0796 00F14000 		add	r0, r0, #64
 2191 079a B3D1     		bne	.L142
 2192              	.LVL258:
 2193              	.LBE148:
 2194              	.LBE124:
 2195              	.LBE123:
 778:..\..\..\liblc3\src/sns.c ****     /* Processing steps :
 779:..\..\..\liblc3\src/sns.c ****      * - Determine 16 scale factors from bands energy estimation
ARM GAS  C:\Users\rdn\AppData\Local\Temp\cc92LAgm.s 			page 65


 780:..\..\..\liblc3\src/sns.c ****      * - Get codebooks indexes that match thoses scale factors
 781:..\..\..\liblc3\src/sns.c ****      * - Quantize the residual with the selected codebook
 782:..\..\..\liblc3\src/sns.c ****      * - The pulse configuration `c[]` is enumerated
 783:..\..\..\liblc3\src/sns.c ****      * - Finally shape the spectrum coefficients accordingly */
 784:..\..\..\liblc3\src/sns.c **** 
 785:..\..\..\liblc3\src/sns.c ****     float scf[16], cn[4][16];
 786:..\..\..\liblc3\src/sns.c ****     int c[4][16];
 787:..\..\..\liblc3\src/sns.c **** 
 788:..\..\..\liblc3\src/sns.c ****     compute_scale_factors(dt, sr, nbytes, eb, att, scf);
 789:..\..\..\liblc3\src/sns.c **** 
 790:..\..\..\liblc3\src/sns.c ****     resolve_codebooks(scf, &data->lfcb, &data->hfcb);
 791:..\..\..\liblc3\src/sns.c **** 
 792:..\..\..\liblc3\src/sns.c ****     quantize(scf, data->lfcb, data->hfcb,
 793:..\..\..\liblc3\src/sns.c ****         c, cn, &data->shape, &data->gain);
 794:..\..\..\liblc3\src/sns.c **** 
 795:..\..\..\liblc3\src/sns.c ****     unquantize(data->lfcb, data->hfcb,
 2196              		.loc 1 795 0
 2197 079c 08AF     		add	r7, sp, #32
 2198 079e 0197     		str	r7, [sp, #4]
 2199 07a0 EB68     		ldr	r3, [r5, #12]
 2200 07a2 0093     		str	r3, [sp]
 2201 07a4 AB68     		ldr	r3, [r5, #8]
 2202 07a6 48AA     		add	r2, sp, #288
 2203              	.LVL259:
 2204 07a8 95E80300 		ldmia	r5, {r0, r1}
 2205 07ac 02EB8312 		add	r2, r2, r3, lsl #6
 2206 07b0 FFF7FEFF 		bl	unquantize
 2207              	.LVL260:
 796:..\..\..\liblc3\src/sns.c ****         cn[data->shape], data->shape, data->gain, scf);
 797:..\..\..\liblc3\src/sns.c **** 
 798:..\..\..\liblc3\src/sns.c ****     enumerate(data->shape, c[data->shape],
 2208              		.loc 1 798 0
 2209 07b4 AE68     		ldr	r6, [r5, #8]
 2210              	.LVL261:
 2211 07b6 88AB     		add	r3, sp, #544
 2212              	.LBB149:
 2213              	.LBB150:
 680:..\..\..\liblc3\src/sns.c **** 
 2214              		.loc 1 680 0
 2215 07b8 022E     		cmp	r6, #2
 2216              	.LBE150:
 2217              	.LBE149:
 2218              		.loc 1 798 0
 2219 07ba 03EB8614 		add	r4, r3, r6, lsl #6
 2220              	.LVL262:
 2221              	.LBB152:
 2222              	.LBB151:
 680:..\..\..\liblc3\src/sns.c **** 
 2223              		.loc 1 680 0
 2224 07be B4BF     		ite	lt
 2225 07c0 0A21     		movlt	r1, #10
 2226 07c2 1021     		movge	r1, #16
 2227 07c4 05F11803 		add	r3, r5, #24
 2228              	.LVL263:
 2229 07c8 05F11002 		add	r2, r5, #16
 2230              	.LVL264:
 2231 07cc 2046     		mov	r0, r4
ARM GAS  C:\Users\rdn\AppData\Local\Temp\cc92LAgm.s 			page 66


 2232 07ce FFF7FEFF 		bl	enum_mvpq
 2233              	.LVL265:
 682:..\..\..\liblc3\src/sns.c ****         enum_mvpq(c + 10, 6, idx_b, ls_b);
 2234              		.loc 1 682 0
 2235 07d2 46B9     		cbnz	r6, .L144
 683:..\..\..\liblc3\src/sns.c **** }
 2236              		.loc 1 683 0
 2237 07d4 05F11903 		add	r3, r5, #25
 2238              	.LVL266:
 2239 07d8 05F11402 		add	r2, r5, #20
 2240              	.LVL267:
 2241 07dc 0621     		movs	r1, #6
 2242 07de 04F12800 		add	r0, r4, #40
 2243 07e2 FFF7FEFF 		bl	enum_mvpq
 2244              	.LVL268:
 2245              	.L144:
 2246              	.LBE151:
 2247              	.LBE152:
 799:..\..\..\liblc3\src/sns.c ****         &data->idx_a, &data->ls_a, &data->idx_b, &data->ls_b);
 800:..\..\..\liblc3\src/sns.c **** 
 801:..\..\..\liblc3\src/sns.c ****     spectral_shaping(dt, sr, scf, false, x, y);
 2248              		.loc 1 801 0
 2249 07e6 DD9B     		ldr	r3, [sp, #884]
 2250 07e8 0193     		str	r3, [sp, #4]
 2251 07ea DC9B     		ldr	r3, [sp, #880]
 2252 07ec 0093     		str	r3, [sp]
 2253 07ee 3A46     		mov	r2, r7
 2254 07f0 0023     		movs	r3, #0
 2255 07f2 4946     		mov	r1, r9
 2256 07f4 4046     		mov	r0, r8
 2257 07f6 FFF7FEFF 		bl	spectral_shaping
 2258              	.LVL269:
 802:..\..\..\liblc3\src/sns.c **** }
 2259              		.loc 1 802 0
 2260 07fa 0DF5497D 		add	sp, sp, #804
 2261              		.cfi_remember_state
 2262              		.cfi_def_cfa_offset 68
 2263              		@ sp needed
 2264 07fe BDEC088B 		vldm	sp!, {d8-d11}
 2265              		.cfi_restore 86
 2266              		.cfi_restore 87
 2267              		.cfi_restore 84
 2268              		.cfi_restore 85
 2269              		.cfi_restore 82
 2270              		.cfi_restore 83
 2271              		.cfi_restore 80
 2272              		.cfi_restore 81
 2273              		.cfi_def_cfa_offset 36
 2274 0802 BDE8F08F 		pop	{r4, r5, r6, r7, r8, r9, r10, fp, pc}
 2275              	.LVL270:
 2276              	.L187:
 2277              		.cfi_restore_state
 2278              	.LBB153:
 2279              	.LBB112:
 349:..\..\..\liblc3\src/sns.c ****             (dt < LC3_DT_10M ? 1150 * (int)(1 + dt) : 4400))
 2280              		.loc 1 349 0
 2281 0806 41F23013 		movw	r3, #4400
ARM GAS  C:\Users\rdn\AppData\Local\Temp\cc92LAgm.s 			page 67


 2282 080a 9E42     		cmp	r6, r3
 2283 080c 7FF77AAD 		ble	.L109
 351:..\..\..\liblc3\src/sns.c **** 
 2284              		.loc 1 351 0
 2285 0810 1FED276A 		vldr.32	s12, .L192+28
 2286 0814 74E5     		b	.L147
 2287              	.LBE112:
 2288              	.LBE153:
 2289              		.cfi_endproc
 2290              	.LFE33:
 2291              		.size	lc3_sns_analyze, .-lc3_sns_analyze
 2292 0816 00BF     		.section	.text.lc3_sns_synthesize,"ax",%progbits
 2293              		.align	1
 2294              		.global	lc3_sns_synthesize
 2295              		.thumb
 2296              		.thumb_func
 2297              		.type	lc3_sns_synthesize, %function
 2298              	lc3_sns_synthesize:
 2299              	.LFB34:
 803:..\..\..\liblc3\src/sns.c **** 
 804:..\..\..\liblc3\src/sns.c **** /**
 805:..\..\..\liblc3\src/sns.c ****  * SNS synthesis
 806:..\..\..\liblc3\src/sns.c ****  */
 807:..\..\..\liblc3\src/sns.c **** void lc3_sns_synthesize(
 808:..\..\..\liblc3\src/sns.c ****     enum lc3_dt dt, enum lc3_srate sr,
 809:..\..\..\liblc3\src/sns.c ****     const lc3_sns_data_t *data, const float *x, float *y)
 810:..\..\..\liblc3\src/sns.c **** {
 2300              		.loc 1 810 0
 2301              		.cfi_startproc
 2302              		@ args = 4, pretend = 0, frame = 208
 2303              		@ frame_needed = 0, uses_anonymous_args = 0
 2304              	.LVL271:
 2305 0000 2DE9F04F 		push	{r4, r5, r6, r7, r8, r9, r10, fp, lr}
 2306              		.cfi_def_cfa_offset 36
 2307              		.cfi_offset 4, -36
 2308              		.cfi_offset 5, -32
 2309              		.cfi_offset 6, -28
 2310              		.cfi_offset 7, -24
 2311              		.cfi_offset 8, -20
 2312              		.cfi_offset 9, -16
 2313              		.cfi_offset 10, -12
 2314              		.cfi_offset 11, -8
 2315              		.cfi_offset 14, -4
 2316 0004 9946     		mov	r9, r3
 2317              	.LBB156:
 2318              	.LBB157:
 696:..\..\..\liblc3\src/sns.c **** 
 2319              		.loc 1 696 0
 2320 0006 254B     		ldr	r3, .L199
 2321              	.LVL272:
 2322              	.LBE157:
 2323              	.LBE156:
 811:..\..\..\liblc3\src/sns.c ****     float scf[16], cn[16];
 812:..\..\..\liblc3\src/sns.c ****     int c[16];
 813:..\..\..\liblc3\src/sns.c **** 
 814:..\..\..\liblc3\src/sns.c ****     deenumerate(data->shape,
 2324              		.loc 1 814 0
ARM GAS  C:\Users\rdn\AppData\Local\Temp\cc92LAgm.s 			page 68


 2325 0008 9568     		ldr	r5, [r2, #8]
 2326 000a 92F818E0 		ldrb	lr, [r2, #24]	@ zero_extendqisi2
 2327 000e D2F814A0 		ldr	r10, [r2, #20]
 2328 0012 92F819B0 		ldrb	fp, [r2, #25]	@ zero_extendqisi2
 2329              	.LVL273:
 810:..\..\..\liblc3\src/sns.c ****     float scf[16], cn[16];
 2330              		.loc 1 810 0
 2331 0016 1446     		mov	r4, r2
 2332              	.LVL274:
 2333 0018 0746     		mov	r7, r0
 2334 001a 8846     		mov	r8, r1
 2335              	.LBB160:
 2336              	.LBB158:
 696:..\..\..\liblc3\src/sns.c **** 
 2337              		.loc 1 696 0
 2338 001c 0FCB     		ldmia	r3, {r0, r1, r2, r3}
 2339              	.LVL275:
 2340              	.LBE158:
 2341              	.LBE160:
 810:..\..\..\liblc3\src/sns.c ****     float scf[16], cn[16];
 2342              		.loc 1 810 0
 2343 001e B7B0     		sub	sp, sp, #220
 2344              		.cfi_def_cfa_offset 256
 2345              	.LVL276:
 2346              	.LBB161:
 2347              	.LBB159:
 696:..\..\..\liblc3\src/sns.c **** 
 2348              		.loc 1 696 0
 2349 0020 02AE     		add	r6, sp, #8
 2350 0022 86E80F00 		stmia	r6, {r0, r1, r2, r3}
 2351 0026 36AB     		add	r3, sp, #216
 2352 0028 03EB8503 		add	r3, r3, r5, lsl #2
 698:..\..\..\liblc3\src/sns.c **** 
 2353              		.loc 1 698 0
 2354 002c 022D     		cmp	r5, #2
 696:..\..\..\liblc3\src/sns.c **** 
 2355              		.loc 1 696 0
 2356 002e 53F8D02C 		ldr	r2, [r3, #-208]
 2357              	.LVL277:
 698:..\..\..\liblc3\src/sns.c **** 
 2358              		.loc 1 698 0
 2359 0032 2069     		ldr	r0, [r4, #16]
 2360 0034 B4BF     		ite	lt
 2361 0036 0A23     		movlt	r3, #10
 2362 0038 1023     		movge	r3, #16
 2363 003a 0093     		str	r3, [sp]
 2364              	.LVL278:
 2365 003c 7146     		mov	r1, lr
 2366 003e 26AB     		add	r3, sp, #152
 2367              	.LVL279:
 2368 0040 FFF7FEFF 		bl	deenum_mvpq
 2369              	.LVL280:
 700:..\..\..\liblc3\src/sns.c ****         deenum_mvpq(idx_b, ls_b, 1, c + 10, 6);
 2370              		.loc 1 700 0
 2371 0044 45B9     		cbnz	r5, .L196
 701:..\..\..\liblc3\src/sns.c ****     else if (shape == 1)
 2372              		.loc 1 701 0
ARM GAS  C:\Users\rdn\AppData\Local\Temp\cc92LAgm.s 			page 69


 2373 0046 0623     		movs	r3, #6
 2374 0048 0093     		str	r3, [sp]
 2375 004a 0122     		movs	r2, #1
 2376 004c 30AB     		add	r3, sp, #192
 2377 004e 5946     		mov	r1, fp
 2378 0050 5046     		mov	r0, r10
 2379 0052 FFF7FEFF 		bl	deenum_mvpq
 2380              	.LVL281:
 2381 0056 06E0     		b	.L197
 2382              	.L196:
 702:..\..\..\liblc3\src/sns.c ****         memset(c + 10, 0, 6 * sizeof(*c));
 2383              		.loc 1 702 0
 2384 0058 012D     		cmp	r5, #1
 2385 005a 04D1     		bne	.L197
 703:..\..\..\liblc3\src/sns.c **** }
 2386              		.loc 1 703 0
 2387 005c 1822     		movs	r2, #24
 2388 005e 0021     		movs	r1, #0
 2389 0060 30A8     		add	r0, sp, #192
 2390 0062 FFF7FEFF 		bl	memset
 2391              	.LVL282:
 2392              	.L197:
 2393              	.LBE159:
 2394              	.LBE161:
 815:..\..\..\liblc3\src/sns.c ****         data->idx_a, data->ls_a, data->idx_b, data->ls_b, c);
 816:..\..\..\liblc3\src/sns.c **** 
 817:..\..\..\liblc3\src/sns.c ****     normalize(c, cn);
 2395              		.loc 1 817 0
 2396 0066 16A9     		add	r1, sp, #88
 2397 0068 26A8     		add	r0, sp, #152
 2398 006a FFF7FEFF 		bl	normalize
 2399              	.LVL283:
 818:..\..\..\liblc3\src/sns.c **** 
 819:..\..\..\liblc3\src/sns.c ****     unquantize(data->lfcb, data->hfcb, cn, data->shape, data->gain, scf);
 2400              		.loc 1 819 0
 2401 006e 06AD     		add	r5, sp, #24
 2402 0070 E368     		ldr	r3, [r4, #12]
 2403 0072 0093     		str	r3, [sp]
 2404 0074 94E80300 		ldmia	r4, {r0, r1}
 2405 0078 A368     		ldr	r3, [r4, #8]
 2406 007a 0195     		str	r5, [sp, #4]
 2407 007c 16AA     		add	r2, sp, #88
 2408 007e FFF7FEFF 		bl	unquantize
 2409              	.LVL284:
 820:..\..\..\liblc3\src/sns.c **** 
 821:..\..\..\liblc3\src/sns.c ****     spectral_shaping(dt, sr, scf, true, x, y);
 2410              		.loc 1 821 0
 2411 0082 409B     		ldr	r3, [sp, #256]
 2412 0084 0193     		str	r3, [sp, #4]
 2413 0086 CDF80090 		str	r9, [sp]
 2414 008a 0123     		movs	r3, #1
 2415 008c 2A46     		mov	r2, r5
 2416 008e 4146     		mov	r1, r8
 2417 0090 3846     		mov	r0, r7
 2418 0092 FFF7FEFF 		bl	spectral_shaping
 2419              	.LVL285:
 822:..\..\..\liblc3\src/sns.c **** }
ARM GAS  C:\Users\rdn\AppData\Local\Temp\cc92LAgm.s 			page 70


 2420              		.loc 1 822 0
 2421 0096 37B0     		add	sp, sp, #220
 2422              		.cfi_def_cfa_offset 36
 2423              		@ sp needed
 2424 0098 BDE8F08F 		pop	{r4, r5, r6, r7, r8, r9, r10, fp, pc}
 2425              	.LVL286:
 2426              	.L200:
 2427              		.align	2
 2428              	.L199:
 2429 009c 3C040000 		.word	.LANCHOR0+1084
 2430              		.cfi_endproc
 2431              	.LFE34:
 2432              		.size	lc3_sns_synthesize, .-lc3_sns_synthesize
 2433              		.section	.text.lc3_sns_get_nbits,"ax",%progbits
 2434              		.align	1
 2435              		.global	lc3_sns_get_nbits
 2436              		.thumb
 2437              		.thumb_func
 2438              		.type	lc3_sns_get_nbits, %function
 2439              	lc3_sns_get_nbits:
 2440              	.LFB35:
 823:..\..\..\liblc3\src/sns.c **** 
 824:..\..\..\liblc3\src/sns.c **** /**
 825:..\..\..\liblc3\src/sns.c ****  * Return number of bits coding the bitstream data
 826:..\..\..\liblc3\src/sns.c ****  */
 827:..\..\..\liblc3\src/sns.c **** int lc3_sns_get_nbits(void)
 828:..\..\..\liblc3\src/sns.c **** {
 2441              		.loc 1 828 0
 2442              		.cfi_startproc
 2443              		@ args = 0, pretend = 0, frame = 0
 2444              		@ frame_needed = 0, uses_anonymous_args = 0
 2445              		@ link register save eliminated.
 829:..\..\..\liblc3\src/sns.c ****     return 38;
 830:..\..\..\liblc3\src/sns.c **** }
 2446              		.loc 1 830 0
 2447 0000 2620     		movs	r0, #38
 2448 0002 7047     		bx	lr
 2449              		.cfi_endproc
 2450              	.LFE35:
 2451              		.size	lc3_sns_get_nbits, .-lc3_sns_get_nbits
 2452              		.section	.text.lc3_sns_put_data,"ax",%progbits
 2453              		.align	1
 2454              		.global	lc3_sns_put_data
 2455              		.thumb
 2456              		.thumb_func
 2457              		.type	lc3_sns_put_data, %function
 2458              	lc3_sns_put_data:
 2459              	.LFB36:
 831:..\..\..\liblc3\src/sns.c **** 
 832:..\..\..\liblc3\src/sns.c **** /**
 833:..\..\..\liblc3\src/sns.c ****  * Put bitstream data
 834:..\..\..\liblc3\src/sns.c ****  */
 835:..\..\..\liblc3\src/sns.c **** void lc3_sns_put_data(lc3_bits_t *bits, const struct lc3_sns_data *data)
 836:..\..\..\liblc3\src/sns.c **** {
 2460              		.loc 1 836 0
 2461              		.cfi_startproc
 2462              		@ args = 0, pretend = 0, frame = 0
ARM GAS  C:\Users\rdn\AppData\Local\Temp\cc92LAgm.s 			page 71


 2463              		@ frame_needed = 0, uses_anonymous_args = 0
 2464              	.LVL287:
 2465 0000 70B5     		push	{r4, r5, r6, lr}
 2466              		.cfi_def_cfa_offset 16
 2467              		.cfi_offset 4, -16
 2468              		.cfi_offset 5, -12
 2469              		.cfi_offset 6, -8
 2470              		.cfi_offset 14, -4
 2471              		.loc 1 836 0
 2472 0002 0C46     		mov	r4, r1
 2473 0004 0646     		mov	r6, r0
 837:..\..\..\liblc3\src/sns.c ****     /* --- Codebooks --- */
 838:..\..\..\liblc3\src/sns.c **** 
 839:..\..\..\liblc3\src/sns.c ****     lc3_put_bits(bits, data->lfcb, 5);
 2474              		.loc 1 839 0
 2475 0006 0522     		movs	r2, #5
 2476 0008 0968     		ldr	r1, [r1]
 2477              	.LVL288:
 2478 000a FFF7FEFF 		bl	lc3_put_bits
 2479              	.LVL289:
 840:..\..\..\liblc3\src/sns.c ****     lc3_put_bits(bits, data->hfcb, 5);
 2480              		.loc 1 840 0
 2481 000e 0522     		movs	r2, #5
 2482 0010 6168     		ldr	r1, [r4, #4]
 2483 0012 3046     		mov	r0, r6
 2484 0014 FFF7FEFF 		bl	lc3_put_bits
 2485              	.LVL290:
 841:..\..\..\liblc3\src/sns.c **** 
 842:..\..\..\liblc3\src/sns.c ****     /* --- Shape, gain and vectors --- *
 843:..\..\..\liblc3\src/sns.c ****      * Write MSB bit of shape index, next LSB bits of shape and gain,
 844:..\..\..\liblc3\src/sns.c ****      * and MVPQ vectors indexes are muxed */
 845:..\..\..\liblc3\src/sns.c **** 
 846:..\..\..\liblc3\src/sns.c ****     int shape_msb = data->shape >> 1;
 2486              		.loc 1 846 0
 2487 0018 A568     		ldr	r5, [r4, #8]
 2488 001a 6D10     		asrs	r5, r5, #1
 2489              	.LVL291:
 2490              	.LBB166:
 2491              	.LBB167:
 212:..\..\..\liblc3\src/bits.h **** }
 2492              		.loc 3 212 0
 2493 001c 0122     		movs	r2, #1
 2494 001e 2946     		mov	r1, r5
 2495 0020 3046     		mov	r0, r6
 2496 0022 FFF7FEFF 		bl	lc3_put_bits
 2497              	.LVL292:
 2498 0026 A268     		ldr	r2, [r4, #8]
 2499 0028 E168     		ldr	r1, [r4, #12]
 2500 002a 2369     		ldr	r3, [r4, #16]
 2501              	.LBE167:
 2502              	.LBE166:
 847:..\..\..\liblc3\src/sns.c ****     lc3_put_bit(bits, shape_msb);
 848:..\..\..\liblc3\src/sns.c **** 
 849:..\..\..\liblc3\src/sns.c ****     if (shape_msb == 0) {
 2503              		.loc 1 849 0
 2504 002c CDB9     		cbnz	r5, .L203
 2505              	.LVL293:
ARM GAS  C:\Users\rdn\AppData\Local\Temp\cc92LAgm.s 			page 72


 2506              	.LBB168:
 850:..\..\..\liblc3\src/sns.c ****         const int size_a = 2390004;
 851:..\..\..\liblc3\src/sns.c ****         int submode = data->shape & 1;
 852:..\..\..\liblc3\src/sns.c **** 
 853:..\..\..\liblc3\src/sns.c ****         int mux_high = submode == 0 ?
 854:..\..\..\liblc3\src/sns.c ****             2 * (data->idx_b + 1) + data->ls_b : data->gain & 1;
 2507              		.loc 1 854 0
 2508 002e 12F00100 		ands	r0, r2, #1
 2509              	.LVL294:
 2510 0032 01BF     		itttt	eq
 2511 0034 6269     		ldreq	r2, [r4, #20]
 2512 0036 551C     		addeq	r5, r2, #1
 2513              	.LVL295:
 2514 0038 627E     		ldrbeq	r2, [r4, #25]	@ zero_extendqisi2
 2515 003a 02EB4502 		addeq	r2, r2, r5, lsl #1
 855:..\..\..\liblc3\src/sns.c ****         int mux_code = mux_high * size_a + data->idx_a;
 2516              		.loc 1 855 0
 2517 003e 194D     		ldr	r5, .L209
 854:..\..\..\liblc3\src/sns.c ****         int mux_code = mux_high * size_a + data->idx_a;
 2518              		.loc 1 854 0
 2519 0040 18BF     		it	ne
 2520 0042 01F00102 		andne	r2, r1, #1
 2521              	.LVL296:
 2522              		.loc 1 855 0
 2523 0046 05FB0235 		mla	r5, r5, r2, r3
 2524              	.LVL297:
 856:..\..\..\liblc3\src/sns.c **** 
 857:..\..\..\liblc3\src/sns.c ****         lc3_put_bits(bits, data->gain >> submode, 1);
 2525              		.loc 1 857 0
 2526 004a 0141     		asrs	r1, r1, r0
 2527 004c 0122     		movs	r2, #1
 2528              	.LVL298:
 2529 004e 3046     		mov	r0, r6
 2530              	.LVL299:
 2531 0050 FFF7FEFF 		bl	lc3_put_bits
 2532              	.LVL300:
 858:..\..\..\liblc3\src/sns.c ****         lc3_put_bits(bits, data->ls_a, 1);
 2533              		.loc 1 858 0
 2534 0054 0122     		movs	r2, #1
 2535 0056 217E     		ldrb	r1, [r4, #24]	@ zero_extendqisi2
 2536 0058 3046     		mov	r0, r6
 2537 005a FFF7FEFF 		bl	lc3_put_bits
 2538              	.LVL301:
 859:..\..\..\liblc3\src/sns.c ****         lc3_put_bits(bits, mux_code, 25);
 2539              		.loc 1 859 0
 2540 005e 1922     		movs	r2, #25
 2541 0060 19E0     		b	.L208
 2542              	.LVL302:
 2543              	.L203:
 2544              	.LBE168:
 2545              	.LBB169:
 860:..\..\..\liblc3\src/sns.c **** 
 861:..\..\..\liblc3\src/sns.c ****     } else {
 862:..\..\..\liblc3\src/sns.c ****         const int size_a = 15158272;
 863:..\..\..\liblc3\src/sns.c ****         int submode = data->shape & 1;
 864:..\..\..\liblc3\src/sns.c **** 
 865:..\..\..\liblc3\src/sns.c ****         int mux_code = submode == 0 ?
ARM GAS  C:\Users\rdn\AppData\Local\Temp\cc92LAgm.s 			page 73


 866:..\..\..\liblc3\src/sns.c ****             data->idx_a : size_a + 2 * data->idx_a + (data->gain & 1);
 2546              		.loc 1 866 0
 2547 0062 12F00100 		ands	r0, r2, #1
 2548              	.LVL303:
 2549 0066 1EBF     		ittt	ne
 2550 0068 03F5E703 		addne	r3, r3, #7569408
 2551 006c 01F00105 		andne	r5, r1, #1
 2552              	.LVL304:
 2553 0070 03F51853 		addne	r3, r3, #9728
 867:..\..\..\liblc3\src/sns.c **** 
 868:..\..\..\liblc3\src/sns.c ****         lc3_put_bits(bits, data->gain >> submode, 2);
 2554              		.loc 1 868 0
 2555 0074 41FA00F1 		asr	r1, r1, r0
 2556 0078 4FF00202 		mov	r2, #2
 2557 007c 3046     		mov	r0, r6
 2558              	.LVL305:
 866:..\..\..\liblc3\src/sns.c **** 
 2559              		.loc 1 866 0
 2560 007e 0CBF     		ite	eq
 2561 0080 1D46     		moveq	r5, r3
 2562 0082 05EB4305 		addne	r5, r5, r3, lsl #1
 2563              	.LVL306:
 2564              		.loc 1 868 0
 2565 0086 FFF7FEFF 		bl	lc3_put_bits
 2566              	.LVL307:
 869:..\..\..\liblc3\src/sns.c ****         lc3_put_bits(bits, data->ls_a, 1);
 2567              		.loc 1 869 0
 2568 008a 0122     		movs	r2, #1
 2569 008c 217E     		ldrb	r1, [r4, #24]	@ zero_extendqisi2
 2570 008e 3046     		mov	r0, r6
 2571 0090 FFF7FEFF 		bl	lc3_put_bits
 2572              	.LVL308:
 870:..\..\..\liblc3\src/sns.c ****         lc3_put_bits(bits, mux_code, 24);
 2573              		.loc 1 870 0
 2574 0094 1822     		movs	r2, #24
 2575              	.LVL309:
 2576              	.L208:
 2577 0096 2946     		mov	r1, r5
 2578 0098 3046     		mov	r0, r6
 2579              	.LBE169:
 871:..\..\..\liblc3\src/sns.c ****     }
 872:..\..\..\liblc3\src/sns.c **** }
 2580              		.loc 1 872 0
 2581 009a BDE87040 		pop	{r4, r5, r6, lr}
 2582              		.cfi_restore 14
 2583              		.cfi_restore 6
 2584              		.cfi_restore 5
 2585              		.cfi_restore 4
 2586              		.cfi_def_cfa_offset 0
 2587              	.LVL310:
 2588              	.LBB170:
 870:..\..\..\liblc3\src/sns.c ****         lc3_put_bits(bits, mux_code, 24);
 2589              		.loc 1 870 0
 2590 009e FFF7FEBF 		b	lc3_put_bits
 2591              	.LVL311:
 2592              	.L210:
 2593 00a2 00BF     		.align	2
ARM GAS  C:\Users\rdn\AppData\Local\Temp\cc92LAgm.s 			page 74


 2594              	.L209:
 2595 00a4 F4772400 		.word	2390004
 2596              	.LBE170:
 2597              		.cfi_endproc
 2598              	.LFE36:
 2599              		.size	lc3_sns_put_data, .-lc3_sns_put_data
 2600              		.section	.text.lc3_sns_get_data,"ax",%progbits
 2601              		.align	1
 2602              		.global	lc3_sns_get_data
 2603              		.thumb
 2604              		.thumb_func
 2605              		.type	lc3_sns_get_data, %function
 2606              	lc3_sns_get_data:
 2607              	.LFB37:
 873:..\..\..\liblc3\src/sns.c **** 
 874:..\..\..\liblc3\src/sns.c **** /**
 875:..\..\..\liblc3\src/sns.c ****  * Get bitstream data
 876:..\..\..\liblc3\src/sns.c ****  */
 877:..\..\..\liblc3\src/sns.c **** int lc3_sns_get_data(lc3_bits_t *bits, struct lc3_sns_data *data)
 878:..\..\..\liblc3\src/sns.c **** {
 2608              		.loc 1 878 0
 2609              		.cfi_startproc
 2610              		@ args = 0, pretend = 0, frame = 0
 2611              		@ frame_needed = 0, uses_anonymous_args = 0
 2612              	.LVL312:
 2613 0000 F8B5     		push	{r3, r4, r5, r6, r7, lr}
 2614              		.cfi_def_cfa_offset 24
 2615              		.cfi_offset 3, -24
 2616              		.cfi_offset 4, -20
 2617              		.cfi_offset 5, -16
 2618              		.cfi_offset 6, -12
 2619              		.cfi_offset 7, -8
 2620              		.cfi_offset 14, -4
 2621              		.loc 1 878 0
 2622 0002 0C46     		mov	r4, r1
 879:..\..\..\liblc3\src/sns.c ****     /* --- Codebooks --- */
 880:..\..\..\liblc3\src/sns.c **** 
 881:..\..\..\liblc3\src/sns.c ****     *data = (struct lc3_sns_data){
 882:..\..\..\liblc3\src/sns.c ****         .lfcb = lc3_get_bits(bits, 5),
 2623              		.loc 1 882 0
 2624 0004 0521     		movs	r1, #5
 2625              	.LVL313:
 878:..\..\..\liblc3\src/sns.c ****     /* --- Codebooks --- */
 2626              		.loc 1 878 0
 2627 0006 0646     		mov	r6, r0
 2628              		.loc 1 882 0
 2629 0008 FFF7FEFF 		bl	lc3_get_bits
 2630              	.LVL314:
 883:..\..\..\liblc3\src/sns.c ****         .hfcb = lc3_get_bits(bits, 5)
 2631              		.loc 1 883 0
 2632 000c 0521     		movs	r1, #5
 882:..\..\..\liblc3\src/sns.c ****         .hfcb = lc3_get_bits(bits, 5)
 2633              		.loc 1 882 0
 2634 000e 0746     		mov	r7, r0
 2635              		.loc 1 883 0
 2636 0010 3046     		mov	r0, r6
 2637 0012 FFF7FEFF 		bl	lc3_get_bits
ARM GAS  C:\Users\rdn\AppData\Local\Temp\cc92LAgm.s 			page 75


 2638              	.LVL315:
 881:..\..\..\liblc3\src/sns.c ****         .lfcb = lc3_get_bits(bits, 5),
 2639              		.loc 1 881 0
 2640 0016 1C22     		movs	r2, #28
 2641              		.loc 1 883 0
 2642 0018 0546     		mov	r5, r0
 881:..\..\..\liblc3\src/sns.c ****         .lfcb = lc3_get_bits(bits, 5),
 2643              		.loc 1 881 0
 2644 001a 0021     		movs	r1, #0
 2645 001c 2046     		mov	r0, r4
 2646 001e FFF7FEFF 		bl	memset
 2647              	.LVL316:
 2648 0022 6560     		str	r5, [r4, #4]
 2649              	.LVL317:
 2650              	.LBB177:
 2651              	.LBB178:
 236:..\..\..\liblc3\src/bits.h **** }
 2652              		.loc 3 236 0
 2653 0024 0121     		movs	r1, #1
 2654              	.LBE178:
 2655              	.LBE177:
 881:..\..\..\liblc3\src/sns.c ****         .lfcb = lc3_get_bits(bits, 5),
 2656              		.loc 1 881 0
 2657 0026 2760     		str	r7, [r4]
 2658              	.LBB180:
 2659              	.LBB179:
 236:..\..\..\liblc3\src/bits.h **** }
 2660              		.loc 3 236 0
 2661 0028 3046     		mov	r0, r6
 2662 002a FFF7FEFF 		bl	lc3_get_bits
 2663              	.LVL318:
 2664 002e 0546     		mov	r5, r0
 2665              	.LVL319:
 2666              	.LBE179:
 2667              	.LBE180:
 884:..\..\..\liblc3\src/sns.c ****     };
 885:..\..\..\liblc3\src/sns.c **** 
 886:..\..\..\liblc3\src/sns.c ****     /* --- Shape, gain and vectors --- */
 887:..\..\..\liblc3\src/sns.c **** 
 888:..\..\..\liblc3\src/sns.c ****     int shape_msb = lc3_get_bit(bits);
 889:..\..\..\liblc3\src/sns.c ****     data->gain = lc3_get_bits(bits, 1 + shape_msb);
 2668              		.loc 1 889 0
 2669 0030 411C     		adds	r1, r0, #1
 2670 0032 3046     		mov	r0, r6
 2671 0034 FFF7FEFF 		bl	lc3_get_bits
 2672              	.LVL320:
 2673              	.LBB181:
 2674              	.LBB182:
 236:..\..\..\liblc3\src/bits.h **** }
 2675              		.loc 3 236 0
 2676 0038 0121     		movs	r1, #1
 2677              	.LBE182:
 2678              	.LBE181:
 2679              		.loc 1 889 0
 2680 003a E060     		str	r0, [r4, #12]
 2681              	.LVL321:
 2682              	.LBB184:
ARM GAS  C:\Users\rdn\AppData\Local\Temp\cc92LAgm.s 			page 76


 2683              	.LBB183:
 236:..\..\..\liblc3\src/bits.h **** }
 2684              		.loc 3 236 0
 2685 003c 3046     		mov	r0, r6
 2686 003e FFF7FEFF 		bl	lc3_get_bits
 2687              	.LVL322:
 2688              	.LBE183:
 2689              	.LBE184:
 890:..\..\..\liblc3\src/sns.c ****     data->ls_a = lc3_get_bit(bits);
 2690              		.loc 1 890 0
 2691 0042 0030     		adds	r0, r0, #0
 2692 0044 18BF     		it	ne
 2693 0046 0120     		movne	r0, #1
 2694 0048 2076     		strb	r0, [r4, #24]
 891:..\..\..\liblc3\src/sns.c **** 
 892:..\..\..\liblc3\src/sns.c ****     int mux_code = lc3_get_bits(bits, 25 - shape_msb);
 2695              		.loc 1 892 0
 2696 004a C5F11901 		rsb	r1, r5, #25
 2697 004e 3046     		mov	r0, r6
 2698 0050 FFF7FEFF 		bl	lc3_get_bits
 2699              	.LVL323:
 893:..\..\..\liblc3\src/sns.c **** 
 894:..\..\..\liblc3\src/sns.c ****     if (shape_msb == 0) {
 2700              		.loc 1 894 0
 2701 0054 1DBB     		cbnz	r5, .L212
 2702              	.LVL324:
 2703              	.LBB185:
 895:..\..\..\liblc3\src/sns.c ****         const int size_a = 2390004;
 896:..\..\..\liblc3\src/sns.c **** 
 897:..\..\..\liblc3\src/sns.c ****         if (mux_code >= size_a * 14)
 2704              		.loc 1 897 0
 2705 0056 274B     		ldr	r3, .L223
 2706 0058 9842     		cmp	r0, r3
 2707 005a 47DC     		bgt	.L220
 898:..\..\..\liblc3\src/sns.c ****             return -1;
 899:..\..\..\liblc3\src/sns.c **** 
 900:..\..\..\liblc3\src/sns.c ****         data->idx_a = mux_code % size_a;
 2708              		.loc 1 900 0
 2709 005c 264B     		ldr	r3, .L223+4
 2710 005e 90FBF3F2 		sdiv	r2, r0, r3
 901:..\..\..\liblc3\src/sns.c ****         mux_code = mux_code / size_a;
 902:..\..\..\liblc3\src/sns.c **** 
 903:..\..\..\liblc3\src/sns.c ****         data->shape = (mux_code < 2);
 2711              		.loc 1 903 0
 2712 0062 012A     		cmp	r2, #1
 900:..\..\..\liblc3\src/sns.c ****         mux_code = mux_code / size_a;
 2713              		.loc 1 900 0
 2714 0064 03FB1200 		mls	r0, r3, r2, r0
 2715              	.LVL325:
 2716              		.loc 1 903 0
 2717 0068 D4BF     		ite	le
 2718 006a 0123     		movle	r3, #1
 2719 006c 0023     		movgt	r3, #0
 900:..\..\..\liblc3\src/sns.c ****         mux_code = mux_code / size_a;
 2720              		.loc 1 900 0
 2721 006e 2061     		str	r0, [r4, #16]
 2722              	.LVL326:
ARM GAS  C:\Users\rdn\AppData\Local\Temp\cc92LAgm.s 			page 77


 2723              		.loc 1 903 0
 2724 0070 A360     		str	r3, [r4, #8]
 904:..\..\..\liblc3\src/sns.c **** 
 905:..\..\..\liblc3\src/sns.c ****         if (data->shape == 0) {
 2725              		.loc 1 905 0
 2726 0072 06DD     		ble	.L214
 906:..\..\..\liblc3\src/sns.c ****             data->idx_b = (mux_code - 2) / 2;
 2727              		.loc 1 906 0
 2728 0074 023A     		subs	r2, r2, #2
 2729              	.LVL327:
 2730 0076 5310     		asrs	r3, r2, #1
 907:..\..\..\liblc3\src/sns.c ****             data->ls_b  = (mux_code - 2) % 2;
 2731              		.loc 1 907 0
 2732 0078 02F00102 		and	r2, r2, #1
 2733              	.LVL328:
 906:..\..\..\liblc3\src/sns.c ****             data->idx_b = (mux_code - 2) / 2;
 2734              		.loc 1 906 0
 2735 007c 6361     		str	r3, [r4, #20]
 2736              		.loc 1 907 0
 2737 007e 6276     		strb	r2, [r4, #25]
 2738 0080 36E0     		b	.L213
 2739              	.LVL329:
 2740              	.L214:
 908:..\..\..\liblc3\src/sns.c ****         } else {
 909:..\..\..\liblc3\src/sns.c ****             data->gain = (data->gain << 1) + (mux_code % 2);
 2741              		.loc 1 909 0
 2742 0082 E368     		ldr	r3, [r4, #12]
 2743 0084 5900     		lsls	r1, r3, #1
 2744 0086 1D4B     		ldr	r3, .L223+8
 2745 0088 1340     		ands	r3, r3, r2
 2746 008a 002B     		cmp	r3, #0
 2747 008c BEBF     		ittt	lt
 2748 008e 03F1FF33 		addlt	r3, r3, #-1
 2749 0092 63F00103 		ornlt	r3, r3, #1
 2750 0096 0133     		addlt	r3, r3, #1
 2751 0098 0B44     		add	r3, r3, r1
 2752 009a E360     		str	r3, [r4, #12]
 2753 009c 28E0     		b	.L213
 2754              	.LVL330:
 2755              	.L212:
 2756              	.LBE185:
 2757              	.LBB186:
 910:..\..\..\liblc3\src/sns.c ****         }
 911:..\..\..\liblc3\src/sns.c **** 
 912:..\..\..\liblc3\src/sns.c ****     } else {
 913:..\..\..\liblc3\src/sns.c ****         const int size_a = 15158272;
 914:..\..\..\liblc3\src/sns.c **** 
 915:..\..\..\liblc3\src/sns.c ****         if (mux_code >= size_a + 1549824)
 2758              		.loc 1 915 0
 2759 009e 184B     		ldr	r3, .L223+12
 2760 00a0 9842     		cmp	r0, r3
 2761 00a2 23DC     		bgt	.L220
 916:..\..\..\liblc3\src/sns.c ****             return -1;
 917:..\..\..\liblc3\src/sns.c **** 
 918:..\..\..\liblc3\src/sns.c ****         data->shape = 2 + (mux_code >= size_a);
 2762              		.loc 1 918 0
 2763 00a4 A3F5BD13 		sub	r3, r3, #1548288
ARM GAS  C:\Users\rdn\AppData\Local\Temp\cc92LAgm.s 			page 78


 2764 00a8 A3F5C063 		sub	r3, r3, #1536
 2765 00ac 9842     		cmp	r0, r3
 2766 00ae CCBF     		ite	gt
 2767 00b0 0323     		movgt	r3, #3
 2768 00b2 0223     		movle	r3, #2
 919:..\..\..\liblc3\src/sns.c ****         if (data->shape == 2) {
 2769              		.loc 1 919 0
 2770 00b4 022B     		cmp	r3, #2
 918:..\..\..\liblc3\src/sns.c ****         if (data->shape == 2) {
 2771              		.loc 1 918 0
 2772 00b6 A360     		str	r3, [r4, #8]
 2773              		.loc 1 919 0
 2774 00b8 01D1     		bne	.L217
 920:..\..\..\liblc3\src/sns.c ****             data->idx_a = mux_code;
 2775              		.loc 1 920 0
 2776 00ba 2061     		str	r0, [r4, #16]
 2777 00bc 14E0     		b	.L222
 2778              	.L217:
 921:..\..\..\liblc3\src/sns.c ****         } else {
 922:..\..\..\liblc3\src/sns.c ****             mux_code -= size_a;
 2779              		.loc 1 922 0
 2780 00be A0F56700 		sub	r0, r0, #15138816
 2781              	.LVL331:
 2782 00c2 A0F59840 		sub	r0, r0, #19456
 2783              	.LVL332:
 923:..\..\..\liblc3\src/sns.c ****             data->idx_a = mux_code / 2;
 2784              		.loc 1 923 0
 2785 00c6 0223     		movs	r3, #2
 2786 00c8 90FBF3F3 		sdiv	r3, r0, r3
 2787 00cc 2361     		str	r3, [r4, #16]
 924:..\..\..\liblc3\src/sns.c ****             data->gain = (data->gain << 1) + (mux_code % 2);
 2788              		.loc 1 924 0
 2789 00ce E368     		ldr	r3, [r4, #12]
 2790 00d0 5A00     		lsls	r2, r3, #1
 2791 00d2 0A4B     		ldr	r3, .L223+8
 2792 00d4 0340     		ands	r3, r3, r0
 2793 00d6 002B     		cmp	r3, #0
 2794 00d8 BEBF     		ittt	lt
 2795 00da 03F1FF33 		addlt	r3, r3, #-1
 2796 00de 63F00103 		ornlt	r3, r3, #1
 2797 00e2 0133     		addlt	r3, r3, #1
 2798 00e4 1344     		add	r3, r3, r2
 2799 00e6 E360     		str	r3, [r4, #12]
 2800              	.L222:
 2801              	.LBE186:
 925:..\..\..\liblc3\src/sns.c ****         }
 926:..\..\..\liblc3\src/sns.c ****     }
 927:..\..\..\liblc3\src/sns.c **** 
 928:..\..\..\liblc3\src/sns.c ****     return 0;
 2802              		.loc 1 928 0
 2803 00e8 0025     		movs	r5, #0
 2804 00ea 01E0     		b	.L213
 2805              	.LVL333:
 2806              	.L220:
 2807              	.LBB187:
 898:..\..\..\liblc3\src/sns.c **** 
 2808              		.loc 1 898 0
ARM GAS  C:\Users\rdn\AppData\Local\Temp\cc92LAgm.s 			page 79


 2809 00ec 4FF0FF35 		mov	r5, #-1
 2810              	.LVL334:
 2811              	.L213:
 2812              	.LBE187:
 929:..\..\..\liblc3\src/sns.c **** }
 2813              		.loc 1 929 0
 2814 00f0 2846     		mov	r0, r5
 2815 00f2 F8BD     		pop	{r3, r4, r5, r6, r7, pc}
 2816              	.LVL335:
 2817              	.L224:
 2818              		.align	2
 2819              	.L223:
 2820 00f4 578FFE01 		.word	33460055
 2821 00f8 F4772400 		.word	2390004
 2822 00fc 01000080 		.word	-2147483647
 2823 0100 FFF1FE00 		.word	16708095
 2824              		.cfi_endproc
 2825              	.LFE37:
 2826              		.size	lc3_sns_get_data, .-lc3_sns_get_data
 2827              		.section	.rodata
 2828              		.align	2
 2829              		.set	.LANCHOR0,. + 0
 2830              		.type	dct16_m, %object
 2831              		.size	dct16_m, 1024
 2832              	dct16_m:
 2833 0000 0000803E 		.word	1048576000
 2834 0004 CE25B43E 		.word	1051993550
 2835 0008 868AB13E 		.word	1051822726
 2836 000c 8639AD3E 		.word	1051539846
 2837 0010 753DA73E 		.word	1051147637
 2838 0014 12A59F3E 		.word	1050649874
 2839 0018 1783963E 		.word	1050051351
 2840 001c 0AEE8B3E 		.word	1049357834
 2841 0020 0000803E 		.word	1048576000
 2842 0024 C6AC653E 		.word	1046850758
 2843 0028 4E23493E 		.word	1044980558
 2844 002c F2A92A3E 		.word	1042983410
 2845 0030 D48B0A3E 		.word	1040878548
 2846 0034 4530D23D 		.word	1037185093
 2847 0038 AF428D3D 		.word	1032667823
 2848 003c A9F10D3D 		.word	1024324009
 2849 0040 0000803E 		.word	1048576000
 2850 0044 8639AD3E 		.word	1051539846
 2851 0048 1783963E 		.word	1050051351
 2852 004c C6AC653E 		.word	1046850758
 2853 0050 D48B0A3E 		.word	1040878548
 2854 0054 A9F10D3D 		.word	1024324009
 2855 0058 AF428DBD 		.word	-1114815825
 2856 005c F2A92ABE 		.word	-1104500238
 2857 0060 000080BE 		.word	-1098907648
 2858 0064 12A59FBE 		.word	-1096833774
 2859 0068 868AB1BE 		.word	-1095660922
 2860 006c CE25B4BE 		.word	-1095490098
 2861 0070 753DA7BE 		.word	-1096336011
 2862 0074 0AEE8BBE 		.word	-1098125814
 2863 0078 4E2349BE 		.word	-1102503090
 2864 007c 4530D2BD 		.word	-1110298555
ARM GAS  C:\Users\rdn\AppData\Local\Temp\cc92LAgm.s 			page 80


 2865 0080 0000803E 		.word	1048576000
 2866 0084 12A59F3E 		.word	1050649874
 2867 0088 4E23493E 		.word	1044980558
 2868 008c A9F10D3D 		.word	1024324009
 2869 0090 D48B0ABE 		.word	-1106605100
 2870 0094 0AEE8BBE 		.word	-1098125814
 2871 0098 868AB1BE 		.word	-1095660922
 2872 009c 8639ADBE 		.word	-1095943802
 2873 00a0 000080BE 		.word	-1098907648
 2874 00a4 4530D2BD 		.word	-1110298555
 2875 00a8 AF428D3D 		.word	1032667823
 2876 00ac C6AC653E 		.word	1046850758
 2877 00b0 753DA73E 		.word	1051147637
 2878 00b4 CE25B43E 		.word	1051993550
 2879 00b8 1783963E 		.word	1050051351
 2880 00bc F2A92A3E 		.word	1042983410
 2881 00c0 0000803E 		.word	1048576000
 2882 00c4 0AEE8B3E 		.word	1049357834
 2883 00c8 AF428D3D 		.word	1032667823
 2884 00cc F2A92ABE 		.word	-1104500238
 2885 00d0 753DA7BE 		.word	-1096336011
 2886 00d4 8639ADBE 		.word	-1095943802
 2887 00d8 4E2349BE 		.word	-1102503090
 2888 00dc A9F10D3D 		.word	1024324009
 2889 00e0 0000803E 		.word	1048576000
 2890 00e4 CE25B43E 		.word	1051993550
 2891 00e8 1783963E 		.word	1050051351
 2892 00ec 4530D23D 		.word	1037185093
 2893 00f0 D48B0ABE 		.word	-1106605100
 2894 00f4 12A59FBE 		.word	-1096833774
 2895 00f8 868AB1BE 		.word	-1095660922
 2896 00fc C6AC65BE 		.word	-1100632890
 2897 0100 0000803E 		.word	1048576000
 2898 0104 C6AC653E 		.word	1046850758
 2899 0108 AF428DBD 		.word	-1114815825
 2900 010c 12A59FBE 		.word	-1096833774
 2901 0110 753DA7BE 		.word	-1096336011
 2902 0114 4530D2BD 		.word	-1110298555
 2903 0118 4E23493E 		.word	1044980558
 2904 011c CE25B43E 		.word	1051993550
 2905 0120 0000803E 		.word	1048576000
 2906 0124 A9F10DBD 		.word	-1123159639
 2907 0128 178396BE 		.word	-1097432297
 2908 012c 8639ADBE 		.word	-1095943802
 2909 0130 D48B0ABE 		.word	-1106605100
 2910 0134 F2A92A3E 		.word	1042983410
 2911 0138 868AB13E 		.word	1051822726
 2912 013c 0AEE8B3E 		.word	1049357834
 2913 0140 0000803E 		.word	1048576000
 2914 0144 F2A92A3E 		.word	1042983410
 2915 0148 4E2349BE 		.word	-1102503090
 2916 014c CE25B4BE 		.word	-1095490098
 2917 0150 D48B0ABE 		.word	-1106605100
 2918 0154 C6AC653E 		.word	1046850758
 2919 0158 868AB13E 		.word	1051822726
 2920 015c 4530D23D 		.word	1037185093
 2921 0160 000080BE 		.word	-1098907648
ARM GAS  C:\Users\rdn\AppData\Local\Temp\cc92LAgm.s 			page 81


 2922 0164 8639ADBE 		.word	-1095943802
 2923 0168 AF428DBD 		.word	-1114815825
 2924 016c 0AEE8B3E 		.word	1049357834
 2925 0170 753DA73E 		.word	1051147637
 2926 0174 A9F10D3D 		.word	1024324009
 2927 0178 178396BE 		.word	-1097432297
 2928 017c 12A59FBE 		.word	-1096833774
 2929 0180 0000803E 		.word	1048576000
 2930 0184 4530D23D 		.word	1037185093
 2931 0188 178396BE 		.word	-1097432297
 2932 018c 0AEE8BBE 		.word	-1098125814
 2933 0190 D48B0A3E 		.word	1040878548
 2934 0194 CE25B43E 		.word	1051993550
 2935 0198 AF428D3D 		.word	1032667823
 2936 019c 12A59FBE 		.word	-1096833774
 2937 01a0 000080BE 		.word	-1098907648
 2938 01a4 F2A92A3E 		.word	1042983410
 2939 01a8 868AB13E 		.word	1051822726
 2940 01ac A9F10D3D 		.word	1024324009
 2941 01b0 753DA7BE 		.word	-1096336011
 2942 01b4 C6AC65BE 		.word	-1100632890
 2943 01b8 4E23493E 		.word	1044980558
 2944 01bc 8639AD3E 		.word	1051539846
 2945 01c0 0000803E 		.word	1048576000
 2946 01c4 A9F10D3D 		.word	1024324009
 2947 01c8 868AB1BE 		.word	-1095660922
 2948 01cc 4530D2BD 		.word	-1110298555
 2949 01d0 753DA73E 		.word	1051147637
 2950 01d4 F2A92A3E 		.word	1042983410
 2951 01d8 178396BE 		.word	-1097432297
 2952 01dc C6AC65BE 		.word	-1100632890
 2953 01e0 0000803E 		.word	1048576000
 2954 01e4 0AEE8B3E 		.word	1049357834
 2955 01e8 4E2349BE 		.word	-1102503090
 2956 01ec 12A59FBE 		.word	-1096833774
 2957 01f0 D48B0A3E 		.word	1040878548
 2958 01f4 8639AD3E 		.word	1051539846
 2959 01f8 AF428DBD 		.word	-1114815825
 2960 01fc CE25B4BE 		.word	-1095490098
 2961 0200 0000803E 		.word	1048576000
 2962 0204 A9F10DBD 		.word	-1123159639
 2963 0208 868AB1BE 		.word	-1095660922
 2964 020c 4530D23D 		.word	1037185093
 2965 0210 753DA73E 		.word	1051147637
 2966 0214 F2A92ABE 		.word	-1104500238
 2967 0218 178396BE 		.word	-1097432297
 2968 021c C6AC653E 		.word	1046850758
 2969 0220 0000803E 		.word	1048576000
 2970 0224 0AEE8BBE 		.word	-1098125814
 2971 0228 4E2349BE 		.word	-1102503090
 2972 022c 12A59F3E 		.word	1050649874
 2973 0230 D48B0A3E 		.word	1040878548
 2974 0234 8639ADBE 		.word	-1095943802
 2975 0238 AF428DBD 		.word	-1114815825
 2976 023c CE25B43E 		.word	1051993550
 2977 0240 0000803E 		.word	1048576000
 2978 0244 4530D2BD 		.word	-1110298555
ARM GAS  C:\Users\rdn\AppData\Local\Temp\cc92LAgm.s 			page 82


 2979 0248 178396BE 		.word	-1097432297
 2980 024c 0AEE8B3E 		.word	1049357834
 2981 0250 D48B0A3E 		.word	1040878548
 2982 0254 CE25B4BE 		.word	-1095490098
 2983 0258 AF428D3D 		.word	1032667823
 2984 025c 12A59F3E 		.word	1050649874
 2985 0260 000080BE 		.word	-1098907648
 2986 0264 F2A92ABE 		.word	-1104500238
 2987 0268 868AB13E 		.word	1051822726
 2988 026c A9F10DBD 		.word	-1123159639
 2989 0270 753DA7BE 		.word	-1096336011
 2990 0274 C6AC653E 		.word	1046850758
 2991 0278 4E23493E 		.word	1044980558
 2992 027c 8639ADBE 		.word	-1095943802
 2993 0280 0000803E 		.word	1048576000
 2994 0284 F2A92ABE 		.word	-1104500238
 2995 0288 4E2349BE 		.word	-1102503090
 2996 028c CE25B43E 		.word	1051993550
 2997 0290 D48B0ABE 		.word	-1106605100
 2998 0294 C6AC65BE 		.word	-1100632890
 2999 0298 868AB13E 		.word	1051822726
 3000 029c 4530D2BD 		.word	-1110298555
 3001 02a0 000080BE 		.word	-1098907648
 3002 02a4 8639AD3E 		.word	1051539846
 3003 02a8 AF428DBD 		.word	-1114815825
 3004 02ac 0AEE8BBE 		.word	-1098125814
 3005 02b0 753DA73E 		.word	1051147637
 3006 02b4 A9F10DBD 		.word	-1123159639
 3007 02b8 178396BE 		.word	-1097432297
 3008 02bc 12A59F3E 		.word	1050649874
 3009 02c0 0000803E 		.word	1048576000
 3010 02c4 C6AC65BE 		.word	-1100632890
 3011 02c8 AF428DBD 		.word	-1114815825
 3012 02cc 12A59F3E 		.word	1050649874
 3013 02d0 753DA7BE 		.word	-1096336011
 3014 02d4 4530D23D 		.word	1037185093
 3015 02d8 4E23493E 		.word	1044980558
 3016 02dc CE25B4BE 		.word	-1095490098
 3017 02e0 0000803E 		.word	1048576000
 3018 02e4 A9F10D3D 		.word	1024324009
 3019 02e8 178396BE 		.word	-1097432297
 3020 02ec 8639AD3E 		.word	1051539846
 3021 02f0 D48B0ABE 		.word	-1106605100
 3022 02f4 F2A92ABE 		.word	-1104500238
 3023 02f8 868AB13E 		.word	1051822726
 3024 02fc 0AEE8BBE 		.word	-1098125814
 3025 0300 0000803E 		.word	1048576000
 3026 0304 0AEE8BBE 		.word	-1098125814
 3027 0308 AF428D3D 		.word	1032667823
 3028 030c F2A92A3E 		.word	1042983410
 3029 0310 753DA7BE 		.word	-1096336011
 3030 0314 8639AD3E 		.word	1051539846
 3031 0318 4E2349BE 		.word	-1102503090
 3032 031c A9F10DBD 		.word	-1123159639
 3033 0320 0000803E 		.word	1048576000
 3034 0324 CE25B4BE 		.word	-1095490098
 3035 0328 1783963E 		.word	1050051351
ARM GAS  C:\Users\rdn\AppData\Local\Temp\cc92LAgm.s 			page 83


 3036 032c 4530D2BD 		.word	-1110298555
 3037 0330 D48B0ABE 		.word	-1106605100
 3038 0334 12A59F3E 		.word	1050649874
 3039 0338 868AB1BE 		.word	-1095660922
 3040 033c C6AC653E 		.word	1046850758
 3041 0340 0000803E 		.word	1048576000
 3042 0344 12A59FBE 		.word	-1096833774
 3043 0348 4E23493E 		.word	1044980558
 3044 034c A9F10DBD 		.word	-1123159639
 3045 0350 D48B0ABE 		.word	-1106605100
 3046 0354 0AEE8B3E 		.word	1049357834
 3047 0358 868AB1BE 		.word	-1095660922
 3048 035c 8639AD3E 		.word	1051539846
 3049 0360 000080BE 		.word	-1098907648
 3050 0364 4530D23D 		.word	1037185093
 3051 0368 AF428D3D 		.word	1032667823
 3052 036c C6AC65BE 		.word	-1100632890
 3053 0370 753DA73E 		.word	1051147637
 3054 0374 CE25B4BE 		.word	-1095490098
 3055 0378 1783963E 		.word	1050051351
 3056 037c F2A92ABE 		.word	-1104500238
 3057 0380 0000803E 		.word	1048576000
 3058 0384 8639ADBE 		.word	-1095943802
 3059 0388 1783963E 		.word	1050051351
 3060 038c C6AC65BE 		.word	-1100632890
 3061 0390 D48B0A3E 		.word	1040878548
 3062 0394 A9F10DBD 		.word	-1123159639
 3063 0398 AF428DBD 		.word	-1114815825
 3064 039c F2A92A3E 		.word	1042983410
 3065 03a0 000080BE 		.word	-1098907648
 3066 03a4 12A59F3E 		.word	1050649874
 3067 03a8 868AB1BE 		.word	-1095660922
 3068 03ac CE25B43E 		.word	1051993550
 3069 03b0 753DA7BE 		.word	-1096336011
 3070 03b4 0AEE8B3E 		.word	1049357834
 3071 03b8 4E2349BE 		.word	-1102503090
 3072 03bc 4530D23D 		.word	1037185093
 3073 03c0 0000803E 		.word	1048576000
 3074 03c4 CE25B4BE 		.word	-1095490098
 3075 03c8 868AB13E 		.word	1051822726
 3076 03cc 8639ADBE 		.word	-1095943802
 3077 03d0 753DA73E 		.word	1051147637
 3078 03d4 12A59FBE 		.word	-1096833774
 3079 03d8 1783963E 		.word	1050051351
 3080 03dc 0AEE8BBE 		.word	-1098125814
 3081 03e0 0000803E 		.word	1048576000
 3082 03e4 C6AC65BE 		.word	-1100632890
 3083 03e8 4E23493E 		.word	1044980558
 3084 03ec F2A92ABE 		.word	-1104500238
 3085 03f0 D48B0A3E 		.word	1040878548
 3086 03f4 4530D2BD 		.word	-1110298555
 3087 03f8 AF428D3D 		.word	1032667823
 3088 03fc A9F10DBD 		.word	-1123159639
 3089              		.type	e.5111, %object
 3090              		.size	e.5111, 32
 3091              	e.5111:
 3092 0400 0000803F 		.word	1065353216
ARM GAS  C:\Users\rdn\AppData\Local\Temp\cc92LAgm.s 			page 84


 3093 0404 C2958B3F 		.word	1066112450
 3094 0408 F037983F 		.word	1066940400
 3095 040c D7FEA53F 		.word	1067843287
 3096 0410 F304B53F 		.word	1068827891
 3097 0414 2A67C53F 		.word	1069901610
 3098 0418 FD44D73F 		.word	1071072509
 3099 041c C7C0EA3F 		.word	1072349383
 3100              		.type	ge_table.5565, %object
 3101              		.size	ge_table.5565, 28
 3102              	ge_table.5565:
 3103 0420 4C040000 		.word	ge_14.5559
 3104 0424 4C050000 		.word	ge_18.5560
 3105 0428 4C060000 		.word	ge_22.5561
 3106 042c 4C070000 		.word	ge_26.5562
 3107 0430 4C080000 		.word	ge_30.5563
 3108 0434 4C080000 		.word	ge_30.5563
 3109 0438 4C090000 		.word	ge_34.5564
 3110              	.LC0:
 3111 043c 0A000000 		.word	10
 3112 0440 0A000000 		.word	10
 3113 0444 08000000 		.word	8
 3114 0448 06000000 		.word	6
 3115              		.type	ge_14.5559, %object
 3116              		.size	ge_14.5559, 256
 3117              	ge_14.5559:
 3118 044c 0000803F 		.word	1065353216
 3119 0450 54B8863F 		.word	1065793620
 3120 0454 FACA8D3F 		.word	1066257146
 3121 0458 AF3C953F 		.word	1066745007
 3122 045c 71129D3F 		.word	1067258481
 3123 0460 8051A53F 		.word	1067798912
 3124 0464 64FFAD3F 		.word	1068367716
 3125 0468 EE21B73F 		.word	1068966382
 3126 046c 3FBFC03F 		.word	1069596479
 3127 0470 C8DDCA3F 		.word	1070259656
 3128 0474 5284D53F 		.word	1070957650
 3129 0478 00BAE03F 		.word	1071692288
 3130 047c 5886EC3F 		.word	1072465496
 3131 0480 41F1F83F 		.word	1073279297
 3132 0484 87010340 		.word	1073938823
 3133 0488 42E20940 		.word	1074389570
 3134 048c 6D1F1140 		.word	1074863981
 3135 0490 E3BD1840 		.word	1075363299
 3136 0494 BFC22040 		.word	1075888831
 3137 0498 62332940 		.word	1076441954
 3138 049c 74153240 		.word	1077024116
 3139 04a0 EA6E3B40 		.word	1077636842
 3140 04a4 07464540 		.word	1078281735
 3141 04a8 66A14F40 		.word	1078960486
 3142 04ac F8875A40 		.word	1079674872
 3143 04b0 0B016640 		.word	1080426763
 3144 04b4 51147240 		.word	1081218129
 3145 04b8 E1C97E40 		.word	1082051041
 3146 04bc 21158640 		.word	1082529057
 3147 04c0 351F8D40 		.word	1082990389
 3148 04c4 E5879440 		.word	1083475941
 3149 04c8 29549C40 		.word	1083986985
ARM GAS  C:\Users\rdn\AppData\Local\Temp\cc92LAgm.s 			page 85


 3150 04cc 3B89A440 		.word	1084524859
 3151 04d0 9C2CAD40 		.word	1085090972
 3152 04d4 1544B640 		.word	1085686805
 3153 04d8 C0D5BF40 		.word	1086313920
 3154 04dc 07E8C940 		.word	1086973959
 3155 04e0 A981D440 		.word	1087668649
 3156 04e4 C4A9DF40 		.word	1088399812
 3157 04e8 D067EB40 		.word	1089169360
 3158 04ec AEC3F740 		.word	1089979310
 3159 04f0 D3620241 		.word	1090675411
 3160 04f4 393B0941 		.word	1091124025
 3161 04f8 A06F1041 		.word	1091596192
 3162 04fc DB041841 		.word	1092093147
 3163 0500 00002041 		.word	1092616192
 3164 0504 69662841 		.word	1093166697
 3165 0508 B83D3141 		.word	1093746104
 3166 050c DB8B3A41 		.word	1094355931
 3167 0510 0D574441 		.word	1094997773
 3168 0514 E0A54E41 		.word	1095673312
 3169 0518 3D7F5941 		.word	1096384317
 3170 051c 6AEA6441 		.word	1097132650
 3171 0520 0FEF7041 		.word	1097920271
 3172 0524 3A957D41 		.word	1098749242
 3173 0528 B3728541 		.word	1099264691
 3174 052c 40748C41 		.word	1099723840
 3175 0530 F7D39341 		.word	1100207095
 3176 0534 C8969B41 		.word	1100715720
 3177 0538 E9C1A341 		.word	1101251049
 3178 053c D35AAC41 		.word	1101814483
 3179 0540 4967B541 		.word	1102407497
 3180 0544 5CEDBE41 		.word	1103031644
 3181 0548 6FF3C841 		.word	1103688559
 3182              		.type	ge_18.5560, %object
 3183              		.size	ge_18.5560, 256
 3184              	ge_18.5560:
 3185 054c 0000803F 		.word	1065353216
 3186 0550 3DB4883F 		.word	1065923645
 3187 0554 FFFF913F 		.word	1066532863
 3188 0558 95ED9B3F 		.word	1067183509
 3189 055c FF87A63F 		.word	1067878399
 3190 0560 FDDAB13F 		.word	1068620541
 3191 0564 1EF3BD3F 		.word	1069413150
 3192 0568 C8DDCA3F 		.word	1070259656
 3193 056c 4DA9D83F 		.word	1071163725
 3194 0570 F764E73F 		.word	1072129271
 3195 0574 1A21F73F 		.word	1073160474
 3196 0578 94F70340 		.word	1074001812
 3197 057c E0F00C40 		.word	1074589920
 3198 0580 64861640 		.word	1075218020
 3199 0584 BFC22040 		.word	1075888831
 3200 0588 4AB12B40 		.word	1076605258
 3201 058c 215E3740 		.word	1077370401
 3202 0590 37D64340 		.word	1078187575
 3203 0594 5D275140 		.word	1079060317
 3204 0598 56605F40 		.word	1079992406
 3205 059c E5906E40 		.word	1080987877
 3206 05a0 E1C97E40 		.word	1082051041
ARM GAS  C:\Users\rdn\AppData\Local\Temp\cc92LAgm.s 			page 86


 3207 05a4 A20E8840 		.word	1082658466
 3208 05a8 224F9140 		.word	1083264802
 3209 05ac B0309B40 		.word	1083912368
 3210 05b0 42BEA540 		.word	1084603970
 3211 05b4 8803B140 		.word	1085342600
 3212 05b8 020DBD40 		.word	1086131458
 3213 05bc 07E8C940 		.word	1086973959
 3214 05c0 D5A2D740 		.word	1087873749
 3215 05c4 A64CE640 		.word	1088834726
 3216 05c8 BAF5F540 		.word	1089861050
 3217 05cc B6570341 		.word	1090738102
 3218 05d0 24460C41 		.word	1091323428
 3219 05d4 0BD01541 		.word	1091948555
 3220 05d8 00002041 		.word	1092616192
 3221 05dc 4CE12A41 		.word	1093329228
 3222 05e0 FF7F3641 		.word	1094090751
 3223 05e4 FAE84241 		.word	1094904058
 3224 05e8 FE295041 		.word	1095772670
 3225 05ec BC515E41 		.word	1096700348
 3226 05f0 E56F6D41 		.word	1097691109
 3227 05f4 3A957D41 		.word	1098749242
 3228 05f8 D0698741 		.word	1099393488
 3229 05fc 1A9F9041 		.word	1099996954
 3230 0600 B1749A41 		.word	1100641457
 3231 0604 79F5A441 		.word	1101329785
 3232 0608 192DB041 		.word	1102064921
 3233 060c FD27BC41 		.word	1102850045
 3234 0610 6FF3C841 		.word	1103688559
 3235 0614 9C9DD641 		.word	1104584092
 3236 0618 AA35E541 		.word	1105540522
 3237 061c C5CBF441 		.word	1106561989
 3238 0620 9AB80242 		.word	1107474586
 3239 0624 369C0B42 		.word	1108057142
 3240 0628 8F1A1542 		.word	1108679311
 3241 062c 2D3E1F42 		.word	1109343789
 3242 0630 4B122A42 		.word	1110053451
 3243 0634 EAA23542 		.word	1110811370
 3244 0638 DCFC4142 		.word	1111620828
 3245 063c D22D4F42 		.word	1112485330
 3246 0640 6A445D42 		.word	1113408618
 3247 0644 43506C42 		.word	1114394691
 3248 0648 08627C42 		.word	1115447816
 3249              		.type	ge_22.5561, %object
 3250              		.size	ge_22.5561, 256
 3251              	ge_22.5561:
 3252 064c 0000803F 		.word	1065353216
 3253 0650 A1B78A3F 		.word	1066055585
 3254 0654 FA54963F 		.word	1066816762
 3255 0658 47EBA23F 		.word	1067641671
 3256 065c 618FB03F 		.word	1068535649
 3257 0660 DF57BF3F 		.word	1069504479
 3258 0664 3C5DCF3F 		.word	1070554428
 3259 0668 00BAE03F 		.word	1071692288
 3260 066c EC8AF33F 		.word	1072925420
 3261 0670 94F70340 		.word	1074001812
 3262 0674 3D040F40 		.word	1074725949
 3263 0678 BDFD1A40 		.word	1075510717
ARM GAS  C:\Users\rdn\AppData\Local\Temp\cc92LAgm.s 			page 87


 3264 067c E9F72740 		.word	1076361193
 3265 0680 3F083640 		.word	1077282879
 3266 0684 07464540 		.word	1078281735
 3267 0688 82CA5540 		.word	1079364226
 3268 068c 07B16740 		.word	1080537351
 3269 0690 3D177B40 		.word	1081808701
 3270 0694 A20E8840 		.word	1082658466
 3271 0698 F6729340 		.word	1083405046
 3272 069c 79CB9F40 		.word	1084214137
 3273 06a0 9C2CAD40 		.word	1085090972
 3274 06a4 87ACBB40 		.word	1086041223
 3275 06a8 3D63CB40 		.word	1087071037
 3276 06ac C56ADC40 		.word	1088187077
 3277 06b0 51DFEE40 		.word	1089396561
 3278 06b4 B96F0141 		.word	1090613177
 3279 06b8 24460C41 		.word	1091323428
 3280 06bc DB041841 		.word	1092093147
 3281 06c0 51BF2441 		.word	1092927313
 3282 06c4 9C8A3241 		.word	1093831324
 3283 06c8 927D4141 		.word	1094811026
 3284 06cc F6B05141 		.word	1095872758
 3285 06d0 9B3F6341 		.word	1097023387
 3286 06d4 95467641 		.word	1098270357
 3287 06d8 B3728541 		.word	1099264691
 3288 06dc 1A9F9041 		.word	1099996954
 3289 06e0 01BB9C41 		.word	1100790529
 3290 06e4 75DAA941 		.word	1101650549
 3291 06e8 3213B841 		.word	1102582578
 3292 06ec C47CC741 		.word	1103592644
 3293 06f0 B130D841 		.word	1104687281
 3294 06f4 A44AEA41 		.word	1105873572
 3295 06f8 95E8FD41 		.word	1107159189
 3296 06fc 81950942 		.word	1107924353
 3297 0700 8F1A1542 		.word	1108679311
 3298 0704 89962142 		.word	1109497481
 3299 0708 1C1E2F42 		.word	1110384156
 3300 070c AFC73D42 		.word	1111345071
 3301 0710 8AAB4D42 		.word	1112386442
 3302 0714 FEE35E42 		.word	1113515006
 3303 0718 8F8D7142 		.word	1114738063
 3304 071c 93E38242 		.word	1115874195
 3305 0720 20D98D42 		.word	1116592416
 3306 0724 94B99942 		.word	1117370772
 3307 0728 9C98A642 		.word	1118214300
 3308 072c 878BB442 		.word	1119128455
 3309 0730 70A9C342 		.word	1120119152
 3310 0734 5E0BD442 		.word	1121192798
 3311 0738 74CCE542 		.word	1122356340
 3312 073c 170AF942 		.word	1123617303
 3313 0740 13F20643 		.word	1124528659
 3314 0744 943E1243 		.word	1125269140
 3315 0748 447D1E43 		.word	1126071620
 3316              		.type	ge_26.5562, %object
 3317              		.size	ge_26.5562, 256
 3318              	ge_26.5562:
 3319 074c 0000803F 		.word	1065353216
 3320 0750 9BC28C3F 		.word	1066189467
ARM GAS  C:\Users\rdn\AppData\Local\Temp\cc92LAgm.s 			page 88


 3321 0754 DBCA9A3F 		.word	1067109083
 3322 0758 3739AA3F 		.word	1068120375
 3323 075c 6131BB3F 		.word	1069232481
 3324 0760 9CDACD3F 		.word	1070455452
 3325 0764 1360E23F 		.word	1071800339
 3326 0768 41F1F83F 		.word	1073279297
 3327 076c 2DE10840 		.word	1074323757
 3328 0770 64861640 		.word	1075218020
 3329 0774 D8872540 		.word	1076201432
 3330 0778 3F083640 		.word	1077282879
 3331 077c C52D4840 		.word	1078472133
 3332 0780 68225C40 		.word	1079779944
 3333 0784 51147240 		.word	1081218129
 3334 0788 221B8540 		.word	1082465058
 3335 078c 0C609240 		.word	1083334668
 3336 0790 98F7A040 		.word	1084290968
 3337 0794 8803B140 		.word	1085342600
 3338 0798 FDA8C240 		.word	1086499069
 3339 079c C910D640 		.word	1087770825
 3340 07a0 D067EB40 		.word	1089169360
 3341 07a4 B96F0141 		.word	1090613177
 3342 07a8 FD560E41 		.word	1091458813
 3343 07ac 8D871C41 		.word	1092388749
 3344 07b0 3D222C41 		.word	1093411389
 3345 07b4 274B3D41 		.word	1094535975
 3346 07b8 FE295041 		.word	1095772670
 3347 07bc 6AEA6441 		.word	1097132650
 3348 07c0 6CBC7B41 		.word	1098628204
 3349 07c4 696A8A41 		.word	1099590249
 3350 07c8 D3369841 		.word	1100494547
 3351 07cc 6363A741 		.word	1101488995
 3352 07d0 3213B841 		.word	1102582578
 3353 07d4 DA6CCA41 		.word	1103785178
 3354 07d8 D19ADE41 		.word	1105107665
 3355 07dc C5CBF441 		.word	1106561989
 3356 07e0 86990642 		.word	1107728774
 3357 07e4 8F041442 		.word	1108608143
 3358 07e8 07C62242 		.word	1109575175
 3359 07ec 11003342 		.word	1110638609
 3360 07f0 37D84442 		.word	1111808055
 3361 07f4 C2775842 		.word	1113094082
 3362 07f8 180C6E42 		.word	1114508312
 3363 07fc 93E38242 		.word	1115874195
 3364 0800 E8EF8F42 		.word	1116729320
 3365 0804 3C499E42 		.word	1117669692
 3366 0808 C010AE42 		.word	1118703808
 3367 080c F76ABF42 		.word	1119841015
 3368 0810 0480D242 		.word	1121091588
 3369 0814 0D7CE742 		.word	1122466829
 3370 0818 9F8FFE42 		.word	1123979167
 3371 081c 0EF80B43 		.word	1124857870
 3372 0820 1DEC1943 		.word	1125772317
 3373 0824 44442943 		.word	1126777924
 3374 0828 03243A43 		.word	1127883779
 3375 082c 63B24C43 		.word	1129099875
 3376 0830 531A6143 		.word	1130437203
 3377 0834 078B7743 		.word	1131907847
ARM GAS  C:\Users\rdn\AppData\Local\Temp\cc92LAgm.s 			page 89


 3378 0838 351C8843 		.word	1132993589
 3379 083c CAAD9543 		.word	1133882826
 3380 0840 A699A443 		.word	1134860710
 3381 0844 4E02B543 		.word	1135936078
 3382 0848 B80DC743 		.word	1137118648
 3383              		.type	ge_30.5563, %object
 3384              		.size	ge_30.5563, 256
 3385              	ge_30.5563:
 3386 084c 0000803F 		.word	1065353216
 3387 0850 49D58E3F 		.word	1066325321
 3388 0854 9E629F3F 		.word	1067410078
 3389 0858 FDDAB13F 		.word	1068620541
 3390 085c 4D77C63F 		.word	1069971277
 3391 0860 0E77DD3F 		.word	1071478542
 3392 0864 1A21F73F 		.word	1073160474
 3393 0868 42E20940 		.word	1074389570
 3394 086c C3DC1940 		.word	1075436739
 3395 0870 4AB12B40 		.word	1076605258
 3396 0874 C5963F40 		.word	1077909189
 3397 0878 82CA5540 		.word	1079364226
 3398 087c E5906E40 		.word	1080987877
 3399 0880 221B8540 		.word	1082465058
 3400 0884 E5879440 		.word	1083475941
 3401 0888 42BEA540 		.word	1084603970
 3402 088c 3EF3B840 		.word	1085862718
 3403 0890 0862CE40 		.word	1087267336
 3404 0894 A64CE640 		.word	1088834726
 3405 0898 647E0041 		.word	1090551396
 3406 089c 53620F41 		.word	1091527251
 3407 08a0 00002041 		.word	1092616192
 3408 08a4 9C8A3241 		.word	1093831324
 3409 08a8 463B4741 		.word	1095187270
 3410 08ac BC515E41 		.word	1096700348
 3411 08b0 20157841 		.word	1098388768
 3412 08b4 696A8A41 		.word	1099590249
 3413 08b8 B1749A41 		.word	1100641457
 3414 08bc D35AAC41 		.word	1101814483
 3415 08c0 F453C041 		.word	1103123444
 3416 08c4 9C9DD641 		.word	1104584092
 3417 08c8 777CEF41 		.word	1106214007
 3418 08cc 919E0542 		.word	1107664529
 3419 08d0 8F1A1542 		.word	1108679311
 3420 08d4 EB612642 		.word	1109811691
 3421 08d8 DFA93942 		.word	1111075295
 3422 08dc D22D4F42 		.word	1112485330
 3423 08e0 0E306742 		.word	1114058766
 3424 08e4 45FD8042 		.word	1115749701
 3425 08e8 E8EF8F42 		.word	1116729320
 3426 08ec FD9DA042 		.word	1117822461
 3427 08f0 E83AB342 		.word	1119042280
 3428 08f4 0000C842 		.word	1120403456
 3429 08f8 432DDF42 		.word	1121922371
 3430 08fc 170AF942 		.word	1123617303
 3431 0900 16F30A43 		.word	1124791062
 3432 0904 340D1B43 		.word	1125846324
 3433 0908 03052D43 		.word	1127023875
 3434 090c DD114143 		.word	1128337885
ARM GAS  C:\Users\rdn\AppData\Local\Temp\cc92LAgm.s 			page 90


 3435 0910 87715743 		.word	1129804167
 3436 0914 F0687043 		.word	1131440368
 3437 0918 82228643 		.word	1132864130
 3438 091c CAAD9543 		.word	1133882826
 3439 0920 3506A743 		.word	1135019573
 3440 0924 3361BA43 		.word	1136288051
 3441 0928 65FACF43 		.word	1137703525
 3442 092c 5614E843 		.word	1139283030
 3443 0930 A37C0144 		.word	1140948131
 3444 0934 097E1044 		.word	1141931529
 3445 0938 963C2144 		.word	1143028886
 3446 093c E2EB3344 		.word	1144253410
 3447 0940 7CC54844 		.word	1145619836
 3448 0944 A2096044 		.word	1147144610
 3449 0948 00007A44 		.word	1148846080
 3450              		.type	ge_34.5564, %object
 3451              		.size	ge_34.5564, 256
 3452              	ge_34.5564:
 3453 094c 0000803F 		.word	1065353216
 3454 0950 C8EF903F 		.word	1066463176
 3455 0954 441DA43F 		.word	1067720004
 3456 0958 5CD4B93F 		.word	1069143132
 3457 095c 056BD23F 		.word	1070754565
 3458 0960 9342EE3F 		.word	1072579219
 3459 0964 9DE40640 		.word	1074193565
 3460 0968 E3BD1840 		.word	1075363299
 3461 096c C1F32C40 		.word	1076687809
 3462 0970 37D64340 		.word	1078187575
 3463 0974 DBBF5D40 		.word	1079885787
 3464 0978 3D177B40 		.word	1081808701
 3465 097c 42288E40 		.word	1083058242
 3466 0980 98F7A040 		.word	1084290968
 3467 0984 1544B640 		.word	1085686805
 3468 0988 0862CE40 		.word	1087267336
 3469 098c E7B0E940 		.word	1089056999
 3470 0990 654E0441 		.word	1090801253
 3471 0994 0BD01541 		.word	1091948555
 3472 0998 B2A22941 		.word	1093247666
 3473 099c CF144041 		.word	1094718671
 3474 09a0 3D7F5941 		.word	1096384317
 3475 09a4 95467641 		.word	1098270357
 3476 09a8 606E8B41 		.word	1099656800
 3477 09ac 5FE19D41 		.word	1100865887
 3478 09b0 4CC5B241 		.word	1102234956
 3479 09b4 DA6CCA41 		.word	1103785178
 3480 09b8 AA35E541 		.word	1105540522
 3481 09bc E0C40142 		.word	1107412192
 3482 09c0 95F01242 		.word	1108537493
 3483 09c4 EB612642 		.word	1109811691
 3484 09c8 D7653C42 		.word	1111254487
 3485 09cc 7F535542 		.word	1112888191
 3486 09d0 8F8D7142 		.word	1114738063
 3487 09d4 E1C18842 		.word	1116258785
 3488 09d8 4DDA9A42 		.word	1117444685
 3489 09dc AD57AF42 		.word	1118787501
 3490 09e0 1A8BC642 		.word	1120307994
 3491 09e4 6CD0E042 		.word	1122029676
ARM GAS  C:\Users\rdn\AppData\Local\Temp\cc92LAgm.s 			page 91


 3492 09e8 9F8FFE42 		.word	1123979167
 3493 09ec 391F1043 		.word	1125130041
 3494 09f0 1C312343 		.word	1126379804
 3495 09f4 F4C83843 		.word	1127794932
 3496 09f8 3C3C5143 		.word	1129397308
 3497 09fc B9EB6C43 		.word	1131211705
 3498 0a00 82228643 		.word	1132864130
 3499 0a04 18E29743 		.word	1134027288
 3500 0a08 E1FAAB43 		.word	1135344353
 3501 0a0c 69BCC243 		.word	1136835689
 3502 0a10 C380DC43 		.word	1138524355
 3503 0a14 EDADF943 		.word	1140436461
 3504 0a18 B25B0D44 		.word	1141726130
 3505 0a1c F70F2044 		.word	1142951927
 3506 0a20 CE3D3544 		.word	1144339918
 3507 0a24 0D394D44 		.word	1145911565
 3508 0a28 A0606844 		.word	1147691168
 3509 0a2c 02908344 		.word	1149472770
 3510 0a30 78F89444 		.word	1150613624
 3511 0a34 98AEA844 		.word	1151905432
 3512 0a38 6900BF44 		.word	1153368169
 3513 0a3c 4446D844 		.word	1155024452
 3514 0a40 32E4F444 		.word	1156899890
 3515 0a44 BDA50A45 		.word	1158325693
 3516 0a48 2FFE1C45 		.word	1159527983
 3517              		.text
 3518              	.Letext0:
 3519              		.file 4 "c:\\program files (x86)\\cypress\\psoc creator\\4.4\\psoc creator\\import\\gnu\\arm\\5.4.
 3520              		.file 5 "c:\\program files (x86)\\cypress\\psoc creator\\4.4\\psoc creator\\import\\gnu\\arm\\5.4.
 3521              		.file 6 "./liblc3/include/lc3_private.h"
 3522              		.file 7 "..\\..\\..\\liblc3\\src\\sns.h"
 3523              		.file 8 "..\\..\\..\\liblc3\\src\\tables.h"
 3524              		.file 9 "..\\..\\..\\liblc3\\src\\common.h"
 3525              		.file 10 "c:\\program files (x86)\\cypress\\psoc creator\\4.4\\psoc creator\\import\\gnu\\arm\\5.4
 3526              		.file 11 "c:\\program files (x86)\\cypress\\psoc creator\\4.4\\psoc creator\\import\\gnu\\arm\\5.4
 3527              		.section	.debug_info,"",%progbits
 3528              	.Ldebug_info0:
 3529 0000 22260000 		.4byte	0x2622
 3530 0004 0400     		.2byte	0x4
 3531 0006 00000000 		.4byte	.Ldebug_abbrev0
 3532 000a 04       		.byte	0x4
 3533 000b 01       		.uleb128 0x1
 3534 000c CF040000 		.4byte	.LASF152
 3535 0010 0C       		.byte	0xc
 3536 0011 2C010000 		.4byte	.LASF153
 3537 0015 02030000 		.4byte	.LASF154
 3538 0019 60020000 		.4byte	.Ldebug_ranges0+0x260
 3539 001d 00000000 		.4byte	0
 3540 0021 00000000 		.4byte	.Ldebug_line0
 3541 0025 02       		.uleb128 0x2
 3542 0026 04       		.byte	0x4
 3543 0027 04       		.byte	0x4
 3544 0028 67010000 		.4byte	.LASF0
 3545 002c 02       		.uleb128 0x2
 3546 002d 01       		.byte	0x1
 3547 002e 06       		.byte	0x6
 3548 002f 91060000 		.4byte	.LASF1
ARM GAS  C:\Users\rdn\AppData\Local\Temp\cc92LAgm.s 			page 92


 3549 0033 03       		.uleb128 0x3
 3550 0034 A5050000 		.4byte	.LASF5
 3551 0038 04       		.byte	0x4
 3552 0039 1D       		.byte	0x1d
 3553 003a 3E000000 		.4byte	0x3e
 3554 003e 02       		.uleb128 0x2
 3555 003f 01       		.byte	0x1
 3556 0040 08       		.byte	0x8
 3557 0041 3D060000 		.4byte	.LASF2
 3558 0045 02       		.uleb128 0x2
 3559 0046 02       		.byte	0x2
 3560 0047 05       		.byte	0x5
 3561 0048 7B040000 		.4byte	.LASF3
 3562 004c 02       		.uleb128 0x2
 3563 004d 02       		.byte	0x2
 3564 004e 07       		.byte	0x7
 3565 004f 9D060000 		.4byte	.LASF4
 3566 0053 03       		.uleb128 0x3
 3567 0054 8D000000 		.4byte	.LASF6
 3568 0058 04       		.byte	0x4
 3569 0059 3F       		.byte	0x3f
 3570 005a 5E000000 		.4byte	0x5e
 3571 005e 02       		.uleb128 0x2
 3572 005f 04       		.byte	0x4
 3573 0060 05       		.byte	0x5
 3574 0061 A4040000 		.4byte	.LASF7
 3575 0065 03       		.uleb128 0x3
 3576 0066 4B060000 		.4byte	.LASF8
 3577 006a 04       		.byte	0x4
 3578 006b 41       		.byte	0x41
 3579 006c 70000000 		.4byte	0x70
 3580 0070 02       		.uleb128 0x2
 3581 0071 04       		.byte	0x4
 3582 0072 07       		.byte	0x7
 3583 0073 D5050000 		.4byte	.LASF9
 3584 0077 02       		.uleb128 0x2
 3585 0078 08       		.byte	0x8
 3586 0079 05       		.byte	0x5
 3587 007a 89030000 		.4byte	.LASF10
 3588 007e 02       		.uleb128 0x2
 3589 007f 08       		.byte	0x8
 3590 0080 07       		.byte	0x7
 3591 0081 9A010000 		.4byte	.LASF11
 3592 0085 04       		.uleb128 0x4
 3593 0086 04       		.byte	0x4
 3594 0087 05       		.byte	0x5
 3595 0088 696E7400 		.ascii	"int\000"
 3596 008c 02       		.uleb128 0x2
 3597 008d 04       		.byte	0x4
 3598 008e 07       		.byte	0x7
 3599 008f 43000000 		.4byte	.LASF12
 3600 0093 03       		.uleb128 0x3
 3601 0094 65030000 		.4byte	.LASF13
 3602 0098 05       		.byte	0x5
 3603 0099 18       		.byte	0x18
 3604 009a 33000000 		.4byte	0x33
 3605 009e 03       		.uleb128 0x3
ARM GAS  C:\Users\rdn\AppData\Local\Temp\cc92LAgm.s 			page 93


 3606 009f F1050000 		.4byte	.LASF14
 3607 00a3 05       		.byte	0x5
 3608 00a4 2C       		.byte	0x2c
 3609 00a5 53000000 		.4byte	0x53
 3610 00a9 03       		.uleb128 0x3
 3611 00aa 50010000 		.4byte	.LASF15
 3612 00ae 05       		.byte	0x5
 3613 00af 30       		.byte	0x30
 3614 00b0 65000000 		.4byte	0x65
 3615 00b4 05       		.uleb128 0x5
 3616 00b5 C4000000 		.4byte	.LASF21
 3617 00b9 01       		.byte	0x1
 3618 00ba 3E000000 		.4byte	0x3e
 3619 00be 06       		.byte	0x6
 3620 00bf 3B       		.byte	0x3b
 3621 00c0 E3000000 		.4byte	0xe3
 3622 00c4 06       		.uleb128 0x6
 3623 00c5 85040000 		.4byte	.LASF16
 3624 00c9 00       		.byte	0
 3625 00ca 06       		.uleb128 0x6
 3626 00cb 46010000 		.4byte	.LASF17
 3627 00cf 01       		.byte	0x1
 3628 00d0 06       		.uleb128 0x6
 3629 00d1 5E040000 		.4byte	.LASF18
 3630 00d5 02       		.byte	0x2
 3631 00d6 06       		.uleb128 0x6
 3632 00d7 BD020000 		.4byte	.LASF19
 3633 00db 03       		.byte	0x3
 3634 00dc 06       		.uleb128 0x6
 3635 00dd 16020000 		.4byte	.LASF20
 3636 00e1 04       		.byte	0x4
 3637 00e2 00       		.byte	0
 3638 00e3 05       		.uleb128 0x5
 3639 00e4 33060000 		.4byte	.LASF22
 3640 00e8 01       		.byte	0x1
 3641 00e9 3E000000 		.4byte	0x3e
 3642 00ed 06       		.byte	0x6
 3643 00ee 49       		.byte	0x49
 3644 00ef 24010000 		.4byte	0x124
 3645 00f3 06       		.uleb128 0x6
 3646 00f4 84060000 		.4byte	.LASF23
 3647 00f8 00       		.byte	0
 3648 00f9 06       		.uleb128 0x6
 3649 00fa BE050000 		.4byte	.LASF24
 3650 00fe 01       		.byte	0x1
 3651 00ff 06       		.uleb128 0x6
 3652 0100 0A000000 		.4byte	.LASF25
 3653 0104 02       		.byte	0x2
 3654 0105 06       		.uleb128 0x6
 3655 0106 FB010000 		.4byte	.LASF26
 3656 010a 03       		.byte	0x3
 3657 010b 06       		.uleb128 0x6
 3658 010c 50000000 		.4byte	.LASF27
 3659 0110 04       		.byte	0x4
 3660 0111 06       		.uleb128 0x6
 3661 0112 D1000000 		.4byte	.LASF28
 3662 0116 05       		.byte	0x5
ARM GAS  C:\Users\rdn\AppData\Local\Temp\cc92LAgm.s 			page 94


 3663 0117 06       		.uleb128 0x6
 3664 0118 E2060000 		.4byte	.LASF29
 3665 011c 06       		.byte	0x6
 3666 011d 06       		.uleb128 0x6
 3667 011e 2E040000 		.4byte	.LASF30
 3668 0122 07       		.byte	0x7
 3669 0123 00       		.byte	0
 3670 0124 02       		.uleb128 0x2
 3671 0125 01       		.byte	0x1
 3672 0126 02       		.byte	0x2
 3673 0127 6A020000 		.4byte	.LASF31
 3674 012b 02       		.uleb128 0x2
 3675 012c 04       		.byte	0x4
 3676 012d 07       		.byte	0x7
 3677 012e CC050000 		.4byte	.LASF32
 3678 0132 02       		.uleb128 0x2
 3679 0133 08       		.byte	0x8
 3680 0134 04       		.byte	0x4
 3681 0135 11040000 		.4byte	.LASF33
 3682 0139 02       		.uleb128 0x2
 3683 013a 01       		.byte	0x1
 3684 013b 08       		.byte	0x8
 3685 013c E1020000 		.4byte	.LASF34
 3686 0140 02       		.uleb128 0x2
 3687 0141 08       		.byte	0x8
 3688 0142 04       		.byte	0x4
 3689 0143 DB060000 		.4byte	.LASF35
 3690 0147 05       		.uleb128 0x5
 3691 0148 FD000000 		.4byte	.LASF36
 3692 014c 01       		.byte	0x1
 3693 014d 3E000000 		.4byte	0x3e
 3694 0151 03       		.byte	0x3
 3695 0152 45       		.byte	0x45
 3696 0153 64010000 		.4byte	0x164
 3697 0157 06       		.uleb128 0x6
 3698 0158 C8060000 		.4byte	.LASF37
 3699 015c 00       		.byte	0
 3700 015d 06       		.uleb128 0x6
 3701 015e 91050000 		.4byte	.LASF38
 3702 0162 01       		.byte	0x1
 3703 0163 00       		.byte	0
 3704 0164 07       		.uleb128 0x7
 3705 0165 E6020000 		.4byte	.LASF40
 3706 0169 0C       		.byte	0xc
 3707 016a 03       		.byte	0x3
 3708 016b 5E       		.byte	0x5e
 3709 016c 91010000 		.4byte	0x191
 3710 0170 08       		.uleb128 0x8
 3711 0171 7600     		.ascii	"v\000"
 3712 0173 03       		.byte	0x3
 3713 0174 5F       		.byte	0x5f
 3714 0175 8C000000 		.4byte	0x8c
 3715 0179 00       		.byte	0
 3716 017a 08       		.uleb128 0x8
 3717 017b 6E00     		.ascii	"n\000"
 3718 017d 03       		.byte	0x3
 3719 017e 60       		.byte	0x60
ARM GAS  C:\Users\rdn\AppData\Local\Temp\cc92LAgm.s 			page 95


 3720 017f 85000000 		.4byte	0x85
 3721 0183 04       		.byte	0x4
 3722 0184 09       		.uleb128 0x9
 3723 0185 3A030000 		.4byte	.LASF39
 3724 0189 03       		.byte	0x3
 3725 018a 60       		.byte	0x60
 3726 018b 85000000 		.4byte	0x85
 3727 018f 08       		.byte	0x8
 3728 0190 00       		.byte	0
 3729 0191 07       		.uleb128 0x7
 3730 0192 FD060000 		.4byte	.LASF41
 3731 0196 18       		.byte	0x18
 3732 0197 03       		.byte	0x3
 3733 0198 65       		.byte	0x65
 3734 0199 E6010000 		.4byte	0x1e6
 3735 019d 08       		.uleb128 0x8
 3736 019e 6C6F7700 		.ascii	"low\000"
 3737 01a2 03       		.byte	0x3
 3738 01a3 66       		.byte	0x66
 3739 01a4 8C000000 		.4byte	0x8c
 3740 01a8 00       		.byte	0
 3741 01a9 09       		.uleb128 0x9
 3742 01aa C7030000 		.4byte	.LASF42
 3743 01ae 03       		.byte	0x3
 3744 01af 66       		.byte	0x66
 3745 01b0 8C000000 		.4byte	0x8c
 3746 01b4 04       		.byte	0x4
 3747 01b5 09       		.uleb128 0x9
 3748 01b6 FD030000 		.4byte	.LASF43
 3749 01ba 03       		.byte	0x3
 3750 01bb 67       		.byte	0x67
 3751 01bc 85000000 		.4byte	0x85
 3752 01c0 08       		.byte	0x8
 3753 01c1 09       		.uleb128 0x9
 3754 01c2 8A010000 		.4byte	.LASF44
 3755 01c6 03       		.byte	0x3
 3756 01c7 67       		.byte	0x67
 3757 01c8 85000000 		.4byte	0x85
 3758 01cc 0C       		.byte	0xc
 3759 01cd 09       		.uleb128 0x9
 3760 01ce 81000000 		.4byte	.LASF45
 3761 01d2 03       		.byte	0x3
 3762 01d3 67       		.byte	0x67
 3763 01d4 85000000 		.4byte	0x85
 3764 01d8 10       		.byte	0x10
 3765 01d9 09       		.uleb128 0x9
 3766 01da B9000000 		.4byte	.LASF46
 3767 01de 03       		.byte	0x3
 3768 01df 68       		.byte	0x68
 3769 01e0 24010000 		.4byte	0x124
 3770 01e4 14       		.byte	0x14
 3771 01e5 00       		.byte	0
 3772 01e6 07       		.uleb128 0x7
 3773 01e7 21000000 		.4byte	.LASF47
 3774 01eb 10       		.byte	0x10
 3775 01ec 03       		.byte	0x3
 3776 01ed 6B       		.byte	0x6b
ARM GAS  C:\Users\rdn\AppData\Local\Temp\cc92LAgm.s 			page 96


 3777 01ee 23020000 		.4byte	0x223
 3778 01f2 09       		.uleb128 0x9
 3779 01f3 B8050000 		.4byte	.LASF48
 3780 01f7 03       		.byte	0x3
 3781 01f8 6C       		.byte	0x6c
 3782 01f9 23020000 		.4byte	0x223
 3783 01fd 00       		.byte	0
 3784 01fe 08       		.uleb128 0x8
 3785 01ff 656E6400 		.ascii	"end\000"
 3786 0203 03       		.byte	0x3
 3787 0204 6C       		.byte	0x6c
 3788 0205 23020000 		.4byte	0x223
 3789 0209 04       		.byte	0x4
 3790 020a 09       		.uleb128 0x9
 3791 020b 3F070000 		.4byte	.LASF49
 3792 020f 03       		.byte	0x3
 3793 0210 6D       		.byte	0x6d
 3794 0211 2E020000 		.4byte	0x22e
 3795 0215 08       		.byte	0x8
 3796 0216 09       		.uleb128 0x9
 3797 0217 78030000 		.4byte	.LASF50
 3798 021b 03       		.byte	0x3
 3799 021c 6D       		.byte	0x6d
 3800 021d 2E020000 		.4byte	0x22e
 3801 0221 0C       		.byte	0xc
 3802 0222 00       		.byte	0
 3803 0223 0A       		.uleb128 0xa
 3804 0224 04       		.byte	0x4
 3805 0225 29020000 		.4byte	0x229
 3806 0229 0B       		.uleb128 0xb
 3807 022a 93000000 		.4byte	0x93
 3808 022e 0A       		.uleb128 0xa
 3809 022f 04       		.byte	0x4
 3810 0230 93000000 		.4byte	0x93
 3811 0234 07       		.uleb128 0x7
 3812 0235 03040000 		.4byte	.LASF51
 3813 0239 38       		.byte	0x38
 3814 023a 03       		.byte	0x3
 3815 023b 70       		.byte	0x70
 3816 023c 70020000 		.4byte	0x270
 3817 0240 09       		.uleb128 0x9
 3818 0241 BF000000 		.4byte	.LASF52
 3819 0245 03       		.byte	0x3
 3820 0246 71       		.byte	0x71
 3821 0247 47010000 		.4byte	0x147
 3822 024b 00       		.byte	0
 3823 024c 08       		.uleb128 0x8
 3824 024d 616300   		.ascii	"ac\000"
 3825 0250 03       		.byte	0x3
 3826 0251 72       		.byte	0x72
 3827 0252 91010000 		.4byte	0x191
 3828 0256 04       		.byte	0x4
 3829 0257 09       		.uleb128 0x9
 3830 0258 DC020000 		.4byte	.LASF53
 3831 025c 03       		.byte	0x3
 3832 025d 73       		.byte	0x73
 3833 025e 64010000 		.4byte	0x164
ARM GAS  C:\Users\rdn\AppData\Local\Temp\cc92LAgm.s 			page 97


 3834 0262 1C       		.byte	0x1c
 3835 0263 09       		.uleb128 0x9
 3836 0264 31000000 		.4byte	.LASF54
 3837 0268 03       		.byte	0x3
 3838 0269 74       		.byte	0x74
 3839 026a E6010000 		.4byte	0x1e6
 3840 026e 28       		.byte	0x28
 3841 026f 00       		.byte	0
 3842 0270 03       		.uleb128 0x3
 3843 0271 87020000 		.4byte	.LASF55
 3844 0275 03       		.byte	0x3
 3845 0276 75       		.byte	0x75
 3846 0277 34020000 		.4byte	0x234
 3847 027b 07       		.uleb128 0x7
 3848 027c 1C060000 		.4byte	.LASF56
 3849 0280 1C       		.byte	0x1c
 3850 0281 07       		.byte	0x7
 3851 0282 1E       		.byte	0x1e
 3852 0283 E8020000 		.4byte	0x2e8
 3853 0287 09       		.uleb128 0x9
 3854 0288 B7060000 		.4byte	.LASF57
 3855 028c 07       		.byte	0x7
 3856 028d 1F       		.byte	0x1f
 3857 028e 85000000 		.4byte	0x85
 3858 0292 00       		.byte	0
 3859 0293 09       		.uleb128 0x9
 3860 0294 0C040000 		.4byte	.LASF58
 3861 0298 07       		.byte	0x7
 3862 0299 1F       		.byte	0x1f
 3863 029a 85000000 		.4byte	0x85
 3864 029e 04       		.byte	0x4
 3865 029f 09       		.uleb128 0x9
 3866 02a0 AD040000 		.4byte	.LASF59
 3867 02a4 07       		.byte	0x7
 3868 02a5 20       		.byte	0x20
 3869 02a6 85000000 		.4byte	0x85
 3870 02aa 08       		.byte	0x8
 3871 02ab 09       		.uleb128 0x9
 3872 02ac 73030000 		.4byte	.LASF60
 3873 02b0 07       		.byte	0x7
 3874 02b1 20       		.byte	0x20
 3875 02b2 85000000 		.4byte	0x85
 3876 02b6 0C       		.byte	0xc
 3877 02b7 09       		.uleb128 0x9
 3878 02b8 26070000 		.4byte	.LASF61
 3879 02bc 07       		.byte	0x7
 3880 02bd 21       		.byte	0x21
 3881 02be 85000000 		.4byte	0x85
 3882 02c2 10       		.byte	0x10
 3883 02c3 09       		.uleb128 0x9
 3884 02c4 2C070000 		.4byte	.LASF62
 3885 02c8 07       		.byte	0x7
 3886 02c9 21       		.byte	0x21
 3887 02ca 85000000 		.4byte	0x85
 3888 02ce 14       		.byte	0x14
 3889 02cf 09       		.uleb128 0x9
 3890 02d0 29060000 		.4byte	.LASF63
ARM GAS  C:\Users\rdn\AppData\Local\Temp\cc92LAgm.s 			page 98


 3891 02d4 07       		.byte	0x7
 3892 02d5 22       		.byte	0x22
 3893 02d6 24010000 		.4byte	0x124
 3894 02da 18       		.byte	0x18
 3895 02db 09       		.uleb128 0x9
 3896 02dc 2E060000 		.4byte	.LASF64
 3897 02e0 07       		.byte	0x7
 3898 02e1 22       		.byte	0x22
 3899 02e2 24010000 		.4byte	0x124
 3900 02e6 19       		.byte	0x19
 3901 02e7 00       		.byte	0
 3902 02e8 03       		.uleb128 0x3
 3903 02e9 6A060000 		.4byte	.LASF65
 3904 02ed 07       		.byte	0x7
 3905 02ee 23       		.byte	0x23
 3906 02ef 7B020000 		.4byte	0x27b
 3907 02f3 07       		.uleb128 0x7
 3908 02f4 70000000 		.4byte	.LASF66
 3909 02f8 08       		.byte	0x8
 3910 02f9 08       		.byte	0x8
 3911 02fa 7C       		.byte	0x7c
 3912 02fb 16030000 		.4byte	0x316
 3913 02ff 09       		.uleb128 0x9
 3914 0300 84010000 		.4byte	.LASF67
 3915 0304 08       		.byte	0x8
 3916 0305 7D       		.byte	0x7d
 3917 0306 85000000 		.4byte	0x85
 3918 030a 00       		.byte	0
 3919 030b 08       		.uleb128 0x8
 3920 030c 7600     		.ascii	"v\000"
 3921 030e 08       		.byte	0x8
 3922 030f 7D       		.byte	0x7d
 3923 0310 16030000 		.4byte	0x316
 3924 0314 04       		.byte	0x4
 3925 0315 00       		.byte	0
 3926 0316 0A       		.uleb128 0xa
 3927 0317 04       		.byte	0x4
 3928 0318 1C030000 		.4byte	0x31c
 3929 031c 0B       		.uleb128 0xb
 3930 031d 25000000 		.4byte	0x25
 3931 0321 0C       		.uleb128 0xc
 3932 0322 D5020000 		.4byte	.LASF83
 3933 0326 09       		.byte	0x9
 3934 0327 6D       		.byte	0x6d
 3935 0328 24010000 		.4byte	0x124
 3936 032c 03       		.byte	0x3
 3937 032d 3C030000 		.4byte	0x33c
 3938 0331 0D       		.uleb128 0xd
 3939 0332 737200   		.ascii	"sr\000"
 3940 0335 09       		.byte	0x9
 3941 0336 6D       		.byte	0x6d
 3942 0337 E3000000 		.4byte	0xe3
 3943 033b 00       		.byte	0
 3944 033c 0E       		.uleb128 0xe
 3945 033d 70020000 		.4byte	.LASF73
 3946 0341 01       		.byte	0x1
 3947 0342 B301     		.2byte	0x1b3
ARM GAS  C:\Users\rdn\AppData\Local\Temp\cc92LAgm.s 			page 99


 3948 0344 00000000 		.4byte	.LFB25
 3949 0348 D0000000 		.4byte	.LFE25-.LFB25
 3950 034c 01       		.uleb128 0x1
 3951 034d 9C       		.byte	0x9c
 3952 034e 37040000 		.4byte	0x437
 3953 0352 0F       		.uleb128 0xf
 3954 0353 7800     		.ascii	"x\000"
 3955 0355 01       		.byte	0x1
 3956 0356 B301     		.2byte	0x1b3
 3957 0358 16030000 		.4byte	0x316
 3958 035c 01       		.uleb128 0x1
 3959 035d 50       		.byte	0x50
 3960 035e 0F       		.uleb128 0xf
 3961 035f 7900     		.ascii	"y\000"
 3962 0361 01       		.byte	0x1
 3963 0362 B301     		.2byte	0x1b3
 3964 0364 37040000 		.4byte	0x437
 3965 0368 01       		.uleb128 0x1
 3966 0369 51       		.byte	0x51
 3967 036a 0F       		.uleb128 0xf
 3968 036b 6E00     		.ascii	"n\000"
 3969 036d 01       		.byte	0x1
 3970 036e B301     		.2byte	0x1b3
 3971 0370 85000000 		.4byte	0x85
 3972 0374 01       		.uleb128 0x1
 3973 0375 52       		.byte	0x52
 3974 0376 10       		.uleb128 0x10
 3975 0377 B8050000 		.4byte	.LASF48
 3976 037b 01       		.byte	0x1
 3977 037c B401     		.2byte	0x1b4
 3978 037e 85000000 		.4byte	0x85
 3979 0382 00000000 		.4byte	.LLST0
 3980 0386 0F       		.uleb128 0xf
 3981 0387 656E6400 		.ascii	"end\000"
 3982 038b 01       		.byte	0x1
 3983 038c B401     		.2byte	0x1b4
 3984 038e 85000000 		.4byte	0x85
 3985 0392 02       		.uleb128 0x2
 3986 0393 91       		.byte	0x91
 3987 0394 00       		.sleb128 0
 3988 0395 11       		.uleb128 0x11
 3989 0396 28020000 		.4byte	.LASF68
 3990 039a 01       		.byte	0x1
 3991 039b B401     		.2byte	0x1b4
 3992 039d 3D040000 		.4byte	0x43d
 3993 03a1 02       		.uleb128 0x2
 3994 03a2 91       		.byte	0x91
 3995 03a3 04       		.sleb128 4
 3996 03a4 11       		.uleb128 0x11
 3997 03a5 27040000 		.4byte	.LASF69
 3998 03a9 01       		.byte	0x1
 3999 03aa B401     		.2byte	0x1b4
 4000 03ac 3D040000 		.4byte	0x43d
 4001 03b0 02       		.uleb128 0x2
 4002 03b1 91       		.byte	0x91
 4003 03b2 08       		.sleb128 8
 4004 03b3 12       		.uleb128 0x12
ARM GAS  C:\Users\rdn\AppData\Local\Temp\cc92LAgm.s 			page 100


 4005 03b4 00000000 		.4byte	.Ldebug_ranges0+0
 4006 03b8 13       		.uleb128 0x13
 4007 03b9 6B00     		.ascii	"k\000"
 4008 03bb 01       		.byte	0x1
 4009 03bc B601     		.2byte	0x1b6
 4010 03be 85000000 		.4byte	0x85
 4011 03c2 01       		.uleb128 0x1
 4012 03c3 53       		.byte	0x53
 4013 03c4 12       		.uleb128 0x12
 4014 03c5 18000000 		.4byte	.Ldebug_ranges0+0x18
 4015 03c9 14       		.uleb128 0x14
 4016 03ca 3A020000 		.4byte	.LASF70
 4017 03ce 01       		.byte	0x1
 4018 03cf B701     		.2byte	0x1b7
 4019 03d1 25000000 		.4byte	0x25
 4020 03d5 21000000 		.4byte	.LLST1
 4021 03d9 14       		.uleb128 0x14
 4022 03da F4010000 		.4byte	.LASF71
 4023 03de 01       		.byte	0x1
 4024 03df B801     		.2byte	0x1b8
 4025 03e1 25000000 		.4byte	0x25
 4026 03e5 35000000 		.4byte	.LLST2
 4027 03e9 14       		.uleb128 0x14
 4028 03ea 5E060000 		.4byte	.LASF72
 4029 03ee 01       		.byte	0x1
 4030 03ef B901     		.2byte	0x1b9
 4031 03f1 85000000 		.4byte	0x85
 4032 03f5 55000000 		.4byte	.LLST3
 4033 03f9 12       		.uleb128 0x12
 4034 03fa 38000000 		.4byte	.Ldebug_ranges0+0x38
 4035 03fe 15       		.uleb128 0x15
 4036 03ff 6900     		.ascii	"i\000"
 4037 0401 01       		.byte	0x1
 4038 0402 BB01     		.2byte	0x1bb
 4039 0404 85000000 		.4byte	0x85
 4040 0408 7F000000 		.4byte	.LLST4
 4041 040c 16       		.uleb128 0x16
 4042 040d 4A000000 		.4byte	.LBB17
 4043 0411 42000000 		.4byte	.LBE17-.LBB17
 4044 0415 15       		.uleb128 0x15
 4045 0416 633200   		.ascii	"c2\000"
 4046 0419 01       		.byte	0x1
 4047 041a BC01     		.2byte	0x1bc
 4048 041c 25000000 		.4byte	0x25
 4049 0420 9E000000 		.4byte	.LLST5
 4050 0424 15       		.uleb128 0x15
 4051 0425 6500     		.ascii	"e\000"
 4052 0427 01       		.byte	0x1
 4053 0428 BD01     		.2byte	0x1bd
 4054 042a 25000000 		.4byte	0x25
 4055 042e B2000000 		.4byte	.LLST6
 4056 0432 00       		.byte	0
 4057 0433 00       		.byte	0
 4058 0434 00       		.byte	0
 4059 0435 00       		.byte	0
 4060 0436 00       		.byte	0
 4061 0437 0A       		.uleb128 0xa
ARM GAS  C:\Users\rdn\AppData\Local\Temp\cc92LAgm.s 			page 101


 4062 0438 04       		.byte	0x4
 4063 0439 85000000 		.4byte	0x85
 4064 043d 0A       		.uleb128 0xa
 4065 043e 04       		.byte	0x4
 4066 043f 25000000 		.4byte	0x25
 4067 0443 17       		.uleb128 0x17
 4068 0444 B9030000 		.4byte	.LASF90
 4069 0448 01       		.byte	0x1
 4070 0449 86       		.byte	0x86
 4071 044a 01       		.byte	0x1
 4072 044b 76040000 		.4byte	0x476
 4073 044f 0D       		.uleb128 0xd
 4074 0450 7800     		.ascii	"x\000"
 4075 0452 01       		.byte	0x1
 4076 0453 86       		.byte	0x86
 4077 0454 16030000 		.4byte	0x316
 4078 0458 0D       		.uleb128 0xd
 4079 0459 7900     		.ascii	"y\000"
 4080 045b 01       		.byte	0x1
 4081 045c 86       		.byte	0x86
 4082 045d 3D040000 		.4byte	0x43d
 4083 0461 18       		.uleb128 0x18
 4084 0462 19       		.uleb128 0x19
 4085 0463 6900     		.ascii	"i\000"
 4086 0465 01       		.byte	0x1
 4087 0466 88       		.byte	0x88
 4088 0467 85000000 		.4byte	0x85
 4089 046b 19       		.uleb128 0x19
 4090 046c 6A00     		.ascii	"j\000"
 4091 046e 01       		.byte	0x1
 4092 046f 88       		.byte	0x88
 4093 0470 85000000 		.4byte	0x85
 4094 0474 00       		.byte	0
 4095 0475 00       		.byte	0
 4096 0476 0E       		.uleb128 0xe
 4097 0477 79060000 		.4byte	.LASF74
 4098 047b 01       		.byte	0x1
 4099 047c 4902     		.2byte	0x249
 4100 047e 00000000 		.4byte	.LFB27
 4101 0482 A0000000 		.4byte	.LFE27-.LFB27
 4102 0486 01       		.uleb128 0x1
 4103 0487 9C       		.byte	0x9c
 4104 0488 83050000 		.4byte	0x583
 4105 048c 10       		.uleb128 0x10
 4106 048d F4020000 		.4byte	.LASF75
 4107 0491 01       		.byte	0x1
 4108 0492 4902     		.2byte	0x249
 4109 0494 85000000 		.4byte	0x85
 4110 0498 C6000000 		.4byte	.LLST7
 4111 049c 10       		.uleb128 0x10
 4112 049d 18000000 		.4byte	.LASF76
 4113 04a1 01       		.byte	0x1
 4114 04a2 4902     		.2byte	0x249
 4115 04a4 85000000 		.4byte	0x85
 4116 04a8 E7000000 		.4byte	.LLST8
 4117 04ac 0F       		.uleb128 0xf
 4118 04ad 6300     		.ascii	"c\000"
ARM GAS  C:\Users\rdn\AppData\Local\Temp\cc92LAgm.s 			page 102


 4119 04af 01       		.byte	0x1
 4120 04b0 4A02     		.2byte	0x24a
 4121 04b2 16030000 		.4byte	0x316
 4122 04b6 01       		.uleb128 0x1
 4123 04b7 52       		.byte	0x52
 4124 04b8 10       		.uleb128 0x10
 4125 04b9 AD040000 		.4byte	.LASF59
 4126 04bd 01       		.byte	0x1
 4127 04be 4A02     		.2byte	0x24a
 4128 04c0 85000000 		.4byte	0x85
 4129 04c4 08010000 		.4byte	.LLST9
 4130 04c8 10       		.uleb128 0x10
 4131 04c9 73030000 		.4byte	.LASF60
 4132 04cd 01       		.byte	0x1
 4133 04ce 4A02     		.2byte	0x24a
 4134 04d0 85000000 		.4byte	0x85
 4135 04d4 29010000 		.4byte	.LLST10
 4136 04d8 1A       		.uleb128 0x1a
 4137 04d9 73636600 		.ascii	"scf\000"
 4138 04dd 01       		.byte	0x1
 4139 04de 4A02     		.2byte	0x24a
 4140 04e0 3D040000 		.4byte	0x43d
 4141 04e4 49010000 		.4byte	.LLST11
 4142 04e8 14       		.uleb128 0x14
 4143 04e9 B7060000 		.4byte	.LASF57
 4144 04ed 01       		.byte	0x1
 4145 04ee 4C02     		.2byte	0x24c
 4146 04f0 16030000 		.4byte	0x316
 4147 04f4 69010000 		.4byte	.LLST12
 4148 04f8 14       		.uleb128 0x14
 4149 04f9 0C040000 		.4byte	.LASF58
 4150 04fd 01       		.byte	0x1
 4151 04fe 4D02     		.2byte	0x24d
 4152 0500 16030000 		.4byte	0x316
 4153 0504 7C010000 		.4byte	.LLST13
 4154 0508 13       		.uleb128 0x13
 4155 0509 6700     		.ascii	"g\000"
 4156 050b 01       		.byte	0x1
 4157 050c 4E02     		.2byte	0x24e
 4158 050e 25000000 		.4byte	0x25
 4159 0512 02       		.uleb128 0x2
 4160 0513 90       		.byte	0x90
 4161 0514 4E       		.uleb128 0x4e
 4162 0515 1B       		.uleb128 0x1b
 4163 0516 43040000 		.4byte	0x443
 4164 051a 2C000000 		.4byte	.LBB27
 4165 051e 36000000 		.4byte	.LBE27-.LBB27
 4166 0522 01       		.byte	0x1
 4167 0523 5002     		.2byte	0x250
 4168 0525 56050000 		.4byte	0x556
 4169 0529 1C       		.uleb128 0x1c
 4170 052a 58040000 		.4byte	0x458
 4171 052e 8F010000 		.4byte	.LLST14
 4172 0532 1D       		.uleb128 0x1d
 4173 0533 4F040000 		.4byte	0x44f
 4174 0537 01       		.uleb128 0x1
 4175 0538 52       		.byte	0x52
ARM GAS  C:\Users\rdn\AppData\Local\Temp\cc92LAgm.s 			page 103


 4176 0539 16       		.uleb128 0x16
 4177 053a 2C000000 		.4byte	.LBB28
 4178 053e 36000000 		.4byte	.LBE28-.LBB28
 4179 0542 1E       		.uleb128 0x1e
 4180 0543 62040000 		.4byte	0x462
 4181 0547 BA010000 		.4byte	.LLST15
 4182 054b 1E       		.uleb128 0x1e
 4183 054c 6B040000 		.4byte	0x46b
 4184 0550 D9010000 		.4byte	.LLST16
 4185 0554 00       		.byte	0
 4186 0555 00       		.byte	0
 4187 0556 1F       		.uleb128 0x1f
 4188 0557 62000000 		.4byte	.LBB29
 4189 055b 16000000 		.4byte	.LBE29-.LBB29
 4190 055f 6E050000 		.4byte	0x56e
 4191 0563 20       		.uleb128 0x20
 4192 0564 6900     		.ascii	"i\000"
 4193 0566 01       		.byte	0x1
 4194 0567 5202     		.2byte	0x252
 4195 0569 85000000 		.4byte	0x85
 4196 056d 00       		.byte	0
 4197 056e 16       		.uleb128 0x16
 4198 056f 78000000 		.4byte	.LBB30
 4199 0573 14000000 		.4byte	.LBE30-.LBB30
 4200 0577 20       		.uleb128 0x20
 4201 0578 6900     		.ascii	"i\000"
 4202 057a 01       		.byte	0x1
 4203 057b 5502     		.2byte	0x255
 4204 057d 85000000 		.4byte	0x85
 4205 0581 00       		.byte	0
 4206 0582 00       		.byte	0
 4207 0583 0E       		.uleb128 0xe
 4208 0584 90010000 		.4byte	.LASF77
 4209 0588 01       		.byte	0x1
 4210 0589 5E02     		.2byte	0x25e
 4211 058b 00000000 		.4byte	.LFB28
 4212 058f 80000000 		.4byte	.LFE28-.LFB28
 4213 0593 01       		.uleb128 0x1
 4214 0594 9C       		.byte	0x9c
 4215 0595 FA050000 		.4byte	0x5fa
 4216 0599 1A       		.uleb128 0x1a
 4217 059a 6300     		.ascii	"c\000"
 4218 059c 01       		.byte	0x1
 4219 059d 5E02     		.2byte	0x25e
 4220 059f FA050000 		.4byte	0x5fa
 4221 05a3 ED010000 		.4byte	.LLST17
 4222 05a7 0F       		.uleb128 0xf
 4223 05a8 6E00     		.ascii	"n\000"
 4224 05aa 01       		.byte	0x1
 4225 05ab 5E02     		.2byte	0x25e
 4226 05ad 85000000 		.4byte	0x85
 4227 05b1 01       		.uleb128 0x1
 4228 05b2 51       		.byte	0x51
 4229 05b3 0F       		.uleb128 0xf
 4230 05b4 69647800 		.ascii	"idx\000"
 4231 05b8 01       		.byte	0x1
 4232 05b9 5E02     		.2byte	0x25e
ARM GAS  C:\Users\rdn\AppData\Local\Temp\cc92LAgm.s 			page 104


 4233 05bb 37040000 		.4byte	0x437
 4234 05bf 01       		.uleb128 0x1
 4235 05c0 52       		.byte	0x52
 4236 05c1 0F       		.uleb128 0xf
 4237 05c2 6C7300   		.ascii	"ls\000"
 4238 05c5 01       		.byte	0x1
 4239 05c6 5E02     		.2byte	0x25e
 4240 05c8 05060000 		.4byte	0x605
 4241 05cc 01       		.uleb128 0x1
 4242 05cd 53       		.byte	0x53
 4243 05ce 15       		.uleb128 0x15
 4244 05cf 636900   		.ascii	"ci\000"
 4245 05d2 01       		.byte	0x1
 4246 05d3 6002     		.2byte	0x260
 4247 05d5 85000000 		.4byte	0x85
 4248 05d9 3B020000 		.4byte	.LLST18
 4249 05dd 15       		.uleb128 0x15
 4250 05de 6900     		.ascii	"i\000"
 4251 05e0 01       		.byte	0x1
 4252 05e1 6002     		.2byte	0x260
 4253 05e3 85000000 		.4byte	0x85
 4254 05e7 59020000 		.4byte	.LLST19
 4255 05eb 15       		.uleb128 0x15
 4256 05ec 6A00     		.ascii	"j\000"
 4257 05ee 01       		.byte	0x1
 4258 05ef 6B02     		.2byte	0x26b
 4259 05f1 8C000000 		.4byte	0x8c
 4260 05f5 A6020000 		.4byte	.LLST20
 4261 05f9 00       		.byte	0
 4262 05fa 0A       		.uleb128 0xa
 4263 05fb 04       		.byte	0x4
 4264 05fc 00060000 		.4byte	0x600
 4265 0600 0B       		.uleb128 0xb
 4266 0601 85000000 		.4byte	0x85
 4267 0605 0A       		.uleb128 0xa
 4268 0606 04       		.byte	0x4
 4269 0607 24010000 		.4byte	0x124
 4270 060b 0E       		.uleb128 0xe
 4271 060c 52040000 		.4byte	.LASF78
 4272 0610 01       		.byte	0x1
 4273 0611 7E02     		.2byte	0x27e
 4274 0613 00000000 		.4byte	.LFB29
 4275 0617 74000000 		.4byte	.LFE29-.LFB29
 4276 061b 01       		.uleb128 0x1
 4277 061c 9C       		.byte	0x9c
 4278 061d A3060000 		.4byte	0x6a3
 4279 0621 1A       		.uleb128 0x1a
 4280 0622 69647800 		.ascii	"idx\000"
 4281 0626 01       		.byte	0x1
 4282 0627 7E02     		.2byte	0x27e
 4283 0629 85000000 		.4byte	0x85
 4284 062d B9020000 		.4byte	.LLST21
 4285 0631 1A       		.uleb128 0x1a
 4286 0632 6C7300   		.ascii	"ls\000"
 4287 0635 01       		.byte	0x1
 4288 0636 7E02     		.2byte	0x27e
 4289 0638 24010000 		.4byte	0x124
ARM GAS  C:\Users\rdn\AppData\Local\Temp\cc92LAgm.s 			page 105


 4290 063c D7020000 		.4byte	.LLST22
 4291 0640 10       		.uleb128 0x10
 4292 0641 97030000 		.4byte	.LASF79
 4293 0645 01       		.byte	0x1
 4294 0646 7E02     		.2byte	0x27e
 4295 0648 85000000 		.4byte	0x85
 4296 064c F5020000 		.4byte	.LLST23
 4297 0650 1A       		.uleb128 0x1a
 4298 0651 6300     		.ascii	"c\000"
 4299 0653 01       		.byte	0x1
 4300 0654 7E02     		.2byte	0x27e
 4301 0656 37040000 		.4byte	0x437
 4302 065a 13030000 		.4byte	.LLST24
 4303 065e 1A       		.uleb128 0x1a
 4304 065f 6E00     		.ascii	"n\000"
 4305 0661 01       		.byte	0x1
 4306 0662 7E02     		.2byte	0x27e
 4307 0664 85000000 		.4byte	0x85
 4308 0668 6C030000 		.4byte	.LLST25
 4309 066c 15       		.uleb128 0x15
 4310 066d 6900     		.ascii	"i\000"
 4311 066f 01       		.byte	0x1
 4312 0670 8002     		.2byte	0x280
 4313 0672 85000000 		.4byte	0x85
 4314 0676 8C030000 		.4byte	.LLST26
 4315 067a 15       		.uleb128 0x15
 4316 067b 636900   		.ascii	"ci\000"
 4317 067e 01       		.byte	0x1
 4318 067f 9502     		.2byte	0x295
 4319 0681 85000000 		.4byte	0x85
 4320 0685 E5030000 		.4byte	.LLST27
 4321 0689 16       		.uleb128 0x16
 4322 068a 26000000 		.4byte	.LBB31
 4323 068e 28000000 		.4byte	.LBE31-.LBB31
 4324 0692 15       		.uleb128 0x15
 4325 0693 636900   		.ascii	"ci\000"
 4326 0696 01       		.byte	0x1
 4327 0697 8602     		.2byte	0x286
 4328 0699 85000000 		.4byte	0x85
 4329 069d 03040000 		.4byte	.LLST28
 4330 06a1 00       		.byte	0
 4331 06a2 00       		.byte	0
 4332 06a3 0E       		.uleb128 0xe
 4333 06a4 C5040000 		.4byte	.LASF80
 4334 06a8 01       		.byte	0x1
 4335 06a9 A101     		.2byte	0x1a1
 4336 06ab 00000000 		.4byte	.LFB24
 4337 06af 54000000 		.4byte	.LFE24-.LFB24
 4338 06b3 01       		.uleb128 0x1
 4339 06b4 9C       		.byte	0x9c
 4340 06b5 37070000 		.4byte	0x737
 4341 06b9 1A       		.uleb128 0x1a
 4342 06ba 6300     		.ascii	"c\000"
 4343 06bc 01       		.byte	0x1
 4344 06bd A101     		.2byte	0x1a1
 4345 06bf FA050000 		.4byte	0x5fa
 4346 06c3 16040000 		.4byte	.LLST29
ARM GAS  C:\Users\rdn\AppData\Local\Temp\cc92LAgm.s 			page 106


 4347 06c7 1A       		.uleb128 0x1a
 4348 06c8 636E00   		.ascii	"cn\000"
 4349 06cb 01       		.byte	0x1
 4350 06cc A101     		.2byte	0x1a1
 4351 06ce 3D040000 		.4byte	0x43d
 4352 06d2 51040000 		.4byte	.LLST30
 4353 06d6 14       		.uleb128 0x14
 4354 06d7 7D010000 		.4byte	.LASF81
 4355 06db 01       		.byte	0x1
 4356 06dc A301     		.2byte	0x1a3
 4357 06de 85000000 		.4byte	0x85
 4358 06e2 6F040000 		.4byte	.LLST31
 4359 06e6 21       		.uleb128 0x21
 4360 06e7 CE020000 		.4byte	.LASF82
 4361 06eb 01       		.byte	0x1
 4362 06ec A701     		.2byte	0x1a7
 4363 06ee 25000000 		.4byte	0x25
 4364 06f2 02       		.uleb128 0x2
 4365 06f3 90       		.byte	0x90
 4366 06f4 4E       		.uleb128 0x4e
 4367 06f5 1F       		.uleb128 0x1f
 4368 06f6 0C000000 		.4byte	.LBB32
 4369 06fa 0C000000 		.4byte	.LBE32-.LBB32
 4370 06fe 11070000 		.4byte	0x711
 4371 0702 15       		.uleb128 0x15
 4372 0703 6900     		.ascii	"i\000"
 4373 0705 01       		.byte	0x1
 4374 0706 A401     		.2byte	0x1a4
 4375 0708 85000000 		.4byte	0x85
 4376 070c 8E040000 		.4byte	.LLST32
 4377 0710 00       		.byte	0
 4378 0711 1F       		.uleb128 0x1f
 4379 0712 3A000000 		.4byte	.LBB33
 4380 0716 18000000 		.4byte	.LBE33-.LBB33
 4381 071a 2D070000 		.4byte	0x72d
 4382 071e 15       		.uleb128 0x15
 4383 071f 6900     		.ascii	"i\000"
 4384 0721 01       		.byte	0x1
 4385 0722 A901     		.2byte	0x1a9
 4386 0724 85000000 		.4byte	0x85
 4387 0728 A2040000 		.4byte	.LLST33
 4388 072c 00       		.byte	0
 4389 072d 22       		.uleb128 0x22
 4390 072e 28000000 		.4byte	.LVL71
 4391 0732 CE250000 		.4byte	0x25ce
 4392 0736 00       		.byte	0
 4393 0737 0C       		.uleb128 0xc
 4394 0738 E7050000 		.4byte	.LASF84
 4395 073c 02       		.byte	0x2
 4396 073d 4C       		.byte	0x4c
 4397 073e 25000000 		.4byte	0x25
 4398 0742 03       		.byte	0x3
 4399 0743 EB070000 		.4byte	0x7eb
 4400 0747 0D       		.uleb128 0xd
 4401 0748 7800     		.ascii	"x\000"
 4402 074a 02       		.byte	0x2
 4403 074b 4C       		.byte	0x4c
ARM GAS  C:\Users\rdn\AppData\Local\Temp\cc92LAgm.s 			page 107


 4404 074c 25000000 		.4byte	0x25
 4405 0750 23       		.uleb128 0x23
 4406 0751 6500     		.ascii	"e\000"
 4407 0753 02       		.byte	0x2
 4408 0754 50       		.byte	0x50
 4409 0755 FB070000 		.4byte	0x7fb
 4410 0759 20       		.byte	0x20
 4411 075a 00       		.byte	0
 4412 075b 00       		.byte	0
 4413 075c 80       		.byte	0x80
 4414 075d 3F       		.byte	0x3f
 4415 075e C2       		.byte	0xc2
 4416 075f 95       		.byte	0x95
 4417 0760 8B       		.byte	0x8b
 4418 0761 3F       		.byte	0x3f
 4419 0762 F0       		.byte	0xf0
 4420 0763 37       		.byte	0x37
 4421 0764 98       		.byte	0x98
 4422 0765 3F       		.byte	0x3f
 4423 0766 D7       		.byte	0xd7
 4424 0767 FE       		.byte	0xfe
 4425 0768 A5       		.byte	0xa5
 4426 0769 3F       		.byte	0x3f
 4427 076a F3       		.byte	0xf3
 4428 076b 04       		.byte	0x4
 4429 076c B5       		.byte	0xb5
 4430 076d 3F       		.byte	0x3f
 4431 076e 2A       		.byte	0x2a
 4432 076f 67       		.byte	0x67
 4433 0770 C5       		.byte	0xc5
 4434 0771 3F       		.byte	0x3f
 4435 0772 FD       		.byte	0xfd
 4436 0773 44       		.byte	0x44
 4437 0774 D7       		.byte	0xd7
 4438 0775 3F       		.byte	0x3f
 4439 0776 C7       		.byte	0xc7
 4440 0777 C0       		.byte	0xc0
 4441 0778 EA       		.byte	0xea
 4442 0779 3F       		.byte	0x3f
 4443 077a 23       		.uleb128 0x23
 4444 077b 7000     		.ascii	"p\000"
 4445 077d 02       		.byte	0x2
 4446 077e 56       		.byte	0x56
 4447 077f 10080000 		.4byte	0x810
 4448 0783 10       		.byte	0x10
 4449 0784 00       		.byte	0
 4450 0785 93       		.byte	0x93
 4451 0786 24       		.byte	0x24
 4452 0787 3C       		.byte	0x3c
 4453 0788 2C       		.byte	0x2c
 4454 0789 26       		.byte	0x26
 4455 078a 63       		.byte	0x63
 4456 078b 3D       		.byte	0x3d
 4457 078c 87       		.byte	0x87
 4458 078d FE       		.byte	0xfe
 4459 078e 75       		.byte	0x75
 4460 078f 3E       		.byte	0x3e
ARM GAS  C:\Users\rdn\AppData\Local\Temp\cc92LAgm.s 			page 108


 4461 0790 17       		.byte	0x17
 4462 0791 72       		.byte	0x72
 4463 0792 31       		.byte	0x31
 4464 0793 3F       		.byte	0x3f
 4465 0794 24       		.uleb128 0x24
 4466 0795 04       		.byte	0x4
 4467 0796 02       		.byte	0x2
 4468 0797 60       		.byte	0x60
 4469 0798 AF070000 		.4byte	0x7af
 4470 079c 25       		.uleb128 0x25
 4471 079d 6600     		.ascii	"f\000"
 4472 079f 02       		.byte	0x2
 4473 07a0 60       		.byte	0x60
 4474 07a1 25000000 		.4byte	0x25
 4475 07a5 25       		.uleb128 0x25
 4476 07a6 7300     		.ascii	"s\000"
 4477 07a8 02       		.byte	0x2
 4478 07a9 60       		.byte	0x60
 4479 07aa 9E000000 		.4byte	0x9e
 4480 07ae 00       		.byte	0
 4481 07af 19       		.uleb128 0x19
 4482 07b0 7600     		.ascii	"v\000"
 4483 07b2 02       		.byte	0x2
 4484 07b3 60       		.byte	0x60
 4485 07b4 B8070000 		.4byte	0x7b8
 4486 07b8 26       		.uleb128 0x26
 4487 07b9 94070000 		.4byte	0x794
 4488 07bd 19       		.uleb128 0x19
 4489 07be 6B00     		.ascii	"k\000"
 4490 07c0 02       		.byte	0x2
 4491 07c1 63       		.byte	0x63
 4492 07c2 85000000 		.4byte	0x85
 4493 07c6 24       		.uleb128 0x24
 4494 07c7 04       		.byte	0x4
 4495 07c8 02       		.byte	0x2
 4496 07c9 6A       		.byte	0x6a
 4497 07ca E1070000 		.4byte	0x7e1
 4498 07ce 25       		.uleb128 0x25
 4499 07cf 6600     		.ascii	"f\000"
 4500 07d1 02       		.byte	0x2
 4501 07d2 6A       		.byte	0x6a
 4502 07d3 25000000 		.4byte	0x25
 4503 07d7 25       		.uleb128 0x25
 4504 07d8 7300     		.ascii	"s\000"
 4505 07da 02       		.byte	0x2
 4506 07db 6A       		.byte	0x6a
 4507 07dc 9E000000 		.4byte	0x9e
 4508 07e0 00       		.byte	0
 4509 07e1 19       		.uleb128 0x19
 4510 07e2 7900     		.ascii	"y\000"
 4511 07e4 02       		.byte	0x2
 4512 07e5 6A       		.byte	0x6a
 4513 07e6 C6070000 		.4byte	0x7c6
 4514 07ea 00       		.byte	0
 4515 07eb 27       		.uleb128 0x27
 4516 07ec 1C030000 		.4byte	0x31c
 4517 07f0 FB070000 		.4byte	0x7fb
ARM GAS  C:\Users\rdn\AppData\Local\Temp\cc92LAgm.s 			page 109


 4518 07f4 28       		.uleb128 0x28
 4519 07f5 2B010000 		.4byte	0x12b
 4520 07f9 07       		.byte	0x7
 4521 07fa 00       		.byte	0
 4522 07fb 0B       		.uleb128 0xb
 4523 07fc EB070000 		.4byte	0x7eb
 4524 0800 27       		.uleb128 0x27
 4525 0801 1C030000 		.4byte	0x31c
 4526 0805 10080000 		.4byte	0x810
 4527 0809 28       		.uleb128 0x28
 4528 080a 2B010000 		.4byte	0x12b
 4529 080e 03       		.byte	0x3
 4530 080f 00       		.byte	0
 4531 0810 0B       		.uleb128 0xb
 4532 0811 00080000 		.4byte	0x800
 4533 0815 0E       		.uleb128 0xe
 4534 0816 E3010000 		.4byte	.LASF85
 4535 081a 01       		.byte	0x1
 4536 081b D102     		.2byte	0x2d1
 4537 081d 00000000 		.4byte	.LFB32
 4538 0821 30020000 		.4byte	.LFE32-.LFB32
 4539 0825 01       		.uleb128 0x1
 4540 0826 9C       		.byte	0x9c
 4541 0827 D0090000 		.4byte	0x9d0
 4542 082b 1A       		.uleb128 0x1a
 4543 082c 647400   		.ascii	"dt\000"
 4544 082f 01       		.byte	0x1
 4545 0830 D102     		.2byte	0x2d1
 4546 0832 B4000000 		.4byte	0xb4
 4547 0836 B6040000 		.4byte	.LLST34
 4548 083a 1A       		.uleb128 0x1a
 4549 083b 737200   		.ascii	"sr\000"
 4550 083e 01       		.byte	0x1
 4551 083f D102     		.2byte	0x2d1
 4552 0841 E3000000 		.4byte	0xe3
 4553 0845 D7040000 		.4byte	.LLST35
 4554 0849 10       		.uleb128 0x10
 4555 084a 9E040000 		.4byte	.LASF86
 4556 084e 01       		.byte	0x1
 4557 084f D202     		.2byte	0x2d2
 4558 0851 16030000 		.4byte	0x316
 4559 0855 F8040000 		.4byte	.LLST36
 4560 0859 1A       		.uleb128 0x1a
 4561 085a 696E7600 		.ascii	"inv\000"
 4562 085e 01       		.byte	0x1
 4563 085f D202     		.2byte	0x2d2
 4564 0861 24010000 		.4byte	0x124
 4565 0865 26050000 		.4byte	.LLST37
 4566 0869 1A       		.uleb128 0x1a
 4567 086a 7800     		.ascii	"x\000"
 4568 086c 01       		.byte	0x1
 4569 086d D202     		.2byte	0x2d2
 4570 086f 16030000 		.4byte	0x316
 4571 0873 47050000 		.4byte	.LLST38
 4572 0877 1A       		.uleb128 0x1a
 4573 0878 7900     		.ascii	"y\000"
 4574 087a 01       		.byte	0x1
ARM GAS  C:\Users\rdn\AppData\Local\Temp\cc92LAgm.s 			page 110


 4575 087b D202     		.2byte	0x2d2
 4576 087d 3D040000 		.4byte	0x43d
 4577 0881 67050000 		.4byte	.LLST39
 4578 0885 13       		.uleb128 0x13
 4579 0886 73636600 		.ascii	"scf\000"
 4580 088a 01       		.byte	0x1
 4581 088b D602     		.2byte	0x2d6
 4582 088d D0090000 		.4byte	0x9d0
 4583 0891 03       		.uleb128 0x3
 4584 0892 91       		.byte	0x91
 4585 0893 E07D     		.sleb128 -288
 4586 0895 15       		.uleb128 0x15
 4587 0896 733000   		.ascii	"s0\000"
 4588 0899 01       		.byte	0x1
 4589 089a D702     		.2byte	0x2d7
 4590 089c 25000000 		.4byte	0x25
 4591 08a0 87050000 		.4byte	.LLST40
 4592 08a4 15       		.uleb128 0x15
 4593 08a5 733100   		.ascii	"s1\000"
 4594 08a8 01       		.byte	0x1
 4595 08a9 D702     		.2byte	0x2d7
 4596 08ab 25000000 		.4byte	0x25
 4597 08af 9B050000 		.4byte	.LLST41
 4598 08b3 15       		.uleb128 0x15
 4599 08b4 6E6200   		.ascii	"nb\000"
 4600 08b7 01       		.byte	0x1
 4601 08b8 E402     		.2byte	0x2e4
 4602 08ba 85000000 		.4byte	0x85
 4603 08be AF050000 		.4byte	.LLST42
 4604 08c2 15       		.uleb128 0x15
 4605 08c3 6E3400   		.ascii	"n4\000"
 4606 08c6 01       		.byte	0x1
 4607 08c7 E502     		.2byte	0x2e5
 4608 08c9 85000000 		.4byte	0x85
 4609 08cd C2050000 		.4byte	.LLST43
 4610 08d1 15       		.uleb128 0x15
 4611 08d2 6E3200   		.ascii	"n2\000"
 4612 08d5 01       		.byte	0x1
 4613 08d6 E602     		.2byte	0x2e6
 4614 08d8 85000000 		.4byte	0x85
 4615 08dc E1050000 		.4byte	.LLST44
 4616 08e0 20       		.uleb128 0x20
 4617 08e1 6C696D00 		.ascii	"lim\000"
 4618 08e5 01       		.byte	0x1
 4619 08e6 F302     		.2byte	0x2f3
 4620 08e8 FA050000 		.4byte	0x5fa
 4621 08ec 1F       		.uleb128 0x1f
 4622 08ed 2A000000 		.4byte	.LBB41
 4623 08f1 5A000000 		.4byte	.LBE41-.LBB41
 4624 08f5 08090000 		.4byte	0x908
 4625 08f9 15       		.uleb128 0x15
 4626 08fa 6900     		.ascii	"i\000"
 4627 08fc 01       		.byte	0x1
 4628 08fd DA02     		.2byte	0x2da
 4629 08ff 85000000 		.4byte	0x85
 4630 0903 FF050000 		.4byte	.LLST45
 4631 0907 00       		.byte	0
ARM GAS  C:\Users\rdn\AppData\Local\Temp\cc92LAgm.s 			page 111


 4632 0908 1F       		.uleb128 0x1f
 4633 0909 C0000000 		.4byte	.LBB42
 4634 090d 34000000 		.4byte	.LBE42-.LBB42
 4635 0911 25090000 		.4byte	0x925
 4636 0915 15       		.uleb128 0x15
 4637 0916 693400   		.ascii	"i4\000"
 4638 0919 01       		.byte	0x1
 4639 091a E802     		.2byte	0x2e8
 4640 091c 85000000 		.4byte	0x85
 4641 0920 13060000 		.4byte	.LLST46
 4642 0924 00       		.byte	0
 4643 0925 1F       		.uleb128 0x1f
 4644 0926 0A010000 		.4byte	.LBB43
 4645 092a 28000000 		.4byte	.LBE43-.LBB43
 4646 092e 42090000 		.4byte	0x942
 4647 0932 15       		.uleb128 0x15
 4648 0933 693200   		.ascii	"i2\000"
 4649 0936 01       		.byte	0x1
 4650 0937 EC02     		.2byte	0x2ec
 4651 0939 85000000 		.4byte	0x85
 4652 093d 33060000 		.4byte	.LLST47
 4653 0941 00       		.byte	0
 4654 0942 1F       		.uleb128 0x1f
 4655 0943 56010000 		.4byte	.LBB44
 4656 0947 B2000000 		.4byte	.LBE44-.LBB44
 4657 094b C6090000 		.4byte	0x9c6
 4658 094f 15       		.uleb128 0x15
 4659 0950 6900     		.ascii	"i\000"
 4660 0952 01       		.byte	0x1
 4661 0953 F502     		.2byte	0x2f5
 4662 0955 85000000 		.4byte	0x85
 4663 0959 46060000 		.4byte	.LLST48
 4664 095d 15       		.uleb128 0x15
 4665 095e 696200   		.ascii	"ib\000"
 4666 0961 01       		.byte	0x1
 4667 0962 F502     		.2byte	0x2f5
 4668 0964 85000000 		.4byte	0x85
 4669 0968 65060000 		.4byte	.LLST49
 4670 096c 12       		.uleb128 0x12
 4671 096d 50000000 		.4byte	.Ldebug_ranges0+0x50
 4672 0971 29       		.uleb128 0x29
 4673 0972 16060000 		.4byte	.LASF87
 4674 0976 01       		.byte	0x1
 4675 0977 F602     		.2byte	0x2f6
 4676 0979 25000000 		.4byte	0x25
 4677 097d 2A       		.uleb128 0x2a
 4678 097e 37070000 		.4byte	0x737
 4679 0982 56010000 		.4byte	.LBB46
 4680 0986 70000000 		.4byte	.Ldebug_ranges0+0x70
 4681 098a 01       		.byte	0x1
 4682 098b F602     		.2byte	0x2f6
 4683 098d 1C       		.uleb128 0x1c
 4684 098e 47070000 		.4byte	0x747
 4685 0992 84060000 		.4byte	.LLST50
 4686 0996 12       		.uleb128 0x12
 4687 0997 70000000 		.4byte	.Ldebug_ranges0+0x70
 4688 099b 2B       		.uleb128 0x2b
ARM GAS  C:\Users\rdn\AppData\Local\Temp\cc92LAgm.s 			page 112


 4689 099c AF070000 		.4byte	0x7af
 4690 09a0 03       		.uleb128 0x3
 4691 09a1 91       		.byte	0x91
 4692 09a2 DC7D     		.sleb128 -292
 4693 09a4 1E       		.uleb128 0x1e
 4694 09a5 BD070000 		.4byte	0x7bd
 4695 09a9 A7060000 		.4byte	.LLST51
 4696 09ad 2C       		.uleb128 0x2c
 4697 09ae E1070000 		.4byte	0x7e1
 4698 09b2 2B       		.uleb128 0x2b
 4699 09b3 50070000 		.4byte	0x750
 4700 09b7 05       		.uleb128 0x5
 4701 09b8 03       		.byte	0x3
 4702 09b9 00040000 		.4byte	e.5111
 4703 09bd 2C       		.uleb128 0x2c
 4704 09be 7A070000 		.4byte	0x77a
 4705 09c2 00       		.byte	0
 4706 09c3 00       		.byte	0
 4707 09c4 00       		.byte	0
 4708 09c5 00       		.byte	0
 4709 09c6 22       		.uleb128 0x22
 4710 09c7 52010000 		.4byte	.LVL98
 4711 09cb DA250000 		.4byte	0x25da
 4712 09cf 00       		.byte	0
 4713 09d0 27       		.uleb128 0x27
 4714 09d1 25000000 		.4byte	0x25
 4715 09d5 E0090000 		.4byte	0x9e0
 4716 09d9 28       		.uleb128 0x28
 4717 09da 2B010000 		.4byte	0x12b
 4718 09de 3F       		.byte	0x3f
 4719 09df 00       		.byte	0
 4720 09e0 2D       		.uleb128 0x2d
 4721 09e1 2D020000 		.4byte	.LASF88
 4722 09e5 03       		.byte	0x3
 4723 09e6 DA       		.byte	0xda
 4724 09e7 00000000 		.4byte	.LFB8
 4725 09eb 20000000 		.4byte	.LFE8-.LFB8
 4726 09ef 01       		.uleb128 0x1
 4727 09f0 9C       		.byte	0x9c
 4728 09f1 370A0000 		.4byte	0xa37
 4729 09f5 2E       		.uleb128 0x2e
 4730 09f6 84030000 		.4byte	.LASF89
 4731 09fa 03       		.byte	0x3
 4732 09fb DB       		.byte	0xdb
 4733 09fc 370A0000 		.4byte	0xa37
 4734 0a00 BA060000 		.4byte	.LLST52
 4735 0a04 2F       		.uleb128 0x2f
 4736 0a05 7600     		.ascii	"v\000"
 4737 0a07 03       		.byte	0x3
 4738 0a08 DB       		.byte	0xdb
 4739 0a09 8C000000 		.4byte	0x8c
 4740 0a0d DB060000 		.4byte	.LLST53
 4741 0a11 2F       		.uleb128 0x2f
 4742 0a12 6E00     		.ascii	"n\000"
 4743 0a14 03       		.byte	0x3
 4744 0a15 DB       		.byte	0xdb
 4745 0a16 85000000 		.4byte	0x85
ARM GAS  C:\Users\rdn\AppData\Local\Temp\cc92LAgm.s 			page 113


 4746 0a1a FC060000 		.4byte	.LLST54
 4747 0a1e 30       		.uleb128 0x30
 4748 0a1f DC020000 		.4byte	.LASF53
 4749 0a23 03       		.byte	0x3
 4750 0a24 DD       		.byte	0xdd
 4751 0a25 3D0A0000 		.4byte	0xa3d
 4752 0a29 36070000 		.4byte	.LLST55
 4753 0a2d 31       		.uleb128 0x31
 4754 0a2e 20000000 		.4byte	.LVL115
 4755 0a32 E5250000 		.4byte	0x25e5
 4756 0a36 00       		.byte	0
 4757 0a37 0A       		.uleb128 0xa
 4758 0a38 04       		.byte	0x4
 4759 0a39 34020000 		.4byte	0x234
 4760 0a3d 0A       		.uleb128 0xa
 4761 0a3e 04       		.byte	0x4
 4762 0a3f 64010000 		.4byte	0x164
 4763 0a43 32       		.uleb128 0x32
 4764 0a44 A2000000 		.4byte	.LASF155
 4765 0a48 03       		.byte	0x3
 4766 0a49 F2       		.byte	0xf2
 4767 0a4a 8C000000 		.4byte	0x8c
 4768 0a4e 00000000 		.4byte	.LFB10
 4769 0a52 26000000 		.4byte	.LFE10-.LFB10
 4770 0a56 01       		.uleb128 0x1
 4771 0a57 9C       		.byte	0x9c
 4772 0a58 B90A0000 		.4byte	0xab9
 4773 0a5c 2E       		.uleb128 0x2e
 4774 0a5d 84030000 		.4byte	.LASF89
 4775 0a61 03       		.byte	0x3
 4776 0a62 F2       		.byte	0xf2
 4777 0a63 370A0000 		.4byte	0xa37
 4778 0a67 5B070000 		.4byte	.LLST56
 4779 0a6b 2F       		.uleb128 0x2f
 4780 0a6c 6E00     		.ascii	"n\000"
 4781 0a6e 03       		.byte	0x3
 4782 0a6f F2       		.byte	0xf2
 4783 0a70 85000000 		.4byte	0x85
 4784 0a74 92070000 		.4byte	.LLST57
 4785 0a78 30       		.uleb128 0x30
 4786 0a79 DC020000 		.4byte	.LASF53
 4787 0a7d 03       		.byte	0x3
 4788 0a7e F4       		.byte	0xf4
 4789 0a7f 3D0A0000 		.4byte	0xa3d
 4790 0a83 D7070000 		.4byte	.LLST58
 4791 0a87 1F       		.uleb128 0x1f
 4792 0a88 14000000 		.4byte	.LBB54
 4793 0a8c 0E000000 		.4byte	.LBE54-.LBB54
 4794 0a90 A00A0000 		.4byte	0xaa0
 4795 0a94 33       		.uleb128 0x33
 4796 0a95 7600     		.ascii	"v\000"
 4797 0a97 03       		.byte	0x3
 4798 0a98 F7       		.byte	0xf7
 4799 0a99 85000000 		.4byte	0x85
 4800 0a9d 01       		.uleb128 0x1
 4801 0a9e 50       		.byte	0x50
 4802 0a9f 00       		.byte	0
ARM GAS  C:\Users\rdn\AppData\Local\Temp\cc92LAgm.s 			page 114


 4803 0aa0 34       		.uleb128 0x34
 4804 0aa1 14000000 		.4byte	.LVL117
 4805 0aa5 F0250000 		.4byte	0x25f0
 4806 0aa9 35       		.uleb128 0x35
 4807 0aaa 01       		.uleb128 0x1
 4808 0aab 50       		.byte	0x50
 4809 0aac 03       		.uleb128 0x3
 4810 0aad F3       		.byte	0xf3
 4811 0aae 01       		.uleb128 0x1
 4812 0aaf 50       		.byte	0x50
 4813 0ab0 35       		.uleb128 0x35
 4814 0ab1 01       		.uleb128 0x1
 4815 0ab2 51       		.byte	0x51
 4816 0ab3 03       		.uleb128 0x3
 4817 0ab4 F3       		.byte	0xf3
 4818 0ab5 01       		.uleb128 0x1
 4819 0ab6 51       		.byte	0x51
 4820 0ab7 00       		.byte	0
 4821 0ab8 00       		.byte	0
 4822 0ab9 36       		.uleb128 0x36
 4823 0aba F3060000 		.4byte	.LASF91
 4824 0abe 01       		.byte	0x1
 4825 0abf A502     		.2byte	0x2a5
 4826 0ac1 01       		.byte	0x1
 4827 0ac2 0D0B0000 		.4byte	0xb0d
 4828 0ac6 37       		.uleb128 0x37
 4829 0ac7 AD040000 		.4byte	.LASF59
 4830 0acb 01       		.byte	0x1
 4831 0acc A502     		.2byte	0x2a5
 4832 0ace 85000000 		.4byte	0x85
 4833 0ad2 38       		.uleb128 0x38
 4834 0ad3 6300     		.ascii	"c\000"
 4835 0ad5 01       		.byte	0x1
 4836 0ad6 A502     		.2byte	0x2a5
 4837 0ad8 FA050000 		.4byte	0x5fa
 4838 0adc 37       		.uleb128 0x37
 4839 0add 26070000 		.4byte	.LASF61
 4840 0ae1 01       		.byte	0x1
 4841 0ae2 A602     		.2byte	0x2a6
 4842 0ae4 37040000 		.4byte	0x437
 4843 0ae8 37       		.uleb128 0x37
 4844 0ae9 29060000 		.4byte	.LASF63
 4845 0aed 01       		.byte	0x1
 4846 0aee A602     		.2byte	0x2a6
 4847 0af0 05060000 		.4byte	0x605
 4848 0af4 37       		.uleb128 0x37
 4849 0af5 2C070000 		.4byte	.LASF62
 4850 0af9 01       		.byte	0x1
 4851 0afa A602     		.2byte	0x2a6
 4852 0afc 37040000 		.4byte	0x437
 4853 0b00 37       		.uleb128 0x37
 4854 0b01 2E060000 		.4byte	.LASF64
 4855 0b05 01       		.byte	0x1
 4856 0b06 A602     		.2byte	0x2a6
 4857 0b08 05060000 		.4byte	0x605
 4858 0b0c 00       		.byte	0
 4859 0b0d 36       		.uleb128 0x36
ARM GAS  C:\Users\rdn\AppData\Local\Temp\cc92LAgm.s 			page 115


 4860 0b0e AF050000 		.4byte	.LASF92
 4861 0b12 01       		.byte	0x1
 4862 0b13 D001     		.2byte	0x1d0
 4863 0b15 01       		.byte	0x1
 4864 0b16 BB0C0000 		.4byte	0xcbb
 4865 0b1a 38       		.uleb128 0x38
 4866 0b1b 73636600 		.ascii	"scf\000"
 4867 0b1f 01       		.byte	0x1
 4868 0b20 D001     		.2byte	0x1d0
 4869 0b22 16030000 		.4byte	0x316
 4870 0b26 37       		.uleb128 0x37
 4871 0b27 F4020000 		.4byte	.LASF75
 4872 0b2b 01       		.byte	0x1
 4873 0b2c D001     		.2byte	0x1d0
 4874 0b2e 85000000 		.4byte	0x85
 4875 0b32 37       		.uleb128 0x37
 4876 0b33 18000000 		.4byte	.LASF76
 4877 0b37 01       		.byte	0x1
 4878 0b38 D001     		.2byte	0x1d0
 4879 0b3a 85000000 		.4byte	0x85
 4880 0b3e 38       		.uleb128 0x38
 4881 0b3f 6300     		.ascii	"c\000"
 4882 0b41 01       		.byte	0x1
 4883 0b42 D101     		.2byte	0x1d1
 4884 0b44 CB0C0000 		.4byte	0xccb
 4885 0b48 38       		.uleb128 0x38
 4886 0b49 636E00   		.ascii	"cn\000"
 4887 0b4c 01       		.byte	0x1
 4888 0b4d D101     		.2byte	0x1d1
 4889 0b4f E10C0000 		.4byte	0xce1
 4890 0b53 37       		.uleb128 0x37
 4891 0b54 1D040000 		.4byte	.LASF93
 4892 0b58 01       		.byte	0x1
 4893 0b59 D101     		.2byte	0x1d1
 4894 0b5b 37040000 		.4byte	0x437
 4895 0b5f 37       		.uleb128 0x37
 4896 0b60 82050000 		.4byte	.LASF94
 4897 0b64 01       		.byte	0x1
 4898 0b65 D101     		.2byte	0x1d1
 4899 0b67 37040000 		.4byte	0x437
 4900 0b6b 29       		.uleb128 0x29
 4901 0b6c B7060000 		.4byte	.LASF57
 4902 0b70 01       		.byte	0x1
 4903 0b71 D501     		.2byte	0x1d5
 4904 0b73 16030000 		.4byte	0x316
 4905 0b77 29       		.uleb128 0x29
 4906 0b78 0C040000 		.4byte	.LASF58
 4907 0b7c 01       		.byte	0x1
 4908 0b7d D601     		.2byte	0x1d6
 4909 0b7f 16030000 		.4byte	0x316
 4910 0b83 20       		.uleb128 0x20
 4911 0b84 7200     		.ascii	"r\000"
 4912 0b86 01       		.byte	0x1
 4913 0b87 D701     		.2byte	0x1d7
 4914 0b89 D10C0000 		.4byte	0xcd1
 4915 0b8d 20       		.uleb128 0x20
 4916 0b8e 7800     		.ascii	"x\000"
ARM GAS  C:\Users\rdn\AppData\Local\Temp\cc92LAgm.s 			page 116


 4917 0b90 01       		.byte	0x1
 4918 0b91 D701     		.2byte	0x1d7
 4919 0b93 D10C0000 		.4byte	0xcd1
 4920 0b97 20       		.uleb128 0x20
 4921 0b98 786D00   		.ascii	"xm\000"
 4922 0b9b 01       		.byte	0x1
 4923 0b9c E401     		.2byte	0x1e4
 4924 0b9e D10C0000 		.4byte	0xcd1
 4925 0ba2 29       		.uleb128 0x29
 4926 0ba3 42020000 		.4byte	.LASF95
 4927 0ba7 01       		.byte	0x1
 4928 0ba8 E501     		.2byte	0x1e5
 4929 0baa 25000000 		.4byte	0x25
 4930 0bae 29       		.uleb128 0x29
 4931 0baf 20010000 		.4byte	.LASF96
 4932 0bb3 01       		.byte	0x1
 4933 0bb4 EC01     		.2byte	0x1ec
 4934 0bb6 25000000 		.4byte	0x25
 4935 0bba 29       		.uleb128 0x29
 4936 0bbb 28020000 		.4byte	.LASF68
 4937 0bbf 01       		.byte	0x1
 4938 0bc0 ED01     		.2byte	0x1ed
 4939 0bc2 25000000 		.4byte	0x25
 4940 0bc6 29       		.uleb128 0x29
 4941 0bc7 27040000 		.4byte	.LASF69
 4942 0bcb 01       		.byte	0x1
 4943 0bcc ED01     		.2byte	0x1ed
 4944 0bce 25000000 		.4byte	0x25
 4945 0bd2 29       		.uleb128 0x29
 4946 0bd3 97030000 		.4byte	.LASF79
 4947 0bd7 01       		.byte	0x1
 4948 0bd8 EE01     		.2byte	0x1ee
 4949 0bda 85000000 		.4byte	0x85
 4950 0bde 29       		.uleb128 0x29
 4951 0bdf BD040000 		.4byte	.LASF97
 4952 0be3 01       		.byte	0x1
 4953 0be4 2602     		.2byte	0x226
 4954 0be6 25000000 		.4byte	0x25
 4955 0bea 39       		.uleb128 0x39
 4956 0beb FA0B0000 		.4byte	0xbfa
 4957 0bef 20       		.uleb128 0x20
 4958 0bf0 6900     		.ascii	"i\000"
 4959 0bf2 01       		.byte	0x1
 4960 0bf3 D901     		.2byte	0x1d9
 4961 0bf5 85000000 		.4byte	0x85
 4962 0bf9 00       		.byte	0
 4963 0bfa 39       		.uleb128 0x39
 4964 0bfb 0A0C0000 		.4byte	0xc0a
 4965 0bff 20       		.uleb128 0x20
 4966 0c00 6900     		.ascii	"i\000"
 4967 0c02 01       		.byte	0x1
 4968 0c03 E701     		.2byte	0x1e7
 4969 0c05 85000000 		.4byte	0x85
 4970 0c09 00       		.byte	0
 4971 0c0a 39       		.uleb128 0x39
 4972 0c0b 1A0C0000 		.4byte	0xc1a
 4973 0c0f 20       		.uleb128 0x20
ARM GAS  C:\Users\rdn\AppData\Local\Temp\cc92LAgm.s 			page 117


 4974 0c10 6900     		.ascii	"i\000"
 4975 0c12 01       		.byte	0x1
 4976 0c13 F001     		.2byte	0x1f0
 4977 0c15 85000000 		.4byte	0x85
 4978 0c19 00       		.byte	0
 4979 0c1a 39       		.uleb128 0x39
 4980 0c1b 2A0C0000 		.4byte	0xc2a
 4981 0c1f 20       		.uleb128 0x20
 4982 0c20 6900     		.ascii	"i\000"
 4983 0c22 01       		.byte	0x1
 4984 0c23 0902     		.2byte	0x209
 4985 0c25 85000000 		.4byte	0x85
 4986 0c29 00       		.byte	0
 4987 0c2a 39       		.uleb128 0x39
 4988 0c2b 460C0000 		.4byte	0xc46
 4989 0c2f 20       		.uleb128 0x20
 4990 0c30 6A00     		.ascii	"j\000"
 4991 0c32 01       		.byte	0x1
 4992 0c33 1C02     		.2byte	0x21c
 4993 0c35 85000000 		.4byte	0x85
 4994 0c39 18       		.uleb128 0x18
 4995 0c3a 20       		.uleb128 0x20
 4996 0c3b 6900     		.ascii	"i\000"
 4997 0c3d 01       		.byte	0x1
 4998 0c3e 1D02     		.2byte	0x21d
 4999 0c40 85000000 		.4byte	0x85
 5000 0c44 00       		.byte	0
 5001 0c45 00       		.byte	0
 5002 0c46 39       		.uleb128 0x39
 5003 0c47 560C0000 		.4byte	0xc56
 5004 0c4b 20       		.uleb128 0x20
 5005 0c4c 6900     		.ascii	"i\000"
 5006 0c4e 01       		.byte	0x1
 5007 0c4f 2002     		.2byte	0x220
 5008 0c51 85000000 		.4byte	0x85
 5009 0c55 00       		.byte	0
 5010 0c56 18       		.uleb128 0x18
 5011 0c57 20       		.uleb128 0x20
 5012 0c58 696300   		.ascii	"ic\000"
 5013 0c5b 01       		.byte	0x1
 5014 0c5c 2902     		.2byte	0x229
 5015 0c5e 85000000 		.4byte	0x85
 5016 0c62 18       		.uleb128 0x18
 5017 0c63 29       		.uleb128 0x29
 5018 0c64 7D030000 		.4byte	.LASF98
 5019 0c68 01       		.byte	0x1
 5020 0c69 2A02     		.2byte	0x22a
 5021 0c6b E70C0000 		.4byte	0xce7
 5022 0c6f 29       		.uleb128 0x29
 5023 0c70 72040000 		.4byte	.LASF99
 5024 0c74 01       		.byte	0x1
 5025 0c75 2B02     		.2byte	0x22b
 5026 0c77 25000000 		.4byte	0x25
 5027 0c7b 29       		.uleb128 0x29
 5028 0c7c C1010000 		.4byte	.LASF100
 5029 0c80 01       		.byte	0x1
 5030 0c81 2C02     		.2byte	0x22c
ARM GAS  C:\Users\rdn\AppData\Local\Temp\cc92LAgm.s 			page 118


 5031 0c83 85000000 		.4byte	0x85
 5032 0c87 18       		.uleb128 0x18
 5033 0c88 20       		.uleb128 0x20
 5034 0c89 696700   		.ascii	"ig\000"
 5035 0c8c 01       		.byte	0x1
 5036 0c8d 2E02     		.2byte	0x22e
 5037 0c8f 85000000 		.4byte	0x85
 5038 0c93 18       		.uleb128 0x18
 5039 0c94 20       		.uleb128 0x20
 5040 0c95 6700     		.ascii	"g\000"
 5041 0c97 01       		.byte	0x1
 5042 0c98 2F02     		.2byte	0x22f
 5043 0c9a 25000000 		.4byte	0x25
 5044 0c9e 20       		.uleb128 0x20
 5045 0c9f 6D736500 		.ascii	"mse\000"
 5046 0ca3 01       		.byte	0x1
 5047 0ca4 3102     		.2byte	0x231
 5048 0ca6 25000000 		.4byte	0x25
 5049 0caa 18       		.uleb128 0x18
 5050 0cab 20       		.uleb128 0x20
 5051 0cac 6900     		.ascii	"i\000"
 5052 0cae 01       		.byte	0x1
 5053 0caf 3202     		.2byte	0x232
 5054 0cb1 85000000 		.4byte	0x85
 5055 0cb5 00       		.byte	0
 5056 0cb6 00       		.byte	0
 5057 0cb7 00       		.byte	0
 5058 0cb8 00       		.byte	0
 5059 0cb9 00       		.byte	0
 5060 0cba 00       		.byte	0
 5061 0cbb 27       		.uleb128 0x27
 5062 0cbc 85000000 		.4byte	0x85
 5063 0cc0 CB0C0000 		.4byte	0xccb
 5064 0cc4 28       		.uleb128 0x28
 5065 0cc5 2B010000 		.4byte	0x12b
 5066 0cc9 0F       		.byte	0xf
 5067 0cca 00       		.byte	0
 5068 0ccb 0A       		.uleb128 0xa
 5069 0ccc 04       		.byte	0x4
 5070 0ccd BB0C0000 		.4byte	0xcbb
 5071 0cd1 27       		.uleb128 0x27
 5072 0cd2 25000000 		.4byte	0x25
 5073 0cd6 E10C0000 		.4byte	0xce1
 5074 0cda 28       		.uleb128 0x28
 5075 0cdb 2B010000 		.4byte	0x12b
 5076 0cdf 0F       		.byte	0xf
 5077 0ce0 00       		.byte	0
 5078 0ce1 0A       		.uleb128 0xa
 5079 0ce2 04       		.byte	0x4
 5080 0ce3 D10C0000 		.4byte	0xcd1
 5081 0ce7 0A       		.uleb128 0xa
 5082 0ce8 04       		.byte	0x4
 5083 0ce9 ED0C0000 		.4byte	0xced
 5084 0ced 0B       		.uleb128 0xb
 5085 0cee F3020000 		.4byte	0x2f3
 5086 0cf2 36       		.uleb128 0x36
 5087 0cf3 5E000000 		.4byte	.LASF101
ARM GAS  C:\Users\rdn\AppData\Local\Temp\cc92LAgm.s 			page 119


 5088 0cf7 01       		.byte	0x1
 5089 0cf8 8401     		.2byte	0x184
 5090 0cfa 01       		.byte	0x1
 5091 0cfb 880D0000 		.4byte	0xd88
 5092 0cff 38       		.uleb128 0x38
 5093 0d00 73636600 		.ascii	"scf\000"
 5094 0d04 01       		.byte	0x1
 5095 0d05 8501     		.2byte	0x185
 5096 0d07 16030000 		.4byte	0x316
 5097 0d0b 37       		.uleb128 0x37
 5098 0d0c F4020000 		.4byte	.LASF75
 5099 0d10 01       		.byte	0x1
 5100 0d11 8501     		.2byte	0x185
 5101 0d13 37040000 		.4byte	0x437
 5102 0d17 37       		.uleb128 0x37
 5103 0d18 18000000 		.4byte	.LASF76
 5104 0d1c 01       		.byte	0x1
 5105 0d1d 8501     		.2byte	0x185
 5106 0d1f 37040000 		.4byte	0x437
 5107 0d23 29       		.uleb128 0x29
 5108 0d24 AF000000 		.4byte	.LASF102
 5109 0d28 01       		.byte	0x1
 5110 0d29 8701     		.2byte	0x187
 5111 0d2b 25000000 		.4byte	0x25
 5112 0d2f 29       		.uleb128 0x29
 5113 0d30 B3040000 		.4byte	.LASF103
 5114 0d34 01       		.byte	0x1
 5115 0d35 8701     		.2byte	0x187
 5116 0d37 25000000 		.4byte	0x25
 5117 0d3b 18       		.uleb128 0x18
 5118 0d3c 20       		.uleb128 0x20
 5119 0d3d 69636200 		.ascii	"icb\000"
 5120 0d41 01       		.byte	0x1
 5121 0d42 8A01     		.2byte	0x18a
 5122 0d44 85000000 		.4byte	0x85
 5123 0d48 18       		.uleb128 0x18
 5124 0d49 29       		.uleb128 0x29
 5125 0d4a B7060000 		.4byte	.LASF57
 5126 0d4e 01       		.byte	0x1
 5127 0d4f 8B01     		.2byte	0x18b
 5128 0d51 16030000 		.4byte	0x316
 5129 0d55 29       		.uleb128 0x29
 5130 0d56 0C040000 		.4byte	.LASF58
 5131 0d5a 01       		.byte	0x1
 5132 0d5b 8C01     		.2byte	0x18c
 5133 0d5d 16030000 		.4byte	0x316
 5134 0d61 29       		.uleb128 0x29
 5135 0d62 6D030000 		.4byte	.LASF104
 5136 0d66 01       		.byte	0x1
 5137 0d67 8D01     		.2byte	0x18d
 5138 0d69 25000000 		.4byte	0x25
 5139 0d6d 29       		.uleb128 0x29
 5140 0d6e CB000000 		.4byte	.LASF105
 5141 0d72 01       		.byte	0x1
 5142 0d73 8D01     		.2byte	0x18d
 5143 0d75 25000000 		.4byte	0x25
 5144 0d79 18       		.uleb128 0x18
ARM GAS  C:\Users\rdn\AppData\Local\Temp\cc92LAgm.s 			page 120


 5145 0d7a 20       		.uleb128 0x20
 5146 0d7b 6900     		.ascii	"i\000"
 5147 0d7d 01       		.byte	0x1
 5148 0d7e 8F01     		.2byte	0x18f
 5149 0d80 85000000 		.4byte	0x85
 5150 0d84 00       		.byte	0
 5151 0d85 00       		.byte	0
 5152 0d86 00       		.byte	0
 5153 0d87 00       		.byte	0
 5154 0d88 17       		.uleb128 0x17
 5155 0d89 3C040000 		.4byte	.LASF106
 5156 0d8d 01       		.byte	0x1
 5157 0d8e 9A       		.byte	0x9a
 5158 0d8f 01       		.byte	0x1
 5159 0d90 74150000 		.4byte	0x1574
 5160 0d94 0D       		.uleb128 0xd
 5161 0d95 647400   		.ascii	"dt\000"
 5162 0d98 01       		.byte	0x1
 5163 0d99 9B       		.byte	0x9b
 5164 0d9a B4000000 		.4byte	0xb4
 5165 0d9e 0D       		.uleb128 0xd
 5166 0d9f 737200   		.ascii	"sr\000"
 5167 0da2 01       		.byte	0x1
 5168 0da3 9B       		.byte	0x9b
 5169 0da4 E3000000 		.4byte	0xe3
 5170 0da8 3A       		.uleb128 0x3a
 5171 0da9 B2030000 		.4byte	.LASF107
 5172 0dad 01       		.byte	0x1
 5173 0dae 9B       		.byte	0x9b
 5174 0daf 85000000 		.4byte	0x85
 5175 0db3 0D       		.uleb128 0xd
 5176 0db4 656200   		.ascii	"eb\000"
 5177 0db7 01       		.byte	0x1
 5178 0db8 9C       		.byte	0x9c
 5179 0db9 16030000 		.4byte	0x316
 5180 0dbd 0D       		.uleb128 0xd
 5181 0dbe 61747400 		.ascii	"att\000"
 5182 0dc2 01       		.byte	0x1
 5183 0dc3 9C       		.byte	0x9c
 5184 0dc4 24010000 		.4byte	0x124
 5185 0dc8 0D       		.uleb128 0xd
 5186 0dc9 73636600 		.ascii	"scf\000"
 5187 0dcd 01       		.byte	0x1
 5188 0dce 9C       		.byte	0x9c
 5189 0dcf 3D040000 		.4byte	0x43d
 5190 0dd3 3B       		.uleb128 0x3b
 5191 0dd4 CB010000 		.4byte	.LASF108
 5192 0dd8 01       		.byte	0x1
 5193 0dd9 A1       		.byte	0xa1
 5194 0dda 84150000 		.4byte	0x1584
 5195 0dde 0001     		.2byte	0x100
 5196 0de0 00       		.byte	0
 5197 0de1 00       		.byte	0
 5198 0de2 80       		.byte	0x80
 5199 0de3 3F       		.byte	0x3f
 5200 0de4 54       		.byte	0x54
 5201 0de5 B8       		.byte	0xb8
ARM GAS  C:\Users\rdn\AppData\Local\Temp\cc92LAgm.s 			page 121


 5202 0de6 86       		.byte	0x86
 5203 0de7 3F       		.byte	0x3f
 5204 0de8 FA       		.byte	0xfa
 5205 0de9 CA       		.byte	0xca
 5206 0dea 8D       		.byte	0x8d
 5207 0deb 3F       		.byte	0x3f
 5208 0dec AF       		.byte	0xaf
 5209 0ded 3C       		.byte	0x3c
 5210 0dee 95       		.byte	0x95
 5211 0def 3F       		.byte	0x3f
 5212 0df0 71       		.byte	0x71
 5213 0df1 12       		.byte	0x12
 5214 0df2 9D       		.byte	0x9d
 5215 0df3 3F       		.byte	0x3f
 5216 0df4 80       		.byte	0x80
 5217 0df5 51       		.byte	0x51
 5218 0df6 A5       		.byte	0xa5
 5219 0df7 3F       		.byte	0x3f
 5220 0df8 64       		.byte	0x64
 5221 0df9 FF       		.byte	0xff
 5222 0dfa AD       		.byte	0xad
 5223 0dfb 3F       		.byte	0x3f
 5224 0dfc EE       		.byte	0xee
 5225 0dfd 21       		.byte	0x21
 5226 0dfe B7       		.byte	0xb7
 5227 0dff 3F       		.byte	0x3f
 5228 0e00 3F       		.byte	0x3f
 5229 0e01 BF       		.byte	0xbf
 5230 0e02 C0       		.byte	0xc0
 5231 0e03 3F       		.byte	0x3f
 5232 0e04 C8       		.byte	0xc8
 5233 0e05 DD       		.byte	0xdd
 5234 0e06 CA       		.byte	0xca
 5235 0e07 3F       		.byte	0x3f
 5236 0e08 52       		.byte	0x52
 5237 0e09 84       		.byte	0x84
 5238 0e0a D5       		.byte	0xd5
 5239 0e0b 3F       		.byte	0x3f
 5240 0e0c 00       		.byte	0
 5241 0e0d BA       		.byte	0xba
 5242 0e0e E0       		.byte	0xe0
 5243 0e0f 3F       		.byte	0x3f
 5244 0e10 58       		.byte	0x58
 5245 0e11 86       		.byte	0x86
 5246 0e12 EC       		.byte	0xec
 5247 0e13 3F       		.byte	0x3f
 5248 0e14 41       		.byte	0x41
 5249 0e15 F1       		.byte	0xf1
 5250 0e16 F8       		.byte	0xf8
 5251 0e17 3F       		.byte	0x3f
 5252 0e18 87       		.byte	0x87
 5253 0e19 01       		.byte	0x1
 5254 0e1a 03       		.byte	0x3
 5255 0e1b 40       		.byte	0x40
 5256 0e1c 42       		.byte	0x42
 5257 0e1d E2       		.byte	0xe2
 5258 0e1e 09       		.byte	0x9
ARM GAS  C:\Users\rdn\AppData\Local\Temp\cc92LAgm.s 			page 122


 5259 0e1f 40       		.byte	0x40
 5260 0e20 6D       		.byte	0x6d
 5261 0e21 1F       		.byte	0x1f
 5262 0e22 11       		.byte	0x11
 5263 0e23 40       		.byte	0x40
 5264 0e24 E3       		.byte	0xe3
 5265 0e25 BD       		.byte	0xbd
 5266 0e26 18       		.byte	0x18
 5267 0e27 40       		.byte	0x40
 5268 0e28 BF       		.byte	0xbf
 5269 0e29 C2       		.byte	0xc2
 5270 0e2a 20       		.byte	0x20
 5271 0e2b 40       		.byte	0x40
 5272 0e2c 62       		.byte	0x62
 5273 0e2d 33       		.byte	0x33
 5274 0e2e 29       		.byte	0x29
 5275 0e2f 40       		.byte	0x40
 5276 0e30 74       		.byte	0x74
 5277 0e31 15       		.byte	0x15
 5278 0e32 32       		.byte	0x32
 5279 0e33 40       		.byte	0x40
 5280 0e34 EA       		.byte	0xea
 5281 0e35 6E       		.byte	0x6e
 5282 0e36 3B       		.byte	0x3b
 5283 0e37 40       		.byte	0x40
 5284 0e38 07       		.byte	0x7
 5285 0e39 46       		.byte	0x46
 5286 0e3a 45       		.byte	0x45
 5287 0e3b 40       		.byte	0x40
 5288 0e3c 66       		.byte	0x66
 5289 0e3d A1       		.byte	0xa1
 5290 0e3e 4F       		.byte	0x4f
 5291 0e3f 40       		.byte	0x40
 5292 0e40 F8       		.byte	0xf8
 5293 0e41 87       		.byte	0x87
 5294 0e42 5A       		.byte	0x5a
 5295 0e43 40       		.byte	0x40
 5296 0e44 0B       		.byte	0xb
 5297 0e45 01       		.byte	0x1
 5298 0e46 66       		.byte	0x66
 5299 0e47 40       		.byte	0x40
 5300 0e48 51       		.byte	0x51
 5301 0e49 14       		.byte	0x14
 5302 0e4a 72       		.byte	0x72
 5303 0e4b 40       		.byte	0x40
 5304 0e4c E1       		.byte	0xe1
 5305 0e4d C9       		.byte	0xc9
 5306 0e4e 7E       		.byte	0x7e
 5307 0e4f 40       		.byte	0x40
 5308 0e50 21       		.byte	0x21
 5309 0e51 15       		.byte	0x15
 5310 0e52 86       		.byte	0x86
 5311 0e53 40       		.byte	0x40
 5312 0e54 35       		.byte	0x35
 5313 0e55 1F       		.byte	0x1f
 5314 0e56 8D       		.byte	0x8d
 5315 0e57 40       		.byte	0x40
ARM GAS  C:\Users\rdn\AppData\Local\Temp\cc92LAgm.s 			page 123


 5316 0e58 E5       		.byte	0xe5
 5317 0e59 87       		.byte	0x87
 5318 0e5a 94       		.byte	0x94
 5319 0e5b 40       		.byte	0x40
 5320 0e5c 29       		.byte	0x29
 5321 0e5d 54       		.byte	0x54
 5322 0e5e 9C       		.byte	0x9c
 5323 0e5f 40       		.byte	0x40
 5324 0e60 3B       		.byte	0x3b
 5325 0e61 89       		.byte	0x89
 5326 0e62 A4       		.byte	0xa4
 5327 0e63 40       		.byte	0x40
 5328 0e64 9C       		.byte	0x9c
 5329 0e65 2C       		.byte	0x2c
 5330 0e66 AD       		.byte	0xad
 5331 0e67 40       		.byte	0x40
 5332 0e68 15       		.byte	0x15
 5333 0e69 44       		.byte	0x44
 5334 0e6a B6       		.byte	0xb6
 5335 0e6b 40       		.byte	0x40
 5336 0e6c C0       		.byte	0xc0
 5337 0e6d D5       		.byte	0xd5
 5338 0e6e BF       		.byte	0xbf
 5339 0e6f 40       		.byte	0x40
 5340 0e70 07       		.byte	0x7
 5341 0e71 E8       		.byte	0xe8
 5342 0e72 C9       		.byte	0xc9
 5343 0e73 40       		.byte	0x40
 5344 0e74 A9       		.byte	0xa9
 5345 0e75 81       		.byte	0x81
 5346 0e76 D4       		.byte	0xd4
 5347 0e77 40       		.byte	0x40
 5348 0e78 C4       		.byte	0xc4
 5349 0e79 A9       		.byte	0xa9
 5350 0e7a DF       		.byte	0xdf
 5351 0e7b 40       		.byte	0x40
 5352 0e7c D0       		.byte	0xd0
 5353 0e7d 67       		.byte	0x67
 5354 0e7e EB       		.byte	0xeb
 5355 0e7f 40       		.byte	0x40
 5356 0e80 AE       		.byte	0xae
 5357 0e81 C3       		.byte	0xc3
 5358 0e82 F7       		.byte	0xf7
 5359 0e83 40       		.byte	0x40
 5360 0e84 D3       		.byte	0xd3
 5361 0e85 62       		.byte	0x62
 5362 0e86 02       		.byte	0x2
 5363 0e87 41       		.byte	0x41
 5364 0e88 39       		.byte	0x39
 5365 0e89 3B       		.byte	0x3b
 5366 0e8a 09       		.byte	0x9
 5367 0e8b 41       		.byte	0x41
 5368 0e8c A0       		.byte	0xa0
 5369 0e8d 6F       		.byte	0x6f
 5370 0e8e 10       		.byte	0x10
 5371 0e8f 41       		.byte	0x41
 5372 0e90 DB       		.byte	0xdb
ARM GAS  C:\Users\rdn\AppData\Local\Temp\cc92LAgm.s 			page 124


 5373 0e91 04       		.byte	0x4
 5374 0e92 18       		.byte	0x18
 5375 0e93 41       		.byte	0x41
 5376 0e94 00       		.byte	0
 5377 0e95 00       		.byte	0
 5378 0e96 20       		.byte	0x20
 5379 0e97 41       		.byte	0x41
 5380 0e98 69       		.byte	0x69
 5381 0e99 66       		.byte	0x66
 5382 0e9a 28       		.byte	0x28
 5383 0e9b 41       		.byte	0x41
 5384 0e9c B8       		.byte	0xb8
 5385 0e9d 3D       		.byte	0x3d
 5386 0e9e 31       		.byte	0x31
 5387 0e9f 41       		.byte	0x41
 5388 0ea0 DB       		.byte	0xdb
 5389 0ea1 8B       		.byte	0x8b
 5390 0ea2 3A       		.byte	0x3a
 5391 0ea3 41       		.byte	0x41
 5392 0ea4 0D       		.byte	0xd
 5393 0ea5 57       		.byte	0x57
 5394 0ea6 44       		.byte	0x44
 5395 0ea7 41       		.byte	0x41
 5396 0ea8 E0       		.byte	0xe0
 5397 0ea9 A5       		.byte	0xa5
 5398 0eaa 4E       		.byte	0x4e
 5399 0eab 41       		.byte	0x41
 5400 0eac 3D       		.byte	0x3d
 5401 0ead 7F       		.byte	0x7f
 5402 0eae 59       		.byte	0x59
 5403 0eaf 41       		.byte	0x41
 5404 0eb0 6A       		.byte	0x6a
 5405 0eb1 EA       		.byte	0xea
 5406 0eb2 64       		.byte	0x64
 5407 0eb3 41       		.byte	0x41
 5408 0eb4 0F       		.byte	0xf
 5409 0eb5 EF       		.byte	0xef
 5410 0eb6 70       		.byte	0x70
 5411 0eb7 41       		.byte	0x41
 5412 0eb8 3A       		.byte	0x3a
 5413 0eb9 95       		.byte	0x95
 5414 0eba 7D       		.byte	0x7d
 5415 0ebb 41       		.byte	0x41
 5416 0ebc B3       		.byte	0xb3
 5417 0ebd 72       		.byte	0x72
 5418 0ebe 85       		.byte	0x85
 5419 0ebf 41       		.byte	0x41
 5420 0ec0 40       		.byte	0x40
 5421 0ec1 74       		.byte	0x74
 5422 0ec2 8C       		.byte	0x8c
 5423 0ec3 41       		.byte	0x41
 5424 0ec4 F7       		.byte	0xf7
 5425 0ec5 D3       		.byte	0xd3
 5426 0ec6 93       		.byte	0x93
 5427 0ec7 41       		.byte	0x41
 5428 0ec8 C8       		.byte	0xc8
 5429 0ec9 96       		.byte	0x96
ARM GAS  C:\Users\rdn\AppData\Local\Temp\cc92LAgm.s 			page 125


 5430 0eca 9B       		.byte	0x9b
 5431 0ecb 41       		.byte	0x41
 5432 0ecc E9       		.byte	0xe9
 5433 0ecd C1       		.byte	0xc1
 5434 0ece A3       		.byte	0xa3
 5435 0ecf 41       		.byte	0x41
 5436 0ed0 D3       		.byte	0xd3
 5437 0ed1 5A       		.byte	0x5a
 5438 0ed2 AC       		.byte	0xac
 5439 0ed3 41       		.byte	0x41
 5440 0ed4 49       		.byte	0x49
 5441 0ed5 67       		.byte	0x67
 5442 0ed6 B5       		.byte	0xb5
 5443 0ed7 41       		.byte	0x41
 5444 0ed8 5C       		.byte	0x5c
 5445 0ed9 ED       		.byte	0xed
 5446 0eda BE       		.byte	0xbe
 5447 0edb 41       		.byte	0x41
 5448 0edc 6F       		.byte	0x6f
 5449 0edd F3       		.byte	0xf3
 5450 0ede C8       		.byte	0xc8
 5451 0edf 41       		.byte	0x41
 5452 0ee0 3B       		.uleb128 0x3b
 5453 0ee1 D1010000 		.4byte	.LASF109
 5454 0ee5 01       		.byte	0x1
 5455 0ee6 B3       		.byte	0xb3
 5456 0ee7 89150000 		.4byte	0x1589
 5457 0eeb 0001     		.2byte	0x100
 5458 0eed 00       		.byte	0
 5459 0eee 00       		.byte	0
 5460 0eef 80       		.byte	0x80
 5461 0ef0 3F       		.byte	0x3f
 5462 0ef1 3D       		.byte	0x3d
 5463 0ef2 B4       		.byte	0xb4
 5464 0ef3 88       		.byte	0x88
 5465 0ef4 3F       		.byte	0x3f
 5466 0ef5 FF       		.byte	0xff
 5467 0ef6 FF       		.byte	0xff
 5468 0ef7 91       		.byte	0x91
 5469 0ef8 3F       		.byte	0x3f
 5470 0ef9 95       		.byte	0x95
 5471 0efa ED       		.byte	0xed
 5472 0efb 9B       		.byte	0x9b
 5473 0efc 3F       		.byte	0x3f
 5474 0efd FF       		.byte	0xff
 5475 0efe 87       		.byte	0x87
 5476 0eff A6       		.byte	0xa6
 5477 0f00 3F       		.byte	0x3f
 5478 0f01 FD       		.byte	0xfd
 5479 0f02 DA       		.byte	0xda
 5480 0f03 B1       		.byte	0xb1
 5481 0f04 3F       		.byte	0x3f
 5482 0f05 1E       		.byte	0x1e
 5483 0f06 F3       		.byte	0xf3
 5484 0f07 BD       		.byte	0xbd
 5485 0f08 3F       		.byte	0x3f
 5486 0f09 C8       		.byte	0xc8
ARM GAS  C:\Users\rdn\AppData\Local\Temp\cc92LAgm.s 			page 126


 5487 0f0a DD       		.byte	0xdd
 5488 0f0b CA       		.byte	0xca
 5489 0f0c 3F       		.byte	0x3f
 5490 0f0d 4D       		.byte	0x4d
 5491 0f0e A9       		.byte	0xa9
 5492 0f0f D8       		.byte	0xd8
 5493 0f10 3F       		.byte	0x3f
 5494 0f11 F7       		.byte	0xf7
 5495 0f12 64       		.byte	0x64
 5496 0f13 E7       		.byte	0xe7
 5497 0f14 3F       		.byte	0x3f
 5498 0f15 1A       		.byte	0x1a
 5499 0f16 21       		.byte	0x21
 5500 0f17 F7       		.byte	0xf7
 5501 0f18 3F       		.byte	0x3f
 5502 0f19 94       		.byte	0x94
 5503 0f1a F7       		.byte	0xf7
 5504 0f1b 03       		.byte	0x3
 5505 0f1c 40       		.byte	0x40
 5506 0f1d E0       		.byte	0xe0
 5507 0f1e F0       		.byte	0xf0
 5508 0f1f 0C       		.byte	0xc
 5509 0f20 40       		.byte	0x40
 5510 0f21 64       		.byte	0x64
 5511 0f22 86       		.byte	0x86
 5512 0f23 16       		.byte	0x16
 5513 0f24 40       		.byte	0x40
 5514 0f25 BF       		.byte	0xbf
 5515 0f26 C2       		.byte	0xc2
 5516 0f27 20       		.byte	0x20
 5517 0f28 40       		.byte	0x40
 5518 0f29 4A       		.byte	0x4a
 5519 0f2a B1       		.byte	0xb1
 5520 0f2b 2B       		.byte	0x2b
 5521 0f2c 40       		.byte	0x40
 5522 0f2d 21       		.byte	0x21
 5523 0f2e 5E       		.byte	0x5e
 5524 0f2f 37       		.byte	0x37
 5525 0f30 40       		.byte	0x40
 5526 0f31 37       		.byte	0x37
 5527 0f32 D6       		.byte	0xd6
 5528 0f33 43       		.byte	0x43
 5529 0f34 40       		.byte	0x40
 5530 0f35 5D       		.byte	0x5d
 5531 0f36 27       		.byte	0x27
 5532 0f37 51       		.byte	0x51
 5533 0f38 40       		.byte	0x40
 5534 0f39 56       		.byte	0x56
 5535 0f3a 60       		.byte	0x60
 5536 0f3b 5F       		.byte	0x5f
 5537 0f3c 40       		.byte	0x40
 5538 0f3d E5       		.byte	0xe5
 5539 0f3e 90       		.byte	0x90
 5540 0f3f 6E       		.byte	0x6e
 5541 0f40 40       		.byte	0x40
 5542 0f41 E1       		.byte	0xe1
 5543 0f42 C9       		.byte	0xc9
ARM GAS  C:\Users\rdn\AppData\Local\Temp\cc92LAgm.s 			page 127


 5544 0f43 7E       		.byte	0x7e
 5545 0f44 40       		.byte	0x40
 5546 0f45 A2       		.byte	0xa2
 5547 0f46 0E       		.byte	0xe
 5548 0f47 88       		.byte	0x88
 5549 0f48 40       		.byte	0x40
 5550 0f49 22       		.byte	0x22
 5551 0f4a 4F       		.byte	0x4f
 5552 0f4b 91       		.byte	0x91
 5553 0f4c 40       		.byte	0x40
 5554 0f4d B0       		.byte	0xb0
 5555 0f4e 30       		.byte	0x30
 5556 0f4f 9B       		.byte	0x9b
 5557 0f50 40       		.byte	0x40
 5558 0f51 42       		.byte	0x42
 5559 0f52 BE       		.byte	0xbe
 5560 0f53 A5       		.byte	0xa5
 5561 0f54 40       		.byte	0x40
 5562 0f55 88       		.byte	0x88
 5563 0f56 03       		.byte	0x3
 5564 0f57 B1       		.byte	0xb1
 5565 0f58 40       		.byte	0x40
 5566 0f59 02       		.byte	0x2
 5567 0f5a 0D       		.byte	0xd
 5568 0f5b BD       		.byte	0xbd
 5569 0f5c 40       		.byte	0x40
 5570 0f5d 07       		.byte	0x7
 5571 0f5e E8       		.byte	0xe8
 5572 0f5f C9       		.byte	0xc9
 5573 0f60 40       		.byte	0x40
 5574 0f61 D5       		.byte	0xd5
 5575 0f62 A2       		.byte	0xa2
 5576 0f63 D7       		.byte	0xd7
 5577 0f64 40       		.byte	0x40
 5578 0f65 A6       		.byte	0xa6
 5579 0f66 4C       		.byte	0x4c
 5580 0f67 E6       		.byte	0xe6
 5581 0f68 40       		.byte	0x40
 5582 0f69 BA       		.byte	0xba
 5583 0f6a F5       		.byte	0xf5
 5584 0f6b F5       		.byte	0xf5
 5585 0f6c 40       		.byte	0x40
 5586 0f6d B6       		.byte	0xb6
 5587 0f6e 57       		.byte	0x57
 5588 0f6f 03       		.byte	0x3
 5589 0f70 41       		.byte	0x41
 5590 0f71 24       		.byte	0x24
 5591 0f72 46       		.byte	0x46
 5592 0f73 0C       		.byte	0xc
 5593 0f74 41       		.byte	0x41
 5594 0f75 0B       		.byte	0xb
 5595 0f76 D0       		.byte	0xd0
 5596 0f77 15       		.byte	0x15
 5597 0f78 41       		.byte	0x41
 5598 0f79 00       		.byte	0
 5599 0f7a 00       		.byte	0
 5600 0f7b 20       		.byte	0x20
ARM GAS  C:\Users\rdn\AppData\Local\Temp\cc92LAgm.s 			page 128


 5601 0f7c 41       		.byte	0x41
 5602 0f7d 4C       		.byte	0x4c
 5603 0f7e E1       		.byte	0xe1
 5604 0f7f 2A       		.byte	0x2a
 5605 0f80 41       		.byte	0x41
 5606 0f81 FF       		.byte	0xff
 5607 0f82 7F       		.byte	0x7f
 5608 0f83 36       		.byte	0x36
 5609 0f84 41       		.byte	0x41
 5610 0f85 FA       		.byte	0xfa
 5611 0f86 E8       		.byte	0xe8
 5612 0f87 42       		.byte	0x42
 5613 0f88 41       		.byte	0x41
 5614 0f89 FE       		.byte	0xfe
 5615 0f8a 29       		.byte	0x29
 5616 0f8b 50       		.byte	0x50
 5617 0f8c 41       		.byte	0x41
 5618 0f8d BC       		.byte	0xbc
 5619 0f8e 51       		.byte	0x51
 5620 0f8f 5E       		.byte	0x5e
 5621 0f90 41       		.byte	0x41
 5622 0f91 E5       		.byte	0xe5
 5623 0f92 6F       		.byte	0x6f
 5624 0f93 6D       		.byte	0x6d
 5625 0f94 41       		.byte	0x41
 5626 0f95 3A       		.byte	0x3a
 5627 0f96 95       		.byte	0x95
 5628 0f97 7D       		.byte	0x7d
 5629 0f98 41       		.byte	0x41
 5630 0f99 D0       		.byte	0xd0
 5631 0f9a 69       		.byte	0x69
 5632 0f9b 87       		.byte	0x87
 5633 0f9c 41       		.byte	0x41
 5634 0f9d 1A       		.byte	0x1a
 5635 0f9e 9F       		.byte	0x9f
 5636 0f9f 90       		.byte	0x90
 5637 0fa0 41       		.byte	0x41
 5638 0fa1 B1       		.byte	0xb1
 5639 0fa2 74       		.byte	0x74
 5640 0fa3 9A       		.byte	0x9a
 5641 0fa4 41       		.byte	0x41
 5642 0fa5 79       		.byte	0x79
 5643 0fa6 F5       		.byte	0xf5
 5644 0fa7 A4       		.byte	0xa4
 5645 0fa8 41       		.byte	0x41
 5646 0fa9 19       		.byte	0x19
 5647 0faa 2D       		.byte	0x2d
 5648 0fab B0       		.byte	0xb0
 5649 0fac 41       		.byte	0x41
 5650 0fad FD       		.byte	0xfd
 5651 0fae 27       		.byte	0x27
 5652 0faf BC       		.byte	0xbc
 5653 0fb0 41       		.byte	0x41
 5654 0fb1 6F       		.byte	0x6f
 5655 0fb2 F3       		.byte	0xf3
 5656 0fb3 C8       		.byte	0xc8
 5657 0fb4 41       		.byte	0x41
ARM GAS  C:\Users\rdn\AppData\Local\Temp\cc92LAgm.s 			page 129


 5658 0fb5 9C       		.byte	0x9c
 5659 0fb6 9D       		.byte	0x9d
 5660 0fb7 D6       		.byte	0xd6
 5661 0fb8 41       		.byte	0x41
 5662 0fb9 AA       		.byte	0xaa
 5663 0fba 35       		.byte	0x35
 5664 0fbb E5       		.byte	0xe5
 5665 0fbc 41       		.byte	0x41
 5666 0fbd C5       		.byte	0xc5
 5667 0fbe CB       		.byte	0xcb
 5668 0fbf F4       		.byte	0xf4
 5669 0fc0 41       		.byte	0x41
 5670 0fc1 9A       		.byte	0x9a
 5671 0fc2 B8       		.byte	0xb8
 5672 0fc3 02       		.byte	0x2
 5673 0fc4 42       		.byte	0x42
 5674 0fc5 36       		.byte	0x36
 5675 0fc6 9C       		.byte	0x9c
 5676 0fc7 0B       		.byte	0xb
 5677 0fc8 42       		.byte	0x42
 5678 0fc9 8F       		.byte	0x8f
 5679 0fca 1A       		.byte	0x1a
 5680 0fcb 15       		.byte	0x15
 5681 0fcc 42       		.byte	0x42
 5682 0fcd 2D       		.byte	0x2d
 5683 0fce 3E       		.byte	0x3e
 5684 0fcf 1F       		.byte	0x1f
 5685 0fd0 42       		.byte	0x42
 5686 0fd1 4B       		.byte	0x4b
 5687 0fd2 12       		.byte	0x12
 5688 0fd3 2A       		.byte	0x2a
 5689 0fd4 42       		.byte	0x42
 5690 0fd5 EA       		.byte	0xea
 5691 0fd6 A2       		.byte	0xa2
 5692 0fd7 35       		.byte	0x35
 5693 0fd8 42       		.byte	0x42
 5694 0fd9 DC       		.byte	0xdc
 5695 0fda FC       		.byte	0xfc
 5696 0fdb 41       		.byte	0x41
 5697 0fdc 42       		.byte	0x42
 5698 0fdd D2       		.byte	0xd2
 5699 0fde 2D       		.byte	0x2d
 5700 0fdf 4F       		.byte	0x4f
 5701 0fe0 42       		.byte	0x42
 5702 0fe1 6A       		.byte	0x6a
 5703 0fe2 44       		.byte	0x44
 5704 0fe3 5D       		.byte	0x5d
 5705 0fe4 42       		.byte	0x42
 5706 0fe5 43       		.byte	0x43
 5707 0fe6 50       		.byte	0x50
 5708 0fe7 6C       		.byte	0x6c
 5709 0fe8 42       		.byte	0x42
 5710 0fe9 08       		.byte	0x8
 5711 0fea 62       		.byte	0x62
 5712 0feb 7C       		.byte	0x7c
 5713 0fec 42       		.byte	0x42
 5714 0fed 3B       		.uleb128 0x3b
ARM GAS  C:\Users\rdn\AppData\Local\Temp\cc92LAgm.s 			page 130


 5715 0fee 49020000 		.4byte	.LASF110
 5716 0ff2 01       		.byte	0x1
 5717 0ff3 C5       		.byte	0xc5
 5718 0ff4 8E150000 		.4byte	0x158e
 5719 0ff8 0001     		.2byte	0x100
 5720 0ffa 00       		.byte	0
 5721 0ffb 00       		.byte	0
 5722 0ffc 80       		.byte	0x80
 5723 0ffd 3F       		.byte	0x3f
 5724 0ffe A1       		.byte	0xa1
 5725 0fff B7       		.byte	0xb7
 5726 1000 8A       		.byte	0x8a
 5727 1001 3F       		.byte	0x3f
 5728 1002 FA       		.byte	0xfa
 5729 1003 54       		.byte	0x54
 5730 1004 96       		.byte	0x96
 5731 1005 3F       		.byte	0x3f
 5732 1006 47       		.byte	0x47
 5733 1007 EB       		.byte	0xeb
 5734 1008 A2       		.byte	0xa2
 5735 1009 3F       		.byte	0x3f
 5736 100a 61       		.byte	0x61
 5737 100b 8F       		.byte	0x8f
 5738 100c B0       		.byte	0xb0
 5739 100d 3F       		.byte	0x3f
 5740 100e DF       		.byte	0xdf
 5741 100f 57       		.byte	0x57
 5742 1010 BF       		.byte	0xbf
 5743 1011 3F       		.byte	0x3f
 5744 1012 3C       		.byte	0x3c
 5745 1013 5D       		.byte	0x5d
 5746 1014 CF       		.byte	0xcf
 5747 1015 3F       		.byte	0x3f
 5748 1016 00       		.byte	0
 5749 1017 BA       		.byte	0xba
 5750 1018 E0       		.byte	0xe0
 5751 1019 3F       		.byte	0x3f
 5752 101a EC       		.byte	0xec
 5753 101b 8A       		.byte	0x8a
 5754 101c F3       		.byte	0xf3
 5755 101d 3F       		.byte	0x3f
 5756 101e 94       		.byte	0x94
 5757 101f F7       		.byte	0xf7
 5758 1020 03       		.byte	0x3
 5759 1021 40       		.byte	0x40
 5760 1022 3D       		.byte	0x3d
 5761 1023 04       		.byte	0x4
 5762 1024 0F       		.byte	0xf
 5763 1025 40       		.byte	0x40
 5764 1026 BD       		.byte	0xbd
 5765 1027 FD       		.byte	0xfd
 5766 1028 1A       		.byte	0x1a
 5767 1029 40       		.byte	0x40
 5768 102a E9       		.byte	0xe9
 5769 102b F7       		.byte	0xf7
 5770 102c 27       		.byte	0x27
 5771 102d 40       		.byte	0x40
ARM GAS  C:\Users\rdn\AppData\Local\Temp\cc92LAgm.s 			page 131


 5772 102e 3F       		.byte	0x3f
 5773 102f 08       		.byte	0x8
 5774 1030 36       		.byte	0x36
 5775 1031 40       		.byte	0x40
 5776 1032 07       		.byte	0x7
 5777 1033 46       		.byte	0x46
 5778 1034 45       		.byte	0x45
 5779 1035 40       		.byte	0x40
 5780 1036 82       		.byte	0x82
 5781 1037 CA       		.byte	0xca
 5782 1038 55       		.byte	0x55
 5783 1039 40       		.byte	0x40
 5784 103a 07       		.byte	0x7
 5785 103b B1       		.byte	0xb1
 5786 103c 67       		.byte	0x67
 5787 103d 40       		.byte	0x40
 5788 103e 3D       		.byte	0x3d
 5789 103f 17       		.byte	0x17
 5790 1040 7B       		.byte	0x7b
 5791 1041 40       		.byte	0x40
 5792 1042 A2       		.byte	0xa2
 5793 1043 0E       		.byte	0xe
 5794 1044 88       		.byte	0x88
 5795 1045 40       		.byte	0x40
 5796 1046 F6       		.byte	0xf6
 5797 1047 72       		.byte	0x72
 5798 1048 93       		.byte	0x93
 5799 1049 40       		.byte	0x40
 5800 104a 79       		.byte	0x79
 5801 104b CB       		.byte	0xcb
 5802 104c 9F       		.byte	0x9f
 5803 104d 40       		.byte	0x40
 5804 104e 9C       		.byte	0x9c
 5805 104f 2C       		.byte	0x2c
 5806 1050 AD       		.byte	0xad
 5807 1051 40       		.byte	0x40
 5808 1052 87       		.byte	0x87
 5809 1053 AC       		.byte	0xac
 5810 1054 BB       		.byte	0xbb
 5811 1055 40       		.byte	0x40
 5812 1056 3D       		.byte	0x3d
 5813 1057 63       		.byte	0x63
 5814 1058 CB       		.byte	0xcb
 5815 1059 40       		.byte	0x40
 5816 105a C5       		.byte	0xc5
 5817 105b 6A       		.byte	0x6a
 5818 105c DC       		.byte	0xdc
 5819 105d 40       		.byte	0x40
 5820 105e 51       		.byte	0x51
 5821 105f DF       		.byte	0xdf
 5822 1060 EE       		.byte	0xee
 5823 1061 40       		.byte	0x40
 5824 1062 B9       		.byte	0xb9
 5825 1063 6F       		.byte	0x6f
 5826 1064 01       		.byte	0x1
 5827 1065 41       		.byte	0x41
 5828 1066 24       		.byte	0x24
ARM GAS  C:\Users\rdn\AppData\Local\Temp\cc92LAgm.s 			page 132


 5829 1067 46       		.byte	0x46
 5830 1068 0C       		.byte	0xc
 5831 1069 41       		.byte	0x41
 5832 106a DB       		.byte	0xdb
 5833 106b 04       		.byte	0x4
 5834 106c 18       		.byte	0x18
 5835 106d 41       		.byte	0x41
 5836 106e 51       		.byte	0x51
 5837 106f BF       		.byte	0xbf
 5838 1070 24       		.byte	0x24
 5839 1071 41       		.byte	0x41
 5840 1072 9C       		.byte	0x9c
 5841 1073 8A       		.byte	0x8a
 5842 1074 32       		.byte	0x32
 5843 1075 41       		.byte	0x41
 5844 1076 92       		.byte	0x92
 5845 1077 7D       		.byte	0x7d
 5846 1078 41       		.byte	0x41
 5847 1079 41       		.byte	0x41
 5848 107a F6       		.byte	0xf6
 5849 107b B0       		.byte	0xb0
 5850 107c 51       		.byte	0x51
 5851 107d 41       		.byte	0x41
 5852 107e 9B       		.byte	0x9b
 5853 107f 3F       		.byte	0x3f
 5854 1080 63       		.byte	0x63
 5855 1081 41       		.byte	0x41
 5856 1082 95       		.byte	0x95
 5857 1083 46       		.byte	0x46
 5858 1084 76       		.byte	0x76
 5859 1085 41       		.byte	0x41
 5860 1086 B3       		.byte	0xb3
 5861 1087 72       		.byte	0x72
 5862 1088 85       		.byte	0x85
 5863 1089 41       		.byte	0x41
 5864 108a 1A       		.byte	0x1a
 5865 108b 9F       		.byte	0x9f
 5866 108c 90       		.byte	0x90
 5867 108d 41       		.byte	0x41
 5868 108e 01       		.byte	0x1
 5869 108f BB       		.byte	0xbb
 5870 1090 9C       		.byte	0x9c
 5871 1091 41       		.byte	0x41
 5872 1092 75       		.byte	0x75
 5873 1093 DA       		.byte	0xda
 5874 1094 A9       		.byte	0xa9
 5875 1095 41       		.byte	0x41
 5876 1096 32       		.byte	0x32
 5877 1097 13       		.byte	0x13
 5878 1098 B8       		.byte	0xb8
 5879 1099 41       		.byte	0x41
 5880 109a C4       		.byte	0xc4
 5881 109b 7C       		.byte	0x7c
 5882 109c C7       		.byte	0xc7
 5883 109d 41       		.byte	0x41
 5884 109e B1       		.byte	0xb1
 5885 109f 30       		.byte	0x30
ARM GAS  C:\Users\rdn\AppData\Local\Temp\cc92LAgm.s 			page 133


 5886 10a0 D8       		.byte	0xd8
 5887 10a1 41       		.byte	0x41
 5888 10a2 A4       		.byte	0xa4
 5889 10a3 4A       		.byte	0x4a
 5890 10a4 EA       		.byte	0xea
 5891 10a5 41       		.byte	0x41
 5892 10a6 95       		.byte	0x95
 5893 10a7 E8       		.byte	0xe8
 5894 10a8 FD       		.byte	0xfd
 5895 10a9 41       		.byte	0x41
 5896 10aa 81       		.byte	0x81
 5897 10ab 95       		.byte	0x95
 5898 10ac 09       		.byte	0x9
 5899 10ad 42       		.byte	0x42
 5900 10ae 8F       		.byte	0x8f
 5901 10af 1A       		.byte	0x1a
 5902 10b0 15       		.byte	0x15
 5903 10b1 42       		.byte	0x42
 5904 10b2 89       		.byte	0x89
 5905 10b3 96       		.byte	0x96
 5906 10b4 21       		.byte	0x21
 5907 10b5 42       		.byte	0x42
 5908 10b6 1C       		.byte	0x1c
 5909 10b7 1E       		.byte	0x1e
 5910 10b8 2F       		.byte	0x2f
 5911 10b9 42       		.byte	0x42
 5912 10ba AF       		.byte	0xaf
 5913 10bb C7       		.byte	0xc7
 5914 10bc 3D       		.byte	0x3d
 5915 10bd 42       		.byte	0x42
 5916 10be 8A       		.byte	0x8a
 5917 10bf AB       		.byte	0xab
 5918 10c0 4D       		.byte	0x4d
 5919 10c1 42       		.byte	0x42
 5920 10c2 FE       		.byte	0xfe
 5921 10c3 E3       		.byte	0xe3
 5922 10c4 5E       		.byte	0x5e
 5923 10c5 42       		.byte	0x42
 5924 10c6 8F       		.byte	0x8f
 5925 10c7 8D       		.byte	0x8d
 5926 10c8 71       		.byte	0x71
 5927 10c9 42       		.byte	0x42
 5928 10ca 93       		.byte	0x93
 5929 10cb E3       		.byte	0xe3
 5930 10cc 82       		.byte	0x82
 5931 10cd 42       		.byte	0x42
 5932 10ce 20       		.byte	0x20
 5933 10cf D9       		.byte	0xd9
 5934 10d0 8D       		.byte	0x8d
 5935 10d1 42       		.byte	0x42
 5936 10d2 94       		.byte	0x94
 5937 10d3 B9       		.byte	0xb9
 5938 10d4 99       		.byte	0x99
 5939 10d5 42       		.byte	0x42
 5940 10d6 9C       		.byte	0x9c
 5941 10d7 98       		.byte	0x98
 5942 10d8 A6       		.byte	0xa6
ARM GAS  C:\Users\rdn\AppData\Local\Temp\cc92LAgm.s 			page 134


 5943 10d9 42       		.byte	0x42
 5944 10da 87       		.byte	0x87
 5945 10db 8B       		.byte	0x8b
 5946 10dc B4       		.byte	0xb4
 5947 10dd 42       		.byte	0x42
 5948 10de 70       		.byte	0x70
 5949 10df A9       		.byte	0xa9
 5950 10e0 C3       		.byte	0xc3
 5951 10e1 42       		.byte	0x42
 5952 10e2 5E       		.byte	0x5e
 5953 10e3 0B       		.byte	0xb
 5954 10e4 D4       		.byte	0xd4
 5955 10e5 42       		.byte	0x42
 5956 10e6 74       		.byte	0x74
 5957 10e7 CC       		.byte	0xcc
 5958 10e8 E5       		.byte	0xe5
 5959 10e9 42       		.byte	0x42
 5960 10ea 17       		.byte	0x17
 5961 10eb 0A       		.byte	0xa
 5962 10ec F9       		.byte	0xf9
 5963 10ed 42       		.byte	0x42
 5964 10ee 13       		.byte	0x13
 5965 10ef F2       		.byte	0xf2
 5966 10f0 06       		.byte	0x6
 5967 10f1 43       		.byte	0x43
 5968 10f2 94       		.byte	0x94
 5969 10f3 3E       		.byte	0x3e
 5970 10f4 12       		.byte	0x12
 5971 10f5 43       		.byte	0x43
 5972 10f6 44       		.byte	0x44
 5973 10f7 7D       		.byte	0x7d
 5974 10f8 1E       		.byte	0x1e
 5975 10f9 43       		.byte	0x43
 5976 10fa 3B       		.uleb128 0x3b
 5977 10fb 64020000 		.4byte	.LASF111
 5978 10ff 01       		.byte	0x1
 5979 1100 D7       		.byte	0xd7
 5980 1101 93150000 		.4byte	0x1593
 5981 1105 0001     		.2byte	0x100
 5982 1107 00       		.byte	0
 5983 1108 00       		.byte	0
 5984 1109 80       		.byte	0x80
 5985 110a 3F       		.byte	0x3f
 5986 110b 9B       		.byte	0x9b
 5987 110c C2       		.byte	0xc2
 5988 110d 8C       		.byte	0x8c
 5989 110e 3F       		.byte	0x3f
 5990 110f DB       		.byte	0xdb
 5991 1110 CA       		.byte	0xca
 5992 1111 9A       		.byte	0x9a
 5993 1112 3F       		.byte	0x3f
 5994 1113 37       		.byte	0x37
 5995 1114 39       		.byte	0x39
 5996 1115 AA       		.byte	0xaa
 5997 1116 3F       		.byte	0x3f
 5998 1117 61       		.byte	0x61
 5999 1118 31       		.byte	0x31
ARM GAS  C:\Users\rdn\AppData\Local\Temp\cc92LAgm.s 			page 135


 6000 1119 BB       		.byte	0xbb
 6001 111a 3F       		.byte	0x3f
 6002 111b 9C       		.byte	0x9c
 6003 111c DA       		.byte	0xda
 6004 111d CD       		.byte	0xcd
 6005 111e 3F       		.byte	0x3f
 6006 111f 13       		.byte	0x13
 6007 1120 60       		.byte	0x60
 6008 1121 E2       		.byte	0xe2
 6009 1122 3F       		.byte	0x3f
 6010 1123 41       		.byte	0x41
 6011 1124 F1       		.byte	0xf1
 6012 1125 F8       		.byte	0xf8
 6013 1126 3F       		.byte	0x3f
 6014 1127 2D       		.byte	0x2d
 6015 1128 E1       		.byte	0xe1
 6016 1129 08       		.byte	0x8
 6017 112a 40       		.byte	0x40
 6018 112b 64       		.byte	0x64
 6019 112c 86       		.byte	0x86
 6020 112d 16       		.byte	0x16
 6021 112e 40       		.byte	0x40
 6022 112f D8       		.byte	0xd8
 6023 1130 87       		.byte	0x87
 6024 1131 25       		.byte	0x25
 6025 1132 40       		.byte	0x40
 6026 1133 3F       		.byte	0x3f
 6027 1134 08       		.byte	0x8
 6028 1135 36       		.byte	0x36
 6029 1136 40       		.byte	0x40
 6030 1137 C5       		.byte	0xc5
 6031 1138 2D       		.byte	0x2d
 6032 1139 48       		.byte	0x48
 6033 113a 40       		.byte	0x40
 6034 113b 68       		.byte	0x68
 6035 113c 22       		.byte	0x22
 6036 113d 5C       		.byte	0x5c
 6037 113e 40       		.byte	0x40
 6038 113f 51       		.byte	0x51
 6039 1140 14       		.byte	0x14
 6040 1141 72       		.byte	0x72
 6041 1142 40       		.byte	0x40
 6042 1143 22       		.byte	0x22
 6043 1144 1B       		.byte	0x1b
 6044 1145 85       		.byte	0x85
 6045 1146 40       		.byte	0x40
 6046 1147 0C       		.byte	0xc
 6047 1148 60       		.byte	0x60
 6048 1149 92       		.byte	0x92
 6049 114a 40       		.byte	0x40
 6050 114b 98       		.byte	0x98
 6051 114c F7       		.byte	0xf7
 6052 114d A0       		.byte	0xa0
 6053 114e 40       		.byte	0x40
 6054 114f 88       		.byte	0x88
 6055 1150 03       		.byte	0x3
 6056 1151 B1       		.byte	0xb1
ARM GAS  C:\Users\rdn\AppData\Local\Temp\cc92LAgm.s 			page 136


 6057 1152 40       		.byte	0x40
 6058 1153 FD       		.byte	0xfd
 6059 1154 A8       		.byte	0xa8
 6060 1155 C2       		.byte	0xc2
 6061 1156 40       		.byte	0x40
 6062 1157 C9       		.byte	0xc9
 6063 1158 10       		.byte	0x10
 6064 1159 D6       		.byte	0xd6
 6065 115a 40       		.byte	0x40
 6066 115b D0       		.byte	0xd0
 6067 115c 67       		.byte	0x67
 6068 115d EB       		.byte	0xeb
 6069 115e 40       		.byte	0x40
 6070 115f B9       		.byte	0xb9
 6071 1160 6F       		.byte	0x6f
 6072 1161 01       		.byte	0x1
 6073 1162 41       		.byte	0x41
 6074 1163 FD       		.byte	0xfd
 6075 1164 56       		.byte	0x56
 6076 1165 0E       		.byte	0xe
 6077 1166 41       		.byte	0x41
 6078 1167 8D       		.byte	0x8d
 6079 1168 87       		.byte	0x87
 6080 1169 1C       		.byte	0x1c
 6081 116a 41       		.byte	0x41
 6082 116b 3D       		.byte	0x3d
 6083 116c 22       		.byte	0x22
 6084 116d 2C       		.byte	0x2c
 6085 116e 41       		.byte	0x41
 6086 116f 27       		.byte	0x27
 6087 1170 4B       		.byte	0x4b
 6088 1171 3D       		.byte	0x3d
 6089 1172 41       		.byte	0x41
 6090 1173 FE       		.byte	0xfe
 6091 1174 29       		.byte	0x29
 6092 1175 50       		.byte	0x50
 6093 1176 41       		.byte	0x41
 6094 1177 6A       		.byte	0x6a
 6095 1178 EA       		.byte	0xea
 6096 1179 64       		.byte	0x64
 6097 117a 41       		.byte	0x41
 6098 117b 6C       		.byte	0x6c
 6099 117c BC       		.byte	0xbc
 6100 117d 7B       		.byte	0x7b
 6101 117e 41       		.byte	0x41
 6102 117f 69       		.byte	0x69
 6103 1180 6A       		.byte	0x6a
 6104 1181 8A       		.byte	0x8a
 6105 1182 41       		.byte	0x41
 6106 1183 D3       		.byte	0xd3
 6107 1184 36       		.byte	0x36
 6108 1185 98       		.byte	0x98
 6109 1186 41       		.byte	0x41
 6110 1187 63       		.byte	0x63
 6111 1188 63       		.byte	0x63
 6112 1189 A7       		.byte	0xa7
 6113 118a 41       		.byte	0x41
ARM GAS  C:\Users\rdn\AppData\Local\Temp\cc92LAgm.s 			page 137


 6114 118b 32       		.byte	0x32
 6115 118c 13       		.byte	0x13
 6116 118d B8       		.byte	0xb8
 6117 118e 41       		.byte	0x41
 6118 118f DA       		.byte	0xda
 6119 1190 6C       		.byte	0x6c
 6120 1191 CA       		.byte	0xca
 6121 1192 41       		.byte	0x41
 6122 1193 D1       		.byte	0xd1
 6123 1194 9A       		.byte	0x9a
 6124 1195 DE       		.byte	0xde
 6125 1196 41       		.byte	0x41
 6126 1197 C5       		.byte	0xc5
 6127 1198 CB       		.byte	0xcb
 6128 1199 F4       		.byte	0xf4
 6129 119a 41       		.byte	0x41
 6130 119b 86       		.byte	0x86
 6131 119c 99       		.byte	0x99
 6132 119d 06       		.byte	0x6
 6133 119e 42       		.byte	0x42
 6134 119f 8F       		.byte	0x8f
 6135 11a0 04       		.byte	0x4
 6136 11a1 14       		.byte	0x14
 6137 11a2 42       		.byte	0x42
 6138 11a3 07       		.byte	0x7
 6139 11a4 C6       		.byte	0xc6
 6140 11a5 22       		.byte	0x22
 6141 11a6 42       		.byte	0x42
 6142 11a7 11       		.byte	0x11
 6143 11a8 00       		.byte	0
 6144 11a9 33       		.byte	0x33
 6145 11aa 42       		.byte	0x42
 6146 11ab 37       		.byte	0x37
 6147 11ac D8       		.byte	0xd8
 6148 11ad 44       		.byte	0x44
 6149 11ae 42       		.byte	0x42
 6150 11af C2       		.byte	0xc2
 6151 11b0 77       		.byte	0x77
 6152 11b1 58       		.byte	0x58
 6153 11b2 42       		.byte	0x42
 6154 11b3 18       		.byte	0x18
 6155 11b4 0C       		.byte	0xc
 6156 11b5 6E       		.byte	0x6e
 6157 11b6 42       		.byte	0x42
 6158 11b7 93       		.byte	0x93
 6159 11b8 E3       		.byte	0xe3
 6160 11b9 82       		.byte	0x82
 6161 11ba 42       		.byte	0x42
 6162 11bb E8       		.byte	0xe8
 6163 11bc EF       		.byte	0xef
 6164 11bd 8F       		.byte	0x8f
 6165 11be 42       		.byte	0x42
 6166 11bf 3C       		.byte	0x3c
 6167 11c0 49       		.byte	0x49
 6168 11c1 9E       		.byte	0x9e
 6169 11c2 42       		.byte	0x42
 6170 11c3 C0       		.byte	0xc0
ARM GAS  C:\Users\rdn\AppData\Local\Temp\cc92LAgm.s 			page 138


 6171 11c4 10       		.byte	0x10
 6172 11c5 AE       		.byte	0xae
 6173 11c6 42       		.byte	0x42
 6174 11c7 F7       		.byte	0xf7
 6175 11c8 6A       		.byte	0x6a
 6176 11c9 BF       		.byte	0xbf
 6177 11ca 42       		.byte	0x42
 6178 11cb 04       		.byte	0x4
 6179 11cc 80       		.byte	0x80
 6180 11cd D2       		.byte	0xd2
 6181 11ce 42       		.byte	0x42
 6182 11cf 0D       		.byte	0xd
 6183 11d0 7C       		.byte	0x7c
 6184 11d1 E7       		.byte	0xe7
 6185 11d2 42       		.byte	0x42
 6186 11d3 9F       		.byte	0x9f
 6187 11d4 8F       		.byte	0x8f
 6188 11d5 FE       		.byte	0xfe
 6189 11d6 42       		.byte	0x42
 6190 11d7 0E       		.byte	0xe
 6191 11d8 F8       		.byte	0xf8
 6192 11d9 0B       		.byte	0xb
 6193 11da 43       		.byte	0x43
 6194 11db 1D       		.byte	0x1d
 6195 11dc EC       		.byte	0xec
 6196 11dd 19       		.byte	0x19
 6197 11de 43       		.byte	0x43
 6198 11df 44       		.byte	0x44
 6199 11e0 44       		.byte	0x44
 6200 11e1 29       		.byte	0x29
 6201 11e2 43       		.byte	0x43
 6202 11e3 03       		.byte	0x3
 6203 11e4 24       		.byte	0x24
 6204 11e5 3A       		.byte	0x3a
 6205 11e6 43       		.byte	0x43
 6206 11e7 63       		.byte	0x63
 6207 11e8 B2       		.byte	0xb2
 6208 11e9 4C       		.byte	0x4c
 6209 11ea 43       		.byte	0x43
 6210 11eb 53       		.byte	0x53
 6211 11ec 1A       		.byte	0x1a
 6212 11ed 61       		.byte	0x61
 6213 11ee 43       		.byte	0x43
 6214 11ef 07       		.byte	0x7
 6215 11f0 8B       		.byte	0x8b
 6216 11f1 77       		.byte	0x77
 6217 11f2 43       		.byte	0x43
 6218 11f3 35       		.byte	0x35
 6219 11f4 1C       		.byte	0x1c
 6220 11f5 88       		.byte	0x88
 6221 11f6 43       		.byte	0x43
 6222 11f7 CA       		.byte	0xca
 6223 11f8 AD       		.byte	0xad
 6224 11f9 95       		.byte	0x95
 6225 11fa 43       		.byte	0x43
 6226 11fb A6       		.byte	0xa6
 6227 11fc 99       		.byte	0x99
ARM GAS  C:\Users\rdn\AppData\Local\Temp\cc92LAgm.s 			page 139


 6228 11fd A4       		.byte	0xa4
 6229 11fe 43       		.byte	0x43
 6230 11ff 4E       		.byte	0x4e
 6231 1200 02       		.byte	0x2
 6232 1201 B5       		.byte	0xb5
 6233 1202 43       		.byte	0x43
 6234 1203 B8       		.byte	0xb8
 6235 1204 0D       		.byte	0xd
 6236 1205 C7       		.byte	0xc7
 6237 1206 43       		.byte	0x43
 6238 1207 3B       		.uleb128 0x3b
 6239 1208 B7020000 		.4byte	.LASF112
 6240 120c 01       		.byte	0x1
 6241 120d E9       		.byte	0xe9
 6242 120e 98150000 		.4byte	0x1598
 6243 1212 0001     		.2byte	0x100
 6244 1214 00       		.byte	0
 6245 1215 00       		.byte	0
 6246 1216 80       		.byte	0x80
 6247 1217 3F       		.byte	0x3f
 6248 1218 49       		.byte	0x49
 6249 1219 D5       		.byte	0xd5
 6250 121a 8E       		.byte	0x8e
 6251 121b 3F       		.byte	0x3f
 6252 121c 9E       		.byte	0x9e
 6253 121d 62       		.byte	0x62
 6254 121e 9F       		.byte	0x9f
 6255 121f 3F       		.byte	0x3f
 6256 1220 FD       		.byte	0xfd
 6257 1221 DA       		.byte	0xda
 6258 1222 B1       		.byte	0xb1
 6259 1223 3F       		.byte	0x3f
 6260 1224 4D       		.byte	0x4d
 6261 1225 77       		.byte	0x77
 6262 1226 C6       		.byte	0xc6
 6263 1227 3F       		.byte	0x3f
 6264 1228 0E       		.byte	0xe
 6265 1229 77       		.byte	0x77
 6266 122a DD       		.byte	0xdd
 6267 122b 3F       		.byte	0x3f
 6268 122c 1A       		.byte	0x1a
 6269 122d 21       		.byte	0x21
 6270 122e F7       		.byte	0xf7
 6271 122f 3F       		.byte	0x3f
 6272 1230 42       		.byte	0x42
 6273 1231 E2       		.byte	0xe2
 6274 1232 09       		.byte	0x9
 6275 1233 40       		.byte	0x40
 6276 1234 C3       		.byte	0xc3
 6277 1235 DC       		.byte	0xdc
 6278 1236 19       		.byte	0x19
 6279 1237 40       		.byte	0x40
 6280 1238 4A       		.byte	0x4a
 6281 1239 B1       		.byte	0xb1
 6282 123a 2B       		.byte	0x2b
 6283 123b 40       		.byte	0x40
 6284 123c C5       		.byte	0xc5
ARM GAS  C:\Users\rdn\AppData\Local\Temp\cc92LAgm.s 			page 140


 6285 123d 96       		.byte	0x96
 6286 123e 3F       		.byte	0x3f
 6287 123f 40       		.byte	0x40
 6288 1240 82       		.byte	0x82
 6289 1241 CA       		.byte	0xca
 6290 1242 55       		.byte	0x55
 6291 1243 40       		.byte	0x40
 6292 1244 E5       		.byte	0xe5
 6293 1245 90       		.byte	0x90
 6294 1246 6E       		.byte	0x6e
 6295 1247 40       		.byte	0x40
 6296 1248 22       		.byte	0x22
 6297 1249 1B       		.byte	0x1b
 6298 124a 85       		.byte	0x85
 6299 124b 40       		.byte	0x40
 6300 124c E5       		.byte	0xe5
 6301 124d 87       		.byte	0x87
 6302 124e 94       		.byte	0x94
 6303 124f 40       		.byte	0x40
 6304 1250 42       		.byte	0x42
 6305 1251 BE       		.byte	0xbe
 6306 1252 A5       		.byte	0xa5
 6307 1253 40       		.byte	0x40
 6308 1254 3E       		.byte	0x3e
 6309 1255 F3       		.byte	0xf3
 6310 1256 B8       		.byte	0xb8
 6311 1257 40       		.byte	0x40
 6312 1258 08       		.byte	0x8
 6313 1259 62       		.byte	0x62
 6314 125a CE       		.byte	0xce
 6315 125b 40       		.byte	0x40
 6316 125c A6       		.byte	0xa6
 6317 125d 4C       		.byte	0x4c
 6318 125e E6       		.byte	0xe6
 6319 125f 40       		.byte	0x40
 6320 1260 64       		.byte	0x64
 6321 1261 7E       		.byte	0x7e
 6322 1262 00       		.byte	0
 6323 1263 41       		.byte	0x41
 6324 1264 53       		.byte	0x53
 6325 1265 62       		.byte	0x62
 6326 1266 0F       		.byte	0xf
 6327 1267 41       		.byte	0x41
 6328 1268 00       		.byte	0
 6329 1269 00       		.byte	0
 6330 126a 20       		.byte	0x20
 6331 126b 41       		.byte	0x41
 6332 126c 9C       		.byte	0x9c
 6333 126d 8A       		.byte	0x8a
 6334 126e 32       		.byte	0x32
 6335 126f 41       		.byte	0x41
 6336 1270 46       		.byte	0x46
 6337 1271 3B       		.byte	0x3b
 6338 1272 47       		.byte	0x47
 6339 1273 41       		.byte	0x41
 6340 1274 BC       		.byte	0xbc
 6341 1275 51       		.byte	0x51
ARM GAS  C:\Users\rdn\AppData\Local\Temp\cc92LAgm.s 			page 141


 6342 1276 5E       		.byte	0x5e
 6343 1277 41       		.byte	0x41
 6344 1278 20       		.byte	0x20
 6345 1279 15       		.byte	0x15
 6346 127a 78       		.byte	0x78
 6347 127b 41       		.byte	0x41
 6348 127c 69       		.byte	0x69
 6349 127d 6A       		.byte	0x6a
 6350 127e 8A       		.byte	0x8a
 6351 127f 41       		.byte	0x41
 6352 1280 B1       		.byte	0xb1
 6353 1281 74       		.byte	0x74
 6354 1282 9A       		.byte	0x9a
 6355 1283 41       		.byte	0x41
 6356 1284 D3       		.byte	0xd3
 6357 1285 5A       		.byte	0x5a
 6358 1286 AC       		.byte	0xac
 6359 1287 41       		.byte	0x41
 6360 1288 F4       		.byte	0xf4
 6361 1289 53       		.byte	0x53
 6362 128a C0       		.byte	0xc0
 6363 128b 41       		.byte	0x41
 6364 128c 9C       		.byte	0x9c
 6365 128d 9D       		.byte	0x9d
 6366 128e D6       		.byte	0xd6
 6367 128f 41       		.byte	0x41
 6368 1290 77       		.byte	0x77
 6369 1291 7C       		.byte	0x7c
 6370 1292 EF       		.byte	0xef
 6371 1293 41       		.byte	0x41
 6372 1294 91       		.byte	0x91
 6373 1295 9E       		.byte	0x9e
 6374 1296 05       		.byte	0x5
 6375 1297 42       		.byte	0x42
 6376 1298 8F       		.byte	0x8f
 6377 1299 1A       		.byte	0x1a
 6378 129a 15       		.byte	0x15
 6379 129b 42       		.byte	0x42
 6380 129c EB       		.byte	0xeb
 6381 129d 61       		.byte	0x61
 6382 129e 26       		.byte	0x26
 6383 129f 42       		.byte	0x42
 6384 12a0 DF       		.byte	0xdf
 6385 12a1 A9       		.byte	0xa9
 6386 12a2 39       		.byte	0x39
 6387 12a3 42       		.byte	0x42
 6388 12a4 D2       		.byte	0xd2
 6389 12a5 2D       		.byte	0x2d
 6390 12a6 4F       		.byte	0x4f
 6391 12a7 42       		.byte	0x42
 6392 12a8 0E       		.byte	0xe
 6393 12a9 30       		.byte	0x30
 6394 12aa 67       		.byte	0x67
 6395 12ab 42       		.byte	0x42
 6396 12ac 45       		.byte	0x45
 6397 12ad FD       		.byte	0xfd
 6398 12ae 80       		.byte	0x80
ARM GAS  C:\Users\rdn\AppData\Local\Temp\cc92LAgm.s 			page 142


 6399 12af 42       		.byte	0x42
 6400 12b0 E8       		.byte	0xe8
 6401 12b1 EF       		.byte	0xef
 6402 12b2 8F       		.byte	0x8f
 6403 12b3 42       		.byte	0x42
 6404 12b4 FD       		.byte	0xfd
 6405 12b5 9D       		.byte	0x9d
 6406 12b6 A0       		.byte	0xa0
 6407 12b7 42       		.byte	0x42
 6408 12b8 E8       		.byte	0xe8
 6409 12b9 3A       		.byte	0x3a
 6410 12ba B3       		.byte	0xb3
 6411 12bb 42       		.byte	0x42
 6412 12bc 00       		.byte	0
 6413 12bd 00       		.byte	0
 6414 12be C8       		.byte	0xc8
 6415 12bf 42       		.byte	0x42
 6416 12c0 43       		.byte	0x43
 6417 12c1 2D       		.byte	0x2d
 6418 12c2 DF       		.byte	0xdf
 6419 12c3 42       		.byte	0x42
 6420 12c4 17       		.byte	0x17
 6421 12c5 0A       		.byte	0xa
 6422 12c6 F9       		.byte	0xf9
 6423 12c7 42       		.byte	0x42
 6424 12c8 16       		.byte	0x16
 6425 12c9 F3       		.byte	0xf3
 6426 12ca 0A       		.byte	0xa
 6427 12cb 43       		.byte	0x43
 6428 12cc 34       		.byte	0x34
 6429 12cd 0D       		.byte	0xd
 6430 12ce 1B       		.byte	0x1b
 6431 12cf 43       		.byte	0x43
 6432 12d0 03       		.byte	0x3
 6433 12d1 05       		.byte	0x5
 6434 12d2 2D       		.byte	0x2d
 6435 12d3 43       		.byte	0x43
 6436 12d4 DD       		.byte	0xdd
 6437 12d5 11       		.byte	0x11
 6438 12d6 41       		.byte	0x41
 6439 12d7 43       		.byte	0x43
 6440 12d8 87       		.byte	0x87
 6441 12d9 71       		.byte	0x71
 6442 12da 57       		.byte	0x57
 6443 12db 43       		.byte	0x43
 6444 12dc F0       		.byte	0xf0
 6445 12dd 68       		.byte	0x68
 6446 12de 70       		.byte	0x70
 6447 12df 43       		.byte	0x43
 6448 12e0 82       		.byte	0x82
 6449 12e1 22       		.byte	0x22
 6450 12e2 86       		.byte	0x86
 6451 12e3 43       		.byte	0x43
 6452 12e4 CA       		.byte	0xca
 6453 12e5 AD       		.byte	0xad
 6454 12e6 95       		.byte	0x95
 6455 12e7 43       		.byte	0x43
ARM GAS  C:\Users\rdn\AppData\Local\Temp\cc92LAgm.s 			page 143


 6456 12e8 35       		.byte	0x35
 6457 12e9 06       		.byte	0x6
 6458 12ea A7       		.byte	0xa7
 6459 12eb 43       		.byte	0x43
 6460 12ec 33       		.byte	0x33
 6461 12ed 61       		.byte	0x61
 6462 12ee BA       		.byte	0xba
 6463 12ef 43       		.byte	0x43
 6464 12f0 65       		.byte	0x65
 6465 12f1 FA       		.byte	0xfa
 6466 12f2 CF       		.byte	0xcf
 6467 12f3 43       		.byte	0x43
 6468 12f4 56       		.byte	0x56
 6469 12f5 14       		.byte	0x14
 6470 12f6 E8       		.byte	0xe8
 6471 12f7 43       		.byte	0x43
 6472 12f8 A3       		.byte	0xa3
 6473 12f9 7C       		.byte	0x7c
 6474 12fa 01       		.byte	0x1
 6475 12fb 44       		.byte	0x44
 6476 12fc 09       		.byte	0x9
 6477 12fd 7E       		.byte	0x7e
 6478 12fe 10       		.byte	0x10
 6479 12ff 44       		.byte	0x44
 6480 1300 96       		.byte	0x96
 6481 1301 3C       		.byte	0x3c
 6482 1302 21       		.byte	0x21
 6483 1303 44       		.byte	0x44
 6484 1304 E2       		.byte	0xe2
 6485 1305 EB       		.byte	0xeb
 6486 1306 33       		.byte	0x33
 6487 1307 44       		.byte	0x44
 6488 1308 7C       		.byte	0x7c
 6489 1309 C5       		.byte	0xc5
 6490 130a 48       		.byte	0x48
 6491 130b 44       		.byte	0x44
 6492 130c A2       		.byte	0xa2
 6493 130d 09       		.byte	0x9
 6494 130e 60       		.byte	0x60
 6495 130f 44       		.byte	0x44
 6496 1310 00       		.byte	0
 6497 1311 00       		.byte	0
 6498 1312 7A       		.byte	0x7a
 6499 1313 44       		.byte	0x44
 6500 1314 3B       		.uleb128 0x3b
 6501 1315 C8020000 		.4byte	.LASF113
 6502 1319 01       		.byte	0x1
 6503 131a FD       		.byte	0xfd
 6504 131b 9D150000 		.4byte	0x159d
 6505 131f 0001     		.2byte	0x100
 6506 1321 00       		.byte	0
 6507 1322 00       		.byte	0
 6508 1323 80       		.byte	0x80
 6509 1324 3F       		.byte	0x3f
 6510 1325 C8       		.byte	0xc8
 6511 1326 EF       		.byte	0xef
 6512 1327 90       		.byte	0x90
ARM GAS  C:\Users\rdn\AppData\Local\Temp\cc92LAgm.s 			page 144


 6513 1328 3F       		.byte	0x3f
 6514 1329 44       		.byte	0x44
 6515 132a 1D       		.byte	0x1d
 6516 132b A4       		.byte	0xa4
 6517 132c 3F       		.byte	0x3f
 6518 132d 5C       		.byte	0x5c
 6519 132e D4       		.byte	0xd4
 6520 132f B9       		.byte	0xb9
 6521 1330 3F       		.byte	0x3f
 6522 1331 05       		.byte	0x5
 6523 1332 6B       		.byte	0x6b
 6524 1333 D2       		.byte	0xd2
 6525 1334 3F       		.byte	0x3f
 6526 1335 93       		.byte	0x93
 6527 1336 42       		.byte	0x42
 6528 1337 EE       		.byte	0xee
 6529 1338 3F       		.byte	0x3f
 6530 1339 9D       		.byte	0x9d
 6531 133a E4       		.byte	0xe4
 6532 133b 06       		.byte	0x6
 6533 133c 40       		.byte	0x40
 6534 133d E3       		.byte	0xe3
 6535 133e BD       		.byte	0xbd
 6536 133f 18       		.byte	0x18
 6537 1340 40       		.byte	0x40
 6538 1341 C1       		.byte	0xc1
 6539 1342 F3       		.byte	0xf3
 6540 1343 2C       		.byte	0x2c
 6541 1344 40       		.byte	0x40
 6542 1345 37       		.byte	0x37
 6543 1346 D6       		.byte	0xd6
 6544 1347 43       		.byte	0x43
 6545 1348 40       		.byte	0x40
 6546 1349 DB       		.byte	0xdb
 6547 134a BF       		.byte	0xbf
 6548 134b 5D       		.byte	0x5d
 6549 134c 40       		.byte	0x40
 6550 134d 3D       		.byte	0x3d
 6551 134e 17       		.byte	0x17
 6552 134f 7B       		.byte	0x7b
 6553 1350 40       		.byte	0x40
 6554 1351 42       		.byte	0x42
 6555 1352 28       		.byte	0x28
 6556 1353 8E       		.byte	0x8e
 6557 1354 40       		.byte	0x40
 6558 1355 98       		.byte	0x98
 6559 1356 F7       		.byte	0xf7
 6560 1357 A0       		.byte	0xa0
 6561 1358 40       		.byte	0x40
 6562 1359 15       		.byte	0x15
 6563 135a 44       		.byte	0x44
 6564 135b B6       		.byte	0xb6
 6565 135c 40       		.byte	0x40
 6566 135d 08       		.byte	0x8
 6567 135e 62       		.byte	0x62
 6568 135f CE       		.byte	0xce
 6569 1360 40       		.byte	0x40
ARM GAS  C:\Users\rdn\AppData\Local\Temp\cc92LAgm.s 			page 145


 6570 1361 E7       		.byte	0xe7
 6571 1362 B0       		.byte	0xb0
 6572 1363 E9       		.byte	0xe9
 6573 1364 40       		.byte	0x40
 6574 1365 65       		.byte	0x65
 6575 1366 4E       		.byte	0x4e
 6576 1367 04       		.byte	0x4
 6577 1368 41       		.byte	0x41
 6578 1369 0B       		.byte	0xb
 6579 136a D0       		.byte	0xd0
 6580 136b 15       		.byte	0x15
 6581 136c 41       		.byte	0x41
 6582 136d B2       		.byte	0xb2
 6583 136e A2       		.byte	0xa2
 6584 136f 29       		.byte	0x29
 6585 1370 41       		.byte	0x41
 6586 1371 CF       		.byte	0xcf
 6587 1372 14       		.byte	0x14
 6588 1373 40       		.byte	0x40
 6589 1374 41       		.byte	0x41
 6590 1375 3D       		.byte	0x3d
 6591 1376 7F       		.byte	0x7f
 6592 1377 59       		.byte	0x59
 6593 1378 41       		.byte	0x41
 6594 1379 95       		.byte	0x95
 6595 137a 46       		.byte	0x46
 6596 137b 76       		.byte	0x76
 6597 137c 41       		.byte	0x41
 6598 137d 60       		.byte	0x60
 6599 137e 6E       		.byte	0x6e
 6600 137f 8B       		.byte	0x8b
 6601 1380 41       		.byte	0x41
 6602 1381 5F       		.byte	0x5f
 6603 1382 E1       		.byte	0xe1
 6604 1383 9D       		.byte	0x9d
 6605 1384 41       		.byte	0x41
 6606 1385 4C       		.byte	0x4c
 6607 1386 C5       		.byte	0xc5
 6608 1387 B2       		.byte	0xb2
 6609 1388 41       		.byte	0x41
 6610 1389 DA       		.byte	0xda
 6611 138a 6C       		.byte	0x6c
 6612 138b CA       		.byte	0xca
 6613 138c 41       		.byte	0x41
 6614 138d AA       		.byte	0xaa
 6615 138e 35       		.byte	0x35
 6616 138f E5       		.byte	0xe5
 6617 1390 41       		.byte	0x41
 6618 1391 E0       		.byte	0xe0
 6619 1392 C4       		.byte	0xc4
 6620 1393 01       		.byte	0x1
 6621 1394 42       		.byte	0x42
 6622 1395 95       		.byte	0x95
 6623 1396 F0       		.byte	0xf0
 6624 1397 12       		.byte	0x12
 6625 1398 42       		.byte	0x42
 6626 1399 EB       		.byte	0xeb
ARM GAS  C:\Users\rdn\AppData\Local\Temp\cc92LAgm.s 			page 146


 6627 139a 61       		.byte	0x61
 6628 139b 26       		.byte	0x26
 6629 139c 42       		.byte	0x42
 6630 139d D7       		.byte	0xd7
 6631 139e 65       		.byte	0x65
 6632 139f 3C       		.byte	0x3c
 6633 13a0 42       		.byte	0x42
 6634 13a1 7F       		.byte	0x7f
 6635 13a2 53       		.byte	0x53
 6636 13a3 55       		.byte	0x55
 6637 13a4 42       		.byte	0x42
 6638 13a5 8F       		.byte	0x8f
 6639 13a6 8D       		.byte	0x8d
 6640 13a7 71       		.byte	0x71
 6641 13a8 42       		.byte	0x42
 6642 13a9 E1       		.byte	0xe1
 6643 13aa C1       		.byte	0xc1
 6644 13ab 88       		.byte	0x88
 6645 13ac 42       		.byte	0x42
 6646 13ad 4D       		.byte	0x4d
 6647 13ae DA       		.byte	0xda
 6648 13af 9A       		.byte	0x9a
 6649 13b0 42       		.byte	0x42
 6650 13b1 AD       		.byte	0xad
 6651 13b2 57       		.byte	0x57
 6652 13b3 AF       		.byte	0xaf
 6653 13b4 42       		.byte	0x42
 6654 13b5 1A       		.byte	0x1a
 6655 13b6 8B       		.byte	0x8b
 6656 13b7 C6       		.byte	0xc6
 6657 13b8 42       		.byte	0x42
 6658 13b9 6C       		.byte	0x6c
 6659 13ba D0       		.byte	0xd0
 6660 13bb E0       		.byte	0xe0
 6661 13bc 42       		.byte	0x42
 6662 13bd 9F       		.byte	0x9f
 6663 13be 8F       		.byte	0x8f
 6664 13bf FE       		.byte	0xfe
 6665 13c0 42       		.byte	0x42
 6666 13c1 39       		.byte	0x39
 6667 13c2 1F       		.byte	0x1f
 6668 13c3 10       		.byte	0x10
 6669 13c4 43       		.byte	0x43
 6670 13c5 1C       		.byte	0x1c
 6671 13c6 31       		.byte	0x31
 6672 13c7 23       		.byte	0x23
 6673 13c8 43       		.byte	0x43
 6674 13c9 F4       		.byte	0xf4
 6675 13ca C8       		.byte	0xc8
 6676 13cb 38       		.byte	0x38
 6677 13cc 43       		.byte	0x43
 6678 13cd 3C       		.byte	0x3c
 6679 13ce 3C       		.byte	0x3c
 6680 13cf 51       		.byte	0x51
 6681 13d0 43       		.byte	0x43
 6682 13d1 B9       		.byte	0xb9
 6683 13d2 EB       		.byte	0xeb
ARM GAS  C:\Users\rdn\AppData\Local\Temp\cc92LAgm.s 			page 147


 6684 13d3 6C       		.byte	0x6c
 6685 13d4 43       		.byte	0x43
 6686 13d5 82       		.byte	0x82
 6687 13d6 22       		.byte	0x22
 6688 13d7 86       		.byte	0x86
 6689 13d8 43       		.byte	0x43
 6690 13d9 18       		.byte	0x18
 6691 13da E2       		.byte	0xe2
 6692 13db 97       		.byte	0x97
 6693 13dc 43       		.byte	0x43
 6694 13dd E1       		.byte	0xe1
 6695 13de FA       		.byte	0xfa
 6696 13df AB       		.byte	0xab
 6697 13e0 43       		.byte	0x43
 6698 13e1 69       		.byte	0x69
 6699 13e2 BC       		.byte	0xbc
 6700 13e3 C2       		.byte	0xc2
 6701 13e4 43       		.byte	0x43
 6702 13e5 C3       		.byte	0xc3
 6703 13e6 80       		.byte	0x80
 6704 13e7 DC       		.byte	0xdc
 6705 13e8 43       		.byte	0x43
 6706 13e9 ED       		.byte	0xed
 6707 13ea AD       		.byte	0xad
 6708 13eb F9       		.byte	0xf9
 6709 13ec 43       		.byte	0x43
 6710 13ed B2       		.byte	0xb2
 6711 13ee 5B       		.byte	0x5b
 6712 13ef 0D       		.byte	0xd
 6713 13f0 44       		.byte	0x44
 6714 13f1 F7       		.byte	0xf7
 6715 13f2 0F       		.byte	0xf
 6716 13f3 20       		.byte	0x20
 6717 13f4 44       		.byte	0x44
 6718 13f5 CE       		.byte	0xce
 6719 13f6 3D       		.byte	0x3d
 6720 13f7 35       		.byte	0x35
 6721 13f8 44       		.byte	0x44
 6722 13f9 0D       		.byte	0xd
 6723 13fa 39       		.byte	0x39
 6724 13fb 4D       		.byte	0x4d
 6725 13fc 44       		.byte	0x44
 6726 13fd A0       		.byte	0xa0
 6727 13fe 60       		.byte	0x60
 6728 13ff 68       		.byte	0x68
 6729 1400 44       		.byte	0x44
 6730 1401 02       		.byte	0x2
 6731 1402 90       		.byte	0x90
 6732 1403 83       		.byte	0x83
 6733 1404 44       		.byte	0x44
 6734 1405 78       		.byte	0x78
 6735 1406 F8       		.byte	0xf8
 6736 1407 94       		.byte	0x94
 6737 1408 44       		.byte	0x44
 6738 1409 98       		.byte	0x98
 6739 140a AE       		.byte	0xae
 6740 140b A8       		.byte	0xa8
ARM GAS  C:\Users\rdn\AppData\Local\Temp\cc92LAgm.s 			page 148


 6741 140c 44       		.byte	0x44
 6742 140d 69       		.byte	0x69
 6743 140e 00       		.byte	0
 6744 140f BF       		.byte	0xbf
 6745 1410 44       		.byte	0x44
 6746 1411 44       		.byte	0x44
 6747 1412 46       		.byte	0x46
 6748 1413 D8       		.byte	0xd8
 6749 1414 44       		.byte	0x44
 6750 1415 32       		.byte	0x32
 6751 1416 E4       		.byte	0xe4
 6752 1417 F4       		.byte	0xf4
 6753 1418 44       		.byte	0x44
 6754 1419 BD       		.byte	0xbd
 6755 141a A5       		.byte	0xa5
 6756 141b 0A       		.byte	0xa
 6757 141c 45       		.byte	0x45
 6758 141d 2F       		.byte	0x2f
 6759 141e FE       		.byte	0xfe
 6760 141f 1C       		.byte	0x1c
 6761 1420 45       		.byte	0x45
 6762 1421 29       		.uleb128 0x29
 6763 1422 B8010000 		.4byte	.LASF114
 6764 1426 01       		.byte	0x1
 6765 1427 1101     		.2byte	0x111
 6766 1429 B2150000 		.4byte	0x15b2
 6767 142d 20       		.uleb128 0x20
 6768 142e 6500     		.ascii	"e\000"
 6769 1430 01       		.byte	0x1
 6770 1431 1C01     		.2byte	0x11c
 6771 1433 D0090000 		.4byte	0x9d0
 6772 1437 20       		.uleb128 0x20
 6773 1438 6E6200   		.ascii	"nb\000"
 6774 143b 01       		.byte	0x1
 6775 143c 2001     		.2byte	0x120
 6776 143e 85000000 		.4byte	0x85
 6777 1442 20       		.uleb128 0x20
 6778 1443 6E3400   		.ascii	"n4\000"
 6779 1446 01       		.byte	0x1
 6780 1447 2101     		.2byte	0x121
 6781 1449 85000000 		.4byte	0x85
 6782 144d 20       		.uleb128 0x20
 6783 144e 6E3200   		.ascii	"n2\000"
 6784 1451 01       		.byte	0x1
 6785 1452 2201     		.2byte	0x122
 6786 1454 85000000 		.4byte	0x85
 6787 1458 20       		.uleb128 0x20
 6788 1459 676500   		.ascii	"ge\000"
 6789 145c 01       		.byte	0x1
 6790 145d 2F01     		.2byte	0x12f
 6791 145f 16030000 		.4byte	0x316
 6792 1463 20       		.uleb128 0x20
 6793 1464 653000   		.ascii	"e0\000"
 6794 1467 01       		.byte	0x1
 6795 1468 3101     		.2byte	0x131
 6796 146a 25000000 		.4byte	0x25
 6797 146e 20       		.uleb128 0x20
ARM GAS  C:\Users\rdn\AppData\Local\Temp\cc92LAgm.s 			page 149


 6798 146f 653100   		.ascii	"e1\000"
 6799 1472 01       		.byte	0x1
 6800 1473 3101     		.2byte	0x131
 6801 1475 25000000 		.4byte	0x25
 6802 1479 20       		.uleb128 0x20
 6803 147a 653200   		.ascii	"e2\000"
 6804 147d 01       		.byte	0x1
 6805 147e 3101     		.2byte	0x131
 6806 1480 25000000 		.4byte	0x25
 6807 1484 29       		.uleb128 0x29
 6808 1485 20070000 		.4byte	.LASF115
 6809 1489 01       		.byte	0x1
 6810 148a 3201     		.2byte	0x132
 6811 148c 25000000 		.4byte	0x25
 6812 1490 29       		.uleb128 0x29
 6813 1491 BC060000 		.4byte	.LASF116
 6814 1495 01       		.byte	0x1
 6815 1496 4201     		.2byte	0x142
 6816 1498 25000000 		.4byte	0x25
 6817 149c 29       		.uleb128 0x29
 6818 149d 75010000 		.4byte	.LASF117
 6819 14a1 01       		.byte	0x1
 6820 14a2 4901     		.2byte	0x149
 6821 14a4 25000000 		.4byte	0x25
 6822 14a8 20       		.uleb128 0x20
 6823 14a9 636600   		.ascii	"cf\000"
 6824 14ac 01       		.byte	0x1
 6825 14ad 5C01     		.2byte	0x15c
 6826 14af 25000000 		.4byte	0x25
 6827 14b3 20       		.uleb128 0x20
 6828 14b4 733000   		.ascii	"s0\000"
 6829 14b7 01       		.byte	0x1
 6830 14b8 6901     		.2byte	0x169
 6831 14ba 25000000 		.4byte	0x25
 6832 14be 20       		.uleb128 0x20
 6833 14bf 733100   		.ascii	"s1\000"
 6834 14c2 01       		.byte	0x1
 6835 14c3 6901     		.2byte	0x169
 6836 14c5 25000000 		.4byte	0x25
 6837 14c9 20       		.uleb128 0x20
 6838 14ca 733200   		.ascii	"s2\000"
 6839 14cd 01       		.byte	0x1
 6840 14ce 6901     		.2byte	0x169
 6841 14d0 25000000 		.4byte	0x25
 6842 14d4 20       		.uleb128 0x20
 6843 14d5 733300   		.ascii	"s3\000"
 6844 14d8 01       		.byte	0x1
 6845 14d9 6901     		.2byte	0x169
 6846 14db 25000000 		.4byte	0x25
 6847 14df 20       		.uleb128 0x20
 6848 14e0 733400   		.ascii	"s4\000"
 6849 14e3 01       		.byte	0x1
 6850 14e4 6901     		.2byte	0x169
 6851 14e6 25000000 		.4byte	0x25
 6852 14ea 20       		.uleb128 0x20
 6853 14eb 736E00   		.ascii	"sn\000"
 6854 14ee 01       		.byte	0x1
ARM GAS  C:\Users\rdn\AppData\Local\Temp\cc92LAgm.s 			page 150


 6855 14ef 6A01     		.2byte	0x16a
 6856 14f1 25000000 		.4byte	0x25
 6857 14f5 39       		.uleb128 0x39
 6858 14f6 06150000 		.4byte	0x1506
 6859 14fa 20       		.uleb128 0x20
 6860 14fb 693400   		.ascii	"i4\000"
 6861 14fe 01       		.byte	0x1
 6862 14ff 2401     		.2byte	0x124
 6863 1501 85000000 		.4byte	0x85
 6864 1505 00       		.byte	0
 6865 1506 39       		.uleb128 0x39
 6866 1507 17150000 		.4byte	0x1517
 6867 150b 20       		.uleb128 0x20
 6868 150c 693200   		.ascii	"i2\000"
 6869 150f 01       		.byte	0x1
 6870 1510 2801     		.2byte	0x128
 6871 1512 85000000 		.4byte	0x85
 6872 1516 00       		.byte	0
 6873 1517 39       		.uleb128 0x39
 6874 1518 27150000 		.4byte	0x1527
 6875 151c 20       		.uleb128 0x20
 6876 151d 6900     		.ascii	"i\000"
 6877 151f 01       		.byte	0x1
 6878 1520 3401     		.2byte	0x134
 6879 1522 85000000 		.4byte	0x85
 6880 1526 00       		.byte	0
 6881 1527 39       		.uleb128 0x39
 6882 1528 37150000 		.4byte	0x1537
 6883 152c 20       		.uleb128 0x20
 6884 152d 6900     		.ascii	"i\000"
 6885 152f 01       		.byte	0x1
 6886 1530 4401     		.2byte	0x144
 6887 1532 85000000 		.4byte	0x85
 6888 1536 00       		.byte	0
 6889 1537 39       		.uleb128 0x39
 6890 1538 47150000 		.4byte	0x1547
 6891 153c 20       		.uleb128 0x20
 6892 153d 6900     		.ascii	"i\000"
 6893 153f 01       		.byte	0x1
 6894 1540 5001     		.2byte	0x150
 6895 1542 85000000 		.4byte	0x85
 6896 1546 00       		.byte	0
 6897 1547 39       		.uleb128 0x39
 6898 1548 57150000 		.4byte	0x1557
 6899 154c 20       		.uleb128 0x20
 6900 154d 6900     		.ascii	"i\000"
 6901 154f 01       		.byte	0x1
 6902 1550 6101     		.2byte	0x161
 6903 1552 85000000 		.4byte	0x85
 6904 1556 00       		.byte	0
 6905 1557 39       		.uleb128 0x39
 6906 1558 67150000 		.4byte	0x1567
 6907 155c 20       		.uleb128 0x20
 6908 155d 6900     		.ascii	"i\000"
 6909 155f 01       		.byte	0x1
 6910 1560 7001     		.2byte	0x170
 6911 1562 85000000 		.4byte	0x85
ARM GAS  C:\Users\rdn\AppData\Local\Temp\cc92LAgm.s 			page 151


 6912 1566 00       		.byte	0
 6913 1567 18       		.uleb128 0x18
 6914 1568 20       		.uleb128 0x20
 6915 1569 6900     		.ascii	"i\000"
 6916 156b 01       		.byte	0x1
 6917 156c 7A01     		.2byte	0x17a
 6918 156e 85000000 		.4byte	0x85
 6919 1572 00       		.byte	0
 6920 1573 00       		.byte	0
 6921 1574 27       		.uleb128 0x27
 6922 1575 1C030000 		.4byte	0x31c
 6923 1579 84150000 		.4byte	0x1584
 6924 157d 28       		.uleb128 0x28
 6925 157e 2B010000 		.4byte	0x12b
 6926 1582 3F       		.byte	0x3f
 6927 1583 00       		.byte	0
 6928 1584 0B       		.uleb128 0xb
 6929 1585 74150000 		.4byte	0x1574
 6930 1589 0B       		.uleb128 0xb
 6931 158a 74150000 		.4byte	0x1574
 6932 158e 0B       		.uleb128 0xb
 6933 158f 74150000 		.4byte	0x1574
 6934 1593 0B       		.uleb128 0xb
 6935 1594 74150000 		.4byte	0x1574
 6936 1598 0B       		.uleb128 0xb
 6937 1599 74150000 		.4byte	0x1574
 6938 159d 0B       		.uleb128 0xb
 6939 159e 74150000 		.4byte	0x1574
 6940 15a2 27       		.uleb128 0x27
 6941 15a3 16030000 		.4byte	0x316
 6942 15a7 B2150000 		.4byte	0x15b2
 6943 15ab 28       		.uleb128 0x28
 6944 15ac 2B010000 		.4byte	0x12b
 6945 15b0 06       		.byte	0x6
 6946 15b1 00       		.byte	0
 6947 15b2 0B       		.uleb128 0xb
 6948 15b3 A2150000 		.4byte	0x15a2
 6949 15b7 0C       		.uleb128 0xc
 6950 15b8 E2030000 		.4byte	.LASF118
 6951 15bc 02       		.byte	0x2
 6952 15bd 7E       		.byte	0x7e
 6953 15be 25000000 		.4byte	0x25
 6954 15c2 03       		.byte	0x3
 6955 15c3 01160000 		.4byte	0x1601
 6956 15c7 0D       		.uleb128 0xd
 6957 15c8 7800     		.ascii	"x\000"
 6958 15ca 02       		.byte	0x2
 6959 15cb 7E       		.byte	0x7e
 6960 15cc 25000000 		.4byte	0x25
 6961 15d0 19       		.uleb128 0x19
 6962 15d1 7900     		.ascii	"y\000"
 6963 15d3 02       		.byte	0x2
 6964 15d4 80       		.byte	0x80
 6965 15d5 25000000 		.4byte	0x25
 6966 15d9 19       		.uleb128 0x19
 6967 15da 6500     		.ascii	"e\000"
 6968 15dc 02       		.byte	0x2
ARM GAS  C:\Users\rdn\AppData\Local\Temp\cc92LAgm.s 			page 152


 6969 15dd 81       		.byte	0x81
 6970 15de 85000000 		.4byte	0x85
 6971 15e2 23       		.uleb128 0x23
 6972 15e3 6300     		.ascii	"c\000"
 6973 15e5 02       		.byte	0x2
 6974 15e6 85       		.byte	0x85
 6975 15e7 11160000 		.4byte	0x1611
 6976 15eb 14       		.byte	0x14
 6977 15ec E7       		.byte	0xe7
 6978 15ed BB       		.byte	0xbb
 6979 15ee A5       		.byte	0xa5
 6980 15ef BF       		.byte	0xbf
 6981 15f0 1E       		.byte	0x1e
 6982 15f1 C4       		.byte	0xc4
 6983 15f2 A3       		.byte	0xa3
 6984 15f3 40       		.byte	0x40
 6985 15f4 6A       		.byte	0x6a
 6986 15f5 C4       		.byte	0xc4
 6987 15f6 06       		.byte	0x6
 6988 15f7 C1       		.byte	0xc1
 6989 15f8 74       		.byte	0x74
 6990 15f9 B0       		.byte	0xb0
 6991 15fa 01       		.byte	0x1
 6992 15fb 41       		.byte	0x41
 6993 15fc F5       		.byte	0xf5
 6994 15fd 5C       		.byte	0x5c
 6995 15fe 60       		.byte	0x60
 6996 15ff C0       		.byte	0xc0
 6997 1600 00       		.byte	0
 6998 1601 27       		.uleb128 0x27
 6999 1602 1C030000 		.4byte	0x31c
 7000 1606 11160000 		.4byte	0x1611
 7001 160a 28       		.uleb128 0x28
 7002 160b 2B010000 		.4byte	0x12b
 7003 160f 04       		.byte	0x4
 7004 1610 00       		.byte	0
 7005 1611 0B       		.uleb128 0xb
 7006 1612 01160000 		.4byte	0x1601
 7007 1616 0C       		.uleb128 0xc
 7008 1617 97000000 		.4byte	.LASF119
 7009 161b 02       		.byte	0x2
 7010 161c 3B       		.byte	0x3b
 7011 161d 25000000 		.4byte	0x25
 7012 1621 03       		.byte	0x3
 7013 1622 69160000 		.4byte	0x1669
 7014 1626 0D       		.uleb128 0xd
 7015 1627 5F7800   		.ascii	"_x\000"
 7016 162a 02       		.byte	0x2
 7017 162b 3B       		.byte	0x3b
 7018 162c 25000000 		.4byte	0x25
 7019 1630 0D       		.uleb128 0xd
 7020 1631 65787000 		.ascii	"exp\000"
 7021 1635 02       		.byte	0x2
 7022 1636 3B       		.byte	0x3b
 7023 1637 37040000 		.4byte	0x437
 7024 163b 24       		.uleb128 0x24
 7025 163c 04       		.byte	0x4
ARM GAS  C:\Users\rdn\AppData\Local\Temp\cc92LAgm.s 			page 153


 7026 163d 02       		.byte	0x2
 7027 163e 3C       		.byte	0x3c
 7028 163f 56160000 		.4byte	0x1656
 7029 1643 25       		.uleb128 0x25
 7030 1644 6600     		.ascii	"f\000"
 7031 1646 02       		.byte	0x2
 7032 1647 3C       		.byte	0x3c
 7033 1648 25000000 		.4byte	0x25
 7034 164c 25       		.uleb128 0x25
 7035 164d 7500     		.ascii	"u\000"
 7036 164f 02       		.byte	0x2
 7037 1650 3C       		.byte	0x3c
 7038 1651 A9000000 		.4byte	0xa9
 7039 1655 00       		.byte	0
 7040 1656 19       		.uleb128 0x19
 7041 1657 7800     		.ascii	"x\000"
 7042 1659 02       		.byte	0x2
 7043 165a 3C       		.byte	0x3c
 7044 165b 3B160000 		.4byte	0x163b
 7045 165f 19       		.uleb128 0x19
 7046 1660 6500     		.ascii	"e\000"
 7047 1662 02       		.byte	0x2
 7048 1663 3E       		.byte	0x3e
 7049 1664 85000000 		.4byte	0x85
 7050 1668 00       		.byte	0
 7051 1669 17       		.uleb128 0x17
 7052 166a 59010000 		.4byte	.LASF120
 7053 166e 01       		.byte	0x1
 7054 166f 7B       		.byte	0x7b
 7055 1670 01       		.byte	0x1
 7056 1671 9C160000 		.4byte	0x169c
 7057 1675 0D       		.uleb128 0xd
 7058 1676 7800     		.ascii	"x\000"
 7059 1678 01       		.byte	0x1
 7060 1679 7B       		.byte	0x7b
 7061 167a 16030000 		.4byte	0x316
 7062 167e 0D       		.uleb128 0xd
 7063 167f 7900     		.ascii	"y\000"
 7064 1681 01       		.byte	0x1
 7065 1682 7B       		.byte	0x7b
 7066 1683 3D040000 		.4byte	0x43d
 7067 1687 18       		.uleb128 0x18
 7068 1688 19       		.uleb128 0x19
 7069 1689 6900     		.ascii	"i\000"
 7070 168b 01       		.byte	0x1
 7071 168c 7D       		.byte	0x7d
 7072 168d 85000000 		.4byte	0x85
 7073 1691 19       		.uleb128 0x19
 7074 1692 6A00     		.ascii	"j\000"
 7075 1694 01       		.byte	0x1
 7076 1695 7D       		.byte	0x7d
 7077 1696 85000000 		.4byte	0x85
 7078 169a 00       		.byte	0
 7079 169b 00       		.byte	0
 7080 169c 3C       		.uleb128 0x3c
 7081 169d A7020000 		.4byte	.LASF124
 7082 16a1 01       		.byte	0x1
ARM GAS  C:\Users\rdn\AppData\Local\Temp\cc92LAgm.s 			page 154


 7083 16a2 0503     		.2byte	0x305
 7084 16a4 00000000 		.4byte	.LFB33
 7085 16a8 16080000 		.4byte	.LFE33-.LFB33
 7086 16ac 01       		.uleb128 0x1
 7087 16ad 9C       		.byte	0x9c
 7088 16ae 7E1E0000 		.4byte	0x1e7e
 7089 16b2 1A       		.uleb128 0x1a
 7090 16b3 647400   		.ascii	"dt\000"
 7091 16b6 01       		.byte	0x1
 7092 16b7 0603     		.2byte	0x306
 7093 16b9 B4000000 		.4byte	0xb4
 7094 16bd 16080000 		.4byte	.LLST59
 7095 16c1 1A       		.uleb128 0x1a
 7096 16c2 737200   		.ascii	"sr\000"
 7097 16c5 01       		.byte	0x1
 7098 16c6 0603     		.2byte	0x306
 7099 16c8 E3000000 		.4byte	0xe3
 7100 16cc 50080000 		.4byte	.LLST60
 7101 16d0 10       		.uleb128 0x10
 7102 16d1 B2030000 		.4byte	.LASF107
 7103 16d5 01       		.byte	0x1
 7104 16d6 0603     		.2byte	0x306
 7105 16d8 85000000 		.4byte	0x85
 7106 16dc 71080000 		.4byte	.LLST61
 7107 16e0 1A       		.uleb128 0x1a
 7108 16e1 656200   		.ascii	"eb\000"
 7109 16e4 01       		.byte	0x1
 7110 16e5 0703     		.2byte	0x307
 7111 16e7 16030000 		.4byte	0x316
 7112 16eb 9D080000 		.4byte	.LLST62
 7113 16ef 1A       		.uleb128 0x1a
 7114 16f0 61747400 		.ascii	"att\000"
 7115 16f4 01       		.byte	0x1
 7116 16f5 0703     		.2byte	0x307
 7117 16f7 24010000 		.4byte	0x124
 7118 16fb BE080000 		.4byte	.LLST63
 7119 16ff 10       		.uleb128 0x10
 7120 1700 FD020000 		.4byte	.LASF121
 7121 1704 01       		.byte	0x1
 7122 1705 0703     		.2byte	0x307
 7123 1707 7E1E0000 		.4byte	0x1e7e
 7124 170b DE080000 		.4byte	.LLST64
 7125 170f 1A       		.uleb128 0x1a
 7126 1710 7800     		.ascii	"x\000"
 7127 1712 01       		.byte	0x1
 7128 1713 0803     		.2byte	0x308
 7129 1715 16030000 		.4byte	0x316
 7130 1719 FE080000 		.4byte	.LLST65
 7131 171d 1A       		.uleb128 0x1a
 7132 171e 7900     		.ascii	"y\000"
 7133 1720 01       		.byte	0x1
 7134 1721 0803     		.2byte	0x308
 7135 1723 3D040000 		.4byte	0x43d
 7136 1727 1E090000 		.4byte	.LLST66
 7137 172b 13       		.uleb128 0x13
 7138 172c 73636600 		.ascii	"scf\000"
 7139 1730 01       		.byte	0x1
ARM GAS  C:\Users\rdn\AppData\Local\Temp\cc92LAgm.s 			page 155


 7140 1731 1103     		.2byte	0x311
 7141 1733 D10C0000 		.4byte	0xcd1
 7142 1737 03       		.uleb128 0x3
 7143 1738 91       		.byte	0x91
 7144 1739 B879     		.sleb128 -840
 7145 173b 13       		.uleb128 0x13
 7146 173c 636E00   		.ascii	"cn\000"
 7147 173f 01       		.byte	0x1
 7148 1740 1103     		.2byte	0x311
 7149 1742 841E0000 		.4byte	0x1e84
 7150 1746 03       		.uleb128 0x3
 7151 1747 91       		.byte	0x91
 7152 1748 B87B     		.sleb128 -584
 7153 174a 13       		.uleb128 0x13
 7154 174b 6300     		.ascii	"c\000"
 7155 174d 01       		.byte	0x1
 7156 174e 1203     		.2byte	0x312
 7157 1750 9A1E0000 		.4byte	0x1e9a
 7158 1754 03       		.uleb128 0x3
 7159 1755 91       		.byte	0x91
 7160 1756 B87D     		.sleb128 -328
 7161 1758 3D       		.uleb128 0x3d
 7162 1759 880D0000 		.4byte	0xd88
 7163 175d 06000000 		.4byte	.LBB93
 7164 1761 90000000 		.4byte	.Ldebug_ranges0+0x90
 7165 1765 01       		.byte	0x1
 7166 1766 1403     		.2byte	0x314
 7167 1768 CC190000 		.4byte	0x19cc
 7168 176c 1C       		.uleb128 0x1c
 7169 176d C80D0000 		.4byte	0xdc8
 7170 1771 3E090000 		.4byte	.LLST67
 7171 1775 1C       		.uleb128 0x1c
 7172 1776 BD0D0000 		.4byte	0xdbd
 7173 177a 7B090000 		.4byte	.LLST68
 7174 177e 1C       		.uleb128 0x1c
 7175 177f B30D0000 		.4byte	0xdb3
 7176 1783 99090000 		.4byte	.LLST69
 7177 1787 1C       		.uleb128 0x1c
 7178 1788 A80D0000 		.4byte	0xda8
 7179 178c C8090000 		.4byte	.LLST70
 7180 1790 1C       		.uleb128 0x1c
 7181 1791 9E0D0000 		.4byte	0xd9e
 7182 1795 020A0000 		.4byte	.LLST71
 7183 1799 1C       		.uleb128 0x1c
 7184 179a 940D0000 		.4byte	0xd94
 7185 179e 310A0000 		.4byte	.LLST72
 7186 17a2 12       		.uleb128 0x12
 7187 17a3 90000000 		.4byte	.Ldebug_ranges0+0x90
 7188 17a7 2B       		.uleb128 0x2b
 7189 17a8 2D140000 		.4byte	0x142d
 7190 17ac 03       		.uleb128 0x3
 7191 17ad 91       		.byte	0x91
 7192 17ae B87D     		.sleb128 -328
 7193 17b0 1E       		.uleb128 0x1e
 7194 17b1 37140000 		.4byte	0x1437
 7195 17b5 790A0000 		.4byte	.LLST73
 7196 17b9 1E       		.uleb128 0x1e
ARM GAS  C:\Users\rdn\AppData\Local\Temp\cc92LAgm.s 			page 156


 7197 17ba 42140000 		.4byte	0x1442
 7198 17be 8C0A0000 		.4byte	.LLST74
 7199 17c2 1E       		.uleb128 0x1e
 7200 17c3 4D140000 		.4byte	0x144d
 7201 17c7 AB0A0000 		.4byte	.LLST75
 7202 17cb 1E       		.uleb128 0x1e
 7203 17cc 58140000 		.4byte	0x1458
 7204 17d0 C90A0000 		.4byte	.LLST76
 7205 17d4 1E       		.uleb128 0x1e
 7206 17d5 63140000 		.4byte	0x1463
 7207 17d9 040B0000 		.4byte	.LLST77
 7208 17dd 1E       		.uleb128 0x1e
 7209 17de 6E140000 		.4byte	0x146e
 7210 17e2 240B0000 		.4byte	.LLST78
 7211 17e6 1E       		.uleb128 0x1e
 7212 17e7 79140000 		.4byte	0x1479
 7213 17eb 500B0000 		.4byte	.LLST79
 7214 17ef 1E       		.uleb128 0x1e
 7215 17f0 84140000 		.4byte	0x1484
 7216 17f4 640B0000 		.4byte	.LLST80
 7217 17f8 2C       		.uleb128 0x2c
 7218 17f9 90140000 		.4byte	0x1490
 7219 17fd 1E       		.uleb128 0x1e
 7220 17fe 9C140000 		.4byte	0x149c
 7221 1802 CA0B0000 		.4byte	.LLST81
 7222 1806 1E       		.uleb128 0x1e
 7223 1807 A8140000 		.4byte	0x14a8
 7224 180b 310C0000 		.4byte	.LLST82
 7225 180f 1E       		.uleb128 0x1e
 7226 1810 B3140000 		.4byte	0x14b3
 7227 1814 650C0000 		.4byte	.LLST83
 7228 1818 1E       		.uleb128 0x1e
 7229 1819 BE140000 		.4byte	0x14be
 7230 181d 790C0000 		.4byte	.LLST84
 7231 1821 1E       		.uleb128 0x1e
 7232 1822 C9140000 		.4byte	0x14c9
 7233 1826 A50C0000 		.4byte	.LLST85
 7234 182a 1E       		.uleb128 0x1e
 7235 182b D4140000 		.4byte	0x14d4
 7236 182f D10C0000 		.4byte	.LLST86
 7237 1833 1E       		.uleb128 0x1e
 7238 1834 DF140000 		.4byte	0x14df
 7239 1838 090D0000 		.4byte	.LLST87
 7240 183c 1E       		.uleb128 0x1e
 7241 183d EA140000 		.4byte	0x14ea
 7242 1841 290D0000 		.4byte	.LLST88
 7243 1845 2B       		.uleb128 0x2b
 7244 1846 D30D0000 		.4byte	0xdd3
 7245 184a 05       		.uleb128 0x5
 7246 184b 03       		.byte	0x3
 7247 184c 4C040000 		.4byte	ge_14.5559
 7248 1850 2B       		.uleb128 0x2b
 7249 1851 E00E0000 		.4byte	0xee0
 7250 1855 05       		.uleb128 0x5
 7251 1856 03       		.byte	0x3
 7252 1857 4C050000 		.4byte	ge_18.5560
 7253 185b 2B       		.uleb128 0x2b
ARM GAS  C:\Users\rdn\AppData\Local\Temp\cc92LAgm.s 			page 157


 7254 185c ED0F0000 		.4byte	0xfed
 7255 1860 05       		.uleb128 0x5
 7256 1861 03       		.byte	0x3
 7257 1862 4C060000 		.4byte	ge_22.5561
 7258 1866 2B       		.uleb128 0x2b
 7259 1867 FA100000 		.4byte	0x10fa
 7260 186b 05       		.uleb128 0x5
 7261 186c 03       		.byte	0x3
 7262 186d 4C070000 		.4byte	ge_26.5562
 7263 1871 2B       		.uleb128 0x2b
 7264 1872 07120000 		.4byte	0x1207
 7265 1876 05       		.uleb128 0x5
 7266 1877 03       		.byte	0x3
 7267 1878 4C080000 		.4byte	ge_30.5563
 7268 187c 2B       		.uleb128 0x2b
 7269 187d 14130000 		.4byte	0x1314
 7270 1881 05       		.uleb128 0x5
 7271 1882 03       		.byte	0x3
 7272 1883 4C090000 		.4byte	ge_34.5564
 7273 1887 2B       		.uleb128 0x2b
 7274 1888 21140000 		.4byte	0x1421
 7275 188c 05       		.uleb128 0x5
 7276 188d 03       		.byte	0x3
 7277 188e 20040000 		.4byte	ge_table.5565
 7278 1892 1F       		.uleb128 0x1f
 7279 1893 3E000000 		.4byte	.LBB95
 7280 1897 1E000000 		.4byte	.LBE95-.LBB95
 7281 189b A9180000 		.4byte	0x18a9
 7282 189f 1E       		.uleb128 0x1e
 7283 18a0 FA140000 		.4byte	0x14fa
 7284 18a4 490D0000 		.4byte	.LLST89
 7285 18a8 00       		.byte	0
 7286 18a9 1F       		.uleb128 0x1f
 7287 18aa 70000000 		.4byte	.LBB96
 7288 18ae 1E000000 		.4byte	.LBE96-.LBB96
 7289 18b2 C0180000 		.4byte	0x18c0
 7290 18b6 1E       		.uleb128 0x1e
 7291 18b7 0B150000 		.4byte	0x150b
 7292 18bb 690D0000 		.4byte	.LLST90
 7293 18bf 00       		.byte	0
 7294 18c0 1F       		.uleb128 0x1f
 7295 18c1 C0000000 		.4byte	.LBB97
 7296 18c5 84000000 		.4byte	.LBE97-.LBB97
 7297 18c9 D7180000 		.4byte	0x18d7
 7298 18cd 1E       		.uleb128 0x1e
 7299 18ce 1C150000 		.4byte	0x151c
 7300 18d2 7C0D0000 		.4byte	.LLST91
 7301 18d6 00       		.byte	0
 7302 18d7 3E       		.uleb128 0x3e
 7303 18d8 C0000000 		.4byte	.Ldebug_ranges0+0xc0
 7304 18dc 64190000 		.4byte	0x1964
 7305 18e0 2C       		.uleb128 0x2c
 7306 18e1 2C150000 		.4byte	0x152c
 7307 18e5 1B       		.uleb128 0x1b
 7308 18e6 B7150000 		.4byte	0x15b7
 7309 18ea 9A010000 		.4byte	.LBB99
 7310 18ee 0C000000 		.4byte	.LBE99-.LBB99
ARM GAS  C:\Users\rdn\AppData\Local\Temp\cc92LAgm.s 			page 158


 7311 18f2 01       		.byte	0x1
 7312 18f3 4501     		.2byte	0x145
 7313 18f5 5A190000 		.4byte	0x195a
 7314 18f9 1C       		.uleb128 0x1c
 7315 18fa C7150000 		.4byte	0x15c7
 7316 18fe 900D0000 		.4byte	.LLST92
 7317 1902 16       		.uleb128 0x16
 7318 1903 9A010000 		.4byte	.LBB100
 7319 1907 0C000000 		.4byte	.LBE100-.LBB100
 7320 190b 2C       		.uleb128 0x2c
 7321 190c D0150000 		.4byte	0x15d0
 7322 1910 1E       		.uleb128 0x1e
 7323 1911 D9150000 		.4byte	0x15d9
 7324 1915 A30D0000 		.4byte	.LLST93
 7325 1919 2C       		.uleb128 0x2c
 7326 191a E2150000 		.4byte	0x15e2
 7327 191e 3F       		.uleb128 0x3f
 7328 191f 16160000 		.4byte	0x1616
 7329 1923 9A010000 		.4byte	.LBB101
 7330 1927 0C000000 		.4byte	.LBE101-.LBB101
 7331 192b 02       		.byte	0x2
 7332 192c 88       		.byte	0x88
 7333 192d 1C       		.uleb128 0x1c
 7334 192e 30160000 		.4byte	0x1630
 7335 1932 C00D0000 		.4byte	.LLST94
 7336 1936 1C       		.uleb128 0x1c
 7337 1937 26160000 		.4byte	0x1626
 7338 193b 900D0000 		.4byte	.LLST92
 7339 193f 16       		.uleb128 0x16
 7340 1940 9A010000 		.4byte	.LBB102
 7341 1944 0C000000 		.4byte	.LBE102-.LBB102
 7342 1948 2C       		.uleb128 0x2c
 7343 1949 56160000 		.4byte	0x1656
 7344 194d 1E       		.uleb128 0x1e
 7345 194e 5F160000 		.4byte	0x165f
 7346 1952 D80D0000 		.4byte	.LLST96
 7347 1956 00       		.byte	0
 7348 1957 00       		.byte	0
 7349 1958 00       		.byte	0
 7350 1959 00       		.byte	0
 7351 195a 22       		.uleb128 0x22
 7352 195b 9A010000 		.4byte	.LVL154
 7353 195f FB250000 		.4byte	0x25fb
 7354 1963 00       		.byte	0
 7355 1964 1F       		.uleb128 0x1f
 7356 1965 3A020000 		.4byte	.LBB104
 7357 1969 52000000 		.4byte	.LBE104-.LBB104
 7358 196d 77190000 		.4byte	0x1977
 7359 1971 2C       		.uleb128 0x2c
 7360 1972 3C150000 		.4byte	0x153c
 7361 1976 00       		.byte	0
 7362 1977 1F       		.uleb128 0x1f
 7363 1978 04030000 		.4byte	.LBB105
 7364 197c 26000000 		.4byte	.LBE105-.LBB105
 7365 1980 8E190000 		.4byte	0x198e
 7366 1984 1E       		.uleb128 0x1e
 7367 1985 4C150000 		.4byte	0x154c
ARM GAS  C:\Users\rdn\AppData\Local\Temp\cc92LAgm.s 			page 159


 7368 1989 F20D0000 		.4byte	.LLST97
 7369 198d 00       		.byte	0
 7370 198e 3E       		.uleb128 0x3e
 7371 198f D8000000 		.4byte	.Ldebug_ranges0+0xd8
 7372 1993 A1190000 		.4byte	0x19a1
 7373 1997 1E       		.uleb128 0x1e
 7374 1998 5C150000 		.4byte	0x155c
 7375 199c 060E0000 		.4byte	.LLST98
 7376 19a0 00       		.byte	0
 7377 19a1 1F       		.uleb128 0x1f
 7378 19a2 E8030000 		.4byte	.LBB108
 7379 19a6 26000000 		.4byte	.LBE108-.LBB108
 7380 19aa B8190000 		.4byte	0x19b8
 7381 19ae 1E       		.uleb128 0x1e
 7382 19af 68150000 		.4byte	0x1568
 7383 19b3 1A0E0000 		.4byte	.LLST99
 7384 19b7 00       		.byte	0
 7385 19b8 22       		.uleb128 0x22
 7386 19b9 AA000000 		.4byte	.LVL139
 7387 19bd 07260000 		.4byte	0x2607
 7388 19c1 22       		.uleb128 0x22
 7389 19c2 8C010000 		.4byte	.LVL152
 7390 19c6 FB250000 		.4byte	0x25fb
 7391 19ca 00       		.byte	0
 7392 19cb 00       		.byte	0
 7393 19cc 1B       		.uleb128 0x1b
 7394 19cd F20C0000 		.4byte	0xcf2
 7395 19d1 0E040000 		.4byte	.LBB116
 7396 19d5 90000000 		.4byte	.LBE116-.LBB116
 7397 19d9 01       		.byte	0x1
 7398 19da 1603     		.2byte	0x316
 7399 19dc 5C1A0000 		.4byte	0x1a5c
 7400 19e0 1C       		.uleb128 0x1c
 7401 19e1 170D0000 		.4byte	0xd17
 7402 19e5 2E0E0000 		.4byte	.LLST100
 7403 19e9 1C       		.uleb128 0x1c
 7404 19ea 0B0D0000 		.4byte	0xd0b
 7405 19ee 430E0000 		.4byte	.LLST101
 7406 19f2 1C       		.uleb128 0x1c
 7407 19f3 FF0C0000 		.4byte	0xcff
 7408 19f7 560E0000 		.4byte	.LLST102
 7409 19fb 16       		.uleb128 0x16
 7410 19fc 0E040000 		.4byte	.LBB117
 7411 1a00 90000000 		.4byte	.LBE117-.LBB117
 7412 1a04 1E       		.uleb128 0x1e
 7413 1a05 230D0000 		.4byte	0xd23
 7414 1a09 6C0E0000 		.4byte	.LLST103
 7415 1a0d 1E       		.uleb128 0x1e
 7416 1a0e 2F0D0000 		.4byte	0xd2f
 7417 1a12 C00E0000 		.4byte	.LLST104
 7418 1a16 16       		.uleb128 0x16
 7419 1a17 24040000 		.4byte	.LBB118
 7420 1a1b 7A000000 		.4byte	.LBE118-.LBB118
 7421 1a1f 1E       		.uleb128 0x1e
 7422 1a20 3C0D0000 		.4byte	0xd3c
 7423 1a24 FC0E0000 		.4byte	.LLST105
 7424 1a28 12       		.uleb128 0x12
ARM GAS  C:\Users\rdn\AppData\Local\Temp\cc92LAgm.s 			page 160


 7425 1a29 F0000000 		.4byte	.Ldebug_ranges0+0xf0
 7426 1a2d 2C       		.uleb128 0x2c
 7427 1a2e 490D0000 		.4byte	0xd49
 7428 1a32 2C       		.uleb128 0x2c
 7429 1a33 550D0000 		.4byte	0xd55
 7430 1a37 1E       		.uleb128 0x1e
 7431 1a38 610D0000 		.4byte	0xd61
 7432 1a3c 1B0F0000 		.4byte	.LLST106
 7433 1a40 1E       		.uleb128 0x1e
 7434 1a41 6D0D0000 		.4byte	0xd6d
 7435 1a45 630F0000 		.4byte	.LLST107
 7436 1a49 12       		.uleb128 0x12
 7437 1a4a 08010000 		.4byte	.Ldebug_ranges0+0x108
 7438 1a4e 1E       		.uleb128 0x1e
 7439 1a4f 7A0D0000 		.4byte	0xd7a
 7440 1a53 870F0000 		.4byte	.LLST108
 7441 1a57 00       		.byte	0
 7442 1a58 00       		.byte	0
 7443 1a59 00       		.byte	0
 7444 1a5a 00       		.byte	0
 7445 1a5b 00       		.byte	0
 7446 1a5c 1B       		.uleb128 0x1b
 7447 1a5d 0D0B0000 		.4byte	0xb0d
 7448 1a61 9E040000 		.4byte	.LBB123
 7449 1a65 FE020000 		.4byte	.LBE123-.LBB123
 7450 1a69 01       		.byte	0x1
 7451 1a6a 1803     		.2byte	0x318
 7452 1a6c AA1D0000 		.4byte	0x1daa
 7453 1a70 1C       		.uleb128 0x1c
 7454 1a71 5F0B0000 		.4byte	0xb5f
 7455 1a75 9B0F0000 		.4byte	.LLST109
 7456 1a79 1C       		.uleb128 0x1c
 7457 1a7a 530B0000 		.4byte	0xb53
 7458 1a7e B00F0000 		.4byte	.LLST110
 7459 1a82 1C       		.uleb128 0x1c
 7460 1a83 480B0000 		.4byte	0xb48
 7461 1a87 C50F0000 		.4byte	.LLST111
 7462 1a8b 1C       		.uleb128 0x1c
 7463 1a8c 3E0B0000 		.4byte	0xb3e
 7464 1a90 F40F0000 		.4byte	.LLST112
 7465 1a94 1C       		.uleb128 0x1c
 7466 1a95 320B0000 		.4byte	0xb32
 7467 1a99 AE100000 		.4byte	.LLST113
 7468 1a9d 1C       		.uleb128 0x1c
 7469 1a9e 260B0000 		.4byte	0xb26
 7470 1aa2 C2100000 		.4byte	.LLST114
 7471 1aa6 1C       		.uleb128 0x1c
 7472 1aa7 1A0B0000 		.4byte	0xb1a
 7473 1aab D6100000 		.4byte	.LLST115
 7474 1aaf 16       		.uleb128 0x16
 7475 1ab0 9E040000 		.4byte	.LBB124
 7476 1ab4 FE020000 		.4byte	.LBE124-.LBB124
 7477 1ab8 2C       		.uleb128 0x2c
 7478 1ab9 6B0B0000 		.4byte	0xb6b
 7479 1abd 2C       		.uleb128 0x2c
 7480 1abe 770B0000 		.4byte	0xb77
 7481 1ac2 2B       		.uleb128 0x2b
ARM GAS  C:\Users\rdn\AppData\Local\Temp\cc92LAgm.s 			page 161


 7482 1ac3 830B0000 		.4byte	0xb83
 7483 1ac7 03       		.uleb128 0x3
 7484 1ac8 91       		.byte	0x91
 7485 1ac9 F879     		.sleb128 -776
 7486 1acb 2B       		.uleb128 0x2b
 7487 1acc 8D0B0000 		.4byte	0xb8d
 7488 1ad0 03       		.uleb128 0x3
 7489 1ad1 91       		.byte	0x91
 7490 1ad2 B87A     		.sleb128 -712
 7491 1ad4 2B       		.uleb128 0x2b
 7492 1ad5 970B0000 		.4byte	0xb97
 7493 1ad9 03       		.uleb128 0x3
 7494 1ada 91       		.byte	0x91
 7495 1adb F87A     		.sleb128 -648
 7496 1add 1E       		.uleb128 0x1e
 7497 1ade A20B0000 		.4byte	0xba2
 7498 1ae2 EC100000 		.4byte	.LLST116
 7499 1ae6 1E       		.uleb128 0x1e
 7500 1ae7 AE0B0000 		.4byte	0xbae
 7501 1aeb 00110000 		.4byte	.LLST117
 7502 1aef 2B       		.uleb128 0x2b
 7503 1af0 BA0B0000 		.4byte	0xbba
 7504 1af4 03       		.uleb128 0x3
 7505 1af5 91       		.byte	0x91
 7506 1af6 B079     		.sleb128 -848
 7507 1af8 2B       		.uleb128 0x2b
 7508 1af9 C60B0000 		.4byte	0xbc6
 7509 1afd 03       		.uleb128 0x3
 7510 1afe 91       		.byte	0x91
 7511 1aff B479     		.sleb128 -844
 7512 1b01 1E       		.uleb128 0x1e
 7513 1b02 D20B0000 		.4byte	0xbd2
 7514 1b06 14110000 		.4byte	.LLST118
 7515 1b0a 1E       		.uleb128 0x1e
 7516 1b0b DE0B0000 		.4byte	0xbde
 7517 1b0f 7A110000 		.4byte	.LLST119
 7518 1b13 3E       		.uleb128 0x3e
 7519 1b14 20010000 		.4byte	.Ldebug_ranges0+0x120
 7520 1b18 261B0000 		.4byte	0x1b26
 7521 1b1c 1E       		.uleb128 0x1e
 7522 1b1d EF0B0000 		.4byte	0xbef
 7523 1b21 B6110000 		.4byte	.LLST120
 7524 1b25 00       		.byte	0
 7525 1b26 3D       		.uleb128 0x3d
 7526 1b27 69160000 		.4byte	0x1669
 7527 1b2b DC040000 		.4byte	.LBB126
 7528 1b2f 38010000 		.4byte	.Ldebug_ranges0+0x138
 7529 1b33 01       		.byte	0x1
 7530 1b34 DE01     		.2byte	0x1de
 7531 1b36 591B0000 		.4byte	0x1b59
 7532 1b3a 40       		.uleb128 0x40
 7533 1b3b 7E160000 		.4byte	0x167e
 7534 1b3f 40       		.uleb128 0x40
 7535 1b40 75160000 		.4byte	0x1675
 7536 1b44 12       		.uleb128 0x12
 7537 1b45 38010000 		.4byte	.Ldebug_ranges0+0x138
 7538 1b49 2C       		.uleb128 0x2c
ARM GAS  C:\Users\rdn\AppData\Local\Temp\cc92LAgm.s 			page 162


 7539 1b4a 88160000 		.4byte	0x1688
 7540 1b4e 1E       		.uleb128 0x1e
 7541 1b4f 91160000 		.4byte	0x1691
 7542 1b53 CA110000 		.4byte	.LLST121
 7543 1b57 00       		.byte	0
 7544 1b58 00       		.byte	0
 7545 1b59 1F       		.uleb128 0x1f
 7546 1b5a 18050000 		.4byte	.LBB131
 7547 1b5e 14000000 		.4byte	.LBE131-.LBB131
 7548 1b62 6C1B0000 		.4byte	0x1b6c
 7549 1b66 2C       		.uleb128 0x2c
 7550 1b67 FF0B0000 		.4byte	0xbff
 7551 1b6b 00       		.byte	0
 7552 1b6c 1F       		.uleb128 0x1f
 7553 1b6d 4E050000 		.4byte	.LBB132
 7554 1b71 4E000000 		.4byte	.LBE132-.LBB132
 7555 1b75 981B0000 		.4byte	0x1b98
 7556 1b79 1E       		.uleb128 0x1e
 7557 1b7a 0F0C0000 		.4byte	0xc0f
 7558 1b7e DE110000 		.4byte	.LLST122
 7559 1b82 41       		.uleb128 0x41
 7560 1b83 64050000 		.4byte	.LVL216
 7561 1b87 10260000 		.4byte	0x2610
 7562 1b8b 35       		.uleb128 0x35
 7563 1b8c 01       		.uleb128 0x1
 7564 1b8d 50       		.byte	0x50
 7565 1b8e 07       		.uleb128 0x7
 7566 1b8f F5       		.byte	0xf5
 7567 1b90 53       		.uleb128 0x53
 7568 1b91 25       		.uleb128 0x25
 7569 1b92 F5       		.byte	0xf5
 7570 1b93 52       		.uleb128 0x52
 7571 1b94 25       		.uleb128 0x25
 7572 1b95 1E       		.byte	0x1e
 7573 1b96 00       		.byte	0
 7574 1b97 00       		.byte	0
 7575 1b98 1F       		.uleb128 0x1f
 7576 1b99 26060000 		.4byte	.LBB133
 7577 1b9d 2E000000 		.4byte	.LBE133-.LBB133
 7578 1ba1 AF1B0000 		.4byte	0x1baf
 7579 1ba5 1E       		.uleb128 0x1e
 7580 1ba6 1F0C0000 		.4byte	0xc1f
 7581 1baa F2110000 		.4byte	.LLST123
 7582 1bae 00       		.byte	0
 7583 1baf 1F       		.uleb128 0x1f
 7584 1bb0 A4060000 		.4byte	.LBB134
 7585 1bb4 32000000 		.4byte	.LBE134-.LBB134
 7586 1bb8 D91B0000 		.4byte	0x1bd9
 7587 1bbc 1E       		.uleb128 0x1e
 7588 1bbd 2F0C0000 		.4byte	0xc2f
 7589 1bc1 06120000 		.4byte	.LLST124
 7590 1bc5 16       		.uleb128 0x16
 7591 1bc6 A6060000 		.4byte	.LBB135
 7592 1bca 26000000 		.4byte	.LBE135-.LBB135
 7593 1bce 1E       		.uleb128 0x1e
 7594 1bcf 3A0C0000 		.4byte	0xc3a
 7595 1bd3 25120000 		.4byte	.LLST125
ARM GAS  C:\Users\rdn\AppData\Local\Temp\cc92LAgm.s 			page 163


 7596 1bd7 00       		.byte	0
 7597 1bd8 00       		.byte	0
 7598 1bd9 1F       		.uleb128 0x1f
 7599 1bda D6060000 		.4byte	.LBB136
 7600 1bde 20000000 		.4byte	.LBE136-.LBB136
 7601 1be2 5C1C0000 		.4byte	0x1c5c
 7602 1be6 1E       		.uleb128 0x1e
 7603 1be7 4B0C0000 		.4byte	0xc4b
 7604 1beb 39120000 		.4byte	.LLST126
 7605 1bef 42       		.uleb128 0x42
 7606 1bf0 DE060000 		.4byte	.LVL242
 7607 1bf4 A3060000 		.4byte	0x6a3
 7608 1bf8 0B1C0000 		.4byte	0x1c0b
 7609 1bfc 35       		.uleb128 0x35
 7610 1bfd 01       		.uleb128 0x1
 7611 1bfe 50       		.byte	0x50
 7612 1bff 03       		.uleb128 0x3
 7613 1c00 91       		.byte	0x91
 7614 1c01 B87D     		.sleb128 -328
 7615 1c03 35       		.uleb128 0x35
 7616 1c04 01       		.uleb128 0x1
 7617 1c05 51       		.byte	0x51
 7618 1c06 03       		.uleb128 0x3
 7619 1c07 91       		.byte	0x91
 7620 1c08 B87B     		.sleb128 -584
 7621 1c0a 00       		.byte	0
 7622 1c0b 42       		.uleb128 0x42
 7623 1c0c E6060000 		.4byte	.LVL243
 7624 1c10 A3060000 		.4byte	0x6a3
 7625 1c14 271C0000 		.4byte	0x1c27
 7626 1c18 35       		.uleb128 0x35
 7627 1c19 01       		.uleb128 0x1
 7628 1c1a 50       		.byte	0x50
 7629 1c1b 03       		.uleb128 0x3
 7630 1c1c 91       		.byte	0x91
 7631 1c1d F87D     		.sleb128 -264
 7632 1c1f 35       		.uleb128 0x35
 7633 1c20 01       		.uleb128 0x1
 7634 1c21 51       		.byte	0x51
 7635 1c22 03       		.uleb128 0x3
 7636 1c23 91       		.byte	0x91
 7637 1c24 F87B     		.sleb128 -520
 7638 1c26 00       		.byte	0
 7639 1c27 42       		.uleb128 0x42
 7640 1c28 EE060000 		.4byte	.LVL244
 7641 1c2c A3060000 		.4byte	0x6a3
 7642 1c30 431C0000 		.4byte	0x1c43
 7643 1c34 35       		.uleb128 0x35
 7644 1c35 01       		.uleb128 0x1
 7645 1c36 50       		.byte	0x50
 7646 1c37 03       		.uleb128 0x3
 7647 1c38 91       		.byte	0x91
 7648 1c39 B87E     		.sleb128 -200
 7649 1c3b 35       		.uleb128 0x35
 7650 1c3c 01       		.uleb128 0x1
 7651 1c3d 51       		.byte	0x51
 7652 1c3e 03       		.uleb128 0x3
ARM GAS  C:\Users\rdn\AppData\Local\Temp\cc92LAgm.s 			page 164


 7653 1c3f 91       		.byte	0x91
 7654 1c40 B87C     		.sleb128 -456
 7655 1c42 00       		.byte	0
 7656 1c43 41       		.uleb128 0x41
 7657 1c44 F6060000 		.4byte	.LVL245
 7658 1c48 A3060000 		.4byte	0x6a3
 7659 1c4c 35       		.uleb128 0x35
 7660 1c4d 01       		.uleb128 0x1
 7661 1c4e 50       		.byte	0x50
 7662 1c4f 03       		.uleb128 0x3
 7663 1c50 91       		.byte	0x91
 7664 1c51 F87E     		.sleb128 -136
 7665 1c53 35       		.uleb128 0x35
 7666 1c54 01       		.uleb128 0x1
 7667 1c55 51       		.byte	0x51
 7668 1c56 03       		.uleb128 0x3
 7669 1c57 91       		.byte	0x91
 7670 1c58 F87C     		.sleb128 -392
 7671 1c5a 00       		.byte	0
 7672 1c5b 00       		.byte	0
 7673 1c5c 3E       		.uleb128 0x3e
 7674 1c5d 50010000 		.4byte	.Ldebug_ranges0+0x150
 7675 1c61 C61C0000 		.4byte	0x1cc6
 7676 1c65 1E       		.uleb128 0x1e
 7677 1c66 570C0000 		.4byte	0xc57
 7678 1c6a 7D120000 		.4byte	.LLST127
 7679 1c6e 12       		.uleb128 0x12
 7680 1c6f 68010000 		.4byte	.Ldebug_ranges0+0x168
 7681 1c73 2C       		.uleb128 0x2c
 7682 1c74 630C0000 		.4byte	0xc63
 7683 1c78 1E       		.uleb128 0x1e
 7684 1c79 6F0C0000 		.4byte	0xc6f
 7685 1c7d B4120000 		.4byte	.LLST128
 7686 1c81 1E       		.uleb128 0x1e
 7687 1c82 7B0C0000 		.4byte	0xc7b
 7688 1c86 D8120000 		.4byte	.LLST129
 7689 1c8a 12       		.uleb128 0x12
 7690 1c8b 88010000 		.4byte	.Ldebug_ranges0+0x188
 7691 1c8f 1E       		.uleb128 0x1e
 7692 1c90 880C0000 		.4byte	0xc88
 7693 1c94 EC120000 		.4byte	.LLST130
 7694 1c98 16       		.uleb128 0x16
 7695 1c99 18070000 		.4byte	.LBB140
 7696 1c9d 3E000000 		.4byte	.LBE140-.LBB140
 7697 1ca1 1E       		.uleb128 0x1e
 7698 1ca2 940C0000 		.4byte	0xc94
 7699 1ca6 0B130000 		.4byte	.LLST131
 7700 1caa 1E       		.uleb128 0x1e
 7701 1cab 9E0C0000 		.4byte	0xc9e
 7702 1caf 43130000 		.4byte	.LLST132
 7703 1cb3 12       		.uleb128 0x12
 7704 1cb4 B0010000 		.4byte	.Ldebug_ranges0+0x1b0
 7705 1cb8 1E       		.uleb128 0x1e
 7706 1cb9 AB0C0000 		.4byte	0xcab
 7707 1cbd 67130000 		.4byte	.LLST133
 7708 1cc1 00       		.byte	0
 7709 1cc2 00       		.byte	0
ARM GAS  C:\Users\rdn\AppData\Local\Temp\cc92LAgm.s 			page 165


 7710 1cc3 00       		.byte	0
 7711 1cc4 00       		.byte	0
 7712 1cc5 00       		.byte	0
 7713 1cc6 22       		.uleb128 0x22
 7714 1cc7 3A050000 		.4byte	.LVL212
 7715 1ccb FB250000 		.4byte	0x25fb
 7716 1ccf 42       		.uleb128 0x42
 7717 1cd0 BA050000 		.4byte	.LVL220
 7718 1cd4 3C030000 		.4byte	0x33c
 7719 1cd8 041D0000 		.4byte	0x1d04
 7720 1cdc 35       		.uleb128 0x35
 7721 1cdd 01       		.uleb128 0x1
 7722 1cde 50       		.byte	0x50
 7723 1cdf 02       		.uleb128 0x2
 7724 1ce0 7A       		.byte	0x7a
 7725 1ce1 00       		.sleb128 0
 7726 1ce2 35       		.uleb128 0x35
 7727 1ce3 01       		.uleb128 0x1
 7728 1ce4 51       		.byte	0x51
 7729 1ce5 03       		.uleb128 0x3
 7730 1ce6 91       		.byte	0x91
 7731 1ce7 F87E     		.sleb128 -136
 7732 1ce9 35       		.uleb128 0x35
 7733 1cea 01       		.uleb128 0x1
 7734 1ceb 52       		.byte	0x52
 7735 1cec 01       		.uleb128 0x1
 7736 1ced 40       		.byte	0x40
 7737 1cee 35       		.uleb128 0x35
 7738 1cef 02       		.uleb128 0x2
 7739 1cf0 7D       		.byte	0x7d
 7740 1cf1 00       		.sleb128 0
 7741 1cf2 02       		.uleb128 0x2
 7742 1cf3 7B       		.byte	0x7b
 7743 1cf4 00       		.sleb128 0
 7744 1cf5 35       		.uleb128 0x35
 7745 1cf6 02       		.uleb128 0x2
 7746 1cf7 7D       		.byte	0x7d
 7747 1cf8 04       		.sleb128 4
 7748 1cf9 02       		.uleb128 0x2
 7749 1cfa 76       		.byte	0x76
 7750 1cfb 00       		.sleb128 0
 7751 1cfc 35       		.uleb128 0x35
 7752 1cfd 02       		.uleb128 0x2
 7753 1cfe 7D       		.byte	0x7d
 7754 1cff 08       		.sleb128 8
 7755 1d00 02       		.uleb128 0x2
 7756 1d01 77       		.byte	0x77
 7757 1d02 00       		.sleb128 0
 7758 1d03 00       		.byte	0
 7759 1d04 42       		.uleb128 0x42
 7760 1d05 EE050000 		.4byte	.LVL221
 7761 1d09 3C030000 		.4byte	0x33c
 7762 1d0d 3D1D0000 		.4byte	0x1d3d
 7763 1d11 35       		.uleb128 0x35
 7764 1d12 01       		.uleb128 0x1
 7765 1d13 50       		.byte	0x50
 7766 1d14 02       		.uleb128 0x2
ARM GAS  C:\Users\rdn\AppData\Local\Temp\cc92LAgm.s 			page 166


 7767 1d15 7A       		.byte	0x7a
 7768 1d16 00       		.sleb128 0
 7769 1d17 35       		.uleb128 0x35
 7770 1d18 01       		.uleb128 0x1
 7771 1d19 51       		.byte	0x51
 7772 1d1a 02       		.uleb128 0x2
 7773 1d1b 74       		.byte	0x74
 7774 1d1c 50       		.sleb128 -48
 7775 1d1d 35       		.uleb128 0x35
 7776 1d1e 01       		.uleb128 0x1
 7777 1d1f 52       		.byte	0x52
 7778 1d20 01       		.uleb128 0x1
 7779 1d21 40       		.byte	0x40
 7780 1d22 35       		.uleb128 0x35
 7781 1d23 01       		.uleb128 0x1
 7782 1d24 53       		.byte	0x53
 7783 1d25 02       		.uleb128 0x2
 7784 1d26 7B       		.byte	0x7b
 7785 1d27 00       		.sleb128 0
 7786 1d28 35       		.uleb128 0x35
 7787 1d29 02       		.uleb128 0x2
 7788 1d2a 7D       		.byte	0x7d
 7789 1d2b 00       		.sleb128 0
 7790 1d2c 01       		.uleb128 0x1
 7791 1d2d 38       		.byte	0x38
 7792 1d2e 35       		.uleb128 0x35
 7793 1d2f 02       		.uleb128 0x2
 7794 1d30 7D       		.byte	0x7d
 7795 1d31 04       		.sleb128 4
 7796 1d32 02       		.uleb128 0x2
 7797 1d33 76       		.byte	0x76
 7798 1d34 00       		.sleb128 0
 7799 1d35 35       		.uleb128 0x35
 7800 1d36 02       		.uleb128 0x2
 7801 1d37 7D       		.byte	0x7d
 7802 1d38 08       		.sleb128 8
 7803 1d39 02       		.uleb128 0x2
 7804 1d3a 77       		.byte	0x77
 7805 1d3b 00       		.sleb128 0
 7806 1d3c 00       		.byte	0
 7807 1d3d 42       		.uleb128 0x42
 7808 1d3e 6C060000 		.4byte	.LVL226
 7809 1d42 3C030000 		.4byte	0x33c
 7810 1d46 711D0000 		.4byte	0x1d71
 7811 1d4a 35       		.uleb128 0x35
 7812 1d4b 01       		.uleb128 0x1
 7813 1d4c 50       		.byte	0x50
 7814 1d4d 02       		.uleb128 0x2
 7815 1d4e 7A       		.byte	0x7a
 7816 1d4f 00       		.sleb128 0
 7817 1d50 35       		.uleb128 0x35
 7818 1d51 01       		.uleb128 0x1
 7819 1d52 51       		.byte	0x51
 7820 1d53 03       		.uleb128 0x3
 7821 1d54 91       		.byte	0x91
 7822 1d55 F87D     		.sleb128 -264
 7823 1d57 35       		.uleb128 0x35
ARM GAS  C:\Users\rdn\AppData\Local\Temp\cc92LAgm.s 			page 167


 7824 1d58 01       		.uleb128 0x1
 7825 1d59 52       		.byte	0x52
 7826 1d5a 01       		.uleb128 0x1
 7827 1d5b 3A       		.byte	0x3a
 7828 1d5c 35       		.uleb128 0x35
 7829 1d5d 02       		.uleb128 0x2
 7830 1d5e 7D       		.byte	0x7d
 7831 1d5f 00       		.sleb128 0
 7832 1d60 01       		.uleb128 0x1
 7833 1d61 3A       		.byte	0x3a
 7834 1d62 35       		.uleb128 0x35
 7835 1d63 02       		.uleb128 0x2
 7836 1d64 7D       		.byte	0x7d
 7837 1d65 04       		.sleb128 4
 7838 1d66 02       		.uleb128 0x2
 7839 1d67 76       		.byte	0x76
 7840 1d68 00       		.sleb128 0
 7841 1d69 35       		.uleb128 0x35
 7842 1d6a 02       		.uleb128 0x2
 7843 1d6b 7D       		.byte	0x7d
 7844 1d6c 08       		.sleb128 8
 7845 1d6d 02       		.uleb128 0x2
 7846 1d6e 77       		.byte	0x77
 7847 1d6f 00       		.sleb128 0
 7848 1d70 00       		.byte	0
 7849 1d71 41       		.uleb128 0x41
 7850 1d72 A0060000 		.4byte	.LVL231
 7851 1d76 3C030000 		.4byte	0x33c
 7852 1d7a 35       		.uleb128 0x35
 7853 1d7b 01       		.uleb128 0x1
 7854 1d7c 50       		.byte	0x50
 7855 1d7d 03       		.uleb128 0x3
 7856 1d7e 91       		.byte	0x91
 7857 1d7f A07B     		.sleb128 -608
 7858 1d81 35       		.uleb128 0x35
 7859 1d82 01       		.uleb128 0x1
 7860 1d83 51       		.byte	0x51
 7861 1d84 03       		.uleb128 0x3
 7862 1d85 91       		.byte	0x91
 7863 1d86 E07D     		.sleb128 -288
 7864 1d88 35       		.uleb128 0x35
 7865 1d89 01       		.uleb128 0x1
 7866 1d8a 52       		.byte	0x52
 7867 1d8b 02       		.uleb128 0x2
 7868 1d8c 7B       		.byte	0x7b
 7869 1d8d 00       		.sleb128 0
 7870 1d8e 35       		.uleb128 0x35
 7871 1d8f 01       		.uleb128 0x1
 7872 1d90 53       		.byte	0x53
 7873 1d91 01       		.uleb128 0x1
 7874 1d92 30       		.byte	0x30
 7875 1d93 35       		.uleb128 0x35
 7876 1d94 02       		.uleb128 0x2
 7877 1d95 7D       		.byte	0x7d
 7878 1d96 00       		.sleb128 0
 7879 1d97 01       		.uleb128 0x1
 7880 1d98 31       		.byte	0x31
ARM GAS  C:\Users\rdn\AppData\Local\Temp\cc92LAgm.s 			page 168


 7881 1d99 35       		.uleb128 0x35
 7882 1d9a 02       		.uleb128 0x2
 7883 1d9b 7D       		.byte	0x7d
 7884 1d9c 04       		.sleb128 4
 7885 1d9d 02       		.uleb128 0x2
 7886 1d9e 76       		.byte	0x76
 7887 1d9f 00       		.sleb128 0
 7888 1da0 35       		.uleb128 0x35
 7889 1da1 02       		.uleb128 0x2
 7890 1da2 7D       		.byte	0x7d
 7891 1da3 08       		.sleb128 8
 7892 1da4 02       		.uleb128 0x2
 7893 1da5 77       		.byte	0x77
 7894 1da6 00       		.sleb128 0
 7895 1da7 00       		.byte	0
 7896 1da8 00       		.byte	0
 7897 1da9 00       		.byte	0
 7898 1daa 3D       		.uleb128 0x3d
 7899 1dab B90A0000 		.4byte	0xab9
 7900 1daf B8070000 		.4byte	.LBB149
 7901 1db3 C8010000 		.4byte	.Ldebug_ranges0+0x1c8
 7902 1db7 01       		.byte	0x1
 7903 1db8 1E03     		.2byte	0x31e
 7904 1dba 371E0000 		.4byte	0x1e37
 7905 1dbe 1C       		.uleb128 0x1c
 7906 1dbf 000B0000 		.4byte	0xb00
 7907 1dc3 7B130000 		.4byte	.LLST134
 7908 1dc7 1C       		.uleb128 0x1c
 7909 1dc8 F40A0000 		.4byte	0xaf4
 7910 1dcc A8130000 		.4byte	.LLST135
 7911 1dd0 1C       		.uleb128 0x1c
 7912 1dd1 E80A0000 		.4byte	0xae8
 7913 1dd5 D5130000 		.4byte	.LLST136
 7914 1dd9 1C       		.uleb128 0x1c
 7915 1dda DC0A0000 		.4byte	0xadc
 7916 1dde 02140000 		.4byte	.LLST137
 7917 1de2 1C       		.uleb128 0x1c
 7918 1de3 D20A0000 		.4byte	0xad2
 7919 1de7 2F140000 		.4byte	.LLST138
 7920 1deb 1C       		.uleb128 0x1c
 7921 1dec C60A0000 		.4byte	0xac6
 7922 1df0 42140000 		.4byte	.LLST139
 7923 1df4 42       		.uleb128 0x42
 7924 1df5 D2070000 		.4byte	.LVL265
 7925 1df9 83050000 		.4byte	0x583
 7926 1dfd 141E0000 		.4byte	0x1e14
 7927 1e01 35       		.uleb128 0x35
 7928 1e02 01       		.uleb128 0x1
 7929 1e03 50       		.byte	0x50
 7930 1e04 02       		.uleb128 0x2
 7931 1e05 74       		.byte	0x74
 7932 1e06 00       		.sleb128 0
 7933 1e07 35       		.uleb128 0x35
 7934 1e08 01       		.uleb128 0x1
 7935 1e09 52       		.byte	0x52
 7936 1e0a 02       		.uleb128 0x2
 7937 1e0b 75       		.byte	0x75
ARM GAS  C:\Users\rdn\AppData\Local\Temp\cc92LAgm.s 			page 169


 7938 1e0c 10       		.sleb128 16
 7939 1e0d 35       		.uleb128 0x35
 7940 1e0e 01       		.uleb128 0x1
 7941 1e0f 53       		.byte	0x53
 7942 1e10 02       		.uleb128 0x2
 7943 1e11 75       		.byte	0x75
 7944 1e12 18       		.sleb128 24
 7945 1e13 00       		.byte	0
 7946 1e14 41       		.uleb128 0x41
 7947 1e15 E6070000 		.4byte	.LVL268
 7948 1e19 83050000 		.4byte	0x583
 7949 1e1d 35       		.uleb128 0x35
 7950 1e1e 01       		.uleb128 0x1
 7951 1e1f 50       		.byte	0x50
 7952 1e20 02       		.uleb128 0x2
 7953 1e21 74       		.byte	0x74
 7954 1e22 28       		.sleb128 40
 7955 1e23 35       		.uleb128 0x35
 7956 1e24 01       		.uleb128 0x1
 7957 1e25 51       		.byte	0x51
 7958 1e26 02       		.uleb128 0x2
 7959 1e27 7B       		.byte	0x7b
 7960 1e28 00       		.sleb128 0
 7961 1e29 35       		.uleb128 0x35
 7962 1e2a 01       		.uleb128 0x1
 7963 1e2b 52       		.byte	0x52
 7964 1e2c 02       		.uleb128 0x2
 7965 1e2d 75       		.byte	0x75
 7966 1e2e 14       		.sleb128 20
 7967 1e2f 35       		.uleb128 0x35
 7968 1e30 01       		.uleb128 0x1
 7969 1e31 53       		.byte	0x53
 7970 1e32 02       		.uleb128 0x2
 7971 1e33 75       		.byte	0x75
 7972 1e34 19       		.sleb128 25
 7973 1e35 00       		.byte	0
 7974 1e36 00       		.byte	0
 7975 1e37 42       		.uleb128 0x42
 7976 1e38 B4070000 		.4byte	.LVL260
 7977 1e3c 76040000 		.4byte	0x476
 7978 1e40 4C1E0000 		.4byte	0x1e4c
 7979 1e44 35       		.uleb128 0x35
 7980 1e45 02       		.uleb128 0x2
 7981 1e46 7D       		.byte	0x7d
 7982 1e47 04       		.sleb128 4
 7983 1e48 02       		.uleb128 0x2
 7984 1e49 77       		.byte	0x77
 7985 1e4a 00       		.sleb128 0
 7986 1e4b 00       		.byte	0
 7987 1e4c 41       		.uleb128 0x41
 7988 1e4d FA070000 		.4byte	.LVL269
 7989 1e51 15080000 		.4byte	0x815
 7990 1e55 35       		.uleb128 0x35
 7991 1e56 01       		.uleb128 0x1
 7992 1e57 50       		.byte	0x50
 7993 1e58 02       		.uleb128 0x2
 7994 1e59 78       		.byte	0x78
ARM GAS  C:\Users\rdn\AppData\Local\Temp\cc92LAgm.s 			page 170


 7995 1e5a 00       		.sleb128 0
 7996 1e5b 35       		.uleb128 0x35
 7997 1e5c 01       		.uleb128 0x1
 7998 1e5d 51       		.byte	0x51
 7999 1e5e 02       		.uleb128 0x2
 8000 1e5f 79       		.byte	0x79
 8001 1e60 00       		.sleb128 0
 8002 1e61 35       		.uleb128 0x35
 8003 1e62 01       		.uleb128 0x1
 8004 1e63 52       		.byte	0x52
 8005 1e64 02       		.uleb128 0x2
 8006 1e65 77       		.byte	0x77
 8007 1e66 00       		.sleb128 0
 8008 1e67 35       		.uleb128 0x35
 8009 1e68 01       		.uleb128 0x1
 8010 1e69 53       		.byte	0x53
 8011 1e6a 01       		.uleb128 0x1
 8012 1e6b 30       		.byte	0x30
 8013 1e6c 35       		.uleb128 0x35
 8014 1e6d 02       		.uleb128 0x2
 8015 1e6e 7D       		.byte	0x7d
 8016 1e6f 00       		.sleb128 0
 8017 1e70 03       		.uleb128 0x3
 8018 1e71 91       		.byte	0x91
 8019 1e72 08       		.sleb128 8
 8020 1e73 06       		.byte	0x6
 8021 1e74 35       		.uleb128 0x35
 8022 1e75 02       		.uleb128 0x2
 8023 1e76 7D       		.byte	0x7d
 8024 1e77 04       		.sleb128 4
 8025 1e78 03       		.uleb128 0x3
 8026 1e79 91       		.byte	0x91
 8027 1e7a 0C       		.sleb128 12
 8028 1e7b 06       		.byte	0x6
 8029 1e7c 00       		.byte	0
 8030 1e7d 00       		.byte	0
 8031 1e7e 0A       		.uleb128 0xa
 8032 1e7f 04       		.byte	0x4
 8033 1e80 7B020000 		.4byte	0x27b
 8034 1e84 27       		.uleb128 0x27
 8035 1e85 25000000 		.4byte	0x25
 8036 1e89 9A1E0000 		.4byte	0x1e9a
 8037 1e8d 28       		.uleb128 0x28
 8038 1e8e 2B010000 		.4byte	0x12b
 8039 1e92 03       		.byte	0x3
 8040 1e93 28       		.uleb128 0x28
 8041 1e94 2B010000 		.4byte	0x12b
 8042 1e98 0F       		.byte	0xf
 8043 1e99 00       		.byte	0
 8044 1e9a 27       		.uleb128 0x27
 8045 1e9b 85000000 		.4byte	0x85
 8046 1e9f B01E0000 		.4byte	0x1eb0
 8047 1ea3 28       		.uleb128 0x28
 8048 1ea4 2B010000 		.4byte	0x12b
 8049 1ea8 03       		.byte	0x3
 8050 1ea9 28       		.uleb128 0x28
 8051 1eaa 2B010000 		.4byte	0x12b
ARM GAS  C:\Users\rdn\AppData\Local\Temp\cc92LAgm.s 			page 171


 8052 1eae 0F       		.byte	0xf
 8053 1eaf 00       		.byte	0
 8054 1eb0 36       		.uleb128 0x36
 8055 1eb1 9B020000 		.4byte	.LASF122
 8056 1eb5 01       		.byte	0x1
 8057 1eb6 B502     		.2byte	0x2b5
 8058 1eb8 01       		.byte	0x1
 8059 1eb9 101F0000 		.4byte	0x1f10
 8060 1ebd 37       		.uleb128 0x37
 8061 1ebe AD040000 		.4byte	.LASF59
 8062 1ec2 01       		.byte	0x1
 8063 1ec3 B502     		.2byte	0x2b5
 8064 1ec5 85000000 		.4byte	0x85
 8065 1ec9 37       		.uleb128 0x37
 8066 1eca 26070000 		.4byte	.LASF61
 8067 1ece 01       		.byte	0x1
 8068 1ecf B602     		.2byte	0x2b6
 8069 1ed1 85000000 		.4byte	0x85
 8070 1ed5 37       		.uleb128 0x37
 8071 1ed6 29060000 		.4byte	.LASF63
 8072 1eda 01       		.byte	0x1
 8073 1edb B602     		.2byte	0x2b6
 8074 1edd 24010000 		.4byte	0x124
 8075 1ee1 37       		.uleb128 0x37
 8076 1ee2 2C070000 		.4byte	.LASF62
 8077 1ee6 01       		.byte	0x1
 8078 1ee7 B602     		.2byte	0x2b6
 8079 1ee9 85000000 		.4byte	0x85
 8080 1eed 37       		.uleb128 0x37
 8081 1eee 2E060000 		.4byte	.LASF64
 8082 1ef2 01       		.byte	0x1
 8083 1ef3 B602     		.2byte	0x2b6
 8084 1ef5 24010000 		.4byte	0x124
 8085 1ef9 38       		.uleb128 0x38
 8086 1efa 6300     		.ascii	"c\000"
 8087 1efc 01       		.byte	0x1
 8088 1efd B602     		.2byte	0x2b6
 8089 1eff 37040000 		.4byte	0x437
 8090 1f03 29       		.uleb128 0x29
 8091 1f04 00000000 		.4byte	.LASF123
 8092 1f08 01       		.byte	0x1
 8093 1f09 B802     		.2byte	0x2b8
 8094 1f0b 85000000 		.4byte	0x85
 8095 1f0f 00       		.byte	0
 8096 1f10 3C       		.uleb128 0x3c
 8097 1f11 40030000 		.4byte	.LASF125
 8098 1f15 01       		.byte	0x1
 8099 1f16 2703     		.2byte	0x327
 8100 1f18 00000000 		.4byte	.LFB34
 8101 1f1c A0000000 		.4byte	.LFE34-.LFB34
 8102 1f20 01       		.uleb128 0x1
 8103 1f21 9C       		.byte	0x9c
 8104 1f22 DD200000 		.4byte	0x20dd
 8105 1f26 1A       		.uleb128 0x1a
 8106 1f27 647400   		.ascii	"dt\000"
 8107 1f2a 01       		.byte	0x1
 8108 1f2b 2803     		.2byte	0x328
ARM GAS  C:\Users\rdn\AppData\Local\Temp\cc92LAgm.s 			page 172


 8109 1f2d B4000000 		.4byte	0xb4
 8110 1f31 55140000 		.4byte	.LLST140
 8111 1f35 1A       		.uleb128 0x1a
 8112 1f36 737200   		.ascii	"sr\000"
 8113 1f39 01       		.byte	0x1
 8114 1f3a 2803     		.2byte	0x328
 8115 1f3c E3000000 		.4byte	0xe3
 8116 1f40 76140000 		.4byte	.LLST141
 8117 1f44 10       		.uleb128 0x10
 8118 1f45 FD020000 		.4byte	.LASF121
 8119 1f49 01       		.byte	0x1
 8120 1f4a 2903     		.2byte	0x329
 8121 1f4c DD200000 		.4byte	0x20dd
 8122 1f50 97140000 		.4byte	.LLST142
 8123 1f54 1A       		.uleb128 0x1a
 8124 1f55 7800     		.ascii	"x\000"
 8125 1f57 01       		.byte	0x1
 8126 1f58 2903     		.2byte	0x329
 8127 1f5a 16030000 		.4byte	0x316
 8128 1f5e C3140000 		.4byte	.LLST143
 8129 1f62 1A       		.uleb128 0x1a
 8130 1f63 7900     		.ascii	"y\000"
 8131 1f65 01       		.byte	0x1
 8132 1f66 2903     		.2byte	0x329
 8133 1f68 3D040000 		.4byte	0x43d
 8134 1f6c EF140000 		.4byte	.LLST144
 8135 1f70 13       		.uleb128 0x13
 8136 1f71 73636600 		.ascii	"scf\000"
 8137 1f75 01       		.byte	0x1
 8138 1f76 2B03     		.2byte	0x32b
 8139 1f78 D10C0000 		.4byte	0xcd1
 8140 1f7c 03       		.uleb128 0x3
 8141 1f7d 91       		.byte	0x91
 8142 1f7e 987E     		.sleb128 -232
 8143 1f80 13       		.uleb128 0x13
 8144 1f81 636E00   		.ascii	"cn\000"
 8145 1f84 01       		.byte	0x1
 8146 1f85 2B03     		.2byte	0x32b
 8147 1f87 D10C0000 		.4byte	0xcd1
 8148 1f8b 03       		.uleb128 0x3
 8149 1f8c 91       		.byte	0x91
 8150 1f8d D87E     		.sleb128 -168
 8151 1f8f 13       		.uleb128 0x13
 8152 1f90 6300     		.ascii	"c\000"
 8153 1f92 01       		.byte	0x1
 8154 1f93 2C03     		.2byte	0x32c
 8155 1f95 BB0C0000 		.4byte	0xcbb
 8156 1f99 03       		.uleb128 0x3
 8157 1f9a 91       		.byte	0x91
 8158 1f9b 987F     		.sleb128 -104
 8159 1f9d 3D       		.uleb128 0x3d
 8160 1f9e B01E0000 		.4byte	0x1eb0
 8161 1fa2 06000000 		.4byte	.LBB156
 8162 1fa6 E0010000 		.4byte	.Ldebug_ranges0+0x1e0
 8163 1faa 01       		.byte	0x1
 8164 1fab 2E03     		.2byte	0x32e
 8165 1fad 74200000 		.4byte	0x2074
ARM GAS  C:\Users\rdn\AppData\Local\Temp\cc92LAgm.s 			page 173


 8166 1fb1 1C       		.uleb128 0x1c
 8167 1fb2 F91E0000 		.4byte	0x1ef9
 8168 1fb6 0F150000 		.4byte	.LLST145
 8169 1fba 1C       		.uleb128 0x1c
 8170 1fbb ED1E0000 		.4byte	0x1eed
 8171 1fbf 3E150000 		.4byte	.LLST146
 8172 1fc3 1C       		.uleb128 0x1c
 8173 1fc4 E11E0000 		.4byte	0x1ee1
 8174 1fc8 51150000 		.4byte	.LLST147
 8175 1fcc 1C       		.uleb128 0x1c
 8176 1fcd D51E0000 		.4byte	0x1ed5
 8177 1fd1 64150000 		.4byte	.LLST148
 8178 1fd5 1C       		.uleb128 0x1c
 8179 1fd6 C91E0000 		.4byte	0x1ec9
 8180 1fda 77150000 		.4byte	.LLST149
 8181 1fde 1C       		.uleb128 0x1c
 8182 1fdf BD1E0000 		.4byte	0x1ebd
 8183 1fe3 A2150000 		.4byte	.LLST150
 8184 1fe7 12       		.uleb128 0x12
 8185 1fe8 E0010000 		.4byte	.Ldebug_ranges0+0x1e0
 8186 1fec 1E       		.uleb128 0x1e
 8187 1fed 031F0000 		.4byte	0x1f03
 8188 1ff1 B5150000 		.4byte	.LLST151
 8189 1ff5 42       		.uleb128 0x42
 8190 1ff6 44000000 		.4byte	.LVL280
 8191 1ffa 0B060000 		.4byte	0x60b
 8192 1ffe 2D200000 		.4byte	0x202d
 8193 2002 35       		.uleb128 0x35
 8194 2003 01       		.uleb128 0x1
 8195 2004 53       		.byte	0x53
 8196 2005 03       		.uleb128 0x3
 8197 2006 91       		.byte	0x91
 8198 2007 987F     		.sleb128 -104
 8199 2009 35       		.uleb128 0x35
 8200 200a 02       		.uleb128 0x2
 8201 200b 7D       		.byte	0x7d
 8202 200c 00       		.sleb128 0
 8203 200d 1E       		.uleb128 0x1e
 8204 200e 40       		.byte	0x40
 8205 200f 3A       		.byte	0x3a
 8206 2010 75       		.byte	0x75
 8207 2011 00       		.sleb128 0
 8208 2012 32       		.byte	0x32
 8209 2013 24       		.byte	0x24
 8210 2014 91       		.byte	0x91
 8211 2015 00       		.sleb128 0
 8212 2016 22       		.byte	0x22
 8213 2017 08       		.byte	0x8
 8214 2018 28       		.byte	0x28
 8215 2019 1C       		.byte	0x1c
 8216 201a 75       		.byte	0x75
 8217 201b 00       		.sleb128 0
 8218 201c 32       		.byte	0x32
 8219 201d 2D       		.byte	0x2d
 8220 201e 28       		.byte	0x28
 8221 201f 0100     		.2byte	0x1
 8222 2021 16       		.byte	0x16
ARM GAS  C:\Users\rdn\AppData\Local\Temp\cc92LAgm.s 			page 174


 8223 2022 13       		.byte	0x13
 8224 2023 75       		.byte	0x75
 8225 2024 00       		.sleb128 0
 8226 2025 32       		.byte	0x32
 8227 2026 2A       		.byte	0x2a
 8228 2027 28       		.byte	0x28
 8229 2028 0100     		.2byte	0x1
 8230 202a 16       		.byte	0x16
 8231 202b 13       		.byte	0x13
 8232 202c 00       		.byte	0
 8233 202d 42       		.uleb128 0x42
 8234 202e 56000000 		.4byte	.LVL281
 8235 2032 0B060000 		.4byte	0x60b
 8236 2036 58200000 		.4byte	0x2058
 8237 203a 35       		.uleb128 0x35
 8238 203b 01       		.uleb128 0x1
 8239 203c 50       		.byte	0x50
 8240 203d 02       		.uleb128 0x2
 8241 203e 7A       		.byte	0x7a
 8242 203f 00       		.sleb128 0
 8243 2040 35       		.uleb128 0x35
 8244 2041 01       		.uleb128 0x1
 8245 2042 51       		.byte	0x51
 8246 2043 02       		.uleb128 0x2
 8247 2044 7B       		.byte	0x7b
 8248 2045 00       		.sleb128 0
 8249 2046 35       		.uleb128 0x35
 8250 2047 01       		.uleb128 0x1
 8251 2048 52       		.byte	0x52
 8252 2049 01       		.uleb128 0x1
 8253 204a 31       		.byte	0x31
 8254 204b 35       		.uleb128 0x35
 8255 204c 01       		.uleb128 0x1
 8256 204d 53       		.byte	0x53
 8257 204e 02       		.uleb128 0x2
 8258 204f 91       		.byte	0x91
 8259 2050 40       		.sleb128 -64
 8260 2051 35       		.uleb128 0x35
 8261 2052 02       		.uleb128 0x2
 8262 2053 7D       		.byte	0x7d
 8263 2054 00       		.sleb128 0
 8264 2055 01       		.uleb128 0x1
 8265 2056 36       		.byte	0x36
 8266 2057 00       		.byte	0
 8267 2058 41       		.uleb128 0x41
 8268 2059 66000000 		.4byte	.LVL282
 8269 205d 1C260000 		.4byte	0x261c
 8270 2061 35       		.uleb128 0x35
 8271 2062 01       		.uleb128 0x1
 8272 2063 50       		.byte	0x50
 8273 2064 02       		.uleb128 0x2
 8274 2065 91       		.byte	0x91
 8275 2066 40       		.sleb128 -64
 8276 2067 35       		.uleb128 0x35
 8277 2068 01       		.uleb128 0x1
 8278 2069 51       		.byte	0x51
 8279 206a 01       		.uleb128 0x1
ARM GAS  C:\Users\rdn\AppData\Local\Temp\cc92LAgm.s 			page 175


 8280 206b 30       		.byte	0x30
 8281 206c 35       		.uleb128 0x35
 8282 206d 01       		.uleb128 0x1
 8283 206e 52       		.byte	0x52
 8284 206f 01       		.uleb128 0x1
 8285 2070 48       		.byte	0x48
 8286 2071 00       		.byte	0
 8287 2072 00       		.byte	0
 8288 2073 00       		.byte	0
 8289 2074 42       		.uleb128 0x42
 8290 2075 6E000000 		.4byte	.LVL283
 8291 2079 A3060000 		.4byte	0x6a3
 8292 207d 90200000 		.4byte	0x2090
 8293 2081 35       		.uleb128 0x35
 8294 2082 01       		.uleb128 0x1
 8295 2083 50       		.byte	0x50
 8296 2084 03       		.uleb128 0x3
 8297 2085 91       		.byte	0x91
 8298 2086 987F     		.sleb128 -104
 8299 2088 35       		.uleb128 0x35
 8300 2089 01       		.uleb128 0x1
 8301 208a 51       		.byte	0x51
 8302 208b 03       		.uleb128 0x3
 8303 208c 91       		.byte	0x91
 8304 208d D87E     		.sleb128 -168
 8305 208f 00       		.byte	0
 8306 2090 42       		.uleb128 0x42
 8307 2091 82000000 		.4byte	.LVL284
 8308 2095 76040000 		.4byte	0x476
 8309 2099 AC200000 		.4byte	0x20ac
 8310 209d 35       		.uleb128 0x35
 8311 209e 01       		.uleb128 0x1
 8312 209f 52       		.byte	0x52
 8313 20a0 03       		.uleb128 0x3
 8314 20a1 91       		.byte	0x91
 8315 20a2 D87E     		.sleb128 -168
 8316 20a4 35       		.uleb128 0x35
 8317 20a5 02       		.uleb128 0x2
 8318 20a6 7D       		.byte	0x7d
 8319 20a7 04       		.sleb128 4
 8320 20a8 02       		.uleb128 0x2
 8321 20a9 75       		.byte	0x75
 8322 20aa 00       		.sleb128 0
 8323 20ab 00       		.byte	0
 8324 20ac 41       		.uleb128 0x41
 8325 20ad 96000000 		.4byte	.LVL285
 8326 20b1 15080000 		.4byte	0x815
 8327 20b5 35       		.uleb128 0x35
 8328 20b6 01       		.uleb128 0x1
 8329 20b7 50       		.byte	0x50
 8330 20b8 02       		.uleb128 0x2
 8331 20b9 77       		.byte	0x77
 8332 20ba 00       		.sleb128 0
 8333 20bb 35       		.uleb128 0x35
 8334 20bc 01       		.uleb128 0x1
 8335 20bd 51       		.byte	0x51
 8336 20be 02       		.uleb128 0x2
ARM GAS  C:\Users\rdn\AppData\Local\Temp\cc92LAgm.s 			page 176


 8337 20bf 78       		.byte	0x78
 8338 20c0 00       		.sleb128 0
 8339 20c1 35       		.uleb128 0x35
 8340 20c2 01       		.uleb128 0x1
 8341 20c3 52       		.byte	0x52
 8342 20c4 02       		.uleb128 0x2
 8343 20c5 75       		.byte	0x75
 8344 20c6 00       		.sleb128 0
 8345 20c7 35       		.uleb128 0x35
 8346 20c8 01       		.uleb128 0x1
 8347 20c9 53       		.byte	0x53
 8348 20ca 01       		.uleb128 0x1
 8349 20cb 31       		.byte	0x31
 8350 20cc 35       		.uleb128 0x35
 8351 20cd 02       		.uleb128 0x2
 8352 20ce 7D       		.byte	0x7d
 8353 20cf 00       		.sleb128 0
 8354 20d0 02       		.uleb128 0x2
 8355 20d1 79       		.byte	0x79
 8356 20d2 00       		.sleb128 0
 8357 20d3 35       		.uleb128 0x35
 8358 20d4 02       		.uleb128 0x2
 8359 20d5 7D       		.byte	0x7d
 8360 20d6 04       		.sleb128 4
 8361 20d7 03       		.uleb128 0x3
 8362 20d8 91       		.byte	0x91
 8363 20d9 00       		.sleb128 0
 8364 20da 06       		.byte	0x6
 8365 20db 00       		.byte	0
 8366 20dc 00       		.byte	0
 8367 20dd 0A       		.uleb128 0xa
 8368 20de 04       		.byte	0x4
 8369 20df E3200000 		.4byte	0x20e3
 8370 20e3 0B       		.uleb128 0xb
 8371 20e4 E8020000 		.4byte	0x2e8
 8372 20e8 43       		.uleb128 0x43
 8373 20e9 53030000 		.4byte	.LASF156
 8374 20ed 01       		.byte	0x1
 8375 20ee 3B03     		.2byte	0x33b
 8376 20f0 85000000 		.4byte	0x85
 8377 20f4 00000000 		.4byte	.LFB35
 8378 20f8 04000000 		.4byte	.LFE35-.LFB35
 8379 20fc 01       		.uleb128 0x1
 8380 20fd 9C       		.byte	0x9c
 8381 20fe 17       		.uleb128 0x17
 8382 20ff D7010000 		.4byte	.LASF126
 8383 2103 03       		.byte	0x3
 8384 2104 D2       		.byte	0xd2
 8385 2105 03       		.byte	0x3
 8386 2106 1F210000 		.4byte	0x211f
 8387 210a 3A       		.uleb128 0x3a
 8388 210b 84030000 		.4byte	.LASF89
 8389 210f 03       		.byte	0x3
 8390 2110 D2       		.byte	0xd2
 8391 2111 1F210000 		.4byte	0x211f
 8392 2115 0D       		.uleb128 0xd
 8393 2116 7600     		.ascii	"v\000"
ARM GAS  C:\Users\rdn\AppData\Local\Temp\cc92LAgm.s 			page 177


 8394 2118 03       		.byte	0x3
 8395 2119 D2       		.byte	0xd2
 8396 211a 85000000 		.4byte	0x85
 8397 211e 00       		.byte	0
 8398 211f 0A       		.uleb128 0xa
 8399 2120 04       		.byte	0x4
 8400 2121 70020000 		.4byte	0x270
 8401 2125 3C       		.uleb128 0x3c
 8402 2126 EC030000 		.4byte	.LASF127
 8403 212a 01       		.byte	0x1
 8404 212b 4303     		.2byte	0x343
 8405 212d 00000000 		.4byte	.LFB36
 8406 2131 A8000000 		.4byte	.LFE36-.LFB36
 8407 2135 01       		.uleb128 0x1
 8408 2136 9C       		.byte	0x9c
 8409 2137 D5220000 		.4byte	0x22d5
 8410 213b 10       		.uleb128 0x10
 8411 213c 84030000 		.4byte	.LASF89
 8412 2140 01       		.byte	0x1
 8413 2141 4303     		.2byte	0x343
 8414 2143 1F210000 		.4byte	0x211f
 8415 2147 C8150000 		.4byte	.LLST152
 8416 214b 10       		.uleb128 0x10
 8417 214c FD020000 		.4byte	.LASF121
 8418 2150 01       		.byte	0x1
 8419 2151 4303     		.2byte	0x343
 8420 2153 D5220000 		.4byte	0x22d5
 8421 2157 FF150000 		.4byte	.LLST153
 8422 215b 14       		.uleb128 0x14
 8423 215c 0B010000 		.4byte	.LASF128
 8424 2160 01       		.byte	0x1
 8425 2161 4E03     		.2byte	0x34e
 8426 2163 85000000 		.4byte	0x85
 8427 2167 2B160000 		.4byte	.LLST154
 8428 216b 1B       		.uleb128 0x1b
 8429 216c FE200000 		.4byte	0x20fe
 8430 2170 1C000000 		.4byte	.LBB166
 8431 2174 10000000 		.4byte	.LBE166-.LBB166
 8432 2178 01       		.byte	0x1
 8433 2179 4F03     		.2byte	0x34f
 8434 217b AD210000 		.4byte	0x21ad
 8435 217f 1C       		.uleb128 0x1c
 8436 2180 15210000 		.4byte	0x2115
 8437 2184 49160000 		.4byte	.LLST155
 8438 2188 1C       		.uleb128 0x1c
 8439 2189 0A210000 		.4byte	0x210a
 8440 218d 5C160000 		.4byte	.LLST156
 8441 2191 41       		.uleb128 0x41
 8442 2192 26000000 		.4byte	.LVL292
 8443 2196 E0090000 		.4byte	0x9e0
 8444 219a 35       		.uleb128 0x35
 8445 219b 01       		.uleb128 0x1
 8446 219c 50       		.byte	0x50
 8447 219d 02       		.uleb128 0x2
 8448 219e 76       		.byte	0x76
 8449 219f 00       		.sleb128 0
 8450 21a0 35       		.uleb128 0x35
ARM GAS  C:\Users\rdn\AppData\Local\Temp\cc92LAgm.s 			page 178


 8451 21a1 01       		.uleb128 0x1
 8452 21a2 51       		.byte	0x51
 8453 21a3 02       		.uleb128 0x2
 8454 21a4 75       		.byte	0x75
 8455 21a5 00       		.sleb128 0
 8456 21a6 35       		.uleb128 0x35
 8457 21a7 01       		.uleb128 0x1
 8458 21a8 52       		.byte	0x52
 8459 21a9 01       		.uleb128 0x1
 8460 21aa 31       		.byte	0x31
 8461 21ab 00       		.byte	0
 8462 21ac 00       		.byte	0
 8463 21ad 1F       		.uleb128 0x1f
 8464 21ae 2E000000 		.4byte	.LBB168
 8465 21b2 34000000 		.4byte	.LBE168-.LBB168
 8466 21b6 29220000 		.4byte	0x2229
 8467 21ba 14       		.uleb128 0x14
 8468 21bb 21020000 		.4byte	.LASF129
 8469 21bf 01       		.byte	0x1
 8470 21c0 5203     		.2byte	0x352
 8471 21c2 00060000 		.4byte	0x600
 8472 21c6 6F160000 		.4byte	.LLST157
 8473 21ca 14       		.uleb128 0x14
 8474 21cb 56060000 		.4byte	.LASF130
 8475 21cf 01       		.byte	0x1
 8476 21d0 5303     		.2byte	0x353
 8477 21d2 85000000 		.4byte	0x85
 8478 21d6 87160000 		.4byte	.LLST158
 8479 21da 14       		.uleb128 0x14
 8480 21db 92020000 		.4byte	.LASF131
 8481 21df 01       		.byte	0x1
 8482 21e0 5503     		.2byte	0x355
 8483 21e2 85000000 		.4byte	0x85
 8484 21e6 B9160000 		.4byte	.LLST159
 8485 21ea 14       		.uleb128 0x14
 8486 21eb 69040000 		.4byte	.LASF132
 8487 21ef 01       		.byte	0x1
 8488 21f0 5703     		.2byte	0x357
 8489 21f2 85000000 		.4byte	0x85
 8490 21f6 CC160000 		.4byte	.LLST160
 8491 21fa 42       		.uleb128 0x42
 8492 21fb 54000000 		.4byte	.LVL300
 8493 21ff E0090000 		.4byte	0x9e0
 8494 2203 13220000 		.4byte	0x2213
 8495 2207 35       		.uleb128 0x35
 8496 2208 01       		.uleb128 0x1
 8497 2209 50       		.byte	0x50
 8498 220a 02       		.uleb128 0x2
 8499 220b 76       		.byte	0x76
 8500 220c 00       		.sleb128 0
 8501 220d 35       		.uleb128 0x35
 8502 220e 01       		.uleb128 0x1
 8503 220f 52       		.byte	0x52
 8504 2210 01       		.uleb128 0x1
 8505 2211 31       		.byte	0x31
 8506 2212 00       		.byte	0
 8507 2213 41       		.uleb128 0x41
ARM GAS  C:\Users\rdn\AppData\Local\Temp\cc92LAgm.s 			page 179


 8508 2214 5E000000 		.4byte	.LVL301
 8509 2218 E0090000 		.4byte	0x9e0
 8510 221c 35       		.uleb128 0x35
 8511 221d 01       		.uleb128 0x1
 8512 221e 50       		.byte	0x50
 8513 221f 02       		.uleb128 0x2
 8514 2220 76       		.byte	0x76
 8515 2221 00       		.sleb128 0
 8516 2222 35       		.uleb128 0x35
 8517 2223 01       		.uleb128 0x1
 8518 2224 52       		.byte	0x52
 8519 2225 01       		.uleb128 0x1
 8520 2226 31       		.byte	0x31
 8521 2227 00       		.byte	0
 8522 2228 00       		.byte	0
 8523 2229 3E       		.uleb128 0x3e
 8524 222a 00020000 		.4byte	.Ldebug_ranges0+0x200
 8525 222e A6220000 		.4byte	0x22a6
 8526 2232 14       		.uleb128 0x14
 8527 2233 21020000 		.4byte	.LASF129
 8528 2237 01       		.byte	0x1
 8529 2238 5E03     		.2byte	0x35e
 8530 223a 00060000 		.4byte	0x600
 8531 223e DF160000 		.4byte	.LLST161
 8532 2242 14       		.uleb128 0x14
 8533 2243 56060000 		.4byte	.LASF130
 8534 2247 01       		.byte	0x1
 8535 2248 5F03     		.2byte	0x35f
 8536 224a 85000000 		.4byte	0x85
 8537 224e F7160000 		.4byte	.LLST162
 8538 2252 14       		.uleb128 0x14
 8539 2253 69040000 		.4byte	.LASF132
 8540 2257 01       		.byte	0x1
 8541 2258 6103     		.2byte	0x361
 8542 225a 85000000 		.4byte	0x85
 8543 225e 29170000 		.4byte	.LLST163
 8544 2262 42       		.uleb128 0x42
 8545 2263 8A000000 		.4byte	.LVL307
 8546 2267 E0090000 		.4byte	0x9e0
 8547 226b 7B220000 		.4byte	0x227b
 8548 226f 35       		.uleb128 0x35
 8549 2270 01       		.uleb128 0x1
 8550 2271 50       		.byte	0x50
 8551 2272 02       		.uleb128 0x2
 8552 2273 76       		.byte	0x76
 8553 2274 00       		.sleb128 0
 8554 2275 35       		.uleb128 0x35
 8555 2276 01       		.uleb128 0x1
 8556 2277 52       		.byte	0x52
 8557 2278 01       		.uleb128 0x1
 8558 2279 32       		.byte	0x32
 8559 227a 00       		.byte	0
 8560 227b 42       		.uleb128 0x42
 8561 227c 94000000 		.4byte	.LVL308
 8562 2280 E0090000 		.4byte	0x9e0
 8563 2284 94220000 		.4byte	0x2294
 8564 2288 35       		.uleb128 0x35
ARM GAS  C:\Users\rdn\AppData\Local\Temp\cc92LAgm.s 			page 180


 8565 2289 01       		.uleb128 0x1
 8566 228a 50       		.byte	0x50
 8567 228b 02       		.uleb128 0x2
 8568 228c 76       		.byte	0x76
 8569 228d 00       		.sleb128 0
 8570 228e 35       		.uleb128 0x35
 8571 228f 01       		.uleb128 0x1
 8572 2290 52       		.byte	0x52
 8573 2291 01       		.uleb128 0x1
 8574 2292 31       		.byte	0x31
 8575 2293 00       		.byte	0
 8576 2294 34       		.uleb128 0x34
 8577 2295 A2000000 		.4byte	.LVL311
 8578 2299 E0090000 		.4byte	0x9e0
 8579 229d 35       		.uleb128 0x35
 8580 229e 01       		.uleb128 0x1
 8581 229f 50       		.byte	0x50
 8582 22a0 03       		.uleb128 0x3
 8583 22a1 F3       		.byte	0xf3
 8584 22a2 01       		.uleb128 0x1
 8585 22a3 50       		.byte	0x50
 8586 22a4 00       		.byte	0
 8587 22a5 00       		.byte	0
 8588 22a6 42       		.uleb128 0x42
 8589 22a7 0E000000 		.4byte	.LVL289
 8590 22ab E0090000 		.4byte	0x9e0
 8591 22af BF220000 		.4byte	0x22bf
 8592 22b3 35       		.uleb128 0x35
 8593 22b4 01       		.uleb128 0x1
 8594 22b5 50       		.byte	0x50
 8595 22b6 02       		.uleb128 0x2
 8596 22b7 76       		.byte	0x76
 8597 22b8 00       		.sleb128 0
 8598 22b9 35       		.uleb128 0x35
 8599 22ba 01       		.uleb128 0x1
 8600 22bb 52       		.byte	0x52
 8601 22bc 01       		.uleb128 0x1
 8602 22bd 35       		.byte	0x35
 8603 22be 00       		.byte	0
 8604 22bf 41       		.uleb128 0x41
 8605 22c0 18000000 		.4byte	.LVL290
 8606 22c4 E0090000 		.4byte	0x9e0
 8607 22c8 35       		.uleb128 0x35
 8608 22c9 01       		.uleb128 0x1
 8609 22ca 50       		.byte	0x50
 8610 22cb 02       		.uleb128 0x2
 8611 22cc 76       		.byte	0x76
 8612 22cd 00       		.sleb128 0
 8613 22ce 35       		.uleb128 0x35
 8614 22cf 01       		.uleb128 0x1
 8615 22d0 52       		.byte	0x52
 8616 22d1 01       		.uleb128 0x1
 8617 22d2 35       		.byte	0x35
 8618 22d3 00       		.byte	0
 8619 22d4 00       		.byte	0
 8620 22d5 0A       		.uleb128 0xa
 8621 22d6 04       		.byte	0x4
ARM GAS  C:\Users\rdn\AppData\Local\Temp\cc92LAgm.s 			page 181


 8622 22d7 DB220000 		.4byte	0x22db
 8623 22db 0B       		.uleb128 0xb
 8624 22dc 7B020000 		.4byte	0x27b
 8625 22e0 0C       		.uleb128 0xc
 8626 22e1 9F030000 		.4byte	.LASF133
 8627 22e5 03       		.byte	0x3
 8628 22e6 EA       		.byte	0xea
 8629 22e7 85000000 		.4byte	0x85
 8630 22eb 03       		.byte	0x3
 8631 22ec FC220000 		.4byte	0x22fc
 8632 22f0 3A       		.uleb128 0x3a
 8633 22f1 84030000 		.4byte	.LASF89
 8634 22f5 03       		.byte	0x3
 8635 22f6 EA       		.byte	0xea
 8636 22f7 1F210000 		.4byte	0x211f
 8637 22fb 00       		.byte	0
 8638 22fc 44       		.uleb128 0x44
 8639 22fd E2000000 		.4byte	.LASF157
 8640 2301 01       		.byte	0x1
 8641 2302 6D03     		.2byte	0x36d
 8642 2304 85000000 		.4byte	0x85
 8643 2308 00000000 		.4byte	.LFB37
 8644 230c 04010000 		.4byte	.LFE37-.LFB37
 8645 2310 01       		.uleb128 0x1
 8646 2311 9C       		.byte	0x9c
 8647 2312 73240000 		.4byte	0x2473
 8648 2316 10       		.uleb128 0x10
 8649 2317 84030000 		.4byte	.LASF89
 8650 231b 01       		.byte	0x1
 8651 231c 6D03     		.2byte	0x36d
 8652 231e 1F210000 		.4byte	0x211f
 8653 2322 3C170000 		.4byte	.LLST164
 8654 2326 10       		.uleb128 0x10
 8655 2327 FD020000 		.4byte	.LASF121
 8656 232b 01       		.byte	0x1
 8657 232c 6D03     		.2byte	0x36d
 8658 232e 7E1E0000 		.4byte	0x1e7e
 8659 2332 68170000 		.4byte	.LLST165
 8660 2336 29       		.uleb128 0x29
 8661 2337 0B010000 		.4byte	.LASF128
 8662 233b 01       		.byte	0x1
 8663 233c 7803     		.2byte	0x378
 8664 233e 85000000 		.4byte	0x85
 8665 2342 14       		.uleb128 0x14
 8666 2343 69040000 		.4byte	.LASF132
 8667 2347 01       		.byte	0x1
 8668 2348 7C03     		.2byte	0x37c
 8669 234a 85000000 		.4byte	0x85
 8670 234e 94170000 		.4byte	.LLST166
 8671 2352 3D       		.uleb128 0x3d
 8672 2353 E0220000 		.4byte	0x22e0
 8673 2357 24000000 		.4byte	.LBB177
 8674 235b 18020000 		.4byte	.Ldebug_ranges0+0x218
 8675 235f 01       		.byte	0x1
 8676 2360 7803     		.2byte	0x378
 8677 2362 85230000 		.4byte	0x2385
 8678 2366 1C       		.uleb128 0x1c
ARM GAS  C:\Users\rdn\AppData\Local\Temp\cc92LAgm.s 			page 182


 8679 2367 F0220000 		.4byte	0x22f0
 8680 236b F0170000 		.4byte	.LLST167
 8681 236f 41       		.uleb128 0x41
 8682 2370 2E000000 		.4byte	.LVL318
 8683 2374 430A0000 		.4byte	0xa43
 8684 2378 35       		.uleb128 0x35
 8685 2379 01       		.uleb128 0x1
 8686 237a 50       		.byte	0x50
 8687 237b 02       		.uleb128 0x2
 8688 237c 76       		.byte	0x76
 8689 237d 00       		.sleb128 0
 8690 237e 35       		.uleb128 0x35
 8691 237f 01       		.uleb128 0x1
 8692 2380 51       		.byte	0x51
 8693 2381 01       		.uleb128 0x1
 8694 2382 31       		.byte	0x31
 8695 2383 00       		.byte	0
 8696 2384 00       		.byte	0
 8697 2385 3D       		.uleb128 0x3d
 8698 2386 E0220000 		.4byte	0x22e0
 8699 238a 38000000 		.4byte	.LBB181
 8700 238e 30020000 		.4byte	.Ldebug_ranges0+0x230
 8701 2392 01       		.byte	0x1
 8702 2393 7A03     		.2byte	0x37a
 8703 2395 B8230000 		.4byte	0x23b8
 8704 2399 1C       		.uleb128 0x1c
 8705 239a F0220000 		.4byte	0x22f0
 8706 239e 03180000 		.4byte	.LLST168
 8707 23a2 41       		.uleb128 0x41
 8708 23a3 42000000 		.4byte	.LVL322
 8709 23a7 430A0000 		.4byte	0xa43
 8710 23ab 35       		.uleb128 0x35
 8711 23ac 01       		.uleb128 0x1
 8712 23ad 50       		.byte	0x50
 8713 23ae 02       		.uleb128 0x2
 8714 23af 76       		.byte	0x76
 8715 23b0 00       		.sleb128 0
 8716 23b1 35       		.uleb128 0x35
 8717 23b2 01       		.uleb128 0x1
 8718 23b3 51       		.byte	0x51
 8719 23b4 01       		.uleb128 0x1
 8720 23b5 31       		.byte	0x31
 8721 23b6 00       		.byte	0
 8722 23b7 00       		.byte	0
 8723 23b8 3E       		.uleb128 0x3e
 8724 23b9 48020000 		.4byte	.Ldebug_ranges0+0x248
 8725 23bd D2230000 		.4byte	0x23d2
 8726 23c1 14       		.uleb128 0x14
 8727 23c2 21020000 		.4byte	.LASF129
 8728 23c6 01       		.byte	0x1
 8729 23c7 7F03     		.2byte	0x37f
 8730 23c9 00060000 		.4byte	0x600
 8731 23cd 16180000 		.4byte	.LLST169
 8732 23d1 00       		.byte	0
 8733 23d2 1F       		.uleb128 0x1f
 8734 23d3 9E000000 		.4byte	.LBB186
 8735 23d7 4A000000 		.4byte	.LBE186-.LBB186
ARM GAS  C:\Users\rdn\AppData\Local\Temp\cc92LAgm.s 			page 183


 8736 23db F0230000 		.4byte	0x23f0
 8737 23df 14       		.uleb128 0x14
 8738 23e0 21020000 		.4byte	.LASF129
 8739 23e4 01       		.byte	0x1
 8740 23e5 9103     		.2byte	0x391
 8741 23e7 00060000 		.4byte	0x600
 8742 23eb 2E180000 		.4byte	.LLST170
 8743 23ef 00       		.byte	0
 8744 23f0 42       		.uleb128 0x42
 8745 23f1 0C000000 		.4byte	.LVL314
 8746 23f5 430A0000 		.4byte	0xa43
 8747 23f9 09240000 		.4byte	0x2409
 8748 23fd 35       		.uleb128 0x35
 8749 23fe 01       		.uleb128 0x1
 8750 23ff 50       		.byte	0x50
 8751 2400 02       		.uleb128 0x2
 8752 2401 76       		.byte	0x76
 8753 2402 00       		.sleb128 0
 8754 2403 35       		.uleb128 0x35
 8755 2404 01       		.uleb128 0x1
 8756 2405 51       		.byte	0x51
 8757 2406 01       		.uleb128 0x1
 8758 2407 35       		.byte	0x35
 8759 2408 00       		.byte	0
 8760 2409 42       		.uleb128 0x42
 8761 240a 16000000 		.4byte	.LVL315
 8762 240e 430A0000 		.4byte	0xa43
 8763 2412 22240000 		.4byte	0x2422
 8764 2416 35       		.uleb128 0x35
 8765 2417 01       		.uleb128 0x1
 8766 2418 50       		.byte	0x50
 8767 2419 02       		.uleb128 0x2
 8768 241a 76       		.byte	0x76
 8769 241b 00       		.sleb128 0
 8770 241c 35       		.uleb128 0x35
 8771 241d 01       		.uleb128 0x1
 8772 241e 51       		.byte	0x51
 8773 241f 01       		.uleb128 0x1
 8774 2420 35       		.byte	0x35
 8775 2421 00       		.byte	0
 8776 2422 42       		.uleb128 0x42
 8777 2423 22000000 		.4byte	.LVL316
 8778 2427 1C260000 		.4byte	0x261c
 8779 242b 40240000 		.4byte	0x2440
 8780 242f 35       		.uleb128 0x35
 8781 2430 01       		.uleb128 0x1
 8782 2431 50       		.byte	0x50
 8783 2432 02       		.uleb128 0x2
 8784 2433 74       		.byte	0x74
 8785 2434 00       		.sleb128 0
 8786 2435 35       		.uleb128 0x35
 8787 2436 01       		.uleb128 0x1
 8788 2437 51       		.byte	0x51
 8789 2438 01       		.uleb128 0x1
 8790 2439 30       		.byte	0x30
 8791 243a 35       		.uleb128 0x35
 8792 243b 01       		.uleb128 0x1
ARM GAS  C:\Users\rdn\AppData\Local\Temp\cc92LAgm.s 			page 184


 8793 243c 52       		.byte	0x52
 8794 243d 01       		.uleb128 0x1
 8795 243e 4C       		.byte	0x4c
 8796 243f 00       		.byte	0
 8797 2440 42       		.uleb128 0x42
 8798 2441 38000000 		.4byte	.LVL320
 8799 2445 430A0000 		.4byte	0xa43
 8800 2449 5A240000 		.4byte	0x245a
 8801 244d 35       		.uleb128 0x35
 8802 244e 01       		.uleb128 0x1
 8803 244f 50       		.byte	0x50
 8804 2450 02       		.uleb128 0x2
 8805 2451 76       		.byte	0x76
 8806 2452 00       		.sleb128 0
 8807 2453 35       		.uleb128 0x35
 8808 2454 01       		.uleb128 0x1
 8809 2455 51       		.byte	0x51
 8810 2456 02       		.uleb128 0x2
 8811 2457 75       		.byte	0x75
 8812 2458 01       		.sleb128 1
 8813 2459 00       		.byte	0
 8814 245a 41       		.uleb128 0x41
 8815 245b 54000000 		.4byte	.LVL323
 8816 245f 430A0000 		.4byte	0xa43
 8817 2463 35       		.uleb128 0x35
 8818 2464 01       		.uleb128 0x1
 8819 2465 50       		.byte	0x50
 8820 2466 02       		.uleb128 0x2
 8821 2467 76       		.byte	0x76
 8822 2468 00       		.sleb128 0
 8823 2469 35       		.uleb128 0x35
 8824 246a 01       		.uleb128 0x1
 8825 246b 51       		.byte	0x51
 8826 246c 04       		.uleb128 0x4
 8827 246d 49       		.byte	0x49
 8828 246e 75       		.byte	0x75
 8829 246f 00       		.sleb128 0
 8830 2470 1C       		.byte	0x1c
 8831 2471 00       		.byte	0
 8832 2472 00       		.byte	0
 8833 2473 27       		.uleb128 0x27
 8834 2474 1C030000 		.4byte	0x31c
 8835 2478 89240000 		.4byte	0x2489
 8836 247c 28       		.uleb128 0x28
 8837 247d 2B010000 		.4byte	0x12b
 8838 2481 0F       		.byte	0xf
 8839 2482 28       		.uleb128 0x28
 8840 2483 2B010000 		.4byte	0x12b
 8841 2487 0F       		.byte	0xf
 8842 2488 00       		.byte	0
 8843 2489 45       		.uleb128 0x45
 8844 248a 0E060000 		.4byte	.LASF134
 8845 248e 01       		.byte	0x1
 8846 248f 23       		.byte	0x23
 8847 2490 9A240000 		.4byte	0x249a
 8848 2494 05       		.uleb128 0x5
 8849 2495 03       		.byte	0x3
ARM GAS  C:\Users\rdn\AppData\Local\Temp\cc92LAgm.s 			page 185


 8850 2496 00000000 		.4byte	dct16_m
 8851 249a 0B       		.uleb128 0xb
 8852 249b 73240000 		.4byte	0x2473
 8853 249f 27       		.uleb128 0x27
 8854 24a0 00060000 		.4byte	0x600
 8855 24a4 AF240000 		.4byte	0x24af
 8856 24a8 28       		.uleb128 0x28
 8857 24a9 2B010000 		.4byte	0x12b
 8858 24ad 06       		.byte	0x6
 8859 24ae 00       		.byte	0
 8860 24af 46       		.uleb128 0x46
 8861 24b0 15010000 		.4byte	.LASF135
 8862 24b4 08       		.byte	0x8
 8863 24b5 2A       		.byte	0x2a
 8864 24b6 BA240000 		.4byte	0x24ba
 8865 24ba 0B       		.uleb128 0xb
 8866 24bb 9F240000 		.4byte	0x249f
 8867 24bf 46       		.uleb128 0x46
 8868 24c0 38000000 		.4byte	.LASF136
 8869 24c4 08       		.byte	0x8
 8870 24c5 2B       		.byte	0x2b
 8871 24c6 CA240000 		.4byte	0x24ca
 8872 24ca 0B       		.uleb128 0xb
 8873 24cb 9F240000 		.4byte	0x249f
 8874 24cf 46       		.uleb128 0x46
 8875 24d0 F3000000 		.4byte	.LASF137
 8876 24d4 08       		.byte	0x8
 8877 24d5 2C       		.byte	0x2c
 8878 24d6 DA240000 		.4byte	0x24da
 8879 24da 0B       		.uleb128 0xb
 8880 24db 9F240000 		.4byte	0x249f
 8881 24df 27       		.uleb128 0x27
 8882 24e0 00060000 		.4byte	0x600
 8883 24e4 FB240000 		.4byte	0x24fb
 8884 24e8 28       		.uleb128 0x28
 8885 24e9 2B010000 		.4byte	0x12b
 8886 24ed 03       		.byte	0x3
 8887 24ee 28       		.uleb128 0x28
 8888 24ef 2B010000 		.4byte	0x12b
 8889 24f3 01       		.byte	0x1
 8890 24f4 28       		.uleb128 0x28
 8891 24f5 2B010000 		.4byte	0x12b
 8892 24f9 01       		.byte	0x1
 8893 24fa 00       		.byte	0
 8894 24fb 46       		.uleb128 0x46
 8895 24fc 09070000 		.4byte	.LASF138
 8896 2500 08       		.byte	0x8
 8897 2501 4E       		.byte	0x4e
 8898 2502 06250000 		.4byte	0x2506
 8899 2506 0B       		.uleb128 0xb
 8900 2507 DF240000 		.4byte	0x24df
 8901 250b 27       		.uleb128 0x27
 8902 250c 00060000 		.4byte	0x600
 8903 2510 21250000 		.4byte	0x2521
 8904 2514 28       		.uleb128 0x28
 8905 2515 2B010000 		.4byte	0x12b
 8906 2519 03       		.byte	0x3
ARM GAS  C:\Users\rdn\AppData\Local\Temp\cc92LAgm.s 			page 186


 8907 251a 28       		.uleb128 0x28
 8908 251b 2B010000 		.4byte	0x12b
 8909 251f 06       		.byte	0x6
 8910 2520 00       		.byte	0
 8911 2521 46       		.uleb128 0x46
 8912 2522 90040000 		.4byte	.LASF139
 8913 2526 08       		.byte	0x8
 8914 2527 71       		.byte	0x71
 8915 2528 2C250000 		.4byte	0x252c
 8916 252c 0B       		.uleb128 0xb
 8917 252d 0B250000 		.4byte	0x250b
 8918 2531 27       		.uleb128 0x27
 8919 2532 FA050000 		.4byte	0x5fa
 8920 2536 47250000 		.4byte	0x2547
 8921 253a 28       		.uleb128 0x28
 8922 253b 2B010000 		.4byte	0x12b
 8923 253f 03       		.byte	0x3
 8924 2540 28       		.uleb128 0x28
 8925 2541 2B010000 		.4byte	0x12b
 8926 2545 06       		.byte	0x6
 8927 2546 00       		.byte	0
 8928 2547 46       		.uleb128 0x46
 8929 2548 7A020000 		.4byte	.LASF140
 8930 254c 08       		.byte	0x8
 8931 254d 72       		.byte	0x72
 8932 254e 31250000 		.4byte	0x2531
 8933 2552 27       		.uleb128 0x27
 8934 2553 1C030000 		.4byte	0x31c
 8935 2557 68250000 		.4byte	0x2568
 8936 255b 28       		.uleb128 0x28
 8937 255c 2B010000 		.4byte	0x12b
 8938 2560 1F       		.byte	0x1f
 8939 2561 28       		.uleb128 0x28
 8940 2562 2B010000 		.4byte	0x12b
 8941 2566 07       		.byte	0x7
 8942 2567 00       		.byte	0
 8943 2568 46       		.uleb128 0x46
 8944 2569 09020000 		.4byte	.LASF141
 8945 256d 08       		.byte	0x8
 8946 256e 79       		.byte	0x79
 8947 256f 73250000 		.4byte	0x2573
 8948 2573 0B       		.uleb128 0xb
 8949 2574 52250000 		.4byte	0x2552
 8950 2578 46       		.uleb128 0x46
 8951 2579 32070000 		.4byte	.LASF142
 8952 257d 08       		.byte	0x8
 8953 257e 7A       		.byte	0x7a
 8954 257f 83250000 		.4byte	0x2583
 8955 2583 0B       		.uleb128 0xb
 8956 2584 52250000 		.4byte	0x2552
 8957 2588 27       		.uleb128 0x27
 8958 2589 ED0C0000 		.4byte	0xced
 8959 258d 98250000 		.4byte	0x2598
 8960 2591 28       		.uleb128 0x28
 8961 2592 2B010000 		.4byte	0x12b
 8962 2596 03       		.byte	0x3
 8963 2597 00       		.byte	0
ARM GAS  C:\Users\rdn\AppData\Local\Temp\cc92LAgm.s 			page 187


 8964 2598 46       		.uleb128 0x46
 8965 2599 70000000 		.4byte	.LASF66
 8966 259d 08       		.byte	0x8
 8967 259e 80       		.byte	0x80
 8968 259f A3250000 		.4byte	0x25a3
 8969 25a3 0B       		.uleb128 0xb
 8970 25a4 88250000 		.4byte	0x2588
 8971 25a8 27       		.uleb128 0x27
 8972 25a9 B9250000 		.4byte	0x25b9
 8973 25ad B9250000 		.4byte	0x25b9
 8974 25b1 47       		.uleb128 0x47
 8975 25b2 28       		.uleb128 0x28
 8976 25b3 2B010000 		.4byte	0x12b
 8977 25b7 0A       		.byte	0xa
 8978 25b8 00       		.byte	0
 8979 25b9 0B       		.uleb128 0xb
 8980 25ba 9E000000 		.4byte	0x9e
 8981 25be 46       		.uleb128 0x46
 8982 25bf F9050000 		.4byte	.LASF143
 8983 25c3 08       		.byte	0x8
 8984 25c4 82       		.byte	0x82
 8985 25c5 C9250000 		.4byte	0x25c9
 8986 25c9 0B       		.uleb128 0xb
 8987 25ca A8250000 		.4byte	0x25a8
 8988 25ce 48       		.uleb128 0x48
 8989 25cf 64060000 		.4byte	.LASF144
 8990 25d3 64060000 		.4byte	.LASF144
 8991 25d7 0A       		.byte	0xa
 8992 25d8 8501     		.2byte	0x185
 8993 25da 49       		.uleb128 0x49
 8994 25db 6D010000 		.4byte	.LASF145
 8995 25df 6D010000 		.4byte	.LASF145
 8996 25e3 0B       		.byte	0xb
 8997 25e4 18       		.byte	0x18
 8998 25e5 49       		.uleb128 0x49
 8999 25e6 CD030000 		.4byte	.LASF146
 9000 25ea CD030000 		.4byte	.LASF146
 9001 25ee 03       		.byte	0x3
 9002 25ef C8       		.byte	0xc8
 9003 25f0 49       		.uleb128 0x49
 9004 25f1 4F020000 		.4byte	.LASF147
 9005 25f5 4F020000 		.4byte	.LASF147
 9006 25f9 03       		.byte	0x3
 9007 25fa C9       		.byte	0xc9
 9008 25fb 48       		.uleb128 0x48
 9009 25fc 8B050000 		.4byte	.LASF148
 9010 2600 8B050000 		.4byte	.LASF148
 9011 2604 0A       		.byte	0xa
 9012 2605 9701     		.2byte	0x197
 9013 2607 4A       		.uleb128 0x4a
 9014 2608 B0060000 		.4byte	.LASF150
 9015 260c B0060000 		.4byte	.LASF150
 9016 2610 48       		.uleb128 0x48
 9017 2611 B1010000 		.4byte	.LASF149
 9018 2615 B1010000 		.4byte	.LASF149
 9019 2619 0A       		.byte	0xa
 9020 261a 7801     		.2byte	0x178
ARM GAS  C:\Users\rdn\AppData\Local\Temp\cc92LAgm.s 			page 188


 9021 261c 4A       		.uleb128 0x4a
 9022 261d AB030000 		.4byte	.LASF151
 9023 2621 AB030000 		.4byte	.LASF151
 9024 2625 00       		.byte	0
 9025              		.section	.debug_abbrev,"",%progbits
 9026              	.Ldebug_abbrev0:
 9027 0000 01       		.uleb128 0x1
 9028 0001 11       		.uleb128 0x11
 9029 0002 01       		.byte	0x1
 9030 0003 25       		.uleb128 0x25
 9031 0004 0E       		.uleb128 0xe
 9032 0005 13       		.uleb128 0x13
 9033 0006 0B       		.uleb128 0xb
 9034 0007 03       		.uleb128 0x3
 9035 0008 0E       		.uleb128 0xe
 9036 0009 1B       		.uleb128 0x1b
 9037 000a 0E       		.uleb128 0xe
 9038 000b 55       		.uleb128 0x55
 9039 000c 17       		.uleb128 0x17
 9040 000d 11       		.uleb128 0x11
 9041 000e 01       		.uleb128 0x1
 9042 000f 10       		.uleb128 0x10
 9043 0010 17       		.uleb128 0x17
 9044 0011 00       		.byte	0
 9045 0012 00       		.byte	0
 9046 0013 02       		.uleb128 0x2
 9047 0014 24       		.uleb128 0x24
 9048 0015 00       		.byte	0
 9049 0016 0B       		.uleb128 0xb
 9050 0017 0B       		.uleb128 0xb
 9051 0018 3E       		.uleb128 0x3e
 9052 0019 0B       		.uleb128 0xb
 9053 001a 03       		.uleb128 0x3
 9054 001b 0E       		.uleb128 0xe
 9055 001c 00       		.byte	0
 9056 001d 00       		.byte	0
 9057 001e 03       		.uleb128 0x3
 9058 001f 16       		.uleb128 0x16
 9059 0020 00       		.byte	0
 9060 0021 03       		.uleb128 0x3
 9061 0022 0E       		.uleb128 0xe
 9062 0023 3A       		.uleb128 0x3a
 9063 0024 0B       		.uleb128 0xb
 9064 0025 3B       		.uleb128 0x3b
 9065 0026 0B       		.uleb128 0xb
 9066 0027 49       		.uleb128 0x49
 9067 0028 13       		.uleb128 0x13
 9068 0029 00       		.byte	0
 9069 002a 00       		.byte	0
 9070 002b 04       		.uleb128 0x4
 9071 002c 24       		.uleb128 0x24
 9072 002d 00       		.byte	0
 9073 002e 0B       		.uleb128 0xb
 9074 002f 0B       		.uleb128 0xb
 9075 0030 3E       		.uleb128 0x3e
 9076 0031 0B       		.uleb128 0xb
 9077 0032 03       		.uleb128 0x3
ARM GAS  C:\Users\rdn\AppData\Local\Temp\cc92LAgm.s 			page 189


 9078 0033 08       		.uleb128 0x8
 9079 0034 00       		.byte	0
 9080 0035 00       		.byte	0
 9081 0036 05       		.uleb128 0x5
 9082 0037 04       		.uleb128 0x4
 9083 0038 01       		.byte	0x1
 9084 0039 03       		.uleb128 0x3
 9085 003a 0E       		.uleb128 0xe
 9086 003b 0B       		.uleb128 0xb
 9087 003c 0B       		.uleb128 0xb
 9088 003d 49       		.uleb128 0x49
 9089 003e 13       		.uleb128 0x13
 9090 003f 3A       		.uleb128 0x3a
 9091 0040 0B       		.uleb128 0xb
 9092 0041 3B       		.uleb128 0x3b
 9093 0042 0B       		.uleb128 0xb
 9094 0043 01       		.uleb128 0x1
 9095 0044 13       		.uleb128 0x13
 9096 0045 00       		.byte	0
 9097 0046 00       		.byte	0
 9098 0047 06       		.uleb128 0x6
 9099 0048 28       		.uleb128 0x28
 9100 0049 00       		.byte	0
 9101 004a 03       		.uleb128 0x3
 9102 004b 0E       		.uleb128 0xe
 9103 004c 1C       		.uleb128 0x1c
 9104 004d 0B       		.uleb128 0xb
 9105 004e 00       		.byte	0
 9106 004f 00       		.byte	0
 9107 0050 07       		.uleb128 0x7
 9108 0051 13       		.uleb128 0x13
 9109 0052 01       		.byte	0x1
 9110 0053 03       		.uleb128 0x3
 9111 0054 0E       		.uleb128 0xe
 9112 0055 0B       		.uleb128 0xb
 9113 0056 0B       		.uleb128 0xb
 9114 0057 3A       		.uleb128 0x3a
 9115 0058 0B       		.uleb128 0xb
 9116 0059 3B       		.uleb128 0x3b
 9117 005a 0B       		.uleb128 0xb
 9118 005b 01       		.uleb128 0x1
 9119 005c 13       		.uleb128 0x13
 9120 005d 00       		.byte	0
 9121 005e 00       		.byte	0
 9122 005f 08       		.uleb128 0x8
 9123 0060 0D       		.uleb128 0xd
 9124 0061 00       		.byte	0
 9125 0062 03       		.uleb128 0x3
 9126 0063 08       		.uleb128 0x8
 9127 0064 3A       		.uleb128 0x3a
 9128 0065 0B       		.uleb128 0xb
 9129 0066 3B       		.uleb128 0x3b
 9130 0067 0B       		.uleb128 0xb
 9131 0068 49       		.uleb128 0x49
 9132 0069 13       		.uleb128 0x13
 9133 006a 38       		.uleb128 0x38
 9134 006b 0B       		.uleb128 0xb
ARM GAS  C:\Users\rdn\AppData\Local\Temp\cc92LAgm.s 			page 190


 9135 006c 00       		.byte	0
 9136 006d 00       		.byte	0
 9137 006e 09       		.uleb128 0x9
 9138 006f 0D       		.uleb128 0xd
 9139 0070 00       		.byte	0
 9140 0071 03       		.uleb128 0x3
 9141 0072 0E       		.uleb128 0xe
 9142 0073 3A       		.uleb128 0x3a
 9143 0074 0B       		.uleb128 0xb
 9144 0075 3B       		.uleb128 0x3b
 9145 0076 0B       		.uleb128 0xb
 9146 0077 49       		.uleb128 0x49
 9147 0078 13       		.uleb128 0x13
 9148 0079 38       		.uleb128 0x38
 9149 007a 0B       		.uleb128 0xb
 9150 007b 00       		.byte	0
 9151 007c 00       		.byte	0
 9152 007d 0A       		.uleb128 0xa
 9153 007e 0F       		.uleb128 0xf
 9154 007f 00       		.byte	0
 9155 0080 0B       		.uleb128 0xb
 9156 0081 0B       		.uleb128 0xb
 9157 0082 49       		.uleb128 0x49
 9158 0083 13       		.uleb128 0x13
 9159 0084 00       		.byte	0
 9160 0085 00       		.byte	0
 9161 0086 0B       		.uleb128 0xb
 9162 0087 26       		.uleb128 0x26
 9163 0088 00       		.byte	0
 9164 0089 49       		.uleb128 0x49
 9165 008a 13       		.uleb128 0x13
 9166 008b 00       		.byte	0
 9167 008c 00       		.byte	0
 9168 008d 0C       		.uleb128 0xc
 9169 008e 2E       		.uleb128 0x2e
 9170 008f 01       		.byte	0x1
 9171 0090 03       		.uleb128 0x3
 9172 0091 0E       		.uleb128 0xe
 9173 0092 3A       		.uleb128 0x3a
 9174 0093 0B       		.uleb128 0xb
 9175 0094 3B       		.uleb128 0x3b
 9176 0095 0B       		.uleb128 0xb
 9177 0096 27       		.uleb128 0x27
 9178 0097 19       		.uleb128 0x19
 9179 0098 49       		.uleb128 0x49
 9180 0099 13       		.uleb128 0x13
 9181 009a 20       		.uleb128 0x20
 9182 009b 0B       		.uleb128 0xb
 9183 009c 01       		.uleb128 0x1
 9184 009d 13       		.uleb128 0x13
 9185 009e 00       		.byte	0
 9186 009f 00       		.byte	0
 9187 00a0 0D       		.uleb128 0xd
 9188 00a1 05       		.uleb128 0x5
 9189 00a2 00       		.byte	0
 9190 00a3 03       		.uleb128 0x3
 9191 00a4 08       		.uleb128 0x8
ARM GAS  C:\Users\rdn\AppData\Local\Temp\cc92LAgm.s 			page 191


 9192 00a5 3A       		.uleb128 0x3a
 9193 00a6 0B       		.uleb128 0xb
 9194 00a7 3B       		.uleb128 0x3b
 9195 00a8 0B       		.uleb128 0xb
 9196 00a9 49       		.uleb128 0x49
 9197 00aa 13       		.uleb128 0x13
 9198 00ab 00       		.byte	0
 9199 00ac 00       		.byte	0
 9200 00ad 0E       		.uleb128 0xe
 9201 00ae 2E       		.uleb128 0x2e
 9202 00af 01       		.byte	0x1
 9203 00b0 03       		.uleb128 0x3
 9204 00b1 0E       		.uleb128 0xe
 9205 00b2 3A       		.uleb128 0x3a
 9206 00b3 0B       		.uleb128 0xb
 9207 00b4 3B       		.uleb128 0x3b
 9208 00b5 05       		.uleb128 0x5
 9209 00b6 27       		.uleb128 0x27
 9210 00b7 19       		.uleb128 0x19
 9211 00b8 11       		.uleb128 0x11
 9212 00b9 01       		.uleb128 0x1
 9213 00ba 12       		.uleb128 0x12
 9214 00bb 06       		.uleb128 0x6
 9215 00bc 40       		.uleb128 0x40
 9216 00bd 18       		.uleb128 0x18
 9217 00be 9742     		.uleb128 0x2117
 9218 00c0 19       		.uleb128 0x19
 9219 00c1 01       		.uleb128 0x1
 9220 00c2 13       		.uleb128 0x13
 9221 00c3 00       		.byte	0
 9222 00c4 00       		.byte	0
 9223 00c5 0F       		.uleb128 0xf
 9224 00c6 05       		.uleb128 0x5
 9225 00c7 00       		.byte	0
 9226 00c8 03       		.uleb128 0x3
 9227 00c9 08       		.uleb128 0x8
 9228 00ca 3A       		.uleb128 0x3a
 9229 00cb 0B       		.uleb128 0xb
 9230 00cc 3B       		.uleb128 0x3b
 9231 00cd 05       		.uleb128 0x5
 9232 00ce 49       		.uleb128 0x49
 9233 00cf 13       		.uleb128 0x13
 9234 00d0 02       		.uleb128 0x2
 9235 00d1 18       		.uleb128 0x18
 9236 00d2 00       		.byte	0
 9237 00d3 00       		.byte	0
 9238 00d4 10       		.uleb128 0x10
 9239 00d5 05       		.uleb128 0x5
 9240 00d6 00       		.byte	0
 9241 00d7 03       		.uleb128 0x3
 9242 00d8 0E       		.uleb128 0xe
 9243 00d9 3A       		.uleb128 0x3a
 9244 00da 0B       		.uleb128 0xb
 9245 00db 3B       		.uleb128 0x3b
 9246 00dc 05       		.uleb128 0x5
 9247 00dd 49       		.uleb128 0x49
 9248 00de 13       		.uleb128 0x13
ARM GAS  C:\Users\rdn\AppData\Local\Temp\cc92LAgm.s 			page 192


 9249 00df 02       		.uleb128 0x2
 9250 00e0 17       		.uleb128 0x17
 9251 00e1 00       		.byte	0
 9252 00e2 00       		.byte	0
 9253 00e3 11       		.uleb128 0x11
 9254 00e4 05       		.uleb128 0x5
 9255 00e5 00       		.byte	0
 9256 00e6 03       		.uleb128 0x3
 9257 00e7 0E       		.uleb128 0xe
 9258 00e8 3A       		.uleb128 0x3a
 9259 00e9 0B       		.uleb128 0xb
 9260 00ea 3B       		.uleb128 0x3b
 9261 00eb 05       		.uleb128 0x5
 9262 00ec 49       		.uleb128 0x49
 9263 00ed 13       		.uleb128 0x13
 9264 00ee 02       		.uleb128 0x2
 9265 00ef 18       		.uleb128 0x18
 9266 00f0 00       		.byte	0
 9267 00f1 00       		.byte	0
 9268 00f2 12       		.uleb128 0x12
 9269 00f3 0B       		.uleb128 0xb
 9270 00f4 01       		.byte	0x1
 9271 00f5 55       		.uleb128 0x55
 9272 00f6 17       		.uleb128 0x17
 9273 00f7 00       		.byte	0
 9274 00f8 00       		.byte	0
 9275 00f9 13       		.uleb128 0x13
 9276 00fa 34       		.uleb128 0x34
 9277 00fb 00       		.byte	0
 9278 00fc 03       		.uleb128 0x3
 9279 00fd 08       		.uleb128 0x8
 9280 00fe 3A       		.uleb128 0x3a
 9281 00ff 0B       		.uleb128 0xb
 9282 0100 3B       		.uleb128 0x3b
 9283 0101 05       		.uleb128 0x5
 9284 0102 49       		.uleb128 0x49
 9285 0103 13       		.uleb128 0x13
 9286 0104 02       		.uleb128 0x2
 9287 0105 18       		.uleb128 0x18
 9288 0106 00       		.byte	0
 9289 0107 00       		.byte	0
 9290 0108 14       		.uleb128 0x14
 9291 0109 34       		.uleb128 0x34
 9292 010a 00       		.byte	0
 9293 010b 03       		.uleb128 0x3
 9294 010c 0E       		.uleb128 0xe
 9295 010d 3A       		.uleb128 0x3a
 9296 010e 0B       		.uleb128 0xb
 9297 010f 3B       		.uleb128 0x3b
 9298 0110 05       		.uleb128 0x5
 9299 0111 49       		.uleb128 0x49
 9300 0112 13       		.uleb128 0x13
 9301 0113 02       		.uleb128 0x2
 9302 0114 17       		.uleb128 0x17
 9303 0115 00       		.byte	0
 9304 0116 00       		.byte	0
 9305 0117 15       		.uleb128 0x15
ARM GAS  C:\Users\rdn\AppData\Local\Temp\cc92LAgm.s 			page 193


 9306 0118 34       		.uleb128 0x34
 9307 0119 00       		.byte	0
 9308 011a 03       		.uleb128 0x3
 9309 011b 08       		.uleb128 0x8
 9310 011c 3A       		.uleb128 0x3a
 9311 011d 0B       		.uleb128 0xb
 9312 011e 3B       		.uleb128 0x3b
 9313 011f 05       		.uleb128 0x5
 9314 0120 49       		.uleb128 0x49
 9315 0121 13       		.uleb128 0x13
 9316 0122 02       		.uleb128 0x2
 9317 0123 17       		.uleb128 0x17
 9318 0124 00       		.byte	0
 9319 0125 00       		.byte	0
 9320 0126 16       		.uleb128 0x16
 9321 0127 0B       		.uleb128 0xb
 9322 0128 01       		.byte	0x1
 9323 0129 11       		.uleb128 0x11
 9324 012a 01       		.uleb128 0x1
 9325 012b 12       		.uleb128 0x12
 9326 012c 06       		.uleb128 0x6
 9327 012d 00       		.byte	0
 9328 012e 00       		.byte	0
 9329 012f 17       		.uleb128 0x17
 9330 0130 2E       		.uleb128 0x2e
 9331 0131 01       		.byte	0x1
 9332 0132 03       		.uleb128 0x3
 9333 0133 0E       		.uleb128 0xe
 9334 0134 3A       		.uleb128 0x3a
 9335 0135 0B       		.uleb128 0xb
 9336 0136 3B       		.uleb128 0x3b
 9337 0137 0B       		.uleb128 0xb
 9338 0138 27       		.uleb128 0x27
 9339 0139 19       		.uleb128 0x19
 9340 013a 20       		.uleb128 0x20
 9341 013b 0B       		.uleb128 0xb
 9342 013c 01       		.uleb128 0x1
 9343 013d 13       		.uleb128 0x13
 9344 013e 00       		.byte	0
 9345 013f 00       		.byte	0
 9346 0140 18       		.uleb128 0x18
 9347 0141 0B       		.uleb128 0xb
 9348 0142 01       		.byte	0x1
 9349 0143 00       		.byte	0
 9350 0144 00       		.byte	0
 9351 0145 19       		.uleb128 0x19
 9352 0146 34       		.uleb128 0x34
 9353 0147 00       		.byte	0
 9354 0148 03       		.uleb128 0x3
 9355 0149 08       		.uleb128 0x8
 9356 014a 3A       		.uleb128 0x3a
 9357 014b 0B       		.uleb128 0xb
 9358 014c 3B       		.uleb128 0x3b
 9359 014d 0B       		.uleb128 0xb
 9360 014e 49       		.uleb128 0x49
 9361 014f 13       		.uleb128 0x13
 9362 0150 00       		.byte	0
ARM GAS  C:\Users\rdn\AppData\Local\Temp\cc92LAgm.s 			page 194


 9363 0151 00       		.byte	0
 9364 0152 1A       		.uleb128 0x1a
 9365 0153 05       		.uleb128 0x5
 9366 0154 00       		.byte	0
 9367 0155 03       		.uleb128 0x3
 9368 0156 08       		.uleb128 0x8
 9369 0157 3A       		.uleb128 0x3a
 9370 0158 0B       		.uleb128 0xb
 9371 0159 3B       		.uleb128 0x3b
 9372 015a 05       		.uleb128 0x5
 9373 015b 49       		.uleb128 0x49
 9374 015c 13       		.uleb128 0x13
 9375 015d 02       		.uleb128 0x2
 9376 015e 17       		.uleb128 0x17
 9377 015f 00       		.byte	0
 9378 0160 00       		.byte	0
 9379 0161 1B       		.uleb128 0x1b
 9380 0162 1D       		.uleb128 0x1d
 9381 0163 01       		.byte	0x1
 9382 0164 31       		.uleb128 0x31
 9383 0165 13       		.uleb128 0x13
 9384 0166 11       		.uleb128 0x11
 9385 0167 01       		.uleb128 0x1
 9386 0168 12       		.uleb128 0x12
 9387 0169 06       		.uleb128 0x6
 9388 016a 58       		.uleb128 0x58
 9389 016b 0B       		.uleb128 0xb
 9390 016c 59       		.uleb128 0x59
 9391 016d 05       		.uleb128 0x5
 9392 016e 01       		.uleb128 0x1
 9393 016f 13       		.uleb128 0x13
 9394 0170 00       		.byte	0
 9395 0171 00       		.byte	0
 9396 0172 1C       		.uleb128 0x1c
 9397 0173 05       		.uleb128 0x5
 9398 0174 00       		.byte	0
 9399 0175 31       		.uleb128 0x31
 9400 0176 13       		.uleb128 0x13
 9401 0177 02       		.uleb128 0x2
 9402 0178 17       		.uleb128 0x17
 9403 0179 00       		.byte	0
 9404 017a 00       		.byte	0
 9405 017b 1D       		.uleb128 0x1d
 9406 017c 05       		.uleb128 0x5
 9407 017d 00       		.byte	0
 9408 017e 31       		.uleb128 0x31
 9409 017f 13       		.uleb128 0x13
 9410 0180 02       		.uleb128 0x2
 9411 0181 18       		.uleb128 0x18
 9412 0182 00       		.byte	0
 9413 0183 00       		.byte	0
 9414 0184 1E       		.uleb128 0x1e
 9415 0185 34       		.uleb128 0x34
 9416 0186 00       		.byte	0
 9417 0187 31       		.uleb128 0x31
 9418 0188 13       		.uleb128 0x13
 9419 0189 02       		.uleb128 0x2
ARM GAS  C:\Users\rdn\AppData\Local\Temp\cc92LAgm.s 			page 195


 9420 018a 17       		.uleb128 0x17
 9421 018b 00       		.byte	0
 9422 018c 00       		.byte	0
 9423 018d 1F       		.uleb128 0x1f
 9424 018e 0B       		.uleb128 0xb
 9425 018f 01       		.byte	0x1
 9426 0190 11       		.uleb128 0x11
 9427 0191 01       		.uleb128 0x1
 9428 0192 12       		.uleb128 0x12
 9429 0193 06       		.uleb128 0x6
 9430 0194 01       		.uleb128 0x1
 9431 0195 13       		.uleb128 0x13
 9432 0196 00       		.byte	0
 9433 0197 00       		.byte	0
 9434 0198 20       		.uleb128 0x20
 9435 0199 34       		.uleb128 0x34
 9436 019a 00       		.byte	0
 9437 019b 03       		.uleb128 0x3
 9438 019c 08       		.uleb128 0x8
 9439 019d 3A       		.uleb128 0x3a
 9440 019e 0B       		.uleb128 0xb
 9441 019f 3B       		.uleb128 0x3b
 9442 01a0 05       		.uleb128 0x5
 9443 01a1 49       		.uleb128 0x49
 9444 01a2 13       		.uleb128 0x13
 9445 01a3 00       		.byte	0
 9446 01a4 00       		.byte	0
 9447 01a5 21       		.uleb128 0x21
 9448 01a6 34       		.uleb128 0x34
 9449 01a7 00       		.byte	0
 9450 01a8 03       		.uleb128 0x3
 9451 01a9 0E       		.uleb128 0xe
 9452 01aa 3A       		.uleb128 0x3a
 9453 01ab 0B       		.uleb128 0xb
 9454 01ac 3B       		.uleb128 0x3b
 9455 01ad 05       		.uleb128 0x5
 9456 01ae 49       		.uleb128 0x49
 9457 01af 13       		.uleb128 0x13
 9458 01b0 02       		.uleb128 0x2
 9459 01b1 18       		.uleb128 0x18
 9460 01b2 00       		.byte	0
 9461 01b3 00       		.byte	0
 9462 01b4 22       		.uleb128 0x22
 9463 01b5 898201   		.uleb128 0x4109
 9464 01b8 00       		.byte	0
 9465 01b9 11       		.uleb128 0x11
 9466 01ba 01       		.uleb128 0x1
 9467 01bb 31       		.uleb128 0x31
 9468 01bc 13       		.uleb128 0x13
 9469 01bd 00       		.byte	0
 9470 01be 00       		.byte	0
 9471 01bf 23       		.uleb128 0x23
 9472 01c0 34       		.uleb128 0x34
 9473 01c1 00       		.byte	0
 9474 01c2 03       		.uleb128 0x3
 9475 01c3 08       		.uleb128 0x8
 9476 01c4 3A       		.uleb128 0x3a
ARM GAS  C:\Users\rdn\AppData\Local\Temp\cc92LAgm.s 			page 196


 9477 01c5 0B       		.uleb128 0xb
 9478 01c6 3B       		.uleb128 0x3b
 9479 01c7 0B       		.uleb128 0xb
 9480 01c8 49       		.uleb128 0x49
 9481 01c9 13       		.uleb128 0x13
 9482 01ca 1C       		.uleb128 0x1c
 9483 01cb 0A       		.uleb128 0xa
 9484 01cc 00       		.byte	0
 9485 01cd 00       		.byte	0
 9486 01ce 24       		.uleb128 0x24
 9487 01cf 17       		.uleb128 0x17
 9488 01d0 01       		.byte	0x1
 9489 01d1 0B       		.uleb128 0xb
 9490 01d2 0B       		.uleb128 0xb
 9491 01d3 3A       		.uleb128 0x3a
 9492 01d4 0B       		.uleb128 0xb
 9493 01d5 3B       		.uleb128 0x3b
 9494 01d6 0B       		.uleb128 0xb
 9495 01d7 01       		.uleb128 0x1
 9496 01d8 13       		.uleb128 0x13
 9497 01d9 00       		.byte	0
 9498 01da 00       		.byte	0
 9499 01db 25       		.uleb128 0x25
 9500 01dc 0D       		.uleb128 0xd
 9501 01dd 00       		.byte	0
 9502 01de 03       		.uleb128 0x3
 9503 01df 08       		.uleb128 0x8
 9504 01e0 3A       		.uleb128 0x3a
 9505 01e1 0B       		.uleb128 0xb
 9506 01e2 3B       		.uleb128 0x3b
 9507 01e3 0B       		.uleb128 0xb
 9508 01e4 49       		.uleb128 0x49
 9509 01e5 13       		.uleb128 0x13
 9510 01e6 00       		.byte	0
 9511 01e7 00       		.byte	0
 9512 01e8 26       		.uleb128 0x26
 9513 01e9 35       		.uleb128 0x35
 9514 01ea 00       		.byte	0
 9515 01eb 49       		.uleb128 0x49
 9516 01ec 13       		.uleb128 0x13
 9517 01ed 00       		.byte	0
 9518 01ee 00       		.byte	0
 9519 01ef 27       		.uleb128 0x27
 9520 01f0 01       		.uleb128 0x1
 9521 01f1 01       		.byte	0x1
 9522 01f2 49       		.uleb128 0x49
 9523 01f3 13       		.uleb128 0x13
 9524 01f4 01       		.uleb128 0x1
 9525 01f5 13       		.uleb128 0x13
 9526 01f6 00       		.byte	0
 9527 01f7 00       		.byte	0
 9528 01f8 28       		.uleb128 0x28
 9529 01f9 21       		.uleb128 0x21
 9530 01fa 00       		.byte	0
 9531 01fb 49       		.uleb128 0x49
 9532 01fc 13       		.uleb128 0x13
 9533 01fd 2F       		.uleb128 0x2f
ARM GAS  C:\Users\rdn\AppData\Local\Temp\cc92LAgm.s 			page 197


 9534 01fe 0B       		.uleb128 0xb
 9535 01ff 00       		.byte	0
 9536 0200 00       		.byte	0
 9537 0201 29       		.uleb128 0x29
 9538 0202 34       		.uleb128 0x34
 9539 0203 00       		.byte	0
 9540 0204 03       		.uleb128 0x3
 9541 0205 0E       		.uleb128 0xe
 9542 0206 3A       		.uleb128 0x3a
 9543 0207 0B       		.uleb128 0xb
 9544 0208 3B       		.uleb128 0x3b
 9545 0209 05       		.uleb128 0x5
 9546 020a 49       		.uleb128 0x49
 9547 020b 13       		.uleb128 0x13
 9548 020c 00       		.byte	0
 9549 020d 00       		.byte	0
 9550 020e 2A       		.uleb128 0x2a
 9551 020f 1D       		.uleb128 0x1d
 9552 0210 01       		.byte	0x1
 9553 0211 31       		.uleb128 0x31
 9554 0212 13       		.uleb128 0x13
 9555 0213 52       		.uleb128 0x52
 9556 0214 01       		.uleb128 0x1
 9557 0215 55       		.uleb128 0x55
 9558 0216 17       		.uleb128 0x17
 9559 0217 58       		.uleb128 0x58
 9560 0218 0B       		.uleb128 0xb
 9561 0219 59       		.uleb128 0x59
 9562 021a 05       		.uleb128 0x5
 9563 021b 00       		.byte	0
 9564 021c 00       		.byte	0
 9565 021d 2B       		.uleb128 0x2b
 9566 021e 34       		.uleb128 0x34
 9567 021f 00       		.byte	0
 9568 0220 31       		.uleb128 0x31
 9569 0221 13       		.uleb128 0x13
 9570 0222 02       		.uleb128 0x2
 9571 0223 18       		.uleb128 0x18
 9572 0224 00       		.byte	0
 9573 0225 00       		.byte	0
 9574 0226 2C       		.uleb128 0x2c
 9575 0227 34       		.uleb128 0x34
 9576 0228 00       		.byte	0
 9577 0229 31       		.uleb128 0x31
 9578 022a 13       		.uleb128 0x13
 9579 022b 00       		.byte	0
 9580 022c 00       		.byte	0
 9581 022d 2D       		.uleb128 0x2d
 9582 022e 2E       		.uleb128 0x2e
 9583 022f 01       		.byte	0x1
 9584 0230 03       		.uleb128 0x3
 9585 0231 0E       		.uleb128 0xe
 9586 0232 3A       		.uleb128 0x3a
 9587 0233 0B       		.uleb128 0xb
 9588 0234 3B       		.uleb128 0x3b
 9589 0235 0B       		.uleb128 0xb
 9590 0236 27       		.uleb128 0x27
ARM GAS  C:\Users\rdn\AppData\Local\Temp\cc92LAgm.s 			page 198


 9591 0237 19       		.uleb128 0x19
 9592 0238 11       		.uleb128 0x11
 9593 0239 01       		.uleb128 0x1
 9594 023a 12       		.uleb128 0x12
 9595 023b 06       		.uleb128 0x6
 9596 023c 40       		.uleb128 0x40
 9597 023d 18       		.uleb128 0x18
 9598 023e 9742     		.uleb128 0x2117
 9599 0240 19       		.uleb128 0x19
 9600 0241 01       		.uleb128 0x1
 9601 0242 13       		.uleb128 0x13
 9602 0243 00       		.byte	0
 9603 0244 00       		.byte	0
 9604 0245 2E       		.uleb128 0x2e
 9605 0246 05       		.uleb128 0x5
 9606 0247 00       		.byte	0
 9607 0248 03       		.uleb128 0x3
 9608 0249 0E       		.uleb128 0xe
 9609 024a 3A       		.uleb128 0x3a
 9610 024b 0B       		.uleb128 0xb
 9611 024c 3B       		.uleb128 0x3b
 9612 024d 0B       		.uleb128 0xb
 9613 024e 49       		.uleb128 0x49
 9614 024f 13       		.uleb128 0x13
 9615 0250 02       		.uleb128 0x2
 9616 0251 17       		.uleb128 0x17
 9617 0252 00       		.byte	0
 9618 0253 00       		.byte	0
 9619 0254 2F       		.uleb128 0x2f
 9620 0255 05       		.uleb128 0x5
 9621 0256 00       		.byte	0
 9622 0257 03       		.uleb128 0x3
 9623 0258 08       		.uleb128 0x8
 9624 0259 3A       		.uleb128 0x3a
 9625 025a 0B       		.uleb128 0xb
 9626 025b 3B       		.uleb128 0x3b
 9627 025c 0B       		.uleb128 0xb
 9628 025d 49       		.uleb128 0x49
 9629 025e 13       		.uleb128 0x13
 9630 025f 02       		.uleb128 0x2
 9631 0260 17       		.uleb128 0x17
 9632 0261 00       		.byte	0
 9633 0262 00       		.byte	0
 9634 0263 30       		.uleb128 0x30
 9635 0264 34       		.uleb128 0x34
 9636 0265 00       		.byte	0
 9637 0266 03       		.uleb128 0x3
 9638 0267 0E       		.uleb128 0xe
 9639 0268 3A       		.uleb128 0x3a
 9640 0269 0B       		.uleb128 0xb
 9641 026a 3B       		.uleb128 0x3b
 9642 026b 0B       		.uleb128 0xb
 9643 026c 49       		.uleb128 0x49
 9644 026d 13       		.uleb128 0x13
 9645 026e 02       		.uleb128 0x2
 9646 026f 17       		.uleb128 0x17
 9647 0270 00       		.byte	0
ARM GAS  C:\Users\rdn\AppData\Local\Temp\cc92LAgm.s 			page 199


 9648 0271 00       		.byte	0
 9649 0272 31       		.uleb128 0x31
 9650 0273 898201   		.uleb128 0x4109
 9651 0276 00       		.byte	0
 9652 0277 11       		.uleb128 0x11
 9653 0278 01       		.uleb128 0x1
 9654 0279 9542     		.uleb128 0x2115
 9655 027b 19       		.uleb128 0x19
 9656 027c 31       		.uleb128 0x31
 9657 027d 13       		.uleb128 0x13
 9658 027e 00       		.byte	0
 9659 027f 00       		.byte	0
 9660 0280 32       		.uleb128 0x32
 9661 0281 2E       		.uleb128 0x2e
 9662 0282 01       		.byte	0x1
 9663 0283 03       		.uleb128 0x3
 9664 0284 0E       		.uleb128 0xe
 9665 0285 3A       		.uleb128 0x3a
 9666 0286 0B       		.uleb128 0xb
 9667 0287 3B       		.uleb128 0x3b
 9668 0288 0B       		.uleb128 0xb
 9669 0289 27       		.uleb128 0x27
 9670 028a 19       		.uleb128 0x19
 9671 028b 49       		.uleb128 0x49
 9672 028c 13       		.uleb128 0x13
 9673 028d 11       		.uleb128 0x11
 9674 028e 01       		.uleb128 0x1
 9675 028f 12       		.uleb128 0x12
 9676 0290 06       		.uleb128 0x6
 9677 0291 40       		.uleb128 0x40
 9678 0292 18       		.uleb128 0x18
 9679 0293 9742     		.uleb128 0x2117
 9680 0295 19       		.uleb128 0x19
 9681 0296 01       		.uleb128 0x1
 9682 0297 13       		.uleb128 0x13
 9683 0298 00       		.byte	0
 9684 0299 00       		.byte	0
 9685 029a 33       		.uleb128 0x33
 9686 029b 34       		.uleb128 0x34
 9687 029c 00       		.byte	0
 9688 029d 03       		.uleb128 0x3
 9689 029e 08       		.uleb128 0x8
 9690 029f 3A       		.uleb128 0x3a
 9691 02a0 0B       		.uleb128 0xb
 9692 02a1 3B       		.uleb128 0x3b
 9693 02a2 0B       		.uleb128 0xb
 9694 02a3 49       		.uleb128 0x49
 9695 02a4 13       		.uleb128 0x13
 9696 02a5 02       		.uleb128 0x2
 9697 02a6 18       		.uleb128 0x18
 9698 02a7 00       		.byte	0
 9699 02a8 00       		.byte	0
 9700 02a9 34       		.uleb128 0x34
 9701 02aa 898201   		.uleb128 0x4109
 9702 02ad 01       		.byte	0x1
 9703 02ae 11       		.uleb128 0x11
 9704 02af 01       		.uleb128 0x1
ARM GAS  C:\Users\rdn\AppData\Local\Temp\cc92LAgm.s 			page 200


 9705 02b0 9542     		.uleb128 0x2115
 9706 02b2 19       		.uleb128 0x19
 9707 02b3 31       		.uleb128 0x31
 9708 02b4 13       		.uleb128 0x13
 9709 02b5 00       		.byte	0
 9710 02b6 00       		.byte	0
 9711 02b7 35       		.uleb128 0x35
 9712 02b8 8A8201   		.uleb128 0x410a
 9713 02bb 00       		.byte	0
 9714 02bc 02       		.uleb128 0x2
 9715 02bd 18       		.uleb128 0x18
 9716 02be 9142     		.uleb128 0x2111
 9717 02c0 18       		.uleb128 0x18
 9718 02c1 00       		.byte	0
 9719 02c2 00       		.byte	0
 9720 02c3 36       		.uleb128 0x36
 9721 02c4 2E       		.uleb128 0x2e
 9722 02c5 01       		.byte	0x1
 9723 02c6 03       		.uleb128 0x3
 9724 02c7 0E       		.uleb128 0xe
 9725 02c8 3A       		.uleb128 0x3a
 9726 02c9 0B       		.uleb128 0xb
 9727 02ca 3B       		.uleb128 0x3b
 9728 02cb 05       		.uleb128 0x5
 9729 02cc 27       		.uleb128 0x27
 9730 02cd 19       		.uleb128 0x19
 9731 02ce 20       		.uleb128 0x20
 9732 02cf 0B       		.uleb128 0xb
 9733 02d0 01       		.uleb128 0x1
 9734 02d1 13       		.uleb128 0x13
 9735 02d2 00       		.byte	0
 9736 02d3 00       		.byte	0
 9737 02d4 37       		.uleb128 0x37
 9738 02d5 05       		.uleb128 0x5
 9739 02d6 00       		.byte	0
 9740 02d7 03       		.uleb128 0x3
 9741 02d8 0E       		.uleb128 0xe
 9742 02d9 3A       		.uleb128 0x3a
 9743 02da 0B       		.uleb128 0xb
 9744 02db 3B       		.uleb128 0x3b
 9745 02dc 05       		.uleb128 0x5
 9746 02dd 49       		.uleb128 0x49
 9747 02de 13       		.uleb128 0x13
 9748 02df 00       		.byte	0
 9749 02e0 00       		.byte	0
 9750 02e1 38       		.uleb128 0x38
 9751 02e2 05       		.uleb128 0x5
 9752 02e3 00       		.byte	0
 9753 02e4 03       		.uleb128 0x3
 9754 02e5 08       		.uleb128 0x8
 9755 02e6 3A       		.uleb128 0x3a
 9756 02e7 0B       		.uleb128 0xb
 9757 02e8 3B       		.uleb128 0x3b
 9758 02e9 05       		.uleb128 0x5
 9759 02ea 49       		.uleb128 0x49
 9760 02eb 13       		.uleb128 0x13
 9761 02ec 00       		.byte	0
ARM GAS  C:\Users\rdn\AppData\Local\Temp\cc92LAgm.s 			page 201


 9762 02ed 00       		.byte	0
 9763 02ee 39       		.uleb128 0x39
 9764 02ef 0B       		.uleb128 0xb
 9765 02f0 01       		.byte	0x1
 9766 02f1 01       		.uleb128 0x1
 9767 02f2 13       		.uleb128 0x13
 9768 02f3 00       		.byte	0
 9769 02f4 00       		.byte	0
 9770 02f5 3A       		.uleb128 0x3a
 9771 02f6 05       		.uleb128 0x5
 9772 02f7 00       		.byte	0
 9773 02f8 03       		.uleb128 0x3
 9774 02f9 0E       		.uleb128 0xe
 9775 02fa 3A       		.uleb128 0x3a
 9776 02fb 0B       		.uleb128 0xb
 9777 02fc 3B       		.uleb128 0x3b
 9778 02fd 0B       		.uleb128 0xb
 9779 02fe 49       		.uleb128 0x49
 9780 02ff 13       		.uleb128 0x13
 9781 0300 00       		.byte	0
 9782 0301 00       		.byte	0
 9783 0302 3B       		.uleb128 0x3b
 9784 0303 34       		.uleb128 0x34
 9785 0304 00       		.byte	0
 9786 0305 03       		.uleb128 0x3
 9787 0306 0E       		.uleb128 0xe
 9788 0307 3A       		.uleb128 0x3a
 9789 0308 0B       		.uleb128 0xb
 9790 0309 3B       		.uleb128 0x3b
 9791 030a 0B       		.uleb128 0xb
 9792 030b 49       		.uleb128 0x49
 9793 030c 13       		.uleb128 0x13
 9794 030d 1C       		.uleb128 0x1c
 9795 030e 03       		.uleb128 0x3
 9796 030f 00       		.byte	0
 9797 0310 00       		.byte	0
 9798 0311 3C       		.uleb128 0x3c
 9799 0312 2E       		.uleb128 0x2e
 9800 0313 01       		.byte	0x1
 9801 0314 3F       		.uleb128 0x3f
 9802 0315 19       		.uleb128 0x19
 9803 0316 03       		.uleb128 0x3
 9804 0317 0E       		.uleb128 0xe
 9805 0318 3A       		.uleb128 0x3a
 9806 0319 0B       		.uleb128 0xb
 9807 031a 3B       		.uleb128 0x3b
 9808 031b 05       		.uleb128 0x5
 9809 031c 27       		.uleb128 0x27
 9810 031d 19       		.uleb128 0x19
 9811 031e 11       		.uleb128 0x11
 9812 031f 01       		.uleb128 0x1
 9813 0320 12       		.uleb128 0x12
 9814 0321 06       		.uleb128 0x6
 9815 0322 40       		.uleb128 0x40
 9816 0323 18       		.uleb128 0x18
 9817 0324 9742     		.uleb128 0x2117
 9818 0326 19       		.uleb128 0x19
ARM GAS  C:\Users\rdn\AppData\Local\Temp\cc92LAgm.s 			page 202


 9819 0327 01       		.uleb128 0x1
 9820 0328 13       		.uleb128 0x13
 9821 0329 00       		.byte	0
 9822 032a 00       		.byte	0
 9823 032b 3D       		.uleb128 0x3d
 9824 032c 1D       		.uleb128 0x1d
 9825 032d 01       		.byte	0x1
 9826 032e 31       		.uleb128 0x31
 9827 032f 13       		.uleb128 0x13
 9828 0330 52       		.uleb128 0x52
 9829 0331 01       		.uleb128 0x1
 9830 0332 55       		.uleb128 0x55
 9831 0333 17       		.uleb128 0x17
 9832 0334 58       		.uleb128 0x58
 9833 0335 0B       		.uleb128 0xb
 9834 0336 59       		.uleb128 0x59
 9835 0337 05       		.uleb128 0x5
 9836 0338 01       		.uleb128 0x1
 9837 0339 13       		.uleb128 0x13
 9838 033a 00       		.byte	0
 9839 033b 00       		.byte	0
 9840 033c 3E       		.uleb128 0x3e
 9841 033d 0B       		.uleb128 0xb
 9842 033e 01       		.byte	0x1
 9843 033f 55       		.uleb128 0x55
 9844 0340 17       		.uleb128 0x17
 9845 0341 01       		.uleb128 0x1
 9846 0342 13       		.uleb128 0x13
 9847 0343 00       		.byte	0
 9848 0344 00       		.byte	0
 9849 0345 3F       		.uleb128 0x3f
 9850 0346 1D       		.uleb128 0x1d
 9851 0347 01       		.byte	0x1
 9852 0348 31       		.uleb128 0x31
 9853 0349 13       		.uleb128 0x13
 9854 034a 11       		.uleb128 0x11
 9855 034b 01       		.uleb128 0x1
 9856 034c 12       		.uleb128 0x12
 9857 034d 06       		.uleb128 0x6
 9858 034e 58       		.uleb128 0x58
 9859 034f 0B       		.uleb128 0xb
 9860 0350 59       		.uleb128 0x59
 9861 0351 0B       		.uleb128 0xb
 9862 0352 00       		.byte	0
 9863 0353 00       		.byte	0
 9864 0354 40       		.uleb128 0x40
 9865 0355 05       		.uleb128 0x5
 9866 0356 00       		.byte	0
 9867 0357 31       		.uleb128 0x31
 9868 0358 13       		.uleb128 0x13
 9869 0359 00       		.byte	0
 9870 035a 00       		.byte	0
 9871 035b 41       		.uleb128 0x41
 9872 035c 898201   		.uleb128 0x4109
 9873 035f 01       		.byte	0x1
 9874 0360 11       		.uleb128 0x11
 9875 0361 01       		.uleb128 0x1
ARM GAS  C:\Users\rdn\AppData\Local\Temp\cc92LAgm.s 			page 203


 9876 0362 31       		.uleb128 0x31
 9877 0363 13       		.uleb128 0x13
 9878 0364 00       		.byte	0
 9879 0365 00       		.byte	0
 9880 0366 42       		.uleb128 0x42
 9881 0367 898201   		.uleb128 0x4109
 9882 036a 01       		.byte	0x1
 9883 036b 11       		.uleb128 0x11
 9884 036c 01       		.uleb128 0x1
 9885 036d 31       		.uleb128 0x31
 9886 036e 13       		.uleb128 0x13
 9887 036f 01       		.uleb128 0x1
 9888 0370 13       		.uleb128 0x13
 9889 0371 00       		.byte	0
 9890 0372 00       		.byte	0
 9891 0373 43       		.uleb128 0x43
 9892 0374 2E       		.uleb128 0x2e
 9893 0375 00       		.byte	0
 9894 0376 3F       		.uleb128 0x3f
 9895 0377 19       		.uleb128 0x19
 9896 0378 03       		.uleb128 0x3
 9897 0379 0E       		.uleb128 0xe
 9898 037a 3A       		.uleb128 0x3a
 9899 037b 0B       		.uleb128 0xb
 9900 037c 3B       		.uleb128 0x3b
 9901 037d 05       		.uleb128 0x5
 9902 037e 27       		.uleb128 0x27
 9903 037f 19       		.uleb128 0x19
 9904 0380 49       		.uleb128 0x49
 9905 0381 13       		.uleb128 0x13
 9906 0382 11       		.uleb128 0x11
 9907 0383 01       		.uleb128 0x1
 9908 0384 12       		.uleb128 0x12
 9909 0385 06       		.uleb128 0x6
 9910 0386 40       		.uleb128 0x40
 9911 0387 18       		.uleb128 0x18
 9912 0388 9742     		.uleb128 0x2117
 9913 038a 19       		.uleb128 0x19
 9914 038b 00       		.byte	0
 9915 038c 00       		.byte	0
 9916 038d 44       		.uleb128 0x44
 9917 038e 2E       		.uleb128 0x2e
 9918 038f 01       		.byte	0x1
 9919 0390 3F       		.uleb128 0x3f
 9920 0391 19       		.uleb128 0x19
 9921 0392 03       		.uleb128 0x3
 9922 0393 0E       		.uleb128 0xe
 9923 0394 3A       		.uleb128 0x3a
 9924 0395 0B       		.uleb128 0xb
 9925 0396 3B       		.uleb128 0x3b
 9926 0397 05       		.uleb128 0x5
 9927 0398 27       		.uleb128 0x27
 9928 0399 19       		.uleb128 0x19
 9929 039a 49       		.uleb128 0x49
 9930 039b 13       		.uleb128 0x13
 9931 039c 11       		.uleb128 0x11
 9932 039d 01       		.uleb128 0x1
ARM GAS  C:\Users\rdn\AppData\Local\Temp\cc92LAgm.s 			page 204


 9933 039e 12       		.uleb128 0x12
 9934 039f 06       		.uleb128 0x6
 9935 03a0 40       		.uleb128 0x40
 9936 03a1 18       		.uleb128 0x18
 9937 03a2 9742     		.uleb128 0x2117
 9938 03a4 19       		.uleb128 0x19
 9939 03a5 01       		.uleb128 0x1
 9940 03a6 13       		.uleb128 0x13
 9941 03a7 00       		.byte	0
 9942 03a8 00       		.byte	0
 9943 03a9 45       		.uleb128 0x45
 9944 03aa 34       		.uleb128 0x34
 9945 03ab 00       		.byte	0
 9946 03ac 03       		.uleb128 0x3
 9947 03ad 0E       		.uleb128 0xe
 9948 03ae 3A       		.uleb128 0x3a
 9949 03af 0B       		.uleb128 0xb
 9950 03b0 3B       		.uleb128 0x3b
 9951 03b1 0B       		.uleb128 0xb
 9952 03b2 49       		.uleb128 0x49
 9953 03b3 13       		.uleb128 0x13
 9954 03b4 02       		.uleb128 0x2
 9955 03b5 18       		.uleb128 0x18
 9956 03b6 00       		.byte	0
 9957 03b7 00       		.byte	0
 9958 03b8 46       		.uleb128 0x46
 9959 03b9 34       		.uleb128 0x34
 9960 03ba 00       		.byte	0
 9961 03bb 03       		.uleb128 0x3
 9962 03bc 0E       		.uleb128 0xe
 9963 03bd 3A       		.uleb128 0x3a
 9964 03be 0B       		.uleb128 0xb
 9965 03bf 3B       		.uleb128 0x3b
 9966 03c0 0B       		.uleb128 0xb
 9967 03c1 49       		.uleb128 0x49
 9968 03c2 13       		.uleb128 0x13
 9969 03c3 3F       		.uleb128 0x3f
 9970 03c4 19       		.uleb128 0x19
 9971 03c5 3C       		.uleb128 0x3c
 9972 03c6 19       		.uleb128 0x19
 9973 03c7 00       		.byte	0
 9974 03c8 00       		.byte	0
 9975 03c9 47       		.uleb128 0x47
 9976 03ca 21       		.uleb128 0x21
 9977 03cb 00       		.byte	0
 9978 03cc 00       		.byte	0
 9979 03cd 00       		.byte	0
 9980 03ce 48       		.uleb128 0x48
 9981 03cf 2E       		.uleb128 0x2e
 9982 03d0 00       		.byte	0
 9983 03d1 3F       		.uleb128 0x3f
 9984 03d2 19       		.uleb128 0x19
 9985 03d3 3C       		.uleb128 0x3c
 9986 03d4 19       		.uleb128 0x19
 9987 03d5 6E       		.uleb128 0x6e
 9988 03d6 0E       		.uleb128 0xe
 9989 03d7 03       		.uleb128 0x3
ARM GAS  C:\Users\rdn\AppData\Local\Temp\cc92LAgm.s 			page 205


 9990 03d8 0E       		.uleb128 0xe
 9991 03d9 3A       		.uleb128 0x3a
 9992 03da 0B       		.uleb128 0xb
 9993 03db 3B       		.uleb128 0x3b
 9994 03dc 05       		.uleb128 0x5
 9995 03dd 00       		.byte	0
 9996 03de 00       		.byte	0
 9997 03df 49       		.uleb128 0x49
 9998 03e0 2E       		.uleb128 0x2e
 9999 03e1 00       		.byte	0
 10000 03e2 3F       		.uleb128 0x3f
 10001 03e3 19       		.uleb128 0x19
 10002 03e4 3C       		.uleb128 0x3c
 10003 03e5 19       		.uleb128 0x19
 10004 03e6 6E       		.uleb128 0x6e
 10005 03e7 0E       		.uleb128 0xe
 10006 03e8 03       		.uleb128 0x3
 10007 03e9 0E       		.uleb128 0xe
 10008 03ea 3A       		.uleb128 0x3a
 10009 03eb 0B       		.uleb128 0xb
 10010 03ec 3B       		.uleb128 0x3b
 10011 03ed 0B       		.uleb128 0xb
 10012 03ee 00       		.byte	0
 10013 03ef 00       		.byte	0
 10014 03f0 4A       		.uleb128 0x4a
 10015 03f1 2E       		.uleb128 0x2e
 10016 03f2 00       		.byte	0
 10017 03f3 3F       		.uleb128 0x3f
 10018 03f4 19       		.uleb128 0x19
 10019 03f5 3C       		.uleb128 0x3c
 10020 03f6 19       		.uleb128 0x19
 10021 03f7 6E       		.uleb128 0x6e
 10022 03f8 0E       		.uleb128 0xe
 10023 03f9 03       		.uleb128 0x3
 10024 03fa 0E       		.uleb128 0xe
 10025 03fb 00       		.byte	0
 10026 03fc 00       		.byte	0
 10027 03fd 00       		.byte	0
 10028              		.section	.debug_loc,"",%progbits
 10029              	.Ldebug_loc0:
 10030              	.LLST0:
 10031 0000 00000000 		.4byte	.LVL0
 10032 0004 10000000 		.4byte	.LVL1
 10033 0008 0100     		.2byte	0x1
 10034 000a 53       		.byte	0x53
 10035 000b 10000000 		.4byte	.LVL1
 10036 000f D0000000 		.4byte	.LFE25
 10037 0013 0400     		.2byte	0x4
 10038 0015 F3       		.byte	0xf3
 10039 0016 01       		.uleb128 0x1
 10040 0017 53       		.byte	0x53
 10041 0018 9F       		.byte	0x9f
 10042 0019 00000000 		.4byte	0
 10043 001d 00000000 		.4byte	0
 10044              	.LLST1:
 10045 0021 3C000000 		.4byte	.LVL2
 10046 0025 CC000000 		.4byte	.LVL15
ARM GAS  C:\Users\rdn\AppData\Local\Temp\cc92LAgm.s 			page 206


 10047 0029 0200     		.2byte	0x2
 10048 002b 90       		.byte	0x90
 10049 002c 4D       		.uleb128 0x4d
 10050 002d 00000000 		.4byte	0
 10051 0031 00000000 		.4byte	0
 10052              	.LLST2:
 10053 0035 40000000 		.4byte	.LVL3
 10054 0039 86000000 		.4byte	.LVL8
 10055 003d 0200     		.2byte	0x2
 10056 003f 90       		.byte	0x90
 10057 0040 4F       		.uleb128 0x4f
 10058 0041 8C000000 		.4byte	.LVL9
 10059 0045 9A000000 		.4byte	.LVL12
 10060 0049 0200     		.2byte	0x2
 10061 004b 90       		.byte	0x90
 10062 004c 4F       		.uleb128 0x4f
 10063 004d 00000000 		.4byte	0
 10064 0051 00000000 		.4byte	0
 10065              	.LLST3:
 10066 0055 40000000 		.4byte	.LVL3
 10067 0059 46000000 		.4byte	.LVL4
 10068 005d 0200     		.2byte	0x2
 10069 005f 30       		.byte	0x30
 10070 0060 9F       		.byte	0x9f
 10071 0061 46000000 		.4byte	.LVL4
 10072 0065 80000000 		.4byte	.LVL7
 10073 0069 0100     		.2byte	0x1
 10074 006b 55       		.byte	0x55
 10075 006c 8C000000 		.4byte	.LVL9
 10076 0070 CC000000 		.4byte	.LVL15
 10077 0074 0100     		.2byte	0x1
 10078 0076 55       		.byte	0x55
 10079 0077 00000000 		.4byte	0
 10080 007b 00000000 		.4byte	0
 10081              	.LLST4:
 10082 007f 40000000 		.4byte	.LVL3
 10083 0083 46000000 		.4byte	.LVL4
 10084 0087 0200     		.2byte	0x2
 10085 0089 31       		.byte	0x31
 10086 008a 9F       		.byte	0x9f
 10087 008b 46000000 		.4byte	.LVL4
 10088 008f 9E000000 		.4byte	.LVL13
 10089 0093 0100     		.2byte	0x1
 10090 0095 5C       		.byte	0x5c
 10091 0096 00000000 		.4byte	0
 10092 009a 00000000 		.4byte	0
 10093              	.LLST5:
 10094 009e 68000000 		.4byte	.LVL5
 10095 00a2 92000000 		.4byte	.LVL11
 10096 00a6 0200     		.2byte	0x2
 10097 00a8 90       		.byte	0x90
 10098 00a9 4C       		.uleb128 0x4c
 10099 00aa 00000000 		.4byte	0
 10100 00ae 00000000 		.4byte	0
 10101              	.LLST6:
 10102 00b2 6C000000 		.4byte	.LVL6
 10103 00b6 92000000 		.4byte	.LVL11
ARM GAS  C:\Users\rdn\AppData\Local\Temp\cc92LAgm.s 			page 207


 10104 00ba 0200     		.2byte	0x2
 10105 00bc 90       		.byte	0x90
 10106 00bd 4E       		.uleb128 0x4e
 10107 00be 00000000 		.4byte	0
 10108 00c2 00000000 		.4byte	0
 10109              	.LLST7:
 10110 00c6 00000000 		.4byte	.LVL16
 10111 00ca 10000000 		.4byte	.LVL17
 10112 00ce 0100     		.2byte	0x1
 10113 00d0 50       		.byte	0x50
 10114 00d1 10000000 		.4byte	.LVL17
 10115 00d5 A0000000 		.4byte	.LFE27
 10116 00d9 0400     		.2byte	0x4
 10117 00db F3       		.byte	0xf3
 10118 00dc 01       		.uleb128 0x1
 10119 00dd 50       		.byte	0x50
 10120 00de 9F       		.byte	0x9f
 10121 00df 00000000 		.4byte	0
 10122 00e3 00000000 		.4byte	0
 10123              	.LLST8:
 10124 00e7 00000000 		.4byte	.LVL16
 10125 00eb 16000000 		.4byte	.LVL18
 10126 00ef 0100     		.2byte	0x1
 10127 00f1 51       		.byte	0x51
 10128 00f2 16000000 		.4byte	.LVL18
 10129 00f6 A0000000 		.4byte	.LFE27
 10130 00fa 0400     		.2byte	0x4
 10131 00fc F3       		.byte	0xf3
 10132 00fd 01       		.uleb128 0x1
 10133 00fe 51       		.byte	0x51
 10134 00ff 9F       		.byte	0x9f
 10135 0100 00000000 		.4byte	0
 10136 0104 00000000 		.4byte	0
 10137              	.LLST9:
 10138 0108 00000000 		.4byte	.LVL16
 10139 010c 1C000000 		.4byte	.LVL19
 10140 0110 0100     		.2byte	0x1
 10141 0112 53       		.byte	0x53
 10142 0113 1C000000 		.4byte	.LVL19
 10143 0117 A0000000 		.4byte	.LFE27
 10144 011b 0400     		.2byte	0x4
 10145 011d F3       		.byte	0xf3
 10146 011e 01       		.uleb128 0x1
 10147 011f 53       		.byte	0x53
 10148 0120 9F       		.byte	0x9f
 10149 0121 00000000 		.4byte	0
 10150 0125 00000000 		.4byte	0
 10151              	.LLST10:
 10152 0129 00000000 		.4byte	.LVL16
 10153 012d 90000000 		.4byte	.LVL29
 10154 0131 0200     		.2byte	0x2
 10155 0133 91       		.byte	0x91
 10156 0134 00       		.sleb128 0
 10157 0135 90000000 		.4byte	.LVL29
 10158 0139 A0000000 		.4byte	.LFE27
 10159 013d 0200     		.2byte	0x2
 10160 013f 7D       		.byte	0x7d
ARM GAS  C:\Users\rdn\AppData\Local\Temp\cc92LAgm.s 			page 208


 10161 0140 00       		.sleb128 0
 10162 0141 00000000 		.4byte	0
 10163 0145 00000000 		.4byte	0
 10164              	.LLST11:
 10165 0149 00000000 		.4byte	.LVL16
 10166 014d 90000000 		.4byte	.LVL29
 10167 0151 0200     		.2byte	0x2
 10168 0153 91       		.byte	0x91
 10169 0154 04       		.sleb128 4
 10170 0155 90000000 		.4byte	.LVL29
 10171 0159 A0000000 		.4byte	.LFE27
 10172 015d 0200     		.2byte	0x2
 10173 015f 7D       		.byte	0x7d
 10174 0160 04       		.sleb128 4
 10175 0161 00000000 		.4byte	0
 10176 0165 00000000 		.4byte	0
 10177              	.LLST12:
 10178 0169 10000000 		.4byte	.LVL17
 10179 016d 62000000 		.4byte	.LVL25
 10180 0171 0100     		.2byte	0x1
 10181 0173 50       		.byte	0x50
 10182 0174 00000000 		.4byte	0
 10183 0178 00000000 		.4byte	0
 10184              	.LLST13:
 10185 017c 16000000 		.4byte	.LVL18
 10186 0180 78000000 		.4byte	.LVL27
 10187 0184 0100     		.2byte	0x1
 10188 0186 51       		.byte	0x51
 10189 0187 00000000 		.4byte	0
 10190 018b 00000000 		.4byte	0
 10191              	.LLST14:
 10192 018f 28000000 		.4byte	.LVL20
 10193 0193 78000000 		.4byte	.LVL27
 10194 0197 0100     		.2byte	0x1
 10195 0199 54       		.byte	0x54
 10196 019a 78000000 		.4byte	.LVL27
 10197 019e 90000000 		.4byte	.LVL29
 10198 01a2 0200     		.2byte	0x2
 10199 01a4 91       		.byte	0x91
 10200 01a5 04       		.sleb128 4
 10201 01a6 90000000 		.4byte	.LVL29
 10202 01aa A0000000 		.4byte	.LFE27
 10203 01ae 0200     		.2byte	0x2
 10204 01b0 7D       		.byte	0x7d
 10205 01b1 04       		.sleb128 4
 10206 01b2 00000000 		.4byte	0
 10207 01b6 00000000 		.4byte	0
 10208              	.LLST15:
 10209 01ba 28000000 		.4byte	.LVL20
 10210 01be 36000000 		.4byte	.LVL21
 10211 01c2 0200     		.2byte	0x2
 10212 01c4 30       		.byte	0x30
 10213 01c5 9F       		.byte	0x9f
 10214 01c6 36000000 		.4byte	.LVL21
 10215 01ca 62000000 		.4byte	.LVL25
 10216 01ce 0100     		.2byte	0x1
 10217 01d0 53       		.byte	0x53
ARM GAS  C:\Users\rdn\AppData\Local\Temp\cc92LAgm.s 			page 209


 10218 01d1 00000000 		.4byte	0
 10219 01d5 00000000 		.4byte	0
 10220              	.LLST16:
 10221 01d9 3A000000 		.4byte	.LVL22
 10222 01dd 40000000 		.4byte	.LVL23
 10223 01e1 0200     		.2byte	0x2
 10224 01e3 30       		.byte	0x30
 10225 01e4 9F       		.byte	0x9f
 10226 01e5 00000000 		.4byte	0
 10227 01e9 00000000 		.4byte	0
 10228              	.LLST17:
 10229 01ed 00000000 		.4byte	.LVL30
 10230 01f1 08000000 		.4byte	.LVL31
 10231 01f5 0100     		.2byte	0x1
 10232 01f7 50       		.byte	0x50
 10233 01f8 08000000 		.4byte	.LVL31
 10234 01fc 0E000000 		.4byte	.LVL33
 10235 0200 0100     		.2byte	0x1
 10236 0202 50       		.byte	0x50
 10237 0203 0E000000 		.4byte	.LVL33
 10238 0207 32000000 		.4byte	.LVL38
 10239 020b 0300     		.2byte	0x3
 10240 020d 70       		.byte	0x70
 10241 020e 04       		.sleb128 4
 10242 020f 9F       		.byte	0x9f
 10243 0210 32000000 		.4byte	.LVL38
 10244 0214 3A000000 		.4byte	.LVL39
 10245 0218 0100     		.2byte	0x1
 10246 021a 50       		.byte	0x50
 10247 021b 3A000000 		.4byte	.LVL39
 10248 021f 76000000 		.4byte	.LVL42
 10249 0223 0300     		.2byte	0x3
 10250 0225 70       		.byte	0x70
 10251 0226 04       		.sleb128 4
 10252 0227 9F       		.byte	0x9f
 10253 0228 76000000 		.4byte	.LVL42
 10254 022c 80000000 		.4byte	.LFE28
 10255 0230 0100     		.2byte	0x1
 10256 0232 50       		.byte	0x50
 10257 0233 00000000 		.4byte	0
 10258 0237 00000000 		.4byte	0
 10259              	.LLST18:
 10260 023b 0E000000 		.4byte	.LVL33
 10261 023f 32000000 		.4byte	.LVL38
 10262 0243 0100     		.2byte	0x1
 10263 0245 57       		.byte	0x57
 10264 0246 3A000000 		.4byte	.LVL39
 10265 024a 76000000 		.4byte	.LVL42
 10266 024e 0100     		.2byte	0x1
 10267 0250 59       		.byte	0x59
 10268 0251 00000000 		.4byte	0
 10269 0255 00000000 		.4byte	0
 10270              	.LLST19:
 10271 0259 00000000 		.4byte	.LVL30
 10272 025d 0A000000 		.4byte	.LVL32
 10273 0261 0200     		.2byte	0x2
 10274 0263 30       		.byte	0x30
ARM GAS  C:\Users\rdn\AppData\Local\Temp\cc92LAgm.s 			page 210


 10275 0264 9F       		.byte	0x9f
 10276 0265 0A000000 		.4byte	.LVL32
 10277 0269 18000000 		.4byte	.LVL34
 10278 026d 0100     		.2byte	0x1
 10279 026f 56       		.byte	0x56
 10280 0270 18000000 		.4byte	.LVL34
 10281 0274 1A000000 		.4byte	.LVL35
 10282 0278 0100     		.2byte	0x1
 10283 027a 54       		.byte	0x54
 10284 027b 1A000000 		.4byte	.LVL35
 10285 027f 1C000000 		.4byte	.LVL36
 10286 0283 0100     		.2byte	0x1
 10287 0285 56       		.byte	0x56
 10288 0286 1C000000 		.4byte	.LVL36
 10289 028a 2E000000 		.4byte	.LVL37
 10290 028e 0300     		.2byte	0x3
 10291 0290 74       		.byte	0x74
 10292 0291 7F       		.sleb128 -1
 10293 0292 9F       		.byte	0x9f
 10294 0293 2E000000 		.4byte	.LVL37
 10295 0297 7A000000 		.4byte	.LVL43
 10296 029b 0100     		.2byte	0x1
 10297 029d 54       		.byte	0x54
 10298 029e 00000000 		.4byte	0
 10299 02a2 00000000 		.4byte	0
 10300              	.LLST20:
 10301 02a6 2E000000 		.4byte	.LVL37
 10302 02aa 7A000000 		.4byte	.LVL43
 10303 02ae 0100     		.2byte	0x1
 10304 02b0 55       		.byte	0x55
 10305 02b1 00000000 		.4byte	0
 10306 02b5 00000000 		.4byte	0
 10307              	.LLST21:
 10308 02b9 00000000 		.4byte	.LVL44
 10309 02bd 1A000000 		.4byte	.LVL49
 10310 02c1 0100     		.2byte	0x1
 10311 02c3 50       		.byte	0x50
 10312 02c4 1E000000 		.4byte	.LVL50
 10313 02c8 54000000 		.4byte	.LVL58
 10314 02cc 0100     		.2byte	0x1
 10315 02ce 50       		.byte	0x50
 10316 02cf 00000000 		.4byte	0
 10317 02d3 00000000 		.4byte	0
 10318              	.LLST22:
 10319 02d7 00000000 		.4byte	.LVL44
 10320 02db 4C000000 		.4byte	.LVL55
 10321 02df 0100     		.2byte	0x1
 10322 02e1 51       		.byte	0x51
 10323 02e2 4C000000 		.4byte	.LVL55
 10324 02e6 74000000 		.4byte	.LFE29
 10325 02ea 0100     		.2byte	0x1
 10326 02ec 51       		.byte	0x51
 10327 02ed 00000000 		.4byte	0
 10328 02f1 00000000 		.4byte	0
 10329              	.LLST23:
 10330 02f5 00000000 		.4byte	.LVL44
 10331 02f9 26000000 		.4byte	.LVL51
ARM GAS  C:\Users\rdn\AppData\Local\Temp\cc92LAgm.s 			page 211


 10332 02fd 0100     		.2byte	0x1
 10333 02ff 52       		.byte	0x52
 10334 0300 46000000 		.4byte	.LVL54
 10335 0304 5A000000 		.4byte	.LVL60
 10336 0308 0100     		.2byte	0x1
 10337 030a 52       		.byte	0x52
 10338 030b 00000000 		.4byte	0
 10339 030f 00000000 		.4byte	0
 10340              	.LLST24:
 10341 0313 00000000 		.4byte	.LVL44
 10342 0317 0E000000 		.4byte	.LVL46
 10343 031b 0100     		.2byte	0x1
 10344 031d 53       		.byte	0x53
 10345 031e 12000000 		.4byte	.LVL47
 10346 0322 3A000000 		.4byte	.LVL53
 10347 0326 0100     		.2byte	0x1
 10348 0328 53       		.byte	0x53
 10349 0329 3A000000 		.4byte	.LVL53
 10350 032d 46000000 		.4byte	.LVL54
 10351 0331 0300     		.2byte	0x3
 10352 0333 73       		.byte	0x73
 10353 0334 04       		.sleb128 4
 10354 0335 9F       		.byte	0x9f
 10355 0336 46000000 		.4byte	.LVL54
 10356 033a 56000000 		.4byte	.LVL59
 10357 033e 0100     		.2byte	0x1
 10358 0340 53       		.byte	0x53
 10359 0341 56000000 		.4byte	.LVL59
 10360 0345 68000000 		.4byte	.LVL62
 10361 0349 0100     		.2byte	0x1
 10362 034b 55       		.byte	0x55
 10363 034c 68000000 		.4byte	.LVL62
 10364 0350 6C000000 		.4byte	.LVL64
 10365 0354 0300     		.2byte	0x3
 10366 0356 75       		.byte	0x75
 10367 0357 7C       		.sleb128 -4
 10368 0358 9F       		.byte	0x9f
 10369 0359 6C000000 		.4byte	.LVL64
 10370 035d 6E000000 		.4byte	.LVL65
 10371 0361 0100     		.2byte	0x1
 10372 0363 55       		.byte	0x55
 10373 0364 00000000 		.4byte	0
 10374 0368 00000000 		.4byte	0
 10375              	.LLST25:
 10376 036c 00000000 		.4byte	.LVL44
 10377 0370 6E000000 		.4byte	.LVL65
 10378 0374 0200     		.2byte	0x2
 10379 0376 91       		.byte	0x91
 10380 0377 00       		.sleb128 0
 10381 0378 6E000000 		.4byte	.LVL65
 10382 037c 74000000 		.4byte	.LFE29
 10383 0380 0200     		.2byte	0x2
 10384 0382 7D       		.byte	0x7d
 10385 0383 00       		.sleb128 0
 10386 0384 00000000 		.4byte	0
 10387 0388 00000000 		.4byte	0
 10388              	.LLST26:
ARM GAS  C:\Users\rdn\AppData\Local\Temp\cc92LAgm.s 			page 212


 10389 038c 08000000 		.4byte	.LVL45
 10390 0390 1A000000 		.4byte	.LVL49
 10391 0394 0100     		.2byte	0x1
 10392 0396 54       		.byte	0x54
 10393 0397 1A000000 		.4byte	.LVL49
 10394 039b 1E000000 		.4byte	.LVL50
 10395 039f 0100     		.2byte	0x1
 10396 03a1 50       		.byte	0x50
 10397 03a2 1E000000 		.4byte	.LVL50
 10398 03a6 54000000 		.4byte	.LVL58
 10399 03aa 0100     		.2byte	0x1
 10400 03ac 54       		.byte	0x54
 10401 03ad 54000000 		.4byte	.LVL58
 10402 03b1 60000000 		.4byte	.LVL61
 10403 03b5 0100     		.2byte	0x1
 10404 03b7 50       		.byte	0x50
 10405 03b8 60000000 		.4byte	.LVL61
 10406 03bc 6A000000 		.4byte	.LVL63
 10407 03c0 0300     		.2byte	0x3
 10408 03c2 73       		.byte	0x73
 10409 03c3 7F       		.sleb128 -1
 10410 03c4 9F       		.byte	0x9f
 10411 03c5 6A000000 		.4byte	.LVL63
 10412 03c9 6C000000 		.4byte	.LVL64
 10413 03cd 0100     		.2byte	0x1
 10414 03cf 53       		.byte	0x53
 10415 03d0 6C000000 		.4byte	.LVL64
 10416 03d4 74000000 		.4byte	.LFE29
 10417 03d8 0300     		.2byte	0x3
 10418 03da 73       		.byte	0x73
 10419 03db 7F       		.sleb128 -1
 10420 03dc 9F       		.byte	0x9f
 10421 03dd 00000000 		.4byte	0
 10422 03e1 00000000 		.4byte	0
 10423              	.LLST27:
 10424 03e5 14000000 		.4byte	.LVL48
 10425 03e9 1E000000 		.4byte	.LVL50
 10426 03ed 0100     		.2byte	0x1
 10427 03ef 52       		.byte	0x52
 10428 03f0 54000000 		.4byte	.LVL58
 10429 03f4 5A000000 		.4byte	.LVL60
 10430 03f8 0100     		.2byte	0x1
 10431 03fa 52       		.byte	0x52
 10432 03fb 00000000 		.4byte	0
 10433 03ff 00000000 		.4byte	0
 10434              	.LLST28:
 10435 0403 26000000 		.4byte	.LVL51
 10436 0407 54000000 		.4byte	.LVL58
 10437 040b 0100     		.2byte	0x1
 10438 040d 55       		.byte	0x55
 10439 040e 00000000 		.4byte	0
 10440 0412 00000000 		.4byte	0
 10441              	.LLST29:
 10442 0416 00000000 		.4byte	.LVL66
 10443 041a 08000000 		.4byte	.LVL67
 10444 041e 0100     		.2byte	0x1
 10445 0420 50       		.byte	0x50
ARM GAS  C:\Users\rdn\AppData\Local\Temp\cc92LAgm.s 			page 213


 10446 0421 08000000 		.4byte	.LVL67
 10447 0425 24000000 		.4byte	.LVL70
 10448 0429 0300     		.2byte	0x3
 10449 042b 70       		.byte	0x70
 10450 042c 44       		.sleb128 -60
 10451 042d 9F       		.byte	0x9f
 10452 042e 24000000 		.4byte	.LVL70
 10453 0432 3A000000 		.4byte	.LVL73
 10454 0436 0300     		.2byte	0x3
 10455 0438 75       		.byte	0x75
 10456 0439 04       		.sleb128 4
 10457 043a 9F       		.byte	0x9f
 10458 043b 3A000000 		.4byte	.LVL73
 10459 043f 54000000 		.4byte	.LFE24
 10460 0443 0400     		.2byte	0x4
 10461 0445 F3       		.byte	0xf3
 10462 0446 01       		.uleb128 0x1
 10463 0447 50       		.byte	0x50
 10464 0448 9F       		.byte	0x9f
 10465 0449 00000000 		.4byte	0
 10466 044d 00000000 		.4byte	0
 10467              	.LLST30:
 10468 0451 00000000 		.4byte	.LVL66
 10469 0455 0C000000 		.4byte	.LVL68
 10470 0459 0100     		.2byte	0x1
 10471 045b 51       		.byte	0x51
 10472 045c 0C000000 		.4byte	.LVL68
 10473 0460 54000000 		.4byte	.LFE24
 10474 0464 0100     		.2byte	0x1
 10475 0466 54       		.byte	0x54
 10476 0467 00000000 		.4byte	0
 10477 046b 00000000 		.4byte	0
 10478              	.LLST31:
 10479 046f 00000000 		.4byte	.LVL66
 10480 0473 0C000000 		.4byte	.LVL68
 10481 0477 0200     		.2byte	0x2
 10482 0479 30       		.byte	0x30
 10483 047a 9F       		.byte	0x9f
 10484 047b 0C000000 		.4byte	.LVL68
 10485 047f 27000000 		.4byte	.LVL71-1
 10486 0483 0100     		.2byte	0x1
 10487 0485 53       		.byte	0x53
 10488 0486 00000000 		.4byte	0
 10489 048a 00000000 		.4byte	0
 10490              	.LLST32:
 10491 048e 00000000 		.4byte	.LVL66
 10492 0492 0C000000 		.4byte	.LVL68
 10493 0496 0200     		.2byte	0x2
 10494 0498 30       		.byte	0x30
 10495 0499 9F       		.byte	0x9f
 10496 049a 00000000 		.4byte	0
 10497 049e 00000000 		.4byte	0
 10498              	.LLST33:
 10499 04a2 34000000 		.4byte	.LVL72
 10500 04a6 3A000000 		.4byte	.LVL73
 10501 04aa 0200     		.2byte	0x2
 10502 04ac 30       		.byte	0x30
ARM GAS  C:\Users\rdn\AppData\Local\Temp\cc92LAgm.s 			page 214


 10503 04ad 9F       		.byte	0x9f
 10504 04ae 00000000 		.4byte	0
 10505 04b2 00000000 		.4byte	0
 10506              	.LLST34:
 10507 04b6 00000000 		.4byte	.LVL74
 10508 04ba 1E000000 		.4byte	.LVL77
 10509 04be 0100     		.2byte	0x1
 10510 04c0 50       		.byte	0x50
 10511 04c1 1E000000 		.4byte	.LVL77
 10512 04c5 30020000 		.4byte	.LFE32
 10513 04c9 0400     		.2byte	0x4
 10514 04cb F3       		.byte	0xf3
 10515 04cc 01       		.uleb128 0x1
 10516 04cd 50       		.byte	0x50
 10517 04ce 9F       		.byte	0x9f
 10518 04cf 00000000 		.4byte	0
 10519 04d3 00000000 		.4byte	0
 10520              	.LLST35:
 10521 04d7 00000000 		.4byte	.LVL74
 10522 04db 0A000000 		.4byte	.LVL75
 10523 04df 0100     		.2byte	0x1
 10524 04e1 51       		.byte	0x51
 10525 04e2 0A000000 		.4byte	.LVL75
 10526 04e6 30020000 		.4byte	.LFE32
 10527 04ea 0400     		.2byte	0x4
 10528 04ec F3       		.byte	0xf3
 10529 04ed 01       		.uleb128 0x1
 10530 04ee 51       		.byte	0x51
 10531 04ef 9F       		.byte	0x9f
 10532 04f0 00000000 		.4byte	0
 10533 04f4 00000000 		.4byte	0
 10534              	.LLST36:
 10535 04f8 00000000 		.4byte	.LVL74
 10536 04fc 28000000 		.4byte	.LVL79
 10537 0500 0100     		.2byte	0x1
 10538 0502 52       		.byte	0x52
 10539 0503 28000000 		.4byte	.LVL79
 10540 0507 90000000 		.4byte	.LVL85
 10541 050b 0300     		.2byte	0x3
 10542 050d 72       		.byte	0x72
 10543 050e 40       		.sleb128 -64
 10544 050f 9F       		.byte	0x9f
 10545 0510 90000000 		.4byte	.LVL85
 10546 0514 30020000 		.4byte	.LFE32
 10547 0518 0400     		.2byte	0x4
 10548 051a F3       		.byte	0xf3
 10549 051b 01       		.uleb128 0x1
 10550 051c 52       		.byte	0x52
 10551 051d 9F       		.byte	0x9f
 10552 051e 00000000 		.4byte	0
 10553 0522 00000000 		.4byte	0
 10554              	.LLST37:
 10555 0526 00000000 		.4byte	.LVL74
 10556 052a 8C000000 		.4byte	.LVL84
 10557 052e 0100     		.2byte	0x1
 10558 0530 53       		.byte	0x53
 10559 0531 8C000000 		.4byte	.LVL84
ARM GAS  C:\Users\rdn\AppData\Local\Temp\cc92LAgm.s 			page 215


 10560 0535 30020000 		.4byte	.LFE32
 10561 0539 0400     		.2byte	0x4
 10562 053b F3       		.byte	0xf3
 10563 053c 01       		.uleb128 0x1
 10564 053d 53       		.byte	0x53
 10565 053e 9F       		.byte	0x9f
 10566 053f 00000000 		.4byte	0
 10567 0543 00000000 		.4byte	0
 10568              	.LLST38:
 10569 0547 00000000 		.4byte	.LVL74
 10570 054b 0E020000 		.4byte	.LVL111
 10571 054f 0200     		.2byte	0x2
 10572 0551 91       		.byte	0x91
 10573 0552 00       		.sleb128 0
 10574 0553 0E020000 		.4byte	.LVL111
 10575 0557 30020000 		.4byte	.LFE32
 10576 055b 0200     		.2byte	0x2
 10577 055d 7D       		.byte	0x7d
 10578 055e 00       		.sleb128 0
 10579 055f 00000000 		.4byte	0
 10580 0563 00000000 		.4byte	0
 10581              	.LLST39:
 10582 0567 00000000 		.4byte	.LVL74
 10583 056b 0E020000 		.4byte	.LVL111
 10584 056f 0200     		.2byte	0x2
 10585 0571 91       		.byte	0x91
 10586 0572 04       		.sleb128 4
 10587 0573 0E020000 		.4byte	.LVL111
 10588 0577 30020000 		.4byte	.LFE32
 10589 057b 0200     		.2byte	0x2
 10590 057d 7D       		.byte	0x7d
 10591 057e 04       		.sleb128 4
 10592 057f 00000000 		.4byte	0
 10593 0583 00000000 		.4byte	0
 10594              	.LLST40:
 10595 0587 7E000000 		.4byte	.LVL82
 10596 058b 84000000 		.4byte	.LVL83
 10597 058f 0200     		.2byte	0x2
 10598 0591 90       		.byte	0x90
 10599 0592 4E       		.uleb128 0x4e
 10600 0593 00000000 		.4byte	0
 10601 0597 00000000 		.4byte	0
 10602              	.LLST41:
 10603 059b 44000000 		.4byte	.LVL81
 10604 059f 9C000000 		.4byte	.LVL87
 10605 05a3 0200     		.2byte	0x2
 10606 05a5 90       		.byte	0x90
 10607 05a6 4E       		.uleb128 0x4e
 10608 05a7 00000000 		.4byte	0
 10609 05ab 00000000 		.4byte	0
 10610              	.LLST42:
 10611 05af 94000000 		.4byte	.LVL86
 10612 05b3 0E020000 		.4byte	.LVL111
 10613 05b7 0100     		.2byte	0x1
 10614 05b9 54       		.byte	0x54
 10615 05ba 00000000 		.4byte	0
 10616 05be 00000000 		.4byte	0
ARM GAS  C:\Users\rdn\AppData\Local\Temp\cc92LAgm.s 			page 216


 10617              	.LLST43:
 10618 05c2 B4000000 		.4byte	.LVL88
 10619 05c6 F4000000 		.4byte	.LVL91
 10620 05ca 0100     		.2byte	0x1
 10621 05cc 53       		.byte	0x53
 10622 05cd F4000000 		.4byte	.LVL91
 10623 05d1 FA000000 		.4byte	.LVL93
 10624 05d5 0200     		.2byte	0x2
 10625 05d7 30       		.byte	0x30
 10626 05d8 9F       		.byte	0x9f
 10627 05d9 00000000 		.4byte	0
 10628 05dd 00000000 		.4byte	0
 10629              	.LLST44:
 10630 05e1 BC000000 		.4byte	.LVL89
 10631 05e5 F4000000 		.4byte	.LVL91
 10632 05e9 0100     		.2byte	0x1
 10633 05eb 50       		.byte	0x50
 10634 05ec F8000000 		.4byte	.LVL92
 10635 05f0 3E010000 		.4byte	.LVL97
 10636 05f4 0100     		.2byte	0x1
 10637 05f6 50       		.byte	0x50
 10638 05f7 00000000 		.4byte	0
 10639 05fb 00000000 		.4byte	0
 10640              	.LLST45:
 10641 05ff 26000000 		.4byte	.LVL78
 10642 0603 3A000000 		.4byte	.LVL80
 10643 0607 0200     		.2byte	0x2
 10644 0609 30       		.byte	0x30
 10645 060a 9F       		.byte	0x9f
 10646 060b 00000000 		.4byte	0
 10647 060f 00000000 		.4byte	0
 10648              	.LLST46:
 10649 0613 BC000000 		.4byte	.LVL89
 10650 0617 C8000000 		.4byte	.LVL90
 10651 061b 0200     		.2byte	0x2
 10652 061d 30       		.byte	0x30
 10653 061e 9F       		.byte	0x9f
 10654 061f F8000000 		.4byte	.LVL92
 10655 0623 FA000000 		.4byte	.LVL93
 10656 0627 0200     		.2byte	0x2
 10657 0629 30       		.byte	0x30
 10658 062a 9F       		.byte	0x9f
 10659 062b 00000000 		.4byte	0
 10660 062f 00000000 		.4byte	0
 10661              	.LLST47:
 10662 0633 12010000 		.4byte	.LVL94
 10663 0637 36010000 		.4byte	.LVL96
 10664 063b 0100     		.2byte	0x1
 10665 063d 51       		.byte	0x51
 10666 063e 00000000 		.4byte	0
 10667 0642 00000000 		.4byte	0
 10668              	.LLST48:
 10669 0646 52010000 		.4byte	.LVL98
 10670 064a 78010000 		.4byte	.LVL100
 10671 064e 0200     		.2byte	0x2
 10672 0650 30       		.byte	0x30
 10673 0651 9F       		.byte	0x9f
ARM GAS  C:\Users\rdn\AppData\Local\Temp\cc92LAgm.s 			page 217


 10674 0652 78010000 		.4byte	.LVL100
 10675 0656 30020000 		.4byte	.LFE32
 10676 065a 0100     		.2byte	0x1
 10677 065c 51       		.byte	0x51
 10678 065d 00000000 		.4byte	0
 10679 0661 00000000 		.4byte	0
 10680              	.LLST49:
 10681 0665 52010000 		.4byte	.LVL98
 10682 0669 78010000 		.4byte	.LVL100
 10683 066d 0200     		.2byte	0x2
 10684 066f 30       		.byte	0x30
 10685 0670 9F       		.byte	0x9f
 10686 0671 78010000 		.4byte	.LVL100
 10687 0675 30020000 		.4byte	.LFE32
 10688 0679 0100     		.2byte	0x1
 10689 067b 52       		.byte	0x52
 10690 067c 00000000 		.4byte	0
 10691 0680 00000000 		.4byte	0
 10692              	.LLST50:
 10693 0684 80010000 		.4byte	.LVL101
 10694 0688 8A010000 		.4byte	.LVL102
 10695 068c 0500     		.2byte	0x5
 10696 068e F5       		.byte	0xf5
 10697 068f 4F       		.uleb128 0x4f
 10698 0690 25       		.uleb128 0x25
 10699 0691 1F       		.byte	0x1f
 10700 0692 9F       		.byte	0x9f
 10701 0693 8A010000 		.4byte	.LVL102
 10702 0697 D6010000 		.4byte	.LVL108
 10703 069b 0200     		.2byte	0x2
 10704 069d 90       		.byte	0x90
 10705 069e 4F       		.uleb128 0x4f
 10706 069f 00000000 		.4byte	0
 10707 06a3 00000000 		.4byte	0
 10708              	.LLST51:
 10709 06a7 90010000 		.4byte	.LVL103
 10710 06ab B2010000 		.4byte	.LVL107
 10711 06af 0100     		.2byte	0x1
 10712 06b1 53       		.byte	0x53
 10713 06b2 00000000 		.4byte	0
 10714 06b6 00000000 		.4byte	0
 10715              	.LLST52:
 10716 06ba 00000000 		.4byte	.LVL112
 10717 06be 1F000000 		.4byte	.LVL115-1
 10718 06c2 0100     		.2byte	0x1
 10719 06c4 50       		.byte	0x50
 10720 06c5 1F000000 		.4byte	.LVL115-1
 10721 06c9 20000000 		.4byte	.LFE8
 10722 06cd 0400     		.2byte	0x4
 10723 06cf F3       		.byte	0xf3
 10724 06d0 01       		.uleb128 0x1
 10725 06d1 50       		.byte	0x50
 10726 06d2 9F       		.byte	0x9f
 10727 06d3 00000000 		.4byte	0
 10728 06d7 00000000 		.4byte	0
 10729              	.LLST53:
 10730 06db 00000000 		.4byte	.LVL112
ARM GAS  C:\Users\rdn\AppData\Local\Temp\cc92LAgm.s 			page 218


 10731 06df 1F000000 		.4byte	.LVL115-1
 10732 06e3 0100     		.2byte	0x1
 10733 06e5 51       		.byte	0x51
 10734 06e6 1F000000 		.4byte	.LVL115-1
 10735 06ea 20000000 		.4byte	.LFE8
 10736 06ee 0400     		.2byte	0x4
 10737 06f0 F3       		.byte	0xf3
 10738 06f1 01       		.uleb128 0x1
 10739 06f2 51       		.byte	0x51
 10740 06f3 9F       		.byte	0x9f
 10741 06f4 00000000 		.4byte	0
 10742 06f8 00000000 		.4byte	0
 10743              	.LLST54:
 10744 06fc 00000000 		.4byte	.LVL112
 10745 0700 0E000000 		.4byte	.LVL113
 10746 0704 0100     		.2byte	0x1
 10747 0706 52       		.byte	0x52
 10748 0707 0E000000 		.4byte	.LVL113
 10749 070b 1A000000 		.4byte	.LVL114
 10750 070f 0400     		.2byte	0x4
 10751 0711 F3       		.byte	0xf3
 10752 0712 01       		.uleb128 0x1
 10753 0713 52       		.byte	0x52
 10754 0714 9F       		.byte	0x9f
 10755 0715 1A000000 		.4byte	.LVL114
 10756 0719 1F000000 		.4byte	.LVL115-1
 10757 071d 0100     		.2byte	0x1
 10758 071f 52       		.byte	0x52
 10759 0720 1F000000 		.4byte	.LVL115-1
 10760 0724 20000000 		.4byte	.LFE8
 10761 0728 0400     		.2byte	0x4
 10762 072a F3       		.byte	0xf3
 10763 072b 01       		.uleb128 0x1
 10764 072c 52       		.byte	0x52
 10765 072d 9F       		.byte	0x9f
 10766 072e 00000000 		.4byte	0
 10767 0732 00000000 		.4byte	0
 10768              	.LLST55:
 10769 0736 00000000 		.4byte	.LVL112
 10770 073a 1F000000 		.4byte	.LVL115-1
 10771 073e 0300     		.2byte	0x3
 10772 0740 70       		.byte	0x70
 10773 0741 1C       		.sleb128 28
 10774 0742 9F       		.byte	0x9f
 10775 0743 1F000000 		.4byte	.LVL115-1
 10776 0747 20000000 		.4byte	.LFE8
 10777 074b 0600     		.2byte	0x6
 10778 074d F3       		.byte	0xf3
 10779 074e 01       		.uleb128 0x1
 10780 074f 50       		.byte	0x50
 10781 0750 23       		.byte	0x23
 10782 0751 1C       		.uleb128 0x1c
 10783 0752 9F       		.byte	0x9f
 10784 0753 00000000 		.4byte	0
 10785 0757 00000000 		.4byte	0
 10786              	.LLST56:
 10787 075b 00000000 		.4byte	.LVL116
ARM GAS  C:\Users\rdn\AppData\Local\Temp\cc92LAgm.s 			page 219


 10788 075f 13000000 		.4byte	.LVL117-1
 10789 0763 0100     		.2byte	0x1
 10790 0765 50       		.byte	0x50
 10791 0766 13000000 		.4byte	.LVL117-1
 10792 076a 14000000 		.4byte	.LVL117
 10793 076e 0400     		.2byte	0x4
 10794 0770 F3       		.byte	0xf3
 10795 0771 01       		.uleb128 0x1
 10796 0772 50       		.byte	0x50
 10797 0773 9F       		.byte	0x9f
 10798 0774 14000000 		.4byte	.LVL117
 10799 0778 16000000 		.4byte	.LVL118
 10800 077c 0100     		.2byte	0x1
 10801 077e 50       		.byte	0x50
 10802 077f 16000000 		.4byte	.LVL118
 10803 0783 26000000 		.4byte	.LFE10
 10804 0787 0100     		.2byte	0x1
 10805 0789 53       		.byte	0x53
 10806 078a 00000000 		.4byte	0
 10807 078e 00000000 		.4byte	0
 10808              	.LLST57:
 10809 0792 00000000 		.4byte	.LVL116
 10810 0796 13000000 		.4byte	.LVL117-1
 10811 079a 0100     		.2byte	0x1
 10812 079c 51       		.byte	0x51
 10813 079d 13000000 		.4byte	.LVL117-1
 10814 07a1 14000000 		.4byte	.LVL117
 10815 07a5 0400     		.2byte	0x4
 10816 07a7 F3       		.byte	0xf3
 10817 07a8 01       		.uleb128 0x1
 10818 07a9 51       		.byte	0x51
 10819 07aa 9F       		.byte	0x9f
 10820 07ab 14000000 		.4byte	.LVL117
 10821 07af 1A000000 		.4byte	.LVL119
 10822 07b3 0100     		.2byte	0x1
 10823 07b5 51       		.byte	0x51
 10824 07b6 1A000000 		.4byte	.LVL119
 10825 07ba 24000000 		.4byte	.LVL121
 10826 07be 0100     		.2byte	0x1
 10827 07c0 54       		.byte	0x54
 10828 07c1 24000000 		.4byte	.LVL121
 10829 07c5 26000000 		.4byte	.LFE10
 10830 07c9 0400     		.2byte	0x4
 10831 07cb F3       		.byte	0xf3
 10832 07cc 01       		.uleb128 0x1
 10833 07cd 51       		.byte	0x51
 10834 07ce 9F       		.byte	0x9f
 10835 07cf 00000000 		.4byte	0
 10836 07d3 00000000 		.4byte	0
 10837              	.LLST58:
 10838 07d7 00000000 		.4byte	.LVL116
 10839 07db 13000000 		.4byte	.LVL117-1
 10840 07df 0300     		.2byte	0x3
 10841 07e1 70       		.byte	0x70
 10842 07e2 1C       		.sleb128 28
 10843 07e3 9F       		.byte	0x9f
 10844 07e4 13000000 		.4byte	.LVL117-1
ARM GAS  C:\Users\rdn\AppData\Local\Temp\cc92LAgm.s 			page 220


 10845 07e8 14000000 		.4byte	.LVL117
 10846 07ec 0600     		.2byte	0x6
 10847 07ee F3       		.byte	0xf3
 10848 07ef 01       		.uleb128 0x1
 10849 07f0 50       		.byte	0x50
 10850 07f1 23       		.byte	0x23
 10851 07f2 1C       		.uleb128 0x1c
 10852 07f3 9F       		.byte	0x9f
 10853 07f4 14000000 		.4byte	.LVL117
 10854 07f8 16000000 		.4byte	.LVL118
 10855 07fc 0300     		.2byte	0x3
 10856 07fe 70       		.byte	0x70
 10857 07ff 1C       		.sleb128 28
 10858 0800 9F       		.byte	0x9f
 10859 0801 16000000 		.4byte	.LVL118
 10860 0805 26000000 		.4byte	.LFE10
 10861 0809 0300     		.2byte	0x3
 10862 080b 73       		.byte	0x73
 10863 080c 1C       		.sleb128 28
 10864 080d 9F       		.byte	0x9f
 10865 080e 00000000 		.4byte	0
 10866 0812 00000000 		.4byte	0
 10867              	.LLST59:
 10868 0816 00000000 		.4byte	.LVL122
 10869 081a 3A000000 		.4byte	.LVL129
 10870 081e 0100     		.2byte	0x1
 10871 0820 50       		.byte	0x50
 10872 0821 3A000000 		.4byte	.LVL129
 10873 0825 5C000000 		.4byte	.LVL131
 10874 0829 0400     		.2byte	0x4
 10875 082b F3       		.byte	0xf3
 10876 082c 01       		.uleb128 0x1
 10877 082d 50       		.byte	0x50
 10878 082e 9F       		.byte	0x9f
 10879 082f 5C000000 		.4byte	.LVL131
 10880 0833 62000000 		.4byte	.LVL133
 10881 0837 0100     		.2byte	0x1
 10882 0839 50       		.byte	0x50
 10883 083a 62000000 		.4byte	.LVL133
 10884 083e 16080000 		.4byte	.LFE33
 10885 0842 0400     		.2byte	0x4
 10886 0844 F3       		.byte	0xf3
 10887 0845 01       		.uleb128 0x1
 10888 0846 50       		.byte	0x50
 10889 0847 9F       		.byte	0x9f
 10890 0848 00000000 		.4byte	0
 10891 084c 00000000 		.4byte	0
 10892              	.LLST60:
 10893 0850 00000000 		.4byte	.LVL122
 10894 0854 14000000 		.4byte	.LVL125
 10895 0858 0100     		.2byte	0x1
 10896 085a 51       		.byte	0x51
 10897 085b 14000000 		.4byte	.LVL125
 10898 085f 16080000 		.4byte	.LFE33
 10899 0863 0400     		.2byte	0x4
 10900 0865 F3       		.byte	0xf3
 10901 0866 01       		.uleb128 0x1
ARM GAS  C:\Users\rdn\AppData\Local\Temp\cc92LAgm.s 			page 221


 10902 0867 51       		.byte	0x51
 10903 0868 9F       		.byte	0x9f
 10904 0869 00000000 		.4byte	0
 10905 086d 00000000 		.4byte	0
 10906              	.LLST61:
 10907 0871 00000000 		.4byte	.LVL122
 10908 0875 0A000000 		.4byte	.LVL124
 10909 0879 0100     		.2byte	0x1
 10910 087b 52       		.byte	0x52
 10911 087c 0A000000 		.4byte	.LVL124
 10912 0880 E8020000 		.4byte	.LVL160
 10913 0884 0100     		.2byte	0x1
 10914 0886 56       		.byte	0x56
 10915 0887 E8020000 		.4byte	.LVL160
 10916 088b 16080000 		.4byte	.LFE33
 10917 088f 0400     		.2byte	0x4
 10918 0891 F3       		.byte	0xf3
 10919 0892 01       		.uleb128 0x1
 10920 0893 52       		.byte	0x52
 10921 0894 9F       		.byte	0x9f
 10922 0895 00000000 		.4byte	0
 10923 0899 00000000 		.4byte	0
 10924              	.LLST62:
 10925 089d 00000000 		.4byte	.LVL122
 10926 08a1 A0000000 		.4byte	.LVL138
 10927 08a5 0100     		.2byte	0x1
 10928 08a7 53       		.byte	0x53
 10929 08a8 A0000000 		.4byte	.LVL138
 10930 08ac 16080000 		.4byte	.LFE33
 10931 08b0 0400     		.2byte	0x4
 10932 08b2 F3       		.byte	0xf3
 10933 08b3 01       		.uleb128 0x1
 10934 08b4 53       		.byte	0x53
 10935 08b5 9F       		.byte	0x9f
 10936 08b6 00000000 		.4byte	0
 10937 08ba 00000000 		.4byte	0
 10938              	.LLST63:
 10939 08be 00000000 		.4byte	.LVL122
 10940 08c2 06080000 		.4byte	.LVL270
 10941 08c6 0200     		.2byte	0x2
 10942 08c8 91       		.byte	0x91
 10943 08c9 00       		.sleb128 0
 10944 08ca 06080000 		.4byte	.LVL270
 10945 08ce 16080000 		.4byte	.LFE33
 10946 08d2 0200     		.2byte	0x2
 10947 08d4 91       		.byte	0x91
 10948 08d5 00       		.sleb128 0
 10949 08d6 00000000 		.4byte	0
 10950 08da 00000000 		.4byte	0
 10951              	.LLST64:
 10952 08de 00000000 		.4byte	.LVL122
 10953 08e2 06080000 		.4byte	.LVL270
 10954 08e6 0200     		.2byte	0x2
 10955 08e8 91       		.byte	0x91
 10956 08e9 04       		.sleb128 4
 10957 08ea 06080000 		.4byte	.LVL270
 10958 08ee 16080000 		.4byte	.LFE33
ARM GAS  C:\Users\rdn\AppData\Local\Temp\cc92LAgm.s 			page 222


 10959 08f2 0200     		.2byte	0x2
 10960 08f4 91       		.byte	0x91
 10961 08f5 04       		.sleb128 4
 10962 08f6 00000000 		.4byte	0
 10963 08fa 00000000 		.4byte	0
 10964              	.LLST65:
 10965 08fe 00000000 		.4byte	.LVL122
 10966 0902 06080000 		.4byte	.LVL270
 10967 0906 0200     		.2byte	0x2
 10968 0908 91       		.byte	0x91
 10969 0909 08       		.sleb128 8
 10970 090a 06080000 		.4byte	.LVL270
 10971 090e 16080000 		.4byte	.LFE33
 10972 0912 0200     		.2byte	0x2
 10973 0914 91       		.byte	0x91
 10974 0915 08       		.sleb128 8
 10975 0916 00000000 		.4byte	0
 10976 091a 00000000 		.4byte	0
 10977              	.LLST66:
 10978 091e 00000000 		.4byte	.LVL122
 10979 0922 06080000 		.4byte	.LVL270
 10980 0926 0200     		.2byte	0x2
 10981 0928 91       		.byte	0x91
 10982 0929 0C       		.sleb128 12
 10983 092a 06080000 		.4byte	.LVL270
 10984 092e 16080000 		.4byte	.LFE33
 10985 0932 0200     		.2byte	0x2
 10986 0934 91       		.byte	0x91
 10987 0935 0C       		.sleb128 12
 10988 0936 00000000 		.4byte	0
 10989 093a 00000000 		.4byte	0
 10990              	.LLST67:
 10991 093e 24000000 		.4byte	.LVL126
 10992 0942 0A030000 		.4byte	.LVL162
 10993 0946 0400     		.2byte	0x4
 10994 0948 91       		.byte	0x91
 10995 0949 B879     		.sleb128 -840
 10996 094b 9F       		.byte	0x9f
 10997 094c 0A030000 		.4byte	.LVL162
 10998 0950 FA030000 		.4byte	.LVL188
 10999 0954 0100     		.2byte	0x1
 11000 0956 53       		.byte	0x53
 11001 0957 FA030000 		.4byte	.LVL188
 11002 095b 0E040000 		.4byte	.LVL189
 11003 095f 0400     		.2byte	0x4
 11004 0961 91       		.byte	0x91
 11005 0962 B879     		.sleb128 -840
 11006 0964 9F       		.byte	0x9f
 11007 0965 06080000 		.4byte	.LVL270
 11008 0969 16080000 		.4byte	.LFE33
 11009 096d 0400     		.2byte	0x4
 11010 096f 91       		.byte	0x91
 11011 0970 B879     		.sleb128 -840
 11012 0972 9F       		.byte	0x9f
 11013 0973 00000000 		.4byte	0
 11014 0977 00000000 		.4byte	0
 11015              	.LLST68:
ARM GAS  C:\Users\rdn\AppData\Local\Temp\cc92LAgm.s 			page 223


 11016 097b 24000000 		.4byte	.LVL126
 11017 097f 0E040000 		.4byte	.LVL189
 11018 0983 0100     		.2byte	0x1
 11019 0985 57       		.byte	0x57
 11020 0986 06080000 		.4byte	.LVL270
 11021 098a 16080000 		.4byte	.LFE33
 11022 098e 0100     		.2byte	0x1
 11023 0990 57       		.byte	0x57
 11024 0991 00000000 		.4byte	0
 11025 0995 00000000 		.4byte	0
 11026              	.LLST69:
 11027 0999 06000000 		.4byte	.LVL123
 11028 099d A0000000 		.4byte	.LVL138
 11029 09a1 0100     		.2byte	0x1
 11030 09a3 53       		.byte	0x53
 11031 09a4 A0000000 		.4byte	.LVL138
 11032 09a8 0E040000 		.4byte	.LVL189
 11033 09ac 0400     		.2byte	0x4
 11034 09ae F3       		.byte	0xf3
 11035 09af 01       		.uleb128 0x1
 11036 09b0 53       		.byte	0x53
 11037 09b1 9F       		.byte	0x9f
 11038 09b2 06080000 		.4byte	.LVL270
 11039 09b6 16080000 		.4byte	.LFE33
 11040 09ba 0400     		.2byte	0x4
 11041 09bc F3       		.byte	0xf3
 11042 09bd 01       		.uleb128 0x1
 11043 09be 53       		.byte	0x53
 11044 09bf 9F       		.byte	0x9f
 11045 09c0 00000000 		.4byte	0
 11046 09c4 00000000 		.4byte	0
 11047              	.LLST70:
 11048 09c8 06000000 		.4byte	.LVL123
 11049 09cc 0A000000 		.4byte	.LVL124
 11050 09d0 0100     		.2byte	0x1
 11051 09d2 52       		.byte	0x52
 11052 09d3 0A000000 		.4byte	.LVL124
 11053 09d7 E8020000 		.4byte	.LVL160
 11054 09db 0100     		.2byte	0x1
 11055 09dd 56       		.byte	0x56
 11056 09de E8020000 		.4byte	.LVL160
 11057 09e2 0E040000 		.4byte	.LVL189
 11058 09e6 0400     		.2byte	0x4
 11059 09e8 F3       		.byte	0xf3
 11060 09e9 01       		.uleb128 0x1
 11061 09ea 52       		.byte	0x52
 11062 09eb 9F       		.byte	0x9f
 11063 09ec 06080000 		.4byte	.LVL270
 11064 09f0 16080000 		.4byte	.LFE33
 11065 09f4 0400     		.2byte	0x4
 11066 09f6 F3       		.byte	0xf3
 11067 09f7 01       		.uleb128 0x1
 11068 09f8 52       		.byte	0x52
 11069 09f9 9F       		.byte	0x9f
 11070 09fa 00000000 		.4byte	0
 11071 09fe 00000000 		.4byte	0
 11072              	.LLST71:
ARM GAS  C:\Users\rdn\AppData\Local\Temp\cc92LAgm.s 			page 224


 11073 0a02 00000000 		.4byte	.LVL122
 11074 0a06 14000000 		.4byte	.LVL125
 11075 0a0a 0100     		.2byte	0x1
 11076 0a0c 51       		.byte	0x51
 11077 0a0d 14000000 		.4byte	.LVL125
 11078 0a11 0E040000 		.4byte	.LVL189
 11079 0a15 0400     		.2byte	0x4
 11080 0a17 F3       		.byte	0xf3
 11081 0a18 01       		.uleb128 0x1
 11082 0a19 51       		.byte	0x51
 11083 0a1a 9F       		.byte	0x9f
 11084 0a1b 06080000 		.4byte	.LVL270
 11085 0a1f 16080000 		.4byte	.LFE33
 11086 0a23 0400     		.2byte	0x4
 11087 0a25 F3       		.byte	0xf3
 11088 0a26 01       		.uleb128 0x1
 11089 0a27 51       		.byte	0x51
 11090 0a28 9F       		.byte	0x9f
 11091 0a29 00000000 		.4byte	0
 11092 0a2d 00000000 		.4byte	0
 11093              	.LLST72:
 11094 0a31 00000000 		.4byte	.LVL122
 11095 0a35 3A000000 		.4byte	.LVL129
 11096 0a39 0100     		.2byte	0x1
 11097 0a3b 50       		.byte	0x50
 11098 0a3c 3A000000 		.4byte	.LVL129
 11099 0a40 5C000000 		.4byte	.LVL131
 11100 0a44 0400     		.2byte	0x4
 11101 0a46 F3       		.byte	0xf3
 11102 0a47 01       		.uleb128 0x1
 11103 0a48 50       		.byte	0x50
 11104 0a49 9F       		.byte	0x9f
 11105 0a4a 5C000000 		.4byte	.LVL131
 11106 0a4e 62000000 		.4byte	.LVL133
 11107 0a52 0100     		.2byte	0x1
 11108 0a54 50       		.byte	0x50
 11109 0a55 62000000 		.4byte	.LVL133
 11110 0a59 0E040000 		.4byte	.LVL189
 11111 0a5d 0400     		.2byte	0x4
 11112 0a5f F3       		.byte	0xf3
 11113 0a60 01       		.uleb128 0x1
 11114 0a61 50       		.byte	0x50
 11115 0a62 9F       		.byte	0x9f
 11116 0a63 06080000 		.4byte	.LVL270
 11117 0a67 16080000 		.4byte	.LFE33
 11118 0a6b 0400     		.2byte	0x4
 11119 0a6d F3       		.byte	0xf3
 11120 0a6e 01       		.uleb128 0x1
 11121 0a6f 50       		.byte	0x50
 11122 0a70 9F       		.byte	0x9f
 11123 0a71 00000000 		.4byte	0
 11124 0a75 00000000 		.4byte	0
 11125              	.LLST73:
 11126 0a79 24000000 		.4byte	.LVL126
 11127 0a7d 90000000 		.4byte	.LVL136
 11128 0a81 0100     		.2byte	0x1
 11129 0a83 52       		.byte	0x52
ARM GAS  C:\Users\rdn\AppData\Local\Temp\cc92LAgm.s 			page 225


 11130 0a84 00000000 		.4byte	0
 11131 0a88 00000000 		.4byte	0
 11132              	.LLST74:
 11133 0a8c 34000000 		.4byte	.LVL127
 11134 0a90 5C000000 		.4byte	.LVL131
 11135 0a94 0100     		.2byte	0x1
 11136 0a96 54       		.byte	0x54
 11137 0a97 5C000000 		.4byte	.LVL131
 11138 0a9b 62000000 		.4byte	.LVL133
 11139 0a9f 0200     		.2byte	0x2
 11140 0aa1 30       		.byte	0x30
 11141 0aa2 9F       		.byte	0x9f
 11142 0aa3 00000000 		.4byte	0
 11143 0aa7 00000000 		.4byte	0
 11144              	.LLST75:
 11145 0aab 36000000 		.4byte	.LVL128
 11146 0aaf 5C000000 		.4byte	.LVL131
 11147 0ab3 0100     		.2byte	0x1
 11148 0ab5 51       		.byte	0x51
 11149 0ab6 60000000 		.4byte	.LVL132
 11150 0aba 96000000 		.4byte	.LVL137
 11151 0abe 0100     		.2byte	0x1
 11152 0ac0 51       		.byte	0x51
 11153 0ac1 00000000 		.4byte	0
 11154 0ac5 00000000 		.4byte	0
 11155              	.LLST76:
 11156 0ac9 C0000000 		.4byte	.LVL140
 11157 0acd 72010000 		.4byte	.LVL148
 11158 0ad1 0100     		.2byte	0x1
 11159 0ad3 51       		.byte	0x51
 11160 0ad4 72010000 		.4byte	.LVL148
 11161 0ad8 0E040000 		.4byte	.LVL189
 11162 0adc 0A00     		.2byte	0xa
 11163 0ade 79       		.byte	0x79
 11164 0adf 00       		.sleb128 0
 11165 0ae0 32       		.byte	0x32
 11166 0ae1 24       		.byte	0x24
 11167 0ae2 03       		.byte	0x3
 11168 0ae3 20040000 		.4byte	.LANCHOR0+1056
 11169 0ae7 22       		.byte	0x22
 11170 0ae8 06080000 		.4byte	.LVL270
 11171 0aec 16080000 		.4byte	.LFE33
 11172 0af0 0A00     		.2byte	0xa
 11173 0af2 79       		.byte	0x79
 11174 0af3 00       		.sleb128 0
 11175 0af4 32       		.byte	0x32
 11176 0af5 24       		.byte	0x24
 11177 0af6 03       		.byte	0x3
 11178 0af7 20040000 		.4byte	.LANCHOR0+1056
 11179 0afb 22       		.byte	0x22
 11180 0afc 00000000 		.4byte	0
 11181 0b00 00000000 		.4byte	0
 11182              	.LLST77:
 11183 0b04 C0000000 		.4byte	.LVL140
 11184 0b08 E8000000 		.4byte	.LVL143
 11185 0b0c 0200     		.2byte	0x2
 11186 0b0e 90       		.byte	0x90
ARM GAS  C:\Users\rdn\AppData\Local\Temp\cc92LAgm.s 			page 226


 11187 0b0f 49       		.uleb128 0x49
 11188 0b10 04010000 		.4byte	.LVL144
 11189 0b14 8B010000 		.4byte	.LVL152-1
 11190 0b18 0200     		.2byte	0x2
 11191 0b1a 90       		.byte	0x90
 11192 0b1b 49       		.uleb128 0x49
 11193 0b1c 00000000 		.4byte	0
 11194 0b20 00000000 		.4byte	0
 11195              	.LLST78:
 11196 0b24 C0000000 		.4byte	.LVL140
 11197 0b28 D0000000 		.4byte	.LVL141
 11198 0b2c 0200     		.2byte	0x2
 11199 0b2e 90       		.byte	0x90
 11200 0b2f 49       		.uleb128 0x49
 11201 0b30 D0000000 		.4byte	.LVL141
 11202 0b34 10010000 		.4byte	.LVL145
 11203 0b38 0200     		.2byte	0x2
 11204 0b3a 90       		.byte	0x90
 11205 0b3b 4A       		.uleb128 0x4a
 11206 0b3c 20010000 		.4byte	.LVL146
 11207 0b40 8B010000 		.4byte	.LVL152-1
 11208 0b44 0200     		.2byte	0x2
 11209 0b46 90       		.byte	0x90
 11210 0b47 4A       		.uleb128 0x4a
 11211 0b48 00000000 		.4byte	0
 11212 0b4c 00000000 		.4byte	0
 11213              	.LLST79:
 11214 0b50 D8000000 		.4byte	.LVL142
 11215 0b54 8B010000 		.4byte	.LVL152-1
 11216 0b58 0200     		.2byte	0x2
 11217 0b5a 90       		.byte	0x90
 11218 0b5b 48       		.uleb128 0x48
 11219 0b5c 00000000 		.4byte	0
 11220 0b60 00000000 		.4byte	0
 11221              	.LLST80:
 11222 0b64 C0000000 		.4byte	.LVL140
 11223 0b68 D0000000 		.4byte	.LVL141
 11224 0b6c 0600     		.2byte	0x6
 11225 0b6e 9E       		.byte	0x9e
 11226 0b6f 04       		.uleb128 0x4
 11227 0b70 00000000 		.4byte	0
 11228 0b74 D0000000 		.4byte	.LVL141
 11229 0b78 04010000 		.4byte	.LVL144
 11230 0b7c 0200     		.2byte	0x2
 11231 0b7e 90       		.byte	0x90
 11232 0b7f 4F       		.uleb128 0x4f
 11233 0b80 04010000 		.4byte	.LVL144
 11234 0b84 20010000 		.4byte	.LVL146
 11235 0b88 0200     		.2byte	0x2
 11236 0b8a 90       		.byte	0x90
 11237 0b8b 4E       		.uleb128 0x4e
 11238 0b8c 20010000 		.4byte	.LVL146
 11239 0b90 42010000 		.4byte	.LVL147
 11240 0b94 0200     		.2byte	0x2
 11241 0b96 90       		.byte	0x90
 11242 0b97 4D       		.uleb128 0x4d
 11243 0b98 42010000 		.4byte	.LVL147
ARM GAS  C:\Users\rdn\AppData\Local\Temp\cc92LAgm.s 			page 227


 11244 0b9c 76010000 		.4byte	.LVL149
 11245 0ba0 0200     		.2byte	0x2
 11246 0ba2 90       		.byte	0x90
 11247 0ba3 4F       		.uleb128 0x4f
 11248 0ba4 76010000 		.4byte	.LVL149
 11249 0ba8 7A010000 		.4byte	.LVL150
 11250 0bac 0800     		.2byte	0x8
 11251 0bae F5       		.byte	0xf5
 11252 0baf 4F       		.uleb128 0x4f
 11253 0bb0 25       		.uleb128 0x25
 11254 0bb1 F5       		.byte	0xf5
 11255 0bb2 4E       		.uleb128 0x4e
 11256 0bb3 25       		.uleb128 0x25
 11257 0bb4 22       		.byte	0x22
 11258 0bb5 9F       		.byte	0x9f
 11259 0bb6 7A010000 		.4byte	.LVL150
 11260 0bba 82010000 		.4byte	.LVL151
 11261 0bbe 0200     		.2byte	0x2
 11262 0bc0 90       		.byte	0x90
 11263 0bc1 4F       		.uleb128 0x4f
 11264 0bc2 00000000 		.4byte	0
 11265 0bc6 00000000 		.4byte	0
 11266              	.LLST81:
 11267 0bca 3A020000 		.4byte	.LVL156
 11268 0bce 0E030000 		.4byte	.LVL163
 11269 0bd2 0200     		.2byte	0x2
 11270 0bd4 90       		.byte	0x90
 11271 0bd5 4F       		.uleb128 0x4f
 11272 0bd6 60030000 		.4byte	.LVL173
 11273 0bda E8030000 		.4byte	.LVL185
 11274 0bde 0200     		.2byte	0x2
 11275 0be0 90       		.byte	0x90
 11276 0be1 4E       		.uleb128 0x4e
 11277 0be2 E8030000 		.4byte	.LVL185
 11278 0be6 EC030000 		.4byte	.LVL186
 11279 0bea 0C00     		.2byte	0xc
 11280 0bec F5       		.byte	0xf5
 11281 0bed 50       		.uleb128 0x50
 11282 0bee 25       		.uleb128 0x25
 11283 0bef F5       		.byte	0xf5
 11284 0bf0 4C       		.uleb128 0x4c
 11285 0bf1 25       		.uleb128 0x25
 11286 0bf2 22       		.byte	0x22
 11287 0bf3 F5       		.byte	0xf5
 11288 0bf4 4E       		.uleb128 0x4e
 11289 0bf5 25       		.uleb128 0x25
 11290 0bf6 22       		.byte	0x22
 11291 0bf7 9F       		.byte	0x9f
 11292 0bf8 EC030000 		.4byte	.LVL186
 11293 0bfc F6030000 		.4byte	.LVL187
 11294 0c00 0F00     		.2byte	0xf
 11295 0c02 91       		.byte	0x91
 11296 0c03 F079     		.sleb128 -784
 11297 0c05 F6       		.byte	0xf6
 11298 0c06 04       		.byte	0x4
 11299 0c07 25       		.uleb128 0x25
 11300 0c08 F5       		.byte	0xf5
ARM GAS  C:\Users\rdn\AppData\Local\Temp\cc92LAgm.s 			page 228


 11301 0c09 4C       		.uleb128 0x4c
 11302 0c0a 25       		.uleb128 0x25
 11303 0c0b 22       		.byte	0x22
 11304 0c0c F5       		.byte	0xf5
 11305 0c0d 4E       		.uleb128 0x4e
 11306 0c0e 25       		.uleb128 0x25
 11307 0c0f 22       		.byte	0x22
 11308 0c10 9F       		.byte	0x9f
 11309 0c11 F6030000 		.4byte	.LVL187
 11310 0c15 FA030000 		.4byte	.LVL188
 11311 0c19 0200     		.2byte	0x2
 11312 0c1b 90       		.byte	0x90
 11313 0c1c 50       		.uleb128 0x50
 11314 0c1d 06080000 		.4byte	.LVL270
 11315 0c21 16080000 		.4byte	.LFE33
 11316 0c25 0200     		.2byte	0x2
 11317 0c27 90       		.byte	0x90
 11318 0c28 4F       		.uleb128 0x4f
 11319 0c29 00000000 		.4byte	0
 11320 0c2d 00000000 		.4byte	0
 11321              	.LLST82:
 11322 0c31 E0020000 		.4byte	.LVL159
 11323 0c35 04030000 		.4byte	.LVL161
 11324 0c39 0600     		.2byte	0x6
 11325 0c3b 9E       		.byte	0x9e
 11326 0c3c 04       		.uleb128 0x4
 11327 0c3d 9A99193F 		.4byte	0x3f19999a
 11328 0c41 04030000 		.4byte	.LVL161
 11329 0c45 50030000 		.4byte	.LVL171
 11330 0c49 0200     		.2byte	0x2
 11331 0c4b 90       		.byte	0x90
 11332 0c4c 4E       		.uleb128 0x4e
 11333 0c4d 06080000 		.4byte	.LVL270
 11334 0c51 16080000 		.4byte	.LFE33
 11335 0c55 0600     		.2byte	0x6
 11336 0c57 9E       		.byte	0x9e
 11337 0c58 04       		.uleb128 0x4
 11338 0c59 9A99193F 		.4byte	0x3f19999a
 11339 0c5d 00000000 		.4byte	0
 11340 0c61 00000000 		.4byte	0
 11341              	.LLST83:
 11342 0c65 64030000 		.4byte	.LVL174
 11343 0c69 82030000 		.4byte	.LVL179
 11344 0c6d 0200     		.2byte	0x2
 11345 0c6f 90       		.byte	0x90
 11346 0c70 48       		.uleb128 0x48
 11347 0c71 00000000 		.4byte	0
 11348 0c75 00000000 		.4byte	0
 11349              	.LLST84:
 11350 0c79 32030000 		.4byte	.LVL165
 11351 0c7d 64030000 		.4byte	.LVL174
 11352 0c81 0200     		.2byte	0x2
 11353 0c83 90       		.byte	0x90
 11354 0c84 48       		.uleb128 0x48
 11355 0c85 64030000 		.4byte	.LVL174
 11356 0c89 8C030000 		.4byte	.LVL181
 11357 0c8d 0200     		.2byte	0x2
ARM GAS  C:\Users\rdn\AppData\Local\Temp\cc92LAgm.s 			page 229


 11358 0c8f 90       		.byte	0x90
 11359 0c90 4C       		.uleb128 0x4c
 11360 0c91 8C030000 		.4byte	.LVL181
 11361 0c95 0E040000 		.4byte	.LVL189
 11362 0c99 0200     		.2byte	0x2
 11363 0c9b 90       		.byte	0x90
 11364 0c9c 48       		.uleb128 0x48
 11365 0c9d 00000000 		.4byte	0
 11366 0ca1 00000000 		.4byte	0
 11367              	.LLST85:
 11368 0ca5 36030000 		.4byte	.LVL166
 11369 0ca9 64030000 		.4byte	.LVL174
 11370 0cad 0200     		.2byte	0x2
 11371 0caf 90       		.byte	0x90
 11372 0cb0 4C       		.uleb128 0x4c
 11373 0cb1 64030000 		.4byte	.LVL174
 11374 0cb5 8A030000 		.4byte	.LVL180
 11375 0cb9 0200     		.2byte	0x2
 11376 0cbb 90       		.byte	0x90
 11377 0cbc 4A       		.uleb128 0x4a
 11378 0cbd 8A030000 		.4byte	.LVL180
 11379 0cc1 0E040000 		.4byte	.LVL189
 11380 0cc5 0200     		.2byte	0x2
 11381 0cc7 90       		.byte	0x90
 11382 0cc8 47       		.uleb128 0x47
 11383 0cc9 00000000 		.4byte	0
 11384 0ccd 00000000 		.4byte	0
 11385              	.LLST86:
 11386 0cd1 3A030000 		.4byte	.LVL167
 11387 0cd5 64030000 		.4byte	.LVL174
 11388 0cd9 0200     		.2byte	0x2
 11389 0cdb 90       		.byte	0x90
 11390 0cdc 4A       		.uleb128 0x4a
 11391 0cdd 64030000 		.4byte	.LVL174
 11392 0ce1 90030000 		.4byte	.LVL182
 11393 0ce5 0200     		.2byte	0x2
 11394 0ce7 90       		.byte	0x90
 11395 0ce8 49       		.uleb128 0x49
 11396 0ce9 90030000 		.4byte	.LVL182
 11397 0ced CC030000 		.4byte	.LVL183
 11398 0cf1 0200     		.2byte	0x2
 11399 0cf3 90       		.byte	0x90
 11400 0cf4 4A       		.uleb128 0x4a
 11401 0cf5 CC030000 		.4byte	.LVL183
 11402 0cf9 0E040000 		.4byte	.LVL189
 11403 0cfd 0200     		.2byte	0x2
 11404 0cff 90       		.byte	0x90
 11405 0d00 49       		.uleb128 0x49
 11406 0d01 00000000 		.4byte	0
 11407 0d05 00000000 		.4byte	0
 11408              	.LLST87:
 11409 0d09 3E030000 		.4byte	.LVL168
 11410 0d0d 68030000 		.4byte	.LVL175
 11411 0d11 0200     		.2byte	0x2
 11412 0d13 90       		.byte	0x90
 11413 0d14 49       		.uleb128 0x49
 11414 0d15 68030000 		.4byte	.LVL175
ARM GAS  C:\Users\rdn\AppData\Local\Temp\cc92LAgm.s 			page 230


 11415 0d19 0E040000 		.4byte	.LVL189
 11416 0d1d 0200     		.2byte	0x2
 11417 0d1f 90       		.byte	0x90
 11418 0d20 46       		.uleb128 0x46
 11419 0d21 00000000 		.4byte	0
 11420 0d25 00000000 		.4byte	0
 11421              	.LLST88:
 11422 0d29 42030000 		.4byte	.LVL169
 11423 0d2d 76030000 		.4byte	.LVL177
 11424 0d31 0200     		.2byte	0x2
 11425 0d33 90       		.byte	0x90
 11426 0d34 4F       		.uleb128 0x4f
 11427 0d35 7E030000 		.4byte	.LVL178
 11428 0d39 D4030000 		.4byte	.LVL184
 11429 0d3d 0200     		.2byte	0x2
 11430 0d3f 90       		.byte	0x90
 11431 0d40 4F       		.uleb128 0x4f
 11432 0d41 00000000 		.4byte	0
 11433 0d45 00000000 		.4byte	0
 11434              	.LLST89:
 11435 0d49 36000000 		.4byte	.LVL128
 11436 0d4d 3E000000 		.4byte	.LVL130
 11437 0d51 0200     		.2byte	0x2
 11438 0d53 30       		.byte	0x30
 11439 0d54 9F       		.byte	0x9f
 11440 0d55 60000000 		.4byte	.LVL132
 11441 0d59 62000000 		.4byte	.LVL133
 11442 0d5d 0200     		.2byte	0x2
 11443 0d5f 30       		.byte	0x30
 11444 0d60 9F       		.byte	0x9f
 11445 0d61 00000000 		.4byte	0
 11446 0d65 00000000 		.4byte	0
 11447              	.LLST90:
 11448 0d69 74000000 		.4byte	.LVL134
 11449 0d6d A9000000 		.4byte	.LVL139-1
 11450 0d71 0100     		.2byte	0x1
 11451 0d73 5E       		.byte	0x5e
 11452 0d74 00000000 		.4byte	0
 11453 0d78 00000000 		.4byte	0
 11454              	.LLST91:
 11455 0d7c C0000000 		.4byte	.LVL140
 11456 0d80 D0000000 		.4byte	.LVL141
 11457 0d84 0200     		.2byte	0x2
 11458 0d86 30       		.byte	0x30
 11459 0d87 9F       		.byte	0x9f
 11460 0d88 00000000 		.4byte	0
 11461 0d8c 00000000 		.4byte	0
 11462              	.LLST92:
 11463 0d90 9A010000 		.4byte	.LVL154
 11464 0d94 A6010000 		.4byte	.LVL155
 11465 0d98 0100     		.2byte	0x1
 11466 0d9a 50       		.byte	0x50
 11467 0d9b 00000000 		.4byte	0
 11468 0d9f 00000000 		.4byte	0
 11469              	.LLST93:
 11470 0da3 9A010000 		.4byte	.LVL154
 11471 0da7 A6010000 		.4byte	.LVL155
ARM GAS  C:\Users\rdn\AppData\Local\Temp\cc92LAgm.s 			page 231


 11472 0dab 0B00     		.2byte	0xb
 11473 0dad 70       		.byte	0x70
 11474 0dae 00       		.sleb128 0
 11475 0daf 47       		.byte	0x47
 11476 0db0 25       		.byte	0x25
 11477 0db1 08       		.byte	0x8
 11478 0db2 FF       		.byte	0xff
 11479 0db3 1A       		.byte	0x1a
 11480 0db4 08       		.byte	0x8
 11481 0db5 7E       		.byte	0x7e
 11482 0db6 1C       		.byte	0x1c
 11483 0db7 9F       		.byte	0x9f
 11484 0db8 00000000 		.4byte	0
 11485 0dbc 00000000 		.4byte	0
 11486              	.LLST94:
 11487 0dc0 9A010000 		.4byte	.LVL154
 11488 0dc4 A6010000 		.4byte	.LVL155
 11489 0dc8 0600     		.2byte	0x6
 11490 0dca F2       		.byte	0xf2
 11491 0dcb 10190000 		.4byte	.Ldebug_info0+6416
 11492 0dcf 00       		.sleb128 0
 11493 0dd0 00000000 		.4byte	0
 11494 0dd4 00000000 		.4byte	0
 11495              	.LLST96:
 11496 0dd8 9A010000 		.4byte	.LVL154
 11497 0ddc A6010000 		.4byte	.LVL155
 11498 0de0 0800     		.2byte	0x8
 11499 0de2 70       		.byte	0x70
 11500 0de3 00       		.sleb128 0
 11501 0de4 47       		.byte	0x47
 11502 0de5 25       		.byte	0x25
 11503 0de6 08       		.byte	0x8
 11504 0de7 FF       		.byte	0xff
 11505 0de8 1A       		.byte	0x1a
 11506 0de9 9F       		.byte	0x9f
 11507 0dea 00000000 		.4byte	0
 11508 0dee 00000000 		.4byte	0
 11509              	.LLST97:
 11510 0df2 04030000 		.4byte	.LVL161
 11511 0df6 16030000 		.4byte	.LVL164
 11512 0dfa 0200     		.2byte	0x2
 11513 0dfc 30       		.byte	0x30
 11514 0dfd 9F       		.byte	0x9f
 11515 0dfe 00000000 		.4byte	0
 11516 0e02 00000000 		.4byte	0
 11517              	.LLST98:
 11518 0e06 60030000 		.4byte	.LVL173
 11519 0e0a 64030000 		.4byte	.LVL174
 11520 0e0e 0200     		.2byte	0x2
 11521 0e10 32       		.byte	0x32
 11522 0e11 9F       		.byte	0x9f
 11523 0e12 00000000 		.4byte	0
 11524 0e16 00000000 		.4byte	0
 11525              	.LLST99:
 11526 0e1a E8030000 		.4byte	.LVL185
 11527 0e1e FA030000 		.4byte	.LVL188
 11528 0e22 0200     		.2byte	0x2
ARM GAS  C:\Users\rdn\AppData\Local\Temp\cc92LAgm.s 			page 232


 11529 0e24 30       		.byte	0x30
 11530 0e25 9F       		.byte	0x9f
 11531 0e26 00000000 		.4byte	0
 11532 0e2a 00000000 		.4byte	0
 11533              	.LLST100:
 11534 0e2e 0E040000 		.4byte	.LVL189
 11535 0e32 9E040000 		.4byte	.LVL204
 11536 0e36 0300     		.2byte	0x3
 11537 0e38 75       		.byte	0x75
 11538 0e39 04       		.sleb128 4
 11539 0e3a 9F       		.byte	0x9f
 11540 0e3b 00000000 		.4byte	0
 11541 0e3f 00000000 		.4byte	0
 11542              	.LLST101:
 11543 0e43 0E040000 		.4byte	.LVL189
 11544 0e47 9E040000 		.4byte	.LVL204
 11545 0e4b 0100     		.2byte	0x1
 11546 0e4d 55       		.byte	0x55
 11547 0e4e 00000000 		.4byte	0
 11548 0e52 00000000 		.4byte	0
 11549              	.LLST102:
 11550 0e56 0E040000 		.4byte	.LVL189
 11551 0e5a 9E040000 		.4byte	.LVL204
 11552 0e5e 0400     		.2byte	0x4
 11553 0e60 91       		.byte	0x91
 11554 0e61 B879     		.sleb128 -840
 11555 0e63 9F       		.byte	0x9f
 11556 0e64 00000000 		.4byte	0
 11557 0e68 00000000 		.4byte	0
 11558              	.LLST103:
 11559 0e6c 0E040000 		.4byte	.LVL189
 11560 0e70 26040000 		.4byte	.LVL191
 11561 0e74 0600     		.2byte	0x6
 11562 0e76 9E       		.byte	0x9e
 11563 0e77 04       		.uleb128 0x4
 11564 0e78 00000000 		.4byte	0
 11565 0e7c 26040000 		.4byte	.LVL191
 11566 0e80 76040000 		.4byte	.LVL197
 11567 0e84 0200     		.2byte	0x2
 11568 0e86 90       		.byte	0x90
 11569 0e87 4D       		.uleb128 0x4d
 11570 0e88 76040000 		.4byte	.LVL197
 11571 0e8c 7A040000 		.4byte	.LVL198
 11572 0e90 0200     		.2byte	0x2
 11573 0e92 90       		.byte	0x90
 11574 0e93 4F       		.uleb128 0x4f
 11575 0e94 7A040000 		.4byte	.LVL198
 11576 0e98 7E040000 		.4byte	.LVL199
 11577 0e9c 0200     		.2byte	0x2
 11578 0e9e 90       		.byte	0x90
 11579 0e9f 4D       		.uleb128 0x4d
 11580 0ea0 7E040000 		.4byte	.LVL199
 11581 0ea4 98040000 		.4byte	.LVL202
 11582 0ea8 0200     		.2byte	0x2
 11583 0eaa 90       		.byte	0x90
 11584 0eab 4F       		.uleb128 0x4f
 11585 0eac 98040000 		.4byte	.LVL202
ARM GAS  C:\Users\rdn\AppData\Local\Temp\cc92LAgm.s 			page 233


 11586 0eb0 9E040000 		.4byte	.LVL204
 11587 0eb4 0200     		.2byte	0x2
 11588 0eb6 90       		.byte	0x90
 11589 0eb7 4D       		.uleb128 0x4d
 11590 0eb8 00000000 		.4byte	0
 11591 0ebc 00000000 		.4byte	0
 11592              	.LLST104:
 11593 0ec0 0E040000 		.4byte	.LVL189
 11594 0ec4 26040000 		.4byte	.LVL191
 11595 0ec8 0600     		.2byte	0x6
 11596 0eca 9E       		.byte	0x9e
 11597 0ecb 04       		.uleb128 0x4
 11598 0ecc 00000000 		.4byte	0
 11599 0ed0 26040000 		.4byte	.LVL191
 11600 0ed4 8A040000 		.4byte	.LVL200
 11601 0ed8 0200     		.2byte	0x2
 11602 0eda 90       		.byte	0x90
 11603 0edb 4B       		.uleb128 0x4b
 11604 0edc 8A040000 		.4byte	.LVL200
 11605 0ee0 94040000 		.4byte	.LVL201
 11606 0ee4 0200     		.2byte	0x2
 11607 0ee6 90       		.byte	0x90
 11608 0ee7 4E       		.uleb128 0x4e
 11609 0ee8 94040000 		.4byte	.LVL201
 11610 0eec 9E040000 		.4byte	.LVL204
 11611 0ef0 0200     		.2byte	0x2
 11612 0ef2 90       		.byte	0x90
 11613 0ef3 4B       		.uleb128 0x4b
 11614 0ef4 00000000 		.4byte	0
 11615 0ef8 00000000 		.4byte	0
 11616              	.LLST105:
 11617 0efc 20040000 		.4byte	.LVL190
 11618 0f00 26040000 		.4byte	.LVL191
 11619 0f04 0200     		.2byte	0x2
 11620 0f06 30       		.byte	0x30
 11621 0f07 9F       		.byte	0x9f
 11622 0f08 26040000 		.4byte	.LVL191
 11623 0f0c 9E040000 		.4byte	.LVL204
 11624 0f10 0100     		.2byte	0x1
 11625 0f12 52       		.byte	0x52
 11626 0f13 00000000 		.4byte	0
 11627 0f17 00000000 		.4byte	0
 11628              	.LLST106:
 11629 0f1b 26040000 		.4byte	.LVL191
 11630 0f1f 40040000 		.4byte	.LVL193
 11631 0f23 0600     		.2byte	0x6
 11632 0f25 9E       		.byte	0x9e
 11633 0f26 04       		.uleb128 0x4
 11634 0f27 00000000 		.4byte	0
 11635 0f2b 54040000 		.4byte	.LVL195
 11636 0f2f 7A040000 		.4byte	.LVL198
 11637 0f33 0200     		.2byte	0x2
 11638 0f35 90       		.byte	0x90
 11639 0f36 4F       		.uleb128 0x4f
 11640 0f37 7A040000 		.4byte	.LVL198
 11641 0f3b 7E040000 		.4byte	.LVL199
 11642 0f3f 0200     		.2byte	0x2
ARM GAS  C:\Users\rdn\AppData\Local\Temp\cc92LAgm.s 			page 234


 11643 0f41 90       		.byte	0x90
 11644 0f42 4D       		.uleb128 0x4d
 11645 0f43 7E040000 		.4byte	.LVL199
 11646 0f47 98040000 		.4byte	.LVL202
 11647 0f4b 0200     		.2byte	0x2
 11648 0f4d 90       		.byte	0x90
 11649 0f4e 4F       		.uleb128 0x4f
 11650 0f4f 98040000 		.4byte	.LVL202
 11651 0f53 E2040000 		.4byte	.LVL207
 11652 0f57 0200     		.2byte	0x2
 11653 0f59 90       		.byte	0x90
 11654 0f5a 4D       		.uleb128 0x4d
 11655 0f5b 00000000 		.4byte	0
 11656 0f5f 00000000 		.4byte	0
 11657              	.LLST107:
 11658 0f63 26040000 		.4byte	.LVL191
 11659 0f67 40040000 		.4byte	.LVL193
 11660 0f6b 0600     		.2byte	0x6
 11661 0f6d 9E       		.byte	0x9e
 11662 0f6e 04       		.uleb128 0x4
 11663 0f6f 00000000 		.4byte	0
 11664 0f73 40040000 		.4byte	.LVL193
 11665 0f77 B4040000 		.4byte	.LVL206
 11666 0f7b 0200     		.2byte	0x2
 11667 0f7d 90       		.byte	0x90
 11668 0f7e 4E       		.uleb128 0x4e
 11669 0f7f 00000000 		.4byte	0
 11670 0f83 00000000 		.4byte	0
 11671              	.LLST108:
 11672 0f87 26040000 		.4byte	.LVL191
 11673 0f8b 40040000 		.4byte	.LVL193
 11674 0f8f 0200     		.2byte	0x2
 11675 0f91 30       		.byte	0x30
 11676 0f92 9F       		.byte	0x9f
 11677 0f93 00000000 		.4byte	0
 11678 0f97 00000000 		.4byte	0
 11679              	.LLST109:
 11680 0f9b 9E040000 		.4byte	.LVL204
 11681 0f9f 9C070000 		.4byte	.LVL258
 11682 0fa3 0300     		.2byte	0x3
 11683 0fa5 75       		.byte	0x75
 11684 0fa6 0C       		.sleb128 12
 11685 0fa7 9F       		.byte	0x9f
 11686 0fa8 00000000 		.4byte	0
 11687 0fac 00000000 		.4byte	0
 11688              	.LLST110:
 11689 0fb0 9E040000 		.4byte	.LVL204
 11690 0fb4 9C070000 		.4byte	.LVL258
 11691 0fb8 0300     		.2byte	0x3
 11692 0fba 75       		.byte	0x75
 11693 0fbb 08       		.sleb128 8
 11694 0fbc 9F       		.byte	0x9f
 11695 0fbd 00000000 		.4byte	0
 11696 0fc1 00000000 		.4byte	0
 11697              	.LLST111:
 11698 0fc5 9E040000 		.4byte	.LVL204
 11699 0fc9 24060000 		.4byte	.LVL223
ARM GAS  C:\Users\rdn\AppData\Local\Temp\cc92LAgm.s 			page 235


 11700 0fcd 0400     		.2byte	0x4
 11701 0fcf 91       		.byte	0x91
 11702 0fd0 B87B     		.sleb128 -584
 11703 0fd2 9F       		.byte	0x9f
 11704 0fd3 24060000 		.4byte	.LVL223
 11705 0fd7 76060000 		.4byte	.LVL227
 11706 0fdb 0100     		.2byte	0x1
 11707 0fdd 54       		.byte	0x54
 11708 0fde 76060000 		.4byte	.LVL227
 11709 0fe2 9C070000 		.4byte	.LVL258
 11710 0fe6 0400     		.2byte	0x4
 11711 0fe8 91       		.byte	0x91
 11712 0fe9 B87B     		.sleb128 -584
 11713 0feb 9F       		.byte	0x9f
 11714 0fec 00000000 		.4byte	0
 11715 0ff0 00000000 		.4byte	0
 11716              	.LLST112:
 11717 0ff4 9E040000 		.4byte	.LVL204
 11718 0ff8 6E050000 		.4byte	.LVL217
 11719 0ffc 0400     		.2byte	0x4
 11720 0ffe 91       		.byte	0x91
 11721 0fff B87D     		.sleb128 -328
 11722 1001 9F       		.byte	0x9f
 11723 1002 6E050000 		.4byte	.LVL217
 11724 1006 76050000 		.4byte	.LVL218
 11725 100a 0100     		.2byte	0x1
 11726 100c 53       		.byte	0x53
 11727 100d 76050000 		.4byte	.LVL218
 11728 1011 76060000 		.4byte	.LVL227
 11729 1015 0400     		.2byte	0x4
 11730 1017 91       		.byte	0x91
 11731 1018 B87D     		.sleb128 -328
 11732 101a 9F       		.byte	0x9f
 11733 101b 76060000 		.4byte	.LVL227
 11734 101f 78060000 		.4byte	.LVL228
 11735 1023 0100     		.2byte	0x1
 11736 1025 54       		.byte	0x54
 11737 1026 78060000 		.4byte	.LVL228
 11738 102a 7E060000 		.4byte	.LVL229
 11739 102e 0300     		.2byte	0x3
 11740 1030 74       		.byte	0x74
 11741 1031 70       		.sleb128 -16
 11742 1032 9F       		.byte	0x9f
 11743 1033 7E060000 		.4byte	.LVL229
 11744 1037 84060000 		.4byte	.LVL230
 11745 103b 0300     		.2byte	0x3
 11746 103d 74       		.byte	0x74
 11747 103e 60       		.sleb128 -32
 11748 103f 9F       		.byte	0x9f
 11749 1040 84060000 		.4byte	.LVL230
 11750 1044 A2060000 		.4byte	.LVL232
 11751 1048 0300     		.2byte	0x3
 11752 104a 74       		.byte	0x74
 11753 104b 50       		.sleb128 -48
 11754 104c 9F       		.byte	0x9f
 11755 104d A2060000 		.4byte	.LVL232
 11756 1051 A4060000 		.4byte	.LVL233
ARM GAS  C:\Users\rdn\AppData\Local\Temp\cc92LAgm.s 			page 236


 11757 1055 0400     		.2byte	0x4
 11758 1057 91       		.byte	0x91
 11759 1058 B87D     		.sleb128 -328
 11760 105a 9F       		.byte	0x9f
 11761 105b A4060000 		.4byte	.LVL233
 11762 105f A6060000 		.4byte	.LVL234
 11763 1063 0100     		.2byte	0x1
 11764 1065 52       		.byte	0x52
 11765 1066 A6060000 		.4byte	.LVL234
 11766 106a AE060000 		.4byte	.LVL236
 11767 106e 0400     		.2byte	0x4
 11768 1070 91       		.byte	0x91
 11769 1071 B87D     		.sleb128 -328
 11770 1073 9F       		.byte	0x9f
 11771 1074 AE060000 		.4byte	.LVL236
 11772 1078 B6060000 		.4byte	.LVL237
 11773 107c 0100     		.2byte	0x1
 11774 107e 50       		.byte	0x50
 11775 107f B6060000 		.4byte	.LVL237
 11776 1083 DA060000 		.4byte	.LVL241
 11777 1087 0400     		.2byte	0x4
 11778 1089 91       		.byte	0x91
 11779 108a B87D     		.sleb128 -328
 11780 108c 9F       		.byte	0x9f
 11781 108d DA060000 		.4byte	.LVL241
 11782 1091 DD060000 		.4byte	.LVL242-1
 11783 1095 0100     		.2byte	0x1
 11784 1097 50       		.byte	0x50
 11785 1098 DD060000 		.4byte	.LVL242-1
 11786 109c 9C070000 		.4byte	.LVL258
 11787 10a0 0400     		.2byte	0x4
 11788 10a2 91       		.byte	0x91
 11789 10a3 B87D     		.sleb128 -328
 11790 10a5 9F       		.byte	0x9f
 11791 10a6 00000000 		.4byte	0
 11792 10aa 00000000 		.4byte	0
 11793              	.LLST113:
 11794 10ae 9E040000 		.4byte	.LVL204
 11795 10b2 39050000 		.4byte	.LVL212-1
 11796 10b6 0200     		.2byte	0x2
 11797 10b8 75       		.byte	0x75
 11798 10b9 04       		.sleb128 4
 11799 10ba 00000000 		.4byte	0
 11800 10be 00000000 		.4byte	0
 11801              	.LLST114:
 11802 10c2 9E040000 		.4byte	.LVL204
 11803 10c6 39050000 		.4byte	.LVL212-1
 11804 10ca 0200     		.2byte	0x2
 11805 10cc 75       		.byte	0x75
 11806 10cd 00       		.sleb128 0
 11807 10ce 00000000 		.4byte	0
 11808 10d2 00000000 		.4byte	0
 11809              	.LLST115:
 11810 10d6 9E040000 		.4byte	.LVL204
 11811 10da 9C070000 		.4byte	.LVL258
 11812 10de 0400     		.2byte	0x4
 11813 10e0 91       		.byte	0x91
ARM GAS  C:\Users\rdn\AppData\Local\Temp\cc92LAgm.s 			page 237


 11814 10e1 B879     		.sleb128 -840
 11815 10e3 9F       		.byte	0x9f
 11816 10e4 00000000 		.4byte	0
 11817 10e8 00000000 		.4byte	0
 11818              	.LLST116:
 11819 10ec 18050000 		.4byte	.LVL210
 11820 10f0 39050000 		.4byte	.LVL212-1
 11821 10f4 0200     		.2byte	0x2
 11822 10f6 90       		.byte	0x90
 11823 10f7 4E       		.uleb128 0x4e
 11824 10f8 00000000 		.4byte	0
 11825 10fc 00000000 		.4byte	0
 11826              	.LLST117:
 11827 1100 46050000 		.4byte	.LVL213
 11828 1104 9C070000 		.4byte	.LVL258
 11829 1108 0200     		.2byte	0x2
 11830 110a 90       		.byte	0x90
 11831 110b 53       		.uleb128 0x53
 11832 110c 00000000 		.4byte	0
 11833 1110 00000000 		.4byte	0
 11834              	.LLST118:
 11835 1114 46050000 		.4byte	.LVL213
 11836 1118 4E050000 		.4byte	.LVL214
 11837 111c 0200     		.2byte	0x2
 11838 111e 30       		.byte	0x30
 11839 111f 9F       		.byte	0x9f
 11840 1120 58050000 		.4byte	.LVL215
 11841 1124 63050000 		.4byte	.LVL216-1
 11842 1128 0100     		.2byte	0x1
 11843 112a 53       		.byte	0x53
 11844 112b 63050000 		.4byte	.LVL216-1
 11845 112f 80050000 		.4byte	.LVL219
 11846 1133 0300     		.2byte	0x3
 11847 1135 91       		.byte	0x91
 11848 1136 AC79     		.sleb128 -852
 11849 1138 80050000 		.4byte	.LVL219
 11850 113c B9050000 		.4byte	.LVL220-1
 11851 1140 0100     		.2byte	0x1
 11852 1142 53       		.byte	0x53
 11853 1143 BA050000 		.4byte	.LVL220
 11854 1147 EE050000 		.4byte	.LVL221
 11855 114b 0200     		.2byte	0x2
 11856 114d 36       		.byte	0x36
 11857 114e 9F       		.byte	0x9f
 11858 114f EE050000 		.4byte	.LVL221
 11859 1153 2A060000 		.4byte	.LVL224
 11860 1157 0200     		.2byte	0x2
 11861 1159 38       		.byte	0x38
 11862 115a 9F       		.byte	0x9f
 11863 115b 2A060000 		.4byte	.LVL224
 11864 115f 6B060000 		.4byte	.LVL226-1
 11865 1163 0100     		.2byte	0x1
 11866 1165 53       		.byte	0x53
 11867 1166 6C060000 		.4byte	.LVL226
 11868 116a 9C070000 		.4byte	.LVL258
 11869 116e 0200     		.2byte	0x2
 11870 1170 3A       		.byte	0x3a
ARM GAS  C:\Users\rdn\AppData\Local\Temp\cc92LAgm.s 			page 238


 11871 1171 9F       		.byte	0x9f
 11872 1172 00000000 		.4byte	0
 11873 1176 00000000 		.4byte	0
 11874              	.LLST119:
 11875 117a F6060000 		.4byte	.LVL245
 11876 117e 04070000 		.4byte	.LVL247
 11877 1182 0600     		.2byte	0x6
 11878 1184 9E       		.byte	0x9e
 11879 1185 04       		.uleb128 0x4
 11880 1186 0000807F 		.4byte	0x7f800000
 11881 118a 04070000 		.4byte	.LVL247
 11882 118e 90070000 		.4byte	.LVL256
 11883 1192 0200     		.2byte	0x2
 11884 1194 90       		.byte	0x90
 11885 1195 4B       		.uleb128 0x4b
 11886 1196 90070000 		.4byte	.LVL256
 11887 119a 94070000 		.4byte	.LVL257
 11888 119e 0200     		.2byte	0x2
 11889 11a0 90       		.byte	0x90
 11890 11a1 4F       		.uleb128 0x4f
 11891 11a2 94070000 		.4byte	.LVL257
 11892 11a6 9C070000 		.4byte	.LVL258
 11893 11aa 0200     		.2byte	0x2
 11894 11ac 90       		.byte	0x90
 11895 11ad 4B       		.uleb128 0x4b
 11896 11ae 00000000 		.4byte	0
 11897 11b2 00000000 		.4byte	0
 11898              	.LLST120:
 11899 11b6 A8040000 		.4byte	.LVL205
 11900 11ba B4040000 		.4byte	.LVL206
 11901 11be 0200     		.2byte	0x2
 11902 11c0 30       		.byte	0x30
 11903 11c1 9F       		.byte	0x9f
 11904 11c2 00000000 		.4byte	0
 11905 11c6 00000000 		.4byte	0
 11906              	.LLST121:
 11907 11ca E2040000 		.4byte	.LVL207
 11908 11ce E8040000 		.4byte	.LVL208
 11909 11d2 0200     		.2byte	0x2
 11910 11d4 30       		.byte	0x30
 11911 11d5 9F       		.byte	0x9f
 11912 11d6 00000000 		.4byte	0
 11913 11da 00000000 		.4byte	0
 11914              	.LLST122:
 11915 11de 46050000 		.4byte	.LVL213
 11916 11e2 4E050000 		.4byte	.LVL214
 11917 11e6 0200     		.2byte	0x2
 11918 11e8 30       		.byte	0x30
 11919 11e9 9F       		.byte	0x9f
 11920 11ea 00000000 		.4byte	0
 11921 11ee 00000000 		.4byte	0
 11922              	.LLST123:
 11923 11f2 16060000 		.4byte	.LVL222
 11924 11f6 2A060000 		.4byte	.LVL224
 11925 11fa 0200     		.2byte	0x2
 11926 11fc 3A       		.byte	0x3a
 11927 11fd 9F       		.byte	0x9f
ARM GAS  C:\Users\rdn\AppData\Local\Temp\cc92LAgm.s 			page 239


 11928 11fe 00000000 		.4byte	0
 11929 1202 00000000 		.4byte	0
 11930              	.LLST124:
 11931 1206 A0060000 		.4byte	.LVL231
 11932 120a A6060000 		.4byte	.LVL234
 11933 120e 0200     		.2byte	0x2
 11934 1210 30       		.byte	0x30
 11935 1211 9F       		.byte	0x9f
 11936 1212 A6060000 		.4byte	.LVL234
 11937 1216 D8060000 		.4byte	.LVL240
 11938 121a 0100     		.2byte	0x1
 11939 121c 51       		.byte	0x51
 11940 121d 00000000 		.4byte	0
 11941 1221 00000000 		.4byte	0
 11942              	.LLST125:
 11943 1225 A6060000 		.4byte	.LVL234
 11944 1229 AC060000 		.4byte	.LVL235
 11945 122d 0200     		.2byte	0x2
 11946 122f 30       		.byte	0x30
 11947 1230 9F       		.byte	0x9f
 11948 1231 00000000 		.4byte	0
 11949 1235 00000000 		.4byte	0
 11950              	.LLST126:
 11951 1239 D6060000 		.4byte	.LVL239
 11952 123d DE060000 		.4byte	.LVL242
 11953 1241 0200     		.2byte	0x2
 11954 1243 30       		.byte	0x30
 11955 1244 9F       		.byte	0x9f
 11956 1245 DE060000 		.4byte	.LVL242
 11957 1249 E6060000 		.4byte	.LVL243
 11958 124d 0200     		.2byte	0x2
 11959 124f 31       		.byte	0x31
 11960 1250 9F       		.byte	0x9f
 11961 1251 E6060000 		.4byte	.LVL243
 11962 1255 EE060000 		.4byte	.LVL244
 11963 1259 0200     		.2byte	0x2
 11964 125b 32       		.byte	0x32
 11965 125c 9F       		.byte	0x9f
 11966 125d EE060000 		.4byte	.LVL244
 11967 1261 F6060000 		.4byte	.LVL245
 11968 1265 0200     		.2byte	0x2
 11969 1267 33       		.byte	0x33
 11970 1268 9F       		.byte	0x9f
 11971 1269 F6060000 		.4byte	.LVL245
 11972 126d 9C070000 		.4byte	.LVL258
 11973 1271 0200     		.2byte	0x2
 11974 1273 34       		.byte	0x34
 11975 1274 9F       		.byte	0x9f
 11976 1275 00000000 		.4byte	0
 11977 1279 00000000 		.4byte	0
 11978              	.LLST127:
 11979 127d 02070000 		.4byte	.LVL246
 11980 1281 04070000 		.4byte	.LVL247
 11981 1285 0200     		.2byte	0x2
 11982 1287 30       		.byte	0x30
 11983 1288 9F       		.byte	0x9f
 11984 1289 04070000 		.4byte	.LVL247
ARM GAS  C:\Users\rdn\AppData\Local\Temp\cc92LAgm.s 			page 240


 11985 128d 8C070000 		.4byte	.LVL255
 11986 1291 0100     		.2byte	0x1
 11987 1293 53       		.byte	0x53
 11988 1294 8C070000 		.4byte	.LVL255
 11989 1298 94070000 		.4byte	.LVL257
 11990 129c 0300     		.2byte	0x3
 11991 129e 73       		.byte	0x73
 11992 129f 7F       		.sleb128 -1
 11993 12a0 9F       		.byte	0x9f
 11994 12a1 94070000 		.4byte	.LVL257
 11995 12a5 9C070000 		.4byte	.LVL258
 11996 12a9 0100     		.2byte	0x1
 11997 12ab 53       		.byte	0x53
 11998 12ac 00000000 		.4byte	0
 11999 12b0 00000000 		.4byte	0
 12000              	.LLST128:
 12001 12b4 04070000 		.4byte	.LVL247
 12002 12b8 14070000 		.4byte	.LVL248
 12003 12bc 0600     		.2byte	0x6
 12004 12be 9E       		.byte	0x9e
 12005 12bf 04       		.uleb128 0x4
 12006 12c0 0000807F 		.4byte	0x7f800000
 12007 12c4 14070000 		.4byte	.LVL248
 12008 12c8 B3070000 		.4byte	.LVL260-1
 12009 12cc 0200     		.2byte	0x2
 12010 12ce 90       		.byte	0x90
 12011 12cf 4F       		.uleb128 0x4f
 12012 12d0 00000000 		.4byte	0
 12013 12d4 00000000 		.4byte	0
 12014              	.LLST129:
 12015 12d8 04070000 		.4byte	.LVL247
 12016 12dc 14070000 		.4byte	.LVL248
 12017 12e0 0200     		.2byte	0x2
 12018 12e2 30       		.byte	0x30
 12019 12e3 9F       		.byte	0x9f
 12020 12e4 00000000 		.4byte	0
 12021 12e8 00000000 		.4byte	0
 12022              	.LLST130:
 12023 12ec 04070000 		.4byte	.LVL247
 12024 12f0 14070000 		.4byte	.LVL248
 12025 12f4 0200     		.2byte	0x2
 12026 12f6 30       		.byte	0x30
 12027 12f7 9F       		.byte	0x9f
 12028 12f8 14070000 		.4byte	.LVL248
 12029 12fc A8070000 		.4byte	.LVL259
 12030 1300 0100     		.2byte	0x1
 12031 1302 52       		.byte	0x52
 12032 1303 00000000 		.4byte	0
 12033 1307 00000000 		.4byte	0
 12034              	.LLST131:
 12035 130b 28070000 		.4byte	.LVL249
 12036 130f 32070000 		.4byte	.LVL250
 12037 1313 0200     		.2byte	0x2
 12038 1315 90       		.byte	0x90
 12039 1316 4C       		.uleb128 0x4c
 12040 1317 32070000 		.4byte	.LVL250
 12041 131b 58070000 		.4byte	.LVL253
ARM GAS  C:\Users\rdn\AppData\Local\Temp\cc92LAgm.s 			page 241


 12042 131f 0800     		.2byte	0x8
 12043 1321 72       		.byte	0x72
 12044 1322 00       		.sleb128 0
 12045 1323 32       		.byte	0x32
 12046 1324 24       		.byte	0x24
 12047 1325 7C       		.byte	0x7c
 12048 1326 04       		.sleb128 4
 12049 1327 06       		.byte	0x6
 12050 1328 22       		.byte	0x22
 12051 1329 58070000 		.4byte	.LVL253
 12052 132d 7C070000 		.4byte	.LVL254
 12053 1331 0800     		.2byte	0x8
 12054 1333 72       		.byte	0x72
 12055 1334 7F       		.sleb128 -1
 12056 1335 32       		.byte	0x32
 12057 1336 24       		.byte	0x24
 12058 1337 7C       		.byte	0x7c
 12059 1338 04       		.sleb128 4
 12060 1339 06       		.byte	0x6
 12061 133a 22       		.byte	0x22
 12062 133b 00000000 		.4byte	0
 12063 133f 00000000 		.4byte	0
 12064              	.LLST132:
 12065 1343 28070000 		.4byte	.LVL249
 12066 1347 32070000 		.4byte	.LVL250
 12067 134b 0600     		.2byte	0x6
 12068 134d 9E       		.byte	0x9e
 12069 134e 04       		.uleb128 0x4
 12070 134f 00000000 		.4byte	0
 12071 1353 32070000 		.4byte	.LVL250
 12072 1357 7C070000 		.4byte	.LVL254
 12073 135b 0200     		.2byte	0x2
 12074 135d 90       		.byte	0x90
 12075 135e 4E       		.uleb128 0x4e
 12076 135f 00000000 		.4byte	0
 12077 1363 00000000 		.4byte	0
 12078              	.LLST133:
 12079 1367 28070000 		.4byte	.LVL249
 12080 136b 32070000 		.4byte	.LVL250
 12081 136f 0200     		.2byte	0x2
 12082 1371 30       		.byte	0x30
 12083 1372 9F       		.byte	0x9f
 12084 1373 00000000 		.4byte	0
 12085 1377 00000000 		.4byte	0
 12086              	.LLST134:
 12087 137b BE070000 		.4byte	.LVL262
 12088 137f D8070000 		.4byte	.LVL266
 12089 1383 0300     		.2byte	0x3
 12090 1385 75       		.byte	0x75
 12091 1386 19       		.sleb128 25
 12092 1387 9F       		.byte	0x9f
 12093 1388 D8070000 		.4byte	.LVL266
 12094 138c E5070000 		.4byte	.LVL268-1
 12095 1390 0100     		.2byte	0x1
 12096 1392 53       		.byte	0x53
 12097 1393 E5070000 		.4byte	.LVL268-1
 12098 1397 E6070000 		.4byte	.LVL268
ARM GAS  C:\Users\rdn\AppData\Local\Temp\cc92LAgm.s 			page 242


 12099 139b 0300     		.2byte	0x3
 12100 139d 75       		.byte	0x75
 12101 139e 19       		.sleb128 25
 12102 139f 9F       		.byte	0x9f
 12103 13a0 00000000 		.4byte	0
 12104 13a4 00000000 		.4byte	0
 12105              	.LLST135:
 12106 13a8 BE070000 		.4byte	.LVL262
 12107 13ac DC070000 		.4byte	.LVL267
 12108 13b0 0300     		.2byte	0x3
 12109 13b2 75       		.byte	0x75
 12110 13b3 14       		.sleb128 20
 12111 13b4 9F       		.byte	0x9f
 12112 13b5 DC070000 		.4byte	.LVL267
 12113 13b9 E5070000 		.4byte	.LVL268-1
 12114 13bd 0100     		.2byte	0x1
 12115 13bf 52       		.byte	0x52
 12116 13c0 E5070000 		.4byte	.LVL268-1
 12117 13c4 E6070000 		.4byte	.LVL268
 12118 13c8 0300     		.2byte	0x3
 12119 13ca 75       		.byte	0x75
 12120 13cb 14       		.sleb128 20
 12121 13cc 9F       		.byte	0x9f
 12122 13cd 00000000 		.4byte	0
 12123 13d1 00000000 		.4byte	0
 12124              	.LLST136:
 12125 13d5 BE070000 		.4byte	.LVL262
 12126 13d9 C8070000 		.4byte	.LVL263
 12127 13dd 0300     		.2byte	0x3
 12128 13df 75       		.byte	0x75
 12129 13e0 18       		.sleb128 24
 12130 13e1 9F       		.byte	0x9f
 12131 13e2 C8070000 		.4byte	.LVL263
 12132 13e6 D1070000 		.4byte	.LVL265-1
 12133 13ea 0100     		.2byte	0x1
 12134 13ec 53       		.byte	0x53
 12135 13ed D1070000 		.4byte	.LVL265-1
 12136 13f1 E6070000 		.4byte	.LVL268
 12137 13f5 0300     		.2byte	0x3
 12138 13f7 75       		.byte	0x75
 12139 13f8 18       		.sleb128 24
 12140 13f9 9F       		.byte	0x9f
 12141 13fa 00000000 		.4byte	0
 12142 13fe 00000000 		.4byte	0
 12143              	.LLST137:
 12144 1402 BE070000 		.4byte	.LVL262
 12145 1406 CC070000 		.4byte	.LVL264
 12146 140a 0300     		.2byte	0x3
 12147 140c 75       		.byte	0x75
 12148 140d 10       		.sleb128 16
 12149 140e 9F       		.byte	0x9f
 12150 140f CC070000 		.4byte	.LVL264
 12151 1413 D1070000 		.4byte	.LVL265-1
 12152 1417 0100     		.2byte	0x1
 12153 1419 52       		.byte	0x52
 12154 141a D1070000 		.4byte	.LVL265-1
 12155 141e E6070000 		.4byte	.LVL268
ARM GAS  C:\Users\rdn\AppData\Local\Temp\cc92LAgm.s 			page 243


 12156 1422 0300     		.2byte	0x3
 12157 1424 75       		.byte	0x75
 12158 1425 10       		.sleb128 16
 12159 1426 9F       		.byte	0x9f
 12160 1427 00000000 		.4byte	0
 12161 142b 00000000 		.4byte	0
 12162              	.LLST138:
 12163 142f BE070000 		.4byte	.LVL262
 12164 1433 E6070000 		.4byte	.LVL268
 12165 1437 0100     		.2byte	0x1
 12166 1439 54       		.byte	0x54
 12167 143a 00000000 		.4byte	0
 12168 143e 00000000 		.4byte	0
 12169              	.LLST139:
 12170 1442 B6070000 		.4byte	.LVL261
 12171 1446 E6070000 		.4byte	.LVL268
 12172 144a 0100     		.2byte	0x1
 12173 144c 56       		.byte	0x56
 12174 144d 00000000 		.4byte	0
 12175 1451 00000000 		.4byte	0
 12176              	.LLST140:
 12177 1455 00000000 		.4byte	.LVL271
 12178 1459 1E000000 		.4byte	.LVL275
 12179 145d 0100     		.2byte	0x1
 12180 145f 50       		.byte	0x50
 12181 1460 1E000000 		.4byte	.LVL275
 12182 1464 A0000000 		.4byte	.LFE34
 12183 1468 0400     		.2byte	0x4
 12184 146a F3       		.byte	0xf3
 12185 146b 01       		.uleb128 0x1
 12186 146c 50       		.byte	0x50
 12187 146d 9F       		.byte	0x9f
 12188 146e 00000000 		.4byte	0
 12189 1472 00000000 		.4byte	0
 12190              	.LLST141:
 12191 1476 00000000 		.4byte	.LVL271
 12192 147a 1E000000 		.4byte	.LVL275
 12193 147e 0100     		.2byte	0x1
 12194 1480 51       		.byte	0x51
 12195 1481 1E000000 		.4byte	.LVL275
 12196 1485 A0000000 		.4byte	.LFE34
 12197 1489 0400     		.2byte	0x4
 12198 148b F3       		.byte	0xf3
 12199 148c 01       		.uleb128 0x1
 12200 148d 51       		.byte	0x51
 12201 148e 9F       		.byte	0x9f
 12202 148f 00000000 		.4byte	0
 12203 1493 00000000 		.4byte	0
 12204              	.LLST142:
 12205 1497 00000000 		.4byte	.LVL271
 12206 149b 1E000000 		.4byte	.LVL275
 12207 149f 0100     		.2byte	0x1
 12208 14a1 52       		.byte	0x52
 12209 14a2 1E000000 		.4byte	.LVL275
 12210 14a6 9C000000 		.4byte	.LVL286
 12211 14aa 0100     		.2byte	0x1
 12212 14ac 54       		.byte	0x54
ARM GAS  C:\Users\rdn\AppData\Local\Temp\cc92LAgm.s 			page 244


 12213 14ad 9C000000 		.4byte	.LVL286
 12214 14b1 A0000000 		.4byte	.LFE34
 12215 14b5 0400     		.2byte	0x4
 12216 14b7 F3       		.byte	0xf3
 12217 14b8 01       		.uleb128 0x1
 12218 14b9 52       		.byte	0x52
 12219 14ba 9F       		.byte	0x9f
 12220 14bb 00000000 		.4byte	0
 12221 14bf 00000000 		.4byte	0
 12222              	.LLST143:
 12223 14c3 00000000 		.4byte	.LVL271
 12224 14c7 08000000 		.4byte	.LVL272
 12225 14cb 0100     		.2byte	0x1
 12226 14cd 53       		.byte	0x53
 12227 14ce 08000000 		.4byte	.LVL272
 12228 14d2 9C000000 		.4byte	.LVL286
 12229 14d6 0100     		.2byte	0x1
 12230 14d8 59       		.byte	0x59
 12231 14d9 9C000000 		.4byte	.LVL286
 12232 14dd A0000000 		.4byte	.LFE34
 12233 14e1 0400     		.2byte	0x4
 12234 14e3 F3       		.byte	0xf3
 12235 14e4 01       		.uleb128 0x1
 12236 14e5 53       		.byte	0x53
 12237 14e6 9F       		.byte	0x9f
 12238 14e7 00000000 		.4byte	0
 12239 14eb 00000000 		.4byte	0
 12240              	.LLST144:
 12241 14ef 00000000 		.4byte	.LVL271
 12242 14f3 9C000000 		.4byte	.LVL286
 12243 14f7 0200     		.2byte	0x2
 12244 14f9 91       		.byte	0x91
 12245 14fa 00       		.sleb128 0
 12246 14fb 9C000000 		.4byte	.LVL286
 12247 14ff A0000000 		.4byte	.LFE34
 12248 1503 0200     		.2byte	0x2
 12249 1505 7D       		.byte	0x7d
 12250 1506 00       		.sleb128 0
 12251 1507 00000000 		.4byte	0
 12252 150b 00000000 		.4byte	0
 12253              	.LLST145:
 12254 150f 20000000 		.4byte	.LVL276
 12255 1513 40000000 		.4byte	.LVL279
 12256 1517 0400     		.2byte	0x4
 12257 1519 91       		.byte	0x91
 12258 151a 987F     		.sleb128 -104
 12259 151c 9F       		.byte	0x9f
 12260 151d 40000000 		.4byte	.LVL279
 12261 1521 43000000 		.4byte	.LVL280-1
 12262 1525 0100     		.2byte	0x1
 12263 1527 53       		.byte	0x53
 12264 1528 43000000 		.4byte	.LVL280-1
 12265 152c 66000000 		.4byte	.LVL282
 12266 1530 0400     		.2byte	0x4
 12267 1532 91       		.byte	0x91
 12268 1533 987F     		.sleb128 -104
 12269 1535 9F       		.byte	0x9f
ARM GAS  C:\Users\rdn\AppData\Local\Temp\cc92LAgm.s 			page 245


 12270 1536 00000000 		.4byte	0
 12271 153a 00000000 		.4byte	0
 12272              	.LLST146:
 12273 153e 18000000 		.4byte	.LVL274
 12274 1542 66000000 		.4byte	.LVL282
 12275 1546 0100     		.2byte	0x1
 12276 1548 5B       		.byte	0x5b
 12277 1549 00000000 		.4byte	0
 12278 154d 00000000 		.4byte	0
 12279              	.LLST147:
 12280 1551 18000000 		.4byte	.LVL274
 12281 1555 66000000 		.4byte	.LVL282
 12282 1559 0100     		.2byte	0x1
 12283 155b 5A       		.byte	0x5a
 12284 155c 00000000 		.4byte	0
 12285 1560 00000000 		.4byte	0
 12286              	.LLST148:
 12287 1564 18000000 		.4byte	.LVL274
 12288 1568 43000000 		.4byte	.LVL280-1
 12289 156c 0100     		.2byte	0x1
 12290 156e 5E       		.byte	0x5e
 12291 156f 00000000 		.4byte	0
 12292 1573 00000000 		.4byte	0
 12293              	.LLST149:
 12294 1577 18000000 		.4byte	.LVL274
 12295 157b 1E000000 		.4byte	.LVL275
 12296 157f 0200     		.2byte	0x2
 12297 1581 72       		.byte	0x72
 12298 1582 10       		.sleb128 16
 12299 1583 1E000000 		.4byte	.LVL275
 12300 1587 3C000000 		.4byte	.LVL278
 12301 158b 0200     		.2byte	0x2
 12302 158d 74       		.byte	0x74
 12303 158e 10       		.sleb128 16
 12304 158f 3C000000 		.4byte	.LVL278
 12305 1593 43000000 		.4byte	.LVL280-1
 12306 1597 0100     		.2byte	0x1
 12307 1599 50       		.byte	0x50
 12308 159a 00000000 		.4byte	0
 12309 159e 00000000 		.4byte	0
 12310              	.LLST150:
 12311 15a2 16000000 		.4byte	.LVL273
 12312 15a6 66000000 		.4byte	.LVL282
 12313 15aa 0100     		.2byte	0x1
 12314 15ac 55       		.byte	0x55
 12315 15ad 00000000 		.4byte	0
 12316 15b1 00000000 		.4byte	0
 12317              	.LLST151:
 12318 15b5 32000000 		.4byte	.LVL277
 12319 15b9 43000000 		.4byte	.LVL280-1
 12320 15bd 0100     		.2byte	0x1
 12321 15bf 52       		.byte	0x52
 12322 15c0 00000000 		.4byte	0
 12323 15c4 00000000 		.4byte	0
 12324              	.LLST152:
 12325 15c8 00000000 		.4byte	.LVL287
 12326 15cc 0D000000 		.4byte	.LVL289-1
ARM GAS  C:\Users\rdn\AppData\Local\Temp\cc92LAgm.s 			page 246


 12327 15d0 0100     		.2byte	0x1
 12328 15d2 50       		.byte	0x50
 12329 15d3 0D000000 		.4byte	.LVL289-1
 12330 15d7 9E000000 		.4byte	.LVL310
 12331 15db 0100     		.2byte	0x1
 12332 15dd 56       		.byte	0x56
 12333 15de 9E000000 		.4byte	.LVL310
 12334 15e2 A1000000 		.4byte	.LVL311-1
 12335 15e6 0100     		.2byte	0x1
 12336 15e8 50       		.byte	0x50
 12337 15e9 A1000000 		.4byte	.LVL311-1
 12338 15ed A8000000 		.4byte	.LFE36
 12339 15f1 0400     		.2byte	0x4
 12340 15f3 F3       		.byte	0xf3
 12341 15f4 01       		.uleb128 0x1
 12342 15f5 50       		.byte	0x50
 12343 15f6 9F       		.byte	0x9f
 12344 15f7 00000000 		.4byte	0
 12345 15fb 00000000 		.4byte	0
 12346              	.LLST153:
 12347 15ff 00000000 		.4byte	.LVL287
 12348 1603 0A000000 		.4byte	.LVL288
 12349 1607 0100     		.2byte	0x1
 12350 1609 51       		.byte	0x51
 12351 160a 0A000000 		.4byte	.LVL288
 12352 160e 9E000000 		.4byte	.LVL310
 12353 1612 0100     		.2byte	0x1
 12354 1614 54       		.byte	0x54
 12355 1615 9E000000 		.4byte	.LVL310
 12356 1619 A8000000 		.4byte	.LFE36
 12357 161d 0400     		.2byte	0x4
 12358 161f F3       		.byte	0xf3
 12359 1620 01       		.uleb128 0x1
 12360 1621 51       		.byte	0x51
 12361 1622 9F       		.byte	0x9f
 12362 1623 00000000 		.4byte	0
 12363 1627 00000000 		.4byte	0
 12364              	.LLST154:
 12365 162b 1C000000 		.4byte	.LVL291
 12366 162f 38000000 		.4byte	.LVL295
 12367 1633 0100     		.2byte	0x1
 12368 1635 55       		.byte	0x55
 12369 1636 62000000 		.4byte	.LVL302
 12370 163a 70000000 		.4byte	.LVL304
 12371 163e 0100     		.2byte	0x1
 12372 1640 55       		.byte	0x55
 12373 1641 00000000 		.4byte	0
 12374 1645 00000000 		.4byte	0
 12375              	.LLST155:
 12376 1649 1C000000 		.4byte	.LVL291
 12377 164d 26000000 		.4byte	.LVL292
 12378 1651 0100     		.2byte	0x1
 12379 1653 55       		.byte	0x55
 12380 1654 00000000 		.4byte	0
 12381 1658 00000000 		.4byte	0
 12382              	.LLST156:
 12383 165c 1C000000 		.4byte	.LVL291
ARM GAS  C:\Users\rdn\AppData\Local\Temp\cc92LAgm.s 			page 247


 12384 1660 26000000 		.4byte	.LVL292
 12385 1664 0100     		.2byte	0x1
 12386 1666 56       		.byte	0x56
 12387 1667 00000000 		.4byte	0
 12388 166b 00000000 		.4byte	0
 12389              	.LLST157:
 12390 166f 2E000000 		.4byte	.LVL293
 12391 1673 62000000 		.4byte	.LVL302
 12392 1677 0600     		.2byte	0x6
 12393 1679 0C       		.byte	0xc
 12394 167a F4772400 		.4byte	0x2477f4
 12395 167e 9F       		.byte	0x9f
 12396 167f 00000000 		.4byte	0
 12397 1683 00000000 		.4byte	0
 12398              	.LLST158:
 12399 1687 2E000000 		.4byte	.LVL293
 12400 168b 32000000 		.4byte	.LVL294
 12401 168f 0500     		.2byte	0x5
 12402 1691 72       		.byte	0x72
 12403 1692 00       		.sleb128 0
 12404 1693 31       		.byte	0x31
 12405 1694 1A       		.byte	0x1a
 12406 1695 9F       		.byte	0x9f
 12407 1696 32000000 		.4byte	.LVL294
 12408 169a 50000000 		.4byte	.LVL299
 12409 169e 0100     		.2byte	0x1
 12410 16a0 50       		.byte	0x50
 12411 16a1 50000000 		.4byte	.LVL299
 12412 16a5 53000000 		.4byte	.LVL300-1
 12413 16a9 0600     		.2byte	0x6
 12414 16ab 74       		.byte	0x74
 12415 16ac 08       		.sleb128 8
 12416 16ad 06       		.byte	0x6
 12417 16ae 31       		.byte	0x31
 12418 16af 1A       		.byte	0x1a
 12419 16b0 9F       		.byte	0x9f
 12420 16b1 00000000 		.4byte	0
 12421 16b5 00000000 		.4byte	0
 12422              	.LLST159:
 12423 16b9 46000000 		.4byte	.LVL296
 12424 16bd 4E000000 		.4byte	.LVL298
 12425 16c1 0100     		.2byte	0x1
 12426 16c3 52       		.byte	0x52
 12427 16c4 00000000 		.4byte	0
 12428 16c8 00000000 		.4byte	0
 12429              	.LLST160:
 12430 16cc 4A000000 		.4byte	.LVL297
 12431 16d0 62000000 		.4byte	.LVL302
 12432 16d4 0100     		.2byte	0x1
 12433 16d6 55       		.byte	0x55
 12434 16d7 00000000 		.4byte	0
 12435 16db 00000000 		.4byte	0
 12436              	.LLST161:
 12437 16df 62000000 		.4byte	.LVL302
 12438 16e3 96000000 		.4byte	.LVL309
 12439 16e7 0600     		.2byte	0x6
 12440 16e9 0C       		.byte	0xc
ARM GAS  C:\Users\rdn\AppData\Local\Temp\cc92LAgm.s 			page 248


 12441 16ea 004CE700 		.4byte	0xe74c00
 12442 16ee 9F       		.byte	0x9f
 12443 16ef 00000000 		.4byte	0
 12444 16f3 00000000 		.4byte	0
 12445              	.LLST162:
 12446 16f7 62000000 		.4byte	.LVL302
 12447 16fb 66000000 		.4byte	.LVL303
 12448 16ff 0500     		.2byte	0x5
 12449 1701 72       		.byte	0x72
 12450 1702 00       		.sleb128 0
 12451 1703 31       		.byte	0x31
 12452 1704 1A       		.byte	0x1a
 12453 1705 9F       		.byte	0x9f
 12454 1706 66000000 		.4byte	.LVL303
 12455 170a 7E000000 		.4byte	.LVL305
 12456 170e 0100     		.2byte	0x1
 12457 1710 50       		.byte	0x50
 12458 1711 7E000000 		.4byte	.LVL305
 12459 1715 89000000 		.4byte	.LVL307-1
 12460 1719 0600     		.2byte	0x6
 12461 171b 74       		.byte	0x74
 12462 171c 08       		.sleb128 8
 12463 171d 06       		.byte	0x6
 12464 171e 31       		.byte	0x31
 12465 171f 1A       		.byte	0x1a
 12466 1720 9F       		.byte	0x9f
 12467 1721 00000000 		.4byte	0
 12468 1725 00000000 		.4byte	0
 12469              	.LLST163:
 12470 1729 86000000 		.4byte	.LVL306
 12471 172d 96000000 		.4byte	.LVL309
 12472 1731 0100     		.2byte	0x1
 12473 1733 55       		.byte	0x55
 12474 1734 00000000 		.4byte	0
 12475 1738 00000000 		.4byte	0
 12476              	.LLST164:
 12477 173c 00000000 		.4byte	.LVL312
 12478 1740 0B000000 		.4byte	.LVL314-1
 12479 1744 0100     		.2byte	0x1
 12480 1746 50       		.byte	0x50
 12481 1747 0B000000 		.4byte	.LVL314-1
 12482 174b F4000000 		.4byte	.LVL335
 12483 174f 0100     		.2byte	0x1
 12484 1751 56       		.byte	0x56
 12485 1752 F4000000 		.4byte	.LVL335
 12486 1756 04010000 		.4byte	.LFE37
 12487 175a 0400     		.2byte	0x4
 12488 175c F3       		.byte	0xf3
 12489 175d 01       		.uleb128 0x1
 12490 175e 50       		.byte	0x50
 12491 175f 9F       		.byte	0x9f
 12492 1760 00000000 		.4byte	0
 12493 1764 00000000 		.4byte	0
 12494              	.LLST165:
 12495 1768 00000000 		.4byte	.LVL312
 12496 176c 06000000 		.4byte	.LVL313
 12497 1770 0100     		.2byte	0x1
ARM GAS  C:\Users\rdn\AppData\Local\Temp\cc92LAgm.s 			page 249


 12498 1772 51       		.byte	0x51
 12499 1773 06000000 		.4byte	.LVL313
 12500 1777 F4000000 		.4byte	.LVL335
 12501 177b 0100     		.2byte	0x1
 12502 177d 54       		.byte	0x54
 12503 177e F4000000 		.4byte	.LVL335
 12504 1782 04010000 		.4byte	.LFE37
 12505 1786 0400     		.2byte	0x4
 12506 1788 F3       		.byte	0xf3
 12507 1789 01       		.uleb128 0x1
 12508 178a 51       		.byte	0x51
 12509 178b 9F       		.byte	0x9f
 12510 178c 00000000 		.4byte	0
 12511 1790 00000000 		.4byte	0
 12512              	.LLST166:
 12513 1794 54000000 		.4byte	.LVL323
 12514 1798 68000000 		.4byte	.LVL325
 12515 179c 0100     		.2byte	0x1
 12516 179e 50       		.byte	0x50
 12517 179f 70000000 		.4byte	.LVL326
 12518 17a3 76000000 		.4byte	.LVL327
 12519 17a7 0100     		.2byte	0x1
 12520 17a9 52       		.byte	0x52
 12521 17aa 76000000 		.4byte	.LVL327
 12522 17ae 7C000000 		.4byte	.LVL328
 12523 17b2 0300     		.2byte	0x3
 12524 17b4 72       		.byte	0x72
 12525 17b5 02       		.sleb128 2
 12526 17b6 9F       		.byte	0x9f
 12527 17b7 82000000 		.4byte	.LVL329
 12528 17bb 9E000000 		.4byte	.LVL330
 12529 17bf 0100     		.2byte	0x1
 12530 17c1 52       		.byte	0x52
 12531 17c2 9E000000 		.4byte	.LVL330
 12532 17c6 C2000000 		.4byte	.LVL331
 12533 17ca 0100     		.2byte	0x1
 12534 17cc 50       		.byte	0x50
 12535 17cd C2000000 		.4byte	.LVL331
 12536 17d1 C6000000 		.4byte	.LVL332
 12537 17d5 0600     		.2byte	0x6
 12538 17d7 70       		.byte	0x70
 12539 17d8 80809C07 		.sleb128 15138816
 12540 17dc 9F       		.byte	0x9f
 12541 17dd C6000000 		.4byte	.LVL332
 12542 17e1 F0000000 		.4byte	.LVL334
 12543 17e5 0100     		.2byte	0x1
 12544 17e7 50       		.byte	0x50
 12545 17e8 00000000 		.4byte	0
 12546 17ec 00000000 		.4byte	0
 12547              	.LLST167:
 12548 17f0 24000000 		.4byte	.LVL317
 12549 17f4 30000000 		.4byte	.LVL319
 12550 17f8 0100     		.2byte	0x1
 12551 17fa 56       		.byte	0x56
 12552 17fb 00000000 		.4byte	0
 12553 17ff 00000000 		.4byte	0
 12554              	.LLST168:
ARM GAS  C:\Users\rdn\AppData\Local\Temp\cc92LAgm.s 			page 250


 12555 1803 3C000000 		.4byte	.LVL321
 12556 1807 42000000 		.4byte	.LVL322
 12557 180b 0100     		.2byte	0x1
 12558 180d 56       		.byte	0x56
 12559 180e 00000000 		.4byte	0
 12560 1812 00000000 		.4byte	0
 12561              	.LLST169:
 12562 1816 56000000 		.4byte	.LVL324
 12563 181a 9E000000 		.4byte	.LVL330
 12564 181e 0600     		.2byte	0x6
 12565 1820 0C       		.byte	0xc
 12566 1821 F4772400 		.4byte	0x2477f4
 12567 1825 9F       		.byte	0x9f
 12568 1826 00000000 		.4byte	0
 12569 182a 00000000 		.4byte	0
 12570              	.LLST170:
 12571 182e 9E000000 		.4byte	.LVL330
 12572 1832 EC000000 		.4byte	.LVL333
 12573 1836 0600     		.2byte	0x6
 12574 1838 0C       		.byte	0xc
 12575 1839 004CE700 		.4byte	0xe74c00
 12576 183d 9F       		.byte	0x9f
 12577 183e 00000000 		.4byte	0
 12578 1842 00000000 		.4byte	0
 12579              		.section	.debug_aranges,"",%progbits
 12580 0000 7C000000 		.4byte	0x7c
 12581 0004 0200     		.2byte	0x2
 12582 0006 00000000 		.4byte	.Ldebug_info0
 12583 000a 04       		.byte	0x4
 12584 000b 00       		.byte	0
 12585 000c 0000     		.2byte	0
 12586 000e 0000     		.2byte	0
 12587 0010 00000000 		.4byte	.LFB25
 12588 0014 D0000000 		.4byte	.LFE25-.LFB25
 12589 0018 00000000 		.4byte	.LFB27
 12590 001c A0000000 		.4byte	.LFE27-.LFB27
 12591 0020 00000000 		.4byte	.LFB28
 12592 0024 80000000 		.4byte	.LFE28-.LFB28
 12593 0028 00000000 		.4byte	.LFB29
 12594 002c 74000000 		.4byte	.LFE29-.LFB29
 12595 0030 00000000 		.4byte	.LFB24
 12596 0034 54000000 		.4byte	.LFE24-.LFB24
 12597 0038 00000000 		.4byte	.LFB32
 12598 003c 30020000 		.4byte	.LFE32-.LFB32
 12599 0040 00000000 		.4byte	.LFB8
 12600 0044 20000000 		.4byte	.LFE8-.LFB8
 12601 0048 00000000 		.4byte	.LFB10
 12602 004c 26000000 		.4byte	.LFE10-.LFB10
 12603 0050 00000000 		.4byte	.LFB33
 12604 0054 16080000 		.4byte	.LFE33-.LFB33
 12605 0058 00000000 		.4byte	.LFB34
 12606 005c A0000000 		.4byte	.LFE34-.LFB34
 12607 0060 00000000 		.4byte	.LFB35
 12608 0064 04000000 		.4byte	.LFE35-.LFB35
 12609 0068 00000000 		.4byte	.LFB36
 12610 006c A8000000 		.4byte	.LFE36-.LFB36
 12611 0070 00000000 		.4byte	.LFB37
ARM GAS  C:\Users\rdn\AppData\Local\Temp\cc92LAgm.s 			page 251


 12612 0074 04010000 		.4byte	.LFE37-.LFB37
 12613 0078 00000000 		.4byte	0
 12614 007c 00000000 		.4byte	0
 12615              		.section	.debug_ranges,"",%progbits
 12616              	.Ldebug_ranges0:
 12617 0000 04000000 		.4byte	.LBB14
 12618 0004 08000000 		.4byte	.LBE14
 12619 0008 10000000 		.4byte	.LBB21
 12620 000c CC000000 		.4byte	.LBE21
 12621 0010 00000000 		.4byte	0
 12622 0014 00000000 		.4byte	0
 12623 0018 04000000 		.4byte	.LBB15
 12624 001c 08000000 		.4byte	.LBE15
 12625 0020 16000000 		.4byte	.LBB19
 12626 0024 C0000000 		.4byte	.LBE19
 12627 0028 C2000000 		.4byte	.LBB20
 12628 002c CC000000 		.4byte	.LBE20
 12629 0030 00000000 		.4byte	0
 12630 0034 00000000 		.4byte	0
 12631 0038 40000000 		.4byte	.LBB16
 12632 003c 44000000 		.4byte	.LBE16
 12633 0040 46000000 		.4byte	.LBB18
 12634 0044 92000000 		.4byte	.LBE18
 12635 0048 00000000 		.4byte	0
 12636 004c 00000000 		.4byte	0
 12637 0050 56010000 		.4byte	.LBB45
 12638 0054 70010000 		.4byte	.LBE45
 12639 0058 74010000 		.4byte	.LBB52
 12640 005c 78010000 		.4byte	.LBE52
 12641 0060 7C010000 		.4byte	.LBB53
 12642 0064 04020000 		.4byte	.LBE53
 12643 0068 00000000 		.4byte	0
 12644 006c 00000000 		.4byte	0
 12645 0070 56010000 		.4byte	.LBB46
 12646 0074 70010000 		.4byte	.LBE46
 12647 0078 74010000 		.4byte	.LBB50
 12648 007c 78010000 		.4byte	.LBE50
 12649 0080 82010000 		.4byte	.LBB51
 12650 0084 EA010000 		.4byte	.LBE51
 12651 0088 00000000 		.4byte	0
 12652 008c 00000000 		.4byte	0
 12653 0090 06000000 		.4byte	.LBB93
 12654 0094 0C000000 		.4byte	.LBE93
 12655 0098 12000000 		.4byte	.LBB113
 12656 009c 18000000 		.4byte	.LBE113
 12657 00a0 1C000000 		.4byte	.LBB114
 12658 00a4 1E000000 		.4byte	.LBE114
 12659 00a8 26000000 		.4byte	.LBB115
 12660 00ac 0E040000 		.4byte	.LBE115
 12661 00b0 06080000 		.4byte	.LBB153
 12662 00b4 16080000 		.4byte	.LBE153
 12663 00b8 00000000 		.4byte	0
 12664 00bc 00000000 		.4byte	0
 12665 00c0 56010000 		.4byte	.LBB98
 12666 00c4 6A010000 		.4byte	.LBE98
 12667 00c8 8E010000 		.4byte	.LBB103
 12668 00cc EE010000 		.4byte	.LBE103
ARM GAS  C:\Users\rdn\AppData\Local\Temp\cc92LAgm.s 			page 252


 12669 00d0 00000000 		.4byte	0
 12670 00d4 00000000 		.4byte	0
 12671 00d8 48030000 		.4byte	.LBB106
 12672 00dc 4C030000 		.4byte	.LBE106
 12673 00e0 64030000 		.4byte	.LBB107
 12674 00e4 CC030000 		.4byte	.LBE107
 12675 00e8 00000000 		.4byte	0
 12676 00ec 00000000 		.4byte	0
 12677 00f0 26040000 		.4byte	.LBB119
 12678 00f4 3A040000 		.4byte	.LBE119
 12679 00f8 3C040000 		.4byte	.LBB122
 12680 00fc 98040000 		.4byte	.LBE122
 12681 0100 00000000 		.4byte	0
 12682 0104 00000000 		.4byte	0
 12683 0108 40040000 		.4byte	.LBB120
 12684 010c 68040000 		.4byte	.LBE120
 12685 0110 8E040000 		.4byte	.LBB121
 12686 0114 94040000 		.4byte	.LBE121
 12687 0118 00000000 		.4byte	0
 12688 011c 00000000 		.4byte	0
 12689 0120 B4040000 		.4byte	.LBB125
 12690 0124 DC040000 		.4byte	.LBE125
 12691 0128 DE040000 		.4byte	.LBB129
 12692 012c E8040000 		.4byte	.LBE129
 12693 0130 00000000 		.4byte	0
 12694 0134 00000000 		.4byte	0
 12695 0138 DC040000 		.4byte	.LBB126
 12696 013c DE040000 		.4byte	.LBE126
 12697 0140 E8040000 		.4byte	.LBB130
 12698 0144 18050000 		.4byte	.LBE130
 12699 0148 00000000 		.4byte	0
 12700 014c 00000000 		.4byte	0
 12701 0150 F6060000 		.4byte	.LBB137
 12702 0154 F8060000 		.4byte	.LBE137
 12703 0158 04070000 		.4byte	.LBB148
 12704 015c 9C070000 		.4byte	.LBE148
 12705 0160 00000000 		.4byte	0
 12706 0164 00000000 		.4byte	0
 12707 0168 F6060000 		.4byte	.LBB138
 12708 016c F8060000 		.4byte	.LBE138
 12709 0170 04070000 		.4byte	.LBB146
 12710 0174 88070000 		.4byte	.LBE146
 12711 0178 8C070000 		.4byte	.LBB147
 12712 017c 94070000 		.4byte	.LBE147
 12713 0180 00000000 		.4byte	0
 12714 0184 00000000 		.4byte	0
 12715 0188 F6060000 		.4byte	.LBB139
 12716 018c F8060000 		.4byte	.LBE139
 12717 0190 04070000 		.4byte	.LBB143
 12718 0194 0A070000 		.4byte	.LBE143
 12719 0198 0E070000 		.4byte	.LBB144
 12720 019c 12070000 		.4byte	.LBE144
 12721 01a0 14070000 		.4byte	.LBB145
 12722 01a4 7C070000 		.4byte	.LBE145
 12723 01a8 00000000 		.4byte	0
 12724 01ac 00000000 		.4byte	0
 12725 01b0 2E070000 		.4byte	.LBB141
ARM GAS  C:\Users\rdn\AppData\Local\Temp\cc92LAgm.s 			page 253


 12726 01b4 46070000 		.4byte	.LBE141
 12727 01b8 52070000 		.4byte	.LBB142
 12728 01bc 56070000 		.4byte	.LBE142
 12729 01c0 00000000 		.4byte	0
 12730 01c4 00000000 		.4byte	0
 12731 01c8 B8070000 		.4byte	.LBB149
 12732 01cc BA070000 		.4byte	.LBE149
 12733 01d0 BE070000 		.4byte	.LBB152
 12734 01d4 E6070000 		.4byte	.LBE152
 12735 01d8 00000000 		.4byte	0
 12736 01dc 00000000 		.4byte	0
 12737 01e0 06000000 		.4byte	.LBB156
 12738 01e4 08000000 		.4byte	.LBE156
 12739 01e8 1C000000 		.4byte	.LBB160
 12740 01ec 1E000000 		.4byte	.LBE160
 12741 01f0 20000000 		.4byte	.LBB161
 12742 01f4 66000000 		.4byte	.LBE161
 12743 01f8 00000000 		.4byte	0
 12744 01fc 00000000 		.4byte	0
 12745 0200 62000000 		.4byte	.LBB169
 12746 0204 9A000000 		.4byte	.LBE169
 12747 0208 9E000000 		.4byte	.LBB170
 12748 020c A8000000 		.4byte	.LBE170
 12749 0210 00000000 		.4byte	0
 12750 0214 00000000 		.4byte	0
 12751 0218 24000000 		.4byte	.LBB177
 12752 021c 26000000 		.4byte	.LBE177
 12753 0220 28000000 		.4byte	.LBB180
 12754 0224 30000000 		.4byte	.LBE180
 12755 0228 00000000 		.4byte	0
 12756 022c 00000000 		.4byte	0
 12757 0230 38000000 		.4byte	.LBB181
 12758 0234 3A000000 		.4byte	.LBE181
 12759 0238 3C000000 		.4byte	.LBB184
 12760 023c 42000000 		.4byte	.LBE184
 12761 0240 00000000 		.4byte	0
 12762 0244 00000000 		.4byte	0
 12763 0248 56000000 		.4byte	.LBB185
 12764 024c 9E000000 		.4byte	.LBE185
 12765 0250 EC000000 		.4byte	.LBB187
 12766 0254 F0000000 		.4byte	.LBE187
 12767 0258 00000000 		.4byte	0
 12768 025c 00000000 		.4byte	0
 12769 0260 00000000 		.4byte	.LFB25
 12770 0264 D0000000 		.4byte	.LFE25
 12771 0268 00000000 		.4byte	.LFB27
 12772 026c A0000000 		.4byte	.LFE27
 12773 0270 00000000 		.4byte	.LFB28
 12774 0274 80000000 		.4byte	.LFE28
 12775 0278 00000000 		.4byte	.LFB29
 12776 027c 74000000 		.4byte	.LFE29
 12777 0280 00000000 		.4byte	.LFB24
 12778 0284 54000000 		.4byte	.LFE24
 12779 0288 00000000 		.4byte	.LFB32
 12780 028c 30020000 		.4byte	.LFE32
 12781 0290 00000000 		.4byte	.LFB8
 12782 0294 20000000 		.4byte	.LFE8
ARM GAS  C:\Users\rdn\AppData\Local\Temp\cc92LAgm.s 			page 254


 12783 0298 00000000 		.4byte	.LFB10
 12784 029c 26000000 		.4byte	.LFE10
 12785 02a0 00000000 		.4byte	.LFB33
 12786 02a4 16080000 		.4byte	.LFE33
 12787 02a8 00000000 		.4byte	.LFB34
 12788 02ac A0000000 		.4byte	.LFE34
 12789 02b0 00000000 		.4byte	.LFB35
 12790 02b4 04000000 		.4byte	.LFE35
 12791 02b8 00000000 		.4byte	.LFB36
 12792 02bc A8000000 		.4byte	.LFE36
 12793 02c0 00000000 		.4byte	.LFB37
 12794 02c4 04010000 		.4byte	.LFE37
 12795 02c8 00000000 		.4byte	0
 12796 02cc 00000000 		.4byte	0
 12797              		.section	.debug_line,"",%progbits
 12798              	.Ldebug_line0:
 12799 0000 13070000 		.section	.debug_str,"MS",%progbits,1
 12799      02000602 
 12799      00000201 
 12799      FB0E0D00 
 12799      01010101 
 12800              	.LASF123:
 12801 0000 6E70756C 		.ascii	"npulses_a\000"
 12801      7365735F 
 12801      6100
 12802              	.LASF25:
 12803 000a 4C43335F 		.ascii	"LC3_SRATE_24K\000"
 12803      53524154 
 12803      455F3234 
 12803      4B00
 12804              	.LASF76:
 12805 0018 68666362 		.ascii	"hfcb_idx\000"
 12805      5F696478 
 12805      00
 12806              	.LASF47:
 12807 0021 6C63335F 		.ascii	"lc3_bits_buffer\000"
 12807      62697473 
 12807      5F627566 
 12807      66657200 
 12808              	.LASF54:
 12809 0031 62756666 		.ascii	"buffer\000"
 12809      657200
 12810              	.LASF136:
 12811 0038 6C63335F 		.ascii	"lc3_ne_2m5\000"
 12811      6E655F32 
 12811      6D3500
 12812              	.LASF12:
 12813 0043 756E7369 		.ascii	"unsigned int\000"
 12813      676E6564 
 12813      20696E74 
 12813      00
 12814              	.LASF27:
 12815 0050 4C43335F 		.ascii	"LC3_SRATE_48K\000"
 12815      53524154 
 12815      455F3438 
 12815      4B00
 12816              	.LASF101:
ARM GAS  C:\Users\rdn\AppData\Local\Temp\cc92LAgm.s 			page 255


 12817 005e 7265736F 		.ascii	"resolve_codebooks\000"
 12817      6C76655F 
 12817      636F6465 
 12817      626F6F6B 
 12817      7300
 12818              	.LASF66:
 12819 0070 6C63335F 		.ascii	"lc3_sns_vq_gains\000"
 12819      736E735F 
 12819      76715F67 
 12819      61696E73 
 12819      00
 12820              	.LASF45:
 12821 0081 63617272 		.ascii	"carry_count\000"
 12821      795F636F 
 12821      756E7400 
 12822              	.LASF6:
 12823 008d 5F5F696E 		.ascii	"__int32_t\000"
 12823      7433325F 
 12823      7400
 12824              	.LASF119:
 12825 0097 6C63335F 		.ascii	"lc3_frexpf\000"
 12825      66726578 
 12825      706600
 12826              	.LASF155:
 12827 00a2 6C63335F 		.ascii	"lc3_get_bits\000"
 12827      6765745F 
 12827      62697473 
 12827      00
 12828              	.LASF102:
 12829 00af 646C6663 		.ascii	"dlfcb_max\000"
 12829      625F6D61 
 12829      7800
 12830              	.LASF46:
 12831 00b9 6572726F 		.ascii	"error\000"
 12831      7200
 12832              	.LASF52:
 12833 00bf 6D6F6465 		.ascii	"mode\000"
 12833      00
 12834              	.LASF21:
 12835 00c4 6C63335F 		.ascii	"lc3_dt\000"
 12835      647400
 12836              	.LASF105:
 12837 00cb 64686663 		.ascii	"dhfcb\000"
 12837      6200
 12838              	.LASF28:
 12839 00d1 4C43335F 		.ascii	"LC3_SRATE_48K_HR\000"
 12839      53524154 
 12839      455F3438 
 12839      4B5F4852 
 12839      00
 12840              	.LASF157:
 12841 00e2 6C63335F 		.ascii	"lc3_sns_get_data\000"
 12841      736E735F 
 12841      6765745F 
 12841      64617461 
 12841      00
 12842              	.LASF137:
ARM GAS  C:\Users\rdn\AppData\Local\Temp\cc92LAgm.s 			page 256


 12843 00f3 6C63335F 		.ascii	"lc3_ns_4m\000"
 12843      6E735F34 
 12843      6D00
 12844              	.LASF36:
 12845 00fd 6C63335F 		.ascii	"lc3_bits_mode\000"
 12845      62697473 
 12845      5F6D6F64 
 12845      6500
 12846              	.LASF128:
 12847 010b 73686170 		.ascii	"shape_msb\000"
 12847      655F6D73 
 12847      6200
 12848              	.LASF135:
 12849 0115 6C63335F 		.ascii	"lc3_ns_2m5\000"
 12849      6E735F32 
 12849      6D3500
 12850              	.LASF96:
 12851 0120 70726F6A 		.ascii	"proj_factor\000"
 12851      5F666163 
 12851      746F7200 
 12852              	.LASF153:
 12853 012c 2E2E5C2E 		.ascii	"..\\..\\..\\liblc3\\src\\sns.c\000"
 12853      2E5C2E2E 
 12853      5C6C6962 
 12853      6C63335C 
 12853      7372635C 
 12854              	.LASF17:
 12855 0146 4C43335F 		.ascii	"LC3_DT_5M\000"
 12855      44545F35 
 12855      4D00
 12856              	.LASF15:
 12857 0150 75696E74 		.ascii	"uint32_t\000"
 12857      33325F74 
 12857      00
 12858              	.LASF120:
 12859 0159 64637431 		.ascii	"dct16_forward\000"
 12859      365F666F 
 12859      72776172 
 12859      6400
 12860              	.LASF0:
 12861 0167 666C6F61 		.ascii	"float\000"
 12861      7400
 12862              	.LASF145:
 12863 016d 6D656D6D 		.ascii	"memmove\000"
 12863      6F766500 
 12864              	.LASF117:
 12865 0175 7363665F 		.ascii	"scf_sum\000"
 12865      73756D00 
 12866              	.LASF81:
 12867 017d 63325F73 		.ascii	"c2_sum\000"
 12867      756D00
 12868              	.LASF67:
 12869 0184 636F756E 		.ascii	"count\000"
 12869      7400
 12870              	.LASF44:
 12871 018a 63617272 		.ascii	"carry\000"
 12871      7900
ARM GAS  C:\Users\rdn\AppData\Local\Temp\cc92LAgm.s 			page 257


 12872              	.LASF77:
 12873 0190 656E756D 		.ascii	"enum_mvpq\000"
 12873      5F6D7670 
 12873      7100
 12874              	.LASF11:
 12875 019a 6C6F6E67 		.ascii	"long long unsigned int\000"
 12875      206C6F6E 
 12875      6720756E 
 12875      7369676E 
 12875      65642069 
 12876              	.LASF149:
 12877 01b1 666C6F6F 		.ascii	"floorf\000"
 12877      726600
 12878              	.LASF114:
 12879 01b8 67655F74 		.ascii	"ge_table\000"
 12879      61626C65 
 12879      00
 12880              	.LASF100:
 12881 01c1 63676169 		.ascii	"cgain_idx\000"
 12881      6E5F6964 
 12881      7800
 12882              	.LASF108:
 12883 01cb 67655F31 		.ascii	"ge_14\000"
 12883      3400
 12884              	.LASF109:
 12885 01d1 67655F31 		.ascii	"ge_18\000"
 12885      3800
 12886              	.LASF126:
 12887 01d7 6C63335F 		.ascii	"lc3_put_bit\000"
 12887      7075745F 
 12887      62697400 
 12888              	.LASF85:
 12889 01e3 73706563 		.ascii	"spectral_shaping\000"
 12889      7472616C 
 12889      5F736861 
 12889      70696E67 
 12889      00
 12890              	.LASF71:
 12891 01f4 62657374 		.ascii	"best_e\000"
 12891      5F6500
 12892              	.LASF26:
 12893 01fb 4C43335F 		.ascii	"LC3_SRATE_32K\000"
 12893      53524154 
 12893      455F3332 
 12893      4B00
 12894              	.LASF141:
 12895 0209 6C63335F 		.ascii	"lc3_sns_lfcb\000"
 12895      736E735F 
 12895      6C666362 
 12895      00
 12896              	.LASF20:
 12897 0216 4C43335F 		.ascii	"LC3_NUM_DT\000"
 12897      4E554D5F 
 12897      445400
 12898              	.LASF129:
 12899 0221 73697A65 		.ascii	"size_a\000"
 12899      5F6100
ARM GAS  C:\Users\rdn\AppData\Local\Temp\cc92LAgm.s 			page 258


 12900              	.LASF68:
 12901 0228 636F7272 		.ascii	"corr\000"
 12901      00
 12902              	.LASF88:
 12903 022d 6C63335F 		.ascii	"lc3_put_bits\000"
 12903      7075745F 
 12903      62697473 
 12903      00
 12904              	.LASF70:
 12905 023a 62657374 		.ascii	"best_c2\000"
 12905      5F633200 
 12906              	.LASF95:
 12907 0242 786D5F73 		.ascii	"xm_sum\000"
 12907      756D00
 12908              	.LASF110:
 12909 0249 67655F32 		.ascii	"ge_22\000"
 12909      3200
 12910              	.LASF147:
 12911 024f 6C63335F 		.ascii	"lc3_get_bits_generic\000"
 12911      6765745F 
 12911      62697473 
 12911      5F67656E 
 12911      65726963 
 12912              	.LASF111:
 12913 0264 67655F32 		.ascii	"ge_26\000"
 12913      3600
 12914              	.LASF31:
 12915 026a 5F426F6F 		.ascii	"_Bool\000"
 12915      6C00
 12916              	.LASF73:
 12917 0270 6164645F 		.ascii	"add_pulse\000"
 12917      70756C73 
 12917      6500
 12918              	.LASF140:
 12919 027a 6C63335F 		.ascii	"lc3_band_lim\000"
 12919      62616E64 
 12919      5F6C696D 
 12919      00
 12920              	.LASF55:
 12921 0287 6C63335F 		.ascii	"lc3_bits_t\000"
 12921      62697473 
 12921      5F7400
 12922              	.LASF131:
 12923 0292 6D75785F 		.ascii	"mux_high\000"
 12923      68696768 
 12923      00
 12924              	.LASF122:
 12925 029b 6465656E 		.ascii	"deenumerate\000"
 12925      756D6572 
 12925      61746500 
 12926              	.LASF124:
 12927 02a7 6C63335F 		.ascii	"lc3_sns_analyze\000"
 12927      736E735F 
 12927      616E616C 
 12927      797A6500 
 12928              	.LASF112:
 12929 02b7 67655F33 		.ascii	"ge_30\000"
ARM GAS  C:\Users\rdn\AppData\Local\Temp\cc92LAgm.s 			page 259


 12929      3000
 12930              	.LASF19:
 12931 02bd 4C43335F 		.ascii	"LC3_DT_10M\000"
 12931      44545F31 
 12931      304D00
 12932              	.LASF113:
 12933 02c8 67655F33 		.ascii	"ge_34\000"
 12933      3400
 12934              	.LASF82:
 12935 02ce 635F6E6F 		.ascii	"c_norm\000"
 12935      726D00
 12936              	.LASF83:
 12937 02d5 6C63335F 		.ascii	"lc3_hr\000"
 12937      687200
 12938              	.LASF53:
 12939 02dc 61636375 		.ascii	"accu\000"
 12939      00
 12940              	.LASF34:
 12941 02e1 63686172 		.ascii	"char\000"
 12941      00
 12942              	.LASF40:
 12943 02e6 6C63335F 		.ascii	"lc3_bits_accu\000"
 12943      62697473 
 12943      5F616363 
 12943      7500
 12944              	.LASF75:
 12945 02f4 6C666362 		.ascii	"lfcb_idx\000"
 12945      5F696478 
 12945      00
 12946              	.LASF121:
 12947 02fd 64617461 		.ascii	"data\000"
 12947      00
 12948              	.LASF154:
 12949 0302 433A5C55 		.ascii	"C:\\Users\\rdn\\Documents\\PSoC Creator\\SEES\\ble_"
 12949      73657273 
 12949      5C72646E 
 12949      5C446F63 
 12949      756D656E 
 12950 032f 74657374 		.ascii	"test.cydsn\000"
 12950      2E637964 
 12950      736E00
 12951              	.LASF39:
 12952 033a 6E6F7665 		.ascii	"nover\000"
 12952      7200
 12953              	.LASF125:
 12954 0340 6C63335F 		.ascii	"lc3_sns_synthesize\000"
 12954      736E735F 
 12954      73796E74 
 12954      68657369 
 12954      7A6500
 12955              	.LASF156:
 12956 0353 6C63335F 		.ascii	"lc3_sns_get_nbits\000"
 12956      736E735F 
 12956      6765745F 
 12956      6E626974 
 12956      7300
 12957              	.LASF13:
ARM GAS  C:\Users\rdn\AppData\Local\Temp\cc92LAgm.s 			page 260


 12958 0365 75696E74 		.ascii	"uint8_t\000"
 12958      385F7400 
 12959              	.LASF104:
 12960 036d 646C6663 		.ascii	"dlfcb\000"
 12960      6200
 12961              	.LASF60:
 12962 0373 6761696E 		.ascii	"gain\000"
 12962      00
 12963              	.LASF50:
 12964 0378 705F6277 		.ascii	"p_bw\000"
 12964      00
 12965              	.LASF98:
 12966 037d 63676169 		.ascii	"cgains\000"
 12966      6E7300
 12967              	.LASF89:
 12968 0384 62697473 		.ascii	"bits\000"
 12968      00
 12969              	.LASF10:
 12970 0389 6C6F6E67 		.ascii	"long long int\000"
 12970      206C6F6E 
 12970      6720696E 
 12970      7400
 12971              	.LASF79:
 12972 0397 6E70756C 		.ascii	"npulses\000"
 12972      73657300 
 12973              	.LASF133:
 12974 039f 6C63335F 		.ascii	"lc3_get_bit\000"
 12974      6765745F 
 12974      62697400 
 12975              	.LASF151:
 12976 03ab 6D656D73 		.ascii	"memset\000"
 12976      657400
 12977              	.LASF107:
 12978 03b2 6E627974 		.ascii	"nbytes\000"
 12978      657300
 12979              	.LASF90:
 12980 03b9 64637431 		.ascii	"dct16_inverse\000"
 12980      365F696E 
 12980      76657273 
 12980      6500
 12981              	.LASF42:
 12982 03c7 72616E67 		.ascii	"range\000"
 12982      6500
 12983              	.LASF146:
 12984 03cd 6C63335F 		.ascii	"lc3_put_bits_generic\000"
 12984      7075745F 
 12984      62697473 
 12984      5F67656E 
 12984      65726963 
 12985              	.LASF118:
 12986 03e2 6C63335F 		.ascii	"lc3_log2f\000"
 12986      6C6F6732 
 12986      6600
 12987              	.LASF127:
 12988 03ec 6C63335F 		.ascii	"lc3_sns_put_data\000"
 12988      736E735F 
 12988      7075745F 
ARM GAS  C:\Users\rdn\AppData\Local\Temp\cc92LAgm.s 			page 261


 12988      64617461 
 12988      00
 12989              	.LASF43:
 12990 03fd 63616368 		.ascii	"cache\000"
 12990      6500
 12991              	.LASF51:
 12992 0403 6C63335F 		.ascii	"lc3_bits\000"
 12992      62697473 
 12992      00
 12993              	.LASF58:
 12994 040c 68666362 		.ascii	"hfcb\000"
 12994      00
 12995              	.LASF33:
 12996 0411 6C6F6E67 		.ascii	"long double\000"
 12996      20646F75 
 12996      626C6500 
 12997              	.LASF93:
 12998 041d 73686170 		.ascii	"shape_idx\000"
 12998      655F6964 
 12998      7800
 12999              	.LASF69:
 13000 0427 656E6572 		.ascii	"energy\000"
 13000      677900
 13001              	.LASF30:
 13002 042e 4C43335F 		.ascii	"LC3_NUM_SRATE\000"
 13002      4E554D5F 
 13002      53524154 
 13002      4500
 13003              	.LASF106:
 13004 043c 636F6D70 		.ascii	"compute_scale_factors\000"
 13004      7574655F 
 13004      7363616C 
 13004      655F6661 
 13004      63746F72 
 13005              	.LASF78:
 13006 0452 6465656E 		.ascii	"deenum_mvpq\000"
 13006      756D5F6D 
 13006      76707100 
 13007              	.LASF18:
 13008 045e 4C43335F 		.ascii	"LC3_DT_7M5\000"
 13008      44545F37 
 13008      4D3500
 13009              	.LASF132:
 13010 0469 6D75785F 		.ascii	"mux_code\000"
 13010      636F6465 
 13010      00
 13011              	.LASF99:
 13012 0472 636D7365 		.ascii	"cmse_min\000"
 13012      5F6D696E 
 13012      00
 13013              	.LASF3:
 13014 047b 73686F72 		.ascii	"short int\000"
 13014      7420696E 
 13014      7400
 13015              	.LASF16:
 13016 0485 4C43335F 		.ascii	"LC3_DT_2M5\000"
 13016      44545F32 
ARM GAS  C:\Users\rdn\AppData\Local\Temp\cc92LAgm.s 			page 262


 13016      4D3500
 13017              	.LASF139:
 13018 0490 6C63335F 		.ascii	"lc3_num_bands\000"
 13018      6E756D5F 
 13018      62616E64 
 13018      7300
 13019              	.LASF86:
 13020 049e 7363665F 		.ascii	"scf_q\000"
 13020      7100
 13021              	.LASF7:
 13022 04a4 6C6F6E67 		.ascii	"long int\000"
 13022      20696E74 
 13022      00
 13023              	.LASF59:
 13024 04ad 73686170 		.ascii	"shape\000"
 13024      6500
 13025              	.LASF103:
 13026 04b3 64686663 		.ascii	"dhfcb_max\000"
 13026      625F6D61 
 13026      7800
 13027              	.LASF97:
 13028 04bd 6D73655F 		.ascii	"mse_min\000"
 13028      6D696E00 
 13029              	.LASF80:
 13030 04c5 6E6F726D 		.ascii	"normalize\000"
 13030      616C697A 
 13030      6500
 13031              	.LASF152:
 13032 04cf 474E5520 		.ascii	"GNU C11 5.4.1 20160609 (release) [ARM/embedded-5-br"
 13032      43313120 
 13032      352E342E 
 13032      31203230 
 13032      31363036 
 13033 0502 616E6368 		.ascii	"anch revision 237715] -mcpu=cortex-m4 -mfloat-abi=s"
 13033      20726576 
 13033      6973696F 
 13033      6E203233 
 13033      37373135 
 13034 0535 6F667466 		.ascii	"oftfp -mfpu=fpv4-sp-d16 -mthumb -g -Os -ffunction-s"
 13034      70202D6D 
 13034      6670753D 
 13034      66707634 
 13034      2D73702D 
 13035 0568 65637469 		.ascii	"ections -ffat-lto-objects\000"
 13035      6F6E7320 
 13035      2D666661 
 13035      742D6C74 
 13035      6F2D6F62 
 13036              	.LASF94:
 13037 0582 6761696E 		.ascii	"gain_idx\000"
 13037      5F696478 
 13037      00
 13038              	.LASF148:
 13039 058b 666D6178 		.ascii	"fmaxf\000"
 13039      6600
 13040              	.LASF38:
 13041 0591 4C43335F 		.ascii	"LC3_BITS_MODE_WRITE\000"
ARM GAS  C:\Users\rdn\AppData\Local\Temp\cc92LAgm.s 			page 263


 13041      42495453 
 13041      5F4D4F44 
 13041      455F5752 
 13041      49544500 
 13042              	.LASF5:
 13043 05a5 5F5F7569 		.ascii	"__uint8_t\000"
 13043      6E74385F 
 13043      7400
 13044              	.LASF92:
 13045 05af 7175616E 		.ascii	"quantize\000"
 13045      74697A65 
 13045      00
 13046              	.LASF48:
 13047 05b8 73746172 		.ascii	"start\000"
 13047      7400
 13048              	.LASF24:
 13049 05be 4C43335F 		.ascii	"LC3_SRATE_16K\000"
 13049      53524154 
 13049      455F3136 
 13049      4B00
 13050              	.LASF32:
 13051 05cc 73697A65 		.ascii	"sizetype\000"
 13051      74797065 
 13051      00
 13052              	.LASF9:
 13053 05d5 6C6F6E67 		.ascii	"long unsigned int\000"
 13053      20756E73 
 13053      69676E65 
 13053      6420696E 
 13053      7400
 13054              	.LASF84:
 13055 05e7 6C63335F 		.ascii	"lc3_exp2f\000"
 13055      65787032 
 13055      6600
 13056              	.LASF14:
 13057 05f1 696E7433 		.ascii	"int32_t\000"
 13057      325F7400 
 13058              	.LASF143:
 13059 05f9 6C63335F 		.ascii	"lc3_sns_mpvq_offsets\000"
 13059      736E735F 
 13059      6D707671 
 13059      5F6F6666 
 13059      73657473 
 13060              	.LASF134:
 13061 060e 64637431 		.ascii	"dct16_m\000"
 13061      365F6D00 
 13062              	.LASF87:
 13063 0616 675F736E 		.ascii	"g_sns\000"
 13063      7300
 13064              	.LASF56:
 13065 061c 6C63335F 		.ascii	"lc3_sns_data\000"
 13065      736E735F 
 13065      64617461 
 13065      00
 13066              	.LASF63:
 13067 0629 6C735F61 		.ascii	"ls_a\000"
 13067      00
ARM GAS  C:\Users\rdn\AppData\Local\Temp\cc92LAgm.s 			page 264


 13068              	.LASF64:
 13069 062e 6C735F62 		.ascii	"ls_b\000"
 13069      00
 13070              	.LASF22:
 13071 0633 6C63335F 		.ascii	"lc3_srate\000"
 13071      73726174 
 13071      6500
 13072              	.LASF2:
 13073 063d 756E7369 		.ascii	"unsigned char\000"
 13073      676E6564 
 13073      20636861 
 13073      7200
 13074              	.LASF8:
 13075 064b 5F5F7569 		.ascii	"__uint32_t\000"
 13075      6E743332 
 13075      5F7400
 13076              	.LASF130:
 13077 0656 7375626D 		.ascii	"submode\000"
 13077      6F646500 
 13078              	.LASF72:
 13079 065e 6E626573 		.ascii	"nbest\000"
 13079      7400
 13080              	.LASF144:
 13081 0664 73717274 		.ascii	"sqrtf\000"
 13081      6600
 13082              	.LASF65:
 13083 066a 6C63335F 		.ascii	"lc3_sns_data_t\000"
 13083      736E735F 
 13083      64617461 
 13083      5F7400
 13084              	.LASF74:
 13085 0679 756E7175 		.ascii	"unquantize\000"
 13085      616E7469 
 13085      7A6500
 13086              	.LASF23:
 13087 0684 4C43335F 		.ascii	"LC3_SRATE_8K\000"
 13087      53524154 
 13087      455F384B 
 13087      00
 13088              	.LASF1:
 13089 0691 7369676E 		.ascii	"signed char\000"
 13089      65642063 
 13089      68617200 
 13090              	.LASF4:
 13091 069d 73686F72 		.ascii	"short unsigned int\000"
 13091      7420756E 
 13091      7369676E 
 13091      65642069 
 13091      6E7400
 13092              	.LASF150:
 13093 06b0 6D656D63 		.ascii	"memcpy\000"
 13093      707900
 13094              	.LASF57:
 13095 06b7 6C666362 		.ascii	"lfcb\000"
 13095      00
 13096              	.LASF116:
 13097 06bc 6E6F6973 		.ascii	"noise_floor\000"
ARM GAS  C:\Users\rdn\AppData\Local\Temp\cc92LAgm.s 			page 265


 13097      655F666C 
 13097      6F6F7200 
 13098              	.LASF37:
 13099 06c8 4C43335F 		.ascii	"LC3_BITS_MODE_READ\000"
 13099      42495453 
 13099      5F4D4F44 
 13099      455F5245 
 13099      414400
 13100              	.LASF35:
 13101 06db 646F7562 		.ascii	"double\000"
 13101      6C6500
 13102              	.LASF29:
 13103 06e2 4C43335F 		.ascii	"LC3_SRATE_96K_HR\000"
 13103      53524154 
 13103      455F3936 
 13103      4B5F4852 
 13103      00
 13104              	.LASF91:
 13105 06f3 656E756D 		.ascii	"enumerate\000"
 13105      65726174 
 13105      6500
 13106              	.LASF41:
 13107 06fd 6C63335F 		.ascii	"lc3_bits_ac\000"
 13107      62697473 
 13107      5F616300 
 13108              	.LASF138:
 13109 0709 6C63335F 		.ascii	"lc3_frame_bytes_hr_lim\000"
 13109      6672616D 
 13109      655F6279 
 13109      7465735F 
 13109      68725F6C 
 13110              	.LASF115:
 13111 0720 655F7375 		.ascii	"e_sum\000"
 13111      6D00
 13112              	.LASF61:
 13113 0726 6964785F 		.ascii	"idx_a\000"
 13113      6100
 13114              	.LASF62:
 13115 072c 6964785F 		.ascii	"idx_b\000"
 13115      6200
 13116              	.LASF142:
 13117 0732 6C63335F 		.ascii	"lc3_sns_hfcb\000"
 13117      736E735F 
 13117      68666362 
 13117      00
 13118              	.LASF49:
 13119 073f 705F6677 		.ascii	"p_fw\000"
 13119      00
 13120              		.ident	"GCC: (GNU Tools for ARM Embedded Processors) 5.4.1 20160609 (release) [ARM/embedded-5-bran
